target datalayout = "e-m:e-p270:32:32-p271:32:32-p272:64:64-i64:64-i128:128-f80:128-n8:16:32:64-S128"
target triple = "x86_64-unknown-linux-gnu"

%struct.rect = type { i32, i32, i32, i32 }
%"struct.struct_pack::serialize_buffer_size" = type <{ i64, i8, [7 x i8] }>
%struct.size_info = type { i64, i64, i64 }
%"struct.struct_pack::detail::memory_writer" = type { ptr }
%"struct.struct_pack::detail::memory_reader" = type { ptr, ptr }
%"class.struct_pack::detail::unpacker" = type <{ i64, ptr, i8, [7 x i8] }>
%"class.tl::expected" = type { %"struct.tl::detail::expected_move_assign_base.base", [3 x i8] }
%"struct.tl::detail::expected_move_assign_base.base" = type { %"struct.tl::detail::expected_copy_assign_base.base" }
%"struct.tl::detail::expected_copy_assign_base.base" = type { %"struct.tl::detail::expected_move_base.base" }
%"struct.tl::detail::expected_move_base.base" = type { %"struct.tl::detail::expected_copy_base.base" }
%"struct.tl::detail::expected_copy_base.base" = type { %"struct.tl::detail::expected_operations_base.base" }
%"struct.tl::detail::expected_operations_base.base" = type { %"struct.tl::detail::expected_storage_base.base" }
%"struct.tl::detail::expected_storage_base.base" = type <{ %union.anon, i8 }>
%union.anon = type { %struct.rect }
%"class.tl::unexpected" = type { i32 }
%"class.std::vector" = type { %"struct.std::_Vector_base" }
%"struct.std::_Vector_base" = type { %"struct.std::_Vector_base<char, std::allocator<char>>::_Vector_impl" }
%"struct.std::_Vector_base<char, std::allocator<char>>::_Vector_impl" = type { %"struct.std::_Vector_base<char, std::allocator<char>>::_Vector_impl_data" }
%"struct.std::_Vector_base<char, std::allocator<char>>::_Vector_impl_data" = type { ptr, ptr, ptr }
%"class.struct_pack::detail::unpacker.7" = type <{ i64, ptr, i8, [7 x i8] }>
%"class.tl::bad_expected_access" = type <{ %"class.std::exception", i32, [4 x i8] }>
%"class.std::exception" = type { ptr }
%"struct.tl::detail::expected_storage_base" = type <{ %union.anon, i8, [3 x i8] }>
%"struct.std::pair" = type { i32, i64 }
%class.anon = type { ptr }
%class.anon.0 = type { ptr }
%class.anon.1 = type { ptr }
%class.anon.2 = type { ptr }
%class.anon.3 = type { ptr }
%class.anon.4 = type { ptr }
%class.anon.5 = type { ptr }
%class.anon.6 = type { ptr }
%class.anon.9 = type { ptr }
%class.anon.10 = type { ptr }
%class.anon.11 = type { ptr }
%class.anon.12 = type { ptr }
%class.anon.13 = type { ptr }
%class.anon.14 = type { ptr }
%class.anon.15 = type { ptr }
%class.anon.16 = type { ptr }
%"class.struct_pack::detail::packer" = type { ptr, ptr }
%class.anon.17 = type { i8 }
%class.anon.18 = type { i8 }
%class.anon.20 = type { ptr }
%class.anon.21 = type { ptr }

$_ZNSt6vectorIcSaIcEED2Ev = comdat any

$_ZN2tl8expectedI4rectN11struct_pack4errcEEC2Ev = comdat any

$_ZNR2tl8expectedI4rectN11struct_pack4errcEE5valueIS1_TnPNSt9enable_ifIXntsr3std7is_voidIT_EE5valueEvE4typeELPv0EEERS7_v = comdat any

$_ZN2tl10unexpectedIN11struct_pack4errcEEC2ERKS2_ = comdat any

$_ZN2tl8expectedI4rectN11struct_pack4errcEEaSIS3_TnPNSt9enable_ifIXaasr3std29is_nothrow_move_constructibleIT_EE5valuesr3std18is_move_assignableIS7_EE5valueEvE4typeELPv0EEERS4_ONS_10unexpectedIS7_EE = comdat any

$_ZN2tl6detail25expected_move_assign_baseI4rectN11struct_pack4errcELb1EEC2Ev = comdat any

$_ZN2tl6detail25expected_copy_assign_baseI4rectN11struct_pack4errcELb1EEC2Ev = comdat any

$_ZN2tl6detail18expected_move_baseI4rectN11struct_pack4errcELb1EEC2Ev = comdat any

$_ZN2tl6detail18expected_copy_baseI4rectN11struct_pack4errcELb1EEC2Ev = comdat any

$_ZN2tl6detail24expected_operations_baseI4rectN11struct_pack4errcEEC2Ev = comdat any

$_ZN2tl6detail21expected_storage_baseI4rectN11struct_pack4errcELb1ELb1EEC2Ev = comdat any

$_ZNKSt6vectorIcSaIcEE4dataEv = comdat any

$_ZNKSt6vectorIcSaIcEE4sizeEv = comdat any

$_ZN11struct_pack6detail13memory_readerC2EPKcS3_ = comdat any

$_ZN11struct_pack6detail8unpackerINS0_13memory_readerELm3EE11deserializeI4rectJEEENS_4errcERT_DpRT0_ = comdat any

$_ZNKSt6vectorIcSaIcEE11_M_data_ptrIcEEPT_S4_ = comdat any

$_ZSt3getILm0EN11struct_pack4errcEmEONSt13tuple_elementIXT_ESt4pairIT0_T1_EE4typeEOS6_ = comdat any

$_ZSt3getILm1EN11struct_pack4errcEmEONSt13tuple_elementIXT_ESt4pairIT0_T1_EE4typeEOS6_ = comdat any

$_ZN11struct_pack6detail11unreachableEv = comdat any

$_ZNSt4pairIN11struct_pack4errcEmEC2EvQaa26is_default_constructible_vIT_E26is_default_constructible_vIT0_E = comdat any

$_ZNSt10__pair_getILm0EE10__move_getIN11struct_pack4errcEmEEOT_OSt4pairIS4_T0_E = comdat any

$_ZNSt10__pair_getILm1EE10__move_getIN11struct_pack4errcEmEEOT0_OSt4pairIT_S4_E = comdat any

$_ZN11struct_pack6detail8unpackerINS0_13memory_readerELm3EE15deserialize_oneILm1ELm18446744073709551615ELb1ELm0E4rectEENS_4errcERT3_ = comdat any

$_ZN11struct_pack6detail13memory_reader4readEPcm = comdat any

$_ZN11struct_pack6detail8unpackerINS0_13memory_readerELm3EE15deserialize_oneILm1ELm18446744073709551615ELb1ELm15EiEENS_4errcERT3_ = comdat any

$_ZN11struct_pack6detail8unpackerINS0_13memory_readerELm3EE15deserialize_oneILm2ELm18446744073709551615ELb1ELm0E4rectEENS_4errcERT3_ = comdat any

$_ZN11struct_pack6detail8unpackerINS0_13memory_readerELm3EE15deserialize_oneILm2ELm18446744073709551615ELb1ELm15EiEENS_4errcERT3_ = comdat any

$_ZN11struct_pack6detail8unpackerINS0_13memory_readerELm3EE15deserialize_oneILm4ELm18446744073709551615ELb1ELm0E4rectEENS_4errcERT3_ = comdat any

$_ZN11struct_pack6detail8unpackerINS0_13memory_readerELm3EE15deserialize_oneILm4ELm18446744073709551615ELb1ELm15EiEENS_4errcERT3_ = comdat any

$_ZN11struct_pack6detail8unpackerINS0_13memory_readerELm3EE15deserialize_oneILm8ELm18446744073709551615ELb1ELm0E4rectEENS_4errcERT3_ = comdat any

$_ZN11struct_pack6detail8unpackerINS0_13memory_readerELm3EE15deserialize_oneILm8ELm18446744073709551615ELb1ELm15EiEENS_4errcERT3_ = comdat any

$_ZNK2tl8expectedI4rectN11struct_pack4errcEE9has_valueEv = comdat any

$_ZN2tl6detail15throw_exceptionINS_19bad_expected_accessIN11struct_pack4errcEEEEEvOT_ = comdat any

$_ZN2tl8expectedI4rectN11struct_pack4errcEE3errEv = comdat any

$_ZNR2tl10unexpectedIN11struct_pack4errcEE5valueEv = comdat any

$_ZN2tl19bad_expected_accessIN11struct_pack4errcEEC2ES2_ = comdat any

$_ZN2tl19bad_expected_accessIN11struct_pack4errcEED2Ev = comdat any

$_ZN2tl8expectedI4rectN11struct_pack4errcEE3valIS1_TnPNSt9enable_ifIXntsr3std7is_voidIT_EE5valueEvE4typeELPv0EEERS7_v = comdat any

$_ZN2tl19bad_expected_accessIN11struct_pack4errcEEC2EOS3_ = comdat any

$_ZNSt9exceptionC2EOS_ = comdat any

$_ZN2tl19bad_expected_accessIN11struct_pack4errcEED0Ev = comdat any

$_ZNK2tl19bad_expected_accessIN11struct_pack4errcEE4whatEv = comdat any

$_ZNSt9exceptionC2Ev = comdat any

$_ZN2tl6detail24expected_operations_baseI4rectN11struct_pack4errcEE11destroy_valEv = comdat any

$__clang_call_terminate = comdat any

$_ZN2tl8expectedI4rectN11struct_pack4errcEE6errptrEv = comdat any

$_ZNR2tl6detail24expected_operations_baseI4rectN11struct_pack4errcEE3getEv = comdat any

$_ZSt8_DestroyIPccEvT_S1_RSaIT0_E = comdat any

$_ZNSt12_Vector_baseIcSaIcEE19_M_get_Tp_allocatorEv = comdat any

$_ZNSt12_Vector_baseIcSaIcEED2Ev = comdat any

$_ZSt8_DestroyIPcEvT_S1_ = comdat any

$_ZNSt12_Destroy_auxILb1EE9__destroyIPcEEvT_S3_ = comdat any

$_ZNSt12_Vector_baseIcSaIcEE13_M_deallocateEPcm = comdat any

$_ZNSt12_Vector_baseIcSaIcEE12_Vector_implD2Ev = comdat any

$_ZNSt16allocator_traitsISaIcEE10deallocateERS0_Pcm = comdat any

$_ZNSt15__new_allocatorIcE10deallocateEPcm = comdat any

$_ZN11struct_pack6detail8unpackerINS0_13memory_readerELm0EE11deserializeI4rectJEEENS_4errcERT_DpRT0_ = comdat any

$_ZN11struct_pack6detail8unpackerINS0_13memory_readerELm0EE15deserialize_oneILm1ELm18446744073709551615ELb1ELm0E4rectEENS_4errcERT3_ = comdat any

$_ZN11struct_pack6detail8unpackerINS0_13memory_readerELm0EE15deserialize_oneILm1ELm18446744073709551615ELb1ELm15EiEENS_4errcERT3_ = comdat any

$_ZN11struct_pack6detail8unpackerINS0_13memory_readerELm0EE15deserialize_oneILm2ELm18446744073709551615ELb1ELm0E4rectEENS_4errcERT3_ = comdat any

$_ZN11struct_pack6detail8unpackerINS0_13memory_readerELm0EE15deserialize_oneILm2ELm18446744073709551615ELb1ELm15EiEENS_4errcERT3_ = comdat any

$_ZN11struct_pack6detail8unpackerINS0_13memory_readerELm0EE15deserialize_oneILm4ELm18446744073709551615ELb1ELm0E4rectEENS_4errcERT3_ = comdat any

$_ZN11struct_pack6detail8unpackerINS0_13memory_readerELm0EE15deserialize_oneILm4ELm18446744073709551615ELb1ELm15EiEENS_4errcERT3_ = comdat any

$_ZN11struct_pack6detail8unpackerINS0_13memory_readerELm0EE15deserialize_oneILm8ELm18446744073709551615ELb1ELm0E4rectEENS_4errcERT3_ = comdat any

$_ZN11struct_pack6detail8unpackerINS0_13memory_readerELm0EE15deserialize_oneILm8ELm18446744073709551615ELb1ELm15EiEENS_4errcERT3_ = comdat any

$_ZNSt6vectorIcSaIcEEC2Ev = comdat any

$_ZNSt12_Vector_baseIcSaIcEEC2Ev = comdat any

$_ZNSt12_Vector_baseIcSaIcEE12_Vector_implC2Ev = comdat any

$_ZNSt12_Vector_baseIcSaIcEE17_Vector_impl_dataC2Ev = comdat any

$_ZNK11struct_pack21serialize_buffer_size4sizeEv = comdat any

$_ZN11struct_pack6detail6resizeIcEEvRSt6vectorIT_SaIS3_EEm = comdat any

$_ZNSt6vectorIcSaIcEE4dataEv = comdat any

$_ZN11struct_pack6detail12serialize_toILm3ETkNS_8writer_tENS0_13memory_writerEJ4rectEEEvRT0_RKNS_21serialize_buffer_sizeEDpRKT1_ = comdat any

$_ZN11struct_pack21serialize_buffer_sizeC2Ev = comdat any

$_ZN11struct_pack6detail18calculate_one_sizeI4rectLm0EEE9size_infoRKT_ = comdat any

$_ZN9size_infopLERKS_ = comdat any

$_ZN11struct_pack6detail16get_varint_valueIiEERKDaRKT_ = comdat any

$_ZSt3maxIiERKT_S2_S2_ = comdat any

$_ZN11struct_pack6detail18calculate_one_sizeIiLm15EEE9size_infoRKT_ = comdat any

$_ZN9size_infoplERKS_ = comdat any

$_ZSt3maxImERKT_S2_S2_ = comdat any

$_ZNSt6vectorIcSaIcEE7reserveEm = comdat any

$_ZN11struct_pack6detail24vector_set_length_hackerERSt6vectorIcSaIcEEm = comdat any

$_ZNKSt6vectorIcSaIcEE8max_sizeEv = comdat any

$_ZNKSt6vectorIcSaIcEE8capacityEv = comdat any

$_ZNSt12_Vector_baseIcSaIcEE11_M_allocateEm = comdat any

$_ZNSt6vectorIcSaIcEE11_S_relocateEPcS2_S2_RS0_ = comdat any

$_ZNSt6vectorIcSaIcEE11_S_max_sizeERKS0_ = comdat any

$_ZNKSt12_Vector_baseIcSaIcEE19_M_get_Tp_allocatorEv = comdat any

$_ZNSt16allocator_traitsISaIcEE8max_sizeERKS0_ = comdat any

$_ZSt3minImERKT_S2_S2_ = comdat any

$_ZNSt16allocator_traitsISaIcEE8allocateERS0_m = comdat any

$_ZNSt15__new_allocatorIcE8allocateEmPKv = comdat any

$_ZNKSt15__new_allocatorIcE11_M_max_sizeEv = comdat any

$_ZSt12__relocate_aIPcS0_SaIcEET0_T_S3_S2_RT1_ = comdat any

$_ZSt14__relocate_a_1IccENSt9enable_ifIXsr3std24__is_bitwise_relocatableIT_EE5valueEPS1_E4typeES2_S2_S2_RSaIT0_E = comdat any

$_ZSt12__niter_baseIPcET_S1_ = comdat any

$_ZN11struct_pack6detail6packerINS0_13memory_writerE4rectEC2ERS2_RKNS_21serialize_buffer_sizeE = comdat any

$_ZN11struct_pack6detail6packerINS0_13memory_writerE4rectE13serialize_oneILm1ELm18446744073709551615ELm0ES3_EEvRKT2_ = comdat any

$_ZN11struct_pack6detail6packerINS0_13memory_writerE4rectE13serialize_oneILm1ELm18446744073709551615ELm15EiEEvRKT2_ = comdat any

$_ZN11struct_pack6detail12serialize_toILm0ETkNS_8writer_tENS0_13memory_writerEJ4rectEEEvRT0_RKNS_21serialize_buffer_sizeEDpRKT1_ = comdat any

$_ZTSN2tl19bad_expected_accessIN11struct_pack4errcEEE = comdat any

$_ZTIN2tl19bad_expected_accessIN11struct_pack4errcEEE = comdat any

$_ZTVN2tl19bad_expected_accessIN11struct_pack4errcEEE = comdat any

@__const._Z16serialize_configv.r = private unnamed_addr constant %struct.rect { i32 1, i32 -1, i32 0, i32 5 }, align 4
@__const._Z23serialize_config_by_ADLv.r = private unnamed_addr constant %struct.rect { i32 1, i32 -1, i32 0, i32 5 }, align 4
@_ZTVN10__cxxabiv120__si_class_type_infoE = external global [0 x ptr]
@_ZTSN2tl19bad_expected_accessIN11struct_pack4errcEEE = linkonce_odr dso_local constant [49 x i8] c"N2tl19bad_expected_accessIN11struct_pack4errcEEE\00", comdat, align 1
@_ZTISt9exception = external constant ptr
@_ZTIN2tl19bad_expected_accessIN11struct_pack4errcEEE = linkonce_odr dso_local constant { ptr, ptr, ptr } { ptr getelementptr inbounds (ptr, ptr @_ZTVN10__cxxabiv120__si_class_type_infoE, i64 2), ptr @_ZTSN2tl19bad_expected_accessIN11struct_pack4errcEEE, ptr @_ZTISt9exception }, comdat, align 8
@_ZTVN2tl19bad_expected_accessIN11struct_pack4errcEEE = linkonce_odr dso_local unnamed_addr constant { [5 x ptr] } { [5 x ptr] [ptr null, ptr @_ZTIN2tl19bad_expected_accessIN11struct_pack4errcEEE, ptr @_ZN2tl19bad_expected_accessIN11struct_pack4errcEED2Ev, ptr @_ZN2tl19bad_expected_accessIN11struct_pack4errcEED0Ev, ptr @_ZNK2tl19bad_expected_accessIN11struct_pack4errcEE4whatEv] }, comdat, align 8
@_ZTVSt9exception = external unnamed_addr constant { [5 x ptr] }, align 8
@.str = private unnamed_addr constant [20 x i8] c"Bad expected access\00", align 1
@.str.1 = private unnamed_addr constant [16 x i8] c"vector::reserve\00", align 1

; Function Attrs: mustprogress uwtable
define dso_local void @_Z16serialize_configv() #0 personality ptr @__gxx_personality_v0 {
entry:
  %items.addr.i = alloca ptr, align 8
  %retval.i = alloca %"struct.struct_pack::serialize_buffer_size", align 8
  %args.addr.i15 = alloca ptr, align 8
  %has_compatible.i = alloca i8, align 1
  %has_type_literal.i = alloca i8, align 1
  %disable_hash_head.i = alloca i8, align 1
  %has_container.i = alloca i8, align 1
  %has_compile_time_determined_meta_info.i = alloca i8, align 1
  %sz_info.i = alloca %struct.size_info, align 8
  %writer.addr.i = alloca ptr, align 8
  %args.addr.i7 = alloca ptr, align 8
  %data_offset.i = alloca i64, align 8
  %info.i = alloca %"struct.struct_pack::serialize_buffer_size", align 8
  %total.i = alloca i64, align 8
  %real_writer.i = alloca %"struct.struct_pack::detail::memory_writer", align 8
  %this.addr.i = alloca ptr, align 8
  %reader.addr.i = alloca ptr, align 8
  %t.addr.i = alloca ptr, align 8
  %v.addr.i4 = alloca ptr, align 8
  %reader.i = alloca %"struct.struct_pack::detail::memory_reader", align 8
  %in.i = alloca %"class.struct_pack::detail::unpacker", align 8
  %v.addr.i = alloca ptr, align 8
  %ret.i = alloca %"class.tl::expected", align 4
  %errc.i = alloca i32, align 4
  %ref.tmp.i = alloca %"class.tl::unexpected", align 4
  %result.ptr.i = alloca ptr, align 8
  %args.addr.i = alloca ptr, align 8
  %nrvo.i = alloca i1, align 1
  %exn.slot.i = alloca ptr, align 8
  %ehselector.slot.i = alloca i32, align 4
  %r = alloca %struct.rect, align 4
  %buffer = alloca %"class.std::vector", align 8
  %result = alloca %"class.tl::expected", align 4
  %exn.slot = alloca ptr, align 8
  %ehselector.slot = alloca i32, align 4
  call void @llvm.memcpy.p0.p0.i64(ptr align 4 %r, ptr align 4 @__const._Z16serialize_configv.r, i64 16, i1 false)
  call void @llvm.experimental.noalias.scope.decl(metadata !5)
  store ptr %buffer, ptr %result.ptr.i, align 8, !noalias !5
  store ptr %r, ptr %args.addr.i, align 8, !noalias !5
  store i1 false, ptr %nrvo.i, align 1, !noalias !5
  call void @_ZNSt6vectorIcSaIcEEC2Ev(ptr noundef nonnull align 8 dereferenceable(24) %buffer) #12
  %0 = load ptr, ptr %args.addr.i, align 8, !noalias !5
  store ptr %buffer, ptr %writer.addr.i, align 8
  store ptr %0, ptr %args.addr.i7, align 8
  %1 = load ptr, ptr %writer.addr.i, align 8
  %call.i8 = call noundef i64 @_ZNKSt6vectorIcSaIcEE4sizeEv(ptr noundef nonnull align 8 dereferenceable(24) %1) #12
  store i64 %call.i8, ptr %data_offset.i, align 8
  %2 = load ptr, ptr %args.addr.i7, align 8
  store ptr %2, ptr %args.addr.i15, align 8
  store i8 0, ptr %has_compatible.i, align 1
  store i8 0, ptr %has_type_literal.i, align 1
  store i8 1, ptr %disable_hash_head.i, align 1
  store i8 0, ptr %has_container.i, align 1
  store i8 0, ptr %has_compile_time_determined_meta_info.i, align 1
  call void @_ZN11struct_pack21serialize_buffer_sizeC2Ev(ptr noundef nonnull align 8 dereferenceable(9) %retval.i)
  %3 = load ptr, ptr %args.addr.i15, align 8
  call void @llvm.experimental.noalias.scope.decl(metadata !8)
  store ptr %3, ptr %items.addr.i, align 8, !noalias !8
  %4 = load ptr, ptr %items.addr.i, align 8, !noalias !8
  invoke void @_ZN11struct_pack6detail18calculate_one_sizeI4rectLm0EEE9size_infoRKT_(ptr sret(%struct.size_info) align 8 %sz_info.i, ptr noundef nonnull align 4 dereferenceable(16) %4)
          to label %_ZN11struct_pack6detail22calculate_payload_sizeILm0EJ4rectEEE9size_infoDpRKT0_.exit unwind label %lpad.i

_ZN11struct_pack6detail22calculate_payload_sizeILm0EJ4rectEEE9size_infoDpRKT0_.exit: ; preds = %entry
  br label %_ZN11struct_pack6detail26get_serialize_runtime_infoILm3EJ4rectEEENS_21serialize_buffer_sizeEDpRKT0_.exit

_ZN11struct_pack6detail26get_serialize_runtime_infoILm3EJ4rectEEENS_21serialize_buffer_sizeEDpRKT0_.exit: ; preds = %_ZN11struct_pack6detail22calculate_payload_sizeILm0EJ4rectEEE9size_infoDpRKT0_.exit
  %5 = load i64, ptr %sz_info.i, align 8
  %6 = load i64, ptr %retval.i, align 8
  %add.i16 = add i64 %6, %5
  store i64 %add.i16, ptr %retval.i, align 8
  %7 = load { i64, i8 }, ptr %retval.i, align 8
  br label %call1.i9.noexc

call1.i9.noexc:                                   ; preds = %_ZN11struct_pack6detail26get_serialize_runtime_infoILm3EJ4rectEEENS_21serialize_buffer_sizeEDpRKT0_.exit
  %8 = extractvalue { i64, i8 } %7, 0
  store i64 %8, ptr %info.i, align 8
  %9 = getelementptr inbounds { i64, i8 }, ptr %info.i, i32 0, i32 1
  %10 = extractvalue { i64, i8 } %7, 1
  store i8 %10, ptr %9, align 8
  %11 = load i64, ptr %data_offset.i, align 8
  %call2.i10 = call noundef i64 @_ZNK11struct_pack21serialize_buffer_size4sizeEv(ptr noundef nonnull align 8 dereferenceable(9) %info.i)
  %add.i = add i64 %11, %call2.i10
  store i64 %add.i, ptr %total.i, align 8
  %12 = load ptr, ptr %writer.addr.i, align 8
  %13 = load i64, ptr %total.i, align 8
  invoke void @_ZN11struct_pack6detail6resizeIcEEvRSt6vectorIT_SaIS3_EEm(ptr noundef nonnull align 8 dereferenceable(24) %12, i64 noundef %13)
          to label %.noexc13 unwind label %lpad.i

.noexc13:                                         ; preds = %call1.i9.noexc
  %14 = load ptr, ptr %writer.addr.i, align 8
  %call3.i = call noundef ptr @_ZNSt6vectorIcSaIcEE4dataEv(ptr noundef nonnull align 8 dereferenceable(24) %14) #12
  %15 = load i64, ptr %data_offset.i, align 8
  %add.ptr.i11 = getelementptr inbounds i8, ptr %call3.i, i64 %15
  store ptr %add.ptr.i11, ptr %real_writer.i, align 8
  %16 = load ptr, ptr %args.addr.i7, align 8
  invoke void @_ZN11struct_pack6detail12serialize_toILm3ETkNS_8writer_tENS0_13memory_writerEJ4rectEEEvRT0_RKNS_21serialize_buffer_sizeEDpRKT1_(ptr noundef nonnull align 8 dereferenceable(8) %real_writer.i, ptr noundef nonnull align 8 dereferenceable(9) %info.i, ptr noundef nonnull align 4 dereferenceable(16) %16)
          to label %_ZN11struct_pack12serialize_toILm3ESt6vectorIcSaIcEEJ4rectEEEvRT0_DpRKT1_.exit unwind label %lpad.i

_ZN11struct_pack12serialize_toILm3ESt6vectorIcSaIcEEJ4rectEEEvRT0_DpRKT1_.exit: ; preds = %.noexc13
  br label %invoke.cont.i

invoke.cont.i:                                    ; preds = %_ZN11struct_pack12serialize_toILm3ESt6vectorIcSaIcEEJ4rectEEEvRT0_DpRKT1_.exit
  store i1 true, ptr %nrvo.i, align 1, !noalias !5
  %nrvo.val.i = load i1, ptr %nrvo.i, align 1, !noalias !5
  br i1 %nrvo.val.i, label %_ZN11struct_pack9serializeILm3ETkNS_6detail18struct_pack_bufferESt6vectorIcSaIcEEJ4rectEEET0_DpRKT1_.exit, label %nrvo.unused.i

lpad.i:                                           ; preds = %.noexc13, %call1.i9.noexc, %entry
  %17 = landingpad { ptr, i32 }
          cleanup
  %18 = extractvalue { ptr, i32 } %17, 0
  store ptr %18, ptr %exn.slot.i, align 8, !noalias !5
  %19 = extractvalue { ptr, i32 } %17, 1
  store i32 %19, ptr %ehselector.slot.i, align 4, !noalias !5
  call void @_ZNSt6vectorIcSaIcEED2Ev(ptr noundef nonnull align 8 dereferenceable(24) %buffer) #12
  %exn.i = load ptr, ptr %exn.slot.i, align 8, !noalias !5
  %sel.i = load i32, ptr %ehselector.slot.i, align 4, !noalias !5
  %lpad.val.i = insertvalue { ptr, i32 } poison, ptr %exn.i, 0
  %lpad.val1.i = insertvalue { ptr, i32 } %lpad.val.i, i32 %sel.i, 1
  resume { ptr, i32 } %lpad.val1.i

nrvo.unused.i:                                    ; preds = %invoke.cont.i
  call void @_ZNSt6vectorIcSaIcEED2Ev(ptr noundef nonnull align 8 dereferenceable(24) %buffer) #12
  br label %_ZN11struct_pack9serializeILm3ETkNS_6detail18struct_pack_bufferESt6vectorIcSaIcEEJ4rectEEET0_DpRKT1_.exit

_ZN11struct_pack9serializeILm3ETkNS_6detail18struct_pack_bufferESt6vectorIcSaIcEEJ4rectEEET0_DpRKT1_.exit: ; preds = %nrvo.unused.i, %invoke.cont.i
  call void @llvm.experimental.noalias.scope.decl(metadata !11)
  store ptr %buffer, ptr %v.addr.i, align 8, !noalias !11
  invoke void @_ZN2tl8expectedI4rectN11struct_pack4errcEEC2Ev(ptr noundef nonnull align 4 dereferenceable(17) %ret.i)
          to label %.noexc unwind label %lpad

.noexc:                                           ; preds = %_ZN11struct_pack9serializeILm3ETkNS_6detail18struct_pack_bufferESt6vectorIcSaIcEEJ4rectEEET0_DpRKT1_.exit
  %call.i2 = invoke noundef nonnull align 4 dereferenceable(16) ptr @_ZNR2tl8expectedI4rectN11struct_pack4errcEE5valueIS1_TnPNSt9enable_ifIXntsr3std7is_voidIT_EE5valueEvE4typeELPv0EEERS7_v(ptr noundef nonnull align 4 dereferenceable(17) %ret.i)
          to label %call.i.noexc unwind label %lpad

call.i.noexc:                                     ; preds = %.noexc
  %20 = load ptr, ptr %v.addr.i, align 8, !noalias !11
  store ptr %call.i2, ptr %t.addr.i, align 8
  store ptr %20, ptr %v.addr.i4, align 8
  %21 = load ptr, ptr %v.addr.i4, align 8
  %call.i = call noundef ptr @_ZNKSt6vectorIcSaIcEE4dataEv(ptr noundef nonnull align 8 dereferenceable(24) %21) #12
  %22 = load ptr, ptr %v.addr.i4, align 8
  %call1.i = call noundef ptr @_ZNKSt6vectorIcSaIcEE4dataEv(ptr noundef nonnull align 8 dereferenceable(24) %22) #12
  %23 = load ptr, ptr %v.addr.i4, align 8
  %call2.i5 = call noundef i64 @_ZNKSt6vectorIcSaIcEE4sizeEv(ptr noundef nonnull align 8 dereferenceable(24) %23) #12
  %add.ptr.i = getelementptr inbounds i8, ptr %call1.i, i64 %call2.i5
  call void @_ZN11struct_pack6detail13memory_readerC2EPKcS3_(ptr noundef nonnull align 8 dereferenceable(16) %reader.i, ptr noundef %call.i, ptr noundef %add.ptr.i) #12
  store ptr %in.i, ptr %this.addr.i, align 8
  store ptr %reader.i, ptr %reader.addr.i, align 8
  %this1.i = load ptr, ptr %this.addr.i, align 8
  %reader_.i = getelementptr inbounds %"class.struct_pack::detail::unpacker", ptr %this1.i, i32 0, i32 1
  %24 = load ptr, ptr %reader.addr.i, align 8
  store ptr %24, ptr %reader_.i, align 8
  %25 = load ptr, ptr %t.addr.i, align 8
  %call3.i6 = invoke noundef i32 @_ZN11struct_pack6detail8unpackerINS0_13memory_readerELm3EE11deserializeI4rectJEEENS_4errcERT_DpRT0_(ptr noundef nonnull align 8 dereferenceable(17) %in.i, ptr noundef nonnull align 4 dereferenceable(16) %25)
          to label %_ZN11struct_pack14deserialize_toILm3E4rectJETkNS_6detail16deserialize_viewESt6vectorIcSaIcEEEENS_4errcERT0_RKT2_DpRT1_.exit unwind label %lpad

_ZN11struct_pack14deserialize_toILm3E4rectJETkNS_6detail16deserialize_viewESt6vectorIcSaIcEEEENS_4errcERT0_RKT2_DpRT1_.exit: ; preds = %call.i.noexc
  br label %call1.i.noexc

call1.i.noexc:                                    ; preds = %_ZN11struct_pack14deserialize_toILm3E4rectJETkNS_6detail16deserialize_viewESt6vectorIcSaIcEEEENS_4errcERT0_RKT2_DpRT1_.exit
  store i32 %call3.i6, ptr %errc.i, align 4, !noalias !11
  %26 = load i32, ptr %errc.i, align 4, !noalias !11
  %cmp.i = icmp ne i32 %26, 0
  br i1 %cmp.i, label %if.then.i, label %_ZN11struct_pack11deserializeILm3EJ4rectETkNS_6detail16deserialize_viewESt6vectorIcSaIcEEEEDaRKT1_.exit

if.then.i:                                        ; preds = %call1.i.noexc
  call void @_ZN2tl10unexpectedIN11struct_pack4errcEEC2ERKS2_(ptr noundef nonnull align 4 dereferenceable(4) %ref.tmp.i, ptr noundef nonnull align 4 dereferenceable(4) %errc.i), !noalias !11
  %call2.i = call noundef nonnull align 4 dereferenceable(17) ptr @_ZN2tl8expectedI4rectN11struct_pack4errcEEaSIS3_TnPNSt9enable_ifIXaasr3std29is_nothrow_move_constructibleIT_EE5valuesr3std18is_move_assignableIS7_EE5valueEvE4typeELPv0EEERS4_ONS_10unexpectedIS7_EE(ptr noundef nonnull align 4 dereferenceable(17) %ret.i, ptr noundef nonnull align 4 dereferenceable(4) %ref.tmp.i) #12, !noalias !11
  br label %_ZN11struct_pack11deserializeILm3EJ4rectETkNS_6detail16deserialize_viewESt6vectorIcSaIcEEEEDaRKT1_.exit

_ZN11struct_pack11deserializeILm3EJ4rectETkNS_6detail16deserialize_viewESt6vectorIcSaIcEEEEDaRKT1_.exit: ; preds = %if.then.i, %call1.i.noexc
  call void @llvm.memcpy.p0.p0.i64(ptr align 4 %result, ptr align 4 %ret.i, i64 20, i1 false)
  br label %invoke.cont

invoke.cont:                                      ; preds = %_ZN11struct_pack11deserializeILm3EJ4rectETkNS_6detail16deserialize_viewESt6vectorIcSaIcEEEEDaRKT1_.exit
  call void @_ZNSt6vectorIcSaIcEED2Ev(ptr noundef nonnull align 8 dereferenceable(24) %buffer) #12
  ret void

lpad:                                             ; preds = %call.i.noexc, %.noexc, %_ZN11struct_pack9serializeILm3ETkNS_6detail18struct_pack_bufferESt6vectorIcSaIcEEJ4rectEEET0_DpRKT1_.exit
  %27 = landingpad { ptr, i32 }
          cleanup
  %28 = extractvalue { ptr, i32 } %27, 0
  store ptr %28, ptr %exn.slot, align 8
  %29 = extractvalue { ptr, i32 } %27, 1
  store i32 %29, ptr %ehselector.slot, align 4
  call void @_ZNSt6vectorIcSaIcEED2Ev(ptr noundef nonnull align 8 dereferenceable(24) %buffer) #12
  br label %eh.resume

eh.resume:                                        ; preds = %lpad
  %exn = load ptr, ptr %exn.slot, align 8
  %sel = load i32, ptr %ehselector.slot, align 4
  %lpad.val = insertvalue { ptr, i32 } poison, ptr %exn, 0
  %lpad.val1 = insertvalue { ptr, i32 } %lpad.val, i32 %sel, 1
  resume { ptr, i32 } %lpad.val1
}

; Function Attrs: nocallback nofree nounwind willreturn memory(argmem: readwrite)
declare void @llvm.memcpy.p0.p0.i64(ptr noalias nocapture writeonly, ptr noalias nocapture readonly, i64, i1 immarg) #1

declare i32 @__gxx_personality_v0(...)

; Function Attrs: mustprogress nounwind uwtable
define linkonce_odr dso_local void @_ZNSt6vectorIcSaIcEED2Ev(ptr noundef nonnull align 8 dereferenceable(24) %this) unnamed_addr #2 comdat align 2 personality ptr @__gxx_personality_v0 {
entry:
  %this.addr = alloca ptr, align 8
  store ptr %this, ptr %this.addr, align 8
  %this1 = load ptr, ptr %this.addr, align 8
  %_M_impl = getelementptr inbounds %"struct.std::_Vector_base", ptr %this1, i32 0, i32 0
  %_M_start = getelementptr inbounds %"struct.std::_Vector_base<char, std::allocator<char>>::_Vector_impl_data", ptr %_M_impl, i32 0, i32 0
  %0 = load ptr, ptr %_M_start, align 8
  %_M_impl2 = getelementptr inbounds %"struct.std::_Vector_base", ptr %this1, i32 0, i32 0
  %_M_finish = getelementptr inbounds %"struct.std::_Vector_base<char, std::allocator<char>>::_Vector_impl_data", ptr %_M_impl2, i32 0, i32 1
  %1 = load ptr, ptr %_M_finish, align 8
  %call = call noundef nonnull align 1 dereferenceable(1) ptr @_ZNSt12_Vector_baseIcSaIcEE19_M_get_Tp_allocatorEv(ptr noundef nonnull align 8 dereferenceable(24) %this1) #12
  invoke void @_ZSt8_DestroyIPccEvT_S1_RSaIT0_E(ptr noundef %0, ptr noundef %1, ptr noundef nonnull align 1 dereferenceable(1) %call)
          to label %invoke.cont unwind label %terminate.lpad

invoke.cont:                                      ; preds = %entry
  call void @_ZNSt12_Vector_baseIcSaIcEED2Ev(ptr noundef nonnull align 8 dereferenceable(24) %this1) #12
  ret void

terminate.lpad:                                   ; preds = %entry
  %2 = landingpad { ptr, i32 }
          catch ptr null
  %3 = extractvalue { ptr, i32 } %2, 0
  call void @__clang_call_terminate(ptr %3) #13
  unreachable
}

; Function Attrs: mustprogress uwtable
define dso_local void @_Z23serialize_config_by_ADLv() #0 personality ptr @__gxx_personality_v0 {
entry:
  %items.addr.i.i = alloca ptr, align 8
  %retval.i = alloca %"struct.struct_pack::serialize_buffer_size", align 8
  %args.addr.i15 = alloca ptr, align 8
  %has_compatible.i = alloca i8, align 1
  %has_type_literal.i = alloca i8, align 1
  %disable_hash_head.i = alloca i8, align 1
  %has_container.i = alloca i8, align 1
  %has_compile_time_determined_meta_info.i = alloca i8, align 1
  %sz_info.i = alloca %struct.size_info, align 8
  %writer.addr.i = alloca ptr, align 8
  %args.addr.i7 = alloca ptr, align 8
  %data_offset.i = alloca i64, align 8
  %info.i = alloca %"struct.struct_pack::serialize_buffer_size", align 8
  %total.i = alloca i64, align 8
  %real_writer.i = alloca %"struct.struct_pack::detail::memory_writer", align 8
  %this.addr.i = alloca ptr, align 8
  %reader.addr.i = alloca ptr, align 8
  %t.addr.i = alloca ptr, align 8
  %v.addr.i4 = alloca ptr, align 8
  %reader.i = alloca %"struct.struct_pack::detail::memory_reader", align 8
  %in.i = alloca %"class.struct_pack::detail::unpacker.7", align 8
  %v.addr.i = alloca ptr, align 8
  %ret.i = alloca %"class.tl::expected", align 4
  %errc.i = alloca i32, align 4
  %ref.tmp.i = alloca %"class.tl::unexpected", align 4
  %result.ptr.i = alloca ptr, align 8
  %args.addr.i = alloca ptr, align 8
  %nrvo.i = alloca i1, align 1
  %exn.slot.i = alloca ptr, align 8
  %ehselector.slot.i = alloca i32, align 4
  %r = alloca %struct.rect, align 4
  %buffer = alloca %"class.std::vector", align 8
  %result = alloca %"class.tl::expected", align 4
  %exn.slot = alloca ptr, align 8
  %ehselector.slot = alloca i32, align 4
  call void @llvm.memcpy.p0.p0.i64(ptr align 4 %r, ptr align 4 @__const._Z23serialize_config_by_ADLv.r, i64 16, i1 false)
  call void @llvm.experimental.noalias.scope.decl(metadata !14)
  store ptr %buffer, ptr %result.ptr.i, align 8, !noalias !14
  store ptr %r, ptr %args.addr.i, align 8, !noalias !14
  store i1 false, ptr %nrvo.i, align 1, !noalias !14
  call void @_ZNSt6vectorIcSaIcEEC2Ev(ptr noundef nonnull align 8 dereferenceable(24) %buffer) #12
  %0 = load ptr, ptr %args.addr.i, align 8, !noalias !14
  store ptr %buffer, ptr %writer.addr.i, align 8
  store ptr %0, ptr %args.addr.i7, align 8
  %1 = load ptr, ptr %writer.addr.i, align 8
  %call.i8 = call noundef i64 @_ZNKSt6vectorIcSaIcEE4sizeEv(ptr noundef nonnull align 8 dereferenceable(24) %1) #12
  store i64 %call.i8, ptr %data_offset.i, align 8
  %2 = load ptr, ptr %args.addr.i7, align 8
  store ptr %2, ptr %args.addr.i15, align 8
  store i8 0, ptr %has_compatible.i, align 1
  store i8 0, ptr %has_type_literal.i, align 1
  store i8 1, ptr %disable_hash_head.i, align 1
  store i8 0, ptr %has_container.i, align 1
  store i8 0, ptr %has_compile_time_determined_meta_info.i, align 1
  call void @_ZN11struct_pack21serialize_buffer_sizeC2Ev(ptr noundef nonnull align 8 dereferenceable(9) %retval.i)
  %3 = load ptr, ptr %args.addr.i15, align 8
  call void @llvm.experimental.noalias.scope.decl(metadata !17)
  store ptr %3, ptr %items.addr.i.i, align 8, !noalias !17
  %4 = load ptr, ptr %items.addr.i.i, align 8, !noalias !17
  invoke void @_ZN11struct_pack6detail18calculate_one_sizeI4rectLm0EEE9size_infoRKT_(ptr sret(%struct.size_info) align 8 %sz_info.i, ptr noundef nonnull align 4 dereferenceable(16) %4)
          to label %_ZN11struct_pack6detail26get_serialize_runtime_infoILm0EJ4rectEEENS_21serialize_buffer_sizeEDpRKT0_.exit unwind label %lpad.i

_ZN11struct_pack6detail26get_serialize_runtime_infoILm0EJ4rectEEENS_21serialize_buffer_sizeEDpRKT0_.exit: ; preds = %entry
  %5 = load i64, ptr %sz_info.i, align 8
  %6 = load i64, ptr %retval.i, align 8
  %add.i16 = add i64 %6, %5
  store i64 %add.i16, ptr %retval.i, align 8
  %7 = load { i64, i8 }, ptr %retval.i, align 8
  br label %call1.i9.noexc

call1.i9.noexc:                                   ; preds = %_ZN11struct_pack6detail26get_serialize_runtime_infoILm0EJ4rectEEENS_21serialize_buffer_sizeEDpRKT0_.exit
  %8 = extractvalue { i64, i8 } %7, 0
  store i64 %8, ptr %info.i, align 8
  %9 = getelementptr inbounds { i64, i8 }, ptr %info.i, i32 0, i32 1
  %10 = extractvalue { i64, i8 } %7, 1
  store i8 %10, ptr %9, align 8
  %11 = load i64, ptr %data_offset.i, align 8
  %call2.i10 = call noundef i64 @_ZNK11struct_pack21serialize_buffer_size4sizeEv(ptr noundef nonnull align 8 dereferenceable(9) %info.i)
  %add.i = add i64 %11, %call2.i10
  store i64 %add.i, ptr %total.i, align 8
  %12 = load ptr, ptr %writer.addr.i, align 8
  %13 = load i64, ptr %total.i, align 8
  invoke void @_ZN11struct_pack6detail6resizeIcEEvRSt6vectorIT_SaIS3_EEm(ptr noundef nonnull align 8 dereferenceable(24) %12, i64 noundef %13)
          to label %.noexc13 unwind label %lpad.i

.noexc13:                                         ; preds = %call1.i9.noexc
  %14 = load ptr, ptr %writer.addr.i, align 8
  %call3.i = call noundef ptr @_ZNSt6vectorIcSaIcEE4dataEv(ptr noundef nonnull align 8 dereferenceable(24) %14) #12
  %15 = load i64, ptr %data_offset.i, align 8
  %add.ptr.i11 = getelementptr inbounds i8, ptr %call3.i, i64 %15
  store ptr %add.ptr.i11, ptr %real_writer.i, align 8
  %16 = load ptr, ptr %args.addr.i7, align 8
  invoke void @_ZN11struct_pack6detail12serialize_toILm0ETkNS_8writer_tENS0_13memory_writerEJ4rectEEEvRT0_RKNS_21serialize_buffer_sizeEDpRKT1_(ptr noundef nonnull align 8 dereferenceable(8) %real_writer.i, ptr noundef nonnull align 8 dereferenceable(9) %info.i, ptr noundef nonnull align 4 dereferenceable(16) %16)
          to label %_ZN11struct_pack12serialize_toILm0ESt6vectorIcSaIcEEJ4rectEEEvRT0_DpRKT1_.exit unwind label %lpad.i

_ZN11struct_pack12serialize_toILm0ESt6vectorIcSaIcEEJ4rectEEEvRT0_DpRKT1_.exit: ; preds = %.noexc13
  br label %invoke.cont.i

invoke.cont.i:                                    ; preds = %_ZN11struct_pack12serialize_toILm0ESt6vectorIcSaIcEEJ4rectEEEvRT0_DpRKT1_.exit
  store i1 true, ptr %nrvo.i, align 1, !noalias !14
  %nrvo.val.i = load i1, ptr %nrvo.i, align 1, !noalias !14
  br i1 %nrvo.val.i, label %_ZN11struct_pack9serializeITkNS_6detail18struct_pack_bufferESt6vectorIcSaIcEEJ4rectEEET_DpRKT0_.exit, label %nrvo.unused.i

lpad.i:                                           ; preds = %.noexc13, %call1.i9.noexc, %entry
  %17 = landingpad { ptr, i32 }
          cleanup
  %18 = extractvalue { ptr, i32 } %17, 0
  store ptr %18, ptr %exn.slot.i, align 8, !noalias !14
  %19 = extractvalue { ptr, i32 } %17, 1
  store i32 %19, ptr %ehselector.slot.i, align 4, !noalias !14
  call void @_ZNSt6vectorIcSaIcEED2Ev(ptr noundef nonnull align 8 dereferenceable(24) %buffer) #12
  %exn.i = load ptr, ptr %exn.slot.i, align 8, !noalias !14
  %sel.i = load i32, ptr %ehselector.slot.i, align 4, !noalias !14
  %lpad.val.i = insertvalue { ptr, i32 } poison, ptr %exn.i, 0
  %lpad.val1.i = insertvalue { ptr, i32 } %lpad.val.i, i32 %sel.i, 1
  resume { ptr, i32 } %lpad.val1.i

nrvo.unused.i:                                    ; preds = %invoke.cont.i
  call void @_ZNSt6vectorIcSaIcEED2Ev(ptr noundef nonnull align 8 dereferenceable(24) %buffer) #12
  br label %_ZN11struct_pack9serializeITkNS_6detail18struct_pack_bufferESt6vectorIcSaIcEEJ4rectEEET_DpRKT0_.exit

_ZN11struct_pack9serializeITkNS_6detail18struct_pack_bufferESt6vectorIcSaIcEEJ4rectEEET_DpRKT0_.exit: ; preds = %nrvo.unused.i, %invoke.cont.i
  call void @llvm.experimental.noalias.scope.decl(metadata !20)
  store ptr %buffer, ptr %v.addr.i, align 8, !noalias !20
  invoke void @_ZN2tl8expectedI4rectN11struct_pack4errcEEC2Ev(ptr noundef nonnull align 4 dereferenceable(17) %ret.i)
          to label %.noexc unwind label %lpad

.noexc:                                           ; preds = %_ZN11struct_pack9serializeITkNS_6detail18struct_pack_bufferESt6vectorIcSaIcEEJ4rectEEET_DpRKT0_.exit
  %call.i2 = invoke noundef nonnull align 4 dereferenceable(16) ptr @_ZNR2tl8expectedI4rectN11struct_pack4errcEE5valueIS1_TnPNSt9enable_ifIXntsr3std7is_voidIT_EE5valueEvE4typeELPv0EEERS7_v(ptr noundef nonnull align 4 dereferenceable(17) %ret.i)
          to label %call.i.noexc unwind label %lpad

call.i.noexc:                                     ; preds = %.noexc
  %20 = load ptr, ptr %v.addr.i, align 8, !noalias !20
  store ptr %call.i2, ptr %t.addr.i, align 8
  store ptr %20, ptr %v.addr.i4, align 8
  %21 = load ptr, ptr %v.addr.i4, align 8
  %call.i = call noundef ptr @_ZNKSt6vectorIcSaIcEE4dataEv(ptr noundef nonnull align 8 dereferenceable(24) %21) #12
  %22 = load ptr, ptr %v.addr.i4, align 8
  %call1.i = call noundef ptr @_ZNKSt6vectorIcSaIcEE4dataEv(ptr noundef nonnull align 8 dereferenceable(24) %22) #12
  %23 = load ptr, ptr %v.addr.i4, align 8
  %call2.i5 = call noundef i64 @_ZNKSt6vectorIcSaIcEE4sizeEv(ptr noundef nonnull align 8 dereferenceable(24) %23) #12
  %add.ptr.i = getelementptr inbounds i8, ptr %call1.i, i64 %call2.i5
  call void @_ZN11struct_pack6detail13memory_readerC2EPKcS3_(ptr noundef nonnull align 8 dereferenceable(16) %reader.i, ptr noundef %call.i, ptr noundef %add.ptr.i) #12
  store ptr %in.i, ptr %this.addr.i, align 8
  store ptr %reader.i, ptr %reader.addr.i, align 8
  %this1.i = load ptr, ptr %this.addr.i, align 8
  %reader_.i = getelementptr inbounds %"class.struct_pack::detail::unpacker.7", ptr %this1.i, i32 0, i32 1
  %24 = load ptr, ptr %reader.addr.i, align 8
  store ptr %24, ptr %reader_.i, align 8
  %25 = load ptr, ptr %t.addr.i, align 8
  %call3.i6 = invoke noundef i32 @_ZN11struct_pack6detail8unpackerINS0_13memory_readerELm0EE11deserializeI4rectJEEENS_4errcERT_DpRT0_(ptr noundef nonnull align 8 dereferenceable(17) %in.i, ptr noundef nonnull align 4 dereferenceable(16) %25)
          to label %_ZN11struct_pack14deserialize_toILm0E4rectJETkNS_6detail16deserialize_viewESt6vectorIcSaIcEEEENS_4errcERT0_RKT2_DpRT1_.exit unwind label %lpad

_ZN11struct_pack14deserialize_toILm0E4rectJETkNS_6detail16deserialize_viewESt6vectorIcSaIcEEEENS_4errcERT0_RKT2_DpRT1_.exit: ; preds = %call.i.noexc
  br label %call1.i.noexc

call1.i.noexc:                                    ; preds = %_ZN11struct_pack14deserialize_toILm0E4rectJETkNS_6detail16deserialize_viewESt6vectorIcSaIcEEEENS_4errcERT0_RKT2_DpRT1_.exit
  store i32 %call3.i6, ptr %errc.i, align 4, !noalias !20
  %26 = load i32, ptr %errc.i, align 4, !noalias !20
  %cmp.i = icmp ne i32 %26, 0
  br i1 %cmp.i, label %if.then.i, label %_ZN11struct_pack11deserializeIJ4rectETkNS_6detail16deserialize_viewESt6vectorIcSaIcEEEEDaRKT0_.exit

if.then.i:                                        ; preds = %call1.i.noexc
  call void @_ZN2tl10unexpectedIN11struct_pack4errcEEC2ERKS2_(ptr noundef nonnull align 4 dereferenceable(4) %ref.tmp.i, ptr noundef nonnull align 4 dereferenceable(4) %errc.i), !noalias !20
  %call2.i = call noundef nonnull align 4 dereferenceable(17) ptr @_ZN2tl8expectedI4rectN11struct_pack4errcEEaSIS3_TnPNSt9enable_ifIXaasr3std29is_nothrow_move_constructibleIT_EE5valuesr3std18is_move_assignableIS7_EE5valueEvE4typeELPv0EEERS4_ONS_10unexpectedIS7_EE(ptr noundef nonnull align 4 dereferenceable(17) %ret.i, ptr noundef nonnull align 4 dereferenceable(4) %ref.tmp.i) #12, !noalias !20
  br label %_ZN11struct_pack11deserializeIJ4rectETkNS_6detail16deserialize_viewESt6vectorIcSaIcEEEEDaRKT0_.exit

_ZN11struct_pack11deserializeIJ4rectETkNS_6detail16deserialize_viewESt6vectorIcSaIcEEEEDaRKT0_.exit: ; preds = %if.then.i, %call1.i.noexc
  call void @llvm.memcpy.p0.p0.i64(ptr align 4 %result, ptr align 4 %ret.i, i64 20, i1 false)
  br label %invoke.cont

invoke.cont:                                      ; preds = %_ZN11struct_pack11deserializeIJ4rectETkNS_6detail16deserialize_viewESt6vectorIcSaIcEEEEDaRKT0_.exit
  call void @_ZNSt6vectorIcSaIcEED2Ev(ptr noundef nonnull align 8 dereferenceable(24) %buffer) #12
  ret void

lpad:                                             ; preds = %call.i.noexc, %.noexc, %_ZN11struct_pack9serializeITkNS_6detail18struct_pack_bufferESt6vectorIcSaIcEEJ4rectEEET_DpRKT0_.exit
  %27 = landingpad { ptr, i32 }
          cleanup
  %28 = extractvalue { ptr, i32 } %27, 0
  store ptr %28, ptr %exn.slot, align 8
  %29 = extractvalue { ptr, i32 } %27, 1
  store i32 %29, ptr %ehselector.slot, align 4
  call void @_ZNSt6vectorIcSaIcEED2Ev(ptr noundef nonnull align 8 dereferenceable(24) %buffer) #12
  br label %eh.resume

eh.resume:                                        ; preds = %lpad
  %exn = load ptr, ptr %exn.slot, align 8
  %sel = load i32, ptr %ehselector.slot, align 4
  %lpad.val = insertvalue { ptr, i32 } poison, ptr %exn, 0
  %lpad.val1 = insertvalue { ptr, i32 } %lpad.val, i32 %sel, 1
  resume { ptr, i32 } %lpad.val1
}

; Function Attrs: mustprogress uwtable
define linkonce_odr dso_local void @_ZN2tl8expectedI4rectN11struct_pack4errcEEC2Ev(ptr noundef nonnull align 4 dereferenceable(17) %this) unnamed_addr #0 comdat align 2 {
entry:
  %this.addr = alloca ptr, align 8
  store ptr %this, ptr %this.addr, align 8
  %this1 = load ptr, ptr %this.addr, align 8
  call void @_ZN2tl6detail25expected_move_assign_baseI4rectN11struct_pack4errcELb1EEC2Ev(ptr noundef nonnull align 4 dereferenceable(17) %this1)
  ret void
}

; Function Attrs: mustprogress uwtable
define linkonce_odr dso_local noundef nonnull align 4 dereferenceable(16) ptr @_ZNR2tl8expectedI4rectN11struct_pack4errcEE5valueIS1_TnPNSt9enable_ifIXntsr3std7is_voidIT_EE5valueEvE4typeELPv0EEERS7_v(ptr noundef nonnull align 4 dereferenceable(17) %this) #0 comdat align 2 personality ptr @__gxx_personality_v0 {
entry:
  %this.addr = alloca ptr, align 8
  %ref.tmp = alloca %"class.tl::bad_expected_access", align 8
  %exn.slot = alloca ptr, align 8
  %ehselector.slot = alloca i32, align 4
  store ptr %this, ptr %this.addr, align 8
  %this1 = load ptr, ptr %this.addr, align 8
  %call = call noundef zeroext i1 @_ZNK2tl8expectedI4rectN11struct_pack4errcEE9has_valueEv(ptr noundef nonnull align 4 dereferenceable(17) %this1) #12
  br i1 %call, label %if.end, label %if.then

if.then:                                          ; preds = %entry
  %call2 = call noundef nonnull align 4 dereferenceable(4) ptr @_ZN2tl8expectedI4rectN11struct_pack4errcEE3errEv(ptr noundef nonnull align 4 dereferenceable(17) %this1)
  %call3 = call noundef nonnull align 4 dereferenceable(4) ptr @_ZNR2tl10unexpectedIN11struct_pack4errcEE5valueEv(ptr noundef nonnull align 4 dereferenceable(4) %call2)
  %0 = load i32, ptr %call3, align 4
  call void @_ZN2tl19bad_expected_accessIN11struct_pack4errcEEC2ES2_(ptr noundef nonnull align 8 dereferenceable(12) %ref.tmp, i32 noundef %0)
  invoke void @_ZN2tl6detail15throw_exceptionINS_19bad_expected_accessIN11struct_pack4errcEEEEEvOT_(ptr noundef nonnull align 8 dereferenceable(12) %ref.tmp) #14
          to label %invoke.cont unwind label %lpad

invoke.cont:                                      ; preds = %if.then
  unreachable

lpad:                                             ; preds = %if.then
  %1 = landingpad { ptr, i32 }
          cleanup
  %2 = extractvalue { ptr, i32 } %1, 0
  store ptr %2, ptr %exn.slot, align 8
  %3 = extractvalue { ptr, i32 } %1, 1
  store i32 %3, ptr %ehselector.slot, align 4
  call void @_ZN2tl19bad_expected_accessIN11struct_pack4errcEED2Ev(ptr noundef nonnull align 8 dereferenceable(12) %ref.tmp) #12
  br label %eh.resume

if.end:                                           ; preds = %entry
  %call4 = call noundef nonnull align 4 dereferenceable(16) ptr @_ZN2tl8expectedI4rectN11struct_pack4errcEE3valIS1_TnPNSt9enable_ifIXntsr3std7is_voidIT_EE5valueEvE4typeELPv0EEERS7_v(ptr noundef nonnull align 4 dereferenceable(17) %this1)
  ret ptr %call4

eh.resume:                                        ; preds = %lpad
  %exn = load ptr, ptr %exn.slot, align 8
  %sel = load i32, ptr %ehselector.slot, align 4
  %lpad.val = insertvalue { ptr, i32 } poison, ptr %exn, 0
  %lpad.val5 = insertvalue { ptr, i32 } %lpad.val, i32 %sel, 1
  resume { ptr, i32 } %lpad.val5
}

; Function Attrs: mustprogress nounwind uwtable
define linkonce_odr dso_local void @_ZN2tl10unexpectedIN11struct_pack4errcEEC2ERKS2_(ptr noundef nonnull align 4 dereferenceable(4) %this, ptr noundef nonnull align 4 dereferenceable(4) %e) unnamed_addr #2 comdat align 2 {
entry:
  %this.addr = alloca ptr, align 8
  %e.addr = alloca ptr, align 8
  store ptr %this, ptr %this.addr, align 8
  store ptr %e, ptr %e.addr, align 8
  %this1 = load ptr, ptr %this.addr, align 8
  %m_val = getelementptr inbounds %"class.tl::unexpected", ptr %this1, i32 0, i32 0
  %0 = load ptr, ptr %e.addr, align 8
  %1 = load i32, ptr %0, align 4
  store i32 %1, ptr %m_val, align 4
  ret void
}

; Function Attrs: mustprogress nounwind uwtable
define linkonce_odr dso_local noundef nonnull align 4 dereferenceable(17) ptr @_ZN2tl8expectedI4rectN11struct_pack4errcEEaSIS3_TnPNSt9enable_ifIXaasr3std29is_nothrow_move_constructibleIT_EE5valuesr3std18is_move_assignableIS7_EE5valueEvE4typeELPv0EEERS4_ONS_10unexpectedIS7_EE(ptr noundef nonnull align 4 dereferenceable(17) %this, ptr noundef nonnull align 4 dereferenceable(4) %rhs) #2 comdat align 2 personality ptr @__gxx_personality_v0 {
entry:
  %this.addr = alloca ptr, align 8
  %rhs.addr = alloca ptr, align 8
  store ptr %this, ptr %this.addr, align 8
  store ptr %rhs, ptr %rhs.addr, align 8
  %this1 = load ptr, ptr %this.addr, align 8
  %call = call noundef zeroext i1 @_ZNK2tl8expectedI4rectN11struct_pack4errcEE9has_valueEv(ptr noundef nonnull align 4 dereferenceable(17) %this1) #12
  br i1 %call, label %if.else, label %if.then

if.then:                                          ; preds = %entry
  %0 = load ptr, ptr %rhs.addr, align 8
  %call2 = call noundef nonnull align 4 dereferenceable(4) ptr @_ZN2tl8expectedI4rectN11struct_pack4errcEE3errEv(ptr noundef nonnull align 4 dereferenceable(17) %this1)
  call void @llvm.memcpy.p0.p0.i64(ptr align 4 %call2, ptr align 4 %0, i64 4, i1 false)
  br label %if.end

if.else:                                          ; preds = %entry
  invoke void @_ZN2tl6detail24expected_operations_baseI4rectN11struct_pack4errcEE11destroy_valEv(ptr noundef nonnull align 4 dereferenceable(17) %this1)
          to label %invoke.cont unwind label %terminate.lpad

invoke.cont:                                      ; preds = %if.else
  %call4 = invoke noundef ptr @_ZN2tl8expectedI4rectN11struct_pack4errcEE6errptrEv(ptr noundef nonnull align 4 dereferenceable(17) %this1)
          to label %invoke.cont3 unwind label %terminate.lpad

invoke.cont3:                                     ; preds = %invoke.cont
  %1 = load ptr, ptr %rhs.addr, align 8
  call void @llvm.memcpy.p0.p0.i64(ptr align 4 %call4, ptr align 4 %1, i64 4, i1 false)
  %m_has_val = getelementptr inbounds %"struct.tl::detail::expected_storage_base", ptr %this1, i32 0, i32 1
  store i8 0, ptr %m_has_val, align 4
  br label %if.end

if.end:                                           ; preds = %invoke.cont3, %if.then
  ret ptr %this1

terminate.lpad:                                   ; preds = %invoke.cont, %if.else
  %2 = landingpad { ptr, i32 }
          catch ptr null
  %3 = extractvalue { ptr, i32 } %2, 0
  call void @__clang_call_terminate(ptr %3) #13
  unreachable
}

; Function Attrs: mustprogress uwtable
define linkonce_odr dso_local void @_ZN2tl6detail25expected_move_assign_baseI4rectN11struct_pack4errcELb1EEC2Ev(ptr noundef nonnull align 4 dereferenceable(17) %this) unnamed_addr #0 comdat align 2 {
entry:
  %this.addr = alloca ptr, align 8
  store ptr %this, ptr %this.addr, align 8
  %this1 = load ptr, ptr %this.addr, align 8
  call void @_ZN2tl6detail25expected_copy_assign_baseI4rectN11struct_pack4errcELb1EEC2Ev(ptr noundef nonnull align 4 dereferenceable(17) %this1)
  ret void
}

; Function Attrs: mustprogress uwtable
define linkonce_odr dso_local void @_ZN2tl6detail25expected_copy_assign_baseI4rectN11struct_pack4errcELb1EEC2Ev(ptr noundef nonnull align 4 dereferenceable(17) %this) unnamed_addr #0 comdat align 2 {
entry:
  %this.addr = alloca ptr, align 8
  store ptr %this, ptr %this.addr, align 8
  %this1 = load ptr, ptr %this.addr, align 8
  call void @_ZN2tl6detail18expected_move_baseI4rectN11struct_pack4errcELb1EEC2Ev(ptr noundef nonnull align 4 dereferenceable(17) %this1)
  ret void
}

; Function Attrs: mustprogress uwtable
define linkonce_odr dso_local void @_ZN2tl6detail18expected_move_baseI4rectN11struct_pack4errcELb1EEC2Ev(ptr noundef nonnull align 4 dereferenceable(17) %this) unnamed_addr #0 comdat align 2 {
entry:
  %this.addr = alloca ptr, align 8
  store ptr %this, ptr %this.addr, align 8
  %this1 = load ptr, ptr %this.addr, align 8
  call void @_ZN2tl6detail18expected_copy_baseI4rectN11struct_pack4errcELb1EEC2Ev(ptr noundef nonnull align 4 dereferenceable(17) %this1)
  ret void
}

; Function Attrs: mustprogress uwtable
define linkonce_odr dso_local void @_ZN2tl6detail18expected_copy_baseI4rectN11struct_pack4errcELb1EEC2Ev(ptr noundef nonnull align 4 dereferenceable(17) %this) unnamed_addr #0 comdat align 2 {
entry:
  %this.addr = alloca ptr, align 8
  store ptr %this, ptr %this.addr, align 8
  %this1 = load ptr, ptr %this.addr, align 8
  call void @_ZN2tl6detail24expected_operations_baseI4rectN11struct_pack4errcEEC2Ev(ptr noundef nonnull align 4 dereferenceable(17) %this1)
  ret void
}

; Function Attrs: mustprogress uwtable
define linkonce_odr dso_local void @_ZN2tl6detail24expected_operations_baseI4rectN11struct_pack4errcEEC2Ev(ptr noundef nonnull align 4 dereferenceable(17) %this) unnamed_addr #0 comdat align 2 {
entry:
  %this.addr = alloca ptr, align 8
  store ptr %this, ptr %this.addr, align 8
  %this1 = load ptr, ptr %this.addr, align 8
  call void @_ZN2tl6detail21expected_storage_baseI4rectN11struct_pack4errcELb1ELb1EEC2Ev(ptr noundef nonnull align 4 dereferenceable(17) %this1)
  ret void
}

; Function Attrs: mustprogress nounwind uwtable
define linkonce_odr dso_local void @_ZN2tl6detail21expected_storage_baseI4rectN11struct_pack4errcELb1ELb1EEC2Ev(ptr noundef nonnull align 4 dereferenceable(17) %this) unnamed_addr #2 comdat align 2 {
entry:
  %this.addr = alloca ptr, align 8
  store ptr %this, ptr %this.addr, align 8
  %this1 = load ptr, ptr %this.addr, align 8
  %0 = getelementptr inbounds %"struct.tl::detail::expected_storage_base", ptr %this1, i32 0, i32 0
  %a = getelementptr inbounds %struct.rect, ptr %0, i32 0, i32 0
  store i32 0, ptr %a, align 4
  %b = getelementptr inbounds %struct.rect, ptr %0, i32 0, i32 1
  store i32 0, ptr %b, align 4
  %c = getelementptr inbounds %struct.rect, ptr %0, i32 0, i32 2
  store i32 0, ptr %c, align 4
  %d = getelementptr inbounds %struct.rect, ptr %0, i32 0, i32 3
  store i32 0, ptr %d, align 4
  %m_has_val = getelementptr inbounds %"struct.tl::detail::expected_storage_base", ptr %this1, i32 0, i32 1
  store i8 1, ptr %m_has_val, align 4
  ret void
}

; Function Attrs: mustprogress nounwind uwtable
define linkonce_odr dso_local noundef ptr @_ZNKSt6vectorIcSaIcEE4dataEv(ptr noundef nonnull align 8 dereferenceable(24) %this) #2 comdat align 2 {
entry:
  %this.addr = alloca ptr, align 8
  store ptr %this, ptr %this.addr, align 8
  %this1 = load ptr, ptr %this.addr, align 8
  %_M_impl = getelementptr inbounds %"struct.std::_Vector_base", ptr %this1, i32 0, i32 0
  %_M_start = getelementptr inbounds %"struct.std::_Vector_base<char, std::allocator<char>>::_Vector_impl_data", ptr %_M_impl, i32 0, i32 0
  %0 = load ptr, ptr %_M_start, align 8
  %call = call noundef ptr @_ZNKSt6vectorIcSaIcEE11_M_data_ptrIcEEPT_S4_(ptr noundef nonnull align 8 dereferenceable(24) %this1, ptr noundef %0) #12
  ret ptr %call
}

; Function Attrs: mustprogress nounwind uwtable
define linkonce_odr dso_local noundef i64 @_ZNKSt6vectorIcSaIcEE4sizeEv(ptr noundef nonnull align 8 dereferenceable(24) %this) #2 comdat align 2 {
entry:
  %this.addr = alloca ptr, align 8
  store ptr %this, ptr %this.addr, align 8
  %this1 = load ptr, ptr %this.addr, align 8
  %_M_impl = getelementptr inbounds %"struct.std::_Vector_base", ptr %this1, i32 0, i32 0
  %_M_finish = getelementptr inbounds %"struct.std::_Vector_base<char, std::allocator<char>>::_Vector_impl_data", ptr %_M_impl, i32 0, i32 1
  %0 = load ptr, ptr %_M_finish, align 8
  %_M_impl2 = getelementptr inbounds %"struct.std::_Vector_base", ptr %this1, i32 0, i32 0
  %_M_start = getelementptr inbounds %"struct.std::_Vector_base<char, std::allocator<char>>::_Vector_impl_data", ptr %_M_impl2, i32 0, i32 0
  %1 = load ptr, ptr %_M_start, align 8
  %sub.ptr.lhs.cast = ptrtoint ptr %0 to i64
  %sub.ptr.rhs.cast = ptrtoint ptr %1 to i64
  %sub.ptr.sub = sub i64 %sub.ptr.lhs.cast, %sub.ptr.rhs.cast
  ret i64 %sub.ptr.sub
}

; Function Attrs: mustprogress nounwind uwtable
define linkonce_odr dso_local void @_ZN11struct_pack6detail13memory_readerC2EPKcS3_(ptr noundef nonnull align 8 dereferenceable(16) %this, ptr noundef %beg, ptr noundef %end) unnamed_addr #2 comdat align 2 {
entry:
  %this.addr = alloca ptr, align 8
  %beg.addr = alloca ptr, align 8
  %end.addr = alloca ptr, align 8
  store ptr %this, ptr %this.addr, align 8
  store ptr %beg, ptr %beg.addr, align 8
  store ptr %end, ptr %end.addr, align 8
  %this1 = load ptr, ptr %this.addr, align 8
  %now = getelementptr inbounds %"struct.struct_pack::detail::memory_reader", ptr %this1, i32 0, i32 0
  %0 = load ptr, ptr %beg.addr, align 8
  store ptr %0, ptr %now, align 8
  %end2 = getelementptr inbounds %"struct.struct_pack::detail::memory_reader", ptr %this1, i32 0, i32 1
  %1 = load ptr, ptr %end.addr, align 8
  store ptr %1, ptr %end2, align 8
  ret void
}

; Function Attrs: mustprogress uwtable
define linkonce_odr dso_local noundef i32 @_ZN11struct_pack6detail8unpackerINS0_13memory_readerELm3EE11deserializeI4rectJEEENS_4errcERT_DpRT0_(ptr noundef nonnull align 8 dereferenceable(17) %this, ptr noundef nonnull align 4 dereferenceable(16) %t) #0 comdat align 2 {
entry:
  %retval.i32 = alloca i32, align 4
  %this.addr.i33 = alloca ptr, align 8
  %first_item.addr.i34 = alloca ptr, align 8
  %code.i35 = alloca i32, align 4
  %retval.i23 = alloca i32, align 4
  %this.addr.i24 = alloca ptr, align 8
  %first_item.addr.i25 = alloca ptr, align 8
  %code.i26 = alloca i32, align 4
  %retval.i14 = alloca i32, align 4
  %this.addr.i15 = alloca ptr, align 8
  %first_item.addr.i16 = alloca ptr, align 8
  %code.i17 = alloca i32, align 4
  %retval.i11 = alloca i32, align 4
  %this.addr.i12 = alloca ptr, align 8
  %first_item.addr.i = alloca ptr, align 8
  %code.i = alloca i32, align 4
  %retval.i = alloca %"struct.std::pair", align 8
  %this.addr.i = alloca ptr, align 8
  %retval = alloca i32, align 4
  %this.addr = alloca ptr, align 8
  %t.addr = alloca ptr, align 8
  %has_compatible = alloca i8, align 1
  %0 = alloca ptr, align 8
  %ref.tmp = alloca %"struct.std::pair", align 8
  %err_code = alloca ptr, align 8
  %buffer_len = alloca ptr, align 8
  store ptr %this, ptr %this.addr, align 8
  store ptr %t, ptr %t.addr, align 8
  %this1 = load ptr, ptr %this.addr, align 8
  store i8 0, ptr %has_compatible, align 1
  store ptr %this1, ptr %this.addr.i, align 8
  %this1.i = load ptr, ptr %this.addr.i, align 8
  %size_type_.i = getelementptr inbounds %"class.struct_pack::detail::unpacker", ptr %this1.i, i32 0, i32 2
  store i8 0, ptr %size_type_.i, align 8
  call void @_ZNSt4pairIN11struct_pack4errcEmEC2EvQaa26is_default_constructible_vIT_E26is_default_constructible_vIT0_E(ptr noundef nonnull align 8 dereferenceable(16) %retval.i)
  %1 = load { i32, i64 }, ptr %retval.i, align 8
  %2 = getelementptr inbounds { i32, i64 }, ptr %ref.tmp, i32 0, i32 0
  %3 = extractvalue { i32, i64 } %1, 0
  store i32 %3, ptr %2, align 8
  %4 = getelementptr inbounds { i32, i64 }, ptr %ref.tmp, i32 0, i32 1
  %5 = extractvalue { i32, i64 } %1, 1
  store i64 %5, ptr %4, align 8
  store ptr %ref.tmp, ptr %0, align 8
  %6 = load ptr, ptr %0, align 8
  %call2 = call noundef nonnull align 4 dereferenceable(4) ptr @_ZSt3getILm0EN11struct_pack4errcEmEONSt13tuple_elementIXT_ESt4pairIT0_T1_EE4typeEOS6_(ptr noundef nonnull align 8 dereferenceable(16) %6) #12
  store ptr %call2, ptr %err_code, align 8
  %7 = load ptr, ptr %0, align 8
  %call3 = call noundef nonnull align 8 dereferenceable(8) ptr @_ZSt3getILm1EN11struct_pack4errcEmEONSt13tuple_elementIXT_ESt4pairIT0_T1_EE4typeEOS6_(ptr noundef nonnull align 8 dereferenceable(16) %7) #12
  store ptr %call3, ptr %buffer_len, align 8
  %8 = load ptr, ptr %err_code, align 8
  %9 = load i32, ptr %8, align 4
  %cmp = icmp ne i32 %9, 0
  br i1 %cmp, label %if.then, label %if.end

if.then:                                          ; preds = %entry
  %10 = load ptr, ptr %err_code, align 8
  %11 = load i32, ptr %10, align 4
  store i32 %11, ptr %retval, align 4
  br label %return

if.end:                                           ; preds = %entry
  %size_type_ = getelementptr inbounds %"class.struct_pack::detail::unpacker", ptr %this1, i32 0, i32 2
  %12 = load i8, ptr %size_type_, align 8
  %conv = zext i8 %12 to i32
  switch i32 %conv, label %sw.default [
    i32 0, label %sw.bb
    i32 1, label %sw.bb5
    i32 2, label %sw.bb7
    i32 3, label %sw.bb9
  ]

sw.bb:                                            ; preds = %if.end
  %13 = load ptr, ptr %t.addr, align 8
  store ptr %this1, ptr %this.addr.i12, align 8
  store ptr %13, ptr %first_item.addr.i, align 8
  %this1.i13 = load ptr, ptr %this.addr.i12, align 8
  %14 = load ptr, ptr %first_item.addr.i, align 8
  %call.i = call noundef i32 @_ZN11struct_pack6detail8unpackerINS0_13memory_readerELm3EE15deserialize_oneILm1ELm18446744073709551615ELb1ELm0E4rectEENS_4errcERT3_(ptr noundef nonnull align 8 dereferenceable(17) %this1.i13, ptr noundef nonnull align 4 dereferenceable(16) %14)
  store i32 %call.i, ptr %code.i, align 4
  %15 = load i32, ptr %code.i, align 4
  %cmp.i = icmp ne i32 %15, 0
  br i1 %cmp.i, label %if.then.i, label %if.end.i

if.then.i:                                        ; preds = %sw.bb
  %16 = load i32, ptr %code.i, align 4
  store i32 %16, ptr %retval.i11, align 4
  br label %_ZN11struct_pack6detail8unpackerINS0_13memory_readerELm3EE16deserialize_manyILm1ELm18446744073709551615ELb1ELm0ER4rectJEEENS_4errcEOT3_DpOT4_.exit

if.end.i:                                         ; preds = %sw.bb
  %17 = load i32, ptr %code.i, align 4
  store i32 %17, ptr %retval.i11, align 4
  br label %_ZN11struct_pack6detail8unpackerINS0_13memory_readerELm3EE16deserialize_manyILm1ELm18446744073709551615ELb1ELm0ER4rectJEEENS_4errcEOT3_DpOT4_.exit

_ZN11struct_pack6detail8unpackerINS0_13memory_readerELm3EE16deserialize_manyILm1ELm18446744073709551615ELb1ELm0ER4rectJEEENS_4errcEOT3_DpOT4_.exit: ; preds = %if.end.i, %if.then.i
  %18 = load i32, ptr %retval.i11, align 4
  %19 = load ptr, ptr %err_code, align 8
  store i32 %18, ptr %19, align 4
  br label %sw.epilog

sw.bb5:                                           ; preds = %if.end
  %20 = load ptr, ptr %t.addr, align 8
  store ptr %this1, ptr %this.addr.i15, align 8
  store ptr %20, ptr %first_item.addr.i16, align 8
  %this1.i18 = load ptr, ptr %this.addr.i15, align 8
  %21 = load ptr, ptr %first_item.addr.i16, align 8
  %call.i19 = call noundef i32 @_ZN11struct_pack6detail8unpackerINS0_13memory_readerELm3EE15deserialize_oneILm2ELm18446744073709551615ELb1ELm0E4rectEENS_4errcERT3_(ptr noundef nonnull align 8 dereferenceable(17) %this1.i18, ptr noundef nonnull align 4 dereferenceable(16) %21)
  store i32 %call.i19, ptr %code.i17, align 4
  %22 = load i32, ptr %code.i17, align 4
  %cmp.i20 = icmp ne i32 %22, 0
  br i1 %cmp.i20, label %if.then.i22, label %if.end.i21

if.then.i22:                                      ; preds = %sw.bb5
  %23 = load i32, ptr %code.i17, align 4
  store i32 %23, ptr %retval.i14, align 4
  br label %_ZN11struct_pack6detail8unpackerINS0_13memory_readerELm3EE16deserialize_manyILm2ELm18446744073709551615ELb1ELm0ER4rectJEEENS_4errcEOT3_DpOT4_.exit

if.end.i21:                                       ; preds = %sw.bb5
  %24 = load i32, ptr %code.i17, align 4
  store i32 %24, ptr %retval.i14, align 4
  br label %_ZN11struct_pack6detail8unpackerINS0_13memory_readerELm3EE16deserialize_manyILm2ELm18446744073709551615ELb1ELm0ER4rectJEEENS_4errcEOT3_DpOT4_.exit

_ZN11struct_pack6detail8unpackerINS0_13memory_readerELm3EE16deserialize_manyILm2ELm18446744073709551615ELb1ELm0ER4rectJEEENS_4errcEOT3_DpOT4_.exit: ; preds = %if.end.i21, %if.then.i22
  %25 = load i32, ptr %retval.i14, align 4
  %26 = load ptr, ptr %err_code, align 8
  store i32 %25, ptr %26, align 4
  br label %sw.epilog

sw.bb7:                                           ; preds = %if.end
  %27 = load ptr, ptr %t.addr, align 8
  store ptr %this1, ptr %this.addr.i24, align 8
  store ptr %27, ptr %first_item.addr.i25, align 8
  %this1.i27 = load ptr, ptr %this.addr.i24, align 8
  %28 = load ptr, ptr %first_item.addr.i25, align 8
  %call.i28 = call noundef i32 @_ZN11struct_pack6detail8unpackerINS0_13memory_readerELm3EE15deserialize_oneILm4ELm18446744073709551615ELb1ELm0E4rectEENS_4errcERT3_(ptr noundef nonnull align 8 dereferenceable(17) %this1.i27, ptr noundef nonnull align 4 dereferenceable(16) %28)
  store i32 %call.i28, ptr %code.i26, align 4
  %29 = load i32, ptr %code.i26, align 4
  %cmp.i29 = icmp ne i32 %29, 0
  br i1 %cmp.i29, label %if.then.i31, label %if.end.i30

if.then.i31:                                      ; preds = %sw.bb7
  %30 = load i32, ptr %code.i26, align 4
  store i32 %30, ptr %retval.i23, align 4
  br label %_ZN11struct_pack6detail8unpackerINS0_13memory_readerELm3EE16deserialize_manyILm4ELm18446744073709551615ELb1ELm0ER4rectJEEENS_4errcEOT3_DpOT4_.exit

if.end.i30:                                       ; preds = %sw.bb7
  %31 = load i32, ptr %code.i26, align 4
  store i32 %31, ptr %retval.i23, align 4
  br label %_ZN11struct_pack6detail8unpackerINS0_13memory_readerELm3EE16deserialize_manyILm4ELm18446744073709551615ELb1ELm0ER4rectJEEENS_4errcEOT3_DpOT4_.exit

_ZN11struct_pack6detail8unpackerINS0_13memory_readerELm3EE16deserialize_manyILm4ELm18446744073709551615ELb1ELm0ER4rectJEEENS_4errcEOT3_DpOT4_.exit: ; preds = %if.end.i30, %if.then.i31
  %32 = load i32, ptr %retval.i23, align 4
  %33 = load ptr, ptr %err_code, align 8
  store i32 %32, ptr %33, align 4
  br label %sw.epilog

sw.bb9:                                           ; preds = %if.end
  %34 = load ptr, ptr %t.addr, align 8
  store ptr %this1, ptr %this.addr.i33, align 8
  store ptr %34, ptr %first_item.addr.i34, align 8
  %this1.i36 = load ptr, ptr %this.addr.i33, align 8
  %35 = load ptr, ptr %first_item.addr.i34, align 8
  %call.i37 = call noundef i32 @_ZN11struct_pack6detail8unpackerINS0_13memory_readerELm3EE15deserialize_oneILm8ELm18446744073709551615ELb1ELm0E4rectEENS_4errcERT3_(ptr noundef nonnull align 8 dereferenceable(17) %this1.i36, ptr noundef nonnull align 4 dereferenceable(16) %35)
  store i32 %call.i37, ptr %code.i35, align 4
  %36 = load i32, ptr %code.i35, align 4
  %cmp.i38 = icmp ne i32 %36, 0
  br i1 %cmp.i38, label %if.then.i40, label %if.end.i39

if.then.i40:                                      ; preds = %sw.bb9
  %37 = load i32, ptr %code.i35, align 4
  store i32 %37, ptr %retval.i32, align 4
  br label %_ZN11struct_pack6detail8unpackerINS0_13memory_readerELm3EE16deserialize_manyILm8ELm18446744073709551615ELb1ELm0ER4rectJEEENS_4errcEOT3_DpOT4_.exit

if.end.i39:                                       ; preds = %sw.bb9
  %38 = load i32, ptr %code.i35, align 4
  store i32 %38, ptr %retval.i32, align 4
  br label %_ZN11struct_pack6detail8unpackerINS0_13memory_readerELm3EE16deserialize_manyILm8ELm18446744073709551615ELb1ELm0ER4rectJEEENS_4errcEOT3_DpOT4_.exit

_ZN11struct_pack6detail8unpackerINS0_13memory_readerELm3EE16deserialize_manyILm8ELm18446744073709551615ELb1ELm0ER4rectJEEENS_4errcEOT3_DpOT4_.exit: ; preds = %if.end.i39, %if.then.i40
  %39 = load i32, ptr %retval.i32, align 4
  %40 = load ptr, ptr %err_code, align 8
  store i32 %39, ptr %40, align 4
  br label %sw.epilog

sw.default:                                       ; preds = %if.end
  call void @_ZN11struct_pack6detail11unreachableEv() #14
  unreachable

sw.epilog:                                        ; preds = %_ZN11struct_pack6detail8unpackerINS0_13memory_readerELm3EE16deserialize_manyILm8ELm18446744073709551615ELb1ELm0ER4rectJEEENS_4errcEOT3_DpOT4_.exit, %_ZN11struct_pack6detail8unpackerINS0_13memory_readerELm3EE16deserialize_manyILm4ELm18446744073709551615ELb1ELm0ER4rectJEEENS_4errcEOT3_DpOT4_.exit, %_ZN11struct_pack6detail8unpackerINS0_13memory_readerELm3EE16deserialize_manyILm2ELm18446744073709551615ELb1ELm0ER4rectJEEENS_4errcEOT3_DpOT4_.exit, %_ZN11struct_pack6detail8unpackerINS0_13memory_readerELm3EE16deserialize_manyILm1ELm18446744073709551615ELb1ELm0ER4rectJEEENS_4errcEOT3_DpOT4_.exit
  %41 = load ptr, ptr %err_code, align 8
  %42 = load i32, ptr %41, align 4
  store i32 %42, ptr %retval, align 4
  br label %return

return:                                           ; preds = %sw.epilog, %if.then
  %43 = load i32, ptr %retval, align 4
  ret i32 %43
}

; Function Attrs: mustprogress nounwind uwtable
define linkonce_odr dso_local noundef ptr @_ZNKSt6vectorIcSaIcEE11_M_data_ptrIcEEPT_S4_(ptr noundef nonnull align 8 dereferenceable(24) %this, ptr noundef %__ptr) #2 comdat align 2 {
entry:
  %this.addr = alloca ptr, align 8
  %__ptr.addr = alloca ptr, align 8
  store ptr %this, ptr %this.addr, align 8
  store ptr %__ptr, ptr %__ptr.addr, align 8
  %0 = load ptr, ptr %__ptr.addr, align 8
  ret ptr %0
}

; Function Attrs: mustprogress nounwind uwtable
define linkonce_odr dso_local noundef nonnull align 4 dereferenceable(4) ptr @_ZSt3getILm0EN11struct_pack4errcEmEONSt13tuple_elementIXT_ESt4pairIT0_T1_EE4typeEOS6_(ptr noundef nonnull align 8 dereferenceable(16) %__in) #2 comdat {
entry:
  %__in.addr = alloca ptr, align 8
  store ptr %__in, ptr %__in.addr, align 8
  %0 = load ptr, ptr %__in.addr, align 8
  %call = call noundef nonnull align 4 dereferenceable(4) ptr @_ZNSt10__pair_getILm0EE10__move_getIN11struct_pack4errcEmEEOT_OSt4pairIS4_T0_E(ptr noundef nonnull align 8 dereferenceable(16) %0) #12
  ret ptr %call
}

; Function Attrs: mustprogress nounwind uwtable
define linkonce_odr dso_local noundef nonnull align 8 dereferenceable(8) ptr @_ZSt3getILm1EN11struct_pack4errcEmEONSt13tuple_elementIXT_ESt4pairIT0_T1_EE4typeEOS6_(ptr noundef nonnull align 8 dereferenceable(16) %__in) #2 comdat {
entry:
  %__in.addr = alloca ptr, align 8
  store ptr %__in, ptr %__in.addr, align 8
  %0 = load ptr, ptr %__in.addr, align 8
  %call = call noundef nonnull align 8 dereferenceable(8) ptr @_ZNSt10__pair_getILm1EE10__move_getIN11struct_pack4errcEmEEOT0_OSt4pairIT_S4_E(ptr noundef nonnull align 8 dereferenceable(16) %0) #12
  ret ptr %call
}

; Function Attrs: mustprogress noreturn nounwind uwtable
define linkonce_odr dso_local void @_ZN11struct_pack6detail11unreachableEv() #3 comdat {
entry:
  unreachable
}

; Function Attrs: mustprogress nounwind uwtable
define linkonce_odr dso_local void @_ZNSt4pairIN11struct_pack4errcEmEC2EvQaa26is_default_constructible_vIT_E26is_default_constructible_vIT0_E(ptr noundef nonnull align 8 dereferenceable(16) %this) unnamed_addr #2 comdat align 2 {
entry:
  %this.addr = alloca ptr, align 8
  store ptr %this, ptr %this.addr, align 8
  %this1 = load ptr, ptr %this.addr, align 8
  %first = getelementptr inbounds %"struct.std::pair", ptr %this1, i32 0, i32 0
  store i32 0, ptr %first, align 8
  %second = getelementptr inbounds %"struct.std::pair", ptr %this1, i32 0, i32 1
  store i64 0, ptr %second, align 8
  ret void
}

; Function Attrs: mustprogress nounwind uwtable
define linkonce_odr dso_local noundef nonnull align 4 dereferenceable(4) ptr @_ZNSt10__pair_getILm0EE10__move_getIN11struct_pack4errcEmEEOT_OSt4pairIS4_T0_E(ptr noundef nonnull align 8 dereferenceable(16) %__pair) #2 comdat align 2 {
entry:
  %__pair.addr = alloca ptr, align 8
  store ptr %__pair, ptr %__pair.addr, align 8
  %0 = load ptr, ptr %__pair.addr, align 8
  %first = getelementptr inbounds %"struct.std::pair", ptr %0, i32 0, i32 0
  ret ptr %first
}

; Function Attrs: mustprogress nounwind uwtable
define linkonce_odr dso_local noundef nonnull align 8 dereferenceable(8) ptr @_ZNSt10__pair_getILm1EE10__move_getIN11struct_pack4errcEmEEOT0_OSt4pairIT_S4_E(ptr noundef nonnull align 8 dereferenceable(16) %__pair) #2 comdat align 2 {
entry:
  %__pair.addr = alloca ptr, align 8
  store ptr %__pair, ptr %__pair.addr, align 8
  %0 = load ptr, ptr %__pair.addr, align 8
  %second = getelementptr inbounds %"struct.std::pair", ptr %0, i32 0, i32 1
  ret ptr %second
}

; Function Attrs: mustprogress uwtable
define linkonce_odr dso_local noundef i32 @_ZN11struct_pack6detail8unpackerINS0_13memory_readerELm3EE15deserialize_oneILm1ELm18446744073709551615ELb1ELm0E4rectEENS_4errcERT3_(ptr noundef nonnull align 8 dereferenceable(17) %this, ptr noundef nonnull align 4 dereferenceable(16) %item) #0 comdat align 2 {
entry:
  %retval.i507 = alloca i32, align 4
  %this.addr.i508 = alloca ptr, align 8
  %first_item.addr.i509 = alloca ptr, align 8
  %code.i510 = alloca i32, align 4
  %retval.i497 = alloca i32, align 4
  %this.addr.i498 = alloca ptr, align 8
  %first_item.addr.i499 = alloca ptr, align 8
  %items.addr.i500 = alloca ptr, align 8
  %code.i501 = alloca i32, align 4
  %retval.i486 = alloca i32, align 4
  %this.addr.i487 = alloca ptr, align 8
  %first_item.addr.i488 = alloca ptr, align 8
  %items.addr.i489 = alloca ptr, align 8
  %items.addr2.i490 = alloca ptr, align 8
  %code.i491 = alloca i32, align 4
  %retval.i476 = alloca i32, align 4
  %this.addr.i477 = alloca ptr, align 8
  %first_item.addr.i = alloca ptr, align 8
  %items.addr.i478 = alloca ptr, align 8
  %items.addr2.i479 = alloca ptr, align 8
  %items.addr4.i480 = alloca ptr, align 8
  %code.i = alloca i32, align 4
  %this.addr.i468 = alloca ptr, align 8
  %items.addr.i469 = alloca ptr, align 8
  %items.addr2.i470 = alloca ptr, align 8
  %items.addr4.i471 = alloca ptr, align 8
  %items.addr6.i472 = alloca ptr, align 8
  %tag.i473 = alloca i64, align 8
  %object.addr.i461 = alloca ptr, align 8
  %visitor.addr.i462 = alloca ptr, align 8
  %Count.i463 = alloca i64, align 8
  %0 = alloca ptr, align 8
  %reader.addr.i.i425 = alloca ptr, align 8
  %data.addr.i.i426 = alloca ptr, align 8
  %retval.i.i427 = alloca i32, align 4
  %this.addr.i.i428 = alloca ptr, align 8
  %vec.addr.i.i429 = alloca ptr, align 8
  %i.addr.i.i430 = alloca ptr, align 8
  %item.addr.i.i431 = alloca ptr, align 8
  %real_width.i.i432 = alloca i64, align 8
  %index.i.i433 = alloca i32, align 4
  %ec.i.i434 = alloca i8, align 1
  %target.i.i435 = alloca i32, align 4
  %this.addr.i436 = alloca ptr, align 8
  %vec.addr.i437 = alloca ptr, align 8
  %i.addr.i438 = alloca ptr, align 8
  %item.addr.i439 = alloca ptr, align 8
  %ec.i440 = alloca i32, align 4
  %reader.addr.i.i384 = alloca ptr, align 8
  %data.addr.i.i385 = alloca ptr, align 8
  %retval.i.i386 = alloca i32, align 4
  %this.addr.i.i387 = alloca ptr, align 8
  %vec.addr.i.i388 = alloca ptr, align 8
  %i.addr.i.i389 = alloca ptr, align 8
  %item.addr.i.i390 = alloca ptr, align 8
  %real_width.i.i391 = alloca i64, align 8
  %index.i.i392 = alloca i32, align 4
  %ec.i.i393 = alloca i8, align 1
  %target.i.i394 = alloca i32, align 4
  %retval.i395 = alloca i32, align 4
  %this.addr.i396 = alloca ptr, align 8
  %vec.addr.i397 = alloca ptr, align 8
  %i.addr.i398 = alloca ptr, align 8
  %item.addr.i399 = alloca ptr, align 8
  %items.addr.i400 = alloca ptr, align 8
  %ec.i401 = alloca i32, align 4
  %reader.addr.i381 = alloca ptr, align 8
  %data.addr.i382 = alloca ptr, align 8
  %reader.addr.i378 = alloca ptr, align 8
  %data.addr.i379 = alloca ptr, align 8
  %retval.i.i340 = alloca i32, align 4
  %this.addr.i.i341 = alloca ptr, align 8
  %vec.addr.i.i342 = alloca ptr, align 8
  %i.addr.i.i343 = alloca ptr, align 8
  %item.addr.i.i344 = alloca ptr, align 8
  %real_width.i.i345 = alloca i64, align 8
  %index.i.i346 = alloca i32, align 4
  %ec.i.i347 = alloca i8, align 1
  %target.i.i348 = alloca i32, align 4
  %retval.i349 = alloca i32, align 4
  %this.addr.i350 = alloca ptr, align 8
  %vec.addr.i351 = alloca ptr, align 8
  %i.addr.i352 = alloca ptr, align 8
  %item.addr.i353 = alloca ptr, align 8
  %items.addr.i354 = alloca ptr, align 8
  %items.addr2.i355 = alloca ptr, align 8
  %ec.i356 = alloca i32, align 4
  %retval.i313 = alloca i32, align 4
  %this.addr.i314 = alloca ptr, align 8
  %vec.addr.i315 = alloca ptr, align 8
  %i.addr.i316 = alloca ptr, align 8
  %item.addr.i317 = alloca ptr, align 8
  %real_width.i318 = alloca i64, align 8
  %index.i319 = alloca i32, align 4
  %ec.i320 = alloca i8, align 1
  %target.i321 = alloca i32, align 4
  %reader.addr.i.i276 = alloca ptr, align 8
  %data.addr.i.i277 = alloca ptr, align 8
  %retval.i.i278 = alloca i32, align 4
  %this.addr.i.i279 = alloca ptr, align 8
  %vec.addr.i.i280 = alloca ptr, align 8
  %i.addr.i.i281 = alloca ptr, align 8
  %item.addr.i.i282 = alloca ptr, align 8
  %real_width.i.i283 = alloca i64, align 8
  %index.i.i284 = alloca i32, align 4
  %ec.i.i285 = alloca i8, align 1
  %target.i.i286 = alloca i16, align 2
  %this.addr.i287 = alloca ptr, align 8
  %vec.addr.i288 = alloca ptr, align 8
  %i.addr.i289 = alloca ptr, align 8
  %item.addr.i290 = alloca ptr, align 8
  %ec.i291 = alloca i32, align 4
  %reader.addr.i.i234 = alloca ptr, align 8
  %data.addr.i.i235 = alloca ptr, align 8
  %retval.i.i236 = alloca i32, align 4
  %this.addr.i.i237 = alloca ptr, align 8
  %vec.addr.i.i238 = alloca ptr, align 8
  %i.addr.i.i239 = alloca ptr, align 8
  %item.addr.i.i240 = alloca ptr, align 8
  %real_width.i.i241 = alloca i64, align 8
  %index.i.i242 = alloca i32, align 4
  %ec.i.i243 = alloca i8, align 1
  %target.i.i244 = alloca i16, align 2
  %retval.i245 = alloca i32, align 4
  %this.addr.i246 = alloca ptr, align 8
  %vec.addr.i247 = alloca ptr, align 8
  %i.addr.i248 = alloca ptr, align 8
  %item.addr.i249 = alloca ptr, align 8
  %items.addr.i250 = alloca ptr, align 8
  %ec.i251 = alloca i32, align 4
  %reader.addr.i231 = alloca ptr, align 8
  %data.addr.i232 = alloca ptr, align 8
  %reader.addr.i228 = alloca ptr, align 8
  %data.addr.i229 = alloca ptr, align 8
  %retval.i.i189 = alloca i32, align 4
  %this.addr.i.i190 = alloca ptr, align 8
  %vec.addr.i.i191 = alloca ptr, align 8
  %i.addr.i.i192 = alloca ptr, align 8
  %item.addr.i.i193 = alloca ptr, align 8
  %real_width.i.i194 = alloca i64, align 8
  %index.i.i195 = alloca i32, align 4
  %ec.i.i196 = alloca i8, align 1
  %target.i.i197 = alloca i16, align 2
  %retval.i198 = alloca i32, align 4
  %this.addr.i199 = alloca ptr, align 8
  %vec.addr.i200 = alloca ptr, align 8
  %i.addr.i201 = alloca ptr, align 8
  %item.addr.i202 = alloca ptr, align 8
  %items.addr.i203 = alloca ptr, align 8
  %items.addr2.i204 = alloca ptr, align 8
  %ec.i205 = alloca i32, align 4
  %retval.i161 = alloca i32, align 4
  %this.addr.i162 = alloca ptr, align 8
  %vec.addr.i163 = alloca ptr, align 8
  %i.addr.i164 = alloca ptr, align 8
  %item.addr.i165 = alloca ptr, align 8
  %real_width.i166 = alloca i64, align 8
  %index.i167 = alloca i32, align 4
  %ec.i168 = alloca i8, align 1
  %target.i169 = alloca i16, align 2
  %reader.addr.i.i125 = alloca ptr, align 8
  %data.addr.i.i126 = alloca ptr, align 8
  %retval.i.i127 = alloca i32, align 4
  %this.addr.i.i128 = alloca ptr, align 8
  %vec.addr.i.i129 = alloca ptr, align 8
  %i.addr.i.i130 = alloca ptr, align 8
  %item.addr.i.i131 = alloca ptr, align 8
  %real_width.i.i132 = alloca i64, align 8
  %index.i.i133 = alloca i32, align 4
  %ec.i.i134 = alloca i8, align 1
  %target.i.i135 = alloca i8, align 1
  %this.addr.i136 = alloca ptr, align 8
  %vec.addr.i137 = alloca ptr, align 8
  %i.addr.i138 = alloca ptr, align 8
  %item.addr.i139 = alloca ptr, align 8
  %ec.i140 = alloca i32, align 4
  %reader.addr.i.i = alloca ptr, align 8
  %data.addr.i.i = alloca ptr, align 8
  %retval.i.i86 = alloca i32, align 4
  %this.addr.i.i87 = alloca ptr, align 8
  %vec.addr.i.i88 = alloca ptr, align 8
  %i.addr.i.i89 = alloca ptr, align 8
  %item.addr.i.i90 = alloca ptr, align 8
  %real_width.i.i91 = alloca i64, align 8
  %index.i.i92 = alloca i32, align 4
  %ec.i.i93 = alloca i8, align 1
  %target.i.i94 = alloca i8, align 1
  %retval.i95 = alloca i32, align 4
  %this.addr.i96 = alloca ptr, align 8
  %vec.addr.i97 = alloca ptr, align 8
  %i.addr.i98 = alloca ptr, align 8
  %item.addr.i99 = alloca ptr, align 8
  %items.addr.i100 = alloca ptr, align 8
  %ec.i101 = alloca i32, align 4
  %reader.addr.i83 = alloca ptr, align 8
  %data.addr.i84 = alloca ptr, align 8
  %reader.addr.i80 = alloca ptr, align 8
  %data.addr.i81 = alloca ptr, align 8
  %retval.i.i = alloca i32, align 4
  %this.addr.i.i = alloca ptr, align 8
  %vec.addr.i.i = alloca ptr, align 8
  %i.addr.i.i = alloca ptr, align 8
  %item.addr.i.i = alloca ptr, align 8
  %real_width.i.i = alloca i64, align 8
  %index.i.i = alloca i32, align 4
  %ec.i.i = alloca i8, align 1
  %target.i.i = alloca i8, align 1
  %retval.i69 = alloca i32, align 4
  %this.addr.i70 = alloca ptr, align 8
  %vec.addr.i71 = alloca ptr, align 8
  %i.addr.i72 = alloca ptr, align 8
  %item.addr.i73 = alloca ptr, align 8
  %items.addr.i74 = alloca ptr, align 8
  %items.addr2.i75 = alloca ptr, align 8
  %ec.i76 = alloca i32, align 4
  %retval.i55 = alloca i32, align 4
  %this.addr.i56 = alloca ptr, align 8
  %vec.addr.i57 = alloca ptr, align 8
  %i.addr.i58 = alloca ptr, align 8
  %item.addr.i59 = alloca ptr, align 8
  %real_width.i = alloca i64, align 8
  %index.i = alloca i32, align 4
  %ec.i60 = alloca i8, align 1
  %target.i = alloca i8, align 1
  %retval.i40 = alloca i32, align 4
  %this.addr.i41 = alloca ptr, align 8
  %vec.addr.i42 = alloca ptr, align 8
  %i.addr.i43 = alloca ptr, align 8
  %item.addr.i44 = alloca ptr, align 8
  %items.addr.i45 = alloca ptr, align 8
  %items.addr2.i46 = alloca ptr, align 8
  %items.addr4.i47 = alloca ptr, align 8
  %ec.i48 = alloca i32, align 4
  %retval.i25 = alloca i32, align 4
  %this.addr.i26 = alloca ptr, align 8
  %vec.addr.i27 = alloca ptr, align 8
  %i.addr.i28 = alloca ptr, align 8
  %item.addr.i29 = alloca ptr, align 8
  %items.addr.i30 = alloca ptr, align 8
  %items.addr2.i31 = alloca ptr, align 8
  %items.addr4.i32 = alloca ptr, align 8
  %ec.i33 = alloca i32, align 4
  %retval.i17 = alloca i32, align 4
  %this.addr.i18 = alloca ptr, align 8
  %vec.addr.i = alloca ptr, align 8
  %i.addr.i = alloca ptr, align 8
  %item.addr.i = alloca ptr, align 8
  %items.addr.i19 = alloca ptr, align 8
  %items.addr2.i20 = alloca ptr, align 8
  %items.addr4.i21 = alloca ptr, align 8
  %ec.i22 = alloca i32, align 4
  %reader.addr.i = alloca ptr, align 8
  %data.addr.i = alloca ptr, align 8
  %length.addr.i = alloca i64, align 8
  %retval.i = alloca i32, align 4
  %this.addr.i10 = alloca ptr, align 8
  %items.addr.i11 = alloca ptr, align 8
  %items.addr2.i12 = alloca ptr, align 8
  %items.addr4.i13 = alloca ptr, align 8
  %items.addr6.i14 = alloca ptr, align 8
  %cnt.i = alloca i64, align 8
  %bitset_size.i = alloca i64, align 8
  %vec.i = alloca [1 x i8], align 1
  %ec.i = alloca i8, align 1
  %width.i = alloca i32, align 4
  %i.i = alloca i32, align 4
  %ec18.i = alloca i32, align 4
  %this.addr.i = alloca ptr, align 8
  %items.addr.i = alloca ptr, align 8
  %items.addr2.i = alloca ptr, align 8
  %items.addr4.i = alloca ptr, align 8
  %items.addr6.i = alloca ptr, align 8
  %tag.i = alloca i64, align 8
  %object.addr.i7 = alloca ptr, align 8
  %visitor.addr.i8 = alloca ptr, align 8
  %Count.i = alloca i64, align 8
  %1 = alloca ptr, align 8
  %object.addr.i4 = alloca ptr, align 8
  %visitor.addr.i5 = alloca ptr, align 8
  %object.addr.i = alloca ptr, align 8
  %visitor.addr.i = alloca ptr, align 8
  %retval = alloca i32, align 4
  %this.addr = alloca ptr, align 8
  %item.addr = alloca ptr, align 8
  %code = alloca i32, align 4
  %id = alloca i32, align 4
  %tag = alloca i64, align 8
  %ref.tmp = alloca %class.anon, align 8
  %ref.tmp2 = alloca %class.anon.0, align 8
  store ptr %this, ptr %this.addr, align 8
  store ptr %item, ptr %item.addr, align 8
  %this1 = load ptr, ptr %this.addr, align 8
  store i32 0, ptr %code, align 4
  store i32 253, ptr %id, align 4
  store i64 15, ptr %tag, align 8
  %2 = load ptr, ptr %item.addr, align 8
  %3 = getelementptr inbounds %class.anon, ptr %ref.tmp, i32 0, i32 0
  store ptr %this1, ptr %3, align 8
  store ptr %2, ptr %object.addr.i, align 8
  store ptr %ref.tmp, ptr %visitor.addr.i, align 8
  %4 = load ptr, ptr %object.addr.i, align 8
  %5 = load ptr, ptr %visitor.addr.i, align 8
  store ptr %4, ptr %object.addr.i7, align 8
  store ptr %5, ptr %visitor.addr.i8, align 8
  store i64 4, ptr %Count.i, align 8
  %6 = load ptr, ptr %object.addr.i7, align 8
  store ptr %6, ptr %1, align 8
  %7 = load ptr, ptr %visitor.addr.i8, align 8
  %8 = load ptr, ptr %1, align 8
  %9 = load ptr, ptr %1, align 8
  %b.i = getelementptr inbounds %struct.rect, ptr %9, i32 0, i32 1
  %10 = load ptr, ptr %1, align 8
  %c.i = getelementptr inbounds %struct.rect, ptr %10, i32 0, i32 2
  %11 = load ptr, ptr %1, align 8
  %d.i = getelementptr inbounds %struct.rect, ptr %11, i32 0, i32 3
  store ptr %7, ptr %this.addr.i, align 8
  store ptr %8, ptr %items.addr.i, align 8
  store ptr %b.i, ptr %items.addr2.i, align 8
  store ptr %c.i, ptr %items.addr4.i, align 8
  store ptr %d.i, ptr %items.addr6.i, align 8
  %this7.i = load ptr, ptr %this.addr.i, align 8
  %12 = load ptr, ptr %this7.i, align 8
  store i64 15, ptr %tag.i, align 8
  %13 = load ptr, ptr %items.addr.i, align 8
  %14 = load ptr, ptr %items.addr2.i, align 8
  %15 = load ptr, ptr %items.addr4.i, align 8
  %16 = load ptr, ptr %items.addr6.i, align 8
  store ptr %12, ptr %this.addr.i10, align 8
  store ptr %13, ptr %items.addr.i11, align 8
  store ptr %14, ptr %items.addr2.i12, align 8
  store ptr %15, ptr %items.addr4.i13, align 8
  store ptr %16, ptr %items.addr6.i14, align 8
  %this7.i15 = load ptr, ptr %this.addr.i10, align 8
  store i64 4, ptr %cnt.i, align 8
  store i64 1, ptr %bitset_size.i, align 8
  %reader_.i = getelementptr inbounds %"class.struct_pack::detail::unpacker", ptr %this7.i15, i32 0, i32 1
  %17 = load ptr, ptr %reader_.i, align 8
  call void @llvm.experimental.noalias.scope.decl(metadata !23)
  store ptr %17, ptr %reader.addr.i, align 8, !noalias !23
  store ptr %vec.i, ptr %data.addr.i, align 8, !noalias !23
  store i64 1, ptr %length.addr.i, align 8, !noalias !23
  %18 = load ptr, ptr %reader.addr.i, align 8, !noalias !23
  %19 = load ptr, ptr %data.addr.i, align 8, !noalias !23
  %20 = load i64, ptr %length.addr.i, align 8, !noalias !23
  %call.i = call noundef zeroext i1 @_ZN11struct_pack6detail13memory_reader4readEPcm(ptr noundef nonnull align 8 dereferenceable(16) %18, ptr noundef %19, i64 noundef %20)
  %frombool.i = zext i1 %call.i to i8
  store i8 %frombool.i, ptr %ec.i, align 1
  %21 = load i8, ptr %ec.i, align 1
  %tobool.i = trunc i8 %21 to i1
  br i1 %tobool.i, label %if.end.i, label %if.then.i

if.then.i:                                        ; preds = %entry
  store i32 1, ptr %retval.i, align 4
  br label %_ZN11struct_pack6detail8unpackerINS0_13memory_readerELm3EE23deserialize_fast_varintILm15ELb1EJiiiiEEENS_4errcEDpRT1_.exit

if.end.i:                                         ; preds = %entry
  %22 = load i8, ptr %vec.i, align 1
  %conv.i = sext i8 %22 to i32
  %and.i = and i32 %conv.i, 16
  %tobool8.i = icmp ne i32 %and.i, 0
  %conv10.i = zext i1 %tobool8.i to i32
  %23 = load i8, ptr %vec.i, align 1
  %conv12.i = sext i8 %23 to i32
  %and13.i = and i32 %conv12.i, 32
  %tobool14.i = icmp ne i32 %and13.i, 0
  %conv17.i = zext i1 %tobool14.i to i32
  %mul.i = mul nsw i32 %conv17.i, 2
  %add.i = add nsw i32 %conv10.i, %mul.i
  store i32 %add.i, ptr %width.i, align 4
  store i32 0, ptr %i.i, align 4
  store i32 0, ptr %ec18.i, align 4
  %24 = load i32, ptr %width.i, align 4
  switch i32 %24, label %sw.default.i [
    i32 0, label %sw.bb.i
    i32 1, label %sw.bb20.i
    i32 2, label %sw.bb22.i
    i32 3, label %sw.bb24.i
  ]

sw.bb.i:                                          ; preds = %if.end.i
  %25 = load ptr, ptr %items.addr.i11, align 8
  %26 = load ptr, ptr %items.addr2.i12, align 8
  %27 = load ptr, ptr %items.addr4.i13, align 8
  %28 = load ptr, ptr %items.addr6.i14, align 8
  store ptr %this7.i15, ptr %this.addr.i18, align 8
  store ptr %vec.i, ptr %vec.addr.i, align 8
  store ptr %i.i, ptr %i.addr.i, align 8
  store ptr %25, ptr %item.addr.i, align 8
  store ptr %26, ptr %items.addr.i19, align 8
  store ptr %27, ptr %items.addr2.i20, align 8
  store ptr %28, ptr %items.addr4.i21, align 8
  %this5.i = load ptr, ptr %this.addr.i18, align 8
  %29 = load ptr, ptr %vec.addr.i, align 8
  %30 = load ptr, ptr %i.addr.i, align 8
  %31 = load ptr, ptr %item.addr.i, align 8
  store ptr %this5.i, ptr %this.addr.i56, align 8
  store ptr %29, ptr %vec.addr.i57, align 8
  store ptr %30, ptr %i.addr.i58, align 8
  store ptr %31, ptr %item.addr.i59, align 8
  %this1.i = load ptr, ptr %this.addr.i56, align 8
  store i64 1, ptr %real_width.i, align 8
  %32 = load ptr, ptr %i.addr.i58, align 8
  %33 = load i32, ptr %32, align 4
  %inc.i = add i32 %33, 1
  store i32 %inc.i, ptr %32, align 4
  store i32 %33, ptr %index.i, align 4
  %34 = load ptr, ptr %vec.addr.i57, align 8
  %35 = load i32, ptr %index.i, align 4
  %div.i = udiv i32 %35, 8
  %idxprom.i = zext i32 %div.i to i64
  %arrayidx.i = getelementptr inbounds [1 x i8], ptr %34, i64 0, i64 %idxprom.i
  %36 = load i8, ptr %arrayidx.i, align 1
  %conv.i61 = sext i8 %36 to i32
  %37 = load i32, ptr %index.i, align 4
  %rem.i = urem i32 %37, 8
  %shl.i = shl i32 1, %rem.i
  %and.i62 = and i32 %conv.i61, %shl.i
  %tobool.i63 = icmp ne i32 %and.i62, 0
  br i1 %tobool.i63, label %if.end.i65, label %if.then.i64

if.then.i64:                                      ; preds = %sw.bb.i
  store i32 0, ptr %retval.i55, align 4
  br label %_ZN11struct_pack6detail8unpackerINS0_13memory_readerELm3EE27deserialize_one_fast_varintILm15ELb1ELm1ELm1EiEENS_4errcERAT2__cRjRT3_.exit

if.end.i65:                                       ; preds = %sw.bb.i
  store i8 0, ptr %ec.i60, align 1
  %reader_.i66 = getelementptr inbounds %"class.struct_pack::detail::unpacker", ptr %this1.i, i32 0, i32 1
  %38 = load ptr, ptr %reader_.i66, align 8
  call void @llvm.experimental.noalias.scope.decl(metadata !26)
  store ptr %38, ptr %reader.addr.i83, align 8, !noalias !26
  store ptr %target.i, ptr %data.addr.i84, align 8, !noalias !26
  %39 = load ptr, ptr %reader.addr.i83, align 8, !noalias !26
  %40 = load ptr, ptr %data.addr.i84, align 8, !noalias !26
  %call.i85 = call noundef zeroext i1 @_ZN11struct_pack6detail13memory_reader4readEPcm(ptr noundef nonnull align 8 dereferenceable(16) %39, ptr noundef %40, i64 noundef 1)
  %frombool.i68 = zext i1 %call.i85 to i8
  store i8 %frombool.i68, ptr %ec.i60, align 1
  %41 = load i8, ptr %ec.i60, align 1
  %tobool2.i = trunc i8 %41 to i1
  br i1 %tobool2.i, label %if.end4.i, label %if.then3.i

if.then3.i:                                       ; preds = %if.end.i65
  store i32 1, ptr %retval.i55, align 4
  br label %_ZN11struct_pack6detail8unpackerINS0_13memory_readerELm3EE27deserialize_one_fast_varintILm15ELb1ELm1ELm1EiEENS_4errcERAT2__cRjRT3_.exit

if.end4.i:                                        ; preds = %if.end.i65
  %42 = load i8, ptr %target.i, align 1
  %conv5.i = sext i8 %42 to i32
  %43 = load ptr, ptr %item.addr.i59, align 8
  store i32 %conv5.i, ptr %43, align 4
  store i32 0, ptr %retval.i55, align 4
  br label %_ZN11struct_pack6detail8unpackerINS0_13memory_readerELm3EE27deserialize_one_fast_varintILm15ELb1ELm1ELm1EiEENS_4errcERAT2__cRjRT3_.exit

_ZN11struct_pack6detail8unpackerINS0_13memory_readerELm3EE27deserialize_one_fast_varintILm15ELb1ELm1ELm1EiEENS_4errcERAT2__cRjRT3_.exit: ; preds = %if.end4.i, %if.then3.i, %if.then.i64
  %44 = load i32, ptr %retval.i55, align 4
  store i32 %44, ptr %ec.i22, align 4
  %45 = load i32, ptr %ec.i22, align 4
  %cmp.i = icmp ne i32 %45, 0
  br i1 %cmp.i, label %if.then.i24, label %if.else.i

if.then.i24:                                      ; preds = %_ZN11struct_pack6detail8unpackerINS0_13memory_readerELm3EE27deserialize_one_fast_varintILm15ELb1ELm1ELm1EiEENS_4errcERAT2__cRjRT3_.exit
  %46 = load i32, ptr %ec.i22, align 4
  store i32 %46, ptr %retval.i17, align 4
  br label %_ZN11struct_pack6detail8unpackerINS0_13memory_readerELm3EE30deserialize_fast_varint_helperILm15ELb1ELm1ELm1EiJiiiEEENS_4errcERAT2__cRjRT3_DpRT4_.exit

if.else.i:                                        ; preds = %_ZN11struct_pack6detail8unpackerINS0_13memory_readerELm3EE27deserialize_one_fast_varintILm15ELb1ELm1ELm1EiEENS_4errcERAT2__cRjRT3_.exit
  %47 = load ptr, ptr %vec.addr.i, align 8
  %48 = load ptr, ptr %i.addr.i, align 8
  %49 = load ptr, ptr %items.addr.i19, align 8
  %50 = load ptr, ptr %items.addr2.i20, align 8
  %51 = load ptr, ptr %items.addr4.i21, align 8
  store ptr %this5.i, ptr %this.addr.i70, align 8
  store ptr %47, ptr %vec.addr.i71, align 8
  store ptr %48, ptr %i.addr.i72, align 8
  store ptr %49, ptr %item.addr.i73, align 8
  store ptr %50, ptr %items.addr.i74, align 8
  store ptr %51, ptr %items.addr2.i75, align 8
  %this3.i = load ptr, ptr %this.addr.i70, align 8
  %52 = load ptr, ptr %vec.addr.i71, align 8
  %53 = load ptr, ptr %i.addr.i72, align 8
  %54 = load ptr, ptr %item.addr.i73, align 8
  store ptr %this3.i, ptr %this.addr.i.i, align 8
  store ptr %52, ptr %vec.addr.i.i, align 8
  store ptr %53, ptr %i.addr.i.i, align 8
  store ptr %54, ptr %item.addr.i.i, align 8
  %this1.i.i = load ptr, ptr %this.addr.i.i, align 8
  store i64 1, ptr %real_width.i.i, align 8
  %55 = load ptr, ptr %i.addr.i.i, align 8
  %56 = load i32, ptr %55, align 4
  %inc.i.i = add i32 %56, 1
  store i32 %inc.i.i, ptr %55, align 4
  store i32 %56, ptr %index.i.i, align 4
  %57 = load ptr, ptr %vec.addr.i.i, align 8
  %58 = load i32, ptr %index.i.i, align 4
  %div.i.i = udiv i32 %58, 8
  %idxprom.i.i = zext i32 %div.i.i to i64
  %arrayidx.i.i = getelementptr inbounds [1 x i8], ptr %57, i64 0, i64 %idxprom.i.i
  %59 = load i8, ptr %arrayidx.i.i, align 1
  %conv.i.i = sext i8 %59 to i32
  %60 = load i32, ptr %index.i.i, align 4
  %rem.i.i = urem i32 %60, 8
  %shl.i.i = shl i32 1, %rem.i.i
  %and.i.i = and i32 %conv.i.i, %shl.i.i
  %tobool.i.i = icmp ne i32 %and.i.i, 0
  br i1 %tobool.i.i, label %if.end.i.i, label %if.then.i.i

if.then.i.i:                                      ; preds = %if.else.i
  store i32 0, ptr %retval.i.i, align 4
  br label %_ZN11struct_pack6detail8unpackerINS0_13memory_readerELm3EE27deserialize_one_fast_varintILm15ELb1ELm1ELm1EiEENS_4errcERAT2__cRjRT3_.exit.i

if.end.i.i:                                       ; preds = %if.else.i
  store i8 0, ptr %ec.i.i, align 1
  %reader_.i.i = getelementptr inbounds %"class.struct_pack::detail::unpacker", ptr %this1.i.i, i32 0, i32 1
  %61 = load ptr, ptr %reader_.i.i, align 8
  call void @llvm.experimental.noalias.scope.decl(metadata !29)
  store ptr %61, ptr %reader.addr.i80, align 8, !noalias !29
  store ptr %target.i.i, ptr %data.addr.i81, align 8, !noalias !29
  %62 = load ptr, ptr %reader.addr.i80, align 8, !noalias !29
  %63 = load ptr, ptr %data.addr.i81, align 8, !noalias !29
  %call.i82 = call noundef zeroext i1 @_ZN11struct_pack6detail13memory_reader4readEPcm(ptr noundef nonnull align 8 dereferenceable(16) %62, ptr noundef %63, i64 noundef 1)
  %frombool.i.i = zext i1 %call.i82 to i8
  store i8 %frombool.i.i, ptr %ec.i.i, align 1
  %64 = load i8, ptr %ec.i.i, align 1
  %tobool2.i.i = trunc i8 %64 to i1
  br i1 %tobool2.i.i, label %if.end4.i.i, label %if.then3.i.i

if.then3.i.i:                                     ; preds = %if.end.i.i
  store i32 1, ptr %retval.i.i, align 4
  br label %_ZN11struct_pack6detail8unpackerINS0_13memory_readerELm3EE27deserialize_one_fast_varintILm15ELb1ELm1ELm1EiEENS_4errcERAT2__cRjRT3_.exit.i

if.end4.i.i:                                      ; preds = %if.end.i.i
  %65 = load i8, ptr %target.i.i, align 1
  %conv5.i.i = sext i8 %65 to i32
  %66 = load ptr, ptr %item.addr.i.i, align 8
  store i32 %conv5.i.i, ptr %66, align 4
  store i32 0, ptr %retval.i.i, align 4
  br label %_ZN11struct_pack6detail8unpackerINS0_13memory_readerELm3EE27deserialize_one_fast_varintILm15ELb1ELm1ELm1EiEENS_4errcERAT2__cRjRT3_.exit.i

_ZN11struct_pack6detail8unpackerINS0_13memory_readerELm3EE27deserialize_one_fast_varintILm15ELb1ELm1ELm1EiEENS_4errcERAT2__cRjRT3_.exit.i: ; preds = %if.end4.i.i, %if.then3.i.i, %if.then.i.i
  %67 = load i32, ptr %retval.i.i, align 4
  store i32 %67, ptr %ec.i76, align 4
  %68 = load i32, ptr %ec.i76, align 4
  %cmp.i77 = icmp ne i32 %68, 0
  br i1 %cmp.i77, label %if.then.i79, label %if.else.i78

if.then.i79:                                      ; preds = %_ZN11struct_pack6detail8unpackerINS0_13memory_readerELm3EE27deserialize_one_fast_varintILm15ELb1ELm1ELm1EiEENS_4errcERAT2__cRjRT3_.exit.i
  %69 = load i32, ptr %ec.i76, align 4
  store i32 %69, ptr %retval.i69, align 4
  br label %_ZN11struct_pack6detail8unpackerINS0_13memory_readerELm3EE30deserialize_fast_varint_helperILm15ELb1ELm1ELm1EiJiiEEENS_4errcERAT2__cRjRT3_DpRT4_.exit

if.else.i78:                                      ; preds = %_ZN11struct_pack6detail8unpackerINS0_13memory_readerELm3EE27deserialize_one_fast_varintILm15ELb1ELm1ELm1EiEENS_4errcERAT2__cRjRT3_.exit.i
  %70 = load ptr, ptr %vec.addr.i71, align 8
  %71 = load ptr, ptr %i.addr.i72, align 8
  %72 = load ptr, ptr %items.addr.i74, align 8
  %73 = load ptr, ptr %items.addr2.i75, align 8
  store ptr %this3.i, ptr %this.addr.i96, align 8
  store ptr %70, ptr %vec.addr.i97, align 8
  store ptr %71, ptr %i.addr.i98, align 8
  store ptr %72, ptr %item.addr.i99, align 8
  store ptr %73, ptr %items.addr.i100, align 8
  %this1.i102 = load ptr, ptr %this.addr.i96, align 8
  %74 = load ptr, ptr %vec.addr.i97, align 8
  %75 = load ptr, ptr %i.addr.i98, align 8
  %76 = load ptr, ptr %item.addr.i99, align 8
  store ptr %this1.i102, ptr %this.addr.i.i87, align 8
  store ptr %74, ptr %vec.addr.i.i88, align 8
  store ptr %75, ptr %i.addr.i.i89, align 8
  store ptr %76, ptr %item.addr.i.i90, align 8
  %this1.i.i103 = load ptr, ptr %this.addr.i.i87, align 8
  store i64 1, ptr %real_width.i.i91, align 8
  %77 = load ptr, ptr %i.addr.i.i89, align 8
  %78 = load i32, ptr %77, align 4
  %inc.i.i104 = add i32 %78, 1
  store i32 %inc.i.i104, ptr %77, align 4
  store i32 %78, ptr %index.i.i92, align 4
  %79 = load ptr, ptr %vec.addr.i.i88, align 8
  %80 = load i32, ptr %index.i.i92, align 4
  %div.i.i105 = udiv i32 %80, 8
  %idxprom.i.i106 = zext i32 %div.i.i105 to i64
  %arrayidx.i.i107 = getelementptr inbounds [1 x i8], ptr %79, i64 0, i64 %idxprom.i.i106
  %81 = load i8, ptr %arrayidx.i.i107, align 1
  %conv.i.i108 = sext i8 %81 to i32
  %82 = load i32, ptr %index.i.i92, align 4
  %rem.i.i109 = urem i32 %82, 8
  %shl.i.i110 = shl i32 1, %rem.i.i109
  %and.i.i111 = and i32 %conv.i.i108, %shl.i.i110
  %tobool.i.i112 = icmp ne i32 %and.i.i111, 0
  br i1 %tobool.i.i112, label %if.end.i.i118, label %if.then.i.i113

if.then.i.i113:                                   ; preds = %if.else.i78
  store i32 0, ptr %retval.i.i86, align 4
  br label %_ZN11struct_pack6detail8unpackerINS0_13memory_readerELm3EE27deserialize_one_fast_varintILm15ELb1ELm1ELm1EiEENS_4errcERAT2__cRjRT3_.exit.i114

if.end.i.i118:                                    ; preds = %if.else.i78
  store i8 0, ptr %ec.i.i93, align 1
  %reader_.i.i119 = getelementptr inbounds %"class.struct_pack::detail::unpacker", ptr %this1.i.i103, i32 0, i32 1
  %83 = load ptr, ptr %reader_.i.i119, align 8
  call void @llvm.experimental.noalias.scope.decl(metadata !32)
  store ptr %83, ptr %reader.addr.i.i, align 8, !noalias !32
  store ptr %target.i.i94, ptr %data.addr.i.i, align 8, !noalias !32
  %84 = load ptr, ptr %reader.addr.i.i, align 8, !noalias !32
  %85 = load ptr, ptr %data.addr.i.i, align 8, !noalias !32
  %call.i3.i = call noundef zeroext i1 @_ZN11struct_pack6detail13memory_reader4readEPcm(ptr noundef nonnull align 8 dereferenceable(16) %84, ptr noundef %85, i64 noundef 1)
  %frombool.i.i120 = zext i1 %call.i3.i to i8
  store i8 %frombool.i.i120, ptr %ec.i.i93, align 1
  %86 = load i8, ptr %ec.i.i93, align 1
  %tobool2.i.i121 = trunc i8 %86 to i1
  br i1 %tobool2.i.i121, label %if.end4.i.i123, label %if.then3.i.i122

if.then3.i.i122:                                  ; preds = %if.end.i.i118
  store i32 1, ptr %retval.i.i86, align 4
  br label %_ZN11struct_pack6detail8unpackerINS0_13memory_readerELm3EE27deserialize_one_fast_varintILm15ELb1ELm1ELm1EiEENS_4errcERAT2__cRjRT3_.exit.i114

if.end4.i.i123:                                   ; preds = %if.end.i.i118
  %87 = load i8, ptr %target.i.i94, align 1
  %conv5.i.i124 = sext i8 %87 to i32
  %88 = load ptr, ptr %item.addr.i.i90, align 8
  store i32 %conv5.i.i124, ptr %88, align 4
  store i32 0, ptr %retval.i.i86, align 4
  br label %_ZN11struct_pack6detail8unpackerINS0_13memory_readerELm3EE27deserialize_one_fast_varintILm15ELb1ELm1ELm1EiEENS_4errcERAT2__cRjRT3_.exit.i114

_ZN11struct_pack6detail8unpackerINS0_13memory_readerELm3EE27deserialize_one_fast_varintILm15ELb1ELm1ELm1EiEENS_4errcERAT2__cRjRT3_.exit.i114: ; preds = %if.end4.i.i123, %if.then3.i.i122, %if.then.i.i113
  %89 = load i32, ptr %retval.i.i86, align 4
  store i32 %89, ptr %ec.i101, align 4
  %90 = load i32, ptr %ec.i101, align 4
  %cmp.i115 = icmp ne i32 %90, 0
  br i1 %cmp.i115, label %if.then.i117, label %if.else.i116

if.then.i117:                                     ; preds = %_ZN11struct_pack6detail8unpackerINS0_13memory_readerELm3EE27deserialize_one_fast_varintILm15ELb1ELm1ELm1EiEENS_4errcERAT2__cRjRT3_.exit.i114
  %91 = load i32, ptr %ec.i101, align 4
  store i32 %91, ptr %retval.i95, align 4
  br label %_ZN11struct_pack6detail8unpackerINS0_13memory_readerELm3EE30deserialize_fast_varint_helperILm15ELb1ELm1ELm1EiJiEEENS_4errcERAT2__cRjRT3_DpRT4_.exit

if.else.i116:                                     ; preds = %_ZN11struct_pack6detail8unpackerINS0_13memory_readerELm3EE27deserialize_one_fast_varintILm15ELb1ELm1ELm1EiEENS_4errcERAT2__cRjRT3_.exit.i114
  %92 = load ptr, ptr %vec.addr.i97, align 8
  %93 = load ptr, ptr %i.addr.i98, align 8
  %94 = load ptr, ptr %items.addr.i100, align 8
  store ptr %this1.i102, ptr %this.addr.i136, align 8
  store ptr %92, ptr %vec.addr.i137, align 8
  store ptr %93, ptr %i.addr.i138, align 8
  store ptr %94, ptr %item.addr.i139, align 8
  %this1.i141 = load ptr, ptr %this.addr.i136, align 8
  %95 = load ptr, ptr %vec.addr.i137, align 8
  %96 = load ptr, ptr %i.addr.i138, align 8
  %97 = load ptr, ptr %item.addr.i139, align 8
  store ptr %this1.i141, ptr %this.addr.i.i128, align 8
  store ptr %95, ptr %vec.addr.i.i129, align 8
  store ptr %96, ptr %i.addr.i.i130, align 8
  store ptr %97, ptr %item.addr.i.i131, align 8
  %this1.i.i142 = load ptr, ptr %this.addr.i.i128, align 8
  store i64 1, ptr %real_width.i.i132, align 8
  %98 = load ptr, ptr %i.addr.i.i130, align 8
  %99 = load i32, ptr %98, align 4
  %inc.i.i143 = add i32 %99, 1
  store i32 %inc.i.i143, ptr %98, align 4
  store i32 %99, ptr %index.i.i133, align 4
  %100 = load ptr, ptr %vec.addr.i.i129, align 8
  %101 = load i32, ptr %index.i.i133, align 4
  %div.i.i144 = udiv i32 %101, 8
  %idxprom.i.i145 = zext i32 %div.i.i144 to i64
  %arrayidx.i.i146 = getelementptr inbounds [1 x i8], ptr %100, i64 0, i64 %idxprom.i.i145
  %102 = load i8, ptr %arrayidx.i.i146, align 1
  %conv.i.i147 = sext i8 %102 to i32
  %103 = load i32, ptr %index.i.i133, align 4
  %rem.i.i148 = urem i32 %103, 8
  %shl.i.i149 = shl i32 1, %rem.i.i148
  %and.i.i150 = and i32 %conv.i.i147, %shl.i.i149
  %tobool.i.i151 = icmp ne i32 %and.i.i150, 0
  br i1 %tobool.i.i151, label %if.end.i.i154, label %if.then.i.i152

if.then.i.i152:                                   ; preds = %if.else.i116
  store i32 0, ptr %retval.i.i127, align 4
  br label %_ZN11struct_pack6detail8unpackerINS0_13memory_readerELm3EE30deserialize_fast_varint_helperILm15ELb1ELm1ELm1EiJEEENS_4errcERAT2__cRjRT3_DpRT4_.exit

if.end.i.i154:                                    ; preds = %if.else.i116
  store i8 0, ptr %ec.i.i134, align 1
  %reader_.i.i155 = getelementptr inbounds %"class.struct_pack::detail::unpacker", ptr %this1.i.i142, i32 0, i32 1
  %104 = load ptr, ptr %reader_.i.i155, align 8
  call void @llvm.experimental.noalias.scope.decl(metadata !35)
  store ptr %104, ptr %reader.addr.i.i125, align 8, !noalias !35
  store ptr %target.i.i135, ptr %data.addr.i.i126, align 8, !noalias !35
  %105 = load ptr, ptr %reader.addr.i.i125, align 8, !noalias !35
  %106 = load ptr, ptr %data.addr.i.i126, align 8, !noalias !35
  %call.i2.i = call noundef zeroext i1 @_ZN11struct_pack6detail13memory_reader4readEPcm(ptr noundef nonnull align 8 dereferenceable(16) %105, ptr noundef %106, i64 noundef 1)
  %frombool.i.i156 = zext i1 %call.i2.i to i8
  store i8 %frombool.i.i156, ptr %ec.i.i134, align 1
  %107 = load i8, ptr %ec.i.i134, align 1
  %tobool2.i.i157 = trunc i8 %107 to i1
  br i1 %tobool2.i.i157, label %if.end4.i.i159, label %if.then3.i.i158

if.then3.i.i158:                                  ; preds = %if.end.i.i154
  store i32 1, ptr %retval.i.i127, align 4
  br label %_ZN11struct_pack6detail8unpackerINS0_13memory_readerELm3EE30deserialize_fast_varint_helperILm15ELb1ELm1ELm1EiJEEENS_4errcERAT2__cRjRT3_DpRT4_.exit

if.end4.i.i159:                                   ; preds = %if.end.i.i154
  %108 = load i8, ptr %target.i.i135, align 1
  %conv5.i.i160 = sext i8 %108 to i32
  %109 = load ptr, ptr %item.addr.i.i131, align 8
  store i32 %conv5.i.i160, ptr %109, align 4
  store i32 0, ptr %retval.i.i127, align 4
  br label %_ZN11struct_pack6detail8unpackerINS0_13memory_readerELm3EE30deserialize_fast_varint_helperILm15ELb1ELm1ELm1EiJEEENS_4errcERAT2__cRjRT3_DpRT4_.exit

_ZN11struct_pack6detail8unpackerINS0_13memory_readerELm3EE30deserialize_fast_varint_helperILm15ELb1ELm1ELm1EiJEEENS_4errcERAT2__cRjRT3_DpRT4_.exit: ; preds = %if.end4.i.i159, %if.then3.i.i158, %if.then.i.i152
  %110 = load i32, ptr %retval.i.i127, align 4
  store i32 %110, ptr %ec.i140, align 4
  %111 = load i32, ptr %ec.i140, align 4
  store i32 %111, ptr %retval.i95, align 4
  br label %_ZN11struct_pack6detail8unpackerINS0_13memory_readerELm3EE30deserialize_fast_varint_helperILm15ELb1ELm1ELm1EiJiEEENS_4errcERAT2__cRjRT3_DpRT4_.exit

_ZN11struct_pack6detail8unpackerINS0_13memory_readerELm3EE30deserialize_fast_varint_helperILm15ELb1ELm1ELm1EiJiEEENS_4errcERAT2__cRjRT3_DpRT4_.exit: ; preds = %_ZN11struct_pack6detail8unpackerINS0_13memory_readerELm3EE30deserialize_fast_varint_helperILm15ELb1ELm1ELm1EiJEEENS_4errcERAT2__cRjRT3_DpRT4_.exit, %if.then.i117
  %112 = load i32, ptr %retval.i95, align 4
  store i32 %112, ptr %retval.i69, align 4
  br label %_ZN11struct_pack6detail8unpackerINS0_13memory_readerELm3EE30deserialize_fast_varint_helperILm15ELb1ELm1ELm1EiJiiEEENS_4errcERAT2__cRjRT3_DpRT4_.exit

_ZN11struct_pack6detail8unpackerINS0_13memory_readerELm3EE30deserialize_fast_varint_helperILm15ELb1ELm1ELm1EiJiiEEENS_4errcERAT2__cRjRT3_DpRT4_.exit: ; preds = %_ZN11struct_pack6detail8unpackerINS0_13memory_readerELm3EE30deserialize_fast_varint_helperILm15ELb1ELm1ELm1EiJiEEENS_4errcERAT2__cRjRT3_DpRT4_.exit, %if.then.i79
  %113 = load i32, ptr %retval.i69, align 4
  store i32 %113, ptr %retval.i17, align 4
  br label %_ZN11struct_pack6detail8unpackerINS0_13memory_readerELm3EE30deserialize_fast_varint_helperILm15ELb1ELm1ELm1EiJiiiEEENS_4errcERAT2__cRjRT3_DpRT4_.exit

_ZN11struct_pack6detail8unpackerINS0_13memory_readerELm3EE30deserialize_fast_varint_helperILm15ELb1ELm1ELm1EiJiiiEEENS_4errcERAT2__cRjRT3_DpRT4_.exit: ; preds = %_ZN11struct_pack6detail8unpackerINS0_13memory_readerELm3EE30deserialize_fast_varint_helperILm15ELb1ELm1ELm1EiJiiEEENS_4errcERAT2__cRjRT3_DpRT4_.exit, %if.then.i24
  %114 = load i32, ptr %retval.i17, align 4
  store i32 %114, ptr %ec18.i, align 4
  br label %sw.epilog.i

sw.bb20.i:                                        ; preds = %if.end.i
  %115 = load ptr, ptr %items.addr.i11, align 8
  %116 = load ptr, ptr %items.addr2.i12, align 8
  %117 = load ptr, ptr %items.addr4.i13, align 8
  %118 = load ptr, ptr %items.addr6.i14, align 8
  store ptr %this7.i15, ptr %this.addr.i26, align 8
  store ptr %vec.i, ptr %vec.addr.i27, align 8
  store ptr %i.i, ptr %i.addr.i28, align 8
  store ptr %115, ptr %item.addr.i29, align 8
  store ptr %116, ptr %items.addr.i30, align 8
  store ptr %117, ptr %items.addr2.i31, align 8
  store ptr %118, ptr %items.addr4.i32, align 8
  %this5.i34 = load ptr, ptr %this.addr.i26, align 8
  %119 = load ptr, ptr %vec.addr.i27, align 8
  %120 = load ptr, ptr %i.addr.i28, align 8
  %121 = load ptr, ptr %item.addr.i29, align 8
  store ptr %this5.i34, ptr %this.addr.i162, align 8
  store ptr %119, ptr %vec.addr.i163, align 8
  store ptr %120, ptr %i.addr.i164, align 8
  store ptr %121, ptr %item.addr.i165, align 8
  %this1.i170 = load ptr, ptr %this.addr.i162, align 8
  store i64 2, ptr %real_width.i166, align 8
  %122 = load ptr, ptr %i.addr.i164, align 8
  %123 = load i32, ptr %122, align 4
  %inc.i171 = add i32 %123, 1
  store i32 %inc.i171, ptr %122, align 4
  store i32 %123, ptr %index.i167, align 4
  %124 = load ptr, ptr %vec.addr.i163, align 8
  %125 = load i32, ptr %index.i167, align 4
  %div.i172 = udiv i32 %125, 8
  %idxprom.i173 = zext i32 %div.i172 to i64
  %arrayidx.i174 = getelementptr inbounds [1 x i8], ptr %124, i64 0, i64 %idxprom.i173
  %126 = load i8, ptr %arrayidx.i174, align 1
  %conv.i175 = sext i8 %126 to i32
  %127 = load i32, ptr %index.i167, align 4
  %rem.i176 = urem i32 %127, 8
  %shl.i177 = shl i32 1, %rem.i176
  %and.i178 = and i32 %conv.i175, %shl.i177
  %tobool.i179 = icmp ne i32 %and.i178, 0
  br i1 %tobool.i179, label %if.end.i181, label %if.then.i180

if.then.i180:                                     ; preds = %sw.bb20.i
  store i32 0, ptr %retval.i161, align 4
  br label %_ZN11struct_pack6detail8unpackerINS0_13memory_readerELm3EE27deserialize_one_fast_varintILm15ELb1ELm2ELm1EiEENS_4errcERAT2__cRjRT3_.exit

if.end.i181:                                      ; preds = %sw.bb20.i
  store i8 0, ptr %ec.i168, align 1
  %reader_.i182 = getelementptr inbounds %"class.struct_pack::detail::unpacker", ptr %this1.i170, i32 0, i32 1
  %128 = load ptr, ptr %reader_.i182, align 8
  call void @llvm.experimental.noalias.scope.decl(metadata !38)
  store ptr %128, ptr %reader.addr.i231, align 8, !noalias !38
  store ptr %target.i169, ptr %data.addr.i232, align 8, !noalias !38
  %129 = load ptr, ptr %reader.addr.i231, align 8, !noalias !38
  %130 = load ptr, ptr %data.addr.i232, align 8, !noalias !38
  %call.i233 = call noundef zeroext i1 @_ZN11struct_pack6detail13memory_reader4readEPcm(ptr noundef nonnull align 8 dereferenceable(16) %129, ptr noundef %130, i64 noundef 2)
  %frombool.i184 = zext i1 %call.i233 to i8
  store i8 %frombool.i184, ptr %ec.i168, align 1
  %131 = load i8, ptr %ec.i168, align 1
  %tobool2.i185 = trunc i8 %131 to i1
  br i1 %tobool2.i185, label %if.end4.i187, label %if.then3.i186

if.then3.i186:                                    ; preds = %if.end.i181
  store i32 1, ptr %retval.i161, align 4
  br label %_ZN11struct_pack6detail8unpackerINS0_13memory_readerELm3EE27deserialize_one_fast_varintILm15ELb1ELm2ELm1EiEENS_4errcERAT2__cRjRT3_.exit

if.end4.i187:                                     ; preds = %if.end.i181
  %132 = load i16, ptr %target.i169, align 2
  %conv5.i188 = sext i16 %132 to i32
  %133 = load ptr, ptr %item.addr.i165, align 8
  store i32 %conv5.i188, ptr %133, align 4
  store i32 0, ptr %retval.i161, align 4
  br label %_ZN11struct_pack6detail8unpackerINS0_13memory_readerELm3EE27deserialize_one_fast_varintILm15ELb1ELm2ELm1EiEENS_4errcERAT2__cRjRT3_.exit

_ZN11struct_pack6detail8unpackerINS0_13memory_readerELm3EE27deserialize_one_fast_varintILm15ELb1ELm2ELm1EiEENS_4errcERAT2__cRjRT3_.exit: ; preds = %if.end4.i187, %if.then3.i186, %if.then.i180
  %134 = load i32, ptr %retval.i161, align 4
  store i32 %134, ptr %ec.i33, align 4
  %135 = load i32, ptr %ec.i33, align 4
  %cmp.i36 = icmp ne i32 %135, 0
  br i1 %cmp.i36, label %if.then.i39, label %if.else.i37

if.then.i39:                                      ; preds = %_ZN11struct_pack6detail8unpackerINS0_13memory_readerELm3EE27deserialize_one_fast_varintILm15ELb1ELm2ELm1EiEENS_4errcERAT2__cRjRT3_.exit
  %136 = load i32, ptr %ec.i33, align 4
  store i32 %136, ptr %retval.i25, align 4
  br label %_ZN11struct_pack6detail8unpackerINS0_13memory_readerELm3EE30deserialize_fast_varint_helperILm15ELb1ELm2ELm1EiJiiiEEENS_4errcERAT2__cRjRT3_DpRT4_.exit

if.else.i37:                                      ; preds = %_ZN11struct_pack6detail8unpackerINS0_13memory_readerELm3EE27deserialize_one_fast_varintILm15ELb1ELm2ELm1EiEENS_4errcERAT2__cRjRT3_.exit
  %137 = load ptr, ptr %vec.addr.i27, align 8
  %138 = load ptr, ptr %i.addr.i28, align 8
  %139 = load ptr, ptr %items.addr.i30, align 8
  %140 = load ptr, ptr %items.addr2.i31, align 8
  %141 = load ptr, ptr %items.addr4.i32, align 8
  store ptr %this5.i34, ptr %this.addr.i199, align 8
  store ptr %137, ptr %vec.addr.i200, align 8
  store ptr %138, ptr %i.addr.i201, align 8
  store ptr %139, ptr %item.addr.i202, align 8
  store ptr %140, ptr %items.addr.i203, align 8
  store ptr %141, ptr %items.addr2.i204, align 8
  %this3.i206 = load ptr, ptr %this.addr.i199, align 8
  %142 = load ptr, ptr %vec.addr.i200, align 8
  %143 = load ptr, ptr %i.addr.i201, align 8
  %144 = load ptr, ptr %item.addr.i202, align 8
  store ptr %this3.i206, ptr %this.addr.i.i190, align 8
  store ptr %142, ptr %vec.addr.i.i191, align 8
  store ptr %143, ptr %i.addr.i.i192, align 8
  store ptr %144, ptr %item.addr.i.i193, align 8
  %this1.i.i207 = load ptr, ptr %this.addr.i.i190, align 8
  store i64 2, ptr %real_width.i.i194, align 8
  %145 = load ptr, ptr %i.addr.i.i192, align 8
  %146 = load i32, ptr %145, align 4
  %inc.i.i208 = add i32 %146, 1
  store i32 %inc.i.i208, ptr %145, align 4
  store i32 %146, ptr %index.i.i195, align 4
  %147 = load ptr, ptr %vec.addr.i.i191, align 8
  %148 = load i32, ptr %index.i.i195, align 4
  %div.i.i209 = udiv i32 %148, 8
  %idxprom.i.i210 = zext i32 %div.i.i209 to i64
  %arrayidx.i.i211 = getelementptr inbounds [1 x i8], ptr %147, i64 0, i64 %idxprom.i.i210
  %149 = load i8, ptr %arrayidx.i.i211, align 1
  %conv.i.i212 = sext i8 %149 to i32
  %150 = load i32, ptr %index.i.i195, align 4
  %rem.i.i213 = urem i32 %150, 8
  %shl.i.i214 = shl i32 1, %rem.i.i213
  %and.i.i215 = and i32 %conv.i.i212, %shl.i.i214
  %tobool.i.i216 = icmp ne i32 %and.i.i215, 0
  br i1 %tobool.i.i216, label %if.end.i.i221, label %if.then.i.i217

if.then.i.i217:                                   ; preds = %if.else.i37
  store i32 0, ptr %retval.i.i189, align 4
  br label %_ZN11struct_pack6detail8unpackerINS0_13memory_readerELm3EE27deserialize_one_fast_varintILm15ELb1ELm2ELm1EiEENS_4errcERAT2__cRjRT3_.exit.i

if.end.i.i221:                                    ; preds = %if.else.i37
  store i8 0, ptr %ec.i.i196, align 1
  %reader_.i.i222 = getelementptr inbounds %"class.struct_pack::detail::unpacker", ptr %this1.i.i207, i32 0, i32 1
  %151 = load ptr, ptr %reader_.i.i222, align 8
  call void @llvm.experimental.noalias.scope.decl(metadata !41)
  store ptr %151, ptr %reader.addr.i228, align 8, !noalias !41
  store ptr %target.i.i197, ptr %data.addr.i229, align 8, !noalias !41
  %152 = load ptr, ptr %reader.addr.i228, align 8, !noalias !41
  %153 = load ptr, ptr %data.addr.i229, align 8, !noalias !41
  %call.i230 = call noundef zeroext i1 @_ZN11struct_pack6detail13memory_reader4readEPcm(ptr noundef nonnull align 8 dereferenceable(16) %152, ptr noundef %153, i64 noundef 2)
  %frombool.i.i223 = zext i1 %call.i230 to i8
  store i8 %frombool.i.i223, ptr %ec.i.i196, align 1
  %154 = load i8, ptr %ec.i.i196, align 1
  %tobool2.i.i224 = trunc i8 %154 to i1
  br i1 %tobool2.i.i224, label %if.end4.i.i226, label %if.then3.i.i225

if.then3.i.i225:                                  ; preds = %if.end.i.i221
  store i32 1, ptr %retval.i.i189, align 4
  br label %_ZN11struct_pack6detail8unpackerINS0_13memory_readerELm3EE27deserialize_one_fast_varintILm15ELb1ELm2ELm1EiEENS_4errcERAT2__cRjRT3_.exit.i

if.end4.i.i226:                                   ; preds = %if.end.i.i221
  %155 = load i16, ptr %target.i.i197, align 2
  %conv5.i.i227 = sext i16 %155 to i32
  %156 = load ptr, ptr %item.addr.i.i193, align 8
  store i32 %conv5.i.i227, ptr %156, align 4
  store i32 0, ptr %retval.i.i189, align 4
  br label %_ZN11struct_pack6detail8unpackerINS0_13memory_readerELm3EE27deserialize_one_fast_varintILm15ELb1ELm2ELm1EiEENS_4errcERAT2__cRjRT3_.exit.i

_ZN11struct_pack6detail8unpackerINS0_13memory_readerELm3EE27deserialize_one_fast_varintILm15ELb1ELm2ELm1EiEENS_4errcERAT2__cRjRT3_.exit.i: ; preds = %if.end4.i.i226, %if.then3.i.i225, %if.then.i.i217
  %157 = load i32, ptr %retval.i.i189, align 4
  store i32 %157, ptr %ec.i205, align 4
  %158 = load i32, ptr %ec.i205, align 4
  %cmp.i218 = icmp ne i32 %158, 0
  br i1 %cmp.i218, label %if.then.i220, label %if.else.i219

if.then.i220:                                     ; preds = %_ZN11struct_pack6detail8unpackerINS0_13memory_readerELm3EE27deserialize_one_fast_varintILm15ELb1ELm2ELm1EiEENS_4errcERAT2__cRjRT3_.exit.i
  %159 = load i32, ptr %ec.i205, align 4
  store i32 %159, ptr %retval.i198, align 4
  br label %_ZN11struct_pack6detail8unpackerINS0_13memory_readerELm3EE30deserialize_fast_varint_helperILm15ELb1ELm2ELm1EiJiiEEENS_4errcERAT2__cRjRT3_DpRT4_.exit

if.else.i219:                                     ; preds = %_ZN11struct_pack6detail8unpackerINS0_13memory_readerELm3EE27deserialize_one_fast_varintILm15ELb1ELm2ELm1EiEENS_4errcERAT2__cRjRT3_.exit.i
  %160 = load ptr, ptr %vec.addr.i200, align 8
  %161 = load ptr, ptr %i.addr.i201, align 8
  %162 = load ptr, ptr %items.addr.i203, align 8
  %163 = load ptr, ptr %items.addr2.i204, align 8
  store ptr %this3.i206, ptr %this.addr.i246, align 8
  store ptr %160, ptr %vec.addr.i247, align 8
  store ptr %161, ptr %i.addr.i248, align 8
  store ptr %162, ptr %item.addr.i249, align 8
  store ptr %163, ptr %items.addr.i250, align 8
  %this1.i252 = load ptr, ptr %this.addr.i246, align 8
  %164 = load ptr, ptr %vec.addr.i247, align 8
  %165 = load ptr, ptr %i.addr.i248, align 8
  %166 = load ptr, ptr %item.addr.i249, align 8
  store ptr %this1.i252, ptr %this.addr.i.i237, align 8
  store ptr %164, ptr %vec.addr.i.i238, align 8
  store ptr %165, ptr %i.addr.i.i239, align 8
  store ptr %166, ptr %item.addr.i.i240, align 8
  %this1.i.i253 = load ptr, ptr %this.addr.i.i237, align 8
  store i64 2, ptr %real_width.i.i241, align 8
  %167 = load ptr, ptr %i.addr.i.i239, align 8
  %168 = load i32, ptr %167, align 4
  %inc.i.i254 = add i32 %168, 1
  store i32 %inc.i.i254, ptr %167, align 4
  store i32 %168, ptr %index.i.i242, align 4
  %169 = load ptr, ptr %vec.addr.i.i238, align 8
  %170 = load i32, ptr %index.i.i242, align 4
  %div.i.i255 = udiv i32 %170, 8
  %idxprom.i.i256 = zext i32 %div.i.i255 to i64
  %arrayidx.i.i257 = getelementptr inbounds [1 x i8], ptr %169, i64 0, i64 %idxprom.i.i256
  %171 = load i8, ptr %arrayidx.i.i257, align 1
  %conv.i.i258 = sext i8 %171 to i32
  %172 = load i32, ptr %index.i.i242, align 4
  %rem.i.i259 = urem i32 %172, 8
  %shl.i.i260 = shl i32 1, %rem.i.i259
  %and.i.i261 = and i32 %conv.i.i258, %shl.i.i260
  %tobool.i.i262 = icmp ne i32 %and.i.i261, 0
  br i1 %tobool.i.i262, label %if.end.i.i268, label %if.then.i.i263

if.then.i.i263:                                   ; preds = %if.else.i219
  store i32 0, ptr %retval.i.i236, align 4
  br label %_ZN11struct_pack6detail8unpackerINS0_13memory_readerELm3EE27deserialize_one_fast_varintILm15ELb1ELm2ELm1EiEENS_4errcERAT2__cRjRT3_.exit.i264

if.end.i.i268:                                    ; preds = %if.else.i219
  store i8 0, ptr %ec.i.i243, align 1
  %reader_.i.i269 = getelementptr inbounds %"class.struct_pack::detail::unpacker", ptr %this1.i.i253, i32 0, i32 1
  %173 = load ptr, ptr %reader_.i.i269, align 8
  call void @llvm.experimental.noalias.scope.decl(metadata !44)
  store ptr %173, ptr %reader.addr.i.i234, align 8, !noalias !44
  store ptr %target.i.i244, ptr %data.addr.i.i235, align 8, !noalias !44
  %174 = load ptr, ptr %reader.addr.i.i234, align 8, !noalias !44
  %175 = load ptr, ptr %data.addr.i.i235, align 8, !noalias !44
  %call.i3.i270 = call noundef zeroext i1 @_ZN11struct_pack6detail13memory_reader4readEPcm(ptr noundef nonnull align 8 dereferenceable(16) %174, ptr noundef %175, i64 noundef 2)
  %frombool.i.i271 = zext i1 %call.i3.i270 to i8
  store i8 %frombool.i.i271, ptr %ec.i.i243, align 1
  %176 = load i8, ptr %ec.i.i243, align 1
  %tobool2.i.i272 = trunc i8 %176 to i1
  br i1 %tobool2.i.i272, label %if.end4.i.i274, label %if.then3.i.i273

if.then3.i.i273:                                  ; preds = %if.end.i.i268
  store i32 1, ptr %retval.i.i236, align 4
  br label %_ZN11struct_pack6detail8unpackerINS0_13memory_readerELm3EE27deserialize_one_fast_varintILm15ELb1ELm2ELm1EiEENS_4errcERAT2__cRjRT3_.exit.i264

if.end4.i.i274:                                   ; preds = %if.end.i.i268
  %177 = load i16, ptr %target.i.i244, align 2
  %conv5.i.i275 = sext i16 %177 to i32
  %178 = load ptr, ptr %item.addr.i.i240, align 8
  store i32 %conv5.i.i275, ptr %178, align 4
  store i32 0, ptr %retval.i.i236, align 4
  br label %_ZN11struct_pack6detail8unpackerINS0_13memory_readerELm3EE27deserialize_one_fast_varintILm15ELb1ELm2ELm1EiEENS_4errcERAT2__cRjRT3_.exit.i264

_ZN11struct_pack6detail8unpackerINS0_13memory_readerELm3EE27deserialize_one_fast_varintILm15ELb1ELm2ELm1EiEENS_4errcERAT2__cRjRT3_.exit.i264: ; preds = %if.end4.i.i274, %if.then3.i.i273, %if.then.i.i263
  %179 = load i32, ptr %retval.i.i236, align 4
  store i32 %179, ptr %ec.i251, align 4
  %180 = load i32, ptr %ec.i251, align 4
  %cmp.i265 = icmp ne i32 %180, 0
  br i1 %cmp.i265, label %if.then.i267, label %if.else.i266

if.then.i267:                                     ; preds = %_ZN11struct_pack6detail8unpackerINS0_13memory_readerELm3EE27deserialize_one_fast_varintILm15ELb1ELm2ELm1EiEENS_4errcERAT2__cRjRT3_.exit.i264
  %181 = load i32, ptr %ec.i251, align 4
  store i32 %181, ptr %retval.i245, align 4
  br label %_ZN11struct_pack6detail8unpackerINS0_13memory_readerELm3EE30deserialize_fast_varint_helperILm15ELb1ELm2ELm1EiJiEEENS_4errcERAT2__cRjRT3_DpRT4_.exit

if.else.i266:                                     ; preds = %_ZN11struct_pack6detail8unpackerINS0_13memory_readerELm3EE27deserialize_one_fast_varintILm15ELb1ELm2ELm1EiEENS_4errcERAT2__cRjRT3_.exit.i264
  %182 = load ptr, ptr %vec.addr.i247, align 8
  %183 = load ptr, ptr %i.addr.i248, align 8
  %184 = load ptr, ptr %items.addr.i250, align 8
  store ptr %this1.i252, ptr %this.addr.i287, align 8
  store ptr %182, ptr %vec.addr.i288, align 8
  store ptr %183, ptr %i.addr.i289, align 8
  store ptr %184, ptr %item.addr.i290, align 8
  %this1.i292 = load ptr, ptr %this.addr.i287, align 8
  %185 = load ptr, ptr %vec.addr.i288, align 8
  %186 = load ptr, ptr %i.addr.i289, align 8
  %187 = load ptr, ptr %item.addr.i290, align 8
  store ptr %this1.i292, ptr %this.addr.i.i279, align 8
  store ptr %185, ptr %vec.addr.i.i280, align 8
  store ptr %186, ptr %i.addr.i.i281, align 8
  store ptr %187, ptr %item.addr.i.i282, align 8
  %this1.i.i293 = load ptr, ptr %this.addr.i.i279, align 8
  store i64 2, ptr %real_width.i.i283, align 8
  %188 = load ptr, ptr %i.addr.i.i281, align 8
  %189 = load i32, ptr %188, align 4
  %inc.i.i294 = add i32 %189, 1
  store i32 %inc.i.i294, ptr %188, align 4
  store i32 %189, ptr %index.i.i284, align 4
  %190 = load ptr, ptr %vec.addr.i.i280, align 8
  %191 = load i32, ptr %index.i.i284, align 4
  %div.i.i295 = udiv i32 %191, 8
  %idxprom.i.i296 = zext i32 %div.i.i295 to i64
  %arrayidx.i.i297 = getelementptr inbounds [1 x i8], ptr %190, i64 0, i64 %idxprom.i.i296
  %192 = load i8, ptr %arrayidx.i.i297, align 1
  %conv.i.i298 = sext i8 %192 to i32
  %193 = load i32, ptr %index.i.i284, align 4
  %rem.i.i299 = urem i32 %193, 8
  %shl.i.i300 = shl i32 1, %rem.i.i299
  %and.i.i301 = and i32 %conv.i.i298, %shl.i.i300
  %tobool.i.i302 = icmp ne i32 %and.i.i301, 0
  br i1 %tobool.i.i302, label %if.end.i.i305, label %if.then.i.i303

if.then.i.i303:                                   ; preds = %if.else.i266
  store i32 0, ptr %retval.i.i278, align 4
  br label %_ZN11struct_pack6detail8unpackerINS0_13memory_readerELm3EE30deserialize_fast_varint_helperILm15ELb1ELm2ELm1EiJEEENS_4errcERAT2__cRjRT3_DpRT4_.exit

if.end.i.i305:                                    ; preds = %if.else.i266
  store i8 0, ptr %ec.i.i285, align 1
  %reader_.i.i306 = getelementptr inbounds %"class.struct_pack::detail::unpacker", ptr %this1.i.i293, i32 0, i32 1
  %194 = load ptr, ptr %reader_.i.i306, align 8
  call void @llvm.experimental.noalias.scope.decl(metadata !47)
  store ptr %194, ptr %reader.addr.i.i276, align 8, !noalias !47
  store ptr %target.i.i286, ptr %data.addr.i.i277, align 8, !noalias !47
  %195 = load ptr, ptr %reader.addr.i.i276, align 8, !noalias !47
  %196 = load ptr, ptr %data.addr.i.i277, align 8, !noalias !47
  %call.i2.i307 = call noundef zeroext i1 @_ZN11struct_pack6detail13memory_reader4readEPcm(ptr noundef nonnull align 8 dereferenceable(16) %195, ptr noundef %196, i64 noundef 2)
  %frombool.i.i308 = zext i1 %call.i2.i307 to i8
  store i8 %frombool.i.i308, ptr %ec.i.i285, align 1
  %197 = load i8, ptr %ec.i.i285, align 1
  %tobool2.i.i309 = trunc i8 %197 to i1
  br i1 %tobool2.i.i309, label %if.end4.i.i311, label %if.then3.i.i310

if.then3.i.i310:                                  ; preds = %if.end.i.i305
  store i32 1, ptr %retval.i.i278, align 4
  br label %_ZN11struct_pack6detail8unpackerINS0_13memory_readerELm3EE30deserialize_fast_varint_helperILm15ELb1ELm2ELm1EiJEEENS_4errcERAT2__cRjRT3_DpRT4_.exit

if.end4.i.i311:                                   ; preds = %if.end.i.i305
  %198 = load i16, ptr %target.i.i286, align 2
  %conv5.i.i312 = sext i16 %198 to i32
  %199 = load ptr, ptr %item.addr.i.i282, align 8
  store i32 %conv5.i.i312, ptr %199, align 4
  store i32 0, ptr %retval.i.i278, align 4
  br label %_ZN11struct_pack6detail8unpackerINS0_13memory_readerELm3EE30deserialize_fast_varint_helperILm15ELb1ELm2ELm1EiJEEENS_4errcERAT2__cRjRT3_DpRT4_.exit

_ZN11struct_pack6detail8unpackerINS0_13memory_readerELm3EE30deserialize_fast_varint_helperILm15ELb1ELm2ELm1EiJEEENS_4errcERAT2__cRjRT3_DpRT4_.exit: ; preds = %if.end4.i.i311, %if.then3.i.i310, %if.then.i.i303
  %200 = load i32, ptr %retval.i.i278, align 4
  store i32 %200, ptr %ec.i291, align 4
  %201 = load i32, ptr %ec.i291, align 4
  store i32 %201, ptr %retval.i245, align 4
  br label %_ZN11struct_pack6detail8unpackerINS0_13memory_readerELm3EE30deserialize_fast_varint_helperILm15ELb1ELm2ELm1EiJiEEENS_4errcERAT2__cRjRT3_DpRT4_.exit

_ZN11struct_pack6detail8unpackerINS0_13memory_readerELm3EE30deserialize_fast_varint_helperILm15ELb1ELm2ELm1EiJiEEENS_4errcERAT2__cRjRT3_DpRT4_.exit: ; preds = %_ZN11struct_pack6detail8unpackerINS0_13memory_readerELm3EE30deserialize_fast_varint_helperILm15ELb1ELm2ELm1EiJEEENS_4errcERAT2__cRjRT3_DpRT4_.exit, %if.then.i267
  %202 = load i32, ptr %retval.i245, align 4
  store i32 %202, ptr %retval.i198, align 4
  br label %_ZN11struct_pack6detail8unpackerINS0_13memory_readerELm3EE30deserialize_fast_varint_helperILm15ELb1ELm2ELm1EiJiiEEENS_4errcERAT2__cRjRT3_DpRT4_.exit

_ZN11struct_pack6detail8unpackerINS0_13memory_readerELm3EE30deserialize_fast_varint_helperILm15ELb1ELm2ELm1EiJiiEEENS_4errcERAT2__cRjRT3_DpRT4_.exit: ; preds = %_ZN11struct_pack6detail8unpackerINS0_13memory_readerELm3EE30deserialize_fast_varint_helperILm15ELb1ELm2ELm1EiJiEEENS_4errcERAT2__cRjRT3_DpRT4_.exit, %if.then.i220
  %203 = load i32, ptr %retval.i198, align 4
  store i32 %203, ptr %retval.i25, align 4
  br label %_ZN11struct_pack6detail8unpackerINS0_13memory_readerELm3EE30deserialize_fast_varint_helperILm15ELb1ELm2ELm1EiJiiiEEENS_4errcERAT2__cRjRT3_DpRT4_.exit

_ZN11struct_pack6detail8unpackerINS0_13memory_readerELm3EE30deserialize_fast_varint_helperILm15ELb1ELm2ELm1EiJiiiEEENS_4errcERAT2__cRjRT3_DpRT4_.exit: ; preds = %_ZN11struct_pack6detail8unpackerINS0_13memory_readerELm3EE30deserialize_fast_varint_helperILm15ELb1ELm2ELm1EiJiiEEENS_4errcERAT2__cRjRT3_DpRT4_.exit, %if.then.i39
  %204 = load i32, ptr %retval.i25, align 4
  store i32 %204, ptr %ec18.i, align 4
  br label %sw.epilog.i

sw.bb22.i:                                        ; preds = %if.end.i
  %205 = load ptr, ptr %items.addr.i11, align 8
  %206 = load ptr, ptr %items.addr2.i12, align 8
  %207 = load ptr, ptr %items.addr4.i13, align 8
  %208 = load ptr, ptr %items.addr6.i14, align 8
  store ptr %this7.i15, ptr %this.addr.i41, align 8
  store ptr %vec.i, ptr %vec.addr.i42, align 8
  store ptr %i.i, ptr %i.addr.i43, align 8
  store ptr %205, ptr %item.addr.i44, align 8
  store ptr %206, ptr %items.addr.i45, align 8
  store ptr %207, ptr %items.addr2.i46, align 8
  store ptr %208, ptr %items.addr4.i47, align 8
  %this5.i49 = load ptr, ptr %this.addr.i41, align 8
  %209 = load ptr, ptr %vec.addr.i42, align 8
  %210 = load ptr, ptr %i.addr.i43, align 8
  %211 = load ptr, ptr %item.addr.i44, align 8
  store ptr %this5.i49, ptr %this.addr.i314, align 8
  store ptr %209, ptr %vec.addr.i315, align 8
  store ptr %210, ptr %i.addr.i316, align 8
  store ptr %211, ptr %item.addr.i317, align 8
  %this1.i322 = load ptr, ptr %this.addr.i314, align 8
  store i64 4, ptr %real_width.i318, align 8
  %212 = load ptr, ptr %i.addr.i316, align 8
  %213 = load i32, ptr %212, align 4
  %inc.i323 = add i32 %213, 1
  store i32 %inc.i323, ptr %212, align 4
  store i32 %213, ptr %index.i319, align 4
  %214 = load ptr, ptr %vec.addr.i315, align 8
  %215 = load i32, ptr %index.i319, align 4
  %div.i324 = udiv i32 %215, 8
  %idxprom.i325 = zext i32 %div.i324 to i64
  %arrayidx.i326 = getelementptr inbounds [1 x i8], ptr %214, i64 0, i64 %idxprom.i325
  %216 = load i8, ptr %arrayidx.i326, align 1
  %conv.i327 = sext i8 %216 to i32
  %217 = load i32, ptr %index.i319, align 4
  %rem.i328 = urem i32 %217, 8
  %shl.i329 = shl i32 1, %rem.i328
  %and.i330 = and i32 %conv.i327, %shl.i329
  %tobool.i331 = icmp ne i32 %and.i330, 0
  br i1 %tobool.i331, label %if.end.i333, label %if.then.i332

if.then.i332:                                     ; preds = %sw.bb22.i
  store i32 0, ptr %retval.i313, align 4
  br label %_ZN11struct_pack6detail8unpackerINS0_13memory_readerELm3EE27deserialize_one_fast_varintILm15ELb1ELm4ELm1EiEENS_4errcERAT2__cRjRT3_.exit

if.end.i333:                                      ; preds = %sw.bb22.i
  store i8 0, ptr %ec.i320, align 1
  %reader_.i334 = getelementptr inbounds %"class.struct_pack::detail::unpacker", ptr %this1.i322, i32 0, i32 1
  %218 = load ptr, ptr %reader_.i334, align 8
  call void @llvm.experimental.noalias.scope.decl(metadata !50)
  store ptr %218, ptr %reader.addr.i381, align 8, !noalias !50
  store ptr %target.i321, ptr %data.addr.i382, align 8, !noalias !50
  %219 = load ptr, ptr %reader.addr.i381, align 8, !noalias !50
  %220 = load ptr, ptr %data.addr.i382, align 8, !noalias !50
  %call.i383 = call noundef zeroext i1 @_ZN11struct_pack6detail13memory_reader4readEPcm(ptr noundef nonnull align 8 dereferenceable(16) %219, ptr noundef %220, i64 noundef 4)
  %frombool.i336 = zext i1 %call.i383 to i8
  store i8 %frombool.i336, ptr %ec.i320, align 1
  %221 = load i8, ptr %ec.i320, align 1
  %tobool2.i337 = trunc i8 %221 to i1
  br i1 %tobool2.i337, label %if.end4.i339, label %if.then3.i338

if.then3.i338:                                    ; preds = %if.end.i333
  store i32 1, ptr %retval.i313, align 4
  br label %_ZN11struct_pack6detail8unpackerINS0_13memory_readerELm3EE27deserialize_one_fast_varintILm15ELb1ELm4ELm1EiEENS_4errcERAT2__cRjRT3_.exit

if.end4.i339:                                     ; preds = %if.end.i333
  %222 = load i32, ptr %target.i321, align 4
  %223 = load ptr, ptr %item.addr.i317, align 8
  store i32 %222, ptr %223, align 4
  store i32 0, ptr %retval.i313, align 4
  br label %_ZN11struct_pack6detail8unpackerINS0_13memory_readerELm3EE27deserialize_one_fast_varintILm15ELb1ELm4ELm1EiEENS_4errcERAT2__cRjRT3_.exit

_ZN11struct_pack6detail8unpackerINS0_13memory_readerELm3EE27deserialize_one_fast_varintILm15ELb1ELm4ELm1EiEENS_4errcERAT2__cRjRT3_.exit: ; preds = %if.end4.i339, %if.then3.i338, %if.then.i332
  %224 = load i32, ptr %retval.i313, align 4
  store i32 %224, ptr %ec.i48, align 4
  %225 = load i32, ptr %ec.i48, align 4
  %cmp.i51 = icmp ne i32 %225, 0
  br i1 %cmp.i51, label %if.then.i54, label %if.else.i52

if.then.i54:                                      ; preds = %_ZN11struct_pack6detail8unpackerINS0_13memory_readerELm3EE27deserialize_one_fast_varintILm15ELb1ELm4ELm1EiEENS_4errcERAT2__cRjRT3_.exit
  %226 = load i32, ptr %ec.i48, align 4
  store i32 %226, ptr %retval.i40, align 4
  br label %_ZN11struct_pack6detail8unpackerINS0_13memory_readerELm3EE30deserialize_fast_varint_helperILm15ELb1ELm4ELm1EiJiiiEEENS_4errcERAT2__cRjRT3_DpRT4_.exit

if.else.i52:                                      ; preds = %_ZN11struct_pack6detail8unpackerINS0_13memory_readerELm3EE27deserialize_one_fast_varintILm15ELb1ELm4ELm1EiEENS_4errcERAT2__cRjRT3_.exit
  %227 = load ptr, ptr %vec.addr.i42, align 8
  %228 = load ptr, ptr %i.addr.i43, align 8
  %229 = load ptr, ptr %items.addr.i45, align 8
  %230 = load ptr, ptr %items.addr2.i46, align 8
  %231 = load ptr, ptr %items.addr4.i47, align 8
  store ptr %this5.i49, ptr %this.addr.i350, align 8
  store ptr %227, ptr %vec.addr.i351, align 8
  store ptr %228, ptr %i.addr.i352, align 8
  store ptr %229, ptr %item.addr.i353, align 8
  store ptr %230, ptr %items.addr.i354, align 8
  store ptr %231, ptr %items.addr2.i355, align 8
  %this3.i357 = load ptr, ptr %this.addr.i350, align 8
  %232 = load ptr, ptr %vec.addr.i351, align 8
  %233 = load ptr, ptr %i.addr.i352, align 8
  %234 = load ptr, ptr %item.addr.i353, align 8
  store ptr %this3.i357, ptr %this.addr.i.i341, align 8
  store ptr %232, ptr %vec.addr.i.i342, align 8
  store ptr %233, ptr %i.addr.i.i343, align 8
  store ptr %234, ptr %item.addr.i.i344, align 8
  %this1.i.i358 = load ptr, ptr %this.addr.i.i341, align 8
  store i64 4, ptr %real_width.i.i345, align 8
  %235 = load ptr, ptr %i.addr.i.i343, align 8
  %236 = load i32, ptr %235, align 4
  %inc.i.i359 = add i32 %236, 1
  store i32 %inc.i.i359, ptr %235, align 4
  store i32 %236, ptr %index.i.i346, align 4
  %237 = load ptr, ptr %vec.addr.i.i342, align 8
  %238 = load i32, ptr %index.i.i346, align 4
  %div.i.i360 = udiv i32 %238, 8
  %idxprom.i.i361 = zext i32 %div.i.i360 to i64
  %arrayidx.i.i362 = getelementptr inbounds [1 x i8], ptr %237, i64 0, i64 %idxprom.i.i361
  %239 = load i8, ptr %arrayidx.i.i362, align 1
  %conv.i.i363 = sext i8 %239 to i32
  %240 = load i32, ptr %index.i.i346, align 4
  %rem.i.i364 = urem i32 %240, 8
  %shl.i.i365 = shl i32 1, %rem.i.i364
  %and.i.i366 = and i32 %conv.i.i363, %shl.i.i365
  %tobool.i.i367 = icmp ne i32 %and.i.i366, 0
  br i1 %tobool.i.i367, label %if.end.i.i372, label %if.then.i.i368

if.then.i.i368:                                   ; preds = %if.else.i52
  store i32 0, ptr %retval.i.i340, align 4
  br label %_ZN11struct_pack6detail8unpackerINS0_13memory_readerELm3EE27deserialize_one_fast_varintILm15ELb1ELm4ELm1EiEENS_4errcERAT2__cRjRT3_.exit.i

if.end.i.i372:                                    ; preds = %if.else.i52
  store i8 0, ptr %ec.i.i347, align 1
  %reader_.i.i373 = getelementptr inbounds %"class.struct_pack::detail::unpacker", ptr %this1.i.i358, i32 0, i32 1
  %241 = load ptr, ptr %reader_.i.i373, align 8
  call void @llvm.experimental.noalias.scope.decl(metadata !53)
  store ptr %241, ptr %reader.addr.i378, align 8, !noalias !53
  store ptr %target.i.i348, ptr %data.addr.i379, align 8, !noalias !53
  %242 = load ptr, ptr %reader.addr.i378, align 8, !noalias !53
  %243 = load ptr, ptr %data.addr.i379, align 8, !noalias !53
  %call.i380 = call noundef zeroext i1 @_ZN11struct_pack6detail13memory_reader4readEPcm(ptr noundef nonnull align 8 dereferenceable(16) %242, ptr noundef %243, i64 noundef 4)
  %frombool.i.i374 = zext i1 %call.i380 to i8
  store i8 %frombool.i.i374, ptr %ec.i.i347, align 1
  %244 = load i8, ptr %ec.i.i347, align 1
  %tobool2.i.i375 = trunc i8 %244 to i1
  br i1 %tobool2.i.i375, label %if.end4.i.i377, label %if.then3.i.i376

if.then3.i.i376:                                  ; preds = %if.end.i.i372
  store i32 1, ptr %retval.i.i340, align 4
  br label %_ZN11struct_pack6detail8unpackerINS0_13memory_readerELm3EE27deserialize_one_fast_varintILm15ELb1ELm4ELm1EiEENS_4errcERAT2__cRjRT3_.exit.i

if.end4.i.i377:                                   ; preds = %if.end.i.i372
  %245 = load i32, ptr %target.i.i348, align 4
  %246 = load ptr, ptr %item.addr.i.i344, align 8
  store i32 %245, ptr %246, align 4
  store i32 0, ptr %retval.i.i340, align 4
  br label %_ZN11struct_pack6detail8unpackerINS0_13memory_readerELm3EE27deserialize_one_fast_varintILm15ELb1ELm4ELm1EiEENS_4errcERAT2__cRjRT3_.exit.i

_ZN11struct_pack6detail8unpackerINS0_13memory_readerELm3EE27deserialize_one_fast_varintILm15ELb1ELm4ELm1EiEENS_4errcERAT2__cRjRT3_.exit.i: ; preds = %if.end4.i.i377, %if.then3.i.i376, %if.then.i.i368
  %247 = load i32, ptr %retval.i.i340, align 4
  store i32 %247, ptr %ec.i356, align 4
  %248 = load i32, ptr %ec.i356, align 4
  %cmp.i369 = icmp ne i32 %248, 0
  br i1 %cmp.i369, label %if.then.i371, label %if.else.i370

if.then.i371:                                     ; preds = %_ZN11struct_pack6detail8unpackerINS0_13memory_readerELm3EE27deserialize_one_fast_varintILm15ELb1ELm4ELm1EiEENS_4errcERAT2__cRjRT3_.exit.i
  %249 = load i32, ptr %ec.i356, align 4
  store i32 %249, ptr %retval.i349, align 4
  br label %_ZN11struct_pack6detail8unpackerINS0_13memory_readerELm3EE30deserialize_fast_varint_helperILm15ELb1ELm4ELm1EiJiiEEENS_4errcERAT2__cRjRT3_DpRT4_.exit

if.else.i370:                                     ; preds = %_ZN11struct_pack6detail8unpackerINS0_13memory_readerELm3EE27deserialize_one_fast_varintILm15ELb1ELm4ELm1EiEENS_4errcERAT2__cRjRT3_.exit.i
  %250 = load ptr, ptr %vec.addr.i351, align 8
  %251 = load ptr, ptr %i.addr.i352, align 8
  %252 = load ptr, ptr %items.addr.i354, align 8
  %253 = load ptr, ptr %items.addr2.i355, align 8
  store ptr %this3.i357, ptr %this.addr.i396, align 8
  store ptr %250, ptr %vec.addr.i397, align 8
  store ptr %251, ptr %i.addr.i398, align 8
  store ptr %252, ptr %item.addr.i399, align 8
  store ptr %253, ptr %items.addr.i400, align 8
  %this1.i402 = load ptr, ptr %this.addr.i396, align 8
  %254 = load ptr, ptr %vec.addr.i397, align 8
  %255 = load ptr, ptr %i.addr.i398, align 8
  %256 = load ptr, ptr %item.addr.i399, align 8
  store ptr %this1.i402, ptr %this.addr.i.i387, align 8
  store ptr %254, ptr %vec.addr.i.i388, align 8
  store ptr %255, ptr %i.addr.i.i389, align 8
  store ptr %256, ptr %item.addr.i.i390, align 8
  %this1.i.i403 = load ptr, ptr %this.addr.i.i387, align 8
  store i64 4, ptr %real_width.i.i391, align 8
  %257 = load ptr, ptr %i.addr.i.i389, align 8
  %258 = load i32, ptr %257, align 4
  %inc.i.i404 = add i32 %258, 1
  store i32 %inc.i.i404, ptr %257, align 4
  store i32 %258, ptr %index.i.i392, align 4
  %259 = load ptr, ptr %vec.addr.i.i388, align 8
  %260 = load i32, ptr %index.i.i392, align 4
  %div.i.i405 = udiv i32 %260, 8
  %idxprom.i.i406 = zext i32 %div.i.i405 to i64
  %arrayidx.i.i407 = getelementptr inbounds [1 x i8], ptr %259, i64 0, i64 %idxprom.i.i406
  %261 = load i8, ptr %arrayidx.i.i407, align 1
  %conv.i.i408 = sext i8 %261 to i32
  %262 = load i32, ptr %index.i.i392, align 4
  %rem.i.i409 = urem i32 %262, 8
  %shl.i.i410 = shl i32 1, %rem.i.i409
  %and.i.i411 = and i32 %conv.i.i408, %shl.i.i410
  %tobool.i.i412 = icmp ne i32 %and.i.i411, 0
  br i1 %tobool.i.i412, label %if.end.i.i418, label %if.then.i.i413

if.then.i.i413:                                   ; preds = %if.else.i370
  store i32 0, ptr %retval.i.i386, align 4
  br label %_ZN11struct_pack6detail8unpackerINS0_13memory_readerELm3EE27deserialize_one_fast_varintILm15ELb1ELm4ELm1EiEENS_4errcERAT2__cRjRT3_.exit.i414

if.end.i.i418:                                    ; preds = %if.else.i370
  store i8 0, ptr %ec.i.i393, align 1
  %reader_.i.i419 = getelementptr inbounds %"class.struct_pack::detail::unpacker", ptr %this1.i.i403, i32 0, i32 1
  %263 = load ptr, ptr %reader_.i.i419, align 8
  call void @llvm.experimental.noalias.scope.decl(metadata !56)
  store ptr %263, ptr %reader.addr.i.i384, align 8, !noalias !56
  store ptr %target.i.i394, ptr %data.addr.i.i385, align 8, !noalias !56
  %264 = load ptr, ptr %reader.addr.i.i384, align 8, !noalias !56
  %265 = load ptr, ptr %data.addr.i.i385, align 8, !noalias !56
  %call.i3.i420 = call noundef zeroext i1 @_ZN11struct_pack6detail13memory_reader4readEPcm(ptr noundef nonnull align 8 dereferenceable(16) %264, ptr noundef %265, i64 noundef 4)
  %frombool.i.i421 = zext i1 %call.i3.i420 to i8
  store i8 %frombool.i.i421, ptr %ec.i.i393, align 1
  %266 = load i8, ptr %ec.i.i393, align 1
  %tobool2.i.i422 = trunc i8 %266 to i1
  br i1 %tobool2.i.i422, label %if.end4.i.i424, label %if.then3.i.i423

if.then3.i.i423:                                  ; preds = %if.end.i.i418
  store i32 1, ptr %retval.i.i386, align 4
  br label %_ZN11struct_pack6detail8unpackerINS0_13memory_readerELm3EE27deserialize_one_fast_varintILm15ELb1ELm4ELm1EiEENS_4errcERAT2__cRjRT3_.exit.i414

if.end4.i.i424:                                   ; preds = %if.end.i.i418
  %267 = load i32, ptr %target.i.i394, align 4
  %268 = load ptr, ptr %item.addr.i.i390, align 8
  store i32 %267, ptr %268, align 4
  store i32 0, ptr %retval.i.i386, align 4
  br label %_ZN11struct_pack6detail8unpackerINS0_13memory_readerELm3EE27deserialize_one_fast_varintILm15ELb1ELm4ELm1EiEENS_4errcERAT2__cRjRT3_.exit.i414

_ZN11struct_pack6detail8unpackerINS0_13memory_readerELm3EE27deserialize_one_fast_varintILm15ELb1ELm4ELm1EiEENS_4errcERAT2__cRjRT3_.exit.i414: ; preds = %if.end4.i.i424, %if.then3.i.i423, %if.then.i.i413
  %269 = load i32, ptr %retval.i.i386, align 4
  store i32 %269, ptr %ec.i401, align 4
  %270 = load i32, ptr %ec.i401, align 4
  %cmp.i415 = icmp ne i32 %270, 0
  br i1 %cmp.i415, label %if.then.i417, label %if.else.i416

if.then.i417:                                     ; preds = %_ZN11struct_pack6detail8unpackerINS0_13memory_readerELm3EE27deserialize_one_fast_varintILm15ELb1ELm4ELm1EiEENS_4errcERAT2__cRjRT3_.exit.i414
  %271 = load i32, ptr %ec.i401, align 4
  store i32 %271, ptr %retval.i395, align 4
  br label %_ZN11struct_pack6detail8unpackerINS0_13memory_readerELm3EE30deserialize_fast_varint_helperILm15ELb1ELm4ELm1EiJiEEENS_4errcERAT2__cRjRT3_DpRT4_.exit

if.else.i416:                                     ; preds = %_ZN11struct_pack6detail8unpackerINS0_13memory_readerELm3EE27deserialize_one_fast_varintILm15ELb1ELm4ELm1EiEENS_4errcERAT2__cRjRT3_.exit.i414
  %272 = load ptr, ptr %vec.addr.i397, align 8
  %273 = load ptr, ptr %i.addr.i398, align 8
  %274 = load ptr, ptr %items.addr.i400, align 8
  store ptr %this1.i402, ptr %this.addr.i436, align 8
  store ptr %272, ptr %vec.addr.i437, align 8
  store ptr %273, ptr %i.addr.i438, align 8
  store ptr %274, ptr %item.addr.i439, align 8
  %this1.i441 = load ptr, ptr %this.addr.i436, align 8
  %275 = load ptr, ptr %vec.addr.i437, align 8
  %276 = load ptr, ptr %i.addr.i438, align 8
  %277 = load ptr, ptr %item.addr.i439, align 8
  store ptr %this1.i441, ptr %this.addr.i.i428, align 8
  store ptr %275, ptr %vec.addr.i.i429, align 8
  store ptr %276, ptr %i.addr.i.i430, align 8
  store ptr %277, ptr %item.addr.i.i431, align 8
  %this1.i.i442 = load ptr, ptr %this.addr.i.i428, align 8
  store i64 4, ptr %real_width.i.i432, align 8
  %278 = load ptr, ptr %i.addr.i.i430, align 8
  %279 = load i32, ptr %278, align 4
  %inc.i.i443 = add i32 %279, 1
  store i32 %inc.i.i443, ptr %278, align 4
  store i32 %279, ptr %index.i.i433, align 4
  %280 = load ptr, ptr %vec.addr.i.i429, align 8
  %281 = load i32, ptr %index.i.i433, align 4
  %div.i.i444 = udiv i32 %281, 8
  %idxprom.i.i445 = zext i32 %div.i.i444 to i64
  %arrayidx.i.i446 = getelementptr inbounds [1 x i8], ptr %280, i64 0, i64 %idxprom.i.i445
  %282 = load i8, ptr %arrayidx.i.i446, align 1
  %conv.i.i447 = sext i8 %282 to i32
  %283 = load i32, ptr %index.i.i433, align 4
  %rem.i.i448 = urem i32 %283, 8
  %shl.i.i449 = shl i32 1, %rem.i.i448
  %and.i.i450 = and i32 %conv.i.i447, %shl.i.i449
  %tobool.i.i451 = icmp ne i32 %and.i.i450, 0
  br i1 %tobool.i.i451, label %if.end.i.i454, label %if.then.i.i452

if.then.i.i452:                                   ; preds = %if.else.i416
  store i32 0, ptr %retval.i.i427, align 4
  br label %_ZN11struct_pack6detail8unpackerINS0_13memory_readerELm3EE30deserialize_fast_varint_helperILm15ELb1ELm4ELm1EiJEEENS_4errcERAT2__cRjRT3_DpRT4_.exit

if.end.i.i454:                                    ; preds = %if.else.i416
  store i8 0, ptr %ec.i.i434, align 1
  %reader_.i.i455 = getelementptr inbounds %"class.struct_pack::detail::unpacker", ptr %this1.i.i442, i32 0, i32 1
  %284 = load ptr, ptr %reader_.i.i455, align 8
  call void @llvm.experimental.noalias.scope.decl(metadata !59)
  store ptr %284, ptr %reader.addr.i.i425, align 8, !noalias !59
  store ptr %target.i.i435, ptr %data.addr.i.i426, align 8, !noalias !59
  %285 = load ptr, ptr %reader.addr.i.i425, align 8, !noalias !59
  %286 = load ptr, ptr %data.addr.i.i426, align 8, !noalias !59
  %call.i2.i456 = call noundef zeroext i1 @_ZN11struct_pack6detail13memory_reader4readEPcm(ptr noundef nonnull align 8 dereferenceable(16) %285, ptr noundef %286, i64 noundef 4)
  %frombool.i.i457 = zext i1 %call.i2.i456 to i8
  store i8 %frombool.i.i457, ptr %ec.i.i434, align 1
  %287 = load i8, ptr %ec.i.i434, align 1
  %tobool2.i.i458 = trunc i8 %287 to i1
  br i1 %tobool2.i.i458, label %if.end4.i.i460, label %if.then3.i.i459

if.then3.i.i459:                                  ; preds = %if.end.i.i454
  store i32 1, ptr %retval.i.i427, align 4
  br label %_ZN11struct_pack6detail8unpackerINS0_13memory_readerELm3EE30deserialize_fast_varint_helperILm15ELb1ELm4ELm1EiJEEENS_4errcERAT2__cRjRT3_DpRT4_.exit

if.end4.i.i460:                                   ; preds = %if.end.i.i454
  %288 = load i32, ptr %target.i.i435, align 4
  %289 = load ptr, ptr %item.addr.i.i431, align 8
  store i32 %288, ptr %289, align 4
  store i32 0, ptr %retval.i.i427, align 4
  br label %_ZN11struct_pack6detail8unpackerINS0_13memory_readerELm3EE30deserialize_fast_varint_helperILm15ELb1ELm4ELm1EiJEEENS_4errcERAT2__cRjRT3_DpRT4_.exit

_ZN11struct_pack6detail8unpackerINS0_13memory_readerELm3EE30deserialize_fast_varint_helperILm15ELb1ELm4ELm1EiJEEENS_4errcERAT2__cRjRT3_DpRT4_.exit: ; preds = %if.end4.i.i460, %if.then3.i.i459, %if.then.i.i452
  %290 = load i32, ptr %retval.i.i427, align 4
  store i32 %290, ptr %ec.i440, align 4
  %291 = load i32, ptr %ec.i440, align 4
  store i32 %291, ptr %retval.i395, align 4
  br label %_ZN11struct_pack6detail8unpackerINS0_13memory_readerELm3EE30deserialize_fast_varint_helperILm15ELb1ELm4ELm1EiJiEEENS_4errcERAT2__cRjRT3_DpRT4_.exit

_ZN11struct_pack6detail8unpackerINS0_13memory_readerELm3EE30deserialize_fast_varint_helperILm15ELb1ELm4ELm1EiJiEEENS_4errcERAT2__cRjRT3_DpRT4_.exit: ; preds = %_ZN11struct_pack6detail8unpackerINS0_13memory_readerELm3EE30deserialize_fast_varint_helperILm15ELb1ELm4ELm1EiJEEENS_4errcERAT2__cRjRT3_DpRT4_.exit, %if.then.i417
  %292 = load i32, ptr %retval.i395, align 4
  store i32 %292, ptr %retval.i349, align 4
  br label %_ZN11struct_pack6detail8unpackerINS0_13memory_readerELm3EE30deserialize_fast_varint_helperILm15ELb1ELm4ELm1EiJiiEEENS_4errcERAT2__cRjRT3_DpRT4_.exit

_ZN11struct_pack6detail8unpackerINS0_13memory_readerELm3EE30deserialize_fast_varint_helperILm15ELb1ELm4ELm1EiJiiEEENS_4errcERAT2__cRjRT3_DpRT4_.exit: ; preds = %_ZN11struct_pack6detail8unpackerINS0_13memory_readerELm3EE30deserialize_fast_varint_helperILm15ELb1ELm4ELm1EiJiEEENS_4errcERAT2__cRjRT3_DpRT4_.exit, %if.then.i371
  %293 = load i32, ptr %retval.i349, align 4
  store i32 %293, ptr %retval.i40, align 4
  br label %_ZN11struct_pack6detail8unpackerINS0_13memory_readerELm3EE30deserialize_fast_varint_helperILm15ELb1ELm4ELm1EiJiiiEEENS_4errcERAT2__cRjRT3_DpRT4_.exit

_ZN11struct_pack6detail8unpackerINS0_13memory_readerELm3EE30deserialize_fast_varint_helperILm15ELb1ELm4ELm1EiJiiiEEENS_4errcERAT2__cRjRT3_DpRT4_.exit: ; preds = %_ZN11struct_pack6detail8unpackerINS0_13memory_readerELm3EE30deserialize_fast_varint_helperILm15ELb1ELm4ELm1EiJiiEEENS_4errcERAT2__cRjRT3_DpRT4_.exit, %if.then.i54
  %294 = load i32, ptr %retval.i40, align 4
  store i32 %294, ptr %ec18.i, align 4
  br label %sw.epilog.i

sw.bb24.i:                                        ; preds = %if.end.i
  store i32 2, ptr %retval.i, align 4
  br label %_ZN11struct_pack6detail8unpackerINS0_13memory_readerELm3EE23deserialize_fast_varintILm15ELb1EJiiiiEEENS_4errcEDpRT1_.exit

sw.default.i:                                     ; preds = %if.end.i
  call void @_ZN11struct_pack6detail11unreachableEv() #14
  unreachable

sw.epilog.i:                                      ; preds = %_ZN11struct_pack6detail8unpackerINS0_13memory_readerELm3EE30deserialize_fast_varint_helperILm15ELb1ELm4ELm1EiJiiiEEENS_4errcERAT2__cRjRT3_DpRT4_.exit, %_ZN11struct_pack6detail8unpackerINS0_13memory_readerELm3EE30deserialize_fast_varint_helperILm15ELb1ELm2ELm1EiJiiiEEENS_4errcERAT2__cRjRT3_DpRT4_.exit, %_ZN11struct_pack6detail8unpackerINS0_13memory_readerELm3EE30deserialize_fast_varint_helperILm15ELb1ELm1ELm1EiJiiiEEENS_4errcERAT2__cRjRT3_DpRT4_.exit
  %295 = load i32, ptr %ec18.i, align 4
  store i32 %295, ptr %retval.i, align 4
  br label %_ZN11struct_pack6detail8unpackerINS0_13memory_readerELm3EE23deserialize_fast_varintILm15ELb1EJiiiiEEENS_4errcEDpRT1_.exit

_ZN11struct_pack6detail8unpackerINS0_13memory_readerELm3EE23deserialize_fast_varintILm15ELb1EJiiiiEEENS_4errcEDpRT1_.exit: ; preds = %sw.epilog.i, %sw.bb24.i, %if.then.i
  %296 = load i32, ptr %retval.i, align 4
  store i32 %296, ptr %code, align 4
  %297 = load i32, ptr %code, align 4
  %cmp = icmp ne i32 %297, 0
  br i1 %cmp, label %if.then, label %if.end

if.then:                                          ; preds = %_ZN11struct_pack6detail8unpackerINS0_13memory_readerELm3EE23deserialize_fast_varintILm15ELb1EJiiiiEEENS_4errcEDpRT1_.exit
  %298 = load i32, ptr %code, align 4
  store i32 %298, ptr %retval, align 4
  br label %return

if.end:                                           ; preds = %_ZN11struct_pack6detail8unpackerINS0_13memory_readerELm3EE23deserialize_fast_varintILm15ELb1EJiiiiEEENS_4errcEDpRT1_.exit
  %299 = load ptr, ptr %item.addr, align 8
  %300 = getelementptr inbounds %class.anon.0, ptr %ref.tmp2, i32 0, i32 0
  store ptr %this1, ptr %300, align 8
  store ptr %299, ptr %object.addr.i4, align 8
  store ptr %ref.tmp2, ptr %visitor.addr.i5, align 8
  %301 = load ptr, ptr %object.addr.i4, align 8
  %302 = load ptr, ptr %visitor.addr.i5, align 8
  store ptr %301, ptr %object.addr.i461, align 8
  store ptr %302, ptr %visitor.addr.i462, align 8
  store i64 4, ptr %Count.i463, align 8
  %303 = load ptr, ptr %object.addr.i461, align 8
  store ptr %303, ptr %0, align 8
  %304 = load ptr, ptr %visitor.addr.i462, align 8
  %305 = load ptr, ptr %0, align 8
  %306 = load ptr, ptr %0, align 8
  %b.i464 = getelementptr inbounds %struct.rect, ptr %306, i32 0, i32 1
  %307 = load ptr, ptr %0, align 8
  %c.i465 = getelementptr inbounds %struct.rect, ptr %307, i32 0, i32 2
  %308 = load ptr, ptr %0, align 8
  %d.i466 = getelementptr inbounds %struct.rect, ptr %308, i32 0, i32 3
  store ptr %304, ptr %this.addr.i468, align 8
  store ptr %305, ptr %items.addr.i469, align 8
  store ptr %b.i464, ptr %items.addr2.i470, align 8
  store ptr %c.i465, ptr %items.addr4.i471, align 8
  store ptr %d.i466, ptr %items.addr6.i472, align 8
  %this7.i474 = load ptr, ptr %this.addr.i468, align 8
  %309 = load ptr, ptr %this7.i474, align 8
  store i64 15, ptr %tag.i473, align 8
  %310 = load ptr, ptr %items.addr.i469, align 8
  %311 = load ptr, ptr %items.addr2.i470, align 8
  %312 = load ptr, ptr %items.addr4.i471, align 8
  %313 = load ptr, ptr %items.addr6.i472, align 8
  store ptr %309, ptr %this.addr.i477, align 8
  store ptr %310, ptr %first_item.addr.i, align 8
  store ptr %311, ptr %items.addr.i478, align 8
  store ptr %312, ptr %items.addr2.i479, align 8
  store ptr %313, ptr %items.addr4.i480, align 8
  %this5.i481 = load ptr, ptr %this.addr.i477, align 8
  %314 = load ptr, ptr %first_item.addr.i, align 8
  %call.i482 = call noundef i32 @_ZN11struct_pack6detail8unpackerINS0_13memory_readerELm3EE15deserialize_oneILm1ELm18446744073709551615ELb1ELm15EiEENS_4errcERT3_(ptr noundef nonnull align 8 dereferenceable(17) %this5.i481, ptr noundef nonnull align 4 dereferenceable(4) %314)
  store i32 %call.i482, ptr %code.i, align 4
  %315 = load i32, ptr %code.i, align 4
  %cmp.i483 = icmp ne i32 %315, 0
  br i1 %cmp.i483, label %if.then.i485, label %if.end.i484

if.then.i485:                                     ; preds = %if.end
  %316 = load i32, ptr %code.i, align 4
  store i32 %316, ptr %retval.i476, align 4
  br label %_ZN11struct_pack6detail8unpackerINS0_13memory_readerELm3EE16deserialize_manyILm1ELm18446744073709551615ELb1ELm15ERiJS5_S5_S5_EEENS_4errcEOT3_DpOT4_.exit

if.end.i484:                                      ; preds = %if.end
  %317 = load ptr, ptr %items.addr.i478, align 8
  %318 = load ptr, ptr %items.addr2.i479, align 8
  %319 = load ptr, ptr %items.addr4.i480, align 8
  store ptr %this5.i481, ptr %this.addr.i487, align 8
  store ptr %317, ptr %first_item.addr.i488, align 8
  store ptr %318, ptr %items.addr.i489, align 8
  store ptr %319, ptr %items.addr2.i490, align 8
  %this3.i492 = load ptr, ptr %this.addr.i487, align 8
  %320 = load ptr, ptr %first_item.addr.i488, align 8
  %call.i493 = call noundef i32 @_ZN11struct_pack6detail8unpackerINS0_13memory_readerELm3EE15deserialize_oneILm1ELm18446744073709551615ELb1ELm15EiEENS_4errcERT3_(ptr noundef nonnull align 8 dereferenceable(17) %this3.i492, ptr noundef nonnull align 4 dereferenceable(4) %320)
  store i32 %call.i493, ptr %code.i491, align 4
  %321 = load i32, ptr %code.i491, align 4
  %cmp.i494 = icmp ne i32 %321, 0
  br i1 %cmp.i494, label %if.then.i496, label %if.end.i495

if.then.i496:                                     ; preds = %if.end.i484
  %322 = load i32, ptr %code.i491, align 4
  store i32 %322, ptr %retval.i486, align 4
  br label %_ZN11struct_pack6detail8unpackerINS0_13memory_readerELm3EE16deserialize_manyILm1ELm18446744073709551615ELb1ELm15ERiJS5_S5_EEENS_4errcEOT3_DpOT4_.exit

if.end.i495:                                      ; preds = %if.end.i484
  %323 = load ptr, ptr %items.addr.i489, align 8
  %324 = load ptr, ptr %items.addr2.i490, align 8
  store ptr %this3.i492, ptr %this.addr.i498, align 8
  store ptr %323, ptr %first_item.addr.i499, align 8
  store ptr %324, ptr %items.addr.i500, align 8
  %this1.i502 = load ptr, ptr %this.addr.i498, align 8
  %325 = load ptr, ptr %first_item.addr.i499, align 8
  %call.i503 = call noundef i32 @_ZN11struct_pack6detail8unpackerINS0_13memory_readerELm3EE15deserialize_oneILm1ELm18446744073709551615ELb1ELm15EiEENS_4errcERT3_(ptr noundef nonnull align 8 dereferenceable(17) %this1.i502, ptr noundef nonnull align 4 dereferenceable(4) %325)
  store i32 %call.i503, ptr %code.i501, align 4
  %326 = load i32, ptr %code.i501, align 4
  %cmp.i504 = icmp ne i32 %326, 0
  br i1 %cmp.i504, label %if.then.i506, label %if.end.i505

if.then.i506:                                     ; preds = %if.end.i495
  %327 = load i32, ptr %code.i501, align 4
  store i32 %327, ptr %retval.i497, align 4
  br label %_ZN11struct_pack6detail8unpackerINS0_13memory_readerELm3EE16deserialize_manyILm1ELm18446744073709551615ELb1ELm15ERiJS5_EEENS_4errcEOT3_DpOT4_.exit

if.end.i505:                                      ; preds = %if.end.i495
  %328 = load ptr, ptr %items.addr.i500, align 8
  store ptr %this1.i502, ptr %this.addr.i508, align 8
  store ptr %328, ptr %first_item.addr.i509, align 8
  %this1.i511 = load ptr, ptr %this.addr.i508, align 8
  %329 = load ptr, ptr %first_item.addr.i509, align 8
  %call.i512 = call noundef i32 @_ZN11struct_pack6detail8unpackerINS0_13memory_readerELm3EE15deserialize_oneILm1ELm18446744073709551615ELb1ELm15EiEENS_4errcERT3_(ptr noundef nonnull align 8 dereferenceable(17) %this1.i511, ptr noundef nonnull align 4 dereferenceable(4) %329)
  store i32 %call.i512, ptr %code.i510, align 4
  %330 = load i32, ptr %code.i510, align 4
  %cmp.i513 = icmp ne i32 %330, 0
  br i1 %cmp.i513, label %if.then.i515, label %if.end.i514

if.then.i515:                                     ; preds = %if.end.i505
  %331 = load i32, ptr %code.i510, align 4
  store i32 %331, ptr %retval.i507, align 4
  br label %_ZN11struct_pack6detail8unpackerINS0_13memory_readerELm3EE16deserialize_manyILm1ELm18446744073709551615ELb1ELm15ERiJEEENS_4errcEOT3_DpOT4_.exit

if.end.i514:                                      ; preds = %if.end.i505
  %332 = load i32, ptr %code.i510, align 4
  store i32 %332, ptr %retval.i507, align 4
  br label %_ZN11struct_pack6detail8unpackerINS0_13memory_readerELm3EE16deserialize_manyILm1ELm18446744073709551615ELb1ELm15ERiJEEENS_4errcEOT3_DpOT4_.exit

_ZN11struct_pack6detail8unpackerINS0_13memory_readerELm3EE16deserialize_manyILm1ELm18446744073709551615ELb1ELm15ERiJEEENS_4errcEOT3_DpOT4_.exit: ; preds = %if.end.i514, %if.then.i515
  %333 = load i32, ptr %retval.i507, align 4
  store i32 %333, ptr %retval.i497, align 4
  br label %_ZN11struct_pack6detail8unpackerINS0_13memory_readerELm3EE16deserialize_manyILm1ELm18446744073709551615ELb1ELm15ERiJS5_EEENS_4errcEOT3_DpOT4_.exit

_ZN11struct_pack6detail8unpackerINS0_13memory_readerELm3EE16deserialize_manyILm1ELm18446744073709551615ELb1ELm15ERiJS5_EEENS_4errcEOT3_DpOT4_.exit: ; preds = %_ZN11struct_pack6detail8unpackerINS0_13memory_readerELm3EE16deserialize_manyILm1ELm18446744073709551615ELb1ELm15ERiJEEENS_4errcEOT3_DpOT4_.exit, %if.then.i506
  %334 = load i32, ptr %retval.i497, align 4
  store i32 %334, ptr %retval.i486, align 4
  br label %_ZN11struct_pack6detail8unpackerINS0_13memory_readerELm3EE16deserialize_manyILm1ELm18446744073709551615ELb1ELm15ERiJS5_S5_EEENS_4errcEOT3_DpOT4_.exit

_ZN11struct_pack6detail8unpackerINS0_13memory_readerELm3EE16deserialize_manyILm1ELm18446744073709551615ELb1ELm15ERiJS5_S5_EEENS_4errcEOT3_DpOT4_.exit: ; preds = %_ZN11struct_pack6detail8unpackerINS0_13memory_readerELm3EE16deserialize_manyILm1ELm18446744073709551615ELb1ELm15ERiJS5_EEENS_4errcEOT3_DpOT4_.exit, %if.then.i496
  %335 = load i32, ptr %retval.i486, align 4
  store i32 %335, ptr %retval.i476, align 4
  br label %_ZN11struct_pack6detail8unpackerINS0_13memory_readerELm3EE16deserialize_manyILm1ELm18446744073709551615ELb1ELm15ERiJS5_S5_S5_EEENS_4errcEOT3_DpOT4_.exit

_ZN11struct_pack6detail8unpackerINS0_13memory_readerELm3EE16deserialize_manyILm1ELm18446744073709551615ELb1ELm15ERiJS5_S5_S5_EEENS_4errcEOT3_DpOT4_.exit: ; preds = %_ZN11struct_pack6detail8unpackerINS0_13memory_readerELm3EE16deserialize_manyILm1ELm18446744073709551615ELb1ELm15ERiJS5_S5_EEENS_4errcEOT3_DpOT4_.exit, %if.then.i485
  %336 = load i32, ptr %retval.i476, align 4
  store i32 %336, ptr %code, align 4
  %337 = load i32, ptr %code, align 4
  store i32 %337, ptr %retval, align 4
  br label %return

return:                                           ; preds = %_ZN11struct_pack6detail8unpackerINS0_13memory_readerELm3EE16deserialize_manyILm1ELm18446744073709551615ELb1ELm15ERiJS5_S5_S5_EEENS_4errcEOT3_DpOT4_.exit, %if.then
  %338 = load i32, ptr %retval, align 4
  ret i32 %338
}

; Function Attrs: mustprogress nounwind uwtable
define linkonce_odr dso_local noundef zeroext i1 @_ZN11struct_pack6detail13memory_reader4readEPcm(ptr noundef nonnull align 8 dereferenceable(16) %this, ptr noundef %target, i64 noundef %len) #2 comdat align 2 {
entry:
  %retval = alloca i1, align 1
  %this.addr = alloca ptr, align 8
  %target.addr = alloca ptr, align 8
  %len.addr = alloca i64, align 8
  store ptr %this, ptr %this.addr, align 8
  store ptr %target, ptr %target.addr, align 8
  store i64 %len, ptr %len.addr, align 8
  %this1 = load ptr, ptr %this.addr, align 8
  %end = getelementptr inbounds %"struct.struct_pack::detail::memory_reader", ptr %this1, i32 0, i32 1
  %0 = load ptr, ptr %end, align 8
  %now = getelementptr inbounds %"struct.struct_pack::detail::memory_reader", ptr %this1, i32 0, i32 0
  %1 = load ptr, ptr %now, align 8
  %sub.ptr.lhs.cast = ptrtoint ptr %0 to i64
  %sub.ptr.rhs.cast = ptrtoint ptr %1 to i64
  %sub.ptr.sub = sub i64 %sub.ptr.lhs.cast, %sub.ptr.rhs.cast
  %2 = load i64, ptr %len.addr, align 8
  %cmp = icmp ult i64 %sub.ptr.sub, %2
  br i1 %cmp, label %if.then, label %if.end

if.then:                                          ; preds = %entry
  store i1 false, ptr %retval, align 1
  br label %return

if.end:                                           ; preds = %entry
  %3 = load ptr, ptr %target.addr, align 8
  %now2 = getelementptr inbounds %"struct.struct_pack::detail::memory_reader", ptr %this1, i32 0, i32 0
  %4 = load ptr, ptr %now2, align 8
  %5 = load i64, ptr %len.addr, align 8
  call void @llvm.memcpy.p0.p0.i64(ptr align 1 %3, ptr align 1 %4, i64 %5, i1 false)
  %6 = load i64, ptr %len.addr, align 8
  %now3 = getelementptr inbounds %"struct.struct_pack::detail::memory_reader", ptr %this1, i32 0, i32 0
  %7 = load ptr, ptr %now3, align 8
  %add.ptr = getelementptr inbounds i8, ptr %7, i64 %6
  store ptr %add.ptr, ptr %now3, align 8
  store i1 true, ptr %retval, align 1
  br label %return

return:                                           ; preds = %if.end, %if.then
  %8 = load i1, ptr %retval, align 1
  ret i1 %8
}

; Function Attrs: mustprogress nounwind uwtable
define linkonce_odr dso_local noundef i32 @_ZN11struct_pack6detail8unpackerINS0_13memory_readerELm3EE15deserialize_oneILm1ELm18446744073709551615ELb1ELm15EiEENS_4errcERT3_(ptr noundef nonnull align 8 dereferenceable(17) %this, ptr noundef nonnull align 4 dereferenceable(4) %item) #2 comdat align 2 {
entry:
  %this.addr = alloca ptr, align 8
  %item.addr = alloca ptr, align 8
  %code = alloca i32, align 4
  %id = alloca i32, align 4
  store ptr %this, ptr %this.addr, align 8
  store ptr %item, ptr %item.addr, align 8
  store i32 0, ptr %code, align 4
  store i32 24, ptr %id, align 4
  %0 = load i32, ptr %code, align 4
  ret i32 %0
}

; Function Attrs: mustprogress uwtable
define linkonce_odr dso_local noundef i32 @_ZN11struct_pack6detail8unpackerINS0_13memory_readerELm3EE15deserialize_oneILm2ELm18446744073709551615ELb1ELm0E4rectEENS_4errcERT3_(ptr noundef nonnull align 8 dereferenceable(17) %this, ptr noundef nonnull align 4 dereferenceable(16) %item) #0 comdat align 2 {
entry:
  %retval.i47 = alloca i32, align 4
  %this.addr.i48 = alloca ptr, align 8
  %first_item.addr.i49 = alloca ptr, align 8
  %code.i50 = alloca i32, align 4
  %retval.i38 = alloca i32, align 4
  %this.addr.i39 = alloca ptr, align 8
  %first_item.addr.i40 = alloca ptr, align 8
  %items.addr.i41 = alloca ptr, align 8
  %code.i42 = alloca i32, align 4
  %retval.i28 = alloca i32, align 4
  %this.addr.i29 = alloca ptr, align 8
  %first_item.addr.i30 = alloca ptr, align 8
  %items.addr.i31 = alloca ptr, align 8
  %items.addr2.i32 = alloca ptr, align 8
  %code.i33 = alloca i32, align 4
  %retval.i = alloca i32, align 4
  %this.addr.i24 = alloca ptr, align 8
  %first_item.addr.i = alloca ptr, align 8
  %items.addr.i25 = alloca ptr, align 8
  %items.addr2.i26 = alloca ptr, align 8
  %items.addr4.i27 = alloca ptr, align 8
  %code.i = alloca i32, align 4
  %this.addr.i16 = alloca ptr, align 8
  %items.addr.i17 = alloca ptr, align 8
  %items.addr2.i18 = alloca ptr, align 8
  %items.addr4.i19 = alloca ptr, align 8
  %items.addr6.i20 = alloca ptr, align 8
  %tag.i21 = alloca i64, align 8
  %object.addr.i10 = alloca ptr, align 8
  %visitor.addr.i11 = alloca ptr, align 8
  %Count.i12 = alloca i64, align 8
  %0 = alloca ptr, align 8
  %reader.addr.i.i415.i = alloca ptr, align 8
  %data.addr.i.i416.i = alloca ptr, align 8
  %retval.i.i417.i = alloca i32, align 4
  %this.addr.i.i418.i = alloca ptr, align 8
  %vec.addr.i.i419.i = alloca ptr, align 8
  %i.addr.i.i420.i = alloca ptr, align 8
  %item.addr.i.i421.i = alloca ptr, align 8
  %real_width.i.i422.i = alloca i64, align 8
  %index.i.i423.i = alloca i32, align 4
  %ec.i.i424.i = alloca i8, align 1
  %target.i.i425.i = alloca i32, align 4
  %this.addr.i426.i = alloca ptr, align 8
  %vec.addr.i427.i = alloca ptr, align 8
  %i.addr.i428.i = alloca ptr, align 8
  %item.addr.i429.i = alloca ptr, align 8
  %ec.i430.i = alloca i32, align 4
  %reader.addr.i.i374.i = alloca ptr, align 8
  %data.addr.i.i375.i = alloca ptr, align 8
  %retval.i.i376.i = alloca i32, align 4
  %this.addr.i.i377.i = alloca ptr, align 8
  %vec.addr.i.i378.i = alloca ptr, align 8
  %i.addr.i.i379.i = alloca ptr, align 8
  %item.addr.i.i380.i = alloca ptr, align 8
  %real_width.i.i381.i = alloca i64, align 8
  %index.i.i382.i = alloca i32, align 4
  %ec.i.i383.i = alloca i8, align 1
  %target.i.i384.i = alloca i32, align 4
  %retval.i385.i = alloca i32, align 4
  %this.addr.i386.i = alloca ptr, align 8
  %vec.addr.i387.i = alloca ptr, align 8
  %i.addr.i388.i = alloca ptr, align 8
  %item.addr.i389.i = alloca ptr, align 8
  %items.addr.i390.i = alloca ptr, align 8
  %ec.i391.i = alloca i32, align 4
  %reader.addr.i371.i = alloca ptr, align 8
  %data.addr.i372.i = alloca ptr, align 8
  %reader.addr.i368.i = alloca ptr, align 8
  %data.addr.i369.i = alloca ptr, align 8
  %retval.i.i330.i = alloca i32, align 4
  %this.addr.i.i331.i = alloca ptr, align 8
  %vec.addr.i.i332.i = alloca ptr, align 8
  %i.addr.i.i333.i = alloca ptr, align 8
  %item.addr.i.i334.i = alloca ptr, align 8
  %real_width.i.i335.i = alloca i64, align 8
  %index.i.i336.i = alloca i32, align 4
  %ec.i.i337.i = alloca i8, align 1
  %target.i.i338.i = alloca i32, align 4
  %retval.i339.i = alloca i32, align 4
  %this.addr.i340.i = alloca ptr, align 8
  %vec.addr.i341.i = alloca ptr, align 8
  %i.addr.i342.i = alloca ptr, align 8
  %item.addr.i343.i = alloca ptr, align 8
  %items.addr.i344.i = alloca ptr, align 8
  %items.addr2.i345.i = alloca ptr, align 8
  %ec.i346.i = alloca i32, align 4
  %retval.i303.i = alloca i32, align 4
  %this.addr.i304.i = alloca ptr, align 8
  %vec.addr.i305.i = alloca ptr, align 8
  %i.addr.i306.i = alloca ptr, align 8
  %item.addr.i307.i = alloca ptr, align 8
  %real_width.i308.i = alloca i64, align 8
  %index.i309.i = alloca i32, align 4
  %ec.i310.i = alloca i8, align 1
  %target.i311.i = alloca i32, align 4
  %reader.addr.i.i266.i = alloca ptr, align 8
  %data.addr.i.i267.i = alloca ptr, align 8
  %retval.i.i268.i = alloca i32, align 4
  %this.addr.i.i269.i = alloca ptr, align 8
  %vec.addr.i.i270.i = alloca ptr, align 8
  %i.addr.i.i271.i = alloca ptr, align 8
  %item.addr.i.i272.i = alloca ptr, align 8
  %real_width.i.i273.i = alloca i64, align 8
  %index.i.i274.i = alloca i32, align 4
  %ec.i.i275.i = alloca i8, align 1
  %target.i.i276.i = alloca i16, align 2
  %this.addr.i277.i = alloca ptr, align 8
  %vec.addr.i278.i = alloca ptr, align 8
  %i.addr.i279.i = alloca ptr, align 8
  %item.addr.i280.i = alloca ptr, align 8
  %ec.i281.i = alloca i32, align 4
  %reader.addr.i.i224.i = alloca ptr, align 8
  %data.addr.i.i225.i = alloca ptr, align 8
  %retval.i.i226.i = alloca i32, align 4
  %this.addr.i.i227.i = alloca ptr, align 8
  %vec.addr.i.i228.i = alloca ptr, align 8
  %i.addr.i.i229.i = alloca ptr, align 8
  %item.addr.i.i230.i = alloca ptr, align 8
  %real_width.i.i231.i = alloca i64, align 8
  %index.i.i232.i = alloca i32, align 4
  %ec.i.i233.i = alloca i8, align 1
  %target.i.i234.i = alloca i16, align 2
  %retval.i235.i = alloca i32, align 4
  %this.addr.i236.i = alloca ptr, align 8
  %vec.addr.i237.i = alloca ptr, align 8
  %i.addr.i238.i = alloca ptr, align 8
  %item.addr.i239.i = alloca ptr, align 8
  %items.addr.i240.i = alloca ptr, align 8
  %ec.i241.i = alloca i32, align 4
  %reader.addr.i221.i = alloca ptr, align 8
  %data.addr.i222.i = alloca ptr, align 8
  %reader.addr.i218.i = alloca ptr, align 8
  %data.addr.i219.i = alloca ptr, align 8
  %retval.i.i179.i = alloca i32, align 4
  %this.addr.i.i180.i = alloca ptr, align 8
  %vec.addr.i.i181.i = alloca ptr, align 8
  %i.addr.i.i182.i = alloca ptr, align 8
  %item.addr.i.i183.i = alloca ptr, align 8
  %real_width.i.i184.i = alloca i64, align 8
  %index.i.i185.i = alloca i32, align 4
  %ec.i.i186.i = alloca i8, align 1
  %target.i.i187.i = alloca i16, align 2
  %retval.i188.i = alloca i32, align 4
  %this.addr.i189.i = alloca ptr, align 8
  %vec.addr.i190.i = alloca ptr, align 8
  %i.addr.i191.i = alloca ptr, align 8
  %item.addr.i192.i = alloca ptr, align 8
  %items.addr.i193.i = alloca ptr, align 8
  %items.addr2.i194.i = alloca ptr, align 8
  %ec.i195.i = alloca i32, align 4
  %retval.i151.i = alloca i32, align 4
  %this.addr.i152.i = alloca ptr, align 8
  %vec.addr.i153.i = alloca ptr, align 8
  %i.addr.i154.i = alloca ptr, align 8
  %item.addr.i155.i = alloca ptr, align 8
  %real_width.i156.i = alloca i64, align 8
  %index.i157.i = alloca i32, align 4
  %ec.i158.i = alloca i8, align 1
  %target.i159.i = alloca i16, align 2
  %reader.addr.i.i115.i = alloca ptr, align 8
  %data.addr.i.i116.i = alloca ptr, align 8
  %retval.i.i117.i = alloca i32, align 4
  %this.addr.i.i118.i = alloca ptr, align 8
  %vec.addr.i.i119.i = alloca ptr, align 8
  %i.addr.i.i120.i = alloca ptr, align 8
  %item.addr.i.i121.i = alloca ptr, align 8
  %real_width.i.i122.i = alloca i64, align 8
  %index.i.i123.i = alloca i32, align 4
  %ec.i.i124.i = alloca i8, align 1
  %target.i.i125.i = alloca i8, align 1
  %this.addr.i126.i = alloca ptr, align 8
  %vec.addr.i127.i = alloca ptr, align 8
  %i.addr.i128.i = alloca ptr, align 8
  %item.addr.i129.i = alloca ptr, align 8
  %ec.i130.i = alloca i32, align 4
  %reader.addr.i.i.i = alloca ptr, align 8
  %data.addr.i.i.i = alloca ptr, align 8
  %retval.i.i76.i = alloca i32, align 4
  %this.addr.i.i77.i = alloca ptr, align 8
  %vec.addr.i.i78.i = alloca ptr, align 8
  %i.addr.i.i79.i = alloca ptr, align 8
  %item.addr.i.i80.i = alloca ptr, align 8
  %real_width.i.i81.i = alloca i64, align 8
  %index.i.i82.i = alloca i32, align 4
  %ec.i.i83.i = alloca i8, align 1
  %target.i.i84.i = alloca i8, align 1
  %retval.i85.i = alloca i32, align 4
  %this.addr.i86.i = alloca ptr, align 8
  %vec.addr.i87.i = alloca ptr, align 8
  %i.addr.i88.i = alloca ptr, align 8
  %item.addr.i89.i = alloca ptr, align 8
  %items.addr.i90.i = alloca ptr, align 8
  %ec.i91.i = alloca i32, align 4
  %reader.addr.i73.i = alloca ptr, align 8
  %data.addr.i74.i = alloca ptr, align 8
  %reader.addr.i71.i = alloca ptr, align 8
  %data.addr.i72.i = alloca ptr, align 8
  %retval.i.i.i = alloca i32, align 4
  %this.addr.i.i.i = alloca ptr, align 8
  %vec.addr.i.i.i = alloca ptr, align 8
  %i.addr.i.i.i = alloca ptr, align 8
  %item.addr.i.i.i = alloca ptr, align 8
  %real_width.i.i.i = alloca i64, align 8
  %index.i.i.i = alloca i32, align 4
  %ec.i.i.i = alloca i8, align 1
  %target.i.i.i = alloca i8, align 1
  %retval.i60.i = alloca i32, align 4
  %this.addr.i61.i = alloca ptr, align 8
  %vec.addr.i62.i = alloca ptr, align 8
  %i.addr.i63.i = alloca ptr, align 8
  %item.addr.i64.i = alloca ptr, align 8
  %items.addr.i65.i = alloca ptr, align 8
  %items.addr2.i66.i = alloca ptr, align 8
  %ec.i67.i = alloca i32, align 4
  %retval.i46.i = alloca i32, align 4
  %this.addr.i47.i = alloca ptr, align 8
  %vec.addr.i48.i = alloca ptr, align 8
  %i.addr.i49.i = alloca ptr, align 8
  %item.addr.i50.i = alloca ptr, align 8
  %real_width.i.i = alloca i64, align 8
  %index.i.i = alloca i32, align 4
  %ec.i51.i = alloca i8, align 1
  %target.i.i = alloca i8, align 1
  %retval.i31.i = alloca i32, align 4
  %this.addr.i32.i = alloca ptr, align 8
  %vec.addr.i33.i = alloca ptr, align 8
  %i.addr.i34.i = alloca ptr, align 8
  %item.addr.i35.i = alloca ptr, align 8
  %items.addr.i36.i = alloca ptr, align 8
  %items.addr2.i37.i = alloca ptr, align 8
  %items.addr4.i38.i = alloca ptr, align 8
  %ec.i39.i = alloca i32, align 4
  %retval.i16.i = alloca i32, align 4
  %this.addr.i17.i = alloca ptr, align 8
  %vec.addr.i18.i = alloca ptr, align 8
  %i.addr.i19.i = alloca ptr, align 8
  %item.addr.i20.i = alloca ptr, align 8
  %items.addr.i21.i = alloca ptr, align 8
  %items.addr2.i22.i = alloca ptr, align 8
  %items.addr4.i23.i = alloca ptr, align 8
  %ec.i24.i = alloca i32, align 4
  %retval.i9.i = alloca i32, align 4
  %this.addr.i10.i = alloca ptr, align 8
  %vec.addr.i.i = alloca ptr, align 8
  %i.addr.i.i = alloca ptr, align 8
  %item.addr.i.i = alloca ptr, align 8
  %items.addr.i11.i = alloca ptr, align 8
  %items.addr2.i12.i = alloca ptr, align 8
  %items.addr4.i13.i = alloca ptr, align 8
  %ec.i14.i = alloca i32, align 4
  %reader.addr.i.i = alloca ptr, align 8
  %data.addr.i.i = alloca ptr, align 8
  %length.addr.i.i = alloca i64, align 8
  %retval.i.i = alloca i32, align 4
  %this.addr.i.i = alloca ptr, align 8
  %items.addr.i.i = alloca ptr, align 8
  %items.addr2.i.i = alloca ptr, align 8
  %items.addr4.i.i = alloca ptr, align 8
  %items.addr6.i.i = alloca ptr, align 8
  %cnt.i.i = alloca i64, align 8
  %bitset_size.i.i = alloca i64, align 8
  %vec.i.i = alloca [1 x i8], align 1
  %ec.i.i = alloca i8, align 1
  %width.i.i = alloca i32, align 4
  %i.i.i = alloca i32, align 4
  %ec18.i.i = alloca i32, align 4
  %this.addr.i = alloca ptr, align 8
  %items.addr.i = alloca ptr, align 8
  %items.addr2.i = alloca ptr, align 8
  %items.addr4.i = alloca ptr, align 8
  %items.addr6.i = alloca ptr, align 8
  %tag.i = alloca i64, align 8
  %object.addr.i7 = alloca ptr, align 8
  %visitor.addr.i8 = alloca ptr, align 8
  %Count.i = alloca i64, align 8
  %1 = alloca ptr, align 8
  %object.addr.i4 = alloca ptr, align 8
  %visitor.addr.i5 = alloca ptr, align 8
  %object.addr.i = alloca ptr, align 8
  %visitor.addr.i = alloca ptr, align 8
  %retval = alloca i32, align 4
  %this.addr = alloca ptr, align 8
  %item.addr = alloca ptr, align 8
  %code = alloca i32, align 4
  %id = alloca i32, align 4
  %tag = alloca i64, align 8
  %ref.tmp = alloca %class.anon.1, align 8
  %ref.tmp2 = alloca %class.anon.2, align 8
  store ptr %this, ptr %this.addr, align 8
  store ptr %item, ptr %item.addr, align 8
  %this1 = load ptr, ptr %this.addr, align 8
  store i32 0, ptr %code, align 4
  store i32 253, ptr %id, align 4
  store i64 15, ptr %tag, align 8
  %2 = load ptr, ptr %item.addr, align 8
  %3 = getelementptr inbounds %class.anon.1, ptr %ref.tmp, i32 0, i32 0
  store ptr %this1, ptr %3, align 8
  store ptr %2, ptr %object.addr.i, align 8
  store ptr %ref.tmp, ptr %visitor.addr.i, align 8
  %4 = load ptr, ptr %object.addr.i, align 8
  %5 = load ptr, ptr %visitor.addr.i, align 8
  store ptr %4, ptr %object.addr.i7, align 8
  store ptr %5, ptr %visitor.addr.i8, align 8
  store i64 4, ptr %Count.i, align 8
  %6 = load ptr, ptr %object.addr.i7, align 8
  store ptr %6, ptr %1, align 8
  %7 = load ptr, ptr %visitor.addr.i8, align 8
  %8 = load ptr, ptr %1, align 8
  %9 = load ptr, ptr %1, align 8
  %b.i = getelementptr inbounds %struct.rect, ptr %9, i32 0, i32 1
  %10 = load ptr, ptr %1, align 8
  %c.i = getelementptr inbounds %struct.rect, ptr %10, i32 0, i32 2
  %11 = load ptr, ptr %1, align 8
  %d.i = getelementptr inbounds %struct.rect, ptr %11, i32 0, i32 3
  store ptr %7, ptr %this.addr.i, align 8
  store ptr %8, ptr %items.addr.i, align 8
  store ptr %b.i, ptr %items.addr2.i, align 8
  store ptr %c.i, ptr %items.addr4.i, align 8
  store ptr %d.i, ptr %items.addr6.i, align 8
  %this7.i = load ptr, ptr %this.addr.i, align 8
  %12 = load ptr, ptr %this7.i, align 8
  store i64 15, ptr %tag.i, align 8
  %13 = load ptr, ptr %items.addr.i, align 8
  %14 = load ptr, ptr %items.addr2.i, align 8
  %15 = load ptr, ptr %items.addr4.i, align 8
  %16 = load ptr, ptr %items.addr6.i, align 8
  store ptr %12, ptr %this.addr.i.i, align 8
  store ptr %13, ptr %items.addr.i.i, align 8
  store ptr %14, ptr %items.addr2.i.i, align 8
  store ptr %15, ptr %items.addr4.i.i, align 8
  store ptr %16, ptr %items.addr6.i.i, align 8
  %this7.i.i = load ptr, ptr %this.addr.i.i, align 8
  store i64 4, ptr %cnt.i.i, align 8
  store i64 1, ptr %bitset_size.i.i, align 8
  %reader_.i.i = getelementptr inbounds %"class.struct_pack::detail::unpacker", ptr %this7.i.i, i32 0, i32 1
  %17 = load ptr, ptr %reader_.i.i, align 8
  call void @llvm.experimental.noalias.scope.decl(metadata !62)
  store ptr %17, ptr %reader.addr.i.i, align 8, !noalias !62
  store ptr %vec.i.i, ptr %data.addr.i.i, align 8, !noalias !62
  store i64 1, ptr %length.addr.i.i, align 8, !noalias !62
  %18 = load ptr, ptr %reader.addr.i.i, align 8, !noalias !62
  %19 = load ptr, ptr %data.addr.i.i, align 8, !noalias !62
  %20 = load i64, ptr %length.addr.i.i, align 8, !noalias !62
  %call.i8.i = call noundef zeroext i1 @_ZN11struct_pack6detail13memory_reader4readEPcm(ptr noundef nonnull align 8 dereferenceable(16) %18, ptr noundef %19, i64 noundef %20)
  %frombool.i.i = zext i1 %call.i8.i to i8
  store i8 %frombool.i.i, ptr %ec.i.i, align 1
  %21 = load i8, ptr %ec.i.i, align 1
  %tobool.i.i = trunc i8 %21 to i1
  br i1 %tobool.i.i, label %if.end.i.i, label %if.then.i.i

if.then.i.i:                                      ; preds = %entry
  store i32 1, ptr %retval.i.i, align 4
  br label %_ZZN11struct_pack6detail8unpackerINS0_13memory_readerELm3EE15deserialize_oneILm2ELm18446744073709551615ELb1ELm0E4rectEENS_4errcERT3_ENKUlDpOT_E_clIJRiSE_SE_SE_EEEDaSB_.exit

if.end.i.i:                                       ; preds = %entry
  %22 = load i8, ptr %vec.i.i, align 1
  %conv.i.i = sext i8 %22 to i32
  %and.i.i = and i32 %conv.i.i, 16
  %tobool8.i.i = icmp ne i32 %and.i.i, 0
  %conv10.i.i = zext i1 %tobool8.i.i to i32
  %23 = load i8, ptr %vec.i.i, align 1
  %conv12.i.i = sext i8 %23 to i32
  %and13.i.i = and i32 %conv12.i.i, 32
  %tobool14.i.i = icmp ne i32 %and13.i.i, 0
  %conv17.i.i = zext i1 %tobool14.i.i to i32
  %mul.i.i = mul nsw i32 %conv17.i.i, 2
  %add.i.i = add nsw i32 %conv10.i.i, %mul.i.i
  store i32 %add.i.i, ptr %width.i.i, align 4
  store i32 0, ptr %i.i.i, align 4
  store i32 0, ptr %ec18.i.i, align 4
  %24 = load i32, ptr %width.i.i, align 4
  switch i32 %24, label %sw.default.i.i [
    i32 0, label %sw.bb.i.i
    i32 1, label %sw.bb20.i.i
    i32 2, label %sw.bb22.i.i
    i32 3, label %sw.bb24.i.i
  ]

sw.bb.i.i:                                        ; preds = %if.end.i.i
  %25 = load ptr, ptr %items.addr.i.i, align 8
  %26 = load ptr, ptr %items.addr2.i.i, align 8
  %27 = load ptr, ptr %items.addr4.i.i, align 8
  %28 = load ptr, ptr %items.addr6.i.i, align 8
  store ptr %this7.i.i, ptr %this.addr.i10.i, align 8
  store ptr %vec.i.i, ptr %vec.addr.i.i, align 8
  store ptr %i.i.i, ptr %i.addr.i.i, align 8
  store ptr %25, ptr %item.addr.i.i, align 8
  store ptr %26, ptr %items.addr.i11.i, align 8
  store ptr %27, ptr %items.addr2.i12.i, align 8
  store ptr %28, ptr %items.addr4.i13.i, align 8
  %this5.i.i = load ptr, ptr %this.addr.i10.i, align 8
  %29 = load ptr, ptr %vec.addr.i.i, align 8
  %30 = load ptr, ptr %i.addr.i.i, align 8
  %31 = load ptr, ptr %item.addr.i.i, align 8
  store ptr %this5.i.i, ptr %this.addr.i47.i, align 8
  store ptr %29, ptr %vec.addr.i48.i, align 8
  store ptr %30, ptr %i.addr.i49.i, align 8
  store ptr %31, ptr %item.addr.i50.i, align 8
  %this1.i.i = load ptr, ptr %this.addr.i47.i, align 8
  store i64 1, ptr %real_width.i.i, align 8
  %32 = load ptr, ptr %i.addr.i49.i, align 8
  %33 = load i32, ptr %32, align 4
  %inc.i.i = add i32 %33, 1
  store i32 %inc.i.i, ptr %32, align 4
  store i32 %33, ptr %index.i.i, align 4
  %34 = load ptr, ptr %vec.addr.i48.i, align 8
  %35 = load i32, ptr %index.i.i, align 4
  %div.i.i = udiv i32 %35, 8
  %idxprom.i.i = zext i32 %div.i.i to i64
  %arrayidx.i.i = getelementptr inbounds [1 x i8], ptr %34, i64 0, i64 %idxprom.i.i
  %36 = load i8, ptr %arrayidx.i.i, align 1
  %conv.i52.i = sext i8 %36 to i32
  %37 = load i32, ptr %index.i.i, align 4
  %rem.i.i = urem i32 %37, 8
  %shl.i.i = shl i32 1, %rem.i.i
  %and.i53.i = and i32 %conv.i52.i, %shl.i.i
  %tobool.i54.i = icmp ne i32 %and.i53.i, 0
  br i1 %tobool.i54.i, label %if.end.i56.i, label %if.then.i55.i

if.then.i55.i:                                    ; preds = %sw.bb.i.i
  store i32 0, ptr %retval.i46.i, align 4
  br label %_ZN11struct_pack6detail8unpackerINS0_13memory_readerELm3EE27deserialize_one_fast_varintILm15ELb1ELm1ELm1EiEENS_4errcERAT2__cRjRT3_.exit.i

if.end.i56.i:                                     ; preds = %sw.bb.i.i
  store i8 0, ptr %ec.i51.i, align 1
  %reader_.i57.i = getelementptr inbounds %"class.struct_pack::detail::unpacker", ptr %this1.i.i, i32 0, i32 1
  %38 = load ptr, ptr %reader_.i57.i, align 8
  call void @llvm.experimental.noalias.scope.decl(metadata !65)
  store ptr %38, ptr %reader.addr.i73.i, align 8, !noalias !65
  store ptr %target.i.i, ptr %data.addr.i74.i, align 8, !noalias !65
  %39 = load ptr, ptr %reader.addr.i73.i, align 8, !noalias !65
  %40 = load ptr, ptr %data.addr.i74.i, align 8, !noalias !65
  %call.i75.i = call noundef zeroext i1 @_ZN11struct_pack6detail13memory_reader4readEPcm(ptr noundef nonnull align 8 dereferenceable(16) %39, ptr noundef %40, i64 noundef 1)
  %frombool.i59.i = zext i1 %call.i75.i to i8
  store i8 %frombool.i59.i, ptr %ec.i51.i, align 1
  %41 = load i8, ptr %ec.i51.i, align 1
  %tobool2.i.i = trunc i8 %41 to i1
  br i1 %tobool2.i.i, label %if.end4.i.i, label %if.then3.i.i

if.then3.i.i:                                     ; preds = %if.end.i56.i
  store i32 1, ptr %retval.i46.i, align 4
  br label %_ZN11struct_pack6detail8unpackerINS0_13memory_readerELm3EE27deserialize_one_fast_varintILm15ELb1ELm1ELm1EiEENS_4errcERAT2__cRjRT3_.exit.i

if.end4.i.i:                                      ; preds = %if.end.i56.i
  %42 = load i8, ptr %target.i.i, align 1
  %conv5.i.i = sext i8 %42 to i32
  %43 = load ptr, ptr %item.addr.i50.i, align 8
  store i32 %conv5.i.i, ptr %43, align 4
  store i32 0, ptr %retval.i46.i, align 4
  br label %_ZN11struct_pack6detail8unpackerINS0_13memory_readerELm3EE27deserialize_one_fast_varintILm15ELb1ELm1ELm1EiEENS_4errcERAT2__cRjRT3_.exit.i

_ZN11struct_pack6detail8unpackerINS0_13memory_readerELm3EE27deserialize_one_fast_varintILm15ELb1ELm1ELm1EiEENS_4errcERAT2__cRjRT3_.exit.i: ; preds = %if.end4.i.i, %if.then3.i.i, %if.then.i55.i
  %44 = load i32, ptr %retval.i46.i, align 4
  store i32 %44, ptr %ec.i14.i, align 4
  %45 = load i32, ptr %ec.i14.i, align 4
  %cmp.i.i = icmp ne i32 %45, 0
  br i1 %cmp.i.i, label %if.then.i15.i, label %if.else.i.i

if.then.i15.i:                                    ; preds = %_ZN11struct_pack6detail8unpackerINS0_13memory_readerELm3EE27deserialize_one_fast_varintILm15ELb1ELm1ELm1EiEENS_4errcERAT2__cRjRT3_.exit.i
  %46 = load i32, ptr %ec.i14.i, align 4
  store i32 %46, ptr %retval.i9.i, align 4
  br label %_ZN11struct_pack6detail8unpackerINS0_13memory_readerELm3EE30deserialize_fast_varint_helperILm15ELb1ELm1ELm1EiJiiiEEENS_4errcERAT2__cRjRT3_DpRT4_.exit.i

if.else.i.i:                                      ; preds = %_ZN11struct_pack6detail8unpackerINS0_13memory_readerELm3EE27deserialize_one_fast_varintILm15ELb1ELm1ELm1EiEENS_4errcERAT2__cRjRT3_.exit.i
  %47 = load ptr, ptr %vec.addr.i.i, align 8
  %48 = load ptr, ptr %i.addr.i.i, align 8
  %49 = load ptr, ptr %items.addr.i11.i, align 8
  %50 = load ptr, ptr %items.addr2.i12.i, align 8
  %51 = load ptr, ptr %items.addr4.i13.i, align 8
  store ptr %this5.i.i, ptr %this.addr.i61.i, align 8
  store ptr %47, ptr %vec.addr.i62.i, align 8
  store ptr %48, ptr %i.addr.i63.i, align 8
  store ptr %49, ptr %item.addr.i64.i, align 8
  store ptr %50, ptr %items.addr.i65.i, align 8
  store ptr %51, ptr %items.addr2.i66.i, align 8
  %this3.i.i = load ptr, ptr %this.addr.i61.i, align 8
  %52 = load ptr, ptr %vec.addr.i62.i, align 8
  %53 = load ptr, ptr %i.addr.i63.i, align 8
  %54 = load ptr, ptr %item.addr.i64.i, align 8
  store ptr %this3.i.i, ptr %this.addr.i.i.i, align 8
  store ptr %52, ptr %vec.addr.i.i.i, align 8
  store ptr %53, ptr %i.addr.i.i.i, align 8
  store ptr %54, ptr %item.addr.i.i.i, align 8
  %this1.i.i.i = load ptr, ptr %this.addr.i.i.i, align 8
  store i64 1, ptr %real_width.i.i.i, align 8
  %55 = load ptr, ptr %i.addr.i.i.i, align 8
  %56 = load i32, ptr %55, align 4
  %inc.i.i.i = add i32 %56, 1
  store i32 %inc.i.i.i, ptr %55, align 4
  store i32 %56, ptr %index.i.i.i, align 4
  %57 = load ptr, ptr %vec.addr.i.i.i, align 8
  %58 = load i32, ptr %index.i.i.i, align 4
  %div.i.i.i = udiv i32 %58, 8
  %idxprom.i.i.i = zext i32 %div.i.i.i to i64
  %arrayidx.i.i.i = getelementptr inbounds [1 x i8], ptr %57, i64 0, i64 %idxprom.i.i.i
  %59 = load i8, ptr %arrayidx.i.i.i, align 1
  %conv.i.i.i = sext i8 %59 to i32
  %60 = load i32, ptr %index.i.i.i, align 4
  %rem.i.i.i = urem i32 %60, 8
  %shl.i.i.i = shl i32 1, %rem.i.i.i
  %and.i.i.i = and i32 %conv.i.i.i, %shl.i.i.i
  %tobool.i.i.i = icmp ne i32 %and.i.i.i, 0
  br i1 %tobool.i.i.i, label %if.end.i.i.i, label %if.then.i.i.i

if.then.i.i.i:                                    ; preds = %if.else.i.i
  store i32 0, ptr %retval.i.i.i, align 4
  br label %_ZN11struct_pack6detail8unpackerINS0_13memory_readerELm3EE27deserialize_one_fast_varintILm15ELb1ELm1ELm1EiEENS_4errcERAT2__cRjRT3_.exit.i.i

if.end.i.i.i:                                     ; preds = %if.else.i.i
  store i8 0, ptr %ec.i.i.i, align 1
  %reader_.i.i.i = getelementptr inbounds %"class.struct_pack::detail::unpacker", ptr %this1.i.i.i, i32 0, i32 1
  %61 = load ptr, ptr %reader_.i.i.i, align 8
  call void @llvm.experimental.noalias.scope.decl(metadata !68)
  store ptr %61, ptr %reader.addr.i71.i, align 8, !noalias !68
  store ptr %target.i.i.i, ptr %data.addr.i72.i, align 8, !noalias !68
  %62 = load ptr, ptr %reader.addr.i71.i, align 8, !noalias !68
  %63 = load ptr, ptr %data.addr.i72.i, align 8, !noalias !68
  %call.i.i = call noundef zeroext i1 @_ZN11struct_pack6detail13memory_reader4readEPcm(ptr noundef nonnull align 8 dereferenceable(16) %62, ptr noundef %63, i64 noundef 1)
  %frombool.i.i.i = zext i1 %call.i.i to i8
  store i8 %frombool.i.i.i, ptr %ec.i.i.i, align 1
  %64 = load i8, ptr %ec.i.i.i, align 1
  %tobool2.i.i.i = trunc i8 %64 to i1
  br i1 %tobool2.i.i.i, label %if.end4.i.i.i, label %if.then3.i.i.i

if.then3.i.i.i:                                   ; preds = %if.end.i.i.i
  store i32 1, ptr %retval.i.i.i, align 4
  br label %_ZN11struct_pack6detail8unpackerINS0_13memory_readerELm3EE27deserialize_one_fast_varintILm15ELb1ELm1ELm1EiEENS_4errcERAT2__cRjRT3_.exit.i.i

if.end4.i.i.i:                                    ; preds = %if.end.i.i.i
  %65 = load i8, ptr %target.i.i.i, align 1
  %conv5.i.i.i = sext i8 %65 to i32
  %66 = load ptr, ptr %item.addr.i.i.i, align 8
  store i32 %conv5.i.i.i, ptr %66, align 4
  store i32 0, ptr %retval.i.i.i, align 4
  br label %_ZN11struct_pack6detail8unpackerINS0_13memory_readerELm3EE27deserialize_one_fast_varintILm15ELb1ELm1ELm1EiEENS_4errcERAT2__cRjRT3_.exit.i.i

_ZN11struct_pack6detail8unpackerINS0_13memory_readerELm3EE27deserialize_one_fast_varintILm15ELb1ELm1ELm1EiEENS_4errcERAT2__cRjRT3_.exit.i.i: ; preds = %if.end4.i.i.i, %if.then3.i.i.i, %if.then.i.i.i
  %67 = load i32, ptr %retval.i.i.i, align 4
  store i32 %67, ptr %ec.i67.i, align 4
  %68 = load i32, ptr %ec.i67.i, align 4
  %cmp.i68.i = icmp ne i32 %68, 0
  br i1 %cmp.i68.i, label %if.then.i70.i, label %if.else.i69.i

if.then.i70.i:                                    ; preds = %_ZN11struct_pack6detail8unpackerINS0_13memory_readerELm3EE27deserialize_one_fast_varintILm15ELb1ELm1ELm1EiEENS_4errcERAT2__cRjRT3_.exit.i.i
  %69 = load i32, ptr %ec.i67.i, align 4
  store i32 %69, ptr %retval.i60.i, align 4
  br label %_ZN11struct_pack6detail8unpackerINS0_13memory_readerELm3EE30deserialize_fast_varint_helperILm15ELb1ELm1ELm1EiJiiEEENS_4errcERAT2__cRjRT3_DpRT4_.exit.i

if.else.i69.i:                                    ; preds = %_ZN11struct_pack6detail8unpackerINS0_13memory_readerELm3EE27deserialize_one_fast_varintILm15ELb1ELm1ELm1EiEENS_4errcERAT2__cRjRT3_.exit.i.i
  %70 = load ptr, ptr %vec.addr.i62.i, align 8
  %71 = load ptr, ptr %i.addr.i63.i, align 8
  %72 = load ptr, ptr %items.addr.i65.i, align 8
  %73 = load ptr, ptr %items.addr2.i66.i, align 8
  store ptr %this3.i.i, ptr %this.addr.i86.i, align 8
  store ptr %70, ptr %vec.addr.i87.i, align 8
  store ptr %71, ptr %i.addr.i88.i, align 8
  store ptr %72, ptr %item.addr.i89.i, align 8
  store ptr %73, ptr %items.addr.i90.i, align 8
  %this1.i92.i = load ptr, ptr %this.addr.i86.i, align 8
  %74 = load ptr, ptr %vec.addr.i87.i, align 8
  %75 = load ptr, ptr %i.addr.i88.i, align 8
  %76 = load ptr, ptr %item.addr.i89.i, align 8
  store ptr %this1.i92.i, ptr %this.addr.i.i77.i, align 8
  store ptr %74, ptr %vec.addr.i.i78.i, align 8
  store ptr %75, ptr %i.addr.i.i79.i, align 8
  store ptr %76, ptr %item.addr.i.i80.i, align 8
  %this1.i.i93.i = load ptr, ptr %this.addr.i.i77.i, align 8
  store i64 1, ptr %real_width.i.i81.i, align 8
  %77 = load ptr, ptr %i.addr.i.i79.i, align 8
  %78 = load i32, ptr %77, align 4
  %inc.i.i94.i = add i32 %78, 1
  store i32 %inc.i.i94.i, ptr %77, align 4
  store i32 %78, ptr %index.i.i82.i, align 4
  %79 = load ptr, ptr %vec.addr.i.i78.i, align 8
  %80 = load i32, ptr %index.i.i82.i, align 4
  %div.i.i95.i = udiv i32 %80, 8
  %idxprom.i.i96.i = zext i32 %div.i.i95.i to i64
  %arrayidx.i.i97.i = getelementptr inbounds [1 x i8], ptr %79, i64 0, i64 %idxprom.i.i96.i
  %81 = load i8, ptr %arrayidx.i.i97.i, align 1
  %conv.i.i98.i = sext i8 %81 to i32
  %82 = load i32, ptr %index.i.i82.i, align 4
  %rem.i.i99.i = urem i32 %82, 8
  %shl.i.i100.i = shl i32 1, %rem.i.i99.i
  %and.i.i101.i = and i32 %conv.i.i98.i, %shl.i.i100.i
  %tobool.i.i102.i = icmp ne i32 %and.i.i101.i, 0
  br i1 %tobool.i.i102.i, label %if.end.i.i108.i, label %if.then.i.i103.i

if.then.i.i103.i:                                 ; preds = %if.else.i69.i
  store i32 0, ptr %retval.i.i76.i, align 4
  br label %_ZN11struct_pack6detail8unpackerINS0_13memory_readerELm3EE27deserialize_one_fast_varintILm15ELb1ELm1ELm1EiEENS_4errcERAT2__cRjRT3_.exit.i104.i

if.end.i.i108.i:                                  ; preds = %if.else.i69.i
  store i8 0, ptr %ec.i.i83.i, align 1
  %reader_.i.i109.i = getelementptr inbounds %"class.struct_pack::detail::unpacker", ptr %this1.i.i93.i, i32 0, i32 1
  %83 = load ptr, ptr %reader_.i.i109.i, align 8
  call void @llvm.experimental.noalias.scope.decl(metadata !71)
  store ptr %83, ptr %reader.addr.i.i.i, align 8, !noalias !71
  store ptr %target.i.i84.i, ptr %data.addr.i.i.i, align 8, !noalias !71
  %84 = load ptr, ptr %reader.addr.i.i.i, align 8, !noalias !71
  %85 = load ptr, ptr %data.addr.i.i.i, align 8, !noalias !71
  %call.i3.i.i = call noundef zeroext i1 @_ZN11struct_pack6detail13memory_reader4readEPcm(ptr noundef nonnull align 8 dereferenceable(16) %84, ptr noundef %85, i64 noundef 1)
  %frombool.i.i110.i = zext i1 %call.i3.i.i to i8
  store i8 %frombool.i.i110.i, ptr %ec.i.i83.i, align 1
  %86 = load i8, ptr %ec.i.i83.i, align 1
  %tobool2.i.i111.i = trunc i8 %86 to i1
  br i1 %tobool2.i.i111.i, label %if.end4.i.i113.i, label %if.then3.i.i112.i

if.then3.i.i112.i:                                ; preds = %if.end.i.i108.i
  store i32 1, ptr %retval.i.i76.i, align 4
  br label %_ZN11struct_pack6detail8unpackerINS0_13memory_readerELm3EE27deserialize_one_fast_varintILm15ELb1ELm1ELm1EiEENS_4errcERAT2__cRjRT3_.exit.i104.i

if.end4.i.i113.i:                                 ; preds = %if.end.i.i108.i
  %87 = load i8, ptr %target.i.i84.i, align 1
  %conv5.i.i114.i = sext i8 %87 to i32
  %88 = load ptr, ptr %item.addr.i.i80.i, align 8
  store i32 %conv5.i.i114.i, ptr %88, align 4
  store i32 0, ptr %retval.i.i76.i, align 4
  br label %_ZN11struct_pack6detail8unpackerINS0_13memory_readerELm3EE27deserialize_one_fast_varintILm15ELb1ELm1ELm1EiEENS_4errcERAT2__cRjRT3_.exit.i104.i

_ZN11struct_pack6detail8unpackerINS0_13memory_readerELm3EE27deserialize_one_fast_varintILm15ELb1ELm1ELm1EiEENS_4errcERAT2__cRjRT3_.exit.i104.i: ; preds = %if.end4.i.i113.i, %if.then3.i.i112.i, %if.then.i.i103.i
  %89 = load i32, ptr %retval.i.i76.i, align 4
  store i32 %89, ptr %ec.i91.i, align 4
  %90 = load i32, ptr %ec.i91.i, align 4
  %cmp.i105.i = icmp ne i32 %90, 0
  br i1 %cmp.i105.i, label %if.then.i107.i, label %if.else.i106.i

if.then.i107.i:                                   ; preds = %_ZN11struct_pack6detail8unpackerINS0_13memory_readerELm3EE27deserialize_one_fast_varintILm15ELb1ELm1ELm1EiEENS_4errcERAT2__cRjRT3_.exit.i104.i
  %91 = load i32, ptr %ec.i91.i, align 4
  store i32 %91, ptr %retval.i85.i, align 4
  br label %_ZN11struct_pack6detail8unpackerINS0_13memory_readerELm3EE30deserialize_fast_varint_helperILm15ELb1ELm1ELm1EiJiEEENS_4errcERAT2__cRjRT3_DpRT4_.exit.i

if.else.i106.i:                                   ; preds = %_ZN11struct_pack6detail8unpackerINS0_13memory_readerELm3EE27deserialize_one_fast_varintILm15ELb1ELm1ELm1EiEENS_4errcERAT2__cRjRT3_.exit.i104.i
  %92 = load ptr, ptr %vec.addr.i87.i, align 8
  %93 = load ptr, ptr %i.addr.i88.i, align 8
  %94 = load ptr, ptr %items.addr.i90.i, align 8
  store ptr %this1.i92.i, ptr %this.addr.i126.i, align 8
  store ptr %92, ptr %vec.addr.i127.i, align 8
  store ptr %93, ptr %i.addr.i128.i, align 8
  store ptr %94, ptr %item.addr.i129.i, align 8
  %this1.i131.i = load ptr, ptr %this.addr.i126.i, align 8
  %95 = load ptr, ptr %vec.addr.i127.i, align 8
  %96 = load ptr, ptr %i.addr.i128.i, align 8
  %97 = load ptr, ptr %item.addr.i129.i, align 8
  store ptr %this1.i131.i, ptr %this.addr.i.i118.i, align 8
  store ptr %95, ptr %vec.addr.i.i119.i, align 8
  store ptr %96, ptr %i.addr.i.i120.i, align 8
  store ptr %97, ptr %item.addr.i.i121.i, align 8
  %this1.i.i132.i = load ptr, ptr %this.addr.i.i118.i, align 8
  store i64 1, ptr %real_width.i.i122.i, align 8
  %98 = load ptr, ptr %i.addr.i.i120.i, align 8
  %99 = load i32, ptr %98, align 4
  %inc.i.i133.i = add i32 %99, 1
  store i32 %inc.i.i133.i, ptr %98, align 4
  store i32 %99, ptr %index.i.i123.i, align 4
  %100 = load ptr, ptr %vec.addr.i.i119.i, align 8
  %101 = load i32, ptr %index.i.i123.i, align 4
  %div.i.i134.i = udiv i32 %101, 8
  %idxprom.i.i135.i = zext i32 %div.i.i134.i to i64
  %arrayidx.i.i136.i = getelementptr inbounds [1 x i8], ptr %100, i64 0, i64 %idxprom.i.i135.i
  %102 = load i8, ptr %arrayidx.i.i136.i, align 1
  %conv.i.i137.i = sext i8 %102 to i32
  %103 = load i32, ptr %index.i.i123.i, align 4
  %rem.i.i138.i = urem i32 %103, 8
  %shl.i.i139.i = shl i32 1, %rem.i.i138.i
  %and.i.i140.i = and i32 %conv.i.i137.i, %shl.i.i139.i
  %tobool.i.i141.i = icmp ne i32 %and.i.i140.i, 0
  br i1 %tobool.i.i141.i, label %if.end.i.i144.i, label %if.then.i.i142.i

if.then.i.i142.i:                                 ; preds = %if.else.i106.i
  store i32 0, ptr %retval.i.i117.i, align 4
  br label %_ZN11struct_pack6detail8unpackerINS0_13memory_readerELm3EE30deserialize_fast_varint_helperILm15ELb1ELm1ELm1EiJEEENS_4errcERAT2__cRjRT3_DpRT4_.exit.i

if.end.i.i144.i:                                  ; preds = %if.else.i106.i
  store i8 0, ptr %ec.i.i124.i, align 1
  %reader_.i.i145.i = getelementptr inbounds %"class.struct_pack::detail::unpacker", ptr %this1.i.i132.i, i32 0, i32 1
  %104 = load ptr, ptr %reader_.i.i145.i, align 8
  call void @llvm.experimental.noalias.scope.decl(metadata !74)
  store ptr %104, ptr %reader.addr.i.i115.i, align 8, !noalias !74
  store ptr %target.i.i125.i, ptr %data.addr.i.i116.i, align 8, !noalias !74
  %105 = load ptr, ptr %reader.addr.i.i115.i, align 8, !noalias !74
  %106 = load ptr, ptr %data.addr.i.i116.i, align 8, !noalias !74
  %call.i2.i.i = call noundef zeroext i1 @_ZN11struct_pack6detail13memory_reader4readEPcm(ptr noundef nonnull align 8 dereferenceable(16) %105, ptr noundef %106, i64 noundef 1)
  %frombool.i.i146.i = zext i1 %call.i2.i.i to i8
  store i8 %frombool.i.i146.i, ptr %ec.i.i124.i, align 1
  %107 = load i8, ptr %ec.i.i124.i, align 1
  %tobool2.i.i147.i = trunc i8 %107 to i1
  br i1 %tobool2.i.i147.i, label %if.end4.i.i149.i, label %if.then3.i.i148.i

if.then3.i.i148.i:                                ; preds = %if.end.i.i144.i
  store i32 1, ptr %retval.i.i117.i, align 4
  br label %_ZN11struct_pack6detail8unpackerINS0_13memory_readerELm3EE30deserialize_fast_varint_helperILm15ELb1ELm1ELm1EiJEEENS_4errcERAT2__cRjRT3_DpRT4_.exit.i

if.end4.i.i149.i:                                 ; preds = %if.end.i.i144.i
  %108 = load i8, ptr %target.i.i125.i, align 1
  %conv5.i.i150.i = sext i8 %108 to i32
  %109 = load ptr, ptr %item.addr.i.i121.i, align 8
  store i32 %conv5.i.i150.i, ptr %109, align 4
  store i32 0, ptr %retval.i.i117.i, align 4
  br label %_ZN11struct_pack6detail8unpackerINS0_13memory_readerELm3EE30deserialize_fast_varint_helperILm15ELb1ELm1ELm1EiJEEENS_4errcERAT2__cRjRT3_DpRT4_.exit.i

_ZN11struct_pack6detail8unpackerINS0_13memory_readerELm3EE30deserialize_fast_varint_helperILm15ELb1ELm1ELm1EiJEEENS_4errcERAT2__cRjRT3_DpRT4_.exit.i: ; preds = %if.end4.i.i149.i, %if.then3.i.i148.i, %if.then.i.i142.i
  %110 = load i32, ptr %retval.i.i117.i, align 4
  store i32 %110, ptr %ec.i130.i, align 4
  %111 = load i32, ptr %ec.i130.i, align 4
  store i32 %111, ptr %retval.i85.i, align 4
  br label %_ZN11struct_pack6detail8unpackerINS0_13memory_readerELm3EE30deserialize_fast_varint_helperILm15ELb1ELm1ELm1EiJiEEENS_4errcERAT2__cRjRT3_DpRT4_.exit.i

_ZN11struct_pack6detail8unpackerINS0_13memory_readerELm3EE30deserialize_fast_varint_helperILm15ELb1ELm1ELm1EiJiEEENS_4errcERAT2__cRjRT3_DpRT4_.exit.i: ; preds = %_ZN11struct_pack6detail8unpackerINS0_13memory_readerELm3EE30deserialize_fast_varint_helperILm15ELb1ELm1ELm1EiJEEENS_4errcERAT2__cRjRT3_DpRT4_.exit.i, %if.then.i107.i
  %112 = load i32, ptr %retval.i85.i, align 4
  store i32 %112, ptr %retval.i60.i, align 4
  br label %_ZN11struct_pack6detail8unpackerINS0_13memory_readerELm3EE30deserialize_fast_varint_helperILm15ELb1ELm1ELm1EiJiiEEENS_4errcERAT2__cRjRT3_DpRT4_.exit.i

_ZN11struct_pack6detail8unpackerINS0_13memory_readerELm3EE30deserialize_fast_varint_helperILm15ELb1ELm1ELm1EiJiiEEENS_4errcERAT2__cRjRT3_DpRT4_.exit.i: ; preds = %_ZN11struct_pack6detail8unpackerINS0_13memory_readerELm3EE30deserialize_fast_varint_helperILm15ELb1ELm1ELm1EiJiEEENS_4errcERAT2__cRjRT3_DpRT4_.exit.i, %if.then.i70.i
  %113 = load i32, ptr %retval.i60.i, align 4
  store i32 %113, ptr %retval.i9.i, align 4
  br label %_ZN11struct_pack6detail8unpackerINS0_13memory_readerELm3EE30deserialize_fast_varint_helperILm15ELb1ELm1ELm1EiJiiiEEENS_4errcERAT2__cRjRT3_DpRT4_.exit.i

_ZN11struct_pack6detail8unpackerINS0_13memory_readerELm3EE30deserialize_fast_varint_helperILm15ELb1ELm1ELm1EiJiiiEEENS_4errcERAT2__cRjRT3_DpRT4_.exit.i: ; preds = %_ZN11struct_pack6detail8unpackerINS0_13memory_readerELm3EE30deserialize_fast_varint_helperILm15ELb1ELm1ELm1EiJiiEEENS_4errcERAT2__cRjRT3_DpRT4_.exit.i, %if.then.i15.i
  %114 = load i32, ptr %retval.i9.i, align 4
  store i32 %114, ptr %ec18.i.i, align 4
  br label %sw.epilog.i.i

sw.bb20.i.i:                                      ; preds = %if.end.i.i
  %115 = load ptr, ptr %items.addr.i.i, align 8
  %116 = load ptr, ptr %items.addr2.i.i, align 8
  %117 = load ptr, ptr %items.addr4.i.i, align 8
  %118 = load ptr, ptr %items.addr6.i.i, align 8
  store ptr %this7.i.i, ptr %this.addr.i17.i, align 8
  store ptr %vec.i.i, ptr %vec.addr.i18.i, align 8
  store ptr %i.i.i, ptr %i.addr.i19.i, align 8
  store ptr %115, ptr %item.addr.i20.i, align 8
  store ptr %116, ptr %items.addr.i21.i, align 8
  store ptr %117, ptr %items.addr2.i22.i, align 8
  store ptr %118, ptr %items.addr4.i23.i, align 8
  %this5.i25.i = load ptr, ptr %this.addr.i17.i, align 8
  %119 = load ptr, ptr %vec.addr.i18.i, align 8
  %120 = load ptr, ptr %i.addr.i19.i, align 8
  %121 = load ptr, ptr %item.addr.i20.i, align 8
  store ptr %this5.i25.i, ptr %this.addr.i152.i, align 8
  store ptr %119, ptr %vec.addr.i153.i, align 8
  store ptr %120, ptr %i.addr.i154.i, align 8
  store ptr %121, ptr %item.addr.i155.i, align 8
  %this1.i160.i = load ptr, ptr %this.addr.i152.i, align 8
  store i64 2, ptr %real_width.i156.i, align 8
  %122 = load ptr, ptr %i.addr.i154.i, align 8
  %123 = load i32, ptr %122, align 4
  %inc.i161.i = add i32 %123, 1
  store i32 %inc.i161.i, ptr %122, align 4
  store i32 %123, ptr %index.i157.i, align 4
  %124 = load ptr, ptr %vec.addr.i153.i, align 8
  %125 = load i32, ptr %index.i157.i, align 4
  %div.i162.i = udiv i32 %125, 8
  %idxprom.i163.i = zext i32 %div.i162.i to i64
  %arrayidx.i164.i = getelementptr inbounds [1 x i8], ptr %124, i64 0, i64 %idxprom.i163.i
  %126 = load i8, ptr %arrayidx.i164.i, align 1
  %conv.i165.i = sext i8 %126 to i32
  %127 = load i32, ptr %index.i157.i, align 4
  %rem.i166.i = urem i32 %127, 8
  %shl.i167.i = shl i32 1, %rem.i166.i
  %and.i168.i = and i32 %conv.i165.i, %shl.i167.i
  %tobool.i169.i = icmp ne i32 %and.i168.i, 0
  br i1 %tobool.i169.i, label %if.end.i171.i, label %if.then.i170.i

if.then.i170.i:                                   ; preds = %sw.bb20.i.i
  store i32 0, ptr %retval.i151.i, align 4
  br label %_ZN11struct_pack6detail8unpackerINS0_13memory_readerELm3EE27deserialize_one_fast_varintILm15ELb1ELm2ELm1EiEENS_4errcERAT2__cRjRT3_.exit.i

if.end.i171.i:                                    ; preds = %sw.bb20.i.i
  store i8 0, ptr %ec.i158.i, align 1
  %reader_.i172.i = getelementptr inbounds %"class.struct_pack::detail::unpacker", ptr %this1.i160.i, i32 0, i32 1
  %128 = load ptr, ptr %reader_.i172.i, align 8
  call void @llvm.experimental.noalias.scope.decl(metadata !77)
  store ptr %128, ptr %reader.addr.i221.i, align 8, !noalias !77
  store ptr %target.i159.i, ptr %data.addr.i222.i, align 8, !noalias !77
  %129 = load ptr, ptr %reader.addr.i221.i, align 8, !noalias !77
  %130 = load ptr, ptr %data.addr.i222.i, align 8, !noalias !77
  %call.i223.i = call noundef zeroext i1 @_ZN11struct_pack6detail13memory_reader4readEPcm(ptr noundef nonnull align 8 dereferenceable(16) %129, ptr noundef %130, i64 noundef 2)
  %frombool.i174.i = zext i1 %call.i223.i to i8
  store i8 %frombool.i174.i, ptr %ec.i158.i, align 1
  %131 = load i8, ptr %ec.i158.i, align 1
  %tobool2.i175.i = trunc i8 %131 to i1
  br i1 %tobool2.i175.i, label %if.end4.i177.i, label %if.then3.i176.i

if.then3.i176.i:                                  ; preds = %if.end.i171.i
  store i32 1, ptr %retval.i151.i, align 4
  br label %_ZN11struct_pack6detail8unpackerINS0_13memory_readerELm3EE27deserialize_one_fast_varintILm15ELb1ELm2ELm1EiEENS_4errcERAT2__cRjRT3_.exit.i

if.end4.i177.i:                                   ; preds = %if.end.i171.i
  %132 = load i16, ptr %target.i159.i, align 2
  %conv5.i178.i = sext i16 %132 to i32
  %133 = load ptr, ptr %item.addr.i155.i, align 8
  store i32 %conv5.i178.i, ptr %133, align 4
  store i32 0, ptr %retval.i151.i, align 4
  br label %_ZN11struct_pack6detail8unpackerINS0_13memory_readerELm3EE27deserialize_one_fast_varintILm15ELb1ELm2ELm1EiEENS_4errcERAT2__cRjRT3_.exit.i

_ZN11struct_pack6detail8unpackerINS0_13memory_readerELm3EE27deserialize_one_fast_varintILm15ELb1ELm2ELm1EiEENS_4errcERAT2__cRjRT3_.exit.i: ; preds = %if.end4.i177.i, %if.then3.i176.i, %if.then.i170.i
  %134 = load i32, ptr %retval.i151.i, align 4
  store i32 %134, ptr %ec.i24.i, align 4
  %135 = load i32, ptr %ec.i24.i, align 4
  %cmp.i27.i = icmp ne i32 %135, 0
  br i1 %cmp.i27.i, label %if.then.i30.i, label %if.else.i28.i

if.then.i30.i:                                    ; preds = %_ZN11struct_pack6detail8unpackerINS0_13memory_readerELm3EE27deserialize_one_fast_varintILm15ELb1ELm2ELm1EiEENS_4errcERAT2__cRjRT3_.exit.i
  %136 = load i32, ptr %ec.i24.i, align 4
  store i32 %136, ptr %retval.i16.i, align 4
  br label %_ZN11struct_pack6detail8unpackerINS0_13memory_readerELm3EE30deserialize_fast_varint_helperILm15ELb1ELm2ELm1EiJiiiEEENS_4errcERAT2__cRjRT3_DpRT4_.exit.i

if.else.i28.i:                                    ; preds = %_ZN11struct_pack6detail8unpackerINS0_13memory_readerELm3EE27deserialize_one_fast_varintILm15ELb1ELm2ELm1EiEENS_4errcERAT2__cRjRT3_.exit.i
  %137 = load ptr, ptr %vec.addr.i18.i, align 8
  %138 = load ptr, ptr %i.addr.i19.i, align 8
  %139 = load ptr, ptr %items.addr.i21.i, align 8
  %140 = load ptr, ptr %items.addr2.i22.i, align 8
  %141 = load ptr, ptr %items.addr4.i23.i, align 8
  store ptr %this5.i25.i, ptr %this.addr.i189.i, align 8
  store ptr %137, ptr %vec.addr.i190.i, align 8
  store ptr %138, ptr %i.addr.i191.i, align 8
  store ptr %139, ptr %item.addr.i192.i, align 8
  store ptr %140, ptr %items.addr.i193.i, align 8
  store ptr %141, ptr %items.addr2.i194.i, align 8
  %this3.i196.i = load ptr, ptr %this.addr.i189.i, align 8
  %142 = load ptr, ptr %vec.addr.i190.i, align 8
  %143 = load ptr, ptr %i.addr.i191.i, align 8
  %144 = load ptr, ptr %item.addr.i192.i, align 8
  store ptr %this3.i196.i, ptr %this.addr.i.i180.i, align 8
  store ptr %142, ptr %vec.addr.i.i181.i, align 8
  store ptr %143, ptr %i.addr.i.i182.i, align 8
  store ptr %144, ptr %item.addr.i.i183.i, align 8
  %this1.i.i197.i = load ptr, ptr %this.addr.i.i180.i, align 8
  store i64 2, ptr %real_width.i.i184.i, align 8
  %145 = load ptr, ptr %i.addr.i.i182.i, align 8
  %146 = load i32, ptr %145, align 4
  %inc.i.i198.i = add i32 %146, 1
  store i32 %inc.i.i198.i, ptr %145, align 4
  store i32 %146, ptr %index.i.i185.i, align 4
  %147 = load ptr, ptr %vec.addr.i.i181.i, align 8
  %148 = load i32, ptr %index.i.i185.i, align 4
  %div.i.i199.i = udiv i32 %148, 8
  %idxprom.i.i200.i = zext i32 %div.i.i199.i to i64
  %arrayidx.i.i201.i = getelementptr inbounds [1 x i8], ptr %147, i64 0, i64 %idxprom.i.i200.i
  %149 = load i8, ptr %arrayidx.i.i201.i, align 1
  %conv.i.i202.i = sext i8 %149 to i32
  %150 = load i32, ptr %index.i.i185.i, align 4
  %rem.i.i203.i = urem i32 %150, 8
  %shl.i.i204.i = shl i32 1, %rem.i.i203.i
  %and.i.i205.i = and i32 %conv.i.i202.i, %shl.i.i204.i
  %tobool.i.i206.i = icmp ne i32 %and.i.i205.i, 0
  br i1 %tobool.i.i206.i, label %if.end.i.i211.i, label %if.then.i.i207.i

if.then.i.i207.i:                                 ; preds = %if.else.i28.i
  store i32 0, ptr %retval.i.i179.i, align 4
  br label %_ZN11struct_pack6detail8unpackerINS0_13memory_readerELm3EE27deserialize_one_fast_varintILm15ELb1ELm2ELm1EiEENS_4errcERAT2__cRjRT3_.exit.i.i

if.end.i.i211.i:                                  ; preds = %if.else.i28.i
  store i8 0, ptr %ec.i.i186.i, align 1
  %reader_.i.i212.i = getelementptr inbounds %"class.struct_pack::detail::unpacker", ptr %this1.i.i197.i, i32 0, i32 1
  %151 = load ptr, ptr %reader_.i.i212.i, align 8
  call void @llvm.experimental.noalias.scope.decl(metadata !80)
  store ptr %151, ptr %reader.addr.i218.i, align 8, !noalias !80
  store ptr %target.i.i187.i, ptr %data.addr.i219.i, align 8, !noalias !80
  %152 = load ptr, ptr %reader.addr.i218.i, align 8, !noalias !80
  %153 = load ptr, ptr %data.addr.i219.i, align 8, !noalias !80
  %call.i220.i = call noundef zeroext i1 @_ZN11struct_pack6detail13memory_reader4readEPcm(ptr noundef nonnull align 8 dereferenceable(16) %152, ptr noundef %153, i64 noundef 2)
  %frombool.i.i213.i = zext i1 %call.i220.i to i8
  store i8 %frombool.i.i213.i, ptr %ec.i.i186.i, align 1
  %154 = load i8, ptr %ec.i.i186.i, align 1
  %tobool2.i.i214.i = trunc i8 %154 to i1
  br i1 %tobool2.i.i214.i, label %if.end4.i.i216.i, label %if.then3.i.i215.i

if.then3.i.i215.i:                                ; preds = %if.end.i.i211.i
  store i32 1, ptr %retval.i.i179.i, align 4
  br label %_ZN11struct_pack6detail8unpackerINS0_13memory_readerELm3EE27deserialize_one_fast_varintILm15ELb1ELm2ELm1EiEENS_4errcERAT2__cRjRT3_.exit.i.i

if.end4.i.i216.i:                                 ; preds = %if.end.i.i211.i
  %155 = load i16, ptr %target.i.i187.i, align 2
  %conv5.i.i217.i = sext i16 %155 to i32
  %156 = load ptr, ptr %item.addr.i.i183.i, align 8
  store i32 %conv5.i.i217.i, ptr %156, align 4
  store i32 0, ptr %retval.i.i179.i, align 4
  br label %_ZN11struct_pack6detail8unpackerINS0_13memory_readerELm3EE27deserialize_one_fast_varintILm15ELb1ELm2ELm1EiEENS_4errcERAT2__cRjRT3_.exit.i.i

_ZN11struct_pack6detail8unpackerINS0_13memory_readerELm3EE27deserialize_one_fast_varintILm15ELb1ELm2ELm1EiEENS_4errcERAT2__cRjRT3_.exit.i.i: ; preds = %if.end4.i.i216.i, %if.then3.i.i215.i, %if.then.i.i207.i
  %157 = load i32, ptr %retval.i.i179.i, align 4
  store i32 %157, ptr %ec.i195.i, align 4
  %158 = load i32, ptr %ec.i195.i, align 4
  %cmp.i208.i = icmp ne i32 %158, 0
  br i1 %cmp.i208.i, label %if.then.i210.i, label %if.else.i209.i

if.then.i210.i:                                   ; preds = %_ZN11struct_pack6detail8unpackerINS0_13memory_readerELm3EE27deserialize_one_fast_varintILm15ELb1ELm2ELm1EiEENS_4errcERAT2__cRjRT3_.exit.i.i
  %159 = load i32, ptr %ec.i195.i, align 4
  store i32 %159, ptr %retval.i188.i, align 4
  br label %_ZN11struct_pack6detail8unpackerINS0_13memory_readerELm3EE30deserialize_fast_varint_helperILm15ELb1ELm2ELm1EiJiiEEENS_4errcERAT2__cRjRT3_DpRT4_.exit.i

if.else.i209.i:                                   ; preds = %_ZN11struct_pack6detail8unpackerINS0_13memory_readerELm3EE27deserialize_one_fast_varintILm15ELb1ELm2ELm1EiEENS_4errcERAT2__cRjRT3_.exit.i.i
  %160 = load ptr, ptr %vec.addr.i190.i, align 8
  %161 = load ptr, ptr %i.addr.i191.i, align 8
  %162 = load ptr, ptr %items.addr.i193.i, align 8
  %163 = load ptr, ptr %items.addr2.i194.i, align 8
  store ptr %this3.i196.i, ptr %this.addr.i236.i, align 8
  store ptr %160, ptr %vec.addr.i237.i, align 8
  store ptr %161, ptr %i.addr.i238.i, align 8
  store ptr %162, ptr %item.addr.i239.i, align 8
  store ptr %163, ptr %items.addr.i240.i, align 8
  %this1.i242.i = load ptr, ptr %this.addr.i236.i, align 8
  %164 = load ptr, ptr %vec.addr.i237.i, align 8
  %165 = load ptr, ptr %i.addr.i238.i, align 8
  %166 = load ptr, ptr %item.addr.i239.i, align 8
  store ptr %this1.i242.i, ptr %this.addr.i.i227.i, align 8
  store ptr %164, ptr %vec.addr.i.i228.i, align 8
  store ptr %165, ptr %i.addr.i.i229.i, align 8
  store ptr %166, ptr %item.addr.i.i230.i, align 8
  %this1.i.i243.i = load ptr, ptr %this.addr.i.i227.i, align 8
  store i64 2, ptr %real_width.i.i231.i, align 8
  %167 = load ptr, ptr %i.addr.i.i229.i, align 8
  %168 = load i32, ptr %167, align 4
  %inc.i.i244.i = add i32 %168, 1
  store i32 %inc.i.i244.i, ptr %167, align 4
  store i32 %168, ptr %index.i.i232.i, align 4
  %169 = load ptr, ptr %vec.addr.i.i228.i, align 8
  %170 = load i32, ptr %index.i.i232.i, align 4
  %div.i.i245.i = udiv i32 %170, 8
  %idxprom.i.i246.i = zext i32 %div.i.i245.i to i64
  %arrayidx.i.i247.i = getelementptr inbounds [1 x i8], ptr %169, i64 0, i64 %idxprom.i.i246.i
  %171 = load i8, ptr %arrayidx.i.i247.i, align 1
  %conv.i.i248.i = sext i8 %171 to i32
  %172 = load i32, ptr %index.i.i232.i, align 4
  %rem.i.i249.i = urem i32 %172, 8
  %shl.i.i250.i = shl i32 1, %rem.i.i249.i
  %and.i.i251.i = and i32 %conv.i.i248.i, %shl.i.i250.i
  %tobool.i.i252.i = icmp ne i32 %and.i.i251.i, 0
  br i1 %tobool.i.i252.i, label %if.end.i.i258.i, label %if.then.i.i253.i

if.then.i.i253.i:                                 ; preds = %if.else.i209.i
  store i32 0, ptr %retval.i.i226.i, align 4
  br label %_ZN11struct_pack6detail8unpackerINS0_13memory_readerELm3EE27deserialize_one_fast_varintILm15ELb1ELm2ELm1EiEENS_4errcERAT2__cRjRT3_.exit.i254.i

if.end.i.i258.i:                                  ; preds = %if.else.i209.i
  store i8 0, ptr %ec.i.i233.i, align 1
  %reader_.i.i259.i = getelementptr inbounds %"class.struct_pack::detail::unpacker", ptr %this1.i.i243.i, i32 0, i32 1
  %173 = load ptr, ptr %reader_.i.i259.i, align 8
  call void @llvm.experimental.noalias.scope.decl(metadata !83)
  store ptr %173, ptr %reader.addr.i.i224.i, align 8, !noalias !83
  store ptr %target.i.i234.i, ptr %data.addr.i.i225.i, align 8, !noalias !83
  %174 = load ptr, ptr %reader.addr.i.i224.i, align 8, !noalias !83
  %175 = load ptr, ptr %data.addr.i.i225.i, align 8, !noalias !83
  %call.i3.i260.i = call noundef zeroext i1 @_ZN11struct_pack6detail13memory_reader4readEPcm(ptr noundef nonnull align 8 dereferenceable(16) %174, ptr noundef %175, i64 noundef 2)
  %frombool.i.i261.i = zext i1 %call.i3.i260.i to i8
  store i8 %frombool.i.i261.i, ptr %ec.i.i233.i, align 1
  %176 = load i8, ptr %ec.i.i233.i, align 1
  %tobool2.i.i262.i = trunc i8 %176 to i1
  br i1 %tobool2.i.i262.i, label %if.end4.i.i264.i, label %if.then3.i.i263.i

if.then3.i.i263.i:                                ; preds = %if.end.i.i258.i
  store i32 1, ptr %retval.i.i226.i, align 4
  br label %_ZN11struct_pack6detail8unpackerINS0_13memory_readerELm3EE27deserialize_one_fast_varintILm15ELb1ELm2ELm1EiEENS_4errcERAT2__cRjRT3_.exit.i254.i

if.end4.i.i264.i:                                 ; preds = %if.end.i.i258.i
  %177 = load i16, ptr %target.i.i234.i, align 2
  %conv5.i.i265.i = sext i16 %177 to i32
  %178 = load ptr, ptr %item.addr.i.i230.i, align 8
  store i32 %conv5.i.i265.i, ptr %178, align 4
  store i32 0, ptr %retval.i.i226.i, align 4
  br label %_ZN11struct_pack6detail8unpackerINS0_13memory_readerELm3EE27deserialize_one_fast_varintILm15ELb1ELm2ELm1EiEENS_4errcERAT2__cRjRT3_.exit.i254.i

_ZN11struct_pack6detail8unpackerINS0_13memory_readerELm3EE27deserialize_one_fast_varintILm15ELb1ELm2ELm1EiEENS_4errcERAT2__cRjRT3_.exit.i254.i: ; preds = %if.end4.i.i264.i, %if.then3.i.i263.i, %if.then.i.i253.i
  %179 = load i32, ptr %retval.i.i226.i, align 4
  store i32 %179, ptr %ec.i241.i, align 4
  %180 = load i32, ptr %ec.i241.i, align 4
  %cmp.i255.i = icmp ne i32 %180, 0
  br i1 %cmp.i255.i, label %if.then.i257.i, label %if.else.i256.i

if.then.i257.i:                                   ; preds = %_ZN11struct_pack6detail8unpackerINS0_13memory_readerELm3EE27deserialize_one_fast_varintILm15ELb1ELm2ELm1EiEENS_4errcERAT2__cRjRT3_.exit.i254.i
  %181 = load i32, ptr %ec.i241.i, align 4
  store i32 %181, ptr %retval.i235.i, align 4
  br label %_ZN11struct_pack6detail8unpackerINS0_13memory_readerELm3EE30deserialize_fast_varint_helperILm15ELb1ELm2ELm1EiJiEEENS_4errcERAT2__cRjRT3_DpRT4_.exit.i

if.else.i256.i:                                   ; preds = %_ZN11struct_pack6detail8unpackerINS0_13memory_readerELm3EE27deserialize_one_fast_varintILm15ELb1ELm2ELm1EiEENS_4errcERAT2__cRjRT3_.exit.i254.i
  %182 = load ptr, ptr %vec.addr.i237.i, align 8
  %183 = load ptr, ptr %i.addr.i238.i, align 8
  %184 = load ptr, ptr %items.addr.i240.i, align 8
  store ptr %this1.i242.i, ptr %this.addr.i277.i, align 8
  store ptr %182, ptr %vec.addr.i278.i, align 8
  store ptr %183, ptr %i.addr.i279.i, align 8
  store ptr %184, ptr %item.addr.i280.i, align 8
  %this1.i282.i = load ptr, ptr %this.addr.i277.i, align 8
  %185 = load ptr, ptr %vec.addr.i278.i, align 8
  %186 = load ptr, ptr %i.addr.i279.i, align 8
  %187 = load ptr, ptr %item.addr.i280.i, align 8
  store ptr %this1.i282.i, ptr %this.addr.i.i269.i, align 8
  store ptr %185, ptr %vec.addr.i.i270.i, align 8
  store ptr %186, ptr %i.addr.i.i271.i, align 8
  store ptr %187, ptr %item.addr.i.i272.i, align 8
  %this1.i.i283.i = load ptr, ptr %this.addr.i.i269.i, align 8
  store i64 2, ptr %real_width.i.i273.i, align 8
  %188 = load ptr, ptr %i.addr.i.i271.i, align 8
  %189 = load i32, ptr %188, align 4
  %inc.i.i284.i = add i32 %189, 1
  store i32 %inc.i.i284.i, ptr %188, align 4
  store i32 %189, ptr %index.i.i274.i, align 4
  %190 = load ptr, ptr %vec.addr.i.i270.i, align 8
  %191 = load i32, ptr %index.i.i274.i, align 4
  %div.i.i285.i = udiv i32 %191, 8
  %idxprom.i.i286.i = zext i32 %div.i.i285.i to i64
  %arrayidx.i.i287.i = getelementptr inbounds [1 x i8], ptr %190, i64 0, i64 %idxprom.i.i286.i
  %192 = load i8, ptr %arrayidx.i.i287.i, align 1
  %conv.i.i288.i = sext i8 %192 to i32
  %193 = load i32, ptr %index.i.i274.i, align 4
  %rem.i.i289.i = urem i32 %193, 8
  %shl.i.i290.i = shl i32 1, %rem.i.i289.i
  %and.i.i291.i = and i32 %conv.i.i288.i, %shl.i.i290.i
  %tobool.i.i292.i = icmp ne i32 %and.i.i291.i, 0
  br i1 %tobool.i.i292.i, label %if.end.i.i295.i, label %if.then.i.i293.i

if.then.i.i293.i:                                 ; preds = %if.else.i256.i
  store i32 0, ptr %retval.i.i268.i, align 4
  br label %_ZN11struct_pack6detail8unpackerINS0_13memory_readerELm3EE30deserialize_fast_varint_helperILm15ELb1ELm2ELm1EiJEEENS_4errcERAT2__cRjRT3_DpRT4_.exit.i

if.end.i.i295.i:                                  ; preds = %if.else.i256.i
  store i8 0, ptr %ec.i.i275.i, align 1
  %reader_.i.i296.i = getelementptr inbounds %"class.struct_pack::detail::unpacker", ptr %this1.i.i283.i, i32 0, i32 1
  %194 = load ptr, ptr %reader_.i.i296.i, align 8
  call void @llvm.experimental.noalias.scope.decl(metadata !86)
  store ptr %194, ptr %reader.addr.i.i266.i, align 8, !noalias !86
  store ptr %target.i.i276.i, ptr %data.addr.i.i267.i, align 8, !noalias !86
  %195 = load ptr, ptr %reader.addr.i.i266.i, align 8, !noalias !86
  %196 = load ptr, ptr %data.addr.i.i267.i, align 8, !noalias !86
  %call.i2.i297.i = call noundef zeroext i1 @_ZN11struct_pack6detail13memory_reader4readEPcm(ptr noundef nonnull align 8 dereferenceable(16) %195, ptr noundef %196, i64 noundef 2)
  %frombool.i.i298.i = zext i1 %call.i2.i297.i to i8
  store i8 %frombool.i.i298.i, ptr %ec.i.i275.i, align 1
  %197 = load i8, ptr %ec.i.i275.i, align 1
  %tobool2.i.i299.i = trunc i8 %197 to i1
  br i1 %tobool2.i.i299.i, label %if.end4.i.i301.i, label %if.then3.i.i300.i

if.then3.i.i300.i:                                ; preds = %if.end.i.i295.i
  store i32 1, ptr %retval.i.i268.i, align 4
  br label %_ZN11struct_pack6detail8unpackerINS0_13memory_readerELm3EE30deserialize_fast_varint_helperILm15ELb1ELm2ELm1EiJEEENS_4errcERAT2__cRjRT3_DpRT4_.exit.i

if.end4.i.i301.i:                                 ; preds = %if.end.i.i295.i
  %198 = load i16, ptr %target.i.i276.i, align 2
  %conv5.i.i302.i = sext i16 %198 to i32
  %199 = load ptr, ptr %item.addr.i.i272.i, align 8
  store i32 %conv5.i.i302.i, ptr %199, align 4
  store i32 0, ptr %retval.i.i268.i, align 4
  br label %_ZN11struct_pack6detail8unpackerINS0_13memory_readerELm3EE30deserialize_fast_varint_helperILm15ELb1ELm2ELm1EiJEEENS_4errcERAT2__cRjRT3_DpRT4_.exit.i

_ZN11struct_pack6detail8unpackerINS0_13memory_readerELm3EE30deserialize_fast_varint_helperILm15ELb1ELm2ELm1EiJEEENS_4errcERAT2__cRjRT3_DpRT4_.exit.i: ; preds = %if.end4.i.i301.i, %if.then3.i.i300.i, %if.then.i.i293.i
  %200 = load i32, ptr %retval.i.i268.i, align 4
  store i32 %200, ptr %ec.i281.i, align 4
  %201 = load i32, ptr %ec.i281.i, align 4
  store i32 %201, ptr %retval.i235.i, align 4
  br label %_ZN11struct_pack6detail8unpackerINS0_13memory_readerELm3EE30deserialize_fast_varint_helperILm15ELb1ELm2ELm1EiJiEEENS_4errcERAT2__cRjRT3_DpRT4_.exit.i

_ZN11struct_pack6detail8unpackerINS0_13memory_readerELm3EE30deserialize_fast_varint_helperILm15ELb1ELm2ELm1EiJiEEENS_4errcERAT2__cRjRT3_DpRT4_.exit.i: ; preds = %_ZN11struct_pack6detail8unpackerINS0_13memory_readerELm3EE30deserialize_fast_varint_helperILm15ELb1ELm2ELm1EiJEEENS_4errcERAT2__cRjRT3_DpRT4_.exit.i, %if.then.i257.i
  %202 = load i32, ptr %retval.i235.i, align 4
  store i32 %202, ptr %retval.i188.i, align 4
  br label %_ZN11struct_pack6detail8unpackerINS0_13memory_readerELm3EE30deserialize_fast_varint_helperILm15ELb1ELm2ELm1EiJiiEEENS_4errcERAT2__cRjRT3_DpRT4_.exit.i

_ZN11struct_pack6detail8unpackerINS0_13memory_readerELm3EE30deserialize_fast_varint_helperILm15ELb1ELm2ELm1EiJiiEEENS_4errcERAT2__cRjRT3_DpRT4_.exit.i: ; preds = %_ZN11struct_pack6detail8unpackerINS0_13memory_readerELm3EE30deserialize_fast_varint_helperILm15ELb1ELm2ELm1EiJiEEENS_4errcERAT2__cRjRT3_DpRT4_.exit.i, %if.then.i210.i
  %203 = load i32, ptr %retval.i188.i, align 4
  store i32 %203, ptr %retval.i16.i, align 4
  br label %_ZN11struct_pack6detail8unpackerINS0_13memory_readerELm3EE30deserialize_fast_varint_helperILm15ELb1ELm2ELm1EiJiiiEEENS_4errcERAT2__cRjRT3_DpRT4_.exit.i

_ZN11struct_pack6detail8unpackerINS0_13memory_readerELm3EE30deserialize_fast_varint_helperILm15ELb1ELm2ELm1EiJiiiEEENS_4errcERAT2__cRjRT3_DpRT4_.exit.i: ; preds = %_ZN11struct_pack6detail8unpackerINS0_13memory_readerELm3EE30deserialize_fast_varint_helperILm15ELb1ELm2ELm1EiJiiEEENS_4errcERAT2__cRjRT3_DpRT4_.exit.i, %if.then.i30.i
  %204 = load i32, ptr %retval.i16.i, align 4
  store i32 %204, ptr %ec18.i.i, align 4
  br label %sw.epilog.i.i

sw.bb22.i.i:                                      ; preds = %if.end.i.i
  %205 = load ptr, ptr %items.addr.i.i, align 8
  %206 = load ptr, ptr %items.addr2.i.i, align 8
  %207 = load ptr, ptr %items.addr4.i.i, align 8
  %208 = load ptr, ptr %items.addr6.i.i, align 8
  store ptr %this7.i.i, ptr %this.addr.i32.i, align 8
  store ptr %vec.i.i, ptr %vec.addr.i33.i, align 8
  store ptr %i.i.i, ptr %i.addr.i34.i, align 8
  store ptr %205, ptr %item.addr.i35.i, align 8
  store ptr %206, ptr %items.addr.i36.i, align 8
  store ptr %207, ptr %items.addr2.i37.i, align 8
  store ptr %208, ptr %items.addr4.i38.i, align 8
  %this5.i40.i = load ptr, ptr %this.addr.i32.i, align 8
  %209 = load ptr, ptr %vec.addr.i33.i, align 8
  %210 = load ptr, ptr %i.addr.i34.i, align 8
  %211 = load ptr, ptr %item.addr.i35.i, align 8
  store ptr %this5.i40.i, ptr %this.addr.i304.i, align 8
  store ptr %209, ptr %vec.addr.i305.i, align 8
  store ptr %210, ptr %i.addr.i306.i, align 8
  store ptr %211, ptr %item.addr.i307.i, align 8
  %this1.i312.i = load ptr, ptr %this.addr.i304.i, align 8
  store i64 4, ptr %real_width.i308.i, align 8
  %212 = load ptr, ptr %i.addr.i306.i, align 8
  %213 = load i32, ptr %212, align 4
  %inc.i313.i = add i32 %213, 1
  store i32 %inc.i313.i, ptr %212, align 4
  store i32 %213, ptr %index.i309.i, align 4
  %214 = load ptr, ptr %vec.addr.i305.i, align 8
  %215 = load i32, ptr %index.i309.i, align 4
  %div.i314.i = udiv i32 %215, 8
  %idxprom.i315.i = zext i32 %div.i314.i to i64
  %arrayidx.i316.i = getelementptr inbounds [1 x i8], ptr %214, i64 0, i64 %idxprom.i315.i
  %216 = load i8, ptr %arrayidx.i316.i, align 1
  %conv.i317.i = sext i8 %216 to i32
  %217 = load i32, ptr %index.i309.i, align 4
  %rem.i318.i = urem i32 %217, 8
  %shl.i319.i = shl i32 1, %rem.i318.i
  %and.i320.i = and i32 %conv.i317.i, %shl.i319.i
  %tobool.i321.i = icmp ne i32 %and.i320.i, 0
  br i1 %tobool.i321.i, label %if.end.i323.i, label %if.then.i322.i

if.then.i322.i:                                   ; preds = %sw.bb22.i.i
  store i32 0, ptr %retval.i303.i, align 4
  br label %_ZN11struct_pack6detail8unpackerINS0_13memory_readerELm3EE27deserialize_one_fast_varintILm15ELb1ELm4ELm1EiEENS_4errcERAT2__cRjRT3_.exit.i

if.end.i323.i:                                    ; preds = %sw.bb22.i.i
  store i8 0, ptr %ec.i310.i, align 1
  %reader_.i324.i = getelementptr inbounds %"class.struct_pack::detail::unpacker", ptr %this1.i312.i, i32 0, i32 1
  %218 = load ptr, ptr %reader_.i324.i, align 8
  call void @llvm.experimental.noalias.scope.decl(metadata !89)
  store ptr %218, ptr %reader.addr.i371.i, align 8, !noalias !89
  store ptr %target.i311.i, ptr %data.addr.i372.i, align 8, !noalias !89
  %219 = load ptr, ptr %reader.addr.i371.i, align 8, !noalias !89
  %220 = load ptr, ptr %data.addr.i372.i, align 8, !noalias !89
  %call.i373.i = call noundef zeroext i1 @_ZN11struct_pack6detail13memory_reader4readEPcm(ptr noundef nonnull align 8 dereferenceable(16) %219, ptr noundef %220, i64 noundef 4)
  %frombool.i326.i = zext i1 %call.i373.i to i8
  store i8 %frombool.i326.i, ptr %ec.i310.i, align 1
  %221 = load i8, ptr %ec.i310.i, align 1
  %tobool2.i327.i = trunc i8 %221 to i1
  br i1 %tobool2.i327.i, label %if.end4.i329.i, label %if.then3.i328.i

if.then3.i328.i:                                  ; preds = %if.end.i323.i
  store i32 1, ptr %retval.i303.i, align 4
  br label %_ZN11struct_pack6detail8unpackerINS0_13memory_readerELm3EE27deserialize_one_fast_varintILm15ELb1ELm4ELm1EiEENS_4errcERAT2__cRjRT3_.exit.i

if.end4.i329.i:                                   ; preds = %if.end.i323.i
  %222 = load i32, ptr %target.i311.i, align 4
  %223 = load ptr, ptr %item.addr.i307.i, align 8
  store i32 %222, ptr %223, align 4
  store i32 0, ptr %retval.i303.i, align 4
  br label %_ZN11struct_pack6detail8unpackerINS0_13memory_readerELm3EE27deserialize_one_fast_varintILm15ELb1ELm4ELm1EiEENS_4errcERAT2__cRjRT3_.exit.i

_ZN11struct_pack6detail8unpackerINS0_13memory_readerELm3EE27deserialize_one_fast_varintILm15ELb1ELm4ELm1EiEENS_4errcERAT2__cRjRT3_.exit.i: ; preds = %if.end4.i329.i, %if.then3.i328.i, %if.then.i322.i
  %224 = load i32, ptr %retval.i303.i, align 4
  store i32 %224, ptr %ec.i39.i, align 4
  %225 = load i32, ptr %ec.i39.i, align 4
  %cmp.i42.i = icmp ne i32 %225, 0
  br i1 %cmp.i42.i, label %if.then.i45.i, label %if.else.i43.i

if.then.i45.i:                                    ; preds = %_ZN11struct_pack6detail8unpackerINS0_13memory_readerELm3EE27deserialize_one_fast_varintILm15ELb1ELm4ELm1EiEENS_4errcERAT2__cRjRT3_.exit.i
  %226 = load i32, ptr %ec.i39.i, align 4
  store i32 %226, ptr %retval.i31.i, align 4
  br label %_ZN11struct_pack6detail8unpackerINS0_13memory_readerELm3EE30deserialize_fast_varint_helperILm15ELb1ELm4ELm1EiJiiiEEENS_4errcERAT2__cRjRT3_DpRT4_.exit.i

if.else.i43.i:                                    ; preds = %_ZN11struct_pack6detail8unpackerINS0_13memory_readerELm3EE27deserialize_one_fast_varintILm15ELb1ELm4ELm1EiEENS_4errcERAT2__cRjRT3_.exit.i
  %227 = load ptr, ptr %vec.addr.i33.i, align 8
  %228 = load ptr, ptr %i.addr.i34.i, align 8
  %229 = load ptr, ptr %items.addr.i36.i, align 8
  %230 = load ptr, ptr %items.addr2.i37.i, align 8
  %231 = load ptr, ptr %items.addr4.i38.i, align 8
  store ptr %this5.i40.i, ptr %this.addr.i340.i, align 8
  store ptr %227, ptr %vec.addr.i341.i, align 8
  store ptr %228, ptr %i.addr.i342.i, align 8
  store ptr %229, ptr %item.addr.i343.i, align 8
  store ptr %230, ptr %items.addr.i344.i, align 8
  store ptr %231, ptr %items.addr2.i345.i, align 8
  %this3.i347.i = load ptr, ptr %this.addr.i340.i, align 8
  %232 = load ptr, ptr %vec.addr.i341.i, align 8
  %233 = load ptr, ptr %i.addr.i342.i, align 8
  %234 = load ptr, ptr %item.addr.i343.i, align 8
  store ptr %this3.i347.i, ptr %this.addr.i.i331.i, align 8
  store ptr %232, ptr %vec.addr.i.i332.i, align 8
  store ptr %233, ptr %i.addr.i.i333.i, align 8
  store ptr %234, ptr %item.addr.i.i334.i, align 8
  %this1.i.i348.i = load ptr, ptr %this.addr.i.i331.i, align 8
  store i64 4, ptr %real_width.i.i335.i, align 8
  %235 = load ptr, ptr %i.addr.i.i333.i, align 8
  %236 = load i32, ptr %235, align 4
  %inc.i.i349.i = add i32 %236, 1
  store i32 %inc.i.i349.i, ptr %235, align 4
  store i32 %236, ptr %index.i.i336.i, align 4
  %237 = load ptr, ptr %vec.addr.i.i332.i, align 8
  %238 = load i32, ptr %index.i.i336.i, align 4
  %div.i.i350.i = udiv i32 %238, 8
  %idxprom.i.i351.i = zext i32 %div.i.i350.i to i64
  %arrayidx.i.i352.i = getelementptr inbounds [1 x i8], ptr %237, i64 0, i64 %idxprom.i.i351.i
  %239 = load i8, ptr %arrayidx.i.i352.i, align 1
  %conv.i.i353.i = sext i8 %239 to i32
  %240 = load i32, ptr %index.i.i336.i, align 4
  %rem.i.i354.i = urem i32 %240, 8
  %shl.i.i355.i = shl i32 1, %rem.i.i354.i
  %and.i.i356.i = and i32 %conv.i.i353.i, %shl.i.i355.i
  %tobool.i.i357.i = icmp ne i32 %and.i.i356.i, 0
  br i1 %tobool.i.i357.i, label %if.end.i.i362.i, label %if.then.i.i358.i

if.then.i.i358.i:                                 ; preds = %if.else.i43.i
  store i32 0, ptr %retval.i.i330.i, align 4
  br label %_ZN11struct_pack6detail8unpackerINS0_13memory_readerELm3EE27deserialize_one_fast_varintILm15ELb1ELm4ELm1EiEENS_4errcERAT2__cRjRT3_.exit.i.i

if.end.i.i362.i:                                  ; preds = %if.else.i43.i
  store i8 0, ptr %ec.i.i337.i, align 1
  %reader_.i.i363.i = getelementptr inbounds %"class.struct_pack::detail::unpacker", ptr %this1.i.i348.i, i32 0, i32 1
  %241 = load ptr, ptr %reader_.i.i363.i, align 8
  call void @llvm.experimental.noalias.scope.decl(metadata !92)
  store ptr %241, ptr %reader.addr.i368.i, align 8, !noalias !92
  store ptr %target.i.i338.i, ptr %data.addr.i369.i, align 8, !noalias !92
  %242 = load ptr, ptr %reader.addr.i368.i, align 8, !noalias !92
  %243 = load ptr, ptr %data.addr.i369.i, align 8, !noalias !92
  %call.i370.i = call noundef zeroext i1 @_ZN11struct_pack6detail13memory_reader4readEPcm(ptr noundef nonnull align 8 dereferenceable(16) %242, ptr noundef %243, i64 noundef 4)
  %frombool.i.i364.i = zext i1 %call.i370.i to i8
  store i8 %frombool.i.i364.i, ptr %ec.i.i337.i, align 1
  %244 = load i8, ptr %ec.i.i337.i, align 1
  %tobool2.i.i365.i = trunc i8 %244 to i1
  br i1 %tobool2.i.i365.i, label %if.end4.i.i367.i, label %if.then3.i.i366.i

if.then3.i.i366.i:                                ; preds = %if.end.i.i362.i
  store i32 1, ptr %retval.i.i330.i, align 4
  br label %_ZN11struct_pack6detail8unpackerINS0_13memory_readerELm3EE27deserialize_one_fast_varintILm15ELb1ELm4ELm1EiEENS_4errcERAT2__cRjRT3_.exit.i.i

if.end4.i.i367.i:                                 ; preds = %if.end.i.i362.i
  %245 = load i32, ptr %target.i.i338.i, align 4
  %246 = load ptr, ptr %item.addr.i.i334.i, align 8
  store i32 %245, ptr %246, align 4
  store i32 0, ptr %retval.i.i330.i, align 4
  br label %_ZN11struct_pack6detail8unpackerINS0_13memory_readerELm3EE27deserialize_one_fast_varintILm15ELb1ELm4ELm1EiEENS_4errcERAT2__cRjRT3_.exit.i.i

_ZN11struct_pack6detail8unpackerINS0_13memory_readerELm3EE27deserialize_one_fast_varintILm15ELb1ELm4ELm1EiEENS_4errcERAT2__cRjRT3_.exit.i.i: ; preds = %if.end4.i.i367.i, %if.then3.i.i366.i, %if.then.i.i358.i
  %247 = load i32, ptr %retval.i.i330.i, align 4
  store i32 %247, ptr %ec.i346.i, align 4
  %248 = load i32, ptr %ec.i346.i, align 4
  %cmp.i359.i = icmp ne i32 %248, 0
  br i1 %cmp.i359.i, label %if.then.i361.i, label %if.else.i360.i

if.then.i361.i:                                   ; preds = %_ZN11struct_pack6detail8unpackerINS0_13memory_readerELm3EE27deserialize_one_fast_varintILm15ELb1ELm4ELm1EiEENS_4errcERAT2__cRjRT3_.exit.i.i
  %249 = load i32, ptr %ec.i346.i, align 4
  store i32 %249, ptr %retval.i339.i, align 4
  br label %_ZN11struct_pack6detail8unpackerINS0_13memory_readerELm3EE30deserialize_fast_varint_helperILm15ELb1ELm4ELm1EiJiiEEENS_4errcERAT2__cRjRT3_DpRT4_.exit.i

if.else.i360.i:                                   ; preds = %_ZN11struct_pack6detail8unpackerINS0_13memory_readerELm3EE27deserialize_one_fast_varintILm15ELb1ELm4ELm1EiEENS_4errcERAT2__cRjRT3_.exit.i.i
  %250 = load ptr, ptr %vec.addr.i341.i, align 8
  %251 = load ptr, ptr %i.addr.i342.i, align 8
  %252 = load ptr, ptr %items.addr.i344.i, align 8
  %253 = load ptr, ptr %items.addr2.i345.i, align 8
  store ptr %this3.i347.i, ptr %this.addr.i386.i, align 8
  store ptr %250, ptr %vec.addr.i387.i, align 8
  store ptr %251, ptr %i.addr.i388.i, align 8
  store ptr %252, ptr %item.addr.i389.i, align 8
  store ptr %253, ptr %items.addr.i390.i, align 8
  %this1.i392.i = load ptr, ptr %this.addr.i386.i, align 8
  %254 = load ptr, ptr %vec.addr.i387.i, align 8
  %255 = load ptr, ptr %i.addr.i388.i, align 8
  %256 = load ptr, ptr %item.addr.i389.i, align 8
  store ptr %this1.i392.i, ptr %this.addr.i.i377.i, align 8
  store ptr %254, ptr %vec.addr.i.i378.i, align 8
  store ptr %255, ptr %i.addr.i.i379.i, align 8
  store ptr %256, ptr %item.addr.i.i380.i, align 8
  %this1.i.i393.i = load ptr, ptr %this.addr.i.i377.i, align 8
  store i64 4, ptr %real_width.i.i381.i, align 8
  %257 = load ptr, ptr %i.addr.i.i379.i, align 8
  %258 = load i32, ptr %257, align 4
  %inc.i.i394.i = add i32 %258, 1
  store i32 %inc.i.i394.i, ptr %257, align 4
  store i32 %258, ptr %index.i.i382.i, align 4
  %259 = load ptr, ptr %vec.addr.i.i378.i, align 8
  %260 = load i32, ptr %index.i.i382.i, align 4
  %div.i.i395.i = udiv i32 %260, 8
  %idxprom.i.i396.i = zext i32 %div.i.i395.i to i64
  %arrayidx.i.i397.i = getelementptr inbounds [1 x i8], ptr %259, i64 0, i64 %idxprom.i.i396.i
  %261 = load i8, ptr %arrayidx.i.i397.i, align 1
  %conv.i.i398.i = sext i8 %261 to i32
  %262 = load i32, ptr %index.i.i382.i, align 4
  %rem.i.i399.i = urem i32 %262, 8
  %shl.i.i400.i = shl i32 1, %rem.i.i399.i
  %and.i.i401.i = and i32 %conv.i.i398.i, %shl.i.i400.i
  %tobool.i.i402.i = icmp ne i32 %and.i.i401.i, 0
  br i1 %tobool.i.i402.i, label %if.end.i.i408.i, label %if.then.i.i403.i

if.then.i.i403.i:                                 ; preds = %if.else.i360.i
  store i32 0, ptr %retval.i.i376.i, align 4
  br label %_ZN11struct_pack6detail8unpackerINS0_13memory_readerELm3EE27deserialize_one_fast_varintILm15ELb1ELm4ELm1EiEENS_4errcERAT2__cRjRT3_.exit.i404.i

if.end.i.i408.i:                                  ; preds = %if.else.i360.i
  store i8 0, ptr %ec.i.i383.i, align 1
  %reader_.i.i409.i = getelementptr inbounds %"class.struct_pack::detail::unpacker", ptr %this1.i.i393.i, i32 0, i32 1
  %263 = load ptr, ptr %reader_.i.i409.i, align 8
  call void @llvm.experimental.noalias.scope.decl(metadata !95)
  store ptr %263, ptr %reader.addr.i.i374.i, align 8, !noalias !95
  store ptr %target.i.i384.i, ptr %data.addr.i.i375.i, align 8, !noalias !95
  %264 = load ptr, ptr %reader.addr.i.i374.i, align 8, !noalias !95
  %265 = load ptr, ptr %data.addr.i.i375.i, align 8, !noalias !95
  %call.i3.i410.i = call noundef zeroext i1 @_ZN11struct_pack6detail13memory_reader4readEPcm(ptr noundef nonnull align 8 dereferenceable(16) %264, ptr noundef %265, i64 noundef 4)
  %frombool.i.i411.i = zext i1 %call.i3.i410.i to i8
  store i8 %frombool.i.i411.i, ptr %ec.i.i383.i, align 1
  %266 = load i8, ptr %ec.i.i383.i, align 1
  %tobool2.i.i412.i = trunc i8 %266 to i1
  br i1 %tobool2.i.i412.i, label %if.end4.i.i414.i, label %if.then3.i.i413.i

if.then3.i.i413.i:                                ; preds = %if.end.i.i408.i
  store i32 1, ptr %retval.i.i376.i, align 4
  br label %_ZN11struct_pack6detail8unpackerINS0_13memory_readerELm3EE27deserialize_one_fast_varintILm15ELb1ELm4ELm1EiEENS_4errcERAT2__cRjRT3_.exit.i404.i

if.end4.i.i414.i:                                 ; preds = %if.end.i.i408.i
  %267 = load i32, ptr %target.i.i384.i, align 4
  %268 = load ptr, ptr %item.addr.i.i380.i, align 8
  store i32 %267, ptr %268, align 4
  store i32 0, ptr %retval.i.i376.i, align 4
  br label %_ZN11struct_pack6detail8unpackerINS0_13memory_readerELm3EE27deserialize_one_fast_varintILm15ELb1ELm4ELm1EiEENS_4errcERAT2__cRjRT3_.exit.i404.i

_ZN11struct_pack6detail8unpackerINS0_13memory_readerELm3EE27deserialize_one_fast_varintILm15ELb1ELm4ELm1EiEENS_4errcERAT2__cRjRT3_.exit.i404.i: ; preds = %if.end4.i.i414.i, %if.then3.i.i413.i, %if.then.i.i403.i
  %269 = load i32, ptr %retval.i.i376.i, align 4
  store i32 %269, ptr %ec.i391.i, align 4
  %270 = load i32, ptr %ec.i391.i, align 4
  %cmp.i405.i = icmp ne i32 %270, 0
  br i1 %cmp.i405.i, label %if.then.i407.i, label %if.else.i406.i

if.then.i407.i:                                   ; preds = %_ZN11struct_pack6detail8unpackerINS0_13memory_readerELm3EE27deserialize_one_fast_varintILm15ELb1ELm4ELm1EiEENS_4errcERAT2__cRjRT3_.exit.i404.i
  %271 = load i32, ptr %ec.i391.i, align 4
  store i32 %271, ptr %retval.i385.i, align 4
  br label %_ZN11struct_pack6detail8unpackerINS0_13memory_readerELm3EE30deserialize_fast_varint_helperILm15ELb1ELm4ELm1EiJiEEENS_4errcERAT2__cRjRT3_DpRT4_.exit.i

if.else.i406.i:                                   ; preds = %_ZN11struct_pack6detail8unpackerINS0_13memory_readerELm3EE27deserialize_one_fast_varintILm15ELb1ELm4ELm1EiEENS_4errcERAT2__cRjRT3_.exit.i404.i
  %272 = load ptr, ptr %vec.addr.i387.i, align 8
  %273 = load ptr, ptr %i.addr.i388.i, align 8
  %274 = load ptr, ptr %items.addr.i390.i, align 8
  store ptr %this1.i392.i, ptr %this.addr.i426.i, align 8
  store ptr %272, ptr %vec.addr.i427.i, align 8
  store ptr %273, ptr %i.addr.i428.i, align 8
  store ptr %274, ptr %item.addr.i429.i, align 8
  %this1.i431.i = load ptr, ptr %this.addr.i426.i, align 8
  %275 = load ptr, ptr %vec.addr.i427.i, align 8
  %276 = load ptr, ptr %i.addr.i428.i, align 8
  %277 = load ptr, ptr %item.addr.i429.i, align 8
  store ptr %this1.i431.i, ptr %this.addr.i.i418.i, align 8
  store ptr %275, ptr %vec.addr.i.i419.i, align 8
  store ptr %276, ptr %i.addr.i.i420.i, align 8
  store ptr %277, ptr %item.addr.i.i421.i, align 8
  %this1.i.i432.i = load ptr, ptr %this.addr.i.i418.i, align 8
  store i64 4, ptr %real_width.i.i422.i, align 8
  %278 = load ptr, ptr %i.addr.i.i420.i, align 8
  %279 = load i32, ptr %278, align 4
  %inc.i.i433.i = add i32 %279, 1
  store i32 %inc.i.i433.i, ptr %278, align 4
  store i32 %279, ptr %index.i.i423.i, align 4
  %280 = load ptr, ptr %vec.addr.i.i419.i, align 8
  %281 = load i32, ptr %index.i.i423.i, align 4
  %div.i.i434.i = udiv i32 %281, 8
  %idxprom.i.i435.i = zext i32 %div.i.i434.i to i64
  %arrayidx.i.i436.i = getelementptr inbounds [1 x i8], ptr %280, i64 0, i64 %idxprom.i.i435.i
  %282 = load i8, ptr %arrayidx.i.i436.i, align 1
  %conv.i.i437.i = sext i8 %282 to i32
  %283 = load i32, ptr %index.i.i423.i, align 4
  %rem.i.i438.i = urem i32 %283, 8
  %shl.i.i439.i = shl i32 1, %rem.i.i438.i
  %and.i.i440.i = and i32 %conv.i.i437.i, %shl.i.i439.i
  %tobool.i.i441.i = icmp ne i32 %and.i.i440.i, 0
  br i1 %tobool.i.i441.i, label %if.end.i.i444.i, label %if.then.i.i442.i

if.then.i.i442.i:                                 ; preds = %if.else.i406.i
  store i32 0, ptr %retval.i.i417.i, align 4
  br label %_ZN11struct_pack6detail8unpackerINS0_13memory_readerELm3EE30deserialize_fast_varint_helperILm15ELb1ELm4ELm1EiJEEENS_4errcERAT2__cRjRT3_DpRT4_.exit.i

if.end.i.i444.i:                                  ; preds = %if.else.i406.i
  store i8 0, ptr %ec.i.i424.i, align 1
  %reader_.i.i445.i = getelementptr inbounds %"class.struct_pack::detail::unpacker", ptr %this1.i.i432.i, i32 0, i32 1
  %284 = load ptr, ptr %reader_.i.i445.i, align 8
  call void @llvm.experimental.noalias.scope.decl(metadata !98)
  store ptr %284, ptr %reader.addr.i.i415.i, align 8, !noalias !98
  store ptr %target.i.i425.i, ptr %data.addr.i.i416.i, align 8, !noalias !98
  %285 = load ptr, ptr %reader.addr.i.i415.i, align 8, !noalias !98
  %286 = load ptr, ptr %data.addr.i.i416.i, align 8, !noalias !98
  %call.i2.i446.i = call noundef zeroext i1 @_ZN11struct_pack6detail13memory_reader4readEPcm(ptr noundef nonnull align 8 dereferenceable(16) %285, ptr noundef %286, i64 noundef 4)
  %frombool.i.i447.i = zext i1 %call.i2.i446.i to i8
  store i8 %frombool.i.i447.i, ptr %ec.i.i424.i, align 1
  %287 = load i8, ptr %ec.i.i424.i, align 1
  %tobool2.i.i448.i = trunc i8 %287 to i1
  br i1 %tobool2.i.i448.i, label %if.end4.i.i450.i, label %if.then3.i.i449.i

if.then3.i.i449.i:                                ; preds = %if.end.i.i444.i
  store i32 1, ptr %retval.i.i417.i, align 4
  br label %_ZN11struct_pack6detail8unpackerINS0_13memory_readerELm3EE30deserialize_fast_varint_helperILm15ELb1ELm4ELm1EiJEEENS_4errcERAT2__cRjRT3_DpRT4_.exit.i

if.end4.i.i450.i:                                 ; preds = %if.end.i.i444.i
  %288 = load i32, ptr %target.i.i425.i, align 4
  %289 = load ptr, ptr %item.addr.i.i421.i, align 8
  store i32 %288, ptr %289, align 4
  store i32 0, ptr %retval.i.i417.i, align 4
  br label %_ZN11struct_pack6detail8unpackerINS0_13memory_readerELm3EE30deserialize_fast_varint_helperILm15ELb1ELm4ELm1EiJEEENS_4errcERAT2__cRjRT3_DpRT4_.exit.i

_ZN11struct_pack6detail8unpackerINS0_13memory_readerELm3EE30deserialize_fast_varint_helperILm15ELb1ELm4ELm1EiJEEENS_4errcERAT2__cRjRT3_DpRT4_.exit.i: ; preds = %if.end4.i.i450.i, %if.then3.i.i449.i, %if.then.i.i442.i
  %290 = load i32, ptr %retval.i.i417.i, align 4
  store i32 %290, ptr %ec.i430.i, align 4
  %291 = load i32, ptr %ec.i430.i, align 4
  store i32 %291, ptr %retval.i385.i, align 4
  br label %_ZN11struct_pack6detail8unpackerINS0_13memory_readerELm3EE30deserialize_fast_varint_helperILm15ELb1ELm4ELm1EiJiEEENS_4errcERAT2__cRjRT3_DpRT4_.exit.i

_ZN11struct_pack6detail8unpackerINS0_13memory_readerELm3EE30deserialize_fast_varint_helperILm15ELb1ELm4ELm1EiJiEEENS_4errcERAT2__cRjRT3_DpRT4_.exit.i: ; preds = %_ZN11struct_pack6detail8unpackerINS0_13memory_readerELm3EE30deserialize_fast_varint_helperILm15ELb1ELm4ELm1EiJEEENS_4errcERAT2__cRjRT3_DpRT4_.exit.i, %if.then.i407.i
  %292 = load i32, ptr %retval.i385.i, align 4
  store i32 %292, ptr %retval.i339.i, align 4
  br label %_ZN11struct_pack6detail8unpackerINS0_13memory_readerELm3EE30deserialize_fast_varint_helperILm15ELb1ELm4ELm1EiJiiEEENS_4errcERAT2__cRjRT3_DpRT4_.exit.i

_ZN11struct_pack6detail8unpackerINS0_13memory_readerELm3EE30deserialize_fast_varint_helperILm15ELb1ELm4ELm1EiJiiEEENS_4errcERAT2__cRjRT3_DpRT4_.exit.i: ; preds = %_ZN11struct_pack6detail8unpackerINS0_13memory_readerELm3EE30deserialize_fast_varint_helperILm15ELb1ELm4ELm1EiJiEEENS_4errcERAT2__cRjRT3_DpRT4_.exit.i, %if.then.i361.i
  %293 = load i32, ptr %retval.i339.i, align 4
  store i32 %293, ptr %retval.i31.i, align 4
  br label %_ZN11struct_pack6detail8unpackerINS0_13memory_readerELm3EE30deserialize_fast_varint_helperILm15ELb1ELm4ELm1EiJiiiEEENS_4errcERAT2__cRjRT3_DpRT4_.exit.i

_ZN11struct_pack6detail8unpackerINS0_13memory_readerELm3EE30deserialize_fast_varint_helperILm15ELb1ELm4ELm1EiJiiiEEENS_4errcERAT2__cRjRT3_DpRT4_.exit.i: ; preds = %_ZN11struct_pack6detail8unpackerINS0_13memory_readerELm3EE30deserialize_fast_varint_helperILm15ELb1ELm4ELm1EiJiiEEENS_4errcERAT2__cRjRT3_DpRT4_.exit.i, %if.then.i45.i
  %294 = load i32, ptr %retval.i31.i, align 4
  store i32 %294, ptr %ec18.i.i, align 4
  br label %sw.epilog.i.i

sw.bb24.i.i:                                      ; preds = %if.end.i.i
  store i32 2, ptr %retval.i.i, align 4
  br label %_ZZN11struct_pack6detail8unpackerINS0_13memory_readerELm3EE15deserialize_oneILm2ELm18446744073709551615ELb1ELm0E4rectEENS_4errcERT3_ENKUlDpOT_E_clIJRiSE_SE_SE_EEEDaSB_.exit

sw.default.i.i:                                   ; preds = %if.end.i.i
  call void @_ZN11struct_pack6detail11unreachableEv() #14
  unreachable

sw.epilog.i.i:                                    ; preds = %_ZN11struct_pack6detail8unpackerINS0_13memory_readerELm3EE30deserialize_fast_varint_helperILm15ELb1ELm4ELm1EiJiiiEEENS_4errcERAT2__cRjRT3_DpRT4_.exit.i, %_ZN11struct_pack6detail8unpackerINS0_13memory_readerELm3EE30deserialize_fast_varint_helperILm15ELb1ELm2ELm1EiJiiiEEENS_4errcERAT2__cRjRT3_DpRT4_.exit.i, %_ZN11struct_pack6detail8unpackerINS0_13memory_readerELm3EE30deserialize_fast_varint_helperILm15ELb1ELm1ELm1EiJiiiEEENS_4errcERAT2__cRjRT3_DpRT4_.exit.i
  %295 = load i32, ptr %ec18.i.i, align 4
  store i32 %295, ptr %retval.i.i, align 4
  br label %_ZZN11struct_pack6detail8unpackerINS0_13memory_readerELm3EE15deserialize_oneILm2ELm18446744073709551615ELb1ELm0E4rectEENS_4errcERT3_ENKUlDpOT_E_clIJRiSE_SE_SE_EEEDaSB_.exit

_ZZN11struct_pack6detail8unpackerINS0_13memory_readerELm3EE15deserialize_oneILm2ELm18446744073709551615ELb1ELm0E4rectEENS_4errcERT3_ENKUlDpOT_E_clIJRiSE_SE_SE_EEEDaSB_.exit: ; preds = %sw.epilog.i.i, %sw.bb24.i.i, %if.then.i.i
  %296 = load i32, ptr %retval.i.i, align 4
  store i32 %296, ptr %code, align 4
  %297 = load i32, ptr %code, align 4
  %cmp = icmp ne i32 %297, 0
  br i1 %cmp, label %if.then, label %if.end

if.then:                                          ; preds = %_ZZN11struct_pack6detail8unpackerINS0_13memory_readerELm3EE15deserialize_oneILm2ELm18446744073709551615ELb1ELm0E4rectEENS_4errcERT3_ENKUlDpOT_E_clIJRiSE_SE_SE_EEEDaSB_.exit
  %298 = load i32, ptr %code, align 4
  store i32 %298, ptr %retval, align 4
  br label %return

if.end:                                           ; preds = %_ZZN11struct_pack6detail8unpackerINS0_13memory_readerELm3EE15deserialize_oneILm2ELm18446744073709551615ELb1ELm0E4rectEENS_4errcERT3_ENKUlDpOT_E_clIJRiSE_SE_SE_EEEDaSB_.exit
  %299 = load ptr, ptr %item.addr, align 8
  %300 = getelementptr inbounds %class.anon.2, ptr %ref.tmp2, i32 0, i32 0
  store ptr %this1, ptr %300, align 8
  store ptr %299, ptr %object.addr.i4, align 8
  store ptr %ref.tmp2, ptr %visitor.addr.i5, align 8
  %301 = load ptr, ptr %object.addr.i4, align 8
  %302 = load ptr, ptr %visitor.addr.i5, align 8
  store ptr %301, ptr %object.addr.i10, align 8
  store ptr %302, ptr %visitor.addr.i11, align 8
  store i64 4, ptr %Count.i12, align 8
  %303 = load ptr, ptr %object.addr.i10, align 8
  store ptr %303, ptr %0, align 8
  %304 = load ptr, ptr %visitor.addr.i11, align 8
  %305 = load ptr, ptr %0, align 8
  %306 = load ptr, ptr %0, align 8
  %b.i13 = getelementptr inbounds %struct.rect, ptr %306, i32 0, i32 1
  %307 = load ptr, ptr %0, align 8
  %c.i14 = getelementptr inbounds %struct.rect, ptr %307, i32 0, i32 2
  %308 = load ptr, ptr %0, align 8
  %d.i15 = getelementptr inbounds %struct.rect, ptr %308, i32 0, i32 3
  store ptr %304, ptr %this.addr.i16, align 8
  store ptr %305, ptr %items.addr.i17, align 8
  store ptr %b.i13, ptr %items.addr2.i18, align 8
  store ptr %c.i14, ptr %items.addr4.i19, align 8
  store ptr %d.i15, ptr %items.addr6.i20, align 8
  %this7.i22 = load ptr, ptr %this.addr.i16, align 8
  %309 = load ptr, ptr %this7.i22, align 8
  store i64 15, ptr %tag.i21, align 8
  %310 = load ptr, ptr %items.addr.i17, align 8
  %311 = load ptr, ptr %items.addr2.i18, align 8
  %312 = load ptr, ptr %items.addr4.i19, align 8
  %313 = load ptr, ptr %items.addr6.i20, align 8
  store ptr %309, ptr %this.addr.i24, align 8
  store ptr %310, ptr %first_item.addr.i, align 8
  store ptr %311, ptr %items.addr.i25, align 8
  store ptr %312, ptr %items.addr2.i26, align 8
  store ptr %313, ptr %items.addr4.i27, align 8
  %this5.i = load ptr, ptr %this.addr.i24, align 8
  %314 = load ptr, ptr %first_item.addr.i, align 8
  %call.i = call noundef i32 @_ZN11struct_pack6detail8unpackerINS0_13memory_readerELm3EE15deserialize_oneILm2ELm18446744073709551615ELb1ELm15EiEENS_4errcERT3_(ptr noundef nonnull align 8 dereferenceable(17) %this5.i, ptr noundef nonnull align 4 dereferenceable(4) %314)
  store i32 %call.i, ptr %code.i, align 4
  %315 = load i32, ptr %code.i, align 4
  %cmp.i = icmp ne i32 %315, 0
  br i1 %cmp.i, label %if.then.i, label %if.end.i

if.then.i:                                        ; preds = %if.end
  %316 = load i32, ptr %code.i, align 4
  store i32 %316, ptr %retval.i, align 4
  br label %_ZN11struct_pack6detail8unpackerINS0_13memory_readerELm3EE16deserialize_manyILm2ELm18446744073709551615ELb1ELm15ERiJS5_S5_S5_EEENS_4errcEOT3_DpOT4_.exit

if.end.i:                                         ; preds = %if.end
  %317 = load ptr, ptr %items.addr.i25, align 8
  %318 = load ptr, ptr %items.addr2.i26, align 8
  %319 = load ptr, ptr %items.addr4.i27, align 8
  store ptr %this5.i, ptr %this.addr.i29, align 8
  store ptr %317, ptr %first_item.addr.i30, align 8
  store ptr %318, ptr %items.addr.i31, align 8
  store ptr %319, ptr %items.addr2.i32, align 8
  %this3.i = load ptr, ptr %this.addr.i29, align 8
  %320 = load ptr, ptr %first_item.addr.i30, align 8
  %call.i34 = call noundef i32 @_ZN11struct_pack6detail8unpackerINS0_13memory_readerELm3EE15deserialize_oneILm2ELm18446744073709551615ELb1ELm15EiEENS_4errcERT3_(ptr noundef nonnull align 8 dereferenceable(17) %this3.i, ptr noundef nonnull align 4 dereferenceable(4) %320)
  store i32 %call.i34, ptr %code.i33, align 4
  %321 = load i32, ptr %code.i33, align 4
  %cmp.i35 = icmp ne i32 %321, 0
  br i1 %cmp.i35, label %if.then.i37, label %if.end.i36

if.then.i37:                                      ; preds = %if.end.i
  %322 = load i32, ptr %code.i33, align 4
  store i32 %322, ptr %retval.i28, align 4
  br label %_ZN11struct_pack6detail8unpackerINS0_13memory_readerELm3EE16deserialize_manyILm2ELm18446744073709551615ELb1ELm15ERiJS5_S5_EEENS_4errcEOT3_DpOT4_.exit

if.end.i36:                                       ; preds = %if.end.i
  %323 = load ptr, ptr %items.addr.i31, align 8
  %324 = load ptr, ptr %items.addr2.i32, align 8
  store ptr %this3.i, ptr %this.addr.i39, align 8
  store ptr %323, ptr %first_item.addr.i40, align 8
  store ptr %324, ptr %items.addr.i41, align 8
  %this1.i = load ptr, ptr %this.addr.i39, align 8
  %325 = load ptr, ptr %first_item.addr.i40, align 8
  %call.i43 = call noundef i32 @_ZN11struct_pack6detail8unpackerINS0_13memory_readerELm3EE15deserialize_oneILm2ELm18446744073709551615ELb1ELm15EiEENS_4errcERT3_(ptr noundef nonnull align 8 dereferenceable(17) %this1.i, ptr noundef nonnull align 4 dereferenceable(4) %325)
  store i32 %call.i43, ptr %code.i42, align 4
  %326 = load i32, ptr %code.i42, align 4
  %cmp.i44 = icmp ne i32 %326, 0
  br i1 %cmp.i44, label %if.then.i46, label %if.end.i45

if.then.i46:                                      ; preds = %if.end.i36
  %327 = load i32, ptr %code.i42, align 4
  store i32 %327, ptr %retval.i38, align 4
  br label %_ZN11struct_pack6detail8unpackerINS0_13memory_readerELm3EE16deserialize_manyILm2ELm18446744073709551615ELb1ELm15ERiJS5_EEENS_4errcEOT3_DpOT4_.exit

if.end.i45:                                       ; preds = %if.end.i36
  %328 = load ptr, ptr %items.addr.i41, align 8
  store ptr %this1.i, ptr %this.addr.i48, align 8
  store ptr %328, ptr %first_item.addr.i49, align 8
  %this1.i51 = load ptr, ptr %this.addr.i48, align 8
  %329 = load ptr, ptr %first_item.addr.i49, align 8
  %call.i52 = call noundef i32 @_ZN11struct_pack6detail8unpackerINS0_13memory_readerELm3EE15deserialize_oneILm2ELm18446744073709551615ELb1ELm15EiEENS_4errcERT3_(ptr noundef nonnull align 8 dereferenceable(17) %this1.i51, ptr noundef nonnull align 4 dereferenceable(4) %329)
  store i32 %call.i52, ptr %code.i50, align 4
  %330 = load i32, ptr %code.i50, align 4
  %cmp.i53 = icmp ne i32 %330, 0
  br i1 %cmp.i53, label %if.then.i55, label %if.end.i54

if.then.i55:                                      ; preds = %if.end.i45
  %331 = load i32, ptr %code.i50, align 4
  store i32 %331, ptr %retval.i47, align 4
  br label %_ZN11struct_pack6detail8unpackerINS0_13memory_readerELm3EE16deserialize_manyILm2ELm18446744073709551615ELb1ELm15ERiJEEENS_4errcEOT3_DpOT4_.exit

if.end.i54:                                       ; preds = %if.end.i45
  %332 = load i32, ptr %code.i50, align 4
  store i32 %332, ptr %retval.i47, align 4
  br label %_ZN11struct_pack6detail8unpackerINS0_13memory_readerELm3EE16deserialize_manyILm2ELm18446744073709551615ELb1ELm15ERiJEEENS_4errcEOT3_DpOT4_.exit

_ZN11struct_pack6detail8unpackerINS0_13memory_readerELm3EE16deserialize_manyILm2ELm18446744073709551615ELb1ELm15ERiJEEENS_4errcEOT3_DpOT4_.exit: ; preds = %if.end.i54, %if.then.i55
  %333 = load i32, ptr %retval.i47, align 4
  store i32 %333, ptr %retval.i38, align 4
  br label %_ZN11struct_pack6detail8unpackerINS0_13memory_readerELm3EE16deserialize_manyILm2ELm18446744073709551615ELb1ELm15ERiJS5_EEENS_4errcEOT3_DpOT4_.exit

_ZN11struct_pack6detail8unpackerINS0_13memory_readerELm3EE16deserialize_manyILm2ELm18446744073709551615ELb1ELm15ERiJS5_EEENS_4errcEOT3_DpOT4_.exit: ; preds = %_ZN11struct_pack6detail8unpackerINS0_13memory_readerELm3EE16deserialize_manyILm2ELm18446744073709551615ELb1ELm15ERiJEEENS_4errcEOT3_DpOT4_.exit, %if.then.i46
  %334 = load i32, ptr %retval.i38, align 4
  store i32 %334, ptr %retval.i28, align 4
  br label %_ZN11struct_pack6detail8unpackerINS0_13memory_readerELm3EE16deserialize_manyILm2ELm18446744073709551615ELb1ELm15ERiJS5_S5_EEENS_4errcEOT3_DpOT4_.exit

_ZN11struct_pack6detail8unpackerINS0_13memory_readerELm3EE16deserialize_manyILm2ELm18446744073709551615ELb1ELm15ERiJS5_S5_EEENS_4errcEOT3_DpOT4_.exit: ; preds = %_ZN11struct_pack6detail8unpackerINS0_13memory_readerELm3EE16deserialize_manyILm2ELm18446744073709551615ELb1ELm15ERiJS5_EEENS_4errcEOT3_DpOT4_.exit, %if.then.i37
  %335 = load i32, ptr %retval.i28, align 4
  store i32 %335, ptr %retval.i, align 4
  br label %_ZN11struct_pack6detail8unpackerINS0_13memory_readerELm3EE16deserialize_manyILm2ELm18446744073709551615ELb1ELm15ERiJS5_S5_S5_EEENS_4errcEOT3_DpOT4_.exit

_ZN11struct_pack6detail8unpackerINS0_13memory_readerELm3EE16deserialize_manyILm2ELm18446744073709551615ELb1ELm15ERiJS5_S5_S5_EEENS_4errcEOT3_DpOT4_.exit: ; preds = %_ZN11struct_pack6detail8unpackerINS0_13memory_readerELm3EE16deserialize_manyILm2ELm18446744073709551615ELb1ELm15ERiJS5_S5_EEENS_4errcEOT3_DpOT4_.exit, %if.then.i
  %336 = load i32, ptr %retval.i, align 4
  store i32 %336, ptr %code, align 4
  %337 = load i32, ptr %code, align 4
  store i32 %337, ptr %retval, align 4
  br label %return

return:                                           ; preds = %_ZN11struct_pack6detail8unpackerINS0_13memory_readerELm3EE16deserialize_manyILm2ELm18446744073709551615ELb1ELm15ERiJS5_S5_S5_EEENS_4errcEOT3_DpOT4_.exit, %if.then
  %338 = load i32, ptr %retval, align 4
  ret i32 %338
}

; Function Attrs: mustprogress nounwind uwtable
define linkonce_odr dso_local noundef i32 @_ZN11struct_pack6detail8unpackerINS0_13memory_readerELm3EE15deserialize_oneILm2ELm18446744073709551615ELb1ELm15EiEENS_4errcERT3_(ptr noundef nonnull align 8 dereferenceable(17) %this, ptr noundef nonnull align 4 dereferenceable(4) %item) #2 comdat align 2 {
entry:
  %this.addr = alloca ptr, align 8
  %item.addr = alloca ptr, align 8
  %code = alloca i32, align 4
  %id = alloca i32, align 4
  store ptr %this, ptr %this.addr, align 8
  store ptr %item, ptr %item.addr, align 8
  store i32 0, ptr %code, align 4
  store i32 24, ptr %id, align 4
  %0 = load i32, ptr %code, align 4
  ret i32 %0
}

; Function Attrs: mustprogress uwtable
define linkonce_odr dso_local noundef i32 @_ZN11struct_pack6detail8unpackerINS0_13memory_readerELm3EE15deserialize_oneILm4ELm18446744073709551615ELb1ELm0E4rectEENS_4errcERT3_(ptr noundef nonnull align 8 dereferenceable(17) %this, ptr noundef nonnull align 4 dereferenceable(16) %item) #0 comdat align 2 {
entry:
  %retval.i47 = alloca i32, align 4
  %this.addr.i48 = alloca ptr, align 8
  %first_item.addr.i49 = alloca ptr, align 8
  %code.i50 = alloca i32, align 4
