target datalayout = "e-m:e-p270:32:32-p271:32:32-p272:64:64-i64:64-i128:128-f80:128-n8:16:32:64-S128"
target triple = "x86_64-unknown-linux-gnu"

%"class.std::ios_base::Init" = type { i8 }
%"class.std::basic_ostream" = type { ptr, %"class.std::basic_ios" }
%"class.std::basic_ios" = type { %"class.std::ios_base", ptr, i8, i8, ptr, ptr, ptr, ptr }
%"class.std::ios_base" = type { ptr, i64, i64, i32, i32, i32, ptr, %"struct.std::ios_base::_Words", [8 x %"struct.std::ios_base::_Words"], i32, ptr, %"class.std::locale" }
%"struct.std::ios_base::_Words" = type { ptr, i64 }
%"class.std::locale" = type { ptr }
%"struct.testing::internal::CodeLocation" = type <{ %"class.std::__cxx11::basic_string", i32, [4 x i8] }>
%"class.std::__cxx11::basic_string" = type { %"struct.std::__cxx11::basic_string<char>::_Alloc_hider", i64, %union.anon }
%"struct.std::__cxx11::basic_string<char>::_Alloc_hider" = type { ptr }
%union.anon = type { i64, [8 x i8] }
%"class.std::allocator" = type { i8 }
%"class.testing::internal::GTestLog" = type { i32 }
%"class.std::basic_string_view" = type { i64, ptr }
%"class.testing::ScopedTrace" = type { i8 }
%"struct.absl::from_chars_result" = type { ptr, i32 }
%"class.testing::AssertionResult" = type { i8, %"class.std::unique_ptr.17" }
%"class.std::unique_ptr.17" = type { %"struct.std::__uniq_ptr_data.18" }
%"struct.std::__uniq_ptr_data.18" = type { %"class.std::__uniq_ptr_impl.19" }
%"class.std::__uniq_ptr_impl.19" = type { %"class.std::tuple.20" }
%"class.std::tuple.20" = type { %"struct.std::_Tuple_impl.21" }
%"struct.std::_Tuple_impl.21" = type { %"struct.std::_Head_base.24" }
%"struct.std::_Head_base.24" = type { ptr }
%"class.testing::Message" = type { %"class.std::unique_ptr.25" }
%"class.std::unique_ptr.25" = type { %"struct.std::__uniq_ptr_data.26" }
%"struct.std::__uniq_ptr_data.26" = type { %"class.std::__uniq_ptr_impl.27" }
%"class.std::__uniq_ptr_impl.27" = type { %"class.std::tuple.28" }
%"class.std::tuple.28" = type { %"struct.std::_Tuple_impl.29" }
%"struct.std::_Tuple_impl.29" = type { %"struct.std::_Head_base.32" }
%"struct.std::_Head_base.32" = type { ptr }
%"class.testing::internal::AssertHelper" = type { ptr }
%"class.std::__cxx11::basic_stringstream" = type { %"class.std::basic_iostream.base", %"class.std::__cxx11::basic_stringbuf", %"class.std::basic_ios" }
%"class.std::basic_iostream.base" = type { %"class.std::basic_istream.base", %"class.std::basic_ostream.base" }
%"class.std::basic_istream.base" = type { ptr, i64 }
%"class.std::basic_ostream.base" = type { ptr }
%"class.std::__cxx11::basic_stringbuf" = type { %"class.std::basic_streambuf", i32, %"class.std::__cxx11::basic_string" }
%"class.std::basic_streambuf" = type { ptr, ptr, ptr, ptr, ptr, ptr, ptr, %"class.std::locale" }
%"class.absl::AlphaNum" = type { %"class.std::basic_string_view", [32 x i8] }
%"class.std::initializer_list" = type { ptr, i64 }
%class.anon = type { i8 }
%class.anon.35 = type { i8 }
%"class.std::function" = type { %"class.std::_Function_base", ptr }
%"class.std::_Function_base" = type { %"union.std::_Any_data", ptr }
%"union.std::_Any_data" = type { %"union.std::_Nocopy_types" }
%"union.std::_Nocopy_types" = type { { i64, i64 } }
%"class.std::function.37" = type { %"class.std::_Function_base", ptr }
%"class.absl::str_format_internal::FormatSpecTemplate" = type { %"class.absl::UntypedFormatSpec" }
%"class.absl::UntypedFormatSpec" = type { %"class.absl::str_format_internal::UntypedFormatSpecImpl" }
%"class.absl::str_format_internal::UntypedFormatSpecImpl" = type { ptr, i64 }
%"class.absl::Span" = type { ptr, i64 }
%"class.std::initializer_list.40" = type { ptr, i64 }
%"class.absl::str_format_internal::FormatArgImpl" = type { %"union.absl::str_format_internal::FormatArgImpl::Data", ptr }
%"union.absl::str_format_internal::FormatArgImpl::Data" = type { ptr }
%class.anon.41 = type { i8 }
%class.anon.43 = type { i8 }
%"class.std::function.45" = type { %"class.std::_Function_base", ptr }
%class.anon.48 = type { i8 }
%class.anon.50 = type { i8 }
%class.anon.52 = type { i8 }
%class.anon.54 = type { i8 }
%struct._Guard = type { ptr }

$_ZNSt7__cxx1112basic_stringIcSt11char_traitsIcESaIcEEC2IS3_EEPKcRKS3_ = comdat any

$_ZN7testing8internal12CodeLocationC2ERKNSt7__cxx1112basic_stringIcSt11char_traitsIcESaIcEEEi = comdat any

$_ZN7testing8internal16SuiteApiResolverINS_4TestEE19GetSetUpCaseOrSuiteEPKci = comdat any

$_ZN7testing8internal16SuiteApiResolverINS_4TestEE22GetTearDownCaseOrSuiteEPKci = comdat any

$_ZN7testing8internal12CodeLocationD2Ev = comdat any

$_ZN7testing8internal15TestFactoryBaseC2Ev = comdat any

$_ZN7testing8internal15TestFactoryBaseD2Ev = comdat any

$_ZN7testing8internal15TestFactoryBaseD0Ev = comdat any

$_ZN7testing4Test5SetupEv = comdat any

$_ZNSt17basic_string_viewIcSt11char_traitsIcEEC2EPKc = comdat any

$_ZN7testing11ScopedTraceC2ISt17basic_string_viewIcSt11char_traitsIcEEEEPKciRKT_ = comdat any

$_ZNKSt17basic_string_viewIcSt11char_traitsIcEE4dataEv = comdat any

$_ZNKSt17basic_string_viewIcSt11char_traitsIcEE6lengthEv = comdat any

$_ZN7testing8internal8EqHelper7CompareISt4errcS3_TnPNSt9enable_ifIXoontsr3std11is_integralIT_EE5valuentsr3std10is_pointerIT0_EE5valueEvE4typeELPv0EEENS_15AssertionResultEPKcSD_RKS5_RKS6_ = comdat any

$_ZNK7testing15AssertionResultcvbEv = comdat any

$_ZNK7testing15AssertionResult15failure_messageEv = comdat any

$_ZN7testing7MessageD2Ev = comdat any

$_ZN7testing15AssertionResultD2Ev = comdat any

$_ZN7testing8internal8EqHelper7CompareIPKcS4_TnPNSt9enable_ifIXoontsr3std11is_integralIT_EE5valuentsr3std10is_pointerIT0_EE5valueEvE4typeELPv0EEENS_15AssertionResultES4_S4_RKS6_RKS7_ = comdat any

$_ZN7testing8internal8EqHelper7CompareIddTnPNSt9enable_ifIXoontsr3std11is_integralIT_EE5valuentsr3std10is_pointerIT0_EE5valueEvE4typeELPv0EEENS_15AssertionResultEPKcSC_RKS4_RKS5_ = comdat any

$_ZN7testing7MessagelsISt17basic_string_viewIcSt11char_traitsIcEEEERS0_RKT_ = comdat any

$_ZStlsIcSt11char_traitsIcEERSt13basic_ostreamIT_T0_ES6_St17basic_string_viewIS3_S4_E = comdat any

$_ZNKSt10unique_ptrINSt7__cxx1118basic_stringstreamIcSt11char_traitsIcESaIcEEESt14default_deleteIS5_EEdeEv = comdat any

$_ZNKSt17basic_string_viewIcSt11char_traitsIcEE4sizeEv = comdat any

$_ZNKSt10unique_ptrINSt7__cxx1118basic_stringstreamIcSt11char_traitsIcESaIcEEESt14default_deleteIS5_EE3getEv = comdat any

$_ZNKSt15__uniq_ptr_implINSt7__cxx1118basic_stringstreamIcSt11char_traitsIcESaIcEEESt14default_deleteIS5_EE6_M_ptrEv = comdat any

$_ZSt3getILm0EJPNSt7__cxx1118basic_stringstreamIcSt11char_traitsIcESaIcEEESt14default_deleteIS5_EEERKNSt13tuple_elementIXT_ESt5tupleIJDpT0_EEE4typeERKSD_ = comdat any

$_ZSt12__get_helperILm0EPNSt7__cxx1118basic_stringstreamIcSt11char_traitsIcESaIcEEEJSt14default_deleteIS5_EEERKT0_RKSt11_Tuple_implIXT_EJS9_DpT1_EE = comdat any

$_ZNSt11_Tuple_implILm0EJPNSt7__cxx1118basic_stringstreamIcSt11char_traitsIcESaIcEEESt14default_deleteIS5_EEE7_M_headERKS9_ = comdat any

$_ZNSt10_Head_baseILm0EPNSt7__cxx1118basic_stringstreamIcSt11char_traitsIcESaIcEEELb0EE7_M_headERKS7_ = comdat any

$_ZN7testing8internal11CmpHelperEQISt4errcS2_EENS_15AssertionResultEPKcS5_RKT_RKT0_ = comdat any

$_ZN7testing8internal18CmpHelperEQFailureISt4errcS2_EENS_15AssertionResultEPKcS5_RKT_RKT0_ = comdat any

$_ZN7testing8internal33FormatForComparisonFailureMessageISt4errcS2_EENSt7__cxx1112basic_stringIcSt11char_traitsIcESaIcEEERKT_RKT0_ = comdat any

$_ZN7testing8internal19FormatForComparisonISt4errcS2_E6FormatB5cxx11ERKS2_ = comdat any

$_ZN7testing13PrintToStringISt4errcEENSt7__cxx1112basic_stringIcSt11char_traitsIcESaIcEEERKT_ = comdat any

$_ZN7testing8internal21UniversalTersePrinterISt4errcE5PrintERKS2_PSo = comdat any

$_ZN7testing8internal14UniversalPrintISt4errcEEvRKT_PSo = comdat any

$_ZN7testing8internal16UniversalPrinterISt4errcE5PrintERKS2_PSo = comdat any

$_ZN7testing8internal7PrintToISt4errcEEvRKT_PSo = comdat any

$_ZN7testing8internal17PrintWithFallbackISt4errcEEvRKT_PSo = comdat any

$_ZN7testing8internal15RawBytesPrinter10PrintValueISt4errcLm4EEEvRKT_PSo = comdat any

$_ZNK7testing15AssertionResult7messageEv = comdat any

$_ZStneINSt7__cxx1112basic_stringIcSt11char_traitsIcESaIcEEESt14default_deleteIS5_EEbRKSt10unique_ptrIT_T0_EDn = comdat any

$_ZNKSt10unique_ptrINSt7__cxx1112basic_stringIcSt11char_traitsIcESaIcEEESt14default_deleteIS5_EEptEv = comdat any

$_ZNKSt10unique_ptrINSt7__cxx1112basic_stringIcSt11char_traitsIcESaIcEEESt14default_deleteIS5_EEcvbEv = comdat any

$_ZNKSt10unique_ptrINSt7__cxx1112basic_stringIcSt11char_traitsIcESaIcEEESt14default_deleteIS5_EE3getEv = comdat any

$_ZNKSt15__uniq_ptr_implINSt7__cxx1112basic_stringIcSt11char_traitsIcESaIcEEESt14default_deleteIS5_EE6_M_ptrEv = comdat any

$_ZSt3getILm0EJPNSt7__cxx1112basic_stringIcSt11char_traitsIcESaIcEEESt14default_deleteIS5_EEERKNSt13tuple_elementIXT_ESt5tupleIJDpT0_EEE4typeERKSD_ = comdat any

$_ZSt12__get_helperILm0EPNSt7__cxx1112basic_stringIcSt11char_traitsIcESaIcEEEJSt14default_deleteIS5_EEERKT0_RKSt11_Tuple_implIXT_EJS9_DpT1_EE = comdat any

$_ZNSt11_Tuple_implILm0EJPNSt7__cxx1112basic_stringIcSt11char_traitsIcESaIcEEESt14default_deleteIS5_EEE7_M_headERKS9_ = comdat any

$_ZNSt10_Head_baseILm0EPNSt7__cxx1112basic_stringIcSt11char_traitsIcESaIcEEELb0EE7_M_headERKS7_ = comdat any

$_ZNSt10unique_ptrINSt7__cxx1118basic_stringstreamIcSt11char_traitsIcESaIcEEESt14default_deleteIS5_EED2Ev = comdat any

$_ZNSt15__uniq_ptr_implINSt7__cxx1118basic_stringstreamIcSt11char_traitsIcESaIcEEESt14default_deleteIS5_EE6_M_ptrEv = comdat any

$_ZNSt10unique_ptrINSt7__cxx1118basic_stringstreamIcSt11char_traitsIcESaIcEEESt14default_deleteIS5_EE11get_deleterEv = comdat any

$_ZNKSt14default_deleteINSt7__cxx1118basic_stringstreamIcSt11char_traitsIcESaIcEEEEclEPS5_ = comdat any

$__clang_call_terminate = comdat any

$_ZSt3getILm0EJPNSt7__cxx1118basic_stringstreamIcSt11char_traitsIcESaIcEEESt14default_deleteIS5_EEERNSt13tuple_elementIXT_ESt5tupleIJDpT0_EEE4typeERSD_ = comdat any

$_ZSt12__get_helperILm0EPNSt7__cxx1118basic_stringstreamIcSt11char_traitsIcESaIcEEEJSt14default_deleteIS5_EEERT0_RSt11_Tuple_implIXT_EJS9_DpT1_EE = comdat any

$_ZNSt11_Tuple_implILm0EJPNSt7__cxx1118basic_stringstreamIcSt11char_traitsIcESaIcEEESt14default_deleteIS5_EEE7_M_headERS9_ = comdat any

$_ZNSt10_Head_baseILm0EPNSt7__cxx1118basic_stringstreamIcSt11char_traitsIcESaIcEEELb0EE7_M_headERS7_ = comdat any

$_ZNSt15__uniq_ptr_implINSt7__cxx1118basic_stringstreamIcSt11char_traitsIcESaIcEEESt14default_deleteIS5_EE10_M_deleterEv = comdat any

$_ZSt3getILm1EJPNSt7__cxx1118basic_stringstreamIcSt11char_traitsIcESaIcEEESt14default_deleteIS5_EEERNSt13tuple_elementIXT_ESt5tupleIJDpT0_EEE4typeERSD_ = comdat any

$_ZSt12__get_helperILm1ESt14default_deleteINSt7__cxx1118basic_stringstreamIcSt11char_traitsIcESaIcEEEEJEERT0_RSt11_Tuple_implIXT_EJS8_DpT1_EE = comdat any

$_ZNSt11_Tuple_implILm1EJSt14default_deleteINSt7__cxx1118basic_stringstreamIcSt11char_traitsIcESaIcEEEEEE7_M_headERS8_ = comdat any

$_ZNSt10_Head_baseILm1ESt14default_deleteINSt7__cxx1118basic_stringstreamIcSt11char_traitsIcESaIcEEEELb1EE7_M_headERS8_ = comdat any

$_ZNSt10unique_ptrINSt7__cxx1112basic_stringIcSt11char_traitsIcESaIcEEESt14default_deleteIS5_EED2Ev = comdat any

$_ZNSt15__uniq_ptr_implINSt7__cxx1112basic_stringIcSt11char_traitsIcESaIcEEESt14default_deleteIS5_EE6_M_ptrEv = comdat any

$_ZNSt10unique_ptrINSt7__cxx1112basic_stringIcSt11char_traitsIcESaIcEEESt14default_deleteIS5_EE11get_deleterEv = comdat any

$_ZNKSt14default_deleteINSt7__cxx1112basic_stringIcSt11char_traitsIcESaIcEEEEclEPS5_ = comdat any

$_ZSt3getILm0EJPNSt7__cxx1112basic_stringIcSt11char_traitsIcESaIcEEESt14default_deleteIS5_EEERNSt13tuple_elementIXT_ESt5tupleIJDpT0_EEE4typeERSD_ = comdat any

$_ZSt12__get_helperILm0EPNSt7__cxx1112basic_stringIcSt11char_traitsIcESaIcEEEJSt14default_deleteIS5_EEERT0_RSt11_Tuple_implIXT_EJS9_DpT1_EE = comdat any

$_ZNSt11_Tuple_implILm0EJPNSt7__cxx1112basic_stringIcSt11char_traitsIcESaIcEEESt14default_deleteIS5_EEE7_M_headERS9_ = comdat any

$_ZNSt10_Head_baseILm0EPNSt7__cxx1112basic_stringIcSt11char_traitsIcESaIcEEELb0EE7_M_headERS7_ = comdat any

$_ZNSt15__uniq_ptr_implINSt7__cxx1112basic_stringIcSt11char_traitsIcESaIcEEESt14default_deleteIS5_EE10_M_deleterEv = comdat any

$_ZSt3getILm1EJPNSt7__cxx1112basic_stringIcSt11char_traitsIcESaIcEEESt14default_deleteIS5_EEERNSt13tuple_elementIXT_ESt5tupleIJDpT0_EEE4typeERSD_ = comdat any

$_ZSt12__get_helperILm1ESt14default_deleteINSt7__cxx1112basic_stringIcSt11char_traitsIcESaIcEEEEJEERT0_RSt11_Tuple_implIXT_EJS8_DpT1_EE = comdat any

$_ZNSt11_Tuple_implILm1EJSt14default_deleteINSt7__cxx1112basic_stringIcSt11char_traitsIcESaIcEEEEEE7_M_headERS8_ = comdat any

$_ZNSt10_Head_baseILm1ESt14default_deleteINSt7__cxx1112basic_stringIcSt11char_traitsIcESaIcEEEELb1EE7_M_headERS8_ = comdat any

$_ZN7testing8internal11CmpHelperEQIPKcS3_EENS_15AssertionResultES3_S3_RKT_RKT0_ = comdat any

$_ZN7testing8internal18CmpHelperEQFailureIPKcS3_EENS_15AssertionResultES3_S3_RKT_RKT0_ = comdat any

$_ZN7testing8internal33FormatForComparisonFailureMessageIPKcS3_EENSt7__cxx1112basic_stringIcSt11char_traitsIcESaIcEEERKT_RKT0_ = comdat any

$_ZN7testing8internal19FormatForComparisonIPKcS3_E6FormatB5cxx11ES3_ = comdat any

$_ZN7testing13PrintToStringIPKvEENSt7__cxx1112basic_stringIcSt11char_traitsIcESaIcEEERKT_ = comdat any

$_ZN7testing8internal21UniversalTersePrinterIPKvE5PrintERKS3_PSo = comdat any

$_ZN7testing8internal14UniversalPrintIPKvEEvRKT_PSo = comdat any

$_ZN7testing8internal16UniversalPrinterIPKvE5PrintERKS3_PSo = comdat any

$_ZN7testing8internal7PrintToIPKvEEvRKT_PSo = comdat any

$_ZN7testing8internal17PrintWithFallbackIPKvEEvRKT_PSo = comdat any

$_ZN7testing8internal14PointerPrinter10PrintValueIKvEEvPT_PSo = comdat any

$_ZN7testing8internal11CmpHelperEQIddEENS_15AssertionResultEPKcS4_RKT_RKT0_ = comdat any

$_ZN7testing8internal18CmpHelperEQFailureIddEENS_15AssertionResultEPKcS4_RKT_RKT0_ = comdat any

$_ZN7testing8internal33FormatForComparisonFailureMessageIddEENSt7__cxx1112basic_stringIcSt11char_traitsIcESaIcEEERKT_RKT0_ = comdat any

$_ZN7testing8internal19FormatForComparisonIddE6FormatB5cxx11ERKd = comdat any

$_ZN7testing13PrintToStringIdEENSt7__cxx1112basic_stringIcSt11char_traitsIcESaIcEEERKT_ = comdat any

$_ZN7testing8internal21UniversalTersePrinterIdE5PrintERKdPSo = comdat any

$_ZN7testing8internal14UniversalPrintIdEEvRKT_PSo = comdat any

$_ZN7testing8internal16UniversalPrinterIdE5PrintERKdPSo = comdat any

$_ZN7testing8internal7PrintToEdPSo = comdat any

$_ZNKSt8ios_base9precisionEv = comdat any

$_ZNSt8ios_base9precisionEl = comdat any

$_ZN7testing8internal21AppropriateResolutionIdEEiT_ = comdat any

$_ZNSt11char_traitsIcE6lengthEPKc = comdat any

$_ZN7testing8internal8EqHelper7CompareIffTnPNSt9enable_ifIXoontsr3std11is_integralIT_EE5valuentsr3std10is_pointerIT0_EE5valueEvE4typeELPv0EEENS_15AssertionResultEPKcSC_RKS4_RKS5_ = comdat any

$_ZN7testing8internal11CmpHelperEQIffEENS_15AssertionResultEPKcS4_RKT_RKT0_ = comdat any

$_ZN7testing8internal18CmpHelperEQFailureIffEENS_15AssertionResultEPKcS4_RKT_RKT0_ = comdat any

$_ZN7testing8internal33FormatForComparisonFailureMessageIffEENSt7__cxx1112basic_stringIcSt11char_traitsIcESaIcEEERKT_RKT0_ = comdat any

$_ZN7testing8internal19FormatForComparisonIffE6FormatB5cxx11ERKf = comdat any

$_ZN7testing13PrintToStringIfEENSt7__cxx1112basic_stringIcSt11char_traitsIcESaIcEEERKT_ = comdat any

$_ZN7testing8internal21UniversalTersePrinterIfE5PrintERKfPSo = comdat any

$_ZN7testing8internal14UniversalPrintIfEEvRKT_PSo = comdat any

$_ZN7testing8internal16UniversalPrinterIfE5PrintERKfPSo = comdat any

$_ZN7testing8internal7PrintToEfPSo = comdat any

$_ZN7testing8internal21AppropriateResolutionIfEEiT_ = comdat any

$_ZNSt7__cxx1112basic_stringIcSt11char_traitsIcESaIcEEC2IS3_EEmcRKS3_ = comdat any

$_ZN4absl8AlphaNumC2ISaIcEEERKNSt7__cxx1112basic_stringIcSt11char_traitsIcET_EE = comdat any

$_ZN4absl8AlphaNumC2EPKc = comdat any

$_ZN4absl8AlphaNumC2Ei = comdat any

$_ZNSt7__cxx1112basic_stringIcSt11char_traitsIcESaIcEE12_Alloc_hiderD2Ev = comdat any

$_ZN4absl18NullSafeStringViewEPKc = comdat any

$_ZNSt17basic_string_viewIcSt11char_traitsIcEEC2Ev = comdat any

$_ZNSt17basic_string_viewIcSt11char_traitsIcEEC2EPKcm = comdat any

$_ZSt7signbitd = comdat any

$_ZN7testing15AssertionResultC2IbEERKT_PNSt9enable_ifIXntsr3std14is_convertibleIS2_S0_EE5valueEvE4typeE = comdat any

$_ZN7testing8internal11CmpHelperGEIddEENS_15AssertionResultEPKcS4_RKT_RKT0_ = comdat any

$_ZNSt14numeric_limitsIdE3minEv = comdat any

$_ZSt7signbitf = comdat any

$_ZN7testing8internal11CmpHelperGEIffEENS_15AssertionResultEPKcS4_RKT_RKT0_ = comdat any

$_ZNSt14numeric_limitsIfE3minEv = comdat any

$_ZN7testing8internal11CmpHelperLEIddEENS_15AssertionResultEPKcS4_RKT_RKT0_ = comdat any

$_ZN7testing8internal11CmpHelperLEIffEENS_15AssertionResultEPKcS4_RKT_RKT0_ = comdat any

$_ZNSt10unique_ptrINSt7__cxx1112basic_stringIcSt11char_traitsIcESaIcEEESt14default_deleteIS5_EEC2IS7_vEEv = comdat any

$_ZNSt15__uniq_ptr_dataINSt7__cxx1112basic_stringIcSt11char_traitsIcESaIcEEESt14default_deleteIS5_ELb1ELb1EEC2Ev = comdat any

$_ZNSt15__uniq_ptr_implINSt7__cxx1112basic_stringIcSt11char_traitsIcESaIcEEESt14default_deleteIS5_EEC2Ev = comdat any

$_ZNSt5tupleIJPNSt7__cxx1112basic_stringIcSt11char_traitsIcESaIcEEESt14default_deleteIS5_EEEC2ILb1ETnNSt9enable_ifIXclsr17_TupleConstraintsIXT_ES6_S8_EE37__is_implicitly_default_constructibleEEbE4typeELb1EEEv = comdat any

$_ZNSt11_Tuple_implILm0EJPNSt7__cxx1112basic_stringIcSt11char_traitsIcESaIcEEESt14default_deleteIS5_EEEC2Ev = comdat any

$_ZNSt11_Tuple_implILm1EJSt14default_deleteINSt7__cxx1112basic_stringIcSt11char_traitsIcESaIcEEEEEEC2Ev = comdat any

$_ZNSt10_Head_baseILm0EPNSt7__cxx1112basic_stringIcSt11char_traitsIcESaIcEEELb0EEC2Ev = comdat any

$_ZNSt10_Head_baseILm1ESt14default_deleteINSt7__cxx1112basic_stringIcSt11char_traitsIcESaIcEEEELb1EEC2Ev = comdat any

$_ZN7testing8internal18CmpHelperOpFailureIddEENS_15AssertionResultEPKcS4_RKT_RKT0_S4_ = comdat any

$_ZN7testing15AssertionResultlsIA12_cEERS0_RKT_ = comdat any

$_ZN7testing15AssertionResultlsIPKcEERS0_RKT_ = comdat any

$_ZN7testing15AssertionResultlsIA3_cEERS0_RKT_ = comdat any

$_ZN7testing15AssertionResultlsINSt7__cxx1112basic_stringIcSt11char_traitsIcESaIcEEEEERS0_RKT_ = comdat any

$_ZN7testing15AssertionResultlsIA5_cEERS0_RKT_ = comdat any

$_ZN7testing15AssertionResult13AppendMessageERKNS_7MessageE = comdat any

$_ZN7testing7MessagelsIA12_cEERS0_RKT_ = comdat any

$_ZSteqINSt7__cxx1112basic_stringIcSt11char_traitsIcESaIcEEESt14default_deleteIS5_EEbRKSt10unique_ptrIT_T0_EDn = comdat any

$_ZSt11make_uniqueINSt7__cxx1112basic_stringIcSt11char_traitsIcESaIcEEEJEENSt8__detail9_MakeUniqIT_E15__single_objectEDpOT0_ = comdat any

$_ZNSt10unique_ptrINSt7__cxx1112basic_stringIcSt11char_traitsIcESaIcEEESt14default_deleteIS5_EEaSEOS8_ = comdat any

$_ZNSt10unique_ptrINSt7__cxx1112basic_stringIcSt11char_traitsIcESaIcEEESt14default_deleteIS5_EEC2IS7_vEEPS5_ = comdat any

$_ZNSt15__uniq_ptr_dataINSt7__cxx1112basic_stringIcSt11char_traitsIcESaIcEEESt14default_deleteIS5_ELb1ELb1EECI2St15__uniq_ptr_implIS5_S7_EEPS5_ = comdat any

$_ZNSt15__uniq_ptr_implINSt7__cxx1112basic_stringIcSt11char_traitsIcESaIcEEESt14default_deleteIS5_EEC2EPS5_ = comdat any

$_ZNSt15__uniq_ptr_dataINSt7__cxx1112basic_stringIcSt11char_traitsIcESaIcEEESt14default_deleteIS5_ELb1ELb1EEaSEOS8_ = comdat any

$_ZNSt15__uniq_ptr_implINSt7__cxx1112basic_stringIcSt11char_traitsIcESaIcEEESt14default_deleteIS5_EEaSEOS8_ = comdat any

$_ZNSt15__uniq_ptr_implINSt7__cxx1112basic_stringIcSt11char_traitsIcESaIcEEESt14default_deleteIS5_EE5resetEPS5_ = comdat any

$_ZNSt15__uniq_ptr_implINSt7__cxx1112basic_stringIcSt11char_traitsIcESaIcEEESt14default_deleteIS5_EE7releaseEv = comdat any

$_ZN7testing7MessagelsIKcEERS0_RKPT_ = comdat any

$_ZN7testing7MessagelsIA3_cEERS0_RKT_ = comdat any

$_ZN7testing7MessagelsINSt7__cxx1112basic_stringIcSt11char_traitsIcESaIcEEEEERS0_RKT_ = comdat any

$_ZN7testing7MessagelsIA5_cEERS0_RKT_ = comdat any

$_ZN7testing8internal18CmpHelperOpFailureIffEENS_15AssertionResultEPKcS4_RKT_RKT0_S4_ = comdat any

$_ZNSt14numeric_limitsIdE3maxEv = comdat any

$_ZNSt14numeric_limitsIfE3maxEv = comdat any

$_ZN7testing8internal8EqHelper7CompareIliTnPNSt9enable_ifIXoontsr3std11is_integralIT_EE5valuentsr3std10is_pointerIT0_EE5valueEvE4typeELPv0EEENS_15AssertionResultEPKcSC_RKS4_RKS5_ = comdat any

$_ZN7testing8internal11CmpHelperEQIliEENS_15AssertionResultEPKcS4_RKT_RKT0_ = comdat any

$_ZN7testing8internal18CmpHelperEQFailureIliEENS_15AssertionResultEPKcS4_RKT_RKT0_ = comdat any

$_ZN7testing8internal33FormatForComparisonFailureMessageIliEENSt7__cxx1112basic_stringIcSt11char_traitsIcESaIcEEERKT_RKT0_ = comdat any

$_ZN7testing8internal33FormatForComparisonFailureMessageIilEENSt7__cxx1112basic_stringIcSt11char_traitsIcESaIcEEERKT_RKT0_ = comdat any

$_ZN7testing8internal19FormatForComparisonIliE6FormatB5cxx11ERKl = comdat any

$_ZN7testing13PrintToStringIlEENSt7__cxx1112basic_stringIcSt11char_traitsIcESaIcEEERKT_ = comdat any

$_ZN7testing8internal21UniversalTersePrinterIlE5PrintERKlPSo = comdat any

$_ZN7testing8internal14UniversalPrintIlEEvRKT_PSo = comdat any

$_ZN7testing8internal16UniversalPrinterIlE5PrintERKlPSo = comdat any

$_ZN7testing8internal7PrintToIlEEvRKT_PSo = comdat any

$_ZN7testing8internal17PrintWithFallbackIlEEvRKT_PSo = comdat any

$_ZN7testing8internal52internal_stream_operator_without_lexical_name_lookup13StreamPrinter10PrintValueIlvEEDTcvvlsdefp0_fp_ERKT_PSo = comdat any

$_ZN7testing8internal19FormatForComparisonIilE6FormatB5cxx11ERKi = comdat any

$_ZN7testing13PrintToStringIiEENSt7__cxx1112basic_stringIcSt11char_traitsIcESaIcEEERKT_ = comdat any

$_ZN7testing8internal21UniversalTersePrinterIiE5PrintERKiPSo = comdat any

$_ZN7testing8internal14UniversalPrintIiEEvRKT_PSo = comdat any

$_ZN7testing8internal16UniversalPrinterIiE5PrintERKiPSo = comdat any

$_ZN7testing8internal7PrintToIiEEvRKT_PSo = comdat any

$_ZN7testing8internal17PrintWithFallbackIiEEvRKT_PSo = comdat any

$_ZN7testing8internal52internal_stream_operator_without_lexical_name_lookup13StreamPrinter10PrintValueIivEEDTcvvlsdefp0_fp_ERKT_PSo = comdat any

$_ZNKSt16initializer_listIPKcE5beginEv = comdat any

$_ZNKSt16initializer_listIPKcE3endEv = comdat any

$_ZN7testing11ScopedTraceC2EPKciRKNSt7__cxx1112basic_stringIcSt11char_traitsIcESaIcEEE = comdat any

$_ZStplIcSt11char_traitsIcESaIcEENSt7__cxx1112basic_stringIT_T0_T1_EEPKS5_RKS8_ = comdat any

$_ZNKSt16initializer_listIPKcE4sizeEv = comdat any

$_ZN9__gnu_cxx14__alloc_traitsISaIcEcE17_S_select_on_copyERKS1_ = comdat any

$_ZNSt16allocator_traitsISaIcEE37select_on_container_copy_constructionERKS0_ = comdat any

$_ZSt8copysignff = comdat any

$_ZNSt8functionIFdiEED2Ev = comdat any

$_ZNSt8functionIFNSt7__cxx1112basic_stringIcSt11char_traitsIcESaIcEEEiEED2Ev = comdat any

$_ZNKSt8functionIFNSt7__cxx1112basic_stringIcSt11char_traitsIcESaIcEEEiEEclEi = comdat any

$_ZNKSt8functionIFdiEEclEi = comdat any

$_ZN4absl9StrFormatIJddEEENSt7__cxx1112basic_stringIcSt11char_traitsIcESaIcEEERKNS_19str_format_internal18FormatSpecTemplateIJXspclsr19str_format_internalE14ArgumentToConvIT_EEEEEEDpRKS9_ = comdat any

$_ZN4absl19str_format_internal18FormatSpecTemplateIJLNS_23FormatConversionCharSetE654848ELS2_654848EEEC2EUa9enable_ifIXclL_ZNS0_15ValidFormatImplIJLS2_654848ELS2_654848EEEEbSt17basic_string_viewIcSt11char_traitsIcEEEfL0p_EEEPKc = comdat any

$_ZN7testing8internal11CmpHelperLTIddEENS_15AssertionResultEPKcS4_RKT_RKT0_ = comdat any

$_ZN7testing8internal11CmpHelperGTIddEENS_15AssertionResultEPKcS4_RKT_RKT0_ = comdat any

$_ZNKSt14_Function_base8_M_emptyEv = comdat any

$_ZN4absl19str_format_internal21UntypedFormatSpecImpl7ExtractINS0_18FormatSpecTemplateIJLNS_23FormatConversionCharSetE654848ELS4_654848EEEEEERKS1_RKT_ = comdat any

$_ZN4absl19str_format_internal13FormatArgImplC2IdEERKT_ = comdat any

$_ZN4absl4SpanIKNS_19str_format_internal13FormatArgImplEEC2IS3_S3_EESt16initializer_listIS2_E = comdat any

$_ZN4absl19str_format_internal13FormatArgImpl4InitIdEEvRKT_ = comdat any

$_ZN4absl19str_format_internal13FormatArgImpl7ManagerIdLNS1_13StoragePolicyE2EE8SetValueERKd = comdat any

$_ZNKSt16initializer_listIN4absl19str_format_internal13FormatArgImplEE5beginEv = comdat any

$_ZNKSt16initializer_listIN4absl19str_format_internal13FormatArgImplEE4sizeEv = comdat any

$_ZN4absl4SpanIKNS_19str_format_internal13FormatArgImplEEC2EPS3_m = comdat any

$_ZN4absl17UntypedFormatSpecC2ESt17basic_string_viewIcSt11char_traitsIcEE = comdat any

$_ZN4absl19str_format_internal21UntypedFormatSpecImplC2ESt17basic_string_viewIcSt11char_traitsIcEE = comdat any

$_ZNSt14_Function_baseC2Ev = comdat any

$_ZNSt9_Any_data9_M_accessEv = comdat any

$_ZNKSt9_Any_data9_M_accessEv = comdat any

$_ZNSt9_Any_data9_M_accessIPKSt9type_infoEERT_v = comdat any

$_ZNSt14_Function_baseD2Ev = comdat any

$_ZNSt8functionIFfiEED2Ev = comdat any

$_ZNKSt8functionIFfiEEclEi = comdat any

$_ZN4absl9StrFormatIJffEEENSt7__cxx1112basic_stringIcSt11char_traitsIcESaIcEEERKNS_19str_format_internal18FormatSpecTemplateIJXspclsr19str_format_internalE14ArgumentToConvIT_EEEEEEDpRKS9_ = comdat any

$_ZN7testing8internal11CmpHelperLTIfdEENS_15AssertionResultEPKcS4_RKT_RKT0_ = comdat any

$_ZN7testing8internal11CmpHelperGTIfdEENS_15AssertionResultEPKcS4_RKT_RKT0_ = comdat any

$_ZN4absl19str_format_internal13FormatArgImplC2IfEERKT_ = comdat any

$_ZN4absl19str_format_internal13FormatArgImpl4InitIfEEvRKT_ = comdat any

$_ZN4absl19str_format_internal13FormatArgImpl7ManagerIfLNS1_13StoragePolicyE2EE8SetValueERKf = comdat any

$_ZN7testing8internal18CmpHelperOpFailureIfdEENS_15AssertionResultEPKcS4_RKT_RKT0_S4_ = comdat any

$_ZN7testing8internal33FormatForComparisonFailureMessageIfdEENSt7__cxx1112basic_stringIcSt11char_traitsIcESaIcEEERKT_RKT0_ = comdat any

$_ZN7testing8internal33FormatForComparisonFailureMessageIdfEENSt7__cxx1112basic_stringIcSt11char_traitsIcESaIcEEERKT_RKT0_ = comdat any

$_ZN7testing8internal19FormatForComparisonIfdE6FormatB5cxx11ERKf = comdat any

$_ZN7testing8internal19FormatForComparisonIdfE6FormatB5cxx11ERKd = comdat any

$_ZSt5ldexpfi = comdat any

$_ZNSt7__cxx1112basic_stringIcSt11char_traitsIcESaIcEE12_M_constructIPKcEEvT_S8_St20forward_iterator_tag = comdat any

$_ZSt8distanceIPKcENSt15iterator_traitsIT_E15difference_typeES3_S3_ = comdat any

$_ZZNSt7__cxx1112basic_stringIcSt11char_traitsIcESaIcEE12_M_constructIPKcEEvT_S8_St20forward_iterator_tagEN6_GuardC2EPS4_ = comdat any

$_ZZNSt7__cxx1112basic_stringIcSt11char_traitsIcESaIcEE12_M_constructIPKcEEvT_S8_St20forward_iterator_tagEN6_GuardD2Ev = comdat any

$_ZSt10__distanceIPKcENSt15iterator_traitsIT_E15difference_typeES3_S3_St26random_access_iterator_tag = comdat any

$_ZSt19__iterator_categoryIPKcENSt15iterator_traitsIT_E17iterator_categoryERKS3_ = comdat any

$_ZN7testing8internal19GetNotDefaultOrNullEPFvvES2_ = comdat any

$_ZN7testing4Test13SetUpTestCaseEv = comdat any

$_ZN7testing4Test14SetUpTestSuiteEv = comdat any

$_ZN7testing8internal8GTestLog9GetStreamEv = comdat any

$_ZN7testing4Test16TearDownTestCaseEv = comdat any

$_ZN7testing4Test17TearDownTestSuiteEv = comdat any

$_ZTSN7testing8internal15TestFactoryBaseE = comdat any

$_ZTIN7testing8internal15TestFactoryBaseE = comdat any

$_ZTVN7testing8internal15TestFactoryBaseE = comdat any

@_ZStL8__ioinit = internal global %"class.std::ios_base::Init" zeroinitializer, align 1
@__dso_handle = external hidden global i8
@_ZN12_GLOBAL__N_132FromChars_NearRoundingCases_Test10test_info_E = internal global ptr null, align 8
@.str = private unnamed_addr constant [10 x i8] c"FromChars\00", align 1
@.str.2 = private unnamed_addr constant [18 x i8] c"NearRoundingCases\00", align 1
@.str.3 = private unnamed_addr constant [129 x i8] c"generated/home/dtcxzyw/WorkSpace/Projects/compilers/llvm-opt-benchmark/bench/abseil-cpp/abseil-cpp/absl/strings/charconv_test.cc\00", align 1
@_ZN12_GLOBAL__N_140FromChars_NearRoundingCasesExplicit_Test10test_info_E = internal global ptr null, align 8
@.str.5 = private unnamed_addr constant [26 x i8] c"NearRoundingCasesExplicit\00", align 1
@_ZN12_GLOBAL__N_129FromChars_DoubleRounding_Test10test_info_E = internal global ptr null, align 8
@.str.7 = private unnamed_addr constant [15 x i8] c"DoubleRounding\00", align 1
@_ZN12_GLOBAL__N_128FromChars_FloatRounding_Test10test_info_E = internal global ptr null, align 8
@.str.9 = private unnamed_addr constant [14 x i8] c"FloatRounding\00", align 1
@_ZN12_GLOBAL__N_124FromChars_Underflow_Test10test_info_E = internal global ptr null, align 8
@.str.11 = private unnamed_addr constant [10 x i8] c"Underflow\00", align 1
@_ZN12_GLOBAL__N_123FromChars_Overflow_Test10test_info_E = internal global ptr null, align 8
@.str.13 = private unnamed_addr constant [9 x i8] c"Overflow\00", align 1
@_ZN12_GLOBAL__N_140FromChars_RegressionTestsFromFuzzer_Test10test_info_E = internal global ptr null, align 8
@.str.15 = private unnamed_addr constant [26 x i8] c"RegressionTestsFromFuzzer\00", align 1
@_ZN12_GLOBAL__N_129FromChars_ReturnValuePtr_Test10test_info_E = internal global ptr null, align 8
@.str.17 = private unnamed_addr constant [15 x i8] c"ReturnValuePtr\00", align 1
@_ZN12_GLOBAL__N_131FromChars_TestVersusStrtod_Test10test_info_E = internal global ptr null, align 8
@.str.19 = private unnamed_addr constant [17 x i8] c"TestVersusStrtod\00", align 1
@_ZN12_GLOBAL__N_131FromChars_TestVersusStrtof_Test10test_info_E = internal global ptr null, align 8
@.str.21 = private unnamed_addr constant [17 x i8] c"TestVersusStrtof\00", align 1
@_ZN12_GLOBAL__N_125FromChars_NaNDoubles_Test10test_info_E = internal global ptr null, align 8
@.str.23 = private unnamed_addr constant [11 x i8] c"NaNDoubles\00", align 1
@_ZN12_GLOBAL__N_124FromChars_NaNFloats_Test10test_info_E = internal global ptr null, align 8
@.str.25 = private unnamed_addr constant [10 x i8] c"NaNFloats\00", align 1
@_ZN12_GLOBAL__N_137FromChars_HexdecimalDoubleLimits_Test10test_info_E = internal global ptr null, align 8
@.str.27 = private unnamed_addr constant [23 x i8] c"HexdecimalDoubleLimits\00", align 1
@_ZN12_GLOBAL__N_136FromChars_HexdecimalFloatLimits_Test10test_info_E = internal global ptr null, align 8
@.str.29 = private unnamed_addr constant [22 x i8] c"HexdecimalFloatLimits\00", align 1
@_ZN12_GLOBAL__N_134FromChars_DecimalDoubleLimits_Test10test_info_E = internal global ptr null, align 8
@.str.31 = private unnamed_addr constant [20 x i8] c"DecimalDoubleLimits\00", align 1
@_ZN12_GLOBAL__N_133FromChars_DecimalFloatLimits_Test10test_info_E = internal global ptr null, align 8
@.str.33 = private unnamed_addr constant [19 x i8] c"DecimalFloatLimits\00", align 1
@_ZTVN7testing8internal15TestFactoryImplIN12_GLOBAL__N_132FromChars_NearRoundingCases_TestEEE = internal unnamed_addr constant { [5 x ptr] } { [5 x ptr] [ptr null, ptr @_ZTIN7testing8internal15TestFactoryImplIN12_GLOBAL__N_132FromChars_NearRoundingCases_TestEEE, ptr @_ZN7testing8internal15TestFactoryImplIN12_GLOBAL__N_132FromChars_NearRoundingCases_TestEED2Ev, ptr @_ZN7testing8internal15TestFactoryImplIN12_GLOBAL__N_132FromChars_NearRoundingCases_TestEED0Ev, ptr @_ZN7testing8internal15TestFactoryImplIN12_GLOBAL__N_132FromChars_NearRoundingCases_TestEE10CreateTestEv] }, align 8
@_ZTVN10__cxxabiv120__si_class_type_infoE = external global [0 x ptr]
@_ZTSN7testing8internal15TestFactoryImplIN12_GLOBAL__N_132FromChars_NearRoundingCases_TestEEE = internal constant [89 x i8] c"N7testing8internal15TestFactoryImplIN12_GLOBAL__N_132FromChars_NearRoundingCases_TestEEE\00", align 1
@_ZTVN10__cxxabiv117__class_type_infoE = external global [0 x ptr]
@_ZTSN7testing8internal15TestFactoryBaseE = linkonce_odr dso_local constant [37 x i8] c"N7testing8internal15TestFactoryBaseE\00", comdat, align 1
@_ZTIN7testing8internal15TestFactoryBaseE = linkonce_odr dso_local constant { ptr, ptr } { ptr getelementptr inbounds (ptr, ptr @_ZTVN10__cxxabiv117__class_type_infoE, i64 2), ptr @_ZTSN7testing8internal15TestFactoryBaseE }, comdat, align 8
@_ZTIN7testing8internal15TestFactoryImplIN12_GLOBAL__N_132FromChars_NearRoundingCases_TestEEE = internal constant { ptr, ptr, ptr } { ptr getelementptr inbounds (ptr, ptr @_ZTVN10__cxxabiv120__si_class_type_infoE, i64 2), ptr @_ZTSN7testing8internal15TestFactoryImplIN12_GLOBAL__N_132FromChars_NearRoundingCases_TestEEE, ptr @_ZTIN7testing8internal15TestFactoryBaseE }, align 8
@_ZTVN7testing8internal15TestFactoryBaseE = linkonce_odr dso_local unnamed_addr constant { [5 x ptr] } { [5 x ptr] [ptr null, ptr @_ZTIN7testing8internal15TestFactoryBaseE, ptr @_ZN7testing8internal15TestFactoryBaseD2Ev, ptr @_ZN7testing8internal15TestFactoryBaseD0Ev, ptr @__cxa_pure_virtual] }, comdat, align 8
@_ZTVN12_GLOBAL__N_132FromChars_NearRoundingCases_TestE = internal unnamed_addr constant { [8 x ptr] } { [8 x ptr] [ptr null, ptr @_ZTIN12_GLOBAL__N_132FromChars_NearRoundingCases_TestE, ptr @_ZN12_GLOBAL__N_132FromChars_NearRoundingCases_TestD2Ev, ptr @_ZN12_GLOBAL__N_132FromChars_NearRoundingCases_TestD0Ev, ptr @_ZN7testing4Test5SetUpEv, ptr @_ZN7testing4Test8TearDownEv, ptr @_ZN12_GLOBAL__N_132FromChars_NearRoundingCases_Test8TestBodyEv, ptr @_ZN7testing4Test5SetupEv] }, align 8
@_ZTSN12_GLOBAL__N_132FromChars_NearRoundingCases_TestE = internal constant [51 x i8] c"N12_GLOBAL__N_132FromChars_NearRoundingCases_TestE\00", align 1
@_ZTIN7testing4TestE = external constant ptr
@_ZTIN12_GLOBAL__N_132FromChars_NearRoundingCases_TestE = internal constant { ptr, ptr, ptr } { ptr getelementptr inbounds (ptr, ptr @_ZTVN10__cxxabiv120__si_class_type_infoE, i64 2), ptr @_ZTSN12_GLOBAL__N_132FromChars_NearRoundingCases_TestE, ptr @_ZTIN7testing4TestE }, align 8
@.str.34 = private unnamed_addr constant [7 x i8] c"5.e125\00", align 1
@.str.35 = private unnamed_addr constant [8 x i8] c"-5.e125\00", align 1
@.str.36 = private unnamed_addr constant [8 x i8] c"69.e267\00", align 1
@.str.37 = private unnamed_addr constant [9 x i8] c"-69.e267\00", align 1
@.str.38 = private unnamed_addr constant [10 x i8] c"999.e-026\00", align 1
@.str.39 = private unnamed_addr constant [11 x i8] c"-999.e-026\00", align 1
@.str.40 = private unnamed_addr constant [11 x i8] c"7861.e-034\00", align 1
@.str.41 = private unnamed_addr constant [12 x i8] c"-7861.e-034\00", align 1
@.str.42 = private unnamed_addr constant [12 x i8] c"75569.e-254\00", align 1
@.str.43 = private unnamed_addr constant [13 x i8] c"-75569.e-254\00", align 1
@.str.44 = private unnamed_addr constant [13 x i8] c"928609.e-261\00", align 1
@.str.45 = private unnamed_addr constant [14 x i8] c"-928609.e-261\00", align 1
@.str.46 = private unnamed_addr constant [13 x i8] c"9210917.e080\00", align 1
@.str.47 = private unnamed_addr constant [14 x i8] c"-9210917.e080\00", align 1
@.str.48 = private unnamed_addr constant [14 x i8] c"84863171.e114\00", align 1
@.str.49 = private unnamed_addr constant [15 x i8] c"-84863171.e114\00", align 1
@.str.50 = private unnamed_addr constant [15 x i8] c"653777767.e273\00", align 1
@.str.51 = private unnamed_addr constant [16 x i8] c"-653777767.e273\00", align 1
@.str.52 = private unnamed_addr constant [17 x i8] c"5232604057.e-298\00", align 1
@.str.53 = private unnamed_addr constant [18 x i8] c"-5232604057.e-298\00", align 1
@.str.54 = private unnamed_addr constant [18 x i8] c"27235667517.e-109\00", align 1
@.str.55 = private unnamed_addr constant [19 x i8] c"-27235667517.e-109\00", align 1
@.str.56 = private unnamed_addr constant [19 x i8] c"653532977297.e-123\00", align 1
@.str.57 = private unnamed_addr constant [20 x i8] c"-653532977297.e-123\00", align 1
@.str.58 = private unnamed_addr constant [20 x i8] c"3142213164987.e-294\00", align 1
@.str.59 = private unnamed_addr constant [21 x i8] c"-3142213164987.e-294\00", align 1
@.str.60 = private unnamed_addr constant [21 x i8] c"46202199371337.e-072\00", align 1
@.str.61 = private unnamed_addr constant [22 x i8] c"-46202199371337.e-072\00", align 1
@.str.62 = private unnamed_addr constant [22 x i8] c"231010996856685.e-073\00", align 1
@.str.63 = private unnamed_addr constant [23 x i8] c"-231010996856685.e-073\00", align 1
@.str.64 = private unnamed_addr constant [22 x i8] c"9324754620109615.e212\00", align 1
@.str.65 = private unnamed_addr constant [23 x i8] c"-9324754620109615.e212\00", align 1
@.str.66 = private unnamed_addr constant [23 x i8] c"78459735791271921.e049\00", align 1
@.str.67 = private unnamed_addr constant [24 x i8] c"-78459735791271921.e049\00", align 1
@.str.68 = private unnamed_addr constant [24 x i8] c"272104041512242479.e200\00", align 1
@.str.69 = private unnamed_addr constant [25 x i8] c"-272104041512242479.e200\00", align 1
@.str.70 = private unnamed_addr constant [25 x i8] c"6802601037806061975.e198\00", align 1
@.str.71 = private unnamed_addr constant [26 x i8] c"-6802601037806061975.e198\00", align 1
@.str.72 = private unnamed_addr constant [27 x i8] c"20505426358836677347.e-221\00", align 1
@.str.73 = private unnamed_addr constant [28 x i8] c"-20505426358836677347.e-221\00", align 1
@.str.74 = private unnamed_addr constant [28 x i8] c"836168422905420598437.e-234\00", align 1
@.str.75 = private unnamed_addr constant [29 x i8] c"-836168422905420598437.e-234\00", align 1
@.str.76 = private unnamed_addr constant [28 x i8] c"4891559871276714924261.e222\00", align 1
@.str.77 = private unnamed_addr constant [29 x i8] c"-4891559871276714924261.e222\00", align 1
@.str.78 = private unnamed_addr constant [7 x i8] c"5.e-20\00", align 1
@.str.79 = private unnamed_addr constant [8 x i8] c"-5.e-20\00", align 1
@.str.80 = private unnamed_addr constant [7 x i8] c"67.e14\00", align 1
@.str.81 = private unnamed_addr constant [8 x i8] c"-67.e14\00", align 1
@.str.82 = private unnamed_addr constant [8 x i8] c"985.e15\00", align 1
@.str.83 = private unnamed_addr constant [9 x i8] c"-985.e15\00", align 1
@.str.84 = private unnamed_addr constant [10 x i8] c"7693.e-42\00", align 1
@.str.85 = private unnamed_addr constant [11 x i8] c"-7693.e-42\00", align 1
@.str.86 = private unnamed_addr constant [11 x i8] c"55895.e-16\00", align 1
@.str.87 = private unnamed_addr constant [12 x i8] c"-55895.e-16\00", align 1
@.str.88 = private unnamed_addr constant [12 x i8] c"996622.e-44\00", align 1
@.str.89 = private unnamed_addr constant [13 x i8] c"-996622.e-44\00", align 1
@.str.90 = private unnamed_addr constant [13 x i8] c"7038531.e-32\00", align 1
@.str.91 = private unnamed_addr constant [14 x i8] c"-7038531.e-32\00", align 1
@.str.92 = private unnamed_addr constant [14 x i8] c"60419369.e-46\00", align 1
@.str.93 = private unnamed_addr constant [15 x i8] c"-60419369.e-46\00", align 1
@.str.94 = private unnamed_addr constant [15 x i8] c"702990899.e-20\00", align 1
@.str.95 = private unnamed_addr constant [16 x i8] c"-702990899.e-20\00", align 1
@.str.96 = private unnamed_addr constant [16 x i8] c"6930161142.e-48\00", align 1
@.str.97 = private unnamed_addr constant [17 x i8] c"-6930161142.e-48\00", align 1
@.str.98 = private unnamed_addr constant [17 x i8] c"25933168707.e-13\00", align 1
@.str.99 = private unnamed_addr constant [18 x i8] c"-25933168707.e-13\00", align 1
@.str.100 = private unnamed_addr constant [17 x i8] c"596428896559.e20\00", align 1
@.str.101 = private unnamed_addr constant [18 x i8] c"-596428896559.e20\00", align 1
@.str.102 = private unnamed_addr constant [8 x i8] c"9.e-265\00", align 1
@.str.103 = private unnamed_addr constant [9 x i8] c"-9.e-265\00", align 1
@.str.104 = private unnamed_addr constant [9 x i8] c"85.e-037\00", align 1
@.str.105 = private unnamed_addr constant [10 x i8] c"-85.e-037\00", align 1
@.str.106 = private unnamed_addr constant [9 x i8] c"623.e100\00", align 1
@.str.107 = private unnamed_addr constant [10 x i8] c"-623.e100\00", align 1
@.str.108 = private unnamed_addr constant [10 x i8] c"3571.e263\00", align 1
@.str.109 = private unnamed_addr constant [11 x i8] c"-3571.e263\00", align 1
@.str.110 = private unnamed_addr constant [11 x i8] c"81661.e153\00", align 1
@.str.111 = private unnamed_addr constant [12 x i8] c"-81661.e153\00", align 1
@.str.112 = private unnamed_addr constant [13 x i8] c"920657.e-023\00", align 1
@.str.113 = private unnamed_addr constant [14 x i8] c"-920657.e-023\00", align 1
@.str.114 = private unnamed_addr constant [14 x i8] c"4603285.e-024\00", align 1
@.str.115 = private unnamed_addr constant [15 x i8] c"-4603285.e-024\00", align 1
@.str.116 = private unnamed_addr constant [15 x i8] c"87575437.e-309\00", align 1
@.str.117 = private unnamed_addr constant [16 x i8] c"-87575437.e-309\00", align 1
@.str.118 = private unnamed_addr constant [15 x i8] c"245540327.e122\00", align 1
@.str.119 = private unnamed_addr constant [16 x i8] c"-245540327.e122\00", align 1
@.str.120 = private unnamed_addr constant [16 x i8] c"6138508175.e120\00", align 1
@.str.121 = private unnamed_addr constant [17 x i8] c"-6138508175.e120\00", align 1
@.str.122 = private unnamed_addr constant [17 x i8] c"83356057653.e193\00", align 1
@.str.123 = private unnamed_addr constant [18 x i8] c"-83356057653.e193\00", align 1
@.str.124 = private unnamed_addr constant [18 x i8] c"619534293513.e124\00", align 1
@.str.125 = private unnamed_addr constant [19 x i8] c"-619534293513.e124\00", align 1
@.str.126 = private unnamed_addr constant [19 x i8] c"2335141086879.e218\00", align 1
@.str.127 = private unnamed_addr constant [20 x i8] c"-2335141086879.e218\00", align 1
@.str.128 = private unnamed_addr constant [21 x i8] c"36167929443327.e-159\00", align 1
@.str.129 = private unnamed_addr constant [22 x i8] c"-36167929443327.e-159\00", align 1
@.str.130 = private unnamed_addr constant [22 x i8] c"609610927149051.e-255\00", align 1
@.str.131 = private unnamed_addr constant [23 x i8] c"-609610927149051.e-255\00", align 1
@.str.132 = private unnamed_addr constant [23 x i8] c"3743626360493413.e-165\00", align 1
@.str.133 = private unnamed_addr constant [24 x i8] c"-3743626360493413.e-165\00", align 1
@.str.134 = private unnamed_addr constant [24 x i8] c"94080055902682397.e-242\00", align 1
@.str.135 = private unnamed_addr constant [25 x i8] c"-94080055902682397.e-242\00", align 1
@.str.136 = private unnamed_addr constant [24 x i8] c"899810892172646163.e283\00", align 1
@.str.137 = private unnamed_addr constant [25 x i8] c"-899810892172646163.e283\00", align 1
@.str.138 = private unnamed_addr constant [25 x i8] c"7120190517612959703.e120\00", align 1
@.str.139 = private unnamed_addr constant [26 x i8] c"-7120190517612959703.e120\00", align 1
@.str.140 = private unnamed_addr constant [27 x i8] c"25188282901709339043.e-252\00", align 1
@.str.141 = private unnamed_addr constant [28 x i8] c"-25188282901709339043.e-252\00", align 1
@.str.142 = private unnamed_addr constant [28 x i8] c"308984926168550152811.e-052\00", align 1
@.str.143 = private unnamed_addr constant [29 x i8] c"-308984926168550152811.e-052\00", align 1
@.str.144 = private unnamed_addr constant [28 x i8] c"6372891218502368041059.e064\00", align 1
@.str.145 = private unnamed_addr constant [29 x i8] c"-6372891218502368041059.e064\00", align 1
@.str.146 = private unnamed_addr constant [7 x i8] c"3.e-23\00", align 1
@.str.147 = private unnamed_addr constant [8 x i8] c"-3.e-23\00", align 1
@.str.148 = private unnamed_addr constant [7 x i8] c"57.e18\00", align 1
@.str.149 = private unnamed_addr constant [8 x i8] c"-57.e18\00", align 1
@.str.150 = private unnamed_addr constant [9 x i8] c"789.e-35\00", align 1
@.str.151 = private unnamed_addr constant [10 x i8] c"-789.e-35\00", align 1
@.str.152 = private unnamed_addr constant [10 x i8] c"2539.e-18\00", align 1
@.str.153 = private unnamed_addr constant [11 x i8] c"-2539.e-18\00", align 1
@.str.154 = private unnamed_addr constant [10 x i8] c"76173.e28\00", align 1
@.str.155 = private unnamed_addr constant [11 x i8] c"-76173.e28\00", align 1
@.str.156 = private unnamed_addr constant [12 x i8] c"887745.e-11\00", align 1
@.str.157 = private unnamed_addr constant [13 x i8] c"-887745.e-11\00", align 1
@.str.158 = private unnamed_addr constant [13 x i8] c"5382571.e-37\00", align 1
@.str.159 = private unnamed_addr constant [14 x i8] c"-5382571.e-37\00", align 1
@.str.160 = private unnamed_addr constant [14 x i8] c"82381273.e-35\00", align 1
@.str.161 = private unnamed_addr constant [15 x i8] c"-82381273.e-35\00", align 1
@.str.162 = private unnamed_addr constant [15 x i8] c"750486563.e-38\00", align 1
@.str.163 = private unnamed_addr constant [16 x i8] c"-750486563.e-38\00", align 1
@.str.164 = private unnamed_addr constant [16 x i8] c"3752432815.e-39\00", align 1
@.str.165 = private unnamed_addr constant [17 x i8] c"-3752432815.e-39\00", align 1
@.str.166 = private unnamed_addr constant [17 x i8] c"75224575729.e-45\00", align 1
@.str.167 = private unnamed_addr constant [18 x i8] c"-75224575729.e-45\00", align 1
@.str.168 = private unnamed_addr constant [17 x i8] c"459926601011.e15\00", align 1
@.str.169 = private unnamed_addr constant [18 x i8] c"-459926601011.e15\00", align 1
@.str.170 = private unnamed_addr constant [10 x i8] c"result.ec\00", align 1
@.str.171 = private unnamed_addr constant [12 x i8] c"std::errc()\00", align 1
@.str.172 = private unnamed_addr constant [11 x i8] c"result.ptr\00", align 1
@.str.173 = private unnamed_addr constant [26 x i8] c"str.data() + str.length()\00", align 1
@.str.174 = private unnamed_addr constant [14 x i8] c"actual_number\00", align 1
@.str.175 = private unnamed_addr constant [16 x i8] c"expected_number\00", align 1
@.str.176 = private unnamed_addr constant [1 x i8] zeroinitializer, align 1
@.str.177 = private unnamed_addr constant [5 x i8] c"NULL\00", align 1
@_ZTVN7testing8internal15TestFactoryImplIN12_GLOBAL__N_140FromChars_NearRoundingCasesExplicit_TestEEE = internal unnamed_addr constant { [5 x ptr] } { [5 x ptr] [ptr null, ptr @_ZTIN7testing8internal15TestFactoryImplIN12_GLOBAL__N_140FromChars_NearRoundingCasesExplicit_TestEEE, ptr @_ZN7testing8internal15TestFactoryImplIN12_GLOBAL__N_140FromChars_NearRoundingCasesExplicit_TestEED2Ev, ptr @_ZN7testing8internal15TestFactoryImplIN12_GLOBAL__N_140FromChars_NearRoundingCasesExplicit_TestEED0Ev, ptr @_ZN7testing8internal15TestFactoryImplIN12_GLOBAL__N_140FromChars_NearRoundingCasesExplicit_TestEE10CreateTestEv] }, align 8
@_ZTSN7testing8internal15TestFactoryImplIN12_GLOBAL__N_140FromChars_NearRoundingCasesExplicit_TestEEE = internal constant [97 x i8] c"N7testing8internal15TestFactoryImplIN12_GLOBAL__N_140FromChars_NearRoundingCasesExplicit_TestEEE\00", align 1
@_ZTIN7testing8internal15TestFactoryImplIN12_GLOBAL__N_140FromChars_NearRoundingCasesExplicit_TestEEE = internal constant { ptr, ptr, ptr } { ptr getelementptr inbounds (ptr, ptr @_ZTVN10__cxxabiv120__si_class_type_infoE, i64 2), ptr @_ZTSN7testing8internal15TestFactoryImplIN12_GLOBAL__N_140FromChars_NearRoundingCasesExplicit_TestEEE, ptr @_ZTIN7testing8internal15TestFactoryBaseE }, align 8
@_ZTVN12_GLOBAL__N_140FromChars_NearRoundingCasesExplicit_TestE = internal unnamed_addr constant { [8 x ptr] } { [8 x ptr] [ptr null, ptr @_ZTIN12_GLOBAL__N_140FromChars_NearRoundingCasesExplicit_TestE, ptr @_ZN12_GLOBAL__N_140FromChars_NearRoundingCasesExplicit_TestD2Ev, ptr @_ZN12_GLOBAL__N_140FromChars_NearRoundingCasesExplicit_TestD0Ev, ptr @_ZN7testing4Test5SetUpEv, ptr @_ZN7testing4Test8TearDownEv, ptr @_ZN12_GLOBAL__N_140FromChars_NearRoundingCasesExplicit_Test8TestBodyEv, ptr @_ZN7testing4Test5SetupEv] }, align 8
@_ZTSN12_GLOBAL__N_140FromChars_NearRoundingCasesExplicit_TestE = internal constant [59 x i8] c"N12_GLOBAL__N_140FromChars_NearRoundingCasesExplicit_TestE\00", align 1
@_ZTIN12_GLOBAL__N_140FromChars_NearRoundingCasesExplicit_TestE = internal constant { ptr, ptr, ptr } { ptr getelementptr inbounds (ptr, ptr @_ZTVN10__cxxabiv120__si_class_type_infoE, i64 2), ptr @_ZTSN12_GLOBAL__N_140FromChars_NearRoundingCasesExplicit_TestE, ptr @_ZTIN7testing4TestE }, align 8
@.str.178 = private unnamed_addr constant [19 x i8] c"ToDouble(\225.e125\22)\00", align 1
@.str.179 = private unnamed_addr constant [29 x i8] c"ldexp(6653062250012735, 365)\00", align 1
@.str.180 = private unnamed_addr constant [20 x i8] c"ToDouble(\2269.e267\22)\00", align 1
@.str.181 = private unnamed_addr constant [29 x i8] c"ldexp(4705683757438170, 841)\00", align 1
@.str.182 = private unnamed_addr constant [22 x i8] c"ToDouble(\22999.e-026\22)\00", align 1
@.str.183 = private unnamed_addr constant [30 x i8] c"ldexp(6798841691080350, -129)\00", align 1
@.str.184 = private unnamed_addr constant [23 x i8] c"ToDouble(\227861.e-034\22)\00", align 1
@.str.185 = private unnamed_addr constant [30 x i8] c"ldexp(8975675289889240, -153)\00", align 1
@.str.186 = private unnamed_addr constant [24 x i8] c"ToDouble(\2275569.e-254\22)\00", align 1
@.str.187 = private unnamed_addr constant [30 x i8] c"ldexp(6091718967192243, -880)\00", align 1
@.str.188 = private unnamed_addr constant [25 x i8] c"ToDouble(\22928609.e-261\22)\00", align 1
@.str.189 = private unnamed_addr constant [30 x i8] c"ldexp(7849264900213743, -900)\00", align 1
@.str.190 = private unnamed_addr constant [25 x i8] c"ToDouble(\229210917.e080\22)\00", align 1
@.str.191 = private unnamed_addr constant [29 x i8] c"ldexp(8341110837370930, 236)\00", align 1
@.str.192 = private unnamed_addr constant [26 x i8] c"ToDouble(\2284863171.e114\22)\00", align 1
@.str.193 = private unnamed_addr constant [29 x i8] c"ldexp(4625202867375927, 353)\00", align 1
@.str.194 = private unnamed_addr constant [27 x i8] c"ToDouble(\22653777767.e273\22)\00", align 1
@.str.195 = private unnamed_addr constant [29 x i8] c"ldexp(5068902999763073, 884)\00", align 1
@.str.196 = private unnamed_addr constant [29 x i8] c"ToDouble(\225232604057.e-298\22)\00", align 1
@.str.197 = private unnamed_addr constant [31 x i8] c"ldexp(5741343011915040, -1010)\00", align 1
@.str.198 = private unnamed_addr constant [30 x i8] c"ToDouble(\2227235667517.e-109\22)\00", align 1
@.str.199 = private unnamed_addr constant [30 x i8] c"ldexp(6707124626673586, -380)\00", align 1
@.str.200 = private unnamed_addr constant [31 x i8] c"ToDouble(\22653532977297.e-123\22)\00", align 1
@.str.201 = private unnamed_addr constant [30 x i8] c"ldexp(7078246407265384, -422)\00", align 1
@.str.202 = private unnamed_addr constant [32 x i8] c"ToDouble(\223142213164987.e-294\22)\00", align 1
@.str.203 = private unnamed_addr constant [30 x i8] c"ldexp(8219991337640559, -988)\00", align 1
@.str.204 = private unnamed_addr constant [33 x i8] c"ToDouble(\2246202199371337.e-072\22)\00", align 1
@.str.205 = private unnamed_addr constant [30 x i8] c"ldexp(5224462102115359, -246)\00", align 1
@.str.206 = private unnamed_addr constant [34 x i8] c"ToDouble(\22231010996856685.e-073\22)\00", align 1
@.str.207 = private unnamed_addr constant [30 x i8] c"ldexp(5224462102115359, -247)\00", align 1
@.str.208 = private unnamed_addr constant [34 x i8] c"ToDouble(\229324754620109615.e212\22)\00", align 1
@.str.209 = private unnamed_addr constant [29 x i8] c"ldexp(5539753864394442, 705)\00", align 1
@.str.210 = private unnamed_addr constant [35 x i8] c"ToDouble(\2278459735791271921.e049\22)\00", align 1
@.str.211 = private unnamed_addr constant [29 x i8] c"ldexp(8388176519442766, 166)\00", align 1
@.str.212 = private unnamed_addr constant [36 x i8] c"ToDouble(\22272104041512242479.e200\22)\00", align 1
@.str.213 = private unnamed_addr constant [29 x i8] c"ldexp(5554409530847367, 670)\00", align 1
@.str.214 = private unnamed_addr constant [37 x i8] c"ToDouble(\226802601037806061975.e198\22)\00", align 1
@.str.215 = private unnamed_addr constant [29 x i8] c"ldexp(5554409530847367, 668)\00", align 1
@.str.216 = private unnamed_addr constant [39 x i8] c"ToDouble(\2220505426358836677347.e-221\22)\00", align 1
@.str.217 = private unnamed_addr constant [30 x i8] c"ldexp(4524032052079546, -722)\00", align 1
@.str.218 = private unnamed_addr constant [40 x i8] c"ToDouble(\22836168422905420598437.e-234\22)\00", align 1
@.str.219 = private unnamed_addr constant [30 x i8] c"ldexp(5070963299887562, -760)\00", align 1
@.str.220 = private unnamed_addr constant [40 x i8] c"ToDouble(\224891559871276714924261.e222\22)\00", align 1
@.str.221 = private unnamed_addr constant [29 x i8] c"ldexp(6452687840519111, 757)\00", align 1
@.str.222 = private unnamed_addr constant [18 x i8] c"ToFloat(\225.e-20\22)\00", align 1
@.str.223 = private unnamed_addr constant [22 x i8] c"ldexpf(15474250, -88)\00", align 1
@.str.224 = private unnamed_addr constant [18 x i8] c"ToFloat(\2267.e14\22)\00", align 1
@.str.225 = private unnamed_addr constant [21 x i8] c"ldexpf(12479722, 29)\00", align 1
@.str.226 = private unnamed_addr constant [19 x i8] c"ToFloat(\22985.e15\22)\00", align 1
@.str.227 = private unnamed_addr constant [21 x i8] c"ldexpf(14333636, 36)\00", align 1
@.str.228 = private unnamed_addr constant [21 x i8] c"ToFloat(\227693.e-42\22)\00", align 1
@.str.229 = private unnamed_addr constant [23 x i8] c"ldexpf(10979816, -150)\00", align 1
@.str.230 = private unnamed_addr constant [22 x i8] c"ToFloat(\2255895.e-16\22)\00", align 1
@.str.231 = private unnamed_addr constant [22 x i8] c"ldexpf(12888509, -61)\00", align 1
@.str.232 = private unnamed_addr constant [23 x i8] c"ToFloat(\22996622.e-44\22)\00", align 1
@.str.233 = private unnamed_addr constant [23 x i8] c"ldexpf(14224264, -150)\00", align 1
@.str.234 = private unnamed_addr constant [24 x i8] c"ToFloat(\227038531.e-32\22)\00", align 1
@.str.235 = private unnamed_addr constant [23 x i8] c"ldexpf(11420669, -107)\00", align 1
@.str.236 = private unnamed_addr constant [25 x i8] c"ToFloat(\2260419369.e-46\22)\00", align 1
@.str.237 = private unnamed_addr constant [22 x i8] c"ldexpf(8623340, -150)\00", align 1
@.str.238 = private unnamed_addr constant [26 x i8] c"ToFloat(\22702990899.e-20\22)\00", align 1
@.str.239 = private unnamed_addr constant [22 x i8] c"ldexpf(16209866, -61)\00", align 1
@.str.240 = private unnamed_addr constant [27 x i8] c"ToFloat(\226930161142.e-48\22)\00", align 1
@.str.241 = private unnamed_addr constant [22 x i8] c"ldexpf(9891056, -150)\00", align 1
@.str.242 = private unnamed_addr constant [28 x i8] c"ToFloat(\2225933168707.e-13\22)\00", align 1
@.str.243 = private unnamed_addr constant [22 x i8] c"ldexpf(11138211, -32)\00", align 1
@.str.244 = private unnamed_addr constant [28 x i8] c"ToFloat(\22596428896559.e20\22)\00", align 1
@.str.245 = private unnamed_addr constant [21 x i8] c"ldexpf(12333860, 82)\00", align 1
@.str.246 = private unnamed_addr constant [20 x i8] c"ToDouble(\229.e-265\22)\00", align 1
@.str.247 = private unnamed_addr constant [30 x i8] c"ldexp(8168427841980010, -930)\00", align 1
@.str.248 = private unnamed_addr constant [21 x i8] c"ToDouble(\2285.e-037\22)\00", align 1
@.str.249 = private unnamed_addr constant [30 x i8] c"ldexp(6360455125664090, -169)\00", align 1
@.str.250 = private unnamed_addr constant [21 x i8] c"ToDouble(\22623.e100\22)\00", align 1
@.str.251 = private unnamed_addr constant [29 x i8] c"ldexp(6263531988747231, 289)\00", align 1
@.str.252 = private unnamed_addr constant [22 x i8] c"ToDouble(\223571.e263\22)\00", align 1
@.str.253 = private unnamed_addr constant [29 x i8] c"ldexp(6234526311072170, 833)\00", align 1
@.str.254 = private unnamed_addr constant [23 x i8] c"ToDouble(\2281661.e153\22)\00", align 1
@.str.255 = private unnamed_addr constant [29 x i8] c"ldexp(6696636728760206, 472)\00", align 1
@.str.256 = private unnamed_addr constant [25 x i8] c"ToDouble(\22920657.e-023\22)\00", align 1
@.str.257 = private unnamed_addr constant [30 x i8] c"ldexp(5975405561110124, -109)\00", align 1
@.str.258 = private unnamed_addr constant [26 x i8] c"ToDouble(\224603285.e-024\22)\00", align 1
@.str.259 = private unnamed_addr constant [30 x i8] c"ldexp(5975405561110124, -110)\00", align 1
@.str.260 = private unnamed_addr constant [27 x i8] c"ToDouble(\2287575437.e-309\22)\00", align 1
@.str.261 = private unnamed_addr constant [31 x i8] c"ldexp(8452160731874668, -1053)\00", align 1
@.str.262 = private unnamed_addr constant [27 x i8] c"ToDouble(\22245540327.e122\22)\00", align 1
@.str.263 = private unnamed_addr constant [29 x i8] c"ldexp(4985336549131723, 381)\00", align 1
@.str.264 = private unnamed_addr constant [28 x i8] c"ToDouble(\226138508175.e120\22)\00", align 1
@.str.265 = private unnamed_addr constant [29 x i8] c"ldexp(4985336549131723, 379)\00", align 1
@.str.266 = private unnamed_addr constant [29 x i8] c"ToDouble(\2283356057653.e193\22)\00", align 1
@.str.267 = private unnamed_addr constant [29 x i8] c"ldexp(5986732817132056, 625)\00", align 1
@.str.268 = private unnamed_addr constant [30 x i8] c"ToDouble(\22619534293513.e124\22)\00", align 1
@.str.269 = private unnamed_addr constant [29 x i8] c"ldexp(4798406992060657, 399)\00", align 1
@.str.270 = private unnamed_addr constant [31 x i8] c"ToDouble(\222335141086879.e218\22)\00", align 1
@.str.271 = private unnamed_addr constant [29 x i8] c"ldexp(5419088166961646, 713)\00", align 1
@.str.272 = private unnamed_addr constant [33 x i8] c"ToDouble(\2236167929443327.e-159\22)\00", align 1
@.str.273 = private unnamed_addr constant [30 x i8] c"ldexp(8135819834632444, -536)\00", align 1
@.str.274 = private unnamed_addr constant [34 x i8] c"ToDouble(\22609610927149051.e-255\22)\00", align 1
@.str.275 = private unnamed_addr constant [30 x i8] c"ldexp(4576664294594737, -850)\00", align 1
@.str.276 = private unnamed_addr constant [35 x i8] c"ToDouble(\223743626360493413.e-165\22)\00", align 1
@.str.277 = private unnamed_addr constant [30 x i8] c"ldexp(6898586531774201, -549)\00", align 1
@.str.278 = private unnamed_addr constant [36 x i8] c"ToDouble(\2294080055902682397.e-242\22)\00", align 1
@.str.279 = private unnamed_addr constant [30 x i8] c"ldexp(6273271706052298, -800)\00", align 1
@.str.280 = private unnamed_addr constant [36 x i8] c"ToDouble(\22899810892172646163.e283\22)\00", align 1
@.str.281 = private unnamed_addr constant [29 x i8] c"ldexp(7563892574477827, 947)\00", align 1
@.str.282 = private unnamed_addr constant [37 x i8] c"ToDouble(\227120190517612959703.e120\22)\00", align 1
@.str.283 = private unnamed_addr constant [29 x i8] c"ldexp(5385467232557565, 409)\00", align 1
@.str.284 = private unnamed_addr constant [39 x i8] c"ToDouble(\2225188282901709339043.e-252\22)\00", align 1
@.str.285 = private unnamed_addr constant [30 x i8] c"ldexp(5635662608542340, -825)\00", align 1
@.str.286 = private unnamed_addr constant [40 x i8] c"ToDouble(\22308984926168550152811.e-052\22)\00", align 1
@.str.287 = private unnamed_addr constant [30 x i8] c"ldexp(5644774693823803, -157)\00", align 1
@.str.288 = private unnamed_addr constant [40 x i8] c"ToDouble(\226372891218502368041059.e064\22)\00", align 1
@.str.289 = private unnamed_addr constant [29 x i8] c"ldexp(4616868614322430, 233)\00", align 1
@.str.290 = private unnamed_addr constant [18 x i8] c"ToFloat(\223.e-23\22)\00", align 1
@.str.291 = private unnamed_addr constant [21 x i8] c"ldexpf(9507380, -98)\00", align 1
@.str.292 = private unnamed_addr constant [18 x i8] c"ToFloat(\2257.e18\22)\00", align 1
@.str.293 = private unnamed_addr constant [21 x i8] c"ldexpf(12960300, 42)\00", align 1
@.str.294 = private unnamed_addr constant [20 x i8] c"ToFloat(\22789.e-35\22)\00", align 1
@.str.295 = private unnamed_addr constant [23 x i8] c"ldexpf(10739312, -130)\00", align 1
@.str.296 = private unnamed_addr constant [21 x i8] c"ToFloat(\222539.e-18\22)\00", align 1
@.str.297 = private unnamed_addr constant [22 x i8] c"ldexpf(11990089, -72)\00", align 1
@.str.298 = private unnamed_addr constant [21 x i8] c"ToFloat(\2276173.e28\22)\00", align 1
@.str.299 = private unnamed_addr constant [20 x i8] c"ldexpf(9845130, 86)\00", align 1
@.str.300 = private unnamed_addr constant [23 x i8] c"ToFloat(\22887745.e-11\22)\00", align 1
@.str.301 = private unnamed_addr constant [21 x i8] c"ldexpf(9760860, -40)\00", align 1
@.str.302 = private unnamed_addr constant [24 x i8] c"ToFloat(\225382571.e-37\22)\00", align 1
@.str.303 = private unnamed_addr constant [23 x i8] c"ldexpf(11447463, -124)\00", align 1
@.str.304 = private unnamed_addr constant [25 x i8] c"ToFloat(\2282381273.e-35\22)\00", align 1
@.str.305 = private unnamed_addr constant [22 x i8] c"ldexpf(8554961, -113)\00", align 1
@.str.306 = private unnamed_addr constant [26 x i8] c"ToFloat(\22750486563.e-38\22)\00", align 1
@.str.307 = private unnamed_addr constant [22 x i8] c"ldexpf(9975678, -120)\00", align 1
@.str.308 = private unnamed_addr constant [27 x i8] c"ToFloat(\223752432815.e-39\22)\00", align 1
@.str.309 = private unnamed_addr constant [22 x i8] c"ldexpf(9975678, -121)\00", align 1
@.str.310 = private unnamed_addr constant [28 x i8] c"ToFloat(\2275224575729.e-45\22)\00", align 1
@.str.311 = private unnamed_addr constant [23 x i8] c"ldexpf(13105970, -137)\00", align 1
@.str.312 = private unnamed_addr constant [28 x i8] c"ToFloat(\22459926601011.e15\22)\00", align 1
@.str.313 = private unnamed_addr constant [21 x i8] c"ldexpf(12466336, 65)\00", align 1
@_ZTVN7testing8internal15TestFactoryImplIN12_GLOBAL__N_129FromChars_DoubleRounding_TestEEE = internal unnamed_addr constant { [5 x ptr] } { [5 x ptr] [ptr null, ptr @_ZTIN7testing8internal15TestFactoryImplIN12_GLOBAL__N_129FromChars_DoubleRounding_TestEEE, ptr @_ZN7testing8internal15TestFactoryImplIN12_GLOBAL__N_129FromChars_DoubleRounding_TestEED2Ev, ptr @_ZN7testing8internal15TestFactoryImplIN12_GLOBAL__N_129FromChars_DoubleRounding_TestEED0Ev, ptr @_ZN7testing8internal15TestFactoryImplIN12_GLOBAL__N_129FromChars_DoubleRounding_TestEE10CreateTestEv] }, align 8
@_ZTSN7testing8internal15TestFactoryImplIN12_GLOBAL__N_129FromChars_DoubleRounding_TestEEE = internal constant [86 x i8] c"N7testing8internal15TestFactoryImplIN12_GLOBAL__N_129FromChars_DoubleRounding_TestEEE\00", align 1
@_ZTIN7testing8internal15TestFactoryImplIN12_GLOBAL__N_129FromChars_DoubleRounding_TestEEE = internal constant { ptr, ptr, ptr } { ptr getelementptr inbounds (ptr, ptr @_ZTVN10__cxxabiv120__si_class_type_infoE, i64 2), ptr @_ZTSN7testing8internal15TestFactoryImplIN12_GLOBAL__N_129FromChars_DoubleRounding_TestEEE, ptr @_ZTIN7testing8internal15TestFactoryBaseE }, align 8
@_ZTVN12_GLOBAL__N_129FromChars_DoubleRounding_TestE = internal unnamed_addr constant { [8 x ptr] } { [8 x ptr] [ptr null, ptr @_ZTIN12_GLOBAL__N_129FromChars_DoubleRounding_TestE, ptr @_ZN12_GLOBAL__N_129FromChars_DoubleRounding_TestD2Ev, ptr @_ZN12_GLOBAL__N_129FromChars_DoubleRounding_TestD0Ev, ptr @_ZN7testing4Test5SetUpEv, ptr @_ZN7testing4Test8TearDownEv, ptr @_ZN12_GLOBAL__N_129FromChars_DoubleRounding_Test8TestBodyEv, ptr @_ZN7testing4Test5SetupEv] }, align 8
@_ZTSN12_GLOBAL__N_129FromChars_DoubleRounding_TestE = internal constant [48 x i8] c"N12_GLOBAL__N_129FromChars_DoubleRounding_TestE\00", align 1
@_ZTIN12_GLOBAL__N_129FromChars_DoubleRounding_TestE = internal constant { ptr, ptr, ptr } { ptr getelementptr inbounds (ptr, ptr @_ZTVN10__cxxabiv120__si_class_type_infoE, i64 2), ptr @_ZTSN12_GLOBAL__N_129FromChars_DoubleRounding_TestE, ptr @_ZTIN7testing4TestE }, align 8
@.str.314 = private unnamed_addr constant [754 x i8] c"2.4703282292062327208828439643411068618252990130716238221279284125033775363510437593264991818081799618989828234772285886546332835517796989819938739800539093906315035659515570226392290858392449105184435931802849936536152500319370457678249219365623669863658480757001585769269903706311928279558551332927834338409351978015531246597263579574622766465272827220056374006485499977096599470454020828166226237857393450736339007967761930577506740176324673600968951340535537458516661134223766678604162159680461914467291840300530057530849048765391711386591646239524912623653881879636239373280423891018672348497668235089863388587925628302755995657524455507255189313690836254779186948667994968324049705821028513185451396213837722826145437693412532098591327667236328125\00", align 1
@.str.315 = private unnamed_addr constant [754 x i8] c"7.4109846876186981626485318930233205854758970392148714663837852375101326090531312779794975454245398856969484704316857659638998506553390969459816219401617281718945106978546710679176872575177347315553307795408549809608457500958111373034747658096871009590975442271004757307809711118935784838675653998783503015228055934046593739791790738723868299395818481660169122019456499931289798411362062484498678713572180352209017023903285791732520220528974020802906854021606612375549983402671300035812486479041385743401875520901590172592547146296175134159774938718574737870961645638908718119841271673056017045493004705269590165763776884908267986972573366521765567941072508764337560846003984904972149117463085539556354188641513168478436313080237596295773983001708984375\00", align 1
@.str.316 = private unnamed_addr constant [770 x i8] c"2.22507385850720113605740979670913197593481954635164564802342610972482222202107694551652952390813508791414915891303962110687008643869459464552765720740782062174337998814106326732925355228688137214901298112245145188984905722230728525513315575501591439747639798341180199932396254828901710708185069063066665599493827577257201576306269066333264756530000924588831643303777979186961204949739037782970490505108060994073026293712895895000358379996720725430436028407889577179615094551674824347103070260914462157228988025818254518032570701886087211312807951223342628836862232150377566662250398253433597456888442390026549819838548794829220689472168983109969836584681402285424333066033985088644580400103493397042756718644338377048603786162277173854562306587467901408672332763671875\00", align 1
@.str.317 = private unnamed_addr constant [770 x i8] c"2.22507385850720163012305563795567615250361241457301801308322872404958664760675944619203679411688695321398552054903200090343478188441232557218436756334761702051817599892294139362996674259828589999483014897143355557856769327930601597818316214242506796246078529588519927249357768832073249247992481686923224716596493432925878395010225097395757951057160073834364573849432419299709217920738991976169431413149717326525502008499797367678374315520581880443916381057236779117517775622749741380425338708447819365553307386742083452616251302946202273010905482006765402020154711200202813970014157525912344017736224427371246815175018974555997865323425588621961151633592416795802960447706494647018477736093430045142168360701364747951396213837722826145437693412532098591327667236328125\00", align 1
@.str.318 = private unnamed_addr constant [311 x i8] c"1.79769313486231560835325876058105298516207002341652166261661174625869553267292326574530099287946549246750631490335877017522087105926987962906277604735569213290190919152394180476217125334960946356387261286640198029037799514183602981511756283727771403830521483963923935633133642802139091669457927874464075218944\00", align 1
@.str.319 = private unnamed_addr constant [2 x i8] c"e\00", align 1
@.str.320 = private unnamed_addr constant [13 x i8] c"expected_low\00", align 1
@.str.321 = private unnamed_addr constant [11 x i8] c"actual_low\00", align 1
@.str.322 = private unnamed_addr constant [3 x i8] c"1e\00", align 1
@.str.323 = private unnamed_addr constant [14 x i8] c"expected_high\00", align 1
@.str.324 = private unnamed_addr constant [12 x i8] c"actual_high\00", align 1
@.str.325 = private unnamed_addr constant [14 x i8] c"expected_half\00", align 1
@.str.326 = private unnamed_addr constant [12 x i8] c"actual_half\00", align 1
@_ZTVN7testing8internal15TestFactoryImplIN12_GLOBAL__N_128FromChars_FloatRounding_TestEEE = internal unnamed_addr constant { [5 x ptr] } { [5 x ptr] [ptr null, ptr @_ZTIN7testing8internal15TestFactoryImplIN12_GLOBAL__N_128FromChars_FloatRounding_TestEEE, ptr @_ZN7testing8internal15TestFactoryImplIN12_GLOBAL__N_128FromChars_FloatRounding_TestEED2Ev, ptr @_ZN7testing8internal15TestFactoryImplIN12_GLOBAL__N_128FromChars_FloatRounding_TestEED0Ev, ptr @_ZN7testing8internal15TestFactoryImplIN12_GLOBAL__N_128FromChars_FloatRounding_TestEE10CreateTestEv] }, align 8
@_ZTSN7testing8internal15TestFactoryImplIN12_GLOBAL__N_128FromChars_FloatRounding_TestEEE = internal constant [85 x i8] c"N7testing8internal15TestFactoryImplIN12_GLOBAL__N_128FromChars_FloatRounding_TestEEE\00", align 1
@_ZTIN7testing8internal15TestFactoryImplIN12_GLOBAL__N_128FromChars_FloatRounding_TestEEE = internal constant { ptr, ptr, ptr } { ptr getelementptr inbounds (ptr, ptr @_ZTVN10__cxxabiv120__si_class_type_infoE, i64 2), ptr @_ZTSN7testing8internal15TestFactoryImplIN12_GLOBAL__N_128FromChars_FloatRounding_TestEEE, ptr @_ZTIN7testing8internal15TestFactoryBaseE }, align 8
@_ZTVN12_GLOBAL__N_128FromChars_FloatRounding_TestE = internal unnamed_addr constant { [8 x ptr] } { [8 x ptr] [ptr null, ptr @_ZTIN12_GLOBAL__N_128FromChars_FloatRounding_TestE, ptr @_ZN12_GLOBAL__N_128FromChars_FloatRounding_TestD2Ev, ptr @_ZN12_GLOBAL__N_128FromChars_FloatRounding_TestD0Ev, ptr @_ZN7testing4Test5SetUpEv, ptr @_ZN7testing4Test8TearDownEv, ptr @_ZN12_GLOBAL__N_128FromChars_FloatRounding_Test8TestBodyEv, ptr @_ZN7testing4Test5SetupEv] }, align 8
@_ZTSN12_GLOBAL__N_128FromChars_FloatRounding_TestE = internal constant [47 x i8] c"N12_GLOBAL__N_128FromChars_FloatRounding_TestE\00", align 1
@_ZTIN12_GLOBAL__N_128FromChars_FloatRounding_TestE = internal constant { ptr, ptr, ptr } { ptr getelementptr inbounds (ptr, ptr @_ZTVN10__cxxabiv120__si_class_type_infoE, i64 2), ptr @_ZTSN12_GLOBAL__N_128FromChars_FloatRounding_TestE, ptr @_ZTIN7testing4TestE }, align 8
@.str.327 = private unnamed_addr constant [107 x i8] c"7.00649232162408535461864791644958065640130970938257885878534141944895541342930300743319094181060791015625\00", align 1
@.str.328 = private unnamed_addr constant [108 x i8] c"2.101947696487225606385594374934874196920392912814773657635602425834686624028790902229957282543182373046875\00", align 1
@.str.329 = private unnamed_addr constant [115 x i8] c"1.1754942807573642917278829910357665133228589927589904276829631184250030649651730385585324256680905818939208984375\00", align 1
@.str.330 = private unnamed_addr constant [115 x i8] c"1.1754944208872107242095900834087248423144721207851846153345402941318314539442813071445925743319094181060791015625\00", align 1
@.str.331 = private unnamed_addr constant [41 x i8] c"3.40282336497324057985868971510891282432\00", align 1
@_ZTVN7testing8internal15TestFactoryImplIN12_GLOBAL__N_124FromChars_Underflow_TestEEE = internal unnamed_addr constant { [5 x ptr] } { [5 x ptr] [ptr null, ptr @_ZTIN7testing8internal15TestFactoryImplIN12_GLOBAL__N_124FromChars_Underflow_TestEEE, ptr @_ZN7testing8internal15TestFactoryImplIN12_GLOBAL__N_124FromChars_Underflow_TestEED2Ev, ptr @_ZN7testing8internal15TestFactoryImplIN12_GLOBAL__N_124FromChars_Underflow_TestEED0Ev, ptr @_ZN7testing8internal15TestFactoryImplIN12_GLOBAL__N_124FromChars_Underflow_TestEE10CreateTestEv] }, align 8
@_ZTSN7testing8internal15TestFactoryImplIN12_GLOBAL__N_124FromChars_Underflow_TestEEE = internal constant [81 x i8] c"N7testing8internal15TestFactoryImplIN12_GLOBAL__N_124FromChars_Underflow_TestEEE\00", align 1
@_ZTIN7testing8internal15TestFactoryImplIN12_GLOBAL__N_124FromChars_Underflow_TestEEE = internal constant { ptr, ptr, ptr } { ptr getelementptr inbounds (ptr, ptr @_ZTVN10__cxxabiv120__si_class_type_infoE, i64 2), ptr @_ZTSN7testing8internal15TestFactoryImplIN12_GLOBAL__N_124FromChars_Underflow_TestEEE, ptr @_ZTIN7testing8internal15TestFactoryBaseE }, align 8
@_ZTVN12_GLOBAL__N_124FromChars_Underflow_TestE = internal unnamed_addr constant { [8 x ptr] } { [8 x ptr] [ptr null, ptr @_ZTIN12_GLOBAL__N_124FromChars_Underflow_TestE, ptr @_ZN12_GLOBAL__N_124FromChars_Underflow_TestD2Ev, ptr @_ZN12_GLOBAL__N_124FromChars_Underflow_TestD0Ev, ptr @_ZN7testing4Test5SetUpEv, ptr @_ZN7testing4Test8TearDownEv, ptr @_ZN12_GLOBAL__N_124FromChars_Underflow_Test8TestBodyEv, ptr @_ZN7testing4Test5SetupEv] }, align 8
@_ZTSN12_GLOBAL__N_124FromChars_Underflow_TestE = internal constant [43 x i8] c"N12_GLOBAL__N_124FromChars_Underflow_TestE\00", align 1
@_ZTIN12_GLOBAL__N_124FromChars_Underflow_TestE = internal constant { ptr, ptr, ptr } { ptr getelementptr inbounds (ptr, ptr @_ZTVN10__cxxabiv120__si_class_type_infoE, i64 2), ptr @_ZTSN12_GLOBAL__N_124FromChars_Underflow_TestE, ptr @_ZTIN7testing4TestE }, align 8
@.str.332 = private unnamed_addr constant [9 x i8] c"-1e-1000\00", align 1
@.str.333 = private unnamed_addr constant [4 x i8] c"end\00", align 1
@.str.334 = private unnamed_addr constant [31 x i8] c"std::errc::result_out_of_range\00", align 1
@.str.335 = private unnamed_addr constant [16 x i8] c"std::signbit(d)\00", align 1
@.str.336 = private unnamed_addr constant [6 x i8] c"false\00", align 1
@.str.337 = private unnamed_addr constant [5 x i8] c"true\00", align 1
@.str.338 = private unnamed_addr constant [2 x i8] c"d\00", align 1
@.str.339 = private unnamed_addr constant [36 x i8] c"-std::numeric_limits<double>::min()\00", align 1
@.str.340 = private unnamed_addr constant [16 x i8] c"std::signbit(f)\00", align 1
@.str.341 = private unnamed_addr constant [2 x i8] c"f\00", align 1
@.str.342 = private unnamed_addr constant [35 x i8] c"-std::numeric_limits<float>::min()\00", align 1
@.str.343 = private unnamed_addr constant [8 x i8] c"1e-1000\00", align 1
@.str.344 = private unnamed_addr constant [35 x i8] c"std::numeric_limits<double>::min()\00", align 1
@.str.345 = private unnamed_addr constant [34 x i8] c"std::numeric_limits<float>::min()\00", align 1
@.str.346 = private unnamed_addr constant [3 x i8] c">=\00", align 1
@.str.347 = private unnamed_addr constant [12 x i8] c"Expected: (\00", align 1
@.str.348 = private unnamed_addr constant [3 x i8] c") \00", align 1
@.str.349 = private unnamed_addr constant [3 x i8] c" (\00", align 1
@.str.350 = private unnamed_addr constant [12 x i8] c"), actual: \00", align 1
@.str.351 = private unnamed_addr constant [5 x i8] c" vs \00", align 1
@.str.352 = private unnamed_addr constant [7 x i8] c"(null)\00", align 1
@.str.353 = private unnamed_addr constant [3 x i8] c"<=\00", align 1
@_ZTVN7testing8internal15TestFactoryImplIN12_GLOBAL__N_123FromChars_Overflow_TestEEE = internal unnamed_addr constant { [5 x ptr] } { [5 x ptr] [ptr null, ptr @_ZTIN7testing8internal15TestFactoryImplIN12_GLOBAL__N_123FromChars_Overflow_TestEEE, ptr @_ZN7testing8internal15TestFactoryImplIN12_GLOBAL__N_123FromChars_Overflow_TestEED2Ev, ptr @_ZN7testing8internal15TestFactoryImplIN12_GLOBAL__N_123FromChars_Overflow_TestEED0Ev, ptr @_ZN7testing8internal15TestFactoryImplIN12_GLOBAL__N_123FromChars_Overflow_TestEE10CreateTestEv] }, align 8
@_ZTSN7testing8internal15TestFactoryImplIN12_GLOBAL__N_123FromChars_Overflow_TestEEE = internal constant [80 x i8] c"N7testing8internal15TestFactoryImplIN12_GLOBAL__N_123FromChars_Overflow_TestEEE\00", align 1
@_ZTIN7testing8internal15TestFactoryImplIN12_GLOBAL__N_123FromChars_Overflow_TestEEE = internal constant { ptr, ptr, ptr } { ptr getelementptr inbounds (ptr, ptr @_ZTVN10__cxxabiv120__si_class_type_infoE, i64 2), ptr @_ZTSN7testing8internal15TestFactoryImplIN12_GLOBAL__N_123FromChars_Overflow_TestEEE, ptr @_ZTIN7testing8internal15TestFactoryBaseE }, align 8
@_ZTVN12_GLOBAL__N_123FromChars_Overflow_TestE = internal unnamed_addr constant { [8 x ptr] } { [8 x ptr] [ptr null, ptr @_ZTIN12_GLOBAL__N_123FromChars_Overflow_TestE, ptr @_ZN12_GLOBAL__N_123FromChars_Overflow_TestD2Ev, ptr @_ZN12_GLOBAL__N_123FromChars_Overflow_TestD0Ev, ptr @_ZN7testing4Test5SetUpEv, ptr @_ZN7testing4Test8TearDownEv, ptr @_ZN12_GLOBAL__N_123FromChars_Overflow_Test8TestBodyEv, ptr @_ZN7testing4Test5SetupEv] }, align 8
@_ZTSN12_GLOBAL__N_123FromChars_Overflow_TestE = internal constant [42 x i8] c"N12_GLOBAL__N_123FromChars_Overflow_TestE\00", align 1
@_ZTIN12_GLOBAL__N_123FromChars_Overflow_TestE = internal constant { ptr, ptr, ptr } { ptr getelementptr inbounds (ptr, ptr @_ZTVN10__cxxabiv120__si_class_type_infoE, i64 2), ptr @_ZTSN12_GLOBAL__N_123FromChars_Overflow_TestE, ptr @_ZTIN7testing4TestE }, align 8
@.str.354 = private unnamed_addr constant [8 x i8] c"-1e1000\00", align 1
@.str.355 = private unnamed_addr constant [36 x i8] c"-std::numeric_limits<double>::max()\00", align 1
@.str.356 = private unnamed_addr constant [35 x i8] c"-std::numeric_limits<float>::max()\00", align 1
@.str.357 = private unnamed_addr constant [7 x i8] c"1e1000\00", align 1
@.str.358 = private unnamed_addr constant [35 x i8] c"std::numeric_limits<double>::max()\00", align 1
@.str.359 = private unnamed_addr constant [34 x i8] c"std::numeric_limits<float>::max()\00", align 1
@_ZTVN7testing8internal15TestFactoryImplIN12_GLOBAL__N_140FromChars_RegressionTestsFromFuzzer_TestEEE = internal unnamed_addr constant { [5 x ptr] } { [5 x ptr] [ptr null, ptr @_ZTIN7testing8internal15TestFactoryImplIN12_GLOBAL__N_140FromChars_RegressionTestsFromFuzzer_TestEEE, ptr @_ZN7testing8internal15TestFactoryImplIN12_GLOBAL__N_140FromChars_RegressionTestsFromFuzzer_TestEED2Ev, ptr @_ZN7testing8internal15TestFactoryImplIN12_GLOBAL__N_140FromChars_RegressionTestsFromFuzzer_TestEED0Ev, ptr @_ZN7testing8internal15TestFactoryImplIN12_GLOBAL__N_140FromChars_RegressionTestsFromFuzzer_TestEE10CreateTestEv] }, align 8
@_ZTSN7testing8internal15TestFactoryImplIN12_GLOBAL__N_140FromChars_RegressionTestsFromFuzzer_TestEEE = internal constant [97 x i8] c"N7testing8internal15TestFactoryImplIN12_GLOBAL__N_140FromChars_RegressionTestsFromFuzzer_TestEEE\00", align 1
@_ZTIN7testing8internal15TestFactoryImplIN12_GLOBAL__N_140FromChars_RegressionTestsFromFuzzer_TestEEE = internal constant { ptr, ptr, ptr } { ptr getelementptr inbounds (ptr, ptr @_ZTVN10__cxxabiv120__si_class_type_infoE, i64 2), ptr @_ZTSN7testing8internal15TestFactoryImplIN12_GLOBAL__N_140FromChars_RegressionTestsFromFuzzer_TestEEE, ptr @_ZTIN7testing8internal15TestFactoryBaseE }, align 8
@_ZTVN12_GLOBAL__N_140FromChars_RegressionTestsFromFuzzer_TestE = internal unnamed_addr constant { [8 x ptr] } { [8 x ptr] [ptr null, ptr @_ZTIN12_GLOBAL__N_140FromChars_RegressionTestsFromFuzzer_TestE, ptr @_ZN12_GLOBAL__N_140FromChars_RegressionTestsFromFuzzer_TestD2Ev, ptr @_ZN12_GLOBAL__N_140FromChars_RegressionTestsFromFuzzer_TestD0Ev, ptr @_ZN7testing4Test5SetUpEv, ptr @_ZN7testing4Test8TearDownEv, ptr @_ZN12_GLOBAL__N_140FromChars_RegressionTestsFromFuzzer_Test8TestBodyEv, ptr @_ZN7testing4Test5SetupEv] }, align 8
@_ZTSN12_GLOBAL__N_140FromChars_RegressionTestsFromFuzzer_TestE = internal constant [59 x i8] c"N12_GLOBAL__N_140FromChars_RegressionTestsFromFuzzer_TestE\00", align 1
@_ZTIN12_GLOBAL__N_140FromChars_RegressionTestsFromFuzzer_TestE = internal constant { ptr, ptr, ptr } { ptr getelementptr inbounds (ptr, ptr @_ZTVN10__cxxabiv120__si_class_type_infoE, i64 2), ptr @_ZTSN12_GLOBAL__N_140FromChars_RegressionTestsFromFuzzer_TestE, ptr @_ZTIN7testing4TestE }, align 8
@.str.360 = private unnamed_addr constant [23 x i8] c"0x21900000p00000000099\00", align 1
@_ZTVN7testing8internal15TestFactoryImplIN12_GLOBAL__N_129FromChars_ReturnValuePtr_TestEEE = internal unnamed_addr constant { [5 x ptr] } { [5 x ptr] [ptr null, ptr @_ZTIN7testing8internal15TestFactoryImplIN12_GLOBAL__N_129FromChars_ReturnValuePtr_TestEEE, ptr @_ZN7testing8internal15TestFactoryImplIN12_GLOBAL__N_129FromChars_ReturnValuePtr_TestEED2Ev, ptr @_ZN7testing8internal15TestFactoryImplIN12_GLOBAL__N_129FromChars_ReturnValuePtr_TestEED0Ev, ptr @_ZN7testing8internal15TestFactoryImplIN12_GLOBAL__N_129FromChars_ReturnValuePtr_TestEE10CreateTestEv] }, align 8
@_ZTSN7testing8internal15TestFactoryImplIN12_GLOBAL__N_129FromChars_ReturnValuePtr_TestEEE = internal constant [86 x i8] c"N7testing8internal15TestFactoryImplIN12_GLOBAL__N_129FromChars_ReturnValuePtr_TestEEE\00", align 1
@_ZTIN7testing8internal15TestFactoryImplIN12_GLOBAL__N_129FromChars_ReturnValuePtr_TestEEE = internal constant { ptr, ptr, ptr } { ptr getelementptr inbounds (ptr, ptr @_ZTVN10__cxxabiv120__si_class_type_infoE, i64 2), ptr @_ZTSN7testing8internal15TestFactoryImplIN12_GLOBAL__N_129FromChars_ReturnValuePtr_TestEEE, ptr @_ZTIN7testing8internal15TestFactoryBaseE }, align 8
@_ZTVN12_GLOBAL__N_129FromChars_ReturnValuePtr_TestE = internal unnamed_addr constant { [8 x ptr] } { [8 x ptr] [ptr null, ptr @_ZTIN12_GLOBAL__N_129FromChars_ReturnValuePtr_TestE, ptr @_ZN12_GLOBAL__N_129FromChars_ReturnValuePtr_TestD2Ev, ptr @_ZN12_GLOBAL__N_129FromChars_ReturnValuePtr_TestD0Ev, ptr @_ZN7testing4Test5SetUpEv, ptr @_ZN7testing4Test8TearDownEv, ptr @_ZN12_GLOBAL__N_129FromChars_ReturnValuePtr_Test8TestBodyEv, ptr @_ZN7testing4Test5SetupEv] }, align 8
@_ZTSN12_GLOBAL__N_129FromChars_ReturnValuePtr_TestE = internal constant [48 x i8] c"N12_GLOBAL__N_129FromChars_ReturnValuePtr_TestE\00", align 1
@_ZTIN12_GLOBAL__N_129FromChars_ReturnValuePtr_TestE = internal constant { ptr, ptr, ptr } { ptr getelementptr inbounds (ptr, ptr @_ZTVN10__cxxabiv120__si_class_type_infoE, i64 2), ptr @_ZTSN12_GLOBAL__N_129FromChars_ReturnValuePtr_TestE, ptr @_ZTIN7testing4TestE }, align 8
@.str.361 = private unnamed_addr constant [13 x i8] c"3.14@#$%@#$%\00", align 1
@.str.362 = private unnamed_addr constant [27 x i8] c"result.ptr - normal.data()\00", align 1
@.str.363 = private unnamed_addr constant [2 x i8] c"4\00", align 1
@.str.364 = private unnamed_addr constant [15 x i8] c"1e1000@#$%@#$%\00", align 1
@.str.365 = private unnamed_addr constant [29 x i8] c"result.ptr - overflow.data()\00", align 1
@.str.366 = private unnamed_addr constant [2 x i8] c"6\00", align 1
@.str.367 = private unnamed_addr constant [8 x i8] c"#$%@#$%\00", align 1
@.str.368 = private unnamed_addr constant [28 x i8] c"std::errc::invalid_argument\00", align 1
@.str.369 = private unnamed_addr constant [28 x i8] c"result.ptr - garbage.data()\00", align 1
@.str.370 = private unnamed_addr constant [2 x i8] c"0\00", align 1
@_ZTVN7testing8internal15TestFactoryImplIN12_GLOBAL__N_131FromChars_TestVersusStrtod_TestEEE = internal unnamed_addr constant { [5 x ptr] } { [5 x ptr] [ptr null, ptr @_ZTIN7testing8internal15TestFactoryImplIN12_GLOBAL__N_131FromChars_TestVersusStrtod_TestEEE, ptr @_ZN7testing8internal15TestFactoryImplIN12_GLOBAL__N_131FromChars_TestVersusStrtod_TestEED2Ev, ptr @_ZN7testing8internal15TestFactoryImplIN12_GLOBAL__N_131FromChars_TestVersusStrtod_TestEED0Ev, ptr @_ZN7testing8internal15TestFactoryImplIN12_GLOBAL__N_131FromChars_TestVersusStrtod_TestEE10CreateTestEv] }, align 8
@_ZTSN7testing8internal15TestFactoryImplIN12_GLOBAL__N_131FromChars_TestVersusStrtod_TestEEE = internal constant [88 x i8] c"N7testing8internal15TestFactoryImplIN12_GLOBAL__N_131FromChars_TestVersusStrtod_TestEEE\00", align 1
@_ZTIN7testing8internal15TestFactoryImplIN12_GLOBAL__N_131FromChars_TestVersusStrtod_TestEEE = internal constant { ptr, ptr, ptr } { ptr getelementptr inbounds (ptr, ptr @_ZTVN10__cxxabiv120__si_class_type_infoE, i64 2), ptr @_ZTSN7testing8internal15TestFactoryImplIN12_GLOBAL__N_131FromChars_TestVersusStrtod_TestEEE, ptr @_ZTIN7testing8internal15TestFactoryBaseE }, align 8
@_ZTVN12_GLOBAL__N_131FromChars_TestVersusStrtod_TestE = internal unnamed_addr constant { [8 x ptr] } { [8 x ptr] [ptr null, ptr @_ZTIN12_GLOBAL__N_131FromChars_TestVersusStrtod_TestE, ptr @_ZN12_GLOBAL__N_131FromChars_TestVersusStrtod_TestD2Ev, ptr @_ZN12_GLOBAL__N_131FromChars_TestVersusStrtod_TestD0Ev, ptr @_ZN7testing4Test5SetUpEv, ptr @_ZN7testing4Test8TearDownEv, ptr @_ZN12_GLOBAL__N_131FromChars_TestVersusStrtod_Test8TestBodyEv, ptr @_ZN7testing4Test5SetupEv] }, align 8
@_ZTSN12_GLOBAL__N_131FromChars_TestVersusStrtod_TestE = internal constant [50 x i8] c"N12_GLOBAL__N_131FromChars_TestVersusStrtod_TestE\00", align 1
@_ZTIN12_GLOBAL__N_131FromChars_TestVersusStrtod_TestE = internal constant { ptr, ptr, ptr } { ptr getelementptr inbounds (ptr, ptr @_ZTVN10__cxxabiv120__si_class_type_infoE, i64 2), ptr @_ZTSN12_GLOBAL__N_131FromChars_TestVersusStrtod_TestE, ptr @_ZTIN7testing4TestE }, align 8
@.str.371 = private unnamed_addr constant [13 x i8] c"strtod_value\00", align 1
@.str.372 = private unnamed_addr constant [11 x i8] c"absl_value\00", align 1
@_ZTVN7testing8internal15TestFactoryImplIN12_GLOBAL__N_131FromChars_TestVersusStrtof_TestEEE = internal unnamed_addr constant { [5 x ptr] } { [5 x ptr] [ptr null, ptr @_ZTIN7testing8internal15TestFactoryImplIN12_GLOBAL__N_131FromChars_TestVersusStrtof_TestEEE, ptr @_ZN7testing8internal15TestFactoryImplIN12_GLOBAL__N_131FromChars_TestVersusStrtof_TestEED2Ev, ptr @_ZN7testing8internal15TestFactoryImplIN12_GLOBAL__N_131FromChars_TestVersusStrtof_TestEED0Ev, ptr @_ZN7testing8internal15TestFactoryImplIN12_GLOBAL__N_131FromChars_TestVersusStrtof_TestEE10CreateTestEv] }, align 8
@_ZTSN7testing8internal15TestFactoryImplIN12_GLOBAL__N_131FromChars_TestVersusStrtof_TestEEE = internal constant [88 x i8] c"N7testing8internal15TestFactoryImplIN12_GLOBAL__N_131FromChars_TestVersusStrtof_TestEEE\00", align 1
@_ZTIN7testing8internal15TestFactoryImplIN12_GLOBAL__N_131FromChars_TestVersusStrtof_TestEEE = internal constant { ptr, ptr, ptr } { ptr getelementptr inbounds (ptr, ptr @_ZTVN10__cxxabiv120__si_class_type_infoE, i64 2), ptr @_ZTSN7testing8internal15TestFactoryImplIN12_GLOBAL__N_131FromChars_TestVersusStrtof_TestEEE, ptr @_ZTIN7testing8internal15TestFactoryBaseE }, align 8
@_ZTVN12_GLOBAL__N_131FromChars_TestVersusStrtof_TestE = internal unnamed_addr constant { [8 x ptr] } { [8 x ptr] [ptr null, ptr @_ZTIN12_GLOBAL__N_131FromChars_TestVersusStrtof_TestE, ptr @_ZN12_GLOBAL__N_131FromChars_TestVersusStrtof_TestD2Ev, ptr @_ZN12_GLOBAL__N_131FromChars_TestVersusStrtof_TestD0Ev, ptr @_ZN7testing4Test5SetUpEv, ptr @_ZN7testing4Test8TearDownEv, ptr @_ZN12_GLOBAL__N_131FromChars_TestVersusStrtof_Test8TestBodyEv, ptr @_ZN7testing4Test5SetupEv] }, align 8
@_ZTSN12_GLOBAL__N_131FromChars_TestVersusStrtof_TestE = internal constant [50 x i8] c"N12_GLOBAL__N_131FromChars_TestVersusStrtof_TestE\00", align 1
@_ZTIN12_GLOBAL__N_131FromChars_TestVersusStrtof_TestE = internal constant { ptr, ptr, ptr } { ptr getelementptr inbounds (ptr, ptr @_ZTVN10__cxxabiv120__si_class_type_infoE, i64 2), ptr @_ZTSN12_GLOBAL__N_131FromChars_TestVersusStrtof_TestE, ptr @_ZTIN7testing4TestE }, align 8
@_ZTVN7testing8internal15TestFactoryImplIN12_GLOBAL__N_125FromChars_NaNDoubles_TestEEE = internal unnamed_addr constant { [5 x ptr] } { [5 x ptr] [ptr null, ptr @_ZTIN7testing8internal15TestFactoryImplIN12_GLOBAL__N_125FromChars_NaNDoubles_TestEEE, ptr @_ZN7testing8internal15TestFactoryImplIN12_GLOBAL__N_125FromChars_NaNDoubles_TestEED2Ev, ptr @_ZN7testing8internal15TestFactoryImplIN12_GLOBAL__N_125FromChars_NaNDoubles_TestEED0Ev, ptr @_ZN7testing8internal15TestFactoryImplIN12_GLOBAL__N_125FromChars_NaNDoubles_TestEE10CreateTestEv] }, align 8
@_ZTSN7testing8internal15TestFactoryImplIN12_GLOBAL__N_125FromChars_NaNDoubles_TestEEE = internal constant [82 x i8] c"N7testing8internal15TestFactoryImplIN12_GLOBAL__N_125FromChars_NaNDoubles_TestEEE\00", align 1
@_ZTIN7testing8internal15TestFactoryImplIN12_GLOBAL__N_125FromChars_NaNDoubles_TestEEE = internal constant { ptr, ptr, ptr } { ptr getelementptr inbounds (ptr, ptr @_ZTVN10__cxxabiv120__si_class_type_infoE, i64 2), ptr @_ZTSN7testing8internal15TestFactoryImplIN12_GLOBAL__N_125FromChars_NaNDoubles_TestEEE, ptr @_ZTIN7testing8internal15TestFactoryBaseE }, align 8
@_ZTVN12_GLOBAL__N_125FromChars_NaNDoubles_TestE = internal unnamed_addr constant { [8 x ptr] } { [8 x ptr] [ptr null, ptr @_ZTIN12_GLOBAL__N_125FromChars_NaNDoubles_TestE, ptr @_ZN12_GLOBAL__N_125FromChars_NaNDoubles_TestD2Ev, ptr @_ZN12_GLOBAL__N_125FromChars_NaNDoubles_TestD0Ev, ptr @_ZN7testing4Test5SetUpEv, ptr @_ZN7testing4Test8TearDownEv, ptr @_ZN12_GLOBAL__N_125FromChars_NaNDoubles_Test8TestBodyEv, ptr @_ZN7testing4Test5SetupEv] }, align 8
@_ZTSN12_GLOBAL__N_125FromChars_NaNDoubles_TestE = internal constant [44 x i8] c"N12_GLOBAL__N_125FromChars_NaNDoubles_TestE\00", align 1
@_ZTIN12_GLOBAL__N_125FromChars_NaNDoubles_TestE = internal constant { ptr, ptr, ptr } { ptr getelementptr inbounds (ptr, ptr @_ZTVN10__cxxabiv120__si_class_type_infoE, i64 2), ptr @_ZTSN12_GLOBAL__N_125FromChars_NaNDoubles_TestE, ptr @_ZTIN7testing4TestE }, align 8
@.str.373 = private unnamed_addr constant [2 x i8] c"1\00", align 1
@.str.374 = private unnamed_addr constant [2 x i8] c"2\00", align 1
@.str.375 = private unnamed_addr constant [2 x i8] c"3\00", align 1
@.str.376 = private unnamed_addr constant [4 x i8] c"fff\00", align 1
@.str.377 = private unnamed_addr constant [4 x i8] c"FFF\00", align 1
@.str.378 = private unnamed_addr constant [7 x i8] c"200000\00", align 1
@.str.379 = private unnamed_addr constant [7 x i8] c"400000\00", align 1
@.str.380 = private unnamed_addr constant [14 x i8] c"4000000000000\00", align 1
@.str.381 = private unnamed_addr constant [14 x i8] c"8000000000000\00", align 1
@.str.382 = private unnamed_addr constant [7 x i8] c"abc123\00", align 1
@.str.383 = private unnamed_addr constant [21 x i8] c"legal_but_unexpected\00", align 1
@.str.384 = private unnamed_addr constant [24 x i8] c"99999999999999999999999\00", align 1
@.str.385 = private unnamed_addr constant [2 x i8] c"_\00", align 1
@constinit = private constant [14 x ptr] [ptr @.str.176, ptr @.str.373, ptr @.str.374, ptr @.str.375, ptr @.str.376, ptr @.str.377, ptr @.str.378, ptr @.str.379, ptr @.str.380, ptr @.str.381, ptr @.str.382, ptr @.str.383, ptr @.str.384, ptr @.str.385], align 8
@.str.386 = private unnamed_addr constant [5 x i8] c"nan(\00", align 1
@.str.387 = private unnamed_addr constant [2 x i8] c")\00", align 1
@.str.388 = private unnamed_addr constant [45 x i8] c"Identical(from_chars_double, std_nan_double)\00", align 1
@.str.389 = private unnamed_addr constant [44 x i8] c"Identical(from_chars_double, strtod_double)\00", align 1
@.str.390 = private unnamed_addr constant [2 x i8] c"-\00", align 1
@.str.391 = private unnamed_addr constant [41 x i8] c"std::signbit(negative_from_chars_double)\00", align 1
@.str.392 = private unnamed_addr constant [57 x i8] c"Identical(negative_from_chars_double, from_chars_double)\00", align 1
@_ZTVN7testing8internal15TestFactoryImplIN12_GLOBAL__N_124FromChars_NaNFloats_TestEEE = internal unnamed_addr constant { [5 x ptr] } { [5 x ptr] [ptr null, ptr @_ZTIN7testing8internal15TestFactoryImplIN12_GLOBAL__N_124FromChars_NaNFloats_TestEEE, ptr @_ZN7testing8internal15TestFactoryImplIN12_GLOBAL__N_124FromChars_NaNFloats_TestEED2Ev, ptr @_ZN7testing8internal15TestFactoryImplIN12_GLOBAL__N_124FromChars_NaNFloats_TestEED0Ev, ptr @_ZN7testing8internal15TestFactoryImplIN12_GLOBAL__N_124FromChars_NaNFloats_TestEE10CreateTestEv] }, align 8
@_ZTSN7testing8internal15TestFactoryImplIN12_GLOBAL__N_124FromChars_NaNFloats_TestEEE = internal constant [81 x i8] c"N7testing8internal15TestFactoryImplIN12_GLOBAL__N_124FromChars_NaNFloats_TestEEE\00", align 1
@_ZTIN7testing8internal15TestFactoryImplIN12_GLOBAL__N_124FromChars_NaNFloats_TestEEE = internal constant { ptr, ptr, ptr } { ptr getelementptr inbounds (ptr, ptr @_ZTVN10__cxxabiv120__si_class_type_infoE, i64 2), ptr @_ZTSN7testing8internal15TestFactoryImplIN12_GLOBAL__N_124FromChars_NaNFloats_TestEEE, ptr @_ZTIN7testing8internal15TestFactoryBaseE }, align 8
@_ZTVN12_GLOBAL__N_124FromChars_NaNFloats_TestE = internal unnamed_addr constant { [8 x ptr] } { [8 x ptr] [ptr null, ptr @_ZTIN12_GLOBAL__N_124FromChars_NaNFloats_TestE, ptr @_ZN12_GLOBAL__N_124FromChars_NaNFloats_TestD2Ev, ptr @_ZN12_GLOBAL__N_124FromChars_NaNFloats_TestD0Ev, ptr @_ZN7testing4Test5SetUpEv, ptr @_ZN7testing4Test8TearDownEv, ptr @_ZN12_GLOBAL__N_124FromChars_NaNFloats_Test8TestBodyEv, ptr @_ZN7testing4Test5SetupEv] }, align 8
@_ZTSN12_GLOBAL__N_124FromChars_NaNFloats_TestE = internal constant [43 x i8] c"N12_GLOBAL__N_124FromChars_NaNFloats_TestE\00", align 1
@_ZTIN12_GLOBAL__N_124FromChars_NaNFloats_TestE = internal constant { ptr, ptr, ptr } { ptr getelementptr inbounds (ptr, ptr @_ZTVN10__cxxabiv120__si_class_type_infoE, i64 2), ptr @_ZTSN12_GLOBAL__N_124FromChars_NaNFloats_TestE, ptr @_ZTIN7testing4TestE }, align 8
@constinit.393 = private constant [14 x ptr] [ptr @.str.176, ptr @.str.373, ptr @.str.374, ptr @.str.375, ptr @.str.376, ptr @.str.377, ptr @.str.378, ptr @.str.379, ptr @.str.380, ptr @.str.381, ptr @.str.382, ptr @.str.383, ptr @.str.384, ptr @.str.385], align 8
@.str.394 = private unnamed_addr constant [43 x i8] c"Identical(from_chars_float, std_nan_float)\00", align 1
@.str.395 = private unnamed_addr constant [42 x i8] c"Identical(from_chars_float, strtof_float)\00", align 1
@.str.396 = private unnamed_addr constant [40 x i8] c"std::signbit(negative_from_chars_float)\00", align 1
@.str.397 = private unnamed_addr constant [55 x i8] c"Identical(negative_from_chars_float, from_chars_float)\00", align 1
@_ZTVN7testing8internal15TestFactoryImplIN12_GLOBAL__N_137FromChars_HexdecimalDoubleLimits_TestEEE = internal unnamed_addr constant { [5 x ptr] } { [5 x ptr] [ptr null, ptr @_ZTIN7testing8internal15TestFactoryImplIN12_GLOBAL__N_137FromChars_HexdecimalDoubleLimits_TestEEE, ptr @_ZN7testing8internal15TestFactoryImplIN12_GLOBAL__N_137FromChars_HexdecimalDoubleLimits_TestEED2Ev, ptr @_ZN7testing8internal15TestFactoryImplIN12_GLOBAL__N_137FromChars_HexdecimalDoubleLimits_TestEED0Ev, ptr @_ZN7testing8internal15TestFactoryImplIN12_GLOBAL__N_137FromChars_HexdecimalDoubleLimits_TestEE10CreateTestEv] }, align 8
@_ZTSN7testing8internal15TestFactoryImplIN12_GLOBAL__N_137FromChars_HexdecimalDoubleLimits_TestEEE = internal constant [94 x i8] c"N7testing8internal15TestFactoryImplIN12_GLOBAL__N_137FromChars_HexdecimalDoubleLimits_TestEEE\00", align 1
@_ZTIN7testing8internal15TestFactoryImplIN12_GLOBAL__N_137FromChars_HexdecimalDoubleLimits_TestEEE = internal constant { ptr, ptr, ptr } { ptr getelementptr inbounds (ptr, ptr @_ZTVN10__cxxabiv120__si_class_type_infoE, i64 2), ptr @_ZTSN7testing8internal15TestFactoryImplIN12_GLOBAL__N_137FromChars_HexdecimalDoubleLimits_TestEEE, ptr @_ZTIN7testing8internal15TestFactoryBaseE }, align 8
@_ZTVN12_GLOBAL__N_137FromChars_HexdecimalDoubleLimits_TestE = internal unnamed_addr constant { [8 x ptr] } { [8 x ptr] [ptr null, ptr @_ZTIN12_GLOBAL__N_137FromChars_HexdecimalDoubleLimits_TestE, ptr @_ZN12_GLOBAL__N_137FromChars_HexdecimalDoubleLimits_TestD2Ev, ptr @_ZN12_GLOBAL__N_137FromChars_HexdecimalDoubleLimits_TestD0Ev, ptr @_ZN7testing4Test5SetUpEv, ptr @_ZN7testing4Test8TearDownEv, ptr @_ZN12_GLOBAL__N_137FromChars_HexdecimalDoubleLimits_Test8TestBodyEv, ptr @_ZN7testing4Test5SetupEv] }, align 8
@_ZTSN12_GLOBAL__N_137FromChars_HexdecimalDoubleLimits_TestE = internal constant [56 x i8] c"N12_GLOBAL__N_137FromChars_HexdecimalDoubleLimits_TestE\00", align 1
@_ZTIN12_GLOBAL__N_137FromChars_HexdecimalDoubleLimits_TestE = internal constant { ptr, ptr, ptr } { ptr getelementptr inbounds (ptr, ptr @_ZTVN10__cxxabiv120__si_class_type_infoE, i64 2), ptr @_ZTSN12_GLOBAL__N_137FromChars_HexdecimalDoubleLimits_TestE, ptr @_ZTIN7testing4TestE }, align 8
@.str.398 = private unnamed_addr constant [9 x i8] c"expected\00", align 1
@.str.399 = private unnamed_addr constant [7 x i8] c"actual\00", align 1
@.str.400 = private unnamed_addr constant [9 x i8] c"%a vs %a\00", align 1
@.str.401 = private unnamed_addr constant [4 x i8] c"1.0\00", align 1
@.str.402 = private unnamed_addr constant [2 x i8] c"<\00", align 1
@.str.403 = private unnamed_addr constant [2 x i8] c">\00", align 1
@.str.404 = private unnamed_addr constant [7 x i8] c"0x1.0p\00", align 1
@"_ZTSZN12_GLOBAL__N_137FromChars_HexdecimalDoubleLimits_Test8TestBodyEvE3$_0" = internal constant [72 x i8] c"ZN12_GLOBAL__N_137FromChars_HexdecimalDoubleLimits_Test8TestBodyEvE3$_0\00", align 1
@"_ZTIZN12_GLOBAL__N_137FromChars_HexdecimalDoubleLimits_Test8TestBodyEvE3$_0" = internal constant { ptr, ptr } { ptr getelementptr inbounds (ptr, ptr @_ZTVN10__cxxabiv117__class_type_infoE, i64 2), ptr @"_ZTSZN12_GLOBAL__N_137FromChars_HexdecimalDoubleLimits_Test8TestBodyEvE3$_0" }, align 8
@"_ZTSZN12_GLOBAL__N_137FromChars_HexdecimalDoubleLimits_Test8TestBodyEvE3$_1" = internal constant [72 x i8] c"ZN12_GLOBAL__N_137FromChars_HexdecimalDoubleLimits_Test8TestBodyEvE3$_1\00", align 1
@"_ZTIZN12_GLOBAL__N_137FromChars_HexdecimalDoubleLimits_Test8TestBodyEvE3$_1" = internal constant { ptr, ptr } { ptr getelementptr inbounds (ptr, ptr @_ZTVN10__cxxabiv117__class_type_infoE, i64 2), ptr @"_ZTSZN12_GLOBAL__N_137FromChars_HexdecimalDoubleLimits_Test8TestBodyEvE3$_1" }, align 8
@_ZTVN7testing8internal15TestFactoryImplIN12_GLOBAL__N_136FromChars_HexdecimalFloatLimits_TestEEE = internal unnamed_addr constant { [5 x ptr] } { [5 x ptr] [ptr null, ptr @_ZTIN7testing8internal15TestFactoryImplIN12_GLOBAL__N_136FromChars_HexdecimalFloatLimits_TestEEE, ptr @_ZN7testing8internal15TestFactoryImplIN12_GLOBAL__N_136FromChars_HexdecimalFloatLimits_TestEED2Ev, ptr @_ZN7testing8internal15TestFactoryImplIN12_GLOBAL__N_136FromChars_HexdecimalFloatLimits_TestEED0Ev, ptr @_ZN7testing8internal15TestFactoryImplIN12_GLOBAL__N_136FromChars_HexdecimalFloatLimits_TestEE10CreateTestEv] }, align 8
@_ZTSN7testing8internal15TestFactoryImplIN12_GLOBAL__N_136FromChars_HexdecimalFloatLimits_TestEEE = internal constant [93 x i8] c"N7testing8internal15TestFactoryImplIN12_GLOBAL__N_136FromChars_HexdecimalFloatLimits_TestEEE\00", align 1
@_ZTIN7testing8internal15TestFactoryImplIN12_GLOBAL__N_136FromChars_HexdecimalFloatLimits_TestEEE = internal constant { ptr, ptr, ptr } { ptr getelementptr inbounds (ptr, ptr @_ZTVN10__cxxabiv120__si_class_type_infoE, i64 2), ptr @_ZTSN7testing8internal15TestFactoryImplIN12_GLOBAL__N_136FromChars_HexdecimalFloatLimits_TestEEE, ptr @_ZTIN7testing8internal15TestFactoryBaseE }, align 8
@_ZTVN12_GLOBAL__N_136FromChars_HexdecimalFloatLimits_TestE = internal unnamed_addr constant { [8 x ptr] } { [8 x ptr] [ptr null, ptr @_ZTIN12_GLOBAL__N_136FromChars_HexdecimalFloatLimits_TestE, ptr @_ZN12_GLOBAL__N_136FromChars_HexdecimalFloatLimits_TestD2Ev, ptr @_ZN12_GLOBAL__N_136FromChars_HexdecimalFloatLimits_TestD0Ev, ptr @_ZN7testing4Test5SetUpEv, ptr @_ZN7testing4Test8TearDownEv, ptr @_ZN12_GLOBAL__N_136FromChars_HexdecimalFloatLimits_Test8TestBodyEv, ptr @_ZN7testing4Test5SetupEv] }, align 8
@_ZTSN12_GLOBAL__N_136FromChars_HexdecimalFloatLimits_TestE = internal constant [55 x i8] c"N12_GLOBAL__N_136FromChars_HexdecimalFloatLimits_TestE\00", align 1
@_ZTIN12_GLOBAL__N_136FromChars_HexdecimalFloatLimits_TestE = internal constant { ptr, ptr, ptr } { ptr getelementptr inbounds (ptr, ptr @_ZTVN10__cxxabiv120__si_class_type_infoE, i64 2), ptr @_ZTSN12_GLOBAL__N_136FromChars_HexdecimalFloatLimits_TestE, ptr @_ZTIN7testing4TestE }, align 8
@"_ZTSZN12_GLOBAL__N_136FromChars_HexdecimalFloatLimits_Test8TestBodyEvE3$_0" = internal constant [71 x i8] c"ZN12_GLOBAL__N_136FromChars_HexdecimalFloatLimits_Test8TestBodyEvE3$_0\00", align 1
@"_ZTIZN12_GLOBAL__N_136FromChars_HexdecimalFloatLimits_Test8TestBodyEvE3$_0" = internal constant { ptr, ptr } { ptr getelementptr inbounds (ptr, ptr @_ZTVN10__cxxabiv117__class_type_infoE, i64 2), ptr @"_ZTSZN12_GLOBAL__N_136FromChars_HexdecimalFloatLimits_Test8TestBodyEvE3$_0" }, align 8
@"_ZTSZN12_GLOBAL__N_136FromChars_HexdecimalFloatLimits_Test8TestBodyEvE3$_1" = internal constant [71 x i8] c"ZN12_GLOBAL__N_136FromChars_HexdecimalFloatLimits_Test8TestBodyEvE3$_1\00", align 1
@"_ZTIZN12_GLOBAL__N_136FromChars_HexdecimalFloatLimits_Test8TestBodyEvE3$_1" = internal constant { ptr, ptr } { ptr getelementptr inbounds (ptr, ptr @_ZTVN10__cxxabiv117__class_type_infoE, i64 2), ptr @"_ZTSZN12_GLOBAL__N_136FromChars_HexdecimalFloatLimits_Test8TestBodyEvE3$_1" }, align 8
@_ZTVN7testing8internal15TestFactoryImplIN12_GLOBAL__N_134FromChars_DecimalDoubleLimits_TestEEE = internal unnamed_addr constant { [5 x ptr] } { [5 x ptr] [ptr null, ptr @_ZTIN7testing8internal15TestFactoryImplIN12_GLOBAL__N_134FromChars_DecimalDoubleLimits_TestEEE, ptr @_ZN7testing8internal15TestFactoryImplIN12_GLOBAL__N_134FromChars_DecimalDoubleLimits_TestEED2Ev, ptr @_ZN7testing8internal15TestFactoryImplIN12_GLOBAL__N_134FromChars_DecimalDoubleLimits_TestEED0Ev, ptr @_ZN7testing8internal15TestFactoryImplIN12_GLOBAL__N_134FromChars_DecimalDoubleLimits_TestEE10CreateTestEv] }, align 8
@_ZTSN7testing8internal15TestFactoryImplIN12_GLOBAL__N_134FromChars_DecimalDoubleLimits_TestEEE = internal constant [91 x i8] c"N7testing8internal15TestFactoryImplIN12_GLOBAL__N_134FromChars_DecimalDoubleLimits_TestEEE\00", align 1
@_ZTIN7testing8internal15TestFactoryImplIN12_GLOBAL__N_134FromChars_DecimalDoubleLimits_TestEEE = internal constant { ptr, ptr, ptr } { ptr getelementptr inbounds (ptr, ptr @_ZTVN10__cxxabiv120__si_class_type_infoE, i64 2), ptr @_ZTSN7testing8internal15TestFactoryImplIN12_GLOBAL__N_134FromChars_DecimalDoubleLimits_TestEEE, ptr @_ZTIN7testing8internal15TestFactoryBaseE }, align 8
@_ZTVN12_GLOBAL__N_134FromChars_DecimalDoubleLimits_TestE = internal unnamed_addr constant { [8 x ptr] } { [8 x ptr] [ptr null, ptr @_ZTIN12_GLOBAL__N_134FromChars_DecimalDoubleLimits_TestE, ptr @_ZN12_GLOBAL__N_134FromChars_DecimalDoubleLimits_TestD2Ev, ptr @_ZN12_GLOBAL__N_134FromChars_DecimalDoubleLimits_TestD0Ev, ptr @_ZN7testing4Test5SetUpEv, ptr @_ZN7testing4Test8TearDownEv, ptr @_ZN12_GLOBAL__N_134FromChars_DecimalDoubleLimits_Test8TestBodyEv, ptr @_ZN7testing4Test5SetupEv] }, align 8
@_ZTSN12_GLOBAL__N_134FromChars_DecimalDoubleLimits_TestE = internal constant [53 x i8] c"N12_GLOBAL__N_134FromChars_DecimalDoubleLimits_TestE\00", align 1
@_ZTIN12_GLOBAL__N_134FromChars_DecimalDoubleLimits_TestE = internal constant { ptr, ptr, ptr } { ptr getelementptr inbounds (ptr, ptr @_ZTVN10__cxxabiv120__si_class_type_infoE, i64 2), ptr @_ZTSN12_GLOBAL__N_134FromChars_DecimalDoubleLimits_TestE, ptr @_ZTIN7testing4TestE }, align 8
@.str.405 = private unnamed_addr constant [5 x i8] c"1.0e\00", align 1
@"_ZTSZN12_GLOBAL__N_134FromChars_DecimalDoubleLimits_Test8TestBodyEvE3$_0" = internal constant [69 x i8] c"ZN12_GLOBAL__N_134FromChars_DecimalDoubleLimits_Test8TestBodyEvE3$_0\00", align 1
@"_ZTIZN12_GLOBAL__N_134FromChars_DecimalDoubleLimits_Test8TestBodyEvE3$_0" = internal constant { ptr, ptr } { ptr getelementptr inbounds (ptr, ptr @_ZTVN10__cxxabiv117__class_type_infoE, i64 2), ptr @"_ZTSZN12_GLOBAL__N_134FromChars_DecimalDoubleLimits_Test8TestBodyEvE3$_0" }, align 8
@"_ZTSZN12_GLOBAL__N_134FromChars_DecimalDoubleLimits_Test8TestBodyEvE3$_1" = internal constant [69 x i8] c"ZN12_GLOBAL__N_134FromChars_DecimalDoubleLimits_Test8TestBodyEvE3$_1\00", align 1
@"_ZTIZN12_GLOBAL__N_134FromChars_DecimalDoubleLimits_Test8TestBodyEvE3$_1" = internal constant { ptr, ptr } { ptr getelementptr inbounds (ptr, ptr @_ZTVN10__cxxabiv117__class_type_infoE, i64 2), ptr @"_ZTSZN12_GLOBAL__N_134FromChars_DecimalDoubleLimits_Test8TestBodyEvE3$_1" }, align 8
@_ZTVN7testing8internal15TestFactoryImplIN12_GLOBAL__N_133FromChars_DecimalFloatLimits_TestEEE = internal unnamed_addr constant { [5 x ptr] } { [5 x ptr] [ptr null, ptr @_ZTIN7testing8internal15TestFactoryImplIN12_GLOBAL__N_133FromChars_DecimalFloatLimits_TestEEE, ptr @_ZN7testing8internal15TestFactoryImplIN12_GLOBAL__N_133FromChars_DecimalFloatLimits_TestEED2Ev, ptr @_ZN7testing8internal15TestFactoryImplIN12_GLOBAL__N_133FromChars_DecimalFloatLimits_TestEED0Ev, ptr @_ZN7testing8internal15TestFactoryImplIN12_GLOBAL__N_133FromChars_DecimalFloatLimits_TestEE10CreateTestEv] }, align 8
@_ZTSN7testing8internal15TestFactoryImplIN12_GLOBAL__N_133FromChars_DecimalFloatLimits_TestEEE = internal constant [90 x i8] c"N7testing8internal15TestFactoryImplIN12_GLOBAL__N_133FromChars_DecimalFloatLimits_TestEEE\00", align 1
@_ZTIN7testing8internal15TestFactoryImplIN12_GLOBAL__N_133FromChars_DecimalFloatLimits_TestEEE = internal constant { ptr, ptr, ptr } { ptr getelementptr inbounds (ptr, ptr @_ZTVN10__cxxabiv120__si_class_type_infoE, i64 2), ptr @_ZTSN7testing8internal15TestFactoryImplIN12_GLOBAL__N_133FromChars_DecimalFloatLimits_TestEEE, ptr @_ZTIN7testing8internal15TestFactoryBaseE }, align 8
@_ZTVN12_GLOBAL__N_133FromChars_DecimalFloatLimits_TestE = internal unnamed_addr constant { [8 x ptr] } { [8 x ptr] [ptr null, ptr @_ZTIN12_GLOBAL__N_133FromChars_DecimalFloatLimits_TestE, ptr @_ZN12_GLOBAL__N_133FromChars_DecimalFloatLimits_TestD2Ev, ptr @_ZN12_GLOBAL__N_133FromChars_DecimalFloatLimits_TestD0Ev, ptr @_ZN7testing4Test5SetUpEv, ptr @_ZN7testing4Test8TearDownEv, ptr @_ZN12_GLOBAL__N_133FromChars_DecimalFloatLimits_Test8TestBodyEv, ptr @_ZN7testing4Test5SetupEv] }, align 8
@_ZTSN12_GLOBAL__N_133FromChars_DecimalFloatLimits_TestE = internal constant [52 x i8] c"N12_GLOBAL__N_133FromChars_DecimalFloatLimits_TestE\00", align 1
@_ZTIN12_GLOBAL__N_133FromChars_DecimalFloatLimits_TestE = internal constant { ptr, ptr, ptr } { ptr getelementptr inbounds (ptr, ptr @_ZTVN10__cxxabiv120__si_class_type_infoE, i64 2), ptr @_ZTSN12_GLOBAL__N_133FromChars_DecimalFloatLimits_TestE, ptr @_ZTIN7testing4TestE }, align 8
@"_ZTSZN12_GLOBAL__N_133FromChars_DecimalFloatLimits_Test8TestBodyEvE3$_0" = internal constant [68 x i8] c"ZN12_GLOBAL__N_133FromChars_DecimalFloatLimits_Test8TestBodyEvE3$_0\00", align 1
@"_ZTIZN12_GLOBAL__N_133FromChars_DecimalFloatLimits_Test8TestBodyEvE3$_0" = internal constant { ptr, ptr } { ptr getelementptr inbounds (ptr, ptr @_ZTVN10__cxxabiv117__class_type_infoE, i64 2), ptr @"_ZTSZN12_GLOBAL__N_133FromChars_DecimalFloatLimits_Test8TestBodyEvE3$_0" }, align 8
@"_ZTSZN12_GLOBAL__N_133FromChars_DecimalFloatLimits_Test8TestBodyEvE3$_1" = internal constant [68 x i8] c"ZN12_GLOBAL__N_133FromChars_DecimalFloatLimits_Test8TestBodyEvE3$_1\00", align 1
@"_ZTIZN12_GLOBAL__N_133FromChars_DecimalFloatLimits_Test8TestBodyEvE3$_1" = internal constant { ptr, ptr } { ptr getelementptr inbounds (ptr, ptr @_ZTVN10__cxxabiv117__class_type_infoE, i64 2), ptr @"_ZTSZN12_GLOBAL__N_133FromChars_DecimalFloatLimits_Test8TestBodyEvE3$_1" }, align 8
@.str.406 = private unnamed_addr constant [50 x i8] c"basic_string: construction from null is not valid\00", align 1
@.str.407 = private unnamed_addr constant [166 x i8] c"generated/home/dtcxzyw/WorkSpace/Projects/compilers/llvm-opt-benchmark/bench/abseil-cpp/bench_build/googletest-src/googletest/include/gtest/internal/gtest-internal.h\00", align 1
@.str.408 = private unnamed_addr constant [51 x i8] c"Condition !test_case_fp || !test_suite_fp failed. \00", align 1
@.str.409 = private unnamed_addr constant [107 x i8] c"Test can not provide both SetUpTestSuite and SetUpTestCase, please make sure there is only one present at \00", align 1
@.str.410 = private unnamed_addr constant [2 x i8] c":\00", align 1
@_ZSt4cerr = external global %"class.std::basic_ostream", align 8
@.str.411 = private unnamed_addr constant [112 x i8] c"Test can not provide both TearDownTestSuite and TearDownTestCase, please make sure there is only one present at\00", align 1
@llvm.global_ctors = appending global [1 x { i32, ptr, ptr }] [{ i32, ptr, ptr } { i32 65535, ptr @_GLOBAL__sub_I_charconv_test.cc, ptr null }]

; Function Attrs: uwtable
define internal void @__cxx_global_var_init() #0 section ".text.startup" {
entry:
  call void @_ZNSt8ios_base4InitC1Ev(ptr noundef nonnull align 1 dereferenceable(1) @_ZStL8__ioinit)
  %0 = call i32 @__cxa_atexit(ptr @_ZNSt8ios_base4InitD1Ev, ptr @_ZStL8__ioinit, ptr @__dso_handle) #3
  ret void
}

declare void @_ZNSt8ios_base4InitC1Ev(ptr noundef nonnull align 1 dereferenceable(1)) unnamed_addr #1

; Function Attrs: nounwind
declare void @_ZNSt8ios_base4InitD1Ev(ptr noundef nonnull align 1 dereferenceable(1)) unnamed_addr #2

; Function Attrs: nounwind
declare i32 @__cxa_atexit(ptr, ptr, ptr) #3

; Function Attrs: uwtable
define internal void @__cxx_global_var_init.1() #0 section ".text.startup" personality ptr @__gxx_personality_v0 {
entry:
  %agg.tmp = alloca %"struct.testing::internal::CodeLocation", align 8
  %ref.tmp = alloca %"class.std::__cxx11::basic_string", align 8
  %ref.tmp1 = alloca %"class.std::allocator", align 1
  %exn.slot = alloca ptr, align 8
  %ehselector.slot = alloca i32, align 4
  call void @_ZNSaIcEC1Ev(ptr noundef nonnull align 1 dereferenceable(1) %ref.tmp1) #3
  invoke void @_ZNSt7__cxx1112basic_stringIcSt11char_traitsIcESaIcEEC2IS3_EEPKcRKS3_(ptr noundef nonnull align 8 dereferenceable(32) %ref.tmp, ptr noundef @.str.3, ptr noundef nonnull align 1 dereferenceable(1) %ref.tmp1)
          to label %invoke.cont unwind label %lpad

invoke.cont:                                      ; preds = %entry
  invoke void @_ZN7testing8internal12CodeLocationC2ERKNSt7__cxx1112basic_stringIcSt11char_traitsIcESaIcEEEi(ptr noundef nonnull align 8 dereferenceable(36) %agg.tmp, ptr noundef nonnull align 8 dereferenceable(32) %ref.tmp, i32 noundef 84)
          to label %invoke.cont3 unwind label %lpad2

invoke.cont3:                                     ; preds = %invoke.cont
  %call = invoke noundef ptr @_ZN7testing8internal13GetTestTypeIdEv()
          to label %invoke.cont5 unwind label %lpad4

invoke.cont5:                                     ; preds = %invoke.cont3
  %call7 = invoke noundef ptr @_ZN7testing8internal16SuiteApiResolverINS_4TestEE19GetSetUpCaseOrSuiteEPKci(ptr noundef @.str.3, i32 noundef 84)
          to label %invoke.cont6 unwind label %lpad4

invoke.cont6:                                     ; preds = %invoke.cont5
  %call9 = invoke noundef ptr @_ZN7testing8internal16SuiteApiResolverINS_4TestEE22GetTearDownCaseOrSuiteEPKci(ptr noundef @.str.3, i32 noundef 84)
          to label %invoke.cont8 unwind label %lpad4

invoke.cont8:                                     ; preds = %invoke.cont6
  %call11 = invoke noalias noundef nonnull ptr @_Znwm(i64 noundef 8) #15
          to label %invoke.cont10 unwind label %lpad4

invoke.cont10:                                    ; preds = %invoke.cont8
  invoke void @_ZN7testing8internal15TestFactoryImplIN12_GLOBAL__N_132FromChars_NearRoundingCases_TestEEC2Ev(ptr noundef nonnull align 8 dereferenceable(8) %call11)
          to label %invoke.cont13 unwind label %lpad12

invoke.cont13:                                    ; preds = %invoke.cont10
  %call15 = invoke noundef ptr @_ZN7testing8internal23MakeAndRegisterTestInfoEPKcS2_S2_S2_NS0_12CodeLocationEPKvPFvvES7_PNS0_15TestFactoryBaseE(ptr noundef @.str, ptr noundef @.str.2, ptr noundef null, ptr noundef null, ptr noundef %agg.tmp, ptr noundef %call, ptr noundef %call7, ptr noundef %call9, ptr noundef %call11)
          to label %invoke.cont14 unwind label %lpad4

invoke.cont14:                                    ; preds = %invoke.cont13
  call void @_ZN7testing8internal12CodeLocationD2Ev(ptr noundef nonnull align 8 dereferenceable(36) %agg.tmp) #3
  call void @_ZNSt7__cxx1112basic_stringIcSt11char_traitsIcESaIcEED1Ev(ptr noundef nonnull align 8 dereferenceable(32) %ref.tmp) #3
  call void @_ZNSaIcED1Ev(ptr noundef nonnull align 1 dereferenceable(1) %ref.tmp1) #3
  store ptr %call15, ptr @_ZN12_GLOBAL__N_132FromChars_NearRoundingCases_Test10test_info_E, align 8
  ret void

lpad:                                             ; preds = %entry
  %0 = landingpad { ptr, i32 }
          cleanup
  %1 = extractvalue { ptr, i32 } %0, 0
  store ptr %1, ptr %exn.slot, align 8
  %2 = extractvalue { ptr, i32 } %0, 1
  store i32 %2, ptr %ehselector.slot, align 4
  br label %ehcleanup17

lpad2:                                            ; preds = %invoke.cont
  %3 = landingpad { ptr, i32 }
          cleanup
  %4 = extractvalue { ptr, i32 } %3, 0
  store ptr %4, ptr %exn.slot, align 8
  %5 = extractvalue { ptr, i32 } %3, 1
  store i32 %5, ptr %ehselector.slot, align 4
  br label %ehcleanup16

lpad4:                                            ; preds = %invoke.cont13, %invoke.cont8, %invoke.cont6, %invoke.cont5, %invoke.cont3
  %6 = landingpad { ptr, i32 }
          cleanup
  %7 = extractvalue { ptr, i32 } %6, 0
  store ptr %7, ptr %exn.slot, align 8
  %8 = extractvalue { ptr, i32 } %6, 1
  store i32 %8, ptr %ehselector.slot, align 4
  br label %ehcleanup

lpad12:                                           ; preds = %invoke.cont10
  %9 = landingpad { ptr, i32 }
          cleanup
  %10 = extractvalue { ptr, i32 } %9, 0
  store ptr %10, ptr %exn.slot, align 8
  %11 = extractvalue { ptr, i32 } %9, 1
  store i32 %11, ptr %ehselector.slot, align 4
  call void @_ZdlPv(ptr noundef %call11) #16
  br label %ehcleanup

ehcleanup:                                        ; preds = %lpad12, %lpad4
  call void @_ZN7testing8internal12CodeLocationD2Ev(ptr noundef nonnull align 8 dereferenceable(36) %agg.tmp) #3
  br label %ehcleanup16

ehcleanup16:                                      ; preds = %ehcleanup, %lpad2
  call void @_ZNSt7__cxx1112basic_stringIcSt11char_traitsIcESaIcEED1Ev(ptr noundef nonnull align 8 dereferenceable(32) %ref.tmp) #3
  br label %ehcleanup17

ehcleanup17:                                      ; preds = %ehcleanup16, %lpad
  call void @_ZNSaIcED1Ev(ptr noundef nonnull align 1 dereferenceable(1) %ref.tmp1) #3
  br label %eh.resume

eh.resume:                                        ; preds = %ehcleanup17
  %exn = load ptr, ptr %exn.slot, align 8
  %sel = load i32, ptr %ehselector.slot, align 4
  %lpad.val = insertvalue { ptr, i32 } poison, ptr %exn, 0
  %lpad.val18 = insertvalue { ptr, i32 } %lpad.val, i32 %sel, 1
  resume { ptr, i32 } %lpad.val18
}

declare noundef ptr @_ZN7testing8internal23MakeAndRegisterTestInfoEPKcS2_S2_S2_NS0_12CodeLocationEPKvPFvvES7_PNS0_15TestFactoryBaseE(ptr noundef, ptr noundef, ptr noundef, ptr noundef, ptr noundef, ptr noundef, ptr noundef, ptr noundef, ptr noundef) #1

; Function Attrs: nounwind
declare void @_ZNSaIcEC1Ev(ptr noundef nonnull align 1 dereferenceable(1)) unnamed_addr #2

; Function Attrs: mustprogress uwtable
define linkonce_odr dso_local void @_ZNSt7__cxx1112basic_stringIcSt11char_traitsIcESaIcEEC2IS3_EEPKcRKS3_(ptr noundef nonnull align 8 dereferenceable(32) %this, ptr noundef %__s, ptr noundef nonnull align 1 dereferenceable(1) %__a) unnamed_addr #4 comdat align 2 personality ptr @__gxx_personality_v0 {
entry:
  %this.addr = alloca ptr, align 8
  %__s.addr = alloca ptr, align 8
  %__a.addr = alloca ptr, align 8
  %exn.slot = alloca ptr, align 8
  %ehselector.slot = alloca i32, align 4
  %__end = alloca ptr, align 8
  store ptr %this, ptr %this.addr, align 8
  store ptr %__s, ptr %__s.addr, align 8
  store ptr %__a, ptr %__a.addr, align 8
  %this1 = load ptr, ptr %this.addr, align 8
  %_M_dataplus = getelementptr inbounds %"class.std::__cxx11::basic_string", ptr %this1, i32 0, i32 0
  %call = call noundef ptr @_ZNSt7__cxx1112basic_stringIcSt11char_traitsIcESaIcEE13_M_local_dataEv(ptr noundef nonnull align 8 dereferenceable(32) %this1)
  %0 = load ptr, ptr %__a.addr, align 8
  call void @_ZNSt7__cxx1112basic_stringIcSt11char_traitsIcESaIcEE12_Alloc_hiderC1EPcRKS3_(ptr noundef nonnull align 8 dereferenceable(8) %_M_dataplus, ptr noundef %call, ptr noundef nonnull align 1 dereferenceable(1) %0)
  %1 = load ptr, ptr %__s.addr, align 8
  %cmp = icmp eq ptr %1, null
  br i1 %cmp, label %if.then, label %if.end

if.then:                                          ; preds = %entry
  invoke void @_ZSt19__throw_logic_errorPKc(ptr noundef @.str.406) #17
          to label %invoke.cont unwind label %lpad

invoke.cont:                                      ; preds = %if.then
  unreachable

lpad:                                             ; preds = %if.end, %if.then
  %2 = landingpad { ptr, i32 }
          cleanup
  %3 = extractvalue { ptr, i32 } %2, 0
  store ptr %3, ptr %exn.slot, align 8
  %4 = extractvalue { ptr, i32 } %2, 1
  store i32 %4, ptr %ehselector.slot, align 4
  call void @_ZNSt7__cxx1112basic_stringIcSt11char_traitsIcESaIcEE12_Alloc_hiderD2Ev(ptr noundef nonnull align 8 dereferenceable(8) %_M_dataplus) #3
  br label %eh.resume

if.end:                                           ; preds = %entry
  %5 = load ptr, ptr %__s.addr, align 8
  %6 = load ptr, ptr %__s.addr, align 8
  %call2 = call noundef i64 @_ZNSt11char_traitsIcE6lengthEPKc(ptr noundef %6)
  %add.ptr = getelementptr inbounds i8, ptr %5, i64 %call2
  store ptr %add.ptr, ptr %__end, align 8
  %7 = load ptr, ptr %__s.addr, align 8
  %8 = load ptr, ptr %__end, align 8
  invoke void @_ZNSt7__cxx1112basic_stringIcSt11char_traitsIcESaIcEE12_M_constructIPKcEEvT_S8_St20forward_iterator_tag(ptr noundef nonnull align 8 dereferenceable(32) %this1, ptr noundef %7, ptr noundef %8)
          to label %invoke.cont3 unwind label %lpad

invoke.cont3:                                     ; preds = %if.end
  ret void

eh.resume:                                        ; preds = %lpad
  %exn = load ptr, ptr %exn.slot, align 8
  %sel = load i32, ptr %ehselector.slot, align 4
  %lpad.val = insertvalue { ptr, i32 } poison, ptr %exn, 0
  %lpad.val4 = insertvalue { ptr, i32 } %lpad.val, i32 %sel, 1
  resume { ptr, i32 } %lpad.val4
}

declare i32 @__gxx_personality_v0(...)

; Function Attrs: mustprogress uwtable
define linkonce_odr dso_local void @_ZN7testing8internal12CodeLocationC2ERKNSt7__cxx1112basic_stringIcSt11char_traitsIcESaIcEEEi(ptr noundef nonnull align 8 dereferenceable(36) %this, ptr noundef nonnull align 8 dereferenceable(32) %a_file, i32 noundef %a_line) unnamed_addr #4 comdat align 2 {
entry:
  %this.addr = alloca ptr, align 8
  %a_file.addr = alloca ptr, align 8
  %a_line.addr = alloca i32, align 4
  store ptr %this, ptr %this.addr, align 8
  store ptr %a_file, ptr %a_file.addr, align 8
  store i32 %a_line, ptr %a_line.addr, align 4
  %this1 = load ptr, ptr %this.addr, align 8
  %file = getelementptr inbounds %"struct.testing::internal::CodeLocation", ptr %this1, i32 0, i32 0
  %0 = load ptr, ptr %a_file.addr, align 8
  call void @_ZNSt7__cxx1112basic_stringIcSt11char_traitsIcESaIcEEC1ERKS4_(ptr noundef nonnull align 8 dereferenceable(32) %file, ptr noundef nonnull align 8 dereferenceable(32) %0)
  %line = getelementptr inbounds %"struct.testing::internal::CodeLocation", ptr %this1, i32 0, i32 1
  %1 = load i32, ptr %a_line.addr, align 4
  store i32 %1, ptr %line, align 8
  ret void
}

declare noundef ptr @_ZN7testing8internal13GetTestTypeIdEv() #1

; Function Attrs: mustprogress uwtable
define linkonce_odr dso_local noundef ptr @_ZN7testing8internal16SuiteApiResolverINS_4TestEE19GetSetUpCaseOrSuiteEPKci(ptr noundef %filename, i32 noundef %line_num) #4 comdat align 2 personality ptr @__gxx_personality_v0 {
entry:
  %filename.addr = alloca ptr, align 8
  %line_num.addr = alloca i32, align 4
  %test_case_fp = alloca ptr, align 8
  %test_suite_fp = alloca ptr, align 8
  %ref.tmp = alloca %"class.testing::internal::GTestLog", align 4
  %exn.slot = alloca ptr, align 8
  %ehselector.slot = alloca i32, align 4
  store ptr %filename, ptr %filename.addr, align 8
  store i32 %line_num, ptr %line_num.addr, align 4
  %call = call noundef ptr @_ZN7testing8internal19GetNotDefaultOrNullEPFvvES2_(ptr noundef @_ZN7testing4Test13SetUpTestCaseEv, ptr noundef @_ZN7testing4Test13SetUpTestCaseEv)
  store ptr %call, ptr %test_case_fp, align 8
  %call1 = call noundef ptr @_ZN7testing8internal19GetNotDefaultOrNullEPFvvES2_(ptr noundef @_ZN7testing4Test14SetUpTestSuiteEv, ptr noundef @_ZN7testing4Test14SetUpTestSuiteEv)
  store ptr %call1, ptr %test_suite_fp, align 8
  %0 = load ptr, ptr %test_case_fp, align 8
  %tobool = icmp ne ptr %0, null
  br i1 %tobool, label %lor.rhs, label %lor.end

lor.rhs:                                          ; preds = %entry
  %1 = load ptr, ptr %test_suite_fp, align 8
  %tobool2 = icmp ne ptr %1, null
  %lnot = xor i1 %tobool2, true
  br label %lor.end

lor.end:                                          ; preds = %lor.rhs, %entry
  %2 = phi i1 [ true, %entry ], [ %lnot, %lor.rhs ]
  %call3 = call noundef zeroext i1 @_ZN7testing8internal6IsTrueEb(i1 noundef zeroext %2)
  br i1 %call3, label %if.then, label %if.else

if.then:                                          ; preds = %lor.end
  br label %if.end

if.else:                                          ; preds = %lor.end
  call void @_ZN7testing8internal8GTestLogC1ENS0_16GTestLogSeverityEPKci(ptr noundef nonnull align 4 dereferenceable(4) %ref.tmp, i32 noundef 3, ptr noundef @.str.407, i32 noundef 513)
  %call4 = invoke noundef nonnull align 8 dereferenceable(8) ptr @_ZN7testing8internal8GTestLog9GetStreamEv(ptr noundef nonnull align 4 dereferenceable(4) %ref.tmp)
          to label %invoke.cont unwind label %lpad

invoke.cont:                                      ; preds = %if.else
  %call6 = invoke noundef nonnull align 8 dereferenceable(8) ptr @_ZStlsISt11char_traitsIcEERSt13basic_ostreamIcT_ES5_PKc(ptr noundef nonnull align 8 dereferenceable(8) %call4, ptr noundef @.str.408)
          to label %invoke.cont5 unwind label %lpad

invoke.cont5:                                     ; preds = %invoke.cont
  %call8 = invoke noundef nonnull align 8 dereferenceable(8) ptr @_ZStlsISt11char_traitsIcEERSt13basic_ostreamIcT_ES5_PKc(ptr noundef nonnull align 8 dereferenceable(8) %call6, ptr noundef @.str.409)
          to label %invoke.cont7 unwind label %lpad

invoke.cont7:                                     ; preds = %invoke.cont5
  %3 = load ptr, ptr %filename.addr, align 8
  %call10 = invoke noundef nonnull align 8 dereferenceable(8) ptr @_ZStlsISt11char_traitsIcEERSt13basic_ostreamIcT_ES5_PKc(ptr noundef nonnull align 8 dereferenceable(8) %call8, ptr noundef %3)
          to label %invoke.cont9 unwind label %lpad

invoke.cont9:                                     ; preds = %invoke.cont7
  %call12 = invoke noundef nonnull align 8 dereferenceable(8) ptr @_ZStlsISt11char_traitsIcEERSt13basic_ostreamIcT_ES5_PKc(ptr noundef nonnull align 8 dereferenceable(8) %call10, ptr noundef @.str.410)
          to label %invoke.cont11 unwind label %lpad

invoke.cont11:                                    ; preds = %invoke.cont9
  %4 = load i32, ptr %line_num.addr, align 4
  %call14 = invoke noundef nonnull align 8 dereferenceable(8) ptr @_ZNSolsEi(ptr noundef nonnull align 8 dereferenceable(8) %call12, i32 noundef %4)
          to label %invoke.cont13 unwind label %lpad

invoke.cont13:                                    ; preds = %invoke.cont11
  call void @_ZN7testing8internal8GTestLogD1Ev(ptr noundef nonnull align 4 dereferenceable(4) %ref.tmp) #3
  br label %if.end

lpad:                                             ; preds = %invoke.cont11, %invoke.cont9, %invoke.cont7, %invoke.cont5, %invoke.cont, %if.else
  %5 = landingpad { ptr, i32 }
          cleanup
  %6 = extractvalue { ptr, i32 } %5, 0
  store ptr %6, ptr %exn.slot, align 8
  %7 = extractvalue { ptr, i32 } %5, 1
  store i32 %7, ptr %ehselector.slot, align 4
  call void @_ZN7testing8internal8GTestLogD1Ev(ptr noundef nonnull align 4 dereferenceable(4) %ref.tmp) #3
  br label %eh.resume

if.end:                                           ; preds = %invoke.cont13, %if.then
  %8 = load ptr, ptr %test_case_fp, align 8
  %cmp = icmp ne ptr %8, null
  br i1 %cmp, label %cond.true, label %cond.false

cond.true:                                        ; preds = %if.end
  %9 = load ptr, ptr %test_case_fp, align 8
  br label %cond.end

cond.false:                                       ; preds = %if.end
  %10 = load ptr, ptr %test_suite_fp, align 8
  br label %cond.end

cond.end:                                         ; preds = %cond.false, %cond.true
  %cond = phi ptr [ %9, %cond.true ], [ %10, %cond.false ]
  ret ptr %cond

eh.resume:                                        ; preds = %lpad
  %exn = load ptr, ptr %exn.slot, align 8
  %sel = load i32, ptr %ehselector.slot, align 4
  %lpad.val = insertvalue { ptr, i32 } poison, ptr %exn, 0
  %lpad.val15 = insertvalue { ptr, i32 } %lpad.val, i32 %sel, 1
  resume { ptr, i32 } %lpad.val15
}

; Function Attrs: mustprogress uwtable
define linkonce_odr dso_local noundef ptr @_ZN7testing8internal16SuiteApiResolverINS_4TestEE22GetTearDownCaseOrSuiteEPKci(ptr noundef %filename, i32 noundef %line_num) #4 comdat align 2 personality ptr @__gxx_personality_v0 {
entry:
  %filename.addr = alloca ptr, align 8
  %line_num.addr = alloca i32, align 4
  %test_case_fp = alloca ptr, align 8
  %test_suite_fp = alloca ptr, align 8
  %ref.tmp = alloca %"class.testing::internal::GTestLog", align 4
  %exn.slot = alloca ptr, align 8
  %ehselector.slot = alloca i32, align 4
  store ptr %filename, ptr %filename.addr, align 8
  store i32 %line_num, ptr %line_num.addr, align 4
  %call = call noundef ptr @_ZN7testing8internal19GetNotDefaultOrNullEPFvvES2_(ptr noundef @_ZN7testing4Test16TearDownTestCaseEv, ptr noundef @_ZN7testing4Test16TearDownTestCaseEv)
  store ptr %call, ptr %test_case_fp, align 8
  %call1 = call noundef ptr @_ZN7testing8internal19GetNotDefaultOrNullEPFvvES2_(ptr noundef @_ZN7testing4Test17TearDownTestSuiteEv, ptr noundef @_ZN7testing4Test17TearDownTestSuiteEv)
  store ptr %call1, ptr %test_suite_fp, align 8
  %0 = load ptr, ptr %test_case_fp, align 8
  %tobool = icmp ne ptr %0, null
  br i1 %tobool, label %lor.rhs, label %lor.end

lor.rhs:                                          ; preds = %entry
  %1 = load ptr, ptr %test_suite_fp, align 8
  %tobool2 = icmp ne ptr %1, null
  %lnot = xor i1 %tobool2, true
  br label %lor.end

lor.end:                                          ; preds = %lor.rhs, %entry
  %2 = phi i1 [ true, %entry ], [ %lnot, %lor.rhs ]
  %call3 = call noundef zeroext i1 @_ZN7testing8internal6IsTrueEb(i1 noundef zeroext %2)
  br i1 %call3, label %if.then, label %if.else

if.then:                                          ; preds = %lor.end
  br label %if.end

if.else:                                          ; preds = %lor.end
  call void @_ZN7testing8internal8GTestLogC1ENS0_16GTestLogSeverityEPKci(ptr noundef nonnull align 4 dereferenceable(4) %ref.tmp, i32 noundef 3, ptr noundef @.str.407, i32 noundef 534)
  %call4 = call noundef nonnull align 8 dereferenceable(8) ptr @_ZN7testing8internal8GTestLog9GetStreamEv(ptr noundef nonnull align 4 dereferenceable(4) %ref.tmp)
  %call5 = invoke noundef nonnull align 8 dereferenceable(8) ptr @_ZStlsISt11char_traitsIcEERSt13basic_ostreamIcT_ES5_PKc(ptr noundef nonnull align 8 dereferenceable(8) %call4, ptr noundef @.str.408)
          to label %invoke.cont unwind label %lpad

invoke.cont:                                      ; preds = %if.else
  %call7 = invoke noundef nonnull align 8 dereferenceable(8) ptr @_ZStlsISt11char_traitsIcEERSt13basic_ostreamIcT_ES5_PKc(ptr noundef nonnull align 8 dereferenceable(8) %call5, ptr noundef @.str.411)
          to label %invoke.cont6 unwind label %lpad

invoke.cont6:                                     ; preds = %invoke.cont
  %3 = load ptr, ptr %filename.addr, align 8
  %call9 = invoke noundef nonnull align 8 dereferenceable(8) ptr @_ZStlsISt11char_traitsIcEERSt13basic_ostreamIcT_ES5_PKc(ptr noundef nonnull align 8 dereferenceable(8) %call7, ptr noundef %3)
          to label %invoke.cont8 unwind label %lpad

invoke.cont8:                                     ; preds = %invoke.cont6
  %call11 = invoke noundef nonnull align 8 dereferenceable(8) ptr @_ZStlsISt11char_traitsIcEERSt13basic_ostreamIcT_ES5_PKc(ptr noundef nonnull align 8 dereferenceable(8) %call9, ptr noundef @.str.410)
          to label %invoke.cont10 unwind label %lpad

invoke.cont10:                                    ; preds = %invoke.cont8
  %4 = load i32, ptr %line_num.addr, align 4
  %call13 = invoke noundef nonnull align 8 dereferenceable(8) ptr @_ZNSolsEi(ptr noundef nonnull align 8 dereferenceable(8) %call11, i32 noundef %4)
          to label %invoke.cont12 unwind label %lpad

invoke.cont12:                                    ; preds = %invoke.cont10
  call void @_ZN7testing8internal8GTestLogD1Ev(ptr noundef nonnull align 4 dereferenceable(4) %ref.tmp) #3
  br label %if.end

lpad:                                             ; preds = %invoke.cont10, %invoke.cont8, %invoke.cont6, %invoke.cont, %if.else
  %5 = landingpad { ptr, i32 }
          cleanup
  %6 = extractvalue { ptr, i32 } %5, 0
  store ptr %6, ptr %exn.slot, align 8
  %7 = extractvalue { ptr, i32 } %5, 1
  store i32 %7, ptr %ehselector.slot, align 4
  call void @_ZN7testing8internal8GTestLogD1Ev(ptr noundef nonnull align 4 dereferenceable(4) %ref.tmp) #3
  br label %eh.resume

if.end:                                           ; preds = %invoke.cont12, %if.then
  %8 = load ptr, ptr %test_case_fp, align 8
  %cmp = icmp ne ptr %8, null
  br i1 %cmp, label %cond.true, label %cond.false

cond.true:                                        ; preds = %if.end
  %9 = load ptr, ptr %test_case_fp, align 8
  br label %cond.end

cond.false:                                       ; preds = %if.end
  %10 = load ptr, ptr %test_suite_fp, align 8
  br label %cond.end

cond.end:                                         ; preds = %cond.false, %cond.true
  %cond = phi ptr [ %9, %cond.true ], [ %10, %cond.false ]
  ret ptr %cond

eh.resume:                                        ; preds = %lpad
  %exn = load ptr, ptr %exn.slot, align 8
  %sel = load i32, ptr %ehselector.slot, align 4
  %lpad.val = insertvalue { ptr, i32 } poison, ptr %exn, 0
  %lpad.val14 = insertvalue { ptr, i32 } %lpad.val, i32 %sel, 1
  resume { ptr, i32 } %lpad.val14
}

; Function Attrs: nobuiltin allocsize(0)
declare noundef nonnull ptr @_Znwm(i64 noundef) #5

; Function Attrs: mustprogress uwtable
define internal void @_ZN7testing8internal15TestFactoryImplIN12_GLOBAL__N_132FromChars_NearRoundingCases_TestEEC2Ev(ptr noundef nonnull align 8 dereferenceable(8) %this) unnamed_addr #4 align 2 {
entry:
  %this.addr = alloca ptr, align 8
  store ptr %this, ptr %this.addr, align 8
  %this1 = load ptr, ptr %this.addr, align 8
  call void @_ZN7testing8internal15TestFactoryBaseC2Ev(ptr noundef nonnull align 8 dereferenceable(8) %this1)
  store ptr getelementptr inbounds ({ [5 x ptr] }, ptr @_ZTVN7testing8internal15TestFactoryImplIN12_GLOBAL__N_132FromChars_NearRoundingCases_TestEEE, i32 0, inrange i32 0, i32 2), ptr %this1, align 8
  ret void
}

; Function Attrs: nobuiltin nounwind
declare void @_ZdlPv(ptr noundef) #6

; Function Attrs: mustprogress nounwind uwtable
define linkonce_odr dso_local void @_ZN7testing8internal12CodeLocationD2Ev(ptr noundef nonnull align 8 dereferenceable(36) %this) unnamed_addr #7 comdat align 2 {
entry:
  %this.addr = alloca ptr, align 8
  store ptr %this, ptr %this.addr, align 8
  %this1 = load ptr, ptr %this.addr, align 8
  %file = getelementptr inbounds %"struct.testing::internal::CodeLocation", ptr %this1, i32 0, i32 0
  call void @_ZNSt7__cxx1112basic_stringIcSt11char_traitsIcESaIcEED1Ev(ptr noundef nonnull align 8 dereferenceable(32) %file) #3
  ret void
}

; Function Attrs: nounwind
declare void @_ZNSt7__cxx1112basic_stringIcSt11char_traitsIcESaIcEED1Ev(ptr noundef nonnull align 8 dereferenceable(32)) unnamed_addr #2

; Function Attrs: nounwind
declare void @_ZNSaIcED1Ev(ptr noundef nonnull align 1 dereferenceable(1)) unnamed_addr #2

; Function Attrs: uwtable
define internal void @__cxx_global_var_init.4() #0 section ".text.startup" personality ptr @__gxx_personality_v0 {
entry:
  %agg.tmp = alloca %"struct.testing::internal::CodeLocation", align 8
  %ref.tmp = alloca %"class.std::__cxx11::basic_string", align 8
  %ref.tmp1 = alloca %"class.std::allocator", align 1
  %exn.slot = alloca ptr, align 8
  %ehselector.slot = alloca i32, align 4
  call void @_ZNSaIcEC1Ev(ptr noundef nonnull align 1 dereferenceable(1) %ref.tmp1) #3
  invoke void @_ZNSt7__cxx1112basic_stringIcSt11char_traitsIcESaIcEEC2IS3_EEPKcRKS3_(ptr noundef nonnull align 8 dereferenceable(32) %ref.tmp, ptr noundef @.str.3, ptr noundef nonnull align 1 dereferenceable(1) %ref.tmp1)
          to label %invoke.cont unwind label %lpad

invoke.cont:                                      ; preds = %entry
  invoke void @_ZN7testing8internal12CodeLocationC2ERKNSt7__cxx1112basic_stringIcSt11char_traitsIcESaIcEEEi(ptr noundef nonnull align 8 dereferenceable(36) %agg.tmp, ptr noundef nonnull align 8 dereferenceable(32) %ref.tmp, i32 noundef 182)
          to label %invoke.cont3 unwind label %lpad2

invoke.cont3:                                     ; preds = %invoke.cont
  %call = invoke noundef ptr @_ZN7testing8internal13GetTestTypeIdEv()
          to label %invoke.cont5 unwind label %lpad4

invoke.cont5:                                     ; preds = %invoke.cont3
  %call7 = invoke noundef ptr @_ZN7testing8internal16SuiteApiResolverINS_4TestEE19GetSetUpCaseOrSuiteEPKci(ptr noundef @.str.3, i32 noundef 182)
          to label %invoke.cont6 unwind label %lpad4

invoke.cont6:                                     ; preds = %invoke.cont5
  %call9 = invoke noundef ptr @_ZN7testing8internal16SuiteApiResolverINS_4TestEE22GetTearDownCaseOrSuiteEPKci(ptr noundef @.str.3, i32 noundef 182)
          to label %invoke.cont8 unwind label %lpad4

invoke.cont8:                                     ; preds = %invoke.cont6
  %call11 = invoke noalias noundef nonnull ptr @_Znwm(i64 noundef 8) #15
          to label %invoke.cont10 unwind label %lpad4

invoke.cont10:                                    ; preds = %invoke.cont8
  invoke void @_ZN7testing8internal15TestFactoryImplIN12_GLOBAL__N_140FromChars_NearRoundingCasesExplicit_TestEEC2Ev(ptr noundef nonnull align 8 dereferenceable(8) %call11)
          to label %invoke.cont13 unwind label %lpad12

invoke.cont13:                                    ; preds = %invoke.cont10
  %call15 = invoke noundef ptr @_ZN7testing8internal23MakeAndRegisterTestInfoEPKcS2_S2_S2_NS0_12CodeLocationEPKvPFvvES7_PNS0_15TestFactoryBaseE(ptr noundef @.str, ptr noundef @.str.5, ptr noundef null, ptr noundef null, ptr noundef %agg.tmp, ptr noundef %call, ptr noundef %call7, ptr noundef %call9, ptr noundef %call11)
          to label %invoke.cont14 unwind label %lpad4

invoke.cont14:                                    ; preds = %invoke.cont13
  call void @_ZN7testing8internal12CodeLocationD2Ev(ptr noundef nonnull align 8 dereferenceable(36) %agg.tmp) #3
  call void @_ZNSt7__cxx1112basic_stringIcSt11char_traitsIcESaIcEED1Ev(ptr noundef nonnull align 8 dereferenceable(32) %ref.tmp) #3
  call void @_ZNSaIcED1Ev(ptr noundef nonnull align 1 dereferenceable(1) %ref.tmp1) #3
  store ptr %call15, ptr @_ZN12_GLOBAL__N_140FromChars_NearRoundingCasesExplicit_Test10test_info_E, align 8
  ret void

lpad:                                             ; preds = %entry
  %0 = landingpad { ptr, i32 }
          cleanup
  %1 = extractvalue { ptr, i32 } %0, 0
  store ptr %1, ptr %exn.slot, align 8
  %2 = extractvalue { ptr, i32 } %0, 1
  store i32 %2, ptr %ehselector.slot, align 4
  br label %ehcleanup17

lpad2:                                            ; preds = %invoke.cont
  %3 = landingpad { ptr, i32 }
          cleanup
  %4 = extractvalue { ptr, i32 } %3, 0
  store ptr %4, ptr %exn.slot, align 8
  %5 = extractvalue { ptr, i32 } %3, 1
  store i32 %5, ptr %ehselector.slot, align 4
  br label %ehcleanup16

lpad4:                                            ; preds = %invoke.cont13, %invoke.cont8, %invoke.cont6, %invoke.cont5, %invoke.cont3
  %6 = landingpad { ptr, i32 }
          cleanup
  %7 = extractvalue { ptr, i32 } %6, 0
  store ptr %7, ptr %exn.slot, align 8
  %8 = extractvalue { ptr, i32 } %6, 1
  store i32 %8, ptr %ehselector.slot, align 4
  br label %ehcleanup

lpad12:                                           ; preds = %invoke.cont10
  %9 = landingpad { ptr, i32 }
          cleanup
  %10 = extractvalue { ptr, i32 } %9, 0
  store ptr %10, ptr %exn.slot, align 8
  %11 = extractvalue { ptr, i32 } %9, 1
  store i32 %11, ptr %ehselector.slot, align 4
  call void @_ZdlPv(ptr noundef %call11) #16
  br label %ehcleanup

ehcleanup:                                        ; preds = %lpad12, %lpad4
  call void @_ZN7testing8internal12CodeLocationD2Ev(ptr noundef nonnull align 8 dereferenceable(36) %agg.tmp) #3
  br label %ehcleanup16

ehcleanup16:                                      ; preds = %ehcleanup, %lpad2
  call void @_ZNSt7__cxx1112basic_stringIcSt11char_traitsIcESaIcEED1Ev(ptr noundef nonnull align 8 dereferenceable(32) %ref.tmp) #3
  br label %ehcleanup17

ehcleanup17:                                      ; preds = %ehcleanup16, %lpad
  call void @_ZNSaIcED1Ev(ptr noundef nonnull align 1 dereferenceable(1) %ref.tmp1) #3
  br label %eh.resume

eh.resume:                                        ; preds = %ehcleanup17
  %exn = load ptr, ptr %exn.slot, align 8
  %sel = load i32, ptr %ehselector.slot, align 4
  %lpad.val = insertvalue { ptr, i32 } poison, ptr %exn, 0
  %lpad.val18 = insertvalue { ptr, i32 } %lpad.val, i32 %sel, 1
  resume { ptr, i32 } %lpad.val18
}

; Function Attrs: mustprogress nounwind uwtable
define internal void @_ZN7testing8internal15TestFactoryImplIN12_GLOBAL__N_140FromChars_NearRoundingCasesExplicit_TestEEC2Ev(ptr noundef nonnull align 8 dereferenceable(8) %this) unnamed_addr #7 align 2 {
entry:
  %this.addr = alloca ptr, align 8
  store ptr %this, ptr %this.addr, align 8
  %this1 = load ptr, ptr %this.addr, align 8
  call void @_ZN7testing8internal15TestFactoryBaseC2Ev(ptr noundef nonnull align 8 dereferenceable(8) %this1)
  store ptr getelementptr inbounds ({ [5 x ptr] }, ptr @_ZTVN7testing8internal15TestFactoryImplIN12_GLOBAL__N_140FromChars_NearRoundingCasesExplicit_TestEEE, i32 0, inrange i32 0, i32 2), ptr %this1, align 8
  ret void
}

; Function Attrs: uwtable
define internal void @__cxx_global_var_init.6() #0 section ".text.startup" personality ptr @__gxx_personality_v0 {
entry:
  %agg.tmp = alloca %"struct.testing::internal::CodeLocation", align 8
  %ref.tmp = alloca %"class.std::__cxx11::basic_string", align 8
  %ref.tmp1 = alloca %"class.std::allocator", align 1
  %exn.slot = alloca ptr, align 8
  %ehselector.slot = alloca i32, align 4
  call void @_ZNSaIcEC1Ev(ptr noundef nonnull align 1 dereferenceable(1) %ref.tmp1) #3
  invoke void @_ZNSt7__cxx1112basic_stringIcSt11char_traitsIcESaIcEEC2IS3_EEPKcRKS3_(ptr noundef nonnull align 8 dereferenceable(32) %ref.tmp, ptr noundef @.str.3, ptr noundef nonnull align 1 dereferenceable(1) %ref.tmp1)
          to label %invoke.cont unwind label %lpad

invoke.cont:                                      ; preds = %entry
  invoke void @_ZN7testing8internal12CodeLocationC2ERKNSt7__cxx1112basic_stringIcSt11char_traitsIcESaIcEEEi(ptr noundef nonnull align 8 dereferenceable(36) %agg.tmp, ptr noundef nonnull align 8 dereferenceable(32) %ref.tmp, i32 noundef 301)
          to label %invoke.cont3 unwind label %lpad2

invoke.cont3:                                     ; preds = %invoke.cont
  %call = invoke noundef ptr @_ZN7testing8internal13GetTestTypeIdEv()
          to label %invoke.cont5 unwind label %lpad4

invoke.cont5:                                     ; preds = %invoke.cont3
  %call7 = invoke noundef ptr @_ZN7testing8internal16SuiteApiResolverINS_4TestEE19GetSetUpCaseOrSuiteEPKci(ptr noundef @.str.3, i32 noundef 301)
          to label %invoke.cont6 unwind label %lpad4

invoke.cont6:                                     ; preds = %invoke.cont5
  %call9 = invoke noundef ptr @_ZN7testing8internal16SuiteApiResolverINS_4TestEE22GetTearDownCaseOrSuiteEPKci(ptr noundef @.str.3, i32 noundef 301)
          to label %invoke.cont8 unwind label %lpad4

invoke.cont8:                                     ; preds = %invoke.cont6
  %call11 = invoke noalias noundef nonnull ptr @_Znwm(i64 noundef 8) #15
          to label %invoke.cont10 unwind label %lpad4

invoke.cont10:                                    ; preds = %invoke.cont8
  invoke void @_ZN7testing8internal15TestFactoryImplIN12_GLOBAL__N_129FromChars_DoubleRounding_TestEEC2Ev(ptr noundef nonnull align 8 dereferenceable(8) %call11)
          to label %invoke.cont13 unwind label %lpad12

invoke.cont13:                                    ; preds = %invoke.cont10
  %call15 = invoke noundef ptr @_ZN7testing8internal23MakeAndRegisterTestInfoEPKcS2_S2_S2_NS0_12CodeLocationEPKvPFvvES7_PNS0_15TestFactoryBaseE(ptr noundef @.str, ptr noundef @.str.7, ptr noundef null, ptr noundef null, ptr noundef %agg.tmp, ptr noundef %call, ptr noundef %call7, ptr noundef %call9, ptr noundef %call11)
          to label %invoke.cont14 unwind label %lpad4

invoke.cont14:                                    ; preds = %invoke.cont13
  call void @_ZN7testing8internal12CodeLocationD2Ev(ptr noundef nonnull align 8 dereferenceable(36) %agg.tmp) #3
  call void @_ZNSt7__cxx1112basic_stringIcSt11char_traitsIcESaIcEED1Ev(ptr noundef nonnull align 8 dereferenceable(32) %ref.tmp) #3
  call void @_ZNSaIcED1Ev(ptr noundef nonnull align 1 dereferenceable(1) %ref.tmp1) #3
  store ptr %call15, ptr @_ZN12_GLOBAL__N_129FromChars_DoubleRounding_Test10test_info_E, align 8
  ret void

lpad:                                             ; preds = %entry
  %0 = landingpad { ptr, i32 }
          cleanup
  %1 = extractvalue { ptr, i32 } %0, 0
  store ptr %1, ptr %exn.slot, align 8
  %2 = extractvalue { ptr, i32 } %0, 1
  store i32 %2, ptr %ehselector.slot, align 4
  br label %ehcleanup17

lpad2:                                            ; preds = %invoke.cont
  %3 = landingpad { ptr, i32 }
          cleanup
  %4 = extractvalue { ptr, i32 } %3, 0
  store ptr %4, ptr %exn.slot, align 8
  %5 = extractvalue { ptr, i32 } %3, 1
  store i32 %5, ptr %ehselector.slot, align 4
  br label %ehcleanup16

lpad4:                                            ; preds = %invoke.cont13, %invoke.cont8, %invoke.cont6, %invoke.cont5, %invoke.cont3
  %6 = landingpad { ptr, i32 }
          cleanup
  %7 = extractvalue { ptr, i32 } %6, 0
  store ptr %7, ptr %exn.slot, align 8
  %8 = extractvalue { ptr, i32 } %6, 1
  store i32 %8, ptr %ehselector.slot, align 4
  br label %ehcleanup

lpad12:                                           ; preds = %invoke.cont10
  %9 = landingpad { ptr, i32 }
          cleanup
  %10 = extractvalue { ptr, i32 } %9, 0
  store ptr %10, ptr %exn.slot, align 8
  %11 = extractvalue { ptr, i32 } %9, 1
  store i32 %11, ptr %ehselector.slot, align 4
  call void @_ZdlPv(ptr noundef %call11) #16
  br label %ehcleanup

ehcleanup:                                        ; preds = %lpad12, %lpad4
  call void @_ZN7testing8internal12CodeLocationD2Ev(ptr noundef nonnull align 8 dereferenceable(36) %agg.tmp) #3
  br label %ehcleanup16

ehcleanup16:                                      ; preds = %ehcleanup, %lpad2
  call void @_ZNSt7__cxx1112basic_stringIcSt11char_traitsIcESaIcEED1Ev(ptr noundef nonnull align 8 dereferenceable(32) %ref.tmp) #3
  br label %ehcleanup17

ehcleanup17:                                      ; preds = %ehcleanup16, %lpad
  call void @_ZNSaIcED1Ev(ptr noundef nonnull align 1 dereferenceable(1) %ref.tmp1) #3
  br label %eh.resume

eh.resume:                                        ; preds = %ehcleanup17
  %exn = load ptr, ptr %exn.slot, align 8
  %sel = load i32, ptr %ehselector.slot, align 4
  %lpad.val = insertvalue { ptr, i32 } poison, ptr %exn, 0
  %lpad.val18 = insertvalue { ptr, i32 } %lpad.val, i32 %sel, 1
  resume { ptr, i32 } %lpad.val18
}

; Function Attrs: mustprogress nounwind uwtable
define internal void @_ZN7testing8internal15TestFactoryImplIN12_GLOBAL__N_129FromChars_DoubleRounding_TestEEC2Ev(ptr noundef nonnull align 8 dereferenceable(8) %this) unnamed_addr #7 align 2 {
entry:
  %this.addr = alloca ptr, align 8
  store ptr %this, ptr %this.addr, align 8
  %this1 = load ptr, ptr %this.addr, align 8
  call void @_ZN7testing8internal15TestFactoryBaseC2Ev(ptr noundef nonnull align 8 dereferenceable(8) %this1)
  store ptr getelementptr inbounds ({ [5 x ptr] }, ptr @_ZTVN7testing8internal15TestFactoryImplIN12_GLOBAL__N_129FromChars_DoubleRounding_TestEEE, i32 0, inrange i32 0, i32 2), ptr %this1, align 8
  ret void
}

; Function Attrs: uwtable
define internal void @__cxx_global_var_init.8() #0 section ".text.startup" personality ptr @__gxx_personality_v0 {
entry:
  %agg.tmp = alloca %"struct.testing::internal::CodeLocation", align 8
  %ref.tmp = alloca %"class.std::__cxx11::basic_string", align 8
  %ref.tmp1 = alloca %"class.std::allocator", align 1
  %exn.slot = alloca ptr, align 8
  %ehselector.slot = alloca i32, align 4
  call void @_ZNSaIcEC1Ev(ptr noundef nonnull align 1 dereferenceable(1) %ref.tmp1) #3
  invoke void @_ZNSt7__cxx1112basic_stringIcSt11char_traitsIcESaIcEEC2IS3_EEPKcRKS3_(ptr noundef nonnull align 8 dereferenceable(32) %ref.tmp, ptr noundef @.str.3, ptr noundef nonnull align 1 dereferenceable(1) %ref.tmp1)
          to label %invoke.cont unwind label %lpad

invoke.cont:                                      ; preds = %entry
  invoke void @_ZN7testing8internal12CodeLocationC2ERKNSt7__cxx1112basic_stringIcSt11char_traitsIcESaIcEEEi(ptr noundef nonnull align 8 dereferenceable(36) %agg.tmp, ptr noundef nonnull align 8 dereferenceable(32) %ref.tmp, i32 noundef 394)
          to label %invoke.cont3 unwind label %lpad2

invoke.cont3:                                     ; preds = %invoke.cont
  %call = invoke noundef ptr @_ZN7testing8internal13GetTestTypeIdEv()
          to label %invoke.cont5 unwind label %lpad4

invoke.cont5:                                     ; preds = %invoke.cont3
  %call7 = invoke noundef ptr @_ZN7testing8internal16SuiteApiResolverINS_4TestEE19GetSetUpCaseOrSuiteEPKci(ptr noundef @.str.3, i32 noundef 394)
          to label %invoke.cont6 unwind label %lpad4

invoke.cont6:                                     ; preds = %invoke.cont5
  %call9 = invoke noundef ptr @_ZN7testing8internal16SuiteApiResolverINS_4TestEE22GetTearDownCaseOrSuiteEPKci(ptr noundef @.str.3, i32 noundef 394)
          to label %invoke.cont8 unwind label %lpad4

invoke.cont8:                                     ; preds = %invoke.cont6
  %call11 = invoke noalias noundef nonnull ptr @_Znwm(i64 noundef 8) #15
          to label %invoke.cont10 unwind label %lpad4

invoke.cont10:                                    ; preds = %invoke.cont8
  invoke void @_ZN7testing8internal15TestFactoryImplIN12_GLOBAL__N_128FromChars_FloatRounding_TestEEC2Ev(ptr noundef nonnull align 8 dereferenceable(8) %call11)
          to label %invoke.cont13 unwind label %lpad12

invoke.cont13:                                    ; preds = %invoke.cont10
  %call15 = invoke noundef ptr @_ZN7testing8internal23MakeAndRegisterTestInfoEPKcS2_S2_S2_NS0_12CodeLocationEPKvPFvvES7_PNS0_15TestFactoryBaseE(ptr noundef @.str, ptr noundef @.str.9, ptr noundef null, ptr noundef null, ptr noundef %agg.tmp, ptr noundef %call, ptr noundef %call7, ptr noundef %call9, ptr noundef %call11)
          to label %invoke.cont14 unwind label %lpad4

invoke.cont14:                                    ; preds = %invoke.cont13
  call void @_ZN7testing8internal12CodeLocationD2Ev(ptr noundef nonnull align 8 dereferenceable(36) %agg.tmp) #3
  call void @_ZNSt7__cxx1112basic_stringIcSt11char_traitsIcESaIcEED1Ev(ptr noundef nonnull align 8 dereferenceable(32) %ref.tmp) #3
  call void @_ZNSaIcED1Ev(ptr noundef nonnull align 1 dereferenceable(1) %ref.tmp1) #3
  store ptr %call15, ptr @_ZN12_GLOBAL__N_128FromChars_FloatRounding_Test10test_info_E, align 8
  ret void

lpad:                                             ; preds = %entry
  %0 = landingpad { ptr, i32 }
          cleanup
  %1 = extractvalue { ptr, i32 } %0, 0
  store ptr %1, ptr %exn.slot, align 8
  %2 = extractvalue { ptr, i32 } %0, 1
  store i32 %2, ptr %ehselector.slot, align 4
  br label %ehcleanup17

lpad2:                                            ; preds = %invoke.cont
  %3 = landingpad { ptr, i32 }
          cleanup
  %4 = extractvalue { ptr, i32 } %3, 0
  store ptr %4, ptr %exn.slot, align 8
  %5 = extractvalue { ptr, i32 } %3, 1
  store i32 %5, ptr %ehselector.slot, align 4
  br label %ehcleanup16

lpad4:                                            ; preds = %invoke.cont13, %invoke.cont8, %invoke.cont6, %invoke.cont5, %invoke.cont3
  %6 = landingpad { ptr, i32 }
          cleanup
  %7 = extractvalue { ptr, i32 } %6, 0
  store ptr %7, ptr %exn.slot, align 8
  %8 = extractvalue { ptr, i32 } %6, 1
  store i32 %8, ptr %ehselector.slot, align 4
  br label %ehcleanup

lpad12:                                           ; preds = %invoke.cont10
  %9 = landingpad { ptr, i32 }
          cleanup
  %10 = extractvalue { ptr, i32 } %9, 0
  store ptr %10, ptr %exn.slot, align 8
  %11 = extractvalue { ptr, i32 } %9, 1
  store i32 %11, ptr %ehselector.slot, align 4
  call void @_ZdlPv(ptr noundef %call11) #16
  br label %ehcleanup

ehcleanup:                                        ; preds = %lpad12, %lpad4
  call void @_ZN7testing8internal12CodeLocationD2Ev(ptr noundef nonnull align 8 dereferenceable(36) %agg.tmp) #3
  br label %ehcleanup16

ehcleanup16:                                      ; preds = %ehcleanup, %lpad2
  call void @_ZNSt7__cxx1112basic_stringIcSt11char_traitsIcESaIcEED1Ev(ptr noundef nonnull align 8 dereferenceable(32) %ref.tmp) #3
  br label %ehcleanup17

ehcleanup17:                                      ; preds = %ehcleanup16, %lpad
  call void @_ZNSaIcED1Ev(ptr noundef nonnull align 1 dereferenceable(1) %ref.tmp1) #3
  br label %eh.resume

eh.resume:                                        ; preds = %ehcleanup17
  %exn = load ptr, ptr %exn.slot, align 8
  %sel = load i32, ptr %ehselector.slot, align 4
  %lpad.val = insertvalue { ptr, i32 } poison, ptr %exn, 0
  %lpad.val18 = insertvalue { ptr, i32 } %lpad.val, i32 %sel, 1
  resume { ptr, i32 } %lpad.val18
}

; Function Attrs: mustprogress nounwind uwtable
define internal void @_ZN7testing8internal15TestFactoryImplIN12_GLOBAL__N_128FromChars_FloatRounding_TestEEC2Ev(ptr noundef nonnull align 8 dereferenceable(8) %this) unnamed_addr #7 align 2 {
entry:
  %this.addr = alloca ptr, align 8
  store ptr %this, ptr %this.addr, align 8
  %this1 = load ptr, ptr %this.addr, align 8
  call void @_ZN7testing8internal15TestFactoryBaseC2Ev(ptr noundef nonnull align 8 dereferenceable(8) %this1)
  store ptr getelementptr inbounds ({ [5 x ptr] }, ptr @_ZTVN7testing8internal15TestFactoryImplIN12_GLOBAL__N_128FromChars_FloatRounding_TestEEE, i32 0, inrange i32 0, i32 2), ptr %this1, align 8
  ret void
}

; Function Attrs: uwtable
define internal void @__cxx_global_var_init.10() #0 section ".text.startup" personality ptr @__gxx_personality_v0 {
entry:
  %agg.tmp = alloca %"struct.testing::internal::CodeLocation", align 8
  %ref.tmp = alloca %"class.std::__cxx11::basic_string", align 8
  %ref.tmp1 = alloca %"class.std::allocator", align 1
  %exn.slot = alloca ptr, align 8
  %ehselector.slot = alloca i32, align 4
  call void @_ZNSaIcEC1Ev(ptr noundef nonnull align 1 dereferenceable(1) %ref.tmp1) #3
  invoke void @_ZNSt7__cxx1112basic_stringIcSt11char_traitsIcESaIcEEC2IS3_EEPKcRKS3_(ptr noundef nonnull align 8 dereferenceable(32) %ref.tmp, ptr noundef @.str.3, ptr noundef nonnull align 1 dereferenceable(1) %ref.tmp1)
          to label %invoke.cont unwind label %lpad

invoke.cont:                                      ; preds = %entry
  invoke void @_ZN7testing8internal12CodeLocationC2ERKNSt7__cxx1112basic_stringIcSt11char_traitsIcESaIcEEEi(ptr noundef nonnull align 8 dereferenceable(36) %agg.tmp, ptr noundef nonnull align 8 dereferenceable(32) %ref.tmp, i32 noundef 439)
          to label %invoke.cont3 unwind label %lpad2

invoke.cont3:                                     ; preds = %invoke.cont
  %call = invoke noundef ptr @_ZN7testing8internal13GetTestTypeIdEv()
          to label %invoke.cont5 unwind label %lpad4

invoke.cont5:                                     ; preds = %invoke.cont3
  %call7 = invoke noundef ptr @_ZN7testing8internal16SuiteApiResolverINS_4TestEE19GetSetUpCaseOrSuiteEPKci(ptr noundef @.str.3, i32 noundef 439)
          to label %invoke.cont6 unwind label %lpad4

invoke.cont6:                                     ; preds = %invoke.cont5
  %call9 = invoke noundef ptr @_ZN7testing8internal16SuiteApiResolverINS_4TestEE22GetTearDownCaseOrSuiteEPKci(ptr noundef @.str.3, i32 noundef 439)
          to label %invoke.cont8 unwind label %lpad4

invoke.cont8:                                     ; preds = %invoke.cont6
  %call11 = invoke noalias noundef nonnull ptr @_Znwm(i64 noundef 8) #15
          to label %invoke.cont10 unwind label %lpad4

invoke.cont10:                                    ; preds = %invoke.cont8
  invoke void @_ZN7testing8internal15TestFactoryImplIN12_GLOBAL__N_124FromChars_Underflow_TestEEC2Ev(ptr noundef nonnull align 8 dereferenceable(8) %call11)
          to label %invoke.cont13 unwind label %lpad12

invoke.cont13:                                    ; preds = %invoke.cont10
  %call15 = invoke noundef ptr @_ZN7testing8internal23MakeAndRegisterTestInfoEPKcS2_S2_S2_NS0_12CodeLocationEPKvPFvvES7_PNS0_15TestFactoryBaseE(ptr noundef @.str, ptr noundef @.str.11, ptr noundef null, ptr noundef null, ptr noundef %agg.tmp, ptr noundef %call, ptr noundef %call7, ptr noundef %call9, ptr noundef %call11)
          to label %invoke.cont14 unwind label %lpad4

invoke.cont14:                                    ; preds = %invoke.cont13
  call void @_ZN7testing8internal12CodeLocationD2Ev(ptr noundef nonnull align 8 dereferenceable(36) %agg.tmp) #3
  call void @_ZNSt7__cxx1112basic_stringIcSt11char_traitsIcESaIcEED1Ev(ptr noundef nonnull align 8 dereferenceable(32) %ref.tmp) #3
  call void @_ZNSaIcED1Ev(ptr noundef nonnull align 1 dereferenceable(1) %ref.tmp1) #3
  store ptr %call15, ptr @_ZN12_GLOBAL__N_124FromChars_Underflow_Test10test_info_E, align 8
  ret void

lpad:                                             ; preds = %entry
  %0 = landingpad { ptr, i32 }
          cleanup
  %1 = extractvalue { ptr, i32 } %0, 0
  store ptr %1, ptr %exn.slot, align 8
  %2 = extractvalue { ptr, i32 } %0, 1
  store i32 %2, ptr %ehselector.slot, align 4
  br label %ehcleanup17

lpad2:                                            ; preds = %invoke.cont
  %3 = landingpad { ptr, i32 }
          cleanup
  %4 = extractvalue { ptr, i32 } %3, 0
  store ptr %4, ptr %exn.slot, align 8
  %5 = extractvalue { ptr, i32 } %3, 1
  store i32 %5, ptr %ehselector.slot, align 4
  br label %ehcleanup16

lpad4:                                            ; preds = %invoke.cont13, %invoke.cont8, %invoke.cont6, %invoke.cont5, %invoke.cont3
  %6 = landingpad { ptr, i32 }
          cleanup
  %7 = extractvalue { ptr, i32 } %6, 0
  store ptr %7, ptr %exn.slot, align 8
  %8 = extractvalue { ptr, i32 } %6, 1
  store i32 %8, ptr %ehselector.slot, align 4
  br label %ehcleanup

lpad12:                                           ; preds = %invoke.cont10
  %9 = landingpad { ptr, i32 }
          cleanup
  %10 = extractvalue { ptr, i32 } %9, 0
  store ptr %10, ptr %exn.slot, align 8
  %11 = extractvalue { ptr, i32 } %9, 1
  store i32 %11, ptr %ehselector.slot, align 4
  call void @_ZdlPv(ptr noundef %call11) #16
  br label %ehcleanup

ehcleanup:                                        ; preds = %lpad12, %lpad4
  call void @_ZN7testing8internal12CodeLocationD2Ev(ptr noundef nonnull align 8 dereferenceable(36) %agg.tmp) #3
  br label %ehcleanup16

ehcleanup16:                                      ; preds = %ehcleanup, %lpad2
  call void @_ZNSt7__cxx1112basic_stringIcSt11char_traitsIcESaIcEED1Ev(ptr noundef nonnull align 8 dereferenceable(32) %ref.tmp) #3
  br label %ehcleanup17

ehcleanup17:                                      ; preds = %ehcleanup16, %lpad
  call void @_ZNSaIcED1Ev(ptr noundef nonnull align 1 dereferenceable(1) %ref.tmp1) #3
  br label %eh.resume

eh.resume:                                        ; preds = %ehcleanup17
  %exn = load ptr, ptr %exn.slot, align 8
  %sel = load i32, ptr %ehselector.slot, align 4
  %lpad.val = insertvalue { ptr, i32 } poison, ptr %exn, 0
  %lpad.val18 = insertvalue { ptr, i32 } %lpad.val, i32 %sel, 1
  resume { ptr, i32 } %lpad.val18
}

; Function Attrs: mustprogress nounwind uwtable
define internal void @_ZN7testing8internal15TestFactoryImplIN12_GLOBAL__N_124FromChars_Underflow_TestEEC2Ev(ptr noundef nonnull align 8 dereferenceable(8) %this) unnamed_addr #7 align 2 {
entry:
  %this.addr = alloca ptr, align 8
  store ptr %this, ptr %this.addr, align 8
  %this1 = load ptr, ptr %this.addr, align 8
  call void @_ZN7testing8internal15TestFactoryBaseC2Ev(ptr noundef nonnull align 8 dereferenceable(8) %this1)
  store ptr getelementptr inbounds ({ [5 x ptr] }, ptr @_ZTVN7testing8internal15TestFactoryImplIN12_GLOBAL__N_124FromChars_Underflow_TestEEE, i32 0, inrange i32 0, i32 2), ptr %this1, align 8
  ret void
}

; Function Attrs: uwtable
define internal void @__cxx_global_var_init.12() #0 section ".text.startup" personality ptr @__gxx_personality_v0 {
entry:
  %agg.tmp = alloca %"struct.testing::internal::CodeLocation", align 8
  %ref.tmp = alloca %"class.std::__cxx11::basic_string", align 8
  %ref.tmp1 = alloca %"class.std::allocator", align 1
  %exn.slot = alloca ptr, align 8
  %ehselector.slot = alloca i32, align 4
  call void @_ZNSaIcEC1Ev(ptr noundef nonnull align 1 dereferenceable(1) %ref.tmp1) #3
  invoke void @_ZNSt7__cxx1112basic_stringIcSt11char_traitsIcESaIcEEC2IS3_EEPKcRKS3_(ptr noundef nonnull align 8 dereferenceable(32) %ref.tmp, ptr noundef @.str.3, ptr noundef nonnull align 1 dereferenceable(1) %ref.tmp1)
          to label %invoke.cont unwind label %lpad

invoke.cont:                                      ; preds = %entry
  invoke void @_ZN7testing8internal12CodeLocationC2ERKNSt7__cxx1112basic_stringIcSt11char_traitsIcESaIcEEEi(ptr noundef nonnull align 8 dereferenceable(36) %agg.tmp, ptr noundef nonnull align 8 dereferenceable(32) %ref.tmp, i32 noundef 479)
          to label %invoke.cont3 unwind label %lpad2

invoke.cont3:                                     ; preds = %invoke.cont
  %call = invoke noundef ptr @_ZN7testing8internal13GetTestTypeIdEv()
          to label %invoke.cont5 unwind label %lpad4

invoke.cont5:                                     ; preds = %invoke.cont3
  %call7 = invoke noundef ptr @_ZN7testing8internal16SuiteApiResolverINS_4TestEE19GetSetUpCaseOrSuiteEPKci(ptr noundef @.str.3, i32 noundef 479)
          to label %invoke.cont6 unwind label %lpad4

invoke.cont6:                                     ; preds = %invoke.cont5
  %call9 = invoke noundef ptr @_ZN7testing8internal16SuiteApiResolverINS_4TestEE22GetTearDownCaseOrSuiteEPKci(ptr noundef @.str.3, i32 noundef 479)
          to label %invoke.cont8 unwind label %lpad4

invoke.cont8:                                     ; preds = %invoke.cont6
  %call11 = invoke noalias noundef nonnull ptr @_Znwm(i64 noundef 8) #15
          to label %invoke.cont10 unwind label %lpad4

invoke.cont10:                                    ; preds = %invoke.cont8
  invoke void @_ZN7testing8internal15TestFactoryImplIN12_GLOBAL__N_123FromChars_Overflow_TestEEC2Ev(ptr noundef nonnull align 8 dereferenceable(8) %call11)
          to label %invoke.cont13 unwind label %lpad12

invoke.cont13:                                    ; preds = %invoke.cont10
  %call15 = invoke noundef ptr @_ZN7testing8internal23MakeAndRegisterTestInfoEPKcS2_S2_S2_NS0_12CodeLocationEPKvPFvvES7_PNS0_15TestFactoryBaseE(ptr noundef @.str, ptr noundef @.str.13, ptr noundef null, ptr noundef null, ptr noundef %agg.tmp, ptr noundef %call, ptr noundef %call7, ptr noundef %call9, ptr noundef %call11)
          to label %invoke.cont14 unwind label %lpad4

invoke.cont14:                                    ; preds = %invoke.cont13
  call void @_ZN7testing8internal12CodeLocationD2Ev(ptr noundef nonnull align 8 dereferenceable(36) %agg.tmp) #3
  call void @_ZNSt7__cxx1112basic_stringIcSt11char_traitsIcESaIcEED1Ev(ptr noundef nonnull align 8 dereferenceable(32) %ref.tmp) #3
  call void @_ZNSaIcED1Ev(ptr noundef nonnull align 1 dereferenceable(1) %ref.tmp1) #3
  store ptr %call15, ptr @_ZN12_GLOBAL__N_123FromChars_Overflow_Test10test_info_E, align 8
  ret void

lpad:                                             ; preds = %entry
  %0 = landingpad { ptr, i32 }
          cleanup
  %1 = extractvalue { ptr, i32 } %0, 0
  store ptr %1, ptr %exn.slot, align 8
  %2 = extractvalue { ptr, i32 } %0, 1
  store i32 %2, ptr %ehselector.slot, align 4
  br label %ehcleanup17

lpad2:                                            ; preds = %invoke.cont
  %3 = landingpad { ptr, i32 }
          cleanup
  %4 = extractvalue { ptr, i32 } %3, 0
  store ptr %4, ptr %exn.slot, align 8
  %5 = extractvalue { ptr, i32 } %3, 1
  store i32 %5, ptr %ehselector.slot, align 4
  br label %ehcleanup16

lpad4:                                            ; preds = %invoke.cont13, %invoke.cont8, %invoke.cont6, %invoke.cont5, %invoke.cont3
  %6 = landingpad { ptr, i32 }
          cleanup
  %7 = extractvalue { ptr, i32 } %6, 0
  store ptr %7, ptr %exn.slot, align 8
  %8 = extractvalue { ptr, i32 } %6, 1
  store i32 %8, ptr %ehselector.slot, align 4
  br label %ehcleanup

lpad12:                                           ; preds = %invoke.cont10
  %9 = landingpad { ptr, i32 }
          cleanup
  %10 = extractvalue { ptr, i32 } %9, 0
  store ptr %10, ptr %exn.slot, align 8
  %11 = extractvalue { ptr, i32 } %9, 1
  store i32 %11, ptr %ehselector.slot, align 4
  call void @_ZdlPv(ptr noundef %call11) #16
  br label %ehcleanup

ehcleanup:                                        ; preds = %lpad12, %lpad4
  call void @_ZN7testing8internal12CodeLocationD2Ev(ptr noundef nonnull align 8 dereferenceable(36) %agg.tmp) #3
  br label %ehcleanup16

ehcleanup16:                                      ; preds = %ehcleanup, %lpad2
  call void @_ZNSt7__cxx1112basic_stringIcSt11char_traitsIcESaIcEED1Ev(ptr noundef nonnull align 8 dereferenceable(32) %ref.tmp) #3
  br label %ehcleanup17

ehcleanup17:                                      ; preds = %ehcleanup16, %lpad
  call void @_ZNSaIcED1Ev(ptr noundef nonnull align 1 dereferenceable(1) %ref.tmp1) #3
  br label %eh.resume

eh.resume:                                        ; preds = %ehcleanup17
  %exn = load ptr, ptr %exn.slot, align 8
  %sel = load i32, ptr %ehselector.slot, align 4
  %lpad.val = insertvalue { ptr, i32 } poison, ptr %exn, 0
  %lpad.val18 = insertvalue { ptr, i32 } %lpad.val, i32 %sel, 1
  resume { ptr, i32 } %lpad.val18
}

; Function Attrs: mustprogress nounwind uwtable
define internal void @_ZN7testing8internal15TestFactoryImplIN12_GLOBAL__N_123FromChars_Overflow_TestEEC2Ev(ptr noundef nonnull align 8 dereferenceable(8) %this) unnamed_addr #7 align 2 {
entry:
  %this.addr = alloca ptr, align 8
  store ptr %this, ptr %this.addr, align 8
  %this1 = load ptr, ptr %this.addr, align 8
  call void @_ZN7testing8internal15TestFactoryBaseC2Ev(ptr noundef nonnull align 8 dereferenceable(8) %this1)
  store ptr getelementptr inbounds ({ [5 x ptr] }, ptr @_ZTVN7testing8internal15TestFactoryImplIN12_GLOBAL__N_123FromChars_Overflow_TestEEE, i32 0, inrange i32 0, i32 2), ptr %this1, align 8
  ret void
}

; Function Attrs: uwtable
define internal void @__cxx_global_var_init.14() #0 section ".text.startup" personality ptr @__gxx_personality_v0 {
entry:
  %agg.tmp = alloca %"struct.testing::internal::CodeLocation", align 8
  %ref.tmp = alloca %"class.std::__cxx11::basic_string", align 8
  %ref.tmp1 = alloca %"class.std::allocator", align 1
  %exn.slot = alloca ptr, align 8
  %ehselector.slot = alloca i32, align 4
  call void @_ZNSaIcEC1Ev(ptr noundef nonnull align 1 dereferenceable(1) %ref.tmp1) #3
  invoke void @_ZNSt7__cxx1112basic_stringIcSt11char_traitsIcESaIcEEC2IS3_EEPKcRKS3_(ptr noundef nonnull align 8 dereferenceable(32) %ref.tmp, ptr noundef @.str.3, ptr noundef nonnull align 1 dereferenceable(1) %ref.tmp1)
          to label %invoke.cont unwind label %lpad

invoke.cont:                                      ; preds = %entry
  invoke void @_ZN7testing8internal12CodeLocationC2ERKNSt7__cxx1112basic_stringIcSt11char_traitsIcESaIcEEEi(ptr noundef nonnull align 8 dereferenceable(36) %agg.tmp, ptr noundef nonnull align 8 dereferenceable(32) %ref.tmp, i32 noundef 519)
          to label %invoke.cont3 unwind label %lpad2

invoke.cont3:                                     ; preds = %invoke.cont
  %call = invoke noundef ptr @_ZN7testing8internal13GetTestTypeIdEv()
          to label %invoke.cont5 unwind label %lpad4

invoke.cont5:                                     ; preds = %invoke.cont3
  %call7 = invoke noundef ptr @_ZN7testing8internal16SuiteApiResolverINS_4TestEE19GetSetUpCaseOrSuiteEPKci(ptr noundef @.str.3, i32 noundef 519)
          to label %invoke.cont6 unwind label %lpad4

invoke.cont6:                                     ; preds = %invoke.cont5
  %call9 = invoke noundef ptr @_ZN7testing8internal16SuiteApiResolverINS_4TestEE22GetTearDownCaseOrSuiteEPKci(ptr noundef @.str.3, i32 noundef 519)
          to label %invoke.cont8 unwind label %lpad4

invoke.cont8:                                     ; preds = %invoke.cont6
  %call11 = invoke noalias noundef nonnull ptr @_Znwm(i64 noundef 8) #15
          to label %invoke.cont10 unwind label %lpad4

invoke.cont10:                                    ; preds = %invoke.cont8
  invoke void @_ZN7testing8internal15TestFactoryImplIN12_GLOBAL__N_140FromChars_RegressionTestsFromFuzzer_TestEEC2Ev(ptr noundef nonnull align 8 dereferenceable(8) %call11)
          to label %invoke.cont13 unwind label %lpad12

invoke.cont13:                                    ; preds = %invoke.cont10
  %call15 = invoke noundef ptr @_ZN7testing8internal23MakeAndRegisterTestInfoEPKcS2_S2_S2_NS0_12CodeLocationEPKvPFvvES7_PNS0_15TestFactoryBaseE(ptr noundef @.str, ptr noundef @.str.15, ptr noundef null, ptr noundef null, ptr noundef %agg.tmp, ptr noundef %call, ptr noundef %call7, ptr noundef %call9, ptr noundef %call11)
          to label %invoke.cont14 unwind label %lpad4

invoke.cont14:                                    ; preds = %invoke.cont13
  call void @_ZN7testing8internal12CodeLocationD2Ev(ptr noundef nonnull align 8 dereferenceable(36) %agg.tmp) #3
  call void @_ZNSt7__cxx1112basic_stringIcSt11char_traitsIcESaIcEED1Ev(ptr noundef nonnull align 8 dereferenceable(32) %ref.tmp) #3
  call void @_ZNSaIcED1Ev(ptr noundef nonnull align 1 dereferenceable(1) %ref.tmp1) #3
  store ptr %call15, ptr @_ZN12_GLOBAL__N_140FromChars_RegressionTestsFromFuzzer_Test10test_info_E, align 8
  ret void

lpad:                                             ; preds = %entry
  %0 = landingpad { ptr, i32 }
          cleanup
  %1 = extractvalue { ptr, i32 } %0, 0
  store ptr %1, ptr %exn.slot, align 8
  %2 = extractvalue { ptr, i32 } %0, 1
  store i32 %2, ptr %ehselector.slot, align 4
  br label %ehcleanup17

lpad2:                                            ; preds = %invoke.cont
  %3 = landingpad { ptr, i32 }
          cleanup
  %4 = extractvalue { ptr, i32 } %3, 0
  store ptr %4, ptr %exn.slot, align 8
  %5 = extractvalue { ptr, i32 } %3, 1
  store i32 %5, ptr %ehselector.slot, align 4
  br label %ehcleanup16

lpad4:                                            ; preds = %invoke.cont13, %invoke.cont8, %invoke.cont6, %invoke.cont5, %invoke.cont3
  %6 = landingpad { ptr, i32 }
          cleanup
  %7 = extractvalue { ptr, i32 } %6, 0
  store ptr %7, ptr %exn.slot, align 8
  %8 = extractvalue { ptr, i32 } %6, 1
  store i32 %8, ptr %ehselector.slot, align 4
  br label %ehcleanup

lpad12:                                           ; preds = %invoke.cont10
  %9 = landingpad { ptr, i32 }
          cleanup
  %10 = extractvalue { ptr, i32 } %9, 0
  store ptr %10, ptr %exn.slot, align 8
  %11 = extractvalue { ptr, i32 } %9, 1
  store i32 %11, ptr %ehselector.slot, align 4
  call void @_ZdlPv(ptr noundef %call11) #16
  br label %ehcleanup

ehcleanup:                                        ; preds = %lpad12, %lpad4
  call void @_ZN7testing8internal12CodeLocationD2Ev(ptr noundef nonnull align 8 dereferenceable(36) %agg.tmp) #3
  br label %ehcleanup16

ehcleanup16:                                      ; preds = %ehcleanup, %lpad2
  call void @_ZNSt7__cxx1112basic_stringIcSt11char_traitsIcESaIcEED1Ev(ptr noundef nonnull align 8 dereferenceable(32) %ref.tmp) #3
  br label %ehcleanup17

ehcleanup17:                                      ; preds = %ehcleanup16, %lpad
  call void @_ZNSaIcED1Ev(ptr noundef nonnull align 1 dereferenceable(1) %ref.tmp1) #3
  br label %eh.resume

eh.resume:                                        ; preds = %ehcleanup17
  %exn = load ptr, ptr %exn.slot, align 8
  %sel = load i32, ptr %ehselector.slot, align 4
  %lpad.val = insertvalue { ptr, i32 } poison, ptr %exn, 0
  %lpad.val18 = insertvalue { ptr, i32 } %lpad.val, i32 %sel, 1
  resume { ptr, i32 } %lpad.val18
}

; Function Attrs: mustprogress nounwind uwtable
define internal void @_ZN7testing8internal15TestFactoryImplIN12_GLOBAL__N_140FromChars_RegressionTestsFromFuzzer_TestEEC2Ev(ptr noundef nonnull align 8 dereferenceable(8) %this) unnamed_addr #7 align 2 {
entry:
  %this.addr = alloca ptr, align 8
  store ptr %this, ptr %this.addr, align 8
  %this1 = load ptr, ptr %this.addr, align 8
  call void @_ZN7testing8internal15TestFactoryBaseC2Ev(ptr noundef nonnull align 8 dereferenceable(8) %this1)
  store ptr getelementptr inbounds ({ [5 x ptr] }, ptr @_ZTVN7testing8internal15TestFactoryImplIN12_GLOBAL__N_140FromChars_RegressionTestsFromFuzzer_TestEEE, i32 0, inrange i32 0, i32 2), ptr %this1, align 8
  ret void
}

; Function Attrs: uwtable
define internal void @__cxx_global_var_init.16() #0 section ".text.startup" personality ptr @__gxx_personality_v0 {
entry:
  %agg.tmp = alloca %"struct.testing::internal::CodeLocation", align 8
  %ref.tmp = alloca %"class.std::__cxx11::basic_string", align 8
  %ref.tmp1 = alloca %"class.std::allocator", align 1
  %exn.slot = alloca ptr, align 8
  %ehselector.slot = alloca i32, align 4
  call void @_ZNSaIcEC1Ev(ptr noundef nonnull align 1 dereferenceable(1) %ref.tmp1) #3
  invoke void @_ZNSt7__cxx1112basic_stringIcSt11char_traitsIcESaIcEEC2IS3_EEPKcRKS3_(ptr noundef nonnull align 8 dereferenceable(32) %ref.tmp, ptr noundef @.str.3, ptr noundef nonnull align 1 dereferenceable(1) %ref.tmp1)
          to label %invoke.cont unwind label %lpad

invoke.cont:                                      ; preds = %entry
  invoke void @_ZN7testing8internal12CodeLocationC2ERKNSt7__cxx1112basic_stringIcSt11char_traitsIcESaIcEEEi(ptr noundef nonnull align 8 dereferenceable(36) %agg.tmp, ptr noundef nonnull align 8 dereferenceable(32) %ref.tmp, i32 noundef 526)
          to label %invoke.cont3 unwind label %lpad2

invoke.cont3:                                     ; preds = %invoke.cont
  %call = invoke noundef ptr @_ZN7testing8internal13GetTestTypeIdEv()
          to label %invoke.cont5 unwind label %lpad4

invoke.cont5:                                     ; preds = %invoke.cont3
  %call7 = invoke noundef ptr @_ZN7testing8internal16SuiteApiResolverINS_4TestEE19GetSetUpCaseOrSuiteEPKci(ptr noundef @.str.3, i32 noundef 526)
          to label %invoke.cont6 unwind label %lpad4

invoke.cont6:                                     ; preds = %invoke.cont5
  %call9 = invoke noundef ptr @_ZN7testing8internal16SuiteApiResolverINS_4TestEE22GetTearDownCaseOrSuiteEPKci(ptr noundef @.str.3, i32 noundef 526)
          to label %invoke.cont8 unwind label %lpad4

invoke.cont8:                                     ; preds = %invoke.cont6
  %call11 = invoke noalias noundef nonnull ptr @_Znwm(i64 noundef 8) #15
          to label %invoke.cont10 unwind label %lpad4

invoke.cont10:                                    ; preds = %invoke.cont8
  invoke void @_ZN7testing8internal15TestFactoryImplIN12_GLOBAL__N_129FromChars_ReturnValuePtr_TestEEC2Ev(ptr noundef nonnull align 8 dereferenceable(8) %call11)
          to label %invoke.cont13 unwind label %lpad12

invoke.cont13:                                    ; preds = %invoke.cont10
  %call15 = invoke noundef ptr @_ZN7testing8internal23MakeAndRegisterTestInfoEPKcS2_S2_S2_NS0_12CodeLocationEPKvPFvvES7_PNS0_15TestFactoryBaseE(ptr noundef @.str, ptr noundef @.str.17, ptr noundef null, ptr noundef null, ptr noundef %agg.tmp, ptr noundef %call, ptr noundef %call7, ptr noundef %call9, ptr noundef %call11)
          to label %invoke.cont14 unwind label %lpad4

invoke.cont14:                                    ; preds = %invoke.cont13
  call void @_ZN7testing8internal12CodeLocationD2Ev(ptr noundef nonnull align 8 dereferenceable(36) %agg.tmp) #3
  call void @_ZNSt7__cxx1112basic_stringIcSt11char_traitsIcESaIcEED1Ev(ptr noundef nonnull align 8 dereferenceable(32) %ref.tmp) #3
  call void @_ZNSaIcED1Ev(ptr noundef nonnull align 1 dereferenceable(1) %ref.tmp1) #3
  store ptr %call15, ptr @_ZN12_GLOBAL__N_129FromChars_ReturnValuePtr_Test10test_info_E, align 8
  ret void

lpad:                                             ; preds = %entry
  %0 = landingpad { ptr, i32 }
          cleanup
  %1 = extractvalue { ptr, i32 } %0, 0
  store ptr %1, ptr %exn.slot, align 8
  %2 = extractvalue { ptr, i32 } %0, 1
  store i32 %2, ptr %ehselector.slot, align 4
  br label %ehcleanup17

lpad2:                                            ; preds = %invoke.cont
  %3 = landingpad { ptr, i32 }
          cleanup
  %4 = extractvalue { ptr, i32 } %3, 0
  store ptr %4, ptr %exn.slot, align 8
  %5 = extractvalue { ptr, i32 } %3, 1
  store i32 %5, ptr %ehselector.slot, align 4
  br label %ehcleanup16

lpad4:                                            ; preds = %invoke.cont13, %invoke.cont8, %invoke.cont6, %invoke.cont5, %invoke.cont3
  %6 = landingpad { ptr, i32 }
          cleanup
  %7 = extractvalue { ptr, i32 } %6, 0
  store ptr %7, ptr %exn.slot, align 8
  %8 = extractvalue { ptr, i32 } %6, 1
  store i32 %8, ptr %ehselector.slot, align 4
  br label %ehcleanup

lpad12:                                           ; preds = %invoke.cont10
  %9 = landingpad { ptr, i32 }
          cleanup
  %10 = extractvalue { ptr, i32 } %9, 0
  store ptr %10, ptr %exn.slot, align 8
  %11 = extractvalue { ptr, i32 } %9, 1
  store i32 %11, ptr %ehselector.slot, align 4
  call void @_ZdlPv(ptr noundef %call11) #16
  br label %ehcleanup

ehcleanup:                                        ; preds = %lpad12, %lpad4
  call void @_ZN7testing8internal12CodeLocationD2Ev(ptr noundef nonnull align 8 dereferenceable(36) %agg.tmp) #3
  br label %ehcleanup16

ehcleanup16:                                      ; preds = %ehcleanup, %lpad2
  call void @_ZNSt7__cxx1112basic_stringIcSt11char_traitsIcESaIcEED1Ev(ptr noundef nonnull align 8 dereferenceable(32) %ref.tmp) #3
  br label %ehcleanup17

ehcleanup17:                                      ; preds = %ehcleanup16, %lpad
  call void @_ZNSaIcED1Ev(ptr noundef nonnull align 1 dereferenceable(1) %ref.tmp1) #3
  br label %eh.resume

eh.resume:                                        ; preds = %ehcleanup17
  %exn = load ptr, ptr %exn.slot, align 8
  %sel = load i32, ptr %ehselector.slot, align 4
  %lpad.val = insertvalue { ptr, i32 } poison, ptr %exn, 0
  %lpad.val18 = insertvalue { ptr, i32 } %lpad.val, i32 %sel, 1
  resume { ptr, i32 } %lpad.val18
}

; Function Attrs: mustprogress nounwind uwtable
define internal void @_ZN7testing8internal15TestFactoryImplIN12_GLOBAL__N_129FromChars_ReturnValuePtr_TestEEC2Ev(ptr noundef nonnull align 8 dereferenceable(8) %this) unnamed_addr #7 align 2 {
entry:
  %this.addr = alloca ptr, align 8
  store ptr %this, ptr %this.addr, align 8
  %this1 = load ptr, ptr %this.addr, align 8
  call void @_ZN7testing8internal15TestFactoryBaseC2Ev(ptr noundef nonnull align 8 dereferenceable(8) %this1)
  store ptr getelementptr inbounds ({ [5 x ptr] }, ptr @_ZTVN7testing8internal15TestFactoryImplIN12_GLOBAL__N_129FromChars_ReturnValuePtr_TestEEE, i32 0, inrange i32 0, i32 2), ptr %this1, align 8
  ret void
}

; Function Attrs: uwtable
define internal void @__cxx_global_var_init.18() #0 section ".text.startup" personality ptr @__gxx_personality_v0 {
entry:
  %agg.tmp = alloca %"struct.testing::internal::CodeLocation", align 8
  %ref.tmp = alloca %"class.std::__cxx11::basic_string", align 8
  %ref.tmp1 = alloca %"class.std::allocator", align 1
  %exn.slot = alloca ptr, align 8
  %ehselector.slot = alloca i32, align 4
  call void @_ZNSaIcEC1Ev(ptr noundef nonnull align 1 dereferenceable(1) %ref.tmp1) #3
  invoke void @_ZNSt7__cxx1112basic_stringIcSt11char_traitsIcESaIcEEC2IS3_EEPKcRKS3_(ptr noundef nonnull align 8 dereferenceable(32) %ref.tmp, ptr noundef @.str.3, ptr noundef nonnull align 1 dereferenceable(1) %ref.tmp1)
          to label %invoke.cont unwind label %lpad

invoke.cont:                                      ; preds = %entry
  invoke void @_ZN7testing8internal12CodeLocationC2ERKNSt7__cxx1112basic_stringIcSt11char_traitsIcESaIcEEEi(ptr noundef nonnull align 8 dereferenceable(36) %agg.tmp, ptr noundef nonnull align 8 dereferenceable(32) %ref.tmp, i32 noundef 555)
          to label %invoke.cont3 unwind label %lpad2

invoke.cont3:                                     ; preds = %invoke.cont
  %call = invoke noundef ptr @_ZN7testing8internal13GetTestTypeIdEv()
          to label %invoke.cont5 unwind label %lpad4

invoke.cont5:                                     ; preds = %invoke.cont3
  %call7 = invoke noundef ptr @_ZN7testing8internal16SuiteApiResolverINS_4TestEE19GetSetUpCaseOrSuiteEPKci(ptr noundef @.str.3, i32 noundef 555)
          to label %invoke.cont6 unwind label %lpad4

invoke.cont6:                                     ; preds = %invoke.cont5
  %call9 = invoke noundef ptr @_ZN7testing8internal16SuiteApiResolverINS_4TestEE22GetTearDownCaseOrSuiteEPKci(ptr noundef @.str.3, i32 noundef 555)
          to label %invoke.cont8 unwind label %lpad4

invoke.cont8:                                     ; preds = %invoke.cont6
  %call11 = invoke noalias noundef nonnull ptr @_Znwm(i64 noundef 8) #15
          to label %invoke.cont10 unwind label %lpad4

invoke.cont10:                                    ; preds = %invoke.cont8
  invoke void @_ZN7testing8internal15TestFactoryImplIN12_GLOBAL__N_131FromChars_TestVersusStrtod_TestEEC2Ev(ptr noundef nonnull align 8 dereferenceable(8) %call11)
          to label %invoke.cont13 unwind label %lpad12

invoke.cont13:                                    ; preds = %invoke.cont10
  %call15 = invoke noundef ptr @_ZN7testing8internal23MakeAndRegisterTestInfoEPKcS2_S2_S2_NS0_12CodeLocationEPKvPFvvES7_PNS0_15TestFactoryBaseE(ptr noundef @.str, ptr noundef @.str.19, ptr noundef null, ptr noundef null, ptr noundef %agg.tmp, ptr noundef %call, ptr noundef %call7, ptr noundef %call9, ptr noundef %call11)
          to label %invoke.cont14 unwind label %lpad4

invoke.cont14:                                    ; preds = %invoke.cont13
  call void @_ZN7testing8internal12CodeLocationD2Ev(ptr noundef nonnull align 8 dereferenceable(36) %agg.tmp) #3
  call void @_ZNSt7__cxx1112basic_stringIcSt11char_traitsIcESaIcEED1Ev(ptr noundef nonnull align 8 dereferenceable(32) %ref.tmp) #3
  call void @_ZNSaIcED1Ev(ptr noundef nonnull align 1 dereferenceable(1) %ref.tmp1) #3
  store ptr %call15, ptr @_ZN12_GLOBAL__N_131FromChars_TestVersusStrtod_Test10test_info_E, align 8
  ret void

lpad:                                             ; preds = %entry
  %0 = landingpad { ptr, i32 }
          cleanup
  %1 = extractvalue { ptr, i32 } %0, 0
  store ptr %1, ptr %exn.slot, align 8
  %2 = extractvalue { ptr, i32 } %0, 1
  store i32 %2, ptr %ehselector.slot, align 4
  br label %ehcleanup17

lpad2:                                            ; preds = %invoke.cont
  %3 = landingpad { ptr, i32 }
          cleanup
  %4 = extractvalue { ptr, i32 } %3, 0
  store ptr %4, ptr %exn.slot, align 8
  %5 = extractvalue { ptr, i32 } %3, 1
  store i32 %5, ptr %ehselector.slot, align 4
  br label %ehcleanup16

lpad4:                                            ; preds = %invoke.cont13, %invoke.cont8, %invoke.cont6, %invoke.cont5, %invoke.cont3
  %6 = landingpad { ptr, i32 }
          cleanup
  %7 = extractvalue { ptr, i32 } %6, 0
  store ptr %7, ptr %exn.slot, align 8
  %8 = extractvalue { ptr, i32 } %6, 1
  store i32 %8, ptr %ehselector.slot, align 4
  br label %ehcleanup

lpad12:                                           ; preds = %invoke.cont10
  %9 = landingpad { ptr, i32 }
          cleanup
  %10 = extractvalue { ptr, i32 } %9, 0
  store ptr %10, ptr %exn.slot, align 8
  %11 = extractvalue { ptr, i32 } %9, 1
  store i32 %11, ptr %ehselector.slot, align 4
  call void @_ZdlPv(ptr noundef %call11) #16
  br label %ehcleanup

ehcleanup:                                        ; preds = %lpad12, %lpad4
  call void @_ZN7testing8internal12CodeLocationD2Ev(ptr noundef nonnull align 8 dereferenceable(36) %agg.tmp) #3
  br label %ehcleanup16

ehcleanup16:                                      ; preds = %ehcleanup, %lpad2
  call void @_ZNSt7__cxx1112basic_stringIcSt11char_traitsIcESaIcEED1Ev(ptr noundef nonnull align 8 dereferenceable(32) %ref.tmp) #3
  br label %ehcleanup17

ehcleanup17:                                      ; preds = %ehcleanup16, %lpad
  call void @_ZNSaIcED1Ev(ptr noundef nonnull align 1 dereferenceable(1) %ref.tmp1) #3
  br label %eh.resume

eh.resume:                                        ; preds = %ehcleanup17
  %exn = load ptr, ptr %exn.slot, align 8
  %sel = load i32, ptr %ehselector.slot, align 4
  %lpad.val = insertvalue { ptr, i32 } poison, ptr %exn, 0
  %lpad.val18 = insertvalue { ptr, i32 } %lpad.val, i32 %sel, 1
  resume { ptr, i32 } %lpad.val18
}

; Function Attrs: mustprogress nounwind uwtable
define internal void @_ZN7testing8internal15TestFactoryImplIN12_GLOBAL__N_131FromChars_TestVersusStrtod_TestEEC2Ev(ptr noundef nonnull align 8 dereferenceable(8) %this) unnamed_addr #7 align 2 {
entry:
  %this.addr = alloca ptr, align 8
  store ptr %this, ptr %this.addr, align 8
  %this1 = load ptr, ptr %this.addr, align 8
  call void @_ZN7testing8internal15TestFactoryBaseC2Ev(ptr noundef nonnull align 8 dereferenceable(8) %this1)
  store ptr getelementptr inbounds ({ [5 x ptr] }, ptr @_ZTVN7testing8internal15TestFactoryImplIN12_GLOBAL__N_131FromChars_TestVersusStrtod_TestEEE, i32 0, inrange i32 0, i32 2), ptr %this1, align 8
  ret void
}

; Function Attrs: uwtable
define internal void @__cxx_global_var_init.20() #0 section ".text.startup" personality ptr @__gxx_personality_v0 {
entry:
  %agg.tmp = alloca %"struct.testing::internal::CodeLocation", align 8
  %ref.tmp = alloca %"class.std::__cxx11::basic_string", align 8
  %ref.tmp1 = alloca %"class.std::allocator", align 1
  %exn.slot = alloca ptr, align 8
  %ehselector.slot = alloca i32, align 4
  call void @_ZNSaIcEC1Ev(ptr noundef nonnull align 1 dereferenceable(1) %ref.tmp1) #3
  invoke void @_ZNSt7__cxx1112basic_stringIcSt11char_traitsIcESaIcEEC2IS3_EEPKcRKS3_(ptr noundef nonnull align 8 dereferenceable(32) %ref.tmp, ptr noundef @.str.3, ptr noundef nonnull align 1 dereferenceable(1) %ref.tmp1)
          to label %invoke.cont unwind label %lpad

invoke.cont:                                      ; preds = %entry
  invoke void @_ZN7testing8internal12CodeLocationC2ERKNSt7__cxx1112basic_stringIcSt11char_traitsIcESaIcEEEi(ptr noundef nonnull align 8 dereferenceable(36) %agg.tmp, ptr noundef nonnull align 8 dereferenceable(32) %ref.tmp, i32 noundef 573)
          to label %invoke.cont3 unwind label %lpad2

invoke.cont3:                                     ; preds = %invoke.cont
  %call = invoke noundef ptr @_ZN7testing8internal13GetTestTypeIdEv()
          to label %invoke.cont5 unwind label %lpad4

invoke.cont5:                                     ; preds = %invoke.cont3
  %call7 = invoke noundef ptr @_ZN7testing8internal16SuiteApiResolverINS_4TestEE19GetSetUpCaseOrSuiteEPKci(ptr noundef @.str.3, i32 noundef 573)
          to label %invoke.cont6 unwind label %lpad4

invoke.cont6:                                     ; preds = %invoke.cont5
  %call9 = invoke noundef ptr @_ZN7testing8internal16SuiteApiResolverINS_4TestEE22GetTearDownCaseOrSuiteEPKci(ptr noundef @.str.3, i32 noundef 573)
          to label %invoke.cont8 unwind label %lpad4

invoke.cont8:                                     ; preds = %invoke.cont6
  %call11 = invoke noalias noundef nonnull ptr @_Znwm(i64 noundef 8) #15
          to label %invoke.cont10 unwind label %lpad4

invoke.cont10:                                    ; preds = %invoke.cont8
  invoke void @_ZN7testing8internal15TestFactoryImplIN12_GLOBAL__N_131FromChars_TestVersusStrtof_TestEEC2Ev(ptr noundef nonnull align 8 dereferenceable(8) %call11)
          to label %invoke.cont13 unwind label %lpad12

invoke.cont13:                                    ; preds = %invoke.cont10
  %call15 = invoke noundef ptr @_ZN7testing8internal23MakeAndRegisterTestInfoEPKcS2_S2_S2_NS0_12CodeLocationEPKvPFvvES7_PNS0_15TestFactoryBaseE(ptr noundef @.str, ptr noundef @.str.21, ptr noundef null, ptr noundef null, ptr noundef %agg.tmp, ptr noundef %call, ptr noundef %call7, ptr noundef %call9, ptr noundef %call11)
          to label %invoke.cont14 unwind label %lpad4

invoke.cont14:                                    ; preds = %invoke.cont13
  call void @_ZN7testing8internal12CodeLocationD2Ev(ptr noundef nonnull align 8 dereferenceable(36) %agg.tmp) #3
  call void @_ZNSt7__cxx1112basic_stringIcSt11char_traitsIcESaIcEED1Ev(ptr noundef nonnull align 8 dereferenceable(32) %ref.tmp) #3
  call void @_ZNSaIcED1Ev(ptr noundef nonnull align 1 dereferenceable(1) %ref.tmp1) #3
  store ptr %call15, ptr @_ZN12_GLOBAL__N_131FromChars_TestVersusStrtof_Test10test_info_E, align 8
  ret void

lpad:                                             ; preds = %entry
  %0 = landingpad { ptr, i32 }
          cleanup
  %1 = extractvalue { ptr, i32 } %0, 0
  store ptr %1, ptr %exn.slot, align 8
  %2 = extractvalue { ptr, i32 } %0, 1
  store i32 %2, ptr %ehselector.slot, align 4
  br label %ehcleanup17

lpad2:                                            ; preds = %invoke.cont
  %3 = landingpad { ptr, i32 }
          cleanup
  %4 = extractvalue { ptr, i32 } %3, 0
  store ptr %4, ptr %exn.slot, align 8
  %5 = extractvalue { ptr, i32 } %3, 1
  store i32 %5, ptr %ehselector.slot, align 4
  br label %ehcleanup16

lpad4:                                            ; preds = %invoke.cont13, %invoke.cont8, %invoke.cont6, %invoke.cont5, %invoke.cont3
  %6 = landingpad { ptr, i32 }
          cleanup
  %7 = extractvalue { ptr, i32 } %6, 0
  store ptr %7, ptr %exn.slot, align 8
  %8 = extractvalue { ptr, i32 } %6, 1
  store i32 %8, ptr %ehselector.slot, align 4
  br label %ehcleanup

lpad12:                                           ; preds = %invoke.cont10
  %9 = landingpad { ptr, i32 }
          cleanup
  %10 = extractvalue { ptr, i32 } %9, 0
  store ptr %10, ptr %exn.slot, align 8
  %11 = extractvalue { ptr, i32 } %9, 1
  store i32 %11, ptr %ehselector.slot, align 4
  call void @_ZdlPv(ptr noundef %call11) #16
  br label %ehcleanup

ehcleanup:                                        ; preds = %lpad12, %lpad4
  call void @_ZN7testing8internal12CodeLocationD2Ev(ptr noundef nonnull align 8 dereferenceable(36) %agg.tmp) #3
  br label %ehcleanup16

ehcleanup16:                                      ; preds = %ehcleanup, %lpad2
  call void @_ZNSt7__cxx1112basic_stringIcSt11char_traitsIcESaIcEED1Ev(ptr noundef nonnull align 8 dereferenceable(32) %ref.tmp) #3
  br label %ehcleanup17

ehcleanup17:                                      ; preds = %ehcleanup16, %lpad
  call void @_ZNSaIcED1Ev(ptr noundef nonnull align 1 dereferenceable(1) %ref.tmp1) #3
  br label %eh.resume

eh.resume:                                        ; preds = %ehcleanup17
  %exn = load ptr, ptr %exn.slot, align 8
  %sel = load i32, ptr %ehselector.slot, align 4
  %lpad.val = insertvalue { ptr, i32 } poison, ptr %exn, 0
  %lpad.val18 = insertvalue { ptr, i32 } %lpad.val, i32 %sel, 1
  resume { ptr, i32 } %lpad.val18
}

; Function Attrs: mustprogress nounwind uwtable
define internal void @_ZN7testing8internal15TestFactoryImplIN12_GLOBAL__N_131FromChars_TestVersusStrtof_TestEEC2Ev(ptr noundef nonnull align 8 dereferenceable(8) %this) unnamed_addr #7 align 2 {
entry:
  %this.addr = alloca ptr, align 8
  store ptr %this, ptr %this.addr, align 8
  %this1 = load ptr, ptr %this.addr, align 8
  call void @_ZN7testing8internal15TestFactoryBaseC2Ev(ptr noundef nonnull align 8 dereferenceable(8) %this1)
  store ptr getelementptr inbounds ({ [5 x ptr] }, ptr @_ZTVN7testing8internal15TestFactoryImplIN12_GLOBAL__N_131FromChars_TestVersusStrtof_TestEEE, i32 0, inrange i32 0, i32 2), ptr %this1, align 8
  ret void
}

; Function Attrs: uwtable
define internal void @__cxx_global_var_init.22() #0 section ".text.startup" personality ptr @__gxx_personality_v0 {
entry:
  %agg.tmp = alloca %"struct.testing::internal::CodeLocation", align 8
  %ref.tmp = alloca %"class.std::__cxx11::basic_string", align 8
  %ref.tmp1 = alloca %"class.std::allocator", align 1
  %exn.slot = alloca ptr, align 8
  %ehselector.slot = alloca i32, align 4
  call void @_ZNSaIcEC1Ev(ptr noundef nonnull align 1 dereferenceable(1) %ref.tmp1) #3
  invoke void @_ZNSt7__cxx1112basic_stringIcSt11char_traitsIcESaIcEEC2IS3_EEPKcRKS3_(ptr noundef nonnull align 8 dereferenceable(32) %ref.tmp, ptr noundef @.str.3, ptr noundef nonnull align 1 dereferenceable(1) %ref.tmp1)
          to label %invoke.cont unwind label %lpad

invoke.cont:                                      ; preds = %entry
  invoke void @_ZN7testing8internal12CodeLocationC2ERKNSt7__cxx1112basic_stringIcSt11char_traitsIcESaIcEEEi(ptr noundef nonnull align 8 dereferenceable(36) %agg.tmp, ptr noundef nonnull align 8 dereferenceable(32) %ref.tmp, i32 noundef 600)
          to label %invoke.cont3 unwind label %lpad2

invoke.cont3:                                     ; preds = %invoke.cont
  %call = invoke noundef ptr @_ZN7testing8internal13GetTestTypeIdEv()
          to label %invoke.cont5 unwind label %lpad4

invoke.cont5:                                     ; preds = %invoke.cont3
  %call7 = invoke noundef ptr @_ZN7testing8internal16SuiteApiResolverINS_4TestEE19GetSetUpCaseOrSuiteEPKci(ptr noundef @.str.3, i32 noundef 600)
          to label %invoke.cont6 unwind label %lpad4

invoke.cont6:                                     ; preds = %invoke.cont5
  %call9 = invoke noundef ptr @_ZN7testing8internal16SuiteApiResolverINS_4TestEE22GetTearDownCaseOrSuiteEPKci(ptr noundef @.str.3, i32 noundef 600)
          to label %invoke.cont8 unwind label %lpad4

invoke.cont8:                                     ; preds = %invoke.cont6
  %call11 = invoke noalias noundef nonnull ptr @_Znwm(i64 noundef 8) #15
          to label %invoke.cont10 unwind label %lpad4

invoke.cont10:                                    ; preds = %invoke.cont8
  invoke void @_ZN7testing8internal15TestFactoryImplIN12_GLOBAL__N_125FromChars_NaNDoubles_TestEEC2Ev(ptr noundef nonnull align 8 dereferenceable(8) %call11)
          to label %invoke.cont13 unwind label %lpad12

invoke.cont13:                                    ; preds = %invoke.cont10
  %call15 = invoke noundef ptr @_ZN7testing8internal23MakeAndRegisterTestInfoEPKcS2_S2_S2_NS0_12CodeLocationEPKvPFvvES7_PNS0_15TestFactoryBaseE(ptr noundef @.str, ptr noundef @.str.23, ptr noundef null, ptr noundef null, ptr noundef %agg.tmp, ptr noundef %call, ptr noundef %call7, ptr noundef %call9, ptr noundef %call11)
          to label %invoke.cont14 unwind label %lpad4

invoke.cont14:                                    ; preds = %invoke.cont13
  call void @_ZN7testing8internal12CodeLocationD2Ev(ptr noundef nonnull align 8 dereferenceable(36) %agg.tmp) #3
  call void @_ZNSt7__cxx1112basic_stringIcSt11char_traitsIcESaIcEED1Ev(ptr noundef nonnull align 8 dereferenceable(32) %ref.tmp) #3
  call void @_ZNSaIcED1Ev(ptr noundef nonnull align 1 dereferenceable(1) %ref.tmp1) #3
  store ptr %call15, ptr @_ZN12_GLOBAL__N_125FromChars_NaNDoubles_Test10test_info_E, align 8
  ret void

lpad:                                             ; preds = %entry
  %0 = landingpad { ptr, i32 }
          cleanup
  %1 = extractvalue { ptr, i32 } %0, 0
  store ptr %1, ptr %exn.slot, align 8
  %2 = extractvalue { ptr, i32 } %0, 1
  store i32 %2, ptr %ehselector.slot, align 4
  br label %ehcleanup17

lpad2:                                            ; preds = %invoke.cont
  %3 = landingpad { ptr, i32 }
          cleanup
  %4 = extractvalue { ptr, i32 } %3, 0
  store ptr %4, ptr %exn.slot, align 8
  %5 = extractvalue { ptr, i32 } %3, 1
  store i32 %5, ptr %ehselector.slot, align 4
  br label %ehcleanup16

lpad4:                                            ; preds = %invoke.cont13, %invoke.cont8, %invoke.cont6, %invoke.cont5, %invoke.cont3
  %6 = landingpad { ptr, i32 }
          cleanup
  %7 = extractvalue { ptr, i32 } %6, 0
  store ptr %7, ptr %exn.slot, align 8
  %8 = extractvalue { ptr, i32 } %6, 1
  store i32 %8, ptr %ehselector.slot, align 4
  br label %ehcleanup

lpad12:                                           ; preds = %invoke.cont10
  %9 = landingpad { ptr, i32 }
          cleanup
  %10 = extractvalue { ptr, i32 } %9, 0
  store ptr %10, ptr %exn.slot, align 8
  %11 = extractvalue { ptr, i32 } %9, 1
  store i32 %11, ptr %ehselector.slot, align 4
  call void @_ZdlPv(ptr noundef %call11) #16
  br label %ehcleanup

ehcleanup:                                        ; preds = %lpad12, %lpad4
  call void @_ZN7testing8internal12CodeLocationD2Ev(ptr noundef nonnull align 8 dereferenceable(36) %agg.tmp) #3
  br label %ehcleanup16

ehcleanup16:                                      ; preds = %ehcleanup, %lpad2
  call void @_ZNSt7__cxx1112basic_stringIcSt11char_traitsIcESaIcEED1Ev(ptr noundef nonnull align 8 dereferenceable(32) %ref.tmp) #3
  br label %ehcleanup17

ehcleanup17:                                      ; preds = %ehcleanup16, %lpad
  call void @_ZNSaIcED1Ev(ptr noundef nonnull align 1 dereferenceable(1) %ref.tmp1) #3
  br label %eh.resume

eh.resume:                                        ; preds = %ehcleanup17
  %exn = load ptr, ptr %exn.slot, align 8
  %sel = load i32, ptr %ehselector.slot, align 4
  %lpad.val = insertvalue { ptr, i32 } poison, ptr %exn, 0
  %lpad.val18 = insertvalue { ptr, i32 } %lpad.val, i32 %sel, 1
  resume { ptr, i32 } %lpad.val18
}

; Function Attrs: mustprogress nounwind uwtable
define internal void @_ZN7testing8internal15TestFactoryImplIN12_GLOBAL__N_125FromChars_NaNDoubles_TestEEC2Ev(ptr noundef nonnull align 8 dereferenceable(8) %this) unnamed_addr #7 align 2 {
entry:
  %this.addr = alloca ptr, align 8
  store ptr %this, ptr %this.addr, align 8
  %this1 = load ptr, ptr %this.addr, align 8
  call void @_ZN7testing8internal15TestFactoryBaseC2Ev(ptr noundef nonnull align 8 dereferenceable(8) %this1)
  store ptr getelementptr inbounds ({ [5 x ptr] }, ptr @_ZTVN7testing8internal15TestFactoryImplIN12_GLOBAL__N_125FromChars_NaNDoubles_TestEEE, i32 0, inrange i32 0, i32 2), ptr %this1, align 8
  ret void
}

; Function Attrs: uwtable
define internal void @__cxx_global_var_init.24() #0 section ".text.startup" personality ptr @__gxx_personality_v0 {
entry:
  %agg.tmp = alloca %"struct.testing::internal::CodeLocation", align 8
  %ref.tmp = alloca %"class.std::__cxx11::basic_string", align 8
  %ref.tmp1 = alloca %"class.std::allocator", align 1
  %exn.slot = alloca ptr, align 8
  %ehselector.slot = alloca i32, align 4
  call void @_ZNSaIcEC1Ev(ptr noundef nonnull align 1 dereferenceable(1) %ref.tmp1) #3
  invoke void @_ZNSt7__cxx1112basic_stringIcSt11char_traitsIcESaIcEEC2IS3_EEPKcRKS3_(ptr noundef nonnull align 8 dereferenceable(32) %ref.tmp, ptr noundef @.str.3, ptr noundef nonnull align 1 dereferenceable(1) %ref.tmp1)
          to label %invoke.cont unwind label %lpad

invoke.cont:                                      ; preds = %entry
  invoke void @_ZN7testing8internal12CodeLocationC2ERKNSt7__cxx1112basic_stringIcSt11char_traitsIcESaIcEEEi(ptr noundef nonnull align 8 dereferenceable(36) %agg.tmp, ptr noundef nonnull align 8 dereferenceable(32) %ref.tmp, i32 noundef 633)
          to label %invoke.cont3 unwind label %lpad2

invoke.cont3:                                     ; preds = %invoke.cont
  %call = invoke noundef ptr @_ZN7testing8internal13GetTestTypeIdEv()
          to label %invoke.cont5 unwind label %lpad4

invoke.cont5:                                     ; preds = %invoke.cont3
  %call7 = invoke noundef ptr @_ZN7testing8internal16SuiteApiResolverINS_4TestEE19GetSetUpCaseOrSuiteEPKci(ptr noundef @.str.3, i32 noundef 633)
          to label %invoke.cont6 unwind label %lpad4

invoke.cont6:                                     ; preds = %invoke.cont5
  %call9 = invoke noundef ptr @_ZN7testing8internal16SuiteApiResolverINS_4TestEE22GetTearDownCaseOrSuiteEPKci(ptr noundef @.str.3, i32 noundef 633)
          to label %invoke.cont8 unwind label %lpad4

invoke.cont8:                                     ; preds = %invoke.cont6
  %call11 = invoke noalias noundef nonnull ptr @_Znwm(i64 noundef 8) #15
          to label %invoke.cont10 unwind label %lpad4

invoke.cont10:                                    ; preds = %invoke.cont8
  invoke void @_ZN7testing8internal15TestFactoryImplIN12_GLOBAL__N_124FromChars_NaNFloats_TestEEC2Ev(ptr noundef nonnull align 8 dereferenceable(8) %call11)
          to label %invoke.cont13 unwind label %lpad12

invoke.cont13:                                    ; preds = %invoke.cont10
  %call15 = invoke noundef ptr @_ZN7testing8internal23MakeAndRegisterTestInfoEPKcS2_S2_S2_NS0_12CodeLocationEPKvPFvvES7_PNS0_15TestFactoryBaseE(ptr noundef @.str, ptr noundef @.str.25, ptr noundef null, ptr noundef null, ptr noundef %agg.tmp, ptr noundef %call, ptr noundef %call7, ptr noundef %call9, ptr noundef %call11)
          to label %invoke.cont14 unwind label %lpad4

invoke.cont14:                                    ; preds = %invoke.cont13
  call void @_ZN7testing8internal12CodeLocationD2Ev(ptr noundef nonnull align 8 dereferenceable(36) %agg.tmp) #3
  call void @_ZNSt7__cxx1112basic_stringIcSt11char_traitsIcESaIcEED1Ev(ptr noundef nonnull align 8 dereferenceable(32) %ref.tmp) #3
  call void @_ZNSaIcED1Ev(ptr noundef nonnull align 1 dereferenceable(1) %ref.tmp1) #3
  store ptr %call15, ptr @_ZN12_GLOBAL__N_124FromChars_NaNFloats_Test10test_info_E, align 8
  ret void

lpad:                                             ; preds = %entry
  %0 = landingpad { ptr, i32 }
          cleanup
  %1 = extractvalue { ptr, i32 } %0, 0
  store ptr %1, ptr %exn.slot, align 8
  %2 = extractvalue { ptr, i32 } %0, 1
  store i32 %2, ptr %ehselector.slot, align 4
  br label %ehcleanup17

lpad2:                                            ; preds = %invoke.cont
  %3 = landingpad { ptr, i32 }
          cleanup
  %4 = extractvalue { ptr, i32 } %3, 0
  store ptr %4, ptr %exn.slot, align 8
  %5 = extractvalue { ptr, i32 } %3, 1
  store i32 %5, ptr %ehselector.slot, align 4
  br label %ehcleanup16

lpad4:                                            ; preds = %invoke.cont13, %invoke.cont8, %invoke.cont6, %invoke.cont5, %invoke.cont3
  %6 = landingpad { ptr, i32 }
          cleanup
  %7 = extractvalue { ptr, i32 } %6, 0
  store ptr %7, ptr %exn.slot, align 8
  %8 = extractvalue { ptr, i32 } %6, 1
  store i32 %8, ptr %ehselector.slot, align 4
  br label %ehcleanup

lpad12:                                           ; preds = %invoke.cont10
  %9 = landingpad { ptr, i32 }
          cleanup
  %10 = extractvalue { ptr, i32 } %9, 0
  store ptr %10, ptr %exn.slot, align 8
  %11 = extractvalue { ptr, i32 } %9, 1
  store i32 %11, ptr %ehselector.slot, align 4
  call void @_ZdlPv(ptr noundef %call11) #16
  br label %ehcleanup

ehcleanup:                                        ; preds = %lpad12, %lpad4
  call void @_ZN7testing8internal12CodeLocationD2Ev(ptr noundef nonnull align 8 dereferenceable(36) %agg.tmp) #3
  br label %ehcleanup16

ehcleanup16:                                      ; preds = %ehcleanup, %lpad2
  call void @_ZNSt7__cxx1112basic_stringIcSt11char_traitsIcESaIcEED1Ev(ptr noundef nonnull align 8 dereferenceable(32) %ref.tmp) #3
  br label %ehcleanup17

ehcleanup17:                                      ; preds = %ehcleanup16, %lpad
  call void @_ZNSaIcED1Ev(ptr noundef nonnull align 1 dereferenceable(1) %ref.tmp1) #3
  br label %eh.resume

eh.resume:                                        ; preds = %ehcleanup17
  %exn = load ptr, ptr %exn.slot, align 8
  %sel = load i32, ptr %ehselector.slot, align 4
  %lpad.val = insertvalue { ptr, i32 } poison, ptr %exn, 0
  %lpad.val18 = insertvalue { ptr, i32 } %lpad.val, i32 %sel, 1
  resume { ptr, i32 } %lpad.val18
}

; Function Attrs: mustprogress nounwind uwtable
define internal void @_ZN7testing8internal15TestFactoryImplIN12_GLOBAL__N_124FromChars_NaNFloats_TestEEC2Ev(ptr noundef nonnull align 8 dereferenceable(8) %this) unnamed_addr #7 align 2 {
entry:
  %this.addr = alloca ptr, align 8
  store ptr %this, ptr %this.addr, align 8
  %this1 = load ptr, ptr %this.addr, align 8
  call void @_ZN7testing8internal15TestFactoryBaseC2Ev(ptr noundef nonnull align 8 dereferenceable(8) %this1)
  store ptr getelementptr inbounds ({ [5 x ptr] }, ptr @_ZTVN7testing8internal15TestFactoryImplIN12_GLOBAL__N_124FromChars_NaNFloats_TestEEE, i32 0, inrange i32 0, i32 2), ptr %this1, align 8
  ret void
}

; Function Attrs: uwtable
define internal void @__cxx_global_var_init.26() #0 section ".text.startup" personality ptr @__gxx_personality_v0 {
entry:
  %agg.tmp = alloca %"struct.testing::internal::CodeLocation", align 8
  %ref.tmp = alloca %"class.std::__cxx11::basic_string", align 8
  %ref.tmp1 = alloca %"class.std::allocator", align 1
  %exn.slot = alloca ptr, align 8
  %ehselector.slot = alloca i32, align 4
  call void @_ZNSaIcEC1Ev(ptr noundef nonnull align 1 dereferenceable(1) %ref.tmp1) #3
  invoke void @_ZNSt7__cxx1112basic_stringIcSt11char_traitsIcESaIcEEC2IS3_EEPKcRKS3_(ptr noundef nonnull align 8 dereferenceable(32) %ref.tmp, ptr noundef @.str.3, ptr noundef nonnull align 1 dereferenceable(1) %ref.tmp1)
          to label %invoke.cont unwind label %lpad

invoke.cont:                                      ; preds = %entry
  invoke void @_ZN7testing8internal12CodeLocationC2ERKNSt7__cxx1112basic_stringIcSt11char_traitsIcESaIcEEEi(ptr noundef nonnull align 8 dereferenceable(36) %agg.tmp, ptr noundef nonnull align 8 dereferenceable(32) %ref.tmp, i32 noundef 746)
          to label %invoke.cont3 unwind label %lpad2

invoke.cont3:                                     ; preds = %invoke.cont
  %call = invoke noundef ptr @_ZN7testing8internal13GetTestTypeIdEv()
          to label %invoke.cont5 unwind label %lpad4

invoke.cont5:                                     ; preds = %invoke.cont3
  %call7 = invoke noundef ptr @_ZN7testing8internal16SuiteApiResolverINS_4TestEE19GetSetUpCaseOrSuiteEPKci(ptr noundef @.str.3, i32 noundef 746)
          to label %invoke.cont6 unwind label %lpad4

invoke.cont6:                                     ; preds = %invoke.cont5
  %call9 = invoke noundef ptr @_ZN7testing8internal16SuiteApiResolverINS_4TestEE22GetTearDownCaseOrSuiteEPKci(ptr noundef @.str.3, i32 noundef 746)
          to label %invoke.cont8 unwind label %lpad4

invoke.cont8:                                     ; preds = %invoke.cont6
  %call11 = invoke noalias noundef nonnull ptr @_Znwm(i64 noundef 8) #15
          to label %invoke.cont10 unwind label %lpad4

invoke.cont10:                                    ; preds = %invoke.cont8
  invoke void @_ZN7testing8internal15TestFactoryImplIN12_GLOBAL__N_137FromChars_HexdecimalDoubleLimits_TestEEC2Ev(ptr noundef nonnull align 8 dereferenceable(8) %call11)
          to label %invoke.cont13 unwind label %lpad12

invoke.cont13:                                    ; preds = %invoke.cont10
  %call15 = invoke noundef ptr @_ZN7testing8internal23MakeAndRegisterTestInfoEPKcS2_S2_S2_NS0_12CodeLocationEPKvPFvvES7_PNS0_15TestFactoryBaseE(ptr noundef @.str, ptr noundef @.str.27, ptr noundef null, ptr noundef null, ptr noundef %agg.tmp, ptr noundef %call, ptr noundef %call7, ptr noundef %call9, ptr noundef %call11)
          to label %invoke.cont14 unwind label %lpad4

invoke.cont14:                                    ; preds = %invoke.cont13
  call void @_ZN7testing8internal12CodeLocationD2Ev(ptr noundef nonnull align 8 dereferenceable(36) %agg.tmp) #3
  call void @_ZNSt7__cxx1112basic_stringIcSt11char_traitsIcESaIcEED1Ev(ptr noundef nonnull align 8 dereferenceable(32) %ref.tmp) #3
  call void @_ZNSaIcED1Ev(ptr noundef nonnull align 1 dereferenceable(1) %ref.tmp1) #3
  store ptr %call15, ptr @_ZN12_GLOBAL__N_137FromChars_HexdecimalDoubleLimits_Test10test_info_E, align 8
  ret void

lpad:                                             ; preds = %entry
  %0 = landingpad { ptr, i32 }
          cleanup
  %1 = extractvalue { ptr, i32 } %0, 0
  store ptr %1, ptr %exn.slot, align 8
  %2 = extractvalue { ptr, i32 } %0, 1
  store i32 %2, ptr %ehselector.slot, align 4
  br label %ehcleanup17

lpad2:                                            ; preds = %invoke.cont
  %3 = landingpad { ptr, i32 }
          cleanup
  %4 = extractvalue { ptr, i32 } %3, 0
  store ptr %4, ptr %exn.slot, align 8
  %5 = extractvalue { ptr, i32 } %3, 1
  store i32 %5, ptr %ehselector.slot, align 4
  br label %ehcleanup16

lpad4:                                            ; preds = %invoke.cont13, %invoke.cont8, %invoke.cont6, %invoke.cont5, %invoke.cont3
  %6 = landingpad { ptr, i32 }
          cleanup
  %7 = extractvalue { ptr, i32 } %6, 0
  store ptr %7, ptr %exn.slot, align 8
  %8 = extractvalue { ptr, i32 } %6, 1
  store i32 %8, ptr %ehselector.slot, align 4
  br label %ehcleanup

lpad12:                                           ; preds = %invoke.cont10
  %9 = landingpad { ptr, i32 }
          cleanup
  %10 = extractvalue { ptr, i32 } %9, 0
  store ptr %10, ptr %exn.slot, align 8
  %11 = extractvalue { ptr, i32 } %9, 1
  store i32 %11, ptr %ehselector.slot, align 4
  call void @_ZdlPv(ptr noundef %call11) #16
  br label %ehcleanup

ehcleanup:                                        ; preds = %lpad12, %lpad4
  call void @_ZN7testing8internal12CodeLocationD2Ev(ptr noundef nonnull align 8 dereferenceable(36) %agg.tmp) #3
  br label %ehcleanup16

ehcleanup16:                                      ; preds = %ehcleanup, %lpad2
  call void @_ZNSt7__cxx1112basic_stringIcSt11char_traitsIcESaIcEED1Ev(ptr noundef nonnull align 8 dereferenceable(32) %ref.tmp) #3
  br label %ehcleanup17

ehcleanup17:                                      ; preds = %ehcleanup16, %lpad
  call void @_ZNSaIcED1Ev(ptr noundef nonnull align 1 dereferenceable(1) %ref.tmp1) #3
  br label %eh.resume

eh.resume:                                        ; preds = %ehcleanup17
  %exn = load ptr, ptr %exn.slot, align 8
  %sel = load i32, ptr %ehselector.slot, align 4
  %lpad.val = insertvalue { ptr, i32 } poison, ptr %exn, 0
  %lpad.val18 = insertvalue { ptr, i32 } %lpad.val, i32 %sel, 1
  resume { ptr, i32 } %lpad.val18
}

; Function Attrs: mustprogress nounwind uwtable
define internal void @_ZN7testing8internal15TestFactoryImplIN12_GLOBAL__N_137FromChars_HexdecimalDoubleLimits_TestEEC2Ev(ptr noundef nonnull align 8 dereferenceable(8) %this) unnamed_addr #7 align 2 {
entry:
  %this.addr = alloca ptr, align 8
  store ptr %this, ptr %this.addr, align 8
  %this1 = load ptr, ptr %this.addr, align 8
  call void @_ZN7testing8internal15TestFactoryBaseC2Ev(ptr noundef nonnull align 8 dereferenceable(8) %this1)
  store ptr getelementptr inbounds ({ [5 x ptr] }, ptr @_ZTVN7testing8internal15TestFactoryImplIN12_GLOBAL__N_137FromChars_HexdecimalDoubleLimits_TestEEE, i32 0, inrange i32 0, i32 2), ptr %this1, align 8
  ret void
}

; Function Attrs: uwtable
define internal void @__cxx_global_var_init.28() #0 section ".text.startup" personality ptr @__gxx_personality_v0 {
entry:
  %agg.tmp = alloca %"struct.testing::internal::CodeLocation", align 8
  %ref.tmp = alloca %"class.std::__cxx11::basic_string", align 8
  %ref.tmp1 = alloca %"class.std::allocator", align 1
  %exn.slot = alloca ptr, align 8
  %ehselector.slot = alloca i32, align 4
  call void @_ZNSaIcEC1Ev(ptr noundef nonnull align 1 dereferenceable(1) %ref.tmp1) #3
  invoke void @_ZNSt7__cxx1112basic_stringIcSt11char_traitsIcESaIcEEC2IS3_EEPKcRKS3_(ptr noundef nonnull align 8 dereferenceable(32) %ref.tmp, ptr noundef @.str.3, ptr noundef nonnull align 1 dereferenceable(1) %ref.tmp1)
          to label %invoke.cont unwind label %lpad

invoke.cont:                                      ; preds = %entry
  invoke void @_ZN7testing8internal12CodeLocationC2ERKNSt7__cxx1112basic_stringIcSt11char_traitsIcESaIcEEEi(ptr noundef nonnull align 8 dereferenceable(36) %agg.tmp, ptr noundef nonnull align 8 dereferenceable(32) %ref.tmp, i32 noundef 757)
          to label %invoke.cont3 unwind label %lpad2

invoke.cont3:                                     ; preds = %invoke.cont
  %call = invoke noundef ptr @_ZN7testing8internal13GetTestTypeIdEv()
          to label %invoke.cont5 unwind label %lpad4

invoke.cont5:                                     ; preds = %invoke.cont3
  %call7 = invoke noundef ptr @_ZN7testing8internal16SuiteApiResolverINS_4TestEE19GetSetUpCaseOrSuiteEPKci(ptr noundef @.str.3, i32 noundef 757)
          to label %invoke.cont6 unwind label %lpad4

invoke.cont6:                                     ; preds = %invoke.cont5
  %call9 = invoke noundef ptr @_ZN7testing8internal16SuiteApiResolverINS_4TestEE22GetTearDownCaseOrSuiteEPKci(ptr noundef @.str.3, i32 noundef 757)
          to label %invoke.cont8 unwind label %lpad4

invoke.cont8:                                     ; preds = %invoke.cont6
  %call11 = invoke noalias noundef nonnull ptr @_Znwm(i64 noundef 8) #15
          to label %invoke.cont10 unwind label %lpad4

invoke.cont10:                                    ; preds = %invoke.cont8
  invoke void @_ZN7testing8internal15TestFactoryImplIN12_GLOBAL__N_136FromChars_HexdecimalFloatLimits_TestEEC2Ev(ptr noundef nonnull align 8 dereferenceable(8) %call11)
          to label %invoke.cont13 unwind label %lpad12

invoke.cont13:                                    ; preds = %invoke.cont10
  %call15 = invoke noundef ptr @_ZN7testing8internal23MakeAndRegisterTestInfoEPKcS2_S2_S2_NS0_12CodeLocationEPKvPFvvES7_PNS0_15TestFactoryBaseE(ptr noundef @.str, ptr noundef @.str.29, ptr noundef null, ptr noundef null, ptr noundef %agg.tmp, ptr noundef %call, ptr noundef %call7, ptr noundef %call9, ptr noundef %call11)
          to label %invoke.cont14 unwind label %lpad4

invoke.cont14:                                    ; preds = %invoke.cont13
  call void @_ZN7testing8internal12CodeLocationD2Ev(ptr noundef nonnull align 8 dereferenceable(36) %agg.tmp) #3
  call void @_ZNSt7__cxx1112basic_stringIcSt11char_traitsIcESaIcEED1Ev(ptr noundef nonnull align 8 dereferenceable(32) %ref.tmp) #3
  call void @_ZNSaIcED1Ev(ptr noundef nonnull align 1 dereferenceable(1) %ref.tmp1) #3
  store ptr %call15, ptr @_ZN12_GLOBAL__N_136FromChars_HexdecimalFloatLimits_Test10test_info_E, align 8
  ret void

lpad:                                             ; preds = %entry
  %0 = landingpad { ptr, i32 }
          cleanup
  %1 = extractvalue { ptr, i32 } %0, 0
  store ptr %1, ptr %exn.slot, align 8
  %2 = extractvalue { ptr, i32 } %0, 1
  store i32 %2, ptr %ehselector.slot, align 4
  br label %ehcleanup17

lpad2:                                            ; preds = %invoke.cont
  %3 = landingpad { ptr, i32 }
          cleanup
  %4 = extractvalue { ptr, i32 } %3, 0
  store ptr %4, ptr %exn.slot, align 8
  %5 = extractvalue { ptr, i32 } %3, 1
  store i32 %5, ptr %ehselector.slot, align 4
  br label %ehcleanup16

lpad4:                                            ; preds = %invoke.cont13, %invoke.cont8, %invoke.cont6, %invoke.cont5, %invoke.cont3
  %6 = landingpad { ptr, i32 }
          cleanup
  %7 = extractvalue { ptr, i32 } %6, 0
  store ptr %7, ptr %exn.slot, align 8
  %8 = extractvalue { ptr, i32 } %6, 1
  store i32 %8, ptr %ehselector.slot, align 4
  br label %ehcleanup

lpad12:                                           ; preds = %invoke.cont10
  %9 = landingpad { ptr, i32 }
          cleanup
  %10 = extractvalue { ptr, i32 } %9, 0
  store ptr %10, ptr %exn.slot, align 8
  %11 = extractvalue { ptr, i32 } %9, 1
  store i32 %11, ptr %ehselector.slot, align 4
  call void @_ZdlPv(ptr noundef %call11) #16
  br label %ehcleanup

ehcleanup:                                        ; preds = %lpad12, %lpad4
  call void @_ZN7testing8internal12CodeLocationD2Ev(ptr noundef nonnull align 8 dereferenceable(36) %agg.tmp) #3
  br label %ehcleanup16

ehcleanup16:                                      ; preds = %ehcleanup, %lpad2
  call void @_ZNSt7__cxx1112basic_stringIcSt11char_traitsIcESaIcEED1Ev(ptr noundef nonnull align 8 dereferenceable(32) %ref.tmp) #3
  br label %ehcleanup17

ehcleanup17:                                      ; preds = %ehcleanup16, %lpad
  call void @_ZNSaIcED1Ev(ptr noundef nonnull align 1 dereferenceable(1) %ref.tmp1) #3
  br label %eh.resume

eh.resume:                                        ; preds = %ehcleanup17
  %exn = load ptr, ptr %exn.slot, align 8
  %sel = load i32, ptr %ehselector.slot, align 4
  %lpad.val = insertvalue { ptr, i32 } poison, ptr %exn, 0
  %lpad.val18 = insertvalue { ptr, i32 } %lpad.val, i32 %sel, 1
  resume { ptr, i32 } %lpad.val18
}

; Function Attrs: mustprogress nounwind uwtable
define internal void @_ZN7testing8internal15TestFactoryImplIN12_GLOBAL__N_136FromChars_HexdecimalFloatLimits_TestEEC2Ev(ptr noundef nonnull align 8 dereferenceable(8) %this) unnamed_addr #7 align 2 {
entry:
  %this.addr = alloca ptr, align 8
  store ptr %this, ptr %this.addr, align 8
  %this1 = load ptr, ptr %this.addr, align 8
  call void @_ZN7testing8internal15TestFactoryBaseC2Ev(ptr noundef nonnull align 8 dereferenceable(8) %this1)
  store ptr getelementptr inbounds ({ [5 x ptr] }, ptr @_ZTVN7testing8internal15TestFactoryImplIN12_GLOBAL__N_136FromChars_HexdecimalFloatLimits_TestEEE, i32 0, inrange i32 0, i32 2), ptr %this1, align 8
  ret void
}

; Function Attrs: uwtable
define internal void @__cxx_global_var_init.30() #0 section ".text.startup" personality ptr @__gxx_personality_v0 {
entry:
  %agg.tmp = alloca %"struct.testing::internal::CodeLocation", align 8
  %ref.tmp = alloca %"class.std::__cxx11::basic_string", align 8
  %ref.tmp1 = alloca %"class.std::allocator", align 1
  %exn.slot = alloca ptr, align 8
  %ehselector.slot = alloca i32, align 4
  call void @_ZNSaIcEC1Ev(ptr noundef nonnull align 1 dereferenceable(1) %ref.tmp1) #3
  invoke void @_ZNSt7__cxx1112basic_stringIcSt11char_traitsIcESaIcEEC2IS3_EEPKcRKS3_(ptr noundef nonnull align 8 dereferenceable(32) %ref.tmp, ptr noundef @.str.3, ptr noundef nonnull align 1 dereferenceable(1) %ref.tmp1)
          to label %invoke.cont unwind label %lpad

invoke.cont:                                      ; preds = %entry
  invoke void @_ZN7testing8internal12CodeLocationC2ERKNSt7__cxx1112basic_stringIcSt11char_traitsIcESaIcEEEi(ptr noundef nonnull align 8 dereferenceable(36) %agg.tmp, ptr noundef nonnull align 8 dereferenceable(32) %ref.tmp, i32 noundef 769)
          to label %invoke.cont3 unwind label %lpad2

invoke.cont3:                                     ; preds = %invoke.cont
  %call = invoke noundef ptr @_ZN7testing8internal13GetTestTypeIdEv()
          to label %invoke.cont5 unwind label %lpad4

invoke.cont5:                                     ; preds = %invoke.cont3
  %call7 = invoke noundef ptr @_ZN7testing8internal16SuiteApiResolverINS_4TestEE19GetSetUpCaseOrSuiteEPKci(ptr noundef @.str.3, i32 noundef 769)
          to label %invoke.cont6 unwind label %lpad4

invoke.cont6:                                     ; preds = %invoke.cont5
  %call9 = invoke noundef ptr @_ZN7testing8internal16SuiteApiResolverINS_4TestEE22GetTearDownCaseOrSuiteEPKci(ptr noundef @.str.3, i32 noundef 769)
          to label %invoke.cont8 unwind label %lpad4

invoke.cont8:                                     ; preds = %invoke.cont6
  %call11 = invoke noalias noundef nonnull ptr @_Znwm(i64 noundef 8) #15
          to label %invoke.cont10 unwind label %lpad4

invoke.cont10:                                    ; preds = %invoke.cont8
  invoke void @_ZN7testing8internal15TestFactoryImplIN12_GLOBAL__N_134FromChars_DecimalDoubleLimits_TestEEC2Ev(ptr noundef nonnull align 8 dereferenceable(8) %call11)
          to label %invoke.cont13 unwind label %lpad12

invoke.cont13:                                    ; preds = %invoke.cont10
  %call15 = invoke noundef ptr @_ZN7testing8internal23MakeAndRegisterTestInfoEPKcS2_S2_S2_NS0_12CodeLocationEPKvPFvvES7_PNS0_15TestFactoryBaseE(ptr noundef @.str, ptr noundef @.str.31, ptr noundef null, ptr noundef null, ptr noundef %agg.tmp, ptr noundef %call, ptr noundef %call7, ptr noundef %call9, ptr noundef %call11)
          to label %invoke.cont14 unwind label %lpad4

invoke.cont14:                                    ; preds = %invoke.cont13
  call void @_ZN7testing8internal12CodeLocationD2Ev(ptr noundef nonnull align 8 dereferenceable(36) %agg.tmp) #3
  call void @_ZNSt7__cxx1112basic_stringIcSt11char_traitsIcESaIcEED1Ev(ptr noundef nonnull align 8 dereferenceable(32) %ref.tmp) #3
  call void @_ZNSaIcED1Ev(ptr noundef nonnull align 1 dereferenceable(1) %ref.tmp1) #3
  store ptr %call15, ptr @_ZN12_GLOBAL__N_134FromChars_DecimalDoubleLimits_Test10test_info_E, align 8
  ret void

lpad:                                             ; preds = %entry
  %0 = landingpad { ptr, i32 }
          cleanup
  %1 = extractvalue { ptr, i32 } %0, 0
  store ptr %1, ptr %exn.slot, align 8
  %2 = extractvalue { ptr, i32 } %0, 1
  store i32 %2, ptr %ehselector.slot, align 4
  br label %ehcleanup17

lpad2:                                            ; preds = %invoke.cont
  %3 = landingpad { ptr, i32 }
          cleanup
  %4 = extractvalue { ptr, i32 } %3, 0
  store ptr %4, ptr %exn.slot, align 8
  %5 = extractvalue { ptr, i32 } %3, 1
  store i32 %5, ptr %ehselector.slot, align 4
  br label %ehcleanup16

lpad4:                                            ; preds = %invoke.cont13, %invoke.cont8, %invoke.cont6, %invoke.cont5, %invoke.cont3
  %6 = landingpad { ptr, i32 }
          cleanup
  %7 = extractvalue { ptr, i32 } %6, 0
  store ptr %7, ptr %exn.slot, align 8
  %8 = extractvalue { ptr, i32 } %6, 1
  store i32 %8, ptr %ehselector.slot, align 4
  br label %ehcleanup

lpad12:                                           ; preds = %invoke.cont10
  %9 = landingpad { ptr, i32 }
          cleanup
  %10 = extractvalue { ptr, i32 } %9, 0
  store ptr %10, ptr %exn.slot, align 8
  %11 = extractvalue { ptr, i32 } %9, 1
  store i32 %11, ptr %ehselector.slot, align 4
  call void @_ZdlPv(ptr noundef %call11) #16
  br label %ehcleanup

ehcleanup:                                        ; preds = %lpad12, %lpad4
  call void @_ZN7testing8internal12CodeLocationD2Ev(ptr noundef nonnull align 8 dereferenceable(36) %agg.tmp) #3
  br label %ehcleanup16

ehcleanup16:                                      ; preds = %ehcleanup, %lpad2
  call void @_ZNSt7__cxx1112basic_stringIcSt11char_traitsIcESaIcEED1Ev(ptr noundef nonnull align 8 dereferenceable(32) %ref.tmp) #3
  br label %ehcleanup17

ehcleanup17:                                      ; preds = %ehcleanup16, %lpad
  call void @_ZNSaIcED1Ev(ptr noundef nonnull align 1 dereferenceable(1) %ref.tmp1) #3
  br label %eh.resume

eh.resume:                                        ; preds = %ehcleanup17
  %exn = load ptr, ptr %exn.slot, align 8
  %sel = load i32, ptr %ehselector.slot, align 4
  %lpad.val = insertvalue { ptr, i32 } poison, ptr %exn, 0
  %lpad.val18 = insertvalue { ptr, i32 } %lpad.val, i32 %sel, 1
  resume { ptr, i32 } %lpad.val18
}

; Function Attrs: mustprogress nounwind uwtable
define internal void @_ZN7testing8internal15TestFactoryImplIN12_GLOBAL__N_134FromChars_DecimalDoubleLimits_TestEEC2Ev(ptr noundef nonnull align 8 dereferenceable(8) %this) unnamed_addr #7 align 2 {
entry:
  %this.addr = alloca ptr, align 8
  store ptr %this, ptr %this.addr, align 8
  %this1 = load ptr, ptr %this.addr, align 8
  call void @_ZN7testing8internal15TestFactoryBaseC2Ev(ptr noundef nonnull align 8 dereferenceable(8) %this1)
  store ptr getelementptr inbounds ({ [5 x ptr] }, ptr @_ZTVN7testing8internal15TestFactoryImplIN12_GLOBAL__N_134FromChars_DecimalDoubleLimits_TestEEE, i32 0, inrange i32 0, i32 2), ptr %this1, align 8
  ret void
}

; Function Attrs: uwtable
define internal void @__cxx_global_var_init.32() #0 section ".text.startup" personality ptr @__gxx_personality_v0 {
entry:
  %agg.tmp = alloca %"struct.testing::internal::CodeLocation", align 8
  %ref.tmp = alloca %"class.std::__cxx11::basic_string", align 8
  %ref.tmp1 = alloca %"class.std::allocator", align 1
  %exn.slot = alloca ptr, align 8
  %ehselector.slot = alloca i32, align 4
  call void @_ZNSaIcEC1Ev(ptr noundef nonnull align 1 dereferenceable(1) %ref.tmp1) #3
  invoke void @_ZNSt7__cxx1112basic_stringIcSt11char_traitsIcESaIcEEC2IS3_EEPKcRKS3_(ptr noundef nonnull align 8 dereferenceable(32) %ref.tmp, ptr noundef @.str.3, ptr noundef nonnull align 1 dereferenceable(1) %ref.tmp1)
          to label %invoke.cont unwind label %lpad

invoke.cont:                                      ; preds = %entry
  invoke void @_ZN7testing8internal12CodeLocationC2ERKNSt7__cxx1112basic_stringIcSt11char_traitsIcESaIcEEEi(ptr noundef nonnull align 8 dereferenceable(36) %agg.tmp, ptr noundef nonnull align 8 dereferenceable(32) %ref.tmp, i32 noundef 781)
          to label %invoke.cont3 unwind label %lpad2

invoke.cont3:                                     ; preds = %invoke.cont
  %call = invoke noundef ptr @_ZN7testing8internal13GetTestTypeIdEv()
          to label %invoke.cont5 unwind label %lpad4

invoke.cont5:                                     ; preds = %invoke.cont3
  %call7 = invoke noundef ptr @_ZN7testing8internal16SuiteApiResolverINS_4TestEE19GetSetUpCaseOrSuiteEPKci(ptr noundef @.str.3, i32 noundef 781)
          to label %invoke.cont6 unwind label %lpad4

invoke.cont6:                                     ; preds = %invoke.cont5
  %call9 = invoke noundef ptr @_ZN7testing8internal16SuiteApiResolverINS_4TestEE22GetTearDownCaseOrSuiteEPKci(ptr noundef @.str.3, i32 noundef 781)
          to label %invoke.cont8 unwind label %lpad4

invoke.cont8:                                     ; preds = %invoke.cont6
  %call11 = invoke noalias noundef nonnull ptr @_Znwm(i64 noundef 8) #15
          to label %invoke.cont10 unwind label %lpad4

invoke.cont10:                                    ; preds = %invoke.cont8
  invoke void @_ZN7testing8internal15TestFactoryImplIN12_GLOBAL__N_133FromChars_DecimalFloatLimits_TestEEC2Ev(ptr noundef nonnull align 8 dereferenceable(8) %call11)
          to label %invoke.cont13 unwind label %lpad12

invoke.cont13:                                    ; preds = %invoke.cont10
  %call15 = invoke noundef ptr @_ZN7testing8internal23MakeAndRegisterTestInfoEPKcS2_S2_S2_NS0_12CodeLocationEPKvPFvvES7_PNS0_15TestFactoryBaseE(ptr noundef @.str, ptr noundef @.str.33, ptr noundef null, ptr noundef null, ptr noundef %agg.tmp, ptr noundef %call, ptr noundef %call7, ptr noundef %call9, ptr noundef %call11)
          to label %invoke.cont14 unwind label %lpad4

invoke.cont14:                                    ; preds = %invoke.cont13
  call void @_ZN7testing8internal12CodeLocationD2Ev(ptr noundef nonnull align 8 dereferenceable(36) %agg.tmp) #3
  call void @_ZNSt7__cxx1112basic_stringIcSt11char_traitsIcESaIcEED1Ev(ptr noundef nonnull align 8 dereferenceable(32) %ref.tmp) #3
  call void @_ZNSaIcED1Ev(ptr noundef nonnull align 1 dereferenceable(1) %ref.tmp1) #3
  store ptr %call15, ptr @_ZN12_GLOBAL__N_133FromChars_DecimalFloatLimits_Test10test_info_E, align 8
  ret void

lpad:                                             ; preds = %entry
  %0 = landingpad { ptr, i32 }
          cleanup
  %1 = extractvalue { ptr, i32 } %0, 0
  store ptr %1, ptr %exn.slot, align 8
  %2 = extractvalue { ptr, i32 } %0, 1
  store i32 %2, ptr %ehselector.slot, align 4
  br label %ehcleanup17

lpad2:                                            ; preds = %invoke.cont
  %3 = landingpad { ptr, i32 }
          cleanup
  %4 = extractvalue { ptr, i32 } %3, 0
  store ptr %4, ptr %exn.slot, align 8
  %5 = extractvalue { ptr, i32 } %3, 1
  store i32 %5, ptr %ehselector.slot, align 4
  br label %ehcleanup16

lpad4:                                            ; preds = %invoke.cont13, %invoke.cont8, %invoke.cont6, %invoke.cont5, %invoke.cont3
  %6 = landingpad { ptr, i32 }
          cleanup
  %7 = extractvalue { ptr, i32 } %6, 0
  store ptr %7, ptr %exn.slot, align 8
  %8 = extractvalue { ptr, i32 } %6, 1
  store i32 %8, ptr %ehselector.slot, align 4
  br label %ehcleanup

lpad12:                                           ; preds = %invoke.cont10
  %9 = landingpad { ptr, i32 }
          cleanup
  %10 = extractvalue { ptr, i32 } %9, 0
  store ptr %10, ptr %exn.slot, align 8
  %11 = extractvalue { ptr, i32 } %9, 1
  store i32 %11, ptr %ehselector.slot, align 4
  call void @_ZdlPv(ptr noundef %call11) #16
  br label %ehcleanup

ehcleanup:                                        ; preds = %lpad12, %lpad4
  call void @_ZN7testing8internal12CodeLocationD2Ev(ptr noundef nonnull align 8 dereferenceable(36) %agg.tmp) #3
  br label %ehcleanup16

ehcleanup16:                                      ; preds = %ehcleanup, %lpad2
  call void @_ZNSt7__cxx1112basic_stringIcSt11char_traitsIcESaIcEED1Ev(ptr noundef nonnull align 8 dereferenceable(32) %ref.tmp) #3
  br label %ehcleanup17

ehcleanup17:                                      ; preds = %ehcleanup16, %lpad
  call void @_ZNSaIcED1Ev(ptr noundef nonnull align 1 dereferenceable(1) %ref.tmp1) #3
  br label %eh.resume

eh.resume:                                        ; preds = %ehcleanup17
  %exn = load ptr, ptr %exn.slot, align 8
  %sel = load i32, ptr %ehselector.slot, align 4
  %lpad.val = insertvalue { ptr, i32 } poison, ptr %exn, 0
  %lpad.val18 = insertvalue { ptr, i32 } %lpad.val, i32 %sel, 1
  resume { ptr, i32 } %lpad.val18
}

; Function Attrs: mustprogress nounwind uwtable
define internal void @_ZN7testing8internal15TestFactoryImplIN12_GLOBAL__N_133FromChars_DecimalFloatLimits_TestEEC2Ev(ptr noundef nonnull align 8 dereferenceable(8) %this) unnamed_addr #7 align 2 {
entry:
  %this.addr = alloca ptr, align 8
  store ptr %this, ptr %this.addr, align 8
  %this1 = load ptr, ptr %this.addr, align 8
  call void @_ZN7testing8internal15TestFactoryBaseC2Ev(ptr noundef nonnull align 8 dereferenceable(8) %this1)
  store ptr getelementptr inbounds ({ [5 x ptr] }, ptr @_ZTVN7testing8internal15TestFactoryImplIN12_GLOBAL__N_133FromChars_DecimalFloatLimits_TestEEE, i32 0, inrange i32 0, i32 2), ptr %this1, align 8
  ret void
}

declare void @_ZNSt7__cxx1112basic_stringIcSt11char_traitsIcESaIcEEC1ERKS4_(ptr noundef nonnull align 8 dereferenceable(32), ptr noundef nonnull align 8 dereferenceable(32)) unnamed_addr #1

; Function Attrs: mustprogress nounwind uwtable
define linkonce_odr dso_local void @_ZN7testing8internal15TestFactoryBaseC2Ev(ptr noundef nonnull align 8 dereferenceable(8) %this) unnamed_addr #7 comdat align 2 {
entry:
  %this.addr = alloca ptr, align 8
  store ptr %this, ptr %this.addr, align 8
  %this1 = load ptr, ptr %this.addr, align 8
  store ptr getelementptr inbounds ({ [5 x ptr] }, ptr @_ZTVN7testing8internal15TestFactoryBaseE, i32 0, inrange i32 0, i32 2), ptr %this1, align 8
  ret void
}

; Function Attrs: mustprogress nounwind uwtable
define internal void @_ZN7testing8internal15TestFactoryImplIN12_GLOBAL__N_132FromChars_NearRoundingCases_TestEED2Ev(ptr noundef nonnull align 8 dereferenceable(8) %this) unnamed_addr #7 align 2 {
entry:
  %this.addr = alloca ptr, align 8
  store ptr %this, ptr %this.addr, align 8
  %this1 = load ptr, ptr %this.addr, align 8
  call void @_ZN7testing8internal15TestFactoryBaseD2Ev(ptr noundef nonnull align 8 dereferenceable(8) %this1) #3
  ret void
}

; Function Attrs: mustprogress nounwind uwtable
define internal void @_ZN7testing8internal15TestFactoryImplIN12_GLOBAL__N_132FromChars_NearRoundingCases_TestEED0Ev(ptr noundef nonnull align 8 dereferenceable(8) %this) unnamed_addr #7 align 2 {
entry:
  %this.addr = alloca ptr, align 8
  store ptr %this, ptr %this.addr, align 8
  %this1 = load ptr, ptr %this.addr, align 8
  call void @_ZN7testing8internal15TestFactoryImplIN12_GLOBAL__N_132FromChars_NearRoundingCases_TestEED2Ev(ptr noundef nonnull align 8 dereferenceable(8) %this1) #3
  call void @_ZdlPv(ptr noundef %this1) #16
  ret void
}

; Function Attrs: mustprogress uwtable
define internal noundef ptr @_ZN7testing8internal15TestFactoryImplIN12_GLOBAL__N_132FromChars_NearRoundingCases_TestEE10CreateTestEv(ptr noundef nonnull align 8 dereferenceable(8) %this) unnamed_addr #4 align 2 personality ptr @__gxx_personality_v0 {
entry:
  %this.addr = alloca ptr, align 8
  %exn.slot = alloca ptr, align 8
  %ehselector.slot = alloca i32, align 4
  store ptr %this, ptr %this.addr, align 8
  %call = call noalias noundef nonnull ptr @_Znwm(i64 noundef 16) #15
  invoke void @_ZN12_GLOBAL__N_132FromChars_NearRoundingCases_TestC2Ev(ptr noundef nonnull align 8 dereferenceable(16) %call)
          to label %invoke.cont unwind label %lpad

invoke.cont:                                      ; preds = %entry
  ret ptr %call

lpad:                                             ; preds = %entry
  %0 = landingpad { ptr, i32 }
          cleanup
  %1 = extractvalue { ptr, i32 } %0, 0
  store ptr %1, ptr %exn.slot, align 8
  %2 = extractvalue { ptr, i32 } %0, 1
  store i32 %2, ptr %ehselector.slot, align 4
  call void @_ZdlPv(ptr noundef %call) #16
  br label %eh.resume

eh.resume:                                        ; preds = %lpad
  %exn = load ptr, ptr %exn.slot, align 8
  %sel = load i32, ptr %ehselector.slot, align 4
  %lpad.val = insertvalue { ptr, i32 } poison, ptr %exn, 0
  %lpad.val2 = insertvalue { ptr, i32 } %lpad.val, i32 %sel, 1
  resume { ptr, i32 } %lpad.val2
}

; Function Attrs: mustprogress nounwind uwtable
define linkonce_odr dso_local void @_ZN7testing8internal15TestFactoryBaseD2Ev(ptr noundef nonnull align 8 dereferenceable(8) %this) unnamed_addr #7 comdat align 2 {
entry:
  %this.addr = alloca ptr, align 8
  store ptr %this, ptr %this.addr, align 8
  ret void
}

; Function Attrs: mustprogress nounwind uwtable
define linkonce_odr dso_local void @_ZN7testing8internal15TestFactoryBaseD0Ev(ptr noundef nonnull align 8 dereferenceable(8) %this) unnamed_addr #7 comdat align 2 {
entry:
  %this.addr = alloca ptr, align 8
  store ptr %this, ptr %this.addr, align 8
  call void @llvm.trap() #18
  unreachable
}

declare void @__cxa_pure_virtual() unnamed_addr

; Function Attrs: cold noreturn nounwind memory(inaccessiblemem: write)
declare void @llvm.trap() #8

; Function Attrs: mustprogress uwtable
define internal void @_ZN12_GLOBAL__N_132FromChars_NearRoundingCases_TestC2Ev(ptr noundef nonnull align 8 dereferenceable(16) %this) unnamed_addr #4 align 2 {
entry:
  %this.addr = alloca ptr, align 8
  store ptr %this, ptr %this.addr, align 8
  %this1 = load ptr, ptr %this.addr, align 8
  call void @_ZN7testing4TestC2Ev(ptr noundef nonnull align 8 dereferenceable(16) %this1)
  store ptr getelementptr inbounds ({ [8 x ptr] }, ptr @_ZTVN12_GLOBAL__N_132FromChars_NearRoundingCases_TestE, i32 0, inrange i32 0, i32 2), ptr %this1, align 8
  ret void
}

declare void @_ZN7testing4TestC2Ev(ptr noundef nonnull align 8 dereferenceable(16)) unnamed_addr #1

; Function Attrs: mustprogress nounwind uwtable
define internal void @_ZN12_GLOBAL__N_132FromChars_NearRoundingCases_TestD2Ev(ptr noundef nonnull align 8 dereferenceable(16) %this) unnamed_addr #7 align 2 {
entry:
  %this.addr = alloca ptr, align 8
  store ptr %this, ptr %this.addr, align 8
  %this1 = load ptr, ptr %this.addr, align 8
  call void @_ZN7testing4TestD2Ev(ptr noundef nonnull align 8 dereferenceable(16) %this1) #3
  ret void
}

; Function Attrs: mustprogress nounwind uwtable
define internal void @_ZN12_GLOBAL__N_132FromChars_NearRoundingCases_TestD0Ev(ptr noundef nonnull align 8 dereferenceable(16) %this) unnamed_addr #7 align 2 {
entry:
  %this.addr = alloca ptr, align 8
  store ptr %this, ptr %this.addr, align 8
  %this1 = load ptr, ptr %this.addr, align 8
  call void @_ZN12_GLOBAL__N_132FromChars_NearRoundingCases_TestD2Ev(ptr noundef nonnull align 8 dereferenceable(16) %this1) #3
  call void @_ZdlPv(ptr noundef %this1) #16
  ret void
}

declare void @_ZN7testing4Test5SetUpEv(ptr noundef nonnull align 8 dereferenceable(16)) unnamed_addr #1

declare void @_ZN7testing4Test8TearDownEv(ptr noundef nonnull align 8 dereferenceable(16)) unnamed_addr #1

; Function Attrs: mustprogress uwtable
define internal void @_ZN12_GLOBAL__N_132FromChars_NearRoundingCases_Test8TestBodyEv(ptr noundef nonnull align 8 dereferenceable(16) %this) unnamed_addr #4 align 2 {
entry:
  %this.addr = alloca ptr, align 8
  %agg.tmp = alloca %"class.std::basic_string_view", align 8
  %agg.tmp2 = alloca %"class.std::basic_string_view", align 8
  %agg.tmp3 = alloca %"class.std::basic_string_view", align 8
  %agg.tmp4 = alloca %"class.std::basic_string_view", align 8
  %agg.tmp5 = alloca %"class.std::basic_string_view", align 8
  %agg.tmp6 = alloca %"class.std::basic_string_view", align 8
  %agg.tmp7 = alloca %"class.std::basic_string_view", align 8
  %agg.tmp8 = alloca %"class.std::basic_string_view", align 8
  %agg.tmp9 = alloca %"class.std::basic_string_view", align 8
  %agg.tmp10 = alloca %"class.std::basic_string_view", align 8
  %agg.tmp11 = alloca %"class.std::basic_string_view", align 8
  %agg.tmp12 = alloca %"class.std::basic_string_view", align 8
  %agg.tmp13 = alloca %"class.std::basic_string_view", align 8
  %agg.tmp14 = alloca %"class.std::basic_string_view", align 8
  %agg.tmp15 = alloca %"class.std::basic_string_view", align 8
  %agg.tmp16 = alloca %"class.std::basic_string_view", align 8
  %agg.tmp17 = alloca %"class.std::basic_string_view", align 8
  %agg.tmp18 = alloca %"class.std::basic_string_view", align 8
  %agg.tmp19 = alloca %"class.std::basic_string_view", align 8
  %agg.tmp20 = alloca %"class.std::basic_string_view", align 8
  %agg.tmp21 = alloca %"class.std::basic_string_view", align 8
  %agg.tmp22 = alloca %"class.std::basic_string_view", align 8
  %agg.tmp23 = alloca %"class.std::basic_string_view", align 8
  %agg.tmp24 = alloca %"class.std::basic_string_view", align 8
  %agg.tmp25 = alloca %"class.std::basic_string_view", align 8
  %agg.tmp26 = alloca %"class.std::basic_string_view", align 8
  %agg.tmp27 = alloca %"class.std::basic_string_view", align 8
  %agg.tmp28 = alloca %"class.std::basic_string_view", align 8
  %agg.tmp29 = alloca %"class.std::basic_string_view", align 8
  %agg.tmp30 = alloca %"class.std::basic_string_view", align 8
  %agg.tmp31 = alloca %"class.std::basic_string_view", align 8
  %agg.tmp32 = alloca %"class.std::basic_string_view", align 8
  %agg.tmp33 = alloca %"class.std::basic_string_view", align 8
  %agg.tmp34 = alloca %"class.std::basic_string_view", align 8
  %agg.tmp35 = alloca %"class.std::basic_string_view", align 8
  %agg.tmp36 = alloca %"class.std::basic_string_view", align 8
  %agg.tmp37 = alloca %"class.std::basic_string_view", align 8
  %agg.tmp38 = alloca %"class.std::basic_string_view", align 8
  %agg.tmp39 = alloca %"class.std::basic_string_view", align 8
  %agg.tmp40 = alloca %"class.std::basic_string_view", align 8
  %agg.tmp41 = alloca %"class.std::basic_string_view", align 8
  %agg.tmp42 = alloca %"class.std::basic_string_view", align 8
  %agg.tmp43 = alloca %"class.std::basic_string_view", align 8
  %agg.tmp44 = alloca %"class.std::basic_string_view", align 8
  %agg.tmp45 = alloca %"class.std::basic_string_view", align 8
  %agg.tmp46 = alloca %"class.std::basic_string_view", align 8
  %agg.tmp47 = alloca %"class.std::basic_string_view", align 8
  %agg.tmp48 = alloca %"class.std::basic_string_view", align 8
  %agg.tmp49 = alloca %"class.std::basic_string_view", align 8
  %agg.tmp50 = alloca %"class.std::basic_string_view", align 8
  %agg.tmp51 = alloca %"class.std::basic_string_view", align 8
  %agg.tmp52 = alloca %"class.std::basic_string_view", align 8
  %agg.tmp53 = alloca %"class.std::basic_string_view", align 8
  %agg.tmp54 = alloca %"class.std::basic_string_view", align 8
  %agg.tmp55 = alloca %"class.std::basic_string_view", align 8
  %agg.tmp56 = alloca %"class.std::basic_string_view", align 8
  %agg.tmp57 = alloca %"class.std::basic_string_view", align 8
  %agg.tmp58 = alloca %"class.std::basic_string_view", align 8
  %agg.tmp59 = alloca %"class.std::basic_string_view", align 8
  %agg.tmp60 = alloca %"class.std::basic_string_view", align 8
  %agg.tmp61 = alloca %"class.std::basic_string_view", align 8
  %agg.tmp62 = alloca %"class.std::basic_string_view", align 8
  %agg.tmp63 = alloca %"class.std::basic_string_view", align 8
  %agg.tmp64 = alloca %"class.std::basic_string_view", align 8
  %agg.tmp65 = alloca %"class.std::basic_string_view", align 8
  %agg.tmp66 = alloca %"class.std::basic_string_view", align 8
  %agg.tmp67 = alloca %"class.std::basic_string_view", align 8
  %agg.tmp68 = alloca %"class.std::basic_string_view", align 8
  %agg.tmp69 = alloca %"class.std::basic_string_view", align 8
  %agg.tmp70 = alloca %"class.std::basic_string_view", align 8
  %agg.tmp71 = alloca %"class.std::basic_string_view", align 8
  %agg.tmp72 = alloca %"class.std::basic_string_view", align 8
  %agg.tmp73 = alloca %"class.std::basic_string_view", align 8
  %agg.tmp74 = alloca %"class.std::basic_string_view", align 8
  %agg.tmp75 = alloca %"class.std::basic_string_view", align 8
  %agg.tmp76 = alloca %"class.std::basic_string_view", align 8
  %agg.tmp77 = alloca %"class.std::basic_string_view", align 8
  %agg.tmp78 = alloca %"class.std::basic_string_view", align 8
  %agg.tmp79 = alloca %"class.std::basic_string_view", align 8
  %agg.tmp80 = alloca %"class.std::basic_string_view", align 8
  %agg.tmp81 = alloca %"class.std::basic_string_view", align 8
  %agg.tmp82 = alloca %"class.std::basic_string_view", align 8
  %agg.tmp83 = alloca %"class.std::basic_string_view", align 8
  %agg.tmp84 = alloca %"class.std::basic_string_view", align 8
  %agg.tmp85 = alloca %"class.std::basic_string_view", align 8
  %agg.tmp86 = alloca %"class.std::basic_string_view", align 8
  %agg.tmp87 = alloca %"class.std::basic_string_view", align 8
  %agg.tmp88 = alloca %"class.std::basic_string_view", align 8
  %agg.tmp89 = alloca %"class.std::basic_string_view", align 8
  %agg.tmp90 = alloca %"class.std::basic_string_view", align 8
  %agg.tmp91 = alloca %"class.std::basic_string_view", align 8
  %agg.tmp92 = alloca %"class.std::basic_string_view", align 8
  %agg.tmp93 = alloca %"class.std::basic_string_view", align 8
  %agg.tmp94 = alloca %"class.std::basic_string_view", align 8
  %agg.tmp95 = alloca %"class.std::basic_string_view", align 8
  %agg.tmp96 = alloca %"class.std::basic_string_view", align 8
  %agg.tmp97 = alloca %"class.std::basic_string_view", align 8
  %agg.tmp98 = alloca %"class.std::basic_string_view", align 8
  %agg.tmp99 = alloca %"class.std::basic_string_view", align 8
  %agg.tmp100 = alloca %"class.std::basic_string_view", align 8
  %agg.tmp101 = alloca %"class.std::basic_string_view", align 8
  %agg.tmp102 = alloca %"class.std::basic_string_view", align 8
  %agg.tmp103 = alloca %"class.std::basic_string_view", align 8
  %agg.tmp104 = alloca %"class.std::basic_string_view", align 8
  %agg.tmp105 = alloca %"class.std::basic_string_view", align 8
  %agg.tmp106 = alloca %"class.std::basic_string_view", align 8
  %agg.tmp107 = alloca %"class.std::basic_string_view", align 8
  %agg.tmp108 = alloca %"class.std::basic_string_view", align 8
  %agg.tmp109 = alloca %"class.std::basic_string_view", align 8
  %agg.tmp110 = alloca %"class.std::basic_string_view", align 8
  %agg.tmp111 = alloca %"class.std::basic_string_view", align 8
  %agg.tmp112 = alloca %"class.std::basic_string_view", align 8
  %agg.tmp113 = alloca %"class.std::basic_string_view", align 8
  %agg.tmp114 = alloca %"class.std::basic_string_view", align 8
  %agg.tmp115 = alloca %"class.std::basic_string_view", align 8
  %agg.tmp116 = alloca %"class.std::basic_string_view", align 8
  %agg.tmp117 = alloca %"class.std::basic_string_view", align 8
  %agg.tmp118 = alloca %"class.std::basic_string_view", align 8
  %agg.tmp119 = alloca %"class.std::basic_string_view", align 8
  %agg.tmp120 = alloca %"class.std::basic_string_view", align 8
  %agg.tmp121 = alloca %"class.std::basic_string_view", align 8
  %agg.tmp122 = alloca %"class.std::basic_string_view", align 8
  %agg.tmp123 = alloca %"class.std::basic_string_view", align 8
  %agg.tmp124 = alloca %"class.std::basic_string_view", align 8
  %agg.tmp125 = alloca %"class.std::basic_string_view", align 8
  %agg.tmp126 = alloca %"class.std::basic_string_view", align 8
  %agg.tmp127 = alloca %"class.std::basic_string_view", align 8
  %agg.tmp128 = alloca %"class.std::basic_string_view", align 8
  %agg.tmp129 = alloca %"class.std::basic_string_view", align 8
  %agg.tmp130 = alloca %"class.std::basic_string_view", align 8
  %agg.tmp131 = alloca %"class.std::basic_string_view", align 8
  %agg.tmp132 = alloca %"class.std::basic_string_view", align 8
  %agg.tmp133 = alloca %"class.std::basic_string_view", align 8
  %agg.tmp134 = alloca %"class.std::basic_string_view", align 8
  %agg.tmp135 = alloca %"class.std::basic_string_view", align 8
  %agg.tmp136 = alloca %"class.std::basic_string_view", align 8
  store ptr %this, ptr %this.addr, align 8
  call void @_ZNSt17basic_string_viewIcSt11char_traitsIcEEC2EPKc(ptr noundef nonnull align 8 dereferenceable(16) %agg.tmp, ptr noundef @.str.34) #3
  %0 = getelementptr inbounds { i64, ptr }, ptr %agg.tmp, i32 0, i32 0
  %1 = load i64, ptr %0, align 8
  %2 = getelementptr inbounds { i64, ptr }, ptr %agg.tmp, i32 0, i32 1
  %3 = load ptr, ptr %2, align 8
  call void @_ZN12_GLOBAL__N_115TestDoubleParseESt17basic_string_viewIcSt11char_traitsIcEEd(i64 %1, ptr %3, double noundef 5.000000e+125)
  call void @_ZNSt17basic_string_viewIcSt11char_traitsIcEEC2EPKc(ptr noundef nonnull align 8 dereferenceable(16) %agg.tmp2, ptr noundef @.str.35) #3
  %4 = getelementptr inbounds { i64, ptr }, ptr %agg.tmp2, i32 0, i32 0
  %5 = load i64, ptr %4, align 8
  %6 = getelementptr inbounds { i64, ptr }, ptr %agg.tmp2, i32 0, i32 1
  %7 = load ptr, ptr %6, align 8
  call void @_ZN12_GLOBAL__N_115TestDoubleParseESt17basic_string_viewIcSt11char_traitsIcEEd(i64 %5, ptr %7, double noundef -5.000000e+125)
  call void @_ZNSt17basic_string_viewIcSt11char_traitsIcEEC2EPKc(ptr noundef nonnull align 8 dereferenceable(16) %agg.tmp3, ptr noundef @.str.36) #3
  %8 = getelementptr inbounds { i64, ptr }, ptr %agg.tmp3, i32 0, i32 0
  %9 = load i64, ptr %8, align 8
  %10 = getelementptr inbounds { i64, ptr }, ptr %agg.tmp3, i32 0, i32 1
  %11 = load ptr, ptr %10, align 8
  call void @_ZN12_GLOBAL__N_115TestDoubleParseESt17basic_string_viewIcSt11char_traitsIcEEd(i64 %9, ptr %11, double noundef 0x77C0B7CB60C994DA)
  call void @_ZNSt17basic_string_viewIcSt11char_traitsIcEEC2EPKc(ptr noundef nonnull align 8 dereferenceable(16) %agg.tmp4, ptr noundef @.str.37) #3
  %12 = getelementptr inbounds { i64, ptr }, ptr %agg.tmp4, i32 0, i32 0
  %13 = load i64, ptr %12, align 8
  %14 = getelementptr inbounds { i64, ptr }, ptr %agg.tmp4, i32 0, i32 1
  %15 = load ptr, ptr %14, align 8
  call void @_ZN12_GLOBAL__N_115TestDoubleParseESt17basic_string_viewIcSt11char_traitsIcEEd(i64 %13, ptr %15, double noundef 0xF7C0B7CB60C994DA)
  call void @_ZNSt17basic_string_viewIcSt11char_traitsIcEEC2EPKc(ptr noundef nonnull align 8 dereferenceable(16) %agg.tmp5, ptr noundef @.str.38) #3
  %16 = getelementptr inbounds { i64, ptr }, ptr %agg.tmp5, i32 0, i32 0
  %17 = load i64, ptr %16, align 8
  %18 = getelementptr inbounds { i64, ptr }, ptr %agg.tmp5, i32 0, i32 1
  %19 = load ptr, ptr %18, align 8
  call void @_ZN12_GLOBAL__N_115TestDoubleParseESt17basic_string_viewIcSt11char_traitsIcEEd(i64 %17, ptr %19, double noundef 0x3B282782AFE1869E)
  call void @_ZNSt17basic_string_viewIcSt11char_traitsIcEEC2EPKc(ptr noundef nonnull align 8 dereferenceable(16) %agg.tmp6, ptr noundef @.str.39) #3
  %20 = getelementptr inbounds { i64, ptr }, ptr %agg.tmp6, i32 0, i32 0
  %21 = load i64, ptr %20, align 8
  %22 = getelementptr inbounds { i64, ptr }, ptr %agg.tmp6, i32 0, i32 1
  %23 = load ptr, ptr %22, align 8
  call void @_ZN12_GLOBAL__N_115TestDoubleParseESt17basic_string_viewIcSt11char_traitsIcEEd(i64 %21, ptr %23, double noundef 0xBB282782AFE1869E)
  call void @_ZNSt17basic_string_viewIcSt11char_traitsIcEEC2EPKc(ptr noundef nonnull align 8 dereferenceable(16) %agg.tmp7, ptr noundef @.str.40) #3
  %24 = getelementptr inbounds { i64, ptr }, ptr %agg.tmp7, i32 0, i32 0
  %25 = load i64, ptr %24, align 8
  %26 = getelementptr inbounds { i64, ptr }, ptr %agg.tmp7, i32 0, i32 1
  %27 = load ptr, ptr %26, align 8
  call void @_ZN12_GLOBAL__N_115TestDoubleParseESt17basic_string_viewIcSt11char_traitsIcEEd(i64 %25, ptr %27, double noundef 0x39AFE3544145E9D8)
  call void @_ZNSt17basic_string_viewIcSt11char_traitsIcEEC2EPKc(ptr noundef nonnull align 8 dereferenceable(16) %agg.tmp8, ptr noundef @.str.41) #3
  %28 = getelementptr inbounds { i64, ptr }, ptr %agg.tmp8, i32 0, i32 0
  %29 = load i64, ptr %28, align 8
  %30 = getelementptr inbounds { i64, ptr }, ptr %agg.tmp8, i32 0, i32 1
  %31 = load ptr, ptr %30, align 8
  call void @_ZN12_GLOBAL__N_115TestDoubleParseESt17basic_string_viewIcSt11char_traitsIcEEd(i64 %29, ptr %31, double noundef 0xB9AFE3544145E9D8)
  call void @_ZNSt17basic_string_viewIcSt11char_traitsIcEEC2EPKc(ptr noundef nonnull align 8 dereferenceable(16) %agg.tmp9, ptr noundef @.str.42) #3
  %32 = getelementptr inbounds { i64, ptr }, ptr %agg.tmp9, i32 0, i32 0
  %33 = load i64, ptr %32, align 8
  %34 = getelementptr inbounds { i64, ptr }, ptr %agg.tmp9, i32 0, i32 1
  %35 = load ptr, ptr %34, align 8
  call void @_ZN12_GLOBAL__N_115TestDoubleParseESt17basic_string_viewIcSt11char_traitsIcEEd(i64 %33, ptr %35, double noundef 7.556900e-250)
  call void @_ZNSt17basic_string_viewIcSt11char_traitsIcEEC2EPKc(ptr noundef nonnull align 8 dereferenceable(16) %agg.tmp10, ptr noundef @.str.43) #3
  %36 = getelementptr inbounds { i64, ptr }, ptr %agg.tmp10, i32 0, i32 0
  %37 = load i64, ptr %36, align 8
  %38 = getelementptr inbounds { i64, ptr }, ptr %agg.tmp10, i32 0, i32 1
  %39 = load ptr, ptr %38, align 8
  call void @_ZN12_GLOBAL__N_115TestDoubleParseESt17basic_string_viewIcSt11char_traitsIcEEd(i64 %37, ptr %39, double noundef -7.556900e-250)
  call void @_ZNSt17basic_string_viewIcSt11char_traitsIcEEC2EPKc(ptr noundef nonnull align 8 dereferenceable(16) %agg.tmp11, ptr noundef @.str.44) #3
  %40 = getelementptr inbounds { i64, ptr }, ptr %agg.tmp11, i32 0, i32 0
  %41 = load i64, ptr %40, align 8
  %42 = getelementptr inbounds { i64, ptr }, ptr %agg.tmp11, i32 0, i32 1
  %43 = load ptr, ptr %42, align 8
  call void @_ZN12_GLOBAL__N_115TestDoubleParseESt17basic_string_viewIcSt11char_traitsIcEEd(i64 %41, ptr %43, double noundef 0xAFBE2DD66200BEF)
  call void @_ZNSt17basic_string_viewIcSt11char_traitsIcEEC2EPKc(ptr noundef nonnull align 8 dereferenceable(16) %agg.tmp12, ptr noundef @.str.45) #3
  %44 = getelementptr inbounds { i64, ptr }, ptr %agg.tmp12, i32 0, i32 0
  %45 = load i64, ptr %44, align 8
  %46 = getelementptr inbounds { i64, ptr }, ptr %agg.tmp12, i32 0, i32 1
  %47 = load ptr, ptr %46, align 8
  call void @_ZN12_GLOBAL__N_115TestDoubleParseESt17basic_string_viewIcSt11char_traitsIcEEd(i64 %45, ptr %47, double noundef 0x8AFBE2DD66200BEF)
  call void @_ZNSt17basic_string_viewIcSt11char_traitsIcEEC2EPKc(ptr noundef nonnull align 8 dereferenceable(16) %agg.tmp13, ptr noundef @.str.46) #3
  %48 = getelementptr inbounds { i64, ptr }, ptr %agg.tmp13, i32 0, i32 0
  %49 = load i64, ptr %48, align 8
  %50 = getelementptr inbounds { i64, ptr }, ptr %agg.tmp13, i32 0, i32 1
  %51 = load ptr, ptr %50, align 8
  call void @_ZN12_GLOBAL__N_115TestDoubleParseESt17basic_string_viewIcSt11char_traitsIcEEd(i64 %49, ptr %51, double noundef 0x51FDA232347E6032)
  call void @_ZNSt17basic_string_viewIcSt11char_traitsIcEEC2EPKc(ptr noundef nonnull align 8 dereferenceable(16) %agg.tmp14, ptr noundef @.str.47) #3
  %52 = getelementptr inbounds { i64, ptr }, ptr %agg.tmp14, i32 0, i32 0
  %53 = load i64, ptr %52, align 8
  %54 = getelementptr inbounds { i64, ptr }, ptr %agg.tmp14, i32 0, i32 1
  %55 = load ptr, ptr %54, align 8
  call void @_ZN12_GLOBAL__N_115TestDoubleParseESt17basic_string_viewIcSt11char_traitsIcEEd(i64 %53, ptr %55, double noundef 0xD1FDA232347E6032)
  call void @_ZNSt17basic_string_viewIcSt11char_traitsIcEEC2EPKc(ptr noundef nonnull align 8 dereferenceable(16) %agg.tmp15, ptr noundef @.str.48) #3
  %56 = getelementptr inbounds { i64, ptr }, ptr %agg.tmp15, i32 0, i32 0
  %57 = load i64, ptr %56, align 8
  %58 = getelementptr inbounds { i64, ptr }, ptr %agg.tmp15, i32 0, i32 1
  %59 = load ptr, ptr %58, align 8
  call void @_ZN12_GLOBAL__N_115TestDoubleParseESt17basic_string_viewIcSt11char_traitsIcEEd(i64 %57, ptr %59, double noundef 0x59406E98F5EC8F37)
  call void @_ZNSt17basic_string_viewIcSt11char_traitsIcEEC2EPKc(ptr noundef nonnull align 8 dereferenceable(16) %agg.tmp16, ptr noundef @.str.49) #3
  %60 = getelementptr inbounds { i64, ptr }, ptr %agg.tmp16, i32 0, i32 0
  %61 = load i64, ptr %60, align 8
  %62 = getelementptr inbounds { i64, ptr }, ptr %agg.tmp16, i32 0, i32 1
  %63 = load ptr, ptr %62, align 8
  call void @_ZN12_GLOBAL__N_115TestDoubleParseESt17basic_string_viewIcSt11char_traitsIcEEd(i64 %61, ptr %63, double noundef 0xD9406E98F5EC8F37)
  call void @_ZNSt17basic_string_viewIcSt11char_traitsIcEEC2EPKc(ptr noundef nonnull align 8 dereferenceable(16) %agg.tmp17, ptr noundef @.str.50) #3
  %64 = getelementptr inbounds { i64, ptr }, ptr %agg.tmp17, i32 0, i32 0
  %65 = load i64, ptr %64, align 8
  %66 = getelementptr inbounds { i64, ptr }, ptr %agg.tmp17, i32 0, i32 1
  %67 = load ptr, ptr %66, align 8
  call void @_ZN12_GLOBAL__N_115TestDoubleParseESt17basic_string_viewIcSt11char_traitsIcEEd(i64 %65, ptr %67, double noundef 0x7A720223F2B3A881)
  call void @_ZNSt17basic_string_viewIcSt11char_traitsIcEEC2EPKc(ptr noundef nonnull align 8 dereferenceable(16) %agg.tmp18, ptr noundef @.str.51) #3
  %68 = getelementptr inbounds { i64, ptr }, ptr %agg.tmp18, i32 0, i32 0
  %69 = load i64, ptr %68, align 8
  %70 = getelementptr inbounds { i64, ptr }, ptr %agg.tmp18, i32 0, i32 1
  %71 = load ptr, ptr %70, align 8
  call void @_ZN12_GLOBAL__N_115TestDoubleParseESt17basic_string_viewIcSt11char_traitsIcEEd(i64 %69, ptr %71, double noundef 0xFA720223F2B3A881)
  call void @_ZNSt17basic_string_viewIcSt11char_traitsIcEEC2EPKc(ptr noundef nonnull align 8 dereferenceable(16) %agg.tmp19, ptr noundef @.str.52) #3
  %72 = getelementptr inbounds { i64, ptr }, ptr %agg.tmp19, i32 0, i32 0
  %73 = load i64, ptr %72, align 8
  %74 = getelementptr inbounds { i64, ptr }, ptr %agg.tmp19, i32 0, i32 1
  %75 = load ptr, ptr %74, align 8
  call void @_ZN12_GLOBAL__N_115TestDoubleParseESt17basic_string_viewIcSt11char_traitsIcEEd(i64 %73, ptr %75, double noundef 0x41465B896C24520)
  call void @_ZNSt17basic_string_viewIcSt11char_traitsIcEEC2EPKc(ptr noundef nonnull align 8 dereferenceable(16) %agg.tmp20, ptr noundef @.str.53) #3
  %76 = getelementptr inbounds { i64, ptr }, ptr %agg.tmp20, i32 0, i32 0
  %77 = load i64, ptr %76, align 8
  %78 = getelementptr inbounds { i64, ptr }, ptr %agg.tmp20, i32 0, i32 1
  %79 = load ptr, ptr %78, align 8
  call void @_ZN12_GLOBAL__N_115TestDoubleParseESt17basic_string_viewIcSt11char_traitsIcEEd(i64 %77, ptr %79, double noundef 0x841465B896C24520)
  call void @_ZNSt17basic_string_viewIcSt11char_traitsIcEEC2EPKc(ptr noundef nonnull align 8 dereferenceable(16) %agg.tmp21, ptr noundef @.str.54) #3
  %80 = getelementptr inbounds { i64, ptr }, ptr %agg.tmp21, i32 0, i32 0
  %81 = load i64, ptr %80, align 8
  %82 = getelementptr inbounds { i64, ptr }, ptr %agg.tmp21, i32 0, i32 1
  %83 = load ptr, ptr %82, align 8
  call void @_ZN12_GLOBAL__N_115TestDoubleParseESt17basic_string_viewIcSt11char_traitsIcEEd(i64 %81, ptr %83, double noundef 0x2B77D41824D64FB2)
  call void @_ZNSt17basic_string_viewIcSt11char_traitsIcEEC2EPKc(ptr noundef nonnull align 8 dereferenceable(16) %agg.tmp22, ptr noundef @.str.55) #3
  %84 = getelementptr inbounds { i64, ptr }, ptr %agg.tmp22, i32 0, i32 0
  %85 = load i64, ptr %84, align 8
  %86 = getelementptr inbounds { i64, ptr }, ptr %agg.tmp22, i32 0, i32 1
  %87 = load ptr, ptr %86, align 8
  call void @_ZN12_GLOBAL__N_115TestDoubleParseESt17basic_string_viewIcSt11char_traitsIcEEd(i64 %85, ptr %87, double noundef 0xAB77D41824D64FB2)
  call void @_ZNSt17basic_string_viewIcSt11char_traitsIcEEC2EPKc(ptr noundef nonnull align 8 dereferenceable(16) %agg.tmp23, ptr noundef @.str.56) #3
  %88 = getelementptr inbounds { i64, ptr }, ptr %agg.tmp23, i32 0, i32 0
  %89 = load i64, ptr %88, align 8
  %90 = getelementptr inbounds { i64, ptr }, ptr %agg.tmp23, i32 0, i32 1
  %91 = load ptr, ptr %90, align 8
  call void @_ZN12_GLOBAL__N_115TestDoubleParseESt17basic_string_viewIcSt11char_traitsIcEEd(i64 %89, ptr %91, double noundef 0x28D925A0AABCDC68)
  call void @_ZNSt17basic_string_viewIcSt11char_traitsIcEEC2EPKc(ptr noundef nonnull align 8 dereferenceable(16) %agg.tmp24, ptr noundef @.str.57) #3
  %92 = getelementptr inbounds { i64, ptr }, ptr %agg.tmp24, i32 0, i32 0
  %93 = load i64, ptr %92, align 8
  %94 = getelementptr inbounds { i64, ptr }, ptr %agg.tmp24, i32 0, i32 1
  %95 = load ptr, ptr %94, align 8
  call void @_ZN12_GLOBAL__N_115TestDoubleParseESt17basic_string_viewIcSt11char_traitsIcEEd(i64 %93, ptr %95, double noundef 0xA8D925A0AABCDC68)
  call void @_ZNSt17basic_string_viewIcSt11char_traitsIcEEC2EPKc(ptr noundef nonnull align 8 dereferenceable(16) %agg.tmp25, ptr noundef @.str.58) #3
  %96 = getelementptr inbounds { i64, ptr }, ptr %agg.tmp25, i32 0, i32 0
  %97 = load i64, ptr %96, align 8
  %98 = getelementptr inbounds { i64, ptr }, ptr %agg.tmp25, i32 0, i32 1
  %99 = load ptr, ptr %98, align 8
  call void @_ZN12_GLOBAL__N_115TestDoubleParseESt17basic_string_viewIcSt11char_traitsIcEEd(i64 %97, ptr %99, double noundef 0x57D3409DFBCA26F)
  call void @_ZNSt17basic_string_viewIcSt11char_traitsIcEEC2EPKc(ptr noundef nonnull align 8 dereferenceable(16) %agg.tmp26, ptr noundef @.str.59) #3
  %100 = getelementptr inbounds { i64, ptr }, ptr %agg.tmp26, i32 0, i32 0
  %101 = load i64, ptr %100, align 8
  %102 = getelementptr inbounds { i64, ptr }, ptr %agg.tmp26, i32 0, i32 1
  %103 = load ptr, ptr %102, align 8
  call void @_ZN12_GLOBAL__N_115TestDoubleParseESt17basic_string_viewIcSt11char_traitsIcEEd(i64 %101, ptr %103, double noundef 0x857D3409DFBCA26F)
  call void @_ZNSt17basic_string_viewIcSt11char_traitsIcEEC2EPKc(ptr noundef nonnull align 8 dereferenceable(16) %agg.tmp27, ptr noundef @.str.60) #3
  %104 = getelementptr inbounds { i64, ptr }, ptr %agg.tmp27, i32 0, i32 0
  %105 = load i64, ptr %104, align 8
  %106 = getelementptr inbounds { i64, ptr }, ptr %agg.tmp27, i32 0, i32 1
  %107 = load ptr, ptr %106, align 8
  call void @_ZN12_GLOBAL__N_115TestDoubleParseESt17basic_string_viewIcSt11char_traitsIcEEd(i64 %105, ptr %107, double noundef 0x33D28F9EDFBD341F)
  call void @_ZNSt17basic_string_viewIcSt11char_traitsIcEEC2EPKc(ptr noundef nonnull align 8 dereferenceable(16) %agg.tmp28, ptr noundef @.str.61) #3
  %108 = getelementptr inbounds { i64, ptr }, ptr %agg.tmp28, i32 0, i32 0
  %109 = load i64, ptr %108, align 8
  %110 = getelementptr inbounds { i64, ptr }, ptr %agg.tmp28, i32 0, i32 1
  %111 = load ptr, ptr %110, align 8
  call void @_ZN12_GLOBAL__N_115TestDoubleParseESt17basic_string_viewIcSt11char_traitsIcEEd(i64 %109, ptr %111, double noundef 0xB3D28F9EDFBD341F)
  call void @_ZNSt17basic_string_viewIcSt11char_traitsIcEEC2EPKc(ptr noundef nonnull align 8 dereferenceable(16) %agg.tmp29, ptr noundef @.str.62) #3
  %112 = getelementptr inbounds { i64, ptr }, ptr %agg.tmp29, i32 0, i32 0
  %113 = load i64, ptr %112, align 8
  %114 = getelementptr inbounds { i64, ptr }, ptr %agg.tmp29, i32 0, i32 1
  %115 = load ptr, ptr %114, align 8
  call void @_ZN12_GLOBAL__N_115TestDoubleParseESt17basic_string_viewIcSt11char_traitsIcEEd(i64 %113, ptr %115, double noundef 0x33C28F9EDFBD341F)
  call void @_ZNSt17basic_string_viewIcSt11char_traitsIcEEC2EPKc(ptr noundef nonnull align 8 dereferenceable(16) %agg.tmp30, ptr noundef @.str.63) #3
  %116 = getelementptr inbounds { i64, ptr }, ptr %agg.tmp30, i32 0, i32 0
  %117 = load i64, ptr %116, align 8
  %118 = getelementptr inbounds { i64, ptr }, ptr %agg.tmp30, i32 0, i32 1
  %119 = load ptr, ptr %118, align 8
  call void @_ZN12_GLOBAL__N_115TestDoubleParseESt17basic_string_viewIcSt11char_traitsIcEEd(i64 %117, ptr %119, double noundef 0xB3C28F9EDFBD341F)
  call void @_ZNSt17basic_string_viewIcSt11char_traitsIcEEC2EPKc(ptr noundef nonnull align 8 dereferenceable(16) %agg.tmp31, ptr noundef @.str.64) #3
  %120 = getelementptr inbounds { i64, ptr }, ptr %agg.tmp31, i32 0, i32 0
  %121 = load i64, ptr %120, align 8
  %122 = getelementptr inbounds { i64, ptr }, ptr %agg.tmp31, i32 0, i32 1
  %123 = load ptr, ptr %122, align 8
  call void @_ZN12_GLOBAL__N_115TestDoubleParseESt17basic_string_viewIcSt11char_traitsIcEEd(i64 %121, ptr %123, double noundef 0x6F43AE60753AF6CA)
  call void @_ZNSt17basic_string_viewIcSt11char_traitsIcEEC2EPKc(ptr noundef nonnull align 8 dereferenceable(16) %agg.tmp32, ptr noundef @.str.65) #3
  %124 = getelementptr inbounds { i64, ptr }, ptr %agg.tmp32, i32 0, i32 0
  %125 = load i64, ptr %124, align 8
  %126 = getelementptr inbounds { i64, ptr }, ptr %agg.tmp32, i32 0, i32 1
  %127 = load ptr, ptr %126, align 8
  call void @_ZN12_GLOBAL__N_115TestDoubleParseESt17basic_string_viewIcSt11char_traitsIcEEd(i64 %125, ptr %127, double noundef 0xEF43AE60753AF6CA)
  call void @_ZNSt17basic_string_viewIcSt11char_traitsIcEEC2EPKc(ptr noundef nonnull align 8 dereferenceable(16) %agg.tmp33, ptr noundef @.str.66) #3
  %128 = getelementptr inbounds { i64, ptr }, ptr %agg.tmp33, i32 0, i32 0
  %129 = load i64, ptr %128, align 8
  %130 = getelementptr inbounds { i64, ptr }, ptr %agg.tmp33, i32 0, i32 1
  %131 = load ptr, ptr %130, align 8
  call void @_ZN12_GLOBAL__N_115TestDoubleParseESt17basic_string_viewIcSt11char_traitsIcEEd(i64 %129, ptr %131, double noundef 0x4D9DCD0089C1314E)
  call void @_ZNSt17basic_string_viewIcSt11char_traitsIcEEC2EPKc(ptr noundef nonnull align 8 dereferenceable(16) %agg.tmp34, ptr noundef @.str.67) #3
  %132 = getelementptr inbounds { i64, ptr }, ptr %agg.tmp34, i32 0, i32 0
  %133 = load i64, ptr %132, align 8
  %134 = getelementptr inbounds { i64, ptr }, ptr %agg.tmp34, i32 0, i32 1
  %135 = load ptr, ptr %134, align 8
  call void @_ZN12_GLOBAL__N_115TestDoubleParseESt17basic_string_viewIcSt11char_traitsIcEEd(i64 %133, ptr %135, double noundef 0xCD9DCD0089C1314E)
  call void @_ZNSt17basic_string_viewIcSt11char_traitsIcEEC2EPKc(ptr noundef nonnull align 8 dereferenceable(16) %agg.tmp35, ptr noundef @.str.68) #3
  %136 = getelementptr inbounds { i64, ptr }, ptr %agg.tmp35, i32 0, i32 0
  %137 = load i64, ptr %136, align 8
  %138 = getelementptr inbounds { i64, ptr }, ptr %agg.tmp35, i32 0, i32 1
  %139 = load ptr, ptr %138, align 8
  call void @_ZN12_GLOBAL__N_115TestDoubleParseESt17basic_string_viewIcSt11char_traitsIcEEd(i64 %137, ptr %139, double noundef 0x6D13BBB4BF05F087)
  call void @_ZNSt17basic_string_viewIcSt11char_traitsIcEEC2EPKc(ptr noundef nonnull align 8 dereferenceable(16) %agg.tmp36, ptr noundef @.str.69) #3
  %140 = getelementptr inbounds { i64, ptr }, ptr %agg.tmp36, i32 0, i32 0
  %141 = load i64, ptr %140, align 8
  %142 = getelementptr inbounds { i64, ptr }, ptr %agg.tmp36, i32 0, i32 1
  %143 = load ptr, ptr %142, align 8
  call void @_ZN12_GLOBAL__N_115TestDoubleParseESt17basic_string_viewIcSt11char_traitsIcEEd(i64 %141, ptr %143, double noundef 0xED13BBB4BF05F087)
  call void @_ZNSt17basic_string_viewIcSt11char_traitsIcEEC2EPKc(ptr noundef nonnull align 8 dereferenceable(16) %agg.tmp37, ptr noundef @.str.70) #3
  %144 = getelementptr inbounds { i64, ptr }, ptr %agg.tmp37, i32 0, i32 0
  %145 = load i64, ptr %144, align 8
  %146 = getelementptr inbounds { i64, ptr }, ptr %agg.tmp37, i32 0, i32 1
  %147 = load ptr, ptr %146, align 8
  call void @_ZN12_GLOBAL__N_115TestDoubleParseESt17basic_string_viewIcSt11char_traitsIcEEd(i64 %145, ptr %147, double noundef 0x6CF3BBB4BF05F087)
  call void @_ZNSt17basic_string_viewIcSt11char_traitsIcEEC2EPKc(ptr noundef nonnull align 8 dereferenceable(16) %agg.tmp38, ptr noundef @.str.71) #3
  %148 = getelementptr inbounds { i64, ptr }, ptr %agg.tmp38, i32 0, i32 0
  %149 = load i64, ptr %148, align 8
  %150 = getelementptr inbounds { i64, ptr }, ptr %agg.tmp38, i32 0, i32 1
  %151 = load ptr, ptr %150, align 8
  call void @_ZN12_GLOBAL__N_115TestDoubleParseESt17basic_string_viewIcSt11char_traitsIcEEd(i64 %149, ptr %151, double noundef 0xECF3BBB4BF05F087)
  call void @_ZNSt17basic_string_viewIcSt11char_traitsIcEEC2EPKc(ptr noundef nonnull align 8 dereferenceable(16) %agg.tmp39, ptr noundef @.str.72) #3
  %152 = getelementptr inbounds { i64, ptr }, ptr %agg.tmp39, i32 0, i32 0
  %153 = load i64, ptr %152, align 8
  %154 = getelementptr inbounds { i64, ptr }, ptr %agg.tmp39, i32 0, i32 1
  %155 = load ptr, ptr %154, align 8
  call void @_ZN12_GLOBAL__N_115TestDoubleParseESt17basic_string_viewIcSt11char_traitsIcEEd(i64 %153, ptr %155, double noundef 0x161012954B6AABBA)
  call void @_ZNSt17basic_string_viewIcSt11char_traitsIcEEC2EPKc(ptr noundef nonnull align 8 dereferenceable(16) %agg.tmp40, ptr noundef @.str.73) #3
  %156 = getelementptr inbounds { i64, ptr }, ptr %agg.tmp40, i32 0, i32 0
  %157 = load i64, ptr %156, align 8
  %158 = getelementptr inbounds { i64, ptr }, ptr %agg.tmp40, i32 0, i32 1
  %159 = load ptr, ptr %158, align 8
  call void @_ZN12_GLOBAL__N_115TestDoubleParseESt17basic_string_viewIcSt11char_traitsIcEEd(i64 %157, ptr %159, double noundef 0x961012954B6AABBA)
  call void @_ZNSt17basic_string_viewIcSt11char_traitsIcEEC2EPKc(ptr noundef nonnull align 8 dereferenceable(16) %agg.tmp41, ptr noundef @.str.74) #3
  %160 = getelementptr inbounds { i64, ptr }, ptr %agg.tmp41, i32 0, i32 0
  %161 = load i64, ptr %160, align 8
  %162 = getelementptr inbounds { i64, ptr }, ptr %agg.tmp41, i32 0, i32 1
  %163 = load ptr, ptr %162, align 8
  call void @_ZN12_GLOBAL__N_115TestDoubleParseESt17basic_string_viewIcSt11char_traitsIcEEd(i64 %161, ptr %163, double noundef 0x13B20403A628A9CA)
  call void @_ZNSt17basic_string_viewIcSt11char_traitsIcEEC2EPKc(ptr noundef nonnull align 8 dereferenceable(16) %agg.tmp42, ptr noundef @.str.75) #3
  %164 = getelementptr inbounds { i64, ptr }, ptr %agg.tmp42, i32 0, i32 0
  %165 = load i64, ptr %164, align 8
  %166 = getelementptr inbounds { i64, ptr }, ptr %agg.tmp42, i32 0, i32 1
  %167 = load ptr, ptr %166, align 8
  call void @_ZN12_GLOBAL__N_115TestDoubleParseESt17basic_string_viewIcSt11char_traitsIcEEd(i64 %165, ptr %167, double noundef 0x93B20403A628A9CA)
  call void @_ZNSt17basic_string_viewIcSt11char_traitsIcEEC2EPKc(ptr noundef nonnull align 8 dereferenceable(16) %agg.tmp43, ptr noundef @.str.76) #3
  %168 = getelementptr inbounds { i64, ptr }, ptr %agg.tmp43, i32 0, i32 0
  %169 = load i64, ptr %168, align 8
  %170 = getelementptr inbounds { i64, ptr }, ptr %agg.tmp43, i32 0, i32 1
  %171 = load ptr, ptr %170, align 8
  call void @_ZN12_GLOBAL__N_115TestDoubleParseESt17basic_string_viewIcSt11char_traitsIcEEd(i64 %169, ptr %171, double noundef 0x7286ECAF7694A3C7)
  call void @_ZNSt17basic_string_viewIcSt11char_traitsIcEEC2EPKc(ptr noundef nonnull align 8 dereferenceable(16) %agg.tmp44, ptr noundef @.str.77) #3
  %172 = getelementptr inbounds { i64, ptr }, ptr %agg.tmp44, i32 0, i32 0
  %173 = load i64, ptr %172, align 8
  %174 = getelementptr inbounds { i64, ptr }, ptr %agg.tmp44, i32 0, i32 1
  %175 = load ptr, ptr %174, align 8
  call void @_ZN12_GLOBAL__N_115TestDoubleParseESt17basic_string_viewIcSt11char_traitsIcEEd(i64 %173, ptr %175, double noundef 0xF286ECAF7694A3C7)
  call void @_ZNSt17basic_string_viewIcSt11char_traitsIcEEC2EPKc(ptr noundef nonnull align 8 dereferenceable(16) %agg.tmp45, ptr noundef @.str.78) #3
  %176 = getelementptr inbounds { i64, ptr }, ptr %agg.tmp45, i32 0, i32 0
  %177 = load i64, ptr %176, align 8
  %178 = getelementptr inbounds { i64, ptr }, ptr %agg.tmp45, i32 0, i32 1
  %179 = load ptr, ptr %178, align 8
  call void @_ZN12_GLOBAL__N_114TestFloatParseESt17basic_string_viewIcSt11char_traitsIcEEf(i64 %177, ptr %179, float noundef 0x3BED83C940000000)
  call void @_ZNSt17basic_string_viewIcSt11char_traitsIcEEC2EPKc(ptr noundef nonnull align 8 dereferenceable(16) %agg.tmp46, ptr noundef @.str.79) #3
  %180 = getelementptr inbounds { i64, ptr }, ptr %agg.tmp46, i32 0, i32 0
  %181 = load i64, ptr %180, align 8
  %182 = getelementptr inbounds { i64, ptr }, ptr %agg.tmp46, i32 0, i32 1
  %183 = load ptr, ptr %182, align 8
  call void @_ZN12_GLOBAL__N_114TestFloatParseESt17basic_string_viewIcSt11char_traitsIcEEf(i64 %181, ptr %183, float noundef 0xBBED83C940000000)
  call void @_ZNSt17basic_string_viewIcSt11char_traitsIcEEC2EPKc(ptr noundef nonnull align 8 dereferenceable(16) %agg.tmp47, ptr noundef @.str.80) #3
  %184 = getelementptr inbounds { i64, ptr }, ptr %agg.tmp47, i32 0, i32 0
  %185 = load i64, ptr %184, align 8
  %186 = getelementptr inbounds { i64, ptr }, ptr %agg.tmp47, i32 0, i32 1
  %187 = load ptr, ptr %186, align 8
  call void @_ZN12_GLOBAL__N_114TestFloatParseESt17basic_string_viewIcSt11char_traitsIcEEf(i64 %185, ptr %187, float noundef 0x4337CD9D40000000)
  call void @_ZNSt17basic_string_viewIcSt11char_traitsIcEEC2EPKc(ptr noundef nonnull align 8 dereferenceable(16) %agg.tmp48, ptr noundef @.str.81) #3
  %188 = getelementptr inbounds { i64, ptr }, ptr %agg.tmp48, i32 0, i32 0
  %189 = load i64, ptr %188, align 8
  %190 = getelementptr inbounds { i64, ptr }, ptr %agg.tmp48, i32 0, i32 1
  %191 = load ptr, ptr %190, align 8
  call void @_ZN12_GLOBAL__N_114TestFloatParseESt17basic_string_viewIcSt11char_traitsIcEEf(i64 %189, ptr %191, float noundef 0xC337CD9D40000000)
  call void @_ZNSt17basic_string_viewIcSt11char_traitsIcEEC2EPKc(ptr noundef nonnull align 8 dereferenceable(16) %agg.tmp49, ptr noundef @.str.82) #3
  %192 = getelementptr inbounds { i64, ptr }, ptr %agg.tmp49, i32 0, i32 0
  %193 = load i64, ptr %192, align 8
  %194 = getelementptr inbounds { i64, ptr }, ptr %agg.tmp49, i32 0, i32 1
  %195 = load ptr, ptr %194, align 8
  call void @_ZN12_GLOBAL__N_114TestFloatParseESt17basic_string_viewIcSt11char_traitsIcEEf(i64 %193, ptr %195, float noundef 0x43AB56D880000000)
  call void @_ZNSt17basic_string_viewIcSt11char_traitsIcEEC2EPKc(ptr noundef nonnull align 8 dereferenceable(16) %agg.tmp50, ptr noundef @.str.83) #3
  %196 = getelementptr inbounds { i64, ptr }, ptr %agg.tmp50, i32 0, i32 0
  %197 = load i64, ptr %196, align 8
  %198 = getelementptr inbounds { i64, ptr }, ptr %agg.tmp50, i32 0, i32 1
  %199 = load ptr, ptr %198, align 8
  call void @_ZN12_GLOBAL__N_114TestFloatParseESt17basic_string_viewIcSt11char_traitsIcEEf(i64 %197, ptr %199, float noundef 0xC3AB56D880000000)
  call void @_ZNSt17basic_string_viewIcSt11char_traitsIcEEC2EPKc(ptr noundef nonnull align 8 dereferenceable(16) %agg.tmp51, ptr noundef @.str.84) #3
  %200 = getelementptr inbounds { i64, ptr }, ptr %agg.tmp51, i32 0, i32 0
  %201 = load i64, ptr %200, align 8
  %202 = getelementptr inbounds { i64, ptr }, ptr %agg.tmp51, i32 0, i32 1
  %203 = load ptr, ptr %202, align 8
  call void @_ZN12_GLOBAL__N_114TestFloatParseESt17basic_string_viewIcSt11char_traitsIcEEf(i64 %201, ptr %203, float noundef 0x3804F13D00000000)
  call void @_ZNSt17basic_string_viewIcSt11char_traitsIcEEC2EPKc(ptr noundef nonnull align 8 dereferenceable(16) %agg.tmp52, ptr noundef @.str.85) #3
  %204 = getelementptr inbounds { i64, ptr }, ptr %agg.tmp52, i32 0, i32 0
  %205 = load i64, ptr %204, align 8
  %206 = getelementptr inbounds { i64, ptr }, ptr %agg.tmp52, i32 0, i32 1
  %207 = load ptr, ptr %206, align 8
  call void @_ZN12_GLOBAL__N_114TestFloatParseESt17basic_string_viewIcSt11char_traitsIcEEf(i64 %205, ptr %207, float noundef 0xB804F13D00000000)
  call void @_ZNSt17basic_string_viewIcSt11char_traitsIcEEC2EPKc(ptr noundef nonnull align 8 dereferenceable(16) %agg.tmp53, ptr noundef @.str.86) #3
  %208 = getelementptr inbounds { i64, ptr }, ptr %agg.tmp53, i32 0, i32 0
  %209 = load i64, ptr %208, align 8
  %210 = getelementptr inbounds { i64, ptr }, ptr %agg.tmp53, i32 0, i32 1
  %211 = load ptr, ptr %210, align 8
  call void @_ZN12_GLOBAL__N_114TestFloatParseESt17basic_string_viewIcSt11char_traitsIcEEf(i64 %209, ptr %211, float noundef 0x3D989537A0000000)
  call void @_ZNSt17basic_string_viewIcSt11char_traitsIcEEC2EPKc(ptr noundef nonnull align 8 dereferenceable(16) %agg.tmp54, ptr noundef @.str.87) #3
  %212 = getelementptr inbounds { i64, ptr }, ptr %agg.tmp54, i32 0, i32 0
  %213 = load i64, ptr %212, align 8
  %214 = getelementptr inbounds { i64, ptr }, ptr %agg.tmp54, i32 0, i32 1
  %215 = load ptr, ptr %214, align 8
  call void @_ZN12_GLOBAL__N_114TestFloatParseESt17basic_string_viewIcSt11char_traitsIcEEf(i64 %213, ptr %215, float noundef 0xBD989537A0000000)
  call void @_ZNSt17basic_string_viewIcSt11char_traitsIcEEC2EPKc(ptr noundef nonnull align 8 dereferenceable(16) %agg.tmp55, ptr noundef @.str.88) #3
  %216 = getelementptr inbounds { i64, ptr }, ptr %agg.tmp55, i32 0, i32 0
  %217 = load i64, ptr %216, align 8
  %218 = getelementptr inbounds { i64, ptr }, ptr %agg.tmp55, i32 0, i32 1
  %219 = load ptr, ptr %218, align 8
  call void @_ZN12_GLOBAL__N_114TestFloatParseESt17basic_string_viewIcSt11char_traitsIcEEf(i64 %217, ptr %219, float noundef 0x380B217100000000)
  call void @_ZNSt17basic_string_viewIcSt11char_traitsIcEEC2EPKc(ptr noundef nonnull align 8 dereferenceable(16) %agg.tmp56, ptr noundef @.str.89) #3
  %220 = getelementptr inbounds { i64, ptr }, ptr %agg.tmp56, i32 0, i32 0
  %221 = load i64, ptr %220, align 8
  %222 = getelementptr inbounds { i64, ptr }, ptr %agg.tmp56, i32 0, i32 1
  %223 = load ptr, ptr %222, align 8
  call void @_ZN12_GLOBAL__N_114TestFloatParseESt17basic_string_viewIcSt11char_traitsIcEEf(i64 %221, ptr %223, float noundef 0xB80B217100000000)
  call void @_ZNSt17basic_string_viewIcSt11char_traitsIcEEC2EPKc(ptr noundef nonnull align 8 dereferenceable(16) %agg.tmp57, ptr noundef @.str.90) #3
  %224 = getelementptr inbounds { i64, ptr }, ptr %agg.tmp57, i32 0, i32 0
  %225 = load i64, ptr %224, align 8
  %226 = getelementptr inbounds { i64, ptr }, ptr %agg.tmp57, i32 0, i32 1
  %227 = load ptr, ptr %226, align 8
  call void @_ZN12_GLOBAL__N_114TestFloatParseESt17basic_string_viewIcSt11char_traitsIcEEf(i64 %225, ptr %227, float noundef 0x3AB5C87FA0000000)
  call void @_ZNSt17basic_string_viewIcSt11char_traitsIcEEC2EPKc(ptr noundef nonnull align 8 dereferenceable(16) %agg.tmp58, ptr noundef @.str.91) #3
  %228 = getelementptr inbounds { i64, ptr }, ptr %agg.tmp58, i32 0, i32 0
  %229 = load i64, ptr %228, align 8
  %230 = getelementptr inbounds { i64, ptr }, ptr %agg.tmp58, i32 0, i32 1
  %231 = load ptr, ptr %230, align 8
  call void @_ZN12_GLOBAL__N_114TestFloatParseESt17basic_string_viewIcSt11char_traitsIcEEf(i64 %229, ptr %231, float noundef 0xBAB5C87FA0000000)
  call void @_ZNSt17basic_string_viewIcSt11char_traitsIcEEC2EPKc(ptr noundef nonnull align 8 dereferenceable(16) %agg.tmp59, ptr noundef @.str.92) #3
  %232 = getelementptr inbounds { i64, ptr }, ptr %agg.tmp59, i32 0, i32 0
  %233 = load i64, ptr %232, align 8
  %234 = getelementptr inbounds { i64, ptr }, ptr %agg.tmp59, i32 0, i32 1
  %235 = load ptr, ptr %234, align 8
  call void @_ZN12_GLOBAL__N_114TestFloatParseESt17basic_string_viewIcSt11char_traitsIcEEf(i64 %233, ptr %235, float noundef 0x3800729D80000000)
  call void @_ZNSt17basic_string_viewIcSt11char_traitsIcEEC2EPKc(ptr noundef nonnull align 8 dereferenceable(16) %agg.tmp60, ptr noundef @.str.93) #3
  %236 = getelementptr inbounds { i64, ptr }, ptr %agg.tmp60, i32 0, i32 0
  %237 = load i64, ptr %236, align 8
  %238 = getelementptr inbounds { i64, ptr }, ptr %agg.tmp60, i32 0, i32 1
  %239 = load ptr, ptr %238, align 8
  call void @_ZN12_GLOBAL__N_114TestFloatParseESt17basic_string_viewIcSt11char_traitsIcEEf(i64 %237, ptr %239, float noundef 0xB800729D80000000)
  call void @_ZNSt17basic_string_viewIcSt11char_traitsIcEEC2EPKc(ptr noundef nonnull align 8 dereferenceable(16) %agg.tmp61, ptr noundef @.str.94) #3
  %240 = getelementptr inbounds { i64, ptr }, ptr %agg.tmp61, i32 0, i32 0
  %241 = load i64, ptr %240, align 8
  %242 = getelementptr inbounds { i64, ptr }, ptr %agg.tmp61, i32 0, i32 1
  %243 = load ptr, ptr %242, align 8
  call void @_ZN12_GLOBAL__N_114TestFloatParseESt17basic_string_viewIcSt11char_traitsIcEEf(i64 %241, ptr %243, float noundef 0x3D9EEAF940000000)
  call void @_ZNSt17basic_string_viewIcSt11char_traitsIcEEC2EPKc(ptr noundef nonnull align 8 dereferenceable(16) %agg.tmp62, ptr noundef @.str.95) #3
  %244 = getelementptr inbounds { i64, ptr }, ptr %agg.tmp62, i32 0, i32 0
  %245 = load i64, ptr %244, align 8
  %246 = getelementptr inbounds { i64, ptr }, ptr %agg.tmp62, i32 0, i32 1
  %247 = load ptr, ptr %246, align 8
  call void @_ZN12_GLOBAL__N_114TestFloatParseESt17basic_string_viewIcSt11char_traitsIcEEf(i64 %245, ptr %247, float noundef 0xBD9EEAF940000000)
  call void @_ZNSt17basic_string_viewIcSt11char_traitsIcEEC2EPKc(ptr noundef nonnull align 8 dereferenceable(16) %agg.tmp63, ptr noundef @.str.96) #3
  %248 = getelementptr inbounds { i64, ptr }, ptr %agg.tmp63, i32 0, i32 0
  %249 = load i64, ptr %248, align 8
  %250 = getelementptr inbounds { i64, ptr }, ptr %agg.tmp63, i32 0, i32 1
  %251 = load ptr, ptr %250, align 8
  call void @_ZN12_GLOBAL__N_114TestFloatParseESt17basic_string_viewIcSt11char_traitsIcEEf(i64 %249, ptr %251, float noundef 0x3802DD9E00000000)
  call void @_ZNSt17basic_string_viewIcSt11char_traitsIcEEC2EPKc(ptr noundef nonnull align 8 dereferenceable(16) %agg.tmp64, ptr noundef @.str.97) #3
  %252 = getelementptr inbounds { i64, ptr }, ptr %agg.tmp64, i32 0, i32 0
  %253 = load i64, ptr %252, align 8
  %254 = getelementptr inbounds { i64, ptr }, ptr %agg.tmp64, i32 0, i32 1
  %255 = load ptr, ptr %254, align 8
  call void @_ZN12_GLOBAL__N_114TestFloatParseESt17basic_string_viewIcSt11char_traitsIcEEf(i64 %253, ptr %255, float noundef 0xB802DD9E00000000)
  call void @_ZNSt17basic_string_viewIcSt11char_traitsIcEEC2EPKc(ptr noundef nonnull align 8 dereferenceable(16) %agg.tmp65, ptr noundef @.str.98) #3
  %256 = getelementptr inbounds { i64, ptr }, ptr %agg.tmp65, i32 0, i32 0
  %257 = load i64, ptr %256, align 8
  %258 = getelementptr inbounds { i64, ptr }, ptr %agg.tmp65, i32 0, i32 1
  %259 = load ptr, ptr %258, align 8
  call void @_ZN12_GLOBAL__N_114TestFloatParseESt17basic_string_viewIcSt11char_traitsIcEEf(i64 %257, ptr %259, float noundef 0x3F653E9460000000)
  call void @_ZNSt17basic_string_viewIcSt11char_traitsIcEEC2EPKc(ptr noundef nonnull align 8 dereferenceable(16) %agg.tmp66, ptr noundef @.str.99) #3
  %260 = getelementptr inbounds { i64, ptr }, ptr %agg.tmp66, i32 0, i32 0
  %261 = load i64, ptr %260, align 8
  %262 = getelementptr inbounds { i64, ptr }, ptr %agg.tmp66, i32 0, i32 1
  %263 = load ptr, ptr %262, align 8
  call void @_ZN12_GLOBAL__N_114TestFloatParseESt17basic_string_viewIcSt11char_traitsIcEEf(i64 %261, ptr %263, float noundef 0xBF653E9460000000)
  call void @_ZNSt17basic_string_viewIcSt11char_traitsIcEEC2EPKc(ptr noundef nonnull align 8 dereferenceable(16) %agg.tmp67, ptr noundef @.str.100) #3
  %264 = getelementptr inbounds { i64, ptr }, ptr %agg.tmp67, i32 0, i32 0
  %265 = load i64, ptr %264, align 8
  %266 = getelementptr inbounds { i64, ptr }, ptr %agg.tmp67, i32 0, i32 1
  %267 = load ptr, ptr %266, align 8
  call void @_ZN12_GLOBAL__N_114TestFloatParseESt17basic_string_viewIcSt11char_traitsIcEEf(i64 %265, ptr %267, float noundef 0x4687866480000000)
  call void @_ZNSt17basic_string_viewIcSt11char_traitsIcEEC2EPKc(ptr noundef nonnull align 8 dereferenceable(16) %agg.tmp68, ptr noundef @.str.101) #3
  %268 = getelementptr inbounds { i64, ptr }, ptr %agg.tmp68, i32 0, i32 0
  %269 = load i64, ptr %268, align 8
  %270 = getelementptr inbounds { i64, ptr }, ptr %agg.tmp68, i32 0, i32 1
  %271 = load ptr, ptr %270, align 8
  call void @_ZN12_GLOBAL__N_114TestFloatParseESt17basic_string_viewIcSt11char_traitsIcEEf(i64 %269, ptr %271, float noundef 0xC687866480000000)
  call void @_ZNSt17basic_string_viewIcSt11char_traitsIcEEC2EPKc(ptr noundef nonnull align 8 dereferenceable(16) %agg.tmp69, ptr noundef @.str.102) #3
  %272 = getelementptr inbounds { i64, ptr }, ptr %agg.tmp69, i32 0, i32 0
  %273 = load i64, ptr %272, align 8
  %274 = getelementptr inbounds { i64, ptr }, ptr %agg.tmp69, i32 0, i32 1
  %275 = load ptr, ptr %274, align 8
  call void @_ZN12_GLOBAL__N_115TestDoubleParseESt17basic_string_viewIcSt11char_traitsIcEEd(i64 %273, ptr %275, double noundef 9.000000e-265)
  call void @_ZNSt17basic_string_viewIcSt11char_traitsIcEEC2EPKc(ptr noundef nonnull align 8 dereferenceable(16) %agg.tmp70, ptr noundef @.str.103) #3
  %276 = getelementptr inbounds { i64, ptr }, ptr %agg.tmp70, i32 0, i32 0
  %277 = load i64, ptr %276, align 8
  %278 = getelementptr inbounds { i64, ptr }, ptr %agg.tmp70, i32 0, i32 1
  %279 = load ptr, ptr %278, align 8
  call void @_ZN12_GLOBAL__N_115TestDoubleParseESt17basic_string_viewIcSt11char_traitsIcEEd(i64 %277, ptr %279, double noundef -9.000000e-265)
  call void @_ZNSt17basic_string_viewIcSt11char_traitsIcEEC2EPKc(ptr noundef nonnull align 8 dereferenceable(16) %agg.tmp71, ptr noundef @.str.104) #3
  %280 = getelementptr inbounds { i64, ptr }, ptr %agg.tmp71, i32 0, i32 0
  %281 = load i64, ptr %280, align 8
  %282 = getelementptr inbounds { i64, ptr }, ptr %agg.tmp71, i32 0, i32 1
  %283 = load ptr, ptr %282, align 8
  call void @_ZN12_GLOBAL__N_115TestDoubleParseESt17basic_string_viewIcSt11char_traitsIcEEd(i64 %281, ptr %283, double noundef 8.500000e-36)
  call void @_ZNSt17basic_string_viewIcSt11char_traitsIcEEC2EPKc(ptr noundef nonnull align 8 dereferenceable(16) %agg.tmp72, ptr noundef @.str.105) #3
  %284 = getelementptr inbounds { i64, ptr }, ptr %agg.tmp72, i32 0, i32 0
  %285 = load i64, ptr %284, align 8
  %286 = getelementptr inbounds { i64, ptr }, ptr %agg.tmp72, i32 0, i32 1
  %287 = load ptr, ptr %286, align 8
  call void @_ZN12_GLOBAL__N_115TestDoubleParseESt17basic_string_viewIcSt11char_traitsIcEEd(i64 %285, ptr %287, double noundef -8.500000e-36)
  call void @_ZNSt17basic_string_viewIcSt11char_traitsIcEEC2EPKc(ptr noundef nonnull align 8 dereferenceable(16) %agg.tmp73, ptr noundef @.str.106) #3
  %288 = getelementptr inbounds { i64, ptr }, ptr %agg.tmp73, i32 0, i32 0
  %289 = load i64, ptr %288, align 8
  %290 = getelementptr inbounds { i64, ptr }, ptr %agg.tmp73, i32 0, i32 1
  %291 = load ptr, ptr %290, align 8
  call void @_ZN12_GLOBAL__N_115TestDoubleParseESt17basic_string_viewIcSt11char_traitsIcEEd(i64 %289, ptr %291, double noundef 6.230000e+102)
  call void @_ZNSt17basic_string_viewIcSt11char_traitsIcEEC2EPKc(ptr noundef nonnull align 8 dereferenceable(16) %agg.tmp74, ptr noundef @.str.107) #3
  %292 = getelementptr inbounds { i64, ptr }, ptr %agg.tmp74, i32 0, i32 0
  %293 = load i64, ptr %292, align 8
  %294 = getelementptr inbounds { i64, ptr }, ptr %agg.tmp74, i32 0, i32 1
  %295 = load ptr, ptr %294, align 8
  call void @_ZN12_GLOBAL__N_115TestDoubleParseESt17basic_string_viewIcSt11char_traitsIcEEd(i64 %293, ptr %295, double noundef -6.230000e+102)
  call void @_ZNSt17basic_string_viewIcSt11char_traitsIcEEC2EPKc(ptr noundef nonnull align 8 dereferenceable(16) %agg.tmp75, ptr noundef @.str.108) #3
  %296 = getelementptr inbounds { i64, ptr }, ptr %agg.tmp75, i32 0, i32 0
  %297 = load i64, ptr %296, align 8
  %298 = getelementptr inbounds { i64, ptr }, ptr %agg.tmp75, i32 0, i32 1
  %299 = load ptr, ptr %298, align 8
  call void @_ZN12_GLOBAL__N_115TestDoubleParseESt17basic_string_viewIcSt11char_traitsIcEEd(i64 %297, ptr %299, double noundef 3.571000e+266)
  call void @_ZNSt17basic_string_viewIcSt11char_traitsIcEEC2EPKc(ptr noundef nonnull align 8 dereferenceable(16) %agg.tmp76, ptr noundef @.str.109) #3
  %300 = getelementptr inbounds { i64, ptr }, ptr %agg.tmp76, i32 0, i32 0
  %301 = load i64, ptr %300, align 8
  %302 = getelementptr inbounds { i64, ptr }, ptr %agg.tmp76, i32 0, i32 1
  %303 = load ptr, ptr %302, align 8
  call void @_ZN12_GLOBAL__N_115TestDoubleParseESt17basic_string_viewIcSt11char_traitsIcEEd(i64 %301, ptr %303, double noundef -3.571000e+266)
  call void @_ZNSt17basic_string_viewIcSt11char_traitsIcEEC2EPKc(ptr noundef nonnull align 8 dereferenceable(16) %agg.tmp77, ptr noundef @.str.110) #3
  %304 = getelementptr inbounds { i64, ptr }, ptr %agg.tmp77, i32 0, i32 0
  %305 = load i64, ptr %304, align 8
  %306 = getelementptr inbounds { i64, ptr }, ptr %agg.tmp77, i32 0, i32 1
  %307 = load ptr, ptr %306, align 8
  call void @_ZN12_GLOBAL__N_115TestDoubleParseESt17basic_string_viewIcSt11char_traitsIcEEd(i64 %305, ptr %307, double noundef 8.166100e+157)
  call void @_ZNSt17basic_string_viewIcSt11char_traitsIcEEC2EPKc(ptr noundef nonnull align 8 dereferenceable(16) %agg.tmp78, ptr noundef @.str.111) #3
  %308 = getelementptr inbounds { i64, ptr }, ptr %agg.tmp78, i32 0, i32 0
  %309 = load i64, ptr %308, align 8
  %310 = getelementptr inbounds { i64, ptr }, ptr %agg.tmp78, i32 0, i32 1
  %311 = load ptr, ptr %310, align 8
  call void @_ZN12_GLOBAL__N_115TestDoubleParseESt17basic_string_viewIcSt11char_traitsIcEEd(i64 %309, ptr %311, double noundef -8.166100e+157)
  call void @_ZNSt17basic_string_viewIcSt11char_traitsIcEEC2EPKc(ptr noundef nonnull align 8 dereferenceable(16) %agg.tmp79, ptr noundef @.str.112) #3
  %312 = getelementptr inbounds { i64, ptr }, ptr %agg.tmp79, i32 0, i32 0
  %313 = load i64, ptr %312, align 8
  %314 = getelementptr inbounds { i64, ptr }, ptr %agg.tmp79, i32 0, i32 1
  %315 = load ptr, ptr %314, align 8
  call void @_ZN12_GLOBAL__N_115TestDoubleParseESt17basic_string_viewIcSt11char_traitsIcEEd(i64 %313, ptr %315, double noundef 9.206570e-18)
  call void @_ZNSt17basic_string_viewIcSt11char_traitsIcEEC2EPKc(ptr noundef nonnull align 8 dereferenceable(16) %agg.tmp80, ptr noundef @.str.113) #3
  %316 = getelementptr inbounds { i64, ptr }, ptr %agg.tmp80, i32 0, i32 0
  %317 = load i64, ptr %316, align 8
  %318 = getelementptr inbounds { i64, ptr }, ptr %agg.tmp80, i32 0, i32 1
  %319 = load ptr, ptr %318, align 8
  call void @_ZN12_GLOBAL__N_115TestDoubleParseESt17basic_string_viewIcSt11char_traitsIcEEd(i64 %317, ptr %319, double noundef -9.206570e-18)
  call void @_ZNSt17basic_string_viewIcSt11char_traitsIcEEC2EPKc(ptr noundef nonnull align 8 dereferenceable(16) %agg.tmp81, ptr noundef @.str.114) #3
  %320 = getelementptr inbounds { i64, ptr }, ptr %agg.tmp81, i32 0, i32 0
  %321 = load i64, ptr %320, align 8
  %322 = getelementptr inbounds { i64, ptr }, ptr %agg.tmp81, i32 0, i32 1
  %323 = load ptr, ptr %322, align 8
  call void @_ZN12_GLOBAL__N_115TestDoubleParseESt17basic_string_viewIcSt11char_traitsIcEEd(i64 %321, ptr %323, double noundef 0x3C553A9985DBDE6C)
  call void @_ZNSt17basic_string_viewIcSt11char_traitsIcEEC2EPKc(ptr noundef nonnull align 8 dereferenceable(16) %agg.tmp82, ptr noundef @.str.115) #3
  %324 = getelementptr inbounds { i64, ptr }, ptr %agg.tmp82, i32 0, i32 0
  %325 = load i64, ptr %324, align 8
  %326 = getelementptr inbounds { i64, ptr }, ptr %agg.tmp82, i32 0, i32 1
  %327 = load ptr, ptr %326, align 8
  call void @_ZN12_GLOBAL__N_115TestDoubleParseESt17basic_string_viewIcSt11char_traitsIcEEd(i64 %325, ptr %327, double noundef 0xBC553A9985DBDE6C)
  call void @_ZNSt17basic_string_viewIcSt11char_traitsIcEEC2EPKc(ptr noundef nonnull align 8 dereferenceable(16) %agg.tmp83, ptr noundef @.str.116) #3
  %328 = getelementptr inbounds { i64, ptr }, ptr %agg.tmp83, i32 0, i32 0
  %329 = load i64, ptr %328, align 8
  %330 = getelementptr inbounds { i64, ptr }, ptr %agg.tmp83, i32 0, i32 1
  %331 = load ptr, ptr %330, align 8
  call void @_ZN12_GLOBAL__N_115TestDoubleParseESt17basic_string_viewIcSt11char_traitsIcEEd(i64 %329, ptr %331, double noundef 0x16E07320602056C)
  call void @_ZNSt17basic_string_viewIcSt11char_traitsIcEEC2EPKc(ptr noundef nonnull align 8 dereferenceable(16) %agg.tmp84, ptr noundef @.str.117) #3
  %332 = getelementptr inbounds { i64, ptr }, ptr %agg.tmp84, i32 0, i32 0
  %333 = load i64, ptr %332, align 8
  %334 = getelementptr inbounds { i64, ptr }, ptr %agg.tmp84, i32 0, i32 1
  %335 = load ptr, ptr %334, align 8
  call void @_ZN12_GLOBAL__N_115TestDoubleParseESt17basic_string_viewIcSt11char_traitsIcEEd(i64 %333, ptr %335, double noundef 0x816E07320602056C)
  call void @_ZNSt17basic_string_viewIcSt11char_traitsIcEEC2EPKc(ptr noundef nonnull align 8 dereferenceable(16) %agg.tmp85, ptr noundef @.str.118) #3
  %336 = getelementptr inbounds { i64, ptr }, ptr %agg.tmp85, i32 0, i32 0
  %337 = load i64, ptr %336, align 8
  %338 = getelementptr inbounds { i64, ptr }, ptr %agg.tmp85, i32 0, i32 1
  %339 = load ptr, ptr %338, align 8
  call void @_ZN12_GLOBAL__N_115TestDoubleParseESt17basic_string_viewIcSt11char_traitsIcEEd(i64 %337, ptr %339, double noundef 0x5B01B6231E18C5CB)
  call void @_ZNSt17basic_string_viewIcSt11char_traitsIcEEC2EPKc(ptr noundef nonnull align 8 dereferenceable(16) %agg.tmp86, ptr noundef @.str.119) #3
  %340 = getelementptr inbounds { i64, ptr }, ptr %agg.tmp86, i32 0, i32 0
  %341 = load i64, ptr %340, align 8
  %342 = getelementptr inbounds { i64, ptr }, ptr %agg.tmp86, i32 0, i32 1
  %343 = load ptr, ptr %342, align 8
  call void @_ZN12_GLOBAL__N_115TestDoubleParseESt17basic_string_viewIcSt11char_traitsIcEEd(i64 %341, ptr %343, double noundef 0xDB01B6231E18C5CB)
  call void @_ZNSt17basic_string_viewIcSt11char_traitsIcEEC2EPKc(ptr noundef nonnull align 8 dereferenceable(16) %agg.tmp87, ptr noundef @.str.120) #3
  %344 = getelementptr inbounds { i64, ptr }, ptr %agg.tmp87, i32 0, i32 0
  %345 = load i64, ptr %344, align 8
  %346 = getelementptr inbounds { i64, ptr }, ptr %agg.tmp87, i32 0, i32 1
  %347 = load ptr, ptr %346, align 8
  call void @_ZN12_GLOBAL__N_115TestDoubleParseESt17basic_string_viewIcSt11char_traitsIcEEd(i64 %345, ptr %347, double noundef 0x5AE1B6231E18C5CB)
  call void @_ZNSt17basic_string_viewIcSt11char_traitsIcEEC2EPKc(ptr noundef nonnull align 8 dereferenceable(16) %agg.tmp88, ptr noundef @.str.121) #3
  %348 = getelementptr inbounds { i64, ptr }, ptr %agg.tmp88, i32 0, i32 0
  %349 = load i64, ptr %348, align 8
  %350 = getelementptr inbounds { i64, ptr }, ptr %agg.tmp88, i32 0, i32 1
  %351 = load ptr, ptr %350, align 8
  call void @_ZN12_GLOBAL__N_115TestDoubleParseESt17basic_string_viewIcSt11char_traitsIcEEd(i64 %349, ptr %351, double noundef 0xDAE1B6231E18C5CB)
  call void @_ZNSt17basic_string_viewIcSt11char_traitsIcEEC2EPKc(ptr noundef nonnull align 8 dereferenceable(16) %agg.tmp89, ptr noundef @.str.122) #3
  %352 = getelementptr inbounds { i64, ptr }, ptr %agg.tmp89, i32 0, i32 0
  %353 = load i64, ptr %352, align 8
  %354 = getelementptr inbounds { i64, ptr }, ptr %agg.tmp89, i32 0, i32 1
  %355 = load ptr, ptr %354, align 8
  call void @_ZN12_GLOBAL__N_115TestDoubleParseESt17basic_string_viewIcSt11char_traitsIcEEd(i64 %353, ptr %355, double noundef 0x6A4544E6DAEE2A18)
  call void @_ZNSt17basic_string_viewIcSt11char_traitsIcEEC2EPKc(ptr noundef nonnull align 8 dereferenceable(16) %agg.tmp90, ptr noundef @.str.123) #3
  %356 = getelementptr inbounds { i64, ptr }, ptr %agg.tmp90, i32 0, i32 0
  %357 = load i64, ptr %356, align 8
  %358 = getelementptr inbounds { i64, ptr }, ptr %agg.tmp90, i32 0, i32 1
  %359 = load ptr, ptr %358, align 8
  call void @_ZN12_GLOBAL__N_115TestDoubleParseESt17basic_string_viewIcSt11char_traitsIcEEd(i64 %357, ptr %359, double noundef 0xEA4544E6DAEE2A18)
  call void @_ZNSt17basic_string_viewIcSt11char_traitsIcEEC2EPKc(ptr noundef nonnull align 8 dereferenceable(16) %agg.tmp91, ptr noundef @.str.124) #3
  %360 = getelementptr inbounds { i64, ptr }, ptr %agg.tmp91, i32 0, i32 0
  %361 = load i64, ptr %360, align 8
  %362 = getelementptr inbounds { i64, ptr }, ptr %agg.tmp91, i32 0, i32 1
  %363 = load ptr, ptr %362, align 8
  call void @_ZN12_GLOBAL__N_115TestDoubleParseESt17basic_string_viewIcSt11char_traitsIcEEd(i64 %361, ptr %363, double noundef 0x5C210C20303FE0F1)
  call void @_ZNSt17basic_string_viewIcSt11char_traitsIcEEC2EPKc(ptr noundef nonnull align 8 dereferenceable(16) %agg.tmp92, ptr noundef @.str.125) #3
  %364 = getelementptr inbounds { i64, ptr }, ptr %agg.tmp92, i32 0, i32 0
  %365 = load i64, ptr %364, align 8
  %366 = getelementptr inbounds { i64, ptr }, ptr %agg.tmp92, i32 0, i32 1
  %367 = load ptr, ptr %366, align 8
  call void @_ZN12_GLOBAL__N_115TestDoubleParseESt17basic_string_viewIcSt11char_traitsIcEEd(i64 %365, ptr %367, double noundef 0xDC210C20303FE0F1)
  call void @_ZNSt17basic_string_viewIcSt11char_traitsIcEEC2EPKc(ptr noundef nonnull align 8 dereferenceable(16) %agg.tmp93, ptr noundef @.str.126) #3
  %368 = getelementptr inbounds { i64, ptr }, ptr %agg.tmp93, i32 0, i32 0
  %369 = load i64, ptr %368, align 8
  %370 = getelementptr inbounds { i64, ptr }, ptr %agg.tmp93, i32 0, i32 1
  %371 = load ptr, ptr %370, align 8
  call void @_ZN12_GLOBAL__N_115TestDoubleParseESt17basic_string_viewIcSt11char_traitsIcEEd(i64 %369, ptr %371, double noundef 0x6FC340A1C932C1EE)
  call void @_ZNSt17basic_string_viewIcSt11char_traitsIcEEC2EPKc(ptr noundef nonnull align 8 dereferenceable(16) %agg.tmp94, ptr noundef @.str.127) #3
  %372 = getelementptr inbounds { i64, ptr }, ptr %agg.tmp94, i32 0, i32 0
  %373 = load i64, ptr %372, align 8
  %374 = getelementptr inbounds { i64, ptr }, ptr %agg.tmp94, i32 0, i32 1
  %375 = load ptr, ptr %374, align 8
  call void @_ZN12_GLOBAL__N_115TestDoubleParseESt17basic_string_viewIcSt11char_traitsIcEEd(i64 %373, ptr %375, double noundef 0xEFC340A1C932C1EE)
  call void @_ZNSt17basic_string_viewIcSt11char_traitsIcEEC2EPKc(ptr noundef nonnull align 8 dereferenceable(16) %agg.tmp95, ptr noundef @.str.128) #3
  %376 = getelementptr inbounds { i64, ptr }, ptr %agg.tmp95, i32 0, i32 0
  %377 = load i64, ptr %376, align 8
  %378 = getelementptr inbounds { i64, ptr }, ptr %agg.tmp95, i32 0, i32 1
  %379 = load ptr, ptr %378, align 8
  call void @_ZN12_GLOBAL__N_115TestDoubleParseESt17basic_string_viewIcSt11char_traitsIcEEd(i64 %377, ptr %379, double noundef 0x21BCE77C2B3328FC)
  call void @_ZNSt17basic_string_viewIcSt11char_traitsIcEEC2EPKc(ptr noundef nonnull align 8 dereferenceable(16) %agg.tmp96, ptr noundef @.str.129) #3
  %380 = getelementptr inbounds { i64, ptr }, ptr %agg.tmp96, i32 0, i32 0
  %381 = load i64, ptr %380, align 8
  %382 = getelementptr inbounds { i64, ptr }, ptr %agg.tmp96, i32 0, i32 1
  %383 = load ptr, ptr %382, align 8
  call void @_ZN12_GLOBAL__N_115TestDoubleParseESt17basic_string_viewIcSt11char_traitsIcEEd(i64 %381, ptr %383, double noundef 0xA1BCE77C2B3328FC)
  call void @_ZNSt17basic_string_viewIcSt11char_traitsIcEEC2EPKc(ptr noundef nonnull align 8 dereferenceable(16) %agg.tmp97, ptr noundef @.str.130) #3
  %384 = getelementptr inbounds { i64, ptr }, ptr %agg.tmp97, i32 0, i32 0
  %385 = load i64, ptr %384, align 8
  %386 = getelementptr inbounds { i64, ptr }, ptr %agg.tmp97, i32 0, i32 1
  %387 = load ptr, ptr %386, align 8
  call void @_ZN12_GLOBAL__N_115TestDoubleParseESt17basic_string_viewIcSt11char_traitsIcEEd(i64 %385, ptr %387, double noundef 0xE104273B18918B1)
  call void @_ZNSt17basic_string_viewIcSt11char_traitsIcEEC2EPKc(ptr noundef nonnull align 8 dereferenceable(16) %agg.tmp98, ptr noundef @.str.131) #3
  %388 = getelementptr inbounds { i64, ptr }, ptr %agg.tmp98, i32 0, i32 0
  %389 = load i64, ptr %388, align 8
  %390 = getelementptr inbounds { i64, ptr }, ptr %agg.tmp98, i32 0, i32 1
  %391 = load ptr, ptr %390, align 8
  call void @_ZN12_GLOBAL__N_115TestDoubleParseESt17basic_string_viewIcSt11char_traitsIcEEd(i64 %389, ptr %391, double noundef 0x8E104273B18918B1)
  call void @_ZNSt17basic_string_viewIcSt11char_traitsIcEEC2EPKc(ptr noundef nonnull align 8 dereferenceable(16) %agg.tmp99, ptr noundef @.str.132) #3
  %392 = getelementptr inbounds { i64, ptr }, ptr %agg.tmp99, i32 0, i32 0
  %393 = load i64, ptr %392, align 8
  %394 = getelementptr inbounds { i64, ptr }, ptr %agg.tmp99, i32 0, i32 1
  %395 = load ptr, ptr %394, align 8
  call void @_ZN12_GLOBAL__N_115TestDoubleParseESt17basic_string_viewIcSt11char_traitsIcEEd(i64 %393, ptr %395, double noundef 0x20E8823A57ADBEF9)
  call void @_ZNSt17basic_string_viewIcSt11char_traitsIcEEC2EPKc(ptr noundef nonnull align 8 dereferenceable(16) %agg.tmp100, ptr noundef @.str.133) #3
  %396 = getelementptr inbounds { i64, ptr }, ptr %agg.tmp100, i32 0, i32 0
  %397 = load i64, ptr %396, align 8
  %398 = getelementptr inbounds { i64, ptr }, ptr %agg.tmp100, i32 0, i32 1
  %399 = load ptr, ptr %398, align 8
  call void @_ZN12_GLOBAL__N_115TestDoubleParseESt17basic_string_viewIcSt11char_traitsIcEEd(i64 %397, ptr %399, double noundef 0xA0E8823A57ADBEF9)
  call void @_ZNSt17basic_string_viewIcSt11char_traitsIcEEC2EPKc(ptr noundef nonnull align 8 dereferenceable(16) %agg.tmp101, ptr noundef @.str.134) #3
  %400 = getelementptr inbounds { i64, ptr }, ptr %agg.tmp101, i32 0, i32 0
  %401 = load i64, ptr %400, align 8
  %402 = getelementptr inbounds { i64, ptr }, ptr %agg.tmp101, i32 0, i32 1
  %403 = load ptr, ptr %402, align 8
  call void @_ZN12_GLOBAL__N_115TestDoubleParseESt17basic_string_viewIcSt11char_traitsIcEEd(i64 %401, ptr %403, double noundef 0x11364981E39E66CA)
  call void @_ZNSt17basic_string_viewIcSt11char_traitsIcEEC2EPKc(ptr noundef nonnull align 8 dereferenceable(16) %agg.tmp102, ptr noundef @.str.135) #3
  %404 = getelementptr inbounds { i64, ptr }, ptr %agg.tmp102, i32 0, i32 0
  %405 = load i64, ptr %404, align 8
  %406 = getelementptr inbounds { i64, ptr }, ptr %agg.tmp102, i32 0, i32 1
  %407 = load ptr, ptr %406, align 8
  call void @_ZN12_GLOBAL__N_115TestDoubleParseESt17basic_string_viewIcSt11char_traitsIcEEd(i64 %405, ptr %407, double noundef 0x91364981E39E66CA)
  call void @_ZNSt17basic_string_viewIcSt11char_traitsIcEEC2EPKc(ptr noundef nonnull align 8 dereferenceable(16) %agg.tmp103, ptr noundef @.str.136) #3
  %408 = getelementptr inbounds { i64, ptr }, ptr %agg.tmp103, i32 0, i32 0
  %409 = load i64, ptr %408, align 8
  %410 = getelementptr inbounds { i64, ptr }, ptr %agg.tmp103, i32 0, i32 1
  %411 = load ptr, ptr %410, align 8
  call void @_ZN12_GLOBAL__N_115TestDoubleParseESt17basic_string_viewIcSt11char_traitsIcEEd(i64 %409, ptr %411, double noundef 0x7E6ADF51FA055E03)
  call void @_ZNSt17basic_string_viewIcSt11char_traitsIcEEC2EPKc(ptr noundef nonnull align 8 dereferenceable(16) %agg.tmp104, ptr noundef @.str.137) #3
  %412 = getelementptr inbounds { i64, ptr }, ptr %agg.tmp104, i32 0, i32 0
  %413 = load i64, ptr %412, align 8
  %414 = getelementptr inbounds { i64, ptr }, ptr %agg.tmp104, i32 0, i32 1
  %415 = load ptr, ptr %414, align 8
  call void @_ZN12_GLOBAL__N_115TestDoubleParseESt17basic_string_viewIcSt11char_traitsIcEEd(i64 %413, ptr %415, double noundef 0xFE6ADF51FA055E03)
  call void @_ZNSt17basic_string_viewIcSt11char_traitsIcEEC2EPKc(ptr noundef nonnull align 8 dereferenceable(16) %agg.tmp105, ptr noundef @.str.138) #3
  %416 = getelementptr inbounds { i64, ptr }, ptr %agg.tmp105, i32 0, i32 0
  %417 = load i64, ptr %416, align 8
  %418 = getelementptr inbounds { i64, ptr }, ptr %agg.tmp105, i32 0, i32 1
  %419 = load ptr, ptr %418, align 8
  call void @_ZN12_GLOBAL__N_115TestDoubleParseESt17basic_string_viewIcSt11char_traitsIcEEd(i64 %417, ptr %419, double noundef 0x5CC3220DCD5899FD)
  call void @_ZNSt17basic_string_viewIcSt11char_traitsIcEEC2EPKc(ptr noundef nonnull align 8 dereferenceable(16) %agg.tmp106, ptr noundef @.str.139) #3
  %420 = getelementptr inbounds { i64, ptr }, ptr %agg.tmp106, i32 0, i32 0
  %421 = load i64, ptr %420, align 8
  %422 = getelementptr inbounds { i64, ptr }, ptr %agg.tmp106, i32 0, i32 1
  %423 = load ptr, ptr %422, align 8
  call void @_ZN12_GLOBAL__N_115TestDoubleParseESt17basic_string_viewIcSt11char_traitsIcEEd(i64 %421, ptr %423, double noundef 0xDCC3220DCD5899FD)
  call void @_ZNSt17basic_string_viewIcSt11char_traitsIcEEC2EPKc(ptr noundef nonnull align 8 dereferenceable(16) %agg.tmp107, ptr noundef @.str.140) #3
  %424 = getelementptr inbounds { i64, ptr }, ptr %agg.tmp107, i32 0, i32 0
  %425 = load i64, ptr %424, align 8
  %426 = getelementptr inbounds { i64, ptr }, ptr %agg.tmp107, i32 0, i32 1
  %427 = load ptr, ptr %426, align 8
  call void @_ZN12_GLOBAL__N_115TestDoubleParseESt17basic_string_viewIcSt11char_traitsIcEEd(i64 %425, ptr %427, double noundef 0xFA4059AF3DB2A84)
  call void @_ZNSt17basic_string_viewIcSt11char_traitsIcEEC2EPKc(ptr noundef nonnull align 8 dereferenceable(16) %agg.tmp108, ptr noundef @.str.141) #3
  %428 = getelementptr inbounds { i64, ptr }, ptr %agg.tmp108, i32 0, i32 0
  %429 = load i64, ptr %428, align 8
  %430 = getelementptr inbounds { i64, ptr }, ptr %agg.tmp108, i32 0, i32 1
  %431 = load ptr, ptr %430, align 8
  call void @_ZN12_GLOBAL__N_115TestDoubleParseESt17basic_string_viewIcSt11char_traitsIcEEd(i64 %429, ptr %431, double noundef 0x8FA4059AF3DB2A84)
  call void @_ZNSt17basic_string_viewIcSt11char_traitsIcEEC2EPKc(ptr noundef nonnull align 8 dereferenceable(16) %agg.tmp109, ptr noundef @.str.142) #3
  %432 = getelementptr inbounds { i64, ptr }, ptr %agg.tmp109, i32 0, i32 0
  %433 = load i64, ptr %432, align 8
  %434 = getelementptr inbounds { i64, ptr }, ptr %agg.tmp109, i32 0, i32 1
  %435 = load ptr, ptr %434, align 8
  call void @_ZN12_GLOBAL__N_115TestDoubleParseESt17basic_string_viewIcSt11char_traitsIcEEd(i64 %433, ptr %435, double noundef 0x39640DE48676653B)
  call void @_ZNSt17basic_string_viewIcSt11char_traitsIcEEC2EPKc(ptr noundef nonnull align 8 dereferenceable(16) %agg.tmp110, ptr noundef @.str.143) #3
  %436 = getelementptr inbounds { i64, ptr }, ptr %agg.tmp110, i32 0, i32 0
  %437 = load i64, ptr %436, align 8
  %438 = getelementptr inbounds { i64, ptr }, ptr %agg.tmp110, i32 0, i32 1
  %439 = load ptr, ptr %438, align 8
  call void @_ZN12_GLOBAL__N_115TestDoubleParseESt17basic_string_viewIcSt11char_traitsIcEEd(i64 %437, ptr %439, double noundef 0xB9640DE48676653B)
  call void @_ZNSt17basic_string_viewIcSt11char_traitsIcEEC2EPKc(ptr noundef nonnull align 8 dereferenceable(16) %agg.tmp111, ptr noundef @.str.144) #3
  %440 = getelementptr inbounds { i64, ptr }, ptr %agg.tmp111, i32 0, i32 0
  %441 = load i64, ptr %440, align 8
  %442 = getelementptr inbounds { i64, ptr }, ptr %agg.tmp111, i32 0, i32 1
  %443 = load ptr, ptr %442, align 8
  call void @_ZN12_GLOBAL__N_115TestDoubleParseESt17basic_string_viewIcSt11char_traitsIcEEd(i64 %441, ptr %443, double noundef 0x51C067047DBB38FE)
  call void @_ZNSt17basic_string_viewIcSt11char_traitsIcEEC2EPKc(ptr noundef nonnull align 8 dereferenceable(16) %agg.tmp112, ptr noundef @.str.145) #3
  %444 = getelementptr inbounds { i64, ptr }, ptr %agg.tmp112, i32 0, i32 0
  %445 = load i64, ptr %444, align 8
  %446 = getelementptr inbounds { i64, ptr }, ptr %agg.tmp112, i32 0, i32 1
  %447 = load ptr, ptr %446, align 8
  call void @_ZN12_GLOBAL__N_115TestDoubleParseESt17basic_string_viewIcSt11char_traitsIcEEd(i64 %445, ptr %447, double noundef 0xD1C067047DBB38FE)
  call void @_ZNSt17basic_string_viewIcSt11char_traitsIcEEC2EPKc(ptr noundef nonnull align 8 dereferenceable(16) %agg.tmp113, ptr noundef @.str.146) #3
  %448 = getelementptr inbounds { i64, ptr }, ptr %agg.tmp113, i32 0, i32 0
  %449 = load i64, ptr %448, align 8
  %450 = getelementptr inbounds { i64, ptr }, ptr %agg.tmp113, i32 0, i32 1
  %451 = load ptr, ptr %450, align 8
  call void @_ZN12_GLOBAL__N_114TestFloatParseESt17basic_string_viewIcSt11char_traitsIcEEf(i64 %449, ptr %451, float noundef 0x3B42224680000000)
  call void @_ZNSt17basic_string_viewIcSt11char_traitsIcEEC2EPKc(ptr noundef nonnull align 8 dereferenceable(16) %agg.tmp114, ptr noundef @.str.147) #3
  %452 = getelementptr inbounds { i64, ptr }, ptr %agg.tmp114, i32 0, i32 0
  %453 = load i64, ptr %452, align 8
  %454 = getelementptr inbounds { i64, ptr }, ptr %agg.tmp114, i32 0, i32 1
  %455 = load ptr, ptr %454, align 8
  call void @_ZN12_GLOBAL__N_114TestFloatParseESt17basic_string_viewIcSt11char_traitsIcEEf(i64 %453, ptr %455, float noundef 0xBB42224680000000)
  call void @_ZNSt17basic_string_viewIcSt11char_traitsIcEEC2EPKc(ptr noundef nonnull align 8 dereferenceable(16) %agg.tmp115, ptr noundef @.str.148) #3
  %456 = getelementptr inbounds { i64, ptr }, ptr %agg.tmp115, i32 0, i32 0
  %457 = load i64, ptr %456, align 8
  %458 = getelementptr inbounds { i64, ptr }, ptr %agg.tmp115, i32 0, i32 1
  %459 = load ptr, ptr %458, align 8
  call void @_ZN12_GLOBAL__N_114TestFloatParseESt17basic_string_viewIcSt11char_traitsIcEEf(i64 %457, ptr %459, float noundef 0x4408B84580000000)
  call void @_ZNSt17basic_string_viewIcSt11char_traitsIcEEC2EPKc(ptr noundef nonnull align 8 dereferenceable(16) %agg.tmp116, ptr noundef @.str.149) #3
  %460 = getelementptr inbounds { i64, ptr }, ptr %agg.tmp116, i32 0, i32 0
  %461 = load i64, ptr %460, align 8
  %462 = getelementptr inbounds { i64, ptr }, ptr %agg.tmp116, i32 0, i32 1
  %463 = load ptr, ptr %462, align 8
  call void @_ZN12_GLOBAL__N_114TestFloatParseESt17basic_string_viewIcSt11char_traitsIcEEf(i64 %461, ptr %463, float noundef 0xC408B84580000000)
  call void @_ZNSt17basic_string_viewIcSt11char_traitsIcEEC2EPKc(ptr noundef nonnull align 8 dereferenceable(16) %agg.tmp117, ptr noundef @.str.150) #3
  %464 = getelementptr inbounds { i64, ptr }, ptr %agg.tmp117, i32 0, i32 0
  %465 = load i64, ptr %464, align 8
  %466 = getelementptr inbounds { i64, ptr }, ptr %agg.tmp117, i32 0, i32 1
  %467 = load ptr, ptr %466, align 8
  call void @_ZN12_GLOBAL__N_114TestFloatParseESt17basic_string_viewIcSt11char_traitsIcEEf(i64 %465, ptr %467, float noundef 0x39447BCE00000000)
  call void @_ZNSt17basic_string_viewIcSt11char_traitsIcEEC2EPKc(ptr noundef nonnull align 8 dereferenceable(16) %agg.tmp118, ptr noundef @.str.151) #3
  %468 = getelementptr inbounds { i64, ptr }, ptr %agg.tmp118, i32 0, i32 0
  %469 = load i64, ptr %468, align 8
  %470 = getelementptr inbounds { i64, ptr }, ptr %agg.tmp118, i32 0, i32 1
  %471 = load ptr, ptr %470, align 8
  call void @_ZN12_GLOBAL__N_114TestFloatParseESt17basic_string_viewIcSt11char_traitsIcEEf(i64 %469, ptr %471, float noundef 0xB9447BCE00000000)
  call void @_ZNSt17basic_string_viewIcSt11char_traitsIcEEC2EPKc(ptr noundef nonnull align 8 dereferenceable(16) %agg.tmp119, ptr noundef @.str.152) #3
  %472 = getelementptr inbounds { i64, ptr }, ptr %agg.tmp119, i32 0, i32 0
  %473 = load i64, ptr %472, align 8
  %474 = getelementptr inbounds { i64, ptr }, ptr %agg.tmp119, i32 0, i32 1
  %475 = load ptr, ptr %474, align 8
  call void @_ZN12_GLOBAL__N_114TestFloatParseESt17basic_string_viewIcSt11char_traitsIcEEf(i64 %473, ptr %475, float noundef 0x3CE6DE8920000000)
  call void @_ZNSt17basic_string_viewIcSt11char_traitsIcEEC2EPKc(ptr noundef nonnull align 8 dereferenceable(16) %agg.tmp120, ptr noundef @.str.153) #3
  %476 = getelementptr inbounds { i64, ptr }, ptr %agg.tmp120, i32 0, i32 0
  %477 = load i64, ptr %476, align 8
  %478 = getelementptr inbounds { i64, ptr }, ptr %agg.tmp120, i32 0, i32 1
  %479 = load ptr, ptr %478, align 8
  call void @_ZN12_GLOBAL__N_114TestFloatParseESt17basic_string_viewIcSt11char_traitsIcEEf(i64 %477, ptr %479, float noundef 0xBCE6DE8920000000)
  call void @_ZNSt17basic_string_viewIcSt11char_traitsIcEEC2EPKc(ptr noundef nonnull align 8 dereferenceable(16) %agg.tmp121, ptr noundef @.str.154) #3
  %480 = getelementptr inbounds { i64, ptr }, ptr %agg.tmp121, i32 0, i32 0
  %481 = load i64, ptr %480, align 8
  %482 = getelementptr inbounds { i64, ptr }, ptr %agg.tmp121, i32 0, i32 1
  %483 = load ptr, ptr %482, align 8
  call void @_ZN12_GLOBAL__N_114TestFloatParseESt17basic_string_viewIcSt11char_traitsIcEEf(i64 %481, ptr %483, float noundef 0x46C2C73140000000)
  call void @_ZNSt17basic_string_viewIcSt11char_traitsIcEEC2EPKc(ptr noundef nonnull align 8 dereferenceable(16) %agg.tmp122, ptr noundef @.str.155) #3
  %484 = getelementptr inbounds { i64, ptr }, ptr %agg.tmp122, i32 0, i32 0
  %485 = load i64, ptr %484, align 8
  %486 = getelementptr inbounds { i64, ptr }, ptr %agg.tmp122, i32 0, i32 1
  %487 = load ptr, ptr %486, align 8
  call void @_ZN12_GLOBAL__N_114TestFloatParseESt17basic_string_viewIcSt11char_traitsIcEEf(i64 %485, ptr %487, float noundef 0xC6C2C73140000000)
  call void @_ZNSt17basic_string_viewIcSt11char_traitsIcEEC2EPKc(ptr noundef nonnull align 8 dereferenceable(16) %agg.tmp123, ptr noundef @.str.156) #3
  %488 = getelementptr inbounds { i64, ptr }, ptr %agg.tmp123, i32 0, i32 0
  %489 = load i64, ptr %488, align 8
  %490 = getelementptr inbounds { i64, ptr }, ptr %agg.tmp123, i32 0, i32 1
  %491 = load ptr, ptr %490, align 8
  call void @_ZN12_GLOBAL__N_114TestFloatParseESt17basic_string_viewIcSt11char_traitsIcEEf(i64 %489, ptr %491, float noundef 0x3EE29E0B80000000)
  call void @_ZNSt17basic_string_viewIcSt11char_traitsIcEEC2EPKc(ptr noundef nonnull align 8 dereferenceable(16) %agg.tmp124, ptr noundef @.str.157) #3
  %492 = getelementptr inbounds { i64, ptr }, ptr %agg.tmp124, i32 0, i32 0
  %493 = load i64, ptr %492, align 8
  %494 = getelementptr inbounds { i64, ptr }, ptr %agg.tmp124, i32 0, i32 1
  %495 = load ptr, ptr %494, align 8
  call void @_ZN12_GLOBAL__N_114TestFloatParseESt17basic_string_viewIcSt11char_traitsIcEEf(i64 %493, ptr %495, float noundef 0xBEE29E0B80000000)
  call void @_ZNSt17basic_string_viewIcSt11char_traitsIcEEC2EPKc(ptr noundef nonnull align 8 dereferenceable(16) %agg.tmp125, ptr noundef @.str.158) #3
  %496 = getelementptr inbounds { i64, ptr }, ptr %agg.tmp125, i32 0, i32 0
  %497 = load i64, ptr %496, align 8
  %498 = getelementptr inbounds { i64, ptr }, ptr %agg.tmp125, i32 0, i32 1
  %499 = load ptr, ptr %498, align 8
  call void @_ZN12_GLOBAL__N_114TestFloatParseESt17basic_string_viewIcSt11char_traitsIcEEf(i64 %497, ptr %499, float noundef 0x39A5D594E0000000)
  call void @_ZNSt17basic_string_viewIcSt11char_traitsIcEEC2EPKc(ptr noundef nonnull align 8 dereferenceable(16) %agg.tmp126, ptr noundef @.str.159) #3
  %500 = getelementptr inbounds { i64, ptr }, ptr %agg.tmp126, i32 0, i32 0
  %501 = load i64, ptr %500, align 8
  %502 = getelementptr inbounds { i64, ptr }, ptr %agg.tmp126, i32 0, i32 1
  %503 = load ptr, ptr %502, align 8
  call void @_ZN12_GLOBAL__N_114TestFloatParseESt17basic_string_viewIcSt11char_traitsIcEEf(i64 %501, ptr %503, float noundef 0xB9A5D594E0000000)
  call void @_ZNSt17basic_string_viewIcSt11char_traitsIcEEC2EPKc(ptr noundef nonnull align 8 dereferenceable(16) %agg.tmp127, ptr noundef @.str.160) #3
  %504 = getelementptr inbounds { i64, ptr }, ptr %agg.tmp127, i32 0, i32 0
  %505 = load i64, ptr %504, align 8
  %506 = getelementptr inbounds { i64, ptr }, ptr %agg.tmp127, i32 0, i32 1
  %507 = load ptr, ptr %506, align 8
  call void @_ZN12_GLOBAL__N_114TestFloatParseESt17basic_string_viewIcSt11char_traitsIcEEf(i64 %505, ptr %507, float noundef 0x3A50513A20000000)
  call void @_ZNSt17basic_string_viewIcSt11char_traitsIcEEC2EPKc(ptr noundef nonnull align 8 dereferenceable(16) %agg.tmp128, ptr noundef @.str.161) #3
  %508 = getelementptr inbounds { i64, ptr }, ptr %agg.tmp128, i32 0, i32 0
  %509 = load i64, ptr %508, align 8
  %510 = getelementptr inbounds { i64, ptr }, ptr %agg.tmp128, i32 0, i32 1
  %511 = load ptr, ptr %510, align 8
  call void @_ZN12_GLOBAL__N_114TestFloatParseESt17basic_string_viewIcSt11char_traitsIcEEf(i64 %509, ptr %511, float noundef 0xBA50513A20000000)
  call void @_ZNSt17basic_string_viewIcSt11char_traitsIcEEC2EPKc(ptr noundef nonnull align 8 dereferenceable(16) %agg.tmp129, ptr noundef @.str.162) #3
  %512 = getelementptr inbounds { i64, ptr }, ptr %agg.tmp129, i32 0, i32 0
  %513 = load i64, ptr %512, align 8
  %514 = getelementptr inbounds { i64, ptr }, ptr %agg.tmp129, i32 0, i32 1
  %515 = load ptr, ptr %514, align 8
  call void @_ZN12_GLOBAL__N_114TestFloatParseESt17basic_string_viewIcSt11char_traitsIcEEf(i64 %513, ptr %515, float noundef 0x39E306EFC0000000)
  call void @_ZNSt17basic_string_viewIcSt11char_traitsIcEEC2EPKc(ptr noundef nonnull align 8 dereferenceable(16) %agg.tmp130, ptr noundef @.str.163) #3
  %516 = getelementptr inbounds { i64, ptr }, ptr %agg.tmp130, i32 0, i32 0
  %517 = load i64, ptr %516, align 8
  %518 = getelementptr inbounds { i64, ptr }, ptr %agg.tmp130, i32 0, i32 1
  %519 = load ptr, ptr %518, align 8
  call void @_ZN12_GLOBAL__N_114TestFloatParseESt17basic_string_viewIcSt11char_traitsIcEEf(i64 %517, ptr %519, float noundef 0xB9E306EFC0000000)
  call void @_ZNSt17basic_string_viewIcSt11char_traitsIcEEC2EPKc(ptr noundef nonnull align 8 dereferenceable(16) %agg.tmp131, ptr noundef @.str.164) #3
  %520 = getelementptr inbounds { i64, ptr }, ptr %agg.tmp131, i32 0, i32 0
  %521 = load i64, ptr %520, align 8
  %522 = getelementptr inbounds { i64, ptr }, ptr %agg.tmp131, i32 0, i32 1
  %523 = load ptr, ptr %522, align 8
  call void @_ZN12_GLOBAL__N_114TestFloatParseESt17basic_string_viewIcSt11char_traitsIcEEf(i64 %521, ptr %523, float noundef 0x39D306EFC0000000)
  call void @_ZNSt17basic_string_viewIcSt11char_traitsIcEEC2EPKc(ptr noundef nonnull align 8 dereferenceable(16) %agg.tmp132, ptr noundef @.str.165) #3
  %524 = getelementptr inbounds { i64, ptr }, ptr %agg.tmp132, i32 0, i32 0
  %525 = load i64, ptr %524, align 8
  %526 = getelementptr inbounds { i64, ptr }, ptr %agg.tmp132, i32 0, i32 1
  %527 = load ptr, ptr %526, align 8
  call void @_ZN12_GLOBAL__N_114TestFloatParseESt17basic_string_viewIcSt11char_traitsIcEEf(i64 %525, ptr %527, float noundef 0xB9D306EFC0000000)
  call void @_ZNSt17basic_string_viewIcSt11char_traitsIcEEC2EPKc(ptr noundef nonnull align 8 dereferenceable(16) %agg.tmp133, ptr noundef @.str.166) #3
  %528 = getelementptr inbounds { i64, ptr }, ptr %agg.tmp133, i32 0, i32 0
  %529 = load i64, ptr %528, align 8
  %530 = getelementptr inbounds { i64, ptr }, ptr %agg.tmp133, i32 0, i32 1
  %531 = load ptr, ptr %530, align 8
  call void @_ZN12_GLOBAL__N_114TestFloatParseESt17basic_string_viewIcSt11char_traitsIcEEf(i64 %529, ptr %531, float noundef 0x38D8FF6640000000)
  call void @_ZNSt17basic_string_viewIcSt11char_traitsIcEEC2EPKc(ptr noundef nonnull align 8 dereferenceable(16) %agg.tmp134, ptr noundef @.str.167) #3
  %532 = getelementptr inbounds { i64, ptr }, ptr %agg.tmp134, i32 0, i32 0
  %533 = load i64, ptr %532, align 8
  %534 = getelementptr inbounds { i64, ptr }, ptr %agg.tmp134, i32 0, i32 1
  %535 = load ptr, ptr %534, align 8
  call void @_ZN12_GLOBAL__N_114TestFloatParseESt17basic_string_viewIcSt11char_traitsIcEEf(i64 %533, ptr %535, float noundef 0xB8D8FF6640000000)
  call void @_ZNSt17basic_string_viewIcSt11char_traitsIcEEC2EPKc(ptr noundef nonnull align 8 dereferenceable(16) %agg.tmp135, ptr noundef @.str.168) #3
  %536 = getelementptr inbounds { i64, ptr }, ptr %agg.tmp135, i32 0, i32 0
  %537 = load i64, ptr %536, align 8
  %538 = getelementptr inbounds { i64, ptr }, ptr %agg.tmp135, i32 0, i32 1
  %539 = load ptr, ptr %538, align 8
  call void @_ZN12_GLOBAL__N_114TestFloatParseESt17basic_string_viewIcSt11char_traitsIcEEf(i64 %537, ptr %539, float noundef 0x4577C71400000000)
  call void @_ZNSt17basic_string_viewIcSt11char_traitsIcEEC2EPKc(ptr noundef nonnull align 8 dereferenceable(16) %agg.tmp136, ptr noundef @.str.169) #3
  %540 = getelementptr inbounds { i64, ptr }, ptr %agg.tmp136, i32 0, i32 0
  %541 = load i64, ptr %540, align 8
  %542 = getelementptr inbounds { i64, ptr }, ptr %agg.tmp136, i32 0, i32 1
  %543 = load ptr, ptr %542, align 8
  call void @_ZN12_GLOBAL__N_114TestFloatParseESt17basic_string_viewIcSt11char_traitsIcEEf(i64 %541, ptr %543, float noundef 0xC577C71400000000)
  ret void
}

; Function Attrs: mustprogress nounwind uwtable
define linkonce_odr dso_local noundef ptr @_ZN7testing4Test5SetupEv(ptr noundef nonnull align 8 dereferenceable(16) %this) unnamed_addr #7 comdat align 2 {
entry:
  %this.addr = alloca ptr, align 8
  store ptr %this, ptr %this.addr, align 8
  ret ptr null
}

; Function Attrs: nounwind
declare void @_ZN7testing4TestD2Ev(ptr noundef nonnull align 8 dereferenceable(16)) unnamed_addr #2

; Function Attrs: mustprogress uwtable
define internal void @_ZN12_GLOBAL__N_115TestDoubleParseESt17basic_string_viewIcSt11char_traitsIcEEd(i64 %str.coerce0, ptr %str.coerce1, double noundef %expected_number) #4 personality ptr @__gxx_personality_v0 {
entry:
  %str = alloca %"class.std::basic_string_view", align 8
  %expected_number.addr = alloca double, align 8
  %gtest_trace_48 = alloca %"class.testing::ScopedTrace", align 1
  %actual_number = alloca double, align 8
  %result = alloca %"struct.absl::from_chars_result", align 8
  %exn.slot = alloca ptr, align 8
  %ehselector.slot = alloca i32, align 4
  %gtest_ar = alloca %"class.testing::AssertionResult", align 8
  %ref.tmp = alloca i32, align 4
  %ref.tmp8 = alloca %"class.testing::Message", align 8
  %ref.tmp10 = alloca %"class.testing::internal::AssertHelper", align 8
  %gtest_ar18 = alloca %"class.testing::AssertionResult", align 8
  %ref.tmp19 = alloca ptr, align 8
  %ref.tmp29 = alloca %"class.testing::Message", align 8
  %ref.tmp31 = alloca %"class.testing::internal::AssertHelper", align 8
  %gtest_ar42 = alloca %"class.testing::AssertionResult", align 8
  %ref.tmp49 = alloca %"class.testing::Message", align 8
  %ref.tmp51 = alloca %"class.testing::internal::AssertHelper", align 8
  %0 = getelementptr inbounds { i64, ptr }, ptr %str, i32 0, i32 0
  store i64 %str.coerce0, ptr %0, align 8
  %1 = getelementptr inbounds { i64, ptr }, ptr %str, i32 0, i32 1
  store ptr %str.coerce1, ptr %1, align 8
  store double %expected_number, ptr %expected_number.addr, align 8
  call void @_ZN7testing11ScopedTraceC2ISt17basic_string_viewIcSt11char_traitsIcEEEEPKciRKT_(ptr noundef nonnull align 1 dereferenceable(1) %gtest_trace_48, ptr noundef @.str.3, i32 noundef 48, ptr noundef nonnull align 8 dereferenceable(16) %str)
  store double 0.000000e+00, ptr %actual_number, align 8
  %call = call noundef ptr @_ZNKSt17basic_string_viewIcSt11char_traitsIcEE4dataEv(ptr noundef nonnull align 8 dereferenceable(16) %str) #3
  %call1 = call noundef ptr @_ZNKSt17basic_string_viewIcSt11char_traitsIcEE4dataEv(ptr noundef nonnull align 8 dereferenceable(16) %str) #3
  %call2 = call noundef i64 @_ZNKSt17basic_string_viewIcSt11char_traitsIcEE6lengthEv(ptr noundef nonnull align 8 dereferenceable(16) %str) #3
  %add.ptr = getelementptr inbounds i8, ptr %call1, i64 %call2
  %call3 = invoke { ptr, i32 } @_ZN4absl10from_charsEPKcS1_RdNS_12chars_formatE(ptr noundef %call, ptr noundef %add.ptr, ptr noundef nonnull align 8 dereferenceable(8) %actual_number, i32 noundef 3)
          to label %invoke.cont unwind label %lpad

invoke.cont:                                      ; preds = %entry
  %2 = getelementptr inbounds { ptr, i32 }, ptr %result, i32 0, i32 0
  %3 = extractvalue { ptr, i32 } %call3, 0
  store ptr %3, ptr %2, align 8
  %4 = getelementptr inbounds { ptr, i32 }, ptr %result, i32 0, i32 1
  %5 = extractvalue { ptr, i32 } %call3, 1
  store i32 %5, ptr %4, align 8
  %ec = getelementptr inbounds %"struct.absl::from_chars_result", ptr %result, i32 0, i32 1
  store i32 0, ptr %ref.tmp, align 4
  invoke void @_ZN7testing8internal8EqHelper7CompareISt4errcS3_TnPNSt9enable_ifIXoontsr3std11is_integralIT_EE5valuentsr3std10is_pointerIT0_EE5valueEvE4typeELPv0EEENS_15AssertionResultEPKcSD_RKS5_RKS6_(ptr sret(%"class.testing::AssertionResult") align 8 %gtest_ar, ptr noundef @.str.170, ptr noundef @.str.171, ptr noundef nonnull align 4 dereferenceable(4) %ec, ptr noundef nonnull align 4 dereferenceable(4) %ref.tmp)
          to label %invoke.cont4 unwind label %lpad

invoke.cont4:                                     ; preds = %invoke.cont
  %call7 = invoke noundef zeroext i1 @_ZNK7testing15AssertionResultcvbEv(ptr noundef nonnull align 8 dereferenceable(16) %gtest_ar)
          to label %invoke.cont6 unwind label %lpad5

invoke.cont6:                                     ; preds = %invoke.cont4
  br i1 %call7, label %if.then, label %if.else

if.then:                                          ; preds = %invoke.cont6
  br label %if.end

lpad:                                             ; preds = %if.end40, %if.end, %invoke.cont, %entry
  %6 = landingpad { ptr, i32 }
          cleanup
  %7 = extractvalue { ptr, i32 } %6, 0
  store ptr %7, ptr %exn.slot, align 8
  %8 = extractvalue { ptr, i32 } %6, 1
  store i32 %8, ptr %ehselector.slot, align 4
  br label %ehcleanup62

lpad5:                                            ; preds = %if.else, %invoke.cont4
  %9 = landingpad { ptr, i32 }
          cleanup
  %10 = extractvalue { ptr, i32 } %9, 0
  store ptr %10, ptr %exn.slot, align 8
  %11 = extractvalue { ptr, i32 } %9, 1
  store i32 %11, ptr %ehselector.slot, align 4
  br label %ehcleanup17

if.else:                                          ; preds = %invoke.cont6
  invoke void @_ZN7testing7MessageC1Ev(ptr noundef nonnull align 8 dereferenceable(8) %ref.tmp8)
          to label %invoke.cont9 unwind label %lpad5

invoke.cont9:                                     ; preds = %if.else
  %call13 = invoke noundef ptr @_ZNK7testing15AssertionResult15failure_messageEv(ptr noundef nonnull align 8 dereferenceable(16) %gtest_ar)
          to label %invoke.cont12 unwind label %lpad11

invoke.cont12:                                    ; preds = %invoke.cont9
  invoke void @_ZN7testing8internal12AssertHelperC1ENS_14TestPartResult4TypeEPKciS5_(ptr noundef nonnull align 8 dereferenceable(8) %ref.tmp10, i32 noundef 1, ptr noundef @.str.3, i32 noundef 52, ptr noundef %call13)
          to label %invoke.cont14 unwind label %lpad11

invoke.cont14:                                    ; preds = %invoke.cont12
  invoke void @_ZNK7testing8internal12AssertHelperaSERKNS_7MessageE(ptr noundef nonnull align 8 dereferenceable(8) %ref.tmp10, ptr noundef nonnull align 8 dereferenceable(8) %ref.tmp8)
          to label %invoke.cont16 unwind label %lpad15

invoke.cont16:                                    ; preds = %invoke.cont14
  call void @_ZN7testing8internal12AssertHelperD1Ev(ptr noundef nonnull align 8 dereferenceable(8) %ref.tmp10) #3
  call void @_ZN7testing7MessageD2Ev(ptr noundef nonnull align 8 dereferenceable(8) %ref.tmp8) #3
  br label %if.end

lpad11:                                           ; preds = %invoke.cont12, %invoke.cont9
  %12 = landingpad { ptr, i32 }
          cleanup
  %13 = extractvalue { ptr, i32 } %12, 0
  store ptr %13, ptr %exn.slot, align 8
  %14 = extractvalue { ptr, i32 } %12, 1
  store i32 %14, ptr %ehselector.slot, align 4
  br label %ehcleanup

lpad15:                                           ; preds = %invoke.cont14
  %15 = landingpad { ptr, i32 }
          cleanup
  %16 = extractvalue { ptr, i32 } %15, 0
  store ptr %16, ptr %exn.slot, align 8
  %17 = extractvalue { ptr, i32 } %15, 1
  store i32 %17, ptr %ehselector.slot, align 4
  call void @_ZN7testing8internal12AssertHelperD1Ev(ptr noundef nonnull align 8 dereferenceable(8) %ref.tmp10) #3
  br label %ehcleanup

ehcleanup:                                        ; preds = %lpad15, %lpad11
  call void @_ZN7testing7MessageD2Ev(ptr noundef nonnull align 8 dereferenceable(8) %ref.tmp8) #3
  br label %ehcleanup17

if.end:                                           ; preds = %invoke.cont16, %if.then
  call void @_ZN7testing15AssertionResultD2Ev(ptr noundef nonnull align 8 dereferenceable(16) %gtest_ar) #3
  %ptr = getelementptr inbounds %"struct.absl::from_chars_result", ptr %result, i32 0, i32 0
  %call20 = call noundef ptr @_ZNKSt17basic_string_viewIcSt11char_traitsIcEE4dataEv(ptr noundef nonnull align 8 dereferenceable(16) %str) #3
  %call21 = call noundef i64 @_ZNKSt17basic_string_viewIcSt11char_traitsIcEE6lengthEv(ptr noundef nonnull align 8 dereferenceable(16) %str) #3
  %add.ptr22 = getelementptr inbounds i8, ptr %call20, i64 %call21
  store ptr %add.ptr22, ptr %ref.tmp19, align 8
  invoke void @_ZN7testing8internal8EqHelper7CompareIPKcS4_TnPNSt9enable_ifIXoontsr3std11is_integralIT_EE5valuentsr3std10is_pointerIT0_EE5valueEvE4typeELPv0EEENS_15AssertionResultES4_S4_RKS6_RKS7_(ptr sret(%"class.testing::AssertionResult") align 8 %gtest_ar18, ptr noundef @.str.172, ptr noundef @.str.173, ptr noundef nonnull align 8 dereferenceable(8) %ptr, ptr noundef nonnull align 8 dereferenceable(8) %ref.tmp19)
          to label %invoke.cont23 unwind label %lpad

invoke.cont23:                                    ; preds = %if.end
  %call26 = invoke noundef zeroext i1 @_ZNK7testing15AssertionResultcvbEv(ptr noundef nonnull align 8 dereferenceable(16) %gtest_ar18)
          to label %invoke.cont25 unwind label %lpad24

invoke.cont25:                                    ; preds = %invoke.cont23
  br i1 %call26, label %if.then27, label %if.else28

if.then27:                                        ; preds = %invoke.cont25
  br label %if.end40

ehcleanup17:                                      ; preds = %ehcleanup, %lpad5
  call void @_ZN7testing15AssertionResultD2Ev(ptr noundef nonnull align 8 dereferenceable(16) %gtest_ar) #3
  br label %ehcleanup62

lpad24:                                           ; preds = %if.else28, %invoke.cont23
  %18 = landingpad { ptr, i32 }
          cleanup
  %19 = extractvalue { ptr, i32 } %18, 0
  store ptr %19, ptr %exn.slot, align 8
  %20 = extractvalue { ptr, i32 } %18, 1
  store i32 %20, ptr %ehselector.slot, align 4
  br label %ehcleanup41

if.else28:                                        ; preds = %invoke.cont25
  invoke void @_ZN7testing7MessageC1Ev(ptr noundef nonnull align 8 dereferenceable(8) %ref.tmp29)
          to label %invoke.cont30 unwind label %lpad24

invoke.cont30:                                    ; preds = %if.else28
  %call34 = invoke noundef ptr @_ZNK7testing15AssertionResult15failure_messageEv(ptr noundef nonnull align 8 dereferenceable(16) %gtest_ar18)
          to label %invoke.cont33 unwind label %lpad32

invoke.cont33:                                    ; preds = %invoke.cont30
  invoke void @_ZN7testing8internal12AssertHelperC1ENS_14TestPartResult4TypeEPKciS5_(ptr noundef nonnull align 8 dereferenceable(8) %ref.tmp31, i32 noundef 1, ptr noundef @.str.3, i32 noundef 53, ptr noundef %call34)
          to label %invoke.cont35 unwind label %lpad32

invoke.cont35:                                    ; preds = %invoke.cont33
  invoke void @_ZNK7testing8internal12AssertHelperaSERKNS_7MessageE(ptr noundef nonnull align 8 dereferenceable(8) %ref.tmp31, ptr noundef nonnull align 8 dereferenceable(8) %ref.tmp29)
          to label %invoke.cont37 unwind label %lpad36

invoke.cont37:                                    ; preds = %invoke.cont35
  call void @_ZN7testing8internal12AssertHelperD1Ev(ptr noundef nonnull align 8 dereferenceable(8) %ref.tmp31) #3
  call void @_ZN7testing7MessageD2Ev(ptr noundef nonnull align 8 dereferenceable(8) %ref.tmp29) #3
  br label %if.end40

lpad32:                                           ; preds = %invoke.cont33, %invoke.cont30
  %21 = landingpad { ptr, i32 }
          cleanup
  %22 = extractvalue { ptr, i32 } %21, 0
  store ptr %22, ptr %exn.slot, align 8
  %23 = extractvalue { ptr, i32 } %21, 1
  store i32 %23, ptr %ehselector.slot, align 4
  br label %ehcleanup39

lpad36:                                           ; preds = %invoke.cont35
  %24 = landingpad { ptr, i32 }
          cleanup
  %25 = extractvalue { ptr, i32 } %24, 0
  store ptr %25, ptr %exn.slot, align 8
  %26 = extractvalue { ptr, i32 } %24, 1
  store i32 %26, ptr %ehselector.slot, align 4
  call void @_ZN7testing8internal12AssertHelperD1Ev(ptr noundef nonnull align 8 dereferenceable(8) %ref.tmp31) #3
  br label %ehcleanup39

ehcleanup39:                                      ; preds = %lpad36, %lpad32
  call void @_ZN7testing7MessageD2Ev(ptr noundef nonnull align 8 dereferenceable(8) %ref.tmp29) #3
  br label %ehcleanup41

if.end40:                                         ; preds = %invoke.cont37, %if.then27
  call void @_ZN7testing15AssertionResultD2Ev(ptr noundef nonnull align 8 dereferenceable(16) %gtest_ar18) #3
  invoke void @_ZN7testing8internal8EqHelper7CompareIddTnPNSt9enable_ifIXoontsr3std11is_integralIT_EE5valuentsr3std10is_pointerIT0_EE5valueEvE4typeELPv0EEENS_15AssertionResultEPKcSC_RKS4_RKS5_(ptr sret(%"class.testing::AssertionResult") align 8 %gtest_ar42, ptr noundef @.str.174, ptr noundef @.str.175, ptr noundef nonnull align 8 dereferenceable(8) %actual_number, ptr noundef nonnull align 8 dereferenceable(8) %expected_number.addr)
          to label %invoke.cont43 unwind label %lpad

invoke.cont43:                                    ; preds = %if.end40
  %call46 = invoke noundef zeroext i1 @_ZNK7testing15AssertionResultcvbEv(ptr noundef nonnull align 8 dereferenceable(16) %gtest_ar42)
          to label %invoke.cont45 unwind label %lpad44

invoke.cont45:                                    ; preds = %invoke.cont43
  br i1 %call46, label %if.then47, label %if.else48

if.then47:                                        ; preds = %invoke.cont45
  br label %if.end60

ehcleanup41:                                      ; preds = %ehcleanup39, %lpad24
  call void @_ZN7testing15AssertionResultD2Ev(ptr noundef nonnull align 8 dereferenceable(16) %gtest_ar18) #3
  br label %ehcleanup62

lpad44:                                           ; preds = %if.else48, %invoke.cont43
  %27 = landingpad { ptr, i32 }
          cleanup
  %28 = extractvalue { ptr, i32 } %27, 0
  store ptr %28, ptr %exn.slot, align 8
  %29 = extractvalue { ptr, i32 } %27, 1
  store i32 %29, ptr %ehselector.slot, align 4
  br label %ehcleanup61

if.else48:                                        ; preds = %invoke.cont45
  invoke void @_ZN7testing7MessageC1Ev(ptr noundef nonnull align 8 dereferenceable(8) %ref.tmp49)
          to label %invoke.cont50 unwind label %lpad44

invoke.cont50:                                    ; preds = %if.else48
  %call54 = invoke noundef ptr @_ZNK7testing15AssertionResult15failure_messageEv(ptr noundef nonnull align 8 dereferenceable(16) %gtest_ar42)
          to label %invoke.cont53 unwind label %lpad52

invoke.cont53:                                    ; preds = %invoke.cont50
  invoke void @_ZN7testing8internal12AssertHelperC1ENS_14TestPartResult4TypeEPKciS5_(ptr noundef nonnull align 8 dereferenceable(8) %ref.tmp51, i32 noundef 1, ptr noundef @.str.3, i32 noundef 54, ptr noundef %call54)
          to label %invoke.cont55 unwind label %lpad52

invoke.cont55:                                    ; preds = %invoke.cont53
  invoke void @_ZNK7testing8internal12AssertHelperaSERKNS_7MessageE(ptr noundef nonnull align 8 dereferenceable(8) %ref.tmp51, ptr noundef nonnull align 8 dereferenceable(8) %ref.tmp49)
          to label %invoke.cont57 unwind label %lpad56

invoke.cont57:                                    ; preds = %invoke.cont55
  call void @_ZN7testing8internal12AssertHelperD1Ev(ptr noundef nonnull align 8 dereferenceable(8) %ref.tmp51) #3
  call void @_ZN7testing7MessageD2Ev(ptr noundef nonnull align 8 dereferenceable(8) %ref.tmp49) #3
  br label %if.end60

lpad52:                                           ; preds = %invoke.cont53, %invoke.cont50
  %30 = landingpad { ptr, i32 }
          cleanup
  %31 = extractvalue { ptr, i32 } %30, 0
  store ptr %31, ptr %exn.slot, align 8
  %32 = extractvalue { ptr, i32 } %30, 1
  store i32 %32, ptr %ehselector.slot, align 4
  br label %ehcleanup59

lpad56:                                           ; preds = %invoke.cont55
  %33 = landingpad { ptr, i32 }
          cleanup
  %34 = extractvalue { ptr, i32 } %33, 0
  store ptr %34, ptr %exn.slot, align 8
  %35 = extractvalue { ptr, i32 } %33, 1
  store i32 %35, ptr %ehselector.slot, align 4
  call void @_ZN7testing8internal12AssertHelperD1Ev(ptr noundef nonnull align 8 dereferenceable(8) %ref.tmp51) #3
  br label %ehcleanup59

ehcleanup59:                                      ; preds = %lpad56, %lpad52
  call void @_ZN7testing7MessageD2Ev(ptr noundef nonnull align 8 dereferenceable(8) %ref.tmp49) #3
  br label %ehcleanup61

if.end60:                                         ; preds = %invoke.cont57, %if.then47
  call void @_ZN7testing15AssertionResultD2Ev(ptr noundef nonnull align 8 dereferenceable(16) %gtest_ar42) #3
  call void @_ZN7testing11ScopedTraceD1Ev(ptr noundef nonnull align 1 dereferenceable(1) %gtest_trace_48) #3
  ret void

ehcleanup61:                                      ; preds = %ehcleanup59, %lpad44
  call void @_ZN7testing15AssertionResultD2Ev(ptr noundef nonnull align 8 dereferenceable(16) %gtest_ar42) #3
  br label %ehcleanup62

ehcleanup62:                                      ; preds = %ehcleanup61, %ehcleanup41, %ehcleanup17, %lpad
  call void @_ZN7testing11ScopedTraceD1Ev(ptr noundef nonnull align 1 dereferenceable(1) %gtest_trace_48) #3
  br label %eh.resume

eh.resume:                                        ; preds = %ehcleanup62
  %exn = load ptr, ptr %exn.slot, align 8
  %sel = load i32, ptr %ehselector.slot, align 4
  %lpad.val = insertvalue { ptr, i32 } poison, ptr %exn, 0
  %lpad.val63 = insertvalue { ptr, i32 } %lpad.val, i32 %sel, 1
  resume { ptr, i32 } %lpad.val63
}

; Function Attrs: mustprogress nounwind uwtable
define linkonce_odr dso_local void @_ZNSt17basic_string_viewIcSt11char_traitsIcEEC2EPKc(ptr noundef nonnull align 8 dereferenceable(16) %this, ptr noundef nonnull %__str) unnamed_addr #7 comdat align 2 personality ptr @__gxx_personality_v0 {
entry:
  %this.addr = alloca ptr, align 8
  %__str.addr = alloca ptr, align 8
  store ptr %this, ptr %this.addr, align 8
  store ptr %__str, ptr %__str.addr, align 8
  %this1 = load ptr, ptr %this.addr, align 8
  %_M_len = getelementptr inbounds %"class.std::basic_string_view", ptr %this1, i32 0, i32 0
  %0 = load ptr, ptr %__str.addr, align 8
  %call = invoke noundef i64 @_ZNSt11char_traitsIcE6lengthEPKc(ptr noundef %0)
          to label %invoke.cont unwind label %terminate.lpad

invoke.cont:                                      ; preds = %entry
  store i64 %call, ptr %_M_len, align 8
  %_M_str = getelementptr inbounds %"class.std::basic_string_view", ptr %this1, i32 0, i32 1
  %1 = load ptr, ptr %__str.addr, align 8
  store ptr %1, ptr %_M_str, align 8
  ret void

terminate.lpad:                                   ; preds = %entry
  %2 = landingpad { ptr, i32 }
          catch ptr null
  %3 = extractvalue { ptr, i32 } %2, 0
  call void @__clang_call_terminate(ptr %3) #18
  unreachable
}

; Function Attrs: mustprogress uwtable
define internal void @_ZN12_GLOBAL__N_114TestFloatParseESt17basic_string_viewIcSt11char_traitsIcEEf(i64 %str.coerce0, ptr %str.coerce1, float noundef %expected_number) #4 personality ptr @__gxx_personality_v0 {
entry:
  %str = alloca %"class.std::basic_string_view", align 8
  %expected_number.addr = alloca float, align 4
  %gtest_trace_58 = alloca %"class.testing::ScopedTrace", align 1
  %actual_number = alloca float, align 4
  %result = alloca %"struct.absl::from_chars_result", align 8
  %exn.slot = alloca ptr, align 8
  %ehselector.slot = alloca i32, align 4
  %gtest_ar = alloca %"class.testing::AssertionResult", align 8
  %ref.tmp = alloca i32, align 4
  %ref.tmp6 = alloca %"class.testing::Message", align 8
  %ref.tmp9 = alloca %"class.testing::internal::AssertHelper", align 8
  %gtest_ar17 = alloca %"class.testing::AssertionResult", align 8
  %ref.tmp18 = alloca ptr, align 8
  %ref.tmp26 = alloca %"class.testing::Message", align 8
  %ref.tmp29 = alloca %"class.testing::internal::AssertHelper", align 8
  %gtest_ar40 = alloca %"class.testing::AssertionResult", align 8
  %ref.tmp45 = alloca %"class.testing::Message", align 8
  %ref.tmp48 = alloca %"class.testing::internal::AssertHelper", align 8
  %0 = getelementptr inbounds { i64, ptr }, ptr %str, i32 0, i32 0
  store i64 %str.coerce0, ptr %0, align 8
  %1 = getelementptr inbounds { i64, ptr }, ptr %str, i32 0, i32 1
  store ptr %str.coerce1, ptr %1, align 8
  store float %expected_number, ptr %expected_number.addr, align 4
  call void @_ZN7testing11ScopedTraceC2ISt17basic_string_viewIcSt11char_traitsIcEEEEPKciRKT_(ptr noundef nonnull align 1 dereferenceable(1) %gtest_trace_58, ptr noundef @.str.3, i32 noundef 58, ptr noundef nonnull align 8 dereferenceable(16) %str)
  store float 0.000000e+00, ptr %actual_number, align 4
  %call = call noundef ptr @_ZNKSt17basic_string_viewIcSt11char_traitsIcEE4dataEv(ptr noundef nonnull align 8 dereferenceable(16) %str) #3
  %call1 = call noundef ptr @_ZNKSt17basic_string_viewIcSt11char_traitsIcEE4dataEv(ptr noundef nonnull align 8 dereferenceable(16) %str) #3
  %call2 = call noundef i64 @_ZNKSt17basic_string_viewIcSt11char_traitsIcEE6lengthEv(ptr noundef nonnull align 8 dereferenceable(16) %str) #3
  %add.ptr = getelementptr inbounds i8, ptr %call1, i64 %call2
  %call3 = invoke { ptr, i32 } @_ZN4absl10from_charsEPKcS1_RfNS_12chars_formatE(ptr noundef %call, ptr noundef %add.ptr, ptr noundef nonnull align 4 dereferenceable(4) %actual_number, i32 noundef 3)
          to label %invoke.cont unwind label %lpad

invoke.cont:                                      ; preds = %entry
  %2 = getelementptr inbounds { ptr, i32 }, ptr %result, i32 0, i32 0
  %3 = extractvalue { ptr, i32 } %call3, 0
  store ptr %3, ptr %2, align 8
  %4 = getelementptr inbounds { ptr, i32 }, ptr %result, i32 0, i32 1
  %5 = extractvalue { ptr, i32 } %call3, 1
  store i32 %5, ptr %4, align 8
  %ec = getelementptr inbounds %"struct.absl::from_chars_result", ptr %result, i32 0, i32 1
  store i32 0, ptr %ref.tmp, align 4
  invoke void @_ZN7testing8internal8EqHelper7CompareISt4errcS3_TnPNSt9enable_ifIXoontsr3std11is_integralIT_EE5valuentsr3std10is_pointerIT0_EE5valueEvE4typeELPv0EEENS_15AssertionResultEPKcSD_RKS5_RKS6_(ptr sret(%"class.testing::AssertionResult") align 8 %gtest_ar, ptr noundef @.str.170, ptr noundef @.str.171, ptr noundef nonnull align 4 dereferenceable(4) %ec, ptr noundef nonnull align 4 dereferenceable(4) %ref.tmp)
          to label %invoke.cont4 unwind label %lpad

invoke.cont4:                                     ; preds = %invoke.cont
  %call5 = call noundef zeroext i1 @_ZNK7testing15AssertionResultcvbEv(ptr noundef nonnull align 8 dereferenceable(16) %gtest_ar)
  br i1 %call5, label %if.then, label %if.else

if.then:                                          ; preds = %invoke.cont4
  br label %if.end

lpad:                                             ; preds = %if.end38, %if.end, %invoke.cont, %entry
  %6 = landingpad { ptr, i32 }
          cleanup
  %7 = extractvalue { ptr, i32 } %6, 0
  store ptr %7, ptr %exn.slot, align 8
  %8 = extractvalue { ptr, i32 } %6, 1
  store i32 %8, ptr %ehselector.slot, align 4
  br label %ehcleanup59

if.else:                                          ; preds = %invoke.cont4
  invoke void @_ZN7testing7MessageC1Ev(ptr noundef nonnull align 8 dereferenceable(8) %ref.tmp6)
          to label %invoke.cont8 unwind label %lpad7

invoke.cont8:                                     ; preds = %if.else
  %call12 = invoke noundef ptr @_ZNK7testing15AssertionResult15failure_messageEv(ptr noundef nonnull align 8 dereferenceable(16) %gtest_ar)
          to label %invoke.cont11 unwind label %lpad10

invoke.cont11:                                    ; preds = %invoke.cont8
  invoke void @_ZN7testing8internal12AssertHelperC1ENS_14TestPartResult4TypeEPKciS5_(ptr noundef nonnull align 8 dereferenceable(8) %ref.tmp9, i32 noundef 1, ptr noundef @.str.3, i32 noundef 62, ptr noundef %call12)
          to label %invoke.cont13 unwind label %lpad10

invoke.cont13:                                    ; preds = %invoke.cont11
  invoke void @_ZNK7testing8internal12AssertHelperaSERKNS_7MessageE(ptr noundef nonnull align 8 dereferenceable(8) %ref.tmp9, ptr noundef nonnull align 8 dereferenceable(8) %ref.tmp6)
          to label %invoke.cont15 unwind label %lpad14

invoke.cont15:                                    ; preds = %invoke.cont13
  call void @_ZN7testing8internal12AssertHelperD1Ev(ptr noundef nonnull align 8 dereferenceable(8) %ref.tmp9) #3
  call void @_ZN7testing7MessageD2Ev(ptr noundef nonnull align 8 dereferenceable(8) %ref.tmp6) #3
  br label %if.end

lpad7:                                            ; preds = %if.else
  %9 = landingpad { ptr, i32 }
          cleanup
  %10 = extractvalue { ptr, i32 } %9, 0
  store ptr %10, ptr %exn.slot, align 8
  %11 = extractvalue { ptr, i32 } %9, 1
  store i32 %11, ptr %ehselector.slot, align 4
  br label %ehcleanup16

lpad10:                                           ; preds = %invoke.cont11, %invoke.cont8
  %12 = landingpad { ptr, i32 }
          cleanup
  %13 = extractvalue { ptr, i32 } %12, 0
  store ptr %13, ptr %exn.slot, align 8
  %14 = extractvalue { ptr, i32 } %12, 1
  store i32 %14, ptr %ehselector.slot, align 4
  br label %ehcleanup

lpad14:                                           ; preds = %invoke.cont13
  %15 = landingpad { ptr, i32 }
          cleanup
  %16 = extractvalue { ptr, i32 } %15, 0
  store ptr %16, ptr %exn.slot, align 8
  %17 = extractvalue { ptr, i32 } %15, 1
  store i32 %17, ptr %ehselector.slot, align 4
  call void @_ZN7testing8internal12AssertHelperD1Ev(ptr noundef nonnull align 8 dereferenceable(8) %ref.tmp9) #3
  br label %ehcleanup

ehcleanup:                                        ; preds = %lpad14, %lpad10
  call void @_ZN7testing7MessageD2Ev(ptr noundef nonnull align 8 dereferenceable(8) %ref.tmp6) #3
  br label %ehcleanup16

if.end:                                           ; preds = %invoke.cont15, %if.then
  call void @_ZN7testing15AssertionResultD2Ev(ptr noundef nonnull align 8 dereferenceable(16) %gtest_ar) #3
  %ptr = getelementptr inbounds %"struct.absl::from_chars_result", ptr %result, i32 0, i32 0
  %call19 = call noundef ptr @_ZNKSt17basic_string_viewIcSt11char_traitsIcEE4dataEv(ptr noundef nonnull align 8 dereferenceable(16) %str) #3
  %call20 = call noundef i64 @_ZNKSt17basic_string_viewIcSt11char_traitsIcEE6lengthEv(ptr noundef nonnull align 8 dereferenceable(16) %str) #3
  %add.ptr21 = getelementptr inbounds i8, ptr %call19, i64 %call20
  store ptr %add.ptr21, ptr %ref.tmp18, align 8
  invoke void @_ZN7testing8internal8EqHelper7CompareIPKcS4_TnPNSt9enable_ifIXoontsr3std11is_integralIT_EE5valuentsr3std10is_pointerIT0_EE5valueEvE4typeELPv0EEENS_15AssertionResultES4_S4_RKS6_RKS7_(ptr sret(%"class.testing::AssertionResult") align 8 %gtest_ar17, ptr noundef @.str.172, ptr noundef @.str.173, ptr noundef nonnull align 8 dereferenceable(8) %ptr, ptr noundef nonnull align 8 dereferenceable(8) %ref.tmp18)
          to label %invoke.cont22 unwind label %lpad

invoke.cont22:                                    ; preds = %if.end
  %call23 = call noundef zeroext i1 @_ZNK7testing15AssertionResultcvbEv(ptr noundef nonnull align 8 dereferenceable(16) %gtest_ar17)
  br i1 %call23, label %if.then24, label %if.else25

if.then24:                                        ; preds = %invoke.cont22
  br label %if.end38

ehcleanup16:                                      ; preds = %ehcleanup, %lpad7
  call void @_ZN7testing15AssertionResultD2Ev(ptr noundef nonnull align 8 dereferenceable(16) %gtest_ar) #3
  br label %ehcleanup59

if.else25:                                        ; preds = %invoke.cont22
  invoke void @_ZN7testing7MessageC1Ev(ptr noundef nonnull align 8 dereferenceable(8) %ref.tmp26)
          to label %invoke.cont28 unwind label %lpad27

invoke.cont28:                                    ; preds = %if.else25
  %call32 = invoke noundef ptr @_ZNK7testing15AssertionResult15failure_messageEv(ptr noundef nonnull align 8 dereferenceable(16) %gtest_ar17)
          to label %invoke.cont31 unwind label %lpad30

invoke.cont31:                                    ; preds = %invoke.cont28
  invoke void @_ZN7testing8internal12AssertHelperC1ENS_14TestPartResult4TypeEPKciS5_(ptr noundef nonnull align 8 dereferenceable(8) %ref.tmp29, i32 noundef 1, ptr noundef @.str.3, i32 noundef 63, ptr noundef %call32)
          to label %invoke.cont33 unwind label %lpad30

invoke.cont33:                                    ; preds = %invoke.cont31
  invoke void @_ZNK7testing8internal12AssertHelperaSERKNS_7MessageE(ptr noundef nonnull align 8 dereferenceable(8) %ref.tmp29, ptr noundef nonnull align 8 dereferenceable(8) %ref.tmp26)
          to label %invoke.cont35 unwind label %lpad34

invoke.cont35:                                    ; preds = %invoke.cont33
  call void @_ZN7testing8internal12AssertHelperD1Ev(ptr noundef nonnull align 8 dereferenceable(8) %ref.tmp29) #3
  call void @_ZN7testing7MessageD2Ev(ptr noundef nonnull align 8 dereferenceable(8) %ref.tmp26) #3
  br label %if.end38

lpad27:                                           ; preds = %if.else25
  %18 = landingpad { ptr, i32 }
          cleanup
  %19 = extractvalue { ptr, i32 } %18, 0
  store ptr %19, ptr %exn.slot, align 8
  %20 = extractvalue { ptr, i32 } %18, 1
  store i32 %20, ptr %ehselector.slot, align 4
  br label %ehcleanup39

lpad30:                                           ; preds = %invoke.cont31, %invoke.cont28
  %21 = landingpad { ptr, i32 }
          cleanup
  %22 = extractvalue { ptr, i32 } %21, 0
  store ptr %22, ptr %exn.slot, align 8
  %23 = extractvalue { ptr, i32 } %21, 1
  store i32 %23, ptr %ehselector.slot, align 4
  br label %ehcleanup37

lpad34:                                           ; preds = %invoke.cont33
  %24 = landingpad { ptr, i32 }
          cleanup
  %25 = extractvalue { ptr, i32 } %24, 0
  store ptr %25, ptr %exn.slot, align 8
  %26 = extractvalue { ptr, i32 } %24, 1
  store i32 %26, ptr %ehselector.slot, align 4
  call void @_ZN7testing8internal12AssertHelperD1Ev(ptr noundef nonnull align 8 dereferenceable(8) %ref.tmp29) #3
  br label %ehcleanup37

ehcleanup37:                                      ; preds = %lpad34, %lpad30
  call void @_ZN7testing7MessageD2Ev(ptr noundef nonnull align 8 dereferenceable(8) %ref.tmp26) #3
  br label %ehcleanup39

if.end38:                                         ; preds = %invoke.cont35, %if.then24
  call void @_ZN7testing15AssertionResultD2Ev(ptr noundef nonnull align 8 dereferenceable(16) %gtest_ar17) #3
  invoke void @_ZN7testing8internal8EqHelper7CompareIffTnPNSt9enable_ifIXoontsr3std11is_integralIT_EE5valuentsr3std10is_pointerIT0_EE5valueEvE4typeELPv0EEENS_15AssertionResultEPKcSC_RKS4_RKS5_(ptr sret(%"class.testing::AssertionResult") align 8 %gtest_ar40, ptr noundef @.str.174, ptr noundef @.str.175, ptr noundef nonnull align 4 dereferenceable(4) %actual_number, ptr noundef nonnull align 4 dereferenceable(4) %expected_number.addr)
          to label %invoke.cont41 unwind label %lpad

invoke.cont41:                                    ; preds = %if.end38
  %call42 = call noundef zeroext i1 @_ZNK7testing15AssertionResultcvbEv(ptr noundef nonnull align 8 dereferenceable(16) %gtest_ar40)
  br i1 %call42, label %if.then43, label %if.else44

if.then43:                                        ; preds = %invoke.cont41
  br label %if.end57

ehcleanup39:                                      ; preds = %ehcleanup37, %lpad27
  call void @_ZN7testing15AssertionResultD2Ev(ptr noundef nonnull align 8 dereferenceable(16) %gtest_ar17) #3
  br label %ehcleanup59

if.else44:                                        ; preds = %invoke.cont41
  invoke void @_ZN7testing7MessageC1Ev(ptr noundef nonnull align 8 dereferenceable(8) %ref.tmp45)
          to label %invoke.cont47 unwind label %lpad46

invoke.cont47:                                    ; preds = %if.else44
  %call51 = invoke noundef ptr @_ZNK7testing15AssertionResult15failure_messageEv(ptr noundef nonnull align 8 dereferenceable(16) %gtest_ar40)
          to label %invoke.cont50 unwind label %lpad49

invoke.cont50:                                    ; preds = %invoke.cont47
  invoke void @_ZN7testing8internal12AssertHelperC1ENS_14TestPartResult4TypeEPKciS5_(ptr noundef nonnull align 8 dereferenceable(8) %ref.tmp48, i32 noundef 1, ptr noundef @.str.3, i32 noundef 64, ptr noundef %call51)
          to label %invoke.cont52 unwind label %lpad49

invoke.cont52:                                    ; preds = %invoke.cont50
  invoke void @_ZNK7testing8internal12AssertHelperaSERKNS_7MessageE(ptr noundef nonnull align 8 dereferenceable(8) %ref.tmp48, ptr noundef nonnull align 8 dereferenceable(8) %ref.tmp45)
          to label %invoke.cont54 unwind label %lpad53

invoke.cont54:                                    ; preds = %invoke.cont52
  call void @_ZN7testing8internal12AssertHelperD1Ev(ptr noundef nonnull align 8 dereferenceable(8) %ref.tmp48) #3
  call void @_ZN7testing7MessageD2Ev(ptr noundef nonnull align 8 dereferenceable(8) %ref.tmp45) #3
  br label %if.end57

lpad46:                                           ; preds = %if.else44
  %27 = landingpad { ptr, i32 }
          cleanup
  %28 = extractvalue { ptr, i32 } %27, 0
  store ptr %28, ptr %exn.slot, align 8
  %29 = extractvalue { ptr, i32 } %27, 1
  store i32 %29, ptr %ehselector.slot, align 4
  br label %ehcleanup58

lpad49:                                           ; preds = %invoke.cont50, %invoke.cont47
  %30 = landingpad { ptr, i32 }
          cleanup
  %31 = extractvalue { ptr, i32 } %30, 0
  store ptr %31, ptr %exn.slot, align 8
  %32 = extractvalue { ptr, i32 } %30, 1
  store i32 %32, ptr %ehselector.slot, align 4
  br label %ehcleanup56

lpad53:                                           ; preds = %invoke.cont52
  %33 = landingpad { ptr, i32 }
          cleanup
  %34 = extractvalue { ptr, i32 } %33, 0
  store ptr %34, ptr %exn.slot, align 8
  %35 = extractvalue { ptr, i32 } %33, 1
  store i32 %35, ptr %ehselector.slot, align 4
  call void @_ZN7testing8internal12AssertHelperD1Ev(ptr noundef nonnull align 8 dereferenceable(8) %ref.tmp48) #3
  br label %ehcleanup56

ehcleanup56:                                      ; preds = %lpad53, %lpad49
  call void @_ZN7testing7MessageD2Ev(ptr noundef nonnull align 8 dereferenceable(8) %ref.tmp45) #3
  br label %ehcleanup58

if.end57:                                         ; preds = %invoke.cont54, %if.then43
  call void @_ZN7testing15AssertionResultD2Ev(ptr noundef nonnull align 8 dereferenceable(16) %gtest_ar40) #3
  call void @_ZN7testing11ScopedTraceD1Ev(ptr noundef nonnull align 1 dereferenceable(1) %gtest_trace_58) #3
  ret void

ehcleanup58:                                      ; preds = %ehcleanup56, %lpad46
  call void @_ZN7testing15AssertionResultD2Ev(ptr noundef nonnull align 8 dereferenceable(16) %gtest_ar40) #3
  br label %ehcleanup59

ehcleanup59:                                      ; preds = %ehcleanup58, %ehcleanup39, %ehcleanup16, %lpad
  call void @_ZN7testing11ScopedTraceD1Ev(ptr noundef nonnull align 1 dereferenceable(1) %gtest_trace_58) #3
  br label %eh.resume

eh.resume:                                        ; preds = %ehcleanup59
  %exn = load ptr, ptr %exn.slot, align 8
  %sel = load i32, ptr %ehselector.slot, align 4
  %lpad.val = insertvalue { ptr, i32 } poison, ptr %exn, 0
  %lpad.val60 = insertvalue { ptr, i32 } %lpad.val, i32 %sel, 1
  resume { ptr, i32 } %lpad.val60
}

; Function Attrs: mustprogress uwtable
define linkonce_odr dso_local void @_ZN7testing11ScopedTraceC2ISt17basic_string_viewIcSt11char_traitsIcEEEEPKciRKT_(ptr noundef nonnull align 1 dereferenceable(1) %this, ptr noundef %file, i32 noundef %line, ptr noundef nonnull align 8 dereferenceable(16) %message) unnamed_addr #4 comdat align 2 personality ptr @__gxx_personality_v0 {
entry:
  %this.addr = alloca ptr, align 8
  %file.addr = alloca ptr, align 8
  %line.addr = alloca i32, align 4
  %message.addr = alloca ptr, align 8
  %agg.tmp = alloca %"class.std::__cxx11::basic_string", align 8
  %ref.tmp = alloca %"class.testing::Message", align 8
  %exn.slot = alloca ptr, align 8
  %ehselector.slot = alloca i32, align 4
  store ptr %this, ptr %this.addr, align 8
  store ptr %file, ptr %file.addr, align 8
  store i32 %line, ptr %line.addr, align 4
  store ptr %message, ptr %message.addr, align 8
  %this1 = load ptr, ptr %this.addr, align 8
  %0 = load ptr, ptr %file.addr, align 8
  %1 = load i32, ptr %line.addr, align 4
  call void @_ZN7testing7MessageC1Ev(ptr noundef nonnull align 8 dereferenceable(8) %ref.tmp)
  %2 = load ptr, ptr %message.addr, align 8
  %call = invoke noundef nonnull align 8 dereferenceable(8) ptr @_ZN7testing7MessagelsISt17basic_string_viewIcSt11char_traitsIcEEEERS0_RKT_(ptr noundef nonnull align 8 dereferenceable(8) %ref.tmp, ptr noundef nonnull align 8 dereferenceable(16) %2)
          to label %invoke.cont unwind label %lpad

invoke.cont:                                      ; preds = %entry
  invoke void @_ZNK7testing7Message9GetStringB5cxx11Ev(ptr sret(%"class.std::__cxx11::basic_string") align 8 %agg.tmp, ptr noundef nonnull align 8 dereferenceable(8) %call)
          to label %invoke.cont2 unwind label %lpad

invoke.cont2:                                     ; preds = %invoke.cont
  invoke void @_ZN7testing11ScopedTrace9PushTraceEPKciNSt7__cxx1112basic_stringIcSt11char_traitsIcESaIcEEE(ptr noundef nonnull align 1 dereferenceable(1) %this1, ptr noundef %0, i32 noundef %1, ptr noundef %agg.tmp)
          to label %invoke.cont4 unwind label %lpad3

invoke.cont4:                                     ; preds = %invoke.cont2
  call void @_ZNSt7__cxx1112basic_stringIcSt11char_traitsIcESaIcEED1Ev(ptr noundef nonnull align 8 dereferenceable(32) %agg.tmp) #3
  call void @_ZN7testing7MessageD2Ev(ptr noundef nonnull align 8 dereferenceable(8) %ref.tmp) #3
  ret void

lpad:                                             ; preds = %invoke.cont, %entry
  %3 = landingpad { ptr, i32 }
          cleanup
  %4 = extractvalue { ptr, i32 } %3, 0
  store ptr %4, ptr %exn.slot, align 8
  %5 = extractvalue { ptr, i32 } %3, 1
  store i32 %5, ptr %ehselector.slot, align 4
  br label %ehcleanup

lpad3:                                            ; preds = %invoke.cont2
  %6 = landingpad { ptr, i32 }
          cleanup
  %7 = extractvalue { ptr, i32 } %6, 0
  store ptr %7, ptr %exn.slot, align 8
  %8 = extractvalue { ptr, i32 } %6, 1
  store i32 %8, ptr %ehselector.slot, align 4
  call void @_ZNSt7__cxx1112basic_stringIcSt11char_traitsIcESaIcEED1Ev(ptr noundef nonnull align 8 dereferenceable(32) %agg.tmp) #3
  br label %ehcleanup

ehcleanup:                                        ; preds = %lpad3, %lpad
  call void @_ZN7testing7MessageD2Ev(ptr noundef nonnull align 8 dereferenceable(8) %ref.tmp) #3
  br label %eh.resume

eh.resume:                                        ; preds = %ehcleanup
  %exn = load ptr, ptr %exn.slot, align 8
  %sel = load i32, ptr %ehselector.slot, align 4
  %lpad.val = insertvalue { ptr, i32 } poison, ptr %exn, 0
  %lpad.val5 = insertvalue { ptr, i32 } %lpad.val, i32 %sel, 1
  resume { ptr, i32 } %lpad.val5
}

declare { ptr, i32 } @_ZN4absl10from_charsEPKcS1_RdNS_12chars_formatE(ptr noundef, ptr noundef, ptr noundef nonnull align 8 dereferenceable(8), i32 noundef) #1

; Function Attrs: mustprogress nounwind uwtable
define linkonce_odr dso_local noundef ptr @_ZNKSt17basic_string_viewIcSt11char_traitsIcEE4dataEv(ptr noundef nonnull align 8 dereferenceable(16) %this) #7 comdat align 2 {
entry:
  %this.addr = alloca ptr, align 8
  store ptr %this, ptr %this.addr, align 8
  %this1 = load ptr, ptr %this.addr, align 8
  %_M_str = getelementptr inbounds %"class.std::basic_string_view", ptr %this1, i32 0, i32 1
  %0 = load ptr, ptr %_M_str, align 8
  ret ptr %0
}

; Function Attrs: mustprogress nounwind uwtable
define linkonce_odr dso_local noundef i64 @_ZNKSt17basic_string_viewIcSt11char_traitsIcEE6lengthEv(ptr noundef nonnull align 8 dereferenceable(16) %this) #7 comdat align 2 {
entry:
  %this.addr = alloca ptr, align 8
  store ptr %this, ptr %this.addr, align 8
  %this1 = load ptr, ptr %this.addr, align 8
  %_M_len = getelementptr inbounds %"class.std::basic_string_view", ptr %this1, i32 0, i32 0
  %0 = load i64, ptr %_M_len, align 8
  ret i64 %0
}

; Function Attrs: mustprogress uwtable
define linkonce_odr dso_local void @_ZN7testing8internal8EqHelper7CompareISt4errcS3_TnPNSt9enable_ifIXoontsr3std11is_integralIT_EE5valuentsr3std10is_pointerIT0_EE5valueEvE4typeELPv0EEENS_15AssertionResultEPKcSD_RKS5_RKS6_(ptr noalias sret(%"class.testing::AssertionResult") align 8 %agg.result, ptr noundef %lhs_expression, ptr noundef %rhs_expression, ptr noundef nonnull align 4 dereferenceable(4) %lhs, ptr noundef nonnull align 4 dereferenceable(4) %rhs) #4 comdat align 2 {
entry:
  %result.ptr = alloca ptr, align 8
  %lhs_expression.addr = alloca ptr, align 8
  %rhs_expression.addr = alloca ptr, align 8
  %lhs.addr = alloca ptr, align 8
  %rhs.addr = alloca ptr, align 8
  store ptr %agg.result, ptr %result.ptr, align 8
  store ptr %lhs_expression, ptr %lhs_expression.addr, align 8
  store ptr %rhs_expression, ptr %rhs_expression.addr, align 8
  store ptr %lhs, ptr %lhs.addr, align 8
  store ptr %rhs, ptr %rhs.addr, align 8
  %0 = load ptr, ptr %lhs_expression.addr, align 8
  %1 = load ptr, ptr %rhs_expression.addr, align 8
  %2 = load ptr, ptr %lhs.addr, align 8
  %3 = load ptr, ptr %rhs.addr, align 8
  call void @_ZN7testing8internal11CmpHelperEQISt4errcS2_EENS_15AssertionResultEPKcS5_RKT_RKT0_(ptr sret(%"class.testing::AssertionResult") align 8 %agg.result, ptr noundef %0, ptr noundef %1, ptr noundef nonnull align 4 dereferenceable(4) %2, ptr noundef nonnull align 4 dereferenceable(4) %3)
  ret void
}

; Function Attrs: mustprogress nounwind uwtable
define linkonce_odr dso_local noundef zeroext i1 @_ZNK7testing15AssertionResultcvbEv(ptr noundef nonnull align 8 dereferenceable(16) %this) #7 comdat align 2 {
entry:
  %this.addr = alloca ptr, align 8
  store ptr %this, ptr %this.addr, align 8
  %this1 = load ptr, ptr %this.addr, align 8
  %success_ = getelementptr inbounds %"class.testing::AssertionResult", ptr %this1, i32 0, i32 0
  %0 = load i8, ptr %success_, align 8
  %tobool = trunc i8 %0 to i1
  ret i1 %tobool
}

declare void @_ZN7testing7MessageC1Ev(ptr noundef nonnull align 8 dereferenceable(8)) unnamed_addr #1

; Function Attrs: mustprogress uwtable
define linkonce_odr dso_local noundef ptr @_ZNK7testing15AssertionResult15failure_messageEv(ptr noundef nonnull align 8 dereferenceable(16) %this) #4 comdat align 2 {
entry:
  %this.addr = alloca ptr, align 8
  store ptr %this, ptr %this.addr, align 8
  %this1 = load ptr, ptr %this.addr, align 8
  %call = call noundef ptr @_ZNK7testing15AssertionResult7messageEv(ptr noundef nonnull align 8 dereferenceable(16) %this1)
  ret ptr %call
}

declare void @_ZN7testing8internal12AssertHelperC1ENS_14TestPartResult4TypeEPKciS5_(ptr noundef nonnull align 8 dereferenceable(8), i32 noundef, ptr noundef, i32 noundef, ptr noundef) unnamed_addr #1

declare void @_ZNK7testing8internal12AssertHelperaSERKNS_7MessageE(ptr noundef nonnull align 8 dereferenceable(8), ptr noundef nonnull align 8 dereferenceable(8)) #1

; Function Attrs: nounwind
declare void @_ZN7testing8internal12AssertHelperD1Ev(ptr noundef nonnull align 8 dereferenceable(8)) unnamed_addr #2

; Function Attrs: mustprogress nounwind uwtable
define linkonce_odr dso_local void @_ZN7testing7MessageD2Ev(ptr noundef nonnull align 8 dereferenceable(8) %this) unnamed_addr #7 comdat align 2 {
entry:
  %this.addr = alloca ptr, align 8
  store ptr %this, ptr %this.addr, align 8
  %this1 = load ptr, ptr %this.addr, align 8
  %ss_ = getelementptr inbounds %"class.testing::Message", ptr %this1, i32 0, i32 0
  call void @_ZNSt10unique_ptrINSt7__cxx1118basic_stringstreamIcSt11char_traitsIcESaIcEEESt14default_deleteIS5_EED2Ev(ptr noundef nonnull align 8 dereferenceable(8) %ss_) #3
  ret void
}

; Function Attrs: mustprogress nounwind uwtable
define linkonce_odr dso_local void @_ZN7testing15AssertionResultD2Ev(ptr noundef nonnull align 8 dereferenceable(16) %this) unnamed_addr #7 comdat align 2 {
entry:
  %this.addr = alloca ptr, align 8
  store ptr %this, ptr %this.addr, align 8
  %this1 = load ptr, ptr %this.addr, align 8
  %message_ = getelementptr inbounds %"class.testing::AssertionResult", ptr %this1, i32 0, i32 1
  call void @_ZNSt10unique_ptrINSt7__cxx1112basic_stringIcSt11char_traitsIcESaIcEEESt14default_deleteIS5_EED2Ev(ptr noundef nonnull align 8 dereferenceable(8) %message_) #3
  ret void
}

; Function Attrs: mustprogress uwtable
define linkonce_odr dso_local void @_ZN7testing8internal8EqHelper7CompareIPKcS4_TnPNSt9enable_ifIXoontsr3std11is_integralIT_EE5valuentsr3std10is_pointerIT0_EE5valueEvE4typeELPv0EEENS_15AssertionResultES4_S4_RKS6_RKS7_(ptr noalias sret(%"class.testing::AssertionResult") align 8 %agg.result, ptr noundef %lhs_expression, ptr noundef %rhs_expression, ptr noundef nonnull align 8 dereferenceable(8) %lhs, ptr noundef nonnull align 8 dereferenceable(8) %rhs) #4 comdat align 2 {
entry:
  %result.ptr = alloca ptr, align 8
  %lhs_expression.addr = alloca ptr, align 8
  %rhs_expression.addr = alloca ptr, align 8
  %lhs.addr = alloca ptr, align 8
  %rhs.addr = alloca ptr, align 8
  store ptr %agg.result, ptr %result.ptr, align 8
  store ptr %lhs_expression, ptr %lhs_expression.addr, align 8
  store ptr %rhs_expression, ptr %rhs_expression.addr, align 8
  store ptr %lhs, ptr %lhs.addr, align 8
  store ptr %rhs, ptr %rhs.addr, align 8
  %0 = load ptr, ptr %lhs_expression.addr, align 8
  %1 = load ptr, ptr %rhs_expression.addr, align 8
  %2 = load ptr, ptr %lhs.addr, align 8
  %3 = load ptr, ptr %rhs.addr, align 8
  call void @_ZN7testing8internal11CmpHelperEQIPKcS3_EENS_15AssertionResultES3_S3_RKT_RKT0_(ptr sret(%"class.testing::AssertionResult") align 8 %agg.result, ptr noundef %0, ptr noundef %1, ptr noundef nonnull align 8 dereferenceable(8) %2, ptr noundef nonnull align 8 dereferenceable(8) %3)
  ret void
}

; Function Attrs: mustprogress uwtable
define linkonce_odr dso_local void @_ZN7testing8internal8EqHelper7CompareIddTnPNSt9enable_ifIXoontsr3std11is_integralIT_EE5valuentsr3std10is_pointerIT0_EE5valueEvE4typeELPv0EEENS_15AssertionResultEPKcSC_RKS4_RKS5_(ptr noalias sret(%"class.testing::AssertionResult") align 8 %agg.result, ptr noundef %lhs_expression, ptr noundef %rhs_expression, ptr noundef nonnull align 8 dereferenceable(8) %lhs, ptr noundef nonnull align 8 dereferenceable(8) %rhs) #4 comdat align 2 {
entry:
  %result.ptr = alloca ptr, align 8
  %lhs_expression.addr = alloca ptr, align 8
  %rhs_expression.addr = alloca ptr, align 8
  %lhs.addr = alloca ptr, align 8
  %rhs.addr = alloca ptr, align 8
  store ptr %agg.result, ptr %result.ptr, align 8
  store ptr %lhs_expression, ptr %lhs_expression.addr, align 8
  store ptr %rhs_expression, ptr %rhs_expression.addr, align 8
  store ptr %lhs, ptr %lhs.addr, align 8
  store ptr %rhs, ptr %rhs.addr, align 8
  %0 = load ptr, ptr %lhs_expression.addr, align 8
  %1 = load ptr, ptr %rhs_expression.addr, align 8
  %2 = load ptr, ptr %lhs.addr, align 8
  %3 = load ptr, ptr %rhs.addr, align 8
  call void @_ZN7testing8internal11CmpHelperEQIddEENS_15AssertionResultEPKcS4_RKT_RKT0_(ptr sret(%"class.testing::AssertionResult") align 8 %agg.result, ptr noundef %0, ptr noundef %1, ptr noundef nonnull align 8 dereferenceable(8) %2, ptr noundef nonnull align 8 dereferenceable(8) %3)
  ret void
}

; Function Attrs: nounwind
declare void @_ZN7testing11ScopedTraceD1Ev(ptr noundef nonnull align 1 dereferenceable(1)) unnamed_addr #2

declare void @_ZN7testing11ScopedTrace9PushTraceEPKciNSt7__cxx1112basic_stringIcSt11char_traitsIcESaIcEEE(ptr noundef nonnull align 1 dereferenceable(1), ptr noundef, i32 noundef, ptr noundef) #1

; Function Attrs: mustprogress uwtable
define linkonce_odr dso_local noundef nonnull align 8 dereferenceable(8) ptr @_ZN7testing7MessagelsISt17basic_string_viewIcSt11char_traitsIcEEEERS0_RKT_(ptr noundef nonnull align 8 dereferenceable(8) %this, ptr noundef nonnull align 8 dereferenceable(16) %val) #4 comdat align 2 {
entry:
  %this.addr = alloca ptr, align 8
  %val.addr = alloca ptr, align 8
  %agg.tmp = alloca %"class.std::basic_string_view", align 8
  store ptr %this, ptr %this.addr, align 8
  store ptr %val, ptr %val.addr, align 8
  %this1 = load ptr, ptr %this.addr, align 8
  %ss_ = getelementptr inbounds %"class.testing::Message", ptr %this1, i32 0, i32 0
  %call = call noundef nonnull align 8 dereferenceable(128) ptr @_ZNKSt10unique_ptrINSt7__cxx1118basic_stringstreamIcSt11char_traitsIcESaIcEEESt14default_deleteIS5_EEdeEv(ptr noundef nonnull align 8 dereferenceable(8) %ss_) #3
  %add.ptr = getelementptr inbounds i8, ptr %call, i64 16
  %0 = load ptr, ptr %val.addr, align 8
  call void @llvm.memcpy.p0.p0.i64(ptr align 8 %agg.tmp, ptr align 8 %0, i64 16, i1 false)
  %1 = getelementptr inbounds { i64, ptr }, ptr %agg.tmp, i32 0, i32 0
  %2 = load i64, ptr %1, align 8
  %3 = getelementptr inbounds { i64, ptr }, ptr %agg.tmp, i32 0, i32 1
  %4 = load ptr, ptr %3, align 8
  %call2 = call noundef nonnull align 8 dereferenceable(8) ptr @_ZStlsIcSt11char_traitsIcEERSt13basic_ostreamIT_T0_ES6_St17basic_string_viewIS3_S4_E(ptr noundef nonnull align 8 dereferenceable(8) %add.ptr, i64 %2, ptr %4)
  ret ptr %this1
}

declare void @_ZNK7testing7Message9GetStringB5cxx11Ev(ptr sret(%"class.std::__cxx11::basic_string") align 8, ptr noundef nonnull align 8 dereferenceable(8)) #1

; Function Attrs: mustprogress uwtable
define linkonce_odr dso_local noundef nonnull align 8 dereferenceable(8) ptr @_ZStlsIcSt11char_traitsIcEERSt13basic_ostreamIT_T0_ES6_St17basic_string_viewIS3_S4_E(ptr noundef nonnull align 8 dereferenceable(8) %__os, i64 %__str.coerce0, ptr %__str.coerce1) #4 comdat {
entry:
  %__str = alloca %"class.std::basic_string_view", align 8
  %__os.addr = alloca ptr, align 8
  %0 = getelementptr inbounds { i64, ptr }, ptr %__str, i32 0, i32 0
  store i64 %__str.coerce0, ptr %0, align 8
  %1 = getelementptr inbounds { i64, ptr }, ptr %__str, i32 0, i32 1
  store ptr %__str.coerce1, ptr %1, align 8
  store ptr %__os, ptr %__os.addr, align 8
  %2 = load ptr, ptr %__os.addr, align 8
  %call = call noundef ptr @_ZNKSt17basic_string_viewIcSt11char_traitsIcEE4dataEv(ptr noundef nonnull align 8 dereferenceable(16) %__str) #3
  %call1 = call noundef i64 @_ZNKSt17basic_string_viewIcSt11char_traitsIcEE4sizeEv(ptr noundef nonnull align 8 dereferenceable(16) %__str) #3
  %call2 = call noundef nonnull align 8 dereferenceable(8) ptr @_ZSt16__ostream_insertIcSt11char_traitsIcEERSt13basic_ostreamIT_T0_ES6_PKS3_l(ptr noundef nonnull align 8 dereferenceable(8) %2, ptr noundef %call, i64 noundef %call1)
  ret ptr %call2
}

; Function Attrs: mustprogress nounwind uwtable
define linkonce_odr dso_local noundef nonnull align 8 dereferenceable(128) ptr @_ZNKSt10unique_ptrINSt7__cxx1118basic_stringstreamIcSt11char_traitsIcESaIcEEESt14default_deleteIS5_EEdeEv(ptr noundef nonnull align 8 dereferenceable(8) %this) #7 comdat align 2 {
entry:
  %this.addr = alloca ptr, align 8
  store ptr %this, ptr %this.addr, align 8
  %this1 = load ptr, ptr %this.addr, align 8
  br label %do.body

do.body:                                          ; preds = %entry
  br label %do.cond

do.cond:                                          ; preds = %do.body
  br label %do.end

do.end:                                           ; preds = %do.cond
  %call = call noundef ptr @_ZNKSt10unique_ptrINSt7__cxx1118basic_stringstreamIcSt11char_traitsIcESaIcEEESt14default_deleteIS5_EE3getEv(ptr noundef nonnull align 8 dereferenceable(8) %this1) #3
  ret ptr %call
}

; Function Attrs: nocallback nofree nounwind willreturn memory(argmem: readwrite)
declare void @llvm.memcpy.p0.p0.i64(ptr noalias nocapture writeonly, ptr noalias nocapture readonly, i64, i1 immarg) #9

declare noundef nonnull align 8 dereferenceable(8) ptr @_ZSt16__ostream_insertIcSt11char_traitsIcEERSt13basic_ostreamIT_T0_ES6_PKS3_l(ptr noundef nonnull align 8 dereferenceable(8), ptr noundef, i64 noundef) #1

; Function Attrs: mustprogress nounwind uwtable
define linkonce_odr dso_local noundef i64 @_ZNKSt17basic_string_viewIcSt11char_traitsIcEE4sizeEv(ptr noundef nonnull align 8 dereferenceable(16) %this) #7 comdat align 2 {
entry:
  %this.addr = alloca ptr, align 8
  store ptr %this, ptr %this.addr, align 8
  %this1 = load ptr, ptr %this.addr, align 8
  %_M_len = getelementptr inbounds %"class.std::basic_string_view", ptr %this1, i32 0, i32 0
  %0 = load i64, ptr %_M_len, align 8
  ret i64 %0
}

; Function Attrs: mustprogress nounwind uwtable
define linkonce_odr dso_local noundef ptr @_ZNKSt10unique_ptrINSt7__cxx1118basic_stringstreamIcSt11char_traitsIcESaIcEEESt14default_deleteIS5_EE3getEv(ptr noundef nonnull align 8 dereferenceable(8) %this) #7 comdat align 2 {
entry:
  %this.addr = alloca ptr, align 8
  store ptr %this, ptr %this.addr, align 8
  %this1 = load ptr, ptr %this.addr, align 8
  %_M_t = getelementptr inbounds %"class.std::unique_ptr.25", ptr %this1, i32 0, i32 0
  %call = call noundef ptr @_ZNKSt15__uniq_ptr_implINSt7__cxx1118basic_stringstreamIcSt11char_traitsIcESaIcEEESt14default_deleteIS5_EE6_M_ptrEv(ptr noundef nonnull align 8 dereferenceable(8) %_M_t) #3
  ret ptr %call
}

; Function Attrs: mustprogress nounwind uwtable
define linkonce_odr dso_local noundef ptr @_ZNKSt15__uniq_ptr_implINSt7__cxx1118basic_stringstreamIcSt11char_traitsIcESaIcEEESt14default_deleteIS5_EE6_M_ptrEv(ptr noundef nonnull align 8 dereferenceable(8) %this) #7 comdat align 2 {
entry:
  %this.addr = alloca ptr, align 8
  store ptr %this, ptr %this.addr, align 8
  %this1 = load ptr, ptr %this.addr, align 8
  %_M_t = getelementptr inbounds %"class.std::__uniq_ptr_impl.27", ptr %this1, i32 0, i32 0
  %call = call noundef nonnull align 8 dereferenceable(8) ptr @_ZSt3getILm0EJPNSt7__cxx1118basic_stringstreamIcSt11char_traitsIcESaIcEEESt14default_deleteIS5_EEERKNSt13tuple_elementIXT_ESt5tupleIJDpT0_EEE4typeERKSD_(ptr noundef nonnull align 8 dereferenceable(8) %_M_t) #3
  %0 = load ptr, ptr %call, align 8
  ret ptr %0
}

; Function Attrs: mustprogress nounwind uwtable
define linkonce_odr dso_local noundef nonnull align 8 dereferenceable(8) ptr @_ZSt3getILm0EJPNSt7__cxx1118basic_stringstreamIcSt11char_traitsIcESaIcEEESt14default_deleteIS5_EEERKNSt13tuple_elementIXT_ESt5tupleIJDpT0_EEE4typeERKSD_(ptr noundef nonnull align 8 dereferenceable(8) %__t) #7 comdat {
entry:
  %__t.addr = alloca ptr, align 8
  store ptr %__t, ptr %__t.addr, align 8
  %0 = load ptr, ptr %__t.addr, align 8
  %call = call noundef nonnull align 8 dereferenceable(8) ptr @_ZSt12__get_helperILm0EPNSt7__cxx1118basic_stringstreamIcSt11char_traitsIcESaIcEEEJSt14default_deleteIS5_EEERKT0_RKSt11_Tuple_implIXT_EJS9_DpT1_EE(ptr noundef nonnull align 8 dereferenceable(8) %0) #3
  ret ptr %call
}

; Function Attrs: mustprogress nounwind uwtable
define linkonce_odr dso_local noundef nonnull align 8 dereferenceable(8) ptr @_ZSt12__get_helperILm0EPNSt7__cxx1118basic_stringstreamIcSt11char_traitsIcESaIcEEEJSt14default_deleteIS5_EEERKT0_RKSt11_Tuple_implIXT_EJS9_DpT1_EE(ptr noundef nonnull align 8 dereferenceable(8) %__t) #7 comdat {
entry:
  %__t.addr = alloca ptr, align 8
  store ptr %__t, ptr %__t.addr, align 8
  %0 = load ptr, ptr %__t.addr, align 8
  %call = call noundef nonnull align 8 dereferenceable(8) ptr @_ZNSt11_Tuple_implILm0EJPNSt7__cxx1118basic_stringstreamIcSt11char_traitsIcESaIcEEESt14default_deleteIS5_EEE7_M_headERKS9_(ptr noundef nonnull align 8 dereferenceable(8) %0) #3
  ret ptr %call
}

; Function Attrs: mustprogress nounwind uwtable
define linkonce_odr dso_local noundef nonnull align 8 dereferenceable(8) ptr @_ZNSt11_Tuple_implILm0EJPNSt7__cxx1118basic_stringstreamIcSt11char_traitsIcESaIcEEESt14default_deleteIS5_EEE7_M_headERKS9_(ptr noundef nonnull align 8 dereferenceable(8) %__t) #7 comdat align 2 {
entry:
  %__t.addr = alloca ptr, align 8
  store ptr %__t, ptr %__t.addr, align 8
  %0 = load ptr, ptr %__t.addr, align 8
  %call = call noundef nonnull align 8 dereferenceable(8) ptr @_ZNSt10_Head_baseILm0EPNSt7__cxx1118basic_stringstreamIcSt11char_traitsIcESaIcEEELb0EE7_M_headERKS7_(ptr noundef nonnull align 8 dereferenceable(8) %0) #3
  ret ptr %call
}

; Function Attrs: mustprogress nounwind uwtable
define linkonce_odr dso_local noundef nonnull align 8 dereferenceable(8) ptr @_ZNSt10_Head_baseILm0EPNSt7__cxx1118basic_stringstreamIcSt11char_traitsIcESaIcEEELb0EE7_M_headERKS7_(ptr noundef nonnull align 8 dereferenceable(8) %__b) #7 comdat align 2 {
entry:
  %__b.addr = alloca ptr, align 8
  store ptr %__b, ptr %__b.addr, align 8
  %0 = load ptr, ptr %__b.addr, align 8
  %_M_head_impl = getelementptr inbounds %"struct.std::_Head_base.32", ptr %0, i32 0, i32 0
  ret ptr %_M_head_impl
}

; Function Attrs: mustprogress uwtable
define linkonce_odr dso_local void @_ZN7testing8internal11CmpHelperEQISt4errcS2_EENS_15AssertionResultEPKcS5_RKT_RKT0_(ptr noalias sret(%"class.testing::AssertionResult") align 8 %agg.result, ptr noundef %lhs_expression, ptr noundef %rhs_expression, ptr noundef nonnull align 4 dereferenceable(4) %lhs, ptr noundef nonnull align 4 dereferenceable(4) %rhs) #4 comdat {
entry:
  %result.ptr = alloca ptr, align 8
  %lhs_expression.addr = alloca ptr, align 8
  %rhs_expression.addr = alloca ptr, align 8
  %lhs.addr = alloca ptr, align 8
  %rhs.addr = alloca ptr, align 8
  store ptr %agg.result, ptr %result.ptr, align 8
  store ptr %lhs_expression, ptr %lhs_expression.addr, align 8
  store ptr %rhs_expression, ptr %rhs_expression.addr, align 8
  store ptr %lhs, ptr %lhs.addr, align 8
  store ptr %rhs, ptr %rhs.addr, align 8
  %0 = load ptr, ptr %lhs.addr, align 8
  %1 = load i32, ptr %0, align 4
  %2 = load ptr, ptr %rhs.addr, align 8
  %3 = load i32, ptr %2, align 4
  %cmp = icmp eq i32 %1, %3
  br i1 %cmp, label %if.then, label %if.end

if.then:                                          ; preds = %entry
  call void @_ZN7testing16AssertionSuccessEv(ptr sret(%"class.testing::AssertionResult") align 8 %agg.result)
  br label %return

if.end:                                           ; preds = %entry
  %4 = load ptr, ptr %lhs_expression.addr, align 8
  %5 = load ptr, ptr %rhs_expression.addr, align 8
  %6 = load ptr, ptr %lhs.addr, align 8
  %7 = load ptr, ptr %rhs.addr, align 8
  call void @_ZN7testing8internal18CmpHelperEQFailureISt4errcS2_EENS_15AssertionResultEPKcS5_RKT_RKT0_(ptr sret(%"class.testing::AssertionResult") align 8 %agg.result, ptr noundef %4, ptr noundef %5, ptr noundef nonnull align 4 dereferenceable(4) %6, ptr noundef nonnull align 4 dereferenceable(4) %7)
  br label %return

return:                                           ; preds = %if.end, %if.then
  ret void
}

declare void @_ZN7testing16AssertionSuccessEv(ptr sret(%"class.testing::AssertionResult") align 8) #1

; Function Attrs: mustprogress uwtable
define linkonce_odr dso_local void @_ZN7testing8internal18CmpHelperEQFailureISt4errcS2_EENS_15AssertionResultEPKcS5_RKT_RKT0_(ptr noalias sret(%"class.testing::AssertionResult") align 8 %agg.result, ptr noundef %lhs_expression, ptr noundef %rhs_expression, ptr noundef nonnull align 4 dereferenceable(4) %lhs, ptr noundef nonnull align 4 dereferenceable(4) %rhs) #4 comdat personality ptr @__gxx_personality_v0 {
entry:
  %result.ptr = alloca ptr, align 8
  %lhs_expression.addr = alloca ptr, align 8
  %rhs_expression.addr = alloca ptr, align 8
  %lhs.addr = alloca ptr, align 8
  %rhs.addr = alloca ptr, align 8
  %ref.tmp = alloca %"class.std::__cxx11::basic_string", align 8
  %ref.tmp1 = alloca %"class.std::__cxx11::basic_string", align 8
  %exn.slot = alloca ptr, align 8
  %ehselector.slot = alloca i32, align 4
  store ptr %agg.result, ptr %result.ptr, align 8
  store ptr %lhs_expression, ptr %lhs_expression.addr, align 8
  store ptr %rhs_expression, ptr %rhs_expression.addr, align 8
  store ptr %lhs, ptr %lhs.addr, align 8
  store ptr %rhs, ptr %rhs.addr, align 8
  %0 = load ptr, ptr %lhs_expression.addr, align 8
  %1 = load ptr, ptr %rhs_expression.addr, align 8
  %2 = load ptr, ptr %lhs.addr, align 8
  %3 = load ptr, ptr %rhs.addr, align 8
  call void @_ZN7testing8internal33FormatForComparisonFailureMessageISt4errcS2_EENSt7__cxx1112basic_stringIcSt11char_traitsIcESaIcEEERKT_RKT0_(ptr sret(%"class.std::__cxx11::basic_string") align 8 %ref.tmp, ptr noundef nonnull align 4 dereferenceable(4) %2, ptr noundef nonnull align 4 dereferenceable(4) %3)
  %4 = load ptr, ptr %rhs.addr, align 8
  %5 = load ptr, ptr %lhs.addr, align 8
  invoke void @_ZN7testing8internal33FormatForComparisonFailureMessageISt4errcS2_EENSt7__cxx1112basic_stringIcSt11char_traitsIcESaIcEEERKT_RKT0_(ptr sret(%"class.std::__cxx11::basic_string") align 8 %ref.tmp1, ptr noundef nonnull align 4 dereferenceable(4) %4, ptr noundef nonnull align 4 dereferenceable(4) %5)
          to label %invoke.cont unwind label %lpad

invoke.cont:                                      ; preds = %entry
  invoke void @_ZN7testing8internal9EqFailureEPKcS2_RKNSt7__cxx1112basic_stringIcSt11char_traitsIcESaIcEEESA_b(ptr sret(%"class.testing::AssertionResult") align 8 %agg.result, ptr noundef %0, ptr noundef %1, ptr noundef nonnull align 8 dereferenceable(32) %ref.tmp, ptr noundef nonnull align 8 dereferenceable(32) %ref.tmp1, i1 noundef zeroext false)
          to label %invoke.cont3 unwind label %lpad2

invoke.cont3:                                     ; preds = %invoke.cont
  call void @_ZNSt7__cxx1112basic_stringIcSt11char_traitsIcESaIcEED1Ev(ptr noundef nonnull align 8 dereferenceable(32) %ref.tmp1) #3
  call void @_ZNSt7__cxx1112basic_stringIcSt11char_traitsIcESaIcEED1Ev(ptr noundef nonnull align 8 dereferenceable(32) %ref.tmp) #3
  ret void

lpad:                                             ; preds = %entry
  %6 = landingpad { ptr, i32 }
          cleanup
  %7 = extractvalue { ptr, i32 } %6, 0
  store ptr %7, ptr %exn.slot, align 8
  %8 = extractvalue { ptr, i32 } %6, 1
  store i32 %8, ptr %ehselector.slot, align 4
  br label %ehcleanup

lpad2:                                            ; preds = %invoke.cont
  %9 = landingpad { ptr, i32 }
          cleanup
  %10 = extractvalue { ptr, i32 } %9, 0
  store ptr %10, ptr %exn.slot, align 8
  %11 = extractvalue { ptr, i32 } %9, 1
  store i32 %11, ptr %ehselector.slot, align 4
  call void @_ZNSt7__cxx1112basic_stringIcSt11char_traitsIcESaIcEED1Ev(ptr noundef nonnull align 8 dereferenceable(32) %ref.tmp1) #3
  br label %ehcleanup

ehcleanup:                                        ; preds = %lpad2, %lpad
  call void @_ZNSt7__cxx1112basic_stringIcSt11char_traitsIcESaIcEED1Ev(ptr noundef nonnull align 8 dereferenceable(32) %ref.tmp) #3
  br label %eh.resume

eh.resume:                                        ; preds = %ehcleanup
  %exn = load ptr, ptr %exn.slot, align 8
  %sel = load i32, ptr %ehselector.slot, align 4
  %lpad.val = insertvalue { ptr, i32 } poison, ptr %exn, 0
  %lpad.val4 = insertvalue { ptr, i32 } %lpad.val, i32 %sel, 1
  resume { ptr, i32 } %lpad.val4
}

declare void @_ZN7testing8internal9EqFailureEPKcS2_RKNSt7__cxx1112basic_stringIcSt11char_traitsIcESaIcEEESA_b(ptr sret(%"class.testing::AssertionResult") align 8, ptr noundef, ptr noundef, ptr noundef nonnull align 8 dereferenceable(32), ptr noundef nonnull align 8 dereferenceable(32), i1 noundef zeroext) #1

; Function Attrs: mustprogress uwtable
define linkonce_odr dso_local void @_ZN7testing8internal33FormatForComparisonFailureMessageISt4errcS2_EENSt7__cxx1112basic_stringIcSt11char_traitsIcESaIcEEERKT_RKT0_(ptr noalias sret(%"class.std::__cxx11::basic_string") align 8 %agg.result, ptr noundef nonnull align 4 dereferenceable(4) %value, ptr noundef nonnull align 4 dereferenceable(4) %0) #4 comdat {
entry:
  %result.ptr = alloca ptr, align 8
  %value.addr = alloca ptr, align 8
  %.addr = alloca ptr, align 8
  store ptr %agg.result, ptr %result.ptr, align 8
  store ptr %value, ptr %value.addr, align 8
  store ptr %0, ptr %.addr, align 8
  %1 = load ptr, ptr %value.addr, align 8
  call void @_ZN7testing8internal19FormatForComparisonISt4errcS2_E6FormatB5cxx11ERKS2_(ptr sret(%"class.std::__cxx11::basic_string") align 8 %agg.result, ptr noundef nonnull align 4 dereferenceable(4) %1)
  ret void
}

; Function Attrs: mustprogress uwtable
define linkonce_odr dso_local void @_ZN7testing8internal19FormatForComparisonISt4errcS2_E6FormatB5cxx11ERKS2_(ptr noalias sret(%"class.std::__cxx11::basic_string") align 8 %agg.result, ptr noundef nonnull align 4 dereferenceable(4) %value) #4 comdat align 2 {
entry:
  %result.ptr = alloca ptr, align 8
  %value.addr = alloca ptr, align 8
  store ptr %agg.result, ptr %result.ptr, align 8
  store ptr %value, ptr %value.addr, align 8
  %0 = load ptr, ptr %value.addr, align 8
  call void @_ZN7testing13PrintToStringISt4errcEENSt7__cxx1112basic_stringIcSt11char_traitsIcESaIcEEERKT_(ptr sret(%"class.std::__cxx11::basic_string") align 8 %agg.result, ptr noundef nonnull align 4 dereferenceable(4) %0)
  ret void
}

; Function Attrs: mustprogress uwtable
define linkonce_odr dso_local void @_ZN7testing13PrintToStringISt4errcEENSt7__cxx1112basic_stringIcSt11char_traitsIcESaIcEEERKT_(ptr noalias sret(%"class.std::__cxx11::basic_string") align 8 %agg.result, ptr noundef nonnull align 4 dereferenceable(4) %value) #4 comdat personality ptr @__gxx_personality_v0 {
entry:
  %result.ptr = alloca ptr, align 8
  %value.addr = alloca ptr, align 8
  %ss = alloca %"class.std::__cxx11::basic_stringstream", align 8
  %exn.slot = alloca ptr, align 8
  %ehselector.slot = alloca i32, align 4
  store ptr %agg.result, ptr %result.ptr, align 8
  store ptr %value, ptr %value.addr, align 8
  call void @_ZNSt7__cxx1118basic_stringstreamIcSt11char_traitsIcESaIcEEC1Ev(ptr noundef nonnull align 8 dereferenceable(128) %ss)
  %0 = load ptr, ptr %value.addr, align 8
  %1 = icmp eq ptr %ss, null
  br i1 %1, label %cast.end, label %cast.notnull

cast.notnull:                                     ; preds = %entry
  %add.ptr = getelementptr inbounds i8, ptr %ss, i64 16
  br label %cast.end

cast.end:                                         ; preds = %cast.notnull, %entry
  %cast.result = phi ptr [ %add.ptr, %cast.notnull ], [ null, %entry ]
  invoke void @_ZN7testing8internal21UniversalTersePrinterISt4errcE5PrintERKS2_PSo(ptr noundef nonnull align 4 dereferenceable(4) %0, ptr noundef %cast.result)
          to label %invoke.cont unwind label %lpad

invoke.cont:                                      ; preds = %cast.end
  invoke void @_ZNKSt7__cxx1118basic_stringstreamIcSt11char_traitsIcESaIcEE3strEv(ptr sret(%"class.std::__cxx11::basic_string") align 8 %agg.result, ptr noundef nonnull align 8 dereferenceable(128) %ss)
          to label %invoke.cont1 unwind label %lpad

invoke.cont1:                                     ; preds = %invoke.cont
  call void @_ZNSt7__cxx1118basic_stringstreamIcSt11char_traitsIcESaIcEED1Ev(ptr noundef nonnull align 8 dereferenceable(128) %ss) #3
  ret void

lpad:                                             ; preds = %invoke.cont, %cast.end
  %2 = landingpad { ptr, i32 }
          cleanup
  %3 = extractvalue { ptr, i32 } %2, 0
  store ptr %3, ptr %exn.slot, align 8
  %4 = extractvalue { ptr, i32 } %2, 1
  store i32 %4, ptr %ehselector.slot, align 4
  call void @_ZNSt7__cxx1118basic_stringstreamIcSt11char_traitsIcESaIcEED1Ev(ptr noundef nonnull align 8 dereferenceable(128) %ss) #3
  br label %eh.resume

eh.resume:                                        ; preds = %lpad
  %exn = load ptr, ptr %exn.slot, align 8
  %sel = load i32, ptr %ehselector.slot, align 4
  %lpad.val = insertvalue { ptr, i32 } poison, ptr %exn, 0
  %lpad.val2 = insertvalue { ptr, i32 } %lpad.val, i32 %sel, 1
  resume { ptr, i32 } %lpad.val2
}

declare void @_ZNSt7__cxx1118basic_stringstreamIcSt11char_traitsIcESaIcEEC1Ev(ptr noundef nonnull align 8 dereferenceable(128)) unnamed_addr #1

; Function Attrs: mustprogress uwtable
define linkonce_odr dso_local void @_ZN7testing8internal21UniversalTersePrinterISt4errcE5PrintERKS2_PSo(ptr noundef nonnull align 4 dereferenceable(4) %value, ptr noundef %os) #4 comdat align 2 {
entry:
  %value.addr = alloca ptr, align 8
  %os.addr = alloca ptr, align 8
  store ptr %value, ptr %value.addr, align 8
  store ptr %os, ptr %os.addr, align 8
  %0 = load ptr, ptr %value.addr, align 8
  %1 = load ptr, ptr %os.addr, align 8
  call void @_ZN7testing8internal14UniversalPrintISt4errcEEvRKT_PSo(ptr noundef nonnull align 4 dereferenceable(4) %0, ptr noundef %1)
  ret void
}

declare void @_ZNKSt7__cxx1118basic_stringstreamIcSt11char_traitsIcESaIcEE3strEv(ptr sret(%"class.std::__cxx11::basic_string") align 8, ptr noundef nonnull align 8 dereferenceable(128)) #1

; Function Attrs: nounwind
declare void @_ZNSt7__cxx1118basic_stringstreamIcSt11char_traitsIcESaIcEED1Ev(ptr noundef nonnull align 8 dereferenceable(128)) unnamed_addr #2

; Function Attrs: mustprogress uwtable
define linkonce_odr dso_local void @_ZN7testing8internal14UniversalPrintISt4errcEEvRKT_PSo(ptr noundef nonnull align 4 dereferenceable(4) %value, ptr noundef %os) #4 comdat {
entry:
  %value.addr = alloca ptr, align 8
  %os.addr = alloca ptr, align 8
  store ptr %value, ptr %value.addr, align 8
  store ptr %os, ptr %os.addr, align 8
  %0 = load ptr, ptr %value.addr, align 8
  %1 = load ptr, ptr %os.addr, align 8
  call void @_ZN7testing8internal16UniversalPrinterISt4errcE5PrintERKS2_PSo(ptr noundef nonnull align 4 dereferenceable(4) %0, ptr noundef %1)
  ret void
}

; Function Attrs: mustprogress uwtable
define linkonce_odr dso_local void @_ZN7testing8internal16UniversalPrinterISt4errcE5PrintERKS2_PSo(ptr noundef nonnull align 4 dereferenceable(4) %value, ptr noundef %os) #4 comdat align 2 {
entry:
  %value.addr = alloca ptr, align 8
  %os.addr = alloca ptr, align 8
  store ptr %value, ptr %value.addr, align 8
  store ptr %os, ptr %os.addr, align 8
  %0 = load ptr, ptr %value.addr, align 8
  %1 = load ptr, ptr %os.addr, align 8
  call void @_ZN7testing8internal7PrintToISt4errcEEvRKT_PSo(ptr noundef nonnull align 4 dereferenceable(4) %0, ptr noundef %1)
  ret void
}

; Function Attrs: mustprogress uwtable
define linkonce_odr dso_local void @_ZN7testing8internal7PrintToISt4errcEEvRKT_PSo(ptr noundef nonnull align 4 dereferenceable(4) %value, ptr noundef %os) #4 comdat {
entry:
  %value.addr = alloca ptr, align 8
  %os.addr = alloca ptr, align 8
  store ptr %value, ptr %value.addr, align 8
  store ptr %os, ptr %os.addr, align 8
  %0 = load ptr, ptr %value.addr, align 8
  %1 = load ptr, ptr %os.addr, align 8
  call void @_ZN7testing8internal17PrintWithFallbackISt4errcEEvRKT_PSo(ptr noundef nonnull align 4 dereferenceable(4) %0, ptr noundef %1)
  ret void
}

; Function Attrs: mustprogress uwtable
define linkonce_odr dso_local void @_ZN7testing8internal17PrintWithFallbackISt4errcEEvRKT_PSo(ptr noundef nonnull align 4 dereferenceable(4) %value, ptr noundef %os) #4 comdat {
entry:
  %value.addr = alloca ptr, align 8
  %os.addr = alloca ptr, align 8
  store ptr %value, ptr %value.addr, align 8
  store ptr %os, ptr %os.addr, align 8
  %0 = load ptr, ptr %value.addr, align 8
  %1 = load ptr, ptr %os.addr, align 8
  call void @_ZN7testing8internal15RawBytesPrinter10PrintValueISt4errcLm4EEEvRKT_PSo(ptr noundef nonnull align 4 dereferenceable(4) %0, ptr noundef %1)
  ret void
}

; Function Attrs: mustprogress uwtable
define linkonce_odr dso_local void @_ZN7testing8internal15RawBytesPrinter10PrintValueISt4errcLm4EEEvRKT_PSo(ptr noundef nonnull align 4 dereferenceable(4) %value, ptr noundef %os) #4 comdat align 2 {
entry:
  %value.addr = alloca ptr, align 8
  %os.addr = alloca ptr, align 8
  store ptr %value, ptr %value.addr, align 8
  store ptr %os, ptr %os.addr, align 8
  %0 = load ptr, ptr %value.addr, align 8
  %1 = load ptr, ptr %os.addr, align 8
  call void @_ZN7testing8internal20PrintBytesInObjectToEPKhmPSo(ptr noundef %0, i64 noundef 4, ptr noundef %1)
  ret void
}

declare void @_ZN7testing8internal20PrintBytesInObjectToEPKhmPSo(ptr noundef, i64 noundef, ptr noundef) #1

; Function Attrs: mustprogress nounwind uwtable
define linkonce_odr dso_local noundef ptr @_ZNK7testing15AssertionResult7messageEv(ptr noundef nonnull align 8 dereferenceable(16) %this) #7 comdat align 2 {
entry:
  %this.addr = alloca ptr, align 8
  store ptr %this, ptr %this.addr, align 8
  %this1 = load ptr, ptr %this.addr, align 8
  %message_ = getelementptr inbounds %"class.testing::AssertionResult", ptr %this1, i32 0, i32 1
  %call = call noundef zeroext i1 @_ZStneINSt7__cxx1112basic_stringIcSt11char_traitsIcESaIcEEESt14default_deleteIS5_EEbRKSt10unique_ptrIT_T0_EDn(ptr noundef nonnull align 8 dereferenceable(8) %message_, ptr null) #3
  br i1 %call, label %cond.true, label %cond.false

cond.true:                                        ; preds = %entry
  %message_2 = getelementptr inbounds %"class.testing::AssertionResult", ptr %this1, i32 0, i32 1
  %call3 = call noundef ptr @_ZNKSt10unique_ptrINSt7__cxx1112basic_stringIcSt11char_traitsIcESaIcEEESt14default_deleteIS5_EEptEv(ptr noundef nonnull align 8 dereferenceable(8) %message_2) #3
  %call4 = call noundef ptr @_ZNKSt7__cxx1112basic_stringIcSt11char_traitsIcESaIcEE5c_strEv(ptr noundef nonnull align 8 dereferenceable(32) %call3) #3
  br label %cond.end

cond.false:                                       ; preds = %entry
  br label %cond.end

cond.end:                                         ; preds = %cond.false, %cond.true
  %cond = phi ptr [ %call4, %cond.true ], [ @.str.176, %cond.false ]
  ret ptr %cond
}

; Function Attrs: mustprogress nounwind uwtable
define linkonce_odr dso_local noundef zeroext i1 @_ZStneINSt7__cxx1112basic_stringIcSt11char_traitsIcESaIcEEESt14default_deleteIS5_EEbRKSt10unique_ptrIT_T0_EDn(ptr noundef nonnull align 8 dereferenceable(8) %__x, ptr %0) #7 comdat {
entry:
  %__x.addr = alloca ptr, align 8
  %.addr = alloca ptr, align 8
  store ptr %__x, ptr %__x.addr, align 8
  store ptr %0, ptr %.addr, align 8
  %1 = load ptr, ptr %__x.addr, align 8
  %call = call noundef zeroext i1 @_ZNKSt10unique_ptrINSt7__cxx1112basic_stringIcSt11char_traitsIcESaIcEEESt14default_deleteIS5_EEcvbEv(ptr noundef nonnull align 8 dereferenceable(8) %1) #3
  ret i1 %call
}

; Function Attrs: mustprogress nounwind uwtable
define linkonce_odr dso_local noundef ptr @_ZNKSt10unique_ptrINSt7__cxx1112basic_stringIcSt11char_traitsIcESaIcEEESt14default_deleteIS5_EEptEv(ptr noundef nonnull align 8 dereferenceable(8) %this) #7 comdat align 2 {
entry:
  %this.addr = alloca ptr, align 8
  store ptr %this, ptr %this.addr, align 8
  %this1 = load ptr, ptr %this.addr, align 8
  %call = call noundef ptr @_ZNKSt10unique_ptrINSt7__cxx1112basic_stringIcSt11char_traitsIcESaIcEEESt14default_deleteIS5_EE3getEv(ptr noundef nonnull align 8 dereferenceable(8) %this1) #3
  ret ptr %call
}

; Function Attrs: nounwind
declare noundef ptr @_ZNKSt7__cxx1112basic_stringIcSt11char_traitsIcESaIcEE5c_strEv(ptr noundef nonnull align 8 dereferenceable(32)) #2

; Function Attrs: mustprogress nounwind uwtable
define linkonce_odr dso_local noundef zeroext i1 @_ZNKSt10unique_ptrINSt7__cxx1112basic_stringIcSt11char_traitsIcESaIcEEESt14default_deleteIS5_EEcvbEv(ptr noundef nonnull align 8 dereferenceable(8) %this) #7 comdat align 2 {
entry:
  %this.addr = alloca ptr, align 8
  store ptr %this, ptr %this.addr, align 8
  %this1 = load ptr, ptr %this.addr, align 8
  %call = call noundef ptr @_ZNKSt10unique_ptrINSt7__cxx1112basic_stringIcSt11char_traitsIcESaIcEEESt14default_deleteIS5_EE3getEv(ptr noundef nonnull align 8 dereferenceable(8) %this1) #3
  %cmp = icmp eq ptr %call, null
  %cond = select i1 %cmp, i1 false, i1 true
  ret i1 %cond
}

; Function Attrs: mustprogress nounwind uwtable
define linkonce_odr dso_local noundef ptr @_ZNKSt10unique_ptrINSt7__cxx1112basic_stringIcSt11char_traitsIcESaIcEEESt14default_deleteIS5_EE3getEv(ptr noundef nonnull align 8 dereferenceable(8) %this) #7 comdat align 2 {
entry:
  %this.addr = alloca ptr, align 8
  store ptr %this, ptr %this.addr, align 8
  %this1 = load ptr, ptr %this.addr, align 8
  %_M_t = getelementptr inbounds %"class.std::unique_ptr.17", ptr %this1, i32 0, i32 0
  %call = call noundef ptr @_ZNKSt15__uniq_ptr_implINSt7__cxx1112basic_stringIcSt11char_traitsIcESaIcEEESt14default_deleteIS5_EE6_M_ptrEv(ptr noundef nonnull align 8 dereferenceable(8) %_M_t) #3
  ret ptr %call
}

; Function Attrs: mustprogress nounwind uwtable
define linkonce_odr dso_local noundef ptr @_ZNKSt15__uniq_ptr_implINSt7__cxx1112basic_stringIcSt11char_traitsIcESaIcEEESt14default_deleteIS5_EE6_M_ptrEv(ptr noundef nonnull align 8 dereferenceable(8) %this) #7 comdat align 2 {
entry:
  %this.addr = alloca ptr, align 8
  store ptr %this, ptr %this.addr, align 8
  %this1 = load ptr, ptr %this.addr, align 8
  %_M_t = getelementptr inbounds %"class.std::__uniq_ptr_impl.19", ptr %this1, i32 0, i32 0
  %call = call noundef nonnull align 8 dereferenceable(8) ptr @_ZSt3getILm0EJPNSt7__cxx1112basic_stringIcSt11char_traitsIcESaIcEEESt14default_deleteIS5_EEERKNSt13tuple_elementIXT_ESt5tupleIJDpT0_EEE4typeERKSD_(ptr noundef nonnull align 8 dereferenceable(8) %_M_t) #3
  %0 = load ptr, ptr %call, align 8
  ret ptr %0
}

; Function Attrs: mustprogress nounwind uwtable
define linkonce_odr dso_local noundef nonnull align 8 dereferenceable(8) ptr @_ZSt3getILm0EJPNSt7__cxx1112basic_stringIcSt11char_traitsIcESaIcEEESt14default_deleteIS5_EEERKNSt13tuple_elementIXT_ESt5tupleIJDpT0_EEE4typeERKSD_(ptr noundef nonnull align 8 dereferenceable(8) %__t) #7 comdat {
entry:
  %__t.addr = alloca ptr, align 8
  store ptr %__t, ptr %__t.addr, align 8
  %0 = load ptr, ptr %__t.addr, align 8
  %call = call noundef nonnull align 8 dereferenceable(8) ptr @_ZSt12__get_helperILm0EPNSt7__cxx1112basic_stringIcSt11char_traitsIcESaIcEEEJSt14default_deleteIS5_EEERKT0_RKSt11_Tuple_implIXT_EJS9_DpT1_EE(ptr noundef nonnull align 8 dereferenceable(8) %0) #3
  ret ptr %call
}

; Function Attrs: mustprogress nounwind uwtable
define linkonce_odr dso_local noundef nonnull align 8 dereferenceable(8) ptr @_ZSt12__get_helperILm0EPNSt7__cxx1112basic_stringIcSt11char_traitsIcESaIcEEEJSt14default_deleteIS5_EEERKT0_RKSt11_Tuple_implIXT_EJS9_DpT1_EE(ptr noundef nonnull align 8 dereferenceable(8) %__t) #7 comdat {
entry:
  %__t.addr = alloca ptr, align 8
  store ptr %__t, ptr %__t.addr, align 8
  %0 = load ptr, ptr %__t.addr, align 8
  %call = call noundef nonnull align 8 dereferenceable(8) ptr @_ZNSt11_Tuple_implILm0EJPNSt7__cxx1112basic_stringIcSt11char_traitsIcESaIcEEESt14default_deleteIS5_EEE7_M_headERKS9_(ptr noundef nonnull align 8 dereferenceable(8) %0) #3
  ret ptr %call
}

; Function Attrs: mustprogress nounwind uwtable
define linkonce_odr dso_local noundef nonnull align 8 dereferenceable(8) ptr @_ZNSt11_Tuple_implILm0EJPNSt7__cxx1112basic_stringIcSt11char_traitsIcESaIcEEESt14default_deleteIS5_EEE7_M_headERKS9_(ptr noundef nonnull align 8 dereferenceable(8) %__t) #7 comdat align 2 {
entry:
  %__t.addr = alloca ptr, align 8
  store ptr %__t, ptr %__t.addr, align 8
  %0 = load ptr, ptr %__t.addr, align 8
  %call = call noundef nonnull align 8 dereferenceable(8) ptr @_ZNSt10_Head_baseILm0EPNSt7__cxx1112basic_stringIcSt11char_traitsIcESaIcEEELb0EE7_M_headERKS7_(ptr noundef nonnull align 8 dereferenceable(8) %0) #3
  ret ptr %call
}

; Function Attrs: mustprogress nounwind uwtable
define linkonce_odr dso_local noundef nonnull align 8 dereferenceable(8) ptr @_ZNSt10_Head_baseILm0EPNSt7__cxx1112basic_stringIcSt11char_traitsIcESaIcEEELb0EE7_M_headERKS7_(ptr noundef nonnull align 8 dereferenceable(8) %__b) #7 comdat align 2 {
entry:
  %__b.addr = alloca ptr, align 8
  store ptr %__b, ptr %__b.addr, align 8
  %0 = load ptr, ptr %__b.addr, align 8
  %_M_head_impl = getelementptr inbounds %"struct.std::_Head_base.24", ptr %0, i32 0, i32 0
  ret ptr %_M_head_impl
}

; Function Attrs: mustprogress nounwind uwtable
define linkonce_odr dso_local void @_ZNSt10unique_ptrINSt7__cxx1118basic_stringstreamIcSt11char_traitsIcESaIcEEESt14default_deleteIS5_EED2Ev(ptr noundef nonnull align 8 dereferenceable(8) %this) unnamed_addr #7 comdat align 2 personality ptr @__gxx_personality_v0 {
entry:
  %this.addr = alloca ptr, align 8
  %__ptr = alloca ptr, align 8
  store ptr %this, ptr %this.addr, align 8
  %this1 = load ptr, ptr %this.addr, align 8
  %_M_t = getelementptr inbounds %"class.std::unique_ptr.25", ptr %this1, i32 0, i32 0
  %call = call noundef nonnull align 8 dereferenceable(8) ptr @_ZNSt15__uniq_ptr_implINSt7__cxx1118basic_stringstreamIcSt11char_traitsIcESaIcEEESt14default_deleteIS5_EE6_M_ptrEv(ptr noundef nonnull align 8 dereferenceable(8) %_M_t) #3
  store ptr %call, ptr %__ptr, align 8
  %0 = load ptr, ptr %__ptr, align 8
  %1 = load ptr, ptr %0, align 8
  %cmp = icmp ne ptr %1, null
  br i1 %cmp, label %if.then, label %if.end

if.then:                                          ; preds = %entry
  %call2 = call noundef nonnull align 1 dereferenceable(1) ptr @_ZNSt10unique_ptrINSt7__cxx1118basic_stringstreamIcSt11char_traitsIcESaIcEEESt14default_deleteIS5_EE11get_deleterEv(ptr noundef nonnull align 8 dereferenceable(8) %this1) #3
  %2 = load ptr, ptr %__ptr, align 8
  %3 = load ptr, ptr %2, align 8
  invoke void @_ZNKSt14default_deleteINSt7__cxx1118basic_stringstreamIcSt11char_traitsIcESaIcEEEEclEPS5_(ptr noundef nonnull align 1 dereferenceable(1) %call2, ptr noundef %3)
          to label %invoke.cont unwind label %terminate.lpad

invoke.cont:                                      ; preds = %if.then
  br label %if.end

if.end:                                           ; preds = %invoke.cont, %entry
  %4 = load ptr, ptr %__ptr, align 8
  store ptr null, ptr %4, align 8
  ret void

terminate.lpad:                                   ; preds = %if.then
  %5 = landingpad { ptr, i32 }
          catch ptr null
  %6 = extractvalue { ptr, i32 } %5, 0
  call void @__clang_call_terminate(ptr %6) #18
  unreachable
}

; Function Attrs: mustprogress nounwind uwtable
define linkonce_odr dso_local noundef nonnull align 8 dereferenceable(8) ptr @_ZNSt15__uniq_ptr_implINSt7__cxx1118basic_stringstreamIcSt11char_traitsIcESaIcEEESt14default_deleteIS5_EE6_M_ptrEv(ptr noundef nonnull align 8 dereferenceable(8) %this) #7 comdat align 2 {
entry:
  %this.addr = alloca ptr, align 8
  store ptr %this, ptr %this.addr, align 8
  %this1 = load ptr, ptr %this.addr, align 8
  %_M_t = getelementptr inbounds %"class.std::__uniq_ptr_impl.27", ptr %this1, i32 0, i32 0
  %call = call noundef nonnull align 8 dereferenceable(8) ptr @_ZSt3getILm0EJPNSt7__cxx1118basic_stringstreamIcSt11char_traitsIcESaIcEEESt14default_deleteIS5_EEERNSt13tuple_elementIXT_ESt5tupleIJDpT0_EEE4typeERSD_(ptr noundef nonnull align 8 dereferenceable(8) %_M_t) #3
  ret ptr %call
}

; Function Attrs: mustprogress nounwind uwtable
define linkonce_odr dso_local noundef nonnull align 1 dereferenceable(1) ptr @_ZNSt10unique_ptrINSt7__cxx1118basic_stringstreamIcSt11char_traitsIcESaIcEEESt14default_deleteIS5_EE11get_deleterEv(ptr noundef nonnull align 8 dereferenceable(8) %this) #7 comdat align 2 {
entry:
  %this.addr = alloca ptr, align 8
  store ptr %this, ptr %this.addr, align 8
  %this1 = load ptr, ptr %this.addr, align 8
  %_M_t = getelementptr inbounds %"class.std::unique_ptr.25", ptr %this1, i32 0, i32 0
  %call = call noundef nonnull align 1 dereferenceable(1) ptr @_ZNSt15__uniq_ptr_implINSt7__cxx1118basic_stringstreamIcSt11char_traitsIcESaIcEEESt14default_deleteIS5_EE10_M_deleterEv(ptr noundef nonnull align 8 dereferenceable(8) %_M_t) #3
  ret ptr %call
}

; Function Attrs: mustprogress nounwind uwtable
define linkonce_odr dso_local void @_ZNKSt14default_deleteINSt7__cxx1118basic_stringstreamIcSt11char_traitsIcESaIcEEEEclEPS5_(ptr noundef nonnull align 1 dereferenceable(1) %this, ptr noundef %__ptr) #7 comdat align 2 {
entry:
  %this.addr = alloca ptr, align 8
  %__ptr.addr = alloca ptr, align 8
  store ptr %this, ptr %this.addr, align 8
  store ptr %__ptr, ptr %__ptr.addr, align 8
  %0 = load ptr, ptr %__ptr.addr, align 8
  %isnull = icmp eq ptr %0, null
  br i1 %isnull, label %delete.end, label %delete.notnull

delete.notnull:                                   ; preds = %entry
  %vtable = load ptr, ptr %0, align 8
  %vfn = getelementptr inbounds ptr, ptr %vtable, i64 1
  %1 = load ptr, ptr %vfn, align 8
  call void %1(ptr noundef nonnull align 8 dereferenceable(128) %0) #3
  br label %delete.end

delete.end:                                       ; preds = %delete.notnull, %entry
  ret void
}

; Function Attrs: noreturn nounwind uwtable
define linkonce_odr hidden void @__clang_call_terminate(ptr noundef %0) #10 comdat {
  %2 = call ptr @__cxa_begin_catch(ptr %0) #3
  call void @_ZSt9terminatev() #18
  unreachable
}

declare ptr @__cxa_begin_catch(ptr)

declare void @_ZSt9terminatev()

; Function Attrs: mustprogress nounwind uwtable
define linkonce_odr dso_local noundef nonnull align 8 dereferenceable(8) ptr @_ZSt3getILm0EJPNSt7__cxx1118basic_stringstreamIcSt11char_traitsIcESaIcEEESt14default_deleteIS5_EEERNSt13tuple_elementIXT_ESt5tupleIJDpT0_EEE4typeERSD_(ptr noundef nonnull align 8 dereferenceable(8) %__t) #7 comdat {
entry:
  %__t.addr = alloca ptr, align 8
  store ptr %__t, ptr %__t.addr, align 8
  %0 = load ptr, ptr %__t.addr, align 8
  %call = call noundef nonnull align 8 dereferenceable(8) ptr @_ZSt12__get_helperILm0EPNSt7__cxx1118basic_stringstreamIcSt11char_traitsIcESaIcEEEJSt14default_deleteIS5_EEERT0_RSt11_Tuple_implIXT_EJS9_DpT1_EE(ptr noundef nonnull align 8 dereferenceable(8) %0) #3
  ret ptr %call
}

; Function Attrs: mustprogress nounwind uwtable
define linkonce_odr dso_local noundef nonnull align 8 dereferenceable(8) ptr @_ZSt12__get_helperILm0EPNSt7__cxx1118basic_stringstreamIcSt11char_traitsIcESaIcEEEJSt14default_deleteIS5_EEERT0_RSt11_Tuple_implIXT_EJS9_DpT1_EE(ptr noundef nonnull align 8 dereferenceable(8) %__t) #7 comdat {
entry:
  %__t.addr = alloca ptr, align 8
  store ptr %__t, ptr %__t.addr, align 8
  %0 = load ptr, ptr %__t.addr, align 8
  %call = call noundef nonnull align 8 dereferenceable(8) ptr @_ZNSt11_Tuple_implILm0EJPNSt7__cxx1118basic_stringstreamIcSt11char_traitsIcESaIcEEESt14default_deleteIS5_EEE7_M_headERS9_(ptr noundef nonnull align 8 dereferenceable(8) %0) #3
  ret ptr %call
}

; Function Attrs: mustprogress nounwind uwtable
define linkonce_odr dso_local noundef nonnull align 8 dereferenceable(8) ptr @_ZNSt11_Tuple_implILm0EJPNSt7__cxx1118basic_stringstreamIcSt11char_traitsIcESaIcEEESt14default_deleteIS5_EEE7_M_headERS9_(ptr noundef nonnull align 8 dereferenceable(8) %__t) #7 comdat align 2 {
entry:
  %__t.addr = alloca ptr, align 8
  store ptr %__t, ptr %__t.addr, align 8
  %0 = load ptr, ptr %__t.addr, align 8
  %call = call noundef nonnull align 8 dereferenceable(8) ptr @_ZNSt10_Head_baseILm0EPNSt7__cxx1118basic_stringstreamIcSt11char_traitsIcESaIcEEELb0EE7_M_headERS7_(ptr noundef nonnull align 8 dereferenceable(8) %0) #3
  ret ptr %call
}

; Function Attrs: mustprogress nounwind uwtable
define linkonce_odr dso_local noundef nonnull align 8 dereferenceable(8) ptr @_ZNSt10_Head_baseILm0EPNSt7__cxx1118basic_stringstreamIcSt11char_traitsIcESaIcEEELb0EE7_M_headERS7_(ptr noundef nonnull align 8 dereferenceable(8) %__b) #7 comdat align 2 {
entry:
  %__b.addr = alloca ptr, align 8
  store ptr %__b, ptr %__b.addr, align 8
  %0 = load ptr, ptr %__b.addr, align 8
  %_M_head_impl = getelementptr inbounds %"struct.std::_Head_base.32", ptr %0, i32 0, i32 0
  ret ptr %_M_head_impl
}

; Function Attrs: mustprogress nounwind uwtable
define linkonce_odr dso_local noundef nonnull align 1 dereferenceable(1) ptr @_ZNSt15__uniq_ptr_implINSt7__cxx1118basic_stringstreamIcSt11char_traitsIcESaIcEEESt14default_deleteIS5_EE10_M_deleterEv(ptr noundef nonnull align 8 dereferenceable(8) %this) #7 comdat align 2 {
entry:
  %this.addr = alloca ptr, align 8
  store ptr %this, ptr %this.addr, align 8
  %this1 = load ptr, ptr %this.addr, align 8
  %_M_t = getelementptr inbounds %"class.std::__uniq_ptr_impl.27", ptr %this1, i32 0, i32 0
  %call = call noundef nonnull align 1 dereferenceable(1) ptr @_ZSt3getILm1EJPNSt7__cxx1118basic_stringstreamIcSt11char_traitsIcESaIcEEESt14default_deleteIS5_EEERNSt13tuple_elementIXT_ESt5tupleIJDpT0_EEE4typeERSD_(ptr noundef nonnull align 8 dereferenceable(8) %_M_t) #3
  ret ptr %call
}

; Function Attrs: mustprogress nounwind uwtable
define linkonce_odr dso_local noundef nonnull align 1 dereferenceable(1) ptr @_ZSt3getILm1EJPNSt7__cxx1118basic_stringstreamIcSt11char_traitsIcESaIcEEESt14default_deleteIS5_EEERNSt13tuple_elementIXT_ESt5tupleIJDpT0_EEE4typeERSD_(ptr noundef nonnull align 8 dereferenceable(8) %__t) #7 comdat {
entry:
  %__t.addr = alloca ptr, align 8
  store ptr %__t, ptr %__t.addr, align 8
  %0 = load ptr, ptr %__t.addr, align 8
  %call = call noundef nonnull align 1 dereferenceable(1) ptr @_ZSt12__get_helperILm1ESt14default_deleteINSt7__cxx1118basic_stringstreamIcSt11char_traitsIcESaIcEEEEJEERT0_RSt11_Tuple_implIXT_EJS8_DpT1_EE(ptr noundef nonnull align 1 dereferenceable(1) %0) #3
  ret ptr %call
}

; Function Attrs: mustprogress nounwind uwtable
define linkonce_odr dso_local noundef nonnull align 1 dereferenceable(1) ptr @_ZSt12__get_helperILm1ESt14default_deleteINSt7__cxx1118basic_stringstreamIcSt11char_traitsIcESaIcEEEEJEERT0_RSt11_Tuple_implIXT_EJS8_DpT1_EE(ptr noundef nonnull align 1 dereferenceable(1) %__t) #7 comdat {
entry:
  %__t.addr = alloca ptr, align 8
  store ptr %__t, ptr %__t.addr, align 8
  %0 = load ptr, ptr %__t.addr, align 8
  %call = call noundef nonnull align 1 dereferenceable(1) ptr @_ZNSt11_Tuple_implILm1EJSt14default_deleteINSt7__cxx1118basic_stringstreamIcSt11char_traitsIcESaIcEEEEEE7_M_headERS8_(ptr noundef nonnull align 1 dereferenceable(1) %0) #3
  ret ptr %call
}

; Function Attrs: mustprogress nounwind uwtable
define linkonce_odr dso_local noundef nonnull align 1 dereferenceable(1) ptr @_ZNSt11_Tuple_implILm1EJSt14default_deleteINSt7__cxx1118basic_stringstreamIcSt11char_traitsIcESaIcEEEEEE7_M_headERS8_(ptr noundef nonnull align 1 dereferenceable(1) %__t) #7 comdat align 2 {
entry:
  %__t.addr = alloca ptr, align 8
  store ptr %__t, ptr %__t.addr, align 8
  %0 = load ptr, ptr %__t.addr, align 8
  %call = call noundef nonnull align 1 dereferenceable(1) ptr @_ZNSt10_Head_baseILm1ESt14default_deleteINSt7__cxx1118basic_stringstreamIcSt11char_traitsIcESaIcEEEELb1EE7_M_headERS8_(ptr noundef nonnull align 1 dereferenceable(1) %0) #3
  ret ptr %call
}

; Function Attrs: mustprogress nounwind uwtable
define linkonce_odr dso_local noundef nonnull align 1 dereferenceable(1) ptr @_ZNSt10_Head_baseILm1ESt14default_deleteINSt7__cxx1118basic_stringstreamIcSt11char_traitsIcESaIcEEEELb1EE7_M_headERS8_(ptr noundef nonnull align 1 dereferenceable(1) %__b) #7 comdat align 2 {
entry:
  %__b.addr = alloca ptr, align 8
  store ptr %__b, ptr %__b.addr, align 8
  %0 = load ptr, ptr %__b.addr, align 8
  ret ptr %0
}

; Function Attrs: mustprogress nounwind uwtable
define linkonce_odr dso_local void @_ZNSt10unique_ptrINSt7__cxx1112basic_stringIcSt11char_traitsIcESaIcEEESt14default_deleteIS5_EED2Ev(ptr noundef nonnull align 8 dereferenceable(8) %this) unnamed_addr #7 comdat align 2 personality ptr @__gxx_personality_v0 {
entry:
  %this.addr = alloca ptr, align 8
  %__ptr = alloca ptr, align 8
  store ptr %this, ptr %this.addr, align 8
  %this1 = load ptr, ptr %this.addr, align 8
  %_M_t = getelementptr inbounds %"class.std::unique_ptr.17", ptr %this1, i32 0, i32 0
  %call = call noundef nonnull align 8 dereferenceable(8) ptr @_ZNSt15__uniq_ptr_implINSt7__cxx1112basic_stringIcSt11char_traitsIcESaIcEEESt14default_deleteIS5_EE6_M_ptrEv(ptr noundef nonnull align 8 dereferenceable(8) %_M_t) #3
  store ptr %call, ptr %__ptr, align 8
  %0 = load ptr, ptr %__ptr, align 8
  %1 = load ptr, ptr %0, align 8
  %cmp = icmp ne ptr %1, null
  br i1 %cmp, label %if.then, label %if.end

if.then:                                          ; preds = %entry
  %call2 = call noundef nonnull align 1 dereferenceable(1) ptr @_ZNSt10unique_ptrINSt7__cxx1112basic_stringIcSt11char_traitsIcESaIcEEESt14default_deleteIS5_EE11get_deleterEv(ptr noundef nonnull align 8 dereferenceable(8) %this1) #3
  %2 = load ptr, ptr %__ptr, align 8
  %3 = load ptr, ptr %2, align 8
  invoke void @_ZNKSt14default_deleteINSt7__cxx1112basic_stringIcSt11char_traitsIcESaIcEEEEclEPS5_(ptr noundef nonnull align 1 dereferenceable(1) %call2, ptr noundef %3)
          to label %invoke.cont unwind label %terminate.lpad

invoke.cont:                                      ; preds = %if.then
  br label %if.end

if.end:                                           ; preds = %invoke.cont, %entry
  %4 = load ptr, ptr %__ptr, align 8
  store ptr null, ptr %4, align 8
  ret void

terminate.lpad:                                   ; preds = %if.then
  %5 = landingpad { ptr, i32 }
          catch ptr null
  %6 = extractvalue { ptr, i32 } %5, 0
  call void @__clang_call_terminate(ptr %6) #18
  unreachable
}

; Function Attrs: mustprogress nounwind uwtable
define linkonce_odr dso_local noundef nonnull align 8 dereferenceable(8) ptr @_ZNSt15__uniq_ptr_implINSt7__cxx1112basic_stringIcSt11char_traitsIcESaIcEEESt14default_deleteIS5_EE6_M_ptrEv(ptr noundef nonnull align 8 dereferenceable(8) %this) #7 comdat align 2 {
entry:
  %this.addr = alloca ptr, align 8
  store ptr %this, ptr %this.addr, align 8
  %this1 = load ptr, ptr %this.addr, align 8
  %_M_t = getelementptr inbounds %"class.std::__uniq_ptr_impl.19", ptr %this1, i32 0, i32 0
  %call = call noundef nonnull align 8 dereferenceable(8) ptr @_ZSt3getILm0EJPNSt7__cxx1112basic_stringIcSt11char_traitsIcESaIcEEESt14default_deleteIS5_EEERNSt13tuple_elementIXT_ESt5tupleIJDpT0_EEE4typeERSD_(ptr noundef nonnull align 8 dereferenceable(8) %_M_t) #3
  ret ptr %call
}

; Function Attrs: mustprogress nounwind uwtable
define linkonce_odr dso_local noundef nonnull align 1 dereferenceable(1) ptr @_ZNSt10unique_ptrINSt7__cxx1112basic_stringIcSt11char_traitsIcESaIcEEESt14default_deleteIS5_EE11get_deleterEv(ptr noundef nonnull align 8 dereferenceable(8) %this) #7 comdat align 2 {
entry:
  %this.addr = alloca ptr, align 8
  store ptr %this, ptr %this.addr, align 8
  %this1 = load ptr, ptr %this.addr, align 8
  %_M_t = getelementptr inbounds %"class.std::unique_ptr.17", ptr %this1, i32 0, i32 0
  %call = call noundef nonnull align 1 dereferenceable(1) ptr @_ZNSt15__uniq_ptr_implINSt7__cxx1112basic_stringIcSt11char_traitsIcESaIcEEESt14default_deleteIS5_EE10_M_deleterEv(ptr noundef nonnull align 8 dereferenceable(8) %_M_t) #3
  ret ptr %call
}

; Function Attrs: mustprogress nounwind uwtable
define linkonce_odr dso_local void @_ZNKSt14default_deleteINSt7__cxx1112basic_stringIcSt11char_traitsIcESaIcEEEEclEPS5_(ptr noundef nonnull align 1 dereferenceable(1) %this, ptr noundef %__ptr) #7 comdat align 2 {
entry:
  %this.addr = alloca ptr, align 8
  %__ptr.addr = alloca ptr, align 8
  store ptr %this, ptr %this.addr, align 8
  store ptr %__ptr, ptr %__ptr.addr, align 8
  %0 = load ptr, ptr %__ptr.addr, align 8
  %isnull = icmp eq ptr %0, null
  br i1 %isnull, label %delete.end, label %delete.notnull

delete.notnull:                                   ; preds = %entry
  call void @_ZNSt7__cxx1112basic_stringIcSt11char_traitsIcESaIcEED1Ev(ptr noundef nonnull align 8 dereferenceable(32) %0) #3
  call void @_ZdlPv(ptr noundef %0) #16
  br label %delete.end

delete.end:                                       ; preds = %delete.notnull, %entry
  ret void
}

; Function Attrs: mustprogress nounwind uwtable
define linkonce_odr dso_local noundef nonnull align 8 dereferenceable(8) ptr @_ZSt3getILm0EJPNSt7__cxx1112basic_stringIcSt11char_traitsIcESaIcEEESt14default_deleteIS5_EEERNSt13tuple_elementIXT_ESt5tupleIJDpT0_EEE4typeERSD_(ptr noundef nonnull align 8 dereferenceable(8) %__t) #7 comdat {
entry:
  %__t.addr = alloca ptr, align 8
  store ptr %__t, ptr %__t.addr, align 8
  %0 = load ptr, ptr %__t.addr, align 8
  %call = call noundef nonnull align 8 dereferenceable(8) ptr @_ZSt12__get_helperILm0EPNSt7__cxx1112basic_stringIcSt11char_traitsIcESaIcEEEJSt14default_deleteIS5_EEERT0_RSt11_Tuple_implIXT_EJS9_DpT1_EE(ptr noundef nonnull align 8 dereferenceable(8) %0) #3
  ret ptr %call
}

; Function Attrs: mustprogress nounwind uwtable
define linkonce_odr dso_local noundef nonnull align 8 dereferenceable(8) ptr @_ZSt12__get_helperILm0EPNSt7__cxx1112basic_stringIcSt11char_traitsIcESaIcEEEJSt14default_deleteIS5_EEERT0_RSt11_Tuple_implIXT_EJS9_DpT1_EE(ptr noundef nonnull align 8 dereferenceable(8) %__t) #7 comdat {
entry:
  %__t.addr = alloca ptr, align 8
  store ptr %__t, ptr %__t.addr, align 8
  %0 = load ptr, ptr %__t.addr, align 8
  %call = call noundef nonnull align 8 dereferenceable(8) ptr @_ZNSt11_Tuple_implILm0EJPNSt7__cxx1112basic_stringIcSt11char_traitsIcESaIcEEESt14default_deleteIS5_EEE7_M_headERS9_(ptr noundef nonnull align 8 dereferenceable(8) %0) #3
  ret ptr %call
}

; Function Attrs: mustprogress nounwind uwtable
define linkonce_odr dso_local noundef nonnull align 8 dereferenceable(8) ptr @_ZNSt11_Tuple_implILm0EJPNSt7__cxx1112basic_stringIcSt11char_traitsIcESaIcEEESt14default_deleteIS5_EEE7_M_headERS9_(ptr noundef nonnull align 8 dereferenceable(8) %__t) #7 comdat align 2 {
entry:
  %__t.addr = alloca ptr, align 8
  store ptr %__t, ptr %__t.addr, align 8
  %0 = load ptr, ptr %__t.addr, align 8
  %call = call noundef nonnull align 8 dereferenceable(8) ptr @_ZNSt10_Head_baseILm0EPNSt7__cxx1112basic_stringIcSt11char_traitsIcESaIcEEELb0EE7_M_headERS7_(ptr noundef nonnull align 8 dereferenceable(8) %0) #3
  ret ptr %call
}

; Function Attrs: mustprogress nounwind uwtable
define linkonce_odr dso_local noundef nonnull align 8 dereferenceable(8) ptr @_ZNSt10_Head_baseILm0EPNSt7__cxx1112basic_stringIcSt11char_traitsIcESaIcEEELb0EE7_M_headERS7_(ptr noundef nonnull align 8 dereferenceable(8) %__b) #7 comdat align 2 {
entry:
  %__b.addr = alloca ptr, align 8
  store ptr %__b, ptr %__b.addr, align 8
  %0 = load ptr, ptr %__b.addr, align 8
  %_M_head_impl = getelementptr inbounds %"struct.std::_Head_base.24", ptr %0, i32 0, i32 0
  ret ptr %_M_head_impl
}

; Function Attrs: mustprogress nounwind uwtable
define linkonce_odr dso_local noundef nonnull align 1 dereferenceable(1) ptr @_ZNSt15__uniq_ptr_implINSt7__cxx1112basic_stringIcSt11char_traitsIcESaIcEEESt14default_deleteIS5_EE10_M_deleterEv(ptr noundef nonnull align 8 dereferenceable(8) %this) #7 comdat align 2 {
entry:
  %this.addr = alloca ptr, align 8
  store ptr %this, ptr %this.addr, align 8
  %this1 = load ptr, ptr %this.addr, align 8
  %_M_t = getelementptr inbounds %"class.std::__uniq_ptr_impl.19", ptr %this1, i32 0, i32 0
  %call = call noundef nonnull align 1 dereferenceable(1) ptr @_ZSt3getILm1EJPNSt7__cxx1112basic_stringIcSt11char_traitsIcESaIcEEESt14default_deleteIS5_EEERNSt13tuple_elementIXT_ESt5tupleIJDpT0_EEE4typeERSD_(ptr noundef nonnull align 8 dereferenceable(8) %_M_t) #3
  ret ptr %call
}

; Function Attrs: mustprogress nounwind uwtable
define linkonce_odr dso_local noundef nonnull align 1 dereferenceable(1) ptr @_ZSt3getILm1EJPNSt7__cxx1112basic_stringIcSt11char_traitsIcESaIcEEESt14default_deleteIS5_EEERNSt13tuple_elementIXT_ESt5tupleIJDpT0_EEE4typeERSD_(ptr noundef nonnull align 8 dereferenceable(8) %__t) #7 comdat {
entry:
  %__t.addr = alloca ptr, align 8
  store ptr %__t, ptr %__t.addr, align 8
  %0 = load ptr, ptr %__t.addr, align 8
  %call = call noundef nonnull align 1 dereferenceable(1) ptr @_ZSt12__get_helperILm1ESt14default_deleteINSt7__cxx1112basic_stringIcSt11char_traitsIcESaIcEEEEJEERT0_RSt11_Tuple_implIXT_EJS8_DpT1_EE(ptr noundef nonnull align 1 dereferenceable(1) %0) #3
  ret ptr %call
}

; Function Attrs: mustprogress nounwind uwtable
define linkonce_odr dso_local noundef nonnull align 1 dereferenceable(1) ptr @_ZSt12__get_helperILm1ESt14default_deleteINSt7__cxx1112basic_stringIcSt11char_traitsIcESaIcEEEEJEERT0_RSt11_Tuple_implIXT_EJS8_DpT1_EE(ptr noundef nonnull align 1 dereferenceable(1) %__t) #7 comdat {
entry:
  %__t.addr = alloca ptr, align 8
  store ptr %__t, ptr %__t.addr, align 8
  %0 = load ptr, ptr %__t.addr, align 8
  %call = call noundef nonnull align 1 dereferenceable(1) ptr @_ZNSt11_Tuple_implILm1EJSt14default_deleteINSt7__cxx1112basic_stringIcSt11char_traitsIcESaIcEEEEEE7_M_headERS8_(ptr noundef nonnull align 1 dereferenceable(1) %0) #3
  ret ptr %call
}

; Function Attrs: mustprogress nounwind uwtable
define linkonce_odr dso_local noundef nonnull align 1 dereferenceable(1) ptr @_ZNSt11_Tuple_implILm1EJSt14default_deleteINSt7__cxx1112basic_stringIcSt11char_traitsIcESaIcEEEEEE7_M_headERS8_(ptr noundef nonnull align 1 dereferenceable(1) %__t) #7 comdat align 2 {
entry:
  %__t.addr = alloca ptr, align 8
  store ptr %__t, ptr %__t.addr, align 8
  %0 = load ptr, ptr %__t.addr, align 8
  %call = call noundef nonnull align 1 dereferenceable(1) ptr @_ZNSt10_Head_baseILm1ESt14default_deleteINSt7__cxx1112basic_stringIcSt11char_traitsIcESaIcEEEELb1EE7_M_headERS8_(ptr noundef nonnull align 1 dereferenceable(1) %0) #3
  ret ptr %call
}

; Function Attrs: mustprogress nounwind uwtable
define linkonce_odr dso_local noundef nonnull align 1 dereferenceable(1) ptr @_ZNSt10_Head_baseILm1ESt14default_deleteINSt7__cxx1112basic_stringIcSt11char_traitsIcESaIcEEEELb1EE7_M_headERS8_(ptr noundef nonnull align 1 dereferenceable(1) %__b) #7 comdat align 2 {
entry:
  %__b.addr = alloca ptr, align 8
  store ptr %__b, ptr %__b.addr, align 8
  %0 = load ptr, ptr %__b.addr, align 8
  ret ptr %0
}

; Function Attrs: mustprogress uwtable
define linkonce_odr dso_local void @_ZN7testing8internal11CmpHelperEQIPKcS3_EENS_15AssertionResultES3_S3_RKT_RKT0_(ptr noalias sret(%"class.testing::AssertionResult") align 8 %agg.result, ptr noundef %lhs_expression, ptr noundef %rhs_expression, ptr noundef nonnull align 8 dereferenceable(8) %lhs, ptr noundef nonnull align 8 dereferenceable(8) %rhs) #4 comdat {
entry:
  %result.ptr = alloca ptr, align 8
  %lhs_expression.addr = alloca ptr, align 8
  %rhs_expression.addr = alloca ptr, align 8
  %lhs.addr = alloca ptr, align 8
  %rhs.addr = alloca ptr, align 8
  store ptr %agg.result, ptr %result.ptr, align 8
  store ptr %lhs_expression, ptr %lhs_expression.addr, align 8
  store ptr %rhs_expression, ptr %rhs_expression.addr, align 8
  store ptr %lhs, ptr %lhs.addr, align 8
  store ptr %rhs, ptr %rhs.addr, align 8
  %0 = load ptr, ptr %lhs.addr, align 8
  %1 = load ptr, ptr %0, align 8
  %2 = load ptr, ptr %rhs.addr, align 8
  %3 = load ptr, ptr %2, align 8
  %cmp = icmp eq ptr %1, %3
  br i1 %cmp, label %if.then, label %if.end

if.then:                                          ; preds = %entry
  call void @_ZN7testing16AssertionSuccessEv(ptr sret(%"class.testing::AssertionResult") align 8 %agg.result)
  br label %return

if.end:                                           ; preds = %entry
  %4 = load ptr, ptr %lhs_expression.addr, align 8
  %5 = load ptr, ptr %rhs_expression.addr, align 8
  %6 = load ptr, ptr %lhs.addr, align 8
  %7 = load ptr, ptr %rhs.addr, align 8
  call void @_ZN7testing8internal18CmpHelperEQFailureIPKcS3_EENS_15AssertionResultES3_S3_RKT_RKT0_(ptr sret(%"class.testing::AssertionResult") align 8 %agg.result, ptr noundef %4, ptr noundef %5, ptr noundef nonnull align 8 dereferenceable(8) %6, ptr noundef nonnull align 8 dereferenceable(8) %7)
  br label %return

return:                                           ; preds = %if.end, %if.then
  ret void
}

; Function Attrs: mustprogress uwtable
define linkonce_odr dso_local void @_ZN7testing8internal18CmpHelperEQFailureIPKcS3_EENS_15AssertionResultES3_S3_RKT_RKT0_(ptr noalias sret(%"class.testing::AssertionResult") align 8 %agg.result, ptr noundef %lhs_expression, ptr noundef %rhs_expression, ptr noundef nonnull align 8 dereferenceable(8) %lhs, ptr noundef nonnull align 8 dereferenceable(8) %rhs) #4 comdat personality ptr @__gxx_personality_v0 {
entry:
  %result.ptr = alloca ptr, align 8
  %lhs_expression.addr = alloca ptr, align 8
  %rhs_expression.addr = alloca ptr, align 8
  %lhs.addr = alloca ptr, align 8
  %rhs.addr = alloca ptr, align 8
  %ref.tmp = alloca %"class.std::__cxx11::basic_string", align 8
  %ref.tmp1 = alloca %"class.std::__cxx11::basic_string", align 8
  %exn.slot = alloca ptr, align 8
  %ehselector.slot = alloca i32, align 4
  store ptr %agg.result, ptr %result.ptr, align 8
  store ptr %lhs_expression, ptr %lhs_expression.addr, align 8
  store ptr %rhs_expression, ptr %rhs_expression.addr, align 8
  store ptr %lhs, ptr %lhs.addr, align 8
  store ptr %rhs, ptr %rhs.addr, align 8
  %0 = load ptr, ptr %lhs_expression.addr, align 8
  %1 = load ptr, ptr %rhs_expression.addr, align 8
  %2 = load ptr, ptr %lhs.addr, align 8
  %3 = load ptr, ptr %rhs.addr, align 8
  call void @_ZN7testing8internal33FormatForComparisonFailureMessageIPKcS3_EENSt7__cxx1112basic_stringIcSt11char_traitsIcESaIcEEERKT_RKT0_(ptr sret(%"class.std::__cxx11::basic_string") align 8 %ref.tmp, ptr noundef nonnull align 8 dereferenceable(8) %2, ptr noundef nonnull align 8 dereferenceable(8) %3)
  %4 = load ptr, ptr %rhs.addr, align 8
  %5 = load ptr, ptr %lhs.addr, align 8
  invoke void @_ZN7testing8internal33FormatForComparisonFailureMessageIPKcS3_EENSt7__cxx1112basic_stringIcSt11char_traitsIcESaIcEEERKT_RKT0_(ptr sret(%"class.std::__cxx11::basic_string") align 8 %ref.tmp1, ptr noundef nonnull align 8 dereferenceable(8) %4, ptr noundef nonnull align 8 dereferenceable(8) %5)
          to label %invoke.cont unwind label %lpad

invoke.cont:                                      ; preds = %entry
  invoke void @_ZN7testing8internal9EqFailureEPKcS2_RKNSt7__cxx1112basic_stringIcSt11char_traitsIcESaIcEEESA_b(ptr sret(%"class.testing::AssertionResult") align 8 %agg.result, ptr noundef %0, ptr noundef %1, ptr noundef nonnull align 8 dereferenceable(32) %ref.tmp, ptr noundef nonnull align 8 dereferenceable(32) %ref.tmp1, i1 noundef zeroext false)
          to label %invoke.cont3 unwind label %lpad2

invoke.cont3:                                     ; preds = %invoke.cont
  call void @_ZNSt7__cxx1112basic_stringIcSt11char_traitsIcESaIcEED1Ev(ptr noundef nonnull align 8 dereferenceable(32) %ref.tmp1) #3
  call void @_ZNSt7__cxx1112basic_stringIcSt11char_traitsIcESaIcEED1Ev(ptr noundef nonnull align 8 dereferenceable(32) %ref.tmp) #3
  ret void

lpad:                                             ; preds = %entry
  %6 = landingpad { ptr, i32 }
          cleanup
  %7 = extractvalue { ptr, i32 } %6, 0
  store ptr %7, ptr %exn.slot, align 8
  %8 = extractvalue { ptr, i32 } %6, 1
  store i32 %8, ptr %ehselector.slot, align 4
  br label %ehcleanup

lpad2:                                            ; preds = %invoke.cont
  %9 = landingpad { ptr, i32 }
          cleanup
  %10 = extractvalue { ptr, i32 } %9, 0
  store ptr %10, ptr %exn.slot, align 8
  %11 = extractvalue { ptr, i32 } %9, 1
  store i32 %11, ptr %ehselector.slot, align 4
  call void @_ZNSt7__cxx1112basic_stringIcSt11char_traitsIcESaIcEED1Ev(ptr noundef nonnull align 8 dereferenceable(32) %ref.tmp1) #3
  br label %ehcleanup

ehcleanup:                                        ; preds = %lpad2, %lpad
  call void @_ZNSt7__cxx1112basic_stringIcSt11char_traitsIcESaIcEED1Ev(ptr noundef nonnull align 8 dereferenceable(32) %ref.tmp) #3
  br label %eh.resume

eh.resume:                                        ; preds = %ehcleanup
  %exn = load ptr, ptr %exn.slot, align 8
  %sel = load i32, ptr %ehselector.slot, align 4
  %lpad.val = insertvalue { ptr, i32 } poison, ptr %exn, 0
  %lpad.val4 = insertvalue { ptr, i32 } %lpad.val, i32 %sel, 1
  resume { ptr, i32 } %lpad.val4
}

; Function Attrs: mustprogress uwtable
define linkonce_odr dso_local void @_ZN7testing8internal33FormatForComparisonFailureMessageIPKcS3_EENSt7__cxx1112basic_stringIcSt11char_traitsIcESaIcEEERKT_RKT0_(ptr noalias sret(%"class.std::__cxx11::basic_string") align 8 %agg.result, ptr noundef nonnull align 8 dereferenceable(8) %value, ptr noundef nonnull align 8 dereferenceable(8) %0) #4 comdat {
entry:
  %result.ptr = alloca ptr, align 8
  %value.addr = alloca ptr, align 8
  %.addr = alloca ptr, align 8
  store ptr %agg.result, ptr %result.ptr, align 8
  store ptr %value, ptr %value.addr, align 8
  store ptr %0, ptr %.addr, align 8
  %1 = load ptr, ptr %value.addr, align 8
  %2 = load ptr, ptr %1, align 8
  call void @_ZN7testing8internal19FormatForComparisonIPKcS3_E6FormatB5cxx11ES3_(ptr sret(%"class.std::__cxx11::basic_string") align 8 %agg.result, ptr noundef %2)
  ret void
}

; Function Attrs: mustprogress uwtable
define linkonce_odr dso_local void @_ZN7testing8internal19FormatForComparisonIPKcS3_E6FormatB5cxx11ES3_(ptr noalias sret(%"class.std::__cxx11::basic_string") align 8 %agg.result, ptr noundef %value) #4 comdat align 2 {
entry:
  %result.ptr = alloca ptr, align 8
  %value.addr = alloca ptr, align 8
  %ref.tmp = alloca ptr, align 8
  store ptr %agg.result, ptr %result.ptr, align 8
  store ptr %value, ptr %value.addr, align 8
  %0 = load ptr, ptr %value.addr, align 8
  store ptr %0, ptr %ref.tmp, align 8
  call void @_ZN7testing13PrintToStringIPKvEENSt7__cxx1112basic_stringIcSt11char_traitsIcESaIcEEERKT_(ptr sret(%"class.std::__cxx11::basic_string") align 8 %agg.result, ptr noundef nonnull align 8 dereferenceable(8) %ref.tmp)
  ret void
}

; Function Attrs: mustprogress uwtable
define linkonce_odr dso_local void @_ZN7testing13PrintToStringIPKvEENSt7__cxx1112basic_stringIcSt11char_traitsIcESaIcEEERKT_(ptr noalias sret(%"class.std::__cxx11::basic_string") align 8 %agg.result, ptr noundef nonnull align 8 dereferenceable(8) %value) #4 comdat personality ptr @__gxx_personality_v0 {
entry:
  %result.ptr = alloca ptr, align 8
  %value.addr = alloca ptr, align 8
  %ss = alloca %"class.std::__cxx11::basic_stringstream", align 8
  %exn.slot = alloca ptr, align 8
  %ehselector.slot = alloca i32, align 4
  store ptr %agg.result, ptr %result.ptr, align 8
  store ptr %value, ptr %value.addr, align 8
  call void @_ZNSt7__cxx1118basic_stringstreamIcSt11char_traitsIcESaIcEEC1Ev(ptr noundef nonnull align 8 dereferenceable(128) %ss)
  %0 = load ptr, ptr %value.addr, align 8
  %1 = icmp eq ptr %ss, null
  br i1 %1, label %cast.end, label %cast.notnull

cast.notnull:                                     ; preds = %entry
  %add.ptr = getelementptr inbounds i8, ptr %ss, i64 16
  br label %cast.end

cast.end:                                         ; preds = %cast.notnull, %entry
  %cast.result = phi ptr [ %add.ptr, %cast.notnull ], [ null, %entry ]
  invoke void @_ZN7testing8internal21UniversalTersePrinterIPKvE5PrintERKS3_PSo(ptr noundef nonnull align 8 dereferenceable(8) %0, ptr noundef %cast.result)
          to label %invoke.cont unwind label %lpad

invoke.cont:                                      ; preds = %cast.end
  invoke void @_ZNKSt7__cxx1118basic_stringstreamIcSt11char_traitsIcESaIcEE3strEv(ptr sret(%"class.std::__cxx11::basic_string") align 8 %agg.result, ptr noundef nonnull align 8 dereferenceable(128) %ss)
          to label %invoke.cont1 unwind label %lpad

invoke.cont1:                                     ; preds = %invoke.cont
  call void @_ZNSt7__cxx1118basic_stringstreamIcSt11char_traitsIcESaIcEED1Ev(ptr noundef nonnull align 8 dereferenceable(128) %ss) #3
  ret void

lpad:                                             ; preds = %invoke.cont, %cast.end
  %2 = landingpad { ptr, i32 }
          cleanup
  %3 = extractvalue { ptr, i32 } %2, 0
  store ptr %3, ptr %exn.slot, align 8
  %4 = extractvalue { ptr, i32 } %2, 1
  store i32 %4, ptr %ehselector.slot, align 4
  call void @_ZNSt7__cxx1118basic_stringstreamIcSt11char_traitsIcESaIcEED1Ev(ptr noundef nonnull align 8 dereferenceable(128) %ss) #3
  br label %eh.resume

eh.resume:                                        ; preds = %lpad
  %exn = load ptr, ptr %exn.slot, align 8
  %sel = load i32, ptr %ehselector.slot, align 4
  %lpad.val = insertvalue { ptr, i32 } poison, ptr %exn, 0
  %lpad.val2 = insertvalue { ptr, i32 } %lpad.val, i32 %sel, 1
  resume { ptr, i32 } %lpad.val2
}

; Function Attrs: mustprogress uwtable
define linkonce_odr dso_local void @_ZN7testing8internal21UniversalTersePrinterIPKvE5PrintERKS3_PSo(ptr noundef nonnull align 8 dereferenceable(8) %value, ptr noundef %os) #4 comdat align 2 {
entry:
  %value.addr = alloca ptr, align 8
  %os.addr = alloca ptr, align 8
  store ptr %value, ptr %value.addr, align 8
  store ptr %os, ptr %os.addr, align 8
  %0 = load ptr, ptr %value.addr, align 8
  %1 = load ptr, ptr %os.addr, align 8
  call void @_ZN7testing8internal14UniversalPrintIPKvEEvRKT_PSo(ptr noundef nonnull align 8 dereferenceable(8) %0, ptr noundef %1)
  ret void
}

; Function Attrs: mustprogress uwtable
define linkonce_odr dso_local void @_ZN7testing8internal14UniversalPrintIPKvEEvRKT_PSo(ptr noundef nonnull align 8 dereferenceable(8) %value, ptr noundef %os) #4 comdat {
entry:
  %value.addr = alloca ptr, align 8
  %os.addr = alloca ptr, align 8
  store ptr %value, ptr %value.addr, align 8
  store ptr %os, ptr %os.addr, align 8
  %0 = load ptr, ptr %value.addr, align 8
  %1 = load ptr, ptr %os.addr, align 8
  call void @_ZN7testing8internal16UniversalPrinterIPKvE5PrintERKS3_PSo(ptr noundef nonnull align 8 dereferenceable(8) %0, ptr noundef %1)
  ret void
}

; Function Attrs: mustprogress uwtable
define linkonce_odr dso_local void @_ZN7testing8internal16UniversalPrinterIPKvE5PrintERKS3_PSo(ptr noundef nonnull align 8 dereferenceable(8) %value, ptr noundef %os) #4 comdat align 2 {
entry:
  %value.addr = alloca ptr, align 8
  %os.addr = alloca ptr, align 8
  store ptr %value, ptr %value.addr, align 8
  store ptr %os, ptr %os.addr, align 8
  %0 = load ptr, ptr %value.addr, align 8
  %1 = load ptr, ptr %os.addr, align 8
  call void @_ZN7testing8internal7PrintToIPKvEEvRKT_PSo(ptr noundef nonnull align 8 dereferenceable(8) %0, ptr noundef %1)
  ret void
}

; Function Attrs: mustprogress uwtable
define linkonce_odr dso_local void @_ZN7testing8internal7PrintToIPKvEEvRKT_PSo(ptr noundef nonnull align 8 dereferenceable(8) %value, ptr noundef %os) #4 comdat {
entry:
  %value.addr = alloca ptr, align 8
  %os.addr = alloca ptr, align 8
  store ptr %value, ptr %value.addr, align 8
  store ptr %os, ptr %os.addr, align 8
  %0 = load ptr, ptr %value.addr, align 8
  %1 = load ptr, ptr %os.addr, align 8
  call void @_ZN7testing8internal17PrintWithFallbackIPKvEEvRKT_PSo(ptr noundef nonnull align 8 dereferenceable(8) %0, ptr noundef %1)
  ret void
}

; Function Attrs: mustprogress uwtable
define linkonce_odr dso_local void @_ZN7testing8internal17PrintWithFallbackIPKvEEvRKT_PSo(ptr noundef nonnull align 8 dereferenceable(8) %value, ptr noundef %os) #4 comdat {
entry:
  %value.addr = alloca ptr, align 8
  %os.addr = alloca ptr, align 8
  store ptr %value, ptr %value.addr, align 8
  store ptr %os, ptr %os.addr, align 8
  %0 = load ptr, ptr %value.addr, align 8
  %1 = load ptr, ptr %0, align 8
  %2 = load ptr, ptr %os.addr, align 8
  call void @_ZN7testing8internal14PointerPrinter10PrintValueIKvEEvPT_PSo(ptr noundef %1, ptr noundef %2)
  ret void
}

; Function Attrs: mustprogress uwtable
define linkonce_odr dso_local void @_ZN7testing8internal14PointerPrinter10PrintValueIKvEEvPT_PSo(ptr noundef %p, ptr noundef %os) #4 comdat align 2 {
entry:
  %p.addr = alloca ptr, align 8
  %os.addr = alloca ptr, align 8
  store ptr %p, ptr %p.addr, align 8
  store ptr %os, ptr %os.addr, align 8
  %0 = load ptr, ptr %p.addr, align 8
  %cmp = icmp eq ptr %0, null
  br i1 %cmp, label %if.then, label %if.else

if.then:                                          ; preds = %entry
  %1 = load ptr, ptr %os.addr, align 8
  %call = call noundef nonnull align 8 dereferenceable(8) ptr @_ZStlsISt11char_traitsIcEERSt13basic_ostreamIcT_ES5_PKc(ptr noundef nonnull align 8 dereferenceable(8) %1, ptr noundef @.str.177)
  br label %if.end

if.else:                                          ; preds = %entry
  %2 = load ptr, ptr %os.addr, align 8
  %3 = load ptr, ptr %p.addr, align 8
  %call1 = call noundef nonnull align 8 dereferenceable(8) ptr @_ZNSolsEPKv(ptr noundef nonnull align 8 dereferenceable(8) %2, ptr noundef %3)
  br label %if.end

if.end:                                           ; preds = %if.else, %if.then
  ret void
}

declare noundef nonnull align 8 dereferenceable(8) ptr @_ZStlsISt11char_traitsIcEERSt13basic_ostreamIcT_ES5_PKc(ptr noundef nonnull align 8 dereferenceable(8), ptr noundef) #1

declare noundef nonnull align 8 dereferenceable(8) ptr @_ZNSolsEPKv(ptr noundef nonnull align 8 dereferenceable(8), ptr noundef) #1

; Function Attrs: mustprogress uwtable
define linkonce_odr dso_local void @_ZN7testing8internal11CmpHelperEQIddEENS_15AssertionResultEPKcS4_RKT_RKT0_(ptr noalias sret(%"class.testing::AssertionResult") align 8 %agg.result, ptr noundef %lhs_expression, ptr noundef %rhs_expression, ptr noundef nonnull align 8 dereferenceable(8) %lhs, ptr noundef nonnull align 8 dereferenceable(8) %rhs) #4 comdat {
entry:
  %result.ptr = alloca ptr, align 8
  %lhs_expression.addr = alloca ptr, align 8
  %rhs_expression.addr = alloca ptr, align 8
  %lhs.addr = alloca ptr, align 8
  %rhs.addr = alloca ptr, align 8
  store ptr %agg.result, ptr %result.ptr, align 8
  store ptr %lhs_expression, ptr %lhs_expression.addr, align 8
  store ptr %rhs_expression, ptr %rhs_expression.addr, align 8
  store ptr %lhs, ptr %lhs.addr, align 8
  store ptr %rhs, ptr %rhs.addr, align 8
  %0 = load ptr, ptr %lhs.addr, align 8
  %1 = load double, ptr %0, align 8
  %2 = load ptr, ptr %rhs.addr, align 8
  %3 = load double, ptr %2, align 8
  %cmp = fcmp oeq double %1, %3
  br i1 %cmp, label %if.then, label %if.end

if.then:                                          ; preds = %entry
  call void @_ZN7testing16AssertionSuccessEv(ptr sret(%"class.testing::AssertionResult") align 8 %agg.result)
  br label %return

if.end:                                           ; preds = %entry
  %4 = load ptr, ptr %lhs_expression.addr, align 8
  %5 = load ptr, ptr %rhs_expression.addr, align 8
  %6 = load ptr, ptr %lhs.addr, align 8
  %7 = load ptr, ptr %rhs.addr, align 8
  call void @_ZN7testing8internal18CmpHelperEQFailureIddEENS_15AssertionResultEPKcS4_RKT_RKT0_(ptr sret(%"class.testing::AssertionResult") align 8 %agg.result, ptr noundef %4, ptr noundef %5, ptr noundef nonnull align 8 dereferenceable(8) %6, ptr noundef nonnull align 8 dereferenceable(8) %7)
  br label %return

return:                                           ; preds = %if.end, %if.then
  ret void
}

; Function Attrs: mustprogress uwtable
define linkonce_odr dso_local void @_ZN7testing8internal18CmpHelperEQFailureIddEENS_15AssertionResultEPKcS4_RKT_RKT0_(ptr noalias sret(%"class.testing::AssertionResult") align 8 %agg.result, ptr noundef %lhs_expression, ptr noundef %rhs_expression, ptr noundef nonnull align 8 dereferenceable(8) %lhs, ptr noundef nonnull align 8 dereferenceable(8) %rhs) #4 comdat personality ptr @__gxx_personality_v0 {
entry:
  %result.ptr = alloca ptr, align 8
  %lhs_expression.addr = alloca ptr, align 8
  %rhs_expression.addr = alloca ptr, align 8
  %lhs.addr = alloca ptr, align 8
  %rhs.addr = alloca ptr, align 8
  %ref.tmp = alloca %"class.std::__cxx11::basic_string", align 8
  %ref.tmp1 = alloca %"class.std::__cxx11::basic_string", align 8
  %exn.slot = alloca ptr, align 8
  %ehselector.slot = alloca i32, align 4
  store ptr %agg.result, ptr %result.ptr, align 8
  store ptr %lhs_expression, ptr %lhs_expression.addr, align 8
  store ptr %rhs_expression, ptr %rhs_expression.addr, align 8
  store ptr %lhs, ptr %lhs.addr, align 8
  store ptr %rhs, ptr %rhs.addr, align 8
  %0 = load ptr, ptr %lhs_expression.addr, align 8
  %1 = load ptr, ptr %rhs_expression.addr, align 8
  %2 = load ptr, ptr %lhs.addr, align 8
  %3 = load ptr, ptr %rhs.addr, align 8
  call void @_ZN7testing8internal33FormatForComparisonFailureMessageIddEENSt7__cxx1112basic_stringIcSt11char_traitsIcESaIcEEERKT_RKT0_(ptr sret(%"class.std::__cxx11::basic_string") align 8 %ref.tmp, ptr noundef nonnull align 8 dereferenceable(8) %2, ptr noundef nonnull align 8 dereferenceable(8) %3)
  %4 = load ptr, ptr %rhs.addr, align 8
  %5 = load ptr, ptr %lhs.addr, align 8
  invoke void @_ZN7testing8internal33FormatForComparisonFailureMessageIddEENSt7__cxx1112basic_stringIcSt11char_traitsIcESaIcEEERKT_RKT0_(ptr sret(%"class.std::__cxx11::basic_string") align 8 %ref.tmp1, ptr noundef nonnull align 8 dereferenceable(8) %4, ptr noundef nonnull align 8 dereferenceable(8) %5)
          to label %invoke.cont unwind label %lpad

invoke.cont:                                      ; preds = %entry
  invoke void @_ZN7testing8internal9EqFailureEPKcS2_RKNSt7__cxx1112basic_stringIcSt11char_traitsIcESaIcEEESA_b(ptr sret(%"class.testing::AssertionResult") align 8 %agg.result, ptr noundef %0, ptr noundef %1, ptr noundef nonnull align 8 dereferenceable(32) %ref.tmp, ptr noundef nonnull align 8 dereferenceable(32) %ref.tmp1, i1 noundef zeroext false)
          to label %invoke.cont3 unwind label %lpad2

invoke.cont3:                                     ; preds = %invoke.cont
  call void @_ZNSt7__cxx1112basic_stringIcSt11char_traitsIcESaIcEED1Ev(ptr noundef nonnull align 8 dereferenceable(32) %ref.tmp1) #3
  call void @_ZNSt7__cxx1112basic_stringIcSt11char_traitsIcESaIcEED1Ev(ptr noundef nonnull align 8 dereferenceable(32) %ref.tmp) #3
  ret void

lpad:                                             ; preds = %entry
  %6 = landingpad { ptr, i32 }
          cleanup
  %7 = extractvalue { ptr, i32 } %6, 0
  store ptr %7, ptr %exn.slot, align 8
  %8 = extractvalue { ptr, i32 } %6, 1
  store i32 %8, ptr %ehselector.slot, align 4
  br label %ehcleanup

lpad2:                                            ; preds = %invoke.cont
  %9 = landingpad { ptr, i32 }
          cleanup
  %10 = extractvalue { ptr, i32 } %9, 0
  store ptr %10, ptr %exn.slot, align 8
  %11 = extractvalue { ptr, i32 } %9, 1
  store i32 %11, ptr %ehselector.slot, align 4
  call void @_ZNSt7__cxx1112basic_stringIcSt11char_traitsIcESaIcEED1Ev(ptr noundef nonnull align 8 dereferenceable(32) %ref.tmp1) #3
  br label %ehcleanup

ehcleanup:                                        ; preds = %lpad2, %lpad
  call void @_ZNSt7__cxx1112basic_stringIcSt11char_traitsIcESaIcEED1Ev(ptr noundef nonnull align 8 dereferenceable(32) %ref.tmp) #3
  br label %eh.resume

eh.resume:                                        ; preds = %ehcleanup
  %exn = load ptr, ptr %exn.slot, align 8
  %sel = load i32, ptr %ehselector.slot, align 4
  %lpad.val = insertvalue { ptr, i32 } poison, ptr %exn, 0
  %lpad.val4 = insertvalue { ptr, i32 } %lpad.val, i32 %sel, 1
  resume { ptr, i32 } %lpad.val4
}

; Function Attrs: mustprogress uwtable
define linkonce_odr dso_local void @_ZN7testing8internal33FormatForComparisonFailureMessageIddEENSt7__cxx1112basic_stringIcSt11char_traitsIcESaIcEEERKT_RKT0_(ptr noalias sret(%"class.std::__cxx11::basic_string") align 8 %agg.result, ptr noundef nonnull align 8 dereferenceable(8) %value, ptr noundef nonnull align 8 dereferenceable(8) %0) #4 comdat {
entry:
  %result.ptr = alloca ptr, align 8
  %value.addr = alloca ptr, align 8
  %.addr = alloca ptr, align 8
  store ptr %agg.result, ptr %result.ptr, align 8
  store ptr %value, ptr %value.addr, align 8
  store ptr %0, ptr %.addr, align 8
  %1 = load ptr, ptr %value.addr, align 8
  call void @_ZN7testing8internal19FormatForComparisonIddE6FormatB5cxx11ERKd(ptr sret(%"class.std::__cxx11::basic_string") align 8 %agg.result, ptr noundef nonnull align 8 dereferenceable(8) %1)
  ret void
}

; Function Attrs: mustprogress uwtable
define linkonce_odr dso_local void @_ZN7testing8internal19FormatForComparisonIddE6FormatB5cxx11ERKd(ptr noalias sret(%"class.std::__cxx11::basic_string") align 8 %agg.result, ptr noundef nonnull align 8 dereferenceable(8) %value) #4 comdat align 2 {
entry:
  %result.ptr = alloca ptr, align 8
  %value.addr = alloca ptr, align 8
  store ptr %agg.result, ptr %result.ptr, align 8
  store ptr %value, ptr %value.addr, align 8
  %0 = load ptr, ptr %value.addr, align 8
  call void @_ZN7testing13PrintToStringIdEENSt7__cxx1112basic_stringIcSt11char_traitsIcESaIcEEERKT_(ptr sret(%"class.std::__cxx11::basic_string") align 8 %agg.result, ptr noundef nonnull align 8 dereferenceable(8) %0)
  ret void
}

; Function Attrs: mustprogress uwtable
define linkonce_odr dso_local void @_ZN7testing13PrintToStringIdEENSt7__cxx1112basic_stringIcSt11char_traitsIcESaIcEEERKT_(ptr noalias sret(%"class.std::__cxx11::basic_string") align 8 %agg.result, ptr noundef nonnull align 8 dereferenceable(8) %value) #4 comdat personality ptr @__gxx_personality_v0 {
entry:
  %result.ptr = alloca ptr, align 8
  %value.addr = alloca ptr, align 8
  %ss = alloca %"class.std::__cxx11::basic_stringstream", align 8
  %exn.slot = alloca ptr, align 8
  %ehselector.slot = alloca i32, align 4
  store ptr %agg.result, ptr %result.ptr, align 8
  store ptr %value, ptr %value.addr, align 8
  call void @_ZNSt7__cxx1118basic_stringstreamIcSt11char_traitsIcESaIcEEC1Ev(ptr noundef nonnull align 8 dereferenceable(128) %ss)
  %0 = load ptr, ptr %value.addr, align 8
  %1 = icmp eq ptr %ss, null
  br i1 %1, label %cast.end, label %cast.notnull

cast.notnull:                                     ; preds = %entry
  %add.ptr = getelementptr inbounds i8, ptr %ss, i64 16
  br label %cast.end

cast.end:                                         ; preds = %cast.notnull, %entry
  %cast.result = phi ptr [ %add.ptr, %cast.notnull ], [ null, %entry ]
  invoke void @_ZN7testing8internal21UniversalTersePrinterIdE5PrintERKdPSo(ptr noundef nonnull align 8 dereferenceable(8) %0, ptr noundef %cast.result)
          to label %invoke.cont unwind label %lpad

invoke.cont:                                      ; preds = %cast.end
  invoke void @_ZNKSt7__cxx1118basic_stringstreamIcSt11char_traitsIcESaIcEE3strEv(ptr sret(%"class.std::__cxx11::basic_string") align 8 %agg.result, ptr noundef nonnull align 8 dereferenceable(128) %ss)
          to label %invoke.cont1 unwind label %lpad

invoke.cont1:                                     ; preds = %invoke.cont
  call void @_ZNSt7__cxx1118basic_stringstreamIcSt11char_traitsIcESaIcEED1Ev(ptr noundef nonnull align 8 dereferenceable(128) %ss) #3
  ret void

lpad:                                             ; preds = %invoke.cont, %cast.end
  %2 = landingpad { ptr, i32 }
          cleanup
  %3 = extractvalue { ptr, i32 } %2, 0
  store ptr %3, ptr %exn.slot, align 8
  %4 = extractvalue { ptr, i32 } %2, 1
  store i32 %4, ptr %ehselector.slot, align 4
  call void @_ZNSt7__cxx1118basic_stringstreamIcSt11char_traitsIcESaIcEED1Ev(ptr noundef nonnull align 8 dereferenceable(128) %ss) #3
  br label %eh.resume

eh.resume:                                        ; preds = %lpad
  %exn = load ptr, ptr %exn.slot, align 8
  %sel = load i32, ptr %ehselector.slot, align 4
  %lpad.val = insertvalue { ptr, i32 } poison, ptr %exn, 0
  %lpad.val2 = insertvalue { ptr, i32 } %lpad.val, i32 %sel, 1
  resume { ptr, i32 } %lpad.val2
}

; Function Attrs: mustprogress uwtable
define linkonce_odr dso_local void @_ZN7testing8internal21UniversalTersePrinterIdE5PrintERKdPSo(ptr noundef nonnull align 8 dereferenceable(8) %value, ptr noundef %os) #4 comdat align 2 {
entry:
  %value.addr = alloca ptr, align 8
  %os.addr = alloca ptr, align 8
  store ptr %value, ptr %value.addr, align 8
  store ptr %os, ptr %os.addr, align 8
  %0 = load ptr, ptr %value.addr, align 8
  %1 = load ptr, ptr %os.addr, align 8
  call void @_ZN7testing8internal14UniversalPrintIdEEvRKT_PSo(ptr noundef nonnull align 8 dereferenceable(8) %0, ptr noundef %1)
  ret void
}

; Function Attrs: mustprogress uwtable
define linkonce_odr dso_local void @_ZN7testing8internal14UniversalPrintIdEEvRKT_PSo(ptr noundef nonnull align 8 dereferenceable(8) %value, ptr noundef %os) #4 comdat {
entry:
  %value.addr = alloca ptr, align 8
  %os.addr = alloca ptr, align 8
  store ptr %value, ptr %value.addr, align 8
  store ptr %os, ptr %os.addr, align 8
  %0 = load ptr, ptr %value.addr, align 8
  %1 = load ptr, ptr %os.addr, align 8
  call void @_ZN7testing8internal16UniversalPrinterIdE5PrintERKdPSo(ptr noundef nonnull align 8 dereferenceable(8) %0, ptr noundef %1)
  ret void
}

; Function Attrs: mustprogress uwtable
define linkonce_odr dso_local void @_ZN7testing8internal16UniversalPrinterIdE5PrintERKdPSo(ptr noundef nonnull align 8 dereferenceable(8) %value, ptr noundef %os) #4 comdat align 2 {
entry:
  %value.addr = alloca ptr, align 8
  %os.addr = alloca ptr, align 8
  store ptr %value, ptr %value.addr, align 8
  store ptr %os, ptr %os.addr, align 8
  %0 = load ptr, ptr %value.addr, align 8
  %1 = load double, ptr %0, align 8
  %2 = load ptr, ptr %os.addr, align 8
  call void @_ZN7testing8internal7PrintToEdPSo(double noundef %1, ptr noundef %2)
  ret void
}

; Function Attrs: mustprogress uwtable
define linkonce_odr dso_local void @_ZN7testing8internal7PrintToEdPSo(double noundef %d, ptr noundef %os) #4 comdat {
entry:
  %d.addr = alloca double, align 8
  %os.addr = alloca ptr, align 8
  %old_precision = alloca i64, align 8
  store double %d, ptr %d.addr, align 8
  store ptr %os, ptr %os.addr, align 8
  %0 = load ptr, ptr %os.addr, align 8
  %vtable = load ptr, ptr %0, align 8
  %vbase.offset.ptr = getelementptr i8, ptr %vtable, i64 -24
  %vbase.offset = load i64, ptr %vbase.offset.ptr, align 8
  %add.ptr = getelementptr inbounds i8, ptr %0, i64 %vbase.offset
  %call = call noundef i64 @_ZNKSt8ios_base9precisionEv(ptr noundef nonnull align 8 dereferenceable(216) %add.ptr)
  store i64 %call, ptr %old_precision, align 8
  %1 = load ptr, ptr %os.addr, align 8
  %vtable1 = load ptr, ptr %1, align 8
  %vbase.offset.ptr2 = getelementptr i8, ptr %vtable1, i64 -24
  %vbase.offset3 = load i64, ptr %vbase.offset.ptr2, align 8
  %add.ptr4 = getelementptr inbounds i8, ptr %1, i64 %vbase.offset3
  %2 = load double, ptr %d.addr, align 8
  %call5 = call noundef i32 @_ZN7testing8internal21AppropriateResolutionIdEEiT_(double noundef %2)
  %conv = sext i32 %call5 to i64
  %call6 = call noundef i64 @_ZNSt8ios_base9precisionEl(ptr noundef nonnull align 8 dereferenceable(216) %add.ptr4, i64 noundef %conv)
  %3 = load ptr, ptr %os.addr, align 8
  %4 = load double, ptr %d.addr, align 8
  %call7 = call noundef nonnull align 8 dereferenceable(8) ptr @_ZNSolsEd(ptr noundef nonnull align 8 dereferenceable(8) %3, double noundef %4)
  %5 = load ptr, ptr %os.addr, align 8
  %vtable8 = load ptr, ptr %5, align 8
  %vbase.offset.ptr9 = getelementptr i8, ptr %vtable8, i64 -24
  %vbase.offset10 = load i64, ptr %vbase.offset.ptr9, align 8
  %add.ptr11 = getelementptr inbounds i8, ptr %5, i64 %vbase.offset10
  %6 = load i64, ptr %old_precision, align 8
  %call12 = call noundef i64 @_ZNSt8ios_base9precisionEl(ptr noundef nonnull align 8 dereferenceable(216) %add.ptr11, i64 noundef %6)
  ret void
}

; Function Attrs: mustprogress nounwind uwtable
define linkonce_odr dso_local noundef i64 @_ZNKSt8ios_base9precisionEv(ptr noundef nonnull align 8 dereferenceable(216) %this) #7 comdat align 2 {
entry:
  %this.addr = alloca ptr, align 8
  store ptr %this, ptr %this.addr, align 8
  %this1 = load ptr, ptr %this.addr, align 8
  %_M_precision = getelementptr inbounds %"class.std::ios_base", ptr %this1, i32 0, i32 1
  %0 = load i64, ptr %_M_precision, align 8
  ret i64 %0
}

; Function Attrs: mustprogress nounwind uwtable
define linkonce_odr dso_local noundef i64 @_ZNSt8ios_base9precisionEl(ptr noundef nonnull align 8 dereferenceable(216) %this, i64 noundef %__prec) #7 comdat align 2 {
entry:
  %this.addr = alloca ptr, align 8
  %__prec.addr = alloca i64, align 8
  %__old = alloca i64, align 8
  store ptr %this, ptr %this.addr, align 8
  store i64 %__prec, ptr %__prec.addr, align 8
  %this1 = load ptr, ptr %this.addr, align 8
  %_M_precision = getelementptr inbounds %"class.std::ios_base", ptr %this1, i32 0, i32 1
  %0 = load i64, ptr %_M_precision, align 8
  store i64 %0, ptr %__old, align 8
  %1 = load i64, ptr %__prec.addr, align 8
  %_M_precision2 = getelementptr inbounds %"class.std::ios_base", ptr %this1, i32 0, i32 1
  store i64 %1, ptr %_M_precision2, align 8
  %2 = load i64, ptr %__old, align 8
  ret i64 %2
}

; Function Attrs: mustprogress nounwind uwtable
define linkonce_odr dso_local noundef i32 @_ZN7testing8internal21AppropriateResolutionIdEEiT_(double noundef %val) #7 comdat {
entry:
  %retval = alloca i32, align 4
  %val.addr = alloca double, align 8
  %full = alloca i32, align 4
  %mulfor6 = alloca double, align 8
  %divfor6 = alloca double, align 8
  store double %val, ptr %val.addr, align 8
  store i32 17, ptr %full, align 4
  %0 = load double, ptr %val.addr, align 8
  %cmp = fcmp olt double %0, 0.000000e+00
  br i1 %cmp, label %if.then, label %if.end

if.then:                                          ; preds = %entry
  %1 = load double, ptr %val.addr, align 8
  %fneg = fneg double %1
  store double %fneg, ptr %val.addr, align 8
  br label %if.end

if.end:                                           ; preds = %if.then, %entry
  %2 = load double, ptr %val.addr, align 8
  %cmp1 = fcmp olt double %2, 1.000000e+06
  br i1 %cmp1, label %if.then2, label %if.else45

if.then2:                                         ; preds = %if.end
  store double 1.000000e+10, ptr %mulfor6, align 8
  %3 = load double, ptr %val.addr, align 8
  %cmp3 = fcmp oge double %3, 1.000000e+05
  br i1 %cmp3, label %if.then4, label %if.else

if.then4:                                         ; preds = %if.then2
  store double 1.000000e+00, ptr %mulfor6, align 8
  br label %if.end40

if.else:                                          ; preds = %if.then2
  %4 = load double, ptr %val.addr, align 8
  %cmp5 = fcmp oge double %4, 1.000000e+04
  br i1 %cmp5, label %if.then6, label %if.else7

if.then6:                                         ; preds = %if.else
  store double 1.000000e+01, ptr %mulfor6, align 8
  br label %if.end39

if.else7:                                         ; preds = %if.else
  %5 = load double, ptr %val.addr, align 8
  %cmp8 = fcmp oge double %5, 1.000000e+03
  br i1 %cmp8, label %if.then9, label %if.else10

if.then9:                                         ; preds = %if.else7
  store double 1.000000e+02, ptr %mulfor6, align 8
  br label %if.end38

if.else10:                                        ; preds = %if.else7
  %6 = load double, ptr %val.addr, align 8
  %cmp11 = fcmp oge double %6, 1.000000e+02
  br i1 %cmp11, label %if.then12, label %if.else13

if.then12:                                        ; preds = %if.else10
  store double 1.000000e+03, ptr %mulfor6, align 8
  br label %if.end37

if.else13:                                        ; preds = %if.else10
  %7 = load double, ptr %val.addr, align 8
  %cmp14 = fcmp oge double %7, 1.000000e+01
  br i1 %cmp14, label %if.then15, label %if.else16

if.then15:                                        ; preds = %if.else13
  store double 1.000000e+04, ptr %mulfor6, align 8
  br label %if.end36

if.else16:                                        ; preds = %if.else13
  %8 = load double, ptr %val.addr, align 8
  %cmp17 = fcmp oge double %8, 1.000000e+00
  br i1 %cmp17, label %if.then18, label %if.else19

if.then18:                                        ; preds = %if.else16
  store double 1.000000e+05, ptr %mulfor6, align 8
  br label %if.end35

if.else19:                                        ; preds = %if.else16
  %9 = load double, ptr %val.addr, align 8
  %cmp20 = fcmp oge double %9, 1.000000e-01
  br i1 %cmp20, label %if.then21, label %if.else22

if.then21:                                        ; preds = %if.else19
  store double 1.000000e+06, ptr %mulfor6, align 8
  br label %if.end34

if.else22:                                        ; preds = %if.else19
  %10 = load double, ptr %val.addr, align 8
  %cmp23 = fcmp oge double %10, 1.000000e-02
  br i1 %cmp23, label %if.then24, label %if.else25

if.then24:                                        ; preds = %if.else22
  store double 1.000000e+07, ptr %mulfor6, align 8
  br label %if.end33

if.else25:                                        ; preds = %if.else22
  %11 = load double, ptr %val.addr, align 8
  %cmp26 = fcmp oge double %11, 1.000000e-03
  br i1 %cmp26, label %if.then27, label %if.else28

if.then27:                                        ; preds = %if.else25
  store double 1.000000e+08, ptr %mulfor6, align 8
  br label %if.end32

if.else28:                                        ; preds = %if.else25
  %12 = load double, ptr %val.addr, align 8
  %cmp29 = fcmp oge double %12, 1.000000e-04
  br i1 %cmp29, label %if.then30, label %if.end31

if.then30:                                        ; preds = %if.else28
  store double 1.000000e+09, ptr %mulfor6, align 8
  br label %if.end31

if.end31:                                         ; preds = %if.then30, %if.else28
  br label %if.end32

if.end32:                                         ; preds = %if.end31, %if.then27
  br label %if.end33

if.end33:                                         ; preds = %if.end32, %if.then24
  br label %if.end34

if.end34:                                         ; preds = %if.end33, %if.then21
  br label %if.end35

if.end35:                                         ; preds = %if.end34, %if.then18
  br label %if.end36

if.end36:                                         ; preds = %if.end35, %if.then15
  br label %if.end37

if.end37:                                         ; preds = %if.end36, %if.then12
  br label %if.end38

if.end38:                                         ; preds = %if.end37, %if.then9
  br label %if.end39

if.end39:                                         ; preds = %if.end38, %if.then6
  br label %if.end40

if.end40:                                         ; preds = %if.end39, %if.then4
  %13 = load double, ptr %val.addr, align 8
  %14 = load double, ptr %mulfor6, align 8
  %15 = call double @llvm.fmuladd.f64(double %13, double %14, double 5.000000e-01)
  %conv = fptosi double %15 to i32
  %conv41 = sitofp i32 %conv to double
  %16 = load double, ptr %mulfor6, align 8
  %div = fdiv double %conv41, %16
  %17 = load double, ptr %val.addr, align 8
  %cmp42 = fcmp oeq double %div, %17
  br i1 %cmp42, label %if.then43, label %if.end44

if.then43:                                        ; preds = %if.end40
  store i32 6, ptr %retval, align 4
  br label %return

if.end44:                                         ; preds = %if.end40
  br label %if.end70

if.else45:                                        ; preds = %if.end
  %18 = load double, ptr %val.addr, align 8
  %cmp46 = fcmp olt double %18, 1.000000e+10
  br i1 %cmp46, label %if.then47, label %if.end69

if.then47:                                        ; preds = %if.else45
  store double 1.000000e+00, ptr %divfor6, align 8
  %19 = load double, ptr %val.addr, align 8
  %cmp48 = fcmp oge double %19, 1.000000e+09
  br i1 %cmp48, label %if.then49, label %if.else50

if.then49:                                        ; preds = %if.then47
  store double 1.000000e+04, ptr %divfor6, align 8
  br label %if.end62

if.else50:                                        ; preds = %if.then47
  %20 = load double, ptr %val.addr, align 8
  %cmp51 = fcmp oge double %20, 1.000000e+08
  br i1 %cmp51, label %if.then52, label %if.else53

if.then52:                                        ; preds = %if.else50
  store double 1.000000e+03, ptr %divfor6, align 8
  br label %if.end61

if.else53:                                        ; preds = %if.else50
  %21 = load double, ptr %val.addr, align 8
  %cmp54 = fcmp oge double %21, 1.000000e+07
  br i1 %cmp54, label %if.then55, label %if.else56

if.then55:                                        ; preds = %if.else53
  store double 1.000000e+02, ptr %divfor6, align 8
  br label %if.end60

if.else56:                                        ; preds = %if.else53
  %22 = load double, ptr %val.addr, align 8
  %cmp57 = fcmp oge double %22, 1.000000e+06
  br i1 %cmp57, label %if.then58, label %if.end59

if.then58:                                        ; preds = %if.else56
  store double 1.000000e+01, ptr %divfor6, align 8
  br label %if.end59

if.end59:                                         ; preds = %if.then58, %if.else56
  br label %if.end60

if.end60:                                         ; preds = %if.end59, %if.then55
  br label %if.end61

if.end61:                                         ; preds = %if.end60, %if.then52
  br label %if.end62

if.end62:                                         ; preds = %if.end61, %if.then49
  %23 = load double, ptr %val.addr, align 8
  %24 = load double, ptr %divfor6, align 8
  %div63 = fdiv double %23, %24
  %add = fadd double %div63, 5.000000e-01
  %conv64 = fptosi double %add to i32
  %conv65 = sitofp i32 %conv64 to double
  %25 = load double, ptr %divfor6, align 8
  %mul = fmul double %conv65, %25
  %26 = load double, ptr %val.addr, align 8
  %cmp66 = fcmp oeq double %mul, %26
  br i1 %cmp66, label %if.then67, label %if.end68

if.then67:                                        ; preds = %if.end62
  store i32 6, ptr %retval, align 4
  br label %return

if.end68:                                         ; preds = %if.end62
  br label %if.end69

if.end69:                                         ; preds = %if.end68, %if.else45
  br label %if.end70

if.end70:                                         ; preds = %if.end69, %if.end44
  %27 = load i32, ptr %full, align 4
  store i32 %27, ptr %retval, align 4
  br label %return

return:                                           ; preds = %if.end70, %if.then67, %if.then43
  %28 = load i32, ptr %retval, align 4
  ret i32 %28
}

declare noundef nonnull align 8 dereferenceable(8) ptr @_ZNSolsEd(ptr noundef nonnull align 8 dereferenceable(8), double noundef) #1

; Function Attrs: nocallback nofree nosync nounwind speculatable willreturn memory(none)
declare double @llvm.fmuladd.f64(double, double, double) #11

; Function Attrs: mustprogress nounwind uwtable
define linkonce_odr dso_local noundef i64 @_ZNSt11char_traitsIcE6lengthEPKc(ptr noundef %__s) #7 comdat align 2 {
entry:
  %__s.addr = alloca ptr, align 8
  store ptr %__s, ptr %__s.addr, align 8
  %0 = load ptr, ptr %__s.addr, align 8
  %call = call i64 @strlen(ptr noundef %0) #3
  ret i64 %call
}

; Function Attrs: nounwind
declare i64 @strlen(ptr noundef) #2

declare { ptr, i32 } @_ZN4absl10from_charsEPKcS1_RfNS_12chars_formatE(ptr noundef, ptr noundef, ptr noundef nonnull align 4 dereferenceable(4), i32 noundef) #1

; Function Attrs: mustprogress uwtable
define linkonce_odr dso_local void @_ZN7testing8internal8EqHelper7CompareIffTnPNSt9enable_ifIXoontsr3std11is_integralIT_EE5valuentsr3std10is_pointerIT0_EE5valueEvE4typeELPv0EEENS_15AssertionResultEPKcSC_RKS4_RKS5_(ptr noalias sret(%"class.testing::AssertionResult") align 8 %agg.result, ptr noundef %lhs_expression, ptr noundef %rhs_expression, ptr noundef nonnull align 4 dereferenceable(4) %lhs, ptr noundef nonnull align 4 dereferenceable(4) %rhs) #4 comdat align 2 {
entry:
  %result.ptr = alloca ptr, align 8
  %lhs_expression.addr = alloca ptr, align 8
  %rhs_expression.addr = alloca ptr, align 8
  %lhs.addr = alloca ptr, align 8
  %rhs.addr = alloca ptr, align 8
  store ptr %agg.result, ptr %result.ptr, align 8
  store ptr %lhs_expression, ptr %lhs_expression.addr, align 8
  store ptr %rhs_expression, ptr %rhs_expression.addr, align 8
  store ptr %lhs, ptr %lhs.addr, align 8
  store ptr %rhs, ptr %rhs.addr, align 8
  %0 = load ptr, ptr %lhs_expression.addr, align 8
  %1 = load ptr, ptr %rhs_expression.addr, align 8
  %2 = load ptr, ptr %lhs.addr, align 8
  %3 = load ptr, ptr %rhs.addr, align 8
  call void @_ZN7testing8internal11CmpHelperEQIffEENS_15AssertionResultEPKcS4_RKT_RKT0_(ptr sret(%"class.testing::AssertionResult") align 8 %agg.result, ptr noundef %0, ptr noundef %1, ptr noundef nonnull align 4 dereferenceable(4) %2, ptr noundef nonnull align 4 dereferenceable(4) %3)
  ret void
}

; Function Attrs: mustprogress uwtable
define linkonce_odr dso_local void @_ZN7testing8internal11CmpHelperEQIffEENS_15AssertionResultEPKcS4_RKT_RKT0_(ptr noalias sret(%"class.testing::AssertionResult") align 8 %agg.result, ptr noundef %lhs_expression, ptr noundef %rhs_expression, ptr noundef nonnull align 4 dereferenceable(4) %lhs, ptr noundef nonnull align 4 dereferenceable(4) %rhs) #4 comdat {
entry:
  %result.ptr = alloca ptr, align 8
  %lhs_expression.addr = alloca ptr, align 8
  %rhs_expression.addr = alloca ptr, align 8
  %lhs.addr = alloca ptr, align 8
  %rhs.addr = alloca ptr, align 8
  store ptr %agg.result, ptr %result.ptr, align 8
  store ptr %lhs_expression, ptr %lhs_expression.addr, align 8
  store ptr %rhs_expression, ptr %rhs_expression.addr, align 8
  store ptr %lhs, ptr %lhs.addr, align 8
  store ptr %rhs, ptr %rhs.addr, align 8
  %0 = load ptr, ptr %lhs.addr, align 8
  %1 = load float, ptr %0, align 4
  %2 = load ptr, ptr %rhs.addr, align 8
  %3 = load float, ptr %2, align 4
  %cmp = fcmp oeq float %1, %3
  br i1 %cmp, label %if.then, label %if.end

if.then:                                          ; preds = %entry
  call void @_ZN7testing16AssertionSuccessEv(ptr sret(%"class.testing::AssertionResult") align 8 %agg.result)
  br label %return

if.end:                                           ; preds = %entry
  %4 = load ptr, ptr %lhs_expression.addr, align 8
  %5 = load ptr, ptr %rhs_expression.addr, align 8
  %6 = load ptr, ptr %lhs.addr, align 8
  %7 = load ptr, ptr %rhs.addr, align 8
  call void @_ZN7testing8internal18CmpHelperEQFailureIffEENS_15AssertionResultEPKcS4_RKT_RKT0_(ptr sret(%"class.testing::AssertionResult") align 8 %agg.result, ptr noundef %4, ptr noundef %5, ptr noundef nonnull align 4 dereferenceable(4) %6, ptr noundef nonnull align 4 dereferenceable(4) %7)
  br label %return

return:                                           ; preds = %if.end, %if.then
  ret void
}

; Function Attrs: mustprogress uwtable
define linkonce_odr dso_local void @_ZN7testing8internal18CmpHelperEQFailureIffEENS_15AssertionResultEPKcS4_RKT_RKT0_(ptr noalias sret(%"class.testing::AssertionResult") align 8 %agg.result, ptr noundef %lhs_expression, ptr noundef %rhs_expression, ptr noundef nonnull align 4 dereferenceable(4) %lhs, ptr noundef nonnull align 4 dereferenceable(4) %rhs) #4 comdat personality ptr @__gxx_personality_v0 {
entry:
  %result.ptr = alloca ptr, align 8
  %lhs_expression.addr = alloca ptr, align 8
  %rhs_expression.addr = alloca ptr, align 8
  %lhs.addr = alloca ptr, align 8
  %rhs.addr = alloca ptr, align 8
  %ref.tmp = alloca %"class.std::__cxx11::basic_string", align 8
  %ref.tmp1 = alloca %"class.std::__cxx11::basic_string", align 8
  %exn.slot = alloca ptr, align 8
  %ehselector.slot = alloca i32, align 4
  store ptr %agg.result, ptr %result.ptr, align 8
  store ptr %lhs_expression, ptr %lhs_expression.addr, align 8
  store ptr %rhs_expression, ptr %rhs_expression.addr, align 8
  store ptr %lhs, ptr %lhs.addr, align 8
  store ptr %rhs, ptr %rhs.addr, align 8
  %0 = load ptr, ptr %lhs_expression.addr, align 8
  %1 = load ptr, ptr %rhs_expression.addr, align 8
  %2 = load ptr, ptr %lhs.addr, align 8
  %3 = load ptr, ptr %rhs.addr, align 8
  call void @_ZN7testing8internal33FormatForComparisonFailureMessageIffEENSt7__cxx1112basic_stringIcSt11char_traitsIcESaIcEEERKT_RKT0_(ptr sret(%"class.std::__cxx11::basic_string") align 8 %ref.tmp, ptr noundef nonnull align 4 dereferenceable(4) %2, ptr noundef nonnull align 4 dereferenceable(4) %3)
  %4 = load ptr, ptr %rhs.addr, align 8
  %5 = load ptr, ptr %lhs.addr, align 8
  invoke void @_ZN7testing8internal33FormatForComparisonFailureMessageIffEENSt7__cxx1112basic_stringIcSt11char_traitsIcESaIcEEERKT_RKT0_(ptr sret(%"class.std::__cxx11::basic_string") align 8 %ref.tmp1, ptr noundef nonnull align 4 dereferenceable(4) %4, ptr noundef nonnull align 4 dereferenceable(4) %5)
          to label %invoke.cont unwind label %lpad

invoke.cont:                                      ; preds = %entry
  invoke void @_ZN7testing8internal9EqFailureEPKcS2_RKNSt7__cxx1112basic_stringIcSt11char_traitsIcESaIcEEESA_b(ptr sret(%"class.testing::AssertionResult") align 8 %agg.result, ptr noundef %0, ptr noundef %1, ptr noundef nonnull align 8 dereferenceable(32) %ref.tmp, ptr noundef nonnull align 8 dereferenceable(32) %ref.tmp1, i1 noundef zeroext false)
          to label %invoke.cont3 unwind label %lpad2

invoke.cont3:                                     ; preds = %invoke.cont
  call void @_ZNSt7__cxx1112basic_stringIcSt11char_traitsIcESaIcEED1Ev(ptr noundef nonnull align 8 dereferenceable(32) %ref.tmp1) #3
  call void @_ZNSt7__cxx1112basic_stringIcSt11char_traitsIcESaIcEED1Ev(ptr noundef nonnull align 8 dereferenceable(32) %ref.tmp) #3
  ret void

lpad:                                             ; preds = %entry
  %6 = landingpad { ptr, i32 }
          cleanup
  %7 = extractvalue { ptr, i32 } %6, 0
  store ptr %7, ptr %exn.slot, align 8
  %8 = extractvalue { ptr, i32 } %6, 1
  store i32 %8, ptr %ehselector.slot, align 4
  br label %ehcleanup

lpad2:                                            ; preds = %invoke.cont
  %9 = landingpad { ptr, i32 }
          cleanup
  %10 = extractvalue { ptr, i32 } %9, 0
  store ptr %10, ptr %exn.slot, align 8
  %11 = extractvalue { ptr, i32 } %9, 1
  store i32 %11, ptr %ehselector.slot, align 4
  call void @_ZNSt7__cxx1112basic_stringIcSt11char_traitsIcESaIcEED1Ev(ptr noundef nonnull align 8 dereferenceable(32) %ref.tmp1) #3
  br label %ehcleanup

ehcleanup:                                        ; preds = %lpad2, %lpad
  call void @_ZNSt7__cxx1112basic_stringIcSt11char_traitsIcESaIcEED1Ev(ptr noundef nonnull align 8 dereferenceable(32) %ref.tmp) #3
  br label %eh.resume

eh.resume:                                        ; preds = %ehcleanup
  %exn = load ptr, ptr %exn.slot, align 8
  %sel = load i32, ptr %ehselector.slot, align 4
  %lpad.val = insertvalue { ptr, i32 } poison, ptr %exn, 0
  %lpad.val4 = insertvalue { ptr, i32 } %lpad.val, i32 %sel, 1
  resume { ptr, i32 } %lpad.val4
}

; Function Attrs: mustprogress uwtable
define linkonce_odr dso_local void @_ZN7testing8internal33FormatForComparisonFailureMessageIffEENSt7__cxx1112basic_stringIcSt11char_traitsIcESaIcEEERKT_RKT0_(ptr noalias sret(%"class.std::__cxx11::basic_string") align 8 %agg.result, ptr noundef nonnull align 4 dereferenceable(4) %value, ptr noundef nonnull align 4 dereferenceable(4) %0) #4 comdat {
entry:
  %result.ptr = alloca ptr, align 8
  %value.addr = alloca ptr, align 8
  %.addr = alloca ptr, align 8
  store ptr %agg.result, ptr %result.ptr, align 8
  store ptr %value, ptr %value.addr, align 8
  store ptr %0, ptr %.addr, align 8
  %1 = load ptr, ptr %value.addr, align 8
  call void @_ZN7testing8internal19FormatForComparisonIffE6FormatB5cxx11ERKf(ptr sret(%"class.std::__cxx11::basic_string") align 8 %agg.result, ptr noundef nonnull align 4 dereferenceable(4) %1)
  ret void
}

; Function Attrs: mustprogress uwtable
define linkonce_odr dso_local void @_ZN7testing8internal19FormatForComparisonIffE6FormatB5cxx11ERKf(ptr noalias sret(%"class.std::__cxx11::basic_string") align 8 %agg.result, ptr noundef nonnull align 4 dereferenceable(4) %value) #4 comdat align 2 {
entry:
  %result.ptr = alloca ptr, align 8
  %value.addr = alloca ptr, align 8
  store ptr %agg.result, ptr %result.ptr, align 8
  store ptr %value, ptr %value.addr, align 8
  %0 = load ptr, ptr %value.addr, align 8
  call void @_ZN7testing13PrintToStringIfEENSt7__cxx1112basic_stringIcSt11char_traitsIcESaIcEEERKT_(ptr sret(%"class.std::__cxx11::basic_string") align 8 %agg.result, ptr noundef nonnull align 4 dereferenceable(4) %0)
  ret void
}

; Function Attrs: mustprogress uwtable
define linkonce_odr dso_local void @_ZN7testing13PrintToStringIfEENSt7__cxx1112basic_stringIcSt11char_traitsIcESaIcEEERKT_(ptr noalias sret(%"class.std::__cxx11::basic_string") align 8 %agg.result, ptr noundef nonnull align 4 dereferenceable(4) %value) #4 comdat personality ptr @__gxx_personality_v0 {
entry:
  %result.ptr = alloca ptr, align 8
  %value.addr = alloca ptr, align 8
  %ss = alloca %"class.std::__cxx11::basic_stringstream", align 8
  %exn.slot = alloca ptr, align 8
  %ehselector.slot = alloca i32, align 4
  store ptr %agg.result, ptr %result.ptr, align 8
  store ptr %value, ptr %value.addr, align 8
  call void @_ZNSt7__cxx1118basic_stringstreamIcSt11char_traitsIcESaIcEEC1Ev(ptr noundef nonnull align 8 dereferenceable(128) %ss)
  %0 = load ptr, ptr %value.addr, align 8
  %1 = icmp eq ptr %ss, null
  br i1 %1, label %cast.end, label %cast.notnull

cast.notnull:                                     ; preds = %entry
  %add.ptr = getelementptr inbounds i8, ptr %ss, i64 16
  br label %cast.end

cast.end:                                         ; preds = %cast.notnull, %entry
  %cast.result = phi ptr [ %add.ptr, %cast.notnull ], [ null, %entry ]
  invoke void @_ZN7testing8internal21UniversalTersePrinterIfE5PrintERKfPSo(ptr noundef nonnull align 4 dereferenceable(4) %0, ptr noundef %cast.result)
          to label %invoke.cont unwind label %lpad

invoke.cont:                                      ; preds = %cast.end
  invoke void @_ZNKSt7__cxx1118basic_stringstreamIcSt11char_traitsIcESaIcEE3strEv(ptr sret(%"class.std::__cxx11::basic_string") align 8 %agg.result, ptr noundef nonnull align 8 dereferenceable(128) %ss)
          to label %invoke.cont1 unwind label %lpad

invoke.cont1:                                     ; preds = %invoke.cont
  call void @_ZNSt7__cxx1118basic_stringstreamIcSt11char_traitsIcESaIcEED1Ev(ptr noundef nonnull align 8 dereferenceable(128) %ss) #3
  ret void

lpad:                                             ; preds = %invoke.cont, %cast.end
  %2 = landingpad { ptr, i32 }
          cleanup
  %3 = extractvalue { ptr, i32 } %2, 0
  store ptr %3, ptr %exn.slot, align 8
  %4 = extractvalue { ptr, i32 } %2, 1
  store i32 %4, ptr %ehselector.slot, align 4
  call void @_ZNSt7__cxx1118basic_stringstreamIcSt11char_traitsIcESaIcEED1Ev(ptr noundef nonnull align 8 dereferenceable(128) %ss) #3
  br label %eh.resume

eh.resume:                                        ; preds = %lpad
  %exn = load ptr, ptr %exn.slot, align 8
  %sel = load i32, ptr %ehselector.slot, align 4
  %lpad.val = insertvalue { ptr, i32 } poison, ptr %exn, 0
  %lpad.val2 = insertvalue { ptr, i32 } %lpad.val, i32 %sel, 1
  resume { ptr, i32 } %lpad.val2
}

; Function Attrs: mustprogress uwtable
define linkonce_odr dso_local void @_ZN7testing8internal21UniversalTersePrinterIfE5PrintERKfPSo(ptr noundef nonnull align 4 dereferenceable(4) %value, ptr noundef %os) #4 comdat align 2 {
entry:
  %value.addr = alloca ptr, align 8
  %os.addr = alloca ptr, align 8
  store ptr %value, ptr %value.addr, align 8
  store ptr %os, ptr %os.addr, align 8
  %0 = load ptr, ptr %value.addr, align 8
  %1 = load ptr, ptr %os.addr, align 8
  call void @_ZN7testing8internal14UniversalPrintIfEEvRKT_PSo(ptr noundef nonnull align 4 dereferenceable(4) %0, ptr noundef %1)
  ret void
}

; Function Attrs: mustprogress uwtable
define linkonce_odr dso_local void @_ZN7testing8internal14UniversalPrintIfEEvRKT_PSo(ptr noundef nonnull align 4 dereferenceable(4) %value, ptr noundef %os) #4 comdat {
entry:
  %value.addr = alloca ptr, align 8
  %os.addr = alloca ptr, align 8
  store ptr %value, ptr %value.addr, align 8
  store ptr %os, ptr %os.addr, align 8
  %0 = load ptr, ptr %value.addr, align 8
  %1 = load ptr, ptr %os.addr, align 8
  call void @_ZN7testing8internal16UniversalPrinterIfE5PrintERKfPSo(ptr noundef nonnull align 4 dereferenceable(4) %0, ptr noundef %1)
  ret void
}

; Function Attrs: mustprogress uwtable
define linkonce_odr dso_local void @_ZN7testing8internal16UniversalPrinterIfE5PrintERKfPSo(ptr noundef nonnull align 4 dereferenceable(4) %value, ptr noundef %os) #4 comdat align 2 {
entry:
  %value.addr = alloca ptr, align 8
  %os.addr = alloca ptr, align 8
  store ptr %value, ptr %value.addr, align 8
  store ptr %os, ptr %os.addr, align 8
  %0 = load ptr, ptr %value.addr, align 8
  %1 = load float, ptr %0, align 4
  %2 = load ptr, ptr %os.addr, align 8
  call void @_ZN7testing8internal7PrintToEfPSo(float noundef %1, ptr noundef %2)
  ret void
}

; Function Attrs: mustprogress uwtable
define linkonce_odr dso_local void @_ZN7testing8internal7PrintToEfPSo(float noundef %f, ptr noundef %os) #4 comdat {
entry:
  %f.addr = alloca float, align 4
  %os.addr = alloca ptr, align 8
  %old_precision = alloca i64, align 8
  store float %f, ptr %f.addr, align 4
  store ptr %os, ptr %os.addr, align 8
  %0 = load ptr, ptr %os.addr, align 8
  %vtable = load ptr, ptr %0, align 8
  %vbase.offset.ptr = getelementptr i8, ptr %vtable, i64 -24
  %vbase.offset = load i64, ptr %vbase.offset.ptr, align 8
  %add.ptr = getelementptr inbounds i8, ptr %0, i64 %vbase.offset
  %call = call noundef i64 @_ZNKSt8ios_base9precisionEv(ptr noundef nonnull align 8 dereferenceable(216) %add.ptr)
  store i64 %call, ptr %old_precision, align 8
  %1 = load ptr, ptr %os.addr, align 8
  %vtable1 = load ptr, ptr %1, align 8
  %vbase.offset.ptr2 = getelementptr i8, ptr %vtable1, i64 -24
  %vbase.offset3 = load i64, ptr %vbase.offset.ptr2, align 8
  %add.ptr4 = getelementptr inbounds i8, ptr %1, i64 %vbase.offset3
  %2 = load float, ptr %f.addr, align 4
  %call5 = call noundef i32 @_ZN7testing8internal21AppropriateResolutionIfEEiT_(float noundef %2)
  %conv = sext i32 %call5 to i64
  %call6 = call noundef i64 @_ZNSt8ios_base9precisionEl(ptr noundef nonnull align 8 dereferenceable(216) %add.ptr4, i64 noundef %conv)
  %3 = load ptr, ptr %os.addr, align 8
  %4 = load float, ptr %f.addr, align 4
  %call7 = call noundef nonnull align 8 dereferenceable(8) ptr @_ZNSolsEf(ptr noundef nonnull align 8 dereferenceable(8) %3, float noundef %4)
  %5 = load ptr, ptr %os.addr, align 8
  %vtable8 = load ptr, ptr %5, align 8
  %vbase.offset.ptr9 = getelementptr i8, ptr %vtable8, i64 -24
  %vbase.offset10 = load i64, ptr %vbase.offset.ptr9, align 8
  %add.ptr11 = getelementptr inbounds i8, ptr %5, i64 %vbase.offset10
  %6 = load i64, ptr %old_precision, align 8
  %call12 = call noundef i64 @_ZNSt8ios_base9precisionEl(ptr noundef nonnull align 8 dereferenceable(216) %add.ptr11, i64 noundef %6)
  ret void
}

; Function Attrs: mustprogress nounwind uwtable
define linkonce_odr dso_local noundef i32 @_ZN7testing8internal21AppropriateResolutionIfEEiT_(float noundef %val) #7 comdat {
entry:
  %retval = alloca i32, align 4
  %val.addr = alloca float, align 4
  %full = alloca i32, align 4
  %mulfor6 = alloca float, align 4
  %divfor6 = alloca float, align 4
  store float %val, ptr %val.addr, align 4
  store i32 9, ptr %full, align 4
  %0 = load float, ptr %val.addr, align 4
  %cmp = fcmp olt float %0, 0.000000e+00
  br i1 %cmp, label %if.then, label %if.end

if.then:                                          ; preds = %entry
  %1 = load float, ptr %val.addr, align 4
  %fneg = fneg float %1
  store float %fneg, ptr %val.addr, align 4
  br label %if.end

if.end:                                           ; preds = %if.then, %entry
  %2 = load float, ptr %val.addr, align 4
  %cmp1 = fcmp olt float %2, 1.000000e+06
  br i1 %cmp1, label %if.then2, label %if.else56

if.then2:                                         ; preds = %if.end
  store float 1.000000e+10, ptr %mulfor6, align 4
  %3 = load float, ptr %val.addr, align 4
  %conv = fpext float %3 to double
  %cmp3 = fcmp oge double %conv, 1.000000e+05
  br i1 %cmp3, label %if.then4, label %if.else

if.then4:                                         ; preds = %if.then2
  store float 1.000000e+00, ptr %mulfor6, align 4
  br label %if.end49

if.else:                                          ; preds = %if.then2
  %4 = load float, ptr %val.addr, align 4
  %conv5 = fpext float %4 to double
  %cmp6 = fcmp oge double %conv5, 1.000000e+04
  br i1 %cmp6, label %if.then7, label %if.else8

if.then7:                                         ; preds = %if.else
  store float 1.000000e+01, ptr %mulfor6, align 4
  br label %if.end48

if.else8:                                         ; preds = %if.else
  %5 = load float, ptr %val.addr, align 4
  %conv9 = fpext float %5 to double
  %cmp10 = fcmp oge double %conv9, 1.000000e+03
  br i1 %cmp10, label %if.then11, label %if.else12

if.then11:                                        ; preds = %if.else8
  store float 1.000000e+02, ptr %mulfor6, align 4
  br label %if.end47

if.else12:                                        ; preds = %if.else8
  %6 = load float, ptr %val.addr, align 4
  %conv13 = fpext float %6 to double
  %cmp14 = fcmp oge double %conv13, 1.000000e+02
  br i1 %cmp14, label %if.then15, label %if.else16

if.then15:                                        ; preds = %if.else12
  store float 1.000000e+03, ptr %mulfor6, align 4
  br label %if.end46

if.else16:                                        ; preds = %if.else12
  %7 = load float, ptr %val.addr, align 4
  %conv17 = fpext float %7 to double
  %cmp18 = fcmp oge double %conv17, 1.000000e+01
  br i1 %cmp18, label %if.then19, label %if.else20

if.then19:                                        ; preds = %if.else16
  store float 1.000000e+04, ptr %mulfor6, align 4
  br label %if.end45

if.else20:                                        ; preds = %if.else16
  %8 = load float, ptr %val.addr, align 4
  %conv21 = fpext float %8 to double
  %cmp22 = fcmp oge double %conv21, 1.000000e+00
  br i1 %cmp22, label %if.then23, label %if.else24

if.then23:                                        ; preds = %if.else20
  store float 1.000000e+05, ptr %mulfor6, align 4
  br label %if.end44

if.else24:                                        ; preds = %if.else20
  %9 = load float, ptr %val.addr, align 4
  %conv25 = fpext float %9 to double
  %cmp26 = fcmp oge double %conv25, 1.000000e-01
  br i1 %cmp26, label %if.then27, label %if.else28

if.then27:                                        ; preds = %if.else24
  store float 1.000000e+06, ptr %mulfor6, align 4
  br label %if.end43

if.else28:                                        ; preds = %if.else24
  %10 = load float, ptr %val.addr, align 4
  %conv29 = fpext float %10 to double
  %cmp30 = fcmp oge double %conv29, 1.000000e-02
  br i1 %cmp30, label %if.then31, label %if.else32

if.then31:                                        ; preds = %if.else28
  store float 1.000000e+07, ptr %mulfor6, align 4
  br label %if.end42

if.else32:                                        ; preds = %if.else28
  %11 = load float, ptr %val.addr, align 4
  %conv33 = fpext float %11 to double
  %cmp34 = fcmp oge double %conv33, 1.000000e-03
  br i1 %cmp34, label %if.then35, label %if.else36

if.then35:                                        ; preds = %if.else32
  store float 1.000000e+08, ptr %mulfor6, align 4
  br label %if.end41

if.else36:                                        ; preds = %if.else32
  %12 = load float, ptr %val.addr, align 4
  %conv37 = fpext float %12 to double
  %cmp38 = fcmp oge double %conv37, 1.000000e-04
  br i1 %cmp38, label %if.then39, label %if.end40

if.then39:                                        ; preds = %if.else36
  store float 1.000000e+09, ptr %mulfor6, align 4
  br label %if.end40

if.end40:                                         ; preds = %if.then39, %if.else36
  br label %if.end41

if.end41:                                         ; preds = %if.end40, %if.then35
  br label %if.end42

if.end42:                                         ; preds = %if.end41, %if.then31
  br label %if.end43

if.end43:                                         ; preds = %if.end42, %if.then27
  br label %if.end44

if.end44:                                         ; preds = %if.end43, %if.then23
  br label %if.end45

if.end45:                                         ; preds = %if.end44, %if.then19
  br label %if.end46

if.end46:                                         ; preds = %if.end45, %if.then15
  br label %if.end47

if.end47:                                         ; preds = %if.end46, %if.then11
  br label %if.end48

if.end48:                                         ; preds = %if.end47, %if.then7
  br label %if.end49

if.end49:                                         ; preds = %if.end48, %if.then4
  %13 = load float, ptr %val.addr, align 4
  %14 = load float, ptr %mulfor6, align 4
  %mul = fmul float %13, %14
  %conv50 = fpext float %mul to double
  %add = fadd double %conv50, 5.000000e-01
  %conv51 = fptosi double %add to i32
  %conv52 = sitofp i32 %conv51 to float
  %15 = load float, ptr %mulfor6, align 4
  %div = fdiv float %conv52, %15
  %16 = load float, ptr %val.addr, align 4
  %cmp53 = fcmp oeq float %div, %16
  br i1 %cmp53, label %if.then54, label %if.end55

if.then54:                                        ; preds = %if.end49
  store i32 6, ptr %retval, align 4
  br label %return

if.end55:                                         ; preds = %if.end49
  br label %if.end89

if.else56:                                        ; preds = %if.end
  %17 = load float, ptr %val.addr, align 4
  %conv57 = fpext float %17 to double
  %cmp58 = fcmp olt double %conv57, 1.000000e+10
  br i1 %cmp58, label %if.then59, label %if.end88

if.then59:                                        ; preds = %if.else56
  store float 1.000000e+00, ptr %divfor6, align 4
  %18 = load float, ptr %val.addr, align 4
  %conv60 = fpext float %18 to double
  %cmp61 = fcmp oge double %conv60, 1.000000e+09
  br i1 %cmp61, label %if.then62, label %if.else63

if.then62:                                        ; preds = %if.then59
  store float 1.000000e+04, ptr %divfor6, align 4
  br label %if.end78

if.else63:                                        ; preds = %if.then59
  %19 = load float, ptr %val.addr, align 4
  %conv64 = fpext float %19 to double
  %cmp65 = fcmp oge double %conv64, 1.000000e+08
  br i1 %cmp65, label %if.then66, label %if.else67

if.then66:                                        ; preds = %if.else63
  store float 1.000000e+03, ptr %divfor6, align 4
  br label %if.end77

if.else67:                                        ; preds = %if.else63
  %20 = load float, ptr %val.addr, align 4
  %conv68 = fpext float %20 to double
  %cmp69 = fcmp oge double %conv68, 1.000000e+07
  br i1 %cmp69, label %if.then70, label %if.else71

if.then70:                                        ; preds = %if.else67
  store float 1.000000e+02, ptr %divfor6, align 4
  br label %if.end76

if.else71:                                        ; preds = %if.else67
  %21 = load float, ptr %val.addr, align 4
  %conv72 = fpext float %21 to double
  %cmp73 = fcmp oge double %conv72, 1.000000e+06
  br i1 %cmp73, label %if.then74, label %if.end75

if.then74:                                        ; preds = %if.else71
  store float 1.000000e+01, ptr %divfor6, align 4
  br label %if.end75

if.end75:                                         ; preds = %if.then74, %if.else71
  br label %if.end76

if.end76:                                         ; preds = %if.end75, %if.then70
  br label %if.end77

if.end77:                                         ; preds = %if.end76, %if.then66
  br label %if.end78

if.end78:                                         ; preds = %if.end77, %if.then62
  %22 = load float, ptr %val.addr, align 4
  %23 = load float, ptr %divfor6, align 4
  %div79 = fdiv float %22, %23
  %conv80 = fpext float %div79 to double
  %add81 = fadd double %conv80, 5.000000e-01
  %conv82 = fptosi double %add81 to i32
  %conv83 = sitofp i32 %conv82 to float
  %24 = load float, ptr %divfor6, align 4
  %mul84 = fmul float %conv83, %24
  %25 = load float, ptr %val.addr, align 4
  %cmp85 = fcmp oeq float %mul84, %25
  br i1 %cmp85, label %if.then86, label %if.end87

if.then86:                                        ; preds = %if.end78
  store i32 6, ptr %retval, align 4
  br label %return

if.end87:                                         ; preds = %if.end78
  br label %if.end88

if.end88:                                         ; preds = %if.end87, %if.else56
  br label %if.end89

if.end89:                                         ; preds = %if.end88, %if.end55
  %26 = load i32, ptr %full, align 4
  store i32 %26, ptr %retval, align 4
  br label %return

return:                                           ; preds = %if.end89, %if.then86, %if.then54
  %27 = load i32, ptr %retval, align 4
  ret i32 %27
}

declare noundef nonnull align 8 dereferenceable(8) ptr @_ZNSolsEf(ptr noundef nonnull align 8 dereferenceable(8), float noundef) #1

; Function Attrs: mustprogress nounwind uwtable
define internal void @_ZN7testing8internal15TestFactoryImplIN12_GLOBAL__N_140FromChars_NearRoundingCasesExplicit_TestEED2Ev(ptr noundef nonnull align 8 dereferenceable(8) %this) unnamed_addr #7 align 2 {
entry:
  %this.addr = alloca ptr, align 8
  store ptr %this, ptr %this.addr, align 8
  %this1 = load ptr, ptr %this.addr, align 8
  call void @_ZN7testing8internal15TestFactoryBaseD2Ev(ptr noundef nonnull align 8 dereferenceable(8) %this1) #3
  ret void
}

; Function Attrs: mustprogress nounwind uwtable
define internal void @_ZN7testing8internal15TestFactoryImplIN12_GLOBAL__N_140FromChars_NearRoundingCasesExplicit_TestEED0Ev(ptr noundef nonnull align 8 dereferenceable(8) %this) unnamed_addr #7 align 2 {
entry:
  %this.addr = alloca ptr, align 8
  store ptr %this, ptr %this.addr, align 8
  %this1 = load ptr, ptr %this.addr, align 8
  call void @_ZN7testing8internal15TestFactoryImplIN12_GLOBAL__N_140FromChars_NearRoundingCasesExplicit_TestEED2Ev(ptr noundef nonnull align 8 dereferenceable(8) %this1) #3
  call void @_ZdlPv(ptr noundef %this1) #16
  ret void
}

; Function Attrs: mustprogress uwtable
define internal noundef ptr @_ZN7testing8internal15TestFactoryImplIN12_GLOBAL__N_140FromChars_NearRoundingCasesExplicit_TestEE10CreateTestEv(ptr noundef nonnull align 8 dereferenceable(8) %this) unnamed_addr #4 align 2 personality ptr @__gxx_personality_v0 {
entry:
  %this.addr = alloca ptr, align 8
  %exn.slot = alloca ptr, align 8
  %ehselector.slot = alloca i32, align 4
  store ptr %this, ptr %this.addr, align 8
  %call = call noalias noundef nonnull ptr @_Znwm(i64 noundef 16) #15
  invoke void @_ZN12_GLOBAL__N_140FromChars_NearRoundingCasesExplicit_TestC2Ev(ptr noundef nonnull align 8 dereferenceable(16) %call)
          to label %invoke.cont unwind label %lpad

invoke.cont:                                      ; preds = %entry
  ret ptr %call

lpad:                                             ; preds = %entry
  %0 = landingpad { ptr, i32 }
          cleanup
  %1 = extractvalue { ptr, i32 } %0, 0
  store ptr %1, ptr %exn.slot, align 8
  %2 = extractvalue { ptr, i32 } %0, 1
  store i32 %2, ptr %ehselector.slot, align 4
  call void @_ZdlPv(ptr noundef %call) #16
  br label %eh.resume

eh.resume:                                        ; preds = %lpad
  %exn = load ptr, ptr %exn.slot, align 8
  %sel = load i32, ptr %ehselector.slot, align 4
  %lpad.val = insertvalue { ptr, i32 } poison, ptr %exn, 0
  %lpad.val2 = insertvalue { ptr, i32 } %lpad.val, i32 %sel, 1
  resume { ptr, i32 } %lpad.val2
}

; Function Attrs: mustprogress uwtable
define internal void @_ZN12_GLOBAL__N_140FromChars_NearRoundingCasesExplicit_TestC2Ev(ptr noundef nonnull align 8 dereferenceable(16) %this) unnamed_addr #4 align 2 {
entry:
  %this.addr = alloca ptr, align 8
  store ptr %this, ptr %this.addr, align 8
  %this1 = load ptr, ptr %this.addr, align 8
  call void @_ZN7testing4TestC2Ev(ptr noundef nonnull align 8 dereferenceable(16) %this1)
  store ptr getelementptr inbounds ({ [8 x ptr] }, ptr @_ZTVN12_GLOBAL__N_140FromChars_NearRoundingCasesExplicit_TestE, i32 0, inrange i32 0, i32 2), ptr %this1, align 8
  ret void
}

; Function Attrs: mustprogress nounwind uwtable
define internal void @_ZN12_GLOBAL__N_140FromChars_NearRoundingCasesExplicit_TestD2Ev(ptr noundef nonnull align 8 dereferenceable(16) %this) unnamed_addr #7 align 2 {
entry:
  %this.addr = alloca ptr, align 8
  store ptr %this, ptr %this.addr, align 8
  %this1 = load ptr, ptr %this.addr, align 8
  call void @_ZN7testing4TestD2Ev(ptr noundef nonnull align 8 dereferenceable(16) %this1) #3
  ret void
}

; Function Attrs: mustprogress nounwind uwtable
define internal void @_ZN12_GLOBAL__N_140FromChars_NearRoundingCasesExplicit_TestD0Ev(ptr noundef nonnull align 8 dereferenceable(16) %this) unnamed_addr #7 align 2 {
entry:
  %this.addr = alloca ptr, align 8
  store ptr %this, ptr %this.addr, align 8
  %this1 = load ptr, ptr %this.addr, align 8
  call void @_ZN12_GLOBAL__N_140FromChars_NearRoundingCasesExplicit_TestD2Ev(ptr noundef nonnull align 8 dereferenceable(16) %this1) #3
  call void @_ZdlPv(ptr noundef %this1) #16
  ret void
}

; Function Attrs: mustprogress uwtable
define internal void @_ZN12_GLOBAL__N_140FromChars_NearRoundingCasesExplicit_Test8TestBodyEv(ptr noundef nonnull align 8 dereferenceable(16) %this) unnamed_addr #4 align 2 personality ptr @__gxx_personality_v0 {
entry:
  %this.addr = alloca ptr, align 8
  %gtest_ar = alloca %"class.testing::AssertionResult", align 8
  %ref.tmp = alloca double, align 8
  %agg.tmp = alloca %"class.std::basic_string_view", align 8
  %ref.tmp2 = alloca double, align 8
  %ref.tmp5 = alloca %"class.testing::Message", align 8
  %exn.slot = alloca ptr, align 8
  %ehselector.slot = alloca i32, align 4
  %ref.tmp6 = alloca %"class.testing::internal::AssertHelper", align 8
  %gtest_ar14 = alloca %"class.testing::AssertionResult", align 8
  %ref.tmp15 = alloca double, align 8
  %agg.tmp16 = alloca %"class.std::basic_string_view", align 8
  %ref.tmp18 = alloca double, align 8
  %ref.tmp23 = alloca %"class.testing::Message", align 8
  %ref.tmp26 = alloca %"class.testing::internal::AssertHelper", align 8
  %gtest_ar37 = alloca %"class.testing::AssertionResult", align 8
  %ref.tmp38 = alloca double, align 8
  %agg.tmp39 = alloca %"class.std::basic_string_view", align 8
  %ref.tmp41 = alloca double, align 8
  %ref.tmp46 = alloca %"class.testing::Message", align 8
  %ref.tmp49 = alloca %"class.testing::internal::AssertHelper", align 8
  %gtest_ar60 = alloca %"class.testing::AssertionResult", align 8
  %ref.tmp61 = alloca double, align 8
  %agg.tmp62 = alloca %"class.std::basic_string_view", align 8
  %ref.tmp64 = alloca double, align 8
  %ref.tmp69 = alloca %"class.testing::Message", align 8
  %ref.tmp72 = alloca %"class.testing::internal::AssertHelper", align 8
  %gtest_ar83 = alloca %"class.testing::AssertionResult", align 8
  %ref.tmp84 = alloca double, align 8
  %agg.tmp85 = alloca %"class.std::basic_string_view", align 8
  %ref.tmp87 = alloca double, align 8
  %ref.tmp92 = alloca %"class.testing::Message", align 8
  %ref.tmp95 = alloca %"class.testing::internal::AssertHelper", align 8
  %gtest_ar106 = alloca %"class.testing::AssertionResult", align 8
  %ref.tmp107 = alloca double, align 8
  %agg.tmp108 = alloca %"class.std::basic_string_view", align 8
  %ref.tmp110 = alloca double, align 8
  %ref.tmp115 = alloca %"class.testing::Message", align 8
  %ref.tmp118 = alloca %"class.testing::internal::AssertHelper", align 8
  %gtest_ar129 = alloca %"class.testing::AssertionResult", align 8
  %ref.tmp130 = alloca double, align 8
  %agg.tmp131 = alloca %"class.std::basic_string_view", align 8
  %ref.tmp133 = alloca double, align 8
  %ref.tmp138 = alloca %"class.testing::Message", align 8
  %ref.tmp141 = alloca %"class.testing::internal::AssertHelper", align 8
  %gtest_ar152 = alloca %"class.testing::AssertionResult", align 8
  %ref.tmp153 = alloca double, align 8
  %agg.tmp154 = alloca %"class.std::basic_string_view", align 8
  %ref.tmp156 = alloca double, align 8
  %ref.tmp161 = alloca %"class.testing::Message", align 8
  %ref.tmp164 = alloca %"class.testing::internal::AssertHelper", align 8
  %gtest_ar175 = alloca %"class.testing::AssertionResult", align 8
  %ref.tmp176 = alloca double, align 8
  %agg.tmp177 = alloca %"class.std::basic_string_view", align 8
  %ref.tmp179 = alloca double, align 8
  %ref.tmp184 = alloca %"class.testing::Message", align 8
  %ref.tmp187 = alloca %"class.testing::internal::AssertHelper", align 8
  %gtest_ar198 = alloca %"class.testing::AssertionResult", align 8
  %ref.tmp199 = alloca double, align 8
  %agg.tmp200 = alloca %"class.std::basic_string_view", align 8
  %ref.tmp202 = alloca double, align 8
  %ref.tmp207 = alloca %"class.testing::Message", align 8
  %ref.tmp210 = alloca %"class.testing::internal::AssertHelper", align 8
  %gtest_ar221 = alloca %"class.testing::AssertionResult", align 8
  %ref.tmp222 = alloca double, align 8
  %agg.tmp223 = alloca %"class.std::basic_string_view", align 8
  %ref.tmp225 = alloca double, align 8
  %ref.tmp230 = alloca %"class.testing::Message", align 8
  %ref.tmp233 = alloca %"class.testing::internal::AssertHelper", align 8
  %gtest_ar244 = alloca %"class.testing::AssertionResult", align 8
  %ref.tmp245 = alloca double, align 8
  %agg.tmp246 = alloca %"class.std::basic_string_view", align 8
  %ref.tmp248 = alloca double, align 8
  %ref.tmp253 = alloca %"class.testing::Message", align 8
  %ref.tmp256 = alloca %"class.testing::internal::AssertHelper", align 8
  %gtest_ar267 = alloca %"class.testing::AssertionResult", align 8
  %ref.tmp268 = alloca double, align 8
  %agg.tmp269 = alloca %"class.std::basic_string_view", align 8
  %ref.tmp271 = alloca double, align 8
  %ref.tmp276 = alloca %"class.testing::Message", align 8
  %ref.tmp279 = alloca %"class.testing::internal::AssertHelper", align 8
  %gtest_ar290 = alloca %"class.testing::AssertionResult", align 8
  %ref.tmp291 = alloca double, align 8
  %agg.tmp292 = alloca %"class.std::basic_string_view", align 8
  %ref.tmp294 = alloca double, align 8
  %ref.tmp299 = alloca %"class.testing::Message", align 8
  %ref.tmp302 = alloca %"class.testing::internal::AssertHelper", align 8
  %gtest_ar313 = alloca %"class.testing::AssertionResult", align 8
  %ref.tmp314 = alloca double, align 8
  %agg.tmp315 = alloca %"class.std::basic_string_view", align 8
  %ref.tmp317 = alloca double, align 8
  %ref.tmp322 = alloca %"class.testing::Message", align 8
  %ref.tmp325 = alloca %"class.testing::internal::AssertHelper", align 8
  %gtest_ar336 = alloca %"class.testing::AssertionResult", align 8
  %ref.tmp337 = alloca double, align 8
  %agg.tmp338 = alloca %"class.std::basic_string_view", align 8
  %ref.tmp340 = alloca double, align 8
  %ref.tmp345 = alloca %"class.testing::Message", align 8
  %ref.tmp348 = alloca %"class.testing::internal::AssertHelper", align 8
  %gtest_ar359 = alloca %"class.testing::AssertionResult", align 8
  %ref.tmp360 = alloca double, align 8
  %agg.tmp361 = alloca %"class.std::basic_string_view", align 8
  %ref.tmp363 = alloca double, align 8
  %ref.tmp368 = alloca %"class.testing::Message", align 8
  %ref.tmp371 = alloca %"class.testing::internal::AssertHelper", align 8
  %gtest_ar382 = alloca %"class.testing::AssertionResult", align 8
  %ref.tmp383 = alloca double, align 8
  %agg.tmp384 = alloca %"class.std::basic_string_view", align 8
  %ref.tmp386 = alloca double, align 8
  %ref.tmp391 = alloca %"class.testing::Message", align 8
  %ref.tmp394 = alloca %"class.testing::internal::AssertHelper", align 8
  %gtest_ar405 = alloca %"class.testing::AssertionResult", align 8
  %ref.tmp406 = alloca double, align 8
  %agg.tmp407 = alloca %"class.std::basic_string_view", align 8
  %ref.tmp409 = alloca double, align 8
  %ref.tmp414 = alloca %"class.testing::Message", align 8
  %ref.tmp417 = alloca %"class.testing::internal::AssertHelper", align 8
  %gtest_ar428 = alloca %"class.testing::AssertionResult", align 8
  %ref.tmp429 = alloca double, align 8
  %agg.tmp430 = alloca %"class.std::basic_string_view", align 8
  %ref.tmp432 = alloca double, align 8
  %ref.tmp437 = alloca %"class.testing::Message", align 8
  %ref.tmp440 = alloca %"class.testing::internal::AssertHelper", align 8
  %gtest_ar451 = alloca %"class.testing::AssertionResult", align 8
  %ref.tmp452 = alloca double, align 8
  %agg.tmp453 = alloca %"class.std::basic_string_view", align 8
  %ref.tmp455 = alloca double, align 8
  %ref.tmp460 = alloca %"class.testing::Message", align 8
  %ref.tmp463 = alloca %"class.testing::internal::AssertHelper", align 8
  %gtest_ar474 = alloca %"class.testing::AssertionResult", align 8
  %ref.tmp475 = alloca double, align 8
  %agg.tmp476 = alloca %"class.std::basic_string_view", align 8
  %ref.tmp478 = alloca double, align 8
  %ref.tmp483 = alloca %"class.testing::Message", align 8
  %ref.tmp486 = alloca %"class.testing::internal::AssertHelper", align 8
  %gtest_ar497 = alloca %"class.testing::AssertionResult", align 8
  %ref.tmp498 = alloca float, align 4
  %agg.tmp499 = alloca %"class.std::basic_string_view", align 8
  %ref.tmp501 = alloca float, align 4
  %ref.tmp506 = alloca %"class.testing::Message", align 8
  %ref.tmp509 = alloca %"class.testing::internal::AssertHelper", align 8
  %gtest_ar520 = alloca %"class.testing::AssertionResult", align 8
  %ref.tmp521 = alloca float, align 4
  %agg.tmp522 = alloca %"class.std::basic_string_view", align 8
  %ref.tmp524 = alloca float, align 4
  %ref.tmp529 = alloca %"class.testing::Message", align 8
  %ref.tmp532 = alloca %"class.testing::internal::AssertHelper", align 8
  %gtest_ar543 = alloca %"class.testing::AssertionResult", align 8
  %ref.tmp544 = alloca float, align 4
  %agg.tmp545 = alloca %"class.std::basic_string_view", align 8
  %ref.tmp547 = alloca float, align 4
  %ref.tmp552 = alloca %"class.testing::Message", align 8
  %ref.tmp555 = alloca %"class.testing::internal::AssertHelper", align 8
  %gtest_ar566 = alloca %"class.testing::AssertionResult", align 8
  %ref.tmp567 = alloca float, align 4
  %agg.tmp568 = alloca %"class.std::basic_string_view", align 8
  %ref.tmp570 = alloca float, align 4
  %ref.tmp575 = alloca %"class.testing::Message", align 8
  %ref.tmp578 = alloca %"class.testing::internal::AssertHelper", align 8
  %gtest_ar589 = alloca %"class.testing::AssertionResult", align 8
  %ref.tmp590 = alloca float, align 4
  %agg.tmp591 = alloca %"class.std::basic_string_view", align 8
  %ref.tmp593 = alloca float, align 4
  %ref.tmp598 = alloca %"class.testing::Message", align 8
  %ref.tmp601 = alloca %"class.testing::internal::AssertHelper", align 8
  %gtest_ar612 = alloca %"class.testing::AssertionResult", align 8
  %ref.tmp613 = alloca float, align 4
  %agg.tmp614 = alloca %"class.std::basic_string_view", align 8
  %ref.tmp616 = alloca float, align 4
  %ref.tmp621 = alloca %"class.testing::Message", align 8
  %ref.tmp624 = alloca %"class.testing::internal::AssertHelper", align 8
  %gtest_ar635 = alloca %"class.testing::AssertionResult", align 8
  %ref.tmp636 = alloca float, align 4
  %agg.tmp637 = alloca %"class.std::basic_string_view", align 8
  %ref.tmp639 = alloca float, align 4
  %ref.tmp644 = alloca %"class.testing::Message", align 8
  %ref.tmp647 = alloca %"class.testing::internal::AssertHelper", align 8
  %gtest_ar658 = alloca %"class.testing::AssertionResult", align 8
  %ref.tmp659 = alloca float, align 4
  %agg.tmp660 = alloca %"class.std::basic_string_view", align 8
  %ref.tmp662 = alloca float, align 4
  %ref.tmp667 = alloca %"class.testing::Message", align 8
  %ref.tmp670 = alloca %"class.testing::internal::AssertHelper", align 8
  %gtest_ar681 = alloca %"class.testing::AssertionResult", align 8
  %ref.tmp682 = alloca float, align 4
  %agg.tmp683 = alloca %"class.std::basic_string_view", align 8
  %ref.tmp685 = alloca float, align 4
  %ref.tmp690 = alloca %"class.testing::Message", align 8
  %ref.tmp693 = alloca %"class.testing::internal::AssertHelper", align 8
  %gtest_ar704 = alloca %"class.testing::AssertionResult", align 8
  %ref.tmp705 = alloca float, align 4
  %agg.tmp706 = alloca %"class.std::basic_string_view", align 8
  %ref.tmp708 = alloca float, align 4
  %ref.tmp713 = alloca %"class.testing::Message", align 8
  %ref.tmp716 = alloca %"class.testing::internal::AssertHelper", align 8
  %gtest_ar727 = alloca %"class.testing::AssertionResult", align 8
  %ref.tmp728 = alloca float, align 4
  %agg.tmp729 = alloca %"class.std::basic_string_view", align 8
  %ref.tmp731 = alloca float, align 4
  %ref.tmp736 = alloca %"class.testing::Message", align 8
  %ref.tmp739 = alloca %"class.testing::internal::AssertHelper", align 8
  %gtest_ar750 = alloca %"class.testing::AssertionResult", align 8
  %ref.tmp751 = alloca float, align 4
  %agg.tmp752 = alloca %"class.std::basic_string_view", align 8
  %ref.tmp754 = alloca float, align 4
  %ref.tmp759 = alloca %"class.testing::Message", align 8
  %ref.tmp762 = alloca %"class.testing::internal::AssertHelper", align 8
  %gtest_ar773 = alloca %"class.testing::AssertionResult", align 8
  %ref.tmp774 = alloca double, align 8
  %agg.tmp775 = alloca %"class.std::basic_string_view", align 8
  %ref.tmp777 = alloca double, align 8
  %ref.tmp782 = alloca %"class.testing::Message", align 8
  %ref.tmp785 = alloca %"class.testing::internal::AssertHelper", align 8
  %gtest_ar796 = alloca %"class.testing::AssertionResult", align 8
  %ref.tmp797 = alloca double, align 8
  %agg.tmp798 = alloca %"class.std::basic_string_view", align 8
  %ref.tmp800 = alloca double, align 8
  %ref.tmp805 = alloca %"class.testing::Message", align 8
  %ref.tmp808 = alloca %"class.testing::internal::AssertHelper", align 8
  %gtest_ar819 = alloca %"class.testing::AssertionResult", align 8
  %ref.tmp820 = alloca double, align 8
  %agg.tmp821 = alloca %"class.std::basic_string_view", align 8
  %ref.tmp823 = alloca double, align 8
  %ref.tmp828 = alloca %"class.testing::Message", align 8
  %ref.tmp831 = alloca %"class.testing::internal::AssertHelper", align 8
  %gtest_ar842 = alloca %"class.testing::AssertionResult", align 8
  %ref.tmp843 = alloca double, align 8
  %agg.tmp844 = alloca %"class.std::basic_string_view", align 8
  %ref.tmp846 = alloca double, align 8
  %ref.tmp851 = alloca %"class.testing::Message", align 8
  %ref.tmp854 = alloca %"class.testing::internal::AssertHelper", align 8
  %gtest_ar865 = alloca %"class.testing::AssertionResult", align 8
  %ref.tmp866 = alloca double, align 8
  %agg.tmp867 = alloca %"class.std::basic_string_view", align 8
  %ref.tmp869 = alloca double, align 8
  %ref.tmp874 = alloca %"class.testing::Message", align 8
  %ref.tmp877 = alloca %"class.testing::internal::AssertHelper", align 8
  %gtest_ar888 = alloca %"class.testing::AssertionResult", align 8
  %ref.tmp889 = alloca double, align 8
  %agg.tmp890 = alloca %"class.std::basic_string_view", align 8
  %ref.tmp892 = alloca double, align 8
  %ref.tmp897 = alloca %"class.testing::Message", align 8
  %ref.tmp900 = alloca %"class.testing::internal::AssertHelper", align 8
  %gtest_ar911 = alloca %"class.testing::AssertionResult", align 8
  %ref.tmp912 = alloca double, align 8
  %agg.tmp913 = alloca %"class.std::basic_string_view", align 8
  %ref.tmp915 = alloca double, align 8
  %ref.tmp920 = alloca %"class.testing::Message", align 8
  %ref.tmp923 = alloca %"class.testing::internal::AssertHelper", align 8
  %gtest_ar934 = alloca %"class.testing::AssertionResult", align 8
  %ref.tmp935 = alloca double, align 8
  %agg.tmp936 = alloca %"class.std::basic_string_view", align 8
  %ref.tmp938 = alloca double, align 8
  %ref.tmp943 = alloca %"class.testing::Message", align 8
  %ref.tmp946 = alloca %"class.testing::internal::AssertHelper", align 8
  %gtest_ar957 = alloca %"class.testing::AssertionResult", align 8
  %ref.tmp958 = alloca double, align 8
  %agg.tmp959 = alloca %"class.std::basic_string_view", align 8
  %ref.tmp961 = alloca double, align 8
  %ref.tmp966 = alloca %"class.testing::Message", align 8
  %ref.tmp969 = alloca %"class.testing::internal::AssertHelper", align 8
  %gtest_ar980 = alloca %"class.testing::AssertionResult", align 8
  %ref.tmp981 = alloca double, align 8
  %agg.tmp982 = alloca %"class.std::basic_string_view", align 8
  %ref.tmp984 = alloca double, align 8
  %ref.tmp989 = alloca %"class.testing::Message", align 8
  %ref.tmp992 = alloca %"class.testing::internal::AssertHelper", align 8
  %gtest_ar1003 = alloca %"class.testing::AssertionResult", align 8
  %ref.tmp1004 = alloca double, align 8
  %agg.tmp1005 = alloca %"class.std::basic_string_view", align 8
  %ref.tmp1007 = alloca double, align 8
  %ref.tmp1012 = alloca %"class.testing::Message", align 8
  %ref.tmp1015 = alloca %"class.testing::internal::AssertHelper", align 8
  %gtest_ar1026 = alloca %"class.testing::AssertionResult", align 8
  %ref.tmp1027 = alloca double, align 8
  %agg.tmp1028 = alloca %"class.std::basic_string_view", align 8
  %ref.tmp1030 = alloca double, align 8
  %ref.tmp1035 = alloca %"class.testing::Message", align 8
  %ref.tmp1038 = alloca %"class.testing::internal::AssertHelper", align 8
  %gtest_ar1049 = alloca %"class.testing::AssertionResult", align 8
  %ref.tmp1050 = alloca double, align 8
  %agg.tmp1051 = alloca %"class.std::basic_string_view", align 8
  %ref.tmp1053 = alloca double, align 8
  %ref.tmp1058 = alloca %"class.testing::Message", align 8
  %ref.tmp1061 = alloca %"class.testing::internal::AssertHelper", align 8
  %gtest_ar1072 = alloca %"class.testing::AssertionResult", align 8
  %ref.tmp1073 = alloca double, align 8
  %agg.tmp1074 = alloca %"class.std::basic_string_view", align 8
