target datalayout = "e-m:e-p270:32:32-p271:32:32-p272:64:64-i64:64-i128:128-f80:128-n8:16:32:64-S128"
target triple = "x86_64-unknown-linux-gnu"

%"class.std::ios_base::Init" = type { i8 }
%"class.absl::partial_ordering" = type { i8 }
%"class.absl::weak_ordering" = type { i8 }
%"class.absl::strong_ordering" = type { i8 }
%"class.std::basic_ostream" = type { ptr, %"class.std::basic_ios" }
%"class.std::basic_ios" = type { %"class.std::ios_base", ptr, i8, i8, ptr, ptr, ptr, ptr }
%"class.std::ios_base" = type { ptr, i64, i64, i32, i32, i32, ptr, %"struct.std::ios_base::_Words", [8 x %"struct.std::ios_base::_Words"], i32, ptr, %"class.std::locale" }
%"struct.std::ios_base::_Words" = type { ptr, i64 }
%"class.std::locale" = type { ptr }
%"struct.testing::internal::CodeLocation" = type <{ %"class.std::__cxx11::basic_string", i32, [4 x i8] }>
%"class.std::__cxx11::basic_string" = type { %"struct.std::__cxx11::basic_string<char>::_Alloc_hider", i64, %union.anon }
%"struct.std::__cxx11::basic_string<char>::_Alloc_hider" = type { ptr }
%union.anon = type { i64, [8 x i8] }
%"class.std::allocator" = type { i8 }
%"class.testing::internal::GTestLog" = type { i32 }
%"class.testing::AssertionResult" = type { i8, %"class.std::unique_ptr.10" }
%"class.std::unique_ptr.10" = type { %"struct.std::__uniq_ptr_data.11" }
%"struct.std::__uniq_ptr_data.11" = type { %"class.std::__uniq_ptr_impl.12" }
%"class.std::__uniq_ptr_impl.12" = type { %"class.std::tuple.13" }
%"class.std::tuple.13" = type { %"struct.std::_Tuple_impl.14" }
%"struct.std::_Tuple_impl.14" = type { %"struct.std::_Head_base.17" }
%"struct.std::_Head_base.17" = type { ptr }
%"class.absl::compare_internal::OnlyLiteralZero" = type { i8 }
%"class.testing::Message" = type { %"class.std::unique_ptr.18" }
%"class.std::unique_ptr.18" = type { %"struct.std::__uniq_ptr_data.19" }
%"struct.std::__uniq_ptr_data.19" = type { %"class.std::__uniq_ptr_impl.20" }
%"class.std::__uniq_ptr_impl.20" = type { %"class.std::tuple.21" }
%"class.std::tuple.21" = type { %"struct.std::_Tuple_impl.22" }
%"struct.std::_Tuple_impl.22" = type { %"struct.std::_Head_base.25" }
%"struct.std::_Head_base.25" = type { ptr }
%"class.testing::internal::AssertHelper" = type { ptr }
%"class.std::__cxx11::basic_stringstream" = type { %"class.std::basic_iostream.base", %"class.std::__cxx11::basic_stringbuf", %"class.std::basic_ios" }
%"class.std::basic_iostream.base" = type { %"class.std::basic_istream.base", %"class.std::basic_ostream.base" }
%"class.std::basic_istream.base" = type { ptr, i64 }
%"class.std::basic_ostream.base" = type { ptr }
%"class.std::__cxx11::basic_stringbuf" = type { %"class.std::basic_streambuf", i32, %"class.std::__cxx11::basic_string" }
%"class.std::basic_streambuf" = type { ptr, ptr, ptr, ptr, ptr, ptr, ptr, %"class.std::locale" }
%"struct.std::less" = type { i8 }
%"struct.absl::(anonymous namespace)::WeakOrderingLess" = type { i8 }
%struct._Guard = type { ptr }

$_ZNSt7__cxx1112basic_stringIcSt11char_traitsIcESaIcEEC2IS3_EEPKcRKS3_ = comdat any

$_ZN7testing8internal12CodeLocationC2ERKNSt7__cxx1112basic_stringIcSt11char_traitsIcESaIcEEEi = comdat any

$_ZN7testing8internal16SuiteApiResolverINS_4TestEE19GetSetUpCaseOrSuiteEPKci = comdat any

$_ZN7testing8internal16SuiteApiResolverINS_4TestEE22GetTearDownCaseOrSuiteEPKci = comdat any

$_ZN7testing8internal12CodeLocationD2Ev = comdat any

$_ZN7testing8internal15TestFactoryBaseC2Ev = comdat any

$_ZN7testing8internal15TestFactoryBaseD2Ev = comdat any

$_ZN7testing8internal15TestFactoryBaseD0Ev = comdat any

$_ZN7testing4Test5SetupEv = comdat any

$_ZN4abslltENS_16partial_orderingENS_16compare_internal15OnlyLiteralZeroE = comdat any

$_ZN4absl16compare_internal15OnlyLiteralZeroC2EUa9enable_ifIXeqfL0p_Li0EEEi = comdat any

$_ZN7testing15AssertionResultC2IbEERKT_PNSt9enable_ifIXntsr3std14is_convertibleIS2_S0_EE5valueEvE4typeE = comdat any

$_ZNK7testing15AssertionResultcvbEv = comdat any

$_ZN7testing7MessageD2Ev = comdat any

$_ZN7testing15AssertionResultD2Ev = comdat any

$_ZN4abslgtENS_16compare_internal15OnlyLiteralZeroENS_16partial_orderingE = comdat any

$_ZN4abslleENS_16partial_orderingENS_16compare_internal15OnlyLiteralZeroE = comdat any

$_ZN4abslgeENS_16compare_internal15OnlyLiteralZeroENS_16partial_orderingE = comdat any

$_ZN4absleqENS_16partial_orderingENS_16compare_internal15OnlyLiteralZeroE = comdat any

$_ZN4absleqENS_16compare_internal15OnlyLiteralZeroENS_16partial_orderingE = comdat any

$_ZN4abslgtENS_16partial_orderingENS_16compare_internal15OnlyLiteralZeroE = comdat any

$_ZN4abslltENS_16compare_internal15OnlyLiteralZeroENS_16partial_orderingE = comdat any

$_ZN4abslgeENS_16partial_orderingENS_16compare_internal15OnlyLiteralZeroE = comdat any

$_ZN4abslleENS_16compare_internal15OnlyLiteralZeroENS_16partial_orderingE = comdat any

$_ZN4abslneENS_16partial_orderingENS_16compare_internal15OnlyLiteralZeroE = comdat any

$_ZN4abslneENS_16compare_internal15OnlyLiteralZeroENS_16partial_orderingE = comdat any

$_ZN7testing8internal8EqHelper7CompareIbbTnPNSt9enable_ifIXoontsr3std11is_integralIT_EE5valuentsr3std10is_pointerIT0_EE5valueEvE4typeELPv0EEENS_15AssertionResultEPKcSC_RKS4_RKS5_ = comdat any

$_ZN4absleqENS_16partial_orderingES0_ = comdat any

$_ZNK7testing15AssertionResult15failure_messageEv = comdat any

$_ZN4abslneENS_16partial_orderingES0_ = comdat any

$_ZNK4absl16partial_ordering10is_orderedEv = comdat any

$_ZNSt10unique_ptrINSt7__cxx1112basic_stringIcSt11char_traitsIcESaIcEEESt14default_deleteIS5_EEC2IS7_vEEv = comdat any

$_ZNSt15__uniq_ptr_dataINSt7__cxx1112basic_stringIcSt11char_traitsIcESaIcEEESt14default_deleteIS5_ELb1ELb1EEC2Ev = comdat any

$_ZNSt15__uniq_ptr_implINSt7__cxx1112basic_stringIcSt11char_traitsIcESaIcEEESt14default_deleteIS5_EEC2Ev = comdat any

$_ZNSt5tupleIJPNSt7__cxx1112basic_stringIcSt11char_traitsIcESaIcEEESt14default_deleteIS5_EEEC2ILb1ETnNSt9enable_ifIXclsr17_TupleConstraintsIXT_ES6_S8_EE37__is_implicitly_default_constructibleEEbE4typeELb1EEEv = comdat any

$_ZNSt11_Tuple_implILm0EJPNSt7__cxx1112basic_stringIcSt11char_traitsIcESaIcEEESt14default_deleteIS5_EEEC2Ev = comdat any

$__clang_call_terminate = comdat any

$_ZNSt11_Tuple_implILm1EJSt14default_deleteINSt7__cxx1112basic_stringIcSt11char_traitsIcESaIcEEEEEEC2Ev = comdat any

$_ZNSt10_Head_baseILm0EPNSt7__cxx1112basic_stringIcSt11char_traitsIcESaIcEEELb0EEC2Ev = comdat any

$_ZNSt10_Head_baseILm1ESt14default_deleteINSt7__cxx1112basic_stringIcSt11char_traitsIcESaIcEEEELb1EEC2Ev = comdat any

$_ZNSt10unique_ptrINSt7__cxx1118basic_stringstreamIcSt11char_traitsIcESaIcEEESt14default_deleteIS5_EED2Ev = comdat any

$_ZNSt15__uniq_ptr_implINSt7__cxx1118basic_stringstreamIcSt11char_traitsIcESaIcEEESt14default_deleteIS5_EE6_M_ptrEv = comdat any

$_ZNSt10unique_ptrINSt7__cxx1118basic_stringstreamIcSt11char_traitsIcESaIcEEESt14default_deleteIS5_EE11get_deleterEv = comdat any

$_ZNKSt14default_deleteINSt7__cxx1118basic_stringstreamIcSt11char_traitsIcESaIcEEEEclEPS5_ = comdat any

$_ZSt3getILm0EJPNSt7__cxx1118basic_stringstreamIcSt11char_traitsIcESaIcEEESt14default_deleteIS5_EEERNSt13tuple_elementIXT_ESt5tupleIJDpT0_EEE4typeERSD_ = comdat any

$_ZSt12__get_helperILm0EPNSt7__cxx1118basic_stringstreamIcSt11char_traitsIcESaIcEEEJSt14default_deleteIS5_EEERT0_RSt11_Tuple_implIXT_EJS9_DpT1_EE = comdat any

$_ZNSt11_Tuple_implILm0EJPNSt7__cxx1118basic_stringstreamIcSt11char_traitsIcESaIcEEESt14default_deleteIS5_EEE7_M_headERS9_ = comdat any

$_ZNSt10_Head_baseILm0EPNSt7__cxx1118basic_stringstreamIcSt11char_traitsIcESaIcEEELb0EE7_M_headERS7_ = comdat any

$_ZNSt15__uniq_ptr_implINSt7__cxx1118basic_stringstreamIcSt11char_traitsIcESaIcEEESt14default_deleteIS5_EE10_M_deleterEv = comdat any

$_ZSt3getILm1EJPNSt7__cxx1118basic_stringstreamIcSt11char_traitsIcESaIcEEESt14default_deleteIS5_EEERNSt13tuple_elementIXT_ESt5tupleIJDpT0_EEE4typeERSD_ = comdat any

$_ZSt12__get_helperILm1ESt14default_deleteINSt7__cxx1118basic_stringstreamIcSt11char_traitsIcESaIcEEEEJEERT0_RSt11_Tuple_implIXT_EJS8_DpT1_EE = comdat any

$_ZNSt11_Tuple_implILm1EJSt14default_deleteINSt7__cxx1118basic_stringstreamIcSt11char_traitsIcESaIcEEEEEE7_M_headERS8_ = comdat any

$_ZNSt10_Head_baseILm1ESt14default_deleteINSt7__cxx1118basic_stringstreamIcSt11char_traitsIcESaIcEEEELb1EE7_M_headERS8_ = comdat any

$_ZNSt10unique_ptrINSt7__cxx1112basic_stringIcSt11char_traitsIcESaIcEEESt14default_deleteIS5_EED2Ev = comdat any

$_ZNSt15__uniq_ptr_implINSt7__cxx1112basic_stringIcSt11char_traitsIcESaIcEEESt14default_deleteIS5_EE6_M_ptrEv = comdat any

$_ZNSt10unique_ptrINSt7__cxx1112basic_stringIcSt11char_traitsIcESaIcEEESt14default_deleteIS5_EE11get_deleterEv = comdat any

$_ZNKSt14default_deleteINSt7__cxx1112basic_stringIcSt11char_traitsIcESaIcEEEEclEPS5_ = comdat any

$_ZSt3getILm0EJPNSt7__cxx1112basic_stringIcSt11char_traitsIcESaIcEEESt14default_deleteIS5_EEERNSt13tuple_elementIXT_ESt5tupleIJDpT0_EEE4typeERSD_ = comdat any

$_ZSt12__get_helperILm0EPNSt7__cxx1112basic_stringIcSt11char_traitsIcESaIcEEEJSt14default_deleteIS5_EEERT0_RSt11_Tuple_implIXT_EJS9_DpT1_EE = comdat any

$_ZNSt11_Tuple_implILm0EJPNSt7__cxx1112basic_stringIcSt11char_traitsIcESaIcEEESt14default_deleteIS5_EEE7_M_headERS9_ = comdat any

$_ZNSt10_Head_baseILm0EPNSt7__cxx1112basic_stringIcSt11char_traitsIcESaIcEEELb0EE7_M_headERS7_ = comdat any

$_ZNSt15__uniq_ptr_implINSt7__cxx1112basic_stringIcSt11char_traitsIcESaIcEEESt14default_deleteIS5_EE10_M_deleterEv = comdat any

$_ZSt3getILm1EJPNSt7__cxx1112basic_stringIcSt11char_traitsIcESaIcEEESt14default_deleteIS5_EEERNSt13tuple_elementIXT_ESt5tupleIJDpT0_EEE4typeERSD_ = comdat any

$_ZSt12__get_helperILm1ESt14default_deleteINSt7__cxx1112basic_stringIcSt11char_traitsIcESaIcEEEEJEERT0_RSt11_Tuple_implIXT_EJS8_DpT1_EE = comdat any

$_ZNSt11_Tuple_implILm1EJSt14default_deleteINSt7__cxx1112basic_stringIcSt11char_traitsIcESaIcEEEEEE7_M_headERS8_ = comdat any

$_ZNSt10_Head_baseILm1ESt14default_deleteINSt7__cxx1112basic_stringIcSt11char_traitsIcESaIcEEEELb1EE7_M_headERS8_ = comdat any

$_ZN7testing8internal11CmpHelperEQIbbEENS_15AssertionResultEPKcS4_RKT_RKT0_ = comdat any

$_ZN7testing8internal18CmpHelperEQFailureIbbEENS_15AssertionResultEPKcS4_RKT_RKT0_ = comdat any

$_ZN7testing8internal33FormatForComparisonFailureMessageIbbEENSt7__cxx1112basic_stringIcSt11char_traitsIcESaIcEEERKT_RKT0_ = comdat any

$_ZN7testing8internal19FormatForComparisonIbbE6FormatB5cxx11ERKb = comdat any

$_ZN7testing13PrintToStringIbEENSt7__cxx1112basic_stringIcSt11char_traitsIcESaIcEEERKT_ = comdat any

$_ZN7testing8internal21UniversalTersePrinterIbE5PrintERKbPSo = comdat any

$_ZN7testing8internal14UniversalPrintIbEEvRKT_PSo = comdat any

$_ZN7testing8internal16UniversalPrinterIbE5PrintERKbPSo = comdat any

$_ZN7testing8internal7PrintToEbPSo = comdat any

$_ZNK7testing15AssertionResult7messageEv = comdat any

$_ZStneINSt7__cxx1112basic_stringIcSt11char_traitsIcESaIcEEESt14default_deleteIS5_EEbRKSt10unique_ptrIT_T0_EDn = comdat any

$_ZNKSt10unique_ptrINSt7__cxx1112basic_stringIcSt11char_traitsIcESaIcEEESt14default_deleteIS5_EEptEv = comdat any

$_ZNKSt10unique_ptrINSt7__cxx1112basic_stringIcSt11char_traitsIcESaIcEEESt14default_deleteIS5_EEcvbEv = comdat any

$_ZNKSt10unique_ptrINSt7__cxx1112basic_stringIcSt11char_traitsIcESaIcEEESt14default_deleteIS5_EE3getEv = comdat any

$_ZNKSt15__uniq_ptr_implINSt7__cxx1112basic_stringIcSt11char_traitsIcESaIcEEESt14default_deleteIS5_EE6_M_ptrEv = comdat any

$_ZSt3getILm0EJPNSt7__cxx1112basic_stringIcSt11char_traitsIcESaIcEEESt14default_deleteIS5_EEERKNSt13tuple_elementIXT_ESt5tupleIJDpT0_EEE4typeERKSD_ = comdat any

$_ZSt12__get_helperILm0EPNSt7__cxx1112basic_stringIcSt11char_traitsIcESaIcEEEJSt14default_deleteIS5_EEERKT0_RKSt11_Tuple_implIXT_EJS9_DpT1_EE = comdat any

$_ZNSt11_Tuple_implILm0EJPNSt7__cxx1112basic_stringIcSt11char_traitsIcESaIcEEESt14default_deleteIS5_EEE7_M_headERKS9_ = comdat any

$_ZNSt10_Head_baseILm0EPNSt7__cxx1112basic_stringIcSt11char_traitsIcESaIcEEELb0EE7_M_headERKS7_ = comdat any

$_ZN4abslltENS_13weak_orderingENS_16compare_internal15OnlyLiteralZeroE = comdat any

$_ZN4abslgtENS_16compare_internal15OnlyLiteralZeroENS_13weak_orderingE = comdat any

$_ZN4abslleENS_13weak_orderingENS_16compare_internal15OnlyLiteralZeroE = comdat any

$_ZN4abslgeENS_16compare_internal15OnlyLiteralZeroENS_13weak_orderingE = comdat any

$_ZN4absleqENS_13weak_orderingENS_16compare_internal15OnlyLiteralZeroE = comdat any

$_ZN4absleqENS_16compare_internal15OnlyLiteralZeroENS_13weak_orderingE = comdat any

$_ZN4abslgtENS_13weak_orderingENS_16compare_internal15OnlyLiteralZeroE = comdat any

$_ZN4abslltENS_16compare_internal15OnlyLiteralZeroENS_13weak_orderingE = comdat any

$_ZN4abslgeENS_13weak_orderingENS_16compare_internal15OnlyLiteralZeroE = comdat any

$_ZN4abslleENS_16compare_internal15OnlyLiteralZeroENS_13weak_orderingE = comdat any

$_ZN4absleqENS_13weak_orderingES0_ = comdat any

$_ZN4abslneENS_13weak_orderingES0_ = comdat any

$_ZN4abslltENS_15strong_orderingENS_16compare_internal15OnlyLiteralZeroE = comdat any

$_ZN4abslgtENS_16compare_internal15OnlyLiteralZeroENS_15strong_orderingE = comdat any

$_ZN4abslleENS_15strong_orderingENS_16compare_internal15OnlyLiteralZeroE = comdat any

$_ZN4abslgeENS_16compare_internal15OnlyLiteralZeroENS_15strong_orderingE = comdat any

$_ZN4absleqENS_15strong_orderingENS_16compare_internal15OnlyLiteralZeroE = comdat any

$_ZN4absleqENS_16compare_internal15OnlyLiteralZeroENS_15strong_orderingE = comdat any

$_ZN4abslgtENS_15strong_orderingENS_16compare_internal15OnlyLiteralZeroE = comdat any

$_ZN4abslltENS_16compare_internal15OnlyLiteralZeroENS_15strong_orderingE = comdat any

$_ZN4abslgeENS_15strong_orderingENS_16compare_internal15OnlyLiteralZeroE = comdat any

$_ZN4abslleENS_16compare_internal15OnlyLiteralZeroENS_15strong_orderingE = comdat any

$_ZN4absleqENS_15strong_orderingES0_ = comdat any

$_ZN4abslneENS_15strong_orderingES0_ = comdat any

$_ZN4absl13implicit_castINS_16partial_orderingEEET_NS_8internal8identityIS2_E4typeE = comdat any

$_ZNK4absl13weak_orderingcvNS_16partial_orderingEEv = comdat any

$_ZNK4absl15strong_orderingcvNS_16partial_orderingEEv = comdat any

$_ZN4abslneENS_13weak_orderingENS_16compare_internal15OnlyLiteralZeroE = comdat any

$_ZN4absl13implicit_castINS_13weak_orderingEEET_NS_8internal8identityIS2_E4typeE = comdat any

$_ZNK4absl15strong_orderingcvNS_13weak_orderingEEv = comdat any

$_ZN4absl16compare_internal27compare_result_as_less_thanIbTnNSt9enable_ifIXsr3std7is_sameIbT_EE5valueEiE4typeELi0EEEbS3_ = comdat any

$_ZN4absl16compare_internal27compare_result_as_less_thanENS_13weak_orderingE = comdat any

$_ZN4absl16compare_internal23do_less_than_comparisonISt4lessIiEiiEEbRKT_RKT0_RKT1_ = comdat any

$_ZNKSt4lessIiEclERKiS2_ = comdat any

$_ZN4absl16compare_internal26compare_result_as_orderingIiTnNSt9enable_ifIXsr3std7is_sameIiT_EE5valueEiE4typeELi0EEENS_13weak_orderingES3_ = comdat any

$_ZN4absl16compare_internal26compare_result_as_orderingENS_13weak_orderingE = comdat any

$_ZN4absl16compare_internal23do_three_way_comparisonISt4lessIiEiiTnNSt9enable_ifIXsr3std7is_sameIbNS_20type_traits_internal9result_ofIFT_RKT0_RKT1_EE4typeEEE5valueEiE4typeELi0EEENS_13weak_orderingERKS7_SA_SD_ = comdat any

$_ZNSt11char_traitsIcE6lengthEPKc = comdat any

$_ZNSt7__cxx1112basic_stringIcSt11char_traitsIcESaIcEE12_M_constructIPKcEEvT_S8_St20forward_iterator_tag = comdat any

$_ZNSt7__cxx1112basic_stringIcSt11char_traitsIcESaIcEE12_Alloc_hiderD2Ev = comdat any

$_ZSt8distanceIPKcENSt15iterator_traitsIT_E15difference_typeES3_S3_ = comdat any

$_ZZNSt7__cxx1112basic_stringIcSt11char_traitsIcESaIcEE12_M_constructIPKcEEvT_S8_St20forward_iterator_tagEN6_GuardC2EPS4_ = comdat any

$_ZZNSt7__cxx1112basic_stringIcSt11char_traitsIcESaIcEE12_M_constructIPKcEEvT_S8_St20forward_iterator_tagEN6_GuardD2Ev = comdat any

$_ZSt10__distanceIPKcENSt15iterator_traitsIT_E15difference_typeES3_S3_St26random_access_iterator_tag = comdat any

$_ZSt19__iterator_categoryIPKcENSt15iterator_traitsIT_E17iterator_categoryERKS3_ = comdat any

$_ZN7testing8internal19GetNotDefaultOrNullEPFvvES2_ = comdat any

$_ZN7testing4Test13SetUpTestCaseEv = comdat any

$_ZN7testing4Test14SetUpTestSuiteEv = comdat any

$_ZN7testing8internal8GTestLog9GetStreamEv = comdat any

$_ZN7testing4Test16TearDownTestCaseEv = comdat any

$_ZN7testing4Test17TearDownTestSuiteEv = comdat any

$_ZTSN7testing8internal15TestFactoryBaseE = comdat any

$_ZTIN7testing8internal15TestFactoryBaseE = comdat any

$_ZTVN7testing8internal15TestFactoryBaseE = comdat any

$_ZN4absl16partial_ordering4lessE = comdat any

$_ZN4absl16partial_ordering10equivalentE = comdat any

$_ZN4absl16partial_ordering7greaterE = comdat any

$_ZN4absl16partial_ordering9unorderedE = comdat any

$_ZN4absl13weak_ordering4lessE = comdat any

$_ZN4absl13weak_ordering10equivalentE = comdat any

$_ZN4absl13weak_ordering7greaterE = comdat any

$_ZN4absl15strong_ordering4lessE = comdat any

$_ZN4absl15strong_ordering5equalE = comdat any

$_ZN4absl15strong_ordering10equivalentE = comdat any

$_ZN4absl15strong_ordering7greaterE = comdat any

@_ZStL8__ioinit = internal global %"class.std::ios_base::Init" zeroinitializer, align 1
@__dso_handle = external hidden global i8
@_ZN4absl12_GLOBAL__N_128Compare_PartialOrdering_Test10test_info_E = internal global ptr null, align 8
@.str = private unnamed_addr constant [8 x i8] c"Compare\00", align 1
@.str.2 = private unnamed_addr constant [16 x i8] c"PartialOrdering\00", align 1
@.str.3 = private unnamed_addr constant [126 x i8] c"generated/home/dtcxzyw/WorkSpace/Projects/compilers/llvm-opt-benchmark/bench/abseil-cpp/abseil-cpp/absl/types/compare_test.cc\00", align 1
@_ZN4absl12_GLOBAL__N_125Compare_WeakOrdering_Test10test_info_E = internal global ptr null, align 8
@.str.5 = private unnamed_addr constant [13 x i8] c"WeakOrdering\00", align 1
@_ZN4absl12_GLOBAL__N_127Compare_StrongOrdering_Test10test_info_E = internal global ptr null, align 8
@.str.7 = private unnamed_addr constant [15 x i8] c"StrongOrdering\00", align 1
@_ZN4absl12_GLOBAL__N_124Compare_Conversions_Test10test_info_E = internal global ptr null, align 8
@.str.9 = private unnamed_addr constant [12 x i8] c"Conversions\00", align 1
@_ZN4absl12_GLOBAL__N_139CompareResultAsLessThan_SanityTest_Test10test_info_E = internal global ptr null, align 8
@.str.11 = private unnamed_addr constant [24 x i8] c"CompareResultAsLessThan\00", align 1
@.str.12 = private unnamed_addr constant [11 x i8] c"SanityTest\00", align 1
@_ZN4absl12_GLOBAL__N_136DoLessThanComparison_SanityTest_Test10test_info_E = internal global ptr null, align 8
@.str.14 = private unnamed_addr constant [21 x i8] c"DoLessThanComparison\00", align 1
@_ZN4absl12_GLOBAL__N_139CompareResultAsOrdering_SanityTest_Test10test_info_E = internal global ptr null, align 8
@.str.16 = private unnamed_addr constant [24 x i8] c"CompareResultAsOrdering\00", align 1
@_ZN4absl12_GLOBAL__N_136DoThreeWayComparison_SanityTest_Test10test_info_E = internal global ptr null, align 8
@.str.18 = private unnamed_addr constant [21 x i8] c"DoThreeWayComparison\00", align 1
@_ZN4absl12_GLOBAL__N_126Compare_StaticAsserts_Test10test_info_E = internal global ptr null, align 8
@.str.20 = private unnamed_addr constant [14 x i8] c"StaticAsserts\00", align 1
@_ZTVN7testing8internal15TestFactoryImplIN4absl12_GLOBAL__N_128Compare_PartialOrdering_TestEEE = internal unnamed_addr constant { [5 x ptr] } { [5 x ptr] [ptr null, ptr @_ZTIN7testing8internal15TestFactoryImplIN4absl12_GLOBAL__N_128Compare_PartialOrdering_TestEEE, ptr @_ZN7testing8internal15TestFactoryImplIN4absl12_GLOBAL__N_128Compare_PartialOrdering_TestEED2Ev, ptr @_ZN7testing8internal15TestFactoryImplIN4absl12_GLOBAL__N_128Compare_PartialOrdering_TestEED0Ev, ptr @_ZN7testing8internal15TestFactoryImplIN4absl12_GLOBAL__N_128Compare_PartialOrdering_TestEE10CreateTestEv] }, align 8
@_ZTVN10__cxxabiv120__si_class_type_infoE = external global [0 x ptr]
@_ZTSN7testing8internal15TestFactoryImplIN4absl12_GLOBAL__N_128Compare_PartialOrdering_TestEEE = internal constant [90 x i8] c"N7testing8internal15TestFactoryImplIN4absl12_GLOBAL__N_128Compare_PartialOrdering_TestEEE\00", align 1
@_ZTVN10__cxxabiv117__class_type_infoE = external global [0 x ptr]
@_ZTSN7testing8internal15TestFactoryBaseE = linkonce_odr dso_local constant [37 x i8] c"N7testing8internal15TestFactoryBaseE\00", comdat, align 1
@_ZTIN7testing8internal15TestFactoryBaseE = linkonce_odr dso_local constant { ptr, ptr } { ptr getelementptr inbounds (ptr, ptr @_ZTVN10__cxxabiv117__class_type_infoE, i64 2), ptr @_ZTSN7testing8internal15TestFactoryBaseE }, comdat, align 8
@_ZTIN7testing8internal15TestFactoryImplIN4absl12_GLOBAL__N_128Compare_PartialOrdering_TestEEE = internal constant { ptr, ptr, ptr } { ptr getelementptr inbounds (ptr, ptr @_ZTVN10__cxxabiv120__si_class_type_infoE, i64 2), ptr @_ZTSN7testing8internal15TestFactoryImplIN4absl12_GLOBAL__N_128Compare_PartialOrdering_TestEEE, ptr @_ZTIN7testing8internal15TestFactoryBaseE }, align 8
@_ZTVN7testing8internal15TestFactoryBaseE = linkonce_odr dso_local unnamed_addr constant { [5 x ptr] } { [5 x ptr] [ptr null, ptr @_ZTIN7testing8internal15TestFactoryBaseE, ptr @_ZN7testing8internal15TestFactoryBaseD2Ev, ptr @_ZN7testing8internal15TestFactoryBaseD0Ev, ptr @__cxa_pure_virtual] }, comdat, align 8
@_ZTVN4absl12_GLOBAL__N_128Compare_PartialOrdering_TestE = internal unnamed_addr constant { [8 x ptr] } { [8 x ptr] [ptr null, ptr @_ZTIN4absl12_GLOBAL__N_128Compare_PartialOrdering_TestE, ptr @_ZN4absl12_GLOBAL__N_128Compare_PartialOrdering_TestD2Ev, ptr @_ZN4absl12_GLOBAL__N_128Compare_PartialOrdering_TestD0Ev, ptr @_ZN7testing4Test5SetUpEv, ptr @_ZN7testing4Test8TearDownEv, ptr @_ZN4absl12_GLOBAL__N_128Compare_PartialOrdering_Test8TestBodyEv, ptr @_ZN7testing4Test5SetupEv] }, align 8
@_ZTSN4absl12_GLOBAL__N_128Compare_PartialOrdering_TestE = internal constant [52 x i8] c"N4absl12_GLOBAL__N_128Compare_PartialOrdering_TestE\00", align 1
@_ZTIN7testing4TestE = external constant ptr
@_ZTIN4absl12_GLOBAL__N_128Compare_PartialOrdering_TestE = internal constant { ptr, ptr, ptr } { ptr getelementptr inbounds (ptr, ptr @_ZTVN10__cxxabiv120__si_class_type_infoE, i64 2), ptr @_ZTSN4absl12_GLOBAL__N_128Compare_PartialOrdering_TestE, ptr @_ZTIN7testing4TestE }, align 8
@_ZN4absl16partial_ordering4lessE = linkonce_odr dso_local constant %"class.absl::partial_ordering" { i8 -1 }, comdat, align 1
@.str.21 = private unnamed_addr constant [37 x i8] c"Identity(partial_ordering::less < 0)\00", align 1
@.str.22 = private unnamed_addr constant [6 x i8] c"false\00", align 1
@.str.23 = private unnamed_addr constant [5 x i8] c"true\00", align 1
@.str.24 = private unnamed_addr constant [37 x i8] c"Identity(0 > partial_ordering::less)\00", align 1
@.str.25 = private unnamed_addr constant [38 x i8] c"Identity(partial_ordering::less <= 0)\00", align 1
@.str.26 = private unnamed_addr constant [38 x i8] c"Identity(0 >= partial_ordering::less)\00", align 1
@_ZN4absl16partial_ordering10equivalentE = linkonce_odr dso_local constant %"class.absl::partial_ordering" zeroinitializer, comdat, align 1
@.str.27 = private unnamed_addr constant [44 x i8] c"Identity(partial_ordering::equivalent == 0)\00", align 1
@.str.28 = private unnamed_addr constant [44 x i8] c"Identity(0 == partial_ordering::equivalent)\00", align 1
@_ZN4absl16partial_ordering7greaterE = linkonce_odr dso_local constant %"class.absl::partial_ordering" { i8 1 }, comdat, align 1
@.str.29 = private unnamed_addr constant [40 x i8] c"Identity(partial_ordering::greater > 0)\00", align 1
@.str.30 = private unnamed_addr constant [40 x i8] c"Identity(0 < partial_ordering::greater)\00", align 1
@.str.31 = private unnamed_addr constant [41 x i8] c"Identity(partial_ordering::greater >= 0)\00", align 1
@.str.32 = private unnamed_addr constant [41 x i8] c"Identity(0 <= partial_ordering::greater)\00", align 1
@_ZN4absl16partial_ordering9unorderedE = linkonce_odr dso_local constant %"class.absl::partial_ordering" { i8 -127 }, comdat, align 1
@.str.33 = private unnamed_addr constant [43 x i8] c"Identity(partial_ordering::unordered != 0)\00", align 1
@.str.34 = private unnamed_addr constant [43 x i8] c"Identity(0 != partial_ordering::unordered)\00", align 1
@.str.35 = private unnamed_addr constant [42 x i8] c"Identity(partial_ordering::unordered < 0)\00", align 1
@.str.36 = private unnamed_addr constant [42 x i8] c"Identity(0 < partial_ordering::unordered)\00", align 1
@.str.37 = private unnamed_addr constant [43 x i8] c"Identity(partial_ordering::unordered <= 0)\00", align 1
@.str.38 = private unnamed_addr constant [43 x i8] c"Identity(0 <= partial_ordering::unordered)\00", align 1
@.str.39 = private unnamed_addr constant [42 x i8] c"Identity(partial_ordering::unordered > 0)\00", align 1
@.str.40 = private unnamed_addr constant [42 x i8] c"Identity(0 > partial_ordering::unordered)\00", align 1
@.str.41 = private unnamed_addr constant [43 x i8] c"Identity(partial_ordering::unordered >= 0)\00", align 1
@.str.42 = private unnamed_addr constant [43 x i8] c"Identity(0 >= partial_ordering::unordered)\00", align 1
@.str.43 = private unnamed_addr constant [11 x i8] c"lhs == rhs\00", align 1
@.str.44 = private unnamed_addr constant [10 x i8] c"are_equal\00", align 1
@.str.45 = private unnamed_addr constant [11 x i8] c"lhs != rhs\00", align 1
@.str.46 = private unnamed_addr constant [11 x i8] c"!are_equal\00", align 1
@.str.47 = private unnamed_addr constant [1 x i8] zeroinitializer, align 1
@_ZTVN7testing8internal15TestFactoryImplIN4absl12_GLOBAL__N_125Compare_WeakOrdering_TestEEE = internal unnamed_addr constant { [5 x ptr] } { [5 x ptr] [ptr null, ptr @_ZTIN7testing8internal15TestFactoryImplIN4absl12_GLOBAL__N_125Compare_WeakOrdering_TestEEE, ptr @_ZN7testing8internal15TestFactoryImplIN4absl12_GLOBAL__N_125Compare_WeakOrdering_TestEED2Ev, ptr @_ZN7testing8internal15TestFactoryImplIN4absl12_GLOBAL__N_125Compare_WeakOrdering_TestEED0Ev, ptr @_ZN7testing8internal15TestFactoryImplIN4absl12_GLOBAL__N_125Compare_WeakOrdering_TestEE10CreateTestEv] }, align 8
@_ZTSN7testing8internal15TestFactoryImplIN4absl12_GLOBAL__N_125Compare_WeakOrdering_TestEEE = internal constant [87 x i8] c"N7testing8internal15TestFactoryImplIN4absl12_GLOBAL__N_125Compare_WeakOrdering_TestEEE\00", align 1
@_ZTIN7testing8internal15TestFactoryImplIN4absl12_GLOBAL__N_125Compare_WeakOrdering_TestEEE = internal constant { ptr, ptr, ptr } { ptr getelementptr inbounds (ptr, ptr @_ZTVN10__cxxabiv120__si_class_type_infoE, i64 2), ptr @_ZTSN7testing8internal15TestFactoryImplIN4absl12_GLOBAL__N_125Compare_WeakOrdering_TestEEE, ptr @_ZTIN7testing8internal15TestFactoryBaseE }, align 8
@_ZTVN4absl12_GLOBAL__N_125Compare_WeakOrdering_TestE = internal unnamed_addr constant { [8 x ptr] } { [8 x ptr] [ptr null, ptr @_ZTIN4absl12_GLOBAL__N_125Compare_WeakOrdering_TestE, ptr @_ZN4absl12_GLOBAL__N_125Compare_WeakOrdering_TestD2Ev, ptr @_ZN4absl12_GLOBAL__N_125Compare_WeakOrdering_TestD0Ev, ptr @_ZN7testing4Test5SetUpEv, ptr @_ZN7testing4Test8TearDownEv, ptr @_ZN4absl12_GLOBAL__N_125Compare_WeakOrdering_Test8TestBodyEv, ptr @_ZN7testing4Test5SetupEv] }, align 8
@_ZTSN4absl12_GLOBAL__N_125Compare_WeakOrdering_TestE = internal constant [49 x i8] c"N4absl12_GLOBAL__N_125Compare_WeakOrdering_TestE\00", align 1
@_ZTIN4absl12_GLOBAL__N_125Compare_WeakOrdering_TestE = internal constant { ptr, ptr, ptr } { ptr getelementptr inbounds (ptr, ptr @_ZTVN10__cxxabiv120__si_class_type_infoE, i64 2), ptr @_ZTSN4absl12_GLOBAL__N_125Compare_WeakOrdering_TestE, ptr @_ZTIN7testing4TestE }, align 8
@_ZN4absl13weak_ordering4lessE = linkonce_odr dso_local constant %"class.absl::weak_ordering" { i8 -1 }, comdat, align 1
@.str.48 = private unnamed_addr constant [34 x i8] c"Identity(weak_ordering::less < 0)\00", align 1
@.str.49 = private unnamed_addr constant [34 x i8] c"Identity(0 > weak_ordering::less)\00", align 1
@.str.50 = private unnamed_addr constant [35 x i8] c"Identity(weak_ordering::less <= 0)\00", align 1
@.str.51 = private unnamed_addr constant [35 x i8] c"Identity(0 >= weak_ordering::less)\00", align 1
@_ZN4absl13weak_ordering10equivalentE = linkonce_odr dso_local constant %"class.absl::weak_ordering" zeroinitializer, comdat, align 1
@.str.52 = private unnamed_addr constant [41 x i8] c"Identity(weak_ordering::equivalent == 0)\00", align 1
@.str.53 = private unnamed_addr constant [41 x i8] c"Identity(0 == weak_ordering::equivalent)\00", align 1
@_ZN4absl13weak_ordering7greaterE = linkonce_odr dso_local constant %"class.absl::weak_ordering" { i8 1 }, comdat, align 1
@.str.54 = private unnamed_addr constant [37 x i8] c"Identity(weak_ordering::greater > 0)\00", align 1
@.str.55 = private unnamed_addr constant [37 x i8] c"Identity(0 < weak_ordering::greater)\00", align 1
@.str.56 = private unnamed_addr constant [38 x i8] c"Identity(weak_ordering::greater >= 0)\00", align 1
@.str.57 = private unnamed_addr constant [38 x i8] c"Identity(0 <= weak_ordering::greater)\00", align 1
@_ZTVN7testing8internal15TestFactoryImplIN4absl12_GLOBAL__N_127Compare_StrongOrdering_TestEEE = internal unnamed_addr constant { [5 x ptr] } { [5 x ptr] [ptr null, ptr @_ZTIN7testing8internal15TestFactoryImplIN4absl12_GLOBAL__N_127Compare_StrongOrdering_TestEEE, ptr @_ZN7testing8internal15TestFactoryImplIN4absl12_GLOBAL__N_127Compare_StrongOrdering_TestEED2Ev, ptr @_ZN7testing8internal15TestFactoryImplIN4absl12_GLOBAL__N_127Compare_StrongOrdering_TestEED0Ev, ptr @_ZN7testing8internal15TestFactoryImplIN4absl12_GLOBAL__N_127Compare_StrongOrdering_TestEE10CreateTestEv] }, align 8
@_ZTSN7testing8internal15TestFactoryImplIN4absl12_GLOBAL__N_127Compare_StrongOrdering_TestEEE = internal constant [89 x i8] c"N7testing8internal15TestFactoryImplIN4absl12_GLOBAL__N_127Compare_StrongOrdering_TestEEE\00", align 1
@_ZTIN7testing8internal15TestFactoryImplIN4absl12_GLOBAL__N_127Compare_StrongOrdering_TestEEE = internal constant { ptr, ptr, ptr } { ptr getelementptr inbounds (ptr, ptr @_ZTVN10__cxxabiv120__si_class_type_infoE, i64 2), ptr @_ZTSN7testing8internal15TestFactoryImplIN4absl12_GLOBAL__N_127Compare_StrongOrdering_TestEEE, ptr @_ZTIN7testing8internal15TestFactoryBaseE }, align 8
@_ZTVN4absl12_GLOBAL__N_127Compare_StrongOrdering_TestE = internal unnamed_addr constant { [8 x ptr] } { [8 x ptr] [ptr null, ptr @_ZTIN4absl12_GLOBAL__N_127Compare_StrongOrdering_TestE, ptr @_ZN4absl12_GLOBAL__N_127Compare_StrongOrdering_TestD2Ev, ptr @_ZN4absl12_GLOBAL__N_127Compare_StrongOrdering_TestD0Ev, ptr @_ZN7testing4Test5SetUpEv, ptr @_ZN7testing4Test8TearDownEv, ptr @_ZN4absl12_GLOBAL__N_127Compare_StrongOrdering_Test8TestBodyEv, ptr @_ZN7testing4Test5SetupEv] }, align 8
@_ZTSN4absl12_GLOBAL__N_127Compare_StrongOrdering_TestE = internal constant [51 x i8] c"N4absl12_GLOBAL__N_127Compare_StrongOrdering_TestE\00", align 1
@_ZTIN4absl12_GLOBAL__N_127Compare_StrongOrdering_TestE = internal constant { ptr, ptr, ptr } { ptr getelementptr inbounds (ptr, ptr @_ZTVN10__cxxabiv120__si_class_type_infoE, i64 2), ptr @_ZTSN4absl12_GLOBAL__N_127Compare_StrongOrdering_TestE, ptr @_ZTIN7testing4TestE }, align 8
@_ZN4absl15strong_ordering4lessE = linkonce_odr dso_local constant %"class.absl::strong_ordering" { i8 -1 }, comdat, align 1
@.str.58 = private unnamed_addr constant [36 x i8] c"Identity(strong_ordering::less < 0)\00", align 1
@.str.59 = private unnamed_addr constant [36 x i8] c"Identity(0 > strong_ordering::less)\00", align 1
@.str.60 = private unnamed_addr constant [37 x i8] c"Identity(strong_ordering::less <= 0)\00", align 1
@.str.61 = private unnamed_addr constant [37 x i8] c"Identity(0 >= strong_ordering::less)\00", align 1
@_ZN4absl15strong_ordering5equalE = linkonce_odr dso_local constant %"class.absl::strong_ordering" zeroinitializer, comdat, align 1
@.str.62 = private unnamed_addr constant [38 x i8] c"Identity(strong_ordering::equal == 0)\00", align 1
@.str.63 = private unnamed_addr constant [38 x i8] c"Identity(0 == strong_ordering::equal)\00", align 1
@_ZN4absl15strong_ordering10equivalentE = linkonce_odr dso_local constant %"class.absl::strong_ordering" zeroinitializer, comdat, align 1
@.str.64 = private unnamed_addr constant [43 x i8] c"Identity(strong_ordering::equivalent == 0)\00", align 1
@.str.65 = private unnamed_addr constant [43 x i8] c"Identity(0 == strong_ordering::equivalent)\00", align 1
@_ZN4absl15strong_ordering7greaterE = linkonce_odr dso_local constant %"class.absl::strong_ordering" { i8 1 }, comdat, align 1
@.str.66 = private unnamed_addr constant [39 x i8] c"Identity(strong_ordering::greater > 0)\00", align 1
@.str.67 = private unnamed_addr constant [39 x i8] c"Identity(0 < strong_ordering::greater)\00", align 1
@.str.68 = private unnamed_addr constant [40 x i8] c"Identity(strong_ordering::greater >= 0)\00", align 1
@.str.69 = private unnamed_addr constant [40 x i8] c"Identity(0 <= strong_ordering::greater)\00", align 1
@.str.70 = private unnamed_addr constant [64 x i8] c"Identity(strong_ordering::equivalent == strong_ordering::equal)\00", align 1
@_ZTVN7testing8internal15TestFactoryImplIN4absl12_GLOBAL__N_124Compare_Conversions_TestEEE = internal unnamed_addr constant { [5 x ptr] } { [5 x ptr] [ptr null, ptr @_ZTIN7testing8internal15TestFactoryImplIN4absl12_GLOBAL__N_124Compare_Conversions_TestEEE, ptr @_ZN7testing8internal15TestFactoryImplIN4absl12_GLOBAL__N_124Compare_Conversions_TestEED2Ev, ptr @_ZN7testing8internal15TestFactoryImplIN4absl12_GLOBAL__N_124Compare_Conversions_TestEED0Ev, ptr @_ZN7testing8internal15TestFactoryImplIN4absl12_GLOBAL__N_124Compare_Conversions_TestEE10CreateTestEv] }, align 8
@_ZTSN7testing8internal15TestFactoryImplIN4absl12_GLOBAL__N_124Compare_Conversions_TestEEE = internal constant [86 x i8] c"N7testing8internal15TestFactoryImplIN4absl12_GLOBAL__N_124Compare_Conversions_TestEEE\00", align 1
@_ZTIN7testing8internal15TestFactoryImplIN4absl12_GLOBAL__N_124Compare_Conversions_TestEEE = internal constant { ptr, ptr, ptr } { ptr getelementptr inbounds (ptr, ptr @_ZTVN10__cxxabiv120__si_class_type_infoE, i64 2), ptr @_ZTSN7testing8internal15TestFactoryImplIN4absl12_GLOBAL__N_124Compare_Conversions_TestEEE, ptr @_ZTIN7testing8internal15TestFactoryBaseE }, align 8
@_ZTVN4absl12_GLOBAL__N_124Compare_Conversions_TestE = internal unnamed_addr constant { [8 x ptr] } { [8 x ptr] [ptr null, ptr @_ZTIN4absl12_GLOBAL__N_124Compare_Conversions_TestE, ptr @_ZN4absl12_GLOBAL__N_124Compare_Conversions_TestD2Ev, ptr @_ZN4absl12_GLOBAL__N_124Compare_Conversions_TestD0Ev, ptr @_ZN7testing4Test5SetUpEv, ptr @_ZN7testing4Test8TearDownEv, ptr @_ZN4absl12_GLOBAL__N_124Compare_Conversions_Test8TestBodyEv, ptr @_ZN7testing4Test5SetupEv] }, align 8
@_ZTSN4absl12_GLOBAL__N_124Compare_Conversions_TestE = internal constant [48 x i8] c"N4absl12_GLOBAL__N_124Compare_Conversions_TestE\00", align 1
@_ZTIN4absl12_GLOBAL__N_124Compare_Conversions_TestE = internal constant { ptr, ptr, ptr } { ptr getelementptr inbounds (ptr, ptr @_ZTVN10__cxxabiv120__si_class_type_infoE, i64 2), ptr @_ZTSN4absl12_GLOBAL__N_124Compare_Conversions_TestE, ptr @_ZTIN7testing4TestE }, align 8
@.str.71 = private unnamed_addr constant [68 x i8] c"Identity(implicit_cast<partial_ordering>(weak_ordering::less) != 0)\00", align 1
@.str.72 = private unnamed_addr constant [67 x i8] c"Identity(implicit_cast<partial_ordering>(weak_ordering::less) < 0)\00", align 1
@.str.73 = private unnamed_addr constant [68 x i8] c"Identity(implicit_cast<partial_ordering>(weak_ordering::less) <= 0)\00", align 1
@.str.74 = private unnamed_addr constant [75 x i8] c"Identity( implicit_cast<partial_ordering>(weak_ordering::equivalent) == 0)\00", align 1
@.str.75 = private unnamed_addr constant [71 x i8] c"Identity(implicit_cast<partial_ordering>(weak_ordering::greater) != 0)\00", align 1
@.str.76 = private unnamed_addr constant [70 x i8] c"Identity(implicit_cast<partial_ordering>(weak_ordering::greater) > 0)\00", align 1
@.str.77 = private unnamed_addr constant [71 x i8] c"Identity(implicit_cast<partial_ordering>(weak_ordering::greater) >= 0)\00", align 1
@.str.78 = private unnamed_addr constant [70 x i8] c"Identity(implicit_cast<partial_ordering>(strong_ordering::less) != 0)\00", align 1
@.str.79 = private unnamed_addr constant [69 x i8] c"Identity(implicit_cast<partial_ordering>(strong_ordering::less) < 0)\00", align 1
@.str.80 = private unnamed_addr constant [70 x i8] c"Identity(implicit_cast<partial_ordering>(strong_ordering::less) <= 0)\00", align 1
@.str.81 = private unnamed_addr constant [71 x i8] c"Identity(implicit_cast<partial_ordering>(strong_ordering::equal) == 0)\00", align 1
@.str.82 = private unnamed_addr constant [77 x i8] c"Identity( implicit_cast<partial_ordering>(strong_ordering::equivalent) == 0)\00", align 1
@.str.83 = private unnamed_addr constant [73 x i8] c"Identity(implicit_cast<partial_ordering>(strong_ordering::greater) != 0)\00", align 1
@.str.84 = private unnamed_addr constant [72 x i8] c"Identity(implicit_cast<partial_ordering>(strong_ordering::greater) > 0)\00", align 1
@.str.85 = private unnamed_addr constant [73 x i8] c"Identity(implicit_cast<partial_ordering>(strong_ordering::greater) >= 0)\00", align 1
@.str.86 = private unnamed_addr constant [67 x i8] c"Identity(implicit_cast<weak_ordering>(strong_ordering::less) != 0)\00", align 1
@.str.87 = private unnamed_addr constant [66 x i8] c"Identity(implicit_cast<weak_ordering>(strong_ordering::less) < 0)\00", align 1
@.str.88 = private unnamed_addr constant [67 x i8] c"Identity(implicit_cast<weak_ordering>(strong_ordering::less) <= 0)\00", align 1
@.str.89 = private unnamed_addr constant [68 x i8] c"Identity(implicit_cast<weak_ordering>(strong_ordering::equal) == 0)\00", align 1
@.str.90 = private unnamed_addr constant [73 x i8] c"Identity(implicit_cast<weak_ordering>(strong_ordering::equivalent) == 0)\00", align 1
@.str.91 = private unnamed_addr constant [70 x i8] c"Identity(implicit_cast<weak_ordering>(strong_ordering::greater) != 0)\00", align 1
@.str.92 = private unnamed_addr constant [69 x i8] c"Identity(implicit_cast<weak_ordering>(strong_ordering::greater) > 0)\00", align 1
@.str.93 = private unnamed_addr constant [70 x i8] c"Identity(implicit_cast<weak_ordering>(strong_ordering::greater) >= 0)\00", align 1
@_ZTVN7testing8internal15TestFactoryImplIN4absl12_GLOBAL__N_139CompareResultAsLessThan_SanityTest_TestEEE = internal unnamed_addr constant { [5 x ptr] } { [5 x ptr] [ptr null, ptr @_ZTIN7testing8internal15TestFactoryImplIN4absl12_GLOBAL__N_139CompareResultAsLessThan_SanityTest_TestEEE, ptr @_ZN7testing8internal15TestFactoryImplIN4absl12_GLOBAL__N_139CompareResultAsLessThan_SanityTest_TestEED2Ev, ptr @_ZN7testing8internal15TestFactoryImplIN4absl12_GLOBAL__N_139CompareResultAsLessThan_SanityTest_TestEED0Ev, ptr @_ZN7testing8internal15TestFactoryImplIN4absl12_GLOBAL__N_139CompareResultAsLessThan_SanityTest_TestEE10CreateTestEv] }, align 8
@_ZTSN7testing8internal15TestFactoryImplIN4absl12_GLOBAL__N_139CompareResultAsLessThan_SanityTest_TestEEE = internal constant [101 x i8] c"N7testing8internal15TestFactoryImplIN4absl12_GLOBAL__N_139CompareResultAsLessThan_SanityTest_TestEEE\00", align 1
@_ZTIN7testing8internal15TestFactoryImplIN4absl12_GLOBAL__N_139CompareResultAsLessThan_SanityTest_TestEEE = internal constant { ptr, ptr, ptr } { ptr getelementptr inbounds (ptr, ptr @_ZTVN10__cxxabiv120__si_class_type_infoE, i64 2), ptr @_ZTSN7testing8internal15TestFactoryImplIN4absl12_GLOBAL__N_139CompareResultAsLessThan_SanityTest_TestEEE, ptr @_ZTIN7testing8internal15TestFactoryBaseE }, align 8
@_ZTVN4absl12_GLOBAL__N_139CompareResultAsLessThan_SanityTest_TestE = internal unnamed_addr constant { [8 x ptr] } { [8 x ptr] [ptr null, ptr @_ZTIN4absl12_GLOBAL__N_139CompareResultAsLessThan_SanityTest_TestE, ptr @_ZN4absl12_GLOBAL__N_139CompareResultAsLessThan_SanityTest_TestD2Ev, ptr @_ZN4absl12_GLOBAL__N_139CompareResultAsLessThan_SanityTest_TestD0Ev, ptr @_ZN7testing4Test5SetUpEv, ptr @_ZN7testing4Test8TearDownEv, ptr @_ZN4absl12_GLOBAL__N_139CompareResultAsLessThan_SanityTest_Test8TestBodyEv, ptr @_ZN7testing4Test5SetupEv] }, align 8
@_ZTSN4absl12_GLOBAL__N_139CompareResultAsLessThan_SanityTest_TestE = internal constant [63 x i8] c"N4absl12_GLOBAL__N_139CompareResultAsLessThan_SanityTest_TestE\00", align 1
@_ZTIN4absl12_GLOBAL__N_139CompareResultAsLessThan_SanityTest_TestE = internal constant { ptr, ptr, ptr } { ptr getelementptr inbounds (ptr, ptr @_ZTVN10__cxxabiv120__si_class_type_infoE, i64 2), ptr @_ZTSN4absl12_GLOBAL__N_139CompareResultAsLessThan_SanityTest_TestE, ptr @_ZTIN7testing4TestE }, align 8
@.str.94 = private unnamed_addr constant [59 x i8] c"absl::compare_internal::compare_result_as_less_than(false)\00", align 1
@.str.95 = private unnamed_addr constant [58 x i8] c"absl::compare_internal::compare_result_as_less_than(true)\00", align 1
@.str.96 = private unnamed_addr constant [73 x i8] c"absl::compare_internal::compare_result_as_less_than(weak_ordering::less)\00", align 1
@.str.97 = private unnamed_addr constant [80 x i8] c"absl::compare_internal::compare_result_as_less_than( weak_ordering::equivalent)\00", align 1
@.str.98 = private unnamed_addr constant [77 x i8] c"absl::compare_internal::compare_result_as_less_than( weak_ordering::greater)\00", align 1
@_ZTVN7testing8internal15TestFactoryImplIN4absl12_GLOBAL__N_136DoLessThanComparison_SanityTest_TestEEE = internal unnamed_addr constant { [5 x ptr] } { [5 x ptr] [ptr null, ptr @_ZTIN7testing8internal15TestFactoryImplIN4absl12_GLOBAL__N_136DoLessThanComparison_SanityTest_TestEEE, ptr @_ZN7testing8internal15TestFactoryImplIN4absl12_GLOBAL__N_136DoLessThanComparison_SanityTest_TestEED2Ev, ptr @_ZN7testing8internal15TestFactoryImplIN4absl12_GLOBAL__N_136DoLessThanComparison_SanityTest_TestEED0Ev, ptr @_ZN7testing8internal15TestFactoryImplIN4absl12_GLOBAL__N_136DoLessThanComparison_SanityTest_TestEE10CreateTestEv] }, align 8
@_ZTSN7testing8internal15TestFactoryImplIN4absl12_GLOBAL__N_136DoLessThanComparison_SanityTest_TestEEE = internal constant [98 x i8] c"N7testing8internal15TestFactoryImplIN4absl12_GLOBAL__N_136DoLessThanComparison_SanityTest_TestEEE\00", align 1
@_ZTIN7testing8internal15TestFactoryImplIN4absl12_GLOBAL__N_136DoLessThanComparison_SanityTest_TestEEE = internal constant { ptr, ptr, ptr } { ptr getelementptr inbounds (ptr, ptr @_ZTVN10__cxxabiv120__si_class_type_infoE, i64 2), ptr @_ZTSN7testing8internal15TestFactoryImplIN4absl12_GLOBAL__N_136DoLessThanComparison_SanityTest_TestEEE, ptr @_ZTIN7testing8internal15TestFactoryBaseE }, align 8
@_ZTVN4absl12_GLOBAL__N_136DoLessThanComparison_SanityTest_TestE = internal unnamed_addr constant { [8 x ptr] } { [8 x ptr] [ptr null, ptr @_ZTIN4absl12_GLOBAL__N_136DoLessThanComparison_SanityTest_TestE, ptr @_ZN4absl12_GLOBAL__N_136DoLessThanComparison_SanityTest_TestD2Ev, ptr @_ZN4absl12_GLOBAL__N_136DoLessThanComparison_SanityTest_TestD0Ev, ptr @_ZN7testing4Test5SetUpEv, ptr @_ZN7testing4Test8TearDownEv, ptr @_ZN4absl12_GLOBAL__N_136DoLessThanComparison_SanityTest_Test8TestBodyEv, ptr @_ZN7testing4Test5SetupEv] }, align 8
@_ZTSN4absl12_GLOBAL__N_136DoLessThanComparison_SanityTest_TestE = internal constant [60 x i8] c"N4absl12_GLOBAL__N_136DoLessThanComparison_SanityTest_TestE\00", align 1
@_ZTIN4absl12_GLOBAL__N_136DoLessThanComparison_SanityTest_TestE = internal constant { ptr, ptr, ptr } { ptr getelementptr inbounds (ptr, ptr @_ZTVN10__cxxabiv120__si_class_type_infoE, i64 2), ptr @_ZTSN4absl12_GLOBAL__N_136DoLessThanComparison_SanityTest_TestE, ptr @_ZTIN7testing4TestE }, align 8
@.str.99 = private unnamed_addr constant [61 x i8] c"absl::compare_internal::do_less_than_comparison(less, -1, 0)\00", align 1
@.str.100 = private unnamed_addr constant [61 x i8] c"absl::compare_internal::do_less_than_comparison(weak, -1, 0)\00", align 1
@.str.101 = private unnamed_addr constant [62 x i8] c"absl::compare_internal::do_less_than_comparison(less, 10, 10)\00", align 1
@.str.102 = private unnamed_addr constant [62 x i8] c"absl::compare_internal::do_less_than_comparison(weak, 10, 10)\00", align 1
@.str.103 = private unnamed_addr constant [61 x i8] c"absl::compare_internal::do_less_than_comparison(less, 10, 5)\00", align 1
@.str.104 = private unnamed_addr constant [61 x i8] c"absl::compare_internal::do_less_than_comparison(weak, 10, 5)\00", align 1
@_ZTVN7testing8internal15TestFactoryImplIN4absl12_GLOBAL__N_139CompareResultAsOrdering_SanityTest_TestEEE = internal unnamed_addr constant { [5 x ptr] } { [5 x ptr] [ptr null, ptr @_ZTIN7testing8internal15TestFactoryImplIN4absl12_GLOBAL__N_139CompareResultAsOrdering_SanityTest_TestEEE, ptr @_ZN7testing8internal15TestFactoryImplIN4absl12_GLOBAL__N_139CompareResultAsOrdering_SanityTest_TestEED2Ev, ptr @_ZN7testing8internal15TestFactoryImplIN4absl12_GLOBAL__N_139CompareResultAsOrdering_SanityTest_TestEED0Ev, ptr @_ZN7testing8internal15TestFactoryImplIN4absl12_GLOBAL__N_139CompareResultAsOrdering_SanityTest_TestEE10CreateTestEv] }, align 8
@_ZTSN7testing8internal15TestFactoryImplIN4absl12_GLOBAL__N_139CompareResultAsOrdering_SanityTest_TestEEE = internal constant [101 x i8] c"N7testing8internal15TestFactoryImplIN4absl12_GLOBAL__N_139CompareResultAsOrdering_SanityTest_TestEEE\00", align 1
@_ZTIN7testing8internal15TestFactoryImplIN4absl12_GLOBAL__N_139CompareResultAsOrdering_SanityTest_TestEEE = internal constant { ptr, ptr, ptr } { ptr getelementptr inbounds (ptr, ptr @_ZTVN10__cxxabiv120__si_class_type_infoE, i64 2), ptr @_ZTSN7testing8internal15TestFactoryImplIN4absl12_GLOBAL__N_139CompareResultAsOrdering_SanityTest_TestEEE, ptr @_ZTIN7testing8internal15TestFactoryBaseE }, align 8
@_ZTVN4absl12_GLOBAL__N_139CompareResultAsOrdering_SanityTest_TestE = internal unnamed_addr constant { [8 x ptr] } { [8 x ptr] [ptr null, ptr @_ZTIN4absl12_GLOBAL__N_139CompareResultAsOrdering_SanityTest_TestE, ptr @_ZN4absl12_GLOBAL__N_139CompareResultAsOrdering_SanityTest_TestD2Ev, ptr @_ZN4absl12_GLOBAL__N_139CompareResultAsOrdering_SanityTest_TestD0Ev, ptr @_ZN7testing4Test5SetUpEv, ptr @_ZN7testing4Test8TearDownEv, ptr @_ZN4absl12_GLOBAL__N_139CompareResultAsOrdering_SanityTest_Test8TestBodyEv, ptr @_ZN7testing4Test5SetupEv] }, align 8
@_ZTSN4absl12_GLOBAL__N_139CompareResultAsOrdering_SanityTest_TestE = internal constant [63 x i8] c"N4absl12_GLOBAL__N_139CompareResultAsOrdering_SanityTest_TestE\00", align 1
@_ZTIN4absl12_GLOBAL__N_139CompareResultAsOrdering_SanityTest_TestE = internal constant { ptr, ptr, ptr } { ptr getelementptr inbounds (ptr, ptr @_ZTVN10__cxxabiv120__si_class_type_infoE, i64 2), ptr @_ZTSN4absl12_GLOBAL__N_139CompareResultAsOrdering_SanityTest_TestE, ptr @_ZTIN7testing4TestE }, align 8
@.str.105 = private unnamed_addr constant [69 x i8] c"Identity(absl::compare_internal::compare_result_as_ordering(-1) < 0)\00", align 1
@.str.106 = private unnamed_addr constant [70 x i8] c"Identity(absl::compare_internal::compare_result_as_ordering(-1) == 0)\00", align 1
@.str.107 = private unnamed_addr constant [69 x i8] c"Identity(absl::compare_internal::compare_result_as_ordering(-1) > 0)\00", align 1
@.str.108 = private unnamed_addr constant [87 x i8] c"Identity(absl::compare_internal::compare_result_as_ordering( weak_ordering::less) < 0)\00", align 1
@.str.109 = private unnamed_addr constant [88 x i8] c"Identity(absl::compare_internal::compare_result_as_ordering( weak_ordering::less) == 0)\00", align 1
@.str.110 = private unnamed_addr constant [87 x i8] c"Identity(absl::compare_internal::compare_result_as_ordering( weak_ordering::less) > 0)\00", align 1
@.str.111 = private unnamed_addr constant [68 x i8] c"Identity(absl::compare_internal::compare_result_as_ordering(0) < 0)\00", align 1
@.str.112 = private unnamed_addr constant [69 x i8] c"Identity(absl::compare_internal::compare_result_as_ordering(0) == 0)\00", align 1
@.str.113 = private unnamed_addr constant [68 x i8] c"Identity(absl::compare_internal::compare_result_as_ordering(0) > 0)\00", align 1
@.str.114 = private unnamed_addr constant [93 x i8] c"Identity(absl::compare_internal::compare_result_as_ordering( weak_ordering::equivalent) < 0)\00", align 1
@.str.115 = private unnamed_addr constant [94 x i8] c"Identity(absl::compare_internal::compare_result_as_ordering( weak_ordering::equivalent) == 0)\00", align 1
@.str.116 = private unnamed_addr constant [93 x i8] c"Identity(absl::compare_internal::compare_result_as_ordering( weak_ordering::equivalent) > 0)\00", align 1
@.str.117 = private unnamed_addr constant [68 x i8] c"Identity(absl::compare_internal::compare_result_as_ordering(1) < 0)\00", align 1
@.str.118 = private unnamed_addr constant [69 x i8] c"Identity(absl::compare_internal::compare_result_as_ordering(1) == 0)\00", align 1
@.str.119 = private unnamed_addr constant [68 x i8] c"Identity(absl::compare_internal::compare_result_as_ordering(1) > 0)\00", align 1
@.str.120 = private unnamed_addr constant [90 x i8] c"Identity(absl::compare_internal::compare_result_as_ordering( weak_ordering::greater) < 0)\00", align 1
@.str.121 = private unnamed_addr constant [91 x i8] c"Identity(absl::compare_internal::compare_result_as_ordering( weak_ordering::greater) == 0)\00", align 1
@.str.122 = private unnamed_addr constant [90 x i8] c"Identity(absl::compare_internal::compare_result_as_ordering( weak_ordering::greater) > 0)\00", align 1
@_ZTVN7testing8internal15TestFactoryImplIN4absl12_GLOBAL__N_136DoThreeWayComparison_SanityTest_TestEEE = internal unnamed_addr constant { [5 x ptr] } { [5 x ptr] [ptr null, ptr @_ZTIN7testing8internal15TestFactoryImplIN4absl12_GLOBAL__N_136DoThreeWayComparison_SanityTest_TestEEE, ptr @_ZN7testing8internal15TestFactoryImplIN4absl12_GLOBAL__N_136DoThreeWayComparison_SanityTest_TestEED2Ev, ptr @_ZN7testing8internal15TestFactoryImplIN4absl12_GLOBAL__N_136DoThreeWayComparison_SanityTest_TestEED0Ev, ptr @_ZN7testing8internal15TestFactoryImplIN4absl12_GLOBAL__N_136DoThreeWayComparison_SanityTest_TestEE10CreateTestEv] }, align 8
@_ZTSN7testing8internal15TestFactoryImplIN4absl12_GLOBAL__N_136DoThreeWayComparison_SanityTest_TestEEE = internal constant [98 x i8] c"N7testing8internal15TestFactoryImplIN4absl12_GLOBAL__N_136DoThreeWayComparison_SanityTest_TestEEE\00", align 1
@_ZTIN7testing8internal15TestFactoryImplIN4absl12_GLOBAL__N_136DoThreeWayComparison_SanityTest_TestEEE = internal constant { ptr, ptr, ptr } { ptr getelementptr inbounds (ptr, ptr @_ZTVN10__cxxabiv120__si_class_type_infoE, i64 2), ptr @_ZTSN7testing8internal15TestFactoryImplIN4absl12_GLOBAL__N_136DoThreeWayComparison_SanityTest_TestEEE, ptr @_ZTIN7testing8internal15TestFactoryBaseE }, align 8
@_ZTVN4absl12_GLOBAL__N_136DoThreeWayComparison_SanityTest_TestE = internal unnamed_addr constant { [8 x ptr] } { [8 x ptr] [ptr null, ptr @_ZTIN4absl12_GLOBAL__N_136DoThreeWayComparison_SanityTest_TestE, ptr @_ZN4absl12_GLOBAL__N_136DoThreeWayComparison_SanityTest_TestD2Ev, ptr @_ZN4absl12_GLOBAL__N_136DoThreeWayComparison_SanityTest_TestD0Ev, ptr @_ZN7testing4Test5SetUpEv, ptr @_ZN7testing4Test8TearDownEv, ptr @_ZN4absl12_GLOBAL__N_136DoThreeWayComparison_SanityTest_Test8TestBodyEv, ptr @_ZN7testing4Test5SetupEv] }, align 8
@_ZTSN4absl12_GLOBAL__N_136DoThreeWayComparison_SanityTest_TestE = internal constant [60 x i8] c"N4absl12_GLOBAL__N_136DoThreeWayComparison_SanityTest_TestE\00", align 1
@_ZTIN4absl12_GLOBAL__N_136DoThreeWayComparison_SanityTest_TestE = internal constant { ptr, ptr, ptr } { ptr getelementptr inbounds (ptr, ptr @_ZTVN10__cxxabiv120__si_class_type_infoE, i64 2), ptr @_ZTSN4absl12_GLOBAL__N_136DoThreeWayComparison_SanityTest_TestE, ptr @_ZTIN7testing4TestE }, align 8
@.str.123 = private unnamed_addr constant [76 x i8] c"Identity( absl::compare_internal::do_three_way_comparison(less, -1, 0) < 0)\00", align 1
@.str.124 = private unnamed_addr constant [77 x i8] c"Identity( absl::compare_internal::do_three_way_comparison(less, -1, 0) == 0)\00", align 1
@.str.125 = private unnamed_addr constant [76 x i8] c"Identity( absl::compare_internal::do_three_way_comparison(less, -1, 0) > 0)\00", align 1
@.str.126 = private unnamed_addr constant [76 x i8] c"Identity( absl::compare_internal::do_three_way_comparison(weak, -1, 0) < 0)\00", align 1
@.str.127 = private unnamed_addr constant [77 x i8] c"Identity( absl::compare_internal::do_three_way_comparison(weak, -1, 0) == 0)\00", align 1
@.str.128 = private unnamed_addr constant [76 x i8] c"Identity( absl::compare_internal::do_three_way_comparison(weak, -1, 0) > 0)\00", align 1
@.str.129 = private unnamed_addr constant [77 x i8] c"Identity( absl::compare_internal::do_three_way_comparison(less, 10, 10) < 0)\00", align 1
@.str.130 = private unnamed_addr constant [78 x i8] c"Identity( absl::compare_internal::do_three_way_comparison(less, 10, 10) == 0)\00", align 1
@.str.131 = private unnamed_addr constant [77 x i8] c"Identity( absl::compare_internal::do_three_way_comparison(less, 10, 10) > 0)\00", align 1
@.str.132 = private unnamed_addr constant [77 x i8] c"Identity( absl::compare_internal::do_three_way_comparison(weak, 10, 10) < 0)\00", align 1
@.str.133 = private unnamed_addr constant [78 x i8] c"Identity( absl::compare_internal::do_three_way_comparison(weak, 10, 10) == 0)\00", align 1
@.str.134 = private unnamed_addr constant [77 x i8] c"Identity( absl::compare_internal::do_three_way_comparison(weak, 10, 10) > 0)\00", align 1
@.str.135 = private unnamed_addr constant [76 x i8] c"Identity( absl::compare_internal::do_three_way_comparison(less, 10, 5) < 0)\00", align 1
@.str.136 = private unnamed_addr constant [77 x i8] c"Identity( absl::compare_internal::do_three_way_comparison(less, 10, 5) == 0)\00", align 1
@.str.137 = private unnamed_addr constant [76 x i8] c"Identity( absl::compare_internal::do_three_way_comparison(less, 10, 5) > 0)\00", align 1
@.str.138 = private unnamed_addr constant [76 x i8] c"Identity( absl::compare_internal::do_three_way_comparison(weak, 10, 5) < 0)\00", align 1
@.str.139 = private unnamed_addr constant [77 x i8] c"Identity( absl::compare_internal::do_three_way_comparison(weak, 10, 5) == 0)\00", align 1
@.str.140 = private unnamed_addr constant [76 x i8] c"Identity( absl::compare_internal::do_three_way_comparison(weak, 10, 5) > 0)\00", align 1
@_ZTVN7testing8internal15TestFactoryImplIN4absl12_GLOBAL__N_126Compare_StaticAsserts_TestEEE = internal unnamed_addr constant { [5 x ptr] } { [5 x ptr] [ptr null, ptr @_ZTIN7testing8internal15TestFactoryImplIN4absl12_GLOBAL__N_126Compare_StaticAsserts_TestEEE, ptr @_ZN7testing8internal15TestFactoryImplIN4absl12_GLOBAL__N_126Compare_StaticAsserts_TestEED2Ev, ptr @_ZN7testing8internal15TestFactoryImplIN4absl12_GLOBAL__N_126Compare_StaticAsserts_TestEED0Ev, ptr @_ZN7testing8internal15TestFactoryImplIN4absl12_GLOBAL__N_126Compare_StaticAsserts_TestEE10CreateTestEv] }, align 8
@_ZTSN7testing8internal15TestFactoryImplIN4absl12_GLOBAL__N_126Compare_StaticAsserts_TestEEE = internal constant [88 x i8] c"N7testing8internal15TestFactoryImplIN4absl12_GLOBAL__N_126Compare_StaticAsserts_TestEEE\00", align 1
@_ZTIN7testing8internal15TestFactoryImplIN4absl12_GLOBAL__N_126Compare_StaticAsserts_TestEEE = internal constant { ptr, ptr, ptr } { ptr getelementptr inbounds (ptr, ptr @_ZTVN10__cxxabiv120__si_class_type_infoE, i64 2), ptr @_ZTSN7testing8internal15TestFactoryImplIN4absl12_GLOBAL__N_126Compare_StaticAsserts_TestEEE, ptr @_ZTIN7testing8internal15TestFactoryBaseE }, align 8
@_ZTVN4absl12_GLOBAL__N_126Compare_StaticAsserts_TestE = internal unnamed_addr constant { [8 x ptr] } { [8 x ptr] [ptr null, ptr @_ZTIN4absl12_GLOBAL__N_126Compare_StaticAsserts_TestE, ptr @_ZN4absl12_GLOBAL__N_126Compare_StaticAsserts_TestD2Ev, ptr @_ZN4absl12_GLOBAL__N_126Compare_StaticAsserts_TestD0Ev, ptr @_ZN7testing4Test5SetUpEv, ptr @_ZN7testing4Test8TearDownEv, ptr @_ZN4absl12_GLOBAL__N_126Compare_StaticAsserts_Test8TestBodyEv, ptr @_ZN7testing4Test5SetupEv] }, align 8
@_ZTSN4absl12_GLOBAL__N_126Compare_StaticAsserts_TestE = internal constant [50 x i8] c"N4absl12_GLOBAL__N_126Compare_StaticAsserts_TestE\00", align 1
@_ZTIN4absl12_GLOBAL__N_126Compare_StaticAsserts_TestE = internal constant { ptr, ptr, ptr } { ptr getelementptr inbounds (ptr, ptr @_ZTVN10__cxxabiv120__si_class_type_infoE, i64 2), ptr @_ZTSN4absl12_GLOBAL__N_126Compare_StaticAsserts_TestE, ptr @_ZTIN7testing4TestE }, align 8
@.str.141 = private unnamed_addr constant [50 x i8] c"basic_string: construction from null is not valid\00", align 1
@.str.142 = private unnamed_addr constant [166 x i8] c"generated/home/dtcxzyw/WorkSpace/Projects/compilers/llvm-opt-benchmark/bench/abseil-cpp/bench_build/googletest-src/googletest/include/gtest/internal/gtest-internal.h\00", align 1
@.str.143 = private unnamed_addr constant [51 x i8] c"Condition !test_case_fp || !test_suite_fp failed. \00", align 1
@.str.144 = private unnamed_addr constant [107 x i8] c"Test can not provide both SetUpTestSuite and SetUpTestCase, please make sure there is only one present at \00", align 1
@.str.145 = private unnamed_addr constant [2 x i8] c":\00", align 1
@_ZSt4cerr = external global %"class.std::basic_ostream", align 8
@.str.146 = private unnamed_addr constant [112 x i8] c"Test can not provide both TearDownTestSuite and TearDownTestCase, please make sure there is only one present at\00", align 1
@llvm.global_ctors = appending global [1 x { i32, ptr, ptr }] [{ i32, ptr, ptr } { i32 65535, ptr @_GLOBAL__sub_I_compare_test.cc, ptr null }]

; Function Attrs: uwtable
define internal void @__cxx_global_var_init() #0 section ".text.startup" {
entry:
  call void @_ZNSt8ios_base4InitC1Ev(ptr noundef nonnull align 1 dereferenceable(1) @_ZStL8__ioinit)
  %0 = call i32 @__cxa_atexit(ptr @_ZNSt8ios_base4InitD1Ev, ptr @_ZStL8__ioinit, ptr @__dso_handle) #3
  ret void
}

declare void @_ZNSt8ios_base4InitC1Ev(ptr noundef nonnull align 1 dereferenceable(1)) unnamed_addr #1

; Function Attrs: nounwind
declare void @_ZNSt8ios_base4InitD1Ev(ptr noundef nonnull align 1 dereferenceable(1)) unnamed_addr #2

; Function Attrs: nounwind
declare i32 @__cxa_atexit(ptr, ptr, ptr) #3

; Function Attrs: uwtable
define internal void @__cxx_global_var_init.1() #0 section ".text.startup" personality ptr @__gxx_personality_v0 {
entry:
  %agg.tmp = alloca %"struct.testing::internal::CodeLocation", align 8
  %ref.tmp = alloca %"class.std::__cxx11::basic_string", align 8
  %ref.tmp1 = alloca %"class.std::allocator", align 1
  %exn.slot = alloca ptr, align 8
  %ehselector.slot = alloca i32, align 4
  call void @_ZNSaIcEC1Ev(ptr noundef nonnull align 1 dereferenceable(1) %ref.tmp1) #3
  invoke void @_ZNSt7__cxx1112basic_stringIcSt11char_traitsIcESaIcEEC2IS3_EEPKcRKS3_(ptr noundef nonnull align 8 dereferenceable(32) %ref.tmp, ptr noundef @.str.3, ptr noundef nonnull align 1 dereferenceable(1) %ref.tmp1)
          to label %invoke.cont unwind label %lpad

invoke.cont:                                      ; preds = %entry
  invoke void @_ZN7testing8internal12CodeLocationC2ERKNSt7__cxx1112basic_stringIcSt11char_traitsIcESaIcEEEi(ptr noundef nonnull align 8 dereferenceable(36) %agg.tmp, ptr noundef nonnull align 8 dereferenceable(32) %ref.tmp, i32 noundef 29)
          to label %invoke.cont3 unwind label %lpad2

invoke.cont3:                                     ; preds = %invoke.cont
  %call = invoke noundef ptr @_ZN7testing8internal13GetTestTypeIdEv()
          to label %invoke.cont5 unwind label %lpad4

invoke.cont5:                                     ; preds = %invoke.cont3
  %call7 = invoke noundef ptr @_ZN7testing8internal16SuiteApiResolverINS_4TestEE19GetSetUpCaseOrSuiteEPKci(ptr noundef @.str.3, i32 noundef 29)
          to label %invoke.cont6 unwind label %lpad4

invoke.cont6:                                     ; preds = %invoke.cont5
  %call9 = invoke noundef ptr @_ZN7testing8internal16SuiteApiResolverINS_4TestEE22GetTearDownCaseOrSuiteEPKci(ptr noundef @.str.3, i32 noundef 29)
          to label %invoke.cont8 unwind label %lpad4

invoke.cont8:                                     ; preds = %invoke.cont6
  %call11 = invoke noalias noundef nonnull ptr @_Znwm(i64 noundef 8) #13
          to label %invoke.cont10 unwind label %lpad4

invoke.cont10:                                    ; preds = %invoke.cont8
  invoke void @_ZN7testing8internal15TestFactoryImplIN4absl12_GLOBAL__N_128Compare_PartialOrdering_TestEEC2Ev(ptr noundef nonnull align 8 dereferenceable(8) %call11)
          to label %invoke.cont13 unwind label %lpad12

invoke.cont13:                                    ; preds = %invoke.cont10
  %call15 = invoke noundef ptr @_ZN7testing8internal23MakeAndRegisterTestInfoEPKcS2_S2_S2_NS0_12CodeLocationEPKvPFvvES7_PNS0_15TestFactoryBaseE(ptr noundef @.str, ptr noundef @.str.2, ptr noundef null, ptr noundef null, ptr noundef %agg.tmp, ptr noundef %call, ptr noundef %call7, ptr noundef %call9, ptr noundef %call11)
          to label %invoke.cont14 unwind label %lpad4

invoke.cont14:                                    ; preds = %invoke.cont13
  call void @_ZN7testing8internal12CodeLocationD2Ev(ptr noundef nonnull align 8 dereferenceable(36) %agg.tmp) #3
  call void @_ZNSt7__cxx1112basic_stringIcSt11char_traitsIcESaIcEED1Ev(ptr noundef nonnull align 8 dereferenceable(32) %ref.tmp) #3
  call void @_ZNSaIcED1Ev(ptr noundef nonnull align 1 dereferenceable(1) %ref.tmp1) #3
  store ptr %call15, ptr @_ZN4absl12_GLOBAL__N_128Compare_PartialOrdering_Test10test_info_E, align 8
  ret void

lpad:                                             ; preds = %entry
  %0 = landingpad { ptr, i32 }
          cleanup
  %1 = extractvalue { ptr, i32 } %0, 0
  store ptr %1, ptr %exn.slot, align 8
  %2 = extractvalue { ptr, i32 } %0, 1
  store i32 %2, ptr %ehselector.slot, align 4
  br label %ehcleanup17

lpad2:                                            ; preds = %invoke.cont
  %3 = landingpad { ptr, i32 }
          cleanup
  %4 = extractvalue { ptr, i32 } %3, 0
  store ptr %4, ptr %exn.slot, align 8
  %5 = extractvalue { ptr, i32 } %3, 1
  store i32 %5, ptr %ehselector.slot, align 4
  br label %ehcleanup16

lpad4:                                            ; preds = %invoke.cont13, %invoke.cont8, %invoke.cont6, %invoke.cont5, %invoke.cont3
  %6 = landingpad { ptr, i32 }
          cleanup
  %7 = extractvalue { ptr, i32 } %6, 0
  store ptr %7, ptr %exn.slot, align 8
  %8 = extractvalue { ptr, i32 } %6, 1
  store i32 %8, ptr %ehselector.slot, align 4
  br label %ehcleanup

lpad12:                                           ; preds = %invoke.cont10
  %9 = landingpad { ptr, i32 }
          cleanup
  %10 = extractvalue { ptr, i32 } %9, 0
  store ptr %10, ptr %exn.slot, align 8
  %11 = extractvalue { ptr, i32 } %9, 1
  store i32 %11, ptr %ehselector.slot, align 4
  call void @_ZdlPv(ptr noundef %call11) #14
  br label %ehcleanup

ehcleanup:                                        ; preds = %lpad12, %lpad4
  call void @_ZN7testing8internal12CodeLocationD2Ev(ptr noundef nonnull align 8 dereferenceable(36) %agg.tmp) #3
  br label %ehcleanup16

ehcleanup16:                                      ; preds = %ehcleanup, %lpad2
  call void @_ZNSt7__cxx1112basic_stringIcSt11char_traitsIcESaIcEED1Ev(ptr noundef nonnull align 8 dereferenceable(32) %ref.tmp) #3
  br label %ehcleanup17

ehcleanup17:                                      ; preds = %ehcleanup16, %lpad
  call void @_ZNSaIcED1Ev(ptr noundef nonnull align 1 dereferenceable(1) %ref.tmp1) #3
  br label %eh.resume

eh.resume:                                        ; preds = %ehcleanup17
  %exn = load ptr, ptr %exn.slot, align 8
  %sel = load i32, ptr %ehselector.slot, align 4
  %lpad.val = insertvalue { ptr, i32 } poison, ptr %exn, 0
  %lpad.val18 = insertvalue { ptr, i32 } %lpad.val, i32 %sel, 1
  resume { ptr, i32 } %lpad.val18
}

declare noundef ptr @_ZN7testing8internal23MakeAndRegisterTestInfoEPKcS2_S2_S2_NS0_12CodeLocationEPKvPFvvES7_PNS0_15TestFactoryBaseE(ptr noundef, ptr noundef, ptr noundef, ptr noundef, ptr noundef, ptr noundef, ptr noundef, ptr noundef, ptr noundef) #1

; Function Attrs: nounwind
declare void @_ZNSaIcEC1Ev(ptr noundef nonnull align 1 dereferenceable(1)) unnamed_addr #2

; Function Attrs: mustprogress uwtable
define linkonce_odr dso_local void @_ZNSt7__cxx1112basic_stringIcSt11char_traitsIcESaIcEEC2IS3_EEPKcRKS3_(ptr noundef nonnull align 8 dereferenceable(32) %this, ptr noundef %__s, ptr noundef nonnull align 1 dereferenceable(1) %__a) unnamed_addr #4 comdat align 2 personality ptr @__gxx_personality_v0 {
entry:
  %this.addr = alloca ptr, align 8
  %__s.addr = alloca ptr, align 8
  %__a.addr = alloca ptr, align 8
  %exn.slot = alloca ptr, align 8
  %ehselector.slot = alloca i32, align 4
  %__end = alloca ptr, align 8
  store ptr %this, ptr %this.addr, align 8
  store ptr %__s, ptr %__s.addr, align 8
  store ptr %__a, ptr %__a.addr, align 8
  %this1 = load ptr, ptr %this.addr, align 8
  %_M_dataplus = getelementptr inbounds %"class.std::__cxx11::basic_string", ptr %this1, i32 0, i32 0
  %call = call noundef ptr @_ZNSt7__cxx1112basic_stringIcSt11char_traitsIcESaIcEE13_M_local_dataEv(ptr noundef nonnull align 8 dereferenceable(32) %this1)
  %0 = load ptr, ptr %__a.addr, align 8
  call void @_ZNSt7__cxx1112basic_stringIcSt11char_traitsIcESaIcEE12_Alloc_hiderC1EPcRKS3_(ptr noundef nonnull align 8 dereferenceable(8) %_M_dataplus, ptr noundef %call, ptr noundef nonnull align 1 dereferenceable(1) %0)
  %1 = load ptr, ptr %__s.addr, align 8
  %cmp = icmp eq ptr %1, null
  br i1 %cmp, label %if.then, label %if.end

if.then:                                          ; preds = %entry
  invoke void @_ZSt19__throw_logic_errorPKc(ptr noundef @.str.141) #15
          to label %invoke.cont unwind label %lpad

invoke.cont:                                      ; preds = %if.then
  unreachable

lpad:                                             ; preds = %invoke.cont2, %if.end, %if.then
  %2 = landingpad { ptr, i32 }
          cleanup
  %3 = extractvalue { ptr, i32 } %2, 0
  store ptr %3, ptr %exn.slot, align 8
  %4 = extractvalue { ptr, i32 } %2, 1
  store i32 %4, ptr %ehselector.slot, align 4
  call void @_ZNSt7__cxx1112basic_stringIcSt11char_traitsIcESaIcEE12_Alloc_hiderD2Ev(ptr noundef nonnull align 8 dereferenceable(8) %_M_dataplus) #3
  br label %eh.resume

if.end:                                           ; preds = %entry
  %5 = load ptr, ptr %__s.addr, align 8
  %6 = load ptr, ptr %__s.addr, align 8
  %call3 = invoke noundef i64 @_ZNSt11char_traitsIcE6lengthEPKc(ptr noundef %6)
          to label %invoke.cont2 unwind label %lpad

invoke.cont2:                                     ; preds = %if.end
  %add.ptr = getelementptr inbounds i8, ptr %5, i64 %call3
  store ptr %add.ptr, ptr %__end, align 8
  %7 = load ptr, ptr %__s.addr, align 8
  %8 = load ptr, ptr %__end, align 8
  invoke void @_ZNSt7__cxx1112basic_stringIcSt11char_traitsIcESaIcEE12_M_constructIPKcEEvT_S8_St20forward_iterator_tag(ptr noundef nonnull align 8 dereferenceable(32) %this1, ptr noundef %7, ptr noundef %8)
          to label %invoke.cont4 unwind label %lpad

invoke.cont4:                                     ; preds = %invoke.cont2
  ret void

eh.resume:                                        ; preds = %lpad
  %exn = load ptr, ptr %exn.slot, align 8
  %sel = load i32, ptr %ehselector.slot, align 4
  %lpad.val = insertvalue { ptr, i32 } poison, ptr %exn, 0
  %lpad.val5 = insertvalue { ptr, i32 } %lpad.val, i32 %sel, 1
  resume { ptr, i32 } %lpad.val5
}

declare i32 @__gxx_personality_v0(...)

; Function Attrs: mustprogress uwtable
define linkonce_odr dso_local void @_ZN7testing8internal12CodeLocationC2ERKNSt7__cxx1112basic_stringIcSt11char_traitsIcESaIcEEEi(ptr noundef nonnull align 8 dereferenceable(36) %this, ptr noundef nonnull align 8 dereferenceable(32) %a_file, i32 noundef %a_line) unnamed_addr #4 comdat align 2 {
entry:
  %this.addr = alloca ptr, align 8
  %a_file.addr = alloca ptr, align 8
  %a_line.addr = alloca i32, align 4
  store ptr %this, ptr %this.addr, align 8
  store ptr %a_file, ptr %a_file.addr, align 8
  store i32 %a_line, ptr %a_line.addr, align 4
  %this1 = load ptr, ptr %this.addr, align 8
  %file = getelementptr inbounds %"struct.testing::internal::CodeLocation", ptr %this1, i32 0, i32 0
  %0 = load ptr, ptr %a_file.addr, align 8
  call void @_ZNSt7__cxx1112basic_stringIcSt11char_traitsIcESaIcEEC1ERKS4_(ptr noundef nonnull align 8 dereferenceable(32) %file, ptr noundef nonnull align 8 dereferenceable(32) %0)
  %line = getelementptr inbounds %"struct.testing::internal::CodeLocation", ptr %this1, i32 0, i32 1
  %1 = load i32, ptr %a_line.addr, align 4
  store i32 %1, ptr %line, align 8
  ret void
}

declare noundef ptr @_ZN7testing8internal13GetTestTypeIdEv() #1

; Function Attrs: mustprogress uwtable
define linkonce_odr dso_local noundef ptr @_ZN7testing8internal16SuiteApiResolverINS_4TestEE19GetSetUpCaseOrSuiteEPKci(ptr noundef %filename, i32 noundef %line_num) #4 comdat align 2 personality ptr @__gxx_personality_v0 {
entry:
  %filename.addr = alloca ptr, align 8
  %line_num.addr = alloca i32, align 4
  %test_case_fp = alloca ptr, align 8
  %test_suite_fp = alloca ptr, align 8
  %ref.tmp = alloca %"class.testing::internal::GTestLog", align 4
  %exn.slot = alloca ptr, align 8
  %ehselector.slot = alloca i32, align 4
  store ptr %filename, ptr %filename.addr, align 8
  store i32 %line_num, ptr %line_num.addr, align 4
  %call = call noundef ptr @_ZN7testing8internal19GetNotDefaultOrNullEPFvvES2_(ptr noundef @_ZN7testing4Test13SetUpTestCaseEv, ptr noundef @_ZN7testing4Test13SetUpTestCaseEv)
  store ptr %call, ptr %test_case_fp, align 8
  %call1 = call noundef ptr @_ZN7testing8internal19GetNotDefaultOrNullEPFvvES2_(ptr noundef @_ZN7testing4Test14SetUpTestSuiteEv, ptr noundef @_ZN7testing4Test14SetUpTestSuiteEv)
  store ptr %call1, ptr %test_suite_fp, align 8
  %0 = load ptr, ptr %test_case_fp, align 8
  %tobool = icmp ne ptr %0, null
  br i1 %tobool, label %lor.rhs, label %lor.end

lor.rhs:                                          ; preds = %entry
  %1 = load ptr, ptr %test_suite_fp, align 8
  %tobool2 = icmp ne ptr %1, null
  %lnot = xor i1 %tobool2, true
  br label %lor.end

lor.end:                                          ; preds = %lor.rhs, %entry
  %2 = phi i1 [ true, %entry ], [ %lnot, %lor.rhs ]
  %call3 = call noundef zeroext i1 @_ZN7testing8internal6IsTrueEb(i1 noundef zeroext %2)
  br i1 %call3, label %if.then, label %if.else

if.then:                                          ; preds = %lor.end
  br label %if.end

if.else:                                          ; preds = %lor.end
  call void @_ZN7testing8internal8GTestLogC1ENS0_16GTestLogSeverityEPKci(ptr noundef nonnull align 4 dereferenceable(4) %ref.tmp, i32 noundef 3, ptr noundef @.str.142, i32 noundef 513)
  %call4 = invoke noundef nonnull align 8 dereferenceable(8) ptr @_ZN7testing8internal8GTestLog9GetStreamEv(ptr noundef nonnull align 4 dereferenceable(4) %ref.tmp)
          to label %invoke.cont unwind label %lpad

invoke.cont:                                      ; preds = %if.else
  %call6 = invoke noundef nonnull align 8 dereferenceable(8) ptr @_ZStlsISt11char_traitsIcEERSt13basic_ostreamIcT_ES5_PKc(ptr noundef nonnull align 8 dereferenceable(8) %call4, ptr noundef @.str.143)
          to label %invoke.cont5 unwind label %lpad

invoke.cont5:                                     ; preds = %invoke.cont
  %call8 = invoke noundef nonnull align 8 dereferenceable(8) ptr @_ZStlsISt11char_traitsIcEERSt13basic_ostreamIcT_ES5_PKc(ptr noundef nonnull align 8 dereferenceable(8) %call6, ptr noundef @.str.144)
          to label %invoke.cont7 unwind label %lpad

invoke.cont7:                                     ; preds = %invoke.cont5
  %3 = load ptr, ptr %filename.addr, align 8
  %call10 = invoke noundef nonnull align 8 dereferenceable(8) ptr @_ZStlsISt11char_traitsIcEERSt13basic_ostreamIcT_ES5_PKc(ptr noundef nonnull align 8 dereferenceable(8) %call8, ptr noundef %3)
          to label %invoke.cont9 unwind label %lpad

invoke.cont9:                                     ; preds = %invoke.cont7
  %call12 = invoke noundef nonnull align 8 dereferenceable(8) ptr @_ZStlsISt11char_traitsIcEERSt13basic_ostreamIcT_ES5_PKc(ptr noundef nonnull align 8 dereferenceable(8) %call10, ptr noundef @.str.145)
          to label %invoke.cont11 unwind label %lpad

invoke.cont11:                                    ; preds = %invoke.cont9
  %4 = load i32, ptr %line_num.addr, align 4
  %call14 = invoke noundef nonnull align 8 dereferenceable(8) ptr @_ZNSolsEi(ptr noundef nonnull align 8 dereferenceable(8) %call12, i32 noundef %4)
          to label %invoke.cont13 unwind label %lpad

invoke.cont13:                                    ; preds = %invoke.cont11
  call void @_ZN7testing8internal8GTestLogD1Ev(ptr noundef nonnull align 4 dereferenceable(4) %ref.tmp) #3
  br label %if.end

lpad:                                             ; preds = %invoke.cont11, %invoke.cont9, %invoke.cont7, %invoke.cont5, %invoke.cont, %if.else
  %5 = landingpad { ptr, i32 }
          cleanup
  %6 = extractvalue { ptr, i32 } %5, 0
  store ptr %6, ptr %exn.slot, align 8
  %7 = extractvalue { ptr, i32 } %5, 1
  store i32 %7, ptr %ehselector.slot, align 4
  call void @_ZN7testing8internal8GTestLogD1Ev(ptr noundef nonnull align 4 dereferenceable(4) %ref.tmp) #3
  br label %eh.resume

if.end:                                           ; preds = %invoke.cont13, %if.then
  %8 = load ptr, ptr %test_case_fp, align 8
  %cmp = icmp ne ptr %8, null
  br i1 %cmp, label %cond.true, label %cond.false

cond.true:                                        ; preds = %if.end
  %9 = load ptr, ptr %test_case_fp, align 8
  br label %cond.end

cond.false:                                       ; preds = %if.end
  %10 = load ptr, ptr %test_suite_fp, align 8
  br label %cond.end

cond.end:                                         ; preds = %cond.false, %cond.true
  %cond = phi ptr [ %9, %cond.true ], [ %10, %cond.false ]
  ret ptr %cond

eh.resume:                                        ; preds = %lpad
  %exn = load ptr, ptr %exn.slot, align 8
  %sel = load i32, ptr %ehselector.slot, align 4
  %lpad.val = insertvalue { ptr, i32 } poison, ptr %exn, 0
  %lpad.val15 = insertvalue { ptr, i32 } %lpad.val, i32 %sel, 1
  resume { ptr, i32 } %lpad.val15
}

; Function Attrs: mustprogress uwtable
define linkonce_odr dso_local noundef ptr @_ZN7testing8internal16SuiteApiResolverINS_4TestEE22GetTearDownCaseOrSuiteEPKci(ptr noundef %filename, i32 noundef %line_num) #4 comdat align 2 personality ptr @__gxx_personality_v0 {
entry:
  %filename.addr = alloca ptr, align 8
  %line_num.addr = alloca i32, align 4
  %test_case_fp = alloca ptr, align 8
  %test_suite_fp = alloca ptr, align 8
  %ref.tmp = alloca %"class.testing::internal::GTestLog", align 4
  %exn.slot = alloca ptr, align 8
  %ehselector.slot = alloca i32, align 4
  store ptr %filename, ptr %filename.addr, align 8
  store i32 %line_num, ptr %line_num.addr, align 4
  %call = call noundef ptr @_ZN7testing8internal19GetNotDefaultOrNullEPFvvES2_(ptr noundef @_ZN7testing4Test16TearDownTestCaseEv, ptr noundef @_ZN7testing4Test16TearDownTestCaseEv)
  store ptr %call, ptr %test_case_fp, align 8
  %call1 = call noundef ptr @_ZN7testing8internal19GetNotDefaultOrNullEPFvvES2_(ptr noundef @_ZN7testing4Test17TearDownTestSuiteEv, ptr noundef @_ZN7testing4Test17TearDownTestSuiteEv)
  store ptr %call1, ptr %test_suite_fp, align 8
  %0 = load ptr, ptr %test_case_fp, align 8
  %tobool = icmp ne ptr %0, null
  br i1 %tobool, label %lor.rhs, label %lor.end

lor.rhs:                                          ; preds = %entry
  %1 = load ptr, ptr %test_suite_fp, align 8
  %tobool2 = icmp ne ptr %1, null
  %lnot = xor i1 %tobool2, true
  br label %lor.end

lor.end:                                          ; preds = %lor.rhs, %entry
  %2 = phi i1 [ true, %entry ], [ %lnot, %lor.rhs ]
  %call3 = call noundef zeroext i1 @_ZN7testing8internal6IsTrueEb(i1 noundef zeroext %2)
  br i1 %call3, label %if.then, label %if.else

if.then:                                          ; preds = %lor.end
  br label %if.end

if.else:                                          ; preds = %lor.end
  call void @_ZN7testing8internal8GTestLogC1ENS0_16GTestLogSeverityEPKci(ptr noundef nonnull align 4 dereferenceable(4) %ref.tmp, i32 noundef 3, ptr noundef @.str.142, i32 noundef 534)
  %call4 = call noundef nonnull align 8 dereferenceable(8) ptr @_ZN7testing8internal8GTestLog9GetStreamEv(ptr noundef nonnull align 4 dereferenceable(4) %ref.tmp)
  %call5 = invoke noundef nonnull align 8 dereferenceable(8) ptr @_ZStlsISt11char_traitsIcEERSt13basic_ostreamIcT_ES5_PKc(ptr noundef nonnull align 8 dereferenceable(8) %call4, ptr noundef @.str.143)
          to label %invoke.cont unwind label %lpad

invoke.cont:                                      ; preds = %if.else
  %call7 = invoke noundef nonnull align 8 dereferenceable(8) ptr @_ZStlsISt11char_traitsIcEERSt13basic_ostreamIcT_ES5_PKc(ptr noundef nonnull align 8 dereferenceable(8) %call5, ptr noundef @.str.146)
          to label %invoke.cont6 unwind label %lpad

invoke.cont6:                                     ; preds = %invoke.cont
  %3 = load ptr, ptr %filename.addr, align 8
  %call9 = invoke noundef nonnull align 8 dereferenceable(8) ptr @_ZStlsISt11char_traitsIcEERSt13basic_ostreamIcT_ES5_PKc(ptr noundef nonnull align 8 dereferenceable(8) %call7, ptr noundef %3)
          to label %invoke.cont8 unwind label %lpad

invoke.cont8:                                     ; preds = %invoke.cont6
  %call11 = invoke noundef nonnull align 8 dereferenceable(8) ptr @_ZStlsISt11char_traitsIcEERSt13basic_ostreamIcT_ES5_PKc(ptr noundef nonnull align 8 dereferenceable(8) %call9, ptr noundef @.str.145)
          to label %invoke.cont10 unwind label %lpad

invoke.cont10:                                    ; preds = %invoke.cont8
  %4 = load i32, ptr %line_num.addr, align 4
  %call13 = invoke noundef nonnull align 8 dereferenceable(8) ptr @_ZNSolsEi(ptr noundef nonnull align 8 dereferenceable(8) %call11, i32 noundef %4)
          to label %invoke.cont12 unwind label %lpad

invoke.cont12:                                    ; preds = %invoke.cont10
  call void @_ZN7testing8internal8GTestLogD1Ev(ptr noundef nonnull align 4 dereferenceable(4) %ref.tmp) #3
  br label %if.end

lpad:                                             ; preds = %invoke.cont10, %invoke.cont8, %invoke.cont6, %invoke.cont, %if.else
  %5 = landingpad { ptr, i32 }
          cleanup
  %6 = extractvalue { ptr, i32 } %5, 0
  store ptr %6, ptr %exn.slot, align 8
  %7 = extractvalue { ptr, i32 } %5, 1
  store i32 %7, ptr %ehselector.slot, align 4
  call void @_ZN7testing8internal8GTestLogD1Ev(ptr noundef nonnull align 4 dereferenceable(4) %ref.tmp) #3
  br label %eh.resume

if.end:                                           ; preds = %invoke.cont12, %if.then
  %8 = load ptr, ptr %test_case_fp, align 8
  %cmp = icmp ne ptr %8, null
  br i1 %cmp, label %cond.true, label %cond.false

cond.true:                                        ; preds = %if.end
  %9 = load ptr, ptr %test_case_fp, align 8
  br label %cond.end

cond.false:                                       ; preds = %if.end
  %10 = load ptr, ptr %test_suite_fp, align 8
  br label %cond.end

cond.end:                                         ; preds = %cond.false, %cond.true
  %cond = phi ptr [ %9, %cond.true ], [ %10, %cond.false ]
  ret ptr %cond

eh.resume:                                        ; preds = %lpad
  %exn = load ptr, ptr %exn.slot, align 8
  %sel = load i32, ptr %ehselector.slot, align 4
  %lpad.val = insertvalue { ptr, i32 } poison, ptr %exn, 0
  %lpad.val14 = insertvalue { ptr, i32 } %lpad.val, i32 %sel, 1
  resume { ptr, i32 } %lpad.val14
}

; Function Attrs: nobuiltin allocsize(0)
declare noundef nonnull ptr @_Znwm(i64 noundef) #5

; Function Attrs: mustprogress uwtable
define internal void @_ZN7testing8internal15TestFactoryImplIN4absl12_GLOBAL__N_128Compare_PartialOrdering_TestEEC2Ev(ptr noundef nonnull align 8 dereferenceable(8) %this) unnamed_addr #4 align 2 {
entry:
  %this.addr = alloca ptr, align 8
  store ptr %this, ptr %this.addr, align 8
  %this1 = load ptr, ptr %this.addr, align 8
  call void @_ZN7testing8internal15TestFactoryBaseC2Ev(ptr noundef nonnull align 8 dereferenceable(8) %this1)
  store ptr getelementptr inbounds ({ [5 x ptr] }, ptr @_ZTVN7testing8internal15TestFactoryImplIN4absl12_GLOBAL__N_128Compare_PartialOrdering_TestEEE, i32 0, inrange i32 0, i32 2), ptr %this1, align 8
  ret void
}

; Function Attrs: nobuiltin nounwind
declare void @_ZdlPv(ptr noundef) #6

; Function Attrs: mustprogress nounwind uwtable
define linkonce_odr dso_local void @_ZN7testing8internal12CodeLocationD2Ev(ptr noundef nonnull align 8 dereferenceable(36) %this) unnamed_addr #7 comdat align 2 {
entry:
  %this.addr = alloca ptr, align 8
  store ptr %this, ptr %this.addr, align 8
  %this1 = load ptr, ptr %this.addr, align 8
  %file = getelementptr inbounds %"struct.testing::internal::CodeLocation", ptr %this1, i32 0, i32 0
  call void @_ZNSt7__cxx1112basic_stringIcSt11char_traitsIcESaIcEED1Ev(ptr noundef nonnull align 8 dereferenceable(32) %file) #3
  ret void
}

; Function Attrs: nounwind
declare void @_ZNSt7__cxx1112basic_stringIcSt11char_traitsIcESaIcEED1Ev(ptr noundef nonnull align 8 dereferenceable(32)) unnamed_addr #2

; Function Attrs: nounwind
declare void @_ZNSaIcED1Ev(ptr noundef nonnull align 1 dereferenceable(1)) unnamed_addr #2

; Function Attrs: uwtable
define internal void @__cxx_global_var_init.4() #0 section ".text.startup" personality ptr @__gxx_personality_v0 {
entry:
  %agg.tmp = alloca %"struct.testing::internal::CodeLocation", align 8
  %ref.tmp = alloca %"class.std::__cxx11::basic_string", align 8
  %ref.tmp1 = alloca %"class.std::allocator", align 1
  %exn.slot = alloca ptr, align 8
  %ehselector.slot = alloca i32, align 4
  call void @_ZNSaIcEC1Ev(ptr noundef nonnull align 1 dereferenceable(1) %ref.tmp1) #3
  invoke void @_ZNSt7__cxx1112basic_stringIcSt11char_traitsIcESaIcEEC2IS3_EEPKcRKS3_(ptr noundef nonnull align 8 dereferenceable(32) %ref.tmp, ptr noundef @.str.3, ptr noundef nonnull align 1 dereferenceable(1) %ref.tmp1)
          to label %invoke.cont unwind label %lpad

invoke.cont:                                      ; preds = %entry
  invoke void @_ZN7testing8internal12CodeLocationC2ERKNSt7__cxx1112basic_stringIcSt11char_traitsIcESaIcEEEi(ptr noundef nonnull align 8 dereferenceable(36) %agg.tmp, ptr noundef nonnull align 8 dereferenceable(32) %ref.tmp, i32 noundef 62)
          to label %invoke.cont3 unwind label %lpad2

invoke.cont3:                                     ; preds = %invoke.cont
  %call = invoke noundef ptr @_ZN7testing8internal13GetTestTypeIdEv()
          to label %invoke.cont5 unwind label %lpad4

invoke.cont5:                                     ; preds = %invoke.cont3
  %call7 = invoke noundef ptr @_ZN7testing8internal16SuiteApiResolverINS_4TestEE19GetSetUpCaseOrSuiteEPKci(ptr noundef @.str.3, i32 noundef 62)
          to label %invoke.cont6 unwind label %lpad4

invoke.cont6:                                     ; preds = %invoke.cont5
  %call9 = invoke noundef ptr @_ZN7testing8internal16SuiteApiResolverINS_4TestEE22GetTearDownCaseOrSuiteEPKci(ptr noundef @.str.3, i32 noundef 62)
          to label %invoke.cont8 unwind label %lpad4

invoke.cont8:                                     ; preds = %invoke.cont6
  %call11 = invoke noalias noundef nonnull ptr @_Znwm(i64 noundef 8) #13
          to label %invoke.cont10 unwind label %lpad4

invoke.cont10:                                    ; preds = %invoke.cont8
  invoke void @_ZN7testing8internal15TestFactoryImplIN4absl12_GLOBAL__N_125Compare_WeakOrdering_TestEEC2Ev(ptr noundef nonnull align 8 dereferenceable(8) %call11)
          to label %invoke.cont13 unwind label %lpad12

invoke.cont13:                                    ; preds = %invoke.cont10
  %call15 = invoke noundef ptr @_ZN7testing8internal23MakeAndRegisterTestInfoEPKcS2_S2_S2_NS0_12CodeLocationEPKvPFvvES7_PNS0_15TestFactoryBaseE(ptr noundef @.str, ptr noundef @.str.5, ptr noundef null, ptr noundef null, ptr noundef %agg.tmp, ptr noundef %call, ptr noundef %call7, ptr noundef %call9, ptr noundef %call11)
          to label %invoke.cont14 unwind label %lpad4

invoke.cont14:                                    ; preds = %invoke.cont13
  call void @_ZN7testing8internal12CodeLocationD2Ev(ptr noundef nonnull align 8 dereferenceable(36) %agg.tmp) #3
  call void @_ZNSt7__cxx1112basic_stringIcSt11char_traitsIcESaIcEED1Ev(ptr noundef nonnull align 8 dereferenceable(32) %ref.tmp) #3
  call void @_ZNSaIcED1Ev(ptr noundef nonnull align 1 dereferenceable(1) %ref.tmp1) #3
  store ptr %call15, ptr @_ZN4absl12_GLOBAL__N_125Compare_WeakOrdering_Test10test_info_E, align 8
  ret void

lpad:                                             ; preds = %entry
  %0 = landingpad { ptr, i32 }
          cleanup
  %1 = extractvalue { ptr, i32 } %0, 0
  store ptr %1, ptr %exn.slot, align 8
  %2 = extractvalue { ptr, i32 } %0, 1
  store i32 %2, ptr %ehselector.slot, align 4
  br label %ehcleanup17

lpad2:                                            ; preds = %invoke.cont
  %3 = landingpad { ptr, i32 }
          cleanup
  %4 = extractvalue { ptr, i32 } %3, 0
  store ptr %4, ptr %exn.slot, align 8
  %5 = extractvalue { ptr, i32 } %3, 1
  store i32 %5, ptr %ehselector.slot, align 4
  br label %ehcleanup16

lpad4:                                            ; preds = %invoke.cont13, %invoke.cont8, %invoke.cont6, %invoke.cont5, %invoke.cont3
  %6 = landingpad { ptr, i32 }
          cleanup
  %7 = extractvalue { ptr, i32 } %6, 0
  store ptr %7, ptr %exn.slot, align 8
  %8 = extractvalue { ptr, i32 } %6, 1
  store i32 %8, ptr %ehselector.slot, align 4
  br label %ehcleanup

lpad12:                                           ; preds = %invoke.cont10
  %9 = landingpad { ptr, i32 }
          cleanup
  %10 = extractvalue { ptr, i32 } %9, 0
  store ptr %10, ptr %exn.slot, align 8
  %11 = extractvalue { ptr, i32 } %9, 1
  store i32 %11, ptr %ehselector.slot, align 4
  call void @_ZdlPv(ptr noundef %call11) #14
  br label %ehcleanup

ehcleanup:                                        ; preds = %lpad12, %lpad4
  call void @_ZN7testing8internal12CodeLocationD2Ev(ptr noundef nonnull align 8 dereferenceable(36) %agg.tmp) #3
  br label %ehcleanup16

ehcleanup16:                                      ; preds = %ehcleanup, %lpad2
  call void @_ZNSt7__cxx1112basic_stringIcSt11char_traitsIcESaIcEED1Ev(ptr noundef nonnull align 8 dereferenceable(32) %ref.tmp) #3
  br label %ehcleanup17

ehcleanup17:                                      ; preds = %ehcleanup16, %lpad
  call void @_ZNSaIcED1Ev(ptr noundef nonnull align 1 dereferenceable(1) %ref.tmp1) #3
  br label %eh.resume

eh.resume:                                        ; preds = %ehcleanup17
  %exn = load ptr, ptr %exn.slot, align 8
  %sel = load i32, ptr %ehselector.slot, align 4
  %lpad.val = insertvalue { ptr, i32 } poison, ptr %exn, 0
  %lpad.val18 = insertvalue { ptr, i32 } %lpad.val, i32 %sel, 1
  resume { ptr, i32 } %lpad.val18
}

; Function Attrs: mustprogress nounwind uwtable
define internal void @_ZN7testing8internal15TestFactoryImplIN4absl12_GLOBAL__N_125Compare_WeakOrdering_TestEEC2Ev(ptr noundef nonnull align 8 dereferenceable(8) %this) unnamed_addr #7 align 2 {
entry:
  %this.addr = alloca ptr, align 8
  store ptr %this, ptr %this.addr, align 8
  %this1 = load ptr, ptr %this.addr, align 8
  call void @_ZN7testing8internal15TestFactoryBaseC2Ev(ptr noundef nonnull align 8 dereferenceable(8) %this1)
  store ptr getelementptr inbounds ({ [5 x ptr] }, ptr @_ZTVN7testing8internal15TestFactoryImplIN4absl12_GLOBAL__N_125Compare_WeakOrdering_TestEEE, i32 0, inrange i32 0, i32 2), ptr %this1, align 8
  ret void
}

; Function Attrs: uwtable
define internal void @__cxx_global_var_init.6() #0 section ".text.startup" personality ptr @__gxx_personality_v0 {
entry:
  %agg.tmp = alloca %"struct.testing::internal::CodeLocation", align 8
  %ref.tmp = alloca %"class.std::__cxx11::basic_string", align 8
  %ref.tmp1 = alloca %"class.std::allocator", align 1
  %exn.slot = alloca ptr, align 8
  %ehselector.slot = alloca i32, align 4
  call void @_ZNSaIcEC1Ev(ptr noundef nonnull align 1 dereferenceable(1) %ref.tmp1) #3
  invoke void @_ZNSt7__cxx1112basic_stringIcSt11char_traitsIcESaIcEEC2IS3_EEPKcRKS3_(ptr noundef nonnull align 8 dereferenceable(32) %ref.tmp, ptr noundef @.str.3, ptr noundef nonnull align 1 dereferenceable(1) %ref.tmp1)
          to label %invoke.cont unwind label %lpad

invoke.cont:                                      ; preds = %entry
  invoke void @_ZN7testing8internal12CodeLocationC2ERKNSt7__cxx1112basic_stringIcSt11char_traitsIcESaIcEEEi(ptr noundef nonnull align 8 dereferenceable(36) %agg.tmp, ptr noundef nonnull align 8 dereferenceable(32) %ref.tmp, i32 noundef 84)
          to label %invoke.cont3 unwind label %lpad2

invoke.cont3:                                     ; preds = %invoke.cont
  %call = invoke noundef ptr @_ZN7testing8internal13GetTestTypeIdEv()
          to label %invoke.cont5 unwind label %lpad4

invoke.cont5:                                     ; preds = %invoke.cont3
  %call7 = invoke noundef ptr @_ZN7testing8internal16SuiteApiResolverINS_4TestEE19GetSetUpCaseOrSuiteEPKci(ptr noundef @.str.3, i32 noundef 84)
          to label %invoke.cont6 unwind label %lpad4

invoke.cont6:                                     ; preds = %invoke.cont5
  %call9 = invoke noundef ptr @_ZN7testing8internal16SuiteApiResolverINS_4TestEE22GetTearDownCaseOrSuiteEPKci(ptr noundef @.str.3, i32 noundef 84)
          to label %invoke.cont8 unwind label %lpad4

invoke.cont8:                                     ; preds = %invoke.cont6
  %call11 = invoke noalias noundef nonnull ptr @_Znwm(i64 noundef 8) #13
          to label %invoke.cont10 unwind label %lpad4

invoke.cont10:                                    ; preds = %invoke.cont8
  invoke void @_ZN7testing8internal15TestFactoryImplIN4absl12_GLOBAL__N_127Compare_StrongOrdering_TestEEC2Ev(ptr noundef nonnull align 8 dereferenceable(8) %call11)
          to label %invoke.cont13 unwind label %lpad12

invoke.cont13:                                    ; preds = %invoke.cont10
  %call15 = invoke noundef ptr @_ZN7testing8internal23MakeAndRegisterTestInfoEPKcS2_S2_S2_NS0_12CodeLocationEPKvPFvvES7_PNS0_15TestFactoryBaseE(ptr noundef @.str, ptr noundef @.str.7, ptr noundef null, ptr noundef null, ptr noundef %agg.tmp, ptr noundef %call, ptr noundef %call7, ptr noundef %call9, ptr noundef %call11)
          to label %invoke.cont14 unwind label %lpad4

invoke.cont14:                                    ; preds = %invoke.cont13
  call void @_ZN7testing8internal12CodeLocationD2Ev(ptr noundef nonnull align 8 dereferenceable(36) %agg.tmp) #3
  call void @_ZNSt7__cxx1112basic_stringIcSt11char_traitsIcESaIcEED1Ev(ptr noundef nonnull align 8 dereferenceable(32) %ref.tmp) #3
  call void @_ZNSaIcED1Ev(ptr noundef nonnull align 1 dereferenceable(1) %ref.tmp1) #3
  store ptr %call15, ptr @_ZN4absl12_GLOBAL__N_127Compare_StrongOrdering_Test10test_info_E, align 8
  ret void

lpad:                                             ; preds = %entry
  %0 = landingpad { ptr, i32 }
          cleanup
  %1 = extractvalue { ptr, i32 } %0, 0
  store ptr %1, ptr %exn.slot, align 8
  %2 = extractvalue { ptr, i32 } %0, 1
  store i32 %2, ptr %ehselector.slot, align 4
  br label %ehcleanup17

lpad2:                                            ; preds = %invoke.cont
  %3 = landingpad { ptr, i32 }
          cleanup
  %4 = extractvalue { ptr, i32 } %3, 0
  store ptr %4, ptr %exn.slot, align 8
  %5 = extractvalue { ptr, i32 } %3, 1
  store i32 %5, ptr %ehselector.slot, align 4
  br label %ehcleanup16

lpad4:                                            ; preds = %invoke.cont13, %invoke.cont8, %invoke.cont6, %invoke.cont5, %invoke.cont3
  %6 = landingpad { ptr, i32 }
          cleanup
  %7 = extractvalue { ptr, i32 } %6, 0
  store ptr %7, ptr %exn.slot, align 8
  %8 = extractvalue { ptr, i32 } %6, 1
  store i32 %8, ptr %ehselector.slot, align 4
  br label %ehcleanup

lpad12:                                           ; preds = %invoke.cont10
  %9 = landingpad { ptr, i32 }
          cleanup
  %10 = extractvalue { ptr, i32 } %9, 0
  store ptr %10, ptr %exn.slot, align 8
  %11 = extractvalue { ptr, i32 } %9, 1
  store i32 %11, ptr %ehselector.slot, align 4
  call void @_ZdlPv(ptr noundef %call11) #14
  br label %ehcleanup

ehcleanup:                                        ; preds = %lpad12, %lpad4
  call void @_ZN7testing8internal12CodeLocationD2Ev(ptr noundef nonnull align 8 dereferenceable(36) %agg.tmp) #3
  br label %ehcleanup16

ehcleanup16:                                      ; preds = %ehcleanup, %lpad2
  call void @_ZNSt7__cxx1112basic_stringIcSt11char_traitsIcESaIcEED1Ev(ptr noundef nonnull align 8 dereferenceable(32) %ref.tmp) #3
  br label %ehcleanup17

ehcleanup17:                                      ; preds = %ehcleanup16, %lpad
  call void @_ZNSaIcED1Ev(ptr noundef nonnull align 1 dereferenceable(1) %ref.tmp1) #3
  br label %eh.resume

eh.resume:                                        ; preds = %ehcleanup17
  %exn = load ptr, ptr %exn.slot, align 8
  %sel = load i32, ptr %ehselector.slot, align 4
  %lpad.val = insertvalue { ptr, i32 } poison, ptr %exn, 0
  %lpad.val18 = insertvalue { ptr, i32 } %lpad.val, i32 %sel, 1
  resume { ptr, i32 } %lpad.val18
}

; Function Attrs: mustprogress nounwind uwtable
define internal void @_ZN7testing8internal15TestFactoryImplIN4absl12_GLOBAL__N_127Compare_StrongOrdering_TestEEC2Ev(ptr noundef nonnull align 8 dereferenceable(8) %this) unnamed_addr #7 align 2 {
entry:
  %this.addr = alloca ptr, align 8
  store ptr %this, ptr %this.addr, align 8
  %this1 = load ptr, ptr %this.addr, align 8
  call void @_ZN7testing8internal15TestFactoryBaseC2Ev(ptr noundef nonnull align 8 dereferenceable(8) %this1)
  store ptr getelementptr inbounds ({ [5 x ptr] }, ptr @_ZTVN7testing8internal15TestFactoryImplIN4absl12_GLOBAL__N_127Compare_StrongOrdering_TestEEE, i32 0, inrange i32 0, i32 2), ptr %this1, align 8
  ret void
}

; Function Attrs: uwtable
define internal void @__cxx_global_var_init.8() #0 section ".text.startup" personality ptr @__gxx_personality_v0 {
entry:
  %agg.tmp = alloca %"struct.testing::internal::CodeLocation", align 8
  %ref.tmp = alloca %"class.std::__cxx11::basic_string", align 8
  %ref.tmp1 = alloca %"class.std::allocator", align 1
  %exn.slot = alloca ptr, align 8
  %ehselector.slot = alloca i32, align 4
  call void @_ZNSaIcEC1Ev(ptr noundef nonnull align 1 dereferenceable(1) %ref.tmp1) #3
  invoke void @_ZNSt7__cxx1112basic_stringIcSt11char_traitsIcESaIcEEC2IS3_EEPKcRKS3_(ptr noundef nonnull align 8 dereferenceable(32) %ref.tmp, ptr noundef @.str.3, ptr noundef nonnull align 1 dereferenceable(1) %ref.tmp1)
          to label %invoke.cont unwind label %lpad

invoke.cont:                                      ; preds = %entry
  invoke void @_ZN7testing8internal12CodeLocationC2ERKNSt7__cxx1112basic_stringIcSt11char_traitsIcESaIcEEEi(ptr noundef nonnull align 8 dereferenceable(36) %agg.tmp, ptr noundef nonnull align 8 dereferenceable(32) %ref.tmp, i32 noundef 109)
          to label %invoke.cont3 unwind label %lpad2

invoke.cont3:                                     ; preds = %invoke.cont
  %call = invoke noundef ptr @_ZN7testing8internal13GetTestTypeIdEv()
          to label %invoke.cont5 unwind label %lpad4

invoke.cont5:                                     ; preds = %invoke.cont3
  %call7 = invoke noundef ptr @_ZN7testing8internal16SuiteApiResolverINS_4TestEE19GetSetUpCaseOrSuiteEPKci(ptr noundef @.str.3, i32 noundef 109)
          to label %invoke.cont6 unwind label %lpad4

invoke.cont6:                                     ; preds = %invoke.cont5
  %call9 = invoke noundef ptr @_ZN7testing8internal16SuiteApiResolverINS_4TestEE22GetTearDownCaseOrSuiteEPKci(ptr noundef @.str.3, i32 noundef 109)
          to label %invoke.cont8 unwind label %lpad4

invoke.cont8:                                     ; preds = %invoke.cont6
  %call11 = invoke noalias noundef nonnull ptr @_Znwm(i64 noundef 8) #13
          to label %invoke.cont10 unwind label %lpad4

invoke.cont10:                                    ; preds = %invoke.cont8
  invoke void @_ZN7testing8internal15TestFactoryImplIN4absl12_GLOBAL__N_124Compare_Conversions_TestEEC2Ev(ptr noundef nonnull align 8 dereferenceable(8) %call11)
          to label %invoke.cont13 unwind label %lpad12

invoke.cont13:                                    ; preds = %invoke.cont10
  %call15 = invoke noundef ptr @_ZN7testing8internal23MakeAndRegisterTestInfoEPKcS2_S2_S2_NS0_12CodeLocationEPKvPFvvES7_PNS0_15TestFactoryBaseE(ptr noundef @.str, ptr noundef @.str.9, ptr noundef null, ptr noundef null, ptr noundef %agg.tmp, ptr noundef %call, ptr noundef %call7, ptr noundef %call9, ptr noundef %call11)
          to label %invoke.cont14 unwind label %lpad4

invoke.cont14:                                    ; preds = %invoke.cont13
  call void @_ZN7testing8internal12CodeLocationD2Ev(ptr noundef nonnull align 8 dereferenceable(36) %agg.tmp) #3
  call void @_ZNSt7__cxx1112basic_stringIcSt11char_traitsIcESaIcEED1Ev(ptr noundef nonnull align 8 dereferenceable(32) %ref.tmp) #3
  call void @_ZNSaIcED1Ev(ptr noundef nonnull align 1 dereferenceable(1) %ref.tmp1) #3
  store ptr %call15, ptr @_ZN4absl12_GLOBAL__N_124Compare_Conversions_Test10test_info_E, align 8
  ret void

lpad:                                             ; preds = %entry
  %0 = landingpad { ptr, i32 }
          cleanup
  %1 = extractvalue { ptr, i32 } %0, 0
  store ptr %1, ptr %exn.slot, align 8
  %2 = extractvalue { ptr, i32 } %0, 1
  store i32 %2, ptr %ehselector.slot, align 4
  br label %ehcleanup17

lpad2:                                            ; preds = %invoke.cont
  %3 = landingpad { ptr, i32 }
          cleanup
  %4 = extractvalue { ptr, i32 } %3, 0
  store ptr %4, ptr %exn.slot, align 8
  %5 = extractvalue { ptr, i32 } %3, 1
  store i32 %5, ptr %ehselector.slot, align 4
  br label %ehcleanup16

lpad4:                                            ; preds = %invoke.cont13, %invoke.cont8, %invoke.cont6, %invoke.cont5, %invoke.cont3
  %6 = landingpad { ptr, i32 }
          cleanup
  %7 = extractvalue { ptr, i32 } %6, 0
  store ptr %7, ptr %exn.slot, align 8
  %8 = extractvalue { ptr, i32 } %6, 1
  store i32 %8, ptr %ehselector.slot, align 4
  br label %ehcleanup

lpad12:                                           ; preds = %invoke.cont10
  %9 = landingpad { ptr, i32 }
          cleanup
  %10 = extractvalue { ptr, i32 } %9, 0
  store ptr %10, ptr %exn.slot, align 8
  %11 = extractvalue { ptr, i32 } %9, 1
  store i32 %11, ptr %ehselector.slot, align 4
  call void @_ZdlPv(ptr noundef %call11) #14
  br label %ehcleanup

ehcleanup:                                        ; preds = %lpad12, %lpad4
  call void @_ZN7testing8internal12CodeLocationD2Ev(ptr noundef nonnull align 8 dereferenceable(36) %agg.tmp) #3
  br label %ehcleanup16

ehcleanup16:                                      ; preds = %ehcleanup, %lpad2
  call void @_ZNSt7__cxx1112basic_stringIcSt11char_traitsIcESaIcEED1Ev(ptr noundef nonnull align 8 dereferenceable(32) %ref.tmp) #3
  br label %ehcleanup17

ehcleanup17:                                      ; preds = %ehcleanup16, %lpad
  call void @_ZNSaIcED1Ev(ptr noundef nonnull align 1 dereferenceable(1) %ref.tmp1) #3
  br label %eh.resume

eh.resume:                                        ; preds = %ehcleanup17
  %exn = load ptr, ptr %exn.slot, align 8
  %sel = load i32, ptr %ehselector.slot, align 4
  %lpad.val = insertvalue { ptr, i32 } poison, ptr %exn, 0
  %lpad.val18 = insertvalue { ptr, i32 } %lpad.val, i32 %sel, 1
  resume { ptr, i32 } %lpad.val18
}

; Function Attrs: mustprogress nounwind uwtable
define internal void @_ZN7testing8internal15TestFactoryImplIN4absl12_GLOBAL__N_124Compare_Conversions_TestEEC2Ev(ptr noundef nonnull align 8 dereferenceable(8) %this) unnamed_addr #7 align 2 {
entry:
  %this.addr = alloca ptr, align 8
  store ptr %this, ptr %this.addr, align 8
  %this1 = load ptr, ptr %this.addr, align 8
  call void @_ZN7testing8internal15TestFactoryBaseC2Ev(ptr noundef nonnull align 8 dereferenceable(8) %this1)
  store ptr getelementptr inbounds ({ [5 x ptr] }, ptr @_ZTVN7testing8internal15TestFactoryImplIN4absl12_GLOBAL__N_124Compare_Conversions_TestEEE, i32 0, inrange i32 0, i32 2), ptr %this1, align 8
  ret void
}

; Function Attrs: uwtable
define internal void @__cxx_global_var_init.10() #0 section ".text.startup" personality ptr @__gxx_personality_v0 {
entry:
  %agg.tmp = alloca %"struct.testing::internal::CodeLocation", align 8
  %ref.tmp = alloca %"class.std::__cxx11::basic_string", align 8
  %ref.tmp1 = alloca %"class.std::allocator", align 1
  %exn.slot = alloca ptr, align 8
  %ehselector.slot = alloca i32, align 4
  call void @_ZNSaIcEC1Ev(ptr noundef nonnull align 1 dereferenceable(1) %ref.tmp1) #3
  invoke void @_ZNSt7__cxx1112basic_stringIcSt11char_traitsIcESaIcEEC2IS3_EEPKcRKS3_(ptr noundef nonnull align 8 dereferenceable(32) %ref.tmp, ptr noundef @.str.3, ptr noundef nonnull align 1 dereferenceable(1) %ref.tmp1)
          to label %invoke.cont unwind label %lpad

invoke.cont:                                      ; preds = %entry
  invoke void @_ZN7testing8internal12CodeLocationC2ERKNSt7__cxx1112basic_stringIcSt11char_traitsIcESaIcEEEi(ptr noundef nonnull align 8 dereferenceable(36) %agg.tmp, ptr noundef nonnull align 8 dereferenceable(32) %ref.tmp, i32 noundef 169)
          to label %invoke.cont3 unwind label %lpad2

invoke.cont3:                                     ; preds = %invoke.cont
  %call = invoke noundef ptr @_ZN7testing8internal13GetTestTypeIdEv()
          to label %invoke.cont5 unwind label %lpad4

invoke.cont5:                                     ; preds = %invoke.cont3
  %call7 = invoke noundef ptr @_ZN7testing8internal16SuiteApiResolverINS_4TestEE19GetSetUpCaseOrSuiteEPKci(ptr noundef @.str.3, i32 noundef 169)
          to label %invoke.cont6 unwind label %lpad4

invoke.cont6:                                     ; preds = %invoke.cont5
  %call9 = invoke noundef ptr @_ZN7testing8internal16SuiteApiResolverINS_4TestEE22GetTearDownCaseOrSuiteEPKci(ptr noundef @.str.3, i32 noundef 169)
          to label %invoke.cont8 unwind label %lpad4

invoke.cont8:                                     ; preds = %invoke.cont6
  %call11 = invoke noalias noundef nonnull ptr @_Znwm(i64 noundef 8) #13
          to label %invoke.cont10 unwind label %lpad4

invoke.cont10:                                    ; preds = %invoke.cont8
  invoke void @_ZN7testing8internal15TestFactoryImplIN4absl12_GLOBAL__N_139CompareResultAsLessThan_SanityTest_TestEEC2Ev(ptr noundef nonnull align 8 dereferenceable(8) %call11)
          to label %invoke.cont13 unwind label %lpad12

invoke.cont13:                                    ; preds = %invoke.cont10
  %call15 = invoke noundef ptr @_ZN7testing8internal23MakeAndRegisterTestInfoEPKcS2_S2_S2_NS0_12CodeLocationEPKvPFvvES7_PNS0_15TestFactoryBaseE(ptr noundef @.str.11, ptr noundef @.str.12, ptr noundef null, ptr noundef null, ptr noundef %agg.tmp, ptr noundef %call, ptr noundef %call7, ptr noundef %call9, ptr noundef %call11)
          to label %invoke.cont14 unwind label %lpad4

invoke.cont14:                                    ; preds = %invoke.cont13
  call void @_ZN7testing8internal12CodeLocationD2Ev(ptr noundef nonnull align 8 dereferenceable(36) %agg.tmp) #3
  call void @_ZNSt7__cxx1112basic_stringIcSt11char_traitsIcESaIcEED1Ev(ptr noundef nonnull align 8 dereferenceable(32) %ref.tmp) #3
  call void @_ZNSaIcED1Ev(ptr noundef nonnull align 1 dereferenceable(1) %ref.tmp1) #3
  store ptr %call15, ptr @_ZN4absl12_GLOBAL__N_139CompareResultAsLessThan_SanityTest_Test10test_info_E, align 8
  ret void

lpad:                                             ; preds = %entry
  %0 = landingpad { ptr, i32 }
          cleanup
  %1 = extractvalue { ptr, i32 } %0, 0
  store ptr %1, ptr %exn.slot, align 8
  %2 = extractvalue { ptr, i32 } %0, 1
  store i32 %2, ptr %ehselector.slot, align 4
  br label %ehcleanup17

lpad2:                                            ; preds = %invoke.cont
  %3 = landingpad { ptr, i32 }
          cleanup
  %4 = extractvalue { ptr, i32 } %3, 0
  store ptr %4, ptr %exn.slot, align 8
  %5 = extractvalue { ptr, i32 } %3, 1
  store i32 %5, ptr %ehselector.slot, align 4
  br label %ehcleanup16

lpad4:                                            ; preds = %invoke.cont13, %invoke.cont8, %invoke.cont6, %invoke.cont5, %invoke.cont3
  %6 = landingpad { ptr, i32 }
          cleanup
  %7 = extractvalue { ptr, i32 } %6, 0
  store ptr %7, ptr %exn.slot, align 8
  %8 = extractvalue { ptr, i32 } %6, 1
  store i32 %8, ptr %ehselector.slot, align 4
  br label %ehcleanup

lpad12:                                           ; preds = %invoke.cont10
  %9 = landingpad { ptr, i32 }
          cleanup
  %10 = extractvalue { ptr, i32 } %9, 0
  store ptr %10, ptr %exn.slot, align 8
  %11 = extractvalue { ptr, i32 } %9, 1
  store i32 %11, ptr %ehselector.slot, align 4
  call void @_ZdlPv(ptr noundef %call11) #14
  br label %ehcleanup

ehcleanup:                                        ; preds = %lpad12, %lpad4
  call void @_ZN7testing8internal12CodeLocationD2Ev(ptr noundef nonnull align 8 dereferenceable(36) %agg.tmp) #3
  br label %ehcleanup16

ehcleanup16:                                      ; preds = %ehcleanup, %lpad2
  call void @_ZNSt7__cxx1112basic_stringIcSt11char_traitsIcESaIcEED1Ev(ptr noundef nonnull align 8 dereferenceable(32) %ref.tmp) #3
  br label %ehcleanup17

ehcleanup17:                                      ; preds = %ehcleanup16, %lpad
  call void @_ZNSaIcED1Ev(ptr noundef nonnull align 1 dereferenceable(1) %ref.tmp1) #3
  br label %eh.resume

eh.resume:                                        ; preds = %ehcleanup17
  %exn = load ptr, ptr %exn.slot, align 8
  %sel = load i32, ptr %ehselector.slot, align 4
  %lpad.val = insertvalue { ptr, i32 } poison, ptr %exn, 0
  %lpad.val18 = insertvalue { ptr, i32 } %lpad.val, i32 %sel, 1
  resume { ptr, i32 } %lpad.val18
}

; Function Attrs: mustprogress nounwind uwtable
define internal void @_ZN7testing8internal15TestFactoryImplIN4absl12_GLOBAL__N_139CompareResultAsLessThan_SanityTest_TestEEC2Ev(ptr noundef nonnull align 8 dereferenceable(8) %this) unnamed_addr #7 align 2 {
entry:
  %this.addr = alloca ptr, align 8
  store ptr %this, ptr %this.addr, align 8
  %this1 = load ptr, ptr %this.addr, align 8
  call void @_ZN7testing8internal15TestFactoryBaseC2Ev(ptr noundef nonnull align 8 dereferenceable(8) %this1)
  store ptr getelementptr inbounds ({ [5 x ptr] }, ptr @_ZTVN7testing8internal15TestFactoryImplIN4absl12_GLOBAL__N_139CompareResultAsLessThan_SanityTest_TestEEE, i32 0, inrange i32 0, i32 2), ptr %this1, align 8
  ret void
}

; Function Attrs: uwtable
define internal void @__cxx_global_var_init.13() #0 section ".text.startup" personality ptr @__gxx_personality_v0 {
entry:
  %agg.tmp = alloca %"struct.testing::internal::CodeLocation", align 8
  %ref.tmp = alloca %"class.std::__cxx11::basic_string", align 8
  %ref.tmp1 = alloca %"class.std::allocator", align 1
  %exn.slot = alloca ptr, align 8
  %ehselector.slot = alloca i32, align 4
  call void @_ZNSaIcEC1Ev(ptr noundef nonnull align 1 dereferenceable(1) %ref.tmp1) #3
  invoke void @_ZNSt7__cxx1112basic_stringIcSt11char_traitsIcESaIcEEC2IS3_EEPKcRKS3_(ptr noundef nonnull align 8 dereferenceable(32) %ref.tmp, ptr noundef @.str.3, ptr noundef nonnull align 1 dereferenceable(1) %ref.tmp1)
          to label %invoke.cont unwind label %lpad

invoke.cont:                                      ; preds = %entry
  invoke void @_ZN7testing8internal12CodeLocationC2ERKNSt7__cxx1112basic_stringIcSt11char_traitsIcESaIcEEEi(ptr noundef nonnull align 8 dereferenceable(36) %agg.tmp, ptr noundef nonnull align 8 dereferenceable(32) %ref.tmp, i32 noundef 181)
          to label %invoke.cont3 unwind label %lpad2

invoke.cont3:                                     ; preds = %invoke.cont
  %call = invoke noundef ptr @_ZN7testing8internal13GetTestTypeIdEv()
          to label %invoke.cont5 unwind label %lpad4

invoke.cont5:                                     ; preds = %invoke.cont3
  %call7 = invoke noundef ptr @_ZN7testing8internal16SuiteApiResolverINS_4TestEE19GetSetUpCaseOrSuiteEPKci(ptr noundef @.str.3, i32 noundef 181)
          to label %invoke.cont6 unwind label %lpad4

invoke.cont6:                                     ; preds = %invoke.cont5
  %call9 = invoke noundef ptr @_ZN7testing8internal16SuiteApiResolverINS_4TestEE22GetTearDownCaseOrSuiteEPKci(ptr noundef @.str.3, i32 noundef 181)
          to label %invoke.cont8 unwind label %lpad4

invoke.cont8:                                     ; preds = %invoke.cont6
  %call11 = invoke noalias noundef nonnull ptr @_Znwm(i64 noundef 8) #13
          to label %invoke.cont10 unwind label %lpad4

invoke.cont10:                                    ; preds = %invoke.cont8
  invoke void @_ZN7testing8internal15TestFactoryImplIN4absl12_GLOBAL__N_136DoLessThanComparison_SanityTest_TestEEC2Ev(ptr noundef nonnull align 8 dereferenceable(8) %call11)
          to label %invoke.cont13 unwind label %lpad12

invoke.cont13:                                    ; preds = %invoke.cont10
  %call15 = invoke noundef ptr @_ZN7testing8internal23MakeAndRegisterTestInfoEPKcS2_S2_S2_NS0_12CodeLocationEPKvPFvvES7_PNS0_15TestFactoryBaseE(ptr noundef @.str.14, ptr noundef @.str.12, ptr noundef null, ptr noundef null, ptr noundef %agg.tmp, ptr noundef %call, ptr noundef %call7, ptr noundef %call9, ptr noundef %call11)
          to label %invoke.cont14 unwind label %lpad4

invoke.cont14:                                    ; preds = %invoke.cont13
  call void @_ZN7testing8internal12CodeLocationD2Ev(ptr noundef nonnull align 8 dereferenceable(36) %agg.tmp) #3
  call void @_ZNSt7__cxx1112basic_stringIcSt11char_traitsIcESaIcEED1Ev(ptr noundef nonnull align 8 dereferenceable(32) %ref.tmp) #3
  call void @_ZNSaIcED1Ev(ptr noundef nonnull align 1 dereferenceable(1) %ref.tmp1) #3
  store ptr %call15, ptr @_ZN4absl12_GLOBAL__N_136DoLessThanComparison_SanityTest_Test10test_info_E, align 8
  ret void

lpad:                                             ; preds = %entry
  %0 = landingpad { ptr, i32 }
          cleanup
  %1 = extractvalue { ptr, i32 } %0, 0
  store ptr %1, ptr %exn.slot, align 8
  %2 = extractvalue { ptr, i32 } %0, 1
  store i32 %2, ptr %ehselector.slot, align 4
  br label %ehcleanup17

lpad2:                                            ; preds = %invoke.cont
  %3 = landingpad { ptr, i32 }
          cleanup
  %4 = extractvalue { ptr, i32 } %3, 0
  store ptr %4, ptr %exn.slot, align 8
  %5 = extractvalue { ptr, i32 } %3, 1
  store i32 %5, ptr %ehselector.slot, align 4
  br label %ehcleanup16

lpad4:                                            ; preds = %invoke.cont13, %invoke.cont8, %invoke.cont6, %invoke.cont5, %invoke.cont3
  %6 = landingpad { ptr, i32 }
          cleanup
  %7 = extractvalue { ptr, i32 } %6, 0
  store ptr %7, ptr %exn.slot, align 8
  %8 = extractvalue { ptr, i32 } %6, 1
  store i32 %8, ptr %ehselector.slot, align 4
  br label %ehcleanup

lpad12:                                           ; preds = %invoke.cont10
  %9 = landingpad { ptr, i32 }
          cleanup
  %10 = extractvalue { ptr, i32 } %9, 0
  store ptr %10, ptr %exn.slot, align 8
  %11 = extractvalue { ptr, i32 } %9, 1
  store i32 %11, ptr %ehselector.slot, align 4
  call void @_ZdlPv(ptr noundef %call11) #14
  br label %ehcleanup

ehcleanup:                                        ; preds = %lpad12, %lpad4
  call void @_ZN7testing8internal12CodeLocationD2Ev(ptr noundef nonnull align 8 dereferenceable(36) %agg.tmp) #3
  br label %ehcleanup16

ehcleanup16:                                      ; preds = %ehcleanup, %lpad2
  call void @_ZNSt7__cxx1112basic_stringIcSt11char_traitsIcESaIcEED1Ev(ptr noundef nonnull align 8 dereferenceable(32) %ref.tmp) #3
  br label %ehcleanup17

ehcleanup17:                                      ; preds = %ehcleanup16, %lpad
  call void @_ZNSaIcED1Ev(ptr noundef nonnull align 1 dereferenceable(1) %ref.tmp1) #3
  br label %eh.resume

eh.resume:                                        ; preds = %ehcleanup17
  %exn = load ptr, ptr %exn.slot, align 8
  %sel = load i32, ptr %ehselector.slot, align 4
  %lpad.val = insertvalue { ptr, i32 } poison, ptr %exn, 0
  %lpad.val18 = insertvalue { ptr, i32 } %lpad.val, i32 %sel, 1
  resume { ptr, i32 } %lpad.val18
}

; Function Attrs: mustprogress nounwind uwtable
define internal void @_ZN7testing8internal15TestFactoryImplIN4absl12_GLOBAL__N_136DoLessThanComparison_SanityTest_TestEEC2Ev(ptr noundef nonnull align 8 dereferenceable(8) %this) unnamed_addr #7 align 2 {
entry:
  %this.addr = alloca ptr, align 8
  store ptr %this, ptr %this.addr, align 8
  %this1 = load ptr, ptr %this.addr, align 8
  call void @_ZN7testing8internal15TestFactoryBaseC2Ev(ptr noundef nonnull align 8 dereferenceable(8) %this1)
  store ptr getelementptr inbounds ({ [5 x ptr] }, ptr @_ZTVN7testing8internal15TestFactoryImplIN4absl12_GLOBAL__N_136DoLessThanComparison_SanityTest_TestEEE, i32 0, inrange i32 0, i32 2), ptr %this1, align 8
  ret void
}

; Function Attrs: uwtable
define internal void @__cxx_global_var_init.15() #0 section ".text.startup" personality ptr @__gxx_personality_v0 {
entry:
  %agg.tmp = alloca %"struct.testing::internal::CodeLocation", align 8
  %ref.tmp = alloca %"class.std::__cxx11::basic_string", align 8
  %ref.tmp1 = alloca %"class.std::allocator", align 1
  %exn.slot = alloca ptr, align 8
  %ehselector.slot = alloca i32, align 4
  call void @_ZNSaIcEC1Ev(ptr noundef nonnull align 1 dereferenceable(1) %ref.tmp1) #3
  invoke void @_ZNSt7__cxx1112basic_stringIcSt11char_traitsIcESaIcEEC2IS3_EEPKcRKS3_(ptr noundef nonnull align 8 dereferenceable(32) %ref.tmp, ptr noundef @.str.3, ptr noundef nonnull align 1 dereferenceable(1) %ref.tmp1)
          to label %invoke.cont unwind label %lpad

invoke.cont:                                      ; preds = %entry
  invoke void @_ZN7testing8internal12CodeLocationC2ERKNSt7__cxx1112basic_stringIcSt11char_traitsIcESaIcEEEi(ptr noundef nonnull align 8 dereferenceable(36) %agg.tmp, ptr noundef nonnull align 8 dereferenceable(32) %ref.tmp, i32 noundef 195)
          to label %invoke.cont3 unwind label %lpad2

invoke.cont3:                                     ; preds = %invoke.cont
  %call = invoke noundef ptr @_ZN7testing8internal13GetTestTypeIdEv()
          to label %invoke.cont5 unwind label %lpad4

invoke.cont5:                                     ; preds = %invoke.cont3
  %call7 = invoke noundef ptr @_ZN7testing8internal16SuiteApiResolverINS_4TestEE19GetSetUpCaseOrSuiteEPKci(ptr noundef @.str.3, i32 noundef 195)
          to label %invoke.cont6 unwind label %lpad4

invoke.cont6:                                     ; preds = %invoke.cont5
  %call9 = invoke noundef ptr @_ZN7testing8internal16SuiteApiResolverINS_4TestEE22GetTearDownCaseOrSuiteEPKci(ptr noundef @.str.3, i32 noundef 195)
          to label %invoke.cont8 unwind label %lpad4

invoke.cont8:                                     ; preds = %invoke.cont6
  %call11 = invoke noalias noundef nonnull ptr @_Znwm(i64 noundef 8) #13
          to label %invoke.cont10 unwind label %lpad4

invoke.cont10:                                    ; preds = %invoke.cont8
  invoke void @_ZN7testing8internal15TestFactoryImplIN4absl12_GLOBAL__N_139CompareResultAsOrdering_SanityTest_TestEEC2Ev(ptr noundef nonnull align 8 dereferenceable(8) %call11)
          to label %invoke.cont13 unwind label %lpad12

invoke.cont13:                                    ; preds = %invoke.cont10
  %call15 = invoke noundef ptr @_ZN7testing8internal23MakeAndRegisterTestInfoEPKcS2_S2_S2_NS0_12CodeLocationEPKvPFvvES7_PNS0_15TestFactoryBaseE(ptr noundef @.str.16, ptr noundef @.str.12, ptr noundef null, ptr noundef null, ptr noundef %agg.tmp, ptr noundef %call, ptr noundef %call7, ptr noundef %call9, ptr noundef %call11)
          to label %invoke.cont14 unwind label %lpad4

invoke.cont14:                                    ; preds = %invoke.cont13
  call void @_ZN7testing8internal12CodeLocationD2Ev(ptr noundef nonnull align 8 dereferenceable(36) %agg.tmp) #3
  call void @_ZNSt7__cxx1112basic_stringIcSt11char_traitsIcESaIcEED1Ev(ptr noundef nonnull align 8 dereferenceable(32) %ref.tmp) #3
  call void @_ZNSaIcED1Ev(ptr noundef nonnull align 1 dereferenceable(1) %ref.tmp1) #3
  store ptr %call15, ptr @_ZN4absl12_GLOBAL__N_139CompareResultAsOrdering_SanityTest_Test10test_info_E, align 8
  ret void

lpad:                                             ; preds = %entry
  %0 = landingpad { ptr, i32 }
          cleanup
  %1 = extractvalue { ptr, i32 } %0, 0
  store ptr %1, ptr %exn.slot, align 8
  %2 = extractvalue { ptr, i32 } %0, 1
  store i32 %2, ptr %ehselector.slot, align 4
  br label %ehcleanup17

lpad2:                                            ; preds = %invoke.cont
  %3 = landingpad { ptr, i32 }
          cleanup
  %4 = extractvalue { ptr, i32 } %3, 0
  store ptr %4, ptr %exn.slot, align 8
  %5 = extractvalue { ptr, i32 } %3, 1
  store i32 %5, ptr %ehselector.slot, align 4
  br label %ehcleanup16

lpad4:                                            ; preds = %invoke.cont13, %invoke.cont8, %invoke.cont6, %invoke.cont5, %invoke.cont3
  %6 = landingpad { ptr, i32 }
          cleanup
  %7 = extractvalue { ptr, i32 } %6, 0
  store ptr %7, ptr %exn.slot, align 8
  %8 = extractvalue { ptr, i32 } %6, 1
  store i32 %8, ptr %ehselector.slot, align 4
  br label %ehcleanup

lpad12:                                           ; preds = %invoke.cont10
  %9 = landingpad { ptr, i32 }
          cleanup
  %10 = extractvalue { ptr, i32 } %9, 0
  store ptr %10, ptr %exn.slot, align 8
  %11 = extractvalue { ptr, i32 } %9, 1
  store i32 %11, ptr %ehselector.slot, align 4
  call void @_ZdlPv(ptr noundef %call11) #14
  br label %ehcleanup

ehcleanup:                                        ; preds = %lpad12, %lpad4
  call void @_ZN7testing8internal12CodeLocationD2Ev(ptr noundef nonnull align 8 dereferenceable(36) %agg.tmp) #3
  br label %ehcleanup16

ehcleanup16:                                      ; preds = %ehcleanup, %lpad2
  call void @_ZNSt7__cxx1112basic_stringIcSt11char_traitsIcESaIcEED1Ev(ptr noundef nonnull align 8 dereferenceable(32) %ref.tmp) #3
  br label %ehcleanup17

ehcleanup17:                                      ; preds = %ehcleanup16, %lpad
  call void @_ZNSaIcED1Ev(ptr noundef nonnull align 1 dereferenceable(1) %ref.tmp1) #3
  br label %eh.resume

eh.resume:                                        ; preds = %ehcleanup17
  %exn = load ptr, ptr %exn.slot, align 8
  %sel = load i32, ptr %ehselector.slot, align 4
  %lpad.val = insertvalue { ptr, i32 } poison, ptr %exn, 0
  %lpad.val18 = insertvalue { ptr, i32 } %lpad.val, i32 %sel, 1
  resume { ptr, i32 } %lpad.val18
}

; Function Attrs: mustprogress nounwind uwtable
define internal void @_ZN7testing8internal15TestFactoryImplIN4absl12_GLOBAL__N_139CompareResultAsOrdering_SanityTest_TestEEC2Ev(ptr noundef nonnull align 8 dereferenceable(8) %this) unnamed_addr #7 align 2 {
entry:
  %this.addr = alloca ptr, align 8
  store ptr %this, ptr %this.addr, align 8
  %this1 = load ptr, ptr %this.addr, align 8
  call void @_ZN7testing8internal15TestFactoryBaseC2Ev(ptr noundef nonnull align 8 dereferenceable(8) %this1)
  store ptr getelementptr inbounds ({ [5 x ptr] }, ptr @_ZTVN7testing8internal15TestFactoryImplIN4absl12_GLOBAL__N_139CompareResultAsOrdering_SanityTest_TestEEE, i32 0, inrange i32 0, i32 2), ptr %this1, align 8
  ret void
}

; Function Attrs: uwtable
define internal void @__cxx_global_var_init.17() #0 section ".text.startup" personality ptr @__gxx_personality_v0 {
entry:
  %agg.tmp = alloca %"struct.testing::internal::CodeLocation", align 8
  %ref.tmp = alloca %"class.std::__cxx11::basic_string", align 8
  %ref.tmp1 = alloca %"class.std::allocator", align 1
  %exn.slot = alloca ptr, align 8
  %ehselector.slot = alloca i32, align 4
  call void @_ZNSaIcEC1Ev(ptr noundef nonnull align 1 dereferenceable(1) %ref.tmp1) #3
  invoke void @_ZNSt7__cxx1112basic_stringIcSt11char_traitsIcESaIcEEC2IS3_EEPKcRKS3_(ptr noundef nonnull align 8 dereferenceable(32) %ref.tmp, ptr noundef @.str.3, ptr noundef nonnull align 1 dereferenceable(1) %ref.tmp1)
          to label %invoke.cont unwind label %lpad

invoke.cont:                                      ; preds = %entry
  invoke void @_ZN7testing8internal12CodeLocationC2ERKNSt7__cxx1112basic_stringIcSt11char_traitsIcESaIcEEEi(ptr noundef nonnull align 8 dereferenceable(36) %agg.tmp, ptr noundef nonnull align 8 dereferenceable(32) %ref.tmp, i32 noundef 236)
          to label %invoke.cont3 unwind label %lpad2

invoke.cont3:                                     ; preds = %invoke.cont
  %call = invoke noundef ptr @_ZN7testing8internal13GetTestTypeIdEv()
          to label %invoke.cont5 unwind label %lpad4

invoke.cont5:                                     ; preds = %invoke.cont3
  %call7 = invoke noundef ptr @_ZN7testing8internal16SuiteApiResolverINS_4TestEE19GetSetUpCaseOrSuiteEPKci(ptr noundef @.str.3, i32 noundef 236)
          to label %invoke.cont6 unwind label %lpad4

invoke.cont6:                                     ; preds = %invoke.cont5
  %call9 = invoke noundef ptr @_ZN7testing8internal16SuiteApiResolverINS_4TestEE22GetTearDownCaseOrSuiteEPKci(ptr noundef @.str.3, i32 noundef 236)
          to label %invoke.cont8 unwind label %lpad4

invoke.cont8:                                     ; preds = %invoke.cont6
  %call11 = invoke noalias noundef nonnull ptr @_Znwm(i64 noundef 8) #13
          to label %invoke.cont10 unwind label %lpad4

invoke.cont10:                                    ; preds = %invoke.cont8
  invoke void @_ZN7testing8internal15TestFactoryImplIN4absl12_GLOBAL__N_136DoThreeWayComparison_SanityTest_TestEEC2Ev(ptr noundef nonnull align 8 dereferenceable(8) %call11)
          to label %invoke.cont13 unwind label %lpad12

invoke.cont13:                                    ; preds = %invoke.cont10
  %call15 = invoke noundef ptr @_ZN7testing8internal23MakeAndRegisterTestInfoEPKcS2_S2_S2_NS0_12CodeLocationEPKvPFvvES7_PNS0_15TestFactoryBaseE(ptr noundef @.str.18, ptr noundef @.str.12, ptr noundef null, ptr noundef null, ptr noundef %agg.tmp, ptr noundef %call, ptr noundef %call7, ptr noundef %call9, ptr noundef %call11)
          to label %invoke.cont14 unwind label %lpad4

invoke.cont14:                                    ; preds = %invoke.cont13
  call void @_ZN7testing8internal12CodeLocationD2Ev(ptr noundef nonnull align 8 dereferenceable(36) %agg.tmp) #3
  call void @_ZNSt7__cxx1112basic_stringIcSt11char_traitsIcESaIcEED1Ev(ptr noundef nonnull align 8 dereferenceable(32) %ref.tmp) #3
  call void @_ZNSaIcED1Ev(ptr noundef nonnull align 1 dereferenceable(1) %ref.tmp1) #3
  store ptr %call15, ptr @_ZN4absl12_GLOBAL__N_136DoThreeWayComparison_SanityTest_Test10test_info_E, align 8
  ret void

lpad:                                             ; preds = %entry
  %0 = landingpad { ptr, i32 }
          cleanup
  %1 = extractvalue { ptr, i32 } %0, 0
  store ptr %1, ptr %exn.slot, align 8
  %2 = extractvalue { ptr, i32 } %0, 1
  store i32 %2, ptr %ehselector.slot, align 4
  br label %ehcleanup17

lpad2:                                            ; preds = %invoke.cont
  %3 = landingpad { ptr, i32 }
          cleanup
  %4 = extractvalue { ptr, i32 } %3, 0
  store ptr %4, ptr %exn.slot, align 8
  %5 = extractvalue { ptr, i32 } %3, 1
  store i32 %5, ptr %ehselector.slot, align 4
  br label %ehcleanup16

lpad4:                                            ; preds = %invoke.cont13, %invoke.cont8, %invoke.cont6, %invoke.cont5, %invoke.cont3
  %6 = landingpad { ptr, i32 }
          cleanup
  %7 = extractvalue { ptr, i32 } %6, 0
  store ptr %7, ptr %exn.slot, align 8
  %8 = extractvalue { ptr, i32 } %6, 1
  store i32 %8, ptr %ehselector.slot, align 4
  br label %ehcleanup

lpad12:                                           ; preds = %invoke.cont10
  %9 = landingpad { ptr, i32 }
          cleanup
  %10 = extractvalue { ptr, i32 } %9, 0
  store ptr %10, ptr %exn.slot, align 8
  %11 = extractvalue { ptr, i32 } %9, 1
  store i32 %11, ptr %ehselector.slot, align 4
  call void @_ZdlPv(ptr noundef %call11) #14
  br label %ehcleanup

ehcleanup:                                        ; preds = %lpad12, %lpad4
  call void @_ZN7testing8internal12CodeLocationD2Ev(ptr noundef nonnull align 8 dereferenceable(36) %agg.tmp) #3
  br label %ehcleanup16

ehcleanup16:                                      ; preds = %ehcleanup, %lpad2
  call void @_ZNSt7__cxx1112basic_stringIcSt11char_traitsIcESaIcEED1Ev(ptr noundef nonnull align 8 dereferenceable(32) %ref.tmp) #3
  br label %ehcleanup17

ehcleanup17:                                      ; preds = %ehcleanup16, %lpad
  call void @_ZNSaIcED1Ev(ptr noundef nonnull align 1 dereferenceable(1) %ref.tmp1) #3
  br label %eh.resume

eh.resume:                                        ; preds = %ehcleanup17
  %exn = load ptr, ptr %exn.slot, align 8
  %sel = load i32, ptr %ehselector.slot, align 4
  %lpad.val = insertvalue { ptr, i32 } poison, ptr %exn, 0
  %lpad.val18 = insertvalue { ptr, i32 } %lpad.val, i32 %sel, 1
  resume { ptr, i32 } %lpad.val18
}

; Function Attrs: mustprogress nounwind uwtable
define internal void @_ZN7testing8internal15TestFactoryImplIN4absl12_GLOBAL__N_136DoThreeWayComparison_SanityTest_TestEEC2Ev(ptr noundef nonnull align 8 dereferenceable(8) %this) unnamed_addr #7 align 2 {
entry:
  %this.addr = alloca ptr, align 8
  store ptr %this, ptr %this.addr, align 8
  %this1 = load ptr, ptr %this.addr, align 8
  call void @_ZN7testing8internal15TestFactoryBaseC2Ev(ptr noundef nonnull align 8 dereferenceable(8) %this1)
  store ptr getelementptr inbounds ({ [5 x ptr] }, ptr @_ZTVN7testing8internal15TestFactoryImplIN4absl12_GLOBAL__N_136DoThreeWayComparison_SanityTest_TestEEE, i32 0, inrange i32 0, i32 2), ptr %this1, align 8
  ret void
}

; Function Attrs: uwtable
define internal void @__cxx_global_var_init.19() #0 section ".text.startup" personality ptr @__gxx_personality_v0 {
entry:
  %agg.tmp = alloca %"struct.testing::internal::CodeLocation", align 8
  %ref.tmp = alloca %"class.std::__cxx11::basic_string", align 8
  %ref.tmp1 = alloca %"class.std::allocator", align 1
  %exn.slot = alloca ptr, align 8
  %ehselector.slot = alloca i32, align 4
  call void @_ZNSaIcEC1Ev(ptr noundef nonnull align 1 dereferenceable(1) %ref.tmp1) #3
  invoke void @_ZNSt7__cxx1112basic_stringIcSt11char_traitsIcESaIcEEC2IS3_EEPKcRKS3_(ptr noundef nonnull align 8 dereferenceable(32) %ref.tmp, ptr noundef @.str.3, ptr noundef nonnull align 1 dereferenceable(1) %ref.tmp1)
          to label %invoke.cont unwind label %lpad

invoke.cont:                                      ; preds = %entry
  invoke void @_ZN7testing8internal12CodeLocationC2ERKNSt7__cxx1112basic_stringIcSt11char_traitsIcESaIcEEEi(ptr noundef nonnull align 8 dereferenceable(36) %agg.tmp, ptr noundef nonnull align 8 dereferenceable(32) %ref.tmp, i32 noundef 281)
          to label %invoke.cont3 unwind label %lpad2

invoke.cont3:                                     ; preds = %invoke.cont
  %call = invoke noundef ptr @_ZN7testing8internal13GetTestTypeIdEv()
          to label %invoke.cont5 unwind label %lpad4

invoke.cont5:                                     ; preds = %invoke.cont3
  %call7 = invoke noundef ptr @_ZN7testing8internal16SuiteApiResolverINS_4TestEE19GetSetUpCaseOrSuiteEPKci(ptr noundef @.str.3, i32 noundef 281)
          to label %invoke.cont6 unwind label %lpad4

invoke.cont6:                                     ; preds = %invoke.cont5
  %call9 = invoke noundef ptr @_ZN7testing8internal16SuiteApiResolverINS_4TestEE22GetTearDownCaseOrSuiteEPKci(ptr noundef @.str.3, i32 noundef 281)
          to label %invoke.cont8 unwind label %lpad4

invoke.cont8:                                     ; preds = %invoke.cont6
  %call11 = invoke noalias noundef nonnull ptr @_Znwm(i64 noundef 8) #13
          to label %invoke.cont10 unwind label %lpad4

invoke.cont10:                                    ; preds = %invoke.cont8
  invoke void @_ZN7testing8internal15TestFactoryImplIN4absl12_GLOBAL__N_126Compare_StaticAsserts_TestEEC2Ev(ptr noundef nonnull align 8 dereferenceable(8) %call11)
          to label %invoke.cont13 unwind label %lpad12

invoke.cont13:                                    ; preds = %invoke.cont10
  %call15 = invoke noundef ptr @_ZN7testing8internal23MakeAndRegisterTestInfoEPKcS2_S2_S2_NS0_12CodeLocationEPKvPFvvES7_PNS0_15TestFactoryBaseE(ptr noundef @.str, ptr noundef @.str.20, ptr noundef null, ptr noundef null, ptr noundef %agg.tmp, ptr noundef %call, ptr noundef %call7, ptr noundef %call9, ptr noundef %call11)
          to label %invoke.cont14 unwind label %lpad4

invoke.cont14:                                    ; preds = %invoke.cont13
  call void @_ZN7testing8internal12CodeLocationD2Ev(ptr noundef nonnull align 8 dereferenceable(36) %agg.tmp) #3
  call void @_ZNSt7__cxx1112basic_stringIcSt11char_traitsIcESaIcEED1Ev(ptr noundef nonnull align 8 dereferenceable(32) %ref.tmp) #3
  call void @_ZNSaIcED1Ev(ptr noundef nonnull align 1 dereferenceable(1) %ref.tmp1) #3
  store ptr %call15, ptr @_ZN4absl12_GLOBAL__N_126Compare_StaticAsserts_Test10test_info_E, align 8
  ret void

lpad:                                             ; preds = %entry
  %0 = landingpad { ptr, i32 }
          cleanup
  %1 = extractvalue { ptr, i32 } %0, 0
  store ptr %1, ptr %exn.slot, align 8
  %2 = extractvalue { ptr, i32 } %0, 1
  store i32 %2, ptr %ehselector.slot, align 4
  br label %ehcleanup17

lpad2:                                            ; preds = %invoke.cont
  %3 = landingpad { ptr, i32 }
          cleanup
  %4 = extractvalue { ptr, i32 } %3, 0
  store ptr %4, ptr %exn.slot, align 8
  %5 = extractvalue { ptr, i32 } %3, 1
  store i32 %5, ptr %ehselector.slot, align 4
  br label %ehcleanup16

lpad4:                                            ; preds = %invoke.cont13, %invoke.cont8, %invoke.cont6, %invoke.cont5, %invoke.cont3
  %6 = landingpad { ptr, i32 }
          cleanup
  %7 = extractvalue { ptr, i32 } %6, 0
  store ptr %7, ptr %exn.slot, align 8
  %8 = extractvalue { ptr, i32 } %6, 1
  store i32 %8, ptr %ehselector.slot, align 4
  br label %ehcleanup

lpad12:                                           ; preds = %invoke.cont10
  %9 = landingpad { ptr, i32 }
          cleanup
  %10 = extractvalue { ptr, i32 } %9, 0
  store ptr %10, ptr %exn.slot, align 8
  %11 = extractvalue { ptr, i32 } %9, 1
  store i32 %11, ptr %ehselector.slot, align 4
  call void @_ZdlPv(ptr noundef %call11) #14
  br label %ehcleanup

ehcleanup:                                        ; preds = %lpad12, %lpad4
  call void @_ZN7testing8internal12CodeLocationD2Ev(ptr noundef nonnull align 8 dereferenceable(36) %agg.tmp) #3
  br label %ehcleanup16

ehcleanup16:                                      ; preds = %ehcleanup, %lpad2
  call void @_ZNSt7__cxx1112basic_stringIcSt11char_traitsIcESaIcEED1Ev(ptr noundef nonnull align 8 dereferenceable(32) %ref.tmp) #3
  br label %ehcleanup17

ehcleanup17:                                      ; preds = %ehcleanup16, %lpad
  call void @_ZNSaIcED1Ev(ptr noundef nonnull align 1 dereferenceable(1) %ref.tmp1) #3
  br label %eh.resume

eh.resume:                                        ; preds = %ehcleanup17
  %exn = load ptr, ptr %exn.slot, align 8
  %sel = load i32, ptr %ehselector.slot, align 4
  %lpad.val = insertvalue { ptr, i32 } poison, ptr %exn, 0
  %lpad.val18 = insertvalue { ptr, i32 } %lpad.val, i32 %sel, 1
  resume { ptr, i32 } %lpad.val18
}

; Function Attrs: mustprogress nounwind uwtable
define internal void @_ZN7testing8internal15TestFactoryImplIN4absl12_GLOBAL__N_126Compare_StaticAsserts_TestEEC2Ev(ptr noundef nonnull align 8 dereferenceable(8) %this) unnamed_addr #7 align 2 {
entry:
  %this.addr = alloca ptr, align 8
  store ptr %this, ptr %this.addr, align 8
  %this1 = load ptr, ptr %this.addr, align 8
  call void @_ZN7testing8internal15TestFactoryBaseC2Ev(ptr noundef nonnull align 8 dereferenceable(8) %this1)
  store ptr getelementptr inbounds ({ [5 x ptr] }, ptr @_ZTVN7testing8internal15TestFactoryImplIN4absl12_GLOBAL__N_126Compare_StaticAsserts_TestEEE, i32 0, inrange i32 0, i32 2), ptr %this1, align 8
  ret void
}

declare void @_ZNSt7__cxx1112basic_stringIcSt11char_traitsIcESaIcEEC1ERKS4_(ptr noundef nonnull align 8 dereferenceable(32), ptr noundef nonnull align 8 dereferenceable(32)) unnamed_addr #1

; Function Attrs: mustprogress nounwind uwtable
define linkonce_odr dso_local void @_ZN7testing8internal15TestFactoryBaseC2Ev(ptr noundef nonnull align 8 dereferenceable(8) %this) unnamed_addr #7 comdat align 2 {
entry:
  %this.addr = alloca ptr, align 8
  store ptr %this, ptr %this.addr, align 8
  %this1 = load ptr, ptr %this.addr, align 8
  store ptr getelementptr inbounds ({ [5 x ptr] }, ptr @_ZTVN7testing8internal15TestFactoryBaseE, i32 0, inrange i32 0, i32 2), ptr %this1, align 8
  ret void
}

; Function Attrs: mustprogress nounwind uwtable
define internal void @_ZN7testing8internal15TestFactoryImplIN4absl12_GLOBAL__N_128Compare_PartialOrdering_TestEED2Ev(ptr noundef nonnull align 8 dereferenceable(8) %this) unnamed_addr #7 align 2 {
entry:
  %this.addr = alloca ptr, align 8
  store ptr %this, ptr %this.addr, align 8
  %this1 = load ptr, ptr %this.addr, align 8
  call void @_ZN7testing8internal15TestFactoryBaseD2Ev(ptr noundef nonnull align 8 dereferenceable(8) %this1) #3
  ret void
}

; Function Attrs: mustprogress nounwind uwtable
define internal void @_ZN7testing8internal15TestFactoryImplIN4absl12_GLOBAL__N_128Compare_PartialOrdering_TestEED0Ev(ptr noundef nonnull align 8 dereferenceable(8) %this) unnamed_addr #7 align 2 {
entry:
  %this.addr = alloca ptr, align 8
  store ptr %this, ptr %this.addr, align 8
  %this1 = load ptr, ptr %this.addr, align 8
  call void @_ZN7testing8internal15TestFactoryImplIN4absl12_GLOBAL__N_128Compare_PartialOrdering_TestEED2Ev(ptr noundef nonnull align 8 dereferenceable(8) %this1) #3
  call void @_ZdlPv(ptr noundef %this1) #14
  ret void
}

; Function Attrs: mustprogress uwtable
define internal noundef ptr @_ZN7testing8internal15TestFactoryImplIN4absl12_GLOBAL__N_128Compare_PartialOrdering_TestEE10CreateTestEv(ptr noundef nonnull align 8 dereferenceable(8) %this) unnamed_addr #4 align 2 personality ptr @__gxx_personality_v0 {
entry:
  %this.addr = alloca ptr, align 8
  %exn.slot = alloca ptr, align 8
  %ehselector.slot = alloca i32, align 4
  store ptr %this, ptr %this.addr, align 8
  %call = call noalias noundef nonnull ptr @_Znwm(i64 noundef 16) #13
  invoke void @_ZN4absl12_GLOBAL__N_128Compare_PartialOrdering_TestC2Ev(ptr noundef nonnull align 8 dereferenceable(16) %call)
          to label %invoke.cont unwind label %lpad

invoke.cont:                                      ; preds = %entry
  ret ptr %call

lpad:                                             ; preds = %entry
  %0 = landingpad { ptr, i32 }
          cleanup
  %1 = extractvalue { ptr, i32 } %0, 0
  store ptr %1, ptr %exn.slot, align 8
  %2 = extractvalue { ptr, i32 } %0, 1
  store i32 %2, ptr %ehselector.slot, align 4
  call void @_ZdlPv(ptr noundef %call) #14
  br label %eh.resume

eh.resume:                                        ; preds = %lpad
  %exn = load ptr, ptr %exn.slot, align 8
  %sel = load i32, ptr %ehselector.slot, align 4
  %lpad.val = insertvalue { ptr, i32 } poison, ptr %exn, 0
  %lpad.val2 = insertvalue { ptr, i32 } %lpad.val, i32 %sel, 1
  resume { ptr, i32 } %lpad.val2
}

; Function Attrs: mustprogress nounwind uwtable
define linkonce_odr dso_local void @_ZN7testing8internal15TestFactoryBaseD2Ev(ptr noundef nonnull align 8 dereferenceable(8) %this) unnamed_addr #7 comdat align 2 {
entry:
  %this.addr = alloca ptr, align 8
  store ptr %this, ptr %this.addr, align 8
  ret void
}

; Function Attrs: mustprogress nounwind uwtable
define linkonce_odr dso_local void @_ZN7testing8internal15TestFactoryBaseD0Ev(ptr noundef nonnull align 8 dereferenceable(8) %this) unnamed_addr #7 comdat align 2 {
entry:
  %this.addr = alloca ptr, align 8
  store ptr %this, ptr %this.addr, align 8
  call void @llvm.trap() #16
  unreachable
}

declare void @__cxa_pure_virtual() unnamed_addr

; Function Attrs: cold noreturn nounwind memory(inaccessiblemem: write)
declare void @llvm.trap() #8

; Function Attrs: mustprogress uwtable
define internal void @_ZN4absl12_GLOBAL__N_128Compare_PartialOrdering_TestC2Ev(ptr noundef nonnull align 8 dereferenceable(16) %this) unnamed_addr #4 align 2 {
entry:
  %this.addr = alloca ptr, align 8
  store ptr %this, ptr %this.addr, align 8
  %this1 = load ptr, ptr %this.addr, align 8
  call void @_ZN7testing4TestC2Ev(ptr noundef nonnull align 8 dereferenceable(16) %this1)
  store ptr getelementptr inbounds ({ [8 x ptr] }, ptr @_ZTVN4absl12_GLOBAL__N_128Compare_PartialOrdering_TestE, i32 0, inrange i32 0, i32 2), ptr %this1, align 8
  ret void
}

declare void @_ZN7testing4TestC2Ev(ptr noundef nonnull align 8 dereferenceable(16)) unnamed_addr #1

; Function Attrs: mustprogress nounwind uwtable
define internal void @_ZN4absl12_GLOBAL__N_128Compare_PartialOrdering_TestD2Ev(ptr noundef nonnull align 8 dereferenceable(16) %this) unnamed_addr #7 align 2 {
entry:
  %this.addr = alloca ptr, align 8
  store ptr %this, ptr %this.addr, align 8
  %this1 = load ptr, ptr %this.addr, align 8
  call void @_ZN7testing4TestD2Ev(ptr noundef nonnull align 8 dereferenceable(16) %this1) #3
  ret void
}

; Function Attrs: mustprogress nounwind uwtable
define internal void @_ZN4absl12_GLOBAL__N_128Compare_PartialOrdering_TestD0Ev(ptr noundef nonnull align 8 dereferenceable(16) %this) unnamed_addr #7 align 2 {
entry:
  %this.addr = alloca ptr, align 8
  store ptr %this, ptr %this.addr, align 8
  %this1 = load ptr, ptr %this.addr, align 8
  call void @_ZN4absl12_GLOBAL__N_128Compare_PartialOrdering_TestD2Ev(ptr noundef nonnull align 8 dereferenceable(16) %this1) #3
  call void @_ZdlPv(ptr noundef %this1) #14
  ret void
}

declare void @_ZN7testing4Test5SetUpEv(ptr noundef nonnull align 8 dereferenceable(16)) unnamed_addr #1

declare void @_ZN7testing4Test8TearDownEv(ptr noundef nonnull align 8 dereferenceable(16)) unnamed_addr #1

; Function Attrs: mustprogress uwtable
define internal void @_ZN4absl12_GLOBAL__N_128Compare_PartialOrdering_Test8TestBodyEv(ptr noundef nonnull align 8 dereferenceable(16) %this) unnamed_addr #4 align 2 personality ptr @__gxx_personality_v0 {
entry:
  %this.addr = alloca ptr, align 8
  %gtest_ar_ = alloca %"class.testing::AssertionResult", align 8
  %ref.tmp = alloca i8, align 1
  %agg.tmp = alloca %"class.absl::partial_ordering", align 1
  %agg.tmp2 = alloca %"class.absl::compare_internal::OnlyLiteralZero", align 1
  %exn.slot = alloca ptr, align 8
  %ehselector.slot = alloca i32, align 4
  %ref.tmp5 = alloca %"class.testing::Message", align 8
  %ref.tmp7 = alloca %"class.testing::internal::AssertHelper", align 8
  %ref.tmp8 = alloca %"class.std::__cxx11::basic_string", align 8
  %gtest_ar_18 = alloca %"class.testing::AssertionResult", align 8
  %ref.tmp19 = alloca i8, align 1
  %agg.tmp20 = alloca %"class.absl::compare_internal::OnlyLiteralZero", align 1
  %agg.tmp21 = alloca %"class.absl::partial_ordering", align 1
  %ref.tmp31 = alloca %"class.testing::Message", align 8
  %ref.tmp33 = alloca %"class.testing::internal::AssertHelper", align 8
  %ref.tmp34 = alloca %"class.std::__cxx11::basic_string", align 8
  %gtest_ar_47 = alloca %"class.testing::AssertionResult", align 8
  %ref.tmp48 = alloca i8, align 1
  %agg.tmp49 = alloca %"class.absl::partial_ordering", align 1
  %agg.tmp50 = alloca %"class.absl::compare_internal::OnlyLiteralZero", align 1
  %ref.tmp60 = alloca %"class.testing::Message", align 8
  %ref.tmp62 = alloca %"class.testing::internal::AssertHelper", align 8
  %ref.tmp63 = alloca %"class.std::__cxx11::basic_string", align 8
  %gtest_ar_76 = alloca %"class.testing::AssertionResult", align 8
  %ref.tmp77 = alloca i8, align 1
  %agg.tmp78 = alloca %"class.absl::compare_internal::OnlyLiteralZero", align 1
  %agg.tmp79 = alloca %"class.absl::partial_ordering", align 1
  %ref.tmp89 = alloca %"class.testing::Message", align 8
  %ref.tmp91 = alloca %"class.testing::internal::AssertHelper", align 8
  %ref.tmp92 = alloca %"class.std::__cxx11::basic_string", align 8
  %gtest_ar_105 = alloca %"class.testing::AssertionResult", align 8
  %ref.tmp106 = alloca i8, align 1
  %agg.tmp107 = alloca %"class.absl::partial_ordering", align 1
  %agg.tmp108 = alloca %"class.absl::compare_internal::OnlyLiteralZero", align 1
  %ref.tmp118 = alloca %"class.testing::Message", align 8
  %ref.tmp120 = alloca %"class.testing::internal::AssertHelper", align 8
  %ref.tmp121 = alloca %"class.std::__cxx11::basic_string", align 8
  %gtest_ar_134 = alloca %"class.testing::AssertionResult", align 8
  %ref.tmp135 = alloca i8, align 1
  %agg.tmp136 = alloca %"class.absl::compare_internal::OnlyLiteralZero", align 1
  %agg.tmp137 = alloca %"class.absl::partial_ordering", align 1
  %ref.tmp147 = alloca %"class.testing::Message", align 8
  %ref.tmp149 = alloca %"class.testing::internal::AssertHelper", align 8
  %ref.tmp150 = alloca %"class.std::__cxx11::basic_string", align 8
  %gtest_ar_163 = alloca %"class.testing::AssertionResult", align 8
  %ref.tmp164 = alloca i8, align 1
  %agg.tmp165 = alloca %"class.absl::partial_ordering", align 1
  %agg.tmp166 = alloca %"class.absl::compare_internal::OnlyLiteralZero", align 1
  %ref.tmp176 = alloca %"class.testing::Message", align 8
  %ref.tmp178 = alloca %"class.testing::internal::AssertHelper", align 8
  %ref.tmp179 = alloca %"class.std::__cxx11::basic_string", align 8
  %gtest_ar_192 = alloca %"class.testing::AssertionResult", align 8
  %ref.tmp193 = alloca i8, align 1
  %agg.tmp194 = alloca %"class.absl::compare_internal::OnlyLiteralZero", align 1
  %agg.tmp195 = alloca %"class.absl::partial_ordering", align 1
  %ref.tmp205 = alloca %"class.testing::Message", align 8
  %ref.tmp207 = alloca %"class.testing::internal::AssertHelper", align 8
  %ref.tmp208 = alloca %"class.std::__cxx11::basic_string", align 8
  %gtest_ar_221 = alloca %"class.testing::AssertionResult", align 8
  %ref.tmp222 = alloca i8, align 1
  %agg.tmp223 = alloca %"class.absl::partial_ordering", align 1
  %agg.tmp224 = alloca %"class.absl::compare_internal::OnlyLiteralZero", align 1
  %ref.tmp234 = alloca %"class.testing::Message", align 8
  %ref.tmp236 = alloca %"class.testing::internal::AssertHelper", align 8
  %ref.tmp237 = alloca %"class.std::__cxx11::basic_string", align 8
  %gtest_ar_250 = alloca %"class.testing::AssertionResult", align 8
  %ref.tmp251 = alloca i8, align 1
  %agg.tmp252 = alloca %"class.absl::compare_internal::OnlyLiteralZero", align 1
  %agg.tmp253 = alloca %"class.absl::partial_ordering", align 1
  %ref.tmp263 = alloca %"class.testing::Message", align 8
  %ref.tmp265 = alloca %"class.testing::internal::AssertHelper", align 8
  %ref.tmp266 = alloca %"class.std::__cxx11::basic_string", align 8
  %gtest_ar_279 = alloca %"class.testing::AssertionResult", align 8
  %ref.tmp280 = alloca i8, align 1
  %agg.tmp281 = alloca %"class.absl::partial_ordering", align 1
  %agg.tmp282 = alloca %"class.absl::compare_internal::OnlyLiteralZero", align 1
  %ref.tmp292 = alloca %"class.testing::Message", align 8
  %ref.tmp294 = alloca %"class.testing::internal::AssertHelper", align 8
  %ref.tmp295 = alloca %"class.std::__cxx11::basic_string", align 8
  %gtest_ar_308 = alloca %"class.testing::AssertionResult", align 8
  %ref.tmp309 = alloca i8, align 1
  %agg.tmp310 = alloca %"class.absl::compare_internal::OnlyLiteralZero", align 1
  %agg.tmp311 = alloca %"class.absl::partial_ordering", align 1
  %ref.tmp321 = alloca %"class.testing::Message", align 8
  %ref.tmp323 = alloca %"class.testing::internal::AssertHelper", align 8
  %ref.tmp324 = alloca %"class.std::__cxx11::basic_string", align 8
  %gtest_ar_337 = alloca %"class.testing::AssertionResult", align 8
  %ref.tmp338 = alloca i8, align 1
  %agg.tmp339 = alloca %"class.absl::partial_ordering", align 1
  %agg.tmp340 = alloca %"class.absl::compare_internal::OnlyLiteralZero", align 1
  %ref.tmp350 = alloca %"class.testing::Message", align 8
  %ref.tmp352 = alloca %"class.testing::internal::AssertHelper", align 8
  %ref.tmp353 = alloca %"class.std::__cxx11::basic_string", align 8
  %gtest_ar_366 = alloca %"class.testing::AssertionResult", align 8
  %ref.tmp367 = alloca i8, align 1
  %agg.tmp368 = alloca %"class.absl::compare_internal::OnlyLiteralZero", align 1
  %agg.tmp369 = alloca %"class.absl::partial_ordering", align 1
  %ref.tmp380 = alloca %"class.testing::Message", align 8
  %ref.tmp382 = alloca %"class.testing::internal::AssertHelper", align 8
  %ref.tmp383 = alloca %"class.std::__cxx11::basic_string", align 8
  %gtest_ar_396 = alloca %"class.testing::AssertionResult", align 8
  %ref.tmp397 = alloca i8, align 1
  %agg.tmp398 = alloca %"class.absl::partial_ordering", align 1
  %agg.tmp399 = alloca %"class.absl::compare_internal::OnlyLiteralZero", align 1
  %ref.tmp410 = alloca %"class.testing::Message", align 8
  %ref.tmp412 = alloca %"class.testing::internal::AssertHelper", align 8
  %ref.tmp413 = alloca %"class.std::__cxx11::basic_string", align 8
  %gtest_ar_426 = alloca %"class.testing::AssertionResult", align 8
  %ref.tmp427 = alloca i8, align 1
  %agg.tmp428 = alloca %"class.absl::compare_internal::OnlyLiteralZero", align 1
  %agg.tmp429 = alloca %"class.absl::partial_ordering", align 1
  %ref.tmp440 = alloca %"class.testing::Message", align 8
  %ref.tmp442 = alloca %"class.testing::internal::AssertHelper", align 8
  %ref.tmp443 = alloca %"class.std::__cxx11::basic_string", align 8
  %gtest_ar_456 = alloca %"class.testing::AssertionResult", align 8
  %ref.tmp457 = alloca i8, align 1
  %agg.tmp458 = alloca %"class.absl::partial_ordering", align 1
  %agg.tmp459 = alloca %"class.absl::compare_internal::OnlyLiteralZero", align 1
  %ref.tmp470 = alloca %"class.testing::Message", align 8
  %ref.tmp472 = alloca %"class.testing::internal::AssertHelper", align 8
  %ref.tmp473 = alloca %"class.std::__cxx11::basic_string", align 8
  %gtest_ar_486 = alloca %"class.testing::AssertionResult", align 8
  %ref.tmp487 = alloca i8, align 1
  %agg.tmp488 = alloca %"class.absl::compare_internal::OnlyLiteralZero", align 1
  %agg.tmp489 = alloca %"class.absl::partial_ordering", align 1
  %ref.tmp500 = alloca %"class.testing::Message", align 8
  %ref.tmp502 = alloca %"class.testing::internal::AssertHelper", align 8
  %ref.tmp503 = alloca %"class.std::__cxx11::basic_string", align 8
  %gtest_ar_516 = alloca %"class.testing::AssertionResult", align 8
  %ref.tmp517 = alloca i8, align 1
  %agg.tmp518 = alloca %"class.absl::partial_ordering", align 1
  %agg.tmp519 = alloca %"class.absl::compare_internal::OnlyLiteralZero", align 1
  %ref.tmp530 = alloca %"class.testing::Message", align 8
  %ref.tmp532 = alloca %"class.testing::internal::AssertHelper", align 8
  %ref.tmp533 = alloca %"class.std::__cxx11::basic_string", align 8
  %gtest_ar_546 = alloca %"class.testing::AssertionResult", align 8
  %ref.tmp547 = alloca i8, align 1
  %agg.tmp548 = alloca %"class.absl::compare_internal::OnlyLiteralZero", align 1
  %agg.tmp549 = alloca %"class.absl::partial_ordering", align 1
  %ref.tmp560 = alloca %"class.testing::Message", align 8
  %ref.tmp562 = alloca %"class.testing::internal::AssertHelper", align 8
  %ref.tmp563 = alloca %"class.std::__cxx11::basic_string", align 8
  %values = alloca [4 x %"class.absl::partial_ordering"], align 1
  %__range2 = alloca ptr, align 8
  %__begin2 = alloca ptr, align 8
  %__end2 = alloca ptr, align 8
  %lhs = alloca ptr, align 8
  %__range3 = alloca ptr, align 8
  %__begin3 = alloca ptr, align 8
  %__end3 = alloca ptr, align 8
  %rhs = alloca ptr, align 8
  %are_equal = alloca i8, align 1
  %gtest_ar = alloca %"class.testing::AssertionResult", align 8
  %ref.tmp587 = alloca i8, align 1
  %agg.tmp588 = alloca %"class.absl::partial_ordering", align 1
  %agg.tmp589 = alloca %"class.absl::partial_ordering", align 1
  %ref.tmp599 = alloca %"class.testing::Message", align 8
  %ref.tmp601 = alloca %"class.testing::internal::AssertHelper", align 8
  %gtest_ar612 = alloca %"class.testing::AssertionResult", align 8
  %ref.tmp613 = alloca i8, align 1
  %agg.tmp614 = alloca %"class.absl::partial_ordering", align 1
  %agg.tmp615 = alloca %"class.absl::partial_ordering", align 1
  %ref.tmp620 = alloca i8, align 1
  %ref.tmp628 = alloca %"class.testing::Message", align 8
  %ref.tmp630 = alloca %"class.testing::internal::AssertHelper", align 8
  store ptr %this, ptr %this.addr, align 8
  call void @llvm.memcpy.p0.p0.i64(ptr align 1 %agg.tmp, ptr align 1 @_ZN4absl16partial_ordering4lessE, i64 1, i1 false)
  call void @_ZN4absl16compare_internal15OnlyLiteralZeroC2EUa9enable_ifIXeqfL0p_Li0EEEi(ptr noundef nonnull align 1 dereferenceable(1) %agg.tmp2, i32 noundef 0)
  %coerce.dive = getelementptr inbounds %"class.absl::partial_ordering", ptr %agg.tmp, i32 0, i32 0
  %0 = load i8, ptr %coerce.dive, align 1
  %call = call noundef zeroext i1 @_ZN4abslltENS_16partial_orderingENS_16compare_internal15OnlyLiteralZeroE(i8 %0) #3
  %call3 = call noundef zeroext i1 @_ZN4absl12_GLOBAL__N_18IdentityEb(i1 noundef zeroext %call)
  %frombool = zext i1 %call3 to i8
  store i8 %frombool, ptr %ref.tmp, align 1
  call void @_ZN7testing15AssertionResultC2IbEERKT_PNSt9enable_ifIXntsr3std14is_convertibleIS2_S0_EE5valueEvE4typeE(ptr noundef nonnull align 8 dereferenceable(16) %gtest_ar_, ptr noundef nonnull align 1 dereferenceable(1) %ref.tmp, ptr noundef null)
  %call4 = invoke noundef zeroext i1 @_ZNK7testing15AssertionResultcvbEv(ptr noundef nonnull align 8 dereferenceable(16) %gtest_ar_)
          to label %invoke.cont unwind label %lpad

invoke.cont:                                      ; preds = %entry
  br i1 %call4, label %if.then, label %if.else

if.then:                                          ; preds = %invoke.cont
  br label %if.end

lpad:                                             ; preds = %if.else, %entry
  %1 = landingpad { ptr, i32 }
          cleanup
  %2 = extractvalue { ptr, i32 } %1, 0
  store ptr %2, ptr %exn.slot, align 8
  %3 = extractvalue { ptr, i32 } %1, 1
  store i32 %3, ptr %ehselector.slot, align 4
  br label %ehcleanup17

if.else:                                          ; preds = %invoke.cont
  invoke void @_ZN7testing7MessageC1Ev(ptr noundef nonnull align 8 dereferenceable(8) %ref.tmp5)
          to label %invoke.cont6 unwind label %lpad

invoke.cont6:                                     ; preds = %if.else
  invoke void @_ZN7testing8internal30GetBoolAssertionFailureMessageB5cxx11ERKNS_15AssertionResultEPKcS5_S5_(ptr sret(%"class.std::__cxx11::basic_string") align 8 %ref.tmp8, ptr noundef nonnull align 8 dereferenceable(16) %gtest_ar_, ptr noundef @.str.21, ptr noundef @.str.22, ptr noundef @.str.23)
          to label %invoke.cont10 unwind label %lpad9

invoke.cont10:                                    ; preds = %invoke.cont6
  %call11 = call noundef ptr @_ZNKSt7__cxx1112basic_stringIcSt11char_traitsIcESaIcEE5c_strEv(ptr noundef nonnull align 8 dereferenceable(32) %ref.tmp8) #3
  invoke void @_ZN7testing8internal12AssertHelperC1ENS_14TestPartResult4TypeEPKciS5_(ptr noundef nonnull align 8 dereferenceable(8) %ref.tmp7, i32 noundef 1, ptr noundef @.str.3, i32 noundef 30, ptr noundef %call11)
          to label %invoke.cont13 unwind label %lpad12

invoke.cont13:                                    ; preds = %invoke.cont10
  invoke void @_ZNK7testing8internal12AssertHelperaSERKNS_7MessageE(ptr noundef nonnull align 8 dereferenceable(8) %ref.tmp7, ptr noundef nonnull align 8 dereferenceable(8) %ref.tmp5)
          to label %invoke.cont15 unwind label %lpad14

invoke.cont15:                                    ; preds = %invoke.cont13
  call void @_ZN7testing8internal12AssertHelperD1Ev(ptr noundef nonnull align 8 dereferenceable(8) %ref.tmp7) #3
  call void @_ZNSt7__cxx1112basic_stringIcSt11char_traitsIcESaIcEED1Ev(ptr noundef nonnull align 8 dereferenceable(32) %ref.tmp8) #3
  call void @_ZN7testing7MessageD2Ev(ptr noundef nonnull align 8 dereferenceable(8) %ref.tmp5) #3
  br label %if.end

lpad9:                                            ; preds = %invoke.cont6
  %4 = landingpad { ptr, i32 }
          cleanup
  %5 = extractvalue { ptr, i32 } %4, 0
  store ptr %5, ptr %exn.slot, align 8
  %6 = extractvalue { ptr, i32 } %4, 1
  store i32 %6, ptr %ehselector.slot, align 4
  br label %ehcleanup16

lpad12:                                           ; preds = %invoke.cont10
  %7 = landingpad { ptr, i32 }
          cleanup
  %8 = extractvalue { ptr, i32 } %7, 0
  store ptr %8, ptr %exn.slot, align 8
  %9 = extractvalue { ptr, i32 } %7, 1
  store i32 %9, ptr %ehselector.slot, align 4
  br label %ehcleanup

lpad14:                                           ; preds = %invoke.cont13
  %10 = landingpad { ptr, i32 }
          cleanup
  %11 = extractvalue { ptr, i32 } %10, 0
  store ptr %11, ptr %exn.slot, align 8
  %12 = extractvalue { ptr, i32 } %10, 1
  store i32 %12, ptr %ehselector.slot, align 4
  call void @_ZN7testing8internal12AssertHelperD1Ev(ptr noundef nonnull align 8 dereferenceable(8) %ref.tmp7) #3
  br label %ehcleanup

ehcleanup:                                        ; preds = %lpad14, %lpad12
  call void @_ZNSt7__cxx1112basic_stringIcSt11char_traitsIcESaIcEED1Ev(ptr noundef nonnull align 8 dereferenceable(32) %ref.tmp8) #3
  br label %ehcleanup16

ehcleanup16:                                      ; preds = %ehcleanup, %lpad9
  call void @_ZN7testing7MessageD2Ev(ptr noundef nonnull align 8 dereferenceable(8) %ref.tmp5) #3
  br label %ehcleanup17

if.end:                                           ; preds = %invoke.cont15, %if.then
  call void @_ZN7testing15AssertionResultD2Ev(ptr noundef nonnull align 8 dereferenceable(16) %gtest_ar_) #3
  call void @_ZN4absl16compare_internal15OnlyLiteralZeroC2EUa9enable_ifIXeqfL0p_Li0EEEi(ptr noundef nonnull align 1 dereferenceable(1) %agg.tmp20, i32 noundef 0)
  call void @llvm.memcpy.p0.p0.i64(ptr align 1 %agg.tmp21, ptr align 1 @_ZN4absl16partial_ordering4lessE, i64 1, i1 false)
  %coerce.dive22 = getelementptr inbounds %"class.absl::partial_ordering", ptr %agg.tmp21, i32 0, i32 0
  %13 = load i8, ptr %coerce.dive22, align 1
  %call23 = call noundef zeroext i1 @_ZN4abslgtENS_16compare_internal15OnlyLiteralZeroENS_16partial_orderingE(i8 %13) #3
  %call24 = call noundef zeroext i1 @_ZN4absl12_GLOBAL__N_18IdentityEb(i1 noundef zeroext %call23)
  %frombool25 = zext i1 %call24 to i8
  store i8 %frombool25, ptr %ref.tmp19, align 1
  call void @_ZN7testing15AssertionResultC2IbEERKT_PNSt9enable_ifIXntsr3std14is_convertibleIS2_S0_EE5valueEvE4typeE(ptr noundef nonnull align 8 dereferenceable(16) %gtest_ar_18, ptr noundef nonnull align 1 dereferenceable(1) %ref.tmp19, ptr noundef null)
  %call28 = invoke noundef zeroext i1 @_ZNK7testing15AssertionResultcvbEv(ptr noundef nonnull align 8 dereferenceable(16) %gtest_ar_18)
          to label %invoke.cont27 unwind label %lpad26

invoke.cont27:                                    ; preds = %if.end
  br i1 %call28, label %if.then29, label %if.else30

if.then29:                                        ; preds = %invoke.cont27
  br label %if.end45

ehcleanup17:                                      ; preds = %ehcleanup16, %lpad
  call void @_ZN7testing15AssertionResultD2Ev(ptr noundef nonnull align 8 dereferenceable(16) %gtest_ar_) #3
  br label %eh.resume

lpad26:                                           ; preds = %if.else30, %if.end
  %14 = landingpad { ptr, i32 }
          cleanup
  %15 = extractvalue { ptr, i32 } %14, 0
  store ptr %15, ptr %exn.slot, align 8
  %16 = extractvalue { ptr, i32 } %14, 1
  store i32 %16, ptr %ehselector.slot, align 4
  br label %ehcleanup46

if.else30:                                        ; preds = %invoke.cont27
  invoke void @_ZN7testing7MessageC1Ev(ptr noundef nonnull align 8 dereferenceable(8) %ref.tmp31)
          to label %invoke.cont32 unwind label %lpad26

invoke.cont32:                                    ; preds = %if.else30
  invoke void @_ZN7testing8internal30GetBoolAssertionFailureMessageB5cxx11ERKNS_15AssertionResultEPKcS5_S5_(ptr sret(%"class.std::__cxx11::basic_string") align 8 %ref.tmp34, ptr noundef nonnull align 8 dereferenceable(16) %gtest_ar_18, ptr noundef @.str.24, ptr noundef @.str.22, ptr noundef @.str.23)
          to label %invoke.cont36 unwind label %lpad35

invoke.cont36:                                    ; preds = %invoke.cont32
  %call37 = call noundef ptr @_ZNKSt7__cxx1112basic_stringIcSt11char_traitsIcESaIcEE5c_strEv(ptr noundef nonnull align 8 dereferenceable(32) %ref.tmp34) #3
  invoke void @_ZN7testing8internal12AssertHelperC1ENS_14TestPartResult4TypeEPKciS5_(ptr noundef nonnull align 8 dereferenceable(8) %ref.tmp33, i32 noundef 1, ptr noundef @.str.3, i32 noundef 31, ptr noundef %call37)
          to label %invoke.cont39 unwind label %lpad38

invoke.cont39:                                    ; preds = %invoke.cont36
  invoke void @_ZNK7testing8internal12AssertHelperaSERKNS_7MessageE(ptr noundef nonnull align 8 dereferenceable(8) %ref.tmp33, ptr noundef nonnull align 8 dereferenceable(8) %ref.tmp31)
          to label %invoke.cont41 unwind label %lpad40

invoke.cont41:                                    ; preds = %invoke.cont39
  call void @_ZN7testing8internal12AssertHelperD1Ev(ptr noundef nonnull align 8 dereferenceable(8) %ref.tmp33) #3
  call void @_ZNSt7__cxx1112basic_stringIcSt11char_traitsIcESaIcEED1Ev(ptr noundef nonnull align 8 dereferenceable(32) %ref.tmp34) #3
  call void @_ZN7testing7MessageD2Ev(ptr noundef nonnull align 8 dereferenceable(8) %ref.tmp31) #3
  br label %if.end45

lpad35:                                           ; preds = %invoke.cont32
  %17 = landingpad { ptr, i32 }
          cleanup
  %18 = extractvalue { ptr, i32 } %17, 0
  store ptr %18, ptr %exn.slot, align 8
  %19 = extractvalue { ptr, i32 } %17, 1
  store i32 %19, ptr %ehselector.slot, align 4
  br label %ehcleanup44

lpad38:                                           ; preds = %invoke.cont36
  %20 = landingpad { ptr, i32 }
          cleanup
  %21 = extractvalue { ptr, i32 } %20, 0
  store ptr %21, ptr %exn.slot, align 8
  %22 = extractvalue { ptr, i32 } %20, 1
  store i32 %22, ptr %ehselector.slot, align 4
  br label %ehcleanup43

lpad40:                                           ; preds = %invoke.cont39
  %23 = landingpad { ptr, i32 }
          cleanup
  %24 = extractvalue { ptr, i32 } %23, 0
  store ptr %24, ptr %exn.slot, align 8
  %25 = extractvalue { ptr, i32 } %23, 1
  store i32 %25, ptr %ehselector.slot, align 4
  call void @_ZN7testing8internal12AssertHelperD1Ev(ptr noundef nonnull align 8 dereferenceable(8) %ref.tmp33) #3
  br label %ehcleanup43

ehcleanup43:                                      ; preds = %lpad40, %lpad38
  call void @_ZNSt7__cxx1112basic_stringIcSt11char_traitsIcESaIcEED1Ev(ptr noundef nonnull align 8 dereferenceable(32) %ref.tmp34) #3
  br label %ehcleanup44

ehcleanup44:                                      ; preds = %ehcleanup43, %lpad35
  call void @_ZN7testing7MessageD2Ev(ptr noundef nonnull align 8 dereferenceable(8) %ref.tmp31) #3
  br label %ehcleanup46

if.end45:                                         ; preds = %invoke.cont41, %if.then29
  call void @_ZN7testing15AssertionResultD2Ev(ptr noundef nonnull align 8 dereferenceable(16) %gtest_ar_18) #3
  call void @llvm.memcpy.p0.p0.i64(ptr align 1 %agg.tmp49, ptr align 1 @_ZN4absl16partial_ordering4lessE, i64 1, i1 false)
  call void @_ZN4absl16compare_internal15OnlyLiteralZeroC2EUa9enable_ifIXeqfL0p_Li0EEEi(ptr noundef nonnull align 1 dereferenceable(1) %agg.tmp50, i32 noundef 0)
  %coerce.dive51 = getelementptr inbounds %"class.absl::partial_ordering", ptr %agg.tmp49, i32 0, i32 0
  %26 = load i8, ptr %coerce.dive51, align 1
  %call52 = call noundef zeroext i1 @_ZN4abslleENS_16partial_orderingENS_16compare_internal15OnlyLiteralZeroE(i8 %26) #3
  %call53 = call noundef zeroext i1 @_ZN4absl12_GLOBAL__N_18IdentityEb(i1 noundef zeroext %call52)
  %frombool54 = zext i1 %call53 to i8
  store i8 %frombool54, ptr %ref.tmp48, align 1
  call void @_ZN7testing15AssertionResultC2IbEERKT_PNSt9enable_ifIXntsr3std14is_convertibleIS2_S0_EE5valueEvE4typeE(ptr noundef nonnull align 8 dereferenceable(16) %gtest_ar_47, ptr noundef nonnull align 1 dereferenceable(1) %ref.tmp48, ptr noundef null)
  %call57 = invoke noundef zeroext i1 @_ZNK7testing15AssertionResultcvbEv(ptr noundef nonnull align 8 dereferenceable(16) %gtest_ar_47)
          to label %invoke.cont56 unwind label %lpad55

invoke.cont56:                                    ; preds = %if.end45
  br i1 %call57, label %if.then58, label %if.else59

if.then58:                                        ; preds = %invoke.cont56
  br label %if.end74

ehcleanup46:                                      ; preds = %ehcleanup44, %lpad26
  call void @_ZN7testing15AssertionResultD2Ev(ptr noundef nonnull align 8 dereferenceable(16) %gtest_ar_18) #3
  br label %eh.resume

lpad55:                                           ; preds = %if.else59, %if.end45
  %27 = landingpad { ptr, i32 }
          cleanup
  %28 = extractvalue { ptr, i32 } %27, 0
  store ptr %28, ptr %exn.slot, align 8
  %29 = extractvalue { ptr, i32 } %27, 1
  store i32 %29, ptr %ehselector.slot, align 4
  br label %ehcleanup75

if.else59:                                        ; preds = %invoke.cont56
  invoke void @_ZN7testing7MessageC1Ev(ptr noundef nonnull align 8 dereferenceable(8) %ref.tmp60)
          to label %invoke.cont61 unwind label %lpad55

invoke.cont61:                                    ; preds = %if.else59
  invoke void @_ZN7testing8internal30GetBoolAssertionFailureMessageB5cxx11ERKNS_15AssertionResultEPKcS5_S5_(ptr sret(%"class.std::__cxx11::basic_string") align 8 %ref.tmp63, ptr noundef nonnull align 8 dereferenceable(16) %gtest_ar_47, ptr noundef @.str.25, ptr noundef @.str.22, ptr noundef @.str.23)
          to label %invoke.cont65 unwind label %lpad64

invoke.cont65:                                    ; preds = %invoke.cont61
  %call66 = call noundef ptr @_ZNKSt7__cxx1112basic_stringIcSt11char_traitsIcESaIcEE5c_strEv(ptr noundef nonnull align 8 dereferenceable(32) %ref.tmp63) #3
  invoke void @_ZN7testing8internal12AssertHelperC1ENS_14TestPartResult4TypeEPKciS5_(ptr noundef nonnull align 8 dereferenceable(8) %ref.tmp62, i32 noundef 1, ptr noundef @.str.3, i32 noundef 32, ptr noundef %call66)
          to label %invoke.cont68 unwind label %lpad67

invoke.cont68:                                    ; preds = %invoke.cont65
  invoke void @_ZNK7testing8internal12AssertHelperaSERKNS_7MessageE(ptr noundef nonnull align 8 dereferenceable(8) %ref.tmp62, ptr noundef nonnull align 8 dereferenceable(8) %ref.tmp60)
          to label %invoke.cont70 unwind label %lpad69

invoke.cont70:                                    ; preds = %invoke.cont68
  call void @_ZN7testing8internal12AssertHelperD1Ev(ptr noundef nonnull align 8 dereferenceable(8) %ref.tmp62) #3
  call void @_ZNSt7__cxx1112basic_stringIcSt11char_traitsIcESaIcEED1Ev(ptr noundef nonnull align 8 dereferenceable(32) %ref.tmp63) #3
  call void @_ZN7testing7MessageD2Ev(ptr noundef nonnull align 8 dereferenceable(8) %ref.tmp60) #3
  br label %if.end74

lpad64:                                           ; preds = %invoke.cont61
  %30 = landingpad { ptr, i32 }
          cleanup
  %31 = extractvalue { ptr, i32 } %30, 0
  store ptr %31, ptr %exn.slot, align 8
  %32 = extractvalue { ptr, i32 } %30, 1
  store i32 %32, ptr %ehselector.slot, align 4
  br label %ehcleanup73

lpad67:                                           ; preds = %invoke.cont65
  %33 = landingpad { ptr, i32 }
          cleanup
  %34 = extractvalue { ptr, i32 } %33, 0
  store ptr %34, ptr %exn.slot, align 8
  %35 = extractvalue { ptr, i32 } %33, 1
  store i32 %35, ptr %ehselector.slot, align 4
  br label %ehcleanup72

lpad69:                                           ; preds = %invoke.cont68
  %36 = landingpad { ptr, i32 }
          cleanup
  %37 = extractvalue { ptr, i32 } %36, 0
  store ptr %37, ptr %exn.slot, align 8
  %38 = extractvalue { ptr, i32 } %36, 1
  store i32 %38, ptr %ehselector.slot, align 4
  call void @_ZN7testing8internal12AssertHelperD1Ev(ptr noundef nonnull align 8 dereferenceable(8) %ref.tmp62) #3
  br label %ehcleanup72

ehcleanup72:                                      ; preds = %lpad69, %lpad67
  call void @_ZNSt7__cxx1112basic_stringIcSt11char_traitsIcESaIcEED1Ev(ptr noundef nonnull align 8 dereferenceable(32) %ref.tmp63) #3
  br label %ehcleanup73

ehcleanup73:                                      ; preds = %ehcleanup72, %lpad64
  call void @_ZN7testing7MessageD2Ev(ptr noundef nonnull align 8 dereferenceable(8) %ref.tmp60) #3
  br label %ehcleanup75

if.end74:                                         ; preds = %invoke.cont70, %if.then58
  call void @_ZN7testing15AssertionResultD2Ev(ptr noundef nonnull align 8 dereferenceable(16) %gtest_ar_47) #3
  call void @_ZN4absl16compare_internal15OnlyLiteralZeroC2EUa9enable_ifIXeqfL0p_Li0EEEi(ptr noundef nonnull align 1 dereferenceable(1) %agg.tmp78, i32 noundef 0)
  call void @llvm.memcpy.p0.p0.i64(ptr align 1 %agg.tmp79, ptr align 1 @_ZN4absl16partial_ordering4lessE, i64 1, i1 false)
  %coerce.dive80 = getelementptr inbounds %"class.absl::partial_ordering", ptr %agg.tmp79, i32 0, i32 0
  %39 = load i8, ptr %coerce.dive80, align 1
  %call81 = call noundef zeroext i1 @_ZN4abslgeENS_16compare_internal15OnlyLiteralZeroENS_16partial_orderingE(i8 %39) #3
  %call82 = call noundef zeroext i1 @_ZN4absl12_GLOBAL__N_18IdentityEb(i1 noundef zeroext %call81)
  %frombool83 = zext i1 %call82 to i8
  store i8 %frombool83, ptr %ref.tmp77, align 1
  call void @_ZN7testing15AssertionResultC2IbEERKT_PNSt9enable_ifIXntsr3std14is_convertibleIS2_S0_EE5valueEvE4typeE(ptr noundef nonnull align 8 dereferenceable(16) %gtest_ar_76, ptr noundef nonnull align 1 dereferenceable(1) %ref.tmp77, ptr noundef null)
  %call86 = invoke noundef zeroext i1 @_ZNK7testing15AssertionResultcvbEv(ptr noundef nonnull align 8 dereferenceable(16) %gtest_ar_76)
          to label %invoke.cont85 unwind label %lpad84

invoke.cont85:                                    ; preds = %if.end74
  br i1 %call86, label %if.then87, label %if.else88

if.then87:                                        ; preds = %invoke.cont85
  br label %if.end103

ehcleanup75:                                      ; preds = %ehcleanup73, %lpad55
  call void @_ZN7testing15AssertionResultD2Ev(ptr noundef nonnull align 8 dereferenceable(16) %gtest_ar_47) #3
  br label %eh.resume

lpad84:                                           ; preds = %if.else88, %if.end74
  %40 = landingpad { ptr, i32 }
          cleanup
  %41 = extractvalue { ptr, i32 } %40, 0
  store ptr %41, ptr %exn.slot, align 8
  %42 = extractvalue { ptr, i32 } %40, 1
  store i32 %42, ptr %ehselector.slot, align 4
  br label %ehcleanup104

if.else88:                                        ; preds = %invoke.cont85
  invoke void @_ZN7testing7MessageC1Ev(ptr noundef nonnull align 8 dereferenceable(8) %ref.tmp89)
          to label %invoke.cont90 unwind label %lpad84

invoke.cont90:                                    ; preds = %if.else88
  invoke void @_ZN7testing8internal30GetBoolAssertionFailureMessageB5cxx11ERKNS_15AssertionResultEPKcS5_S5_(ptr sret(%"class.std::__cxx11::basic_string") align 8 %ref.tmp92, ptr noundef nonnull align 8 dereferenceable(16) %gtest_ar_76, ptr noundef @.str.26, ptr noundef @.str.22, ptr noundef @.str.23)
          to label %invoke.cont94 unwind label %lpad93

invoke.cont94:                                    ; preds = %invoke.cont90
  %call95 = call noundef ptr @_ZNKSt7__cxx1112basic_stringIcSt11char_traitsIcESaIcEE5c_strEv(ptr noundef nonnull align 8 dereferenceable(32) %ref.tmp92) #3
  invoke void @_ZN7testing8internal12AssertHelperC1ENS_14TestPartResult4TypeEPKciS5_(ptr noundef nonnull align 8 dereferenceable(8) %ref.tmp91, i32 noundef 1, ptr noundef @.str.3, i32 noundef 33, ptr noundef %call95)
          to label %invoke.cont97 unwind label %lpad96

invoke.cont97:                                    ; preds = %invoke.cont94
  invoke void @_ZNK7testing8internal12AssertHelperaSERKNS_7MessageE(ptr noundef nonnull align 8 dereferenceable(8) %ref.tmp91, ptr noundef nonnull align 8 dereferenceable(8) %ref.tmp89)
          to label %invoke.cont99 unwind label %lpad98

invoke.cont99:                                    ; preds = %invoke.cont97
  call void @_ZN7testing8internal12AssertHelperD1Ev(ptr noundef nonnull align 8 dereferenceable(8) %ref.tmp91) #3
  call void @_ZNSt7__cxx1112basic_stringIcSt11char_traitsIcESaIcEED1Ev(ptr noundef nonnull align 8 dereferenceable(32) %ref.tmp92) #3
  call void @_ZN7testing7MessageD2Ev(ptr noundef nonnull align 8 dereferenceable(8) %ref.tmp89) #3
  br label %if.end103

lpad93:                                           ; preds = %invoke.cont90
  %43 = landingpad { ptr, i32 }
          cleanup
  %44 = extractvalue { ptr, i32 } %43, 0
  store ptr %44, ptr %exn.slot, align 8
  %45 = extractvalue { ptr, i32 } %43, 1
  store i32 %45, ptr %ehselector.slot, align 4
  br label %ehcleanup102

lpad96:                                           ; preds = %invoke.cont94
  %46 = landingpad { ptr, i32 }
          cleanup
  %47 = extractvalue { ptr, i32 } %46, 0
  store ptr %47, ptr %exn.slot, align 8
  %48 = extractvalue { ptr, i32 } %46, 1
  store i32 %48, ptr %ehselector.slot, align 4
  br label %ehcleanup101

lpad98:                                           ; preds = %invoke.cont97
  %49 = landingpad { ptr, i32 }
          cleanup
  %50 = extractvalue { ptr, i32 } %49, 0
  store ptr %50, ptr %exn.slot, align 8
  %51 = extractvalue { ptr, i32 } %49, 1
  store i32 %51, ptr %ehselector.slot, align 4
  call void @_ZN7testing8internal12AssertHelperD1Ev(ptr noundef nonnull align 8 dereferenceable(8) %ref.tmp91) #3
  br label %ehcleanup101

ehcleanup101:                                     ; preds = %lpad98, %lpad96
  call void @_ZNSt7__cxx1112basic_stringIcSt11char_traitsIcESaIcEED1Ev(ptr noundef nonnull align 8 dereferenceable(32) %ref.tmp92) #3
  br label %ehcleanup102

ehcleanup102:                                     ; preds = %ehcleanup101, %lpad93
  call void @_ZN7testing7MessageD2Ev(ptr noundef nonnull align 8 dereferenceable(8) %ref.tmp89) #3
  br label %ehcleanup104

if.end103:                                        ; preds = %invoke.cont99, %if.then87
  call void @_ZN7testing15AssertionResultD2Ev(ptr noundef nonnull align 8 dereferenceable(16) %gtest_ar_76) #3
  call void @llvm.memcpy.p0.p0.i64(ptr align 1 %agg.tmp107, ptr align 1 @_ZN4absl16partial_ordering10equivalentE, i64 1, i1 false)
  call void @_ZN4absl16compare_internal15OnlyLiteralZeroC2EUa9enable_ifIXeqfL0p_Li0EEEi(ptr noundef nonnull align 1 dereferenceable(1) %agg.tmp108, i32 noundef 0)
  %coerce.dive109 = getelementptr inbounds %"class.absl::partial_ordering", ptr %agg.tmp107, i32 0, i32 0
  %52 = load i8, ptr %coerce.dive109, align 1
  %call110 = call noundef zeroext i1 @_ZN4absleqENS_16partial_orderingENS_16compare_internal15OnlyLiteralZeroE(i8 %52) #3
  %call111 = call noundef zeroext i1 @_ZN4absl12_GLOBAL__N_18IdentityEb(i1 noundef zeroext %call110)
  %frombool112 = zext i1 %call111 to i8
  store i8 %frombool112, ptr %ref.tmp106, align 1
  call void @_ZN7testing15AssertionResultC2IbEERKT_PNSt9enable_ifIXntsr3std14is_convertibleIS2_S0_EE5valueEvE4typeE(ptr noundef nonnull align 8 dereferenceable(16) %gtest_ar_105, ptr noundef nonnull align 1 dereferenceable(1) %ref.tmp106, ptr noundef null)
  %call115 = invoke noundef zeroext i1 @_ZNK7testing15AssertionResultcvbEv(ptr noundef nonnull align 8 dereferenceable(16) %gtest_ar_105)
          to label %invoke.cont114 unwind label %lpad113

invoke.cont114:                                   ; preds = %if.end103
  br i1 %call115, label %if.then116, label %if.else117

if.then116:                                       ; preds = %invoke.cont114
  br label %if.end132

ehcleanup104:                                     ; preds = %ehcleanup102, %lpad84
  call void @_ZN7testing15AssertionResultD2Ev(ptr noundef nonnull align 8 dereferenceable(16) %gtest_ar_76) #3
  br label %eh.resume

lpad113:                                          ; preds = %if.else117, %if.end103
  %53 = landingpad { ptr, i32 }
          cleanup
  %54 = extractvalue { ptr, i32 } %53, 0
  store ptr %54, ptr %exn.slot, align 8
  %55 = extractvalue { ptr, i32 } %53, 1
  store i32 %55, ptr %ehselector.slot, align 4
  br label %ehcleanup133

if.else117:                                       ; preds = %invoke.cont114
  invoke void @_ZN7testing7MessageC1Ev(ptr noundef nonnull align 8 dereferenceable(8) %ref.tmp118)
          to label %invoke.cont119 unwind label %lpad113

invoke.cont119:                                   ; preds = %if.else117
  invoke void @_ZN7testing8internal30GetBoolAssertionFailureMessageB5cxx11ERKNS_15AssertionResultEPKcS5_S5_(ptr sret(%"class.std::__cxx11::basic_string") align 8 %ref.tmp121, ptr noundef nonnull align 8 dereferenceable(16) %gtest_ar_105, ptr noundef @.str.27, ptr noundef @.str.22, ptr noundef @.str.23)
          to label %invoke.cont123 unwind label %lpad122

invoke.cont123:                                   ; preds = %invoke.cont119
  %call124 = call noundef ptr @_ZNKSt7__cxx1112basic_stringIcSt11char_traitsIcESaIcEE5c_strEv(ptr noundef nonnull align 8 dereferenceable(32) %ref.tmp121) #3
  invoke void @_ZN7testing8internal12AssertHelperC1ENS_14TestPartResult4TypeEPKciS5_(ptr noundef nonnull align 8 dereferenceable(8) %ref.tmp120, i32 noundef 1, ptr noundef @.str.3, i32 noundef 34, ptr noundef %call124)
          to label %invoke.cont126 unwind label %lpad125

invoke.cont126:                                   ; preds = %invoke.cont123
  invoke void @_ZNK7testing8internal12AssertHelperaSERKNS_7MessageE(ptr noundef nonnull align 8 dereferenceable(8) %ref.tmp120, ptr noundef nonnull align 8 dereferenceable(8) %ref.tmp118)
          to label %invoke.cont128 unwind label %lpad127

invoke.cont128:                                   ; preds = %invoke.cont126
  call void @_ZN7testing8internal12AssertHelperD1Ev(ptr noundef nonnull align 8 dereferenceable(8) %ref.tmp120) #3
  call void @_ZNSt7__cxx1112basic_stringIcSt11char_traitsIcESaIcEED1Ev(ptr noundef nonnull align 8 dereferenceable(32) %ref.tmp121) #3
  call void @_ZN7testing7MessageD2Ev(ptr noundef nonnull align 8 dereferenceable(8) %ref.tmp118) #3
  br label %if.end132

lpad122:                                          ; preds = %invoke.cont119
  %56 = landingpad { ptr, i32 }
          cleanup
  %57 = extractvalue { ptr, i32 } %56, 0
  store ptr %57, ptr %exn.slot, align 8
  %58 = extractvalue { ptr, i32 } %56, 1
  store i32 %58, ptr %ehselector.slot, align 4
  br label %ehcleanup131

lpad125:                                          ; preds = %invoke.cont123
  %59 = landingpad { ptr, i32 }
          cleanup
  %60 = extractvalue { ptr, i32 } %59, 0
  store ptr %60, ptr %exn.slot, align 8
  %61 = extractvalue { ptr, i32 } %59, 1
  store i32 %61, ptr %ehselector.slot, align 4
  br label %ehcleanup130

lpad127:                                          ; preds = %invoke.cont126
  %62 = landingpad { ptr, i32 }
          cleanup
  %63 = extractvalue { ptr, i32 } %62, 0
  store ptr %63, ptr %exn.slot, align 8
  %64 = extractvalue { ptr, i32 } %62, 1
  store i32 %64, ptr %ehselector.slot, align 4
  call void @_ZN7testing8internal12AssertHelperD1Ev(ptr noundef nonnull align 8 dereferenceable(8) %ref.tmp120) #3
  br label %ehcleanup130

ehcleanup130:                                     ; preds = %lpad127, %lpad125
  call void @_ZNSt7__cxx1112basic_stringIcSt11char_traitsIcESaIcEED1Ev(ptr noundef nonnull align 8 dereferenceable(32) %ref.tmp121) #3
  br label %ehcleanup131

ehcleanup131:                                     ; preds = %ehcleanup130, %lpad122
  call void @_ZN7testing7MessageD2Ev(ptr noundef nonnull align 8 dereferenceable(8) %ref.tmp118) #3
  br label %ehcleanup133

if.end132:                                        ; preds = %invoke.cont128, %if.then116
  call void @_ZN7testing15AssertionResultD2Ev(ptr noundef nonnull align 8 dereferenceable(16) %gtest_ar_105) #3
  call void @_ZN4absl16compare_internal15OnlyLiteralZeroC2EUa9enable_ifIXeqfL0p_Li0EEEi(ptr noundef nonnull align 1 dereferenceable(1) %agg.tmp136, i32 noundef 0)
  call void @llvm.memcpy.p0.p0.i64(ptr align 1 %agg.tmp137, ptr align 1 @_ZN4absl16partial_ordering10equivalentE, i64 1, i1 false)
  %coerce.dive138 = getelementptr inbounds %"class.absl::partial_ordering", ptr %agg.tmp137, i32 0, i32 0
  %65 = load i8, ptr %coerce.dive138, align 1
  %call139 = call noundef zeroext i1 @_ZN4absleqENS_16compare_internal15OnlyLiteralZeroENS_16partial_orderingE(i8 %65) #3
  %call140 = call noundef zeroext i1 @_ZN4absl12_GLOBAL__N_18IdentityEb(i1 noundef zeroext %call139)
  %frombool141 = zext i1 %call140 to i8
  store i8 %frombool141, ptr %ref.tmp135, align 1
  call void @_ZN7testing15AssertionResultC2IbEERKT_PNSt9enable_ifIXntsr3std14is_convertibleIS2_S0_EE5valueEvE4typeE(ptr noundef nonnull align 8 dereferenceable(16) %gtest_ar_134, ptr noundef nonnull align 1 dereferenceable(1) %ref.tmp135, ptr noundef null)
  %call144 = invoke noundef zeroext i1 @_ZNK7testing15AssertionResultcvbEv(ptr noundef nonnull align 8 dereferenceable(16) %gtest_ar_134)
          to label %invoke.cont143 unwind label %lpad142

invoke.cont143:                                   ; preds = %if.end132
  br i1 %call144, label %if.then145, label %if.else146

if.then145:                                       ; preds = %invoke.cont143
  br label %if.end161

ehcleanup133:                                     ; preds = %ehcleanup131, %lpad113
  call void @_ZN7testing15AssertionResultD2Ev(ptr noundef nonnull align 8 dereferenceable(16) %gtest_ar_105) #3
  br label %eh.resume

lpad142:                                          ; preds = %if.else146, %if.end132
  %66 = landingpad { ptr, i32 }
          cleanup
  %67 = extractvalue { ptr, i32 } %66, 0
  store ptr %67, ptr %exn.slot, align 8
  %68 = extractvalue { ptr, i32 } %66, 1
  store i32 %68, ptr %ehselector.slot, align 4
  br label %ehcleanup162

if.else146:                                       ; preds = %invoke.cont143
  invoke void @_ZN7testing7MessageC1Ev(ptr noundef nonnull align 8 dereferenceable(8) %ref.tmp147)
          to label %invoke.cont148 unwind label %lpad142

invoke.cont148:                                   ; preds = %if.else146
  invoke void @_ZN7testing8internal30GetBoolAssertionFailureMessageB5cxx11ERKNS_15AssertionResultEPKcS5_S5_(ptr sret(%"class.std::__cxx11::basic_string") align 8 %ref.tmp150, ptr noundef nonnull align 8 dereferenceable(16) %gtest_ar_134, ptr noundef @.str.28, ptr noundef @.str.22, ptr noundef @.str.23)
          to label %invoke.cont152 unwind label %lpad151

invoke.cont152:                                   ; preds = %invoke.cont148
  %call153 = call noundef ptr @_ZNKSt7__cxx1112basic_stringIcSt11char_traitsIcESaIcEE5c_strEv(ptr noundef nonnull align 8 dereferenceable(32) %ref.tmp150) #3
  invoke void @_ZN7testing8internal12AssertHelperC1ENS_14TestPartResult4TypeEPKciS5_(ptr noundef nonnull align 8 dereferenceable(8) %ref.tmp149, i32 noundef 1, ptr noundef @.str.3, i32 noundef 35, ptr noundef %call153)
          to label %invoke.cont155 unwind label %lpad154

invoke.cont155:                                   ; preds = %invoke.cont152
  invoke void @_ZNK7testing8internal12AssertHelperaSERKNS_7MessageE(ptr noundef nonnull align 8 dereferenceable(8) %ref.tmp149, ptr noundef nonnull align 8 dereferenceable(8) %ref.tmp147)
          to label %invoke.cont157 unwind label %lpad156

invoke.cont157:                                   ; preds = %invoke.cont155
  call void @_ZN7testing8internal12AssertHelperD1Ev(ptr noundef nonnull align 8 dereferenceable(8) %ref.tmp149) #3
  call void @_ZNSt7__cxx1112basic_stringIcSt11char_traitsIcESaIcEED1Ev(ptr noundef nonnull align 8 dereferenceable(32) %ref.tmp150) #3
  call void @_ZN7testing7MessageD2Ev(ptr noundef nonnull align 8 dereferenceable(8) %ref.tmp147) #3
  br label %if.end161

lpad151:                                          ; preds = %invoke.cont148
  %69 = landingpad { ptr, i32 }
          cleanup
  %70 = extractvalue { ptr, i32 } %69, 0
  store ptr %70, ptr %exn.slot, align 8
  %71 = extractvalue { ptr, i32 } %69, 1
  store i32 %71, ptr %ehselector.slot, align 4
  br label %ehcleanup160

lpad154:                                          ; preds = %invoke.cont152
  %72 = landingpad { ptr, i32 }
          cleanup
  %73 = extractvalue { ptr, i32 } %72, 0
  store ptr %73, ptr %exn.slot, align 8
  %74 = extractvalue { ptr, i32 } %72, 1
  store i32 %74, ptr %ehselector.slot, align 4
  br label %ehcleanup159

lpad156:                                          ; preds = %invoke.cont155
  %75 = landingpad { ptr, i32 }
          cleanup
  %76 = extractvalue { ptr, i32 } %75, 0
  store ptr %76, ptr %exn.slot, align 8
  %77 = extractvalue { ptr, i32 } %75, 1
  store i32 %77, ptr %ehselector.slot, align 4
  call void @_ZN7testing8internal12AssertHelperD1Ev(ptr noundef nonnull align 8 dereferenceable(8) %ref.tmp149) #3
  br label %ehcleanup159

ehcleanup159:                                     ; preds = %lpad156, %lpad154
  call void @_ZNSt7__cxx1112basic_stringIcSt11char_traitsIcESaIcEED1Ev(ptr noundef nonnull align 8 dereferenceable(32) %ref.tmp150) #3
  br label %ehcleanup160

ehcleanup160:                                     ; preds = %ehcleanup159, %lpad151
  call void @_ZN7testing7MessageD2Ev(ptr noundef nonnull align 8 dereferenceable(8) %ref.tmp147) #3
  br label %ehcleanup162

if.end161:                                        ; preds = %invoke.cont157, %if.then145
  call void @_ZN7testing15AssertionResultD2Ev(ptr noundef nonnull align 8 dereferenceable(16) %gtest_ar_134) #3
  call void @llvm.memcpy.p0.p0.i64(ptr align 1 %agg.tmp165, ptr align 1 @_ZN4absl16partial_ordering7greaterE, i64 1, i1 false)
  call void @_ZN4absl16compare_internal15OnlyLiteralZeroC2EUa9enable_ifIXeqfL0p_Li0EEEi(ptr noundef nonnull align 1 dereferenceable(1) %agg.tmp166, i32 noundef 0)
  %coerce.dive167 = getelementptr inbounds %"class.absl::partial_ordering", ptr %agg.tmp165, i32 0, i32 0
  %78 = load i8, ptr %coerce.dive167, align 1
  %call168 = call noundef zeroext i1 @_ZN4abslgtENS_16partial_orderingENS_16compare_internal15OnlyLiteralZeroE(i8 %78) #3
  %call169 = call noundef zeroext i1 @_ZN4absl12_GLOBAL__N_18IdentityEb(i1 noundef zeroext %call168)
  %frombool170 = zext i1 %call169 to i8
  store i8 %frombool170, ptr %ref.tmp164, align 1
  call void @_ZN7testing15AssertionResultC2IbEERKT_PNSt9enable_ifIXntsr3std14is_convertibleIS2_S0_EE5valueEvE4typeE(ptr noundef nonnull align 8 dereferenceable(16) %gtest_ar_163, ptr noundef nonnull align 1 dereferenceable(1) %ref.tmp164, ptr noundef null)
  %call173 = invoke noundef zeroext i1 @_ZNK7testing15AssertionResultcvbEv(ptr noundef nonnull align 8 dereferenceable(16) %gtest_ar_163)
          to label %invoke.cont172 unwind label %lpad171

invoke.cont172:                                   ; preds = %if.end161
  br i1 %call173, label %if.then174, label %if.else175

if.then174:                                       ; preds = %invoke.cont172
  br label %if.end190

ehcleanup162:                                     ; preds = %ehcleanup160, %lpad142
  call void @_ZN7testing15AssertionResultD2Ev(ptr noundef nonnull align 8 dereferenceable(16) %gtest_ar_134) #3
  br label %eh.resume

lpad171:                                          ; preds = %if.else175, %if.end161
  %79 = landingpad { ptr, i32 }
          cleanup
  %80 = extractvalue { ptr, i32 } %79, 0
  store ptr %80, ptr %exn.slot, align 8
  %81 = extractvalue { ptr, i32 } %79, 1
  store i32 %81, ptr %ehselector.slot, align 4
  br label %ehcleanup191

if.else175:                                       ; preds = %invoke.cont172
  invoke void @_ZN7testing7MessageC1Ev(ptr noundef nonnull align 8 dereferenceable(8) %ref.tmp176)
          to label %invoke.cont177 unwind label %lpad171

invoke.cont177:                                   ; preds = %if.else175
  invoke void @_ZN7testing8internal30GetBoolAssertionFailureMessageB5cxx11ERKNS_15AssertionResultEPKcS5_S5_(ptr sret(%"class.std::__cxx11::basic_string") align 8 %ref.tmp179, ptr noundef nonnull align 8 dereferenceable(16) %gtest_ar_163, ptr noundef @.str.29, ptr noundef @.str.22, ptr noundef @.str.23)
          to label %invoke.cont181 unwind label %lpad180

invoke.cont181:                                   ; preds = %invoke.cont177
  %call182 = call noundef ptr @_ZNKSt7__cxx1112basic_stringIcSt11char_traitsIcESaIcEE5c_strEv(ptr noundef nonnull align 8 dereferenceable(32) %ref.tmp179) #3
  invoke void @_ZN7testing8internal12AssertHelperC1ENS_14TestPartResult4TypeEPKciS5_(ptr noundef nonnull align 8 dereferenceable(8) %ref.tmp178, i32 noundef 1, ptr noundef @.str.3, i32 noundef 36, ptr noundef %call182)
          to label %invoke.cont184 unwind label %lpad183

invoke.cont184:                                   ; preds = %invoke.cont181
  invoke void @_ZNK7testing8internal12AssertHelperaSERKNS_7MessageE(ptr noundef nonnull align 8 dereferenceable(8) %ref.tmp178, ptr noundef nonnull align 8 dereferenceable(8) %ref.tmp176)
          to label %invoke.cont186 unwind label %lpad185

invoke.cont186:                                   ; preds = %invoke.cont184
  call void @_ZN7testing8internal12AssertHelperD1Ev(ptr noundef nonnull align 8 dereferenceable(8) %ref.tmp178) #3
  call void @_ZNSt7__cxx1112basic_stringIcSt11char_traitsIcESaIcEED1Ev(ptr noundef nonnull align 8 dereferenceable(32) %ref.tmp179) #3
  call void @_ZN7testing7MessageD2Ev(ptr noundef nonnull align 8 dereferenceable(8) %ref.tmp176) #3
  br label %if.end190

lpad180:                                          ; preds = %invoke.cont177
  %82 = landingpad { ptr, i32 }
          cleanup
  %83 = extractvalue { ptr, i32 } %82, 0
  store ptr %83, ptr %exn.slot, align 8
  %84 = extractvalue { ptr, i32 } %82, 1
  store i32 %84, ptr %ehselector.slot, align 4
  br label %ehcleanup189

lpad183:                                          ; preds = %invoke.cont181
  %85 = landingpad { ptr, i32 }
          cleanup
  %86 = extractvalue { ptr, i32 } %85, 0
  store ptr %86, ptr %exn.slot, align 8
  %87 = extractvalue { ptr, i32 } %85, 1
  store i32 %87, ptr %ehselector.slot, align 4
  br label %ehcleanup188

lpad185:                                          ; preds = %invoke.cont184
  %88 = landingpad { ptr, i32 }
          cleanup
  %89 = extractvalue { ptr, i32 } %88, 0
  store ptr %89, ptr %exn.slot, align 8
  %90 = extractvalue { ptr, i32 } %88, 1
  store i32 %90, ptr %ehselector.slot, align 4
  call void @_ZN7testing8internal12AssertHelperD1Ev(ptr noundef nonnull align 8 dereferenceable(8) %ref.tmp178) #3
  br label %ehcleanup188

ehcleanup188:                                     ; preds = %lpad185, %lpad183
  call void @_ZNSt7__cxx1112basic_stringIcSt11char_traitsIcESaIcEED1Ev(ptr noundef nonnull align 8 dereferenceable(32) %ref.tmp179) #3
  br label %ehcleanup189

ehcleanup189:                                     ; preds = %ehcleanup188, %lpad180
  call void @_ZN7testing7MessageD2Ev(ptr noundef nonnull align 8 dereferenceable(8) %ref.tmp176) #3
  br label %ehcleanup191

if.end190:                                        ; preds = %invoke.cont186, %if.then174
  call void @_ZN7testing15AssertionResultD2Ev(ptr noundef nonnull align 8 dereferenceable(16) %gtest_ar_163) #3
  call void @_ZN4absl16compare_internal15OnlyLiteralZeroC2EUa9enable_ifIXeqfL0p_Li0EEEi(ptr noundef nonnull align 1 dereferenceable(1) %agg.tmp194, i32 noundef 0)
  call void @llvm.memcpy.p0.p0.i64(ptr align 1 %agg.tmp195, ptr align 1 @_ZN4absl16partial_ordering7greaterE, i64 1, i1 false)
  %coerce.dive196 = getelementptr inbounds %"class.absl::partial_ordering", ptr %agg.tmp195, i32 0, i32 0
  %91 = load i8, ptr %coerce.dive196, align 1
  %call197 = call noundef zeroext i1 @_ZN4abslltENS_16compare_internal15OnlyLiteralZeroENS_16partial_orderingE(i8 %91) #3
  %call198 = call noundef zeroext i1 @_ZN4absl12_GLOBAL__N_18IdentityEb(i1 noundef zeroext %call197)
  %frombool199 = zext i1 %call198 to i8
  store i8 %frombool199, ptr %ref.tmp193, align 1
  call void @_ZN7testing15AssertionResultC2IbEERKT_PNSt9enable_ifIXntsr3std14is_convertibleIS2_S0_EE5valueEvE4typeE(ptr noundef nonnull align 8 dereferenceable(16) %gtest_ar_192, ptr noundef nonnull align 1 dereferenceable(1) %ref.tmp193, ptr noundef null)
  %call202 = invoke noundef zeroext i1 @_ZNK7testing15AssertionResultcvbEv(ptr noundef nonnull align 8 dereferenceable(16) %gtest_ar_192)
          to label %invoke.cont201 unwind label %lpad200

invoke.cont201:                                   ; preds = %if.end190
  br i1 %call202, label %if.then203, label %if.else204

if.then203:                                       ; preds = %invoke.cont201
  br label %if.end219

ehcleanup191:                                     ; preds = %ehcleanup189, %lpad171
  call void @_ZN7testing15AssertionResultD2Ev(ptr noundef nonnull align 8 dereferenceable(16) %gtest_ar_163) #3
  br label %eh.resume

lpad200:                                          ; preds = %if.else204, %if.end190
  %92 = landingpad { ptr, i32 }
          cleanup
  %93 = extractvalue { ptr, i32 } %92, 0
  store ptr %93, ptr %exn.slot, align 8
  %94 = extractvalue { ptr, i32 } %92, 1
  store i32 %94, ptr %ehselector.slot, align 4
  br label %ehcleanup220

if.else204:                                       ; preds = %invoke.cont201
  invoke void @_ZN7testing7MessageC1Ev(ptr noundef nonnull align 8 dereferenceable(8) %ref.tmp205)
          to label %invoke.cont206 unwind label %lpad200

invoke.cont206:                                   ; preds = %if.else204
  invoke void @_ZN7testing8internal30GetBoolAssertionFailureMessageB5cxx11ERKNS_15AssertionResultEPKcS5_S5_(ptr sret(%"class.std::__cxx11::basic_string") align 8 %ref.tmp208, ptr noundef nonnull align 8 dereferenceable(16) %gtest_ar_192, ptr noundef @.str.30, ptr noundef @.str.22, ptr noundef @.str.23)
          to label %invoke.cont210 unwind label %lpad209

invoke.cont210:                                   ; preds = %invoke.cont206
  %call211 = call noundef ptr @_ZNKSt7__cxx1112basic_stringIcSt11char_traitsIcESaIcEE5c_strEv(ptr noundef nonnull align 8 dereferenceable(32) %ref.tmp208) #3
  invoke void @_ZN7testing8internal12AssertHelperC1ENS_14TestPartResult4TypeEPKciS5_(ptr noundef nonnull align 8 dereferenceable(8) %ref.tmp207, i32 noundef 1, ptr noundef @.str.3, i32 noundef 37, ptr noundef %call211)
          to label %invoke.cont213 unwind label %lpad212

invoke.cont213:                                   ; preds = %invoke.cont210
  invoke void @_ZNK7testing8internal12AssertHelperaSERKNS_7MessageE(ptr noundef nonnull align 8 dereferenceable(8) %ref.tmp207, ptr noundef nonnull align 8 dereferenceable(8) %ref.tmp205)
          to label %invoke.cont215 unwind label %lpad214

invoke.cont215:                                   ; preds = %invoke.cont213
  call void @_ZN7testing8internal12AssertHelperD1Ev(ptr noundef nonnull align 8 dereferenceable(8) %ref.tmp207) #3
  call void @_ZNSt7__cxx1112basic_stringIcSt11char_traitsIcESaIcEED1Ev(ptr noundef nonnull align 8 dereferenceable(32) %ref.tmp208) #3
  call void @_ZN7testing7MessageD2Ev(ptr noundef nonnull align 8 dereferenceable(8) %ref.tmp205) #3
  br label %if.end219

lpad209:                                          ; preds = %invoke.cont206
  %95 = landingpad { ptr, i32 }
          cleanup
  %96 = extractvalue { ptr, i32 } %95, 0
  store ptr %96, ptr %exn.slot, align 8
  %97 = extractvalue { ptr, i32 } %95, 1
  store i32 %97, ptr %ehselector.slot, align 4
  br label %ehcleanup218

lpad212:                                          ; preds = %invoke.cont210
  %98 = landingpad { ptr, i32 }
          cleanup
  %99 = extractvalue { ptr, i32 } %98, 0
  store ptr %99, ptr %exn.slot, align 8
  %100 = extractvalue { ptr, i32 } %98, 1
  store i32 %100, ptr %ehselector.slot, align 4
  br label %ehcleanup217

lpad214:                                          ; preds = %invoke.cont213
  %101 = landingpad { ptr, i32 }
          cleanup
  %102 = extractvalue { ptr, i32 } %101, 0
  store ptr %102, ptr %exn.slot, align 8
  %103 = extractvalue { ptr, i32 } %101, 1
  store i32 %103, ptr %ehselector.slot, align 4
  call void @_ZN7testing8internal12AssertHelperD1Ev(ptr noundef nonnull align 8 dereferenceable(8) %ref.tmp207) #3
  br label %ehcleanup217

ehcleanup217:                                     ; preds = %lpad214, %lpad212
  call void @_ZNSt7__cxx1112basic_stringIcSt11char_traitsIcESaIcEED1Ev(ptr noundef nonnull align 8 dereferenceable(32) %ref.tmp208) #3
  br label %ehcleanup218

ehcleanup218:                                     ; preds = %ehcleanup217, %lpad209
  call void @_ZN7testing7MessageD2Ev(ptr noundef nonnull align 8 dereferenceable(8) %ref.tmp205) #3
  br label %ehcleanup220

if.end219:                                        ; preds = %invoke.cont215, %if.then203
  call void @_ZN7testing15AssertionResultD2Ev(ptr noundef nonnull align 8 dereferenceable(16) %gtest_ar_192) #3
  call void @llvm.memcpy.p0.p0.i64(ptr align 1 %agg.tmp223, ptr align 1 @_ZN4absl16partial_ordering7greaterE, i64 1, i1 false)
  call void @_ZN4absl16compare_internal15OnlyLiteralZeroC2EUa9enable_ifIXeqfL0p_Li0EEEi(ptr noundef nonnull align 1 dereferenceable(1) %agg.tmp224, i32 noundef 0)
  %coerce.dive225 = getelementptr inbounds %"class.absl::partial_ordering", ptr %agg.tmp223, i32 0, i32 0
  %104 = load i8, ptr %coerce.dive225, align 1
  %call226 = call noundef zeroext i1 @_ZN4abslgeENS_16partial_orderingENS_16compare_internal15OnlyLiteralZeroE(i8 %104) #3
  %call227 = call noundef zeroext i1 @_ZN4absl12_GLOBAL__N_18IdentityEb(i1 noundef zeroext %call226)
  %frombool228 = zext i1 %call227 to i8
  store i8 %frombool228, ptr %ref.tmp222, align 1
  call void @_ZN7testing15AssertionResultC2IbEERKT_PNSt9enable_ifIXntsr3std14is_convertibleIS2_S0_EE5valueEvE4typeE(ptr noundef nonnull align 8 dereferenceable(16) %gtest_ar_221, ptr noundef nonnull align 1 dereferenceable(1) %ref.tmp222, ptr noundef null)
  %call231 = invoke noundef zeroext i1 @_ZNK7testing15AssertionResultcvbEv(ptr noundef nonnull align 8 dereferenceable(16) %gtest_ar_221)
          to label %invoke.cont230 unwind label %lpad229

invoke.cont230:                                   ; preds = %if.end219
  br i1 %call231, label %if.then232, label %if.else233

if.then232:                                       ; preds = %invoke.cont230
  br label %if.end248

ehcleanup220:                                     ; preds = %ehcleanup218, %lpad200
  call void @_ZN7testing15AssertionResultD2Ev(ptr noundef nonnull align 8 dereferenceable(16) %gtest_ar_192) #3
  br label %eh.resume

lpad229:                                          ; preds = %if.else233, %if.end219
  %105 = landingpad { ptr, i32 }
          cleanup
  %106 = extractvalue { ptr, i32 } %105, 0
  store ptr %106, ptr %exn.slot, align 8
  %107 = extractvalue { ptr, i32 } %105, 1
  store i32 %107, ptr %ehselector.slot, align 4
  br label %ehcleanup249

if.else233:                                       ; preds = %invoke.cont230
  invoke void @_ZN7testing7MessageC1Ev(ptr noundef nonnull align 8 dereferenceable(8) %ref.tmp234)
          to label %invoke.cont235 unwind label %lpad229

invoke.cont235:                                   ; preds = %if.else233
  invoke void @_ZN7testing8internal30GetBoolAssertionFailureMessageB5cxx11ERKNS_15AssertionResultEPKcS5_S5_(ptr sret(%"class.std::__cxx11::basic_string") align 8 %ref.tmp237, ptr noundef nonnull align 8 dereferenceable(16) %gtest_ar_221, ptr noundef @.str.31, ptr noundef @.str.22, ptr noundef @.str.23)
          to label %invoke.cont239 unwind label %lpad238

invoke.cont239:                                   ; preds = %invoke.cont235
  %call240 = call noundef ptr @_ZNKSt7__cxx1112basic_stringIcSt11char_traitsIcESaIcEE5c_strEv(ptr noundef nonnull align 8 dereferenceable(32) %ref.tmp237) #3
  invoke void @_ZN7testing8internal12AssertHelperC1ENS_14TestPartResult4TypeEPKciS5_(ptr noundef nonnull align 8 dereferenceable(8) %ref.tmp236, i32 noundef 1, ptr noundef @.str.3, i32 noundef 38, ptr noundef %call240)
          to label %invoke.cont242 unwind label %lpad241

invoke.cont242:                                   ; preds = %invoke.cont239
  invoke void @_ZNK7testing8internal12AssertHelperaSERKNS_7MessageE(ptr noundef nonnull align 8 dereferenceable(8) %ref.tmp236, ptr noundef nonnull align 8 dereferenceable(8) %ref.tmp234)
          to label %invoke.cont244 unwind label %lpad243

invoke.cont244:                                   ; preds = %invoke.cont242
  call void @_ZN7testing8internal12AssertHelperD1Ev(ptr noundef nonnull align 8 dereferenceable(8) %ref.tmp236) #3
  call void @_ZNSt7__cxx1112basic_stringIcSt11char_traitsIcESaIcEED1Ev(ptr noundef nonnull align 8 dereferenceable(32) %ref.tmp237) #3
  call void @_ZN7testing7MessageD2Ev(ptr noundef nonnull align 8 dereferenceable(8) %ref.tmp234) #3
  br label %if.end248

lpad238:                                          ; preds = %invoke.cont235
  %108 = landingpad { ptr, i32 }
          cleanup
  %109 = extractvalue { ptr, i32 } %108, 0
  store ptr %109, ptr %exn.slot, align 8
  %110 = extractvalue { ptr, i32 } %108, 1
  store i32 %110, ptr %ehselector.slot, align 4
  br label %ehcleanup247

lpad241:                                          ; preds = %invoke.cont239
  %111 = landingpad { ptr, i32 }
          cleanup
  %112 = extractvalue { ptr, i32 } %111, 0
  store ptr %112, ptr %exn.slot, align 8
  %113 = extractvalue { ptr, i32 } %111, 1
  store i32 %113, ptr %ehselector.slot, align 4
  br label %ehcleanup246

lpad243:                                          ; preds = %invoke.cont242
  %114 = landingpad { ptr, i32 }
          cleanup
  %115 = extractvalue { ptr, i32 } %114, 0
  store ptr %115, ptr %exn.slot, align 8
  %116 = extractvalue { ptr, i32 } %114, 1
  store i32 %116, ptr %ehselector.slot, align 4
  call void @_ZN7testing8internal12AssertHelperD1Ev(ptr noundef nonnull align 8 dereferenceable(8) %ref.tmp236) #3
  br label %ehcleanup246

ehcleanup246:                                     ; preds = %lpad243, %lpad241
  call void @_ZNSt7__cxx1112basic_stringIcSt11char_traitsIcESaIcEED1Ev(ptr noundef nonnull align 8 dereferenceable(32) %ref.tmp237) #3
  br label %ehcleanup247

ehcleanup247:                                     ; preds = %ehcleanup246, %lpad238
  call void @_ZN7testing7MessageD2Ev(ptr noundef nonnull align 8 dereferenceable(8) %ref.tmp234) #3
  br label %ehcleanup249

if.end248:                                        ; preds = %invoke.cont244, %if.then232
  call void @_ZN7testing15AssertionResultD2Ev(ptr noundef nonnull align 8 dereferenceable(16) %gtest_ar_221) #3
  call void @_ZN4absl16compare_internal15OnlyLiteralZeroC2EUa9enable_ifIXeqfL0p_Li0EEEi(ptr noundef nonnull align 1 dereferenceable(1) %agg.tmp252, i32 noundef 0)
  call void @llvm.memcpy.p0.p0.i64(ptr align 1 %agg.tmp253, ptr align 1 @_ZN4absl16partial_ordering7greaterE, i64 1, i1 false)
  %coerce.dive254 = getelementptr inbounds %"class.absl::partial_ordering", ptr %agg.tmp253, i32 0, i32 0
  %117 = load i8, ptr %coerce.dive254, align 1
  %call255 = call noundef zeroext i1 @_ZN4abslleENS_16compare_internal15OnlyLiteralZeroENS_16partial_orderingE(i8 %117) #3
  %call256 = call noundef zeroext i1 @_ZN4absl12_GLOBAL__N_18IdentityEb(i1 noundef zeroext %call255)
  %frombool257 = zext i1 %call256 to i8
  store i8 %frombool257, ptr %ref.tmp251, align 1
  call void @_ZN7testing15AssertionResultC2IbEERKT_PNSt9enable_ifIXntsr3std14is_convertibleIS2_S0_EE5valueEvE4typeE(ptr noundef nonnull align 8 dereferenceable(16) %gtest_ar_250, ptr noundef nonnull align 1 dereferenceable(1) %ref.tmp251, ptr noundef null)
  %call260 = invoke noundef zeroext i1 @_ZNK7testing15AssertionResultcvbEv(ptr noundef nonnull align 8 dereferenceable(16) %gtest_ar_250)
          to label %invoke.cont259 unwind label %lpad258

invoke.cont259:                                   ; preds = %if.end248
  br i1 %call260, label %if.then261, label %if.else262

if.then261:                                       ; preds = %invoke.cont259
  br label %if.end277

ehcleanup249:                                     ; preds = %ehcleanup247, %lpad229
  call void @_ZN7testing15AssertionResultD2Ev(ptr noundef nonnull align 8 dereferenceable(16) %gtest_ar_221) #3
  br label %eh.resume

lpad258:                                          ; preds = %if.else262, %if.end248
  %118 = landingpad { ptr, i32 }
          cleanup
  %119 = extractvalue { ptr, i32 } %118, 0
  store ptr %119, ptr %exn.slot, align 8
  %120 = extractvalue { ptr, i32 } %118, 1
  store i32 %120, ptr %ehselector.slot, align 4
  br label %ehcleanup278

if.else262:                                       ; preds = %invoke.cont259
  invoke void @_ZN7testing7MessageC1Ev(ptr noundef nonnull align 8 dereferenceable(8) %ref.tmp263)
          to label %invoke.cont264 unwind label %lpad258

invoke.cont264:                                   ; preds = %if.else262
  invoke void @_ZN7testing8internal30GetBoolAssertionFailureMessageB5cxx11ERKNS_15AssertionResultEPKcS5_S5_(ptr sret(%"class.std::__cxx11::basic_string") align 8 %ref.tmp266, ptr noundef nonnull align 8 dereferenceable(16) %gtest_ar_250, ptr noundef @.str.32, ptr noundef @.str.22, ptr noundef @.str.23)
          to label %invoke.cont268 unwind label %lpad267

invoke.cont268:                                   ; preds = %invoke.cont264
  %call269 = call noundef ptr @_ZNKSt7__cxx1112basic_stringIcSt11char_traitsIcESaIcEE5c_strEv(ptr noundef nonnull align 8 dereferenceable(32) %ref.tmp266) #3
  invoke void @_ZN7testing8internal12AssertHelperC1ENS_14TestPartResult4TypeEPKciS5_(ptr noundef nonnull align 8 dereferenceable(8) %ref.tmp265, i32 noundef 1, ptr noundef @.str.3, i32 noundef 39, ptr noundef %call269)
          to label %invoke.cont271 unwind label %lpad270

invoke.cont271:                                   ; preds = %invoke.cont268
  invoke void @_ZNK7testing8internal12AssertHelperaSERKNS_7MessageE(ptr noundef nonnull align 8 dereferenceable(8) %ref.tmp265, ptr noundef nonnull align 8 dereferenceable(8) %ref.tmp263)
          to label %invoke.cont273 unwind label %lpad272

invoke.cont273:                                   ; preds = %invoke.cont271
  call void @_ZN7testing8internal12AssertHelperD1Ev(ptr noundef nonnull align 8 dereferenceable(8) %ref.tmp265) #3
  call void @_ZNSt7__cxx1112basic_stringIcSt11char_traitsIcESaIcEED1Ev(ptr noundef nonnull align 8 dereferenceable(32) %ref.tmp266) #3
  call void @_ZN7testing7MessageD2Ev(ptr noundef nonnull align 8 dereferenceable(8) %ref.tmp263) #3
  br label %if.end277

lpad267:                                          ; preds = %invoke.cont264
  %121 = landingpad { ptr, i32 }
          cleanup
  %122 = extractvalue { ptr, i32 } %121, 0
  store ptr %122, ptr %exn.slot, align 8
  %123 = extractvalue { ptr, i32 } %121, 1
  store i32 %123, ptr %ehselector.slot, align 4
  br label %ehcleanup276

lpad270:                                          ; preds = %invoke.cont268
  %124 = landingpad { ptr, i32 }
          cleanup
  %125 = extractvalue { ptr, i32 } %124, 0
  store ptr %125, ptr %exn.slot, align 8
  %126 = extractvalue { ptr, i32 } %124, 1
  store i32 %126, ptr %ehselector.slot, align 4
  br label %ehcleanup275

lpad272:                                          ; preds = %invoke.cont271
  %127 = landingpad { ptr, i32 }
          cleanup
  %128 = extractvalue { ptr, i32 } %127, 0
  store ptr %128, ptr %exn.slot, align 8
  %129 = extractvalue { ptr, i32 } %127, 1
  store i32 %129, ptr %ehselector.slot, align 4
  call void @_ZN7testing8internal12AssertHelperD1Ev(ptr noundef nonnull align 8 dereferenceable(8) %ref.tmp265) #3
  br label %ehcleanup275

ehcleanup275:                                     ; preds = %lpad272, %lpad270
  call void @_ZNSt7__cxx1112basic_stringIcSt11char_traitsIcESaIcEED1Ev(ptr noundef nonnull align 8 dereferenceable(32) %ref.tmp266) #3
  br label %ehcleanup276

ehcleanup276:                                     ; preds = %ehcleanup275, %lpad267
  call void @_ZN7testing7MessageD2Ev(ptr noundef nonnull align 8 dereferenceable(8) %ref.tmp263) #3
  br label %ehcleanup278

if.end277:                                        ; preds = %invoke.cont273, %if.then261
  call void @_ZN7testing15AssertionResultD2Ev(ptr noundef nonnull align 8 dereferenceable(16) %gtest_ar_250) #3
  call void @llvm.memcpy.p0.p0.i64(ptr align 1 %agg.tmp281, ptr align 1 @_ZN4absl16partial_ordering9unorderedE, i64 1, i1 false)
  call void @_ZN4absl16compare_internal15OnlyLiteralZeroC2EUa9enable_ifIXeqfL0p_Li0EEEi(ptr noundef nonnull align 1 dereferenceable(1) %agg.tmp282, i32 noundef 0)
  %coerce.dive283 = getelementptr inbounds %"class.absl::partial_ordering", ptr %agg.tmp281, i32 0, i32 0
  %130 = load i8, ptr %coerce.dive283, align 1
  %call284 = call noundef zeroext i1 @_ZN4abslneENS_16partial_orderingENS_16compare_internal15OnlyLiteralZeroE(i8 %130) #3
  %call285 = call noundef zeroext i1 @_ZN4absl12_GLOBAL__N_18IdentityEb(i1 noundef zeroext %call284)
  %frombool286 = zext i1 %call285 to i8
  store i8 %frombool286, ptr %ref.tmp280, align 1
  call void @_ZN7testing15AssertionResultC2IbEERKT_PNSt9enable_ifIXntsr3std14is_convertibleIS2_S0_EE5valueEvE4typeE(ptr noundef nonnull align 8 dereferenceable(16) %gtest_ar_279, ptr noundef nonnull align 1 dereferenceable(1) %ref.tmp280, ptr noundef null)
  %call289 = invoke noundef zeroext i1 @_ZNK7testing15AssertionResultcvbEv(ptr noundef nonnull align 8 dereferenceable(16) %gtest_ar_279)
          to label %invoke.cont288 unwind label %lpad287

invoke.cont288:                                   ; preds = %if.end277
  br i1 %call289, label %if.then290, label %if.else291

if.then290:                                       ; preds = %invoke.cont288
  br label %if.end306

ehcleanup278:                                     ; preds = %ehcleanup276, %lpad258
  call void @_ZN7testing15AssertionResultD2Ev(ptr noundef nonnull align 8 dereferenceable(16) %gtest_ar_250) #3
  br label %eh.resume

lpad287:                                          ; preds = %if.else291, %if.end277
  %131 = landingpad { ptr, i32 }
          cleanup
  %132 = extractvalue { ptr, i32 } %131, 0
  store ptr %132, ptr %exn.slot, align 8
  %133 = extractvalue { ptr, i32 } %131, 1
  store i32 %133, ptr %ehselector.slot, align 4
  br label %ehcleanup307

if.else291:                                       ; preds = %invoke.cont288
  invoke void @_ZN7testing7MessageC1Ev(ptr noundef nonnull align 8 dereferenceable(8) %ref.tmp292)
          to label %invoke.cont293 unwind label %lpad287

invoke.cont293:                                   ; preds = %if.else291
  invoke void @_ZN7testing8internal30GetBoolAssertionFailureMessageB5cxx11ERKNS_15AssertionResultEPKcS5_S5_(ptr sret(%"class.std::__cxx11::basic_string") align 8 %ref.tmp295, ptr noundef nonnull align 8 dereferenceable(16) %gtest_ar_279, ptr noundef @.str.33, ptr noundef @.str.22, ptr noundef @.str.23)
          to label %invoke.cont297 unwind label %lpad296

invoke.cont297:                                   ; preds = %invoke.cont293
  %call298 = call noundef ptr @_ZNKSt7__cxx1112basic_stringIcSt11char_traitsIcESaIcEE5c_strEv(ptr noundef nonnull align 8 dereferenceable(32) %ref.tmp295) #3
  invoke void @_ZN7testing8internal12AssertHelperC1ENS_14TestPartResult4TypeEPKciS5_(ptr noundef nonnull align 8 dereferenceable(8) %ref.tmp294, i32 noundef 1, ptr noundef @.str.3, i32 noundef 40, ptr noundef %call298)
          to label %invoke.cont300 unwind label %lpad299

invoke.cont300:                                   ; preds = %invoke.cont297
  invoke void @_ZNK7testing8internal12AssertHelperaSERKNS_7MessageE(ptr noundef nonnull align 8 dereferenceable(8) %ref.tmp294, ptr noundef nonnull align 8 dereferenceable(8) %ref.tmp292)
          to label %invoke.cont302 unwind label %lpad301

invoke.cont302:                                   ; preds = %invoke.cont300
  call void @_ZN7testing8internal12AssertHelperD1Ev(ptr noundef nonnull align 8 dereferenceable(8) %ref.tmp294) #3
  call void @_ZNSt7__cxx1112basic_stringIcSt11char_traitsIcESaIcEED1Ev(ptr noundef nonnull align 8 dereferenceable(32) %ref.tmp295) #3
  call void @_ZN7testing7MessageD2Ev(ptr noundef nonnull align 8 dereferenceable(8) %ref.tmp292) #3
  br label %if.end306

lpad296:                                          ; preds = %invoke.cont293
  %134 = landingpad { ptr, i32 }
          cleanup
  %135 = extractvalue { ptr, i32 } %134, 0
  store ptr %135, ptr %exn.slot, align 8
  %136 = extractvalue { ptr, i32 } %134, 1
  store i32 %136, ptr %ehselector.slot, align 4
  br label %ehcleanup305

lpad299:                                          ; preds = %invoke.cont297
  %137 = landingpad { ptr, i32 }
          cleanup
  %138 = extractvalue { ptr, i32 } %137, 0
  store ptr %138, ptr %exn.slot, align 8
  %139 = extractvalue { ptr, i32 } %137, 1
  store i32 %139, ptr %ehselector.slot, align 4
  br label %ehcleanup304

lpad301:                                          ; preds = %invoke.cont300
  %140 = landingpad { ptr, i32 }
          cleanup
  %141 = extractvalue { ptr, i32 } %140, 0
  store ptr %141, ptr %exn.slot, align 8
  %142 = extractvalue { ptr, i32 } %140, 1
  store i32 %142, ptr %ehselector.slot, align 4
  call void @_ZN7testing8internal12AssertHelperD1Ev(ptr noundef nonnull align 8 dereferenceable(8) %ref.tmp294) #3
  br label %ehcleanup304

ehcleanup304:                                     ; preds = %lpad301, %lpad299
  call void @_ZNSt7__cxx1112basic_stringIcSt11char_traitsIcESaIcEED1Ev(ptr noundef nonnull align 8 dereferenceable(32) %ref.tmp295) #3
  br label %ehcleanup305

ehcleanup305:                                     ; preds = %ehcleanup304, %lpad296
  call void @_ZN7testing7MessageD2Ev(ptr noundef nonnull align 8 dereferenceable(8) %ref.tmp292) #3
  br label %ehcleanup307

if.end306:                                        ; preds = %invoke.cont302, %if.then290
  call void @_ZN7testing15AssertionResultD2Ev(ptr noundef nonnull align 8 dereferenceable(16) %gtest_ar_279) #3
  call void @_ZN4absl16compare_internal15OnlyLiteralZeroC2EUa9enable_ifIXeqfL0p_Li0EEEi(ptr noundef nonnull align 1 dereferenceable(1) %agg.tmp310, i32 noundef 0)
  call void @llvm.memcpy.p0.p0.i64(ptr align 1 %agg.tmp311, ptr align 1 @_ZN4absl16partial_ordering9unorderedE, i64 1, i1 false)
  %coerce.dive312 = getelementptr inbounds %"class.absl::partial_ordering", ptr %agg.tmp311, i32 0, i32 0
  %143 = load i8, ptr %coerce.dive312, align 1
  %call313 = call noundef zeroext i1 @_ZN4abslneENS_16compare_internal15OnlyLiteralZeroENS_16partial_orderingE(i8 %143) #3
  %call314 = call noundef zeroext i1 @_ZN4absl12_GLOBAL__N_18IdentityEb(i1 noundef zeroext %call313)
  %frombool315 = zext i1 %call314 to i8
  store i8 %frombool315, ptr %ref.tmp309, align 1
  call void @_ZN7testing15AssertionResultC2IbEERKT_PNSt9enable_ifIXntsr3std14is_convertibleIS2_S0_EE5valueEvE4typeE(ptr noundef nonnull align 8 dereferenceable(16) %gtest_ar_308, ptr noundef nonnull align 1 dereferenceable(1) %ref.tmp309, ptr noundef null)
  %call318 = invoke noundef zeroext i1 @_ZNK7testing15AssertionResultcvbEv(ptr noundef nonnull align 8 dereferenceable(16) %gtest_ar_308)
          to label %invoke.cont317 unwind label %lpad316

invoke.cont317:                                   ; preds = %if.end306
  br i1 %call318, label %if.then319, label %if.else320

if.then319:                                       ; preds = %invoke.cont317
  br label %if.end335

ehcleanup307:                                     ; preds = %ehcleanup305, %lpad287
  call void @_ZN7testing15AssertionResultD2Ev(ptr noundef nonnull align 8 dereferenceable(16) %gtest_ar_279) #3
  br label %eh.resume

lpad316:                                          ; preds = %if.else320, %if.end306
  %144 = landingpad { ptr, i32 }
          cleanup
  %145 = extractvalue { ptr, i32 } %144, 0
  store ptr %145, ptr %exn.slot, align 8
  %146 = extractvalue { ptr, i32 } %144, 1
  store i32 %146, ptr %ehselector.slot, align 4
  br label %ehcleanup336

if.else320:                                       ; preds = %invoke.cont317
  invoke void @_ZN7testing7MessageC1Ev(ptr noundef nonnull align 8 dereferenceable(8) %ref.tmp321)
          to label %invoke.cont322 unwind label %lpad316

invoke.cont322:                                   ; preds = %if.else320
  invoke void @_ZN7testing8internal30GetBoolAssertionFailureMessageB5cxx11ERKNS_15AssertionResultEPKcS5_S5_(ptr sret(%"class.std::__cxx11::basic_string") align 8 %ref.tmp324, ptr noundef nonnull align 8 dereferenceable(16) %gtest_ar_308, ptr noundef @.str.34, ptr noundef @.str.22, ptr noundef @.str.23)
          to label %invoke.cont326 unwind label %lpad325

invoke.cont326:                                   ; preds = %invoke.cont322
  %call327 = call noundef ptr @_ZNKSt7__cxx1112basic_stringIcSt11char_traitsIcESaIcEE5c_strEv(ptr noundef nonnull align 8 dereferenceable(32) %ref.tmp324) #3
  invoke void @_ZN7testing8internal12AssertHelperC1ENS_14TestPartResult4TypeEPKciS5_(ptr noundef nonnull align 8 dereferenceable(8) %ref.tmp323, i32 noundef 1, ptr noundef @.str.3, i32 noundef 41, ptr noundef %call327)
          to label %invoke.cont329 unwind label %lpad328

invoke.cont329:                                   ; preds = %invoke.cont326
  invoke void @_ZNK7testing8internal12AssertHelperaSERKNS_7MessageE(ptr noundef nonnull align 8 dereferenceable(8) %ref.tmp323, ptr noundef nonnull align 8 dereferenceable(8) %ref.tmp321)
          to label %invoke.cont331 unwind label %lpad330

invoke.cont331:                                   ; preds = %invoke.cont329
  call void @_ZN7testing8internal12AssertHelperD1Ev(ptr noundef nonnull align 8 dereferenceable(8) %ref.tmp323) #3
  call void @_ZNSt7__cxx1112basic_stringIcSt11char_traitsIcESaIcEED1Ev(ptr noundef nonnull align 8 dereferenceable(32) %ref.tmp324) #3
  call void @_ZN7testing7MessageD2Ev(ptr noundef nonnull align 8 dereferenceable(8) %ref.tmp321) #3
  br label %if.end335

lpad325:                                          ; preds = %invoke.cont322
  %147 = landingpad { ptr, i32 }
          cleanup
  %148 = extractvalue { ptr, i32 } %147, 0
  store ptr %148, ptr %exn.slot, align 8
  %149 = extractvalue { ptr, i32 } %147, 1
  store i32 %149, ptr %ehselector.slot, align 4
  br label %ehcleanup334

lpad328:                                          ; preds = %invoke.cont326
  %150 = landingpad { ptr, i32 }
          cleanup
  %151 = extractvalue { ptr, i32 } %150, 0
  store ptr %151, ptr %exn.slot, align 8
  %152 = extractvalue { ptr, i32 } %150, 1
  store i32 %152, ptr %ehselector.slot, align 4
  br label %ehcleanup333

lpad330:                                          ; preds = %invoke.cont329
  %153 = landingpad { ptr, i32 }
          cleanup
  %154 = extractvalue { ptr, i32 } %153, 0
  store ptr %154, ptr %exn.slot, align 8
  %155 = extractvalue { ptr, i32 } %153, 1
  store i32 %155, ptr %ehselector.slot, align 4
  call void @_ZN7testing8internal12AssertHelperD1Ev(ptr noundef nonnull align 8 dereferenceable(8) %ref.tmp323) #3
  br label %ehcleanup333

ehcleanup333:                                     ; preds = %lpad330, %lpad328
  call void @_ZNSt7__cxx1112basic_stringIcSt11char_traitsIcESaIcEED1Ev(ptr noundef nonnull align 8 dereferenceable(32) %ref.tmp324) #3
  br label %ehcleanup334

ehcleanup334:                                     ; preds = %ehcleanup333, %lpad325
  call void @_ZN7testing7MessageD2Ev(ptr noundef nonnull align 8 dereferenceable(8) %ref.tmp321) #3
  br label %ehcleanup336

if.end335:                                        ; preds = %invoke.cont331, %if.then319
  call void @_ZN7testing15AssertionResultD2Ev(ptr noundef nonnull align 8 dereferenceable(16) %gtest_ar_308) #3
  call void @llvm.memcpy.p0.p0.i64(ptr align 1 %agg.tmp339, ptr align 1 @_ZN4absl16partial_ordering9unorderedE, i64 1, i1 false)
  call void @_ZN4absl16compare_internal15OnlyLiteralZeroC2EUa9enable_ifIXeqfL0p_Li0EEEi(ptr noundef nonnull align 1 dereferenceable(1) %agg.tmp340, i32 noundef 0)
  %coerce.dive341 = getelementptr inbounds %"class.absl::partial_ordering", ptr %agg.tmp339, i32 0, i32 0
  %156 = load i8, ptr %coerce.dive341, align 1
  %call342 = call noundef zeroext i1 @_ZN4abslltENS_16partial_orderingENS_16compare_internal15OnlyLiteralZeroE(i8 %156) #3
  %call343 = call noundef zeroext i1 @_ZN4absl12_GLOBAL__N_18IdentityEb(i1 noundef zeroext %call342)
  %lnot = xor i1 %call343, true
  %frombool344 = zext i1 %lnot to i8
  store i8 %frombool344, ptr %ref.tmp338, align 1
  call void @_ZN7testing15AssertionResultC2IbEERKT_PNSt9enable_ifIXntsr3std14is_convertibleIS2_S0_EE5valueEvE4typeE(ptr noundef nonnull align 8 dereferenceable(16) %gtest_ar_337, ptr noundef nonnull align 1 dereferenceable(1) %ref.tmp338, ptr noundef null)
  %call347 = invoke noundef zeroext i1 @_ZNK7testing15AssertionResultcvbEv(ptr noundef nonnull align 8 dereferenceable(16) %gtest_ar_337)
          to label %invoke.cont346 unwind label %lpad345

invoke.cont346:                                   ; preds = %if.end335
  br i1 %call347, label %if.then348, label %if.else349

if.then348:                                       ; preds = %invoke.cont346
  br label %if.end364

ehcleanup336:                                     ; preds = %ehcleanup334, %lpad316
  call void @_ZN7testing15AssertionResultD2Ev(ptr noundef nonnull align 8 dereferenceable(16) %gtest_ar_308) #3
  br label %eh.resume

lpad345:                                          ; preds = %if.else349, %if.end335
  %157 = landingpad { ptr, i32 }
          cleanup
  %158 = extractvalue { ptr, i32 } %157, 0
  store ptr %158, ptr %exn.slot, align 8
  %159 = extractvalue { ptr, i32 } %157, 1
  store i32 %159, ptr %ehselector.slot, align 4
  br label %ehcleanup365

if.else349:                                       ; preds = %invoke.cont346
  invoke void @_ZN7testing7MessageC1Ev(ptr noundef nonnull align 8 dereferenceable(8) %ref.tmp350)
          to label %invoke.cont351 unwind label %lpad345

invoke.cont351:                                   ; preds = %if.else349
  invoke void @_ZN7testing8internal30GetBoolAssertionFailureMessageB5cxx11ERKNS_15AssertionResultEPKcS5_S5_(ptr sret(%"class.std::__cxx11::basic_string") align 8 %ref.tmp353, ptr noundef nonnull align 8 dereferenceable(16) %gtest_ar_337, ptr noundef @.str.35, ptr noundef @.str.23, ptr noundef @.str.22)
          to label %invoke.cont355 unwind label %lpad354

invoke.cont355:                                   ; preds = %invoke.cont351
  %call356 = call noundef ptr @_ZNKSt7__cxx1112basic_stringIcSt11char_traitsIcESaIcEE5c_strEv(ptr noundef nonnull align 8 dereferenceable(32) %ref.tmp353) #3
  invoke void @_ZN7testing8internal12AssertHelperC1ENS_14TestPartResult4TypeEPKciS5_(ptr noundef nonnull align 8 dereferenceable(8) %ref.tmp352, i32 noundef 1, ptr noundef @.str.3, i32 noundef 42, ptr noundef %call356)
          to label %invoke.cont358 unwind label %lpad357

invoke.cont358:                                   ; preds = %invoke.cont355
  invoke void @_ZNK7testing8internal12AssertHelperaSERKNS_7MessageE(ptr noundef nonnull align 8 dereferenceable(8) %ref.tmp352, ptr noundef nonnull align 8 dereferenceable(8) %ref.tmp350)
          to label %invoke.cont360 unwind label %lpad359

invoke.cont360:                                   ; preds = %invoke.cont358
  call void @_ZN7testing8internal12AssertHelperD1Ev(ptr noundef nonnull align 8 dereferenceable(8) %ref.tmp352) #3
  call void @_ZNSt7__cxx1112basic_stringIcSt11char_traitsIcESaIcEED1Ev(ptr noundef nonnull align 8 dereferenceable(32) %ref.tmp353) #3
  call void @_ZN7testing7MessageD2Ev(ptr noundef nonnull align 8 dereferenceable(8) %ref.tmp350) #3
  br label %if.end364

lpad354:                                          ; preds = %invoke.cont351
  %160 = landingpad { ptr, i32 }
          cleanup
  %161 = extractvalue { ptr, i32 } %160, 0
  store ptr %161, ptr %exn.slot, align 8
  %162 = extractvalue { ptr, i32 } %160, 1
  store i32 %162, ptr %ehselector.slot, align 4
  br label %ehcleanup363

lpad357:                                          ; preds = %invoke.cont355
  %163 = landingpad { ptr, i32 }
          cleanup
  %164 = extractvalue { ptr, i32 } %163, 0
  store ptr %164, ptr %exn.slot, align 8
  %165 = extractvalue { ptr, i32 } %163, 1
  store i32 %165, ptr %ehselector.slot, align 4
  br label %ehcleanup362

lpad359:                                          ; preds = %invoke.cont358
  %166 = landingpad { ptr, i32 }
          cleanup
  %167 = extractvalue { ptr, i32 } %166, 0
  store ptr %167, ptr %exn.slot, align 8
  %168 = extractvalue { ptr, i32 } %166, 1
  store i32 %168, ptr %ehselector.slot, align 4
  call void @_ZN7testing8internal12AssertHelperD1Ev(ptr noundef nonnull align 8 dereferenceable(8) %ref.tmp352) #3
  br label %ehcleanup362

ehcleanup362:                                     ; preds = %lpad359, %lpad357
  call void @_ZNSt7__cxx1112basic_stringIcSt11char_traitsIcESaIcEED1Ev(ptr noundef nonnull align 8 dereferenceable(32) %ref.tmp353) #3
  br label %ehcleanup363

ehcleanup363:                                     ; preds = %ehcleanup362, %lpad354
  call void @_ZN7testing7MessageD2Ev(ptr noundef nonnull align 8 dereferenceable(8) %ref.tmp350) #3
  br label %ehcleanup365

if.end364:                                        ; preds = %invoke.cont360, %if.then348
  call void @_ZN7testing15AssertionResultD2Ev(ptr noundef nonnull align 8 dereferenceable(16) %gtest_ar_337) #3
  call void @_ZN4absl16compare_internal15OnlyLiteralZeroC2EUa9enable_ifIXeqfL0p_Li0EEEi(ptr noundef nonnull align 1 dereferenceable(1) %agg.tmp368, i32 noundef 0)
  call void @llvm.memcpy.p0.p0.i64(ptr align 1 %agg.tmp369, ptr align 1 @_ZN4absl16partial_ordering9unorderedE, i64 1, i1 false)
  %coerce.dive370 = getelementptr inbounds %"class.absl::partial_ordering", ptr %agg.tmp369, i32 0, i32 0
  %169 = load i8, ptr %coerce.dive370, align 1
  %call371 = call noundef zeroext i1 @_ZN4abslltENS_16compare_internal15OnlyLiteralZeroENS_16partial_orderingE(i8 %169) #3
  %call372 = call noundef zeroext i1 @_ZN4absl12_GLOBAL__N_18IdentityEb(i1 noundef zeroext %call371)
  %lnot373 = xor i1 %call372, true
  %frombool374 = zext i1 %lnot373 to i8
  store i8 %frombool374, ptr %ref.tmp367, align 1
  call void @_ZN7testing15AssertionResultC2IbEERKT_PNSt9enable_ifIXntsr3std14is_convertibleIS2_S0_EE5valueEvE4typeE(ptr noundef nonnull align 8 dereferenceable(16) %gtest_ar_366, ptr noundef nonnull align 1 dereferenceable(1) %ref.tmp367, ptr noundef null)
  %call377 = invoke noundef zeroext i1 @_ZNK7testing15AssertionResultcvbEv(ptr noundef nonnull align 8 dereferenceable(16) %gtest_ar_366)
          to label %invoke.cont376 unwind label %lpad375

invoke.cont376:                                   ; preds = %if.end364
  br i1 %call377, label %if.then378, label %if.else379

if.then378:                                       ; preds = %invoke.cont376
  br label %if.end394

ehcleanup365:                                     ; preds = %ehcleanup363, %lpad345
  call void @_ZN7testing15AssertionResultD2Ev(ptr noundef nonnull align 8 dereferenceable(16) %gtest_ar_337) #3
  br label %eh.resume

lpad375:                                          ; preds = %if.else379, %if.end364
  %170 = landingpad { ptr, i32 }
          cleanup
  %171 = extractvalue { ptr, i32 } %170, 0
  store ptr %171, ptr %exn.slot, align 8
  %172 = extractvalue { ptr, i32 } %170, 1
  store i32 %172, ptr %ehselector.slot, align 4
  br label %ehcleanup395

if.else379:                                       ; preds = %invoke.cont376
  invoke void @_ZN7testing7MessageC1Ev(ptr noundef nonnull align 8 dereferenceable(8) %ref.tmp380)
          to label %invoke.cont381 unwind label %lpad375

invoke.cont381:                                   ; preds = %if.else379
  invoke void @_ZN7testing8internal30GetBoolAssertionFailureMessageB5cxx11ERKNS_15AssertionResultEPKcS5_S5_(ptr sret(%"class.std::__cxx11::basic_string") align 8 %ref.tmp383, ptr noundef nonnull align 8 dereferenceable(16) %gtest_ar_366, ptr noundef @.str.36, ptr noundef @.str.23, ptr noundef @.str.22)
          to label %invoke.cont385 unwind label %lpad384

invoke.cont385:                                   ; preds = %invoke.cont381
  %call386 = call noundef ptr @_ZNKSt7__cxx1112basic_stringIcSt11char_traitsIcESaIcEE5c_strEv(ptr noundef nonnull align 8 dereferenceable(32) %ref.tmp383) #3
  invoke void @_ZN7testing8internal12AssertHelperC1ENS_14TestPartResult4TypeEPKciS5_(ptr noundef nonnull align 8 dereferenceable(8) %ref.tmp382, i32 noundef 1, ptr noundef @.str.3, i32 noundef 43, ptr noundef %call386)
          to label %invoke.cont388 unwind label %lpad387

invoke.cont388:                                   ; preds = %invoke.cont385
  invoke void @_ZNK7testing8internal12AssertHelperaSERKNS_7MessageE(ptr noundef nonnull align 8 dereferenceable(8) %ref.tmp382, ptr noundef nonnull align 8 dereferenceable(8) %ref.tmp380)
          to label %invoke.cont390 unwind label %lpad389

invoke.cont390:                                   ; preds = %invoke.cont388
  call void @_ZN7testing8internal12AssertHelperD1Ev(ptr noundef nonnull align 8 dereferenceable(8) %ref.tmp382) #3
  call void @_ZNSt7__cxx1112basic_stringIcSt11char_traitsIcESaIcEED1Ev(ptr noundef nonnull align 8 dereferenceable(32) %ref.tmp383) #3
  call void @_ZN7testing7MessageD2Ev(ptr noundef nonnull align 8 dereferenceable(8) %ref.tmp380) #3
  br label %if.end394

lpad384:                                          ; preds = %invoke.cont381
  %173 = landingpad { ptr, i32 }
          cleanup
  %174 = extractvalue { ptr, i32 } %173, 0
  store ptr %174, ptr %exn.slot, align 8
  %175 = extractvalue { ptr, i32 } %173, 1
  store i32 %175, ptr %ehselector.slot, align 4
  br label %ehcleanup393

lpad387:                                          ; preds = %invoke.cont385
  %176 = landingpad { ptr, i32 }
          cleanup
  %177 = extractvalue { ptr, i32 } %176, 0
  store ptr %177, ptr %exn.slot, align 8
  %178 = extractvalue { ptr, i32 } %176, 1
  store i32 %178, ptr %ehselector.slot, align 4
  br label %ehcleanup392

lpad389:                                          ; preds = %invoke.cont388
  %179 = landingpad { ptr, i32 }
          cleanup
  %180 = extractvalue { ptr, i32 } %179, 0
  store ptr %180, ptr %exn.slot, align 8
  %181 = extractvalue { ptr, i32 } %179, 1
  store i32 %181, ptr %ehselector.slot, align 4
  call void @_ZN7testing8internal12AssertHelperD1Ev(ptr noundef nonnull align 8 dereferenceable(8) %ref.tmp382) #3
  br label %ehcleanup392

ehcleanup392:                                     ; preds = %lpad389, %lpad387
  call void @_ZNSt7__cxx1112basic_stringIcSt11char_traitsIcESaIcEED1Ev(ptr noundef nonnull align 8 dereferenceable(32) %ref.tmp383) #3
  br label %ehcleanup393

ehcleanup393:                                     ; preds = %ehcleanup392, %lpad384
  call void @_ZN7testing7MessageD2Ev(ptr noundef nonnull align 8 dereferenceable(8) %ref.tmp380) #3
  br label %ehcleanup395

if.end394:                                        ; preds = %invoke.cont390, %if.then378
  call void @_ZN7testing15AssertionResultD2Ev(ptr noundef nonnull align 8 dereferenceable(16) %gtest_ar_366) #3
  call void @llvm.memcpy.p0.p0.i64(ptr align 1 %agg.tmp398, ptr align 1 @_ZN4absl16partial_ordering9unorderedE, i64 1, i1 false)
  call void @_ZN4absl16compare_internal15OnlyLiteralZeroC2EUa9enable_ifIXeqfL0p_Li0EEEi(ptr noundef nonnull align 1 dereferenceable(1) %agg.tmp399, i32 noundef 0)
  %coerce.dive400 = getelementptr inbounds %"class.absl::partial_ordering", ptr %agg.tmp398, i32 0, i32 0
  %182 = load i8, ptr %coerce.dive400, align 1
  %call401 = call noundef zeroext i1 @_ZN4abslleENS_16partial_orderingENS_16compare_internal15OnlyLiteralZeroE(i8 %182) #3
  %call402 = call noundef zeroext i1 @_ZN4absl12_GLOBAL__N_18IdentityEb(i1 noundef zeroext %call401)
  %lnot403 = xor i1 %call402, true
  %frombool404 = zext i1 %lnot403 to i8
  store i8 %frombool404, ptr %ref.tmp397, align 1
  call void @_ZN7testing15AssertionResultC2IbEERKT_PNSt9enable_ifIXntsr3std14is_convertibleIS2_S0_EE5valueEvE4typeE(ptr noundef nonnull align 8 dereferenceable(16) %gtest_ar_396, ptr noundef nonnull align 1 dereferenceable(1) %ref.tmp397, ptr noundef null)
  %call407 = invoke noundef zeroext i1 @_ZNK7testing15AssertionResultcvbEv(ptr noundef nonnull align 8 dereferenceable(16) %gtest_ar_396)
          to label %invoke.cont406 unwind label %lpad405

invoke.cont406:                                   ; preds = %if.end394
  br i1 %call407, label %if.then408, label %if.else409

if.then408:                                       ; preds = %invoke.cont406
  br label %if.end424

ehcleanup395:                                     ; preds = %ehcleanup393, %lpad375
  call void @_ZN7testing15AssertionResultD2Ev(ptr noundef nonnull align 8 dereferenceable(16) %gtest_ar_366) #3
  br label %eh.resume

lpad405:                                          ; preds = %if.else409, %if.end394
  %183 = landingpad { ptr, i32 }
          cleanup
  %184 = extractvalue { ptr, i32 } %183, 0
  store ptr %184, ptr %exn.slot, align 8
  %185 = extractvalue { ptr, i32 } %183, 1
  store i32 %185, ptr %ehselector.slot, align 4
  br label %ehcleanup425

if.else409:                                       ; preds = %invoke.cont406
  invoke void @_ZN7testing7MessageC1Ev(ptr noundef nonnull align 8 dereferenceable(8) %ref.tmp410)
          to label %invoke.cont411 unwind label %lpad405

invoke.cont411:                                   ; preds = %if.else409
  invoke void @_ZN7testing8internal30GetBoolAssertionFailureMessageB5cxx11ERKNS_15AssertionResultEPKcS5_S5_(ptr sret(%"class.std::__cxx11::basic_string") align 8 %ref.tmp413, ptr noundef nonnull align 8 dereferenceable(16) %gtest_ar_396, ptr noundef @.str.37, ptr noundef @.str.23, ptr noundef @.str.22)
          to label %invoke.cont415 unwind label %lpad414

invoke.cont415:                                   ; preds = %invoke.cont411
  %call416 = call noundef ptr @_ZNKSt7__cxx1112basic_stringIcSt11char_traitsIcESaIcEE5c_strEv(ptr noundef nonnull align 8 dereferenceable(32) %ref.tmp413) #3
  invoke void @_ZN7testing8internal12AssertHelperC1ENS_14TestPartResult4TypeEPKciS5_(ptr noundef nonnull align 8 dereferenceable(8) %ref.tmp412, i32 noundef 1, ptr noundef @.str.3, i32 noundef 44, ptr noundef %call416)
          to label %invoke.cont418 unwind label %lpad417

invoke.cont418:                                   ; preds = %invoke.cont415
  invoke void @_ZNK7testing8internal12AssertHelperaSERKNS_7MessageE(ptr noundef nonnull align 8 dereferenceable(8) %ref.tmp412, ptr noundef nonnull align 8 dereferenceable(8) %ref.tmp410)
          to label %invoke.cont420 unwind label %lpad419

invoke.cont420:                                   ; preds = %invoke.cont418
  call void @_ZN7testing8internal12AssertHelperD1Ev(ptr noundef nonnull align 8 dereferenceable(8) %ref.tmp412) #3
  call void @_ZNSt7__cxx1112basic_stringIcSt11char_traitsIcESaIcEED1Ev(ptr noundef nonnull align 8 dereferenceable(32) %ref.tmp413) #3
  call void @_ZN7testing7MessageD2Ev(ptr noundef nonnull align 8 dereferenceable(8) %ref.tmp410) #3
  br label %if.end424

lpad414:                                          ; preds = %invoke.cont411
  %186 = landingpad { ptr, i32 }
          cleanup
  %187 = extractvalue { ptr, i32 } %186, 0
  store ptr %187, ptr %exn.slot, align 8
  %188 = extractvalue { ptr, i32 } %186, 1
  store i32 %188, ptr %ehselector.slot, align 4
  br label %ehcleanup423

lpad417:                                          ; preds = %invoke.cont415
  %189 = landingpad { ptr, i32 }
          cleanup
  %190 = extractvalue { ptr, i32 } %189, 0
  store ptr %190, ptr %exn.slot, align 8
  %191 = extractvalue { ptr, i32 } %189, 1
  store i32 %191, ptr %ehselector.slot, align 4
  br label %ehcleanup422

lpad419:                                          ; preds = %invoke.cont418
  %192 = landingpad { ptr, i32 }
          cleanup
  %193 = extractvalue { ptr, i32 } %192, 0
  store ptr %193, ptr %exn.slot, align 8
  %194 = extractvalue { ptr, i32 } %192, 1
  store i32 %194, ptr %ehselector.slot, align 4
  call void @_ZN7testing8internal12AssertHelperD1Ev(ptr noundef nonnull align 8 dereferenceable(8) %ref.tmp412) #3
  br label %ehcleanup422

ehcleanup422:                                     ; preds = %lpad419, %lpad417
  call void @_ZNSt7__cxx1112basic_stringIcSt11char_traitsIcESaIcEED1Ev(ptr noundef nonnull align 8 dereferenceable(32) %ref.tmp413) #3
  br label %ehcleanup423

ehcleanup423:                                     ; preds = %ehcleanup422, %lpad414
  call void @_ZN7testing7MessageD2Ev(ptr noundef nonnull align 8 dereferenceable(8) %ref.tmp410) #3
  br label %ehcleanup425

if.end424:                                        ; preds = %invoke.cont420, %if.then408
  call void @_ZN7testing15AssertionResultD2Ev(ptr noundef nonnull align 8 dereferenceable(16) %gtest_ar_396) #3
  call void @_ZN4absl16compare_internal15OnlyLiteralZeroC2EUa9enable_ifIXeqfL0p_Li0EEEi(ptr noundef nonnull align 1 dereferenceable(1) %agg.tmp428, i32 noundef 0)
  call void @llvm.memcpy.p0.p0.i64(ptr align 1 %agg.tmp429, ptr align 1 @_ZN4absl16partial_ordering9unorderedE, i64 1, i1 false)
  %coerce.dive430 = getelementptr inbounds %"class.absl::partial_ordering", ptr %agg.tmp429, i32 0, i32 0
  %195 = load i8, ptr %coerce.dive430, align 1
  %call431 = call noundef zeroext i1 @_ZN4abslleENS_16compare_internal15OnlyLiteralZeroENS_16partial_orderingE(i8 %195) #3
  %call432 = call noundef zeroext i1 @_ZN4absl12_GLOBAL__N_18IdentityEb(i1 noundef zeroext %call431)
  %lnot433 = xor i1 %call432, true
  %frombool434 = zext i1 %lnot433 to i8
  store i8 %frombool434, ptr %ref.tmp427, align 1
  call void @_ZN7testing15AssertionResultC2IbEERKT_PNSt9enable_ifIXntsr3std14is_convertibleIS2_S0_EE5valueEvE4typeE(ptr noundef nonnull align 8 dereferenceable(16) %gtest_ar_426, ptr noundef nonnull align 1 dereferenceable(1) %ref.tmp427, ptr noundef null)
  %call437 = invoke noundef zeroext i1 @_ZNK7testing15AssertionResultcvbEv(ptr noundef nonnull align 8 dereferenceable(16) %gtest_ar_426)
          to label %invoke.cont436 unwind label %lpad435

invoke.cont436:                                   ; preds = %if.end424
  br i1 %call437, label %if.then438, label %if.else439

if.then438:                                       ; preds = %invoke.cont436
  br label %if.end454

ehcleanup425:                                     ; preds = %ehcleanup423, %lpad405
  call void @_ZN7testing15AssertionResultD2Ev(ptr noundef nonnull align 8 dereferenceable(16) %gtest_ar_396) #3
  br label %eh.resume

lpad435:                                          ; preds = %if.else439, %if.end424
  %196 = landingpad { ptr, i32 }
          cleanup
  %197 = extractvalue { ptr, i32 } %196, 0
  store ptr %197, ptr %exn.slot, align 8
  %198 = extractvalue { ptr, i32 } %196, 1
  store i32 %198, ptr %ehselector.slot, align 4
  br label %ehcleanup455

if.else439:                                       ; preds = %invoke.cont436
  invoke void @_ZN7testing7MessageC1Ev(ptr noundef nonnull align 8 dereferenceable(8) %ref.tmp440)
          to label %invoke.cont441 unwind label %lpad435

invoke.cont441:                                   ; preds = %if.else439
  invoke void @_ZN7testing8internal30GetBoolAssertionFailureMessageB5cxx11ERKNS_15AssertionResultEPKcS5_S5_(ptr sret(%"class.std::__cxx11::basic_string") align 8 %ref.tmp443, ptr noundef nonnull align 8 dereferenceable(16) %gtest_ar_426, ptr noundef @.str.38, ptr noundef @.str.23, ptr noundef @.str.22)
          to label %invoke.cont445 unwind label %lpad444

invoke.cont445:                                   ; preds = %invoke.cont441
  %call446 = call noundef ptr @_ZNKSt7__cxx1112basic_stringIcSt11char_traitsIcESaIcEE5c_strEv(ptr noundef nonnull align 8 dereferenceable(32) %ref.tmp443) #3
  invoke void @_ZN7testing8internal12AssertHelperC1ENS_14TestPartResult4TypeEPKciS5_(ptr noundef nonnull align 8 dereferenceable(8) %ref.tmp442, i32 noundef 1, ptr noundef @.str.3, i32 noundef 45, ptr noundef %call446)
          to label %invoke.cont448 unwind label %lpad447

invoke.cont448:                                   ; preds = %invoke.cont445
  invoke void @_ZNK7testing8internal12AssertHelperaSERKNS_7MessageE(ptr noundef nonnull align 8 dereferenceable(8) %ref.tmp442, ptr noundef nonnull align 8 dereferenceable(8) %ref.tmp440)
          to label %invoke.cont450 unwind label %lpad449

invoke.cont450:                                   ; preds = %invoke.cont448
  call void @_ZN7testing8internal12AssertHelperD1Ev(ptr noundef nonnull align 8 dereferenceable(8) %ref.tmp442) #3
  call void @_ZNSt7__cxx1112basic_stringIcSt11char_traitsIcESaIcEED1Ev(ptr noundef nonnull align 8 dereferenceable(32) %ref.tmp443) #3
  call void @_ZN7testing7MessageD2Ev(ptr noundef nonnull align 8 dereferenceable(8) %ref.tmp440) #3
  br label %if.end454

lpad444:                                          ; preds = %invoke.cont441
  %199 = landingpad { ptr, i32 }
          cleanup
  %200 = extractvalue { ptr, i32 } %199, 0
  store ptr %200, ptr %exn.slot, align 8
  %201 = extractvalue { ptr, i32 } %199, 1
  store i32 %201, ptr %ehselector.slot, align 4
  br label %ehcleanup453

lpad447:                                          ; preds = %invoke.cont445
  %202 = landingpad { ptr, i32 }
          cleanup
  %203 = extractvalue { ptr, i32 } %202, 0
  store ptr %203, ptr %exn.slot, align 8
  %204 = extractvalue { ptr, i32 } %202, 1
  store i32 %204, ptr %ehselector.slot, align 4
  br label %ehcleanup452

lpad449:                                          ; preds = %invoke.cont448
  %205 = landingpad { ptr, i32 }
          cleanup
  %206 = extractvalue { ptr, i32 } %205, 0
  store ptr %206, ptr %exn.slot, align 8
  %207 = extractvalue { ptr, i32 } %205, 1
  store i32 %207, ptr %ehselector.slot, align 4
  call void @_ZN7testing8internal12AssertHelperD1Ev(ptr noundef nonnull align 8 dereferenceable(8) %ref.tmp442) #3
  br label %ehcleanup452

ehcleanup452:                                     ; preds = %lpad449, %lpad447
  call void @_ZNSt7__cxx1112basic_stringIcSt11char_traitsIcESaIcEED1Ev(ptr noundef nonnull align 8 dereferenceable(32) %ref.tmp443) #3
  br label %ehcleanup453

ehcleanup453:                                     ; preds = %ehcleanup452, %lpad444
  call void @_ZN7testing7MessageD2Ev(ptr noundef nonnull align 8 dereferenceable(8) %ref.tmp440) #3
  br label %ehcleanup455

if.end454:                                        ; preds = %invoke.cont450, %if.then438
  call void @_ZN7testing15AssertionResultD2Ev(ptr noundef nonnull align 8 dereferenceable(16) %gtest_ar_426) #3
  call void @llvm.memcpy.p0.p0.i64(ptr align 1 %agg.tmp458, ptr align 1 @_ZN4absl16partial_ordering9unorderedE, i64 1, i1 false)
  call void @_ZN4absl16compare_internal15OnlyLiteralZeroC2EUa9enable_ifIXeqfL0p_Li0EEEi(ptr noundef nonnull align 1 dereferenceable(1) %agg.tmp459, i32 noundef 0)
  %coerce.dive460 = getelementptr inbounds %"class.absl::partial_ordering", ptr %agg.tmp458, i32 0, i32 0
  %208 = load i8, ptr %coerce.dive460, align 1
  %call461 = call noundef zeroext i1 @_ZN4abslgtENS_16partial_orderingENS_16compare_internal15OnlyLiteralZeroE(i8 %208) #3
  %call462 = call noundef zeroext i1 @_ZN4absl12_GLOBAL__N_18IdentityEb(i1 noundef zeroext %call461)
  %lnot463 = xor i1 %call462, true
  %frombool464 = zext i1 %lnot463 to i8
  store i8 %frombool464, ptr %ref.tmp457, align 1
  call void @_ZN7testing15AssertionResultC2IbEERKT_PNSt9enable_ifIXntsr3std14is_convertibleIS2_S0_EE5valueEvE4typeE(ptr noundef nonnull align 8 dereferenceable(16) %gtest_ar_456, ptr noundef nonnull align 1 dereferenceable(1) %ref.tmp457, ptr noundef null)
  %call467 = invoke noundef zeroext i1 @_ZNK7testing15AssertionResultcvbEv(ptr noundef nonnull align 8 dereferenceable(16) %gtest_ar_456)
          to label %invoke.cont466 unwind label %lpad465

invoke.cont466:                                   ; preds = %if.end454
  br i1 %call467, label %if.then468, label %if.else469

if.then468:                                       ; preds = %invoke.cont466
  br label %if.end484

ehcleanup455:                                     ; preds = %ehcleanup453, %lpad435
  call void @_ZN7testing15AssertionResultD2Ev(ptr noundef nonnull align 8 dereferenceable(16) %gtest_ar_426) #3
  br label %eh.resume

lpad465:                                          ; preds = %if.else469, %if.end454
  %209 = landingpad { ptr, i32 }
          cleanup
  %210 = extractvalue { ptr, i32 } %209, 0
  store ptr %210, ptr %exn.slot, align 8
  %211 = extractvalue { ptr, i32 } %209, 1
  store i32 %211, ptr %ehselector.slot, align 4
  br label %ehcleanup485

if.else469:                                       ; preds = %invoke.cont466
  invoke void @_ZN7testing7MessageC1Ev(ptr noundef nonnull align 8 dereferenceable(8) %ref.tmp470)
          to label %invoke.cont471 unwind label %lpad465

invoke.cont471:                                   ; preds = %if.else469
  invoke void @_ZN7testing8internal30GetBoolAssertionFailureMessageB5cxx11ERKNS_15AssertionResultEPKcS5_S5_(ptr sret(%"class.std::__cxx11::basic_string") align 8 %ref.tmp473, ptr noundef nonnull align 8 dereferenceable(16) %gtest_ar_456, ptr noundef @.str.39, ptr noundef @.str.23, ptr noundef @.str.22)
          to label %invoke.cont475 unwind label %lpad474

invoke.cont475:                                   ; preds = %invoke.cont471
  %call476 = call noundef ptr @_ZNKSt7__cxx1112basic_stringIcSt11char_traitsIcESaIcEE5c_strEv(ptr noundef nonnull align 8 dereferenceable(32) %ref.tmp473) #3
  invoke void @_ZN7testing8internal12AssertHelperC1ENS_14TestPartResult4TypeEPKciS5_(ptr noundef nonnull align 8 dereferenceable(8) %ref.tmp472, i32 noundef 1, ptr noundef @.str.3, i32 noundef 46, ptr noundef %call476)
          to label %invoke.cont478 unwind label %lpad477

invoke.cont478:                                   ; preds = %invoke.cont475
  invoke void @_ZNK7testing8internal12AssertHelperaSERKNS_7MessageE(ptr noundef nonnull align 8 dereferenceable(8) %ref.tmp472, ptr noundef nonnull align 8 dereferenceable(8) %ref.tmp470)
          to label %invoke.cont480 unwind label %lpad479

invoke.cont480:                                   ; preds = %invoke.cont478
  call void @_ZN7testing8internal12AssertHelperD1Ev(ptr noundef nonnull align 8 dereferenceable(8) %ref.tmp472) #3
  call void @_ZNSt7__cxx1112basic_stringIcSt11char_traitsIcESaIcEED1Ev(ptr noundef nonnull align 8 dereferenceable(32) %ref.tmp473) #3
  call void @_ZN7testing7MessageD2Ev(ptr noundef nonnull align 8 dereferenceable(8) %ref.tmp470) #3
  br label %if.end484

lpad474:                                          ; preds = %invoke.cont471
  %212 = landingpad { ptr, i32 }
          cleanup
  %213 = extractvalue { ptr, i32 } %212, 0
  store ptr %213, ptr %exn.slot, align 8
  %214 = extractvalue { ptr, i32 } %212, 1
  store i32 %214, ptr %ehselector.slot, align 4
  br label %ehcleanup483

lpad477:                                          ; preds = %invoke.cont475
  %215 = landingpad { ptr, i32 }
          cleanup
  %216 = extractvalue { ptr, i32 } %215, 0
  store ptr %216, ptr %exn.slot, align 8
  %217 = extractvalue { ptr, i32 } %215, 1
  store i32 %217, ptr %ehselector.slot, align 4
  br label %ehcleanup482

lpad479:                                          ; preds = %invoke.cont478
  %218 = landingpad { ptr, i32 }
          cleanup
  %219 = extractvalue { ptr, i32 } %218, 0
  store ptr %219, ptr %exn.slot, align 8
  %220 = extractvalue { ptr, i32 } %218, 1
  store i32 %220, ptr %ehselector.slot, align 4
  call void @_ZN7testing8internal12AssertHelperD1Ev(ptr noundef nonnull align 8 dereferenceable(8) %ref.tmp472) #3
  br label %ehcleanup482

ehcleanup482:                                     ; preds = %lpad479, %lpad477
  call void @_ZNSt7__cxx1112basic_stringIcSt11char_traitsIcESaIcEED1Ev(ptr noundef nonnull align 8 dereferenceable(32) %ref.tmp473) #3
  br label %ehcleanup483

ehcleanup483:                                     ; preds = %ehcleanup482, %lpad474
  call void @_ZN7testing7MessageD2Ev(ptr noundef nonnull align 8 dereferenceable(8) %ref.tmp470) #3
  br label %ehcleanup485

if.end484:                                        ; preds = %invoke.cont480, %if.then468
  call void @_ZN7testing15AssertionResultD2Ev(ptr noundef nonnull align 8 dereferenceable(16) %gtest_ar_456) #3
  call void @_ZN4absl16compare_internal15OnlyLiteralZeroC2EUa9enable_ifIXeqfL0p_Li0EEEi(ptr noundef nonnull align 1 dereferenceable(1) %agg.tmp488, i32 noundef 0)
  call void @llvm.memcpy.p0.p0.i64(ptr align 1 %agg.tmp489, ptr align 1 @_ZN4absl16partial_ordering9unorderedE, i64 1, i1 false)
  %coerce.dive490 = getelementptr inbounds %"class.absl::partial_ordering", ptr %agg.tmp489, i32 0, i32 0
  %221 = load i8, ptr %coerce.dive490, align 1
  %call491 = call noundef zeroext i1 @_ZN4abslgtENS_16compare_internal15OnlyLiteralZeroENS_16partial_orderingE(i8 %221) #3
  %call492 = call noundef zeroext i1 @_ZN4absl12_GLOBAL__N_18IdentityEb(i1 noundef zeroext %call491)
  %lnot493 = xor i1 %call492, true
  %frombool494 = zext i1 %lnot493 to i8
  store i8 %frombool494, ptr %ref.tmp487, align 1
  call void @_ZN7testing15AssertionResultC2IbEERKT_PNSt9enable_ifIXntsr3std14is_convertibleIS2_S0_EE5valueEvE4typeE(ptr noundef nonnull align 8 dereferenceable(16) %gtest_ar_486, ptr noundef nonnull align 1 dereferenceable(1) %ref.tmp487, ptr noundef null)
  %call497 = invoke noundef zeroext i1 @_ZNK7testing15AssertionResultcvbEv(ptr noundef nonnull align 8 dereferenceable(16) %gtest_ar_486)
          to label %invoke.cont496 unwind label %lpad495

invoke.cont496:                                   ; preds = %if.end484
  br i1 %call497, label %if.then498, label %if.else499

if.then498:                                       ; preds = %invoke.cont496
  br label %if.end514

ehcleanup485:                                     ; preds = %ehcleanup483, %lpad465
  call void @_ZN7testing15AssertionResultD2Ev(ptr noundef nonnull align 8 dereferenceable(16) %gtest_ar_456) #3
  br label %eh.resume

lpad495:                                          ; preds = %if.else499, %if.end484
  %222 = landingpad { ptr, i32 }
          cleanup
  %223 = extractvalue { ptr, i32 } %222, 0
  store ptr %223, ptr %exn.slot, align 8
  %224 = extractvalue { ptr, i32 } %222, 1
  store i32 %224, ptr %ehselector.slot, align 4
  br label %ehcleanup515

if.else499:                                       ; preds = %invoke.cont496
  invoke void @_ZN7testing7MessageC1Ev(ptr noundef nonnull align 8 dereferenceable(8) %ref.tmp500)
          to label %invoke.cont501 unwind label %lpad495

invoke.cont501:                                   ; preds = %if.else499
  invoke void @_ZN7testing8internal30GetBoolAssertionFailureMessageB5cxx11ERKNS_15AssertionResultEPKcS5_S5_(ptr sret(%"class.std::__cxx11::basic_string") align 8 %ref.tmp503, ptr noundef nonnull align 8 dereferenceable(16) %gtest_ar_486, ptr noundef @.str.40, ptr noundef @.str.23, ptr noundef @.str.22)
          to label %invoke.cont505 unwind label %lpad504

invoke.cont505:                                   ; preds = %invoke.cont501
  %call506 = call noundef ptr @_ZNKSt7__cxx1112basic_stringIcSt11char_traitsIcESaIcEE5c_strEv(ptr noundef nonnull align 8 dereferenceable(32) %ref.tmp503) #3
  invoke void @_ZN7testing8internal12AssertHelperC1ENS_14TestPartResult4TypeEPKciS5_(ptr noundef nonnull align 8 dereferenceable(8) %ref.tmp502, i32 noundef 1, ptr noundef @.str.3, i32 noundef 47, ptr noundef %call506)
          to label %invoke.cont508 unwind label %lpad507

invoke.cont508:                                   ; preds = %invoke.cont505
  invoke void @_ZNK7testing8internal12AssertHelperaSERKNS_7MessageE(ptr noundef nonnull align 8 dereferenceable(8) %ref.tmp502, ptr noundef nonnull align 8 dereferenceable(8) %ref.tmp500)
          to label %invoke.cont510 unwind label %lpad509

invoke.cont510:                                   ; preds = %invoke.cont508
  call void @_ZN7testing8internal12AssertHelperD1Ev(ptr noundef nonnull align 8 dereferenceable(8) %ref.tmp502) #3
  call void @_ZNSt7__cxx1112basic_stringIcSt11char_traitsIcESaIcEED1Ev(ptr noundef nonnull align 8 dereferenceable(32) %ref.tmp503) #3
  call void @_ZN7testing7MessageD2Ev(ptr noundef nonnull align 8 dereferenceable(8) %ref.tmp500) #3
  br label %if.end514

lpad504:                                          ; preds = %invoke.cont501
  %225 = landingpad { ptr, i32 }
          cleanup
  %226 = extractvalue { ptr, i32 } %225, 0
  store ptr %226, ptr %exn.slot, align 8
  %227 = extractvalue { ptr, i32 } %225, 1
  store i32 %227, ptr %ehselector.slot, align 4
  br label %ehcleanup513

lpad507:                                          ; preds = %invoke.cont505
  %228 = landingpad { ptr, i32 }
          cleanup
  %229 = extractvalue { ptr, i32 } %228, 0
  store ptr %229, ptr %exn.slot, align 8
  %230 = extractvalue { ptr, i32 } %228, 1
  store i32 %230, ptr %ehselector.slot, align 4
  br label %ehcleanup512

lpad509:                                          ; preds = %invoke.cont508
  %231 = landingpad { ptr, i32 }
          cleanup
  %232 = extractvalue { ptr, i32 } %231, 0
  store ptr %232, ptr %exn.slot, align 8
  %233 = extractvalue { ptr, i32 } %231, 1
  store i32 %233, ptr %ehselector.slot, align 4
  call void @_ZN7testing8internal12AssertHelperD1Ev(ptr noundef nonnull align 8 dereferenceable(8) %ref.tmp502) #3
  br label %ehcleanup512

ehcleanup512:                                     ; preds = %lpad509, %lpad507
  call void @_ZNSt7__cxx1112basic_stringIcSt11char_traitsIcESaIcEED1Ev(ptr noundef nonnull align 8 dereferenceable(32) %ref.tmp503) #3
  br label %ehcleanup513

ehcleanup513:                                     ; preds = %ehcleanup512, %lpad504
