target datalayout = "e-m:e-p270:32:32-p271:32:32-p272:64:64-i64:64-i128:128-f80:128-n8:16:32:64-S128"
target triple = "x86_64-unknown-linux-gnu"

%"class.std::ios_base::Init" = type { i8 }
%"struct.absl::IntervalOpenOpenTag" = type { i8 }
%"struct.absl::IntervalClosedOpenTag" = type { i8 }
%"struct.absl::IntervalClosedClosedTag" = type { i8 }
%"struct.absl::random_internal::gaussian_distribution_base::Tables" = type { [129 x double], [129 x double] }
%"class.std::basic_ostream" = type { ptr, %"class.std::basic_ios" }
%"class.std::basic_ios" = type { %"class.std::ios_base", ptr, i8, i8, ptr, ptr, ptr, ptr }
%"class.std::ios_base" = type { ptr, i64, i64, i32, i32, i32, ptr, %"struct.std::ios_base::_Words", [8 x %"struct.std::ios_base::_Words"], i32, ptr, %"class.std::locale" }
%"struct.std::ios_base::_Words" = type { ptr, i64 }
%"class.std::locale" = type { ptr }
%"struct.testing::internal::CodeLocation" = type <{ %"class.std::__cxx11::basic_string", i32, [4 x i8] }>
%"class.std::__cxx11::basic_string" = type { %"struct.std::__cxx11::basic_string<char>::_Alloc_hider", i64, %union.anon }
%"struct.std::__cxx11::basic_string<char>::_Alloc_hider" = type { ptr }
%union.anon = type { i64, [8 x i8] }
%"class.std::allocator" = type { i8 }
%"class.testing::internal::GTestLog" = type { i32 }
%"class.absl::random_internal::NonsecureURBGBase" = type { %"class.absl::random_internal::pcg_engine" }
%"class.absl::random_internal::pcg_engine" = type { %"class.absl::uint128" }
%"class.absl::uint128" = type { i64, i64 }
%"class.testing::AssertionResult" = type { i8, %"class.std::unique_ptr.15" }
%"class.std::unique_ptr.15" = type { %"struct.std::__uniq_ptr_data.16" }
%"struct.std::__uniq_ptr_data.16" = type { %"class.std::__uniq_ptr_impl.17" }
%"class.std::__uniq_ptr_impl.17" = type { %"class.std::tuple.18" }
%"class.std::tuple.18" = type { %"struct.std::_Tuple_impl.19" }
%"struct.std::_Tuple_impl.19" = type { %"struct.std::_Head_base.22" }
%"struct.std::_Head_base.22" = type { ptr }
%"class.testing::Message" = type { %"class.std::unique_ptr.23" }
%"class.std::unique_ptr.23" = type { %"struct.std::__uniq_ptr_data.24" }
%"struct.std::__uniq_ptr_data.24" = type { %"class.std::__uniq_ptr_impl.25" }
%"class.std::__uniq_ptr_impl.25" = type { %"class.std::tuple.26" }
%"class.std::tuple.26" = type { %"struct.std::_Tuple_impl.27" }
%"struct.std::_Tuple_impl.27" = type { %"struct.std::_Head_base.30" }
%"struct.std::_Head_base.30" = type { ptr }
%"class.testing::internal::AssertHelper" = type { ptr }
%"class.absl::random_internal::RandenPoolSeedSeq" = type { i8 }
%"class.absl::Span" = type { ptr, i64 }
%"class.std::__cxx11::basic_stringstream" = type { %"class.std::basic_iostream.base", %"class.std::__cxx11::basic_stringbuf", %"class.std::basic_ios" }
%"class.std::basic_iostream.base" = type { %"class.std::basic_istream.base", %"class.std::basic_ostream.base" }
%"class.std::basic_istream.base" = type { ptr, i64 }
%"class.std::basic_ostream.base" = type { ptr }
%"class.std::__cxx11::basic_stringbuf" = type { %"class.std::basic_streambuf", i32, %"class.std::__cxx11::basic_string" }
%"class.std::basic_streambuf" = type { ptr, ptr, ptr, ptr, ptr, ptr, ptr, %"class.std::locale" }
%"struct.absl::random_internal::UniformDistributionWrapper" = type { %"class.absl::uniform_real_distribution.base", [3 x i8] }
%"class.absl::uniform_real_distribution.base" = type <{ %"class.absl::uniform_real_distribution<float>::param_type", %"class.absl::random_internal::FastUniformBits" }>
%"class.absl::uniform_real_distribution<float>::param_type" = type { float, float, float }
%"class.absl::random_internal::FastUniformBits" = type { i8 }
%"class.absl::uniform_real_distribution" = type <{ %"class.absl::uniform_real_distribution<float>::param_type", %"class.absl::random_internal::FastUniformBits", [3 x i8] }>
%"struct.absl::random_internal::pcg_xsl_rr_128_64" = type { i8 }
%"struct.absl::random_internal::UniformDistributionWrapper.34" = type { %"class.absl::uniform_real_distribution.base.36", [7 x i8] }
%"class.absl::uniform_real_distribution.base.36" = type <{ %"class.absl::uniform_real_distribution<>::param_type", %"class.absl::random_internal::FastUniformBits" }>
%"class.absl::uniform_real_distribution<>::param_type" = type { double, double, double }
%"class.absl::uniform_real_distribution.35" = type <{ %"class.absl::uniform_real_distribution<>::param_type", %"class.absl::random_internal::FastUniformBits", [7 x i8] }>
%"struct.absl::random_internal::UniformDistributionWrapper.38" = type { %"class.absl::uniform_int_distribution" }
%"class.absl::uniform_int_distribution" = type { %"class.absl::uniform_int_distribution<unsigned char>::param_type" }
%"class.absl::uniform_int_distribution<unsigned char>::param_type" = type { i8, i8 }
%"class.absl::random_internal::FastUniformBits.39" = type { i8 }
%"struct.absl::random_internal::UniformDistributionWrapper.40" = type { %"class.absl::uniform_int_distribution.41" }
%"class.absl::uniform_int_distribution.41" = type { %"class.absl::uniform_int_distribution<unsigned short>::param_type" }
%"class.absl::uniform_int_distribution<unsigned short>::param_type" = type { i16, i16 }
%"class.absl::random_internal::FastUniformBits.42" = type { i8 }
%"struct.absl::random_internal::UniformDistributionWrapper.43" = type { %"class.absl::uniform_int_distribution.44" }
%"class.absl::uniform_int_distribution.44" = type { %"class.absl::uniform_int_distribution<unsigned int>::param_type" }
%"class.absl::uniform_int_distribution<unsigned int>::param_type" = type { i32, i32 }
%"class.absl::random_internal::FastUniformBits.45" = type { i8 }
%"struct.absl::random_internal::UniformDistributionWrapper.46" = type { %"class.absl::uniform_int_distribution.47" }
%"class.absl::uniform_int_distribution.47" = type { %"class.absl::uniform_int_distribution<unsigned long>::param_type" }
%"class.absl::uniform_int_distribution<unsigned long>::param_type" = type { i64, i64 }
%"struct.absl::random_internal::UniformDistributionWrapper.48" = type { %"class.absl::uniform_int_distribution.49" }
%"class.absl::uniform_int_distribution.49" = type { %"class.absl::uniform_int_distribution<absl::uint128>::param_type" }
%"class.absl::uniform_int_distribution<absl::uint128>::param_type" = type { %"class.absl::uint128", %"class.absl::uint128" }
%"class.absl::random_internal::FastUniformBits.50" = type { i8 }
%"struct.absl::random_internal::U256" = type { %"class.absl::uint128", %"class.absl::uint128" }
%"struct.absl::random_internal::UniformDistributionWrapper.51" = type { %"class.absl::uniform_int_distribution.52" }
%"class.absl::uniform_int_distribution.52" = type { %"class.absl::uniform_int_distribution<long>::param_type" }
%"class.absl::uniform_int_distribution<long>::param_type" = type { i64, i64 }
%"class.std::vector" = type { %"struct.std::_Vector_base" }
%"struct.std::_Vector_base" = type { %"struct.std::_Vector_base<double, std::allocator<double>>::_Vector_impl" }
%"struct.std::_Vector_base<double, std::allocator<double>>::_Vector_impl" = type { %"struct.std::_Vector_base<double, std::allocator<double>>::_Vector_impl_data" }
%"struct.std::_Vector_base<double, std::allocator<double>>::_Vector_impl_data" = type { ptr, ptr, ptr }
%"class.std::allocator.53" = type { i8 }
%"struct.absl::random_internal::DistributionMoments" = type { i64, double, double, double, double }
%"class.absl::Span.56" = type { ptr, i64 }
%"class.absl::exponential_distribution" = type <{ %"class.absl::exponential_distribution<>::param_type", %"class.absl::random_internal::FastUniformBits", [7 x i8] }>
%"class.absl::exponential_distribution<>::param_type" = type { double, double }
%"class.absl::poisson_distribution" = type { %"class.absl::poisson_distribution<long>::param_type", %"class.absl::random_internal::FastUniformBits", [7 x i8] }
%"class.absl::poisson_distribution<long>::param_type" = type <{ double, double, double, double, double, i32, [4 x i8] }>
%"class.absl::bernoulli_distribution" = type { %"class.absl::bernoulli_distribution::param_type" }
%"class.absl::bernoulli_distribution::param_type" = type { double }
%"class.absl::beta_distribution" = type { %"class.absl::beta_distribution<>::param_type", %"class.absl::random_internal::FastUniformBits", [7 x i8] }
%"class.absl::beta_distribution<>::param_type" = type <{ double, double, double, double, double, double, double, double, i32, i8, [3 x i8] }>
%"class.absl::zipf_distribution" = type { %"class.absl::zipf_distribution<long>::param_type" }
%"class.absl::zipf_distribution<long>::param_type" = type { i64, double, double, double, double, double, double, double }
%"class.absl::gaussian_distribution" = type { %"class.absl::random_internal::gaussian_distribution_base", %"class.absl::gaussian_distribution<>::param_type" }
%"class.absl::random_internal::gaussian_distribution_base" = type { %"class.absl::random_internal::FastUniformBits" }
%"class.absl::gaussian_distribution<>::param_type" = type { double, double }
%"class.absl::log_uniform_int_distribution" = type { %"class.absl::log_uniform_int_distribution<long>::param_type" }
%"class.absl::log_uniform_int_distribution<long>::param_type" = type <{ i64, i64, i64, i64, i32, [4 x i8] }>
%"class.absl::uniform_int_distribution.58" = type { %"class.absl::uniform_int_distribution<>::param_type" }
%"class.absl::uniform_int_distribution<>::param_type" = type { i32, i32 }
%struct._Guard = type { ptr }

$_ZNSt7__cxx1112basic_stringIcSt11char_traitsIcESaIcEEC2IS3_EEPKcRKS3_ = comdat any

$_ZN7testing8internal12CodeLocationC2ERKNSt7__cxx1112basic_stringIcSt11char_traitsIcESaIcEEEi = comdat any

$_ZN7testing8internal12CodeLocationD2Ev = comdat any

$_ZN7testing8internal15TestFactoryBaseC2Ev = comdat any

$_ZN7testing8internal15TestFactoryBaseD2Ev = comdat any

$_ZN7testing8internal15TestFactoryBaseD0Ev = comdat any

$_ZN7testing4Test5SetupEv = comdat any

$_ZN4absl15random_internal17NonsecureURBGBaseINS0_10pcg_engineINS0_13pcg128_paramsILm2549297995355413924ELm4865540595714422341ELm6364136223846793005ELm1442695040888963407EEENS0_17pcg_xsl_rr_128_64EEENS0_17RandenPoolSeedSeqEEC2Ev = comdat any

$_ZN7testing8internal11CmpHelperNEIifEENS_15AssertionResultEPKcS4_RKT_RKT0_ = comdat any

$_ZN4absl7UniformIvRNS_15random_internal17NonsecureURBGBaseINS1_10pcg_engineINS1_13pcg128_paramsILm2549297995355413924ELm4865540595714422341ELm6364136223846793005ELm1442695040888963407EEENS1_17pcg_xsl_rr_128_64EEENS1_17RandenPoolSeedSeqEEEtfEENSt9enable_ifIXsr3std7is_sameIT_vEE5valueENSB_IXsr4absl11disjunctionINS1_23is_widening_convertibleIT1_T2_EENSD_ISF_SE_EEEE5valueENSt11conditionalIXsr23is_widening_convertibleISE_SF_EE5valueESF_SE_E4typeEE4typeEE4typeEOT0_SE_SF_ = comdat any

$_ZNK7testing15AssertionResultcvbEv = comdat any

$_ZNK7testing15AssertionResult15failure_messageEv = comdat any

$_ZN7testing7MessageD2Ev = comdat any

$_ZN7testing15AssertionResultD2Ev = comdat any

$_ZN7testing8internal11CmpHelperNEIidEENS_15AssertionResultEPKcS4_RKT_RKT0_ = comdat any

$_ZN4absl7UniformIvRNS_15random_internal17NonsecureURBGBaseINS1_10pcg_engineINS1_13pcg128_paramsILm2549297995355413924ELm4865540595714422341ELm6364136223846793005ELm1442695040888963407EEENS1_17pcg_xsl_rr_128_64EEENS1_17RandenPoolSeedSeqEEEidEENSt9enable_ifIXsr3std7is_sameIT_vEE5valueENSB_IXsr4absl11disjunctionINS1_23is_widening_convertibleIT1_T2_EENSD_ISF_SE_EEEE5valueENSt11conditionalIXsr23is_widening_convertibleISE_SF_EE5valueESF_SE_E4typeEE4typeEE4typeEOT0_SE_SF_ = comdat any

$_ZN4absl7UniformIvNS_19IntervalOpenOpenTagERNS_15random_internal17NonsecureURBGBaseINS2_10pcg_engineINS2_13pcg128_paramsILm2549297995355413924ELm4865540595714422341ELm6364136223846793005ELm1442695040888963407EEENS2_17pcg_xsl_rr_128_64EEENS2_17RandenPoolSeedSeqEEEtfEENSt9enable_ifIXsr3std7is_sameIT_vEE5valueENSC_IXsr4absl11disjunctionINS2_23is_widening_convertibleIT2_T3_EENSE_ISG_SF_EEEE5valueENSt11conditionalIXsr23is_widening_convertibleISF_SG_EE5valueESG_SF_E4typeEE4typeEE4typeET0_OT1_SF_SG_ = comdat any

$_ZN4absl7UniformIvNS_19IntervalOpenOpenTagERNS_15random_internal17NonsecureURBGBaseINS2_10pcg_engineINS2_13pcg128_paramsILm2549297995355413924ELm4865540595714422341ELm6364136223846793005ELm1442695040888963407EEENS2_17pcg_xsl_rr_128_64EEENS2_17RandenPoolSeedSeqEEEidEENSt9enable_ifIXsr3std7is_sameIT_vEE5valueENSC_IXsr4absl11disjunctionINS2_23is_widening_convertibleIT2_T3_EENSE_ISG_SF_EEEE5valueENSt11conditionalIXsr23is_widening_convertibleISF_SG_EE5valueESG_SF_E4typeEE4typeEE4typeET0_OT1_SF_SG_ = comdat any

$_ZN4absl7UniformIdNS_19IntervalOpenOpenTagERNS_15random_internal17NonsecureURBGBaseINS2_10pcg_engineINS2_13pcg128_paramsILm2549297995355413924ELm4865540595714422341ELm6364136223846793005ELm1442695040888963407EEENS2_17pcg_xsl_rr_128_64EEENS2_17RandenPoolSeedSeqEEEEENSt9enable_ifIXntsr3std7is_sameIT_vEE5valueESD_E4typeET0_OT1_SD_SD_ = comdat any

$_ZN4absl7UniformIfNS_19IntervalOpenOpenTagERNS_15random_internal17NonsecureURBGBaseINS2_10pcg_engineINS2_13pcg128_paramsILm2549297995355413924ELm4865540595714422341ELm6364136223846793005ELm1442695040888963407EEENS2_17pcg_xsl_rr_128_64EEENS2_17RandenPoolSeedSeqEEEEENSt9enable_ifIXntsr3std7is_sameIT_vEE5valueESD_E4typeET0_OT1_SD_SD_ = comdat any

$_ZN4absl7UniformIfRNS_15random_internal17NonsecureURBGBaseINS1_10pcg_engineINS1_13pcg128_paramsILm2549297995355413924ELm4865540595714422341ELm6364136223846793005ELm1442695040888963407EEENS1_17pcg_xsl_rr_128_64EEENS1_17RandenPoolSeedSeqEEEEENSt9enable_ifIXntsr3std7is_sameIT_vEE5valueESC_E4typeEOT0_SC_SC_ = comdat any

$_ZN4absl15random_internal17NonsecureURBGBaseINS0_10pcg_engineINS0_13pcg128_paramsILm2549297995355413924ELm4865540595714422341ELm6364136223846793005ELm1442695040888963407EEENS0_17pcg_xsl_rr_128_64EEENS0_17RandenPoolSeedSeqEE13ConstructURBGEv = comdat any

$_ZN4absl15random_internal10pcg_engineINS0_13pcg128_paramsILm2549297995355413924ELm4865540595714422341ELm6364136223846793005ELm1442695040888963407EEENS0_17pcg_xsl_rr_128_64EEC2IRNS0_17RandenPoolSeedSeqEvEEOT_ = comdat any

$_ZN4absl15random_internal10pcg_engineINS0_13pcg128_paramsILm2549297995355413924ELm4865540595714422341ELm6364136223846793005ELm1442695040888963407EEENS0_17pcg_xsl_rr_128_64EE4seedIRNS0_17RandenPoolSeedSeqEEENSt9enable_ifIXntsr3std14is_convertibleIT_mEE5valueEvE4typeEOSA_ = comdat any

$_ZN4absl15random_internal10pcg_engineINS0_13pcg128_paramsILm2549297995355413924ELm4865540595714422341ELm6364136223846793005ELm1442695040888963407EEENS0_17pcg_xsl_rr_128_64EE6reseedINS0_17RandenPoolSeedSeqEEEvRT_ = comdat any

$_ZN4absl15random_internal17RandenPoolSeedSeq8generateIPjEEvT_S4_ = comdat any

$_ZSt5beginIjLm4EEPT_RAT0__S0_ = comdat any

$_ZSt3endIjLm4EEPT_RAT0__S0_ = comdat any

$_ZN4absl7uint128C2Ej = comdat any

$_ZN4absl7uint128lSEi = comdat any

$_ZN4absl7uint128oRES0_ = comdat any

$_ZN4absl15random_internal10pcg_engineINS0_13pcg128_paramsILm2549297995355413924ELm4865540595714422341ELm6364136223846793005ELm1442695040888963407EEENS0_17pcg_xsl_rr_128_64EE3lcgENS_7uint128E = comdat any

$_ZN4abslplENS_7uint128ES0_ = comdat any

$_ZN4absl15random_internal13pcg128_paramsILm2549297995355413924ELm4865540595714422341ELm6364136223846793005ELm1442695040888963407EE9incrementEv = comdat any

$_ZN4absl15random_internal17RandenPoolSeedSeq13generate_implIPjEEvNS1_13ContiguousTagET_S5_ = comdat any

$_ZSt8distanceIPjENSt15iterator_traitsIT_E15difference_typeES2_S2_ = comdat any

$_ZN4absl8MakeSpanITpTnRiJEhEENS_4SpanIT0_EEPS3_m = comdat any

$_ZSt10__distanceIPjENSt15iterator_traitsIT_E15difference_typeES2_S2_St26random_access_iterator_tag = comdat any

$_ZSt19__iterator_categoryIPjENSt15iterator_traitsIT_E17iterator_categoryERKS2_ = comdat any

$_ZN4absl4SpanIhEC2EPhm = comdat any

$_ZN4absllsENS_7uint128Ei = comdat any

$_ZNK4absl7uint128cvoEv = comdat any

$_ZN4absl7uint128C2Eo = comdat any

$_ZN4abslorENS_7uint128ES0_ = comdat any

$_ZN4abslmlENS_7uint128ES0_ = comdat any

$_ZN4absl15random_internal13pcg128_paramsILm2549297995355413924ELm4865540595714422341ELm6364136223846793005ELm1442695040888963407EE10multiplierEv = comdat any

$_ZN4absl11MakeUint128Emm = comdat any

$_ZN4absl7uint128C2Emm = comdat any

$_ZN7testing8internal18CmpHelperOpFailureIifEENS_15AssertionResultEPKcS4_RKT_RKT0_S4_ = comdat any

$_ZN7testing15AssertionResultlsIA12_cEERS0_RKT_ = comdat any

$_ZN7testing15AssertionResultlsIPKcEERS0_RKT_ = comdat any

$_ZN7testing15AssertionResultlsIA3_cEERS0_RKT_ = comdat any

$_ZN7testing15AssertionResultlsINSt7__cxx1112basic_stringIcSt11char_traitsIcESaIcEEEEERS0_RKT_ = comdat any

$_ZN7testing8internal33FormatForComparisonFailureMessageIifEENSt7__cxx1112basic_stringIcSt11char_traitsIcESaIcEEERKT_RKT0_ = comdat any

$_ZN7testing15AssertionResultlsIA5_cEERS0_RKT_ = comdat any

$_ZN7testing8internal33FormatForComparisonFailureMessageIfiEENSt7__cxx1112basic_stringIcSt11char_traitsIcESaIcEEERKT_RKT0_ = comdat any

$_ZN7testing15AssertionResult13AppendMessageERKNS_7MessageE = comdat any

$_ZN7testing7MessagelsIA12_cEERS0_RKT_ = comdat any

$_ZSteqINSt7__cxx1112basic_stringIcSt11char_traitsIcESaIcEEESt14default_deleteIS5_EEbRKSt10unique_ptrIT_T0_EDn = comdat any

$_ZSt11make_uniqueINSt7__cxx1112basic_stringIcSt11char_traitsIcESaIcEEEJEENSt8__detail9_MakeUniqIT_E15__single_objectEDpOT0_ = comdat any

$_ZNSt10unique_ptrINSt7__cxx1112basic_stringIcSt11char_traitsIcESaIcEEESt14default_deleteIS5_EEaSEOS8_ = comdat any

$_ZNSt10unique_ptrINSt7__cxx1112basic_stringIcSt11char_traitsIcESaIcEEESt14default_deleteIS5_EED2Ev = comdat any

$_ZNKSt10unique_ptrINSt7__cxx1112basic_stringIcSt11char_traitsIcESaIcEEESt14default_deleteIS5_EEptEv = comdat any

$_ZNKSt10unique_ptrINSt7__cxx1112basic_stringIcSt11char_traitsIcESaIcEEESt14default_deleteIS5_EEcvbEv = comdat any

$_ZNKSt10unique_ptrINSt7__cxx1112basic_stringIcSt11char_traitsIcESaIcEEESt14default_deleteIS5_EE3getEv = comdat any

$_ZNKSt15__uniq_ptr_implINSt7__cxx1112basic_stringIcSt11char_traitsIcESaIcEEESt14default_deleteIS5_EE6_M_ptrEv = comdat any

$_ZSt3getILm0EJPNSt7__cxx1112basic_stringIcSt11char_traitsIcESaIcEEESt14default_deleteIS5_EEERKNSt13tuple_elementIXT_ESt5tupleIJDpT0_EEE4typeERKSD_ = comdat any

$_ZSt12__get_helperILm0EPNSt7__cxx1112basic_stringIcSt11char_traitsIcESaIcEEEJSt14default_deleteIS5_EEERKT0_RKSt11_Tuple_implIXT_EJS9_DpT1_EE = comdat any

$_ZNSt11_Tuple_implILm0EJPNSt7__cxx1112basic_stringIcSt11char_traitsIcESaIcEEESt14default_deleteIS5_EEE7_M_headERKS9_ = comdat any

$_ZNSt10_Head_baseILm0EPNSt7__cxx1112basic_stringIcSt11char_traitsIcESaIcEEELb0EE7_M_headERKS7_ = comdat any

$_ZNSt10unique_ptrINSt7__cxx1112basic_stringIcSt11char_traitsIcESaIcEEESt14default_deleteIS5_EEC2IS7_vEEPS5_ = comdat any

$_ZNSt15__uniq_ptr_dataINSt7__cxx1112basic_stringIcSt11char_traitsIcESaIcEEESt14default_deleteIS5_ELb1ELb1EECI2St15__uniq_ptr_implIS5_S7_EEPS5_ = comdat any

$__clang_call_terminate = comdat any

$_ZNSt15__uniq_ptr_implINSt7__cxx1112basic_stringIcSt11char_traitsIcESaIcEEESt14default_deleteIS5_EEC2EPS5_ = comdat any

$_ZNSt5tupleIJPNSt7__cxx1112basic_stringIcSt11char_traitsIcESaIcEEESt14default_deleteIS5_EEEC2ILb1ETnNSt9enable_ifIXclsr17_TupleConstraintsIXT_ES6_S8_EE37__is_implicitly_default_constructibleEEbE4typeELb1EEEv = comdat any

$_ZNSt15__uniq_ptr_implINSt7__cxx1112basic_stringIcSt11char_traitsIcESaIcEEESt14default_deleteIS5_EE6_M_ptrEv = comdat any

$_ZNSt11_Tuple_implILm0EJPNSt7__cxx1112basic_stringIcSt11char_traitsIcESaIcEEESt14default_deleteIS5_EEEC2Ev = comdat any

$_ZNSt11_Tuple_implILm1EJSt14default_deleteINSt7__cxx1112basic_stringIcSt11char_traitsIcESaIcEEEEEEC2Ev = comdat any

$_ZNSt10_Head_baseILm0EPNSt7__cxx1112basic_stringIcSt11char_traitsIcESaIcEEELb0EEC2Ev = comdat any

$_ZNSt10_Head_baseILm1ESt14default_deleteINSt7__cxx1112basic_stringIcSt11char_traitsIcESaIcEEEELb1EEC2Ev = comdat any

$_ZSt3getILm0EJPNSt7__cxx1112basic_stringIcSt11char_traitsIcESaIcEEESt14default_deleteIS5_EEERNSt13tuple_elementIXT_ESt5tupleIJDpT0_EEE4typeERSD_ = comdat any

$_ZSt12__get_helperILm0EPNSt7__cxx1112basic_stringIcSt11char_traitsIcESaIcEEEJSt14default_deleteIS5_EEERT0_RSt11_Tuple_implIXT_EJS9_DpT1_EE = comdat any

$_ZNSt11_Tuple_implILm0EJPNSt7__cxx1112basic_stringIcSt11char_traitsIcESaIcEEESt14default_deleteIS5_EEE7_M_headERS9_ = comdat any

$_ZNSt10_Head_baseILm0EPNSt7__cxx1112basic_stringIcSt11char_traitsIcESaIcEEELb0EE7_M_headERS7_ = comdat any

$_ZNSt15__uniq_ptr_dataINSt7__cxx1112basic_stringIcSt11char_traitsIcESaIcEEESt14default_deleteIS5_ELb1ELb1EEaSEOS8_ = comdat any

$_ZNSt15__uniq_ptr_implINSt7__cxx1112basic_stringIcSt11char_traitsIcESaIcEEESt14default_deleteIS5_EEaSEOS8_ = comdat any

$_ZNSt15__uniq_ptr_implINSt7__cxx1112basic_stringIcSt11char_traitsIcESaIcEEESt14default_deleteIS5_EE5resetEPS5_ = comdat any

$_ZNSt15__uniq_ptr_implINSt7__cxx1112basic_stringIcSt11char_traitsIcESaIcEEESt14default_deleteIS5_EE7releaseEv = comdat any

$_ZNSt15__uniq_ptr_implINSt7__cxx1112basic_stringIcSt11char_traitsIcESaIcEEESt14default_deleteIS5_EE10_M_deleterEv = comdat any

$_ZNKSt14default_deleteINSt7__cxx1112basic_stringIcSt11char_traitsIcESaIcEEEEclEPS5_ = comdat any

$_ZSt3getILm1EJPNSt7__cxx1112basic_stringIcSt11char_traitsIcESaIcEEESt14default_deleteIS5_EEERNSt13tuple_elementIXT_ESt5tupleIJDpT0_EEE4typeERSD_ = comdat any

$_ZSt12__get_helperILm1ESt14default_deleteINSt7__cxx1112basic_stringIcSt11char_traitsIcESaIcEEEEJEERT0_RSt11_Tuple_implIXT_EJS8_DpT1_EE = comdat any

$_ZNSt11_Tuple_implILm1EJSt14default_deleteINSt7__cxx1112basic_stringIcSt11char_traitsIcESaIcEEEEEE7_M_headERS8_ = comdat any

$_ZNSt10_Head_baseILm1ESt14default_deleteINSt7__cxx1112basic_stringIcSt11char_traitsIcESaIcEEEELb1EE7_M_headERS8_ = comdat any

$_ZNSt10unique_ptrINSt7__cxx1112basic_stringIcSt11char_traitsIcESaIcEEESt14default_deleteIS5_EE11get_deleterEv = comdat any

$_ZNKSt10unique_ptrINSt7__cxx1118basic_stringstreamIcSt11char_traitsIcESaIcEEESt14default_deleteIS5_EEdeEv = comdat any

$_ZNKSt10unique_ptrINSt7__cxx1118basic_stringstreamIcSt11char_traitsIcESaIcEEESt14default_deleteIS5_EE3getEv = comdat any

$_ZNKSt15__uniq_ptr_implINSt7__cxx1118basic_stringstreamIcSt11char_traitsIcESaIcEEESt14default_deleteIS5_EE6_M_ptrEv = comdat any

$_ZSt3getILm0EJPNSt7__cxx1118basic_stringstreamIcSt11char_traitsIcESaIcEEESt14default_deleteIS5_EEERKNSt13tuple_elementIXT_ESt5tupleIJDpT0_EEE4typeERKSD_ = comdat any

$_ZSt12__get_helperILm0EPNSt7__cxx1118basic_stringstreamIcSt11char_traitsIcESaIcEEEJSt14default_deleteIS5_EEERKT0_RKSt11_Tuple_implIXT_EJS9_DpT1_EE = comdat any

$_ZNSt11_Tuple_implILm0EJPNSt7__cxx1118basic_stringstreamIcSt11char_traitsIcESaIcEEESt14default_deleteIS5_EEE7_M_headERKS9_ = comdat any

$_ZNSt10_Head_baseILm0EPNSt7__cxx1118basic_stringstreamIcSt11char_traitsIcESaIcEEELb0EE7_M_headERKS7_ = comdat any

$_ZN7testing7MessagelsIKcEERS0_RKPT_ = comdat any

$_ZN7testing7MessagelsIA3_cEERS0_RKT_ = comdat any

$_ZN7testing7MessagelsINSt7__cxx1112basic_stringIcSt11char_traitsIcESaIcEEEEERS0_RKT_ = comdat any

$_ZN7testing8internal19FormatForComparisonIifE6FormatB5cxx11ERKi = comdat any

$_ZN7testing13PrintToStringIiEENSt7__cxx1112basic_stringIcSt11char_traitsIcESaIcEEERKT_ = comdat any

$_ZN7testing8internal21UniversalTersePrinterIiE5PrintERKiPSo = comdat any

$_ZN7testing8internal14UniversalPrintIiEEvRKT_PSo = comdat any

$_ZN7testing8internal16UniversalPrinterIiE5PrintERKiPSo = comdat any

$_ZN7testing8internal7PrintToIiEEvRKT_PSo = comdat any

$_ZN7testing8internal17PrintWithFallbackIiEEvRKT_PSo = comdat any

$_ZN7testing8internal52internal_stream_operator_without_lexical_name_lookup13StreamPrinter10PrintValueIivEEDTcvvlsdefp0_fp_ERKT_PSo = comdat any

$_ZN7testing7MessagelsIA5_cEERS0_RKT_ = comdat any

$_ZN7testing8internal19FormatForComparisonIfiE6FormatB5cxx11ERKf = comdat any

$_ZN7testing13PrintToStringIfEENSt7__cxx1112basic_stringIcSt11char_traitsIcESaIcEEERKT_ = comdat any

$_ZN7testing8internal21UniversalTersePrinterIfE5PrintERKfPSo = comdat any

$_ZN7testing8internal14UniversalPrintIfEEvRKT_PSo = comdat any

$_ZN7testing8internal16UniversalPrinterIfE5PrintERKfPSo = comdat any

$_ZN7testing8internal7PrintToEfPSo = comdat any

$_ZNKSt8ios_base9precisionEv = comdat any

$_ZNSt8ios_base9precisionEl = comdat any

$_ZN7testing8internal21AppropriateResolutionIfEEiT_ = comdat any

$_ZN4absl15random_internal19uniform_lower_boundIfNS_21IntervalClosedOpenTagEEENSt9enable_ifIXsr4absl11disjunctionISt7is_sameIT0_NS_23IntervalClosedClosedTagEES4_IS5_S2_EEE5valueET_E4typeES5_S9_S9_ = comdat any

$_ZN4absl15random_internal19uniform_upper_boundIfNS_21IntervalClosedOpenTagEEENSt9enable_ifIXsr4absl11conjunctionISt17is_floating_pointIT_ENS_11disjunctionIJSt7is_sameIT0_S2_ES8_IS9_NS_19IntervalOpenOpenTagEEEEEEE5valueES5_E4typeES9_S5_S5_ = comdat any

$_ZN4absl15random_internal22is_uniform_range_validIfEENSt9enable_ifIXsr3std17is_floating_pointIT_EE5valueEbE4typeES3_S3_ = comdat any

$_ZN4absl15random_internal18DistributionCallerINS0_17NonsecureURBGBaseINS0_10pcg_engineINS0_13pcg128_paramsILm2549297995355413924ELm4865540595714422341ELm6364136223846793005ELm1442695040888963407EEENS0_17pcg_xsl_rr_128_64EEENS0_17RandenPoolSeedSeqEEEE4CallINS0_26UniformDistributionWrapperIfEEJffEEENT_11result_typeEPS9_DpOT0_ = comdat any

$_ZSt8isfinitef = comdat any

$_ZN4absl15random_internal18DistributionCallerINS0_17NonsecureURBGBaseINS0_10pcg_engineINS0_13pcg128_paramsILm2549297995355413924ELm4865540595714422341ELm6364136223846793005ELm1442695040888963407EEENS0_17pcg_xsl_rr_128_64EEENS0_17RandenPoolSeedSeqEEEE4ImplINS0_26UniformDistributionWrapperIfEEJffEEENT_11result_typeESt17integral_constantIbLb0EEPS9_DpOT0_ = comdat any

$_ZN4absl15random_internal26UniformDistributionWrapperIfEC2Eff = comdat any

$_ZN4absl25uniform_real_distributionIfEclINS_15random_internal17NonsecureURBGBaseINS3_10pcg_engineINS3_13pcg128_paramsILm2549297995355413924ELm4865540595714422341ELm6364136223846793005ELm1442695040888963407EEENS3_17pcg_xsl_rr_128_64EEENS3_17RandenPoolSeedSeqEEEEEfRT_ = comdat any

$_ZN4absl25uniform_real_distributionIfEC2Eff = comdat any

$_ZN4absl25uniform_real_distributionIfE10param_typeC2Eff = comdat any

$_ZN4absl25uniform_real_distributionIfEclINS_15random_internal17NonsecureURBGBaseINS3_10pcg_engineINS3_13pcg128_paramsILm2549297995355413924ELm4865540595714422341ELm6364136223846793005ELm1442695040888963407EEENS3_17pcg_xsl_rr_128_64EEENS3_17RandenPoolSeedSeqEEEEEfRT_RKNS1_10param_typeE = comdat any

$_ZN4absl15random_internal20GenerateRealFromBitsIfNS0_19GeneratePositiveTagELb1EEET_mi = comdat any

$_ZN4absl15random_internal15FastUniformBitsImEclINS0_17NonsecureURBGBaseINS0_10pcg_engineINS0_13pcg128_paramsILm2549297995355413924ELm4865540595714422341ELm6364136223846793005ELm1442695040888963407EEENS0_17pcg_xsl_rr_128_64EEENS0_17RandenPoolSeedSeqEEEEEmRT_ = comdat any

$_ZNK4absl25uniform_real_distributionIfE10param_type1aEv = comdat any

$_ZNK4absl25uniform_real_distributionIfE10param_type1bEv = comdat any

$_ZN4absl11countl_zeroImEENSt9enable_ifIXsr3std11is_unsignedIT_EE5valueEiE4typeES2_ = comdat any

$_ZN4absl15random_internal15FastUniformBitsImE8GenerateINS0_17NonsecureURBGBaseINS0_10pcg_engineINS0_13pcg128_paramsILm2549297995355413924ELm4865540595714422341ELm6364136223846793005ELm1442695040888963407EEENS0_17pcg_xsl_rr_128_64EEENS0_17RandenPoolSeedSeqEEEEEmRT_NS0_17SimplifiedLoopTagE = comdat any

$_ZN4absl15random_internal17NonsecureURBGBaseINS0_10pcg_engineINS0_13pcg128_paramsILm2549297995355413924ELm4865540595714422341ELm6364136223846793005ELm1442695040888963407EEENS0_17pcg_xsl_rr_128_64EEENS0_17RandenPoolSeedSeqEEclEv = comdat any

$_ZN4absl15random_internal10pcg_engineINS0_13pcg128_paramsILm2549297995355413924ELm4865540595714422341ELm6364136223846793005ELm1442695040888963407EEENS0_17pcg_xsl_rr_128_64EEclEv = comdat any

$_ZN4absl15random_internal17pcg_xsl_rr_128_64clENS_7uint128E = comdat any

$_ZN4abslrsENS_7uint128Ei = comdat any

$_ZNK4absl7uint128cvmEv = comdat any

$_ZN4absl7uint128eOES0_ = comdat any

$_ZN4absl4rotrImEENSt9enable_ifIXsr3std11is_unsignedIT_EE5valueES2_E4typeES2_i = comdat any

$_ZN4absleoENS_7uint128ES0_ = comdat any

$_ZNK7testing15AssertionResult7messageEv = comdat any

$_ZStneINSt7__cxx1112basic_stringIcSt11char_traitsIcESaIcEEESt14default_deleteIS5_EEbRKSt10unique_ptrIT_T0_EDn = comdat any

$_ZNSt10unique_ptrINSt7__cxx1118basic_stringstreamIcSt11char_traitsIcESaIcEEESt14default_deleteIS5_EED2Ev = comdat any

$_ZNSt15__uniq_ptr_implINSt7__cxx1118basic_stringstreamIcSt11char_traitsIcESaIcEEESt14default_deleteIS5_EE6_M_ptrEv = comdat any

$_ZNSt10unique_ptrINSt7__cxx1118basic_stringstreamIcSt11char_traitsIcESaIcEEESt14default_deleteIS5_EE11get_deleterEv = comdat any

$_ZNKSt14default_deleteINSt7__cxx1118basic_stringstreamIcSt11char_traitsIcESaIcEEEEclEPS5_ = comdat any

$_ZSt3getILm0EJPNSt7__cxx1118basic_stringstreamIcSt11char_traitsIcESaIcEEESt14default_deleteIS5_EEERNSt13tuple_elementIXT_ESt5tupleIJDpT0_EEE4typeERSD_ = comdat any

$_ZSt12__get_helperILm0EPNSt7__cxx1118basic_stringstreamIcSt11char_traitsIcESaIcEEEJSt14default_deleteIS5_EEERT0_RSt11_Tuple_implIXT_EJS9_DpT1_EE = comdat any

$_ZNSt11_Tuple_implILm0EJPNSt7__cxx1118basic_stringstreamIcSt11char_traitsIcESaIcEEESt14default_deleteIS5_EEE7_M_headERS9_ = comdat any

$_ZNSt10_Head_baseILm0EPNSt7__cxx1118basic_stringstreamIcSt11char_traitsIcESaIcEEELb0EE7_M_headERS7_ = comdat any

$_ZNSt15__uniq_ptr_implINSt7__cxx1118basic_stringstreamIcSt11char_traitsIcESaIcEEESt14default_deleteIS5_EE10_M_deleterEv = comdat any

$_ZSt3getILm1EJPNSt7__cxx1118basic_stringstreamIcSt11char_traitsIcESaIcEEESt14default_deleteIS5_EEERNSt13tuple_elementIXT_ESt5tupleIJDpT0_EEE4typeERSD_ = comdat any

$_ZSt12__get_helperILm1ESt14default_deleteINSt7__cxx1118basic_stringstreamIcSt11char_traitsIcESaIcEEEEJEERT0_RSt11_Tuple_implIXT_EJS8_DpT1_EE = comdat any

$_ZNSt11_Tuple_implILm1EJSt14default_deleteINSt7__cxx1118basic_stringstreamIcSt11char_traitsIcESaIcEEEEEE7_M_headERS8_ = comdat any

$_ZNSt10_Head_baseILm1ESt14default_deleteINSt7__cxx1118basic_stringstreamIcSt11char_traitsIcESaIcEEEELb1EE7_M_headERS8_ = comdat any

$_ZN7testing8internal18CmpHelperOpFailureIidEENS_15AssertionResultEPKcS4_RKT_RKT0_S4_ = comdat any

$_ZN7testing8internal33FormatForComparisonFailureMessageIidEENSt7__cxx1112basic_stringIcSt11char_traitsIcESaIcEEERKT_RKT0_ = comdat any

$_ZN7testing8internal33FormatForComparisonFailureMessageIdiEENSt7__cxx1112basic_stringIcSt11char_traitsIcESaIcEEERKT_RKT0_ = comdat any

$_ZN7testing8internal19FormatForComparisonIidE6FormatB5cxx11ERKi = comdat any

$_ZN7testing8internal19FormatForComparisonIdiE6FormatB5cxx11ERKd = comdat any

$_ZN7testing13PrintToStringIdEENSt7__cxx1112basic_stringIcSt11char_traitsIcESaIcEEERKT_ = comdat any

$_ZN7testing8internal21UniversalTersePrinterIdE5PrintERKdPSo = comdat any

$_ZN7testing8internal14UniversalPrintIdEEvRKT_PSo = comdat any

$_ZN7testing8internal16UniversalPrinterIdE5PrintERKdPSo = comdat any

$_ZN7testing8internal7PrintToEdPSo = comdat any

$_ZN7testing8internal21AppropriateResolutionIdEEiT_ = comdat any

$_ZN4absl15random_internal19uniform_lower_boundIdNS_21IntervalClosedOpenTagEEENSt9enable_ifIXsr4absl11disjunctionISt7is_sameIT0_NS_23IntervalClosedClosedTagEES4_IS5_S2_EEE5valueET_E4typeES5_S9_S9_ = comdat any

$_ZN4absl15random_internal19uniform_upper_boundIdNS_21IntervalClosedOpenTagEEENSt9enable_ifIXsr4absl11conjunctionISt17is_floating_pointIT_ENS_11disjunctionIJSt7is_sameIT0_S2_ES8_IS9_NS_19IntervalOpenOpenTagEEEEEEE5valueES5_E4typeES9_S5_S5_ = comdat any

$_ZN4absl15random_internal22is_uniform_range_validIdEENSt9enable_ifIXsr3std17is_floating_pointIT_EE5valueEbE4typeES3_S3_ = comdat any

$_ZN4absl15random_internal18DistributionCallerINS0_17NonsecureURBGBaseINS0_10pcg_engineINS0_13pcg128_paramsILm2549297995355413924ELm4865540595714422341ELm6364136223846793005ELm1442695040888963407EEENS0_17pcg_xsl_rr_128_64EEENS0_17RandenPoolSeedSeqEEEE4CallINS0_26UniformDistributionWrapperIdEEJddEEENT_11result_typeEPS9_DpOT0_ = comdat any

$_ZSt8isfinited = comdat any

$_ZN4absl15random_internal18DistributionCallerINS0_17NonsecureURBGBaseINS0_10pcg_engineINS0_13pcg128_paramsILm2549297995355413924ELm4865540595714422341ELm6364136223846793005ELm1442695040888963407EEENS0_17pcg_xsl_rr_128_64EEENS0_17RandenPoolSeedSeqEEEE4ImplINS0_26UniformDistributionWrapperIdEEJddEEENT_11result_typeESt17integral_constantIbLb0EEPS9_DpOT0_ = comdat any

$_ZN4absl15random_internal26UniformDistributionWrapperIdEC2Edd = comdat any

$_ZN4absl25uniform_real_distributionIdEclINS_15random_internal17NonsecureURBGBaseINS3_10pcg_engineINS3_13pcg128_paramsILm2549297995355413924ELm4865540595714422341ELm6364136223846793005ELm1442695040888963407EEENS3_17pcg_xsl_rr_128_64EEENS3_17RandenPoolSeedSeqEEEEEdRT_ = comdat any

$_ZN4absl25uniform_real_distributionIdEC2Edd = comdat any

$_ZN4absl25uniform_real_distributionIdE10param_typeC2Edd = comdat any

$_ZN4absl25uniform_real_distributionIdEclINS_15random_internal17NonsecureURBGBaseINS3_10pcg_engineINS3_13pcg128_paramsILm2549297995355413924ELm4865540595714422341ELm6364136223846793005ELm1442695040888963407EEENS3_17pcg_xsl_rr_128_64EEENS3_17RandenPoolSeedSeqEEEEEdRT_RKNS1_10param_typeE = comdat any

$_ZN4absl15random_internal20GenerateRealFromBitsIdNS0_19GeneratePositiveTagELb1EEET_mi = comdat any

$_ZNK4absl25uniform_real_distributionIdE10param_type1aEv = comdat any

$_ZNK4absl25uniform_real_distributionIdE10param_type1bEv = comdat any

$_ZN4absl15random_internal19uniform_lower_boundIfNS_19IntervalOpenOpenTagEEENSt9enable_ifIXsr4absl11conjunctionISt17is_floating_pointIT_ENS_11disjunctionIJSt7is_sameIT0_NS_21IntervalOpenClosedTagEES8_IS9_S2_EEEEEE5valueES5_E4typeES9_S5_S5_ = comdat any

$_ZN4absl15random_internal19uniform_upper_boundIfNS_19IntervalOpenOpenTagEEENSt9enable_ifIXsr4absl11conjunctionISt17is_floating_pointIT_ENS_11disjunctionIJSt7is_sameIT0_NS_21IntervalClosedOpenTagEES8_IS9_S2_EEEEEE5valueES5_E4typeES9_S5_S5_ = comdat any

$_ZN4absl15random_internal18DistributionCallerINS0_17NonsecureURBGBaseINS0_10pcg_engineINS0_13pcg128_paramsILm2549297995355413924ELm4865540595714422341ELm6364136223846793005ELm1442695040888963407EEENS0_17pcg_xsl_rr_128_64EEENS0_17RandenPoolSeedSeqEEEE4CallINS0_26UniformDistributionWrapperIfEEJRNS_19IntervalOpenOpenTagEffEEENT_11result_typeEPS9_DpOT0_ = comdat any

$_ZSt9nextafterff = comdat any

$_ZN4absl15random_internal18DistributionCallerINS0_17NonsecureURBGBaseINS0_10pcg_engineINS0_13pcg128_paramsILm2549297995355413924ELm4865540595714422341ELm6364136223846793005ELm1442695040888963407EEENS0_17pcg_xsl_rr_128_64EEENS0_17RandenPoolSeedSeqEEEE4ImplINS0_26UniformDistributionWrapperIfEEJRNS_19IntervalOpenOpenTagEffEEENT_11result_typeESt17integral_constantIbLb0EEPS9_DpOT0_ = comdat any

$_ZN4absl15random_internal26UniformDistributionWrapperIfEC2INS_19IntervalOpenOpenTagEEET_ff = comdat any

$_ZN4absl15random_internal19uniform_lower_boundIdNS_19IntervalOpenOpenTagEEENSt9enable_ifIXsr4absl11conjunctionISt17is_floating_pointIT_ENS_11disjunctionIJSt7is_sameIT0_NS_21IntervalOpenClosedTagEES8_IS9_S2_EEEEEE5valueES5_E4typeES9_S5_S5_ = comdat any

$_ZN4absl15random_internal19uniform_upper_boundIdNS_19IntervalOpenOpenTagEEENSt9enable_ifIXsr4absl11conjunctionISt17is_floating_pointIT_ENS_11disjunctionIJSt7is_sameIT0_NS_21IntervalClosedOpenTagEES8_IS9_S2_EEEEEE5valueES5_E4typeES9_S5_S5_ = comdat any

$_ZN4absl15random_internal18DistributionCallerINS0_17NonsecureURBGBaseINS0_10pcg_engineINS0_13pcg128_paramsILm2549297995355413924ELm4865540595714422341ELm6364136223846793005ELm1442695040888963407EEENS0_17pcg_xsl_rr_128_64EEENS0_17RandenPoolSeedSeqEEEE4CallINS0_26UniformDistributionWrapperIdEEJRNS_19IntervalOpenOpenTagEddEEENT_11result_typeEPS9_DpOT0_ = comdat any

$_ZN4absl15random_internal18DistributionCallerINS0_17NonsecureURBGBaseINS0_10pcg_engineINS0_13pcg128_paramsILm2549297995355413924ELm4865540595714422341ELm6364136223846793005ELm1442695040888963407EEENS0_17pcg_xsl_rr_128_64EEENS0_17RandenPoolSeedSeqEEEE4ImplINS0_26UniformDistributionWrapperIdEEJRNS_19IntervalOpenOpenTagEddEEENT_11result_typeESt17integral_constantIbLb0EEPS9_DpOT0_ = comdat any

$_ZN4absl15random_internal26UniformDistributionWrapperIdEC2INS_19IntervalOpenOpenTagEEET_dd = comdat any

$_ZN4absl15random_internal18DistributionCallerINS0_17NonsecureURBGBaseINS0_10pcg_engineINS0_13pcg128_paramsILm2549297995355413924ELm4865540595714422341ELm6364136223846793005ELm1442695040888963407EEENS0_17pcg_xsl_rr_128_64EEENS0_17RandenPoolSeedSeqEEEE4CallINS0_26UniformDistributionWrapperIdEEJRNS_19IntervalOpenOpenTagERdSG_EEENT_11result_typeEPS9_DpOT0_ = comdat any

$_ZN4absl15random_internal18DistributionCallerINS0_17NonsecureURBGBaseINS0_10pcg_engineINS0_13pcg128_paramsILm2549297995355413924ELm4865540595714422341ELm6364136223846793005ELm1442695040888963407EEENS0_17pcg_xsl_rr_128_64EEENS0_17RandenPoolSeedSeqEEEE4ImplINS0_26UniformDistributionWrapperIdEEJRNS_19IntervalOpenOpenTagERdSG_EEENT_11result_typeESt17integral_constantIbLb0EEPS9_DpOT0_ = comdat any

$_ZN4absl15random_internal18DistributionCallerINS0_17NonsecureURBGBaseINS0_10pcg_engineINS0_13pcg128_paramsILm2549297995355413924ELm4865540595714422341ELm6364136223846793005ELm1442695040888963407EEENS0_17pcg_xsl_rr_128_64EEENS0_17RandenPoolSeedSeqEEEE4CallINS0_26UniformDistributionWrapperIfEEJRNS_19IntervalOpenOpenTagERfSG_EEENT_11result_typeEPS9_DpOT0_ = comdat any

$_ZN4absl15random_internal18DistributionCallerINS0_17NonsecureURBGBaseINS0_10pcg_engineINS0_13pcg128_paramsILm2549297995355413924ELm4865540595714422341ELm6364136223846793005ELm1442695040888963407EEENS0_17pcg_xsl_rr_128_64EEENS0_17RandenPoolSeedSeqEEEE4ImplINS0_26UniformDistributionWrapperIfEEJRNS_19IntervalOpenOpenTagERfSG_EEENT_11result_typeESt17integral_constantIbLb0EEPS9_DpOT0_ = comdat any

$_ZN4absl15random_internal18DistributionCallerINS0_17NonsecureURBGBaseINS0_10pcg_engineINS0_13pcg128_paramsILm2549297995355413924ELm4865540595714422341ELm6364136223846793005ELm1442695040888963407EEENS0_17pcg_xsl_rr_128_64EEENS0_17RandenPoolSeedSeqEEEE4CallINS0_26UniformDistributionWrapperIfEEJRfSE_EEENT_11result_typeEPS9_DpOT0_ = comdat any

$_ZN4absl15random_internal18DistributionCallerINS0_17NonsecureURBGBaseINS0_10pcg_engineINS0_13pcg128_paramsILm2549297995355413924ELm4865540595714422341ELm6364136223846793005ELm1442695040888963407EEENS0_17pcg_xsl_rr_128_64EEENS0_17RandenPoolSeedSeqEEEE4ImplINS0_26UniformDistributionWrapperIfEEJRfSE_EEENT_11result_typeESt17integral_constantIbLb0EEPS9_DpOT0_ = comdat any

$_ZN4absl7UniformIhRNS_15random_internal17NonsecureURBGBaseINS1_10pcg_engineINS1_13pcg128_paramsILm2549297995355413924ELm4865540595714422341ELm6364136223846793005ELm1442695040888963407EEENS1_17pcg_xsl_rr_128_64EEENS1_17RandenPoolSeedSeqEEEEENSt9enable_ifIXntsr3std9is_signedIT_EE5valueESC_E4typeEOT0_ = comdat any

$_ZN4absl7UniformItRNS_15random_internal17NonsecureURBGBaseINS1_10pcg_engineINS1_13pcg128_paramsILm2549297995355413924ELm4865540595714422341ELm6364136223846793005ELm1442695040888963407EEENS1_17pcg_xsl_rr_128_64EEENS1_17RandenPoolSeedSeqEEEEENSt9enable_ifIXntsr3std9is_signedIT_EE5valueESC_E4typeEOT0_ = comdat any

$_ZN4absl7UniformIjRNS_15random_internal17NonsecureURBGBaseINS1_10pcg_engineINS1_13pcg128_paramsILm2549297995355413924ELm4865540595714422341ELm6364136223846793005ELm1442695040888963407EEENS1_17pcg_xsl_rr_128_64EEENS1_17RandenPoolSeedSeqEEEEENSt9enable_ifIXntsr3std9is_signedIT_EE5valueESC_E4typeEOT0_ = comdat any

$_ZN4absl7UniformImRNS_15random_internal17NonsecureURBGBaseINS1_10pcg_engineINS1_13pcg128_paramsILm2549297995355413924ELm4865540595714422341ELm6364136223846793005ELm1442695040888963407EEENS1_17pcg_xsl_rr_128_64EEENS1_17RandenPoolSeedSeqEEEEENSt9enable_ifIXntsr3std9is_signedIT_EE5valueESC_E4typeEOT0_ = comdat any

$_ZN4absl7UniformINS_7uint128ERNS_15random_internal17NonsecureURBGBaseINS2_10pcg_engineINS2_13pcg128_paramsILm2549297995355413924ELm4865540595714422341ELm6364136223846793005ELm1442695040888963407EEENS2_17pcg_xsl_rr_128_64EEENS2_17RandenPoolSeedSeqEEEEENSt9enable_ifIXntsr3std9is_signedIT_EE5valueESD_E4typeEOT0_ = comdat any

$_ZN4absl15random_internal18DistributionCallerINS0_17NonsecureURBGBaseINS0_10pcg_engineINS0_13pcg128_paramsILm2549297995355413924ELm4865540595714422341ELm6364136223846793005ELm1442695040888963407EEENS0_17pcg_xsl_rr_128_64EEENS0_17RandenPoolSeedSeqEEEE4CallINS0_26UniformDistributionWrapperIhEEJEEENT_11result_typeEPS9_DpOT0_ = comdat any

$_ZN4absl15random_internal18DistributionCallerINS0_17NonsecureURBGBaseINS0_10pcg_engineINS0_13pcg128_paramsILm2549297995355413924ELm4865540595714422341ELm6364136223846793005ELm1442695040888963407EEENS0_17pcg_xsl_rr_128_64EEENS0_17RandenPoolSeedSeqEEEE4ImplINS0_26UniformDistributionWrapperIhEEJEEENT_11result_typeESt17integral_constantIbLb0EEPS9_DpOT0_ = comdat any

$_ZN4absl15random_internal26UniformDistributionWrapperIhEC2Ev = comdat any

$_ZN4absl24uniform_int_distributionIhEclINS_15random_internal17NonsecureURBGBaseINS3_10pcg_engineINS3_13pcg128_paramsILm2549297995355413924ELm4865540595714422341ELm6364136223846793005ELm1442695040888963407EEENS3_17pcg_xsl_rr_128_64EEENS3_17RandenPoolSeedSeqEEEEEhRT_ = comdat any

$_ZNSt14numeric_limitsIhE6lowestEv = comdat any

$_ZNSt14numeric_limitsIhE3maxEv = comdat any

$_ZN4absl24uniform_int_distributionIhEC2Ehh = comdat any

$_ZNSt14numeric_limitsIhE3minEv = comdat any

$_ZN4absl24uniform_int_distributionIhE10param_typeC2Ehh = comdat any

$_ZN4absl24uniform_int_distributionIhEclINS_15random_internal17NonsecureURBGBaseINS3_10pcg_engineINS3_13pcg128_paramsILm2549297995355413924ELm4865540595714422341ELm6364136223846793005ELm1442695040888963407EEENS3_17pcg_xsl_rr_128_64EEENS3_17RandenPoolSeedSeqEEEEEhRT_RKNS1_10param_typeE = comdat any

$_ZNK4absl24uniform_int_distributionIhE5paramEv = comdat any

$_ZNK4absl24uniform_int_distributionIhE10param_type1aEv = comdat any

$_ZN4absl24uniform_int_distributionIhE8GenerateINS_15random_internal17NonsecureURBGBaseINS3_10pcg_engineINS3_13pcg128_paramsILm2549297995355413924ELm4865540595714422341ELm6364136223846793005ELm1442695040888963407EEENS3_17pcg_xsl_rr_128_64EEENS3_17RandenPoolSeedSeqEEEEEhRT_h = comdat any

$_ZNK4absl24uniform_int_distributionIhE10param_type5rangeEv = comdat any

$_ZN4absl15random_internal15FastUniformBitsIhEclINS0_17NonsecureURBGBaseINS0_10pcg_engineINS0_13pcg128_paramsILm2549297995355413924ELm4865540595714422341ELm6364136223846793005ELm1442695040888963407EEENS0_17pcg_xsl_rr_128_64EEENS0_17RandenPoolSeedSeqEEEEEhRT_ = comdat any

$_ZN4absl15random_internal13wide_multiplyIhE8multiplyEhh = comdat any

$_ZN4absl15random_internal13wide_multiplyIhE2loEt = comdat any

$_ZN4absl15random_internal13wide_multiplyIhE2hiEt = comdat any

$_ZN4absl15random_internal15FastUniformBitsIhE8GenerateINS0_17NonsecureURBGBaseINS0_10pcg_engineINS0_13pcg128_paramsILm2549297995355413924ELm4865540595714422341ELm6364136223846793005ELm1442695040888963407EEENS0_17pcg_xsl_rr_128_64EEENS0_17RandenPoolSeedSeqEEEEEhRT_NS0_17SimplifiedLoopTagE = comdat any

$_ZN4absl15random_internal18DistributionCallerINS0_17NonsecureURBGBaseINS0_10pcg_engineINS0_13pcg128_paramsILm2549297995355413924ELm4865540595714422341ELm6364136223846793005ELm1442695040888963407EEENS0_17pcg_xsl_rr_128_64EEENS0_17RandenPoolSeedSeqEEEE4CallINS0_26UniformDistributionWrapperItEEJEEENT_11result_typeEPS9_DpOT0_ = comdat any

$_ZN4absl15random_internal18DistributionCallerINS0_17NonsecureURBGBaseINS0_10pcg_engineINS0_13pcg128_paramsILm2549297995355413924ELm4865540595714422341ELm6364136223846793005ELm1442695040888963407EEENS0_17pcg_xsl_rr_128_64EEENS0_17RandenPoolSeedSeqEEEE4ImplINS0_26UniformDistributionWrapperItEEJEEENT_11result_typeESt17integral_constantIbLb0EEPS9_DpOT0_ = comdat any

$_ZN4absl15random_internal26UniformDistributionWrapperItEC2Ev = comdat any

$_ZN4absl24uniform_int_distributionItEclINS_15random_internal17NonsecureURBGBaseINS3_10pcg_engineINS3_13pcg128_paramsILm2549297995355413924ELm4865540595714422341ELm6364136223846793005ELm1442695040888963407EEENS3_17pcg_xsl_rr_128_64EEENS3_17RandenPoolSeedSeqEEEEEtRT_ = comdat any

$_ZNSt14numeric_limitsItE6lowestEv = comdat any

$_ZNSt14numeric_limitsItE3maxEv = comdat any

$_ZN4absl24uniform_int_distributionItEC2Ett = comdat any

$_ZNSt14numeric_limitsItE3minEv = comdat any

$_ZN4absl24uniform_int_distributionItE10param_typeC2Ett = comdat any

$_ZN4absl24uniform_int_distributionItEclINS_15random_internal17NonsecureURBGBaseINS3_10pcg_engineINS3_13pcg128_paramsILm2549297995355413924ELm4865540595714422341ELm6364136223846793005ELm1442695040888963407EEENS3_17pcg_xsl_rr_128_64EEENS3_17RandenPoolSeedSeqEEEEEtRT_RKNS1_10param_typeE = comdat any

$_ZNK4absl24uniform_int_distributionItE5paramEv = comdat any

$_ZNK4absl24uniform_int_distributionItE10param_type1aEv = comdat any

$_ZN4absl24uniform_int_distributionItE8GenerateINS_15random_internal17NonsecureURBGBaseINS3_10pcg_engineINS3_13pcg128_paramsILm2549297995355413924ELm4865540595714422341ELm6364136223846793005ELm1442695040888963407EEENS3_17pcg_xsl_rr_128_64EEENS3_17RandenPoolSeedSeqEEEEEtRT_t = comdat any

$_ZNK4absl24uniform_int_distributionItE10param_type5rangeEv = comdat any

$_ZN4absl15random_internal15FastUniformBitsItEclINS0_17NonsecureURBGBaseINS0_10pcg_engineINS0_13pcg128_paramsILm2549297995355413924ELm4865540595714422341ELm6364136223846793005ELm1442695040888963407EEENS0_17pcg_xsl_rr_128_64EEENS0_17RandenPoolSeedSeqEEEEEtRT_ = comdat any

$_ZN4absl15random_internal13wide_multiplyItE8multiplyEtt = comdat any

$_ZN4absl15random_internal13wide_multiplyItE2loEj = comdat any

$_ZN4absl15random_internal13wide_multiplyItE2hiEj = comdat any

$_ZN4absl15random_internal15FastUniformBitsItE8GenerateINS0_17NonsecureURBGBaseINS0_10pcg_engineINS0_13pcg128_paramsILm2549297995355413924ELm4865540595714422341ELm6364136223846793005ELm1442695040888963407EEENS0_17pcg_xsl_rr_128_64EEENS0_17RandenPoolSeedSeqEEEEEtRT_NS0_17SimplifiedLoopTagE = comdat any

$_ZN4absl15random_internal18DistributionCallerINS0_17NonsecureURBGBaseINS0_10pcg_engineINS0_13pcg128_paramsILm2549297995355413924ELm4865540595714422341ELm6364136223846793005ELm1442695040888963407EEENS0_17pcg_xsl_rr_128_64EEENS0_17RandenPoolSeedSeqEEEE4CallINS0_26UniformDistributionWrapperIjEEJEEENT_11result_typeEPS9_DpOT0_ = comdat any

$_ZN4absl15random_internal18DistributionCallerINS0_17NonsecureURBGBaseINS0_10pcg_engineINS0_13pcg128_paramsILm2549297995355413924ELm4865540595714422341ELm6364136223846793005ELm1442695040888963407EEENS0_17pcg_xsl_rr_128_64EEENS0_17RandenPoolSeedSeqEEEE4ImplINS0_26UniformDistributionWrapperIjEEJEEENT_11result_typeESt17integral_constantIbLb0EEPS9_DpOT0_ = comdat any

$_ZN4absl15random_internal26UniformDistributionWrapperIjEC2Ev = comdat any

$_ZN4absl24uniform_int_distributionIjEclINS_15random_internal17NonsecureURBGBaseINS3_10pcg_engineINS3_13pcg128_paramsILm2549297995355413924ELm4865540595714422341ELm6364136223846793005ELm1442695040888963407EEENS3_17pcg_xsl_rr_128_64EEENS3_17RandenPoolSeedSeqEEEEEjRT_ = comdat any

$_ZNSt14numeric_limitsIjE6lowestEv = comdat any

$_ZNSt14numeric_limitsIjE3maxEv = comdat any

$_ZN4absl24uniform_int_distributionIjEC2Ejj = comdat any

$_ZNSt14numeric_limitsIjE3minEv = comdat any

$_ZN4absl24uniform_int_distributionIjE10param_typeC2Ejj = comdat any

$_ZN4absl24uniform_int_distributionIjEclINS_15random_internal17NonsecureURBGBaseINS3_10pcg_engineINS3_13pcg128_paramsILm2549297995355413924ELm4865540595714422341ELm6364136223846793005ELm1442695040888963407EEENS3_17pcg_xsl_rr_128_64EEENS3_17RandenPoolSeedSeqEEEEEjRT_RKNS1_10param_typeE = comdat any

$_ZNK4absl24uniform_int_distributionIjE5paramEv = comdat any

$_ZNK4absl24uniform_int_distributionIjE10param_type1aEv = comdat any

$_ZN4absl24uniform_int_distributionIjE8GenerateINS_15random_internal17NonsecureURBGBaseINS3_10pcg_engineINS3_13pcg128_paramsILm2549297995355413924ELm4865540595714422341ELm6364136223846793005ELm1442695040888963407EEENS3_17pcg_xsl_rr_128_64EEENS3_17RandenPoolSeedSeqEEEEEjRT_j = comdat any

$_ZNK4absl24uniform_int_distributionIjE10param_type5rangeEv = comdat any

$_ZN4absl15random_internal15FastUniformBitsIjEclINS0_17NonsecureURBGBaseINS0_10pcg_engineINS0_13pcg128_paramsILm2549297995355413924ELm4865540595714422341ELm6364136223846793005ELm1442695040888963407EEENS0_17pcg_xsl_rr_128_64EEENS0_17RandenPoolSeedSeqEEEEEjRT_ = comdat any

$_ZN4absl15random_internal13wide_multiplyIjE8multiplyEjj = comdat any

$_ZN4absl15random_internal13wide_multiplyIjE2loEm = comdat any

$_ZN4absl15random_internal13wide_multiplyIjE2hiEm = comdat any

$_ZN4absl15random_internal15FastUniformBitsIjE8GenerateINS0_17NonsecureURBGBaseINS0_10pcg_engineINS0_13pcg128_paramsILm2549297995355413924ELm4865540595714422341ELm6364136223846793005ELm1442695040888963407EEENS0_17pcg_xsl_rr_128_64EEENS0_17RandenPoolSeedSeqEEEEEjRT_NS0_17SimplifiedLoopTagE = comdat any

$_ZN4absl15random_internal18DistributionCallerINS0_17NonsecureURBGBaseINS0_10pcg_engineINS0_13pcg128_paramsILm2549297995355413924ELm4865540595714422341ELm6364136223846793005ELm1442695040888963407EEENS0_17pcg_xsl_rr_128_64EEENS0_17RandenPoolSeedSeqEEEE4CallINS0_26UniformDistributionWrapperImEEJEEENT_11result_typeEPS9_DpOT0_ = comdat any

$_ZN4absl15random_internal18DistributionCallerINS0_17NonsecureURBGBaseINS0_10pcg_engineINS0_13pcg128_paramsILm2549297995355413924ELm4865540595714422341ELm6364136223846793005ELm1442695040888963407EEENS0_17pcg_xsl_rr_128_64EEENS0_17RandenPoolSeedSeqEEEE4ImplINS0_26UniformDistributionWrapperImEEJEEENT_11result_typeESt17integral_constantIbLb0EEPS9_DpOT0_ = comdat any

$_ZN4absl15random_internal26UniformDistributionWrapperImEC2Ev = comdat any

$_ZN4absl24uniform_int_distributionImEclINS_15random_internal17NonsecureURBGBaseINS3_10pcg_engineINS3_13pcg128_paramsILm2549297995355413924ELm4865540595714422341ELm6364136223846793005ELm1442695040888963407EEENS3_17pcg_xsl_rr_128_64EEENS3_17RandenPoolSeedSeqEEEEEmRT_ = comdat any

$_ZNSt14numeric_limitsImE6lowestEv = comdat any

$_ZNSt14numeric_limitsImE3maxEv = comdat any

$_ZN4absl24uniform_int_distributionImEC2Emm = comdat any

$_ZNSt14numeric_limitsImE3minEv = comdat any

$_ZN4absl24uniform_int_distributionImE10param_typeC2Emm = comdat any

$_ZN4absl24uniform_int_distributionImEclINS_15random_internal17NonsecureURBGBaseINS3_10pcg_engineINS3_13pcg128_paramsILm2549297995355413924ELm4865540595714422341ELm6364136223846793005ELm1442695040888963407EEENS3_17pcg_xsl_rr_128_64EEENS3_17RandenPoolSeedSeqEEEEEmRT_RKNS1_10param_typeE = comdat any

$_ZNK4absl24uniform_int_distributionImE5paramEv = comdat any

$_ZNK4absl24uniform_int_distributionImE10param_type1aEv = comdat any

$_ZN4absl24uniform_int_distributionImE8GenerateINS_15random_internal17NonsecureURBGBaseINS3_10pcg_engineINS3_13pcg128_paramsILm2549297995355413924ELm4865540595714422341ELm6364136223846793005ELm1442695040888963407EEENS3_17pcg_xsl_rr_128_64EEENS3_17RandenPoolSeedSeqEEEEEmRT_m = comdat any

$_ZNK4absl24uniform_int_distributionImE10param_type5rangeEv = comdat any

$_ZN4absl15random_internal13wide_multiplyImE8multiplyEmm = comdat any

$_ZN4absl15random_internal13wide_multiplyImE2loENS_7uint128E = comdat any

$_ZN4absl15random_internal13wide_multiplyImE2hiENS_7uint128E = comdat any

$_ZN4absl7uint128C2Em = comdat any

$_ZN4absl15random_internal18DistributionCallerINS0_17NonsecureURBGBaseINS0_10pcg_engineINS0_13pcg128_paramsILm2549297995355413924ELm4865540595714422341ELm6364136223846793005ELm1442695040888963407EEENS0_17pcg_xsl_rr_128_64EEENS0_17RandenPoolSeedSeqEEEE4CallINS0_26UniformDistributionWrapperINS_7uint128EEEJEEENT_11result_typeEPS9_DpOT0_ = comdat any

$_ZN4absl15random_internal18DistributionCallerINS0_17NonsecureURBGBaseINS0_10pcg_engineINS0_13pcg128_paramsILm2549297995355413924ELm4865540595714422341ELm6364136223846793005ELm1442695040888963407EEENS0_17pcg_xsl_rr_128_64EEENS0_17RandenPoolSeedSeqEEEE4ImplINS0_26UniformDistributionWrapperINS_7uint128EEEJEEENT_11result_typeESt17integral_constantIbLb0EEPS9_DpOT0_ = comdat any

$_ZN4absl15random_internal26UniformDistributionWrapperINS_7uint128EEC2Ev = comdat any

$_ZN4absl24uniform_int_distributionINS_7uint128EEclINS_15random_internal17NonsecureURBGBaseINS4_10pcg_engineINS4_13pcg128_paramsILm2549297995355413924ELm4865540595714422341ELm6364136223846793005ELm1442695040888963407EEENS4_17pcg_xsl_rr_128_64EEENS4_17RandenPoolSeedSeqEEEEES1_RT_ = comdat any

$_ZNSt14numeric_limitsIN4absl7uint128EE6lowestEv = comdat any

$_ZNSt14numeric_limitsIN4absl7uint128EE3maxEv = comdat any

$_ZN4absl24uniform_int_distributionINS_7uint128EEC2ES1_S1_ = comdat any

$_ZN4absl7uint128C2Ei = comdat any

$_ZN4absl10Uint128MaxEv = comdat any

$_ZN4absl24uniform_int_distributionINS_7uint128EE10param_typeC2ES1_S1_ = comdat any

$_ZN4abslmiENS_7uint128ES0_ = comdat any

$_ZN4absl24uniform_int_distributionINS_7uint128EEclINS_15random_internal17NonsecureURBGBaseINS4_10pcg_engineINS4_13pcg128_paramsILm2549297995355413924ELm4865540595714422341ELm6364136223846793005ELm1442695040888963407EEENS4_17pcg_xsl_rr_128_64EEENS4_17RandenPoolSeedSeqEEEEES1_RT_RKNS2_10param_typeE = comdat any

$_ZNK4absl24uniform_int_distributionINS_7uint128EE5paramEv = comdat any

$_ZNK4absl24uniform_int_distributionINS_7uint128EE10param_type1aEv = comdat any

$_ZN4absl24uniform_int_distributionINS_7uint128EE8GenerateINS_15random_internal17NonsecureURBGBaseINS4_10pcg_engineINS4_13pcg128_paramsILm2549297995355413924ELm4865540595714422341ELm6364136223846793005ELm1442695040888963407EEENS4_17pcg_xsl_rr_128_64EEENS4_17RandenPoolSeedSeqEEEEES1_RT_S1_ = comdat any

$_ZNK4absl24uniform_int_distributionINS_7uint128EE10param_type5rangeEv = comdat any

$_ZN4absl15random_internal15FastUniformBitsINS_7uint128EEclINS0_17NonsecureURBGBaseINS0_10pcg_engineINS0_13pcg128_paramsILm2549297995355413924ELm4865540595714422341ELm6364136223846793005ELm1442695040888963407EEENS0_17pcg_xsl_rr_128_64EEENS0_17RandenPoolSeedSeqEEEEES2_RT_ = comdat any

$_ZN4absleqENS_7uint128ES0_ = comdat any

$_ZN4abslanENS_7uint128ES0_ = comdat any

$_ZN4absl15random_internal13wide_multiplyINS_7uint128EE8multiplyES2_S2_ = comdat any

$_ZN4abslltENS_7uint128ES0_ = comdat any

$_ZN4absl15random_internal13wide_multiplyINS_7uint128EE2loENS0_4U256E = comdat any

$_ZN4abslrmENS_7uint128ES0_ = comdat any

$_ZN4absl15random_internal13wide_multiplyINS_7uint128EE2hiENS0_4U256E = comdat any

$_ZN4absl15random_internal15FastUniformBitsINS_7uint128EE8GenerateINS0_17NonsecureURBGBaseINS0_10pcg_engineINS0_13pcg128_paramsILm2549297995355413924ELm4865540595714422341ELm6364136223846793005ELm1442695040888963407EEENS0_17pcg_xsl_rr_128_64EEENS0_17RandenPoolSeedSeqEEEEES2_RT_NS0_17SimplifiedLoopTagE = comdat any

$_ZN4absl15random_internal18MultiplyU128ToU256ENS_7uint128ES1_ = comdat any

$_ZN7testing8internal8EqHelper7CompareIimTnPNSt9enable_ifIXoontsr3std11is_integralIT_EE5valuentsr3std10is_pointerIT0_EE5valueEvE4typeELPv0EEENS_15AssertionResultEPKcSC_RKS4_RKS5_ = comdat any

$_ZN4absl7UniformImRNS_15random_internal17NonsecureURBGBaseINS1_10pcg_engineINS1_13pcg128_paramsILm2549297995355413924ELm4865540595714422341ELm6364136223846793005ELm1442695040888963407EEENS1_17pcg_xsl_rr_128_64EEENS1_17RandenPoolSeedSeqEEEEENSt9enable_ifIXntsr3std7is_sameIT_vEE5valueESC_E4typeEOT0_SC_SC_ = comdat any

$_ZN4absl7UniformImNS_19IntervalOpenOpenTagERNS_15random_internal17NonsecureURBGBaseINS2_10pcg_engineINS2_13pcg128_paramsILm2549297995355413924ELm4865540595714422341ELm6364136223846793005ELm1442695040888963407EEENS2_17pcg_xsl_rr_128_64EEENS2_17RandenPoolSeedSeqEEEEENSt9enable_ifIXntsr3std7is_sameIT_vEE5valueESD_E4typeET0_OT1_SD_SD_ = comdat any

$_ZN7testing8internal8EqHelper7CompareImmTnPNSt9enable_ifIXoontsr3std11is_integralIT_EE5valuentsr3std10is_pointerIT0_EE5valueEvE4typeELPv0EEENS_15AssertionResultEPKcSC_RKS4_RKS5_ = comdat any

$_ZN7testing8internal8EqHelper7CompareIilTnPNSt9enable_ifIXoontsr3std11is_integralIT_EE5valuentsr3std10is_pointerIT0_EE5valueEvE4typeELPv0EEENS_15AssertionResultEPKcSC_RKS4_RKS5_ = comdat any

$_ZN4absl7UniformIlRNS_15random_internal17NonsecureURBGBaseINS1_10pcg_engineINS1_13pcg128_paramsILm2549297995355413924ELm4865540595714422341ELm6364136223846793005ELm1442695040888963407EEENS1_17pcg_xsl_rr_128_64EEENS1_17RandenPoolSeedSeqEEEEENSt9enable_ifIXntsr3std7is_sameIT_vEE5valueESC_E4typeEOT0_SC_SC_ = comdat any

$_ZN4absl7UniformIlNS_19IntervalOpenOpenTagERNS_15random_internal17NonsecureURBGBaseINS2_10pcg_engineINS2_13pcg128_paramsILm2549297995355413924ELm4865540595714422341ELm6364136223846793005ELm1442695040888963407EEENS2_17pcg_xsl_rr_128_64EEENS2_17RandenPoolSeedSeqEEEEENSt9enable_ifIXntsr3std7is_sameIT_vEE5valueESD_E4typeET0_OT1_SD_SD_ = comdat any

$_ZN7testing8internal8EqHelper7CompareIllTnPNSt9enable_ifIXoontsr3std11is_integralIT_EE5valuentsr3std10is_pointerIT0_EE5valueEvE4typeELPv0EEENS_15AssertionResultEPKcSC_RKS4_RKS5_ = comdat any

$_ZNSt14numeric_limitsIdE10denorm_minEv = comdat any

$_ZN7testing8internal8EqHelper7CompareIddTnPNSt9enable_ifIXoontsr3std11is_integralIT_EE5valuentsr3std10is_pointerIT0_EE5valueEvE4typeELPv0EEENS_15AssertionResultEPKcSC_RKS4_RKS5_ = comdat any

$_ZN4absl7UniformIdRNS_15random_internal17NonsecureURBGBaseINS1_10pcg_engineINS1_13pcg128_paramsILm2549297995355413924ELm4865540595714422341ELm6364136223846793005ELm1442695040888963407EEENS1_17pcg_xsl_rr_128_64EEENS1_17RandenPoolSeedSeqEEEEENSt9enable_ifIXntsr3std7is_sameIT_vEE5valueESC_E4typeEOT0_SC_SC_ = comdat any

$_ZN7testing8internal11CmpHelperEQIimEENS_15AssertionResultEPKcS4_RKT_RKT0_ = comdat any

$_ZN7testing8internal18CmpHelperEQFailureIimEENS_15AssertionResultEPKcS4_RKT_RKT0_ = comdat any

$_ZN7testing8internal33FormatForComparisonFailureMessageIimEENSt7__cxx1112basic_stringIcSt11char_traitsIcESaIcEEERKT_RKT0_ = comdat any

$_ZN7testing8internal33FormatForComparisonFailureMessageImiEENSt7__cxx1112basic_stringIcSt11char_traitsIcESaIcEEERKT_RKT0_ = comdat any

$_ZN7testing8internal19FormatForComparisonIimE6FormatB5cxx11ERKi = comdat any

$_ZN7testing8internal19FormatForComparisonImiE6FormatB5cxx11ERKm = comdat any

$_ZN7testing13PrintToStringImEENSt7__cxx1112basic_stringIcSt11char_traitsIcESaIcEEERKT_ = comdat any

$_ZN7testing8internal21UniversalTersePrinterImE5PrintERKmPSo = comdat any

$_ZN7testing8internal14UniversalPrintImEEvRKT_PSo = comdat any

$_ZN7testing8internal16UniversalPrinterImE5PrintERKmPSo = comdat any

$_ZN7testing8internal7PrintToImEEvRKT_PSo = comdat any

$_ZN7testing8internal17PrintWithFallbackImEEvRKT_PSo = comdat any

$_ZN7testing8internal52internal_stream_operator_without_lexical_name_lookup13StreamPrinter10PrintValueImvEEDTcvvlsdefp0_fp_ERKT_PSo = comdat any

$_ZN4absl15random_internal19uniform_lower_boundImNS_21IntervalClosedOpenTagEEENSt9enable_ifIXsr4absl11disjunctionISt7is_sameIT0_NS_23IntervalClosedClosedTagEES4_IS5_S2_EEE5valueET_E4typeES5_S9_S9_ = comdat any

$_ZN4absl15random_internal19uniform_upper_boundImNS_21IntervalClosedOpenTagEEENSt9enable_ifIXsr4absl11conjunctionINS0_10IsIntegralIT_EENS_11disjunctionIJSt7is_sameIT0_S2_ES8_IS9_NS_19IntervalOpenOpenTagEEEEEEE5valueES5_E4typeES9_S5_S5_ = comdat any

$_ZN4absl15random_internal22is_uniform_range_validImEENSt9enable_ifIXsr10IsIntegralIT_EE5valueEbE4typeES3_S3_ = comdat any

$_ZN4absl15random_internal18DistributionCallerINS0_17NonsecureURBGBaseINS0_10pcg_engineINS0_13pcg128_paramsILm2549297995355413924ELm4865540595714422341ELm6364136223846793005ELm1442695040888963407EEENS0_17pcg_xsl_rr_128_64EEENS0_17RandenPoolSeedSeqEEEE4CallINS0_26UniformDistributionWrapperImEEJRmSE_EEENT_11result_typeEPS9_DpOT0_ = comdat any

$_ZN4absl15random_internal18DistributionCallerINS0_17NonsecureURBGBaseINS0_10pcg_engineINS0_13pcg128_paramsILm2549297995355413924ELm4865540595714422341ELm6364136223846793005ELm1442695040888963407EEENS0_17pcg_xsl_rr_128_64EEENS0_17RandenPoolSeedSeqEEEE4ImplINS0_26UniformDistributionWrapperImEEJRmSE_EEENT_11result_typeESt17integral_constantIbLb0EEPS9_DpOT0_ = comdat any

$_ZN4absl15random_internal26UniformDistributionWrapperImEC2Emm = comdat any

$_ZN4absl15random_internal19uniform_lower_boundImNS_19IntervalOpenOpenTagEEENSt9enable_ifIXsr4absl11conjunctionINS0_10IsIntegralIT_EENS_11disjunctionIJSt7is_sameIT0_NS_21IntervalOpenClosedTagEES8_IS9_S2_EEEEEE5valueES5_E4typeES9_S5_S5_ = comdat any

$_ZN4absl15random_internal19uniform_upper_boundImNS_19IntervalOpenOpenTagEEENSt9enable_ifIXsr4absl11conjunctionINS0_10IsIntegralIT_EENS_11disjunctionIJSt7is_sameIT0_NS_21IntervalClosedOpenTagEES8_IS9_S2_EEEEEE5valueES5_E4typeES9_S5_S5_ = comdat any

$_ZN4absl15random_internal18DistributionCallerINS0_17NonsecureURBGBaseINS0_10pcg_engineINS0_13pcg128_paramsILm2549297995355413924ELm4865540595714422341ELm6364136223846793005ELm1442695040888963407EEENS0_17pcg_xsl_rr_128_64EEENS0_17RandenPoolSeedSeqEEEE4CallINS0_26UniformDistributionWrapperImEEJRNS_19IntervalOpenOpenTagERmSG_EEENT_11result_typeEPS9_DpOT0_ = comdat any

$_ZN4absl15random_internal18DistributionCallerINS0_17NonsecureURBGBaseINS0_10pcg_engineINS0_13pcg128_paramsILm2549297995355413924ELm4865540595714422341ELm6364136223846793005ELm1442695040888963407EEENS0_17pcg_xsl_rr_128_64EEENS0_17RandenPoolSeedSeqEEEE4ImplINS0_26UniformDistributionWrapperImEEJRNS_19IntervalOpenOpenTagERmSG_EEENT_11result_typeESt17integral_constantIbLb0EEPS9_DpOT0_ = comdat any

$_ZN4absl15random_internal26UniformDistributionWrapperImEC2INS_19IntervalOpenOpenTagEEET_mm = comdat any

$_ZN7testing8internal11CmpHelperEQImmEENS_15AssertionResultEPKcS4_RKT_RKT0_ = comdat any

$_ZN7testing8internal18CmpHelperEQFailureImmEENS_15AssertionResultEPKcS4_RKT_RKT0_ = comdat any

$_ZN7testing8internal33FormatForComparisonFailureMessageImmEENSt7__cxx1112basic_stringIcSt11char_traitsIcESaIcEEERKT_RKT0_ = comdat any

$_ZN7testing8internal19FormatForComparisonImmE6FormatB5cxx11ERKm = comdat any

$_ZN7testing8internal11CmpHelperEQIilEENS_15AssertionResultEPKcS4_RKT_RKT0_ = comdat any

$_ZN7testing8internal18CmpHelperEQFailureIilEENS_15AssertionResultEPKcS4_RKT_RKT0_ = comdat any

$_ZN7testing8internal33FormatForComparisonFailureMessageIilEENSt7__cxx1112basic_stringIcSt11char_traitsIcESaIcEEERKT_RKT0_ = comdat any

$_ZN7testing8internal33FormatForComparisonFailureMessageIliEENSt7__cxx1112basic_stringIcSt11char_traitsIcESaIcEEERKT_RKT0_ = comdat any

$_ZN7testing8internal19FormatForComparisonIilE6FormatB5cxx11ERKi = comdat any

$_ZN7testing8internal19FormatForComparisonIliE6FormatB5cxx11ERKl = comdat any

$_ZN7testing13PrintToStringIlEENSt7__cxx1112basic_stringIcSt11char_traitsIcESaIcEEERKT_ = comdat any

$_ZN7testing8internal21UniversalTersePrinterIlE5PrintERKlPSo = comdat any

$_ZN7testing8internal14UniversalPrintIlEEvRKT_PSo = comdat any

$_ZN7testing8internal16UniversalPrinterIlE5PrintERKlPSo = comdat any

$_ZN7testing8internal7PrintToIlEEvRKT_PSo = comdat any

$_ZN7testing8internal17PrintWithFallbackIlEEvRKT_PSo = comdat any

$_ZN7testing8internal52internal_stream_operator_without_lexical_name_lookup13StreamPrinter10PrintValueIlvEEDTcvvlsdefp0_fp_ERKT_PSo = comdat any

$_ZN4absl15random_internal19uniform_lower_boundIlNS_21IntervalClosedOpenTagEEENSt9enable_ifIXsr4absl11disjunctionISt7is_sameIT0_NS_23IntervalClosedClosedTagEES4_IS5_S2_EEE5valueET_E4typeES5_S9_S9_ = comdat any

$_ZN4absl15random_internal19uniform_upper_boundIlNS_21IntervalClosedOpenTagEEENSt9enable_ifIXsr4absl11conjunctionINS0_10IsIntegralIT_EENS_11disjunctionIJSt7is_sameIT0_S2_ES8_IS9_NS_19IntervalOpenOpenTagEEEEEEE5valueES5_E4typeES9_S5_S5_ = comdat any

$_ZN4absl15random_internal22is_uniform_range_validIlEENSt9enable_ifIXsr10IsIntegralIT_EE5valueEbE4typeES3_S3_ = comdat any

$_ZN4absl15random_internal18DistributionCallerINS0_17NonsecureURBGBaseINS0_10pcg_engineINS0_13pcg128_paramsILm2549297995355413924ELm4865540595714422341ELm6364136223846793005ELm1442695040888963407EEENS0_17pcg_xsl_rr_128_64EEENS0_17RandenPoolSeedSeqEEEE4CallINS0_26UniformDistributionWrapperIlEEJRlSE_EEENT_11result_typeEPS9_DpOT0_ = comdat any

$_ZNSt14numeric_limitsIlE3minEv = comdat any

$_ZN4absl15random_internal18DistributionCallerINS0_17NonsecureURBGBaseINS0_10pcg_engineINS0_13pcg128_paramsILm2549297995355413924ELm4865540595714422341ELm6364136223846793005ELm1442695040888963407EEENS0_17pcg_xsl_rr_128_64EEENS0_17RandenPoolSeedSeqEEEE4ImplINS0_26UniformDistributionWrapperIlEEJRlSE_EEENT_11result_typeESt17integral_constantIbLb0EEPS9_DpOT0_ = comdat any

$_ZN4absl15random_internal26UniformDistributionWrapperIlEC2Ell = comdat any

$_ZN4absl24uniform_int_distributionIlEclINS_15random_internal17NonsecureURBGBaseINS3_10pcg_engineINS3_13pcg128_paramsILm2549297995355413924ELm4865540595714422341ELm6364136223846793005ELm1442695040888963407EEENS3_17pcg_xsl_rr_128_64EEENS3_17RandenPoolSeedSeqEEEEElRT_ = comdat any

$_ZN4absl24uniform_int_distributionIlE10param_typeC2Ell = comdat any

$_ZN4absl24uniform_int_distributionIlEclINS_15random_internal17NonsecureURBGBaseINS3_10pcg_engineINS3_13pcg128_paramsILm2549297995355413924ELm4865540595714422341ELm6364136223846793005ELm1442695040888963407EEENS3_17pcg_xsl_rr_128_64EEENS3_17RandenPoolSeedSeqEEEEElRT_RKNS1_10param_typeE = comdat any

$_ZNK4absl24uniform_int_distributionIlE5paramEv = comdat any

$_ZNK4absl24uniform_int_distributionIlE10param_type1aEv = comdat any

$_ZN4absl24uniform_int_distributionIlE8GenerateINS_15random_internal17NonsecureURBGBaseINS3_10pcg_engineINS3_13pcg128_paramsILm2549297995355413924ELm4865540595714422341ELm6364136223846793005ELm1442695040888963407EEENS3_17pcg_xsl_rr_128_64EEENS3_17RandenPoolSeedSeqEEEEEmRT_m = comdat any

$_ZNK4absl24uniform_int_distributionIlE10param_type5rangeEv = comdat any

$_ZN4absl15random_internal19uniform_lower_boundIlNS_19IntervalOpenOpenTagEEENSt9enable_ifIXsr4absl11conjunctionINS0_10IsIntegralIT_EENS_11disjunctionIJSt7is_sameIT0_NS_21IntervalOpenClosedTagEES8_IS9_S2_EEEEEE5valueES5_E4typeES9_S5_S5_ = comdat any

$_ZN4absl15random_internal19uniform_upper_boundIlNS_19IntervalOpenOpenTagEEENSt9enable_ifIXsr4absl11conjunctionINS0_10IsIntegralIT_EENS_11disjunctionIJSt7is_sameIT0_NS_21IntervalClosedOpenTagEES8_IS9_S2_EEEEEE5valueES5_E4typeES9_S5_S5_ = comdat any

$_ZN4absl15random_internal18DistributionCallerINS0_17NonsecureURBGBaseINS0_10pcg_engineINS0_13pcg128_paramsILm2549297995355413924ELm4865540595714422341ELm6364136223846793005ELm1442695040888963407EEENS0_17pcg_xsl_rr_128_64EEENS0_17RandenPoolSeedSeqEEEE4CallINS0_26UniformDistributionWrapperIlEEJRNS_19IntervalOpenOpenTagERlSG_EEENT_11result_typeEPS9_DpOT0_ = comdat any

$_ZNSt14numeric_limitsIlE3maxEv = comdat any

$_ZN4absl15random_internal18DistributionCallerINS0_17NonsecureURBGBaseINS0_10pcg_engineINS0_13pcg128_paramsILm2549297995355413924ELm4865540595714422341ELm6364136223846793005ELm1442695040888963407EEENS0_17pcg_xsl_rr_128_64EEENS0_17RandenPoolSeedSeqEEEE4ImplINS0_26UniformDistributionWrapperIlEEJRNS_19IntervalOpenOpenTagERlSG_EEENT_11result_typeESt17integral_constantIbLb0EEPS9_DpOT0_ = comdat any

$_ZN4absl15random_internal26UniformDistributionWrapperIlEC2INS_19IntervalOpenOpenTagEEET_ll = comdat any

$_ZN7testing8internal11CmpHelperEQIllEENS_15AssertionResultEPKcS4_RKT_RKT0_ = comdat any

$_ZN7testing8internal18CmpHelperEQFailureIllEENS_15AssertionResultEPKcS4_RKT_RKT0_ = comdat any

$_ZN7testing8internal33FormatForComparisonFailureMessageIllEENSt7__cxx1112basic_stringIcSt11char_traitsIcESaIcEEERKT_RKT0_ = comdat any

$_ZN7testing8internal19FormatForComparisonIllE6FormatB5cxx11ERKl = comdat any

$_ZN7testing8internal11CmpHelperEQIddEENS_15AssertionResultEPKcS4_RKT_RKT0_ = comdat any

$_ZN7testing8internal18CmpHelperEQFailureIddEENS_15AssertionResultEPKcS4_RKT_RKT0_ = comdat any

$_ZN7testing8internal33FormatForComparisonFailureMessageIddEENSt7__cxx1112basic_stringIcSt11char_traitsIcESaIcEEERKT_RKT0_ = comdat any

$_ZN7testing8internal19FormatForComparisonIddE6FormatB5cxx11ERKd = comdat any

$_ZN4absl15random_internal18DistributionCallerINS0_17NonsecureURBGBaseINS0_10pcg_engineINS0_13pcg128_paramsILm2549297995355413924ELm4865540595714422341ELm6364136223846793005ELm1442695040888963407EEENS0_17pcg_xsl_rr_128_64EEENS0_17RandenPoolSeedSeqEEEE4CallINS0_26UniformDistributionWrapperIdEEJRdSE_EEENT_11result_typeEPS9_DpOT0_ = comdat any

$_ZN4absl15random_internal18DistributionCallerINS0_17NonsecureURBGBaseINS0_10pcg_engineINS0_13pcg128_paramsILm2549297995355413924ELm4865540595714422341ELm6364136223846793005ELm1442695040888963407EEENS0_17pcg_xsl_rr_128_64EEENS0_17RandenPoolSeedSeqEEEE4ImplINS0_26UniformDistributionWrapperIdEEJRdSE_EEENT_11result_typeESt17integral_constantIbLb0EEPS9_DpOT0_ = comdat any

$_ZNSaIdEC2Ev = comdat any

$_ZNSt6vectorIdSaIdEEC2EmRKS0_ = comdat any

$_ZNSaIdED2Ev = comdat any

$_ZNSt6vectorIdSaIdEEixEm = comdat any

$_ZN4absl4SpanIKdEC2ISt6vectorIdSaIdEEvS6_iEERKT_ = comdat any

$_ZNSt6vectorIdSaIdEED2Ev = comdat any

$_ZNSt15__new_allocatorIdEC2Ev = comdat any

$_ZNSt6vectorIdSaIdEE17_S_check_init_lenEmRKS0_ = comdat any

$_ZNSt12_Vector_baseIdSaIdEEC2EmRKS0_ = comdat any

$_ZNSt6vectorIdSaIdEE21_M_default_initializeEm = comdat any

$_ZNSt12_Vector_baseIdSaIdEED2Ev = comdat any

$_ZNSt6vectorIdSaIdEE11_S_max_sizeERKS0_ = comdat any

$_ZNSaIdEC2ERKS_ = comdat any

$_ZNSt16allocator_traitsISaIdEE8max_sizeERKS0_ = comdat any

$_ZSt3minImERKT_S2_S2_ = comdat any

$_ZNKSt15__new_allocatorIdE8max_sizeEv = comdat any

$_ZNKSt15__new_allocatorIdE11_M_max_sizeEv = comdat any

$_ZNSt15__new_allocatorIdEC2ERKS0_ = comdat any

$_ZNSt12_Vector_baseIdSaIdEE12_Vector_implC2ERKS0_ = comdat any

$_ZNSt12_Vector_baseIdSaIdEE17_M_create_storageEm = comdat any

$_ZNSt12_Vector_baseIdSaIdEE12_Vector_implD2Ev = comdat any

$_ZNSt12_Vector_baseIdSaIdEE17_Vector_impl_dataC2Ev = comdat any

$_ZNSt12_Vector_baseIdSaIdEE11_M_allocateEm = comdat any

$_ZNSt16allocator_traitsISaIdEE8allocateERS0_m = comdat any

$_ZNSt15__new_allocatorIdE8allocateEmPKv = comdat any

$_ZNSt15__new_allocatorIdED2Ev = comdat any

$_ZSt27__uninitialized_default_n_aIPdmdET_S1_T0_RSaIT1_E = comdat any

$_ZNSt12_Vector_baseIdSaIdEE19_M_get_Tp_allocatorEv = comdat any

$_ZSt25__uninitialized_default_nIPdmET_S1_T0_ = comdat any

$_ZNSt27__uninitialized_default_n_1ILb1EE18__uninit_default_nIPdmEET_S3_T0_ = comdat any

$_ZSt10_ConstructIdJEEvPT_DpOT0_ = comdat any

$_ZSt6fill_nIPdmdET_S1_T0_RKT1_ = comdat any

$_ZSt10__fill_n_aIPdmdET_S1_T0_RKT1_St26random_access_iterator_tag = comdat any

$_ZSt17__size_to_integerm = comdat any

$_ZSt19__iterator_categoryIPdENSt15iterator_traitsIT_E17iterator_categoryERKS2_ = comdat any

$_ZSt8__fill_aIPddEvT_S1_RKT0_ = comdat any

$_ZSt9__fill_a1IPddEN9__gnu_cxx11__enable_ifIXsr11__is_scalarIT0_EE7__valueEvE6__typeET_S6_RKS3_ = comdat any

$_ZNSt12_Vector_baseIdSaIdEE13_M_deallocateEPdm = comdat any

$_ZNSt16allocator_traitsISaIdEE10deallocateERS0_Pdm = comdat any

$_ZNSt15__new_allocatorIdE10deallocateEPdm = comdat any

$_ZN4absl13span_internal7GetDataIKSt6vectorIdSaIdEEEEDTcl11GetDataImplfp_Li0EEERT_ = comdat any

$_ZNKSt6vectorIdSaIdEE4sizeEv = comdat any

$_ZN4absl4SpanIKdEC2EPS1_m = comdat any

$_ZN4absl13span_internal11GetDataImplIKSt6vectorIdSaIdEEEEDTcldtfp_4dataEERT_c = comdat any

$_ZNKSt6vectorIdSaIdEE4dataEv = comdat any

$_ZNKSt6vectorIdSaIdEE11_M_data_ptrIdEEPT_S4_ = comdat any

$_ZSt8_DestroyIPddEvT_S1_RSaIT0_E = comdat any

$_ZSt8_DestroyIPdEvT_S1_ = comdat any

$_ZNSt12_Destroy_auxILb1EE9__destroyIPdEEvT_S3_ = comdat any

$_ZN4absl7UniformIvNS_23IntervalClosedClosedTagERNS_15random_internal17NonsecureURBGBaseINS2_10pcg_engineINS2_13pcg128_paramsILm2549297995355413924ELm4865540595714422341ELm6364136223846793005ELm1442695040888963407EEENS2_17pcg_xsl_rr_128_64EEENS2_17RandenPoolSeedSeqEEEilEENSt9enable_ifIXsr3std7is_sameIT_vEE5valueENSC_IXsr4absl11disjunctionINS2_23is_widening_convertibleIT2_T3_EENSE_ISG_SF_EEEE5valueENSt11conditionalIXsr23is_widening_convertibleISF_SG_EE5valueESG_SF_E4typeEE4typeEE4typeET0_OT1_SF_SG_ = comdat any

$_ZN4absl15random_internal19uniform_lower_boundIlNS_23IntervalClosedClosedTagEEENSt9enable_ifIXsr4absl11disjunctionISt7is_sameIT0_S2_ES4_IS5_NS_21IntervalClosedOpenTagEEEE5valueET_E4typeES5_S9_S9_ = comdat any

$_ZN4absl15random_internal19uniform_upper_boundIlNS_23IntervalClosedClosedTagEEENSt9enable_ifIXsr4absl11conjunctionINS0_10IsIntegralIT_EENS_11disjunctionIJSt7is_sameIT0_S2_ES8_IS9_NS_21IntervalOpenClosedTagEEEEEEE5valueES5_E4typeES9_S5_S5_ = comdat any

$_ZN4absl15random_internal18DistributionCallerINS0_17NonsecureURBGBaseINS0_10pcg_engineINS0_13pcg128_paramsILm2549297995355413924ELm4865540595714422341ELm6364136223846793005ELm1442695040888963407EEENS0_17pcg_xsl_rr_128_64EEENS0_17RandenPoolSeedSeqEEEE4CallINS0_26UniformDistributionWrapperIlEEJRNS_23IntervalClosedClosedTagEllEEENT_11result_typeEPS9_DpOT0_ = comdat any

$_ZN4absl15random_internal18DistributionCallerINS0_17NonsecureURBGBaseINS0_10pcg_engineINS0_13pcg128_paramsILm2549297995355413924ELm4865540595714422341ELm6364136223846793005ELm1442695040888963407EEENS0_17pcg_xsl_rr_128_64EEENS0_17RandenPoolSeedSeqEEEE4ImplINS0_26UniformDistributionWrapperIlEEJRNS_23IntervalClosedClosedTagEllEEENT_11result_typeESt17integral_constantIbLb0EEPS9_DpOT0_ = comdat any

$_ZN4absl15random_internal26UniformDistributionWrapperIlEC2INS_23IntervalClosedClosedTagEEET_ll = comdat any

$_ZN4absl11ExponentialIdRNS_15random_internal17NonsecureURBGBaseINS1_10pcg_engineINS1_13pcg128_paramsILm2549297995355413924ELm4865540595714422341ELm6364136223846793005ELm1442695040888963407EEENS1_17pcg_xsl_rr_128_64EEENS1_17RandenPoolSeedSeqEEEEET_OT0_SB_ = comdat any

$_ZN7testing8internal11CmpHelperLTIddEENS_15AssertionResultEPKcS4_RKT_RKT0_ = comdat any

$_ZN4absl15random_internal18DistributionCallerINS0_17NonsecureURBGBaseINS0_10pcg_engineINS0_13pcg128_paramsILm2549297995355413924ELm4865540595714422341ELm6364136223846793005ELm1442695040888963407EEENS0_17pcg_xsl_rr_128_64EEENS0_17RandenPoolSeedSeqEEEE4CallINS_24exponential_distributionIdEEJRdEEENT_11result_typeEPS9_DpOT0_ = comdat any

$_ZN4absl15random_internal18DistributionCallerINS0_17NonsecureURBGBaseINS0_10pcg_engineINS0_13pcg128_paramsILm2549297995355413924ELm4865540595714422341ELm6364136223846793005ELm1442695040888963407EEENS0_17pcg_xsl_rr_128_64EEENS0_17RandenPoolSeedSeqEEEE4ImplINS_24exponential_distributionIdEEJRdEEENT_11result_typeESt17integral_constantIbLb0EEPS9_DpOT0_ = comdat any

$_ZN4absl24exponential_distributionIdEC2Ed = comdat any

$_ZN4absl24exponential_distributionIdEclINS_15random_internal17NonsecureURBGBaseINS3_10pcg_engineINS3_13pcg128_paramsILm2549297995355413924ELm4865540595714422341ELm6364136223846793005ELm1442695040888963407EEENS3_17pcg_xsl_rr_128_64EEENS3_17RandenPoolSeedSeqEEEEEdRT_ = comdat any

$_ZN4absl24exponential_distributionIdE10param_typeC2Ed = comdat any

$_ZN4absl24exponential_distributionIdEclINS_15random_internal17NonsecureURBGBaseINS3_10pcg_engineINS3_13pcg128_paramsILm2549297995355413924ELm4865540595714422341ELm6364136223846793005ELm1442695040888963407EEENS3_17pcg_xsl_rr_128_64EEENS3_17RandenPoolSeedSeqEEEEEdRT_RKNS1_10param_typeE = comdat any

$_ZN4absl15random_internal20GenerateRealFromBitsIdNS0_19GenerateNegativeTagELb0EEET_mi = comdat any

$_ZN7testing8internal18CmpHelperOpFailureIddEENS_15AssertionResultEPKcS4_RKT_RKT0_S4_ = comdat any

$_ZN4absl7PoissonIlRNS_15random_internal17NonsecureURBGBaseINS1_10pcg_engineINS1_13pcg128_paramsILm2549297995355413924ELm4865540595714422341ELm6364136223846793005ELm1442695040888963407EEENS1_17pcg_xsl_rr_128_64EEENS1_17RandenPoolSeedSeqEEEEET_OT0_d = comdat any

$_ZN4absl15random_internal18DistributionCallerINS0_17NonsecureURBGBaseINS0_10pcg_engineINS0_13pcg128_paramsILm2549297995355413924ELm4865540595714422341ELm6364136223846793005ELm1442695040888963407EEENS0_17pcg_xsl_rr_128_64EEENS0_17RandenPoolSeedSeqEEEE4CallINS_20poisson_distributionIlEEJRdEEENT_11result_typeEPS9_DpOT0_ = comdat any

$_ZN4absl15random_internal18DistributionCallerINS0_17NonsecureURBGBaseINS0_10pcg_engineINS0_13pcg128_paramsILm2549297995355413924ELm4865540595714422341ELm6364136223846793005ELm1442695040888963407EEENS0_17pcg_xsl_rr_128_64EEENS0_17RandenPoolSeedSeqEEEE4ImplINS_20poisson_distributionIlEEJRdEEENT_11result_typeESt17integral_constantIbLb0EEPS9_DpOT0_ = comdat any

$_ZN4absl20poisson_distributionIlEC2Ed = comdat any

$_ZN4absl20poisson_distributionIlEclINS_15random_internal17NonsecureURBGBaseINS3_10pcg_engineINS3_13pcg128_paramsILm2549297995355413924ELm4865540595714422341ELm6364136223846793005ELm1442695040888963407EEENS3_17pcg_xsl_rr_128_64EEENS3_17RandenPoolSeedSeqEEEEElRT_ = comdat any

$_ZN4absl20poisson_distributionIlE10param_typeC2Ed = comdat any

$_ZN4absl15random_internal20StirlingLogFactorialEd = comdat any

$_ZN4absl20poisson_distributionIlEclINS_15random_internal17NonsecureURBGBaseINS3_10pcg_engineINS3_13pcg128_paramsILm2549297995355413924ELm4865540595714422341ELm6364136223846793005ELm1442695040888963407EEENS3_17pcg_xsl_rr_128_64EEENS3_17RandenPoolSeedSeqEEEEElRT_RKNS1_10param_typeE = comdat any

$_ZN4absl15random_internal20GenerateRealFromBitsIdNS0_19GeneratePositiveTagELb0EEET_mi = comdat any

$_ZN4absl15random_internal20GenerateRealFromBitsIdNS0_17GenerateSignedTagELb0EEET_mi = comdat any

$_ZNK4absl20poisson_distributionIlE3maxEv = comdat any

$_ZN4absl9BernoulliIRNS_15random_internal17NonsecureURBGBaseINS1_10pcg_engineINS1_13pcg128_paramsILm2549297995355413924ELm4865540595714422341ELm6364136223846793005ELm1442695040888963407EEENS1_17pcg_xsl_rr_128_64EEENS1_17RandenPoolSeedSeqEEEEEbOT_d = comdat any

$_ZN4absl15random_internal18DistributionCallerINS0_17NonsecureURBGBaseINS0_10pcg_engineINS0_13pcg128_paramsILm2549297995355413924ELm4865540595714422341ELm6364136223846793005ELm1442695040888963407EEENS0_17pcg_xsl_rr_128_64EEENS0_17RandenPoolSeedSeqEEEE4CallINS_22bernoulli_distributionEJRdEEENT_11result_typeEPS9_DpOT0_ = comdat any

$_ZN4absl15random_internal18DistributionCallerINS0_17NonsecureURBGBaseINS0_10pcg_engineINS0_13pcg128_paramsILm2549297995355413924ELm4865540595714422341ELm6364136223846793005ELm1442695040888963407EEENS0_17pcg_xsl_rr_128_64EEENS0_17RandenPoolSeedSeqEEEE4ImplINS_22bernoulli_distributionEJRdEEENT_11result_typeESt17integral_constantIbLb0EEPS9_DpOT0_ = comdat any

$_ZN4absl22bernoulli_distributionC2Ed = comdat any

$_ZN4absl22bernoulli_distributionclINS_15random_internal17NonsecureURBGBaseINS2_10pcg_engineINS2_13pcg128_paramsILm2549297995355413924ELm4865540595714422341ELm6364136223846793005ELm1442695040888963407EEENS2_17pcg_xsl_rr_128_64EEENS2_17RandenPoolSeedSeqEEEEEbRT_ = comdat any

$_ZN4absl22bernoulli_distribution10param_typeC2Ed = comdat any

$_ZN4absl22bernoulli_distribution8GenerateINS_15random_internal17NonsecureURBGBaseINS2_10pcg_engineINS2_13pcg128_paramsILm2549297995355413924ELm4865540595714422341ELm6364136223846793005ELm1442695040888963407EEENS2_17pcg_xsl_rr_128_64EEENS2_17RandenPoolSeedSeqEEEEEbdRT_ = comdat any

$_ZNK4absl22bernoulli_distribution10param_type1pEv = comdat any

$_ZN4absl4BetaIdRNS_15random_internal17NonsecureURBGBaseINS1_10pcg_engineINS1_13pcg128_paramsILm2549297995355413924ELm4865540595714422341ELm6364136223846793005ELm1442695040888963407EEENS1_17pcg_xsl_rr_128_64EEENS1_17RandenPoolSeedSeqEEEEET_OT0_SB_SB_ = comdat any

$_ZN4absl15random_internal18DistributionCallerINS0_17NonsecureURBGBaseINS0_10pcg_engineINS0_13pcg128_paramsILm2549297995355413924ELm4865540595714422341ELm6364136223846793005ELm1442695040888963407EEENS0_17pcg_xsl_rr_128_64EEENS0_17RandenPoolSeedSeqEEEE4CallINS_17beta_distributionIdEEJRdSE_EEENT_11result_typeEPS9_DpOT0_ = comdat any

$_ZN4absl15random_internal18DistributionCallerINS0_17NonsecureURBGBaseINS0_10pcg_engineINS0_13pcg128_paramsILm2549297995355413924ELm4865540595714422341ELm6364136223846793005ELm1442695040888963407EEENS0_17pcg_xsl_rr_128_64EEENS0_17RandenPoolSeedSeqEEEE4ImplINS_17beta_distributionIdEEJRdSE_EEENT_11result_typeESt17integral_constantIbLb0EEPS9_DpOT0_ = comdat any

$_ZN4absl17beta_distributionIdEC2Edd = comdat any

$_ZN4absl17beta_distributionIdEclINS_15random_internal17NonsecureURBGBaseINS3_10pcg_engineINS3_13pcg128_paramsILm2549297995355413924ELm4865540595714422341ELm6364136223846793005ELm1442695040888963407EEENS3_17pcg_xsl_rr_128_64EEENS3_17RandenPoolSeedSeqEEEEEdRT_ = comdat any

$_ZN4absl17beta_distributionIdE10param_typeC2Edd = comdat any

$_ZN4absl17beta_distributionIdE10param_type18ThresholdForLargeAEv = comdat any

$_ZN4absl17beta_distributionIdE10param_type18ThresholdForSmallAEv = comdat any

$_ZSt5isinfd = comdat any

$_ZNSt14numeric_limitsIdE3maxEv = comdat any

$_ZN4absl17beta_distributionIdE10param_type16ThresholdPaddingEv = comdat any

$_ZN4absl17beta_distributionIdEclINS_15random_internal17NonsecureURBGBaseINS3_10pcg_engineINS3_13pcg128_paramsILm2549297995355413924ELm4865540595714422341ELm6364136223846793005ELm1442695040888963407EEENS3_17pcg_xsl_rr_128_64EEENS3_17RandenPoolSeedSeqEEEEEdRT_RKNS1_10param_typeE = comdat any

$_ZN4absl17beta_distributionIdE15AlgorithmJoehnkINS_15random_internal17NonsecureURBGBaseINS3_10pcg_engineINS3_13pcg128_paramsILm2549297995355413924ELm4865540595714422341ELm6364136223846793005ELm1442695040888963407EEENS3_17pcg_xsl_rr_128_64EEENS3_17RandenPoolSeedSeqEEEEEdRT_RKNS1_10param_typeE = comdat any

$_ZN4absl17beta_distributionIdE14AlgorithmChengINS_15random_internal17NonsecureURBGBaseINS3_10pcg_engineINS3_13pcg128_paramsILm2549297995355413924ELm4865540595714422341ELm6364136223846793005ELm1442695040888963407EEENS3_17pcg_xsl_rr_128_64EEENS3_17RandenPoolSeedSeqEEEEEdRT_RKNS1_10param_typeE = comdat any

$_ZN4absl17beta_distributionIdE14DegenerateCaseINS_15random_internal17NonsecureURBGBaseINS3_10pcg_engineINS3_13pcg128_paramsILm2549297995355413924ELm4865540595714422341ELm6364136223846793005ELm1442695040888963407EEENS3_17pcg_xsl_rr_128_64EEENS3_17RandenPoolSeedSeqEEEEEdRT_RKNS1_10param_typeE = comdat any

$_ZN4absl4ZipfIlRNS_15random_internal17NonsecureURBGBaseINS1_10pcg_engineINS1_13pcg128_paramsILm2549297995355413924ELm4865540595714422341ELm6364136223846793005ELm1442695040888963407EEENS1_17pcg_xsl_rr_128_64EEENS1_17RandenPoolSeedSeqEEEEET_OT0_SB_dd = comdat any

$_ZN7testing7MessagelsIN4absl15random_internal19DistributionMomentsEEERS0_RKT_ = comdat any

$_ZN4absl15random_internal18DistributionCallerINS0_17NonsecureURBGBaseINS0_10pcg_engineINS0_13pcg128_paramsILm2549297995355413924ELm4865540595714422341ELm6364136223846793005ELm1442695040888963407EEENS0_17pcg_xsl_rr_128_64EEENS0_17RandenPoolSeedSeqEEEE4CallINS_17zipf_distributionIlEEJRlRdSF_EEENT_11result_typeEPS9_DpOT0_ = comdat any

$_ZN4absl15random_internal18DistributionCallerINS0_17NonsecureURBGBaseINS0_10pcg_engineINS0_13pcg128_paramsILm2549297995355413924ELm4865540595714422341ELm6364136223846793005ELm1442695040888963407EEENS0_17pcg_xsl_rr_128_64EEENS0_17RandenPoolSeedSeqEEEE4ImplINS_17zipf_distributionIlEEJRlRdSF_EEENT_11result_typeESt17integral_constantIbLb0EEPS9_DpOT0_ = comdat any

$_ZN4absl17zipf_distributionIlEC2Eldd = comdat any

$_ZN4absl17zipf_distributionIlEclINS_15random_internal17NonsecureURBGBaseINS3_10pcg_engineINS3_13pcg128_paramsILm2549297995355413924ELm4865540595714422341ELm6364136223846793005ELm1442695040888963407EEENS3_17pcg_xsl_rr_128_64EEENS3_17RandenPoolSeedSeqEEEEElRT_ = comdat any

$_ZN4absl17zipf_distributionIlE10param_typeC2Eldd = comdat any

$_ZNK4absl17zipf_distributionIlE10param_type1hEd = comdat any

$_ZNK4absl17zipf_distributionIlE10param_type14pow_negative_qEd = comdat any

$_ZNK4absl17zipf_distributionIlE10param_type9compute_sEv = comdat any

$_ZNK4absl17zipf_distributionIlE10param_type4hinvEd = comdat any

$_ZN4absl17zipf_distributionIlEclINS_15random_internal17NonsecureURBGBaseINS3_10pcg_engineINS3_13pcg128_paramsILm2549297995355413924ELm4865540595714422341ELm6364136223846793005ELm1442695040888963407EEENS3_17pcg_xsl_rr_128_64EEENS3_17RandenPoolSeedSeqEEEEElRT_RKNS1_10param_typeE = comdat any

$_ZN4absl25uniform_real_distributionIdEC2Ev = comdat any

$_ZNK4absl17zipf_distributionIlE10param_type1kEv = comdat any

$_ZN4absl8GaussianIdRNS_15random_internal17NonsecureURBGBaseINS1_10pcg_engineINS1_13pcg128_paramsILm2549297995355413924ELm4865540595714422341ELm6364136223846793005ELm1442695040888963407EEENS1_17pcg_xsl_rr_128_64EEENS1_17RandenPoolSeedSeqEEEEET_OT0_SB_SB_ = comdat any

$_ZN4absl15random_internal18DistributionCallerINS0_17NonsecureURBGBaseINS0_10pcg_engineINS0_13pcg128_paramsILm2549297995355413924ELm4865540595714422341ELm6364136223846793005ELm1442695040888963407EEENS0_17pcg_xsl_rr_128_64EEENS0_17RandenPoolSeedSeqEEEE4CallINS_21gaussian_distributionIdEEJRdSE_EEENT_11result_typeEPS9_DpOT0_ = comdat any

$_ZN4absl15random_internal18DistributionCallerINS0_17NonsecureURBGBaseINS0_10pcg_engineINS0_13pcg128_paramsILm2549297995355413924ELm4865540595714422341ELm6364136223846793005ELm1442695040888963407EEENS0_17pcg_xsl_rr_128_64EEENS0_17RandenPoolSeedSeqEEEE4ImplINS_21gaussian_distributionIdEEJRdSE_EEENT_11result_typeESt17integral_constantIbLb0EEPS9_DpOT0_ = comdat any

$_ZN4absl21gaussian_distributionIdEC2Edd = comdat any

$_ZN4absl21gaussian_distributionIdEclINS_15random_internal17NonsecureURBGBaseINS3_10pcg_engineINS3_13pcg128_paramsILm2549297995355413924ELm4865540595714422341ELm6364136223846793005ELm1442695040888963407EEENS3_17pcg_xsl_rr_128_64EEENS3_17RandenPoolSeedSeqEEEEEdRT_ = comdat any

$_ZN4absl21gaussian_distributionIdE10param_typeC2Edd = comdat any

$_ZN4absl21gaussian_distributionIdEclINS_15random_internal17NonsecureURBGBaseINS3_10pcg_engineINS3_13pcg128_paramsILm2549297995355413924ELm4865540595714422341ELm6364136223846793005ELm1442695040888963407EEENS3_17pcg_xsl_rr_128_64EEENS3_17RandenPoolSeedSeqEEEEEdRT_RKNS1_10param_typeE = comdat any

$_ZNK4absl21gaussian_distributionIdE10param_type4meanEv = comdat any

$_ZNK4absl21gaussian_distributionIdE10param_type6stddevEv = comdat any

$_ZN4absl15random_internal26gaussian_distribution_base6zignorINS0_17NonsecureURBGBaseINS0_10pcg_engineINS0_13pcg128_paramsILm2549297995355413924ELm4865540595714422341ELm6364136223846793005ELm1442695040888963407EEENS0_17pcg_xsl_rr_128_64EEENS0_17RandenPoolSeedSeqEEEEEdRT_ = comdat any

$_ZSt3absd = comdat any

$_ZN4absl15random_internal26gaussian_distribution_base15zignor_fallbackINS0_17NonsecureURBGBaseINS0_10pcg_engineINS0_13pcg128_paramsILm2549297995355413924ELm4865540595714422341ELm6364136223846793005ELm1442695040888963407EEENS0_17pcg_xsl_rr_128_64EEENS0_17RandenPoolSeedSeqEEEEEdRT_b = comdat any

$_ZN4absl10LogUniformIlRNS_15random_internal17NonsecureURBGBaseINS1_10pcg_engineINS1_13pcg128_paramsILm2549297995355413924ELm4865540595714422341ELm6364136223846793005ELm1442695040888963407EEENS1_17pcg_xsl_rr_128_64EEENS1_17RandenPoolSeedSeqEEEEET_OT0_SB_SB_SB_ = comdat any

$_ZN4absl15random_internal18DistributionCallerINS0_17NonsecureURBGBaseINS0_10pcg_engineINS0_13pcg128_paramsILm2549297995355413924ELm4865540595714422341ELm6364136223846793005ELm1442695040888963407EEENS0_17pcg_xsl_rr_128_64EEENS0_17RandenPoolSeedSeqEEEE4CallINS_28log_uniform_int_distributionIlEEJRlSE_SE_EEENT_11result_typeEPS9_DpOT0_ = comdat any

$_ZN4absl15random_internal18DistributionCallerINS0_17NonsecureURBGBaseINS0_10pcg_engineINS0_13pcg128_paramsILm2549297995355413924ELm4865540595714422341ELm6364136223846793005ELm1442695040888963407EEENS0_17pcg_xsl_rr_128_64EEENS0_17RandenPoolSeedSeqEEEE4ImplINS_28log_uniform_int_distributionIlEEJRlSE_SE_EEENT_11result_typeESt17integral_constantIbLb0EEPS9_DpOT0_ = comdat any

$_ZN4absl28log_uniform_int_distributionIlEC2Elll = comdat any

$_ZN4absl28log_uniform_int_distributionIlEclINS_15random_internal17NonsecureURBGBaseINS3_10pcg_engineINS3_13pcg128_paramsILm2549297995355413924ELm4865540595714422341ELm6364136223846793005ELm1442695040888963407EEENS3_17pcg_xsl_rr_128_64EEENS3_17RandenPoolSeedSeqEEEEElRT_ = comdat any

$_ZN4absl28log_uniform_int_distributionIlE10param_typeC2Elll = comdat any

$_ZSt3minIiERKT_S2_S2_ = comdat any

$_ZN4absl15random_internal8BitWidthImEEiT_ = comdat any

$_ZNK4absl28log_uniform_int_distributionIlE10param_type5rangeEv = comdat any

$_ZN4absl9bit_widthImEENSt9enable_ifIXsr3std11is_unsignedIT_EE5valueEiE4typeES2_ = comdat any

$_ZN4absl28log_uniform_int_distributionIlEclINS_15random_internal17NonsecureURBGBaseINS3_10pcg_engineINS3_13pcg128_paramsILm2549297995355413924ELm4865540595714422341ELm6364136223846793005ELm1442695040888963407EEENS3_17pcg_xsl_rr_128_64EEENS3_17RandenPoolSeedSeqEEEEElRT_RKNS1_10param_typeE = comdat any

$_ZNK4absl28log_uniform_int_distributionIlE10param_type3minEv = comdat any

$_ZN4absl28log_uniform_int_distributionIlE8GenerateINS_15random_internal17NonsecureURBGBaseINS3_10pcg_engineINS3_13pcg128_paramsILm2549297995355413924ELm4865540595714422341ELm6364136223846793005ELm1442695040888963407EEENS3_17pcg_xsl_rr_128_64EEENS3_17RandenPoolSeedSeqEEEEEmRT_RKNS1_10param_typeE = comdat any

$_ZNK4absl28log_uniform_int_distributionIlE10param_type9log_rangeEv = comdat any

$_ZN4absl24uniform_int_distributionIiEC2Eii = comdat any

$_ZN4absl24uniform_int_distributionIiEclINS_15random_internal17NonsecureURBGBaseINS3_10pcg_engineINS3_13pcg128_paramsILm2549297995355413924ELm4865540595714422341ELm6364136223846793005ELm1442695040888963407EEENS3_17pcg_xsl_rr_128_64EEENS3_17RandenPoolSeedSeqEEEEEiRT_ = comdat any

$_ZNK4absl28log_uniform_int_distributionIlE10param_type4baseEv = comdat any

$_ZSt3powIdiEN9__gnu_cxx9__promoteIDTplcvNS1_IT_Xsr3std12__is_integerIS2_EE7__valueEE6__typeELi0EcvNS1_IT0_Xsr3std12__is_integerIS5_EE7__valueEE6__typeELi0EEXsr3std12__is_integerIS8_EE7__valueEE6__typeES2_S5_ = comdat any

$_ZN4absl24uniform_int_distributionIlEC2Ell = comdat any

$_ZN4absl24uniform_int_distributionIiE10param_typeC2Eii = comdat any

$_ZN4absl24uniform_int_distributionIiEclINS_15random_internal17NonsecureURBGBaseINS3_10pcg_engineINS3_13pcg128_paramsILm2549297995355413924ELm4865540595714422341ELm6364136223846793005ELm1442695040888963407EEENS3_17pcg_xsl_rr_128_64EEENS3_17RandenPoolSeedSeqEEEEEiRT_RKNS1_10param_typeE = comdat any

$_ZNK4absl24uniform_int_distributionIiE5paramEv = comdat any

$_ZNK4absl24uniform_int_distributionIiE10param_type1aEv = comdat any

$_ZN4absl24uniform_int_distributionIiE8GenerateINS_15random_internal17NonsecureURBGBaseINS3_10pcg_engineINS3_13pcg128_paramsILm2549297995355413924ELm4865540595714422341ELm6364136223846793005ELm1442695040888963407EEENS3_17pcg_xsl_rr_128_64EEENS3_17RandenPoolSeedSeqEEEEEjRT_j = comdat any

$_ZNK4absl24uniform_int_distributionIiE10param_type5rangeEv = comdat any

$_ZNSt11char_traitsIcE6lengthEPKc = comdat any

$_ZNSt7__cxx1112basic_stringIcSt11char_traitsIcESaIcEE12_M_constructIPKcEEvT_S8_St20forward_iterator_tag = comdat any

$_ZNSt7__cxx1112basic_stringIcSt11char_traitsIcESaIcEE12_Alloc_hiderD2Ev = comdat any

$_ZSt8distanceIPKcENSt15iterator_traitsIT_E15difference_typeES3_S3_ = comdat any

$_ZZNSt7__cxx1112basic_stringIcSt11char_traitsIcESaIcEE12_M_constructIPKcEEvT_S8_St20forward_iterator_tagEN6_GuardC2EPS4_ = comdat any

$_ZZNSt7__cxx1112basic_stringIcSt11char_traitsIcESaIcEE12_M_constructIPKcEEvT_S8_St20forward_iterator_tagEN6_GuardD2Ev = comdat any

$_ZSt10__distanceIPKcENSt15iterator_traitsIT_E15difference_typeES3_S3_St26random_access_iterator_tag = comdat any

$_ZSt19__iterator_categoryIPKcENSt15iterator_traitsIT_E17iterator_categoryERKS3_ = comdat any

$_ZN7testing8internal19GetNotDefaultOrNullEPFvvES2_ = comdat any

$_ZN7testing4Test13SetUpTestCaseEv = comdat any

$_ZN7testing4Test14SetUpTestSuiteEv = comdat any

$_ZN7testing8internal8GTestLog9GetStreamEv = comdat any

$_ZN7testing4Test16TearDownTestCaseEv = comdat any

$_ZN7testing4Test17TearDownTestSuiteEv = comdat any

$_ZTSN7testing8internal15TestFactoryBaseE = comdat any

$_ZTIN7testing8internal15TestFactoryBaseE = comdat any

$_ZTVN7testing8internal15TestFactoryBaseE = comdat any

$_ZN4absl16IntervalOpenOpenE = comdat any

$_ZZN4absl15random_internal20GenerateRealFromBitsIfNS0_19GeneratePositiveTagELb1EEET_miE4kExp = comdat any

$_ZZN4absl15random_internal20GenerateRealFromBitsIfNS0_19GeneratePositiveTagELb1EEET_miE5kMask = comdat any

$_ZZN4absl15random_internal20GenerateRealFromBitsIfNS0_19GeneratePositiveTagELb1EEET_miE9kUintBits = comdat any

$_ZZN4absl15random_internal15FastUniformBitsImE8GenerateINS0_17NonsecureURBGBaseINS0_10pcg_engineINS0_13pcg128_paramsILm2549297995355413924ELm4865540595714422341ELm6364136223846793005ELm1442695040888963407EEENS0_17pcg_xsl_rr_128_64EEENS0_17RandenPoolSeedSeqEEEEEmRT_NS0_17SimplifiedLoopTagEE11kResultBits = comdat any

$_ZZN4absl15random_internal15FastUniformBitsImE8GenerateINS0_17NonsecureURBGBaseINS0_10pcg_engineINS0_13pcg128_paramsILm2549297995355413924ELm4865540595714422341ELm6364136223846793005ELm1442695040888963407EEENS0_17pcg_xsl_rr_128_64EEENS0_17RandenPoolSeedSeqEEEEEmRT_NS0_17SimplifiedLoopTagEE9kUrbgBits = comdat any

$_ZZN4absl15random_internal15FastUniformBitsImE8GenerateINS0_17NonsecureURBGBaseINS0_10pcg_engineINS0_13pcg128_paramsILm2549297995355413924ELm4865540595714422341ELm6364136223846793005ELm1442695040888963407EEENS0_17pcg_xsl_rr_128_64EEENS0_17RandenPoolSeedSeqEEEEEmRT_NS0_17SimplifiedLoopTagEE6kIters = comdat any

$_ZZN4absl15random_internal15FastUniformBitsImE8GenerateINS0_17NonsecureURBGBaseINS0_10pcg_engineINS0_13pcg128_paramsILm2549297995355413924ELm4865540595714422341ELm6364136223846793005ELm1442695040888963407EEENS0_17pcg_xsl_rr_128_64EEENS0_17RandenPoolSeedSeqEEEEEmRT_NS0_17SimplifiedLoopTagEE6kShift = comdat any

$_ZZN4absl15random_internal15FastUniformBitsImE8GenerateINS0_17NonsecureURBGBaseINS0_10pcg_engineINS0_13pcg128_paramsILm2549297995355413924ELm4865540595714422341ELm6364136223846793005ELm1442695040888963407EEENS0_17pcg_xsl_rr_128_64EEENS0_17RandenPoolSeedSeqEEEEEmRT_NS0_17SimplifiedLoopTagEE4kMin = comdat any

$_ZZN4absl15random_internal20GenerateRealFromBitsIdNS0_19GeneratePositiveTagELb1EEET_miE4kExp = comdat any

$_ZZN4absl15random_internal20GenerateRealFromBitsIdNS0_19GeneratePositiveTagELb1EEET_miE5kMask = comdat any

$_ZZN4absl15random_internal20GenerateRealFromBitsIdNS0_19GeneratePositiveTagELb1EEET_miE9kUintBits = comdat any

$_ZZN4absl15random_internal15FastUniformBitsIhE8GenerateINS0_17NonsecureURBGBaseINS0_10pcg_engineINS0_13pcg128_paramsILm2549297995355413924ELm4865540595714422341ELm6364136223846793005ELm1442695040888963407EEENS0_17pcg_xsl_rr_128_64EEENS0_17RandenPoolSeedSeqEEEEEhRT_NS0_17SimplifiedLoopTagEE11kResultBits = comdat any

$_ZZN4absl15random_internal15FastUniformBitsIhE8GenerateINS0_17NonsecureURBGBaseINS0_10pcg_engineINS0_13pcg128_paramsILm2549297995355413924ELm4865540595714422341ELm6364136223846793005ELm1442695040888963407EEENS0_17pcg_xsl_rr_128_64EEENS0_17RandenPoolSeedSeqEEEEEhRT_NS0_17SimplifiedLoopTagEE9kUrbgBits = comdat any

$_ZZN4absl15random_internal15FastUniformBitsIhE8GenerateINS0_17NonsecureURBGBaseINS0_10pcg_engineINS0_13pcg128_paramsILm2549297995355413924ELm4865540595714422341ELm6364136223846793005ELm1442695040888963407EEENS0_17pcg_xsl_rr_128_64EEENS0_17RandenPoolSeedSeqEEEEEhRT_NS0_17SimplifiedLoopTagEE6kIters = comdat any

$_ZZN4absl15random_internal15FastUniformBitsIhE8GenerateINS0_17NonsecureURBGBaseINS0_10pcg_engineINS0_13pcg128_paramsILm2549297995355413924ELm4865540595714422341ELm6364136223846793005ELm1442695040888963407EEENS0_17pcg_xsl_rr_128_64EEENS0_17RandenPoolSeedSeqEEEEEhRT_NS0_17SimplifiedLoopTagEE6kShift = comdat any

$_ZZN4absl15random_internal15FastUniformBitsIhE8GenerateINS0_17NonsecureURBGBaseINS0_10pcg_engineINS0_13pcg128_paramsILm2549297995355413924ELm4865540595714422341ELm6364136223846793005ELm1442695040888963407EEENS0_17pcg_xsl_rr_128_64EEENS0_17RandenPoolSeedSeqEEEEEhRT_NS0_17SimplifiedLoopTagEE4kMin = comdat any

$_ZZN4absl15random_internal15FastUniformBitsItE8GenerateINS0_17NonsecureURBGBaseINS0_10pcg_engineINS0_13pcg128_paramsILm2549297995355413924ELm4865540595714422341ELm6364136223846793005ELm1442695040888963407EEENS0_17pcg_xsl_rr_128_64EEENS0_17RandenPoolSeedSeqEEEEEtRT_NS0_17SimplifiedLoopTagEE11kResultBits = comdat any

$_ZZN4absl15random_internal15FastUniformBitsItE8GenerateINS0_17NonsecureURBGBaseINS0_10pcg_engineINS0_13pcg128_paramsILm2549297995355413924ELm4865540595714422341ELm6364136223846793005ELm1442695040888963407EEENS0_17pcg_xsl_rr_128_64EEENS0_17RandenPoolSeedSeqEEEEEtRT_NS0_17SimplifiedLoopTagEE9kUrbgBits = comdat any

$_ZZN4absl15random_internal15FastUniformBitsItE8GenerateINS0_17NonsecureURBGBaseINS0_10pcg_engineINS0_13pcg128_paramsILm2549297995355413924ELm4865540595714422341ELm6364136223846793005ELm1442695040888963407EEENS0_17pcg_xsl_rr_128_64EEENS0_17RandenPoolSeedSeqEEEEEtRT_NS0_17SimplifiedLoopTagEE6kIters = comdat any

$_ZZN4absl15random_internal15FastUniformBitsItE8GenerateINS0_17NonsecureURBGBaseINS0_10pcg_engineINS0_13pcg128_paramsILm2549297995355413924ELm4865540595714422341ELm6364136223846793005ELm1442695040888963407EEENS0_17pcg_xsl_rr_128_64EEENS0_17RandenPoolSeedSeqEEEEEtRT_NS0_17SimplifiedLoopTagEE6kShift = comdat any

$_ZZN4absl15random_internal15FastUniformBitsItE8GenerateINS0_17NonsecureURBGBaseINS0_10pcg_engineINS0_13pcg128_paramsILm2549297995355413924ELm4865540595714422341ELm6364136223846793005ELm1442695040888963407EEENS0_17pcg_xsl_rr_128_64EEENS0_17RandenPoolSeedSeqEEEEEtRT_NS0_17SimplifiedLoopTagEE4kMin = comdat any

$_ZZN4absl15random_internal15FastUniformBitsIjE8GenerateINS0_17NonsecureURBGBaseINS0_10pcg_engineINS0_13pcg128_paramsILm2549297995355413924ELm4865540595714422341ELm6364136223846793005ELm1442695040888963407EEENS0_17pcg_xsl_rr_128_64EEENS0_17RandenPoolSeedSeqEEEEEjRT_NS0_17SimplifiedLoopTagEE11kResultBits = comdat any

$_ZZN4absl15random_internal15FastUniformBitsIjE8GenerateINS0_17NonsecureURBGBaseINS0_10pcg_engineINS0_13pcg128_paramsILm2549297995355413924ELm4865540595714422341ELm6364136223846793005ELm1442695040888963407EEENS0_17pcg_xsl_rr_128_64EEENS0_17RandenPoolSeedSeqEEEEEjRT_NS0_17SimplifiedLoopTagEE9kUrbgBits = comdat any

$_ZZN4absl15random_internal15FastUniformBitsIjE8GenerateINS0_17NonsecureURBGBaseINS0_10pcg_engineINS0_13pcg128_paramsILm2549297995355413924ELm4865540595714422341ELm6364136223846793005ELm1442695040888963407EEENS0_17pcg_xsl_rr_128_64EEENS0_17RandenPoolSeedSeqEEEEEjRT_NS0_17SimplifiedLoopTagEE6kIters = comdat any

$_ZZN4absl15random_internal15FastUniformBitsIjE8GenerateINS0_17NonsecureURBGBaseINS0_10pcg_engineINS0_13pcg128_paramsILm2549297995355413924ELm4865540595714422341ELm6364136223846793005ELm1442695040888963407EEENS0_17pcg_xsl_rr_128_64EEENS0_17RandenPoolSeedSeqEEEEEjRT_NS0_17SimplifiedLoopTagEE6kShift = comdat any

$_ZZN4absl15random_internal15FastUniformBitsIjE8GenerateINS0_17NonsecureURBGBaseINS0_10pcg_engineINS0_13pcg128_paramsILm2549297995355413924ELm4865540595714422341ELm6364136223846793005ELm1442695040888963407EEENS0_17pcg_xsl_rr_128_64EEENS0_17RandenPoolSeedSeqEEEEEjRT_NS0_17SimplifiedLoopTagEE4kMin = comdat any

$_ZZN4absl15random_internal15FastUniformBitsINS_7uint128EE8GenerateINS0_17NonsecureURBGBaseINS0_10pcg_engineINS0_13pcg128_paramsILm2549297995355413924ELm4865540595714422341ELm6364136223846793005ELm1442695040888963407EEENS0_17pcg_xsl_rr_128_64EEENS0_17RandenPoolSeedSeqEEEEES2_RT_NS0_17SimplifiedLoopTagEE11kResultBits = comdat any

$_ZZN4absl15random_internal15FastUniformBitsINS_7uint128EE8GenerateINS0_17NonsecureURBGBaseINS0_10pcg_engineINS0_13pcg128_paramsILm2549297995355413924ELm4865540595714422341ELm6364136223846793005ELm1442695040888963407EEENS0_17pcg_xsl_rr_128_64EEENS0_17RandenPoolSeedSeqEEEEES2_RT_NS0_17SimplifiedLoopTagEE9kUrbgBits = comdat any

$_ZZN4absl15random_internal15FastUniformBitsINS_7uint128EE8GenerateINS0_17NonsecureURBGBaseINS0_10pcg_engineINS0_13pcg128_paramsILm2549297995355413924ELm4865540595714422341ELm6364136223846793005ELm1442695040888963407EEENS0_17pcg_xsl_rr_128_64EEENS0_17RandenPoolSeedSeqEEEEES2_RT_NS0_17SimplifiedLoopTagEE6kIters = comdat any

$_ZZN4absl15random_internal15FastUniformBitsINS_7uint128EE8GenerateINS0_17NonsecureURBGBaseINS0_10pcg_engineINS0_13pcg128_paramsILm2549297995355413924ELm4865540595714422341ELm6364136223846793005ELm1442695040888963407EEENS0_17pcg_xsl_rr_128_64EEENS0_17RandenPoolSeedSeqEEEEES2_RT_NS0_17SimplifiedLoopTagEE6kShift = comdat any

$_ZZN4absl15random_internal15FastUniformBitsINS_7uint128EE8GenerateINS0_17NonsecureURBGBaseINS0_10pcg_engineINS0_13pcg128_paramsILm2549297995355413924ELm4865540595714422341ELm6364136223846793005ELm1442695040888963407EEENS0_17pcg_xsl_rr_128_64EEENS0_17RandenPoolSeedSeqEEEEES2_RT_NS0_17SimplifiedLoopTagEE4kMin = comdat any

$_ZN4absl20IntervalClosedClosedE = comdat any

$_ZZN4absl15random_internal20GenerateRealFromBitsIdNS0_19GenerateNegativeTagELb0EEET_miE4kExp = comdat any

$_ZZN4absl15random_internal20GenerateRealFromBitsIdNS0_19GenerateNegativeTagELb0EEET_miE5kMask = comdat any

$_ZZN4absl15random_internal20GenerateRealFromBitsIdNS0_19GenerateNegativeTagELb0EEET_miE9kUintBits = comdat any

$_ZZN4absl15random_internal20GenerateRealFromBitsIdNS0_19GeneratePositiveTagELb0EEET_miE4kExp = comdat any

$_ZZN4absl15random_internal20GenerateRealFromBitsIdNS0_19GeneratePositiveTagELb0EEET_miE5kMask = comdat any

$_ZZN4absl15random_internal20GenerateRealFromBitsIdNS0_19GeneratePositiveTagELb0EEET_miE9kUintBits = comdat any

$_ZZN4absl15random_internal20GenerateRealFromBitsIdNS0_17GenerateSignedTagELb0EEET_miE4kExp = comdat any

$_ZZN4absl15random_internal20GenerateRealFromBitsIdNS0_17GenerateSignedTagELb0EEET_miE5kMask = comdat any

$_ZZN4absl15random_internal20GenerateRealFromBitsIdNS0_17GenerateSignedTagELb0EEET_miE9kUintBits = comdat any

$_ZZN4absl17beta_distributionIdE14AlgorithmChengINS_15random_internal17NonsecureURBGBaseINS3_10pcg_engineINS3_13pcg128_paramsILm2549297995355413924ELm4865540595714422341ELm6364136223846793005ELm1442695040888963407EEENS3_17pcg_xsl_rr_128_64EEENS3_17RandenPoolSeedSeqEEEEEdRT_RKNS1_10param_typeEE8kLogFour = comdat any

$_ZZN4absl17beta_distributionIdE14AlgorithmChengINS_15random_internal17NonsecureURBGBaseINS3_10pcg_engineINS3_13pcg128_paramsILm2549297995355413924ELm4865540595714422341ELm6364136223846793005ELm1442695040888963407EEENS3_17pcg_xsl_rr_128_64EEENS3_17RandenPoolSeedSeqEEEEEdRT_RKNS1_10param_typeEE2kS = comdat any

$_ZNSt14numeric_limitsImE6digitsE = comdat any

@_ZStL8__ioinit = internal global %"class.std::ios_base::Init" zeroinitializer, align 1
@__dso_handle = external hidden global i8
@_ZN12_GLOBAL__N_149RandomDistributionsTest_UniformTypeInference_Test10test_info_E = internal global ptr null, align 8
@.str = private unnamed_addr constant [24 x i8] c"RandomDistributionsTest\00", align 1
@.str.2 = private unnamed_addr constant [21 x i8] c"UniformTypeInference\00", align 1
@.str.3 = private unnamed_addr constant [133 x i8] c"generated/home/dtcxzyw/WorkSpace/Projects/compilers/llvm-opt-benchmark/bench/abseil-cpp/abseil-cpp/absl/random/distributions_test.cc\00", align 1
@_ZN12_GLOBAL__N_144RandomDistributionsTest_UniformExamples_Test10test_info_E = internal global ptr null, align 8
@.str.5 = private unnamed_addr constant [16 x i8] c"UniformExamples\00", align 1
@_ZN12_GLOBAL__N_144RandomDistributionsTest_UniformNoBounds_Test10test_info_E = internal global ptr null, align 8
@.str.7 = private unnamed_addr constant [16 x i8] c"UniformNoBounds\00", align 1
@_ZN12_GLOBAL__N_150RandomDistributionsTest_UniformNonsenseRanges_Test10test_info_E = internal global ptr null, align 8
@.str.9 = private unnamed_addr constant [22 x i8] c"UniformNonsenseRanges\00", align 1
@_ZN12_GLOBAL__N_140RandomDistributionsTest_UniformReal_Test10test_info_E = internal global ptr null, align 8
@.str.11 = private unnamed_addr constant [12 x i8] c"UniformReal\00", align 1
@_ZN12_GLOBAL__N_139RandomDistributionsTest_UniformInt_Test10test_info_E = internal global ptr null, align 8
@.str.13 = private unnamed_addr constant [11 x i8] c"UniformInt\00", align 1
@_ZN12_GLOBAL__N_140RandomDistributionsTest_Exponential_Test10test_info_E = internal global ptr null, align 8
@.str.15 = private unnamed_addr constant [12 x i8] c"Exponential\00", align 1
@_ZN12_GLOBAL__N_143RandomDistributionsTest_PoissonDefault_Test10test_info_E = internal global ptr null, align 8
@.str.17 = private unnamed_addr constant [15 x i8] c"PoissonDefault\00", align 1
@_ZN12_GLOBAL__N_141RandomDistributionsTest_PoissonLarge_Test10test_info_E = internal global ptr null, align 8
@.str.19 = private unnamed_addr constant [13 x i8] c"PoissonLarge\00", align 1
@_ZN12_GLOBAL__N_138RandomDistributionsTest_Bernoulli_Test10test_info_E = internal global ptr null, align 8
@.str.21 = private unnamed_addr constant [10 x i8] c"Bernoulli\00", align 1
@_ZN12_GLOBAL__N_133RandomDistributionsTest_Beta_Test10test_info_E = internal global ptr null, align 8
@.str.23 = private unnamed_addr constant [5 x i8] c"Beta\00", align 1
@_ZN12_GLOBAL__N_133RandomDistributionsTest_Zipf_Test10test_info_E = internal global ptr null, align 8
@.str.25 = private unnamed_addr constant [5 x i8] c"Zipf\00", align 1
@_ZN12_GLOBAL__N_137RandomDistributionsTest_Gaussian_Test10test_info_E = internal global ptr null, align 8
@.str.27 = private unnamed_addr constant [9 x i8] c"Gaussian\00", align 1
@_ZN12_GLOBAL__N_139RandomDistributionsTest_LogUniform_Test10test_info_E = internal global ptr null, align 8
@.str.29 = private unnamed_addr constant [11 x i8] c"LogUniform\00", align 1
@_ZTVN7testing8internal15TestFactoryImplIN12_GLOBAL__N_149RandomDistributionsTest_UniformTypeInference_TestEEE = internal unnamed_addr constant { [5 x ptr] } { [5 x ptr] [ptr null, ptr @_ZTIN7testing8internal15TestFactoryImplIN12_GLOBAL__N_149RandomDistributionsTest_UniformTypeInference_TestEEE, ptr @_ZN7testing8internal15TestFactoryImplIN12_GLOBAL__N_149RandomDistributionsTest_UniformTypeInference_TestEED2Ev, ptr @_ZN7testing8internal15TestFactoryImplIN12_GLOBAL__N_149RandomDistributionsTest_UniformTypeInference_TestEED0Ev, ptr @_ZN7testing8internal15TestFactoryImplIN12_GLOBAL__N_149RandomDistributionsTest_UniformTypeInference_TestEE10CreateTestEv] }, align 8
@_ZTVN10__cxxabiv120__si_class_type_infoE = external global [0 x ptr]
@_ZTSN7testing8internal15TestFactoryImplIN12_GLOBAL__N_149RandomDistributionsTest_UniformTypeInference_TestEEE = internal constant [106 x i8] c"N7testing8internal15TestFactoryImplIN12_GLOBAL__N_149RandomDistributionsTest_UniformTypeInference_TestEEE\00", align 1
@_ZTVN10__cxxabiv117__class_type_infoE = external global [0 x ptr]
@_ZTSN7testing8internal15TestFactoryBaseE = linkonce_odr dso_local constant [37 x i8] c"N7testing8internal15TestFactoryBaseE\00", comdat, align 1
@_ZTIN7testing8internal15TestFactoryBaseE = linkonce_odr dso_local constant { ptr, ptr } { ptr getelementptr inbounds (ptr, ptr @_ZTVN10__cxxabiv117__class_type_infoE, i64 2), ptr @_ZTSN7testing8internal15TestFactoryBaseE }, comdat, align 8
@_ZTIN7testing8internal15TestFactoryImplIN12_GLOBAL__N_149RandomDistributionsTest_UniformTypeInference_TestEEE = internal constant { ptr, ptr, ptr } { ptr getelementptr inbounds (ptr, ptr @_ZTVN10__cxxabiv120__si_class_type_infoE, i64 2), ptr @_ZTSN7testing8internal15TestFactoryImplIN12_GLOBAL__N_149RandomDistributionsTest_UniformTypeInference_TestEEE, ptr @_ZTIN7testing8internal15TestFactoryBaseE }, align 8
@_ZTVN7testing8internal15TestFactoryBaseE = linkonce_odr dso_local unnamed_addr constant { [5 x ptr] } { [5 x ptr] [ptr null, ptr @_ZTIN7testing8internal15TestFactoryBaseE, ptr @_ZN7testing8internal15TestFactoryBaseD2Ev, ptr @_ZN7testing8internal15TestFactoryBaseD0Ev, ptr @__cxa_pure_virtual] }, comdat, align 8
@_ZTVN12_GLOBAL__N_149RandomDistributionsTest_UniformTypeInference_TestE = internal unnamed_addr constant { [8 x ptr] } { [8 x ptr] [ptr null, ptr @_ZTIN12_GLOBAL__N_149RandomDistributionsTest_UniformTypeInference_TestE, ptr @_ZN12_GLOBAL__N_149RandomDistributionsTest_UniformTypeInference_TestD2Ev, ptr @_ZN12_GLOBAL__N_149RandomDistributionsTest_UniformTypeInference_TestD0Ev, ptr @_ZN7testing4Test5SetUpEv, ptr @_ZN7testing4Test8TearDownEv, ptr @_ZN12_GLOBAL__N_149RandomDistributionsTest_UniformTypeInference_Test8TestBodyEv, ptr @_ZN7testing4Test5SetupEv] }, align 8
@_ZTSN12_GLOBAL__N_149RandomDistributionsTest_UniformTypeInference_TestE = internal constant [68 x i8] c"N12_GLOBAL__N_149RandomDistributionsTest_UniformTypeInference_TestE\00", align 1
@_ZTSN12_GLOBAL__N_123RandomDistributionsTestE = internal constant [42 x i8] c"N12_GLOBAL__N_123RandomDistributionsTestE\00", align 1
@_ZTIN7testing4TestE = external constant ptr
@_ZTIN12_GLOBAL__N_123RandomDistributionsTestE = internal constant { ptr, ptr, ptr } { ptr getelementptr inbounds (ptr, ptr @_ZTVN10__cxxabiv120__si_class_type_infoE, i64 2), ptr @_ZTSN12_GLOBAL__N_123RandomDistributionsTestE, ptr @_ZTIN7testing4TestE }, align 8
@_ZTIN12_GLOBAL__N_149RandomDistributionsTest_UniformTypeInference_TestE = internal constant { ptr, ptr, ptr } { ptr getelementptr inbounds (ptr, ptr @_ZTVN10__cxxabiv120__si_class_type_infoE, i64 2), ptr @_ZTSN12_GLOBAL__N_149RandomDistributionsTest_UniformTypeInference_TestE, ptr @_ZTIN12_GLOBAL__N_123RandomDistributionsTestE }, align 8
@_ZTVN12_GLOBAL__N_123RandomDistributionsTestE = internal unnamed_addr constant { [8 x ptr] } { [8 x ptr] [ptr null, ptr @_ZTIN12_GLOBAL__N_123RandomDistributionsTestE, ptr @_ZN12_GLOBAL__N_123RandomDistributionsTestD2Ev, ptr @_ZN12_GLOBAL__N_123RandomDistributionsTestD0Ev, ptr @_ZN7testing4Test5SetUpEv, ptr @_ZN7testing4Test8TearDownEv, ptr @__cxa_pure_virtual, ptr @_ZN7testing4Test5SetupEv] }, align 8
@_ZTVN7testing8internal15TestFactoryImplIN12_GLOBAL__N_144RandomDistributionsTest_UniformExamples_TestEEE = internal unnamed_addr constant { [5 x ptr] } { [5 x ptr] [ptr null, ptr @_ZTIN7testing8internal15TestFactoryImplIN12_GLOBAL__N_144RandomDistributionsTest_UniformExamples_TestEEE, ptr @_ZN7testing8internal15TestFactoryImplIN12_GLOBAL__N_144RandomDistributionsTest_UniformExamples_TestEED2Ev, ptr @_ZN7testing8internal15TestFactoryImplIN12_GLOBAL__N_144RandomDistributionsTest_UniformExamples_TestEED0Ev, ptr @_ZN7testing8internal15TestFactoryImplIN12_GLOBAL__N_144RandomDistributionsTest_UniformExamples_TestEE10CreateTestEv] }, align 8
@_ZTSN7testing8internal15TestFactoryImplIN12_GLOBAL__N_144RandomDistributionsTest_UniformExamples_TestEEE = internal constant [101 x i8] c"N7testing8internal15TestFactoryImplIN12_GLOBAL__N_144RandomDistributionsTest_UniformExamples_TestEEE\00", align 1
@_ZTIN7testing8internal15TestFactoryImplIN12_GLOBAL__N_144RandomDistributionsTest_UniformExamples_TestEEE = internal constant { ptr, ptr, ptr } { ptr getelementptr inbounds (ptr, ptr @_ZTVN10__cxxabiv120__si_class_type_infoE, i64 2), ptr @_ZTSN7testing8internal15TestFactoryImplIN12_GLOBAL__N_144RandomDistributionsTest_UniformExamples_TestEEE, ptr @_ZTIN7testing8internal15TestFactoryBaseE }, align 8
@_ZTVN12_GLOBAL__N_144RandomDistributionsTest_UniformExamples_TestE = internal unnamed_addr constant { [8 x ptr] } { [8 x ptr] [ptr null, ptr @_ZTIN12_GLOBAL__N_144RandomDistributionsTest_UniformExamples_TestE, ptr @_ZN12_GLOBAL__N_144RandomDistributionsTest_UniformExamples_TestD2Ev, ptr @_ZN12_GLOBAL__N_144RandomDistributionsTest_UniformExamples_TestD0Ev, ptr @_ZN7testing4Test5SetUpEv, ptr @_ZN7testing4Test8TearDownEv, ptr @_ZN12_GLOBAL__N_144RandomDistributionsTest_UniformExamples_Test8TestBodyEv, ptr @_ZN7testing4Test5SetupEv] }, align 8
@_ZTSN12_GLOBAL__N_144RandomDistributionsTest_UniformExamples_TestE = internal constant [63 x i8] c"N12_GLOBAL__N_144RandomDistributionsTest_UniformExamples_TestE\00", align 1
@_ZTIN12_GLOBAL__N_144RandomDistributionsTest_UniformExamples_TestE = internal constant { ptr, ptr, ptr } { ptr getelementptr inbounds (ptr, ptr @_ZTVN10__cxxabiv120__si_class_type_infoE, i64 2), ptr @_ZTSN12_GLOBAL__N_144RandomDistributionsTest_UniformExamples_TestE, ptr @_ZTIN12_GLOBAL__N_123RandomDistributionsTestE }, align 8
@.str.30 = private unnamed_addr constant [2 x i8] c"1\00", align 1
@.str.31 = private unnamed_addr constant [51 x i8] c"absl::Uniform(gen, static_cast<uint16_t>(0), 1.0f)\00", align 1
@.str.32 = private unnamed_addr constant [27 x i8] c"absl::Uniform(gen, 0, 1.0)\00", align 1
@.str.33 = private unnamed_addr constant [75 x i8] c"absl::Uniform(absl::IntervalOpenOpen, gen, static_cast<uint16_t>(0), 1.0f)\00", align 1
@_ZN4absl16IntervalOpenOpenE = linkonce_odr dso_local constant %"struct.absl::IntervalOpenOpenTag" undef, comdat, align 1
@.str.34 = private unnamed_addr constant [51 x i8] c"absl::Uniform(absl::IntervalOpenOpen, gen, 0, 1.0)\00", align 1
@.str.35 = private unnamed_addr constant [52 x i8] c"absl::Uniform(absl::IntervalOpenOpen, gen, -1, 1.0)\00", align 1
@.str.36 = private unnamed_addr constant [58 x i8] c"absl::Uniform<double>(absl::IntervalOpenOpen, gen, -1, 1)\00", align 1
@.str.37 = private unnamed_addr constant [56 x i8] c"absl::Uniform<float>(absl::IntervalOpenOpen, gen, 0, 1)\00", align 1
@.str.38 = private unnamed_addr constant [32 x i8] c"absl::Uniform<float>(gen, 0, 1)\00", align 1
@.str.39 = private unnamed_addr constant [3 x i8] c"!=\00", align 1
@.str.40 = private unnamed_addr constant [12 x i8] c"Expected: (\00", align 1
@.str.41 = private unnamed_addr constant [3 x i8] c") \00", align 1
@.str.42 = private unnamed_addr constant [3 x i8] c" (\00", align 1
@.str.43 = private unnamed_addr constant [12 x i8] c"), actual: \00", align 1
@.str.44 = private unnamed_addr constant [5 x i8] c" vs \00", align 1
@.str.45 = private unnamed_addr constant [7 x i8] c"(null)\00", align 1
@__const._ZN4absl7UniformIvRNS_15random_internal17NonsecureURBGBaseINS1_10pcg_engineINS1_13pcg128_paramsILm2549297995355413924ELm4865540595714422341ELm6364136223846793005ELm1442695040888963407EEENS1_17pcg_xsl_rr_128_64EEENS1_17RandenPoolSeedSeqEEEtfEENSt9enable_ifIXsr3std7is_sameIT_vEE5valueENSB_IXsr4absl11disjunctionINS1_23is_widening_convertibleIT1_T2_EENSD_ISF_SE_EEEE5valueENSt11conditionalIXsr23is_widening_convertibleISE_SF_EE5valueESF_SE_E4typeEE4typeEE4typeEOT0_SE_SF_.tag = private unnamed_addr constant %"struct.absl::IntervalClosedOpenTag" undef, align 1
@_ZZN4absl15random_internal20GenerateRealFromBitsIfNS0_19GeneratePositiveTagELb1EEET_miE4kExp = linkonce_odr dso_local constant i32 23, comdat, align 4
@_ZZN4absl15random_internal20GenerateRealFromBitsIfNS0_19GeneratePositiveTagELb1EEET_miE5kMask = linkonce_odr dso_local constant i32 8388607, comdat, align 4
@_ZZN4absl15random_internal20GenerateRealFromBitsIfNS0_19GeneratePositiveTagELb1EEET_miE9kUintBits = linkonce_odr dso_local constant i32 32, comdat, align 4
@_ZZN4absl15random_internal15FastUniformBitsImE8GenerateINS0_17NonsecureURBGBaseINS0_10pcg_engineINS0_13pcg128_paramsILm2549297995355413924ELm4865540595714422341ELm6364136223846793005ELm1442695040888963407EEENS0_17pcg_xsl_rr_128_64EEENS0_17RandenPoolSeedSeqEEEEEmRT_NS0_17SimplifiedLoopTagEE11kResultBits = linkonce_odr dso_local constant i64 64, comdat, align 8
@_ZZN4absl15random_internal15FastUniformBitsImE8GenerateINS0_17NonsecureURBGBaseINS0_10pcg_engineINS0_13pcg128_paramsILm2549297995355413924ELm4865540595714422341ELm6364136223846793005ELm1442695040888963407EEENS0_17pcg_xsl_rr_128_64EEENS0_17RandenPoolSeedSeqEEEEEmRT_NS0_17SimplifiedLoopTagEE9kUrbgBits = linkonce_odr dso_local constant i64 64, comdat, align 8
@_ZZN4absl15random_internal15FastUniformBitsImE8GenerateINS0_17NonsecureURBGBaseINS0_10pcg_engineINS0_13pcg128_paramsILm2549297995355413924ELm4865540595714422341ELm6364136223846793005ELm1442695040888963407EEENS0_17pcg_xsl_rr_128_64EEENS0_17RandenPoolSeedSeqEEEEEmRT_NS0_17SimplifiedLoopTagEE6kIters = linkonce_odr dso_local constant i64 1, comdat, align 8
@_ZZN4absl15random_internal15FastUniformBitsImE8GenerateINS0_17NonsecureURBGBaseINS0_10pcg_engineINS0_13pcg128_paramsILm2549297995355413924ELm4865540595714422341ELm6364136223846793005ELm1442695040888963407EEENS0_17pcg_xsl_rr_128_64EEENS0_17RandenPoolSeedSeqEEEEEmRT_NS0_17SimplifiedLoopTagEE6kShift = linkonce_odr dso_local constant i64 0, comdat, align 8
@_ZZN4absl15random_internal15FastUniformBitsImE8GenerateINS0_17NonsecureURBGBaseINS0_10pcg_engineINS0_13pcg128_paramsILm2549297995355413924ELm4865540595714422341ELm6364136223846793005ELm1442695040888963407EEENS0_17pcg_xsl_rr_128_64EEENS0_17RandenPoolSeedSeqEEEEEmRT_NS0_17SimplifiedLoopTagEE4kMin = linkonce_odr dso_local constant i64 0, comdat, align 8
@.str.46 = private unnamed_addr constant [1 x i8] zeroinitializer, align 1
@__const._ZN4absl7UniformIvRNS_15random_internal17NonsecureURBGBaseINS1_10pcg_engineINS1_13pcg128_paramsILm2549297995355413924ELm4865540595714422341ELm6364136223846793005ELm1442695040888963407EEENS1_17pcg_xsl_rr_128_64EEENS1_17RandenPoolSeedSeqEEEidEENSt9enable_ifIXsr3std7is_sameIT_vEE5valueENSB_IXsr4absl11disjunctionINS1_23is_widening_convertibleIT1_T2_EENSD_ISF_SE_EEEE5valueENSt11conditionalIXsr23is_widening_convertibleISE_SF_EE5valueESF_SE_E4typeEE4typeEE4typeEOT0_SE_SF_.tag = private unnamed_addr constant %"struct.absl::IntervalClosedOpenTag" undef, align 1
@_ZZN4absl15random_internal20GenerateRealFromBitsIdNS0_19GeneratePositiveTagELb1EEET_miE4kExp = linkonce_odr dso_local constant i32 52, comdat, align 4
@_ZZN4absl15random_internal20GenerateRealFromBitsIdNS0_19GeneratePositiveTagELb1EEET_miE5kMask = linkonce_odr dso_local constant i64 4503599627370495, comdat, align 8
@_ZZN4absl15random_internal20GenerateRealFromBitsIdNS0_19GeneratePositiveTagELb1EEET_miE9kUintBits = linkonce_odr dso_local constant i32 64, comdat, align 4
@__const._ZN4absl7UniformIfRNS_15random_internal17NonsecureURBGBaseINS1_10pcg_engineINS1_13pcg128_paramsILm2549297995355413924ELm4865540595714422341ELm6364136223846793005ELm1442695040888963407EEENS1_17pcg_xsl_rr_128_64EEENS1_17RandenPoolSeedSeqEEEEENSt9enable_ifIXntsr3std7is_sameIT_vEE5valueESC_E4typeEOT0_SC_SC_.tag = private unnamed_addr constant %"struct.absl::IntervalClosedOpenTag" undef, align 1
@_ZTVN7testing8internal15TestFactoryImplIN12_GLOBAL__N_144RandomDistributionsTest_UniformNoBounds_TestEEE = internal unnamed_addr constant { [5 x ptr] } { [5 x ptr] [ptr null, ptr @_ZTIN7testing8internal15TestFactoryImplIN12_GLOBAL__N_144RandomDistributionsTest_UniformNoBounds_TestEEE, ptr @_ZN7testing8internal15TestFactoryImplIN12_GLOBAL__N_144RandomDistributionsTest_UniformNoBounds_TestEED2Ev, ptr @_ZN7testing8internal15TestFactoryImplIN12_GLOBAL__N_144RandomDistributionsTest_UniformNoBounds_TestEED0Ev, ptr @_ZN7testing8internal15TestFactoryImplIN12_GLOBAL__N_144RandomDistributionsTest_UniformNoBounds_TestEE10CreateTestEv] }, align 8
@_ZTSN7testing8internal15TestFactoryImplIN12_GLOBAL__N_144RandomDistributionsTest_UniformNoBounds_TestEEE = internal constant [101 x i8] c"N7testing8internal15TestFactoryImplIN12_GLOBAL__N_144RandomDistributionsTest_UniformNoBounds_TestEEE\00", align 1
@_ZTIN7testing8internal15TestFactoryImplIN12_GLOBAL__N_144RandomDistributionsTest_UniformNoBounds_TestEEE = internal constant { ptr, ptr, ptr } { ptr getelementptr inbounds (ptr, ptr @_ZTVN10__cxxabiv120__si_class_type_infoE, i64 2), ptr @_ZTSN7testing8internal15TestFactoryImplIN12_GLOBAL__N_144RandomDistributionsTest_UniformNoBounds_TestEEE, ptr @_ZTIN7testing8internal15TestFactoryBaseE }, align 8
@_ZTVN12_GLOBAL__N_144RandomDistributionsTest_UniformNoBounds_TestE = internal unnamed_addr constant { [8 x ptr] } { [8 x ptr] [ptr null, ptr @_ZTIN12_GLOBAL__N_144RandomDistributionsTest_UniformNoBounds_TestE, ptr @_ZN12_GLOBAL__N_144RandomDistributionsTest_UniformNoBounds_TestD2Ev, ptr @_ZN12_GLOBAL__N_144RandomDistributionsTest_UniformNoBounds_TestD0Ev, ptr @_ZN7testing4Test5SetUpEv, ptr @_ZN7testing4Test8TearDownEv, ptr @_ZN12_GLOBAL__N_144RandomDistributionsTest_UniformNoBounds_Test8TestBodyEv, ptr @_ZN7testing4Test5SetupEv] }, align 8
@_ZTSN12_GLOBAL__N_144RandomDistributionsTest_UniformNoBounds_TestE = internal constant [63 x i8] c"N12_GLOBAL__N_144RandomDistributionsTest_UniformNoBounds_TestE\00", align 1
@_ZTIN12_GLOBAL__N_144RandomDistributionsTest_UniformNoBounds_TestE = internal constant { ptr, ptr, ptr } { ptr getelementptr inbounds (ptr, ptr @_ZTVN10__cxxabiv120__si_class_type_infoE, i64 2), ptr @_ZTSN12_GLOBAL__N_144RandomDistributionsTest_UniformNoBounds_TestE, ptr @_ZTIN12_GLOBAL__N_123RandomDistributionsTestE }, align 8
@_ZZN4absl15random_internal15FastUniformBitsIhE8GenerateINS0_17NonsecureURBGBaseINS0_10pcg_engineINS0_13pcg128_paramsILm2549297995355413924ELm4865540595714422341ELm6364136223846793005ELm1442695040888963407EEENS0_17pcg_xsl_rr_128_64EEENS0_17RandenPoolSeedSeqEEEEEhRT_NS0_17SimplifiedLoopTagEE11kResultBits = linkonce_odr dso_local constant i64 8, comdat, align 8
@_ZZN4absl15random_internal15FastUniformBitsIhE8GenerateINS0_17NonsecureURBGBaseINS0_10pcg_engineINS0_13pcg128_paramsILm2549297995355413924ELm4865540595714422341ELm6364136223846793005ELm1442695040888963407EEENS0_17pcg_xsl_rr_128_64EEENS0_17RandenPoolSeedSeqEEEEEhRT_NS0_17SimplifiedLoopTagEE9kUrbgBits = linkonce_odr dso_local constant i64 64, comdat, align 8
@_ZZN4absl15random_internal15FastUniformBitsIhE8GenerateINS0_17NonsecureURBGBaseINS0_10pcg_engineINS0_13pcg128_paramsILm2549297995355413924ELm4865540595714422341ELm6364136223846793005ELm1442695040888963407EEENS0_17pcg_xsl_rr_128_64EEENS0_17RandenPoolSeedSeqEEEEEhRT_NS0_17SimplifiedLoopTagEE6kIters = linkonce_odr dso_local constant i64 1, comdat, align 8
@_ZZN4absl15random_internal15FastUniformBitsIhE8GenerateINS0_17NonsecureURBGBaseINS0_10pcg_engineINS0_13pcg128_paramsILm2549297995355413924ELm4865540595714422341ELm6364136223846793005ELm1442695040888963407EEENS0_17pcg_xsl_rr_128_64EEENS0_17RandenPoolSeedSeqEEEEEhRT_NS0_17SimplifiedLoopTagEE6kShift = linkonce_odr dso_local constant i64 0, comdat, align 8
@_ZZN4absl15random_internal15FastUniformBitsIhE8GenerateINS0_17NonsecureURBGBaseINS0_10pcg_engineINS0_13pcg128_paramsILm2549297995355413924ELm4865540595714422341ELm6364136223846793005ELm1442695040888963407EEENS0_17pcg_xsl_rr_128_64EEENS0_17RandenPoolSeedSeqEEEEEhRT_NS0_17SimplifiedLoopTagEE4kMin = linkonce_odr dso_local constant i64 0, comdat, align 8
@_ZZN4absl15random_internal15FastUniformBitsItE8GenerateINS0_17NonsecureURBGBaseINS0_10pcg_engineINS0_13pcg128_paramsILm2549297995355413924ELm4865540595714422341ELm6364136223846793005ELm1442695040888963407EEENS0_17pcg_xsl_rr_128_64EEENS0_17RandenPoolSeedSeqEEEEEtRT_NS0_17SimplifiedLoopTagEE11kResultBits = linkonce_odr dso_local constant i64 16, comdat, align 8
@_ZZN4absl15random_internal15FastUniformBitsItE8GenerateINS0_17NonsecureURBGBaseINS0_10pcg_engineINS0_13pcg128_paramsILm2549297995355413924ELm4865540595714422341ELm6364136223846793005ELm1442695040888963407EEENS0_17pcg_xsl_rr_128_64EEENS0_17RandenPoolSeedSeqEEEEEtRT_NS0_17SimplifiedLoopTagEE9kUrbgBits = linkonce_odr dso_local constant i64 64, comdat, align 8
@_ZZN4absl15random_internal15FastUniformBitsItE8GenerateINS0_17NonsecureURBGBaseINS0_10pcg_engineINS0_13pcg128_paramsILm2549297995355413924ELm4865540595714422341ELm6364136223846793005ELm1442695040888963407EEENS0_17pcg_xsl_rr_128_64EEENS0_17RandenPoolSeedSeqEEEEEtRT_NS0_17SimplifiedLoopTagEE6kIters = linkonce_odr dso_local constant i64 1, comdat, align 8
@_ZZN4absl15random_internal15FastUniformBitsItE8GenerateINS0_17NonsecureURBGBaseINS0_10pcg_engineINS0_13pcg128_paramsILm2549297995355413924ELm4865540595714422341ELm6364136223846793005ELm1442695040888963407EEENS0_17pcg_xsl_rr_128_64EEENS0_17RandenPoolSeedSeqEEEEEtRT_NS0_17SimplifiedLoopTagEE6kShift = linkonce_odr dso_local constant i64 0, comdat, align 8
@_ZZN4absl15random_internal15FastUniformBitsItE8GenerateINS0_17NonsecureURBGBaseINS0_10pcg_engineINS0_13pcg128_paramsILm2549297995355413924ELm4865540595714422341ELm6364136223846793005ELm1442695040888963407EEENS0_17pcg_xsl_rr_128_64EEENS0_17RandenPoolSeedSeqEEEEEtRT_NS0_17SimplifiedLoopTagEE4kMin = linkonce_odr dso_local constant i64 0, comdat, align 8
@_ZZN4absl15random_internal15FastUniformBitsIjE8GenerateINS0_17NonsecureURBGBaseINS0_10pcg_engineINS0_13pcg128_paramsILm2549297995355413924ELm4865540595714422341ELm6364136223846793005ELm1442695040888963407EEENS0_17pcg_xsl_rr_128_64EEENS0_17RandenPoolSeedSeqEEEEEjRT_NS0_17SimplifiedLoopTagEE11kResultBits = linkonce_odr dso_local constant i64 32, comdat, align 8
@_ZZN4absl15random_internal15FastUniformBitsIjE8GenerateINS0_17NonsecureURBGBaseINS0_10pcg_engineINS0_13pcg128_paramsILm2549297995355413924ELm4865540595714422341ELm6364136223846793005ELm1442695040888963407EEENS0_17pcg_xsl_rr_128_64EEENS0_17RandenPoolSeedSeqEEEEEjRT_NS0_17SimplifiedLoopTagEE9kUrbgBits = linkonce_odr dso_local constant i64 64, comdat, align 8
@_ZZN4absl15random_internal15FastUniformBitsIjE8GenerateINS0_17NonsecureURBGBaseINS0_10pcg_engineINS0_13pcg128_paramsILm2549297995355413924ELm4865540595714422341ELm6364136223846793005ELm1442695040888963407EEENS0_17pcg_xsl_rr_128_64EEENS0_17RandenPoolSeedSeqEEEEEjRT_NS0_17SimplifiedLoopTagEE6kIters = linkonce_odr dso_local constant i64 1, comdat, align 8
@_ZZN4absl15random_internal15FastUniformBitsIjE8GenerateINS0_17NonsecureURBGBaseINS0_10pcg_engineINS0_13pcg128_paramsILm2549297995355413924ELm4865540595714422341ELm6364136223846793005ELm1442695040888963407EEENS0_17pcg_xsl_rr_128_64EEENS0_17RandenPoolSeedSeqEEEEEjRT_NS0_17SimplifiedLoopTagEE6kShift = linkonce_odr dso_local constant i64 0, comdat, align 8
@_ZZN4absl15random_internal15FastUniformBitsIjE8GenerateINS0_17NonsecureURBGBaseINS0_10pcg_engineINS0_13pcg128_paramsILm2549297995355413924ELm4865540595714422341ELm6364136223846793005ELm1442695040888963407EEENS0_17pcg_xsl_rr_128_64EEENS0_17RandenPoolSeedSeqEEEEEjRT_NS0_17SimplifiedLoopTagEE4kMin = linkonce_odr dso_local constant i64 0, comdat, align 8
@_ZZN4absl15random_internal15FastUniformBitsINS_7uint128EE8GenerateINS0_17NonsecureURBGBaseINS0_10pcg_engineINS0_13pcg128_paramsILm2549297995355413924ELm4865540595714422341ELm6364136223846793005ELm1442695040888963407EEENS0_17pcg_xsl_rr_128_64EEENS0_17RandenPoolSeedSeqEEEEES2_RT_NS0_17SimplifiedLoopTagEE11kResultBits = linkonce_odr dso_local constant i64 128, comdat, align 8
@_ZZN4absl15random_internal15FastUniformBitsINS_7uint128EE8GenerateINS0_17NonsecureURBGBaseINS0_10pcg_engineINS0_13pcg128_paramsILm2549297995355413924ELm4865540595714422341ELm6364136223846793005ELm1442695040888963407EEENS0_17pcg_xsl_rr_128_64EEENS0_17RandenPoolSeedSeqEEEEES2_RT_NS0_17SimplifiedLoopTagEE9kUrbgBits = linkonce_odr dso_local constant i64 64, comdat, align 8
@_ZZN4absl15random_internal15FastUniformBitsINS_7uint128EE8GenerateINS0_17NonsecureURBGBaseINS0_10pcg_engineINS0_13pcg128_paramsILm2549297995355413924ELm4865540595714422341ELm6364136223846793005ELm1442695040888963407EEENS0_17pcg_xsl_rr_128_64EEENS0_17RandenPoolSeedSeqEEEEES2_RT_NS0_17SimplifiedLoopTagEE6kIters = linkonce_odr dso_local constant i64 2, comdat, align 8
@_ZZN4absl15random_internal15FastUniformBitsINS_7uint128EE8GenerateINS0_17NonsecureURBGBaseINS0_10pcg_engineINS0_13pcg128_paramsILm2549297995355413924ELm4865540595714422341ELm6364136223846793005ELm1442695040888963407EEENS0_17pcg_xsl_rr_128_64EEENS0_17RandenPoolSeedSeqEEEEES2_RT_NS0_17SimplifiedLoopTagEE6kShift = linkonce_odr dso_local constant i64 64, comdat, align 8
@_ZZN4absl15random_internal15FastUniformBitsINS_7uint128EE8GenerateINS0_17NonsecureURBGBaseINS0_10pcg_engineINS0_13pcg128_paramsILm2549297995355413924ELm4865540595714422341ELm6364136223846793005ELm1442695040888963407EEENS0_17pcg_xsl_rr_128_64EEENS0_17RandenPoolSeedSeqEEEEES2_RT_NS0_17SimplifiedLoopTagEE4kMin = linkonce_odr dso_local constant i64 0, comdat, align 8
@_ZTVN7testing8internal15TestFactoryImplIN12_GLOBAL__N_150RandomDistributionsTest_UniformNonsenseRanges_TestEEE = internal unnamed_addr constant { [5 x ptr] } { [5 x ptr] [ptr null, ptr @_ZTIN7testing8internal15TestFactoryImplIN12_GLOBAL__N_150RandomDistributionsTest_UniformNonsenseRanges_TestEEE, ptr @_ZN7testing8internal15TestFactoryImplIN12_GLOBAL__N_150RandomDistributionsTest_UniformNonsenseRanges_TestEED2Ev, ptr @_ZN7testing8internal15TestFactoryImplIN12_GLOBAL__N_150RandomDistributionsTest_UniformNonsenseRanges_TestEED0Ev, ptr @_ZN7testing8internal15TestFactoryImplIN12_GLOBAL__N_150RandomDistributionsTest_UniformNonsenseRanges_TestEE10CreateTestEv] }, align 8
@_ZTSN7testing8internal15TestFactoryImplIN12_GLOBAL__N_150RandomDistributionsTest_UniformNonsenseRanges_TestEEE = internal constant [107 x i8] c"N7testing8internal15TestFactoryImplIN12_GLOBAL__N_150RandomDistributionsTest_UniformNonsenseRanges_TestEEE\00", align 1
@_ZTIN7testing8internal15TestFactoryImplIN12_GLOBAL__N_150RandomDistributionsTest_UniformNonsenseRanges_TestEEE = internal constant { ptr, ptr, ptr } { ptr getelementptr inbounds (ptr, ptr @_ZTVN10__cxxabiv120__si_class_type_infoE, i64 2), ptr @_ZTSN7testing8internal15TestFactoryImplIN12_GLOBAL__N_150RandomDistributionsTest_UniformNonsenseRanges_TestEEE, ptr @_ZTIN7testing8internal15TestFactoryBaseE }, align 8
@_ZTVN12_GLOBAL__N_150RandomDistributionsTest_UniformNonsenseRanges_TestE = internal unnamed_addr constant { [8 x ptr] } { [8 x ptr] [ptr null, ptr @_ZTIN12_GLOBAL__N_150RandomDistributionsTest_UniformNonsenseRanges_TestE, ptr @_ZN12_GLOBAL__N_150RandomDistributionsTest_UniformNonsenseRanges_TestD2Ev, ptr @_ZN12_GLOBAL__N_150RandomDistributionsTest_UniformNonsenseRanges_TestD0Ev, ptr @_ZN7testing4Test5SetUpEv, ptr @_ZN7testing4Test8TearDownEv, ptr @_ZN12_GLOBAL__N_150RandomDistributionsTest_UniformNonsenseRanges_Test8TestBodyEv, ptr @_ZN7testing4Test5SetupEv] }, align 8
@_ZTSN12_GLOBAL__N_150RandomDistributionsTest_UniformNonsenseRanges_TestE = internal constant [69 x i8] c"N12_GLOBAL__N_150RandomDistributionsTest_UniformNonsenseRanges_TestE\00", align 1
@_ZTIN12_GLOBAL__N_150RandomDistributionsTest_UniformNonsenseRanges_TestE = internal constant { ptr, ptr, ptr } { ptr getelementptr inbounds (ptr, ptr @_ZTVN10__cxxabiv120__si_class_type_infoE, i64 2), ptr @_ZTSN12_GLOBAL__N_150RandomDistributionsTest_UniformNonsenseRanges_TestE, ptr @_ZTIN12_GLOBAL__N_123RandomDistributionsTestE }, align 8
@.str.47 = private unnamed_addr constant [2 x i8] c"0\00", align 1
@.str.48 = private unnamed_addr constant [35 x i8] c"absl::Uniform<uint64_t>(gen, 0, 0)\00", align 1
@.str.49 = private unnamed_addr constant [35 x i8] c"absl::Uniform<uint64_t>(gen, 1, 0)\00", align 1
@.str.50 = private unnamed_addr constant [59 x i8] c"absl::Uniform<uint64_t>(absl::IntervalOpenOpen, gen, 0, 0)\00", align 1
@.str.51 = private unnamed_addr constant [59 x i8] c"absl::Uniform<uint64_t>(absl::IntervalOpenOpen, gen, 1, 0)\00", align 1
@.str.52 = private unnamed_addr constant [2 x i8] c"m\00", align 1
@.str.53 = private unnamed_addr constant [25 x i8] c"absl::Uniform(gen, m, m)\00", align 1
@.str.54 = private unnamed_addr constant [29 x i8] c"absl::Uniform(gen, m, m - 1)\00", align 1
@.str.55 = private unnamed_addr constant [6 x i8] c"m - 1\00", align 1
@.str.56 = private unnamed_addr constant [29 x i8] c"absl::Uniform(gen, m - 1, m)\00", align 1
@.str.57 = private unnamed_addr constant [49 x i8] c"absl::Uniform(absl::IntervalOpenOpen, gen, m, m)\00", align 1
@.str.58 = private unnamed_addr constant [53 x i8] c"absl::Uniform(absl::IntervalOpenOpen, gen, m, m - 1)\00", align 1
@.str.59 = private unnamed_addr constant [53 x i8] c"absl::Uniform(absl::IntervalOpenOpen, gen, m - 1, m)\00", align 1
@.str.60 = private unnamed_addr constant [34 x i8] c"absl::Uniform<int64_t>(gen, 0, 0)\00", align 1
@.str.61 = private unnamed_addr constant [34 x i8] c"absl::Uniform<int64_t>(gen, 1, 0)\00", align 1
@.str.62 = private unnamed_addr constant [58 x i8] c"absl::Uniform<int64_t>(absl::IntervalOpenOpen, gen, 0, 0)\00", align 1
@.str.63 = private unnamed_addr constant [58 x i8] c"absl::Uniform<int64_t>(absl::IntervalOpenOpen, gen, 1, 0)\00", align 1
@.str.64 = private unnamed_addr constant [2 x i8] c"l\00", align 1
@.str.65 = private unnamed_addr constant [25 x i8] c"absl::Uniform(gen, l, l)\00", align 1
@.str.66 = private unnamed_addr constant [2 x i8] c"r\00", align 1
@.str.67 = private unnamed_addr constant [25 x i8] c"absl::Uniform(gen, r, r)\00", align 1
@.str.68 = private unnamed_addr constant [29 x i8] c"absl::Uniform(gen, r, r - 1)\00", align 1
@.str.69 = private unnamed_addr constant [6 x i8] c"r - 1\00", align 1
@.str.70 = private unnamed_addr constant [29 x i8] c"absl::Uniform(gen, r - 1, r)\00", align 1
@.str.71 = private unnamed_addr constant [49 x i8] c"absl::Uniform(absl::IntervalOpenOpen, gen, l, l)\00", align 1
@.str.72 = private unnamed_addr constant [49 x i8] c"absl::Uniform(absl::IntervalOpenOpen, gen, r, r)\00", align 1
@.str.73 = private unnamed_addr constant [53 x i8] c"absl::Uniform(absl::IntervalOpenOpen, gen, r, r - 1)\00", align 1
@.str.74 = private unnamed_addr constant [53 x i8] c"absl::Uniform(absl::IntervalOpenOpen, gen, r - 1, r)\00", align 1
@.str.75 = private unnamed_addr constant [4 x i8] c"1.0\00", align 1
@.str.76 = private unnamed_addr constant [27 x i8] c"absl::Uniform(gen, 1.0, e)\00", align 1
@.str.77 = private unnamed_addr constant [27 x i8] c"absl::Uniform(gen, 1.0, f)\00", align 1
@.str.78 = private unnamed_addr constant [4 x i8] c"0.0\00", align 1
@.str.79 = private unnamed_addr constant [27 x i8] c"absl::Uniform(gen, 0.0, g)\00", align 1
@.str.80 = private unnamed_addr constant [2 x i8] c"e\00", align 1
@.str.81 = private unnamed_addr constant [51 x i8] c"absl::Uniform(absl::IntervalOpenOpen, gen, 1.0, e)\00", align 1
@.str.82 = private unnamed_addr constant [2 x i8] c"f\00", align 1
@.str.83 = private unnamed_addr constant [51 x i8] c"absl::Uniform(absl::IntervalOpenOpen, gen, 1.0, f)\00", align 1
@.str.84 = private unnamed_addr constant [2 x i8] c"g\00", align 1
@.str.85 = private unnamed_addr constant [51 x i8] c"absl::Uniform(absl::IntervalOpenOpen, gen, 0.0, g)\00", align 1
@__const._ZN4absl7UniformImRNS_15random_internal17NonsecureURBGBaseINS1_10pcg_engineINS1_13pcg128_paramsILm2549297995355413924ELm4865540595714422341ELm6364136223846793005ELm1442695040888963407EEENS1_17pcg_xsl_rr_128_64EEENS1_17RandenPoolSeedSeqEEEEENSt9enable_ifIXntsr3std7is_sameIT_vEE5valueESC_E4typeEOT0_SC_SC_.tag = private unnamed_addr constant %"struct.absl::IntervalClosedOpenTag" undef, align 1
@__const._ZN4absl7UniformIlRNS_15random_internal17NonsecureURBGBaseINS1_10pcg_engineINS1_13pcg128_paramsILm2549297995355413924ELm4865540595714422341ELm6364136223846793005ELm1442695040888963407EEENS1_17pcg_xsl_rr_128_64EEENS1_17RandenPoolSeedSeqEEEEENSt9enable_ifIXntsr3std7is_sameIT_vEE5valueESC_E4typeEOT0_SC_SC_.tag = private unnamed_addr constant %"struct.absl::IntervalClosedOpenTag" undef, align 1
@__const._ZN4absl7UniformIdRNS_15random_internal17NonsecureURBGBaseINS1_10pcg_engineINS1_13pcg128_paramsILm2549297995355413924ELm4865540595714422341ELm6364136223846793005ELm1442695040888963407EEENS1_17pcg_xsl_rr_128_64EEENS1_17RandenPoolSeedSeqEEEEENSt9enable_ifIXntsr3std7is_sameIT_vEE5valueESC_E4typeEOT0_SC_SC_.tag = private unnamed_addr constant %"struct.absl::IntervalClosedOpenTag" undef, align 1
@_ZTVN7testing8internal15TestFactoryImplIN12_GLOBAL__N_140RandomDistributionsTest_UniformReal_TestEEE = internal unnamed_addr constant { [5 x ptr] } { [5 x ptr] [ptr null, ptr @_ZTIN7testing8internal15TestFactoryImplIN12_GLOBAL__N_140RandomDistributionsTest_UniformReal_TestEEE, ptr @_ZN7testing8internal15TestFactoryImplIN12_GLOBAL__N_140RandomDistributionsTest_UniformReal_TestEED2Ev, ptr @_ZN7testing8internal15TestFactoryImplIN12_GLOBAL__N_140RandomDistributionsTest_UniformReal_TestEED0Ev, ptr @_ZN7testing8internal15TestFactoryImplIN12_GLOBAL__N_140RandomDistributionsTest_UniformReal_TestEE10CreateTestEv] }, align 8
@_ZTSN7testing8internal15TestFactoryImplIN12_GLOBAL__N_140RandomDistributionsTest_UniformReal_TestEEE = internal constant [97 x i8] c"N7testing8internal15TestFactoryImplIN12_GLOBAL__N_140RandomDistributionsTest_UniformReal_TestEEE\00", align 1
@_ZTIN7testing8internal15TestFactoryImplIN12_GLOBAL__N_140RandomDistributionsTest_UniformReal_TestEEE = internal constant { ptr, ptr, ptr } { ptr getelementptr inbounds (ptr, ptr @_ZTVN10__cxxabiv120__si_class_type_infoE, i64 2), ptr @_ZTSN7testing8internal15TestFactoryImplIN12_GLOBAL__N_140RandomDistributionsTest_UniformReal_TestEEE, ptr @_ZTIN7testing8internal15TestFactoryBaseE }, align 8
@_ZTVN12_GLOBAL__N_140RandomDistributionsTest_UniformReal_TestE = internal unnamed_addr constant { [8 x ptr] } { [8 x ptr] [ptr null, ptr @_ZTIN12_GLOBAL__N_140RandomDistributionsTest_UniformReal_TestE, ptr @_ZN12_GLOBAL__N_140RandomDistributionsTest_UniformReal_TestD2Ev, ptr @_ZN12_GLOBAL__N_140RandomDistributionsTest_UniformReal_TestD0Ev, ptr @_ZN7testing4Test5SetUpEv, ptr @_ZN7testing4Test8TearDownEv, ptr @_ZN12_GLOBAL__N_140RandomDistributionsTest_UniformReal_Test8TestBodyEv, ptr @_ZN7testing4Test5SetupEv] }, align 8
@_ZTSN12_GLOBAL__N_140RandomDistributionsTest_UniformReal_TestE = internal constant [59 x i8] c"N12_GLOBAL__N_140RandomDistributionsTest_UniformReal_TestE\00", align 1
@_ZTIN12_GLOBAL__N_140RandomDistributionsTest_UniformReal_TestE = internal constant { ptr, ptr, ptr } { ptr getelementptr inbounds (ptr, ptr @_ZTVN10__cxxabiv120__si_class_type_infoE, i64 2), ptr @_ZTSN12_GLOBAL__N_140RandomDistributionsTest_UniformReal_TestE, ptr @_ZTIN12_GLOBAL__N_123RandomDistributionsTestE }, align 8
@.str.86 = private unnamed_addr constant [4 x i8] c"0.5\00", align 1
@.str.87 = private unnamed_addr constant [13 x i8] c"moments.mean\00", align 1
@.str.88 = private unnamed_addr constant [5 x i8] c"0.02\00", align 1
@.str.89 = private unnamed_addr constant [9 x i8] c"1 / 12.0\00", align 1
@.str.90 = private unnamed_addr constant [17 x i8] c"moments.variance\00", align 1
@.str.91 = private unnamed_addr constant [17 x i8] c"moments.skewness\00", align 1
@.str.92 = private unnamed_addr constant [8 x i8] c"9 / 5.0\00", align 1
@.str.93 = private unnamed_addr constant [17 x i8] c"moments.kurtosis\00", align 1
@.str.94 = private unnamed_addr constant [49 x i8] c"cannot create std::vector larger than max_size()\00", align 1
@_ZTVN7testing8internal15TestFactoryImplIN12_GLOBAL__N_139RandomDistributionsTest_UniformInt_TestEEE = internal unnamed_addr constant { [5 x ptr] } { [5 x ptr] [ptr null, ptr @_ZTIN7testing8internal15TestFactoryImplIN12_GLOBAL__N_139RandomDistributionsTest_UniformInt_TestEEE, ptr @_ZN7testing8internal15TestFactoryImplIN12_GLOBAL__N_139RandomDistributionsTest_UniformInt_TestEED2Ev, ptr @_ZN7testing8internal15TestFactoryImplIN12_GLOBAL__N_139RandomDistributionsTest_UniformInt_TestEED0Ev, ptr @_ZN7testing8internal15TestFactoryImplIN12_GLOBAL__N_139RandomDistributionsTest_UniformInt_TestEE10CreateTestEv] }, align 8
@_ZTSN7testing8internal15TestFactoryImplIN12_GLOBAL__N_139RandomDistributionsTest_UniformInt_TestEEE = internal constant [96 x i8] c"N7testing8internal15TestFactoryImplIN12_GLOBAL__N_139RandomDistributionsTest_UniformInt_TestEEE\00", align 1
@_ZTIN7testing8internal15TestFactoryImplIN12_GLOBAL__N_139RandomDistributionsTest_UniformInt_TestEEE = internal constant { ptr, ptr, ptr } { ptr getelementptr inbounds (ptr, ptr @_ZTVN10__cxxabiv120__si_class_type_infoE, i64 2), ptr @_ZTSN7testing8internal15TestFactoryImplIN12_GLOBAL__N_139RandomDistributionsTest_UniformInt_TestEEE, ptr @_ZTIN7testing8internal15TestFactoryBaseE }, align 8
@_ZTVN12_GLOBAL__N_139RandomDistributionsTest_UniformInt_TestE = internal unnamed_addr constant { [8 x ptr] } { [8 x ptr] [ptr null, ptr @_ZTIN12_GLOBAL__N_139RandomDistributionsTest_UniformInt_TestE, ptr @_ZN12_GLOBAL__N_139RandomDistributionsTest_UniformInt_TestD2Ev, ptr @_ZN12_GLOBAL__N_139RandomDistributionsTest_UniformInt_TestD0Ev, ptr @_ZN7testing4Test5SetUpEv, ptr @_ZN7testing4Test8TearDownEv, ptr @_ZN12_GLOBAL__N_139RandomDistributionsTest_UniformInt_Test8TestBodyEv, ptr @_ZN7testing4Test5SetupEv] }, align 8
@_ZTSN12_GLOBAL__N_139RandomDistributionsTest_UniformInt_TestE = internal constant [58 x i8] c"N12_GLOBAL__N_139RandomDistributionsTest_UniformInt_TestE\00", align 1
@_ZTIN12_GLOBAL__N_139RandomDistributionsTest_UniformInt_TestE = internal constant { ptr, ptr, ptr } { ptr getelementptr inbounds (ptr, ptr @_ZTVN10__cxxabiv120__si_class_type_infoE, i64 2), ptr @_ZTSN12_GLOBAL__N_139RandomDistributionsTest_UniformInt_TestE, ptr @_ZTIN12_GLOBAL__N_123RandomDistributionsTestE }, align 8
@_ZN4absl20IntervalClosedClosedE = linkonce_odr dso_local constant %"struct.absl::IntervalClosedClosedTag" undef, comdat, align 1
@_ZTVN7testing8internal15TestFactoryImplIN12_GLOBAL__N_140RandomDistributionsTest_Exponential_TestEEE = internal unnamed_addr constant { [5 x ptr] } { [5 x ptr] [ptr null, ptr @_ZTIN7testing8internal15TestFactoryImplIN12_GLOBAL__N_140RandomDistributionsTest_Exponential_TestEEE, ptr @_ZN7testing8internal15TestFactoryImplIN12_GLOBAL__N_140RandomDistributionsTest_Exponential_TestEED2Ev, ptr @_ZN7testing8internal15TestFactoryImplIN12_GLOBAL__N_140RandomDistributionsTest_Exponential_TestEED0Ev, ptr @_ZN7testing8internal15TestFactoryImplIN12_GLOBAL__N_140RandomDistributionsTest_Exponential_TestEE10CreateTestEv] }, align 8
@_ZTSN7testing8internal15TestFactoryImplIN12_GLOBAL__N_140RandomDistributionsTest_Exponential_TestEEE = internal constant [97 x i8] c"N7testing8internal15TestFactoryImplIN12_GLOBAL__N_140RandomDistributionsTest_Exponential_TestEEE\00", align 1
@_ZTIN7testing8internal15TestFactoryImplIN12_GLOBAL__N_140RandomDistributionsTest_Exponential_TestEEE = internal constant { ptr, ptr, ptr } { ptr getelementptr inbounds (ptr, ptr @_ZTVN10__cxxabiv120__si_class_type_infoE, i64 2), ptr @_ZTSN7testing8internal15TestFactoryImplIN12_GLOBAL__N_140RandomDistributionsTest_Exponential_TestEEE, ptr @_ZTIN7testing8internal15TestFactoryBaseE }, align 8
@_ZTVN12_GLOBAL__N_140RandomDistributionsTest_Exponential_TestE = internal unnamed_addr constant { [8 x ptr] } { [8 x ptr] [ptr null, ptr @_ZTIN12_GLOBAL__N_140RandomDistributionsTest_Exponential_TestE, ptr @_ZN12_GLOBAL__N_140RandomDistributionsTest_Exponential_TestD2Ev, ptr @_ZN12_GLOBAL__N_140RandomDistributionsTest_Exponential_TestD0Ev, ptr @_ZN7testing4Test5SetUpEv, ptr @_ZN7testing4Test8TearDownEv, ptr @_ZN12_GLOBAL__N_140RandomDistributionsTest_Exponential_Test8TestBodyEv, ptr @_ZN7testing4Test5SetupEv] }, align 8
@_ZTSN12_GLOBAL__N_140RandomDistributionsTest_Exponential_TestE = internal constant [59 x i8] c"N12_GLOBAL__N_140RandomDistributionsTest_Exponential_TestE\00", align 1
@_ZTIN12_GLOBAL__N_140RandomDistributionsTest_Exponential_TestE = internal constant { ptr, ptr, ptr } { ptr getelementptr inbounds (ptr, ptr @_ZTVN10__cxxabiv120__si_class_type_infoE, i64 2), ptr @_ZTSN12_GLOBAL__N_140RandomDistributionsTest_Exponential_TestE, ptr @_ZTIN12_GLOBAL__N_123RandomDistributionsTestE }, align 8
@.str.95 = private unnamed_addr constant [6 x i8] c"0.025\00", align 1
@.str.96 = private unnamed_addr constant [4 x i8] c"2.0\00", align 1
@.str.97 = private unnamed_addr constant [4 x i8] c"0.1\00", align 1
@.str.98 = private unnamed_addr constant [4 x i8] c"5.0\00", align 1
@_ZZN4absl15random_internal20GenerateRealFromBitsIdNS0_19GenerateNegativeTagELb0EEET_miE4kExp = linkonce_odr dso_local constant i32 52, comdat, align 4
@_ZZN4absl15random_internal20GenerateRealFromBitsIdNS0_19GenerateNegativeTagELb0EEET_miE5kMask = linkonce_odr dso_local constant i64 4503599627370495, comdat, align 8
@_ZZN4absl15random_internal20GenerateRealFromBitsIdNS0_19GenerateNegativeTagELb0EEET_miE9kUintBits = linkonce_odr dso_local constant i32 64, comdat, align 4
@.str.99 = private unnamed_addr constant [2 x i8] c"<\00", align 1
@_ZTVN7testing8internal15TestFactoryImplIN12_GLOBAL__N_143RandomDistributionsTest_PoissonDefault_TestEEE = internal unnamed_addr constant { [5 x ptr] } { [5 x ptr] [ptr null, ptr @_ZTIN7testing8internal15TestFactoryImplIN12_GLOBAL__N_143RandomDistributionsTest_PoissonDefault_TestEEE, ptr @_ZN7testing8internal15TestFactoryImplIN12_GLOBAL__N_143RandomDistributionsTest_PoissonDefault_TestEED2Ev, ptr @_ZN7testing8internal15TestFactoryImplIN12_GLOBAL__N_143RandomDistributionsTest_PoissonDefault_TestEED0Ev, ptr @_ZN7testing8internal15TestFactoryImplIN12_GLOBAL__N_143RandomDistributionsTest_PoissonDefault_TestEE10CreateTestEv] }, align 8
@_ZTSN7testing8internal15TestFactoryImplIN12_GLOBAL__N_143RandomDistributionsTest_PoissonDefault_TestEEE = internal constant [100 x i8] c"N7testing8internal15TestFactoryImplIN12_GLOBAL__N_143RandomDistributionsTest_PoissonDefault_TestEEE\00", align 1
@_ZTIN7testing8internal15TestFactoryImplIN12_GLOBAL__N_143RandomDistributionsTest_PoissonDefault_TestEEE = internal constant { ptr, ptr, ptr } { ptr getelementptr inbounds (ptr, ptr @_ZTVN10__cxxabiv120__si_class_type_infoE, i64 2), ptr @_ZTSN7testing8internal15TestFactoryImplIN12_GLOBAL__N_143RandomDistributionsTest_PoissonDefault_TestEEE, ptr @_ZTIN7testing8internal15TestFactoryBaseE }, align 8
@_ZTVN12_GLOBAL__N_143RandomDistributionsTest_PoissonDefault_TestE = internal unnamed_addr constant { [8 x ptr] } { [8 x ptr] [ptr null, ptr @_ZTIN12_GLOBAL__N_143RandomDistributionsTest_PoissonDefault_TestE, ptr @_ZN12_GLOBAL__N_143RandomDistributionsTest_PoissonDefault_TestD2Ev, ptr @_ZN12_GLOBAL__N_143RandomDistributionsTest_PoissonDefault_TestD0Ev, ptr @_ZN7testing4Test5SetUpEv, ptr @_ZN7testing4Test8TearDownEv, ptr @_ZN12_GLOBAL__N_143RandomDistributionsTest_PoissonDefault_Test8TestBodyEv, ptr @_ZN7testing4Test5SetupEv] }, align 8
@_ZTSN12_GLOBAL__N_143RandomDistributionsTest_PoissonDefault_TestE = internal constant [62 x i8] c"N12_GLOBAL__N_143RandomDistributionsTest_PoissonDefault_TestE\00", align 1
@_ZTIN12_GLOBAL__N_143RandomDistributionsTest_PoissonDefault_TestE = internal constant { ptr, ptr, ptr } { ptr getelementptr inbounds (ptr, ptr @_ZTVN10__cxxabiv120__si_class_type_infoE, i64 2), ptr @_ZTSN12_GLOBAL__N_143RandomDistributionsTest_PoissonDefault_TestE, ptr @_ZTIN12_GLOBAL__N_123RandomDistributionsTestE }, align 8
@_ZZN4absl15random_internal20GenerateRealFromBitsIdNS0_19GeneratePositiveTagELb0EEET_miE4kExp = linkonce_odr dso_local constant i32 52, comdat, align 4
@_ZZN4absl15random_internal20GenerateRealFromBitsIdNS0_19GeneratePositiveTagELb0EEET_miE5kMask = linkonce_odr dso_local constant i64 4503599627370495, comdat, align 8
@_ZZN4absl15random_internal20GenerateRealFromBitsIdNS0_19GeneratePositiveTagELb0EEET_miE9kUintBits = linkonce_odr dso_local constant i32 64, comdat, align 4
@_ZZN4absl15random_internal20GenerateRealFromBitsIdNS0_17GenerateSignedTagELb0EEET_miE4kExp = linkonce_odr dso_local constant i32 52, comdat, align 4
@_ZZN4absl15random_internal20GenerateRealFromBitsIdNS0_17GenerateSignedTagELb0EEET_miE5kMask = linkonce_odr dso_local constant i64 4503599627370495, comdat, align 8
@_ZZN4absl15random_internal20GenerateRealFromBitsIdNS0_17GenerateSignedTagELb0EEET_miE9kUintBits = linkonce_odr dso_local constant i32 64, comdat, align 4
@_ZTVN7testing8internal15TestFactoryImplIN12_GLOBAL__N_141RandomDistributionsTest_PoissonLarge_TestEEE = internal unnamed_addr constant { [5 x ptr] } { [5 x ptr] [ptr null, ptr @_ZTIN7testing8internal15TestFactoryImplIN12_GLOBAL__N_141RandomDistributionsTest_PoissonLarge_TestEEE, ptr @_ZN7testing8internal15TestFactoryImplIN12_GLOBAL__N_141RandomDistributionsTest_PoissonLarge_TestEED2Ev, ptr @_ZN7testing8internal15TestFactoryImplIN12_GLOBAL__N_141RandomDistributionsTest_PoissonLarge_TestEED0Ev, ptr @_ZN7testing8internal15TestFactoryImplIN12_GLOBAL__N_141RandomDistributionsTest_PoissonLarge_TestEE10CreateTestEv] }, align 8
@_ZTSN7testing8internal15TestFactoryImplIN12_GLOBAL__N_141RandomDistributionsTest_PoissonLarge_TestEEE = internal constant [98 x i8] c"N7testing8internal15TestFactoryImplIN12_GLOBAL__N_141RandomDistributionsTest_PoissonLarge_TestEEE\00", align 1
@_ZTIN7testing8internal15TestFactoryImplIN12_GLOBAL__N_141RandomDistributionsTest_PoissonLarge_TestEEE = internal constant { ptr, ptr, ptr } { ptr getelementptr inbounds (ptr, ptr @_ZTVN10__cxxabiv120__si_class_type_infoE, i64 2), ptr @_ZTSN7testing8internal15TestFactoryImplIN12_GLOBAL__N_141RandomDistributionsTest_PoissonLarge_TestEEE, ptr @_ZTIN7testing8internal15TestFactoryBaseE }, align 8
@_ZTVN12_GLOBAL__N_141RandomDistributionsTest_PoissonLarge_TestE = internal unnamed_addr constant { [8 x ptr] } { [8 x ptr] [ptr null, ptr @_ZTIN12_GLOBAL__N_141RandomDistributionsTest_PoissonLarge_TestE, ptr @_ZN12_GLOBAL__N_141RandomDistributionsTest_PoissonLarge_TestD2Ev, ptr @_ZN12_GLOBAL__N_141RandomDistributionsTest_PoissonLarge_TestD0Ev, ptr @_ZN7testing4Test5SetUpEv, ptr @_ZN7testing4Test8TearDownEv, ptr @_ZN12_GLOBAL__N_141RandomDistributionsTest_PoissonLarge_Test8TestBodyEv, ptr @_ZN7testing4Test5SetupEv] }, align 8
@_ZTSN12_GLOBAL__N_141RandomDistributionsTest_PoissonLarge_TestE = internal constant [60 x i8] c"N12_GLOBAL__N_141RandomDistributionsTest_PoissonLarge_TestE\00", align 1
@_ZTIN12_GLOBAL__N_141RandomDistributionsTest_PoissonLarge_TestE = internal constant { ptr, ptr, ptr } { ptr getelementptr inbounds (ptr, ptr @_ZTVN10__cxxabiv120__si_class_type_infoE, i64 2), ptr @_ZTSN12_GLOBAL__N_141RandomDistributionsTest_PoissonLarge_TestE, ptr @_ZTIN12_GLOBAL__N_123RandomDistributionsTestE }, align 8
@.str.100 = private unnamed_addr constant [6 x i8] c"kMean\00", align 1
@.str.101 = private unnamed_addr constant [14 x i8] c"kMean * 0.015\00", align 1
@.str.102 = private unnamed_addr constant [17 x i8] c"std::sqrt(kMean)\00", align 1
@.str.103 = private unnamed_addr constant [13 x i8] c"kMean * 0.02\00", align 1
@_ZTVN7testing8internal15TestFactoryImplIN12_GLOBAL__N_138RandomDistributionsTest_Bernoulli_TestEEE = internal unnamed_addr constant { [5 x ptr] } { [5 x ptr] [ptr null, ptr @_ZTIN7testing8internal15TestFactoryImplIN12_GLOBAL__N_138RandomDistributionsTest_Bernoulli_TestEEE, ptr @_ZN7testing8internal15TestFactoryImplIN12_GLOBAL__N_138RandomDistributionsTest_Bernoulli_TestEED2Ev, ptr @_ZN7testing8internal15TestFactoryImplIN12_GLOBAL__N_138RandomDistributionsTest_Bernoulli_TestEED0Ev, ptr @_ZN7testing8internal15TestFactoryImplIN12_GLOBAL__N_138RandomDistributionsTest_Bernoulli_TestEE10CreateTestEv] }, align 8
@_ZTSN7testing8internal15TestFactoryImplIN12_GLOBAL__N_138RandomDistributionsTest_Bernoulli_TestEEE = internal constant [95 x i8] c"N7testing8internal15TestFactoryImplIN12_GLOBAL__N_138RandomDistributionsTest_Bernoulli_TestEEE\00", align 1
@_ZTIN7testing8internal15TestFactoryImplIN12_GLOBAL__N_138RandomDistributionsTest_Bernoulli_TestEEE = internal constant { ptr, ptr, ptr } { ptr getelementptr inbounds (ptr, ptr @_ZTVN10__cxxabiv120__si_class_type_infoE, i64 2), ptr @_ZTSN7testing8internal15TestFactoryImplIN12_GLOBAL__N_138RandomDistributionsTest_Bernoulli_TestEEE, ptr @_ZTIN7testing8internal15TestFactoryBaseE }, align 8
@_ZTVN12_GLOBAL__N_138RandomDistributionsTest_Bernoulli_TestE = internal unnamed_addr constant { [8 x ptr] } { [8 x ptr] [ptr null, ptr @_ZTIN12_GLOBAL__N_138RandomDistributionsTest_Bernoulli_TestE, ptr @_ZN12_GLOBAL__N_138RandomDistributionsTest_Bernoulli_TestD2Ev, ptr @_ZN12_GLOBAL__N_138RandomDistributionsTest_Bernoulli_TestD0Ev, ptr @_ZN7testing4Test5SetUpEv, ptr @_ZN7testing4Test8TearDownEv, ptr @_ZN12_GLOBAL__N_138RandomDistributionsTest_Bernoulli_Test8TestBodyEv, ptr @_ZN7testing4Test5SetupEv] }, align 8
@_ZTSN12_GLOBAL__N_138RandomDistributionsTest_Bernoulli_TestE = internal constant [57 x i8] c"N12_GLOBAL__N_138RandomDistributionsTest_Bernoulli_TestE\00", align 1
@_ZTIN12_GLOBAL__N_138RandomDistributionsTest_Bernoulli_TestE = internal constant { ptr, ptr, ptr } { ptr getelementptr inbounds (ptr, ptr @_ZTVN10__cxxabiv120__si_class_type_infoE, i64 2), ptr @_ZTSN12_GLOBAL__N_138RandomDistributionsTest_Bernoulli_TestE, ptr @_ZTIN12_GLOBAL__N_123RandomDistributionsTestE }, align 8
@.str.104 = private unnamed_addr constant [3 x i8] c"kP\00", align 1
@.str.105 = private unnamed_addr constant [5 x i8] c"0.01\00", align 1
@_ZTVN7testing8internal15TestFactoryImplIN12_GLOBAL__N_133RandomDistributionsTest_Beta_TestEEE = internal unnamed_addr constant { [5 x ptr] } { [5 x ptr] [ptr null, ptr @_ZTIN7testing8internal15TestFactoryImplIN12_GLOBAL__N_133RandomDistributionsTest_Beta_TestEEE, ptr @_ZN7testing8internal15TestFactoryImplIN12_GLOBAL__N_133RandomDistributionsTest_Beta_TestEED2Ev, ptr @_ZN7testing8internal15TestFactoryImplIN12_GLOBAL__N_133RandomDistributionsTest_Beta_TestEED0Ev, ptr @_ZN7testing8internal15TestFactoryImplIN12_GLOBAL__N_133RandomDistributionsTest_Beta_TestEE10CreateTestEv] }, align 8
@_ZTSN7testing8internal15TestFactoryImplIN12_GLOBAL__N_133RandomDistributionsTest_Beta_TestEEE = internal constant [90 x i8] c"N7testing8internal15TestFactoryImplIN12_GLOBAL__N_133RandomDistributionsTest_Beta_TestEEE\00", align 1
@_ZTIN7testing8internal15TestFactoryImplIN12_GLOBAL__N_133RandomDistributionsTest_Beta_TestEEE = internal constant { ptr, ptr, ptr } { ptr getelementptr inbounds (ptr, ptr @_ZTVN10__cxxabiv120__si_class_type_infoE, i64 2), ptr @_ZTSN7testing8internal15TestFactoryImplIN12_GLOBAL__N_133RandomDistributionsTest_Beta_TestEEE, ptr @_ZTIN7testing8internal15TestFactoryBaseE }, align 8
@_ZTVN12_GLOBAL__N_133RandomDistributionsTest_Beta_TestE = internal unnamed_addr constant { [8 x ptr] } { [8 x ptr] [ptr null, ptr @_ZTIN12_GLOBAL__N_133RandomDistributionsTest_Beta_TestE, ptr @_ZN12_GLOBAL__N_133RandomDistributionsTest_Beta_TestD2Ev, ptr @_ZN12_GLOBAL__N_133RandomDistributionsTest_Beta_TestD0Ev, ptr @_ZN7testing4Test5SetUpEv, ptr @_ZN7testing4Test8TearDownEv, ptr @_ZN12_GLOBAL__N_133RandomDistributionsTest_Beta_Test8TestBodyEv, ptr @_ZN7testing4Test5SetupEv] }, align 8
@_ZTSN12_GLOBAL__N_133RandomDistributionsTest_Beta_TestE = internal constant [52 x i8] c"N12_GLOBAL__N_133RandomDistributionsTest_Beta_TestE\00", align 1
@_ZTIN12_GLOBAL__N_133RandomDistributionsTest_Beta_TestE = internal constant { ptr, ptr, ptr } { ptr getelementptr inbounds (ptr, ptr @_ZTVN10__cxxabiv120__si_class_type_infoE, i64 2), ptr @_ZTSN12_GLOBAL__N_133RandomDistributionsTest_Beta_TestE, ptr @_ZTIN12_GLOBAL__N_123RandomDistributionsTestE }, align 8
@.str.106 = private unnamed_addr constant [4 x i8] c"0.4\00", align 1
@_ZZN4absl17beta_distributionIdE14AlgorithmChengINS_15random_internal17NonsecureURBGBaseINS3_10pcg_engineINS3_13pcg128_paramsILm2549297995355413924ELm4865540595714422341ELm6364136223846793005ELm1442695040888963407EEENS3_17pcg_xsl_rr_128_64EEENS3_17RandenPoolSeedSeqEEEEEdRT_RKNS1_10param_typeEE8kLogFour = linkonce_odr dso_local constant double 0x3FF62E42FEFA39EF, comdat, align 8
@_ZZN4absl17beta_distributionIdE14AlgorithmChengINS_15random_internal17NonsecureURBGBaseINS3_10pcg_engineINS3_13pcg128_paramsILm2549297995355413924ELm4865540595714422341ELm6364136223846793005ELm1442695040888963407EEENS3_17pcg_xsl_rr_128_64EEENS3_17RandenPoolSeedSeqEEEEEdRT_RKNS1_10param_typeEE2kS = linkonce_odr dso_local constant double 0x4004E020FBF6C69A, comdat, align 8
@_ZTVN7testing8internal15TestFactoryImplIN12_GLOBAL__N_133RandomDistributionsTest_Zipf_TestEEE = internal unnamed_addr constant { [5 x ptr] } { [5 x ptr] [ptr null, ptr @_ZTIN7testing8internal15TestFactoryImplIN12_GLOBAL__N_133RandomDistributionsTest_Zipf_TestEEE, ptr @_ZN7testing8internal15TestFactoryImplIN12_GLOBAL__N_133RandomDistributionsTest_Zipf_TestEED2Ev, ptr @_ZN7testing8internal15TestFactoryImplIN12_GLOBAL__N_133RandomDistributionsTest_Zipf_TestEED0Ev, ptr @_ZN7testing8internal15TestFactoryImplIN12_GLOBAL__N_133RandomDistributionsTest_Zipf_TestEE10CreateTestEv] }, align 8
@_ZTSN7testing8internal15TestFactoryImplIN12_GLOBAL__N_133RandomDistributionsTest_Zipf_TestEEE = internal constant [90 x i8] c"N7testing8internal15TestFactoryImplIN12_GLOBAL__N_133RandomDistributionsTest_Zipf_TestEEE\00", align 1
@_ZTIN7testing8internal15TestFactoryImplIN12_GLOBAL__N_133RandomDistributionsTest_Zipf_TestEEE = internal constant { ptr, ptr, ptr } { ptr getelementptr inbounds (ptr, ptr @_ZTVN10__cxxabiv120__si_class_type_infoE, i64 2), ptr @_ZTSN7testing8internal15TestFactoryImplIN12_GLOBAL__N_133RandomDistributionsTest_Zipf_TestEEE, ptr @_ZTIN7testing8internal15TestFactoryBaseE }, align 8
@_ZTVN12_GLOBAL__N_133RandomDistributionsTest_Zipf_TestE = internal unnamed_addr constant { [8 x ptr] } { [8 x ptr] [ptr null, ptr @_ZTIN12_GLOBAL__N_133RandomDistributionsTest_Zipf_TestE, ptr @_ZN12_GLOBAL__N_133RandomDistributionsTest_Zipf_TestD2Ev, ptr @_ZN12_GLOBAL__N_133RandomDistributionsTest_Zipf_TestD0Ev, ptr @_ZN7testing4Test5SetUpEv, ptr @_ZN7testing4Test8TearDownEv, ptr @_ZN12_GLOBAL__N_133RandomDistributionsTest_Zipf_Test8TestBodyEv, ptr @_ZN7testing4Test5SetupEv] }, align 8
@_ZTSN12_GLOBAL__N_133RandomDistributionsTest_Zipf_TestE = internal constant [52 x i8] c"N12_GLOBAL__N_133RandomDistributionsTest_Zipf_TestE\00", align 1
@_ZTIN12_GLOBAL__N_133RandomDistributionsTest_Zipf_TestE = internal constant { ptr, ptr, ptr } { ptr getelementptr inbounds (ptr, ptr @_ZTVN10__cxxabiv120__si_class_type_infoE, i64 2), ptr @_ZTSN12_GLOBAL__N_133RandomDistributionsTest_Zipf_TestE, ptr @_ZTIN12_GLOBAL__N_123RandomDistributionsTestE }, align 8
@.str.107 = private unnamed_addr constant [7 x i8] c"6.5944\00", align 1
@.str.108 = private unnamed_addr constant [5 x i8] c"2000\00", align 1
@_ZTVN7testing8internal15TestFactoryImplIN12_GLOBAL__N_137RandomDistributionsTest_Gaussian_TestEEE = internal unnamed_addr constant { [5 x ptr] } { [5 x ptr] [ptr null, ptr @_ZTIN7testing8internal15TestFactoryImplIN12_GLOBAL__N_137RandomDistributionsTest_Gaussian_TestEEE, ptr @_ZN7testing8internal15TestFactoryImplIN12_GLOBAL__N_137RandomDistributionsTest_Gaussian_TestEED2Ev, ptr @_ZN7testing8internal15TestFactoryImplIN12_GLOBAL__N_137RandomDistributionsTest_Gaussian_TestEED0Ev, ptr @_ZN7testing8internal15TestFactoryImplIN12_GLOBAL__N_137RandomDistributionsTest_Gaussian_TestEE10CreateTestEv] }, align 8
@_ZTSN7testing8internal15TestFactoryImplIN12_GLOBAL__N_137RandomDistributionsTest_Gaussian_TestEEE = internal constant [94 x i8] c"N7testing8internal15TestFactoryImplIN12_GLOBAL__N_137RandomDistributionsTest_Gaussian_TestEEE\00", align 1
@_ZTIN7testing8internal15TestFactoryImplIN12_GLOBAL__N_137RandomDistributionsTest_Gaussian_TestEEE = internal constant { ptr, ptr, ptr } { ptr getelementptr inbounds (ptr, ptr @_ZTVN10__cxxabiv120__si_class_type_infoE, i64 2), ptr @_ZTSN7testing8internal15TestFactoryImplIN12_GLOBAL__N_137RandomDistributionsTest_Gaussian_TestEEE, ptr @_ZTIN7testing8internal15TestFactoryBaseE }, align 8
@_ZTVN12_GLOBAL__N_137RandomDistributionsTest_Gaussian_TestE = internal unnamed_addr constant { [8 x ptr] } { [8 x ptr] [ptr null, ptr @_ZTIN12_GLOBAL__N_137RandomDistributionsTest_Gaussian_TestE, ptr @_ZN12_GLOBAL__N_137RandomDistributionsTest_Gaussian_TestD2Ev, ptr @_ZN12_GLOBAL__N_137RandomDistributionsTest_Gaussian_TestD0Ev, ptr @_ZN7testing4Test5SetUpEv, ptr @_ZN7testing4Test8TearDownEv, ptr @_ZN12_GLOBAL__N_137RandomDistributionsTest_Gaussian_Test8TestBodyEv, ptr @_ZN7testing4Test5SetupEv] }, align 8
@_ZTSN12_GLOBAL__N_137RandomDistributionsTest_Gaussian_TestE = internal constant [56 x i8] c"N12_GLOBAL__N_137RandomDistributionsTest_Gaussian_TestE\00", align 1
@_ZTIN12_GLOBAL__N_137RandomDistributionsTest_Gaussian_TestE = internal constant { ptr, ptr, ptr } { ptr getelementptr inbounds (ptr, ptr @_ZTVN10__cxxabiv120__si_class_type_infoE, i64 2), ptr @_ZTSN12_GLOBAL__N_137RandomDistributionsTest_Gaussian_TestE, ptr @_ZTIN12_GLOBAL__N_123RandomDistributionsTestE }, align 8
@.str.109 = private unnamed_addr constant [5 x i8] c"0.04\00", align 1
@.str.110 = private unnamed_addr constant [4 x i8] c"0.2\00", align 1
@.str.111 = private unnamed_addr constant [4 x i8] c"3.0\00", align 1
@_ZN4absl15random_internal26gaussian_distribution_base3zg_E = external global %"struct.absl::random_internal::gaussian_distribution_base::Tables", align 8
@_ZTVN7testing8internal15TestFactoryImplIN12_GLOBAL__N_139RandomDistributionsTest_LogUniform_TestEEE = internal unnamed_addr constant { [5 x ptr] } { [5 x ptr] [ptr null, ptr @_ZTIN7testing8internal15TestFactoryImplIN12_GLOBAL__N_139RandomDistributionsTest_LogUniform_TestEEE, ptr @_ZN7testing8internal15TestFactoryImplIN12_GLOBAL__N_139RandomDistributionsTest_LogUniform_TestEED2Ev, ptr @_ZN7testing8internal15TestFactoryImplIN12_GLOBAL__N_139RandomDistributionsTest_LogUniform_TestEED0Ev, ptr @_ZN7testing8internal15TestFactoryImplIN12_GLOBAL__N_139RandomDistributionsTest_LogUniform_TestEE10CreateTestEv] }, align 8
@_ZTSN7testing8internal15TestFactoryImplIN12_GLOBAL__N_139RandomDistributionsTest_LogUniform_TestEEE = internal constant [96 x i8] c"N7testing8internal15TestFactoryImplIN12_GLOBAL__N_139RandomDistributionsTest_LogUniform_TestEEE\00", align 1
@_ZTIN7testing8internal15TestFactoryImplIN12_GLOBAL__N_139RandomDistributionsTest_LogUniform_TestEEE = internal constant { ptr, ptr, ptr } { ptr getelementptr inbounds (ptr, ptr @_ZTVN10__cxxabiv120__si_class_type_infoE, i64 2), ptr @_ZTSN7testing8internal15TestFactoryImplIN12_GLOBAL__N_139RandomDistributionsTest_LogUniform_TestEEE, ptr @_ZTIN7testing8internal15TestFactoryBaseE }, align 8
@_ZTVN12_GLOBAL__N_139RandomDistributionsTest_LogUniform_TestE = internal unnamed_addr constant { [8 x ptr] } { [8 x ptr] [ptr null, ptr @_ZTIN12_GLOBAL__N_139RandomDistributionsTest_LogUniform_TestE, ptr @_ZN12_GLOBAL__N_139RandomDistributionsTest_LogUniform_TestD2Ev, ptr @_ZN12_GLOBAL__N_139RandomDistributionsTest_LogUniform_TestD0Ev, ptr @_ZN7testing4Test5SetUpEv, ptr @_ZN7testing4Test8TearDownEv, ptr @_ZN12_GLOBAL__N_139RandomDistributionsTest_LogUniform_Test8TestBodyEv, ptr @_ZN7testing4Test5SetupEv] }, align 8
@_ZTSN12_GLOBAL__N_139RandomDistributionsTest_LogUniform_TestE = internal constant [58 x i8] c"N12_GLOBAL__N_139RandomDistributionsTest_LogUniform_TestE\00", align 1
@_ZTIN12_GLOBAL__N_139RandomDistributionsTest_LogUniform_TestE = internal constant { ptr, ptr, ptr } { ptr getelementptr inbounds (ptr, ptr @_ZTVN10__cxxabiv120__si_class_type_infoE, i64 2), ptr @_ZTSN12_GLOBAL__N_139RandomDistributionsTest_LogUniform_TestE, ptr @_ZTIN12_GLOBAL__N_123RandomDistributionsTestE }, align 8
@.str.112 = private unnamed_addr constant [5 x i8] c"mean\00", align 1
@.str.113 = private unnamed_addr constant [2 x i8] c"2\00", align 1
@_ZNSt14numeric_limitsImE6digitsE = linkonce_odr dso_local constant i32 64, comdat, align 4
@.str.114 = private unnamed_addr constant [50 x i8] c"basic_string: construction from null is not valid\00", align 1
@_ZN7testing8internal12TypeIdHelperIN12_GLOBAL__N_123RandomDistributionsTestEE6dummy_E = internal global i8 0, align 1
@.str.115 = private unnamed_addr constant [166 x i8] c"generated/home/dtcxzyw/WorkSpace/Projects/compilers/llvm-opt-benchmark/bench/abseil-cpp/bench_build/googletest-src/googletest/include/gtest/internal/gtest-internal.h\00", align 1
@.str.116 = private unnamed_addr constant [51 x i8] c"Condition !test_case_fp || !test_suite_fp failed. \00", align 1
@.str.117 = private unnamed_addr constant [107 x i8] c"Test can not provide both SetUpTestSuite and SetUpTestCase, please make sure there is only one present at \00", align 1
@.str.118 = private unnamed_addr constant [2 x i8] c":\00", align 1
@_ZSt4cerr = external global %"class.std::basic_ostream", align 8
@.str.119 = private unnamed_addr constant [112 x i8] c"Test can not provide both TearDownTestSuite and TearDownTestCase, please make sure there is only one present at\00", align 1
@llvm.global_ctors = appending global [1 x { i32, ptr, ptr }] [{ i32, ptr, ptr } { i32 65535, ptr @_GLOBAL__sub_I_distributions_test.cc, ptr null }]

; Function Attrs: uwtable
define internal void @__cxx_global_var_init() #0 section ".text.startup" {
entry:
  call void @_ZNSt8ios_base4InitC1Ev(ptr noundef nonnull align 1 dereferenceable(1) @_ZStL8__ioinit)
  %0 = call i32 @__cxa_atexit(ptr @_ZNSt8ios_base4InitD1Ev, ptr @_ZStL8__ioinit, ptr @__dso_handle) #3
  ret void
}

declare void @_ZNSt8ios_base4InitC1Ev(ptr noundef nonnull align 1 dereferenceable(1)) unnamed_addr #1

; Function Attrs: nounwind
declare void @_ZNSt8ios_base4InitD1Ev(ptr noundef nonnull align 1 dereferenceable(1)) unnamed_addr #2

; Function Attrs: nounwind
declare i32 @__cxa_atexit(ptr, ptr, ptr) #3

; Function Attrs: uwtable
define internal void @__cxx_global_var_init.1() #0 section ".text.startup" personality ptr @__gxx_personality_v0 {
entry:
  %agg.tmp = alloca %"struct.testing::internal::CodeLocation", align 8
  %ref.tmp = alloca %"class.std::__cxx11::basic_string", align 8
  %ref.tmp1 = alloca %"class.std::allocator", align 1
  %exn.slot = alloca ptr, align 8
  %ehselector.slot = alloca i32, align 4
  call void @_ZNSaIcEC1Ev(ptr noundef nonnull align 1 dereferenceable(1) %ref.tmp1) #3
  invoke void @_ZNSt7__cxx1112basic_stringIcSt11char_traitsIcESaIcEEC2IS3_EEPKcRKS3_(ptr noundef nonnull align 8 dereferenceable(32) %ref.tmp, ptr noundef @.str.3, ptr noundef nonnull align 1 dereferenceable(1) %ref.tmp1)
          to label %invoke.cont unwind label %lpad

invoke.cont:                                      ; preds = %entry
  invoke void @_ZN7testing8internal12CodeLocationC2ERKNSt7__cxx1112basic_stringIcSt11char_traitsIcESaIcEEEi(ptr noundef nonnull align 8 dereferenceable(36) %agg.tmp, ptr noundef nonnull align 8 dereferenceable(32) %ref.tmp, i32 noundef 138)
          to label %invoke.cont3 unwind label %lpad2

invoke.cont3:                                     ; preds = %invoke.cont
  %call = invoke noundef ptr @_ZN7testing8internal9GetTypeIdIN12_GLOBAL__N_123RandomDistributionsTestEEEPKvv()
          to label %invoke.cont5 unwind label %lpad4

invoke.cont5:                                     ; preds = %invoke.cont3
  %call7 = invoke noundef ptr @_ZN7testing8internal16SuiteApiResolverIN12_GLOBAL__N_123RandomDistributionsTestEE19GetSetUpCaseOrSuiteEPKci(ptr noundef @.str.3, i32 noundef 138)
          to label %invoke.cont6 unwind label %lpad4

invoke.cont6:                                     ; preds = %invoke.cont5
  %call9 = invoke noundef ptr @_ZN7testing8internal16SuiteApiResolverIN12_GLOBAL__N_123RandomDistributionsTestEE22GetTearDownCaseOrSuiteEPKci(ptr noundef @.str.3, i32 noundef 138)
          to label %invoke.cont8 unwind label %lpad4

invoke.cont8:                                     ; preds = %invoke.cont6
  %call11 = invoke noalias noundef nonnull ptr @_Znwm(i64 noundef 8) #13
          to label %invoke.cont10 unwind label %lpad4

invoke.cont10:                                    ; preds = %invoke.cont8
  invoke void @_ZN7testing8internal15TestFactoryImplIN12_GLOBAL__N_149RandomDistributionsTest_UniformTypeInference_TestEEC2Ev(ptr noundef nonnull align 8 dereferenceable(8) %call11)
          to label %invoke.cont13 unwind label %lpad12

invoke.cont13:                                    ; preds = %invoke.cont10
  %call15 = invoke noundef ptr @_ZN7testing8internal23MakeAndRegisterTestInfoEPKcS2_S2_S2_NS0_12CodeLocationEPKvPFvvES7_PNS0_15TestFactoryBaseE(ptr noundef @.str, ptr noundef @.str.2, ptr noundef null, ptr noundef null, ptr noundef %agg.tmp, ptr noundef %call, ptr noundef %call7, ptr noundef %call9, ptr noundef %call11)
          to label %invoke.cont14 unwind label %lpad4

invoke.cont14:                                    ; preds = %invoke.cont13
  call void @_ZN7testing8internal12CodeLocationD2Ev(ptr noundef nonnull align 8 dereferenceable(36) %agg.tmp) #3
  call void @_ZNSt7__cxx1112basic_stringIcSt11char_traitsIcESaIcEED1Ev(ptr noundef nonnull align 8 dereferenceable(32) %ref.tmp) #3
  call void @_ZNSaIcED1Ev(ptr noundef nonnull align 1 dereferenceable(1) %ref.tmp1) #3
  store ptr %call15, ptr @_ZN12_GLOBAL__N_149RandomDistributionsTest_UniformTypeInference_Test10test_info_E, align 8
  ret void

lpad:                                             ; preds = %entry
  %0 = landingpad { ptr, i32 }
          cleanup
  %1 = extractvalue { ptr, i32 } %0, 0
  store ptr %1, ptr %exn.slot, align 8
  %2 = extractvalue { ptr, i32 } %0, 1
  store i32 %2, ptr %ehselector.slot, align 4
  br label %ehcleanup17

lpad2:                                            ; preds = %invoke.cont
  %3 = landingpad { ptr, i32 }
          cleanup
  %4 = extractvalue { ptr, i32 } %3, 0
  store ptr %4, ptr %exn.slot, align 8
  %5 = extractvalue { ptr, i32 } %3, 1
  store i32 %5, ptr %ehselector.slot, align 4
  br label %ehcleanup16

lpad4:                                            ; preds = %invoke.cont13, %invoke.cont8, %invoke.cont6, %invoke.cont5, %invoke.cont3
  %6 = landingpad { ptr, i32 }
          cleanup
  %7 = extractvalue { ptr, i32 } %6, 0
  store ptr %7, ptr %exn.slot, align 8
  %8 = extractvalue { ptr, i32 } %6, 1
  store i32 %8, ptr %ehselector.slot, align 4
  br label %ehcleanup

lpad12:                                           ; preds = %invoke.cont10
  %9 = landingpad { ptr, i32 }
          cleanup
  %10 = extractvalue { ptr, i32 } %9, 0
  store ptr %10, ptr %exn.slot, align 8
  %11 = extractvalue { ptr, i32 } %9, 1
  store i32 %11, ptr %ehselector.slot, align 4
  call void @_ZdlPv(ptr noundef %call11) #14
  br label %ehcleanup

ehcleanup:                                        ; preds = %lpad12, %lpad4
  call void @_ZN7testing8internal12CodeLocationD2Ev(ptr noundef nonnull align 8 dereferenceable(36) %agg.tmp) #3
  br label %ehcleanup16

ehcleanup16:                                      ; preds = %ehcleanup, %lpad2
  call void @_ZNSt7__cxx1112basic_stringIcSt11char_traitsIcESaIcEED1Ev(ptr noundef nonnull align 8 dereferenceable(32) %ref.tmp) #3
  br label %ehcleanup17

ehcleanup17:                                      ; preds = %ehcleanup16, %lpad
  call void @_ZNSaIcED1Ev(ptr noundef nonnull align 1 dereferenceable(1) %ref.tmp1) #3
  br label %eh.resume

eh.resume:                                        ; preds = %ehcleanup17
  %exn = load ptr, ptr %exn.slot, align 8
  %sel = load i32, ptr %ehselector.slot, align 4
  %lpad.val = insertvalue { ptr, i32 } poison, ptr %exn, 0
  %lpad.val18 = insertvalue { ptr, i32 } %lpad.val, i32 %sel, 1
  resume { ptr, i32 } %lpad.val18
}

declare noundef ptr @_ZN7testing8internal23MakeAndRegisterTestInfoEPKcS2_S2_S2_NS0_12CodeLocationEPKvPFvvES7_PNS0_15TestFactoryBaseE(ptr noundef, ptr noundef, ptr noundef, ptr noundef, ptr noundef, ptr noundef, ptr noundef, ptr noundef, ptr noundef) #1

; Function Attrs: nounwind
declare void @_ZNSaIcEC1Ev(ptr noundef nonnull align 1 dereferenceable(1)) unnamed_addr #2

; Function Attrs: mustprogress uwtable
define linkonce_odr dso_local void @_ZNSt7__cxx1112basic_stringIcSt11char_traitsIcESaIcEEC2IS3_EEPKcRKS3_(ptr noundef nonnull align 8 dereferenceable(32) %this, ptr noundef %__s, ptr noundef nonnull align 1 dereferenceable(1) %__a) unnamed_addr #4 comdat align 2 personality ptr @__gxx_personality_v0 {
entry:
  %this.addr = alloca ptr, align 8
  %__s.addr = alloca ptr, align 8
  %__a.addr = alloca ptr, align 8
  %exn.slot = alloca ptr, align 8
  %ehselector.slot = alloca i32, align 4
  %__end = alloca ptr, align 8
  store ptr %this, ptr %this.addr, align 8
  store ptr %__s, ptr %__s.addr, align 8
  store ptr %__a, ptr %__a.addr, align 8
  %this1 = load ptr, ptr %this.addr, align 8
  %_M_dataplus = getelementptr inbounds %"class.std::__cxx11::basic_string", ptr %this1, i32 0, i32 0
  %call = call noundef ptr @_ZNSt7__cxx1112basic_stringIcSt11char_traitsIcESaIcEE13_M_local_dataEv(ptr noundef nonnull align 8 dereferenceable(32) %this1)
  %0 = load ptr, ptr %__a.addr, align 8
  call void @_ZNSt7__cxx1112basic_stringIcSt11char_traitsIcESaIcEE12_Alloc_hiderC1EPcRKS3_(ptr noundef nonnull align 8 dereferenceable(8) %_M_dataplus, ptr noundef %call, ptr noundef nonnull align 1 dereferenceable(1) %0)
  %1 = load ptr, ptr %__s.addr, align 8
  %cmp = icmp eq ptr %1, null
  br i1 %cmp, label %if.then, label %if.end

if.then:                                          ; preds = %entry
  invoke void @_ZSt19__throw_logic_errorPKc(ptr noundef @.str.114) #15
          to label %invoke.cont unwind label %lpad

invoke.cont:                                      ; preds = %if.then
  unreachable

lpad:                                             ; preds = %invoke.cont2, %if.end, %if.then
  %2 = landingpad { ptr, i32 }
          cleanup
  %3 = extractvalue { ptr, i32 } %2, 0
  store ptr %3, ptr %exn.slot, align 8
  %4 = extractvalue { ptr, i32 } %2, 1
  store i32 %4, ptr %ehselector.slot, align 4
  call void @_ZNSt7__cxx1112basic_stringIcSt11char_traitsIcESaIcEE12_Alloc_hiderD2Ev(ptr noundef nonnull align 8 dereferenceable(8) %_M_dataplus) #3
  br label %eh.resume

if.end:                                           ; preds = %entry
  %5 = load ptr, ptr %__s.addr, align 8
  %6 = load ptr, ptr %__s.addr, align 8
  %call3 = invoke noundef i64 @_ZNSt11char_traitsIcE6lengthEPKc(ptr noundef %6)
          to label %invoke.cont2 unwind label %lpad

invoke.cont2:                                     ; preds = %if.end
  %add.ptr = getelementptr inbounds i8, ptr %5, i64 %call3
  store ptr %add.ptr, ptr %__end, align 8
  %7 = load ptr, ptr %__s.addr, align 8
  %8 = load ptr, ptr %__end, align 8
  invoke void @_ZNSt7__cxx1112basic_stringIcSt11char_traitsIcESaIcEE12_M_constructIPKcEEvT_S8_St20forward_iterator_tag(ptr noundef nonnull align 8 dereferenceable(32) %this1, ptr noundef %7, ptr noundef %8)
          to label %invoke.cont4 unwind label %lpad

invoke.cont4:                                     ; preds = %invoke.cont2
  ret void

eh.resume:                                        ; preds = %lpad
  %exn = load ptr, ptr %exn.slot, align 8
  %sel = load i32, ptr %ehselector.slot, align 4
  %lpad.val = insertvalue { ptr, i32 } poison, ptr %exn, 0
  %lpad.val5 = insertvalue { ptr, i32 } %lpad.val, i32 %sel, 1
  resume { ptr, i32 } %lpad.val5
}

declare i32 @__gxx_personality_v0(...)

; Function Attrs: mustprogress uwtable
define linkonce_odr dso_local void @_ZN7testing8internal12CodeLocationC2ERKNSt7__cxx1112basic_stringIcSt11char_traitsIcESaIcEEEi(ptr noundef nonnull align 8 dereferenceable(36) %this, ptr noundef nonnull align 8 dereferenceable(32) %a_file, i32 noundef %a_line) unnamed_addr #4 comdat align 2 {
entry:
  %this.addr = alloca ptr, align 8
  %a_file.addr = alloca ptr, align 8
  %a_line.addr = alloca i32, align 4
  store ptr %this, ptr %this.addr, align 8
  store ptr %a_file, ptr %a_file.addr, align 8
  store i32 %a_line, ptr %a_line.addr, align 4
  %this1 = load ptr, ptr %this.addr, align 8
  %file = getelementptr inbounds %"struct.testing::internal::CodeLocation", ptr %this1, i32 0, i32 0
  %0 = load ptr, ptr %a_file.addr, align 8
  call void @_ZNSt7__cxx1112basic_stringIcSt11char_traitsIcESaIcEEC1ERKS4_(ptr noundef nonnull align 8 dereferenceable(32) %file, ptr noundef nonnull align 8 dereferenceable(32) %0)
  %line = getelementptr inbounds %"struct.testing::internal::CodeLocation", ptr %this1, i32 0, i32 1
  %1 = load i32, ptr %a_line.addr, align 4
  store i32 %1, ptr %line, align 8
  ret void
}

; Function Attrs: mustprogress nounwind uwtable
define internal noundef ptr @_ZN7testing8internal9GetTypeIdIN12_GLOBAL__N_123RandomDistributionsTestEEEPKvv() #5 {
entry:
  ret ptr @_ZN7testing8internal12TypeIdHelperIN12_GLOBAL__N_123RandomDistributionsTestEE6dummy_E
}

; Function Attrs: mustprogress uwtable
define internal noundef ptr @_ZN7testing8internal16SuiteApiResolverIN12_GLOBAL__N_123RandomDistributionsTestEE19GetSetUpCaseOrSuiteEPKci(ptr noundef %filename, i32 noundef %line_num) #4 align 2 personality ptr @__gxx_personality_v0 {
entry:
  %filename.addr = alloca ptr, align 8
  %line_num.addr = alloca i32, align 4
  %test_case_fp = alloca ptr, align 8
  %test_suite_fp = alloca ptr, align 8
  %ref.tmp = alloca %"class.testing::internal::GTestLog", align 4
  %exn.slot = alloca ptr, align 8
  %ehselector.slot = alloca i32, align 4
  store ptr %filename, ptr %filename.addr, align 8
  store i32 %line_num, ptr %line_num.addr, align 4
  %call = call noundef ptr @_ZN7testing8internal19GetNotDefaultOrNullEPFvvES2_(ptr noundef @_ZN7testing4Test13SetUpTestCaseEv, ptr noundef @_ZN7testing4Test13SetUpTestCaseEv)
  store ptr %call, ptr %test_case_fp, align 8
  %call1 = call noundef ptr @_ZN7testing8internal19GetNotDefaultOrNullEPFvvES2_(ptr noundef @_ZN7testing4Test14SetUpTestSuiteEv, ptr noundef @_ZN7testing4Test14SetUpTestSuiteEv)
  store ptr %call1, ptr %test_suite_fp, align 8
  %0 = load ptr, ptr %test_case_fp, align 8
  %tobool = icmp ne ptr %0, null
  br i1 %tobool, label %lor.rhs, label %lor.end

lor.rhs:                                          ; preds = %entry
  %1 = load ptr, ptr %test_suite_fp, align 8
  %tobool2 = icmp ne ptr %1, null
  %lnot = xor i1 %tobool2, true
  br label %lor.end

lor.end:                                          ; preds = %lor.rhs, %entry
  %2 = phi i1 [ true, %entry ], [ %lnot, %lor.rhs ]
  %call3 = call noundef zeroext i1 @_ZN7testing8internal6IsTrueEb(i1 noundef zeroext %2)
  br i1 %call3, label %if.then, label %if.else

if.then:                                          ; preds = %lor.end
  br label %if.end

if.else:                                          ; preds = %lor.end
  call void @_ZN7testing8internal8GTestLogC1ENS0_16GTestLogSeverityEPKci(ptr noundef nonnull align 4 dereferenceable(4) %ref.tmp, i32 noundef 3, ptr noundef @.str.115, i32 noundef 513)
  %call4 = invoke noundef nonnull align 8 dereferenceable(8) ptr @_ZN7testing8internal8GTestLog9GetStreamEv(ptr noundef nonnull align 4 dereferenceable(4) %ref.tmp)
          to label %invoke.cont unwind label %lpad

invoke.cont:                                      ; preds = %if.else
  %call6 = invoke noundef nonnull align 8 dereferenceable(8) ptr @_ZStlsISt11char_traitsIcEERSt13basic_ostreamIcT_ES5_PKc(ptr noundef nonnull align 8 dereferenceable(8) %call4, ptr noundef @.str.116)
          to label %invoke.cont5 unwind label %lpad

invoke.cont5:                                     ; preds = %invoke.cont
  %call8 = invoke noundef nonnull align 8 dereferenceable(8) ptr @_ZStlsISt11char_traitsIcEERSt13basic_ostreamIcT_ES5_PKc(ptr noundef nonnull align 8 dereferenceable(8) %call6, ptr noundef @.str.117)
          to label %invoke.cont7 unwind label %lpad

invoke.cont7:                                     ; preds = %invoke.cont5
  %3 = load ptr, ptr %filename.addr, align 8
  %call10 = invoke noundef nonnull align 8 dereferenceable(8) ptr @_ZStlsISt11char_traitsIcEERSt13basic_ostreamIcT_ES5_PKc(ptr noundef nonnull align 8 dereferenceable(8) %call8, ptr noundef %3)
          to label %invoke.cont9 unwind label %lpad

invoke.cont9:                                     ; preds = %invoke.cont7
  %call12 = invoke noundef nonnull align 8 dereferenceable(8) ptr @_ZStlsISt11char_traitsIcEERSt13basic_ostreamIcT_ES5_PKc(ptr noundef nonnull align 8 dereferenceable(8) %call10, ptr noundef @.str.118)
          to label %invoke.cont11 unwind label %lpad

invoke.cont11:                                    ; preds = %invoke.cont9
  %4 = load i32, ptr %line_num.addr, align 4
  %call14 = invoke noundef nonnull align 8 dereferenceable(8) ptr @_ZNSolsEi(ptr noundef nonnull align 8 dereferenceable(8) %call12, i32 noundef %4)
          to label %invoke.cont13 unwind label %lpad

invoke.cont13:                                    ; preds = %invoke.cont11
  call void @_ZN7testing8internal8GTestLogD1Ev(ptr noundef nonnull align 4 dereferenceable(4) %ref.tmp) #3
  br label %if.end

lpad:                                             ; preds = %invoke.cont11, %invoke.cont9, %invoke.cont7, %invoke.cont5, %invoke.cont, %if.else
  %5 = landingpad { ptr, i32 }
          cleanup
  %6 = extractvalue { ptr, i32 } %5, 0
  store ptr %6, ptr %exn.slot, align 8
  %7 = extractvalue { ptr, i32 } %5, 1
  store i32 %7, ptr %ehselector.slot, align 4
  call void @_ZN7testing8internal8GTestLogD1Ev(ptr noundef nonnull align 4 dereferenceable(4) %ref.tmp) #3
  br label %eh.resume

if.end:                                           ; preds = %invoke.cont13, %if.then
  %8 = load ptr, ptr %test_case_fp, align 8
  %cmp = icmp ne ptr %8, null
  br i1 %cmp, label %cond.true, label %cond.false

cond.true:                                        ; preds = %if.end
  %9 = load ptr, ptr %test_case_fp, align 8
  br label %cond.end

cond.false:                                       ; preds = %if.end
  %10 = load ptr, ptr %test_suite_fp, align 8
  br label %cond.end

cond.end:                                         ; preds = %cond.false, %cond.true
  %cond = phi ptr [ %9, %cond.true ], [ %10, %cond.false ]
  ret ptr %cond

eh.resume:                                        ; preds = %lpad
  %exn = load ptr, ptr %exn.slot, align 8
  %sel = load i32, ptr %ehselector.slot, align 4
  %lpad.val = insertvalue { ptr, i32 } poison, ptr %exn, 0
  %lpad.val15 = insertvalue { ptr, i32 } %lpad.val, i32 %sel, 1
  resume { ptr, i32 } %lpad.val15
}

; Function Attrs: mustprogress uwtable
define internal noundef ptr @_ZN7testing8internal16SuiteApiResolverIN12_GLOBAL__N_123RandomDistributionsTestEE22GetTearDownCaseOrSuiteEPKci(ptr noundef %filename, i32 noundef %line_num) #4 align 2 personality ptr @__gxx_personality_v0 {
entry:
  %filename.addr = alloca ptr, align 8
  %line_num.addr = alloca i32, align 4
  %test_case_fp = alloca ptr, align 8
  %test_suite_fp = alloca ptr, align 8
  %ref.tmp = alloca %"class.testing::internal::GTestLog", align 4
  %exn.slot = alloca ptr, align 8
  %ehselector.slot = alloca i32, align 4
  store ptr %filename, ptr %filename.addr, align 8
  store i32 %line_num, ptr %line_num.addr, align 4
  %call = call noundef ptr @_ZN7testing8internal19GetNotDefaultOrNullEPFvvES2_(ptr noundef @_ZN7testing4Test16TearDownTestCaseEv, ptr noundef @_ZN7testing4Test16TearDownTestCaseEv)
  store ptr %call, ptr %test_case_fp, align 8
  %call1 = call noundef ptr @_ZN7testing8internal19GetNotDefaultOrNullEPFvvES2_(ptr noundef @_ZN7testing4Test17TearDownTestSuiteEv, ptr noundef @_ZN7testing4Test17TearDownTestSuiteEv)
  store ptr %call1, ptr %test_suite_fp, align 8
  %0 = load ptr, ptr %test_case_fp, align 8
  %tobool = icmp ne ptr %0, null
  br i1 %tobool, label %lor.rhs, label %lor.end

lor.rhs:                                          ; preds = %entry
  %1 = load ptr, ptr %test_suite_fp, align 8
  %tobool2 = icmp ne ptr %1, null
  %lnot = xor i1 %tobool2, true
  br label %lor.end

lor.end:                                          ; preds = %lor.rhs, %entry
  %2 = phi i1 [ true, %entry ], [ %lnot, %lor.rhs ]
  %call3 = call noundef zeroext i1 @_ZN7testing8internal6IsTrueEb(i1 noundef zeroext %2)
  br i1 %call3, label %if.then, label %if.else

if.then:                                          ; preds = %lor.end
  br label %if.end

if.else:                                          ; preds = %lor.end
  call void @_ZN7testing8internal8GTestLogC1ENS0_16GTestLogSeverityEPKci(ptr noundef nonnull align 4 dereferenceable(4) %ref.tmp, i32 noundef 3, ptr noundef @.str.115, i32 noundef 534)
  %call4 = call noundef nonnull align 8 dereferenceable(8) ptr @_ZN7testing8internal8GTestLog9GetStreamEv(ptr noundef nonnull align 4 dereferenceable(4) %ref.tmp)
  %call5 = invoke noundef nonnull align 8 dereferenceable(8) ptr @_ZStlsISt11char_traitsIcEERSt13basic_ostreamIcT_ES5_PKc(ptr noundef nonnull align 8 dereferenceable(8) %call4, ptr noundef @.str.116)
          to label %invoke.cont unwind label %lpad

invoke.cont:                                      ; preds = %if.else
  %call7 = invoke noundef nonnull align 8 dereferenceable(8) ptr @_ZStlsISt11char_traitsIcEERSt13basic_ostreamIcT_ES5_PKc(ptr noundef nonnull align 8 dereferenceable(8) %call5, ptr noundef @.str.119)
          to label %invoke.cont6 unwind label %lpad

invoke.cont6:                                     ; preds = %invoke.cont
  %3 = load ptr, ptr %filename.addr, align 8
  %call9 = invoke noundef nonnull align 8 dereferenceable(8) ptr @_ZStlsISt11char_traitsIcEERSt13basic_ostreamIcT_ES5_PKc(ptr noundef nonnull align 8 dereferenceable(8) %call7, ptr noundef %3)
          to label %invoke.cont8 unwind label %lpad

invoke.cont8:                                     ; preds = %invoke.cont6
  %call11 = invoke noundef nonnull align 8 dereferenceable(8) ptr @_ZStlsISt11char_traitsIcEERSt13basic_ostreamIcT_ES5_PKc(ptr noundef nonnull align 8 dereferenceable(8) %call9, ptr noundef @.str.118)
          to label %invoke.cont10 unwind label %lpad

invoke.cont10:                                    ; preds = %invoke.cont8
  %4 = load i32, ptr %line_num.addr, align 4
  %call13 = invoke noundef nonnull align 8 dereferenceable(8) ptr @_ZNSolsEi(ptr noundef nonnull align 8 dereferenceable(8) %call11, i32 noundef %4)
          to label %invoke.cont12 unwind label %lpad

invoke.cont12:                                    ; preds = %invoke.cont10
  call void @_ZN7testing8internal8GTestLogD1Ev(ptr noundef nonnull align 4 dereferenceable(4) %ref.tmp) #3
  br label %if.end

lpad:                                             ; preds = %invoke.cont10, %invoke.cont8, %invoke.cont6, %invoke.cont, %if.else
  %5 = landingpad { ptr, i32 }
          cleanup
  %6 = extractvalue { ptr, i32 } %5, 0
  store ptr %6, ptr %exn.slot, align 8
  %7 = extractvalue { ptr, i32 } %5, 1
  store i32 %7, ptr %ehselector.slot, align 4
  call void @_ZN7testing8internal8GTestLogD1Ev(ptr noundef nonnull align 4 dereferenceable(4) %ref.tmp) #3
  br label %eh.resume

if.end:                                           ; preds = %invoke.cont12, %if.then
  %8 = load ptr, ptr %test_case_fp, align 8
  %cmp = icmp ne ptr %8, null
  br i1 %cmp, label %cond.true, label %cond.false

cond.true:                                        ; preds = %if.end
  %9 = load ptr, ptr %test_case_fp, align 8
  br label %cond.end

cond.false:                                       ; preds = %if.end
  %10 = load ptr, ptr %test_suite_fp, align 8
  br label %cond.end

cond.end:                                         ; preds = %cond.false, %cond.true
  %cond = phi ptr [ %9, %cond.true ], [ %10, %cond.false ]
  ret ptr %cond

eh.resume:                                        ; preds = %lpad
  %exn = load ptr, ptr %exn.slot, align 8
  %sel = load i32, ptr %ehselector.slot, align 4
  %lpad.val = insertvalue { ptr, i32 } poison, ptr %exn, 0
  %lpad.val14 = insertvalue { ptr, i32 } %lpad.val, i32 %sel, 1
  resume { ptr, i32 } %lpad.val14
}

; Function Attrs: nobuiltin allocsize(0)
declare noundef nonnull ptr @_Znwm(i64 noundef) #6

; Function Attrs: mustprogress uwtable
define internal void @_ZN7testing8internal15TestFactoryImplIN12_GLOBAL__N_149RandomDistributionsTest_UniformTypeInference_TestEEC2Ev(ptr noundef nonnull align 8 dereferenceable(8) %this) unnamed_addr #4 align 2 {
entry:
  %this.addr = alloca ptr, align 8
  store ptr %this, ptr %this.addr, align 8
  %this1 = load ptr, ptr %this.addr, align 8
  call void @_ZN7testing8internal15TestFactoryBaseC2Ev(ptr noundef nonnull align 8 dereferenceable(8) %this1)
  store ptr getelementptr inbounds ({ [5 x ptr] }, ptr @_ZTVN7testing8internal15TestFactoryImplIN12_GLOBAL__N_149RandomDistributionsTest_UniformTypeInference_TestEEE, i32 0, inrange i32 0, i32 2), ptr %this1, align 8
  ret void
}

; Function Attrs: nobuiltin nounwind
declare void @_ZdlPv(ptr noundef) #7

; Function Attrs: mustprogress nounwind uwtable
define linkonce_odr dso_local void @_ZN7testing8internal12CodeLocationD2Ev(ptr noundef nonnull align 8 dereferenceable(36) %this) unnamed_addr #5 comdat align 2 {
entry:
  %this.addr = alloca ptr, align 8
  store ptr %this, ptr %this.addr, align 8
  %this1 = load ptr, ptr %this.addr, align 8
  %file = getelementptr inbounds %"struct.testing::internal::CodeLocation", ptr %this1, i32 0, i32 0
  call void @_ZNSt7__cxx1112basic_stringIcSt11char_traitsIcESaIcEED1Ev(ptr noundef nonnull align 8 dereferenceable(32) %file) #3
  ret void
}

; Function Attrs: nounwind
declare void @_ZNSt7__cxx1112basic_stringIcSt11char_traitsIcESaIcEED1Ev(ptr noundef nonnull align 8 dereferenceable(32)) unnamed_addr #2

; Function Attrs: nounwind
declare void @_ZNSaIcED1Ev(ptr noundef nonnull align 1 dereferenceable(1)) unnamed_addr #2

; Function Attrs: uwtable
define internal void @__cxx_global_var_init.4() #0 section ".text.startup" personality ptr @__gxx_personality_v0 {
entry:
  %agg.tmp = alloca %"struct.testing::internal::CodeLocation", align 8
  %ref.tmp = alloca %"class.std::__cxx11::basic_string", align 8
  %ref.tmp1 = alloca %"class.std::allocator", align 1
  %exn.slot = alloca ptr, align 8
  %ehselector.slot = alloca i32, align 4
  call void @_ZNSaIcEC1Ev(ptr noundef nonnull align 1 dereferenceable(1) %ref.tmp1) #3
  invoke void @_ZNSt7__cxx1112basic_stringIcSt11char_traitsIcESaIcEEC2IS3_EEPKcRKS3_(ptr noundef nonnull align 8 dereferenceable(32) %ref.tmp, ptr noundef @.str.3, ptr noundef nonnull align 1 dereferenceable(1) %ref.tmp1)
          to label %invoke.cont unwind label %lpad

invoke.cont:                                      ; preds = %entry
  invoke void @_ZN7testing8internal12CodeLocationC2ERKNSt7__cxx1112basic_stringIcSt11char_traitsIcESaIcEEEi(ptr noundef nonnull align 8 dereferenceable(36) %agg.tmp, ptr noundef nonnull align 8 dereferenceable(32) %ref.tmp, i32 noundef 202)
          to label %invoke.cont3 unwind label %lpad2

invoke.cont3:                                     ; preds = %invoke.cont
  %call = invoke noundef ptr @_ZN7testing8internal9GetTypeIdIN12_GLOBAL__N_123RandomDistributionsTestEEEPKvv()
          to label %invoke.cont5 unwind label %lpad4

invoke.cont5:                                     ; preds = %invoke.cont3
  %call7 = invoke noundef ptr @_ZN7testing8internal16SuiteApiResolverIN12_GLOBAL__N_123RandomDistributionsTestEE19GetSetUpCaseOrSuiteEPKci(ptr noundef @.str.3, i32 noundef 202)
          to label %invoke.cont6 unwind label %lpad4

invoke.cont6:                                     ; preds = %invoke.cont5
  %call9 = invoke noundef ptr @_ZN7testing8internal16SuiteApiResolverIN12_GLOBAL__N_123RandomDistributionsTestEE22GetTearDownCaseOrSuiteEPKci(ptr noundef @.str.3, i32 noundef 202)
          to label %invoke.cont8 unwind label %lpad4

invoke.cont8:                                     ; preds = %invoke.cont6
  %call11 = invoke noalias noundef nonnull ptr @_Znwm(i64 noundef 8) #13
          to label %invoke.cont10 unwind label %lpad4

invoke.cont10:                                    ; preds = %invoke.cont8
  invoke void @_ZN7testing8internal15TestFactoryImplIN12_GLOBAL__N_144RandomDistributionsTest_UniformExamples_TestEEC2Ev(ptr noundef nonnull align 8 dereferenceable(8) %call11)
          to label %invoke.cont13 unwind label %lpad12

invoke.cont13:                                    ; preds = %invoke.cont10
  %call15 = invoke noundef ptr @_ZN7testing8internal23MakeAndRegisterTestInfoEPKcS2_S2_S2_NS0_12CodeLocationEPKvPFvvES7_PNS0_15TestFactoryBaseE(ptr noundef @.str, ptr noundef @.str.5, ptr noundef null, ptr noundef null, ptr noundef %agg.tmp, ptr noundef %call, ptr noundef %call7, ptr noundef %call9, ptr noundef %call11)
          to label %invoke.cont14 unwind label %lpad4

invoke.cont14:                                    ; preds = %invoke.cont13
  call void @_ZN7testing8internal12CodeLocationD2Ev(ptr noundef nonnull align 8 dereferenceable(36) %agg.tmp) #3
  call void @_ZNSt7__cxx1112basic_stringIcSt11char_traitsIcESaIcEED1Ev(ptr noundef nonnull align 8 dereferenceable(32) %ref.tmp) #3
  call void @_ZNSaIcED1Ev(ptr noundef nonnull align 1 dereferenceable(1) %ref.tmp1) #3
  store ptr %call15, ptr @_ZN12_GLOBAL__N_144RandomDistributionsTest_UniformExamples_Test10test_info_E, align 8
  ret void

lpad:                                             ; preds = %entry
  %0 = landingpad { ptr, i32 }
          cleanup
  %1 = extractvalue { ptr, i32 } %0, 0
  store ptr %1, ptr %exn.slot, align 8
  %2 = extractvalue { ptr, i32 } %0, 1
  store i32 %2, ptr %ehselector.slot, align 4
  br label %ehcleanup17

lpad2:                                            ; preds = %invoke.cont
  %3 = landingpad { ptr, i32 }
          cleanup
  %4 = extractvalue { ptr, i32 } %3, 0
  store ptr %4, ptr %exn.slot, align 8
  %5 = extractvalue { ptr, i32 } %3, 1
  store i32 %5, ptr %ehselector.slot, align 4
  br label %ehcleanup16

lpad4:                                            ; preds = %invoke.cont13, %invoke.cont8, %invoke.cont6, %invoke.cont5, %invoke.cont3
  %6 = landingpad { ptr, i32 }
          cleanup
  %7 = extractvalue { ptr, i32 } %6, 0
  store ptr %7, ptr %exn.slot, align 8
  %8 = extractvalue { ptr, i32 } %6, 1
  store i32 %8, ptr %ehselector.slot, align 4
  br label %ehcleanup

lpad12:                                           ; preds = %invoke.cont10
  %9 = landingpad { ptr, i32 }
          cleanup
  %10 = extractvalue { ptr, i32 } %9, 0
  store ptr %10, ptr %exn.slot, align 8
  %11 = extractvalue { ptr, i32 } %9, 1
  store i32 %11, ptr %ehselector.slot, align 4
  call void @_ZdlPv(ptr noundef %call11) #14
  br label %ehcleanup

ehcleanup:                                        ; preds = %lpad12, %lpad4
  call void @_ZN7testing8internal12CodeLocationD2Ev(ptr noundef nonnull align 8 dereferenceable(36) %agg.tmp) #3
  br label %ehcleanup16

ehcleanup16:                                      ; preds = %ehcleanup, %lpad2
  call void @_ZNSt7__cxx1112basic_stringIcSt11char_traitsIcESaIcEED1Ev(ptr noundef nonnull align 8 dereferenceable(32) %ref.tmp) #3
  br label %ehcleanup17

ehcleanup17:                                      ; preds = %ehcleanup16, %lpad
  call void @_ZNSaIcED1Ev(ptr noundef nonnull align 1 dereferenceable(1) %ref.tmp1) #3
  br label %eh.resume

eh.resume:                                        ; preds = %ehcleanup17
  %exn = load ptr, ptr %exn.slot, align 8
  %sel = load i32, ptr %ehselector.slot, align 4
  %lpad.val = insertvalue { ptr, i32 } poison, ptr %exn, 0
  %lpad.val18 = insertvalue { ptr, i32 } %lpad.val, i32 %sel, 1
  resume { ptr, i32 } %lpad.val18
}

; Function Attrs: mustprogress nounwind uwtable
define internal void @_ZN7testing8internal15TestFactoryImplIN12_GLOBAL__N_144RandomDistributionsTest_UniformExamples_TestEEC2Ev(ptr noundef nonnull align 8 dereferenceable(8) %this) unnamed_addr #5 align 2 {
entry:
  %this.addr = alloca ptr, align 8
  store ptr %this, ptr %this.addr, align 8
  %this1 = load ptr, ptr %this.addr, align 8
  call void @_ZN7testing8internal15TestFactoryBaseC2Ev(ptr noundef nonnull align 8 dereferenceable(8) %this1)
  store ptr getelementptr inbounds ({ [5 x ptr] }, ptr @_ZTVN7testing8internal15TestFactoryImplIN12_GLOBAL__N_144RandomDistributionsTest_UniformExamples_TestEEE, i32 0, inrange i32 0, i32 2), ptr %this1, align 8
  ret void
}

; Function Attrs: uwtable
define internal void @__cxx_global_var_init.6() #0 section ".text.startup" personality ptr @__gxx_personality_v0 {
entry:
  %agg.tmp = alloca %"struct.testing::internal::CodeLocation", align 8
  %ref.tmp = alloca %"class.std::__cxx11::basic_string", align 8
  %ref.tmp1 = alloca %"class.std::allocator", align 1
  %exn.slot = alloca ptr, align 8
  %ehselector.slot = alloca i32, align 4
  call void @_ZNSaIcEC1Ev(ptr noundef nonnull align 1 dereferenceable(1) %ref.tmp1) #3
  invoke void @_ZNSt7__cxx1112basic_stringIcSt11char_traitsIcESaIcEEC2IS3_EEPKcRKS3_(ptr noundef nonnull align 8 dereferenceable(32) %ref.tmp, ptr noundef @.str.3, ptr noundef nonnull align 1 dereferenceable(1) %ref.tmp1)
          to label %invoke.cont unwind label %lpad

invoke.cont:                                      ; preds = %entry
  invoke void @_ZN7testing8internal12CodeLocationC2ERKNSt7__cxx1112basic_stringIcSt11char_traitsIcESaIcEEEi(ptr noundef nonnull align 8 dereferenceable(36) %agg.tmp, ptr noundef nonnull align 8 dereferenceable(32) %ref.tmp, i32 noundef 216)
          to label %invoke.cont3 unwind label %lpad2

invoke.cont3:                                     ; preds = %invoke.cont
  %call = invoke noundef ptr @_ZN7testing8internal9GetTypeIdIN12_GLOBAL__N_123RandomDistributionsTestEEEPKvv()
          to label %invoke.cont5 unwind label %lpad4

invoke.cont5:                                     ; preds = %invoke.cont3
  %call7 = invoke noundef ptr @_ZN7testing8internal16SuiteApiResolverIN12_GLOBAL__N_123RandomDistributionsTestEE19GetSetUpCaseOrSuiteEPKci(ptr noundef @.str.3, i32 noundef 216)
          to label %invoke.cont6 unwind label %lpad4

invoke.cont6:                                     ; preds = %invoke.cont5
  %call9 = invoke noundef ptr @_ZN7testing8internal16SuiteApiResolverIN12_GLOBAL__N_123RandomDistributionsTestEE22GetTearDownCaseOrSuiteEPKci(ptr noundef @.str.3, i32 noundef 216)
          to label %invoke.cont8 unwind label %lpad4

invoke.cont8:                                     ; preds = %invoke.cont6
  %call11 = invoke noalias noundef nonnull ptr @_Znwm(i64 noundef 8) #13
          to label %invoke.cont10 unwind label %lpad4

invoke.cont10:                                    ; preds = %invoke.cont8
  invoke void @_ZN7testing8internal15TestFactoryImplIN12_GLOBAL__N_144RandomDistributionsTest_UniformNoBounds_TestEEC2Ev(ptr noundef nonnull align 8 dereferenceable(8) %call11)
          to label %invoke.cont13 unwind label %lpad12

invoke.cont13:                                    ; preds = %invoke.cont10
  %call15 = invoke noundef ptr @_ZN7testing8internal23MakeAndRegisterTestInfoEPKcS2_S2_S2_NS0_12CodeLocationEPKvPFvvES7_PNS0_15TestFactoryBaseE(ptr noundef @.str, ptr noundef @.str.7, ptr noundef null, ptr noundef null, ptr noundef %agg.tmp, ptr noundef %call, ptr noundef %call7, ptr noundef %call9, ptr noundef %call11)
          to label %invoke.cont14 unwind label %lpad4

invoke.cont14:                                    ; preds = %invoke.cont13
  call void @_ZN7testing8internal12CodeLocationD2Ev(ptr noundef nonnull align 8 dereferenceable(36) %agg.tmp) #3
  call void @_ZNSt7__cxx1112basic_stringIcSt11char_traitsIcESaIcEED1Ev(ptr noundef nonnull align 8 dereferenceable(32) %ref.tmp) #3
  call void @_ZNSaIcED1Ev(ptr noundef nonnull align 1 dereferenceable(1) %ref.tmp1) #3
  store ptr %call15, ptr @_ZN12_GLOBAL__N_144RandomDistributionsTest_UniformNoBounds_Test10test_info_E, align 8
  ret void

lpad:                                             ; preds = %entry
  %0 = landingpad { ptr, i32 }
          cleanup
  %1 = extractvalue { ptr, i32 } %0, 0
  store ptr %1, ptr %exn.slot, align 8
  %2 = extractvalue { ptr, i32 } %0, 1
  store i32 %2, ptr %ehselector.slot, align 4
  br label %ehcleanup17

lpad2:                                            ; preds = %invoke.cont
  %3 = landingpad { ptr, i32 }
          cleanup
  %4 = extractvalue { ptr, i32 } %3, 0
  store ptr %4, ptr %exn.slot, align 8
  %5 = extractvalue { ptr, i32 } %3, 1
  store i32 %5, ptr %ehselector.slot, align 4
  br label %ehcleanup16

lpad4:                                            ; preds = %invoke.cont13, %invoke.cont8, %invoke.cont6, %invoke.cont5, %invoke.cont3
  %6 = landingpad { ptr, i32 }
          cleanup
  %7 = extractvalue { ptr, i32 } %6, 0
  store ptr %7, ptr %exn.slot, align 8
  %8 = extractvalue { ptr, i32 } %6, 1
  store i32 %8, ptr %ehselector.slot, align 4
  br label %ehcleanup

lpad12:                                           ; preds = %invoke.cont10
  %9 = landingpad { ptr, i32 }
          cleanup
  %10 = extractvalue { ptr, i32 } %9, 0
  store ptr %10, ptr %exn.slot, align 8
  %11 = extractvalue { ptr, i32 } %9, 1
  store i32 %11, ptr %ehselector.slot, align 4
  call void @_ZdlPv(ptr noundef %call11) #14
  br label %ehcleanup

ehcleanup:                                        ; preds = %lpad12, %lpad4
  call void @_ZN7testing8internal12CodeLocationD2Ev(ptr noundef nonnull align 8 dereferenceable(36) %agg.tmp) #3
  br label %ehcleanup16

ehcleanup16:                                      ; preds = %ehcleanup, %lpad2
  call void @_ZNSt7__cxx1112basic_stringIcSt11char_traitsIcESaIcEED1Ev(ptr noundef nonnull align 8 dereferenceable(32) %ref.tmp) #3
  br label %ehcleanup17

ehcleanup17:                                      ; preds = %ehcleanup16, %lpad
  call void @_ZNSaIcED1Ev(ptr noundef nonnull align 1 dereferenceable(1) %ref.tmp1) #3
  br label %eh.resume

eh.resume:                                        ; preds = %ehcleanup17
  %exn = load ptr, ptr %exn.slot, align 8
  %sel = load i32, ptr %ehselector.slot, align 4
  %lpad.val = insertvalue { ptr, i32 } poison, ptr %exn, 0
  %lpad.val18 = insertvalue { ptr, i32 } %lpad.val, i32 %sel, 1
  resume { ptr, i32 } %lpad.val18
}

; Function Attrs: mustprogress nounwind uwtable
define internal void @_ZN7testing8internal15TestFactoryImplIN12_GLOBAL__N_144RandomDistributionsTest_UniformNoBounds_TestEEC2Ev(ptr noundef nonnull align 8 dereferenceable(8) %this) unnamed_addr #5 align 2 {
entry:
  %this.addr = alloca ptr, align 8
  store ptr %this, ptr %this.addr, align 8
  %this1 = load ptr, ptr %this.addr, align 8
  call void @_ZN7testing8internal15TestFactoryBaseC2Ev(ptr noundef nonnull align 8 dereferenceable(8) %this1)
  store ptr getelementptr inbounds ({ [5 x ptr] }, ptr @_ZTVN7testing8internal15TestFactoryImplIN12_GLOBAL__N_144RandomDistributionsTest_UniformNoBounds_TestEEE, i32 0, inrange i32 0, i32 2), ptr %this1, align 8
  ret void
}

; Function Attrs: uwtable
define internal void @__cxx_global_var_init.8() #0 section ".text.startup" personality ptr @__gxx_personality_v0 {
entry:
  %agg.tmp = alloca %"struct.testing::internal::CodeLocation", align 8
  %ref.tmp = alloca %"class.std::__cxx11::basic_string", align 8
  %ref.tmp1 = alloca %"class.std::allocator", align 1
  %exn.slot = alloca ptr, align 8
  %ehselector.slot = alloca i32, align 4
  call void @_ZNSaIcEC1Ev(ptr noundef nonnull align 1 dereferenceable(1) %ref.tmp1) #3
  invoke void @_ZNSt7__cxx1112basic_stringIcSt11char_traitsIcESaIcEEC2IS3_EEPKcRKS3_(ptr noundef nonnull align 8 dereferenceable(32) %ref.tmp, ptr noundef @.str.3, ptr noundef nonnull align 1 dereferenceable(1) %ref.tmp1)
          to label %invoke.cont unwind label %lpad

invoke.cont:                                      ; preds = %entry
  invoke void @_ZN7testing8internal12CodeLocationC2ERKNSt7__cxx1112basic_stringIcSt11char_traitsIcESaIcEEEi(ptr noundef nonnull align 8 dereferenceable(36) %agg.tmp, ptr noundef nonnull align 8 dereferenceable(32) %ref.tmp, i32 noundef 226)
          to label %invoke.cont3 unwind label %lpad2

invoke.cont3:                                     ; preds = %invoke.cont
  %call = invoke noundef ptr @_ZN7testing8internal9GetTypeIdIN12_GLOBAL__N_123RandomDistributionsTestEEEPKvv()
          to label %invoke.cont5 unwind label %lpad4

invoke.cont5:                                     ; preds = %invoke.cont3
  %call7 = invoke noundef ptr @_ZN7testing8internal16SuiteApiResolverIN12_GLOBAL__N_123RandomDistributionsTestEE19GetSetUpCaseOrSuiteEPKci(ptr noundef @.str.3, i32 noundef 226)
          to label %invoke.cont6 unwind label %lpad4

invoke.cont6:                                     ; preds = %invoke.cont5
  %call9 = invoke noundef ptr @_ZN7testing8internal16SuiteApiResolverIN12_GLOBAL__N_123RandomDistributionsTestEE22GetTearDownCaseOrSuiteEPKci(ptr noundef @.str.3, i32 noundef 226)
          to label %invoke.cont8 unwind label %lpad4

invoke.cont8:                                     ; preds = %invoke.cont6
  %call11 = invoke noalias noundef nonnull ptr @_Znwm(i64 noundef 8) #13
          to label %invoke.cont10 unwind label %lpad4

invoke.cont10:                                    ; preds = %invoke.cont8
  invoke void @_ZN7testing8internal15TestFactoryImplIN12_GLOBAL__N_150RandomDistributionsTest_UniformNonsenseRanges_TestEEC2Ev(ptr noundef nonnull align 8 dereferenceable(8) %call11)
          to label %invoke.cont13 unwind label %lpad12

invoke.cont13:                                    ; preds = %invoke.cont10
  %call15 = invoke noundef ptr @_ZN7testing8internal23MakeAndRegisterTestInfoEPKcS2_S2_S2_NS0_12CodeLocationEPKvPFvvES7_PNS0_15TestFactoryBaseE(ptr noundef @.str, ptr noundef @.str.9, ptr noundef null, ptr noundef null, ptr noundef %agg.tmp, ptr noundef %call, ptr noundef %call7, ptr noundef %call9, ptr noundef %call11)
          to label %invoke.cont14 unwind label %lpad4

invoke.cont14:                                    ; preds = %invoke.cont13
  call void @_ZN7testing8internal12CodeLocationD2Ev(ptr noundef nonnull align 8 dereferenceable(36) %agg.tmp) #3
  call void @_ZNSt7__cxx1112basic_stringIcSt11char_traitsIcESaIcEED1Ev(ptr noundef nonnull align 8 dereferenceable(32) %ref.tmp) #3
  call void @_ZNSaIcED1Ev(ptr noundef nonnull align 1 dereferenceable(1) %ref.tmp1) #3
  store ptr %call15, ptr @_ZN12_GLOBAL__N_150RandomDistributionsTest_UniformNonsenseRanges_Test10test_info_E, align 8
  ret void

lpad:                                             ; preds = %entry
  %0 = landingpad { ptr, i32 }
          cleanup
  %1 = extractvalue { ptr, i32 } %0, 0
  store ptr %1, ptr %exn.slot, align 8
  %2 = extractvalue { ptr, i32 } %0, 1
  store i32 %2, ptr %ehselector.slot, align 4
  br label %ehcleanup17

lpad2:                                            ; preds = %invoke.cont
  %3 = landingpad { ptr, i32 }
          cleanup
  %4 = extractvalue { ptr, i32 } %3, 0
  store ptr %4, ptr %exn.slot, align 8
  %5 = extractvalue { ptr, i32 } %3, 1
  store i32 %5, ptr %ehselector.slot, align 4
  br label %ehcleanup16

lpad4:                                            ; preds = %invoke.cont13, %invoke.cont8, %invoke.cont6, %invoke.cont5, %invoke.cont3
  %6 = landingpad { ptr, i32 }
          cleanup
  %7 = extractvalue { ptr, i32 } %6, 0
  store ptr %7, ptr %exn.slot, align 8
  %8 = extractvalue { ptr, i32 } %6, 1
  store i32 %8, ptr %ehselector.slot, align 4
  br label %ehcleanup

lpad12:                                           ; preds = %invoke.cont10
  %9 = landingpad { ptr, i32 }
          cleanup
  %10 = extractvalue { ptr, i32 } %9, 0
  store ptr %10, ptr %exn.slot, align 8
  %11 = extractvalue { ptr, i32 } %9, 1
  store i32 %11, ptr %ehselector.slot, align 4
  call void @_ZdlPv(ptr noundef %call11) #14
  br label %ehcleanup

ehcleanup:                                        ; preds = %lpad12, %lpad4
  call void @_ZN7testing8internal12CodeLocationD2Ev(ptr noundef nonnull align 8 dereferenceable(36) %agg.tmp) #3
  br label %ehcleanup16

ehcleanup16:                                      ; preds = %ehcleanup, %lpad2
  call void @_ZNSt7__cxx1112basic_stringIcSt11char_traitsIcESaIcEED1Ev(ptr noundef nonnull align 8 dereferenceable(32) %ref.tmp) #3
  br label %ehcleanup17

ehcleanup17:                                      ; preds = %ehcleanup16, %lpad
  call void @_ZNSaIcED1Ev(ptr noundef nonnull align 1 dereferenceable(1) %ref.tmp1) #3
  br label %eh.resume

eh.resume:                                        ; preds = %ehcleanup17
  %exn = load ptr, ptr %exn.slot, align 8
  %sel = load i32, ptr %ehselector.slot, align 4
  %lpad.val = insertvalue { ptr, i32 } poison, ptr %exn, 0
  %lpad.val18 = insertvalue { ptr, i32 } %lpad.val, i32 %sel, 1
  resume { ptr, i32 } %lpad.val18
}

; Function Attrs: mustprogress nounwind uwtable
define internal void @_ZN7testing8internal15TestFactoryImplIN12_GLOBAL__N_150RandomDistributionsTest_UniformNonsenseRanges_TestEEC2Ev(ptr noundef nonnull align 8 dereferenceable(8) %this) unnamed_addr #5 align 2 {
entry:
  %this.addr = alloca ptr, align 8
  store ptr %this, ptr %this.addr, align 8
  %this1 = load ptr, ptr %this.addr, align 8
  call void @_ZN7testing8internal15TestFactoryBaseC2Ev(ptr noundef nonnull align 8 dereferenceable(8) %this1)
  store ptr getelementptr inbounds ({ [5 x ptr] }, ptr @_ZTVN7testing8internal15TestFactoryImplIN12_GLOBAL__N_150RandomDistributionsTest_UniformNonsenseRanges_TestEEE, i32 0, inrange i32 0, i32 2), ptr %this1, align 8
  ret void
}

; Function Attrs: uwtable
define internal void @__cxx_global_var_init.10() #0 section ".text.startup" personality ptr @__gxx_personality_v0 {
entry:
  %agg.tmp = alloca %"struct.testing::internal::CodeLocation", align 8
  %ref.tmp = alloca %"class.std::__cxx11::basic_string", align 8
  %ref.tmp1 = alloca %"class.std::allocator", align 1
  %exn.slot = alloca ptr, align 8
  %ehselector.slot = alloca i32, align 4
  call void @_ZNSaIcEC1Ev(ptr noundef nonnull align 1 dereferenceable(1) %ref.tmp1) #3
  invoke void @_ZNSt7__cxx1112basic_stringIcSt11char_traitsIcESaIcEEC2IS3_EEPKcRKS3_(ptr noundef nonnull align 8 dereferenceable(32) %ref.tmp, ptr noundef @.str.3, ptr noundef nonnull align 1 dereferenceable(1) %ref.tmp1)
          to label %invoke.cont unwind label %lpad

invoke.cont:                                      ; preds = %entry
  invoke void @_ZN7testing8internal12CodeLocationC2ERKNSt7__cxx1112basic_stringIcSt11char_traitsIcESaIcEEEi(ptr noundef nonnull align 8 dereferenceable(36) %agg.tmp, ptr noundef nonnull align 8 dereferenceable(32) %ref.tmp, i32 noundef 288)
          to label %invoke.cont3 unwind label %lpad2

invoke.cont3:                                     ; preds = %invoke.cont
  %call = invoke noundef ptr @_ZN7testing8internal9GetTypeIdIN12_GLOBAL__N_123RandomDistributionsTestEEEPKvv()
          to label %invoke.cont5 unwind label %lpad4

invoke.cont5:                                     ; preds = %invoke.cont3
  %call7 = invoke noundef ptr @_ZN7testing8internal16SuiteApiResolverIN12_GLOBAL__N_123RandomDistributionsTestEE19GetSetUpCaseOrSuiteEPKci(ptr noundef @.str.3, i32 noundef 288)
          to label %invoke.cont6 unwind label %lpad4

invoke.cont6:                                     ; preds = %invoke.cont5
  %call9 = invoke noundef ptr @_ZN7testing8internal16SuiteApiResolverIN12_GLOBAL__N_123RandomDistributionsTestEE22GetTearDownCaseOrSuiteEPKci(ptr noundef @.str.3, i32 noundef 288)
          to label %invoke.cont8 unwind label %lpad4

invoke.cont8:                                     ; preds = %invoke.cont6
  %call11 = invoke noalias noundef nonnull ptr @_Znwm(i64 noundef 8) #13
          to label %invoke.cont10 unwind label %lpad4

invoke.cont10:                                    ; preds = %invoke.cont8
  invoke void @_ZN7testing8internal15TestFactoryImplIN12_GLOBAL__N_140RandomDistributionsTest_UniformReal_TestEEC2Ev(ptr noundef nonnull align 8 dereferenceable(8) %call11)
          to label %invoke.cont13 unwind label %lpad12

invoke.cont13:                                    ; preds = %invoke.cont10
  %call15 = invoke noundef ptr @_ZN7testing8internal23MakeAndRegisterTestInfoEPKcS2_S2_S2_NS0_12CodeLocationEPKvPFvvES7_PNS0_15TestFactoryBaseE(ptr noundef @.str, ptr noundef @.str.11, ptr noundef null, ptr noundef null, ptr noundef %agg.tmp, ptr noundef %call, ptr noundef %call7, ptr noundef %call9, ptr noundef %call11)
          to label %invoke.cont14 unwind label %lpad4

invoke.cont14:                                    ; preds = %invoke.cont13
  call void @_ZN7testing8internal12CodeLocationD2Ev(ptr noundef nonnull align 8 dereferenceable(36) %agg.tmp) #3
  call void @_ZNSt7__cxx1112basic_stringIcSt11char_traitsIcESaIcEED1Ev(ptr noundef nonnull align 8 dereferenceable(32) %ref.tmp) #3
  call void @_ZNSaIcED1Ev(ptr noundef nonnull align 1 dereferenceable(1) %ref.tmp1) #3
  store ptr %call15, ptr @_ZN12_GLOBAL__N_140RandomDistributionsTest_UniformReal_Test10test_info_E, align 8
  ret void

lpad:                                             ; preds = %entry
  %0 = landingpad { ptr, i32 }
          cleanup
  %1 = extractvalue { ptr, i32 } %0, 0
  store ptr %1, ptr %exn.slot, align 8
  %2 = extractvalue { ptr, i32 } %0, 1
  store i32 %2, ptr %ehselector.slot, align 4
  br label %ehcleanup17

lpad2:                                            ; preds = %invoke.cont
  %3 = landingpad { ptr, i32 }
          cleanup
  %4 = extractvalue { ptr, i32 } %3, 0
  store ptr %4, ptr %exn.slot, align 8
  %5 = extractvalue { ptr, i32 } %3, 1
  store i32 %5, ptr %ehselector.slot, align 4
  br label %ehcleanup16

lpad4:                                            ; preds = %invoke.cont13, %invoke.cont8, %invoke.cont6, %invoke.cont5, %invoke.cont3
  %6 = landingpad { ptr, i32 }
          cleanup
  %7 = extractvalue { ptr, i32 } %6, 0
  store ptr %7, ptr %exn.slot, align 8
  %8 = extractvalue { ptr, i32 } %6, 1
  store i32 %8, ptr %ehselector.slot, align 4
  br label %ehcleanup

lpad12:                                           ; preds = %invoke.cont10
  %9 = landingpad { ptr, i32 }
          cleanup
  %10 = extractvalue { ptr, i32 } %9, 0
  store ptr %10, ptr %exn.slot, align 8
  %11 = extractvalue { ptr, i32 } %9, 1
  store i32 %11, ptr %ehselector.slot, align 4
  call void @_ZdlPv(ptr noundef %call11) #14
  br label %ehcleanup

ehcleanup:                                        ; preds = %lpad12, %lpad4
  call void @_ZN7testing8internal12CodeLocationD2Ev(ptr noundef nonnull align 8 dereferenceable(36) %agg.tmp) #3
  br label %ehcleanup16

ehcleanup16:                                      ; preds = %ehcleanup, %lpad2
  call void @_ZNSt7__cxx1112basic_stringIcSt11char_traitsIcESaIcEED1Ev(ptr noundef nonnull align 8 dereferenceable(32) %ref.tmp) #3
  br label %ehcleanup17

ehcleanup17:                                      ; preds = %ehcleanup16, %lpad
  call void @_ZNSaIcED1Ev(ptr noundef nonnull align 1 dereferenceable(1) %ref.tmp1) #3
  br label %eh.resume

eh.resume:                                        ; preds = %ehcleanup17
  %exn = load ptr, ptr %exn.slot, align 8
  %sel = load i32, ptr %ehselector.slot, align 4
  %lpad.val = insertvalue { ptr, i32 } poison, ptr %exn, 0
  %lpad.val18 = insertvalue { ptr, i32 } %lpad.val, i32 %sel, 1
  resume { ptr, i32 } %lpad.val18
}

; Function Attrs: mustprogress nounwind uwtable
define internal void @_ZN7testing8internal15TestFactoryImplIN12_GLOBAL__N_140RandomDistributionsTest_UniformReal_TestEEC2Ev(ptr noundef nonnull align 8 dereferenceable(8) %this) unnamed_addr #5 align 2 {
entry:
  %this.addr = alloca ptr, align 8
  store ptr %this, ptr %this.addr, align 8
  %this1 = load ptr, ptr %this.addr, align 8
  call void @_ZN7testing8internal15TestFactoryBaseC2Ev(ptr noundef nonnull align 8 dereferenceable(8) %this1)
  store ptr getelementptr inbounds ({ [5 x ptr] }, ptr @_ZTVN7testing8internal15TestFactoryImplIN12_GLOBAL__N_140RandomDistributionsTest_UniformReal_TestEEE, i32 0, inrange i32 0, i32 2), ptr %this1, align 8
  ret void
}

; Function Attrs: uwtable
define internal void @__cxx_global_var_init.12() #0 section ".text.startup" personality ptr @__gxx_personality_v0 {
entry:
  %agg.tmp = alloca %"struct.testing::internal::CodeLocation", align 8
  %ref.tmp = alloca %"class.std::__cxx11::basic_string", align 8
  %ref.tmp1 = alloca %"class.std::allocator", align 1
  %exn.slot = alloca ptr, align 8
  %ehselector.slot = alloca i32, align 4
  call void @_ZNSaIcEC1Ev(ptr noundef nonnull align 1 dereferenceable(1) %ref.tmp1) #3
  invoke void @_ZNSt7__cxx1112basic_stringIcSt11char_traitsIcESaIcEEC2IS3_EEPKcRKS3_(ptr noundef nonnull align 8 dereferenceable(32) %ref.tmp, ptr noundef @.str.3, ptr noundef nonnull align 1 dereferenceable(1) %ref.tmp1)
          to label %invoke.cont unwind label %lpad

invoke.cont:                                      ; preds = %entry
  invoke void @_ZN7testing8internal12CodeLocationC2ERKNSt7__cxx1112basic_stringIcSt11char_traitsIcESaIcEEEi(ptr noundef nonnull align 8 dereferenceable(36) %agg.tmp, ptr noundef nonnull align 8 dereferenceable(32) %ref.tmp, i32 noundef 304)
          to label %invoke.cont3 unwind label %lpad2

invoke.cont3:                                     ; preds = %invoke.cont
  %call = invoke noundef ptr @_ZN7testing8internal9GetTypeIdIN12_GLOBAL__N_123RandomDistributionsTestEEEPKvv()
          to label %invoke.cont5 unwind label %lpad4

invoke.cont5:                                     ; preds = %invoke.cont3
  %call7 = invoke noundef ptr @_ZN7testing8internal16SuiteApiResolverIN12_GLOBAL__N_123RandomDistributionsTestEE19GetSetUpCaseOrSuiteEPKci(ptr noundef @.str.3, i32 noundef 304)
          to label %invoke.cont6 unwind label %lpad4

invoke.cont6:                                     ; preds = %invoke.cont5
  %call9 = invoke noundef ptr @_ZN7testing8internal16SuiteApiResolverIN12_GLOBAL__N_123RandomDistributionsTestEE22GetTearDownCaseOrSuiteEPKci(ptr noundef @.str.3, i32 noundef 304)
          to label %invoke.cont8 unwind label %lpad4

invoke.cont8:                                     ; preds = %invoke.cont6
  %call11 = invoke noalias noundef nonnull ptr @_Znwm(i64 noundef 8) #13
          to label %invoke.cont10 unwind label %lpad4

invoke.cont10:                                    ; preds = %invoke.cont8
  invoke void @_ZN7testing8internal15TestFactoryImplIN12_GLOBAL__N_139RandomDistributionsTest_UniformInt_TestEEC2Ev(ptr noundef nonnull align 8 dereferenceable(8) %call11)
          to label %invoke.cont13 unwind label %lpad12

invoke.cont13:                                    ; preds = %invoke.cont10
  %call15 = invoke noundef ptr @_ZN7testing8internal23MakeAndRegisterTestInfoEPKcS2_S2_S2_NS0_12CodeLocationEPKvPFvvES7_PNS0_15TestFactoryBaseE(ptr noundef @.str, ptr noundef @.str.13, ptr noundef null, ptr noundef null, ptr noundef %agg.tmp, ptr noundef %call, ptr noundef %call7, ptr noundef %call9, ptr noundef %call11)
          to label %invoke.cont14 unwind label %lpad4

invoke.cont14:                                    ; preds = %invoke.cont13
  call void @_ZN7testing8internal12CodeLocationD2Ev(ptr noundef nonnull align 8 dereferenceable(36) %agg.tmp) #3
  call void @_ZNSt7__cxx1112basic_stringIcSt11char_traitsIcESaIcEED1Ev(ptr noundef nonnull align 8 dereferenceable(32) %ref.tmp) #3
  call void @_ZNSaIcED1Ev(ptr noundef nonnull align 1 dereferenceable(1) %ref.tmp1) #3
  store ptr %call15, ptr @_ZN12_GLOBAL__N_139RandomDistributionsTest_UniformInt_Test10test_info_E, align 8
  ret void

lpad:                                             ; preds = %entry
  %0 = landingpad { ptr, i32 }
          cleanup
  %1 = extractvalue { ptr, i32 } %0, 0
  store ptr %1, ptr %exn.slot, align 8
  %2 = extractvalue { ptr, i32 } %0, 1
  store i32 %2, ptr %ehselector.slot, align 4
  br label %ehcleanup17

lpad2:                                            ; preds = %invoke.cont
  %3 = landingpad { ptr, i32 }
          cleanup
  %4 = extractvalue { ptr, i32 } %3, 0
  store ptr %4, ptr %exn.slot, align 8
  %5 = extractvalue { ptr, i32 } %3, 1
  store i32 %5, ptr %ehselector.slot, align 4
  br label %ehcleanup16

lpad4:                                            ; preds = %invoke.cont13, %invoke.cont8, %invoke.cont6, %invoke.cont5, %invoke.cont3
  %6 = landingpad { ptr, i32 }
          cleanup
  %7 = extractvalue { ptr, i32 } %6, 0
  store ptr %7, ptr %exn.slot, align 8
  %8 = extractvalue { ptr, i32 } %6, 1
  store i32 %8, ptr %ehselector.slot, align 4
  br label %ehcleanup

lpad12:                                           ; preds = %invoke.cont10
  %9 = landingpad { ptr, i32 }
          cleanup
  %10 = extractvalue { ptr, i32 } %9, 0
  store ptr %10, ptr %exn.slot, align 8
  %11 = extractvalue { ptr, i32 } %9, 1
  store i32 %11, ptr %ehselector.slot, align 4
  call void @_ZdlPv(ptr noundef %call11) #14
  br label %ehcleanup

ehcleanup:                                        ; preds = %lpad12, %lpad4
  call void @_ZN7testing8internal12CodeLocationD2Ev(ptr noundef nonnull align 8 dereferenceable(36) %agg.tmp) #3
  br label %ehcleanup16

ehcleanup16:                                      ; preds = %ehcleanup, %lpad2
  call void @_ZNSt7__cxx1112basic_stringIcSt11char_traitsIcESaIcEED1Ev(ptr noundef nonnull align 8 dereferenceable(32) %ref.tmp) #3
  br label %ehcleanup17

ehcleanup17:                                      ; preds = %ehcleanup16, %lpad
  call void @_ZNSaIcED1Ev(ptr noundef nonnull align 1 dereferenceable(1) %ref.tmp1) #3
  br label %eh.resume

eh.resume:                                        ; preds = %ehcleanup17
  %exn = load ptr, ptr %exn.slot, align 8
  %sel = load i32, ptr %ehselector.slot, align 4
  %lpad.val = insertvalue { ptr, i32 } poison, ptr %exn, 0
  %lpad.val18 = insertvalue { ptr, i32 } %lpad.val, i32 %sel, 1
  resume { ptr, i32 } %lpad.val18
}

; Function Attrs: mustprogress nounwind uwtable
define internal void @_ZN7testing8internal15TestFactoryImplIN12_GLOBAL__N_139RandomDistributionsTest_UniformInt_TestEEC2Ev(ptr noundef nonnull align 8 dereferenceable(8) %this) unnamed_addr #5 align 2 {
entry:
  %this.addr = alloca ptr, align 8
  store ptr %this, ptr %this.addr, align 8
  %this1 = load ptr, ptr %this.addr, align 8
  call void @_ZN7testing8internal15TestFactoryBaseC2Ev(ptr noundef nonnull align 8 dereferenceable(8) %this1)
  store ptr getelementptr inbounds ({ [5 x ptr] }, ptr @_ZTVN7testing8internal15TestFactoryImplIN12_GLOBAL__N_139RandomDistributionsTest_UniformInt_TestEEE, i32 0, inrange i32 0, i32 2), ptr %this1, align 8
  ret void
}

; Function Attrs: uwtable
define internal void @__cxx_global_var_init.14() #0 section ".text.startup" personality ptr @__gxx_personality_v0 {
entry:
  %agg.tmp = alloca %"struct.testing::internal::CodeLocation", align 8
  %ref.tmp = alloca %"class.std::__cxx11::basic_string", align 8
  %ref.tmp1 = alloca %"class.std::allocator", align 1
  %exn.slot = alloca ptr, align 8
  %ehselector.slot = alloca i32, align 4
  call void @_ZNSaIcEC1Ev(ptr noundef nonnull align 1 dereferenceable(1) %ref.tmp1) #3
  invoke void @_ZNSt7__cxx1112basic_stringIcSt11char_traitsIcESaIcEEC2IS3_EEPKcRKS3_(ptr noundef nonnull align 8 dereferenceable(32) %ref.tmp, ptr noundef @.str.3, ptr noundef nonnull align 1 dereferenceable(1) %ref.tmp1)
          to label %invoke.cont unwind label %lpad

invoke.cont:                                      ; preds = %entry
  invoke void @_ZN7testing8internal12CodeLocationC2ERKNSt7__cxx1112basic_stringIcSt11char_traitsIcESaIcEEEi(ptr noundef nonnull align 8 dereferenceable(36) %agg.tmp, ptr noundef nonnull align 8 dereferenceable(32) %ref.tmp, i32 noundef 336)
          to label %invoke.cont3 unwind label %lpad2

invoke.cont3:                                     ; preds = %invoke.cont
  %call = invoke noundef ptr @_ZN7testing8internal9GetTypeIdIN12_GLOBAL__N_123RandomDistributionsTestEEEPKvv()
          to label %invoke.cont5 unwind label %lpad4

invoke.cont5:                                     ; preds = %invoke.cont3
  %call7 = invoke noundef ptr @_ZN7testing8internal16SuiteApiResolverIN12_GLOBAL__N_123RandomDistributionsTestEE19GetSetUpCaseOrSuiteEPKci(ptr noundef @.str.3, i32 noundef 336)
          to label %invoke.cont6 unwind label %lpad4

invoke.cont6:                                     ; preds = %invoke.cont5
  %call9 = invoke noundef ptr @_ZN7testing8internal16SuiteApiResolverIN12_GLOBAL__N_123RandomDistributionsTestEE22GetTearDownCaseOrSuiteEPKci(ptr noundef @.str.3, i32 noundef 336)
          to label %invoke.cont8 unwind label %lpad4

invoke.cont8:                                     ; preds = %invoke.cont6
  %call11 = invoke noalias noundef nonnull ptr @_Znwm(i64 noundef 8) #13
          to label %invoke.cont10 unwind label %lpad4

invoke.cont10:                                    ; preds = %invoke.cont8
  invoke void @_ZN7testing8internal15TestFactoryImplIN12_GLOBAL__N_140RandomDistributionsTest_Exponential_TestEEC2Ev(ptr noundef nonnull align 8 dereferenceable(8) %call11)
          to label %invoke.cont13 unwind label %lpad12

invoke.cont13:                                    ; preds = %invoke.cont10
  %call15 = invoke noundef ptr @_ZN7testing8internal23MakeAndRegisterTestInfoEPKcS2_S2_S2_NS0_12CodeLocationEPKvPFvvES7_PNS0_15TestFactoryBaseE(ptr noundef @.str, ptr noundef @.str.15, ptr noundef null, ptr noundef null, ptr noundef %agg.tmp, ptr noundef %call, ptr noundef %call7, ptr noundef %call9, ptr noundef %call11)
          to label %invoke.cont14 unwind label %lpad4

invoke.cont14:                                    ; preds = %invoke.cont13
  call void @_ZN7testing8internal12CodeLocationD2Ev(ptr noundef nonnull align 8 dereferenceable(36) %agg.tmp) #3
  call void @_ZNSt7__cxx1112basic_stringIcSt11char_traitsIcESaIcEED1Ev(ptr noundef nonnull align 8 dereferenceable(32) %ref.tmp) #3
  call void @_ZNSaIcED1Ev(ptr noundef nonnull align 1 dereferenceable(1) %ref.tmp1) #3
  store ptr %call15, ptr @_ZN12_GLOBAL__N_140RandomDistributionsTest_Exponential_Test10test_info_E, align 8
  ret void

lpad:                                             ; preds = %entry
  %0 = landingpad { ptr, i32 }
          cleanup
  %1 = extractvalue { ptr, i32 } %0, 0
  store ptr %1, ptr %exn.slot, align 8
  %2 = extractvalue { ptr, i32 } %0, 1
  store i32 %2, ptr %ehselector.slot, align 4
  br label %ehcleanup17

lpad2:                                            ; preds = %invoke.cont
  %3 = landingpad { ptr, i32 }
          cleanup
  %4 = extractvalue { ptr, i32 } %3, 0
  store ptr %4, ptr %exn.slot, align 8
  %5 = extractvalue { ptr, i32 } %3, 1
  store i32 %5, ptr %ehselector.slot, align 4
  br label %ehcleanup16

lpad4:                                            ; preds = %invoke.cont13, %invoke.cont8, %invoke.cont6, %invoke.cont5, %invoke.cont3
  %6 = landingpad { ptr, i32 }
          cleanup
  %7 = extractvalue { ptr, i32 } %6, 0
  store ptr %7, ptr %exn.slot, align 8
  %8 = extractvalue { ptr, i32 } %6, 1
  store i32 %8, ptr %ehselector.slot, align 4
  br label %ehcleanup

lpad12:                                           ; preds = %invoke.cont10
  %9 = landingpad { ptr, i32 }
          cleanup
  %10 = extractvalue { ptr, i32 } %9, 0
  store ptr %10, ptr %exn.slot, align 8
  %11 = extractvalue { ptr, i32 } %9, 1
  store i32 %11, ptr %ehselector.slot, align 4
  call void @_ZdlPv(ptr noundef %call11) #14
  br label %ehcleanup

ehcleanup:                                        ; preds = %lpad12, %lpad4
  call void @_ZN7testing8internal12CodeLocationD2Ev(ptr noundef nonnull align 8 dereferenceable(36) %agg.tmp) #3
  br label %ehcleanup16

ehcleanup16:                                      ; preds = %ehcleanup, %lpad2
  call void @_ZNSt7__cxx1112basic_stringIcSt11char_traitsIcESaIcEED1Ev(ptr noundef nonnull align 8 dereferenceable(32) %ref.tmp) #3
  br label %ehcleanup17

ehcleanup17:                                      ; preds = %ehcleanup16, %lpad
  call void @_ZNSaIcED1Ev(ptr noundef nonnull align 1 dereferenceable(1) %ref.tmp1) #3
  br label %eh.resume

eh.resume:                                        ; preds = %ehcleanup17
  %exn = load ptr, ptr %exn.slot, align 8
  %sel = load i32, ptr %ehselector.slot, align 4
  %lpad.val = insertvalue { ptr, i32 } poison, ptr %exn, 0
  %lpad.val18 = insertvalue { ptr, i32 } %lpad.val, i32 %sel, 1
  resume { ptr, i32 } %lpad.val18
}

; Function Attrs: mustprogress nounwind uwtable
define internal void @_ZN7testing8internal15TestFactoryImplIN12_GLOBAL__N_140RandomDistributionsTest_Exponential_TestEEC2Ev(ptr noundef nonnull align 8 dereferenceable(8) %this) unnamed_addr #5 align 2 {
entry:
  %this.addr = alloca ptr, align 8
  store ptr %this, ptr %this.addr, align 8
  %this1 = load ptr, ptr %this.addr, align 8
  call void @_ZN7testing8internal15TestFactoryBaseC2Ev(ptr noundef nonnull align 8 dereferenceable(8) %this1)
  store ptr getelementptr inbounds ({ [5 x ptr] }, ptr @_ZTVN7testing8internal15TestFactoryImplIN12_GLOBAL__N_140RandomDistributionsTest_Exponential_TestEEE, i32 0, inrange i32 0, i32 2), ptr %this1, align 8
  ret void
}

; Function Attrs: uwtable
define internal void @__cxx_global_var_init.16() #0 section ".text.startup" personality ptr @__gxx_personality_v0 {
entry:
  %agg.tmp = alloca %"struct.testing::internal::CodeLocation", align 8
  %ref.tmp = alloca %"class.std::__cxx11::basic_string", align 8
  %ref.tmp1 = alloca %"class.std::allocator", align 1
  %exn.slot = alloca ptr, align 8
  %ehselector.slot = alloca i32, align 4
  call void @_ZNSaIcEC1Ev(ptr noundef nonnull align 1 dereferenceable(1) %ref.tmp1) #3
  invoke void @_ZNSt7__cxx1112basic_stringIcSt11char_traitsIcESaIcEEC2IS3_EEPKcRKS3_(ptr noundef nonnull align 8 dereferenceable(32) %ref.tmp, ptr noundef @.str.3, ptr noundef nonnull align 1 dereferenceable(1) %ref.tmp1)
          to label %invoke.cont unwind label %lpad

invoke.cont:                                      ; preds = %entry
  invoke void @_ZN7testing8internal12CodeLocationC2ERKNSt7__cxx1112basic_stringIcSt11char_traitsIcESaIcEEEi(ptr noundef nonnull align 8 dereferenceable(36) %agg.tmp, ptr noundef nonnull align 8 dereferenceable(32) %ref.tmp, i32 noundef 352)
          to label %invoke.cont3 unwind label %lpad2

invoke.cont3:                                     ; preds = %invoke.cont
  %call = invoke noundef ptr @_ZN7testing8internal9GetTypeIdIN12_GLOBAL__N_123RandomDistributionsTestEEEPKvv()
          to label %invoke.cont5 unwind label %lpad4

invoke.cont5:                                     ; preds = %invoke.cont3
  %call7 = invoke noundef ptr @_ZN7testing8internal16SuiteApiResolverIN12_GLOBAL__N_123RandomDistributionsTestEE19GetSetUpCaseOrSuiteEPKci(ptr noundef @.str.3, i32 noundef 352)
          to label %invoke.cont6 unwind label %lpad4

invoke.cont6:                                     ; preds = %invoke.cont5
  %call9 = invoke noundef ptr @_ZN7testing8internal16SuiteApiResolverIN12_GLOBAL__N_123RandomDistributionsTestEE22GetTearDownCaseOrSuiteEPKci(ptr noundef @.str.3, i32 noundef 352)
          to label %invoke.cont8 unwind label %lpad4

invoke.cont8:                                     ; preds = %invoke.cont6
  %call11 = invoke noalias noundef nonnull ptr @_Znwm(i64 noundef 8) #13
          to label %invoke.cont10 unwind label %lpad4

invoke.cont10:                                    ; preds = %invoke.cont8
  invoke void @_ZN7testing8internal15TestFactoryImplIN12_GLOBAL__N_143RandomDistributionsTest_PoissonDefault_TestEEC2Ev(ptr noundef nonnull align 8 dereferenceable(8) %call11)
          to label %invoke.cont13 unwind label %lpad12

invoke.cont13:                                    ; preds = %invoke.cont10
  %call15 = invoke noundef ptr @_ZN7testing8internal23MakeAndRegisterTestInfoEPKcS2_S2_S2_NS0_12CodeLocationEPKvPFvvES7_PNS0_15TestFactoryBaseE(ptr noundef @.str, ptr noundef @.str.17, ptr noundef null, ptr noundef null, ptr noundef %agg.tmp, ptr noundef %call, ptr noundef %call7, ptr noundef %call9, ptr noundef %call11)
          to label %invoke.cont14 unwind label %lpad4

invoke.cont14:                                    ; preds = %invoke.cont13
  call void @_ZN7testing8internal12CodeLocationD2Ev(ptr noundef nonnull align 8 dereferenceable(36) %agg.tmp) #3
  call void @_ZNSt7__cxx1112basic_stringIcSt11char_traitsIcESaIcEED1Ev(ptr noundef nonnull align 8 dereferenceable(32) %ref.tmp) #3
  call void @_ZNSaIcED1Ev(ptr noundef nonnull align 1 dereferenceable(1) %ref.tmp1) #3
  store ptr %call15, ptr @_ZN12_GLOBAL__N_143RandomDistributionsTest_PoissonDefault_Test10test_info_E, align 8
  ret void

lpad:                                             ; preds = %entry
  %0 = landingpad { ptr, i32 }
          cleanup
  %1 = extractvalue { ptr, i32 } %0, 0
  store ptr %1, ptr %exn.slot, align 8
  %2 = extractvalue { ptr, i32 } %0, 1
  store i32 %2, ptr %ehselector.slot, align 4
  br label %ehcleanup17

lpad2:                                            ; preds = %invoke.cont
  %3 = landingpad { ptr, i32 }
          cleanup
  %4 = extractvalue { ptr, i32 } %3, 0
  store ptr %4, ptr %exn.slot, align 8
  %5 = extractvalue { ptr, i32 } %3, 1
  store i32 %5, ptr %ehselector.slot, align 4
  br label %ehcleanup16

lpad4:                                            ; preds = %invoke.cont13, %invoke.cont8, %invoke.cont6, %invoke.cont5, %invoke.cont3
  %6 = landingpad { ptr, i32 }
          cleanup
  %7 = extractvalue { ptr, i32 } %6, 0
  store ptr %7, ptr %exn.slot, align 8
  %8 = extractvalue { ptr, i32 } %6, 1
  store i32 %8, ptr %ehselector.slot, align 4
  br label %ehcleanup

lpad12:                                           ; preds = %invoke.cont10
  %9 = landingpad { ptr, i32 }
          cleanup
  %10 = extractvalue { ptr, i32 } %9, 0
  store ptr %10, ptr %exn.slot, align 8
  %11 = extractvalue { ptr, i32 } %9, 1
  store i32 %11, ptr %ehselector.slot, align 4
  call void @_ZdlPv(ptr noundef %call11) #14
  br label %ehcleanup

ehcleanup:                                        ; preds = %lpad12, %lpad4
  call void @_ZN7testing8internal12CodeLocationD2Ev(ptr noundef nonnull align 8 dereferenceable(36) %agg.tmp) #3
  br label %ehcleanup16

ehcleanup16:                                      ; preds = %ehcleanup, %lpad2
  call void @_ZNSt7__cxx1112basic_stringIcSt11char_traitsIcESaIcEED1Ev(ptr noundef nonnull align 8 dereferenceable(32) %ref.tmp) #3
  br label %ehcleanup17

ehcleanup17:                                      ; preds = %ehcleanup16, %lpad
  call void @_ZNSaIcED1Ev(ptr noundef nonnull align 1 dereferenceable(1) %ref.tmp1) #3
  br label %eh.resume

eh.resume:                                        ; preds = %ehcleanup17
  %exn = load ptr, ptr %exn.slot, align 8
  %sel = load i32, ptr %ehselector.slot, align 4
  %lpad.val = insertvalue { ptr, i32 } poison, ptr %exn, 0
  %lpad.val18 = insertvalue { ptr, i32 } %lpad.val, i32 %sel, 1
  resume { ptr, i32 } %lpad.val18
}

; Function Attrs: mustprogress nounwind uwtable
define internal void @_ZN7testing8internal15TestFactoryImplIN12_GLOBAL__N_143RandomDistributionsTest_PoissonDefault_TestEEC2Ev(ptr noundef nonnull align 8 dereferenceable(8) %this) unnamed_addr #5 align 2 {
entry:
  %this.addr = alloca ptr, align 8
  store ptr %this, ptr %this.addr, align 8
  %this1 = load ptr, ptr %this.addr, align 8
  call void @_ZN7testing8internal15TestFactoryBaseC2Ev(ptr noundef nonnull align 8 dereferenceable(8) %this1)
  store ptr getelementptr inbounds ({ [5 x ptr] }, ptr @_ZTVN7testing8internal15TestFactoryImplIN12_GLOBAL__N_143RandomDistributionsTest_PoissonDefault_TestEEE, i32 0, inrange i32 0, i32 2), ptr %this1, align 8
  ret void
}

; Function Attrs: uwtable
define internal void @__cxx_global_var_init.18() #0 section ".text.startup" personality ptr @__gxx_personality_v0 {
entry:
  %agg.tmp = alloca %"struct.testing::internal::CodeLocation", align 8
  %ref.tmp = alloca %"class.std::__cxx11::basic_string", align 8
  %ref.tmp1 = alloca %"class.std::allocator", align 1
  %exn.slot = alloca ptr, align 8
  %ehselector.slot = alloca i32, align 4
  call void @_ZNSaIcEC1Ev(ptr noundef nonnull align 1 dereferenceable(1) %ref.tmp1) #3
  invoke void @_ZNSt7__cxx1112basic_stringIcSt11char_traitsIcESaIcEEC2IS3_EEPKcRKS3_(ptr noundef nonnull align 8 dereferenceable(32) %ref.tmp, ptr noundef @.str.3, ptr noundef nonnull align 1 dereferenceable(1) %ref.tmp1)
          to label %invoke.cont unwind label %lpad

invoke.cont:                                      ; preds = %entry
  invoke void @_ZN7testing8internal12CodeLocationC2ERKNSt7__cxx1112basic_stringIcSt11char_traitsIcESaIcEEEi(ptr noundef nonnull align 8 dereferenceable(36) %agg.tmp, ptr noundef nonnull align 8 dereferenceable(32) %ref.tmp, i32 noundef 368)
          to label %invoke.cont3 unwind label %lpad2

invoke.cont3:                                     ; preds = %invoke.cont
  %call = invoke noundef ptr @_ZN7testing8internal9GetTypeIdIN12_GLOBAL__N_123RandomDistributionsTestEEEPKvv()
          to label %invoke.cont5 unwind label %lpad4

invoke.cont5:                                     ; preds = %invoke.cont3
  %call7 = invoke noundef ptr @_ZN7testing8internal16SuiteApiResolverIN12_GLOBAL__N_123RandomDistributionsTestEE19GetSetUpCaseOrSuiteEPKci(ptr noundef @.str.3, i32 noundef 368)
          to label %invoke.cont6 unwind label %lpad4

invoke.cont6:                                     ; preds = %invoke.cont5
  %call9 = invoke noundef ptr @_ZN7testing8internal16SuiteApiResolverIN12_GLOBAL__N_123RandomDistributionsTestEE22GetTearDownCaseOrSuiteEPKci(ptr noundef @.str.3, i32 noundef 368)
          to label %invoke.cont8 unwind label %lpad4

invoke.cont8:                                     ; preds = %invoke.cont6
  %call11 = invoke noalias noundef nonnull ptr @_Znwm(i64 noundef 8) #13
          to label %invoke.cont10 unwind label %lpad4

invoke.cont10:                                    ; preds = %invoke.cont8
  invoke void @_ZN7testing8internal15TestFactoryImplIN12_GLOBAL__N_141RandomDistributionsTest_PoissonLarge_TestEEC2Ev(ptr noundef nonnull align 8 dereferenceable(8) %call11)
          to label %invoke.cont13 unwind label %lpad12

invoke.cont13:                                    ; preds = %invoke.cont10
  %call15 = invoke noundef ptr @_ZN7testing8internal23MakeAndRegisterTestInfoEPKcS2_S2_S2_NS0_12CodeLocationEPKvPFvvES7_PNS0_15TestFactoryBaseE(ptr noundef @.str, ptr noundef @.str.19, ptr noundef null, ptr noundef null, ptr noundef %agg.tmp, ptr noundef %call, ptr noundef %call7, ptr noundef %call9, ptr noundef %call11)
          to label %invoke.cont14 unwind label %lpad4

invoke.cont14:                                    ; preds = %invoke.cont13
  call void @_ZN7testing8internal12CodeLocationD2Ev(ptr noundef nonnull align 8 dereferenceable(36) %agg.tmp) #3
  call void @_ZNSt7__cxx1112basic_stringIcSt11char_traitsIcESaIcEED1Ev(ptr noundef nonnull align 8 dereferenceable(32) %ref.tmp) #3
  call void @_ZNSaIcED1Ev(ptr noundef nonnull align 1 dereferenceable(1) %ref.tmp1) #3
  store ptr %call15, ptr @_ZN12_GLOBAL__N_141RandomDistributionsTest_PoissonLarge_Test10test_info_E, align 8
  ret void

lpad:                                             ; preds = %entry
  %0 = landingpad { ptr, i32 }
          cleanup
  %1 = extractvalue { ptr, i32 } %0, 0
  store ptr %1, ptr %exn.slot, align 8
  %2 = extractvalue { ptr, i32 } %0, 1
  store i32 %2, ptr %ehselector.slot, align 4
  br label %ehcleanup17

lpad2:                                            ; preds = %invoke.cont
  %3 = landingpad { ptr, i32 }
          cleanup
  %4 = extractvalue { ptr, i32 } %3, 0
  store ptr %4, ptr %exn.slot, align 8
  %5 = extractvalue { ptr, i32 } %3, 1
  store i32 %5, ptr %ehselector.slot, align 4
  br label %ehcleanup16

lpad4:                                            ; preds = %invoke.cont13, %invoke.cont8, %invoke.cont6, %invoke.cont5, %invoke.cont3
  %6 = landingpad { ptr, i32 }
          cleanup
  %7 = extractvalue { ptr, i32 } %6, 0
  store ptr %7, ptr %exn.slot, align 8
  %8 = extractvalue { ptr, i32 } %6, 1
  store i32 %8, ptr %ehselector.slot, align 4
  br label %ehcleanup

lpad12:                                           ; preds = %invoke.cont10
  %9 = landingpad { ptr, i32 }
          cleanup
  %10 = extractvalue { ptr, i32 } %9, 0
  store ptr %10, ptr %exn.slot, align 8
  %11 = extractvalue { ptr, i32 } %9, 1
  store i32 %11, ptr %ehselector.slot, align 4
  call void @_ZdlPv(ptr noundef %call11) #14
  br label %ehcleanup

ehcleanup:                                        ; preds = %lpad12, %lpad4
  call void @_ZN7testing8internal12CodeLocationD2Ev(ptr noundef nonnull align 8 dereferenceable(36) %agg.tmp) #3
  br label %ehcleanup16

ehcleanup16:                                      ; preds = %ehcleanup, %lpad2
  call void @_ZNSt7__cxx1112basic_stringIcSt11char_traitsIcESaIcEED1Ev(ptr noundef nonnull align 8 dereferenceable(32) %ref.tmp) #3
  br label %ehcleanup17

ehcleanup17:                                      ; preds = %ehcleanup16, %lpad
  call void @_ZNSaIcED1Ev(ptr noundef nonnull align 1 dereferenceable(1) %ref.tmp1) #3
  br label %eh.resume

eh.resume:                                        ; preds = %ehcleanup17
  %exn = load ptr, ptr %exn.slot, align 8
  %sel = load i32, ptr %ehselector.slot, align 4
  %lpad.val = insertvalue { ptr, i32 } poison, ptr %exn, 0
  %lpad.val18 = insertvalue { ptr, i32 } %lpad.val, i32 %sel, 1
  resume { ptr, i32 } %lpad.val18
}

; Function Attrs: mustprogress nounwind uwtable
define internal void @_ZN7testing8internal15TestFactoryImplIN12_GLOBAL__N_141RandomDistributionsTest_PoissonLarge_TestEEC2Ev(ptr noundef nonnull align 8 dereferenceable(8) %this) unnamed_addr #5 align 2 {
entry:
  %this.addr = alloca ptr, align 8
  store ptr %this, ptr %this.addr, align 8
  %this1 = load ptr, ptr %this.addr, align 8
  call void @_ZN7testing8internal15TestFactoryBaseC2Ev(ptr noundef nonnull align 8 dereferenceable(8) %this1)
  store ptr getelementptr inbounds ({ [5 x ptr] }, ptr @_ZTVN7testing8internal15TestFactoryImplIN12_GLOBAL__N_141RandomDistributionsTest_PoissonLarge_TestEEE, i32 0, inrange i32 0, i32 2), ptr %this1, align 8
  ret void
}

; Function Attrs: uwtable
define internal void @__cxx_global_var_init.20() #0 section ".text.startup" personality ptr @__gxx_personality_v0 {
entry:
  %agg.tmp = alloca %"struct.testing::internal::CodeLocation", align 8
  %ref.tmp = alloca %"class.std::__cxx11::basic_string", align 8
  %ref.tmp1 = alloca %"class.std::allocator", align 1
  %exn.slot = alloca ptr, align 8
  %ehselector.slot = alloca i32, align 4
  call void @_ZNSaIcEC1Ev(ptr noundef nonnull align 1 dereferenceable(1) %ref.tmp1) #3
  invoke void @_ZNSt7__cxx1112basic_stringIcSt11char_traitsIcESaIcEEC2IS3_EEPKcRKS3_(ptr noundef nonnull align 8 dereferenceable(32) %ref.tmp, ptr noundef @.str.3, ptr noundef nonnull align 1 dereferenceable(1) %ref.tmp1)
          to label %invoke.cont unwind label %lpad

invoke.cont:                                      ; preds = %entry
  invoke void @_ZN7testing8internal12CodeLocationC2ERKNSt7__cxx1112basic_stringIcSt11char_traitsIcESaIcEEEi(ptr noundef nonnull align 8 dereferenceable(36) %agg.tmp, ptr noundef nonnull align 8 dereferenceable(32) %ref.tmp, i32 noundef 385)
          to label %invoke.cont3 unwind label %lpad2

invoke.cont3:                                     ; preds = %invoke.cont
  %call = invoke noundef ptr @_ZN7testing8internal9GetTypeIdIN12_GLOBAL__N_123RandomDistributionsTestEEEPKvv()
          to label %invoke.cont5 unwind label %lpad4

invoke.cont5:                                     ; preds = %invoke.cont3
  %call7 = invoke noundef ptr @_ZN7testing8internal16SuiteApiResolverIN12_GLOBAL__N_123RandomDistributionsTestEE19GetSetUpCaseOrSuiteEPKci(ptr noundef @.str.3, i32 noundef 385)
          to label %invoke.cont6 unwind label %lpad4

invoke.cont6:                                     ; preds = %invoke.cont5
  %call9 = invoke noundef ptr @_ZN7testing8internal16SuiteApiResolverIN12_GLOBAL__N_123RandomDistributionsTestEE22GetTearDownCaseOrSuiteEPKci(ptr noundef @.str.3, i32 noundef 385)
          to label %invoke.cont8 unwind label %lpad4

invoke.cont8:                                     ; preds = %invoke.cont6
  %call11 = invoke noalias noundef nonnull ptr @_Znwm(i64 noundef 8) #13
          to label %invoke.cont10 unwind label %lpad4

invoke.cont10:                                    ; preds = %invoke.cont8
  invoke void @_ZN7testing8internal15TestFactoryImplIN12_GLOBAL__N_138RandomDistributionsTest_Bernoulli_TestEEC2Ev(ptr noundef nonnull align 8 dereferenceable(8) %call11)
          to label %invoke.cont13 unwind label %lpad12

invoke.cont13:                                    ; preds = %invoke.cont10
  %call15 = invoke noundef ptr @_ZN7testing8internal23MakeAndRegisterTestInfoEPKcS2_S2_S2_NS0_12CodeLocationEPKvPFvvES7_PNS0_15TestFactoryBaseE(ptr noundef @.str, ptr noundef @.str.21, ptr noundef null, ptr noundef null, ptr noundef %agg.tmp, ptr noundef %call, ptr noundef %call7, ptr noundef %call9, ptr noundef %call11)
          to label %invoke.cont14 unwind label %lpad4

invoke.cont14:                                    ; preds = %invoke.cont13
  call void @_ZN7testing8internal12CodeLocationD2Ev(ptr noundef nonnull align 8 dereferenceable(36) %agg.tmp) #3
  call void @_ZNSt7__cxx1112basic_stringIcSt11char_traitsIcESaIcEED1Ev(ptr noundef nonnull align 8 dereferenceable(32) %ref.tmp) #3
  call void @_ZNSaIcED1Ev(ptr noundef nonnull align 1 dereferenceable(1) %ref.tmp1) #3
  store ptr %call15, ptr @_ZN12_GLOBAL__N_138RandomDistributionsTest_Bernoulli_Test10test_info_E, align 8
  ret void

lpad:                                             ; preds = %entry
  %0 = landingpad { ptr, i32 }
          cleanup
  %1 = extractvalue { ptr, i32 } %0, 0
  store ptr %1, ptr %exn.slot, align 8
  %2 = extractvalue { ptr, i32 } %0, 1
  store i32 %2, ptr %ehselector.slot, align 4
  br label %ehcleanup17

lpad2:                                            ; preds = %invoke.cont
  %3 = landingpad { ptr, i32 }
          cleanup
  %4 = extractvalue { ptr, i32 } %3, 0
  store ptr %4, ptr %exn.slot, align 8
  %5 = extractvalue { ptr, i32 } %3, 1
  store i32 %5, ptr %ehselector.slot, align 4
  br label %ehcleanup16

lpad4:                                            ; preds = %invoke.cont13, %invoke.cont8, %invoke.cont6, %invoke.cont5, %invoke.cont3
  %6 = landingpad { ptr, i32 }
          cleanup
  %7 = extractvalue { ptr, i32 } %6, 0
  store ptr %7, ptr %exn.slot, align 8
  %8 = extractvalue { ptr, i32 } %6, 1
  store i32 %8, ptr %ehselector.slot, align 4
  br label %ehcleanup

lpad12:                                           ; preds = %invoke.cont10
  %9 = landingpad { ptr, i32 }
          cleanup
  %10 = extractvalue { ptr, i32 } %9, 0
  store ptr %10, ptr %exn.slot, align 8
  %11 = extractvalue { ptr, i32 } %9, 1
  store i32 %11, ptr %ehselector.slot, align 4
  call void @_ZdlPv(ptr noundef %call11) #14
  br label %ehcleanup

ehcleanup:                                        ; preds = %lpad12, %lpad4
  call void @_ZN7testing8internal12CodeLocationD2Ev(ptr noundef nonnull align 8 dereferenceable(36) %agg.tmp) #3
  br label %ehcleanup16

ehcleanup16:                                      ; preds = %ehcleanup, %lpad2
  call void @_ZNSt7__cxx1112basic_stringIcSt11char_traitsIcESaIcEED1Ev(ptr noundef nonnull align 8 dereferenceable(32) %ref.tmp) #3
  br label %ehcleanup17

ehcleanup17:                                      ; preds = %ehcleanup16, %lpad
  call void @_ZNSaIcED1Ev(ptr noundef nonnull align 1 dereferenceable(1) %ref.tmp1) #3
  br label %eh.resume

eh.resume:                                        ; preds = %ehcleanup17
  %exn = load ptr, ptr %exn.slot, align 8
  %sel = load i32, ptr %ehselector.slot, align 4
  %lpad.val = insertvalue { ptr, i32 } poison, ptr %exn, 0
  %lpad.val18 = insertvalue { ptr, i32 } %lpad.val, i32 %sel, 1
  resume { ptr, i32 } %lpad.val18
}

; Function Attrs: mustprogress nounwind uwtable
define internal void @_ZN7testing8internal15TestFactoryImplIN12_GLOBAL__N_138RandomDistributionsTest_Bernoulli_TestEEC2Ev(ptr noundef nonnull align 8 dereferenceable(8) %this) unnamed_addr #5 align 2 {
entry:
  %this.addr = alloca ptr, align 8
  store ptr %this, ptr %this.addr, align 8
  %this1 = load ptr, ptr %this.addr, align 8
  call void @_ZN7testing8internal15TestFactoryBaseC2Ev(ptr noundef nonnull align 8 dereferenceable(8) %this1)
  store ptr getelementptr inbounds ({ [5 x ptr] }, ptr @_ZTVN7testing8internal15TestFactoryImplIN12_GLOBAL__N_138RandomDistributionsTest_Bernoulli_TestEEE, i32 0, inrange i32 0, i32 2), ptr %this1, align 8
  ret void
}

; Function Attrs: uwtable
define internal void @__cxx_global_var_init.22() #0 section ".text.startup" personality ptr @__gxx_personality_v0 {
entry:
  %agg.tmp = alloca %"struct.testing::internal::CodeLocation", align 8
  %ref.tmp = alloca %"class.std::__cxx11::basic_string", align 8
  %ref.tmp1 = alloca %"class.std::allocator", align 1
  %exn.slot = alloca ptr, align 8
  %ehselector.slot = alloca i32, align 4
  call void @_ZNSaIcEC1Ev(ptr noundef nonnull align 1 dereferenceable(1) %ref.tmp1) #3
  invoke void @_ZNSt7__cxx1112basic_stringIcSt11char_traitsIcESaIcEEC2IS3_EEPKcRKS3_(ptr noundef nonnull align 8 dereferenceable(32) %ref.tmp, ptr noundef @.str.3, ptr noundef nonnull align 1 dereferenceable(1) %ref.tmp1)
          to label %invoke.cont unwind label %lpad

invoke.cont:                                      ; preds = %entry
  invoke void @_ZN7testing8internal12CodeLocationC2ERKNSt7__cxx1112basic_stringIcSt11char_traitsIcESaIcEEEi(ptr noundef nonnull align 8 dereferenceable(36) %agg.tmp, ptr noundef nonnull align 8 dereferenceable(32) %ref.tmp, i32 noundef 399)
          to label %invoke.cont3 unwind label %lpad2

invoke.cont3:                                     ; preds = %invoke.cont
  %call = invoke noundef ptr @_ZN7testing8internal9GetTypeIdIN12_GLOBAL__N_123RandomDistributionsTestEEEPKvv()
          to label %invoke.cont5 unwind label %lpad4

invoke.cont5:                                     ; preds = %invoke.cont3
  %call7 = invoke noundef ptr @_ZN7testing8internal16SuiteApiResolverIN12_GLOBAL__N_123RandomDistributionsTestEE19GetSetUpCaseOrSuiteEPKci(ptr noundef @.str.3, i32 noundef 399)
          to label %invoke.cont6 unwind label %lpad4

invoke.cont6:                                     ; preds = %invoke.cont5
  %call9 = invoke noundef ptr @_ZN7testing8internal16SuiteApiResolverIN12_GLOBAL__N_123RandomDistributionsTestEE22GetTearDownCaseOrSuiteEPKci(ptr noundef @.str.3, i32 noundef 399)
          to label %invoke.cont8 unwind label %lpad4

invoke.cont8:                                     ; preds = %invoke.cont6
  %call11 = invoke noalias noundef nonnull ptr @_Znwm(i64 noundef 8) #13
          to label %invoke.cont10 unwind label %lpad4

invoke.cont10:                                    ; preds = %invoke.cont8
  invoke void @_ZN7testing8internal15TestFactoryImplIN12_GLOBAL__N_133RandomDistributionsTest_Beta_TestEEC2Ev(ptr noundef nonnull align 8 dereferenceable(8) %call11)
          to label %invoke.cont13 unwind label %lpad12

invoke.cont13:                                    ; preds = %invoke.cont10
  %call15 = invoke noundef ptr @_ZN7testing8internal23MakeAndRegisterTestInfoEPKcS2_S2_S2_NS0_12CodeLocationEPKvPFvvES7_PNS0_15TestFactoryBaseE(ptr noundef @.str, ptr noundef @.str.23, ptr noundef null, ptr noundef null, ptr noundef %agg.tmp, ptr noundef %call, ptr noundef %call7, ptr noundef %call9, ptr noundef %call11)
          to label %invoke.cont14 unwind label %lpad4

invoke.cont14:                                    ; preds = %invoke.cont13
  call void @_ZN7testing8internal12CodeLocationD2Ev(ptr noundef nonnull align 8 dereferenceable(36) %agg.tmp) #3
  call void @_ZNSt7__cxx1112basic_stringIcSt11char_traitsIcESaIcEED1Ev(ptr noundef nonnull align 8 dereferenceable(32) %ref.tmp) #3
  call void @_ZNSaIcED1Ev(ptr noundef nonnull align 1 dereferenceable(1) %ref.tmp1) #3
  store ptr %call15, ptr @_ZN12_GLOBAL__N_133RandomDistributionsTest_Beta_Test10test_info_E, align 8
  ret void

lpad:                                             ; preds = %entry
  %0 = landingpad { ptr, i32 }
          cleanup
  %1 = extractvalue { ptr, i32 } %0, 0
  store ptr %1, ptr %exn.slot, align 8
  %2 = extractvalue { ptr, i32 } %0, 1
  store i32 %2, ptr %ehselector.slot, align 4
  br label %ehcleanup17

lpad2:                                            ; preds = %invoke.cont
  %3 = landingpad { ptr, i32 }
          cleanup
  %4 = extractvalue { ptr, i32 } %3, 0
  store ptr %4, ptr %exn.slot, align 8
  %5 = extractvalue { ptr, i32 } %3, 1
  store i32 %5, ptr %ehselector.slot, align 4
  br label %ehcleanup16

lpad4:                                            ; preds = %invoke.cont13, %invoke.cont8, %invoke.cont6, %invoke.cont5, %invoke.cont3
  %6 = landingpad { ptr, i32 }
          cleanup
  %7 = extractvalue { ptr, i32 } %6, 0
  store ptr %7, ptr %exn.slot, align 8
  %8 = extractvalue { ptr, i32 } %6, 1
  store i32 %8, ptr %ehselector.slot, align 4
  br label %ehcleanup

lpad12:                                           ; preds = %invoke.cont10
  %9 = landingpad { ptr, i32 }
          cleanup
  %10 = extractvalue { ptr, i32 } %9, 0
  store ptr %10, ptr %exn.slot, align 8
  %11 = extractvalue { ptr, i32 } %9, 1
  store i32 %11, ptr %ehselector.slot, align 4
  call void @_ZdlPv(ptr noundef %call11) #14
  br label %ehcleanup

ehcleanup:                                        ; preds = %lpad12, %lpad4
  call void @_ZN7testing8internal12CodeLocationD2Ev(ptr noundef nonnull align 8 dereferenceable(36) %agg.tmp) #3
  br label %ehcleanup16

ehcleanup16:                                      ; preds = %ehcleanup, %lpad2
  call void @_ZNSt7__cxx1112basic_stringIcSt11char_traitsIcESaIcEED1Ev(ptr noundef nonnull align 8 dereferenceable(32) %ref.tmp) #3
  br label %ehcleanup17

ehcleanup17:                                      ; preds = %ehcleanup16, %lpad
  call void @_ZNSaIcED1Ev(ptr noundef nonnull align 1 dereferenceable(1) %ref.tmp1) #3
  br label %eh.resume

eh.resume:                                        ; preds = %ehcleanup17
  %exn = load ptr, ptr %exn.slot, align 8
  %sel = load i32, ptr %ehselector.slot, align 4
  %lpad.val = insertvalue { ptr, i32 } poison, ptr %exn, 0
  %lpad.val18 = insertvalue { ptr, i32 } %lpad.val, i32 %sel, 1
  resume { ptr, i32 } %lpad.val18
}

; Function Attrs: mustprogress nounwind uwtable
define internal void @_ZN7testing8internal15TestFactoryImplIN12_GLOBAL__N_133RandomDistributionsTest_Beta_TestEEC2Ev(ptr noundef nonnull align 8 dereferenceable(8) %this) unnamed_addr #5 align 2 {
entry:
  %this.addr = alloca ptr, align 8
  store ptr %this, ptr %this.addr, align 8
  %this1 = load ptr, ptr %this.addr, align 8
  call void @_ZN7testing8internal15TestFactoryBaseC2Ev(ptr noundef nonnull align 8 dereferenceable(8) %this1)
  store ptr getelementptr inbounds ({ [5 x ptr] }, ptr @_ZTVN7testing8internal15TestFactoryImplIN12_GLOBAL__N_133RandomDistributionsTest_Beta_TestEEE, i32 0, inrange i32 0, i32 2), ptr %this1, align 8
  ret void
}

; Function Attrs: uwtable
define internal void @__cxx_global_var_init.24() #0 section ".text.startup" personality ptr @__gxx_personality_v0 {
entry:
  %agg.tmp = alloca %"struct.testing::internal::CodeLocation", align 8
  %ref.tmp = alloca %"class.std::__cxx11::basic_string", align 8
  %ref.tmp1 = alloca %"class.std::allocator", align 1
  %exn.slot = alloca ptr, align 8
  %ehselector.slot = alloca i32, align 4
  call void @_ZNSaIcEC1Ev(ptr noundef nonnull align 1 dereferenceable(1) %ref.tmp1) #3
  invoke void @_ZNSt7__cxx1112basic_stringIcSt11char_traitsIcESaIcEEC2IS3_EEPKcRKS3_(ptr noundef nonnull align 8 dereferenceable(32) %ref.tmp, ptr noundef @.str.3, ptr noundef nonnull align 1 dereferenceable(1) %ref.tmp1)
          to label %invoke.cont unwind label %lpad

invoke.cont:                                      ; preds = %entry
  invoke void @_ZN7testing8internal12CodeLocationC2ERKNSt7__cxx1112basic_stringIcSt11char_traitsIcESaIcEEEi(ptr noundef nonnull align 8 dereferenceable(36) %agg.tmp, ptr noundef nonnull align 8 dereferenceable(32) %ref.tmp, i32 noundef 414)
          to label %invoke.cont3 unwind label %lpad2

invoke.cont3:                                     ; preds = %invoke.cont
  %call = invoke noundef ptr @_ZN7testing8internal9GetTypeIdIN12_GLOBAL__N_123RandomDistributionsTestEEEPKvv()
          to label %invoke.cont5 unwind label %lpad4

invoke.cont5:                                     ; preds = %invoke.cont3
  %call7 = invoke noundef ptr @_ZN7testing8internal16SuiteApiResolverIN12_GLOBAL__N_123RandomDistributionsTestEE19GetSetUpCaseOrSuiteEPKci(ptr noundef @.str.3, i32 noundef 414)
          to label %invoke.cont6 unwind label %lpad4

invoke.cont6:                                     ; preds = %invoke.cont5
  %call9 = invoke noundef ptr @_ZN7testing8internal16SuiteApiResolverIN12_GLOBAL__N_123RandomDistributionsTestEE22GetTearDownCaseOrSuiteEPKci(ptr noundef @.str.3, i32 noundef 414)
          to label %invoke.cont8 unwind label %lpad4

invoke.cont8:                                     ; preds = %invoke.cont6
  %call11 = invoke noalias noundef nonnull ptr @_Znwm(i64 noundef 8) #13
          to label %invoke.cont10 unwind label %lpad4

invoke.cont10:                                    ; preds = %invoke.cont8
  invoke void @_ZN7testing8internal15TestFactoryImplIN12_GLOBAL__N_133RandomDistributionsTest_Zipf_TestEEC2Ev(ptr noundef nonnull align 8 dereferenceable(8) %call11)
          to label %invoke.cont13 unwind label %lpad12

invoke.cont13:                                    ; preds = %invoke.cont10
  %call15 = invoke noundef ptr @_ZN7testing8internal23MakeAndRegisterTestInfoEPKcS2_S2_S2_NS0_12CodeLocationEPKvPFvvES7_PNS0_15TestFactoryBaseE(ptr noundef @.str, ptr noundef @.str.25, ptr noundef null, ptr noundef null, ptr noundef %agg.tmp, ptr noundef %call, ptr noundef %call7, ptr noundef %call9, ptr noundef %call11)
          to label %invoke.cont14 unwind label %lpad4

invoke.cont14:                                    ; preds = %invoke.cont13
  call void @_ZN7testing8internal12CodeLocationD2Ev(ptr noundef nonnull align 8 dereferenceable(36) %agg.tmp) #3
  call void @_ZNSt7__cxx1112basic_stringIcSt11char_traitsIcESaIcEED1Ev(ptr noundef nonnull align 8 dereferenceable(32) %ref.tmp) #3
  call void @_ZNSaIcED1Ev(ptr noundef nonnull align 1 dereferenceable(1) %ref.tmp1) #3
  store ptr %call15, ptr @_ZN12_GLOBAL__N_133RandomDistributionsTest_Zipf_Test10test_info_E, align 8
  ret void

lpad:                                             ; preds = %entry
  %0 = landingpad { ptr, i32 }
          cleanup
  %1 = extractvalue { ptr, i32 } %0, 0
  store ptr %1, ptr %exn.slot, align 8
  %2 = extractvalue { ptr, i32 } %0, 1
  store i32 %2, ptr %ehselector.slot, align 4
  br label %ehcleanup17

lpad2:                                            ; preds = %invoke.cont
  %3 = landingpad { ptr, i32 }
          cleanup
  %4 = extractvalue { ptr, i32 } %3, 0
  store ptr %4, ptr %exn.slot, align 8
  %5 = extractvalue { ptr, i32 } %3, 1
  store i32 %5, ptr %ehselector.slot, align 4
  br label %ehcleanup16

lpad4:                                            ; preds = %invoke.cont13, %invoke.cont8, %invoke.cont6, %invoke.cont5, %invoke.cont3
  %6 = landingpad { ptr, i32 }
          cleanup
  %7 = extractvalue { ptr, i32 } %6, 0
  store ptr %7, ptr %exn.slot, align 8
  %8 = extractvalue { ptr, i32 } %6, 1
  store i32 %8, ptr %ehselector.slot, align 4
  br label %ehcleanup

lpad12:                                           ; preds = %invoke.cont10
  %9 = landingpad { ptr, i32 }
          cleanup
  %10 = extractvalue { ptr, i32 } %9, 0
  store ptr %10, ptr %exn.slot, align 8
  %11 = extractvalue { ptr, i32 } %9, 1
  store i32 %11, ptr %ehselector.slot, align 4
  call void @_ZdlPv(ptr noundef %call11) #14
  br label %ehcleanup

ehcleanup:                                        ; preds = %lpad12, %lpad4
  call void @_ZN7testing8internal12CodeLocationD2Ev(ptr noundef nonnull align 8 dereferenceable(36) %agg.tmp) #3
  br label %ehcleanup16

ehcleanup16:                                      ; preds = %ehcleanup, %lpad2
  call void @_ZNSt7__cxx1112basic_stringIcSt11char_traitsIcESaIcEED1Ev(ptr noundef nonnull align 8 dereferenceable(32) %ref.tmp) #3
  br label %ehcleanup17

ehcleanup17:                                      ; preds = %ehcleanup16, %lpad
  call void @_ZNSaIcED1Ev(ptr noundef nonnull align 1 dereferenceable(1) %ref.tmp1) #3
  br label %eh.resume

eh.resume:                                        ; preds = %ehcleanup17
  %exn = load ptr, ptr %exn.slot, align 8
  %sel = load i32, ptr %ehselector.slot, align 4
  %lpad.val = insertvalue { ptr, i32 } poison, ptr %exn, 0
  %lpad.val18 = insertvalue { ptr, i32 } %lpad.val, i32 %sel, 1
  resume { ptr, i32 } %lpad.val18
}

; Function Attrs: mustprogress nounwind uwtable
define internal void @_ZN7testing8internal15TestFactoryImplIN12_GLOBAL__N_133RandomDistributionsTest_Zipf_TestEEC2Ev(ptr noundef nonnull align 8 dereferenceable(8) %this) unnamed_addr #5 align 2 {
entry:
  %this.addr = alloca ptr, align 8
  store ptr %this, ptr %this.addr, align 8
  %this1 = load ptr, ptr %this.addr, align 8
  call void @_ZN7testing8internal15TestFactoryBaseC2Ev(ptr noundef nonnull align 8 dereferenceable(8) %this1)
  store ptr getelementptr inbounds ({ [5 x ptr] }, ptr @_ZTVN7testing8internal15TestFactoryImplIN12_GLOBAL__N_133RandomDistributionsTest_Zipf_TestEEE, i32 0, inrange i32 0, i32 2), ptr %this1, align 8
  ret void
}

; Function Attrs: uwtable
define internal void @__cxx_global_var_init.26() #0 section ".text.startup" personality ptr @__gxx_personality_v0 {
entry:
  %agg.tmp = alloca %"struct.testing::internal::CodeLocation", align 8
  %ref.tmp = alloca %"class.std::__cxx11::basic_string", align 8
  %ref.tmp1 = alloca %"class.std::allocator", align 1
  %exn.slot = alloca ptr, align 8
  %ehselector.slot = alloca i32, align 4
  call void @_ZNSaIcEC1Ev(ptr noundef nonnull align 1 dereferenceable(1) %ref.tmp1) #3
  invoke void @_ZNSt7__cxx1112basic_stringIcSt11char_traitsIcESaIcEEC2IS3_EEPKcRKS3_(ptr noundef nonnull align 8 dereferenceable(32) %ref.tmp, ptr noundef @.str.3, ptr noundef nonnull align 1 dereferenceable(1) %ref.tmp1)
          to label %invoke.cont unwind label %lpad

invoke.cont:                                      ; preds = %entry
  invoke void @_ZN7testing8internal12CodeLocationC2ERKNSt7__cxx1112basic_stringIcSt11char_traitsIcESaIcEEEi(ptr noundef nonnull align 8 dereferenceable(36) %agg.tmp, ptr noundef nonnull align 8 dereferenceable(32) %ref.tmp, i32 noundef 430)
          to label %invoke.cont3 unwind label %lpad2

invoke.cont3:                                     ; preds = %invoke.cont
  %call = invoke noundef ptr @_ZN7testing8internal9GetTypeIdIN12_GLOBAL__N_123RandomDistributionsTestEEEPKvv()
          to label %invoke.cont5 unwind label %lpad4

invoke.cont5:                                     ; preds = %invoke.cont3
  %call7 = invoke noundef ptr @_ZN7testing8internal16SuiteApiResolverIN12_GLOBAL__N_123RandomDistributionsTestEE19GetSetUpCaseOrSuiteEPKci(ptr noundef @.str.3, i32 noundef 430)
          to label %invoke.cont6 unwind label %lpad4

invoke.cont6:                                     ; preds = %invoke.cont5
  %call9 = invoke noundef ptr @_ZN7testing8internal16SuiteApiResolverIN12_GLOBAL__N_123RandomDistributionsTestEE22GetTearDownCaseOrSuiteEPKci(ptr noundef @.str.3, i32 noundef 430)
          to label %invoke.cont8 unwind label %lpad4

invoke.cont8:                                     ; preds = %invoke.cont6
  %call11 = invoke noalias noundef nonnull ptr @_Znwm(i64 noundef 8) #13
          to label %invoke.cont10 unwind label %lpad4

invoke.cont10:                                    ; preds = %invoke.cont8
  invoke void @_ZN7testing8internal15TestFactoryImplIN12_GLOBAL__N_137RandomDistributionsTest_Gaussian_TestEEC2Ev(ptr noundef nonnull align 8 dereferenceable(8) %call11)
          to label %invoke.cont13 unwind label %lpad12

invoke.cont13:                                    ; preds = %invoke.cont10
  %call15 = invoke noundef ptr @_ZN7testing8internal23MakeAndRegisterTestInfoEPKcS2_S2_S2_NS0_12CodeLocationEPKvPFvvES7_PNS0_15TestFactoryBaseE(ptr noundef @.str, ptr noundef @.str.27, ptr noundef null, ptr noundef null, ptr noundef %agg.tmp, ptr noundef %call, ptr noundef %call7, ptr noundef %call9, ptr noundef %call11)
          to label %invoke.cont14 unwind label %lpad4

invoke.cont14:                                    ; preds = %invoke.cont13
  call void @_ZN7testing8internal12CodeLocationD2Ev(ptr noundef nonnull align 8 dereferenceable(36) %agg.tmp) #3
  call void @_ZNSt7__cxx1112basic_stringIcSt11char_traitsIcESaIcEED1Ev(ptr noundef nonnull align 8 dereferenceable(32) %ref.tmp) #3
  call void @_ZNSaIcED1Ev(ptr noundef nonnull align 1 dereferenceable(1) %ref.tmp1) #3
  store ptr %call15, ptr @_ZN12_GLOBAL__N_137RandomDistributionsTest_Gaussian_Test10test_info_E, align 8
  ret void

lpad:                                             ; preds = %entry
  %0 = landingpad { ptr, i32 }
          cleanup
  %1 = extractvalue { ptr, i32 } %0, 0
  store ptr %1, ptr %exn.slot, align 8
  %2 = extractvalue { ptr, i32 } %0, 1
  store i32 %2, ptr %ehselector.slot, align 4
  br label %ehcleanup17

lpad2:                                            ; preds = %invoke.cont
  %3 = landingpad { ptr, i32 }
          cleanup
  %4 = extractvalue { ptr, i32 } %3, 0
  store ptr %4, ptr %exn.slot, align 8
  %5 = extractvalue { ptr, i32 } %3, 1
  store i32 %5, ptr %ehselector.slot, align 4
  br label %ehcleanup16

lpad4:                                            ; preds = %invoke.cont13, %invoke.cont8, %invoke.cont6, %invoke.cont5, %invoke.cont3
  %6 = landingpad { ptr, i32 }
          cleanup
  %7 = extractvalue { ptr, i32 } %6, 0
  store ptr %7, ptr %exn.slot, align 8
  %8 = extractvalue { ptr, i32 } %6, 1
  store i32 %8, ptr %ehselector.slot, align 4
  br label %ehcleanup

lpad12:                                           ; preds = %invoke.cont10
  %9 = landingpad { ptr, i32 }
          cleanup
  %10 = extractvalue { ptr, i32 } %9, 0
  store ptr %10, ptr %exn.slot, align 8
  %11 = extractvalue { ptr, i32 } %9, 1
  store i32 %11, ptr %ehselector.slot, align 4
  call void @_ZdlPv(ptr noundef %call11) #14
  br label %ehcleanup

ehcleanup:                                        ; preds = %lpad12, %lpad4
  call void @_ZN7testing8internal12CodeLocationD2Ev(ptr noundef nonnull align 8 dereferenceable(36) %agg.tmp) #3
  br label %ehcleanup16

ehcleanup16:                                      ; preds = %ehcleanup, %lpad2
  call void @_ZNSt7__cxx1112basic_stringIcSt11char_traitsIcESaIcEED1Ev(ptr noundef nonnull align 8 dereferenceable(32) %ref.tmp) #3
  br label %ehcleanup17

ehcleanup17:                                      ; preds = %ehcleanup16, %lpad
  call void @_ZNSaIcED1Ev(ptr noundef nonnull align 1 dereferenceable(1) %ref.tmp1) #3
  br label %eh.resume

eh.resume:                                        ; preds = %ehcleanup17
  %exn = load ptr, ptr %exn.slot, align 8
  %sel = load i32, ptr %ehselector.slot, align 4
  %lpad.val = insertvalue { ptr, i32 } poison, ptr %exn, 0
  %lpad.val18 = insertvalue { ptr, i32 } %lpad.val, i32 %sel, 1
  resume { ptr, i32 } %lpad.val18
}

; Function Attrs: mustprogress nounwind uwtable
define internal void @_ZN7testing8internal15TestFactoryImplIN12_GLOBAL__N_137RandomDistributionsTest_Gaussian_TestEEC2Ev(ptr noundef nonnull align 8 dereferenceable(8) %this) unnamed_addr #5 align 2 {
entry:
  %this.addr = alloca ptr, align 8
  store ptr %this, ptr %this.addr, align 8
  %this1 = load ptr, ptr %this.addr, align 8
  call void @_ZN7testing8internal15TestFactoryBaseC2Ev(ptr noundef nonnull align 8 dereferenceable(8) %this1)
  store ptr getelementptr inbounds ({ [5 x ptr] }, ptr @_ZTVN7testing8internal15TestFactoryImplIN12_GLOBAL__N_137RandomDistributionsTest_Gaussian_TestEEE, i32 0, inrange i32 0, i32 2), ptr %this1, align 8
  ret void
}

; Function Attrs: uwtable
define internal void @__cxx_global_var_init.28() #0 section ".text.startup" personality ptr @__gxx_personality_v0 {
entry:
  %agg.tmp = alloca %"struct.testing::internal::CodeLocation", align 8
  %ref.tmp = alloca %"class.std::__cxx11::basic_string", align 8
  %ref.tmp1 = alloca %"class.std::allocator", align 1
  %exn.slot = alloca ptr, align 8
  %ehselector.slot = alloca i32, align 4
  call void @_ZNSaIcEC1Ev(ptr noundef nonnull align 1 dereferenceable(1) %ref.tmp1) #3
  invoke void @_ZNSt7__cxx1112basic_stringIcSt11char_traitsIcESaIcEEC2IS3_EEPKcRKS3_(ptr noundef nonnull align 8 dereferenceable(32) %ref.tmp, ptr noundef @.str.3, ptr noundef nonnull align 1 dereferenceable(1) %ref.tmp1)
          to label %invoke.cont unwind label %lpad

invoke.cont:                                      ; preds = %entry
  invoke void @_ZN7testing8internal12CodeLocationC2ERKNSt7__cxx1112basic_stringIcSt11char_traitsIcESaIcEEEi(ptr noundef nonnull align 8 dereferenceable(36) %agg.tmp, ptr noundef nonnull align 8 dereferenceable(32) %ref.tmp, i32 noundef 446)
          to label %invoke.cont3 unwind label %lpad2

invoke.cont3:                                     ; preds = %invoke.cont
  %call = invoke noundef ptr @_ZN7testing8internal9GetTypeIdIN12_GLOBAL__N_123RandomDistributionsTestEEEPKvv()
          to label %invoke.cont5 unwind label %lpad4

invoke.cont5:                                     ; preds = %invoke.cont3
  %call7 = invoke noundef ptr @_ZN7testing8internal16SuiteApiResolverIN12_GLOBAL__N_123RandomDistributionsTestEE19GetSetUpCaseOrSuiteEPKci(ptr noundef @.str.3, i32 noundef 446)
          to label %invoke.cont6 unwind label %lpad4

invoke.cont6:                                     ; preds = %invoke.cont5
  %call9 = invoke noundef ptr @_ZN7testing8internal16SuiteApiResolverIN12_GLOBAL__N_123RandomDistributionsTestEE22GetTearDownCaseOrSuiteEPKci(ptr noundef @.str.3, i32 noundef 446)
          to label %invoke.cont8 unwind label %lpad4

invoke.cont8:                                     ; preds = %invoke.cont6
  %call11 = invoke noalias noundef nonnull ptr @_Znwm(i64 noundef 8) #13
          to label %invoke.cont10 unwind label %lpad4

invoke.cont10:                                    ; preds = %invoke.cont8
  invoke void @_ZN7testing8internal15TestFactoryImplIN12_GLOBAL__N_139RandomDistributionsTest_LogUniform_TestEEC2Ev(ptr noundef nonnull align 8 dereferenceable(8) %call11)
          to label %invoke.cont13 unwind label %lpad12

invoke.cont13:                                    ; preds = %invoke.cont10
  %call15 = invoke noundef ptr @_ZN7testing8internal23MakeAndRegisterTestInfoEPKcS2_S2_S2_NS0_12CodeLocationEPKvPFvvES7_PNS0_15TestFactoryBaseE(ptr noundef @.str, ptr noundef @.str.29, ptr noundef null, ptr noundef null, ptr noundef %agg.tmp, ptr noundef %call, ptr noundef %call7, ptr noundef %call9, ptr noundef %call11)
          to label %invoke.cont14 unwind label %lpad4

invoke.cont14:                                    ; preds = %invoke.cont13
  call void @_ZN7testing8internal12CodeLocationD2Ev(ptr noundef nonnull align 8 dereferenceable(36) %agg.tmp) #3
  call void @_ZNSt7__cxx1112basic_stringIcSt11char_traitsIcESaIcEED1Ev(ptr noundef nonnull align 8 dereferenceable(32) %ref.tmp) #3
  call void @_ZNSaIcED1Ev(ptr noundef nonnull align 1 dereferenceable(1) %ref.tmp1) #3
  store ptr %call15, ptr @_ZN12_GLOBAL__N_139RandomDistributionsTest_LogUniform_Test10test_info_E, align 8
  ret void

lpad:                                             ; preds = %entry
  %0 = landingpad { ptr, i32 }
          cleanup
  %1 = extractvalue { ptr, i32 } %0, 0
  store ptr %1, ptr %exn.slot, align 8
  %2 = extractvalue { ptr, i32 } %0, 1
  store i32 %2, ptr %ehselector.slot, align 4
  br label %ehcleanup17

lpad2:                                            ; preds = %invoke.cont
  %3 = landingpad { ptr, i32 }
          cleanup
  %4 = extractvalue { ptr, i32 } %3, 0
  store ptr %4, ptr %exn.slot, align 8
  %5 = extractvalue { ptr, i32 } %3, 1
  store i32 %5, ptr %ehselector.slot, align 4
  br label %ehcleanup16

lpad4:                                            ; preds = %invoke.cont13, %invoke.cont8, %invoke.cont6, %invoke.cont5, %invoke.cont3
  %6 = landingpad { ptr, i32 }
          cleanup
  %7 = extractvalue { ptr, i32 } %6, 0
  store ptr %7, ptr %exn.slot, align 8
  %8 = extractvalue { ptr, i32 } %6, 1
  store i32 %8, ptr %ehselector.slot, align 4
  br label %ehcleanup

lpad12:                                           ; preds = %invoke.cont10
  %9 = landingpad { ptr, i32 }
          cleanup
  %10 = extractvalue { ptr, i32 } %9, 0
  store ptr %10, ptr %exn.slot, align 8
  %11 = extractvalue { ptr, i32 } %9, 1
  store i32 %11, ptr %ehselector.slot, align 4
  call void @_ZdlPv(ptr noundef %call11) #14
  br label %ehcleanup

ehcleanup:                                        ; preds = %lpad12, %lpad4
  call void @_ZN7testing8internal12CodeLocationD2Ev(ptr noundef nonnull align 8 dereferenceable(36) %agg.tmp) #3
  br label %ehcleanup16

ehcleanup16:                                      ; preds = %ehcleanup, %lpad2
  call void @_ZNSt7__cxx1112basic_stringIcSt11char_traitsIcESaIcEED1Ev(ptr noundef nonnull align 8 dereferenceable(32) %ref.tmp) #3
  br label %ehcleanup17

ehcleanup17:                                      ; preds = %ehcleanup16, %lpad
  call void @_ZNSaIcED1Ev(ptr noundef nonnull align 1 dereferenceable(1) %ref.tmp1) #3
  br label %eh.resume

eh.resume:                                        ; preds = %ehcleanup17
  %exn = load ptr, ptr %exn.slot, align 8
  %sel = load i32, ptr %ehselector.slot, align 4
  %lpad.val = insertvalue { ptr, i32 } poison, ptr %exn, 0
  %lpad.val18 = insertvalue { ptr, i32 } %lpad.val, i32 %sel, 1
  resume { ptr, i32 } %lpad.val18
}

; Function Attrs: mustprogress nounwind uwtable
define internal void @_ZN7testing8internal15TestFactoryImplIN12_GLOBAL__N_139RandomDistributionsTest_LogUniform_TestEEC2Ev(ptr noundef nonnull align 8 dereferenceable(8) %this) unnamed_addr #5 align 2 {
entry:
  %this.addr = alloca ptr, align 8
  store ptr %this, ptr %this.addr, align 8
  %this1 = load ptr, ptr %this.addr, align 8
  call void @_ZN7testing8internal15TestFactoryBaseC2Ev(ptr noundef nonnull align 8 dereferenceable(8) %this1)
  store ptr getelementptr inbounds ({ [5 x ptr] }, ptr @_ZTVN7testing8internal15TestFactoryImplIN12_GLOBAL__N_139RandomDistributionsTest_LogUniform_TestEEE, i32 0, inrange i32 0, i32 2), ptr %this1, align 8
  ret void
}

declare void @_ZNSt7__cxx1112basic_stringIcSt11char_traitsIcESaIcEEC1ERKS4_(ptr noundef nonnull align 8 dereferenceable(32), ptr noundef nonnull align 8 dereferenceable(32)) unnamed_addr #1

; Function Attrs: mustprogress nounwind uwtable
define linkonce_odr dso_local void @_ZN7testing8internal15TestFactoryBaseC2Ev(ptr noundef nonnull align 8 dereferenceable(8) %this) unnamed_addr #5 comdat align 2 {
entry:
  %this.addr = alloca ptr, align 8
  store ptr %this, ptr %this.addr, align 8
  %this1 = load ptr, ptr %this.addr, align 8
  store ptr getelementptr inbounds ({ [5 x ptr] }, ptr @_ZTVN7testing8internal15TestFactoryBaseE, i32 0, inrange i32 0, i32 2), ptr %this1, align 8
  ret void
}

; Function Attrs: mustprogress nounwind uwtable
define internal void @_ZN7testing8internal15TestFactoryImplIN12_GLOBAL__N_149RandomDistributionsTest_UniformTypeInference_TestEED2Ev(ptr noundef nonnull align 8 dereferenceable(8) %this) unnamed_addr #5 align 2 {
entry:
  %this.addr = alloca ptr, align 8
  store ptr %this, ptr %this.addr, align 8
  %this1 = load ptr, ptr %this.addr, align 8
  call void @_ZN7testing8internal15TestFactoryBaseD2Ev(ptr noundef nonnull align 8 dereferenceable(8) %this1) #3
  ret void
}

; Function Attrs: mustprogress nounwind uwtable
define internal void @_ZN7testing8internal15TestFactoryImplIN12_GLOBAL__N_149RandomDistributionsTest_UniformTypeInference_TestEED0Ev(ptr noundef nonnull align 8 dereferenceable(8) %this) unnamed_addr #5 align 2 {
entry:
  %this.addr = alloca ptr, align 8
  store ptr %this, ptr %this.addr, align 8
  %this1 = load ptr, ptr %this.addr, align 8
  call void @_ZN7testing8internal15TestFactoryImplIN12_GLOBAL__N_149RandomDistributionsTest_UniformTypeInference_TestEED2Ev(ptr noundef nonnull align 8 dereferenceable(8) %this1) #3
  call void @_ZdlPv(ptr noundef %this1) #14
  ret void
}

; Function Attrs: mustprogress uwtable
define internal noundef ptr @_ZN7testing8internal15TestFactoryImplIN12_GLOBAL__N_149RandomDistributionsTest_UniformTypeInference_TestEE10CreateTestEv(ptr noundef nonnull align 8 dereferenceable(8) %this) unnamed_addr #4 align 2 personality ptr @__gxx_personality_v0 {
entry:
  %this.addr = alloca ptr, align 8
  %exn.slot = alloca ptr, align 8
  %ehselector.slot = alloca i32, align 4
  store ptr %this, ptr %this.addr, align 8
  %call = call noalias noundef nonnull ptr @_Znwm(i64 noundef 16) #13
  invoke void @_ZN12_GLOBAL__N_149RandomDistributionsTest_UniformTypeInference_TestC2Ev(ptr noundef nonnull align 8 dereferenceable(16) %call)
          to label %invoke.cont unwind label %lpad

invoke.cont:                                      ; preds = %entry
  ret ptr %call

lpad:                                             ; preds = %entry
  %0 = landingpad { ptr, i32 }
          cleanup
  %1 = extractvalue { ptr, i32 } %0, 0
  store ptr %1, ptr %exn.slot, align 8
  %2 = extractvalue { ptr, i32 } %0, 1
  store i32 %2, ptr %ehselector.slot, align 4
  call void @_ZdlPv(ptr noundef %call) #14
  br label %eh.resume

eh.resume:                                        ; preds = %lpad
  %exn = load ptr, ptr %exn.slot, align 8
  %sel = load i32, ptr %ehselector.slot, align 4
  %lpad.val = insertvalue { ptr, i32 } poison, ptr %exn, 0
  %lpad.val2 = insertvalue { ptr, i32 } %lpad.val, i32 %sel, 1
  resume { ptr, i32 } %lpad.val2
}

; Function Attrs: mustprogress nounwind uwtable
define linkonce_odr dso_local void @_ZN7testing8internal15TestFactoryBaseD2Ev(ptr noundef nonnull align 8 dereferenceable(8) %this) unnamed_addr #5 comdat align 2 {
entry:
  %this.addr = alloca ptr, align 8
  store ptr %this, ptr %this.addr, align 8
  ret void
}

; Function Attrs: mustprogress nounwind uwtable
define linkonce_odr dso_local void @_ZN7testing8internal15TestFactoryBaseD0Ev(ptr noundef nonnull align 8 dereferenceable(8) %this) unnamed_addr #5 comdat align 2 {
entry:
  %this.addr = alloca ptr, align 8
  store ptr %this, ptr %this.addr, align 8
  call void @llvm.trap() #16
  unreachable
}

declare void @__cxa_pure_virtual() unnamed_addr

; Function Attrs: cold noreturn nounwind memory(inaccessiblemem: write)
declare void @llvm.trap() #8

; Function Attrs: mustprogress uwtable
define internal void @_ZN12_GLOBAL__N_149RandomDistributionsTest_UniformTypeInference_TestC2Ev(ptr noundef nonnull align 8 dereferenceable(16) %this) unnamed_addr #4 align 2 {
entry:
  %this.addr = alloca ptr, align 8
  store ptr %this, ptr %this.addr, align 8
  %this1 = load ptr, ptr %this.addr, align 8
  call void @_ZN12_GLOBAL__N_123RandomDistributionsTestC2Ev(ptr noundef nonnull align 8 dereferenceable(16) %this1)
  store ptr getelementptr inbounds ({ [8 x ptr] }, ptr @_ZTVN12_GLOBAL__N_149RandomDistributionsTest_UniformTypeInference_TestE, i32 0, inrange i32 0, i32 2), ptr %this1, align 8
  ret void
}

; Function Attrs: mustprogress uwtable
define internal void @_ZN12_GLOBAL__N_123RandomDistributionsTestC2Ev(ptr noundef nonnull align 8 dereferenceable(16) %this) unnamed_addr #4 align 2 {
entry:
  %this.addr = alloca ptr, align 8
  store ptr %this, ptr %this.addr, align 8
  %this1 = load ptr, ptr %this.addr, align 8
  call void @_ZN7testing4TestC2Ev(ptr noundef nonnull align 8 dereferenceable(16) %this1)
  store ptr getelementptr inbounds ({ [8 x ptr] }, ptr @_ZTVN12_GLOBAL__N_123RandomDistributionsTestE, i32 0, inrange i32 0, i32 2), ptr %this1, align 8
  ret void
}

; Function Attrs: mustprogress nounwind uwtable
define internal void @_ZN12_GLOBAL__N_149RandomDistributionsTest_UniformTypeInference_TestD2Ev(ptr noundef nonnull align 8 dereferenceable(16) %this) unnamed_addr #5 align 2 {
entry:
  %this.addr = alloca ptr, align 8
  store ptr %this, ptr %this.addr, align 8
  %this1 = load ptr, ptr %this.addr, align 8
  call void @_ZN12_GLOBAL__N_123RandomDistributionsTestD2Ev(ptr noundef nonnull align 8 dereferenceable(16) %this1) #3
  ret void
}

; Function Attrs: mustprogress nounwind uwtable
define internal void @_ZN12_GLOBAL__N_149RandomDistributionsTest_UniformTypeInference_TestD0Ev(ptr noundef nonnull align 8 dereferenceable(16) %this) unnamed_addr #5 align 2 {
entry:
  %this.addr = alloca ptr, align 8
  store ptr %this, ptr %this.addr, align 8
  %this1 = load ptr, ptr %this.addr, align 8
  call void @_ZN12_GLOBAL__N_149RandomDistributionsTest_UniformTypeInference_TestD2Ev(ptr noundef nonnull align 8 dereferenceable(16) %this1) #3
  call void @_ZdlPv(ptr noundef %this1) #14
  ret void
}

declare void @_ZN7testing4Test5SetUpEv(ptr noundef nonnull align 8 dereferenceable(16)) unnamed_addr #1

declare void @_ZN7testing4Test8TearDownEv(ptr noundef nonnull align 8 dereferenceable(16)) unnamed_addr #1

; Function Attrs: mustprogress uwtable
define internal void @_ZN12_GLOBAL__N_149RandomDistributionsTest_UniformTypeInference_Test8TestBodyEv(ptr noundef nonnull align 8 dereferenceable(16) %this) unnamed_addr #4 align 2 {
entry:
  %this.addr = alloca ptr, align 8
  store ptr %this, ptr %this.addr, align 8
  call void @_ZN12_GLOBAL__N_118CheckArgsInferTypeItttEEvv()
  call void @_ZN12_GLOBAL__N_118CheckArgsInferTypeIjjjEEvv()
  call void @_ZN12_GLOBAL__N_118CheckArgsInferTypeImmmEEvv()
  call void @_ZN12_GLOBAL__N_118CheckArgsInferTypeIsssEEvv()
  call void @_ZN12_GLOBAL__N_118CheckArgsInferTypeIiiiEEvv()
  call void @_ZN12_GLOBAL__N_118CheckArgsInferTypeIlllEEvv()
  call void @_ZN12_GLOBAL__N_118CheckArgsInferTypeIfffEEvv()
  call void @_ZN12_GLOBAL__N_118CheckArgsInferTypeIdddEEvv()
  call void @_ZN12_GLOBAL__N_127CheckArgsReturnExpectedTypeIssiEEvv()
  call void @_ZN12_GLOBAL__N_127CheckArgsReturnExpectedTypeIttiEEvv()
  call void @_ZN12_GLOBAL__N_127CheckArgsReturnExpectedTypeIsslEEvv()
  call void @_ZN12_GLOBAL__N_127CheckArgsReturnExpectedTypeIsilEEvv()
  call void @_ZN12_GLOBAL__N_127CheckArgsReturnExpectedTypeIsidEEvv()
  call void @_ZN12_GLOBAL__N_127CheckArgsReturnExpectedTypeIffdEEvv()
  call void @_ZN12_GLOBAL__N_127CheckArgsReturnExpectedTypeIiisEEvv()
  call void @_ZN12_GLOBAL__N_118CheckArgsInferTypeItjjEEvv()
  call void @_ZN12_GLOBAL__N_118CheckArgsInferTypeItmmEEvv()
  call void @_ZN12_GLOBAL__N_118CheckArgsInferTypeItiiEEvv()
  call void @_ZN12_GLOBAL__N_118CheckArgsInferTypeItllEEvv()
  call void @_ZN12_GLOBAL__N_118CheckArgsInferTypeItffEEvv()
  call void @_ZN12_GLOBAL__N_118CheckArgsInferTypeItddEEvv()
  call void @_ZN12_GLOBAL__N_118CheckArgsInferTypeIsiiEEvv()
  call void @_ZN12_GLOBAL__N_118CheckArgsInferTypeIsllEEvv()
  call void @_ZN12_GLOBAL__N_118CheckArgsInferTypeIsffEEvv()
  call void @_ZN12_GLOBAL__N_118CheckArgsInferTypeIsddEEvv()
  call void @_ZN12_GLOBAL__N_118CheckArgsInferTypeItsNS_7InvalidEEEvv()
  call void @_ZN12_GLOBAL__N_118CheckArgsInferTypeIsjNS_7InvalidEEEvv()
  call void @_ZN12_GLOBAL__N_118CheckArgsInferTypeIsmNS_7InvalidEEEvv()
  call void @_ZN12_GLOBAL__N_118CheckArgsInferTypeIjmmEEvv()
  call void @_ZN12_GLOBAL__N_118CheckArgsInferTypeIjllEEvv()
  call void @_ZN12_GLOBAL__N_118CheckArgsInferTypeIjddEEvv()
  call void @_ZN12_GLOBAL__N_118CheckArgsInferTypeIillEEvv()
  call void @_ZN12_GLOBAL__N_118CheckArgsInferTypeIiddEEvv()
  call void @_ZN12_GLOBAL__N_118CheckArgsInferTypeIjiNS_7InvalidEEEvv()
  call void @_ZN12_GLOBAL__N_118CheckArgsInferTypeIimNS_7InvalidEEEvv()
  call void @_ZN12_GLOBAL__N_118CheckArgsInferTypeIifNS_7InvalidEEEvv()
  call void @_ZN12_GLOBAL__N_118CheckArgsInferTypeIjfNS_7InvalidEEEvv()
  call void @_ZN12_GLOBAL__N_118CheckArgsInferTypeImlNS_7InvalidEEEvv()
  call void @_ZN12_GLOBAL__N_118CheckArgsInferTypeIlfNS_7InvalidEEEvv()
  call void @_ZN12_GLOBAL__N_118CheckArgsInferTypeIldNS_7InvalidEEEvv()
  call void @_ZN12_GLOBAL__N_118CheckArgsInferTypeIfddEEvv()
  ret void
}

; Function Attrs: mustprogress nounwind uwtable
define linkonce_odr dso_local noundef ptr @_ZN7testing4Test5SetupEv(ptr noundef nonnull align 8 dereferenceable(16) %this) unnamed_addr #5 comdat align 2 {
entry:
  %this.addr = alloca ptr, align 8
  store ptr %this, ptr %this.addr, align 8
  ret ptr null
}

declare void @_ZN7testing4TestC2Ev(ptr noundef nonnull align 8 dereferenceable(16)) unnamed_addr #1

; Function Attrs: mustprogress nounwind uwtable
define internal void @_ZN12_GLOBAL__N_123RandomDistributionsTestD2Ev(ptr noundef nonnull align 8 dereferenceable(16) %this) unnamed_addr #5 align 2 {
entry:
  %this.addr = alloca ptr, align 8
  store ptr %this, ptr %this.addr, align 8
  %this1 = load ptr, ptr %this.addr, align 8
  call void @_ZN7testing4TestD2Ev(ptr noundef nonnull align 8 dereferenceable(16) %this1) #3
  ret void
}

; Function Attrs: mustprogress nounwind uwtable
define internal void @_ZN12_GLOBAL__N_123RandomDistributionsTestD0Ev(ptr noundef nonnull align 8 dereferenceable(16) %this) unnamed_addr #5 align 2 {
entry:
  %this.addr = alloca ptr, align 8
  store ptr %this, ptr %this.addr, align 8
  call void @llvm.trap() #16
  unreachable
}

; Function Attrs: nounwind
declare void @_ZN7testing4TestD2Ev(ptr noundef nonnull align 8 dereferenceable(16)) unnamed_addr #2

; Function Attrs: mustprogress nounwind uwtable
define internal void @_ZN12_GLOBAL__N_118CheckArgsInferTypeItttEEvv() #5 {
entry:
  ret void
}

; Function Attrs: mustprogress nounwind uwtable
define internal void @_ZN12_GLOBAL__N_118CheckArgsInferTypeIjjjEEvv() #5 {
entry:
  ret void
}

; Function Attrs: mustprogress nounwind uwtable
define internal void @_ZN12_GLOBAL__N_118CheckArgsInferTypeImmmEEvv() #5 {
entry:
  ret void
}

; Function Attrs: mustprogress nounwind uwtable
define internal void @_ZN12_GLOBAL__N_118CheckArgsInferTypeIsssEEvv() #5 {
entry:
  ret void
}

; Function Attrs: mustprogress nounwind uwtable
define internal void @_ZN12_GLOBAL__N_118CheckArgsInferTypeIiiiEEvv() #5 {
entry:
  ret void
}

; Function Attrs: mustprogress nounwind uwtable
define internal void @_ZN12_GLOBAL__N_118CheckArgsInferTypeIlllEEvv() #5 {
entry:
  ret void
}

; Function Attrs: mustprogress nounwind uwtable
define internal void @_ZN12_GLOBAL__N_118CheckArgsInferTypeIfffEEvv() #5 {
entry:
  ret void
}

; Function Attrs: mustprogress nounwind uwtable
define internal void @_ZN12_GLOBAL__N_118CheckArgsInferTypeIdddEEvv() #5 {
entry:
  ret void
}

; Function Attrs: mustprogress nounwind uwtable
define internal void @_ZN12_GLOBAL__N_127CheckArgsReturnExpectedTypeIssiEEvv() #5 {
entry:
  ret void
}

; Function Attrs: mustprogress nounwind uwtable
define internal void @_ZN12_GLOBAL__N_127CheckArgsReturnExpectedTypeIttiEEvv() #5 {
entry:
  ret void
}

; Function Attrs: mustprogress nounwind uwtable
define internal void @_ZN12_GLOBAL__N_127CheckArgsReturnExpectedTypeIsslEEvv() #5 {
entry:
  ret void
}

; Function Attrs: mustprogress nounwind uwtable
define internal void @_ZN12_GLOBAL__N_127CheckArgsReturnExpectedTypeIsilEEvv() #5 {
entry:
  ret void
}

; Function Attrs: mustprogress nounwind uwtable
define internal void @_ZN12_GLOBAL__N_127CheckArgsReturnExpectedTypeIsidEEvv() #5 {
entry:
  ret void
}

; Function Attrs: mustprogress nounwind uwtable
define internal void @_ZN12_GLOBAL__N_127CheckArgsReturnExpectedTypeIffdEEvv() #5 {
entry:
  ret void
}

; Function Attrs: mustprogress nounwind uwtable
define internal void @_ZN12_GLOBAL__N_127CheckArgsReturnExpectedTypeIiisEEvv() #5 {
entry:
  ret void
}

; Function Attrs: mustprogress nounwind uwtable
define internal void @_ZN12_GLOBAL__N_118CheckArgsInferTypeItjjEEvv() #5 {
entry:
  ret void
}

; Function Attrs: mustprogress nounwind uwtable
define internal void @_ZN12_GLOBAL__N_118CheckArgsInferTypeItmmEEvv() #5 {
entry:
  ret void
}

; Function Attrs: mustprogress nounwind uwtable
define internal void @_ZN12_GLOBAL__N_118CheckArgsInferTypeItiiEEvv() #5 {
entry:
  ret void
}

; Function Attrs: mustprogress nounwind uwtable
define internal void @_ZN12_GLOBAL__N_118CheckArgsInferTypeItllEEvv() #5 {
entry:
  ret void
}

; Function Attrs: mustprogress nounwind uwtable
define internal void @_ZN12_GLOBAL__N_118CheckArgsInferTypeItffEEvv() #5 {
entry:
  ret void
}

; Function Attrs: mustprogress nounwind uwtable
define internal void @_ZN12_GLOBAL__N_118CheckArgsInferTypeItddEEvv() #5 {
entry:
  ret void
}

; Function Attrs: mustprogress nounwind uwtable
define internal void @_ZN12_GLOBAL__N_118CheckArgsInferTypeIsiiEEvv() #5 {
entry:
  ret void
}

; Function Attrs: mustprogress nounwind uwtable
define internal void @_ZN12_GLOBAL__N_118CheckArgsInferTypeIsllEEvv() #5 {
entry:
  ret void
}

; Function Attrs: mustprogress nounwind uwtable
define internal void @_ZN12_GLOBAL__N_118CheckArgsInferTypeIsffEEvv() #5 {
entry:
  ret void
}

; Function Attrs: mustprogress nounwind uwtable
define internal void @_ZN12_GLOBAL__N_118CheckArgsInferTypeIsddEEvv() #5 {
entry:
  ret void
}

; Function Attrs: mustprogress nounwind uwtable
define internal void @_ZN12_GLOBAL__N_118CheckArgsInferTypeItsNS_7InvalidEEEvv() #5 {
entry:
  ret void
}

; Function Attrs: mustprogress nounwind uwtable
define internal void @_ZN12_GLOBAL__N_118CheckArgsInferTypeIsjNS_7InvalidEEEvv() #5 {
entry:
  ret void
}

; Function Attrs: mustprogress nounwind uwtable
define internal void @_ZN12_GLOBAL__N_118CheckArgsInferTypeIsmNS_7InvalidEEEvv() #5 {
entry:
  ret void
}

; Function Attrs: mustprogress nounwind uwtable
define internal void @_ZN12_GLOBAL__N_118CheckArgsInferTypeIjmmEEvv() #5 {
entry:
  ret void
}

; Function Attrs: mustprogress nounwind uwtable
define internal void @_ZN12_GLOBAL__N_118CheckArgsInferTypeIjllEEvv() #5 {
entry:
  ret void
}

; Function Attrs: mustprogress nounwind uwtable
define internal void @_ZN12_GLOBAL__N_118CheckArgsInferTypeIjddEEvv() #5 {
entry:
  ret void
}

; Function Attrs: mustprogress nounwind uwtable
define internal void @_ZN12_GLOBAL__N_118CheckArgsInferTypeIillEEvv() #5 {
entry:
  ret void
}

; Function Attrs: mustprogress nounwind uwtable
define internal void @_ZN12_GLOBAL__N_118CheckArgsInferTypeIiddEEvv() #5 {
entry:
  ret void
}

; Function Attrs: mustprogress nounwind uwtable
define internal void @_ZN12_GLOBAL__N_118CheckArgsInferTypeIjiNS_7InvalidEEEvv() #5 {
entry:
  ret void
}

; Function Attrs: mustprogress nounwind uwtable
define internal void @_ZN12_GLOBAL__N_118CheckArgsInferTypeIimNS_7InvalidEEEvv() #5 {
entry:
  ret void
}

; Function Attrs: mustprogress nounwind uwtable
define internal void @_ZN12_GLOBAL__N_118CheckArgsInferTypeIifNS_7InvalidEEEvv() #5 {
entry:
  ret void
}

; Function Attrs: mustprogress nounwind uwtable
define internal void @_ZN12_GLOBAL__N_118CheckArgsInferTypeIjfNS_7InvalidEEEvv() #5 {
entry:
  ret void
}

; Function Attrs: mustprogress nounwind uwtable
define internal void @_ZN12_GLOBAL__N_118CheckArgsInferTypeImlNS_7InvalidEEEvv() #5 {
entry:
  ret void
}

; Function Attrs: mustprogress nounwind uwtable
define internal void @_ZN12_GLOBAL__N_118CheckArgsInferTypeIlfNS_7InvalidEEEvv() #5 {
entry:
  ret void
}

; Function Attrs: mustprogress nounwind uwtable
define internal void @_ZN12_GLOBAL__N_118CheckArgsInferTypeIldNS_7InvalidEEEvv() #5 {
entry:
  ret void
}

; Function Attrs: mustprogress nounwind uwtable
define internal void @_ZN12_GLOBAL__N_118CheckArgsInferTypeIfddEEvv() #5 {
entry:
  ret void
}

; Function Attrs: mustprogress nounwind uwtable
define internal void @_ZN7testing8internal15TestFactoryImplIN12_GLOBAL__N_144RandomDistributionsTest_UniformExamples_TestEED2Ev(ptr noundef nonnull align 8 dereferenceable(8) %this) unnamed_addr #5 align 2 {
entry:
  %this.addr = alloca ptr, align 8
  store ptr %this, ptr %this.addr, align 8
  %this1 = load ptr, ptr %this.addr, align 8
  call void @_ZN7testing8internal15TestFactoryBaseD2Ev(ptr noundef nonnull align 8 dereferenceable(8) %this1) #3
  ret void
}

; Function Attrs: mustprogress nounwind uwtable
define internal void @_ZN7testing8internal15TestFactoryImplIN12_GLOBAL__N_144RandomDistributionsTest_UniformExamples_TestEED0Ev(ptr noundef nonnull align 8 dereferenceable(8) %this) unnamed_addr #5 align 2 {
entry:
  %this.addr = alloca ptr, align 8
  store ptr %this, ptr %this.addr, align 8
  %this1 = load ptr, ptr %this.addr, align 8
  call void @_ZN7testing8internal15TestFactoryImplIN12_GLOBAL__N_144RandomDistributionsTest_UniformExamples_TestEED2Ev(ptr noundef nonnull align 8 dereferenceable(8) %this1) #3
  call void @_ZdlPv(ptr noundef %this1) #14
  ret void
}

; Function Attrs: mustprogress uwtable
define internal noundef ptr @_ZN7testing8internal15TestFactoryImplIN12_GLOBAL__N_144RandomDistributionsTest_UniformExamples_TestEE10CreateTestEv(ptr noundef nonnull align 8 dereferenceable(8) %this) unnamed_addr #4 align 2 personality ptr @__gxx_personality_v0 {
entry:
  %this.addr = alloca ptr, align 8
  %exn.slot = alloca ptr, align 8
  %ehselector.slot = alloca i32, align 4
  store ptr %this, ptr %this.addr, align 8
  %call = call noalias noundef nonnull ptr @_Znwm(i64 noundef 16) #13
  invoke void @_ZN12_GLOBAL__N_144RandomDistributionsTest_UniformExamples_TestC2Ev(ptr noundef nonnull align 8 dereferenceable(16) %call)
          to label %invoke.cont unwind label %lpad

invoke.cont:                                      ; preds = %entry
  ret ptr %call

lpad:                                             ; preds = %entry
  %0 = landingpad { ptr, i32 }
          cleanup
  %1 = extractvalue { ptr, i32 } %0, 0
  store ptr %1, ptr %exn.slot, align 8
  %2 = extractvalue { ptr, i32 } %0, 1
  store i32 %2, ptr %ehselector.slot, align 4
  call void @_ZdlPv(ptr noundef %call) #14
  br label %eh.resume

eh.resume:                                        ; preds = %lpad
  %exn = load ptr, ptr %exn.slot, align 8
  %sel = load i32, ptr %ehselector.slot, align 4
  %lpad.val = insertvalue { ptr, i32 } poison, ptr %exn, 0
  %lpad.val2 = insertvalue { ptr, i32 } %lpad.val, i32 %sel, 1
  resume { ptr, i32 } %lpad.val2
}

; Function Attrs: mustprogress uwtable
define internal void @_ZN12_GLOBAL__N_144RandomDistributionsTest_UniformExamples_TestC2Ev(ptr noundef nonnull align 8 dereferenceable(16) %this) unnamed_addr #4 align 2 {
entry:
  %this.addr = alloca ptr, align 8
  store ptr %this, ptr %this.addr, align 8
  %this1 = load ptr, ptr %this.addr, align 8
  call void @_ZN12_GLOBAL__N_123RandomDistributionsTestC2Ev(ptr noundef nonnull align 8 dereferenceable(16) %this1)
  store ptr getelementptr inbounds ({ [8 x ptr] }, ptr @_ZTVN12_GLOBAL__N_144RandomDistributionsTest_UniformExamples_TestE, i32 0, inrange i32 0, i32 2), ptr %this1, align 8
  ret void
}

; Function Attrs: mustprogress nounwind uwtable
define internal void @_ZN12_GLOBAL__N_144RandomDistributionsTest_UniformExamples_TestD2Ev(ptr noundef nonnull align 8 dereferenceable(16) %this) unnamed_addr #5 align 2 {
entry:
  %this.addr = alloca ptr, align 8
  store ptr %this, ptr %this.addr, align 8
  %this1 = load ptr, ptr %this.addr, align 8
  call void @_ZN12_GLOBAL__N_123RandomDistributionsTestD2Ev(ptr noundef nonnull align 8 dereferenceable(16) %this1) #3
  ret void
}

; Function Attrs: mustprogress nounwind uwtable
define internal void @_ZN12_GLOBAL__N_144RandomDistributionsTest_UniformExamples_TestD0Ev(ptr noundef nonnull align 8 dereferenceable(16) %this) unnamed_addr #5 align 2 {
entry:
  %this.addr = alloca ptr, align 8
  store ptr %this, ptr %this.addr, align 8
  %this1 = load ptr, ptr %this.addr, align 8
  call void @_ZN12_GLOBAL__N_144RandomDistributionsTest_UniformExamples_TestD2Ev(ptr noundef nonnull align 8 dereferenceable(16) %this1) #3
  call void @_ZdlPv(ptr noundef %this1) #14
  ret void
}

; Function Attrs: mustprogress uwtable
define internal void @_ZN12_GLOBAL__N_144RandomDistributionsTest_UniformExamples_Test8TestBodyEv(ptr noundef nonnull align 8 dereferenceable(16) %this) unnamed_addr #4 align 2 personality ptr @__gxx_personality_v0 {
entry:
  %this.addr = alloca ptr, align 8
  %gen = alloca %"class.absl::random_internal::NonsecureURBGBase", align 16
  %gtest_ar = alloca %"class.testing::AssertionResult", align 8
  %ref.tmp = alloca i32, align 4
  %ref.tmp2 = alloca float, align 4
  %exn.slot = alloca ptr, align 8
  %ehselector.slot = alloca i32, align 4
  %ref.tmp4 = alloca %"class.testing::Message", align 8
  %ref.tmp6 = alloca %"class.testing::internal::AssertHelper", align 8
  %gtest_ar14 = alloca %"class.testing::AssertionResult", align 8
  %ref.tmp15 = alloca i32, align 4
  %ref.tmp16 = alloca double, align 8
  %ref.tmp23 = alloca %"class.testing::Message", align 8
  %ref.tmp25 = alloca %"class.testing::internal::AssertHelper", align 8
  %gtest_ar36 = alloca %"class.testing::AssertionResult", align 8
  %ref.tmp37 = alloca i32, align 4
  %ref.tmp38 = alloca float, align 4
  %ref.tmp45 = alloca %"class.testing::Message", align 8
  %ref.tmp47 = alloca %"class.testing::internal::AssertHelper", align 8
  %gtest_ar58 = alloca %"class.testing::AssertionResult", align 8
  %ref.tmp59 = alloca i32, align 4
  %ref.tmp60 = alloca double, align 8
  %ref.tmp68 = alloca %"class.testing::Message", align 8
  %ref.tmp70 = alloca %"class.testing::internal::AssertHelper", align 8
  %gtest_ar81 = alloca %"class.testing::AssertionResult", align 8
  %ref.tmp82 = alloca i32, align 4
  %ref.tmp83 = alloca double, align 8
  %ref.tmp91 = alloca %"class.testing::Message", align 8
  %ref.tmp93 = alloca %"class.testing::internal::AssertHelper", align 8
  %gtest_ar104 = alloca %"class.testing::AssertionResult", align 8
  %ref.tmp105 = alloca i32, align 4
  %ref.tmp106 = alloca double, align 8
  %ref.tmp114 = alloca %"class.testing::Message", align 8
  %ref.tmp116 = alloca %"class.testing::internal::AssertHelper", align 8
  %gtest_ar127 = alloca %"class.testing::AssertionResult", align 8
  %ref.tmp128 = alloca i32, align 4
  %ref.tmp129 = alloca float, align 4
  %ref.tmp137 = alloca %"class.testing::Message", align 8
  %ref.tmp139 = alloca %"class.testing::internal::AssertHelper", align 8
  %gtest_ar150 = alloca %"class.testing::AssertionResult", align 8
  %ref.tmp151 = alloca i32, align 4
  %ref.tmp152 = alloca float, align 4
  %ref.tmp159 = alloca %"class.testing::Message", align 8
  %ref.tmp161 = alloca %"class.testing::internal::AssertHelper", align 8
  store ptr %this, ptr %this.addr, align 8
  call void @_ZN4absl15random_internal17NonsecureURBGBaseINS0_10pcg_engineINS0_13pcg128_paramsILm2549297995355413924ELm4865540595714422341ELm6364136223846793005ELm1442695040888963407EEENS0_17pcg_xsl_rr_128_64EEENS0_17RandenPoolSeedSeqEEC2Ev(ptr noundef nonnull align 16 dereferenceable(16) %gen)
  store i32 1, ptr %ref.tmp, align 4
  %call = call noundef float @_ZN4absl7UniformIvRNS_15random_internal17NonsecureURBGBaseINS1_10pcg_engineINS1_13pcg128_paramsILm2549297995355413924ELm4865540595714422341ELm6364136223846793005ELm1442695040888963407EEENS1_17pcg_xsl_rr_128_64EEENS1_17RandenPoolSeedSeqEEEtfEENSt9enable_ifIXsr3std7is_sameIT_vEE5valueENSB_IXsr4absl11disjunctionINS1_23is_widening_convertibleIT1_T2_EENSD_ISF_SE_EEEE5valueENSt11conditionalIXsr23is_widening_convertibleISE_SF_EE5valueESF_SE_E4typeEE4typeEE4typeEOT0_SE_SF_(ptr noundef nonnull align 16 dereferenceable(16) %gen, i16 noundef zeroext 0, float noundef 1.000000e+00)
  store float %call, ptr %ref.tmp2, align 4
  call void @_ZN7testing8internal11CmpHelperNEIifEENS_15AssertionResultEPKcS4_RKT_RKT0_(ptr sret(%"class.testing::AssertionResult") align 8 %gtest_ar, ptr noundef @.str.30, ptr noundef @.str.31, ptr noundef nonnull align 4 dereferenceable(4) %ref.tmp, ptr noundef nonnull align 4 dereferenceable(4) %ref.tmp2)
  %call3 = invoke noundef zeroext i1 @_ZNK7testing15AssertionResultcvbEv(ptr noundef nonnull align 8 dereferenceable(16) %gtest_ar)
          to label %invoke.cont unwind label %lpad

invoke.cont:                                      ; preds = %entry
  br i1 %call3, label %if.then, label %if.else

if.then:                                          ; preds = %invoke.cont
  br label %if.end

lpad:                                             ; preds = %if.else, %entry
  %0 = landingpad { ptr, i32 }
          cleanup
  %1 = extractvalue { ptr, i32 } %0, 0
  store ptr %1, ptr %exn.slot, align 8
  %2 = extractvalue { ptr, i32 } %0, 1
  store i32 %2, ptr %ehselector.slot, align 4
  br label %ehcleanup13

if.else:                                          ; preds = %invoke.cont
  invoke void @_ZN7testing7MessageC1Ev(ptr noundef nonnull align 8 dereferenceable(8) %ref.tmp4)
          to label %invoke.cont5 unwind label %lpad

invoke.cont5:                                     ; preds = %if.else
  %call9 = invoke noundef ptr @_ZNK7testing15AssertionResult15failure_messageEv(ptr noundef nonnull align 8 dereferenceable(16) %gtest_ar)
          to label %invoke.cont8 unwind label %lpad7

invoke.cont8:                                     ; preds = %invoke.cont5
  invoke void @_ZN7testing8internal12AssertHelperC1ENS_14TestPartResult4TypeEPKciS5_(ptr noundef nonnull align 8 dereferenceable(8) %ref.tmp6, i32 noundef 1, ptr noundef @.str.3, i32 noundef 205, ptr noundef %call9)
          to label %invoke.cont10 unwind label %lpad7

invoke.cont10:                                    ; preds = %invoke.cont8
  invoke void @_ZNK7testing8internal12AssertHelperaSERKNS_7MessageE(ptr noundef nonnull align 8 dereferenceable(8) %ref.tmp6, ptr noundef nonnull align 8 dereferenceable(8) %ref.tmp4)
          to label %invoke.cont12 unwind label %lpad11

invoke.cont12:                                    ; preds = %invoke.cont10
  call void @_ZN7testing8internal12AssertHelperD1Ev(ptr noundef nonnull align 8 dereferenceable(8) %ref.tmp6) #3
  call void @_ZN7testing7MessageD2Ev(ptr noundef nonnull align 8 dereferenceable(8) %ref.tmp4) #3
  br label %if.end

lpad7:                                            ; preds = %invoke.cont8, %invoke.cont5
  %3 = landingpad { ptr, i32 }
          cleanup
  %4 = extractvalue { ptr, i32 } %3, 0
  store ptr %4, ptr %exn.slot, align 8
  %5 = extractvalue { ptr, i32 } %3, 1
  store i32 %5, ptr %ehselector.slot, align 4
  br label %ehcleanup

lpad11:                                           ; preds = %invoke.cont10
  %6 = landingpad { ptr, i32 }
          cleanup
  %7 = extractvalue { ptr, i32 } %6, 0
  store ptr %7, ptr %exn.slot, align 8
  %8 = extractvalue { ptr, i32 } %6, 1
  store i32 %8, ptr %ehselector.slot, align 4
  call void @_ZN7testing8internal12AssertHelperD1Ev(ptr noundef nonnull align 8 dereferenceable(8) %ref.tmp6) #3
  br label %ehcleanup

ehcleanup:                                        ; preds = %lpad11, %lpad7
  call void @_ZN7testing7MessageD2Ev(ptr noundef nonnull align 8 dereferenceable(8) %ref.tmp4) #3
  br label %ehcleanup13

if.end:                                           ; preds = %invoke.cont12, %if.then
  call void @_ZN7testing15AssertionResultD2Ev(ptr noundef nonnull align 8 dereferenceable(16) %gtest_ar) #3
  store i32 1, ptr %ref.tmp15, align 4
  %call17 = call noundef double @_ZN4absl7UniformIvRNS_15random_internal17NonsecureURBGBaseINS1_10pcg_engineINS1_13pcg128_paramsILm2549297995355413924ELm4865540595714422341ELm6364136223846793005ELm1442695040888963407EEENS1_17pcg_xsl_rr_128_64EEENS1_17RandenPoolSeedSeqEEEidEENSt9enable_ifIXsr3std7is_sameIT_vEE5valueENSB_IXsr4absl11disjunctionINS1_23is_widening_convertibleIT1_T2_EENSD_ISF_SE_EEEE5valueENSt11conditionalIXsr23is_widening_convertibleISE_SF_EE5valueESF_SE_E4typeEE4typeEE4typeEOT0_SE_SF_(ptr noundef nonnull align 16 dereferenceable(16) %gen, i32 noundef 0, double noundef 1.000000e+00)
  store double %call17, ptr %ref.tmp16, align 8
  call void @_ZN7testing8internal11CmpHelperNEIidEENS_15AssertionResultEPKcS4_RKT_RKT0_(ptr sret(%"class.testing::AssertionResult") align 8 %gtest_ar14, ptr noundef @.str.30, ptr noundef @.str.32, ptr noundef nonnull align 4 dereferenceable(4) %ref.tmp15, ptr noundef nonnull align 8 dereferenceable(8) %ref.tmp16)
  %call20 = invoke noundef zeroext i1 @_ZNK7testing15AssertionResultcvbEv(ptr noundef nonnull align 8 dereferenceable(16) %gtest_ar14)
          to label %invoke.cont19 unwind label %lpad18

invoke.cont19:                                    ; preds = %if.end
  br i1 %call20, label %if.then21, label %if.else22

if.then21:                                        ; preds = %invoke.cont19
  br label %if.end34

ehcleanup13:                                      ; preds = %ehcleanup, %lpad
  call void @_ZN7testing15AssertionResultD2Ev(ptr noundef nonnull align 8 dereferenceable(16) %gtest_ar) #3
  br label %eh.resume

lpad18:                                           ; preds = %if.else22, %if.end
  %9 = landingpad { ptr, i32 }
          cleanup
  %10 = extractvalue { ptr, i32 } %9, 0
  store ptr %10, ptr %exn.slot, align 8
  %11 = extractvalue { ptr, i32 } %9, 1
  store i32 %11, ptr %ehselector.slot, align 4
  br label %ehcleanup35

if.else22:                                        ; preds = %invoke.cont19
  invoke void @_ZN7testing7MessageC1Ev(ptr noundef nonnull align 8 dereferenceable(8) %ref.tmp23)
          to label %invoke.cont24 unwind label %lpad18

invoke.cont24:                                    ; preds = %if.else22
  %call28 = invoke noundef ptr @_ZNK7testing15AssertionResult15failure_messageEv(ptr noundef nonnull align 8 dereferenceable(16) %gtest_ar14)
          to label %invoke.cont27 unwind label %lpad26

invoke.cont27:                                    ; preds = %invoke.cont24
  invoke void @_ZN7testing8internal12AssertHelperC1ENS_14TestPartResult4TypeEPKciS5_(ptr noundef nonnull align 8 dereferenceable(8) %ref.tmp25, i32 noundef 1, ptr noundef @.str.3, i32 noundef 206, ptr noundef %call28)
          to label %invoke.cont29 unwind label %lpad26

invoke.cont29:                                    ; preds = %invoke.cont27
  invoke void @_ZNK7testing8internal12AssertHelperaSERKNS_7MessageE(ptr noundef nonnull align 8 dereferenceable(8) %ref.tmp25, ptr noundef nonnull align 8 dereferenceable(8) %ref.tmp23)
          to label %invoke.cont31 unwind label %lpad30

invoke.cont31:                                    ; preds = %invoke.cont29
  call void @_ZN7testing8internal12AssertHelperD1Ev(ptr noundef nonnull align 8 dereferenceable(8) %ref.tmp25) #3
  call void @_ZN7testing7MessageD2Ev(ptr noundef nonnull align 8 dereferenceable(8) %ref.tmp23) #3
  br label %if.end34

lpad26:                                           ; preds = %invoke.cont27, %invoke.cont24
  %12 = landingpad { ptr, i32 }
          cleanup
  %13 = extractvalue { ptr, i32 } %12, 0
  store ptr %13, ptr %exn.slot, align 8
  %14 = extractvalue { ptr, i32 } %12, 1
  store i32 %14, ptr %ehselector.slot, align 4
  br label %ehcleanup33

lpad30:                                           ; preds = %invoke.cont29
  %15 = landingpad { ptr, i32 }
          cleanup
  %16 = extractvalue { ptr, i32 } %15, 0
  store ptr %16, ptr %exn.slot, align 8
  %17 = extractvalue { ptr, i32 } %15, 1
  store i32 %17, ptr %ehselector.slot, align 4
  call void @_ZN7testing8internal12AssertHelperD1Ev(ptr noundef nonnull align 8 dereferenceable(8) %ref.tmp25) #3
  br label %ehcleanup33

ehcleanup33:                                      ; preds = %lpad30, %lpad26
  call void @_ZN7testing7MessageD2Ev(ptr noundef nonnull align 8 dereferenceable(8) %ref.tmp23) #3
  br label %ehcleanup35

if.end34:                                         ; preds = %invoke.cont31, %if.then21
  call void @_ZN7testing15AssertionResultD2Ev(ptr noundef nonnull align 8 dereferenceable(16) %gtest_ar14) #3
  store i32 1, ptr %ref.tmp37, align 4
  %call39 = call noundef float @_ZN4absl7UniformIvNS_19IntervalOpenOpenTagERNS_15random_internal17NonsecureURBGBaseINS2_10pcg_engineINS2_13pcg128_paramsILm2549297995355413924ELm4865540595714422341ELm6364136223846793005ELm1442695040888963407EEENS2_17pcg_xsl_rr_128_64EEENS2_17RandenPoolSeedSeqEEEtfEENSt9enable_ifIXsr3std7is_sameIT_vEE5valueENSC_IXsr4absl11disjunctionINS2_23is_widening_convertibleIT2_T3_EENSE_ISG_SF_EEEE5valueENSt11conditionalIXsr23is_widening_convertibleISF_SG_EE5valueESG_SF_E4typeEE4typeEE4typeET0_OT1_SF_SG_(ptr noundef nonnull align 16 dereferenceable(16) %gen, i16 noundef zeroext 0, float noundef 1.000000e+00)
  store float %call39, ptr %ref.tmp38, align 4
  call void @_ZN7testing8internal11CmpHelperNEIifEENS_15AssertionResultEPKcS4_RKT_RKT0_(ptr sret(%"class.testing::AssertionResult") align 8 %gtest_ar36, ptr noundef @.str.30, ptr noundef @.str.33, ptr noundef nonnull align 4 dereferenceable(4) %ref.tmp37, ptr noundef nonnull align 4 dereferenceable(4) %ref.tmp38)
  %call42 = invoke noundef zeroext i1 @_ZNK7testing15AssertionResultcvbEv(ptr noundef nonnull align 8 dereferenceable(16) %gtest_ar36)
          to label %invoke.cont41 unwind label %lpad40

invoke.cont41:                                    ; preds = %if.end34
  br i1 %call42, label %if.then43, label %if.else44

if.then43:                                        ; preds = %invoke.cont41
  br label %if.end56

ehcleanup35:                                      ; preds = %ehcleanup33, %lpad18
  call void @_ZN7testing15AssertionResultD2Ev(ptr noundef nonnull align 8 dereferenceable(16) %gtest_ar14) #3
  br label %eh.resume

lpad40:                                           ; preds = %if.else44, %if.end34
  %18 = landingpad { ptr, i32 }
          cleanup
  %19 = extractvalue { ptr, i32 } %18, 0
  store ptr %19, ptr %exn.slot, align 8
  %20 = extractvalue { ptr, i32 } %18, 1
  store i32 %20, ptr %ehselector.slot, align 4
  br label %ehcleanup57

if.else44:                                        ; preds = %invoke.cont41
  invoke void @_ZN7testing7MessageC1Ev(ptr noundef nonnull align 8 dereferenceable(8) %ref.tmp45)
          to label %invoke.cont46 unwind label %lpad40

invoke.cont46:                                    ; preds = %if.else44
  %call50 = invoke noundef ptr @_ZNK7testing15AssertionResult15failure_messageEv(ptr noundef nonnull align 8 dereferenceable(16) %gtest_ar36)
          to label %invoke.cont49 unwind label %lpad48

invoke.cont49:                                    ; preds = %invoke.cont46
  invoke void @_ZN7testing8internal12AssertHelperC1ENS_14TestPartResult4TypeEPKciS5_(ptr noundef nonnull align 8 dereferenceable(8) %ref.tmp47, i32 noundef 1, ptr noundef @.str.3, i32 noundef 208, ptr noundef %call50)
          to label %invoke.cont51 unwind label %lpad48

invoke.cont51:                                    ; preds = %invoke.cont49
  invoke void @_ZNK7testing8internal12AssertHelperaSERKNS_7MessageE(ptr noundef nonnull align 8 dereferenceable(8) %ref.tmp47, ptr noundef nonnull align 8 dereferenceable(8) %ref.tmp45)
          to label %invoke.cont53 unwind label %lpad52

invoke.cont53:                                    ; preds = %invoke.cont51
  call void @_ZN7testing8internal12AssertHelperD1Ev(ptr noundef nonnull align 8 dereferenceable(8) %ref.tmp47) #3
  call void @_ZN7testing7MessageD2Ev(ptr noundef nonnull align 8 dereferenceable(8) %ref.tmp45) #3
  br label %if.end56

lpad48:                                           ; preds = %invoke.cont49, %invoke.cont46
  %21 = landingpad { ptr, i32 }
          cleanup
  %22 = extractvalue { ptr, i32 } %21, 0
  store ptr %22, ptr %exn.slot, align 8
  %23 = extractvalue { ptr, i32 } %21, 1
  store i32 %23, ptr %ehselector.slot, align 4
  br label %ehcleanup55

lpad52:                                           ; preds = %invoke.cont51
  %24 = landingpad { ptr, i32 }
          cleanup
  %25 = extractvalue { ptr, i32 } %24, 0
  store ptr %25, ptr %exn.slot, align 8
  %26 = extractvalue { ptr, i32 } %24, 1
  store i32 %26, ptr %ehselector.slot, align 4
  call void @_ZN7testing8internal12AssertHelperD1Ev(ptr noundef nonnull align 8 dereferenceable(8) %ref.tmp47) #3
  br label %ehcleanup55

ehcleanup55:                                      ; preds = %lpad52, %lpad48
  call void @_ZN7testing7MessageD2Ev(ptr noundef nonnull align 8 dereferenceable(8) %ref.tmp45) #3
  br label %ehcleanup57

if.end56:                                         ; preds = %invoke.cont53, %if.then43
  call void @_ZN7testing15AssertionResultD2Ev(ptr noundef nonnull align 8 dereferenceable(16) %gtest_ar36) #3
  store i32 1, ptr %ref.tmp59, align 4
  %call62 = call noundef double @_ZN4absl7UniformIvNS_19IntervalOpenOpenTagERNS_15random_internal17NonsecureURBGBaseINS2_10pcg_engineINS2_13pcg128_paramsILm2549297995355413924ELm4865540595714422341ELm6364136223846793005ELm1442695040888963407EEENS2_17pcg_xsl_rr_128_64EEENS2_17RandenPoolSeedSeqEEEidEENSt9enable_ifIXsr3std7is_sameIT_vEE5valueENSC_IXsr4absl11disjunctionINS2_23is_widening_convertibleIT2_T3_EENSE_ISG_SF_EEEE5valueENSt11conditionalIXsr23is_widening_convertibleISF_SG_EE5valueESG_SF_E4typeEE4typeEE4typeET0_OT1_SF_SG_(ptr noundef nonnull align 16 dereferenceable(16) %gen, i32 noundef 0, double noundef 1.000000e+00)
  store double %call62, ptr %ref.tmp60, align 8
  call void @_ZN7testing8internal11CmpHelperNEIidEENS_15AssertionResultEPKcS4_RKT_RKT0_(ptr sret(%"class.testing::AssertionResult") align 8 %gtest_ar58, ptr noundef @.str.30, ptr noundef @.str.34, ptr noundef nonnull align 4 dereferenceable(4) %ref.tmp59, ptr noundef nonnull align 8 dereferenceable(8) %ref.tmp60)
  %call65 = invoke noundef zeroext i1 @_ZNK7testing15AssertionResultcvbEv(ptr noundef nonnull align 8 dereferenceable(16) %gtest_ar58)
          to label %invoke.cont64 unwind label %lpad63

invoke.cont64:                                    ; preds = %if.end56
  br i1 %call65, label %if.then66, label %if.else67

if.then66:                                        ; preds = %invoke.cont64
  br label %if.end79

ehcleanup57:                                      ; preds = %ehcleanup55, %lpad40
  call void @_ZN7testing15AssertionResultD2Ev(ptr noundef nonnull align 8 dereferenceable(16) %gtest_ar36) #3
  br label %eh.resume

lpad63:                                           ; preds = %if.else67, %if.end56
  %27 = landingpad { ptr, i32 }
          cleanup
  %28 = extractvalue { ptr, i32 } %27, 0
  store ptr %28, ptr %exn.slot, align 8
  %29 = extractvalue { ptr, i32 } %27, 1
  store i32 %29, ptr %ehselector.slot, align 4
  br label %ehcleanup80

if.else67:                                        ; preds = %invoke.cont64
  invoke void @_ZN7testing7MessageC1Ev(ptr noundef nonnull align 8 dereferenceable(8) %ref.tmp68)
          to label %invoke.cont69 unwind label %lpad63

invoke.cont69:                                    ; preds = %if.else67
  %call73 = invoke noundef ptr @_ZNK7testing15AssertionResult15failure_messageEv(ptr noundef nonnull align 8 dereferenceable(16) %gtest_ar58)
          to label %invoke.cont72 unwind label %lpad71

invoke.cont72:                                    ; preds = %invoke.cont69
  invoke void @_ZN7testing8internal12AssertHelperC1ENS_14TestPartResult4TypeEPKciS5_(ptr noundef nonnull align 8 dereferenceable(8) %ref.tmp70, i32 noundef 1, ptr noundef @.str.3, i32 noundef 209, ptr noundef %call73)
          to label %invoke.cont74 unwind label %lpad71

invoke.cont74:                                    ; preds = %invoke.cont72
  invoke void @_ZNK7testing8internal12AssertHelperaSERKNS_7MessageE(ptr noundef nonnull align 8 dereferenceable(8) %ref.tmp70, ptr noundef nonnull align 8 dereferenceable(8) %ref.tmp68)
          to label %invoke.cont76 unwind label %lpad75

invoke.cont76:                                    ; preds = %invoke.cont74
  call void @_ZN7testing8internal12AssertHelperD1Ev(ptr noundef nonnull align 8 dereferenceable(8) %ref.tmp70) #3
  call void @_ZN7testing7MessageD2Ev(ptr noundef nonnull align 8 dereferenceable(8) %ref.tmp68) #3
  br label %if.end79

lpad71:                                           ; preds = %invoke.cont72, %invoke.cont69
  %30 = landingpad { ptr, i32 }
          cleanup
  %31 = extractvalue { ptr, i32 } %30, 0
  store ptr %31, ptr %exn.slot, align 8
  %32 = extractvalue { ptr, i32 } %30, 1
  store i32 %32, ptr %ehselector.slot, align 4
  br label %ehcleanup78

lpad75:                                           ; preds = %invoke.cont74
  %33 = landingpad { ptr, i32 }
          cleanup
  %34 = extractvalue { ptr, i32 } %33, 0
  store ptr %34, ptr %exn.slot, align 8
  %35 = extractvalue { ptr, i32 } %33, 1
  store i32 %35, ptr %ehselector.slot, align 4
  call void @_ZN7testing8internal12AssertHelperD1Ev(ptr noundef nonnull align 8 dereferenceable(8) %ref.tmp70) #3
  br label %ehcleanup78

ehcleanup78:                                      ; preds = %lpad75, %lpad71
  call void @_ZN7testing7MessageD2Ev(ptr noundef nonnull align 8 dereferenceable(8) %ref.tmp68) #3
  br label %ehcleanup80

if.end79:                                         ; preds = %invoke.cont76, %if.then66
  call void @_ZN7testing15AssertionResultD2Ev(ptr noundef nonnull align 8 dereferenceable(16) %gtest_ar58) #3
  store i32 1, ptr %ref.tmp82, align 4
  %call85 = call noundef double @_ZN4absl7UniformIvNS_19IntervalOpenOpenTagERNS_15random_internal17NonsecureURBGBaseINS2_10pcg_engineINS2_13pcg128_paramsILm2549297995355413924ELm4865540595714422341ELm6364136223846793005ELm1442695040888963407EEENS2_17pcg_xsl_rr_128_64EEENS2_17RandenPoolSeedSeqEEEidEENSt9enable_ifIXsr3std7is_sameIT_vEE5valueENSC_IXsr4absl11disjunctionINS2_23is_widening_convertibleIT2_T3_EENSE_ISG_SF_EEEE5valueENSt11conditionalIXsr23is_widening_convertibleISF_SG_EE5valueESG_SF_E4typeEE4typeEE4typeET0_OT1_SF_SG_(ptr noundef nonnull align 16 dereferenceable(16) %gen, i32 noundef -1, double noundef 1.000000e+00)
  store double %call85, ptr %ref.tmp83, align 8
  call void @_ZN7testing8internal11CmpHelperNEIidEENS_15AssertionResultEPKcS4_RKT_RKT0_(ptr sret(%"class.testing::AssertionResult") align 8 %gtest_ar81, ptr noundef @.str.30, ptr noundef @.str.35, ptr noundef nonnull align 4 dereferenceable(4) %ref.tmp82, ptr noundef nonnull align 8 dereferenceable(8) %ref.tmp83)
  %call88 = invoke noundef zeroext i1 @_ZNK7testing15AssertionResultcvbEv(ptr noundef nonnull align 8 dereferenceable(16) %gtest_ar81)
          to label %invoke.cont87 unwind label %lpad86

invoke.cont87:                                    ; preds = %if.end79
  br i1 %call88, label %if.then89, label %if.else90

if.then89:                                        ; preds = %invoke.cont87
  br label %if.end102

ehcleanup80:                                      ; preds = %ehcleanup78, %lpad63
  call void @_ZN7testing15AssertionResultD2Ev(ptr noundef nonnull align 8 dereferenceable(16) %gtest_ar58) #3
  br label %eh.resume

lpad86:                                           ; preds = %if.else90, %if.end79
  %36 = landingpad { ptr, i32 }
          cleanup
  %37 = extractvalue { ptr, i32 } %36, 0
  store ptr %37, ptr %exn.slot, align 8
  %38 = extractvalue { ptr, i32 } %36, 1
  store i32 %38, ptr %ehselector.slot, align 4
  br label %ehcleanup103

if.else90:                                        ; preds = %invoke.cont87
  invoke void @_ZN7testing7MessageC1Ev(ptr noundef nonnull align 8 dereferenceable(8) %ref.tmp91)
          to label %invoke.cont92 unwind label %lpad86

invoke.cont92:                                    ; preds = %if.else90
  %call96 = invoke noundef ptr @_ZNK7testing15AssertionResult15failure_messageEv(ptr noundef nonnull align 8 dereferenceable(16) %gtest_ar81)
          to label %invoke.cont95 unwind label %lpad94

invoke.cont95:                                    ; preds = %invoke.cont92
  invoke void @_ZN7testing8internal12AssertHelperC1ENS_14TestPartResult4TypeEPKciS5_(ptr noundef nonnull align 8 dereferenceable(8) %ref.tmp93, i32 noundef 1, ptr noundef @.str.3, i32 noundef 210, ptr noundef %call96)
          to label %invoke.cont97 unwind label %lpad94

invoke.cont97:                                    ; preds = %invoke.cont95
  invoke void @_ZNK7testing8internal12AssertHelperaSERKNS_7MessageE(ptr noundef nonnull align 8 dereferenceable(8) %ref.tmp93, ptr noundef nonnull align 8 dereferenceable(8) %ref.tmp91)
          to label %invoke.cont99 unwind label %lpad98

invoke.cont99:                                    ; preds = %invoke.cont97
  call void @_ZN7testing8internal12AssertHelperD1Ev(ptr noundef nonnull align 8 dereferenceable(8) %ref.tmp93) #3
  call void @_ZN7testing7MessageD2Ev(ptr noundef nonnull align 8 dereferenceable(8) %ref.tmp91) #3
  br label %if.end102

lpad94:                                           ; preds = %invoke.cont95, %invoke.cont92
  %39 = landingpad { ptr, i32 }
          cleanup
  %40 = extractvalue { ptr, i32 } %39, 0
  store ptr %40, ptr %exn.slot, align 8
  %41 = extractvalue { ptr, i32 } %39, 1
  store i32 %41, ptr %ehselector.slot, align 4
  br label %ehcleanup101

lpad98:                                           ; preds = %invoke.cont97
  %42 = landingpad { ptr, i32 }
          cleanup
  %43 = extractvalue { ptr, i32 } %42, 0
  store ptr %43, ptr %exn.slot, align 8
  %44 = extractvalue { ptr, i32 } %42, 1
  store i32 %44, ptr %ehselector.slot, align 4
  call void @_ZN7testing8internal12AssertHelperD1Ev(ptr noundef nonnull align 8 dereferenceable(8) %ref.tmp93) #3
  br label %ehcleanup101

ehcleanup101:                                     ; preds = %lpad98, %lpad94
  call void @_ZN7testing7MessageD2Ev(ptr noundef nonnull align 8 dereferenceable(8) %ref.tmp91) #3
  br label %ehcleanup103

if.end102:                                        ; preds = %invoke.cont99, %if.then89
  call void @_ZN7testing15AssertionResultD2Ev(ptr noundef nonnull align 8 dereferenceable(16) %gtest_ar81) #3
  store i32 1, ptr %ref.tmp105, align 4
  %call108 = call noundef double @_ZN4absl7UniformIdNS_19IntervalOpenOpenTagERNS_15random_internal17NonsecureURBGBaseINS2_10pcg_engineINS2_13pcg128_paramsILm2549297995355413924ELm4865540595714422341ELm6364136223846793005ELm1442695040888963407EEENS2_17pcg_xsl_rr_128_64EEENS2_17RandenPoolSeedSeqEEEEENSt9enable_ifIXntsr3std7is_sameIT_vEE5valueESD_E4typeET0_OT1_SD_SD_(ptr noundef nonnull align 16 dereferenceable(16) %gen, double noundef -1.000000e+00, double noundef 1.000000e+00)
  store double %call108, ptr %ref.tmp106, align 8
  call void @_ZN7testing8internal11CmpHelperNEIidEENS_15AssertionResultEPKcS4_RKT_RKT0_(ptr sret(%"class.testing::AssertionResult") align 8 %gtest_ar104, ptr noundef @.str.30, ptr noundef @.str.36, ptr noundef nonnull align 4 dereferenceable(4) %ref.tmp105, ptr noundef nonnull align 8 dereferenceable(8) %ref.tmp106)
  %call111 = invoke noundef zeroext i1 @_ZNK7testing15AssertionResultcvbEv(ptr noundef nonnull align 8 dereferenceable(16) %gtest_ar104)
          to label %invoke.cont110 unwind label %lpad109

invoke.cont110:                                   ; preds = %if.end102
  br i1 %call111, label %if.then112, label %if.else113

if.then112:                                       ; preds = %invoke.cont110
  br label %if.end125

ehcleanup103:                                     ; preds = %ehcleanup101, %lpad86
  call void @_ZN7testing15AssertionResultD2Ev(ptr noundef nonnull align 8 dereferenceable(16) %gtest_ar81) #3
  br label %eh.resume

lpad109:                                          ; preds = %if.else113, %if.end102
  %45 = landingpad { ptr, i32 }
          cleanup
  %46 = extractvalue { ptr, i32 } %45, 0
  store ptr %46, ptr %exn.slot, align 8
  %47 = extractvalue { ptr, i32 } %45, 1
  store i32 %47, ptr %ehselector.slot, align 4
  br label %ehcleanup126

if.else113:                                       ; preds = %invoke.cont110
  invoke void @_ZN7testing7MessageC1Ev(ptr noundef nonnull align 8 dereferenceable(8) %ref.tmp114)
          to label %invoke.cont115 unwind label %lpad109

invoke.cont115:                                   ; preds = %if.else113
  %call119 = invoke noundef ptr @_ZNK7testing15AssertionResult15failure_messageEv(ptr noundef nonnull align 8 dereferenceable(16) %gtest_ar104)
          to label %invoke.cont118 unwind label %lpad117

invoke.cont118:                                   ; preds = %invoke.cont115
  invoke void @_ZN7testing8internal12AssertHelperC1ENS_14TestPartResult4TypeEPKciS5_(ptr noundef nonnull align 8 dereferenceable(8) %ref.tmp116, i32 noundef 1, ptr noundef @.str.3, i32 noundef 211, ptr noundef %call119)
          to label %invoke.cont120 unwind label %lpad117

invoke.cont120:                                   ; preds = %invoke.cont118
  invoke void @_ZNK7testing8internal12AssertHelperaSERKNS_7MessageE(ptr noundef nonnull align 8 dereferenceable(8) %ref.tmp116, ptr noundef nonnull align 8 dereferenceable(8) %ref.tmp114)
          to label %invoke.cont122 unwind label %lpad121

invoke.cont122:                                   ; preds = %invoke.cont120
  call void @_ZN7testing8internal12AssertHelperD1Ev(ptr noundef nonnull align 8 dereferenceable(8) %ref.tmp116) #3
  call void @_ZN7testing7MessageD2Ev(ptr noundef nonnull align 8 dereferenceable(8) %ref.tmp114) #3
  br label %if.end125

lpad117:                                          ; preds = %invoke.cont118, %invoke.cont115
  %48 = landingpad { ptr, i32 }
          cleanup
  %49 = extractvalue { ptr, i32 } %48, 0
  store ptr %49, ptr %exn.slot, align 8
  %50 = extractvalue { ptr, i32 } %48, 1
  store i32 %50, ptr %ehselector.slot, align 4
  br label %ehcleanup124

lpad121:                                          ; preds = %invoke.cont120
  %51 = landingpad { ptr, i32 }
          cleanup
  %52 = extractvalue { ptr, i32 } %51, 0
  store ptr %52, ptr %exn.slot, align 8
  %53 = extractvalue { ptr, i32 } %51, 1
  store i32 %53, ptr %ehselector.slot, align 4
  call void @_ZN7testing8internal12AssertHelperD1Ev(ptr noundef nonnull align 8 dereferenceable(8) %ref.tmp116) #3
  br label %ehcleanup124

ehcleanup124:                                     ; preds = %lpad121, %lpad117
  call void @_ZN7testing7MessageD2Ev(ptr noundef nonnull align 8 dereferenceable(8) %ref.tmp114) #3
  br label %ehcleanup126

if.end125:                                        ; preds = %invoke.cont122, %if.then112
  call void @_ZN7testing15AssertionResultD2Ev(ptr noundef nonnull align 8 dereferenceable(16) %gtest_ar104) #3
  store i32 1, ptr %ref.tmp128, align 4
  %call131 = call noundef float @_ZN4absl7UniformIfNS_19IntervalOpenOpenTagERNS_15random_internal17NonsecureURBGBaseINS2_10pcg_engineINS2_13pcg128_paramsILm2549297995355413924ELm4865540595714422341ELm6364136223846793005ELm1442695040888963407EEENS2_17pcg_xsl_rr_128_64EEENS2_17RandenPoolSeedSeqEEEEENSt9enable_ifIXntsr3std7is_sameIT_vEE5valueESD_E4typeET0_OT1_SD_SD_(ptr noundef nonnull align 16 dereferenceable(16) %gen, float noundef 0.000000e+00, float noundef 1.000000e+00)
  store float %call131, ptr %ref.tmp129, align 4
  call void @_ZN7testing8internal11CmpHelperNEIifEENS_15AssertionResultEPKcS4_RKT_RKT0_(ptr sret(%"class.testing::AssertionResult") align 8 %gtest_ar127, ptr noundef @.str.30, ptr noundef @.str.37, ptr noundef nonnull align 4 dereferenceable(4) %ref.tmp128, ptr noundef nonnull align 4 dereferenceable(4) %ref.tmp129)
  %call134 = invoke noundef zeroext i1 @_ZNK7testing15AssertionResultcvbEv(ptr noundef nonnull align 8 dereferenceable(16) %gtest_ar127)
          to label %invoke.cont133 unwind label %lpad132

invoke.cont133:                                   ; preds = %if.end125
  br i1 %call134, label %if.then135, label %if.else136

if.then135:                                       ; preds = %invoke.cont133
  br label %if.end148

ehcleanup126:                                     ; preds = %ehcleanup124, %lpad109
  call void @_ZN7testing15AssertionResultD2Ev(ptr noundef nonnull align 8 dereferenceable(16) %gtest_ar104) #3
  br label %eh.resume

lpad132:                                          ; preds = %if.else136, %if.end125
  %54 = landingpad { ptr, i32 }
          cleanup
  %55 = extractvalue { ptr, i32 } %54, 0
  store ptr %55, ptr %exn.slot, align 8
  %56 = extractvalue { ptr, i32 } %54, 1
  store i32 %56, ptr %ehselector.slot, align 4
  br label %ehcleanup149

if.else136:                                       ; preds = %invoke.cont133
  invoke void @_ZN7testing7MessageC1Ev(ptr noundef nonnull align 8 dereferenceable(8) %ref.tmp137)
          to label %invoke.cont138 unwind label %lpad132

invoke.cont138:                                   ; preds = %if.else136
  %call142 = invoke noundef ptr @_ZNK7testing15AssertionResult15failure_messageEv(ptr noundef nonnull align 8 dereferenceable(16) %gtest_ar127)
          to label %invoke.cont141 unwind label %lpad140

invoke.cont141:                                   ; preds = %invoke.cont138
  invoke void @_ZN7testing8internal12AssertHelperC1ENS_14TestPartResult4TypeEPKciS5_(ptr noundef nonnull align 8 dereferenceable(8) %ref.tmp139, i32 noundef 1, ptr noundef @.str.3, i32 noundef 212, ptr noundef %call142)
          to label %invoke.cont143 unwind label %lpad140

invoke.cont143:                                   ; preds = %invoke.cont141
  invoke void @_ZNK7testing8internal12AssertHelperaSERKNS_7MessageE(ptr noundef nonnull align 8 dereferenceable(8) %ref.tmp139, ptr noundef nonnull align 8 dereferenceable(8) %ref.tmp137)
          to label %invoke.cont145 unwind label %lpad144

invoke.cont145:                                   ; preds = %invoke.cont143
  call void @_ZN7testing8internal12AssertHelperD1Ev(ptr noundef nonnull align 8 dereferenceable(8) %ref.tmp139) #3
  call void @_ZN7testing7MessageD2Ev(ptr noundef nonnull align 8 dereferenceable(8) %ref.tmp137) #3
  br label %if.end148

lpad140:                                          ; preds = %invoke.cont141, %invoke.cont138
  %57 = landingpad { ptr, i32 }
          cleanup
  %58 = extractvalue { ptr, i32 } %57, 0
  store ptr %58, ptr %exn.slot, align 8
  %59 = extractvalue { ptr, i32 } %57, 1
  store i32 %59, ptr %ehselector.slot, align 4
  br label %ehcleanup147

lpad144:                                          ; preds = %invoke.cont143
  %60 = landingpad { ptr, i32 }
          cleanup
  %61 = extractvalue { ptr, i32 } %60, 0
  store ptr %61, ptr %exn.slot, align 8
  %62 = extractvalue { ptr, i32 } %60, 1
  store i32 %62, ptr %ehselector.slot, align 4
  call void @_ZN7testing8internal12AssertHelperD1Ev(ptr noundef nonnull align 8 dereferenceable(8) %ref.tmp139) #3
  br label %ehcleanup147

ehcleanup147:                                     ; preds = %lpad144, %lpad140
  call void @_ZN7testing7MessageD2Ev(ptr noundef nonnull align 8 dereferenceable(8) %ref.tmp137) #3
  br label %ehcleanup149

if.end148:                                        ; preds = %invoke.cont145, %if.then135
  call void @_ZN7testing15AssertionResultD2Ev(ptr noundef nonnull align 8 dereferenceable(16) %gtest_ar127) #3
  store i32 1, ptr %ref.tmp151, align 4
  %call153 = call noundef float @_ZN4absl7UniformIfRNS_15random_internal17NonsecureURBGBaseINS1_10pcg_engineINS1_13pcg128_paramsILm2549297995355413924ELm4865540595714422341ELm6364136223846793005ELm1442695040888963407EEENS1_17pcg_xsl_rr_128_64EEENS1_17RandenPoolSeedSeqEEEEENSt9enable_ifIXntsr3std7is_sameIT_vEE5valueESC_E4typeEOT0_SC_SC_(ptr noundef nonnull align 16 dereferenceable(16) %gen, float noundef 0.000000e+00, float noundef 1.000000e+00)
  store float %call153, ptr %ref.tmp152, align 4
  call void @_ZN7testing8internal11CmpHelperNEIifEENS_15AssertionResultEPKcS4_RKT_RKT0_(ptr sret(%"class.testing::AssertionResult") align 8 %gtest_ar150, ptr noundef @.str.30, ptr noundef @.str.38, ptr noundef nonnull align 4 dereferenceable(4) %ref.tmp151, ptr noundef nonnull align 4 dereferenceable(4) %ref.tmp152)
  %call156 = invoke noundef zeroext i1 @_ZNK7testing15AssertionResultcvbEv(ptr noundef nonnull align 8 dereferenceable(16) %gtest_ar150)
          to label %invoke.cont155 unwind label %lpad154

invoke.cont155:                                   ; preds = %if.end148
  br i1 %call156, label %if.then157, label %if.else158

if.then157:                                       ; preds = %invoke.cont155
  br label %if.end170

ehcleanup149:                                     ; preds = %ehcleanup147, %lpad132
  call void @_ZN7testing15AssertionResultD2Ev(ptr noundef nonnull align 8 dereferenceable(16) %gtest_ar127) #3
  br label %eh.resume

lpad154:                                          ; preds = %if.else158, %if.end148
  %63 = landingpad { ptr, i32 }
          cleanup
  %64 = extractvalue { ptr, i32 } %63, 0
  store ptr %64, ptr %exn.slot, align 8
  %65 = extractvalue { ptr, i32 } %63, 1
  store i32 %65, ptr %ehselector.slot, align 4
  br label %ehcleanup171

if.else158:                                       ; preds = %invoke.cont155
  invoke void @_ZN7testing7MessageC1Ev(ptr noundef nonnull align 8 dereferenceable(8) %ref.tmp159)
          to label %invoke.cont160 unwind label %lpad154

invoke.cont160:                                   ; preds = %if.else158
  %call164 = invoke noundef ptr @_ZNK7testing15AssertionResult15failure_messageEv(ptr noundef nonnull align 8 dereferenceable(16) %gtest_ar150)
          to label %invoke.cont163 unwind label %lpad162

invoke.cont163:                                   ; preds = %invoke.cont160
  invoke void @_ZN7testing8internal12AssertHelperC1ENS_14TestPartResult4TypeEPKciS5_(ptr noundef nonnull align 8 dereferenceable(8) %ref.tmp161, i32 noundef 1, ptr noundef @.str.3, i32 noundef 213, ptr noundef %call164)
          to label %invoke.cont165 unwind label %lpad162

invoke.cont165:                                   ; preds = %invoke.cont163
  invoke void @_ZNK7testing8internal12AssertHelperaSERKNS_7MessageE(ptr noundef nonnull align 8 dereferenceable(8) %ref.tmp161, ptr noundef nonnull align 8 dereferenceable(8) %ref.tmp159)
          to label %invoke.cont167 unwind label %lpad166

invoke.cont167:                                   ; preds = %invoke.cont165
  call void @_ZN7testing8internal12AssertHelperD1Ev(ptr noundef nonnull align 8 dereferenceable(8) %ref.tmp161) #3
  call void @_ZN7testing7MessageD2Ev(ptr noundef nonnull align 8 dereferenceable(8) %ref.tmp159) #3
  br label %if.end170

lpad162:                                          ; preds = %invoke.cont163, %invoke.cont160
  %66 = landingpad { ptr, i32 }
          cleanup
  %67 = extractvalue { ptr, i32 } %66, 0
  store ptr %67, ptr %exn.slot, align 8
  %68 = extractvalue { ptr, i32 } %66, 1
  store i32 %68, ptr %ehselector.slot, align 4
  br label %ehcleanup169

lpad166:                                          ; preds = %invoke.cont165
  %69 = landingpad { ptr, i32 }
          cleanup
  %70 = extractvalue { ptr, i32 } %69, 0
  store ptr %70, ptr %exn.slot, align 8
  %71 = extractvalue { ptr, i32 } %69, 1
  store i32 %71, ptr %ehselector.slot, align 4
  call void @_ZN7testing8internal12AssertHelperD1Ev(ptr noundef nonnull align 8 dereferenceable(8) %ref.tmp161) #3
  br label %ehcleanup169

ehcleanup169:                                     ; preds = %lpad166, %lpad162
  call void @_ZN7testing7MessageD2Ev(ptr noundef nonnull align 8 dereferenceable(8) %ref.tmp159) #3
  br label %ehcleanup171

if.end170:                                        ; preds = %invoke.cont167, %if.then157
  call void @_ZN7testing15AssertionResultD2Ev(ptr noundef nonnull align 8 dereferenceable(16) %gtest_ar150) #3
  ret void

ehcleanup171:                                     ; preds = %ehcleanup169, %lpad154
  call void @_ZN7testing15AssertionResultD2Ev(ptr noundef nonnull align 8 dereferenceable(16) %gtest_ar150) #3
  br label %eh.resume

eh.resume:                                        ; preds = %ehcleanup171, %ehcleanup149, %ehcleanup126, %ehcleanup103, %ehcleanup80, %ehcleanup57, %ehcleanup35, %ehcleanup13
  %exn = load ptr, ptr %exn.slot, align 8
  %sel = load i32, ptr %ehselector.slot, align 4
  %lpad.val = insertvalue { ptr, i32 } poison, ptr %exn, 0
  %lpad.val172 = insertvalue { ptr, i32 } %lpad.val, i32 %sel, 1
  resume { ptr, i32 } %lpad.val172
}

; Function Attrs: mustprogress uwtable
define linkonce_odr dso_local void @_ZN4absl15random_internal17NonsecureURBGBaseINS0_10pcg_engineINS0_13pcg128_paramsILm2549297995355413924ELm4865540595714422341ELm6364136223846793005ELm1442695040888963407EEENS0_17pcg_xsl_rr_128_64EEENS0_17RandenPoolSeedSeqEEC2Ev(ptr noundef nonnull align 16 dereferenceable(16) %this) unnamed_addr #4 comdat align 2 {
entry:
  %this.addr = alloca ptr, align 8
  store ptr %this, ptr %this.addr, align 8
  %this1 = load ptr, ptr %this.addr, align 8
  %urbg_ = getelementptr inbounds %"class.absl::random_internal::NonsecureURBGBase", ptr %this1, i32 0, i32 0
  %call = call { i64, i64 } @_ZN4absl15random_internal17NonsecureURBGBaseINS0_10pcg_engineINS0_13pcg128_paramsILm2549297995355413924ELm4865540595714422341ELm6364136223846793005ELm1442695040888963407EEENS0_17pcg_xsl_rr_128_64EEENS0_17RandenPoolSeedSeqEE13ConstructURBGEv()
  %coerce.dive = getelementptr inbounds %"class.absl::random_internal::pcg_engine", ptr %urbg_, i32 0, i32 0
  %0 = getelementptr inbounds { i64, i64 }, ptr %coerce.dive, i32 0, i32 0
  %1 = extractvalue { i64, i64 } %call, 0
  store i64 %1, ptr %0, align 16
  %2 = getelementptr inbounds { i64, i64 }, ptr %coerce.dive, i32 0, i32 1
  %3 = extractvalue { i64, i64 } %call, 1
  store i64 %3, ptr %2, align 8
  ret void
}

; Function Attrs: mustprogress uwtable
define linkonce_odr dso_local void @_ZN7testing8internal11CmpHelperNEIifEENS_15AssertionResultEPKcS4_RKT_RKT0_(ptr noalias sret(%"class.testing::AssertionResult") align 8 %agg.result, ptr noundef %expr1, ptr noundef %expr2, ptr noundef nonnull align 4 dereferenceable(4) %val1, ptr noundef nonnull align 4 dereferenceable(4) %val2) #4 comdat {
entry:
  %result.ptr = alloca ptr, align 8
  %expr1.addr = alloca ptr, align 8
  %expr2.addr = alloca ptr, align 8
  %val1.addr = alloca ptr, align 8
  %val2.addr = alloca ptr, align 8
  store ptr %agg.result, ptr %result.ptr, align 8
  store ptr %expr1, ptr %expr1.addr, align 8
  store ptr %expr2, ptr %expr2.addr, align 8
  store ptr %val1, ptr %val1.addr, align 8
  store ptr %val2, ptr %val2.addr, align 8
  %0 = load ptr, ptr %val1.addr, align 8
  %1 = load i32, ptr %0, align 4
  %conv = sitofp i32 %1 to float
  %2 = load ptr, ptr %val2.addr, align 8
  %3 = load float, ptr %2, align 4
  %cmp = fcmp une float %conv, %3
  br i1 %cmp, label %if.then, label %if.else

if.then:                                          ; preds = %entry
  call void @_ZN7testing16AssertionSuccessEv(ptr sret(%"class.testing::AssertionResult") align 8 %agg.result)
  br label %return

if.else:                                          ; preds = %entry
  %4 = load ptr, ptr %expr1.addr, align 8
  %5 = load ptr, ptr %expr2.addr, align 8
  %6 = load ptr, ptr %val1.addr, align 8
  %7 = load ptr, ptr %val2.addr, align 8
  call void @_ZN7testing8internal18CmpHelperOpFailureIifEENS_15AssertionResultEPKcS4_RKT_RKT0_S4_(ptr sret(%"class.testing::AssertionResult") align 8 %agg.result, ptr noundef %4, ptr noundef %5, ptr noundef nonnull align 4 dereferenceable(4) %6, ptr noundef nonnull align 4 dereferenceable(4) %7, ptr noundef @.str.39)
  br label %return

return:                                           ; preds = %if.else, %if.then
  ret void
}

; Function Attrs: mustprogress uwtable
define linkonce_odr dso_local noundef float @_ZN4absl7UniformIvRNS_15random_internal17NonsecureURBGBaseINS1_10pcg_engineINS1_13pcg128_paramsILm2549297995355413924ELm4865540595714422341ELm6364136223846793005ELm1442695040888963407EEENS1_17pcg_xsl_rr_128_64EEENS1_17RandenPoolSeedSeqEEEtfEENSt9enable_ifIXsr3std7is_sameIT_vEE5valueENSB_IXsr4absl11disjunctionINS1_23is_widening_convertibleIT1_T2_EENSD_ISF_SE_EEEE5valueENSt11conditionalIXsr23is_widening_convertibleISE_SF_EE5valueESF_SE_E4typeEE4typeEE4typeEOT0_SE_SF_(ptr noundef nonnull align 16 dereferenceable(16) %urbg, i16 noundef zeroext %lo, float noundef %hi) #4 comdat {
entry:
  %retval = alloca float, align 4
  %urbg.addr = alloca ptr, align 8
  %lo.addr = alloca i16, align 2
  %hi.addr = alloca float, align 4
  %tag = alloca %"struct.absl::IntervalClosedOpenTag", align 1
  %a = alloca float, align 4
  %b = alloca float, align 4
  %ref.tmp = alloca float, align 4
  %ref.tmp7 = alloca float, align 4
  store ptr %urbg, ptr %urbg.addr, align 8
  store i16 %lo, ptr %lo.addr, align 2
  store float %hi, ptr %hi.addr, align 4
  call void @llvm.memcpy.p0.p0.i64(ptr align 1 %tag, ptr align 1 @__const._ZN4absl7UniformIvRNS_15random_internal17NonsecureURBGBaseINS1_10pcg_engineINS1_13pcg128_paramsILm2549297995355413924ELm4865540595714422341ELm6364136223846793005ELm1442695040888963407EEENS1_17pcg_xsl_rr_128_64EEENS1_17RandenPoolSeedSeqEEEtfEENSt9enable_ifIXsr3std7is_sameIT_vEE5valueENSB_IXsr4absl11disjunctionINS1_23is_widening_convertibleIT1_T2_EENSD_ISF_SE_EEEE5valueENSt11conditionalIXsr23is_widening_convertibleISE_SF_EE5valueESF_SE_E4typeEE4typeEE4typeEOT0_SE_SF_.tag, i64 1, i1 false)
  %0 = load i16, ptr %lo.addr, align 2
  %conv = uitofp i16 %0 to float
  %1 = load float, ptr %hi.addr, align 4
  %call = call noundef float @_ZN4absl15random_internal19uniform_lower_boundIfNS_21IntervalClosedOpenTagEEENSt9enable_ifIXsr4absl11disjunctionISt7is_sameIT0_NS_23IntervalClosedClosedTagEES4_IS5_S2_EEE5valueET_E4typeES5_S9_S9_(float noundef %conv, float noundef %1)
  store float %call, ptr %a, align 4
  %2 = load i16, ptr %lo.addr, align 2
  %conv2 = uitofp i16 %2 to float
  %3 = load float, ptr %hi.addr, align 4
  %call3 = call noundef float @_ZN4absl15random_internal19uniform_upper_boundIfNS_21IntervalClosedOpenTagEEENSt9enable_ifIXsr4absl11conjunctionISt17is_floating_pointIT_ENS_11disjunctionIJSt7is_sameIT0_S2_ES8_IS9_NS_19IntervalOpenOpenTagEEEEEEE5valueES5_E4typeES9_S5_S5_(float noundef %conv2, float noundef %3)
  store float %call3, ptr %b, align 4
  %4 = load float, ptr %a, align 4
  %5 = load float, ptr %b, align 4
  %call4 = call noundef zeroext i1 @_ZN4absl15random_internal22is_uniform_range_validIfEENSt9enable_ifIXsr3std17is_floating_pointIT_EE5valueEbE4typeES3_S3_(float noundef %4, float noundef %5)
  br i1 %call4, label %if.end, label %if.then

if.then:                                          ; preds = %entry
  %6 = load i16, ptr %lo.addr, align 2
  %conv5 = uitofp i16 %6 to float
  store float %conv5, ptr %retval, align 4
  br label %return

if.end:                                           ; preds = %entry
  %7 = load ptr, ptr %urbg.addr, align 8
  %8 = load i16, ptr %lo.addr, align 2
  %conv6 = uitofp i16 %8 to float
  store float %conv6, ptr %ref.tmp, align 4
  %9 = load float, ptr %hi.addr, align 4
  store float %9, ptr %ref.tmp7, align 4
  %call8 = call noundef float @_ZN4absl15random_internal18DistributionCallerINS0_17NonsecureURBGBaseINS0_10pcg_engineINS0_13pcg128_paramsILm2549297995355413924ELm4865540595714422341ELm6364136223846793005ELm1442695040888963407EEENS0_17pcg_xsl_rr_128_64EEENS0_17RandenPoolSeedSeqEEEE4CallINS0_26UniformDistributionWrapperIfEEJffEEENT_11result_typeEPS9_DpOT0_(ptr noundef %7, ptr noundef nonnull align 4 dereferenceable(4) %ref.tmp, ptr noundef nonnull align 4 dereferenceable(4) %ref.tmp7)
  store float %call8, ptr %retval, align 4
  br label %return

return:                                           ; preds = %if.end, %if.then
  %10 = load float, ptr %retval, align 4
  ret float %10
}

; Function Attrs: mustprogress nounwind uwtable
define linkonce_odr dso_local noundef zeroext i1 @_ZNK7testing15AssertionResultcvbEv(ptr noundef nonnull align 8 dereferenceable(16) %this) #5 comdat align 2 {
entry:
  %this.addr = alloca ptr, align 8
  store ptr %this, ptr %this.addr, align 8
  %this1 = load ptr, ptr %this.addr, align 8
  %success_ = getelementptr inbounds %"class.testing::AssertionResult", ptr %this1, i32 0, i32 0
  %0 = load i8, ptr %success_, align 8
  %tobool = trunc i8 %0 to i1
  ret i1 %tobool
}

declare void @_ZN7testing7MessageC1Ev(ptr noundef nonnull align 8 dereferenceable(8)) unnamed_addr #1

; Function Attrs: mustprogress uwtable
define linkonce_odr dso_local noundef ptr @_ZNK7testing15AssertionResult15failure_messageEv(ptr noundef nonnull align 8 dereferenceable(16) %this) #4 comdat align 2 {
entry:
  %this.addr = alloca ptr, align 8
  store ptr %this, ptr %this.addr, align 8
  %this1 = load ptr, ptr %this.addr, align 8
  %call = call noundef ptr @_ZNK7testing15AssertionResult7messageEv(ptr noundef nonnull align 8 dereferenceable(16) %this1)
  ret ptr %call
}

declare void @_ZN7testing8internal12AssertHelperC1ENS_14TestPartResult4TypeEPKciS5_(ptr noundef nonnull align 8 dereferenceable(8), i32 noundef, ptr noundef, i32 noundef, ptr noundef) unnamed_addr #1

declare void @_ZNK7testing8internal12AssertHelperaSERKNS_7MessageE(ptr noundef nonnull align 8 dereferenceable(8), ptr noundef nonnull align 8 dereferenceable(8)) #1

; Function Attrs: nounwind
declare void @_ZN7testing8internal12AssertHelperD1Ev(ptr noundef nonnull align 8 dereferenceable(8)) unnamed_addr #2

; Function Attrs: mustprogress nounwind uwtable
define linkonce_odr dso_local void @_ZN7testing7MessageD2Ev(ptr noundef nonnull align 8 dereferenceable(8) %this) unnamed_addr #5 comdat align 2 {
entry:
  %this.addr = alloca ptr, align 8
  store ptr %this, ptr %this.addr, align 8
  %this1 = load ptr, ptr %this.addr, align 8
  %ss_ = getelementptr inbounds %"class.testing::Message", ptr %this1, i32 0, i32 0
  call void @_ZNSt10unique_ptrINSt7__cxx1118basic_stringstreamIcSt11char_traitsIcESaIcEEESt14default_deleteIS5_EED2Ev(ptr noundef nonnull align 8 dereferenceable(8) %ss_) #3
  ret void
}

; Function Attrs: mustprogress nounwind uwtable
define linkonce_odr dso_local void @_ZN7testing15AssertionResultD2Ev(ptr noundef nonnull align 8 dereferenceable(16) %this) unnamed_addr #5 comdat align 2 {
entry:
  %this.addr = alloca ptr, align 8
  store ptr %this, ptr %this.addr, align 8
  %this1 = load ptr, ptr %this.addr, align 8
  %message_ = getelementptr inbounds %"class.testing::AssertionResult", ptr %this1, i32 0, i32 1
  call void @_ZNSt10unique_ptrINSt7__cxx1112basic_stringIcSt11char_traitsIcESaIcEEESt14default_deleteIS5_EED2Ev(ptr noundef nonnull align 8 dereferenceable(8) %message_) #3
  ret void
}

; Function Attrs: mustprogress uwtable
define linkonce_odr dso_local void @_ZN7testing8internal11CmpHelperNEIidEENS_15AssertionResultEPKcS4_RKT_RKT0_(ptr noalias sret(%"class.testing::AssertionResult") align 8 %agg.result, ptr noundef %expr1, ptr noundef %expr2, ptr noundef nonnull align 4 dereferenceable(4) %val1, ptr noundef nonnull align 8 dereferenceable(8) %val2) #4 comdat {
entry:
  %result.ptr = alloca ptr, align 8
  %expr1.addr = alloca ptr, align 8
  %expr2.addr = alloca ptr, align 8
  %val1.addr = alloca ptr, align 8
  %val2.addr = alloca ptr, align 8
  store ptr %agg.result, ptr %result.ptr, align 8
  store ptr %expr1, ptr %expr1.addr, align 8
  store ptr %expr2, ptr %expr2.addr, align 8
  store ptr %val1, ptr %val1.addr, align 8
  store ptr %val2, ptr %val2.addr, align 8
  %0 = load ptr, ptr %val1.addr, align 8
  %1 = load i32, ptr %0, align 4
  %conv = sitofp i32 %1 to double
  %2 = load ptr, ptr %val2.addr, align 8
  %3 = load double, ptr %2, align 8
  %cmp = fcmp une double %conv, %3
  br i1 %cmp, label %if.then, label %if.else

if.then:                                          ; preds = %entry
  call void @_ZN7testing16AssertionSuccessEv(ptr sret(%"class.testing::AssertionResult") align 8 %agg.result)
  br label %return

if.else:                                          ; preds = %entry
  %4 = load ptr, ptr %expr1.addr, align 8
  %5 = load ptr, ptr %expr2.addr, align 8
  %6 = load ptr, ptr %val1.addr, align 8
  %7 = load ptr, ptr %val2.addr, align 8
  call void @_ZN7testing8internal18CmpHelperOpFailureIidEENS_15AssertionResultEPKcS4_RKT_RKT0_S4_(ptr sret(%"class.testing::AssertionResult") align 8 %agg.result, ptr noundef %4, ptr noundef %5, ptr noundef nonnull align 4 dereferenceable(4) %6, ptr noundef nonnull align 8 dereferenceable(8) %7, ptr noundef @.str.39)
  br label %return

return:                                           ; preds = %if.else, %if.then
  ret void
}

; Function Attrs: mustprogress uwtable
define linkonce_odr dso_local noundef double @_ZN4absl7UniformIvRNS_15random_internal17NonsecureURBGBaseINS1_10pcg_engineINS1_13pcg128_paramsILm2549297995355413924ELm4865540595714422341ELm6364136223846793005ELm1442695040888963407EEENS1_17pcg_xsl_rr_128_64EEENS1_17RandenPoolSeedSeqEEEidEENSt9enable_ifIXsr3std7is_sameIT_vEE5valueENSB_IXsr4absl11disjunctionINS1_23is_widening_convertibleIT1_T2_EENSD_ISF_SE_EEEE5valueENSt11conditionalIXsr23is_widening_convertibleISE_SF_EE5valueESF_SE_E4typeEE4typeEE4typeEOT0_SE_SF_(ptr noundef nonnull align 16 dereferenceable(16) %urbg, i32 noundef %lo, double noundef %hi) #4 comdat {
entry:
  %retval = alloca double, align 8
  %urbg.addr = alloca ptr, align 8
  %lo.addr = alloca i32, align 4
  %hi.addr = alloca double, align 8
  %tag = alloca %"struct.absl::IntervalClosedOpenTag", align 1
  %a = alloca double, align 8
  %b = alloca double, align 8
  %ref.tmp = alloca double, align 8
  %ref.tmp7 = alloca double, align 8
  store ptr %urbg, ptr %urbg.addr, align 8
  store i32 %lo, ptr %lo.addr, align 4
  store double %hi, ptr %hi.addr, align 8
  call void @llvm.memcpy.p0.p0.i64(ptr align 1 %tag, ptr align 1 @__const._ZN4absl7UniformIvRNS_15random_internal17NonsecureURBGBaseINS1_10pcg_engineINS1_13pcg128_paramsILm2549297995355413924ELm4865540595714422341ELm6364136223846793005ELm1442695040888963407EEENS1_17pcg_xsl_rr_128_64EEENS1_17RandenPoolSeedSeqEEEidEENSt9enable_ifIXsr3std7is_sameIT_vEE5valueENSB_IXsr4absl11disjunctionINS1_23is_widening_convertibleIT1_T2_EENSD_ISF_SE_EEEE5valueENSt11conditionalIXsr23is_widening_convertibleISE_SF_EE5valueESF_SE_E4typeEE4typeEE4typeEOT0_SE_SF_.tag, i64 1, i1 false)
  %0 = load i32, ptr %lo.addr, align 4
  %conv = sitofp i32 %0 to double
  %1 = load double, ptr %hi.addr, align 8
  %call = call noundef double @_ZN4absl15random_internal19uniform_lower_boundIdNS_21IntervalClosedOpenTagEEENSt9enable_ifIXsr4absl11disjunctionISt7is_sameIT0_NS_23IntervalClosedClosedTagEES4_IS5_S2_EEE5valueET_E4typeES5_S9_S9_(double noundef %conv, double noundef %1)
  store double %call, ptr %a, align 8
  %2 = load i32, ptr %lo.addr, align 4
  %conv2 = sitofp i32 %2 to double
  %3 = load double, ptr %hi.addr, align 8
  %call3 = call noundef double @_ZN4absl15random_internal19uniform_upper_boundIdNS_21IntervalClosedOpenTagEEENSt9enable_ifIXsr4absl11conjunctionISt17is_floating_pointIT_ENS_11disjunctionIJSt7is_sameIT0_S2_ES8_IS9_NS_19IntervalOpenOpenTagEEEEEEE5valueES5_E4typeES9_S5_S5_(double noundef %conv2, double noundef %3)
  store double %call3, ptr %b, align 8
  %4 = load double, ptr %a, align 8
  %5 = load double, ptr %b, align 8
  %call4 = call noundef zeroext i1 @_ZN4absl15random_internal22is_uniform_range_validIdEENSt9enable_ifIXsr3std17is_floating_pointIT_EE5valueEbE4typeES3_S3_(double noundef %4, double noundef %5)
  br i1 %call4, label %if.end, label %if.then

if.then:                                          ; preds = %entry
  %6 = load i32, ptr %lo.addr, align 4
  %conv5 = sitofp i32 %6 to double
  store double %conv5, ptr %retval, align 8
  br label %return

if.end:                                           ; preds = %entry
  %7 = load ptr, ptr %urbg.addr, align 8
  %8 = load i32, ptr %lo.addr, align 4
  %conv6 = sitofp i32 %8 to double
  store double %conv6, ptr %ref.tmp, align 8
  %9 = load double, ptr %hi.addr, align 8
  store double %9, ptr %ref.tmp7, align 8
  %call8 = call noundef double @_ZN4absl15random_internal18DistributionCallerINS0_17NonsecureURBGBaseINS0_10pcg_engineINS0_13pcg128_paramsILm2549297995355413924ELm4865540595714422341ELm6364136223846793005ELm1442695040888963407EEENS0_17pcg_xsl_rr_128_64EEENS0_17RandenPoolSeedSeqEEEE4CallINS0_26UniformDistributionWrapperIdEEJddEEENT_11result_typeEPS9_DpOT0_(ptr noundef %7, ptr noundef nonnull align 8 dereferenceable(8) %ref.tmp, ptr noundef nonnull align 8 dereferenceable(8) %ref.tmp7)
  store double %call8, ptr %retval, align 8
  br label %return

return:                                           ; preds = %if.end, %if.then
  %10 = load double, ptr %retval, align 8
  ret double %10
}

; Function Attrs: mustprogress uwtable
define linkonce_odr dso_local noundef float @_ZN4absl7UniformIvNS_19IntervalOpenOpenTagERNS_15random_internal17NonsecureURBGBaseINS2_10pcg_engineINS2_13pcg128_paramsILm2549297995355413924ELm4865540595714422341ELm6364136223846793005ELm1442695040888963407EEENS2_17pcg_xsl_rr_128_64EEENS2_17RandenPoolSeedSeqEEEtfEENSt9enable_ifIXsr3std7is_sameIT_vEE5valueENSC_IXsr4absl11disjunctionINS2_23is_widening_convertibleIT2_T3_EENSE_ISG_SF_EEEE5valueENSt11conditionalIXsr23is_widening_convertibleISF_SG_EE5valueESG_SF_E4typeEE4typeEE4typeET0_OT1_SF_SG_(ptr noundef nonnull align 16 dereferenceable(16) %urbg, i16 noundef zeroext %lo, float noundef %hi) #4 comdat {
entry:
  %retval = alloca float, align 4
  %tag = alloca %"struct.absl::IntervalOpenOpenTag", align 1
  %urbg.addr = alloca ptr, align 8
  %lo.addr = alloca i16, align 2
  %hi.addr = alloca float, align 4
  %a = alloca float, align 4
  %b = alloca float, align 4
  %ref.tmp = alloca float, align 4
  %ref.tmp7 = alloca float, align 4
  store ptr %urbg, ptr %urbg.addr, align 8
  store i16 %lo, ptr %lo.addr, align 2
  store float %hi, ptr %hi.addr, align 4
  %0 = load i16, ptr %lo.addr, align 2
  %conv = uitofp i16 %0 to float
  %1 = load float, ptr %hi.addr, align 4
  %call = call noundef float @_ZN4absl15random_internal19uniform_lower_boundIfNS_19IntervalOpenOpenTagEEENSt9enable_ifIXsr4absl11conjunctionISt17is_floating_pointIT_ENS_11disjunctionIJSt7is_sameIT0_NS_21IntervalOpenClosedTagEES8_IS9_S2_EEEEEE5valueES5_E4typeES9_S5_S5_(float noundef %conv, float noundef %1)
  store float %call, ptr %a, align 4
  %2 = load i16, ptr %lo.addr, align 2
  %conv2 = uitofp i16 %2 to float
  %3 = load float, ptr %hi.addr, align 4
  %call3 = call noundef float @_ZN4absl15random_internal19uniform_upper_boundIfNS_19IntervalOpenOpenTagEEENSt9enable_ifIXsr4absl11conjunctionISt17is_floating_pointIT_ENS_11disjunctionIJSt7is_sameIT0_NS_21IntervalClosedOpenTagEES8_IS9_S2_EEEEEE5valueES5_E4typeES9_S5_S5_(float noundef %conv2, float noundef %3)
  store float %call3, ptr %b, align 4
  %4 = load float, ptr %a, align 4
  %5 = load float, ptr %b, align 4
  %call4 = call noundef zeroext i1 @_ZN4absl15random_internal22is_uniform_range_validIfEENSt9enable_ifIXsr3std17is_floating_pointIT_EE5valueEbE4typeES3_S3_(float noundef %4, float noundef %5)
  br i1 %call4, label %if.end, label %if.then

if.then:                                          ; preds = %entry
  %6 = load i16, ptr %lo.addr, align 2
  %conv5 = uitofp i16 %6 to float
  store float %conv5, ptr %retval, align 4
  br label %return

if.end:                                           ; preds = %entry
  %7 = load ptr, ptr %urbg.addr, align 8
  %8 = load i16, ptr %lo.addr, align 2
  %conv6 = uitofp i16 %8 to float
  store float %conv6, ptr %ref.tmp, align 4
  %9 = load float, ptr %hi.addr, align 4
  store float %9, ptr %ref.tmp7, align 4
  %call8 = call noundef float @_ZN4absl15random_internal18DistributionCallerINS0_17NonsecureURBGBaseINS0_10pcg_engineINS0_13pcg128_paramsILm2549297995355413924ELm4865540595714422341ELm6364136223846793005ELm1442695040888963407EEENS0_17pcg_xsl_rr_128_64EEENS0_17RandenPoolSeedSeqEEEE4CallINS0_26UniformDistributionWrapperIfEEJRNS_19IntervalOpenOpenTagEffEEENT_11result_typeEPS9_DpOT0_(ptr noundef %7, ptr noundef nonnull align 1 dereferenceable(1) %tag, ptr noundef nonnull align 4 dereferenceable(4) %ref.tmp, ptr noundef nonnull align 4 dereferenceable(4) %ref.tmp7)
  store float %call8, ptr %retval, align 4
  br label %return

return:                                           ; preds = %if.end, %if.then
  %10 = load float, ptr %retval, align 4
  ret float %10
}

; Function Attrs: mustprogress uwtable
define linkonce_odr dso_local noundef double @_ZN4absl7UniformIvNS_19IntervalOpenOpenTagERNS_15random_internal17NonsecureURBGBaseINS2_10pcg_engineINS2_13pcg128_paramsILm2549297995355413924ELm4865540595714422341ELm6364136223846793005ELm1442695040888963407EEENS2_17pcg_xsl_rr_128_64EEENS2_17RandenPoolSeedSeqEEEidEENSt9enable_ifIXsr3std7is_sameIT_vEE5valueENSC_IXsr4absl11disjunctionINS2_23is_widening_convertibleIT2_T3_EENSE_ISG_SF_EEEE5valueENSt11conditionalIXsr23is_widening_convertibleISF_SG_EE5valueESG_SF_E4typeEE4typeEE4typeET0_OT1_SF_SG_(ptr noundef nonnull align 16 dereferenceable(16) %urbg, i32 noundef %lo, double noundef %hi) #4 comdat {
entry:
  %retval = alloca double, align 8
  %tag = alloca %"struct.absl::IntervalOpenOpenTag", align 1
  %urbg.addr = alloca ptr, align 8
  %lo.addr = alloca i32, align 4
  %hi.addr = alloca double, align 8
  %a = alloca double, align 8
  %b = alloca double, align 8
  %ref.tmp = alloca double, align 8
  %ref.tmp7 = alloca double, align 8
  store ptr %urbg, ptr %urbg.addr, align 8
  store i32 %lo, ptr %lo.addr, align 4
  store double %hi, ptr %hi.addr, align 8
  %0 = load i32, ptr %lo.addr, align 4
  %conv = sitofp i32 %0 to double
  %1 = load double, ptr %hi.addr, align 8
  %call = call noundef double @_ZN4absl15random_internal19uniform_lower_boundIdNS_19IntervalOpenOpenTagEEENSt9enable_ifIXsr4absl11conjunctionISt17is_floating_pointIT_ENS_11disjunctionIJSt7is_sameIT0_NS_21IntervalOpenClosedTagEES8_IS9_S2_EEEEEE5valueES5_E4typeES9_S5_S5_(double noundef %conv, double noundef %1)
  store double %call, ptr %a, align 8
  %2 = load i32, ptr %lo.addr, align 4
  %conv2 = sitofp i32 %2 to double
  %3 = load double, ptr %hi.addr, align 8
  %call3 = call noundef double @_ZN4absl15random_internal19uniform_upper_boundIdNS_19IntervalOpenOpenTagEEENSt9enable_ifIXsr4absl11conjunctionISt17is_floating_pointIT_ENS_11disjunctionIJSt7is_sameIT0_NS_21IntervalClosedOpenTagEES8_IS9_S2_EEEEEE5valueES5_E4typeES9_S5_S5_(double noundef %conv2, double noundef %3)
  store double %call3, ptr %b, align 8
  %4 = load double, ptr %a, align 8
  %5 = load double, ptr %b, align 8
  %call4 = call noundef zeroext i1 @_ZN4absl15random_internal22is_uniform_range_validIdEENSt9enable_ifIXsr3std17is_floating_pointIT_EE5valueEbE4typeES3_S3_(double noundef %4, double noundef %5)
  br i1 %call4, label %if.end, label %if.then

if.then:                                          ; preds = %entry
  %6 = load i32, ptr %lo.addr, align 4
  %conv5 = sitofp i32 %6 to double
  store double %conv5, ptr %retval, align 8
  br label %return

if.end:                                           ; preds = %entry
  %7 = load ptr, ptr %urbg.addr, align 8
  %8 = load i32, ptr %lo.addr, align 4
  %conv6 = sitofp i32 %8 to double
  store double %conv6, ptr %ref.tmp, align 8
  %9 = load double, ptr %hi.addr, align 8
  store double %9, ptr %ref.tmp7, align 8
  %call8 = call noundef double @_ZN4absl15random_internal18DistributionCallerINS0_17NonsecureURBGBaseINS0_10pcg_engineINS0_13pcg128_paramsILm2549297995355413924ELm4865540595714422341ELm6364136223846793005ELm1442695040888963407EEENS0_17pcg_xsl_rr_128_64EEENS0_17RandenPoolSeedSeqEEEE4CallINS0_26UniformDistributionWrapperIdEEJRNS_19IntervalOpenOpenTagEddEEENT_11result_typeEPS9_DpOT0_(ptr noundef %7, ptr noundef nonnull align 1 dereferenceable(1) %tag, ptr noundef nonnull align 8 dereferenceable(8) %ref.tmp, ptr noundef nonnull align 8 dereferenceable(8) %ref.tmp7)
  store double %call8, ptr %retval, align 8
  br label %return

return:                                           ; preds = %if.end, %if.then
  %10 = load double, ptr %retval, align 8
  ret double %10
}

; Function Attrs: mustprogress uwtable
define linkonce_odr dso_local noundef double @_ZN4absl7UniformIdNS_19IntervalOpenOpenTagERNS_15random_internal17NonsecureURBGBaseINS2_10pcg_engineINS2_13pcg128_paramsILm2549297995355413924ELm4865540595714422341ELm6364136223846793005ELm1442695040888963407EEENS2_17pcg_xsl_rr_128_64EEENS2_17RandenPoolSeedSeqEEEEENSt9enable_ifIXntsr3std7is_sameIT_vEE5valueESD_E4typeET0_OT1_SD_SD_(ptr noundef nonnull align 16 dereferenceable(16) %urbg, double noundef %lo, double noundef %hi) #4 comdat {
entry:
  %retval = alloca double, align 8
  %tag = alloca %"struct.absl::IntervalOpenOpenTag", align 1
  %urbg.addr = alloca ptr, align 8
  %lo.addr = alloca double, align 8
  %hi.addr = alloca double, align 8
  %a = alloca double, align 8
  %b = alloca double, align 8
  store ptr %urbg, ptr %urbg.addr, align 8
  store double %lo, ptr %lo.addr, align 8
  store double %hi, ptr %hi.addr, align 8
  %0 = load double, ptr %lo.addr, align 8
  %1 = load double, ptr %hi.addr, align 8
  %call = call noundef double @_ZN4absl15random_internal19uniform_lower_boundIdNS_19IntervalOpenOpenTagEEENSt9enable_ifIXsr4absl11conjunctionISt17is_floating_pointIT_ENS_11disjunctionIJSt7is_sameIT0_NS_21IntervalOpenClosedTagEES8_IS9_S2_EEEEEE5valueES5_E4typeES9_S5_S5_(double noundef %0, double noundef %1)
  store double %call, ptr %a, align 8
  %2 = load double, ptr %lo.addr, align 8
  %3 = load double, ptr %hi.addr, align 8
  %call2 = call noundef double @_ZN4absl15random_internal19uniform_upper_boundIdNS_19IntervalOpenOpenTagEEENSt9enable_ifIXsr4absl11conjunctionISt17is_floating_pointIT_ENS_11disjunctionIJSt7is_sameIT0_NS_21IntervalClosedOpenTagEES8_IS9_S2_EEEEEE5valueES5_E4typeES9_S5_S5_(double noundef %2, double noundef %3)
  store double %call2, ptr %b, align 8
  %4 = load double, ptr %a, align 8
  %5 = load double, ptr %b, align 8
  %call3 = call noundef zeroext i1 @_ZN4absl15random_internal22is_uniform_range_validIdEENSt9enable_ifIXsr3std17is_floating_pointIT_EE5valueEbE4typeES3_S3_(double noundef %4, double noundef %5)
  br i1 %call3, label %if.end, label %if.then

if.then:                                          ; preds = %entry
  %6 = load double, ptr %lo.addr, align 8
  store double %6, ptr %retval, align 8
  br label %return

if.end:                                           ; preds = %entry
  %7 = load ptr, ptr %urbg.addr, align 8
  %call4 = call noundef double @_ZN4absl15random_internal18DistributionCallerINS0_17NonsecureURBGBaseINS0_10pcg_engineINS0_13pcg128_paramsILm2549297995355413924ELm4865540595714422341ELm6364136223846793005ELm1442695040888963407EEENS0_17pcg_xsl_rr_128_64EEENS0_17RandenPoolSeedSeqEEEE4CallINS0_26UniformDistributionWrapperIdEEJRNS_19IntervalOpenOpenTagERdSG_EEENT_11result_typeEPS9_DpOT0_(ptr noundef %7, ptr noundef nonnull align 1 dereferenceable(1) %tag, ptr noundef nonnull align 8 dereferenceable(8) %lo.addr, ptr noundef nonnull align 8 dereferenceable(8) %hi.addr)
  store double %call4, ptr %retval, align 8
  br label %return

return:                                           ; preds = %if.end, %if.then
  %8 = load double, ptr %retval, align 8
  ret double %8
}

; Function Attrs: mustprogress uwtable
define linkonce_odr dso_local noundef float @_ZN4absl7UniformIfNS_19IntervalOpenOpenTagERNS_15random_internal17NonsecureURBGBaseINS2_10pcg_engineINS2_13pcg128_paramsILm2549297995355413924ELm4865540595714422341ELm6364136223846793005ELm1442695040888963407EEENS2_17pcg_xsl_rr_128_64EEENS2_17RandenPoolSeedSeqEEEEENSt9enable_ifIXntsr3std7is_sameIT_vEE5valueESD_E4typeET0_OT1_SD_SD_(ptr noundef nonnull align 16 dereferenceable(16) %urbg, float noundef %lo, float noundef %hi) #4 comdat {
entry:
  %retval = alloca float, align 4
  %tag = alloca %"struct.absl::IntervalOpenOpenTag", align 1
  %urbg.addr = alloca ptr, align 8
  %lo.addr = alloca float, align 4
  %hi.addr = alloca float, align 4
  %a = alloca float, align 4
  %b = alloca float, align 4
  store ptr %urbg, ptr %urbg.addr, align 8
  store float %lo, ptr %lo.addr, align 4
  store float %hi, ptr %hi.addr, align 4
  %0 = load float, ptr %lo.addr, align 4
  %1 = load float, ptr %hi.addr, align 4
  %call = call noundef float @_ZN4absl15random_internal19uniform_lower_boundIfNS_19IntervalOpenOpenTagEEENSt9enable_ifIXsr4absl11conjunctionISt17is_floating_pointIT_ENS_11disjunctionIJSt7is_sameIT0_NS_21IntervalOpenClosedTagEES8_IS9_S2_EEEEEE5valueES5_E4typeES9_S5_S5_(float noundef %0, float noundef %1)
  store float %call, ptr %a, align 4
  %2 = load float, ptr %lo.addr, align 4
  %3 = load float, ptr %hi.addr, align 4
  %call2 = call noundef float @_ZN4absl15random_internal19uniform_upper_boundIfNS_19IntervalOpenOpenTagEEENSt9enable_ifIXsr4absl11conjunctionISt17is_floating_pointIT_ENS_11disjunctionIJSt7is_sameIT0_NS_21IntervalClosedOpenTagEES8_IS9_S2_EEEEEE5valueES5_E4typeES9_S5_S5_(float noundef %2, float noundef %3)
  store float %call2, ptr %b, align 4
  %4 = load float, ptr %a, align 4
  %5 = load float, ptr %b, align 4
  %call3 = call noundef zeroext i1 @_ZN4absl15random_internal22is_uniform_range_validIfEENSt9enable_ifIXsr3std17is_floating_pointIT_EE5valueEbE4typeES3_S3_(float noundef %4, float noundef %5)
  br i1 %call3, label %if.end, label %if.then

if.then:                                          ; preds = %entry
  %6 = load float, ptr %lo.addr, align 4
  store float %6, ptr %retval, align 4
  br label %return

if.end:                                           ; preds = %entry
  %7 = load ptr, ptr %urbg.addr, align 8
  %call4 = call noundef float @_ZN4absl15random_internal18DistributionCallerINS0_17NonsecureURBGBaseINS0_10pcg_engineINS0_13pcg128_paramsILm2549297995355413924ELm4865540595714422341ELm6364136223846793005ELm1442695040888963407EEENS0_17pcg_xsl_rr_128_64EEENS0_17RandenPoolSeedSeqEEEE4CallINS0_26UniformDistributionWrapperIfEEJRNS_19IntervalOpenOpenTagERfSG_EEENT_11result_typeEPS9_DpOT0_(ptr noundef %7, ptr noundef nonnull align 1 dereferenceable(1) %tag, ptr noundef nonnull align 4 dereferenceable(4) %lo.addr, ptr noundef nonnull align 4 dereferenceable(4) %hi.addr)
  store float %call4, ptr %retval, align 4
  br label %return

return:                                           ; preds = %if.end, %if.then
  %8 = load float, ptr %retval, align 4
  ret float %8
}

; Function Attrs: mustprogress uwtable
define linkonce_odr dso_local noundef float @_ZN4absl7UniformIfRNS_15random_internal17NonsecureURBGBaseINS1_10pcg_engineINS1_13pcg128_paramsILm2549297995355413924ELm4865540595714422341ELm6364136223846793005ELm1442695040888963407EEENS1_17pcg_xsl_rr_128_64EEENS1_17RandenPoolSeedSeqEEEEENSt9enable_ifIXntsr3std7is_sameIT_vEE5valueESC_E4typeEOT0_SC_SC_(ptr noundef nonnull align 16 dereferenceable(16) %urbg, float noundef %lo, float noundef %hi) #4 comdat {
entry:
  %retval = alloca float, align 4
  %urbg.addr = alloca ptr, align 8
  %lo.addr = alloca float, align 4
  %hi.addr = alloca float, align 4
  %tag = alloca %"struct.absl::IntervalClosedOpenTag", align 1
  %a = alloca float, align 4
  %b = alloca float, align 4
  store ptr %urbg, ptr %urbg.addr, align 8
  store float %lo, ptr %lo.addr, align 4
  store float %hi, ptr %hi.addr, align 4
  call void @llvm.memcpy.p0.p0.i64(ptr align 1 %tag, ptr align 1 @__const._ZN4absl7UniformIfRNS_15random_internal17NonsecureURBGBaseINS1_10pcg_engineINS1_13pcg128_paramsILm2549297995355413924ELm4865540595714422341ELm6364136223846793005ELm1442695040888963407EEENS1_17pcg_xsl_rr_128_64EEENS1_17RandenPoolSeedSeqEEEEENSt9enable_ifIXntsr3std7is_sameIT_vEE5valueESC_E4typeEOT0_SC_SC_.tag, i64 1, i1 false)
  %0 = load float, ptr %lo.addr, align 4
  %1 = load float, ptr %hi.addr, align 4
  %call = call noundef float @_ZN4absl15random_internal19uniform_lower_boundIfNS_21IntervalClosedOpenTagEEENSt9enable_ifIXsr4absl11disjunctionISt7is_sameIT0_NS_23IntervalClosedClosedTagEES4_IS5_S2_EEE5valueET_E4typeES5_S9_S9_(float noundef %0, float noundef %1)
  store float %call, ptr %a, align 4
  %2 = load float, ptr %lo.addr, align 4
  %3 = load float, ptr %hi.addr, align 4
  %call2 = call noundef float @_ZN4absl15random_internal19uniform_upper_boundIfNS_21IntervalClosedOpenTagEEENSt9enable_ifIXsr4absl11conjunctionISt17is_floating_pointIT_ENS_11disjunctionIJSt7is_sameIT0_S2_ES8_IS9_NS_19IntervalOpenOpenTagEEEEEEE5valueES5_E4typeES9_S5_S5_(float noundef %2, float noundef %3)
  store float %call2, ptr %b, align 4
  %4 = load float, ptr %a, align 4
  %5 = load float, ptr %b, align 4
  %call3 = call noundef zeroext i1 @_ZN4absl15random_internal22is_uniform_range_validIfEENSt9enable_ifIXsr3std17is_floating_pointIT_EE5valueEbE4typeES3_S3_(float noundef %4, float noundef %5)
  br i1 %call3, label %if.end, label %if.then

if.then:                                          ; preds = %entry
  %6 = load float, ptr %lo.addr, align 4
  store float %6, ptr %retval, align 4
  br label %return

if.end:                                           ; preds = %entry
  %7 = load ptr, ptr %urbg.addr, align 8
  %call4 = call noundef float @_ZN4absl15random_internal18DistributionCallerINS0_17NonsecureURBGBaseINS0_10pcg_engineINS0_13pcg128_paramsILm2549297995355413924ELm4865540595714422341ELm6364136223846793005ELm1442695040888963407EEENS0_17pcg_xsl_rr_128_64EEENS0_17RandenPoolSeedSeqEEEE4CallINS0_26UniformDistributionWrapperIfEEJRfSE_EEENT_11result_typeEPS9_DpOT0_(ptr noundef %7, ptr noundef nonnull align 4 dereferenceable(4) %lo.addr, ptr noundef nonnull align 4 dereferenceable(4) %hi.addr)
  store float %call4, ptr %retval, align 4
  br label %return

return:                                           ; preds = %if.end, %if.then
  %8 = load float, ptr %retval, align 4
  ret float %8
}

; Function Attrs: mustprogress uwtable
define linkonce_odr dso_local { i64, i64 } @_ZN4absl15random_internal17NonsecureURBGBaseINS0_10pcg_engineINS0_13pcg128_paramsILm2549297995355413924ELm4865540595714422341ELm6364136223846793005ELm1442695040888963407EEENS0_17pcg_xsl_rr_128_64EEENS0_17RandenPoolSeedSeqEE13ConstructURBGEv() #4 comdat align 2 {
entry:
  %retval = alloca %"class.absl::random_internal::pcg_engine", align 16
  %seeder = alloca %"class.absl::random_internal::RandenPoolSeedSeq", align 1
  call void @_ZN4absl15random_internal10pcg_engineINS0_13pcg128_paramsILm2549297995355413924ELm4865540595714422341ELm6364136223846793005ELm1442695040888963407EEENS0_17pcg_xsl_rr_128_64EEC2IRNS0_17RandenPoolSeedSeqEvEEOT_(ptr noundef nonnull align 16 dereferenceable(16) %retval, ptr noundef nonnull align 1 dereferenceable(1) %seeder)
  %coerce.dive = getelementptr inbounds %"class.absl::random_internal::pcg_engine", ptr %retval, i32 0, i32 0
  %0 = load { i64, i64 }, ptr %coerce.dive, align 16
  ret { i64, i64 } %0
}

; Function Attrs: mustprogress uwtable
define linkonce_odr dso_local void @_ZN4absl15random_internal10pcg_engineINS0_13pcg128_paramsILm2549297995355413924ELm4865540595714422341ELm6364136223846793005ELm1442695040888963407EEENS0_17pcg_xsl_rr_128_64EEC2IRNS0_17RandenPoolSeedSeqEvEEOT_(ptr noundef nonnull align 16 dereferenceable(16) %this, ptr noundef nonnull align 1 dereferenceable(1) %seq) unnamed_addr #4 comdat align 2 {
entry:
  %this.addr = alloca ptr, align 8
  %seq.addr = alloca ptr, align 8
  store ptr %this, ptr %this.addr, align 8
  store ptr %seq, ptr %seq.addr, align 8
  %this1 = load ptr, ptr %this.addr, align 8
  %0 = load ptr, ptr %seq.addr, align 8
  call void @_ZN4absl15random_internal10pcg_engineINS0_13pcg128_paramsILm2549297995355413924ELm4865540595714422341ELm6364136223846793005ELm1442695040888963407EEENS0_17pcg_xsl_rr_128_64EE4seedIRNS0_17RandenPoolSeedSeqEEENSt9enable_ifIXntsr3std14is_convertibleIT_mEE5valueEvE4typeEOSA_(ptr noundef nonnull align 16 dereferenceable(16) %this1, ptr noundef nonnull align 1 dereferenceable(1) %0)
  ret void
}

; Function Attrs: mustprogress uwtable
define linkonce_odr dso_local void @_ZN4absl15random_internal10pcg_engineINS0_13pcg128_paramsILm2549297995355413924ELm4865540595714422341ELm6364136223846793005ELm1442695040888963407EEENS0_17pcg_xsl_rr_128_64EE4seedIRNS0_17RandenPoolSeedSeqEEENSt9enable_ifIXntsr3std14is_convertibleIT_mEE5valueEvE4typeEOSA_(ptr noundef nonnull align 16 dereferenceable(16) %this, ptr noundef nonnull align 1 dereferenceable(1) %seq) #4 comdat align 2 {
entry:
  %this.addr = alloca ptr, align 8
  %seq.addr = alloca ptr, align 8
  store ptr %this, ptr %this.addr, align 8
  store ptr %seq, ptr %seq.addr, align 8
  %this1 = load ptr, ptr %this.addr, align 8
  %0 = load ptr, ptr %seq.addr, align 8
  call void @_ZN4absl15random_internal10pcg_engineINS0_13pcg128_paramsILm2549297995355413924ELm4865540595714422341ELm6364136223846793005ELm1442695040888963407EEENS0_17pcg_xsl_rr_128_64EE6reseedINS0_17RandenPoolSeedSeqEEEvRT_(ptr noundef nonnull align 16 dereferenceable(16) %this1, ptr noundef nonnull align 1 dereferenceable(1) %0)
  ret void
}

; Function Attrs: mustprogress uwtable
define linkonce_odr dso_local void @_ZN4absl15random_internal10pcg_engineINS0_13pcg128_paramsILm2549297995355413924ELm4865540595714422341ELm6364136223846793005ELm1442695040888963407EEENS0_17pcg_xsl_rr_128_64EE6reseedINS0_17RandenPoolSeedSeqEEEvRT_(ptr noundef nonnull align 16 dereferenceable(16) %this, ptr noundef nonnull align 1 dereferenceable(1) %seq) #4 comdat align 2 {
entry:
  %this.addr = alloca ptr, align 8
  %seq.addr = alloca ptr, align 8
  %kBufferSize = alloca i64, align 8
  %buffer = alloca [4 x i32], align 16
  %tmp = alloca %"class.absl::uint128", align 16
  %i = alloca i64, align 8
  %agg.tmp = alloca %"class.absl::uint128", align 16
  %ref.tmp = alloca %"class.absl::uint128", align 16
  %agg.tmp6 = alloca %"class.absl::uint128", align 16
  %agg.tmp7 = alloca %"class.absl::uint128", align 16
  %agg.tmp8 = alloca %"class.absl::uint128", align 16
  store ptr %this, ptr %this.addr, align 8
  store ptr %seq, ptr %seq.addr, align 8
  %this1 = load ptr, ptr %this.addr, align 8
  store i64 4, ptr %kBufferSize, align 8
  %0 = load ptr, ptr %seq.addr, align 8
  %call = call noundef ptr @_ZSt5beginIjLm4EEPT_RAT0__S0_(ptr noundef nonnull align 4 dereferenceable(16) %buffer) #3
  %call2 = call noundef ptr @_ZSt3endIjLm4EEPT_RAT0__S0_(ptr noundef nonnull align 4 dereferenceable(16) %buffer) #3
  call void @_ZN4absl15random_internal17RandenPoolSeedSeq8generateIPjEEvT_S4_(ptr noundef nonnull align 1 dereferenceable(1) %0, ptr noundef %call, ptr noundef %call2)
  %arrayidx = getelementptr inbounds [4 x i32], ptr %buffer, i64 0, i64 0
  %1 = load i32, ptr %arrayidx, align 16
  call void @_ZN4absl7uint128C2Ej(ptr noundef nonnull align 16 dereferenceable(16) %tmp, i32 noundef %1)
  store i64 1, ptr %i, align 8
  br label %for.cond

for.cond:                                         ; preds = %for.inc, %entry
  %2 = load i64, ptr %i, align 8
  %cmp = icmp ult i64 %2, 4
  br i1 %cmp, label %for.body, label %for.end

for.body:                                         ; preds = %for.cond
  %call3 = call noundef nonnull align 16 dereferenceable(16) ptr @_ZN4absl7uint128lSEi(ptr noundef nonnull align 16 dereferenceable(16) %tmp, i32 noundef 32)
  %3 = load i64, ptr %i, align 8
  %arrayidx4 = getelementptr inbounds [4 x i32], ptr %buffer, i64 0, i64 %3
  %4 = load i32, ptr %arrayidx4, align 4
  call void @_ZN4absl7uint128C2Ej(ptr noundef nonnull align 16 dereferenceable(16) %agg.tmp, i32 noundef %4)
  %5 = getelementptr inbounds { i64, i64 }, ptr %agg.tmp, i32 0, i32 0
  %6 = load i64, ptr %5, align 16
  %7 = getelementptr inbounds { i64, i64 }, ptr %agg.tmp, i32 0, i32 1
  %8 = load i64, ptr %7, align 8
  %call5 = call noundef nonnull align 16 dereferenceable(16) ptr @_ZN4absl7uint128oRES0_(ptr noundef nonnull align 16 dereferenceable(16) %tmp, i64 %6, i64 %8)
  br label %for.inc

for.inc:                                          ; preds = %for.body
  %9 = load i64, ptr %i, align 8
  %inc = add i64 %9, 1
  store i64 %inc, ptr %i, align 8
  br label %for.cond, !llvm.loop !5

for.end:                                          ; preds = %for.cond
  call void @llvm.memcpy.p0.p0.i64(ptr align 16 %agg.tmp7, ptr align 16 %tmp, i64 16, i1 false)
  %call9 = call { i64, i64 } @_ZN4absl15random_internal13pcg128_paramsILm2549297995355413924ELm4865540595714422341ELm6364136223846793005ELm1442695040888963407EE9incrementEv()
  %10 = getelementptr inbounds { i64, i64 }, ptr %agg.tmp8, i32 0, i32 0
  %11 = extractvalue { i64, i64 } %call9, 0
  store i64 %11, ptr %10, align 16
  %12 = getelementptr inbounds { i64, i64 }, ptr %agg.tmp8, i32 0, i32 1
  %13 = extractvalue { i64, i64 } %call9, 1
  store i64 %13, ptr %12, align 8
  %14 = getelementptr inbounds { i64, i64 }, ptr %agg.tmp7, i32 0, i32 0
  %15 = load i64, ptr %14, align 16
  %16 = getelementptr inbounds { i64, i64 }, ptr %agg.tmp7, i32 0, i32 1
  %17 = load i64, ptr %16, align 8
  %18 = getelementptr inbounds { i64, i64 }, ptr %agg.tmp8, i32 0, i32 0
  %19 = load i64, ptr %18, align 16
  %20 = getelementptr inbounds { i64, i64 }, ptr %agg.tmp8, i32 0, i32 1
  %21 = load i64, ptr %20, align 8
  %call10 = call { i64, i64 } @_ZN4abslplENS_7uint128ES0_(i64 %15, i64 %17, i64 %19, i64 %21)
  %22 = getelementptr inbounds { i64, i64 }, ptr %agg.tmp6, i32 0, i32 0
  %23 = extractvalue { i64, i64 } %call10, 0
  store i64 %23, ptr %22, align 16
  %24 = getelementptr inbounds { i64, i64 }, ptr %agg.tmp6, i32 0, i32 1
  %25 = extractvalue { i64, i64 } %call10, 1
  store i64 %25, ptr %24, align 8
  %26 = getelementptr inbounds { i64, i64 }, ptr %agg.tmp6, i32 0, i32 0
  %27 = load i64, ptr %26, align 16
  %28 = getelementptr inbounds { i64, i64 }, ptr %agg.tmp6, i32 0, i32 1
  %29 = load i64, ptr %28, align 8
  %call11 = call { i64, i64 } @_ZN4absl15random_internal10pcg_engineINS0_13pcg128_paramsILm2549297995355413924ELm4865540595714422341ELm6364136223846793005ELm1442695040888963407EEENS0_17pcg_xsl_rr_128_64EE3lcgENS_7uint128E(i64 %27, i64 %29)
  %30 = getelementptr inbounds { i64, i64 }, ptr %ref.tmp, i32 0, i32 0
  %31 = extractvalue { i64, i64 } %call11, 0
  store i64 %31, ptr %30, align 16
  %32 = getelementptr inbounds { i64, i64 }, ptr %ref.tmp, i32 0, i32 1
  %33 = extractvalue { i64, i64 } %call11, 1
  store i64 %33, ptr %32, align 8
  %state_ = getelementptr inbounds %"class.absl::random_internal::pcg_engine", ptr %this1, i32 0, i32 0
  call void @llvm.memcpy.p0.p0.i64(ptr align 16 %state_, ptr align 16 %ref.tmp, i64 16, i1 false)
  ret void
}

; Function Attrs: mustprogress uwtable
define linkonce_odr dso_local void @_ZN4absl15random_internal17RandenPoolSeedSeq8generateIPjEEvT_S4_(ptr noundef nonnull align 1 dereferenceable(1) %this, ptr noundef %begin, ptr noundef %end) #4 comdat align 2 {
entry:
  %this.addr = alloca ptr, align 8
  %begin.addr = alloca ptr, align 8
  %end.addr = alloca ptr, align 8
  store ptr %this, ptr %this.addr, align 8
  store ptr %begin, ptr %begin.addr, align 8
  store ptr %end, ptr %end.addr, align 8
  %this1 = load ptr, ptr %this.addr, align 8
  %0 = load ptr, ptr %begin.addr, align 8
  %1 = load ptr, ptr %end.addr, align 8
  %cmp = icmp ne ptr %0, %1
  br i1 %cmp, label %if.then, label %if.end

if.then:                                          ; preds = %entry
  %2 = load ptr, ptr %begin.addr, align 8
  %3 = load ptr, ptr %end.addr, align 8
  call void @_ZN4absl15random_internal17RandenPoolSeedSeq13generate_implIPjEEvNS1_13ContiguousTagET_S5_(ptr noundef nonnull align 1 dereferenceable(1) %this1, ptr noundef %2, ptr noundef %3)
  br label %if.end

if.end:                                           ; preds = %if.then, %entry
  ret void
}

; Function Attrs: mustprogress nounwind uwtable
define linkonce_odr dso_local noundef ptr @_ZSt5beginIjLm4EEPT_RAT0__S0_(ptr noundef nonnull align 4 dereferenceable(16) %__arr) #5 comdat {
entry:
  %__arr.addr = alloca ptr, align 8
  store ptr %__arr, ptr %__arr.addr, align 8
  %0 = load ptr, ptr %__arr.addr, align 8
  %arraydecay = getelementptr inbounds [4 x i32], ptr %0, i64 0, i64 0
  ret ptr %arraydecay
}

; Function Attrs: mustprogress nounwind uwtable
define linkonce_odr dso_local noundef ptr @_ZSt3endIjLm4EEPT_RAT0__S0_(ptr noundef nonnull align 4 dereferenceable(16) %__arr) #5 comdat {
entry:
  %__arr.addr = alloca ptr, align 8
  store ptr %__arr, ptr %__arr.addr, align 8
  %0 = load ptr, ptr %__arr.addr, align 8
  %arraydecay = getelementptr inbounds [4 x i32], ptr %0, i64 0, i64 0
  %add.ptr = getelementptr inbounds i32, ptr %arraydecay, i64 4
  ret ptr %add.ptr
}

; Function Attrs: mustprogress nounwind uwtable
define linkonce_odr dso_local void @_ZN4absl7uint128C2Ej(ptr noundef nonnull align 16 dereferenceable(16) %this, i32 noundef %v) unnamed_addr #5 comdat align 2 {
entry:
  %this.addr = alloca ptr, align 8
  %v.addr = alloca i32, align 4
  store ptr %this, ptr %this.addr, align 8
  store i32 %v, ptr %v.addr, align 4
  %this1 = load ptr, ptr %this.addr, align 8
  %lo_ = getelementptr inbounds %"class.absl::uint128", ptr %this1, i32 0, i32 0
  %0 = load i32, ptr %v.addr, align 4
  %conv = zext i32 %0 to i64
  store i64 %conv, ptr %lo_, align 16
  %hi_ = getelementptr inbounds %"class.absl::uint128", ptr %this1, i32 0, i32 1
  store i64 0, ptr %hi_, align 8
  ret void
}

; Function Attrs: mustprogress uwtable
define linkonce_odr dso_local noundef nonnull align 16 dereferenceable(16) ptr @_ZN4absl7uint128lSEi(ptr noundef nonnull align 16 dereferenceable(16) %this, i32 noundef %amount) #4 comdat align 2 {
entry:
  %this.addr = alloca ptr, align 8
  %amount.addr = alloca i32, align 4
  %ref.tmp = alloca %"class.absl::uint128", align 16
  %agg.tmp = alloca %"class.absl::uint128", align 16
  store ptr %this, ptr %this.addr, align 8
  store i32 %amount, ptr %amount.addr, align 4
  %this1 = load ptr, ptr %this.addr, align 8
  call void @llvm.memcpy.p0.p0.i64(ptr align 16 %agg.tmp, ptr align 16 %this1, i64 16, i1 false)
  %0 = load i32, ptr %amount.addr, align 4
  %1 = getelementptr inbounds { i64, i64 }, ptr %agg.tmp, i32 0, i32 0
  %2 = load i64, ptr %1, align 16
  %3 = getelementptr inbounds { i64, i64 }, ptr %agg.tmp, i32 0, i32 1
  %4 = load i64, ptr %3, align 8
  %call = call { i64, i64 } @_ZN4absllsENS_7uint128Ei(i64 %2, i64 %4, i32 noundef %0)
  %5 = getelementptr inbounds { i64, i64 }, ptr %ref.tmp, i32 0, i32 0
  %6 = extractvalue { i64, i64 } %call, 0
  store i64 %6, ptr %5, align 16
  %7 = getelementptr inbounds { i64, i64 }, ptr %ref.tmp, i32 0, i32 1
  %8 = extractvalue { i64, i64 } %call, 1
  store i64 %8, ptr %7, align 8
  call void @llvm.memcpy.p0.p0.i64(ptr align 16 %this1, ptr align 16 %ref.tmp, i64 16, i1 false)
  ret ptr %this1
}

; Function Attrs: mustprogress uwtable
define linkonce_odr dso_local noundef nonnull align 16 dereferenceable(16) ptr @_ZN4absl7uint128oRES0_(ptr noundef nonnull align 16 dereferenceable(16) %this, i64 %other.coerce0, i64 %other.coerce1) #4 comdat align 2 {
entry:
  %other = alloca %"class.absl::uint128", align 16
  %this.addr = alloca ptr, align 8
  %ref.tmp = alloca %"class.absl::uint128", align 16
  %agg.tmp = alloca %"class.absl::uint128", align 16
  %agg.tmp2 = alloca %"class.absl::uint128", align 16
  %0 = getelementptr inbounds { i64, i64 }, ptr %other, i32 0, i32 0
  store i64 %other.coerce0, ptr %0, align 16
  %1 = getelementptr inbounds { i64, i64 }, ptr %other, i32 0, i32 1
  store i64 %other.coerce1, ptr %1, align 8
  store ptr %this, ptr %this.addr, align 8
  %this1 = load ptr, ptr %this.addr, align 8
  call void @llvm.memcpy.p0.p0.i64(ptr align 16 %agg.tmp, ptr align 16 %this1, i64 16, i1 false)
  call void @llvm.memcpy.p0.p0.i64(ptr align 16 %agg.tmp2, ptr align 16 %other, i64 16, i1 false)
  %2 = getelementptr inbounds { i64, i64 }, ptr %agg.tmp, i32 0, i32 0
  %3 = load i64, ptr %2, align 16
  %4 = getelementptr inbounds { i64, i64 }, ptr %agg.tmp, i32 0, i32 1
  %5 = load i64, ptr %4, align 8
  %6 = getelementptr inbounds { i64, i64 }, ptr %agg.tmp2, i32 0, i32 0
  %7 = load i64, ptr %6, align 16
  %8 = getelementptr inbounds { i64, i64 }, ptr %agg.tmp2, i32 0, i32 1
  %9 = load i64, ptr %8, align 8
  %call = call { i64, i64 } @_ZN4abslorENS_7uint128ES0_(i64 %3, i64 %5, i64 %7, i64 %9)
  %10 = getelementptr inbounds { i64, i64 }, ptr %ref.tmp, i32 0, i32 0
  %11 = extractvalue { i64, i64 } %call, 0
  store i64 %11, ptr %10, align 16
  %12 = getelementptr inbounds { i64, i64 }, ptr %ref.tmp, i32 0, i32 1
  %13 = extractvalue { i64, i64 } %call, 1
  store i64 %13, ptr %12, align 8
  call void @llvm.memcpy.p0.p0.i64(ptr align 16 %this1, ptr align 16 %ref.tmp, i64 16, i1 false)
  ret ptr %this1
}

; Function Attrs: mustprogress uwtable
define linkonce_odr dso_local { i64, i64 } @_ZN4absl15random_internal10pcg_engineINS0_13pcg128_paramsILm2549297995355413924ELm4865540595714422341ELm6364136223846793005ELm1442695040888963407EEENS0_17pcg_xsl_rr_128_64EE3lcgENS_7uint128E(i64 %s.coerce0, i64 %s.coerce1) #4 comdat align 2 {
entry:
  %retval = alloca %"class.absl::uint128", align 16
  %s = alloca %"class.absl::uint128", align 16
  %agg.tmp = alloca %"class.absl::uint128", align 16
  %agg.tmp1 = alloca %"class.absl::uint128", align 16
  %agg.tmp2 = alloca %"class.absl::uint128", align 16
  %agg.tmp4 = alloca %"class.absl::uint128", align 16
  %0 = getelementptr inbounds { i64, i64 }, ptr %s, i32 0, i32 0
  store i64 %s.coerce0, ptr %0, align 16
  %1 = getelementptr inbounds { i64, i64 }, ptr %s, i32 0, i32 1
  store i64 %s.coerce1, ptr %1, align 8
  call void @llvm.memcpy.p0.p0.i64(ptr align 16 %agg.tmp1, ptr align 16 %s, i64 16, i1 false)
  %call = call { i64, i64 } @_ZN4absl15random_internal13pcg128_paramsILm2549297995355413924ELm4865540595714422341ELm6364136223846793005ELm1442695040888963407EE10multiplierEv()
  %2 = getelementptr inbounds { i64, i64 }, ptr %agg.tmp2, i32 0, i32 0
  %3 = extractvalue { i64, i64 } %call, 0
  store i64 %3, ptr %2, align 16
  %4 = getelementptr inbounds { i64, i64 }, ptr %agg.tmp2, i32 0, i32 1
  %5 = extractvalue { i64, i64 } %call, 1
  store i64 %5, ptr %4, align 8
  %6 = getelementptr inbounds { i64, i64 }, ptr %agg.tmp1, i32 0, i32 0
  %7 = load i64, ptr %6, align 16
  %8 = getelementptr inbounds { i64, i64 }, ptr %agg.tmp1, i32 0, i32 1
  %9 = load i64, ptr %8, align 8
  %10 = getelementptr inbounds { i64, i64 }, ptr %agg.tmp2, i32 0, i32 0
  %11 = load i64, ptr %10, align 16
  %12 = getelementptr inbounds { i64, i64 }, ptr %agg.tmp2, i32 0, i32 1
  %13 = load i64, ptr %12, align 8
  %call3 = call { i64, i64 } @_ZN4abslmlENS_7uint128ES0_(i64 %7, i64 %9, i64 %11, i64 %13)
  %14 = getelementptr inbounds { i64, i64 }, ptr %agg.tmp, i32 0, i32 0
  %15 = extractvalue { i64, i64 } %call3, 0
  store i64 %15, ptr %14, align 16
  %16 = getelementptr inbounds { i64, i64 }, ptr %agg.tmp, i32 0, i32 1
  %17 = extractvalue { i64, i64 } %call3, 1
  store i64 %17, ptr %16, align 8
  %call5 = call { i64, i64 } @_ZN4absl15random_internal13pcg128_paramsILm2549297995355413924ELm4865540595714422341ELm6364136223846793005ELm1442695040888963407EE9incrementEv()
  %18 = getelementptr inbounds { i64, i64 }, ptr %agg.tmp4, i32 0, i32 0
  %19 = extractvalue { i64, i64 } %call5, 0
  store i64 %19, ptr %18, align 16
  %20 = getelementptr inbounds { i64, i64 }, ptr %agg.tmp4, i32 0, i32 1
  %21 = extractvalue { i64, i64 } %call5, 1
  store i64 %21, ptr %20, align 8
  %22 = getelementptr inbounds { i64, i64 }, ptr %agg.tmp, i32 0, i32 0
  %23 = load i64, ptr %22, align 16
  %24 = getelementptr inbounds { i64, i64 }, ptr %agg.tmp, i32 0, i32 1
  %25 = load i64, ptr %24, align 8
  %26 = getelementptr inbounds { i64, i64 }, ptr %agg.tmp4, i32 0, i32 0
  %27 = load i64, ptr %26, align 16
  %28 = getelementptr inbounds { i64, i64 }, ptr %agg.tmp4, i32 0, i32 1
  %29 = load i64, ptr %28, align 8
  %call6 = call { i64, i64 } @_ZN4abslplENS_7uint128ES0_(i64 %23, i64 %25, i64 %27, i64 %29)
  %30 = getelementptr inbounds { i64, i64 }, ptr %retval, i32 0, i32 0
  %31 = extractvalue { i64, i64 } %call6, 0
  store i64 %31, ptr %30, align 16
  %32 = getelementptr inbounds { i64, i64 }, ptr %retval, i32 0, i32 1
  %33 = extractvalue { i64, i64 } %call6, 1
  store i64 %33, ptr %32, align 8
  %34 = load { i64, i64 }, ptr %retval, align 16
  ret { i64, i64 } %34
}

; Function Attrs: mustprogress uwtable
define linkonce_odr dso_local { i64, i64 } @_ZN4abslplENS_7uint128ES0_(i64 %lhs.coerce0, i64 %lhs.coerce1, i64 %rhs.coerce0, i64 %rhs.coerce1) #4 comdat {
entry:
  %retval = alloca %"class.absl::uint128", align 16
  %lhs = alloca %"class.absl::uint128", align 16
  %rhs = alloca %"class.absl::uint128", align 16
  %coerce = alloca i128, align 16
  %coerce2 = alloca i128, align 16
  %coerce3 = alloca i128, align 16
  %0 = getelementptr inbounds { i64, i64 }, ptr %lhs, i32 0, i32 0
  store i64 %lhs.coerce0, ptr %0, align 16
  %1 = getelementptr inbounds { i64, i64 }, ptr %lhs, i32 0, i32 1
  store i64 %lhs.coerce1, ptr %1, align 8
  %2 = getelementptr inbounds { i64, i64 }, ptr %rhs, i32 0, i32 0
  store i64 %rhs.coerce0, ptr %2, align 16
  %3 = getelementptr inbounds { i64, i64 }, ptr %rhs, i32 0, i32 1
  store i64 %rhs.coerce1, ptr %3, align 8
  %call = call noundef { i64, i64 } @_ZNK4absl7uint128cvoEv(ptr noundef nonnull align 16 dereferenceable(16) %lhs)
  %4 = getelementptr inbounds { i64, i64 }, ptr %coerce, i32 0, i32 0
  %5 = extractvalue { i64, i64 } %call, 0
  store i64 %5, ptr %4, align 16
  %6 = getelementptr inbounds { i64, i64 }, ptr %coerce, i32 0, i32 1
  %7 = extractvalue { i64, i64 } %call, 1
  store i64 %7, ptr %6, align 8
  %8 = load i128, ptr %coerce, align 16
  %call1 = call noundef { i64, i64 } @_ZNK4absl7uint128cvoEv(ptr noundef nonnull align 16 dereferenceable(16) %rhs)
  %9 = getelementptr inbounds { i64, i64 }, ptr %coerce2, i32 0, i32 0
  %10 = extractvalue { i64, i64 } %call1, 0
  store i64 %10, ptr %9, align 16
  %11 = getelementptr inbounds { i64, i64 }, ptr %coerce2, i32 0, i32 1
  %12 = extractvalue { i64, i64 } %call1, 1
  store i64 %12, ptr %11, align 8
  %13 = load i128, ptr %coerce2, align 16
  %add = add i128 %8, %13
  store i128 %add, ptr %coerce3, align 16
  %14 = getelementptr inbounds { i64, i64 }, ptr %coerce3, i32 0, i32 0
  %15 = load i64, ptr %14, align 16
  %16 = getelementptr inbounds { i64, i64 }, ptr %coerce3, i32 0, i32 1
  %17 = load i64, ptr %16, align 8
  call void @_ZN4absl7uint128C2Eo(ptr noundef nonnull align 16 dereferenceable(16) %retval, i64 noundef %15, i64 noundef %17)
  %18 = load { i64, i64 }, ptr %retval, align 16
  ret { i64, i64 } %18
}

; Function Attrs: nocallback nofree nounwind willreturn memory(argmem: readwrite)
declare void @llvm.memcpy.p0.p0.i64(ptr noalias nocapture writeonly, ptr noalias nocapture readonly, i64, i1 immarg) #9

; Function Attrs: mustprogress uwtable
define linkonce_odr dso_local { i64, i64 } @_ZN4absl15random_internal13pcg128_paramsILm2549297995355413924ELm4865540595714422341ELm6364136223846793005ELm1442695040888963407EE9incrementEv() #4 comdat align 2 {
entry:
  %retval = alloca %"class.absl::uint128", align 16
  %call = call { i64, i64 } @_ZN4absl11MakeUint128Emm(i64 noundef 6364136223846793005, i64 noundef 1442695040888963407)
  %0 = getelementptr inbounds { i64, i64 }, ptr %retval, i32 0, i32 0
  %1 = extractvalue { i64, i64 } %call, 0
  store i64 %1, ptr %0, align 16
  %2 = getelementptr inbounds { i64, i64 }, ptr %retval, i32 0, i32 1
  %3 = extractvalue { i64, i64 } %call, 1
  store i64 %3, ptr %2, align 8
  %4 = load { i64, i64 }, ptr %retval, align 16
  ret { i64, i64 } %4
}

; Function Attrs: mustprogress uwtable
define linkonce_odr dso_local void @_ZN4absl15random_internal17RandenPoolSeedSeq13generate_implIPjEEvNS1_13ContiguousTagET_S5_(ptr noundef nonnull align 1 dereferenceable(1) %this, ptr noundef %begin, ptr noundef %end) #4 comdat align 2 {
entry:
  %this.addr = alloca ptr, align 8
  %begin.addr = alloca ptr, align 8
  %end.addr = alloca ptr, align 8
  %n = alloca i64, align 8
  %a = alloca ptr, align 8
  %agg.tmp = alloca %"class.absl::Span", align 8
  store ptr %this, ptr %this.addr, align 8
  store ptr %begin, ptr %begin.addr, align 8
  store ptr %end, ptr %end.addr, align 8
  %0 = load ptr, ptr %begin.addr, align 8
  %1 = load ptr, ptr %end.addr, align 8
  %call = call noundef i64 @_ZSt8distanceIPjENSt15iterator_traitsIT_E15difference_typeES2_S2_(ptr noundef %0, ptr noundef %1)
  store i64 %call, ptr %n, align 8
  %2 = load ptr, ptr %begin.addr, align 8
  store ptr %2, ptr %a, align 8
  %3 = load ptr, ptr %a, align 8
  %4 = load i64, ptr %n, align 8
  %mul = mul i64 4, %4
  %call2 = call { ptr, i64 } @_ZN4absl8MakeSpanITpTnRiJEhEENS_4SpanIT0_EEPS3_m(ptr noundef %3, i64 noundef %mul) #3
  %5 = getelementptr inbounds { ptr, i64 }, ptr %agg.tmp, i32 0, i32 0
  %6 = extractvalue { ptr, i64 } %call2, 0
  store ptr %6, ptr %5, align 8
  %7 = getelementptr inbounds { ptr, i64 }, ptr %agg.tmp, i32 0, i32 1
  %8 = extractvalue { ptr, i64 } %call2, 1
  store i64 %8, ptr %7, align 8
  %9 = getelementptr inbounds { ptr, i64 }, ptr %agg.tmp, i32 0, i32 0
  %10 = load ptr, ptr %9, align 8
  %11 = getelementptr inbounds { ptr, i64 }, ptr %agg.tmp, i32 0, i32 1
  %12 = load i64, ptr %11, align 8
  call void @_ZN4absl15random_internal10RandenPoolIhE4FillENS_4SpanIhEE(ptr %10, i64 %12)
  ret void
}

; Function Attrs: mustprogress uwtable
define linkonce_odr dso_local noundef i64 @_ZSt8distanceIPjENSt15iterator_traitsIT_E15difference_typeES2_S2_(ptr noundef %__first, ptr noundef %__last) #4 comdat {
entry:
  %__first.addr = alloca ptr, align 8
  %__last.addr = alloca ptr, align 8
  store ptr %__first, ptr %__first.addr, align 8
  store ptr %__last, ptr %__last.addr, align 8
  %0 = load ptr, ptr %__first.addr, align 8
  %1 = load ptr, ptr %__last.addr, align 8
  call void @_ZSt19__iterator_categoryIPjENSt15iterator_traitsIT_E17iterator_categoryERKS2_(ptr noundef nonnull align 8 dereferenceable(8) %__first.addr)
  %call = call noundef i64 @_ZSt10__distanceIPjENSt15iterator_traitsIT_E15difference_typeES2_S2_St26random_access_iterator_tag(ptr noundef %0, ptr noundef %1)
  ret i64 %call
}

declare void @_ZN4absl15random_internal10RandenPoolIhE4FillENS_4SpanIhEE(ptr, i64) #1

; Function Attrs: mustprogress nounwind uwtable
define linkonce_odr dso_local { ptr, i64 } @_ZN4absl8MakeSpanITpTnRiJEhEENS_4SpanIT0_EEPS3_m(ptr noundef %ptr, i64 noundef %size) #5 comdat {
entry:
  %retval = alloca %"class.absl::Span", align 8
  %ptr.addr = alloca ptr, align 8
  %size.addr = alloca i64, align 8
  store ptr %ptr, ptr %ptr.addr, align 8
  store i64 %size, ptr %size.addr, align 8
  %0 = load ptr, ptr %ptr.addr, align 8
  %1 = load i64, ptr %size.addr, align 8
  call void @_ZN4absl4SpanIhEC2EPhm(ptr noundef nonnull align 8 dereferenceable(16) %retval, ptr noundef %0, i64 noundef %1) #3
  %2 = load { ptr, i64 }, ptr %retval, align 8
  ret { ptr, i64 } %2
}

; Function Attrs: mustprogress nounwind uwtable
define linkonce_odr dso_local noundef i64 @_ZSt10__distanceIPjENSt15iterator_traitsIT_E15difference_typeES2_S2_St26random_access_iterator_tag(ptr noundef %__first, ptr noundef %__last) #5 comdat {
entry:
  %__first.addr = alloca ptr, align 8
  %__last.addr = alloca ptr, align 8
  store ptr %__first, ptr %__first.addr, align 8
  store ptr %__last, ptr %__last.addr, align 8
  %0 = load ptr, ptr %__last.addr, align 8
  %1 = load ptr, ptr %__first.addr, align 8
  %sub.ptr.lhs.cast = ptrtoint ptr %0 to i64
  %sub.ptr.rhs.cast = ptrtoint ptr %1 to i64
  %sub.ptr.sub = sub i64 %sub.ptr.lhs.cast, %sub.ptr.rhs.cast
  %sub.ptr.div = sdiv exact i64 %sub.ptr.sub, 4
  ret i64 %sub.ptr.div
}

; Function Attrs: mustprogress nounwind uwtable
define linkonce_odr dso_local void @_ZSt19__iterator_categoryIPjENSt15iterator_traitsIT_E17iterator_categoryERKS2_(ptr noundef nonnull align 8 dereferenceable(8) %0) #5 comdat {
entry:
  %.addr = alloca ptr, align 8
  store ptr %0, ptr %.addr, align 8
  ret void
}

; Function Attrs: mustprogress nounwind uwtable
define linkonce_odr dso_local void @_ZN4absl4SpanIhEC2EPhm(ptr noundef nonnull align 8 dereferenceable(16) %this, ptr noundef %array, i64 noundef %length) unnamed_addr #5 comdat align 2 {
entry:
  %this.addr = alloca ptr, align 8
  %array.addr = alloca ptr, align 8
  %length.addr = alloca i64, align 8
  store ptr %this, ptr %this.addr, align 8
  store ptr %array, ptr %array.addr, align 8
  store i64 %length, ptr %length.addr, align 8
  %this1 = load ptr, ptr %this.addr, align 8
  %ptr_ = getelementptr inbounds %"class.absl::Span", ptr %this1, i32 0, i32 0
  %0 = load ptr, ptr %array.addr, align 8
  store ptr %0, ptr %ptr_, align 8
  %len_ = getelementptr inbounds %"class.absl::Span", ptr %this1, i32 0, i32 1
  %1 = load i64, ptr %length.addr, align 8
  store i64 %1, ptr %len_, align 8
  ret void
}

; Function Attrs: mustprogress uwtable
define linkonce_odr dso_local { i64, i64 } @_ZN4absllsENS_7uint128Ei(i64 %lhs.coerce0, i64 %lhs.coerce1, i32 noundef %amount) #4 comdat {
entry:
  %retval = alloca %"class.absl::uint128", align 16
  %lhs = alloca %"class.absl::uint128", align 16
  %amount.addr = alloca i32, align 4
  %coerce = alloca i128, align 16
  %coerce1 = alloca i128, align 16
  %0 = getelementptr inbounds { i64, i64 }, ptr %lhs, i32 0, i32 0
  store i64 %lhs.coerce0, ptr %0, align 16
  %1 = getelementptr inbounds { i64, i64 }, ptr %lhs, i32 0, i32 1
  store i64 %lhs.coerce1, ptr %1, align 8
  store i32 %amount, ptr %amount.addr, align 4
  %call = call noundef { i64, i64 } @_ZNK4absl7uint128cvoEv(ptr noundef nonnull align 16 dereferenceable(16) %lhs)
  %2 = getelementptr inbounds { i64, i64 }, ptr %coerce, i32 0, i32 0
  %3 = extractvalue { i64, i64 } %call, 0
  store i64 %3, ptr %2, align 16
  %4 = getelementptr inbounds { i64, i64 }, ptr %coerce, i32 0, i32 1
  %5 = extractvalue { i64, i64 } %call, 1
  store i64 %5, ptr %4, align 8
  %6 = load i128, ptr %coerce, align 16
  %7 = load i32, ptr %amount.addr, align 4
  %sh_prom = zext i32 %7 to i128
  %shl = shl i128 %6, %sh_prom
  store i128 %shl, ptr %coerce1, align 16
  %8 = getelementptr inbounds { i64, i64 }, ptr %coerce1, i32 0, i32 0
  %9 = load i64, ptr %8, align 16
  %10 = getelementptr inbounds { i64, i64 }, ptr %coerce1, i32 0, i32 1
  %11 = load i64, ptr %10, align 8
  call void @_ZN4absl7uint128C2Eo(ptr noundef nonnull align 16 dereferenceable(16) %retval, i64 noundef %9, i64 noundef %11)
  %12 = load { i64, i64 }, ptr %retval, align 16
  ret { i64, i64 } %12
}

; Function Attrs: mustprogress nounwind uwtable
define linkonce_odr dso_local noundef { i64, i64 } @_ZNK4absl7uint128cvoEv(ptr noundef nonnull align 16 dereferenceable(16) %this) #5 comdat align 2 {
entry:
  %retval = alloca i128, align 16
  %this.addr = alloca ptr, align 8
  store ptr %this, ptr %this.addr, align 8
  %this1 = load ptr, ptr %this.addr, align 8
  %hi_ = getelementptr inbounds %"class.absl::uint128", ptr %this1, i32 0, i32 1
  %0 = load i64, ptr %hi_, align 8
  %conv = zext i64 %0 to i128
  %shl = shl i128 %conv, 64
  %lo_ = getelementptr inbounds %"class.absl::uint128", ptr %this1, i32 0, i32 0
  %1 = load i64, ptr %lo_, align 16
  %conv2 = zext i64 %1 to i128
  %add = add i128 %shl, %conv2
  store i128 %add, ptr %retval, align 16
  %2 = load { i64, i64 }, ptr %retval, align 16
  ret { i64, i64 } %2
}

; Function Attrs: mustprogress nounwind uwtable
define linkonce_odr dso_local void @_ZN4absl7uint128C2Eo(ptr noundef nonnull align 16 dereferenceable(16) %this, i64 noundef %v.coerce0, i64 noundef %v.coerce1) unnamed_addr #5 comdat align 2 {
entry:
  %v = alloca i128, align 16
  %this.addr = alloca ptr, align 8
  %v.addr = alloca i128, align 16
  %0 = getelementptr inbounds { i64, i64 }, ptr %v, i32 0, i32 0
  store i64 %v.coerce0, ptr %0, align 16
  %1 = getelementptr inbounds { i64, i64 }, ptr %v, i32 0, i32 1
  store i64 %v.coerce1, ptr %1, align 8
  %v1 = load i128, ptr %v, align 16
  store ptr %this, ptr %this.addr, align 8
  store i128 %v1, ptr %v.addr, align 16
  %this2 = load ptr, ptr %this.addr, align 8
  %lo_ = getelementptr inbounds %"class.absl::uint128", ptr %this2, i32 0, i32 0
  %2 = load i128, ptr %v.addr, align 16
  %and = and i128 %2, 18446744073709551615
  %conv = trunc i128 %and to i64
  store i64 %conv, ptr %lo_, align 16
  %hi_ = getelementptr inbounds %"class.absl::uint128", ptr %this2, i32 0, i32 1
  %3 = load i128, ptr %v.addr, align 16
  %shr = lshr i128 %3, 64
  %conv3 = trunc i128 %shr to i64
  store i64 %conv3, ptr %hi_, align 8
  ret void
}

; Function Attrs: mustprogress uwtable
define linkonce_odr dso_local { i64, i64 } @_ZN4abslorENS_7uint128ES0_(i64 %lhs.coerce0, i64 %lhs.coerce1, i64 %rhs.coerce0, i64 %rhs.coerce1) #4 comdat {
entry:
  %retval = alloca %"class.absl::uint128", align 16
  %lhs = alloca %"class.absl::uint128", align 16
  %rhs = alloca %"class.absl::uint128", align 16
  %coerce = alloca i128, align 16
  %coerce2 = alloca i128, align 16
  %coerce3 = alloca i128, align 16
  %0 = getelementptr inbounds { i64, i64 }, ptr %lhs, i32 0, i32 0
  store i64 %lhs.coerce0, ptr %0, align 16
  %1 = getelementptr inbounds { i64, i64 }, ptr %lhs, i32 0, i32 1
  store i64 %lhs.coerce1, ptr %1, align 8
  %2 = getelementptr inbounds { i64, i64 }, ptr %rhs, i32 0, i32 0
  store i64 %rhs.coerce0, ptr %2, align 16
  %3 = getelementptr inbounds { i64, i64 }, ptr %rhs, i32 0, i32 1
  store i64 %rhs.coerce1, ptr %3, align 8
  %call = call noundef { i64, i64 } @_ZNK4absl7uint128cvoEv(ptr noundef nonnull align 16 dereferenceable(16) %lhs)
  %4 = getelementptr inbounds { i64, i64 }, ptr %coerce, i32 0, i32 0
  %5 = extractvalue { i64, i64 } %call, 0
  store i64 %5, ptr %4, align 16
  %6 = getelementptr inbounds { i64, i64 }, ptr %coerce, i32 0, i32 1
  %7 = extractvalue { i64, i64 } %call, 1
  store i64 %7, ptr %6, align 8
  %8 = load i128, ptr %coerce, align 16
  %call1 = call noundef { i64, i64 } @_ZNK4absl7uint128cvoEv(ptr noundef nonnull align 16 dereferenceable(16) %rhs)
  %9 = getelementptr inbounds { i64, i64 }, ptr %coerce2, i32 0, i32 0
  %10 = extractvalue { i64, i64 } %call1, 0
  store i64 %10, ptr %9, align 16
  %11 = getelementptr inbounds { i64, i64 }, ptr %coerce2, i32 0, i32 1
  %12 = extractvalue { i64, i64 } %call1, 1
  store i64 %12, ptr %11, align 8
  %13 = load i128, ptr %coerce2, align 16
  %or = or i128 %8, %13
  store i128 %or, ptr %coerce3, align 16
  %14 = getelementptr inbounds { i64, i64 }, ptr %coerce3, i32 0, i32 0
  %15 = load i64, ptr %14, align 16
  %16 = getelementptr inbounds { i64, i64 }, ptr %coerce3, i32 0, i32 1
  %17 = load i64, ptr %16, align 8
  call void @_ZN4absl7uint128C2Eo(ptr noundef nonnull align 16 dereferenceable(16) %retval, i64 noundef %15, i64 noundef %17)
  %18 = load { i64, i64 }, ptr %retval, align 16
  ret { i64, i64 } %18
}

; Function Attrs: mustprogress uwtable
define linkonce_odr dso_local { i64, i64 } @_ZN4abslmlENS_7uint128ES0_(i64 %lhs.coerce0, i64 %lhs.coerce1, i64 %rhs.coerce0, i64 %rhs.coerce1) #4 comdat {
entry:
  %retval = alloca %"class.absl::uint128", align 16
  %lhs = alloca %"class.absl::uint128", align 16
  %rhs = alloca %"class.absl::uint128", align 16
  %coerce = alloca i128, align 16
  %coerce2 = alloca i128, align 16
  %coerce3 = alloca i128, align 16
  %0 = getelementptr inbounds { i64, i64 }, ptr %lhs, i32 0, i32 0
  store i64 %lhs.coerce0, ptr %0, align 16
  %1 = getelementptr inbounds { i64, i64 }, ptr %lhs, i32 0, i32 1
  store i64 %lhs.coerce1, ptr %1, align 8
  %2 = getelementptr inbounds { i64, i64 }, ptr %rhs, i32 0, i32 0
  store i64 %rhs.coerce0, ptr %2, align 16
  %3 = getelementptr inbounds { i64, i64 }, ptr %rhs, i32 0, i32 1
  store i64 %rhs.coerce1, ptr %3, align 8
  %call = call noundef { i64, i64 } @_ZNK4absl7uint128cvoEv(ptr noundef nonnull align 16 dereferenceable(16) %lhs)
  %4 = getelementptr inbounds { i64, i64 }, ptr %coerce, i32 0, i32 0
  %5 = extractvalue { i64, i64 } %call, 0
  store i64 %5, ptr %4, align 16
  %6 = getelementptr inbounds { i64, i64 }, ptr %coerce, i32 0, i32 1
  %7 = extractvalue { i64, i64 } %call, 1
  store i64 %7, ptr %6, align 8
  %8 = load i128, ptr %coerce, align 16
  %call1 = call noundef { i64, i64 } @_ZNK4absl7uint128cvoEv(ptr noundef nonnull align 16 dereferenceable(16) %rhs)
  %9 = getelementptr inbounds { i64, i64 }, ptr %coerce2, i32 0, i32 0
  %10 = extractvalue { i64, i64 } %call1, 0
  store i64 %10, ptr %9, align 16
  %11 = getelementptr inbounds { i64, i64 }, ptr %coerce2, i32 0, i32 1
  %12 = extractvalue { i64, i64 } %call1, 1
  store i64 %12, ptr %11, align 8
  %13 = load i128, ptr %coerce2, align 16
  %mul = mul i128 %8, %13
  store i128 %mul, ptr %coerce3, align 16
  %14 = getelementptr inbounds { i64, i64 }, ptr %coerce3, i32 0, i32 0
  %15 = load i64, ptr %14, align 16
  %16 = getelementptr inbounds { i64, i64 }, ptr %coerce3, i32 0, i32 1
  %17 = load i64, ptr %16, align 8
  call void @_ZN4absl7uint128C2Eo(ptr noundef nonnull align 16 dereferenceable(16) %retval, i64 noundef %15, i64 noundef %17)
  %18 = load { i64, i64 }, ptr %retval, align 16
  ret { i64, i64 } %18
}

; Function Attrs: mustprogress uwtable
define linkonce_odr dso_local { i64, i64 } @_ZN4absl15random_internal13pcg128_paramsILm2549297995355413924ELm4865540595714422341ELm6364136223846793005ELm1442695040888963407EE10multiplierEv() #4 comdat align 2 {
entry:
  %retval = alloca %"class.absl::uint128", align 16
  %call = call { i64, i64 } @_ZN4absl11MakeUint128Emm(i64 noundef 2549297995355413924, i64 noundef 4865540595714422341)
  %0 = getelementptr inbounds { i64, i64 }, ptr %retval, i32 0, i32 0
  %1 = extractvalue { i64, i64 } %call, 0
  store i64 %1, ptr %0, align 16
  %2 = getelementptr inbounds { i64, i64 }, ptr %retval, i32 0, i32 1
  %3 = extractvalue { i64, i64 } %call, 1
  store i64 %3, ptr %2, align 8
  %4 = load { i64, i64 }, ptr %retval, align 16
  ret { i64, i64 } %4
}

; Function Attrs: mustprogress uwtable
define linkonce_odr dso_local { i64, i64 } @_ZN4absl11MakeUint128Emm(i64 noundef %high, i64 noundef %low) #4 comdat {
entry:
  %retval = alloca %"class.absl::uint128", align 16
  %high.addr = alloca i64, align 8
  %low.addr = alloca i64, align 8
  store i64 %high, ptr %high.addr, align 8
  store i64 %low, ptr %low.addr, align 8
  %0 = load i64, ptr %high.addr, align 8
  %1 = load i64, ptr %low.addr, align 8
  call void @_ZN4absl7uint128C2Emm(ptr noundef nonnull align 16 dereferenceable(16) %retval, i64 noundef %0, i64 noundef %1)
  %2 = load { i64, i64 }, ptr %retval, align 16
  ret { i64, i64 } %2
}

; Function Attrs: mustprogress nounwind uwtable
define linkonce_odr dso_local void @_ZN4absl7uint128C2Emm(ptr noundef nonnull align 16 dereferenceable(16) %this, i64 noundef %high, i64 noundef %low) unnamed_addr #5 comdat align 2 {
entry:
  %this.addr = alloca ptr, align 8
  %high.addr = alloca i64, align 8
  %low.addr = alloca i64, align 8
  store ptr %this, ptr %this.addr, align 8
  store i64 %high, ptr %high.addr, align 8
  store i64 %low, ptr %low.addr, align 8
  %this1 = load ptr, ptr %this.addr, align 8
  %lo_ = getelementptr inbounds %"class.absl::uint128", ptr %this1, i32 0, i32 0
  %0 = load i64, ptr %low.addr, align 8
  store i64 %0, ptr %lo_, align 16
  %hi_ = getelementptr inbounds %"class.absl::uint128", ptr %this1, i32 0, i32 1
  %1 = load i64, ptr %high.addr, align 8
  store i64 %1, ptr %hi_, align 8
  ret void
}

declare void @_ZN7testing16AssertionSuccessEv(ptr sret(%"class.testing::AssertionResult") align 8) #1

; Function Attrs: mustprogress uwtable
define linkonce_odr dso_local void @_ZN7testing8internal18CmpHelperOpFailureIifEENS_15AssertionResultEPKcS4_RKT_RKT0_S4_(ptr noalias sret(%"class.testing::AssertionResult") align 8 %agg.result, ptr noundef %expr1, ptr noundef %expr2, ptr noundef nonnull align 4 dereferenceable(4) %val1, ptr noundef nonnull align 4 dereferenceable(4) %val2, ptr noundef %op) #4 comdat personality ptr @__gxx_personality_v0 {
entry:
  %result.ptr = alloca ptr, align 8
  %expr1.addr = alloca ptr, align 8
  %expr2.addr = alloca ptr, align 8
  %val1.addr = alloca ptr, align 8
  %val2.addr = alloca ptr, align 8
  %op.addr = alloca ptr, align 8
  %ref.tmp = alloca %"class.testing::AssertionResult", align 8
  %exn.slot = alloca ptr, align 8
  %ehselector.slot = alloca i32, align 4
  %ref.tmp13 = alloca %"class.std::__cxx11::basic_string", align 8
  %ref.tmp20 = alloca %"class.std::__cxx11::basic_string", align 8
  store ptr %agg.result, ptr %result.ptr, align 8
  store ptr %expr1, ptr %expr1.addr, align 8
  store ptr %expr2, ptr %expr2.addr, align 8
  store ptr %val1, ptr %val1.addr, align 8
  store ptr %val2, ptr %val2.addr, align 8
  store ptr %op, ptr %op.addr, align 8
  call void @_ZN7testing16AssertionFailureEv(ptr sret(%"class.testing::AssertionResult") align 8 %ref.tmp)
  %call = invoke noundef nonnull align 8 dereferenceable(16) ptr @_ZN7testing15AssertionResultlsIA12_cEERS0_RKT_(ptr noundef nonnull align 8 dereferenceable(16) %ref.tmp, ptr noundef nonnull align 1 dereferenceable(12) @.str.40)
          to label %invoke.cont unwind label %lpad

invoke.cont:                                      ; preds = %entry
  %call2 = invoke noundef nonnull align 8 dereferenceable(16) ptr @_ZN7testing15AssertionResultlsIPKcEERS0_RKT_(ptr noundef nonnull align 8 dereferenceable(16) %call, ptr noundef nonnull align 8 dereferenceable(8) %expr1.addr)
          to label %invoke.cont1 unwind label %lpad

invoke.cont1:                                     ; preds = %invoke.cont
  %call4 = invoke noundef nonnull align 8 dereferenceable(16) ptr @_ZN7testing15AssertionResultlsIA3_cEERS0_RKT_(ptr noundef nonnull align 8 dereferenceable(16) %call2, ptr noundef nonnull align 1 dereferenceable(3) @.str.41)
          to label %invoke.cont3 unwind label %lpad

invoke.cont3:                                     ; preds = %invoke.cont1
  %call6 = invoke noundef nonnull align 8 dereferenceable(16) ptr @_ZN7testing15AssertionResultlsIPKcEERS0_RKT_(ptr noundef nonnull align 8 dereferenceable(16) %call4, ptr noundef nonnull align 8 dereferenceable(8) %op.addr)
          to label %invoke.cont5 unwind label %lpad

invoke.cont5:                                     ; preds = %invoke.cont3
  %call8 = invoke noundef nonnull align 8 dereferenceable(16) ptr @_ZN7testing15AssertionResultlsIA3_cEERS0_RKT_(ptr noundef nonnull align 8 dereferenceable(16) %call6, ptr noundef nonnull align 1 dereferenceable(3) @.str.42)
          to label %invoke.cont7 unwind label %lpad

invoke.cont7:                                     ; preds = %invoke.cont5
  %call10 = invoke noundef nonnull align 8 dereferenceable(16) ptr @_ZN7testing15AssertionResultlsIPKcEERS0_RKT_(ptr noundef nonnull align 8 dereferenceable(16) %call8, ptr noundef nonnull align 8 dereferenceable(8) %expr2.addr)
          to label %invoke.cont9 unwind label %lpad

invoke.cont9:                                     ; preds = %invoke.cont7
  %call12 = invoke noundef nonnull align 8 dereferenceable(16) ptr @_ZN7testing15AssertionResultlsIA12_cEERS0_RKT_(ptr noundef nonnull align 8 dereferenceable(16) %call10, ptr noundef nonnull align 1 dereferenceable(12) @.str.43)
          to label %invoke.cont11 unwind label %lpad

invoke.cont11:                                    ; preds = %invoke.cont9
  %0 = load ptr, ptr %val1.addr, align 8
  %1 = load ptr, ptr %val2.addr, align 8
  invoke void @_ZN7testing8internal33FormatForComparisonFailureMessageIifEENSt7__cxx1112basic_stringIcSt11char_traitsIcESaIcEEERKT_RKT0_(ptr sret(%"class.std::__cxx11::basic_string") align 8 %ref.tmp13, ptr noundef nonnull align 4 dereferenceable(4) %0, ptr noundef nonnull align 4 dereferenceable(4) %1)
          to label %invoke.cont14 unwind label %lpad

invoke.cont14:                                    ; preds = %invoke.cont11
  %call17 = invoke noundef nonnull align 8 dereferenceable(16) ptr @_ZN7testing15AssertionResultlsINSt7__cxx1112basic_stringIcSt11char_traitsIcESaIcEEEEERS0_RKT_(ptr noundef nonnull align 8 dereferenceable(16) %call12, ptr noundef nonnull align 8 dereferenceable(32) %ref.tmp13)
          to label %invoke.cont16 unwind label %lpad15

invoke.cont16:                                    ; preds = %invoke.cont14
  %call19 = invoke noundef nonnull align 8 dereferenceable(16) ptr @_ZN7testing15AssertionResultlsIA5_cEERS0_RKT_(ptr noundef nonnull align 8 dereferenceable(16) %call17, ptr noundef nonnull align 1 dereferenceable(5) @.str.44)
          to label %invoke.cont18 unwind label %lpad15

invoke.cont18:                                    ; preds = %invoke.cont16
  %2 = load ptr, ptr %val2.addr, align 8
  %3 = load ptr, ptr %val1.addr, align 8
  invoke void @_ZN7testing8internal33FormatForComparisonFailureMessageIfiEENSt7__cxx1112basic_stringIcSt11char_traitsIcESaIcEEERKT_RKT0_(ptr sret(%"class.std::__cxx11::basic_string") align 8 %ref.tmp20, ptr noundef nonnull align 4 dereferenceable(4) %2, ptr noundef nonnull align 4 dereferenceable(4) %3)
          to label %invoke.cont21 unwind label %lpad15

invoke.cont21:                                    ; preds = %invoke.cont18
  %call24 = invoke noundef nonnull align 8 dereferenceable(16) ptr @_ZN7testing15AssertionResultlsINSt7__cxx1112basic_stringIcSt11char_traitsIcESaIcEEEEERS0_RKT_(ptr noundef nonnull align 8 dereferenceable(16) %call19, ptr noundef nonnull align 8 dereferenceable(32) %ref.tmp20)
          to label %invoke.cont23 unwind label %lpad22

invoke.cont23:                                    ; preds = %invoke.cont21
  invoke void @_ZN7testing15AssertionResultC1ERKS0_(ptr noundef nonnull align 8 dereferenceable(16) %agg.result, ptr noundef nonnull align 8 dereferenceable(16) %call24)
          to label %invoke.cont25 unwind label %lpad22

invoke.cont25:                                    ; preds = %invoke.cont23
  call void @_ZNSt7__cxx1112basic_stringIcSt11char_traitsIcESaIcEED1Ev(ptr noundef nonnull align 8 dereferenceable(32) %ref.tmp20) #3
  call void @_ZNSt7__cxx1112basic_stringIcSt11char_traitsIcESaIcEED1Ev(ptr noundef nonnull align 8 dereferenceable(32) %ref.tmp13) #3
  call void @_ZN7testing15AssertionResultD2Ev(ptr noundef nonnull align 8 dereferenceable(16) %ref.tmp) #3
  ret void

lpad:                                             ; preds = %invoke.cont11, %invoke.cont9, %invoke.cont7, %invoke.cont5, %invoke.cont3, %invoke.cont1, %invoke.cont, %entry
  %4 = landingpad { ptr, i32 }
          cleanup
  %5 = extractvalue { ptr, i32 } %4, 0
  store ptr %5, ptr %exn.slot, align 8
  %6 = extractvalue { ptr, i32 } %4, 1
  store i32 %6, ptr %ehselector.slot, align 4
  br label %ehcleanup26

lpad15:                                           ; preds = %invoke.cont18, %invoke.cont16, %invoke.cont14
  %7 = landingpad { ptr, i32 }
          cleanup
  %8 = extractvalue { ptr, i32 } %7, 0
  store ptr %8, ptr %exn.slot, align 8
  %9 = extractvalue { ptr, i32 } %7, 1
  store i32 %9, ptr %ehselector.slot, align 4
  br label %ehcleanup

lpad22:                                           ; preds = %invoke.cont23, %invoke.cont21
  %10 = landingpad { ptr, i32 }
          cleanup
  %11 = extractvalue { ptr, i32 } %10, 0
  store ptr %11, ptr %exn.slot, align 8
  %12 = extractvalue { ptr, i32 } %10, 1
  store i32 %12, ptr %ehselector.slot, align 4
  call void @_ZNSt7__cxx1112basic_stringIcSt11char_traitsIcESaIcEED1Ev(ptr noundef nonnull align 8 dereferenceable(32) %ref.tmp20) #3
  br label %ehcleanup

ehcleanup:                                        ; preds = %lpad22, %lpad15
  call void @_ZNSt7__cxx1112basic_stringIcSt11char_traitsIcESaIcEED1Ev(ptr noundef nonnull align 8 dereferenceable(32) %ref.tmp13) #3
  br label %ehcleanup26

ehcleanup26:                                      ; preds = %ehcleanup, %lpad
  call void @_ZN7testing15AssertionResultD2Ev(ptr noundef nonnull align 8 dereferenceable(16) %ref.tmp) #3
  br label %eh.resume

eh.resume:                                        ; preds = %ehcleanup26
  %exn = load ptr, ptr %exn.slot, align 8
  %sel = load i32, ptr %ehselector.slot, align 4
  %lpad.val = insertvalue { ptr, i32 } poison, ptr %exn, 0
  %lpad.val27 = insertvalue { ptr, i32 } %lpad.val, i32 %sel, 1
  resume { ptr, i32 } %lpad.val27
}

declare void @_ZN7testing16AssertionFailureEv(ptr sret(%"class.testing::AssertionResult") align 8) #1

; Function Attrs: mustprogress uwtable
define linkonce_odr dso_local noundef nonnull align 8 dereferenceable(16) ptr @_ZN7testing15AssertionResultlsIA12_cEERS0_RKT_(ptr noundef nonnull align 8 dereferenceable(16) %this, ptr noundef nonnull align 1 dereferenceable(12) %value) #4 comdat align 2 personality ptr @__gxx_personality_v0 {
entry:
  %this.addr = alloca ptr, align 8
  %value.addr = alloca ptr, align 8
  %ref.tmp = alloca %"class.testing::Message", align 8
  %exn.slot = alloca ptr, align 8
  %ehselector.slot = alloca i32, align 4
  store ptr %this, ptr %this.addr, align 8
  store ptr %value, ptr %value.addr, align 8
  %this1 = load ptr, ptr %this.addr, align 8
  call void @_ZN7testing7MessageC1Ev(ptr noundef nonnull align 8 dereferenceable(8) %ref.tmp)
  %0 = load ptr, ptr %value.addr, align 8
  %call = invoke noundef nonnull align 8 dereferenceable(8) ptr @_ZN7testing7MessagelsIA12_cEERS0_RKT_(ptr noundef nonnull align 8 dereferenceable(8) %ref.tmp, ptr noundef nonnull align 1 dereferenceable(12) %0)
          to label %invoke.cont unwind label %lpad

invoke.cont:                                      ; preds = %entry
  invoke void @_ZN7testing15AssertionResult13AppendMessageERKNS_7MessageE(ptr noundef nonnull align 8 dereferenceable(16) %this1, ptr noundef nonnull align 8 dereferenceable(8) %call)
          to label %invoke.cont2 unwind label %lpad

invoke.cont2:                                     ; preds = %invoke.cont
  call void @_ZN7testing7MessageD2Ev(ptr noundef nonnull align 8 dereferenceable(8) %ref.tmp) #3
  ret ptr %this1

lpad:                                             ; preds = %invoke.cont, %entry
  %1 = landingpad { ptr, i32 }
          cleanup
  %2 = extractvalue { ptr, i32 } %1, 0
  store ptr %2, ptr %exn.slot, align 8
  %3 = extractvalue { ptr, i32 } %1, 1
  store i32 %3, ptr %ehselector.slot, align 4
  call void @_ZN7testing7MessageD2Ev(ptr noundef nonnull align 8 dereferenceable(8) %ref.tmp) #3
  br label %eh.resume

eh.resume:                                        ; preds = %lpad
  %exn = load ptr, ptr %exn.slot, align 8
  %sel = load i32, ptr %ehselector.slot, align 4
  %lpad.val = insertvalue { ptr, i32 } poison, ptr %exn, 0
  %lpad.val3 = insertvalue { ptr, i32 } %lpad.val, i32 %sel, 1
  resume { ptr, i32 } %lpad.val3
}

; Function Attrs: mustprogress uwtable
define linkonce_odr dso_local noundef nonnull align 8 dereferenceable(16) ptr @_ZN7testing15AssertionResultlsIPKcEERS0_RKT_(ptr noundef nonnull align 8 dereferenceable(16) %this, ptr noundef nonnull align 8 dereferenceable(8) %value) #4 comdat align 2 personality ptr @__gxx_personality_v0 {
entry:
  %this.addr = alloca ptr, align 8
  %value.addr = alloca ptr, align 8
  %ref.tmp = alloca %"class.testing::Message", align 8
  %exn.slot = alloca ptr, align 8
  %ehselector.slot = alloca i32, align 4
  store ptr %this, ptr %this.addr, align 8
  store ptr %value, ptr %value.addr, align 8
  %this1 = load ptr, ptr %this.addr, align 8
  call void @_ZN7testing7MessageC1Ev(ptr noundef nonnull align 8 dereferenceable(8) %ref.tmp)
  %0 = load ptr, ptr %value.addr, align 8
  %call = invoke noundef nonnull align 8 dereferenceable(8) ptr @_ZN7testing7MessagelsIKcEERS0_RKPT_(ptr noundef nonnull align 8 dereferenceable(8) %ref.tmp, ptr noundef nonnull align 8 dereferenceable(8) %0)
          to label %invoke.cont unwind label %lpad

invoke.cont:                                      ; preds = %entry
  invoke void @_ZN7testing15AssertionResult13AppendMessageERKNS_7MessageE(ptr noundef nonnull align 8 dereferenceable(16) %this1, ptr noundef nonnull align 8 dereferenceable(8) %call)
          to label %invoke.cont2 unwind label %lpad

invoke.cont2:                                     ; preds = %invoke.cont
  call void @_ZN7testing7MessageD2Ev(ptr noundef nonnull align 8 dereferenceable(8) %ref.tmp) #3
  ret ptr %this1

lpad:                                             ; preds = %invoke.cont, %entry
  %1 = landingpad { ptr, i32 }
          cleanup
  %2 = extractvalue { ptr, i32 } %1, 0
  store ptr %2, ptr %exn.slot, align 8
  %3 = extractvalue { ptr, i32 } %1, 1
  store i32 %3, ptr %ehselector.slot, align 4
  call void @_ZN7testing7MessageD2Ev(ptr noundef nonnull align 8 dereferenceable(8) %ref.tmp) #3
  br label %eh.resume

eh.resume:                                        ; preds = %lpad
  %exn = load ptr, ptr %exn.slot, align 8
  %sel = load i32, ptr %ehselector.slot, align 4
  %lpad.val = insertvalue { ptr, i32 } poison, ptr %exn, 0
  %lpad.val3 = insertvalue { ptr, i32 } %lpad.val, i32 %sel, 1
  resume { ptr, i32 } %lpad.val3
}

; Function Attrs: mustprogress uwtable
define linkonce_odr dso_local noundef nonnull align 8 dereferenceable(16) ptr @_ZN7testing15AssertionResultlsIA3_cEERS0_RKT_(ptr noundef nonnull align 8 dereferenceable(16) %this, ptr noundef nonnull align 1 dereferenceable(3) %value) #4 comdat align 2 personality ptr @__gxx_personality_v0 {
entry:
  %this.addr = alloca ptr, align 8
  %value.addr = alloca ptr, align 8
  %ref.tmp = alloca %"class.testing::Message", align 8
  %exn.slot = alloca ptr, align 8
  %ehselector.slot = alloca i32, align 4
  store ptr %this, ptr %this.addr, align 8
  store ptr %value, ptr %value.addr, align 8
  %this1 = load ptr, ptr %this.addr, align 8
  call void @_ZN7testing7MessageC1Ev(ptr noundef nonnull align 8 dereferenceable(8) %ref.tmp)
  %0 = load ptr, ptr %value.addr, align 8
  %call = invoke noundef nonnull align 8 dereferenceable(8) ptr @_ZN7testing7MessagelsIA3_cEERS0_RKT_(ptr noundef nonnull align 8 dereferenceable(8) %ref.tmp, ptr noundef nonnull align 1 dereferenceable(3) %0)
          to label %invoke.cont unwind label %lpad

invoke.cont:                                      ; preds = %entry
  invoke void @_ZN7testing15AssertionResult13AppendMessageERKNS_7MessageE(ptr noundef nonnull align 8 dereferenceable(16) %this1, ptr noundef nonnull align 8 dereferenceable(8) %call)
          to label %invoke.cont2 unwind label %lpad

invoke.cont2:                                     ; preds = %invoke.cont
  call void @_ZN7testing7MessageD2Ev(ptr noundef nonnull align 8 dereferenceable(8) %ref.tmp) #3
  ret ptr %this1

lpad:                                             ; preds = %invoke.cont, %entry
  %1 = landingpad { ptr, i32 }
          cleanup
  %2 = extractvalue { ptr, i32 } %1, 0
  store ptr %2, ptr %exn.slot, align 8
  %3 = extractvalue { ptr, i32 } %1, 1
  store i32 %3, ptr %ehselector.slot, align 4
  call void @_ZN7testing7MessageD2Ev(ptr noundef nonnull align 8 dereferenceable(8) %ref.tmp) #3
  br label %eh.resume

eh.resume:                                        ; preds = %lpad
  %exn = load ptr, ptr %exn.slot, align 8
  %sel = load i32, ptr %ehselector.slot, align 4
  %lpad.val = insertvalue { ptr, i32 } poison, ptr %exn, 0
  %lpad.val3 = insertvalue { ptr, i32 } %lpad.val, i32 %sel, 1
  resume { ptr, i32 } %lpad.val3
}

; Function Attrs: mustprogress uwtable
define linkonce_odr dso_local noundef nonnull align 8 dereferenceable(16) ptr @_ZN7testing15AssertionResultlsINSt7__cxx1112basic_stringIcSt11char_traitsIcESaIcEEEEERS0_RKT_(ptr noundef nonnull align 8 dereferenceable(16) %this, ptr noundef nonnull align 8 dereferenceable(32) %value) #4 comdat align 2 personality ptr @__gxx_personality_v0 {
entry:
  %this.addr = alloca ptr, align 8
  %value.addr = alloca ptr, align 8
  %ref.tmp = alloca %"class.testing::Message", align 8
  %exn.slot = alloca ptr, align 8
  %ehselector.slot = alloca i32, align 4
  store ptr %this, ptr %this.addr, align 8
  store ptr %value, ptr %value.addr, align 8
  %this1 = load ptr, ptr %this.addr, align 8
  call void @_ZN7testing7MessageC1Ev(ptr noundef nonnull align 8 dereferenceable(8) %ref.tmp)
  %0 = load ptr, ptr %value.addr, align 8
  %call = invoke noundef nonnull align 8 dereferenceable(8) ptr @_ZN7testing7MessagelsINSt7__cxx1112basic_stringIcSt11char_traitsIcESaIcEEEEERS0_RKT_(ptr noundef nonnull align 8 dereferenceable(8) %ref.tmp, ptr noundef nonnull align 8 dereferenceable(32) %0)
          to label %invoke.cont unwind label %lpad

invoke.cont:                                      ; preds = %entry
  invoke void @_ZN7testing15AssertionResult13AppendMessageERKNS_7MessageE(ptr noundef nonnull align 8 dereferenceable(16) %this1, ptr noundef nonnull align 8 dereferenceable(8) %call)
          to label %invoke.cont2 unwind label %lpad

invoke.cont2:                                     ; preds = %invoke.cont
  call void @_ZN7testing7MessageD2Ev(ptr noundef nonnull align 8 dereferenceable(8) %ref.tmp) #3
  ret ptr %this1

lpad:                                             ; preds = %invoke.cont, %entry
  %1 = landingpad { ptr, i32 }
          cleanup
  %2 = extractvalue { ptr, i32 } %1, 0
  store ptr %2, ptr %exn.slot, align 8
  %3 = extractvalue { ptr, i32 } %1, 1
  store i32 %3, ptr %ehselector.slot, align 4
  call void @_ZN7testing7MessageD2Ev(ptr noundef nonnull align 8 dereferenceable(8) %ref.tmp) #3
  br label %eh.resume

eh.resume:                                        ; preds = %lpad
  %exn = load ptr, ptr %exn.slot, align 8
  %sel = load i32, ptr %ehselector.slot, align 4
  %lpad.val = insertvalue { ptr, i32 } poison, ptr %exn, 0
  %lpad.val3 = insertvalue { ptr, i32 } %lpad.val, i32 %sel, 1
  resume { ptr, i32 } %lpad.val3
}

; Function Attrs: mustprogress uwtable
define linkonce_odr dso_local void @_ZN7testing8internal33FormatForComparisonFailureMessageIifEENSt7__cxx1112basic_stringIcSt11char_traitsIcESaIcEEERKT_RKT0_(ptr noalias sret(%"class.std::__cxx11::basic_string") align 8 %agg.result, ptr noundef nonnull align 4 dereferenceable(4) %value, ptr noundef nonnull align 4 dereferenceable(4) %0) #4 comdat {
entry:
  %result.ptr = alloca ptr, align 8
  %value.addr = alloca ptr, align 8
  %.addr = alloca ptr, align 8
  store ptr %agg.result, ptr %result.ptr, align 8
  store ptr %value, ptr %value.addr, align 8
  store ptr %0, ptr %.addr, align 8
  %1 = load ptr, ptr %value.addr, align 8
  call void @_ZN7testing8internal19FormatForComparisonIifE6FormatB5cxx11ERKi(ptr sret(%"class.std::__cxx11::basic_string") align 8 %agg.result, ptr noundef nonnull align 4 dereferenceable(4) %1)
  ret void
}

; Function Attrs: mustprogress uwtable
define linkonce_odr dso_local noundef nonnull align 8 dereferenceable(16) ptr @_ZN7testing15AssertionResultlsIA5_cEERS0_RKT_(ptr noundef nonnull align 8 dereferenceable(16) %this, ptr noundef nonnull align 1 dereferenceable(5) %value) #4 comdat align 2 personality ptr @__gxx_personality_v0 {
entry:
  %this.addr = alloca ptr, align 8
  %value.addr = alloca ptr, align 8
  %ref.tmp = alloca %"class.testing::Message", align 8
  %exn.slot = alloca ptr, align 8
  %ehselector.slot = alloca i32, align 4
  store ptr %this, ptr %this.addr, align 8
  store ptr %value, ptr %value.addr, align 8
  %this1 = load ptr, ptr %this.addr, align 8
  call void @_ZN7testing7MessageC1Ev(ptr noundef nonnull align 8 dereferenceable(8) %ref.tmp)
  %0 = load ptr, ptr %value.addr, align 8
  %call = invoke noundef nonnull align 8 dereferenceable(8) ptr @_ZN7testing7MessagelsIA5_cEERS0_RKT_(ptr noundef nonnull align 8 dereferenceable(8) %ref.tmp, ptr noundef nonnull align 1 dereferenceable(5) %0)
          to label %invoke.cont unwind label %lpad

invoke.cont:                                      ; preds = %entry
  invoke void @_ZN7testing15AssertionResult13AppendMessageERKNS_7MessageE(ptr noundef nonnull align 8 dereferenceable(16) %this1, ptr noundef nonnull align 8 dereferenceable(8) %call)
          to label %invoke.cont2 unwind label %lpad

invoke.cont2:                                     ; preds = %invoke.cont
  call void @_ZN7testing7MessageD2Ev(ptr noundef nonnull align 8 dereferenceable(8) %ref.tmp) #3
  ret ptr %this1

lpad:                                             ; preds = %invoke.cont, %entry
  %1 = landingpad { ptr, i32 }
          cleanup
  %2 = extractvalue { ptr, i32 } %1, 0
  store ptr %2, ptr %exn.slot, align 8
  %3 = extractvalue { ptr, i32 } %1, 1
  store i32 %3, ptr %ehselector.slot, align 4
  call void @_ZN7testing7MessageD2Ev(ptr noundef nonnull align 8 dereferenceable(8) %ref.tmp) #3
  br label %eh.resume

eh.resume:                                        ; preds = %lpad
  %exn = load ptr, ptr %exn.slot, align 8
  %sel = load i32, ptr %ehselector.slot, align 4
  %lpad.val = insertvalue { ptr, i32 } poison, ptr %exn, 0
  %lpad.val3 = insertvalue { ptr, i32 } %lpad.val, i32 %sel, 1
  resume { ptr, i32 } %lpad.val3
}

; Function Attrs: mustprogress uwtable
define linkonce_odr dso_local void @_ZN7testing8internal33FormatForComparisonFailureMessageIfiEENSt7__cxx1112basic_stringIcSt11char_traitsIcESaIcEEERKT_RKT0_(ptr noalias sret(%"class.std::__cxx11::basic_string") align 8 %agg.result, ptr noundef nonnull align 4 dereferenceable(4) %value, ptr noundef nonnull align 4 dereferenceable(4) %0) #4 comdat {
entry:
  %result.ptr = alloca ptr, align 8
  %value.addr = alloca ptr, align 8
  %.addr = alloca ptr, align 8
  store ptr %agg.result, ptr %result.ptr, align 8
  store ptr %value, ptr %value.addr, align 8
  store ptr %0, ptr %.addr, align 8
  %1 = load ptr, ptr %value.addr, align 8
  call void @_ZN7testing8internal19FormatForComparisonIfiE6FormatB5cxx11ERKf(ptr sret(%"class.std::__cxx11::basic_string") align 8 %agg.result, ptr noundef nonnull align 4 dereferenceable(4) %1)
  ret void
}

declare void @_ZN7testing15AssertionResultC1ERKS0_(ptr noundef nonnull align 8 dereferenceable(16), ptr noundef nonnull align 8 dereferenceable(16)) unnamed_addr #1

; Function Attrs: mustprogress uwtable
define linkonce_odr dso_local void @_ZN7testing15AssertionResult13AppendMessageERKNS_7MessageE(ptr noundef nonnull align 8 dereferenceable(16) %this, ptr noundef nonnull align 8 dereferenceable(8) %a_message) #4 comdat align 2 personality ptr @__gxx_personality_v0 {
entry:
  %this.addr = alloca ptr, align 8
  %a_message.addr = alloca ptr, align 8
  %ref.tmp = alloca %"class.std::unique_ptr.15", align 8
  %ref.tmp6 = alloca %"class.std::__cxx11::basic_string", align 8
  %exn.slot = alloca ptr, align 8
  %ehselector.slot = alloca i32, align 4
  store ptr %this, ptr %this.addr, align 8
  store ptr %a_message, ptr %a_message.addr, align 8
  %this1 = load ptr, ptr %this.addr, align 8
  %message_ = getelementptr inbounds %"class.testing::AssertionResult", ptr %this1, i32 0, i32 1
  %call = call noundef zeroext i1 @_ZSteqINSt7__cxx1112basic_stringIcSt11char_traitsIcESaIcEEESt14default_deleteIS5_EEbRKSt10unique_ptrIT_T0_EDn(ptr noundef nonnull align 8 dereferenceable(8) %message_, ptr null) #3
  br i1 %call, label %if.then, label %if.end

if.then:                                          ; preds = %entry
  call void @_ZSt11make_uniqueINSt7__cxx1112basic_stringIcSt11char_traitsIcESaIcEEEJEENSt8__detail9_MakeUniqIT_E15__single_objectEDpOT0_(ptr sret(%"class.std::unique_ptr.15") align 8 %ref.tmp)
  %message_2 = getelementptr inbounds %"class.testing::AssertionResult", ptr %this1, i32 0, i32 1
  %call3 = call noundef nonnull align 8 dereferenceable(8) ptr @_ZNSt10unique_ptrINSt7__cxx1112basic_stringIcSt11char_traitsIcESaIcEEESt14default_deleteIS5_EEaSEOS8_(ptr noundef nonnull align 8 dereferenceable(8) %message_2, ptr noundef nonnull align 8 dereferenceable(8) %ref.tmp) #3
  call void @_ZNSt10unique_ptrINSt7__cxx1112basic_stringIcSt11char_traitsIcESaIcEEESt14default_deleteIS5_EED2Ev(ptr noundef nonnull align 8 dereferenceable(8) %ref.tmp) #3
  br label %if.end

if.end:                                           ; preds = %if.then, %entry
  %message_4 = getelementptr inbounds %"class.testing::AssertionResult", ptr %this1, i32 0, i32 1
  %call5 = call noundef ptr @_ZNKSt10unique_ptrINSt7__cxx1112basic_stringIcSt11char_traitsIcESaIcEEESt14default_deleteIS5_EEptEv(ptr noundef nonnull align 8 dereferenceable(8) %message_4) #3
  %0 = load ptr, ptr %a_message.addr, align 8
  call void @_ZNK7testing7Message9GetStringB5cxx11Ev(ptr sret(%"class.std::__cxx11::basic_string") align 8 %ref.tmp6, ptr noundef nonnull align 8 dereferenceable(8) %0)
  %call7 = call noundef ptr @_ZNKSt7__cxx1112basic_stringIcSt11char_traitsIcESaIcEE5c_strEv(ptr noundef nonnull align 8 dereferenceable(32) %ref.tmp6) #3
  %call8 = invoke noundef nonnull align 8 dereferenceable(32) ptr @_ZNSt7__cxx1112basic_stringIcSt11char_traitsIcESaIcEE6appendEPKc(ptr noundef nonnull align 8 dereferenceable(32) %call5, ptr noundef %call7)
          to label %invoke.cont unwind label %lpad

invoke.cont:                                      ; preds = %if.end
  call void @_ZNSt7__cxx1112basic_stringIcSt11char_traitsIcESaIcEED1Ev(ptr noundef nonnull align 8 dereferenceable(32) %ref.tmp6) #3
  ret void

lpad:                                             ; preds = %if.end
  %1 = landingpad { ptr, i32 }
          cleanup
  %2 = extractvalue { ptr, i32 } %1, 0
  store ptr %2, ptr %exn.slot, align 8
  %3 = extractvalue { ptr, i32 } %1, 1
  store i32 %3, ptr %ehselector.slot, align 4
  call void @_ZNSt7__cxx1112basic_stringIcSt11char_traitsIcESaIcEED1Ev(ptr noundef nonnull align 8 dereferenceable(32) %ref.tmp6) #3
  br label %eh.resume

eh.resume:                                        ; preds = %lpad
  %exn = load ptr, ptr %exn.slot, align 8
  %sel = load i32, ptr %ehselector.slot, align 4
  %lpad.val = insertvalue { ptr, i32 } poison, ptr %exn, 0
  %lpad.val9 = insertvalue { ptr, i32 } %lpad.val, i32 %sel, 1
  resume { ptr, i32 } %lpad.val9
}

; Function Attrs: mustprogress uwtable
define linkonce_odr dso_local noundef nonnull align 8 dereferenceable(8) ptr @_ZN7testing7MessagelsIA12_cEERS0_RKT_(ptr noundef nonnull align 8 dereferenceable(8) %this, ptr noundef nonnull align 1 dereferenceable(12) %val) #4 comdat align 2 {
entry:
  %this.addr = alloca ptr, align 8
  %val.addr = alloca ptr, align 8
  store ptr %this, ptr %this.addr, align 8
  store ptr %val, ptr %val.addr, align 8
  %this1 = load ptr, ptr %this.addr, align 8
  %ss_ = getelementptr inbounds %"class.testing::Message", ptr %this1, i32 0, i32 0
  %call = call noundef nonnull align 8 dereferenceable(128) ptr @_ZNKSt10unique_ptrINSt7__cxx1118basic_stringstreamIcSt11char_traitsIcESaIcEEESt14default_deleteIS5_EEdeEv(ptr noundef nonnull align 8 dereferenceable(8) %ss_) #3
  %add.ptr = getelementptr inbounds i8, ptr %call, i64 16
  %0 = load ptr, ptr %val.addr, align 8
  %arraydecay = getelementptr inbounds [12 x i8], ptr %0, i64 0, i64 0
  %call2 = call noundef nonnull align 8 dereferenceable(8) ptr @_ZStlsISt11char_traitsIcEERSt13basic_ostreamIcT_ES5_PKc(ptr noundef nonnull align 8 dereferenceable(8) %add.ptr, ptr noundef %arraydecay)
  ret ptr %this1
}

; Function Attrs: mustprogress nounwind uwtable
define linkonce_odr dso_local noundef zeroext i1 @_ZSteqINSt7__cxx1112basic_stringIcSt11char_traitsIcESaIcEEESt14default_deleteIS5_EEbRKSt10unique_ptrIT_T0_EDn(ptr noundef nonnull align 8 dereferenceable(8) %__x, ptr %0) #5 comdat {
entry:
  %__x.addr = alloca ptr, align 8
  %.addr = alloca ptr, align 8
  store ptr %__x, ptr %__x.addr, align 8
  store ptr %0, ptr %.addr, align 8
  %1 = load ptr, ptr %__x.addr, align 8
  %call = call noundef zeroext i1 @_ZNKSt10unique_ptrINSt7__cxx1112basic_stringIcSt11char_traitsIcESaIcEEESt14default_deleteIS5_EEcvbEv(ptr noundef nonnull align 8 dereferenceable(8) %1) #3
  %lnot = xor i1 %call, true
  ret i1 %lnot
}

; Function Attrs: mustprogress uwtable
define linkonce_odr dso_local void @_ZSt11make_uniqueINSt7__cxx1112basic_stringIcSt11char_traitsIcESaIcEEEJEENSt8__detail9_MakeUniqIT_E15__single_objectEDpOT0_(ptr noalias sret(%"class.std::unique_ptr.15") align 8 %agg.result) #4 comdat {
entry:
  %result.ptr = alloca ptr, align 8
  store ptr %agg.result, ptr %result.ptr, align 8
  %call = call noalias noundef nonnull ptr @_Znwm(i64 noundef 32) #13
  call void @_ZNSt7__cxx1112basic_stringIcSt11char_traitsIcESaIcEEC1Ev(ptr noundef nonnull align 8 dereferenceable(32) %call) #3
  call void @_ZNSt10unique_ptrINSt7__cxx1112basic_stringIcSt11char_traitsIcESaIcEEESt14default_deleteIS5_EEC2IS7_vEEPS5_(ptr noundef nonnull align 8 dereferenceable(8) %agg.result, ptr noundef %call) #3
  ret void
}

; Function Attrs: mustprogress nounwind uwtable
define linkonce_odr dso_local noundef nonnull align 8 dereferenceable(8) ptr @_ZNSt10unique_ptrINSt7__cxx1112basic_stringIcSt11char_traitsIcESaIcEEESt14default_deleteIS5_EEaSEOS8_(ptr noundef nonnull align 8 dereferenceable(8) %this, ptr noundef nonnull align 8 dereferenceable(8) %0) #5 comdat align 2 {
entry:
  %this.addr = alloca ptr, align 8
  %.addr = alloca ptr, align 8
  store ptr %this, ptr %this.addr, align 8
  store ptr %0, ptr %.addr, align 8
  %this1 = load ptr, ptr %this.addr, align 8
  %_M_t = getelementptr inbounds %"class.std::unique_ptr.15", ptr %this1, i32 0, i32 0
  %1 = load ptr, ptr %.addr, align 8
  %_M_t2 = getelementptr inbounds %"class.std::unique_ptr.15", ptr %1, i32 0, i32 0
  %call = call noundef nonnull align 8 dereferenceable(8) ptr @_ZNSt15__uniq_ptr_dataINSt7__cxx1112basic_stringIcSt11char_traitsIcESaIcEEESt14default_deleteIS5_ELb1ELb1EEaSEOS8_(ptr noundef nonnull align 8 dereferenceable(8) %_M_t, ptr noundef nonnull align 8 dereferenceable(8) %_M_t2) #3
  ret ptr %this1
}

; Function Attrs: mustprogress nounwind uwtable
define linkonce_odr dso_local void @_ZNSt10unique_ptrINSt7__cxx1112basic_stringIcSt11char_traitsIcESaIcEEESt14default_deleteIS5_EED2Ev(ptr noundef nonnull align 8 dereferenceable(8) %this) unnamed_addr #5 comdat align 2 {
entry:
  %this.addr = alloca ptr, align 8
  %__ptr = alloca ptr, align 8
  store ptr %this, ptr %this.addr, align 8
  %this1 = load ptr, ptr %this.addr, align 8
  %_M_t = getelementptr inbounds %"class.std::unique_ptr.15", ptr %this1, i32 0, i32 0
  %call = call noundef nonnull align 8 dereferenceable(8) ptr @_ZNSt15__uniq_ptr_implINSt7__cxx1112basic_stringIcSt11char_traitsIcESaIcEEESt14default_deleteIS5_EE6_M_ptrEv(ptr noundef nonnull align 8 dereferenceable(8) %_M_t) #3
  store ptr %call, ptr %__ptr, align 8
  %0 = load ptr, ptr %__ptr, align 8
  %1 = load ptr, ptr %0, align 8
  %cmp = icmp ne ptr %1, null
  br i1 %cmp, label %if.then, label %if.end

if.then:                                          ; preds = %entry
  %call2 = call noundef nonnull align 1 dereferenceable(1) ptr @_ZNSt10unique_ptrINSt7__cxx1112basic_stringIcSt11char_traitsIcESaIcEEESt14default_deleteIS5_EE11get_deleterEv(ptr noundef nonnull align 8 dereferenceable(8) %this1) #3
  %2 = load ptr, ptr %__ptr, align 8
  %3 = load ptr, ptr %2, align 8
  call void @_ZNKSt14default_deleteINSt7__cxx1112basic_stringIcSt11char_traitsIcESaIcEEEEclEPS5_(ptr noundef nonnull align 1 dereferenceable(1) %call2, ptr noundef %3)
  br label %if.end

if.end:                                           ; preds = %if.then, %entry
  %4 = load ptr, ptr %__ptr, align 8
  store ptr null, ptr %4, align 8
  ret void
}

; Function Attrs: mustprogress nounwind uwtable
define linkonce_odr dso_local noundef ptr @_ZNKSt10unique_ptrINSt7__cxx1112basic_stringIcSt11char_traitsIcESaIcEEESt14default_deleteIS5_EEptEv(ptr noundef nonnull align 8 dereferenceable(8) %this) #5 comdat align 2 {
entry:
  %this.addr = alloca ptr, align 8
  store ptr %this, ptr %this.addr, align 8
  %this1 = load ptr, ptr %this.addr, align 8
  %call = call noundef ptr @_ZNKSt10unique_ptrINSt7__cxx1112basic_stringIcSt11char_traitsIcESaIcEEESt14default_deleteIS5_EE3getEv(ptr noundef nonnull align 8 dereferenceable(8) %this1) #3
  ret ptr %call
}

declare noundef nonnull align 8 dereferenceable(32) ptr @_ZNSt7__cxx1112basic_stringIcSt11char_traitsIcESaIcEE6appendEPKc(ptr noundef nonnull align 8 dereferenceable(32), ptr noundef) #1

declare void @_ZNK7testing7Message9GetStringB5cxx11Ev(ptr sret(%"class.std::__cxx11::basic_string") align 8, ptr noundef nonnull align 8 dereferenceable(8)) #1

; Function Attrs: nounwind
declare noundef ptr @_ZNKSt7__cxx1112basic_stringIcSt11char_traitsIcESaIcEE5c_strEv(ptr noundef nonnull align 8 dereferenceable(32)) #2

; Function Attrs: mustprogress nounwind uwtable
define linkonce_odr dso_local noundef zeroext i1 @_ZNKSt10unique_ptrINSt7__cxx1112basic_stringIcSt11char_traitsIcESaIcEEESt14default_deleteIS5_EEcvbEv(ptr noundef nonnull align 8 dereferenceable(8) %this) #5 comdat align 2 {
entry:
  %this.addr = alloca ptr, align 8
  store ptr %this, ptr %this.addr, align 8
  %this1 = load ptr, ptr %this.addr, align 8
  %call = call noundef ptr @_ZNKSt10unique_ptrINSt7__cxx1112basic_stringIcSt11char_traitsIcESaIcEEESt14default_deleteIS5_EE3getEv(ptr noundef nonnull align 8 dereferenceable(8) %this1) #3
  %cmp = icmp eq ptr %call, null
  %cond = select i1 %cmp, i1 false, i1 true
  ret i1 %cond
}

; Function Attrs: mustprogress nounwind uwtable
define linkonce_odr dso_local noundef ptr @_ZNKSt10unique_ptrINSt7__cxx1112basic_stringIcSt11char_traitsIcESaIcEEESt14default_deleteIS5_EE3getEv(ptr noundef nonnull align 8 dereferenceable(8) %this) #5 comdat align 2 {
entry:
  %this.addr = alloca ptr, align 8
  store ptr %this, ptr %this.addr, align 8
  %this1 = load ptr, ptr %this.addr, align 8
  %_M_t = getelementptr inbounds %"class.std::unique_ptr.15", ptr %this1, i32 0, i32 0
  %call = call noundef ptr @_ZNKSt15__uniq_ptr_implINSt7__cxx1112basic_stringIcSt11char_traitsIcESaIcEEESt14default_deleteIS5_EE6_M_ptrEv(ptr noundef nonnull align 8 dereferenceable(8) %_M_t) #3
  ret ptr %call
}

; Function Attrs: mustprogress nounwind uwtable
define linkonce_odr dso_local noundef ptr @_ZNKSt15__uniq_ptr_implINSt7__cxx1112basic_stringIcSt11char_traitsIcESaIcEEESt14default_deleteIS5_EE6_M_ptrEv(ptr noundef nonnull align 8 dereferenceable(8) %this) #5 comdat align 2 {
entry:
  %this.addr = alloca ptr, align 8
  store ptr %this, ptr %this.addr, align 8
  %this1 = load ptr, ptr %this.addr, align 8
  %_M_t = getelementptr inbounds %"class.std::__uniq_ptr_impl.17", ptr %this1, i32 0, i32 0
  %call = call noundef nonnull align 8 dereferenceable(8) ptr @_ZSt3getILm0EJPNSt7__cxx1112basic_stringIcSt11char_traitsIcESaIcEEESt14default_deleteIS5_EEERKNSt13tuple_elementIXT_ESt5tupleIJDpT0_EEE4typeERKSD_(ptr noundef nonnull align 8 dereferenceable(8) %_M_t) #3
  %0 = load ptr, ptr %call, align 8
  ret ptr %0
}

; Function Attrs: mustprogress nounwind uwtable
define linkonce_odr dso_local noundef nonnull align 8 dereferenceable(8) ptr @_ZSt3getILm0EJPNSt7__cxx1112basic_stringIcSt11char_traitsIcESaIcEEESt14default_deleteIS5_EEERKNSt13tuple_elementIXT_ESt5tupleIJDpT0_EEE4typeERKSD_(ptr noundef nonnull align 8 dereferenceable(8) %__t) #5 comdat {
entry:
  %__t.addr = alloca ptr, align 8
  store ptr %__t, ptr %__t.addr, align 8
  %0 = load ptr, ptr %__t.addr, align 8
  %call = call noundef nonnull align 8 dereferenceable(8) ptr @_ZSt12__get_helperILm0EPNSt7__cxx1112basic_stringIcSt11char_traitsIcESaIcEEEJSt14default_deleteIS5_EEERKT0_RKSt11_Tuple_implIXT_EJS9_DpT1_EE(ptr noundef nonnull align 8 dereferenceable(8) %0) #3
  ret ptr %call
}

; Function Attrs: mustprogress nounwind uwtable
define linkonce_odr dso_local noundef nonnull align 8 dereferenceable(8) ptr @_ZSt12__get_helperILm0EPNSt7__cxx1112basic_stringIcSt11char_traitsIcESaIcEEEJSt14default_deleteIS5_EEERKT0_RKSt11_Tuple_implIXT_EJS9_DpT1_EE(ptr noundef nonnull align 8 dereferenceable(8) %__t) #5 comdat {
entry:
  %__t.addr = alloca ptr, align 8
  store ptr %__t, ptr %__t.addr, align 8
  %0 = load ptr, ptr %__t.addr, align 8
  %call = call noundef nonnull align 8 dereferenceable(8) ptr @_ZNSt11_Tuple_implILm0EJPNSt7__cxx1112basic_stringIcSt11char_traitsIcESaIcEEESt14default_deleteIS5_EEE7_M_headERKS9_(ptr noundef nonnull align 8 dereferenceable(8) %0) #3
  ret ptr %call
}

; Function Attrs: mustprogress nounwind uwtable
define linkonce_odr dso_local noundef nonnull align 8 dereferenceable(8) ptr @_ZNSt11_Tuple_implILm0EJPNSt7__cxx1112basic_stringIcSt11char_traitsIcESaIcEEESt14default_deleteIS5_EEE7_M_headERKS9_(ptr noundef nonnull align 8 dereferenceable(8) %__t) #5 comdat align 2 {
entry:
  %__t.addr = alloca ptr, align 8
  store ptr %__t, ptr %__t.addr, align 8
  %0 = load ptr, ptr %__t.addr, align 8
  %call = call noundef nonnull align 8 dereferenceable(8) ptr @_ZNSt10_Head_baseILm0EPNSt7__cxx1112basic_stringIcSt11char_traitsIcESaIcEEELb0EE7_M_headERKS7_(ptr noundef nonnull align 8 dereferenceable(8) %0) #3
  ret ptr %call
}

; Function Attrs: mustprogress nounwind uwtable
define linkonce_odr dso_local noundef nonnull align 8 dereferenceable(8) ptr @_ZNSt10_Head_baseILm0EPNSt7__cxx1112basic_stringIcSt11char_traitsIcESaIcEEELb0EE7_M_headERKS7_(ptr noundef nonnull align 8 dereferenceable(8) %__b) #5 comdat align 2 {
entry:
  %__b.addr = alloca ptr, align 8
  store ptr %__b, ptr %__b.addr, align 8
  %0 = load ptr, ptr %__b.addr, align 8
  %_M_head_impl = getelementptr inbounds %"struct.std::_Head_base.22", ptr %0, i32 0, i32 0
  ret ptr %_M_head_impl
}

; Function Attrs: nounwind
declare void @_ZNSt7__cxx1112basic_stringIcSt11char_traitsIcESaIcEEC1Ev(ptr noundef nonnull align 8 dereferenceable(32)) unnamed_addr #2

; Function Attrs: mustprogress nounwind uwtable
define linkonce_odr dso_local void @_ZNSt10unique_ptrINSt7__cxx1112basic_stringIcSt11char_traitsIcESaIcEEESt14default_deleteIS5_EEC2IS7_vEEPS5_(ptr noundef nonnull align 8 dereferenceable(8) %this, ptr noundef %__p) unnamed_addr #5 comdat align 2 personality ptr @__gxx_personality_v0 {
entry:
  %this.addr = alloca ptr, align 8
  %__p.addr = alloca ptr, align 8
  store ptr %this, ptr %this.addr, align 8
  store ptr %__p, ptr %__p.addr, align 8
  %this1 = load ptr, ptr %this.addr, align 8
  %_M_t = getelementptr inbounds %"class.std::unique_ptr.15", ptr %this1, i32 0, i32 0
  %0 = load ptr, ptr %__p.addr, align 8
  invoke void @_ZNSt15__uniq_ptr_dataINSt7__cxx1112basic_stringIcSt11char_traitsIcESaIcEEESt14default_deleteIS5_ELb1ELb1EECI2St15__uniq_ptr_implIS5_S7_EEPS5_(ptr noundef nonnull align 8 dereferenceable(8) %_M_t, ptr noundef %0)
          to label %invoke.cont unwind label %terminate.lpad

invoke.cont:                                      ; preds = %entry
  ret void

terminate.lpad:                                   ; preds = %entry
  %1 = landingpad { ptr, i32 }
          catch ptr null
  %2 = extractvalue { ptr, i32 } %1, 0
  call void @__clang_call_terminate(ptr %2) #16
  unreachable
}

; Function Attrs: mustprogress uwtable
define linkonce_odr dso_local void @_ZNSt15__uniq_ptr_dataINSt7__cxx1112basic_stringIcSt11char_traitsIcESaIcEEESt14default_deleteIS5_ELb1ELb1EECI2St15__uniq_ptr_implIS5_S7_EEPS5_(ptr noundef nonnull align 8 dereferenceable(8) %this, ptr noundef %0) unnamed_addr #4 comdat align 2 {
entry:
  %this.addr = alloca ptr, align 8
  %.addr = alloca ptr, align 8
  store ptr %this, ptr %this.addr, align 8
  store ptr %0, ptr %.addr, align 8
  %this1 = load ptr, ptr %this.addr, align 8
  %1 = load ptr, ptr %.addr, align 8
  call void @_ZNSt15__uniq_ptr_implINSt7__cxx1112basic_stringIcSt11char_traitsIcESaIcEEESt14default_deleteIS5_EEC2EPS5_(ptr noundef nonnull align 8 dereferenceable(8) %this1, ptr noundef %1)
  ret void
}

; Function Attrs: noreturn nounwind uwtable
define linkonce_odr hidden void @__clang_call_terminate(ptr noundef %0) #10 comdat {
  %2 = call ptr @__cxa_begin_catch(ptr %0) #3
  call void @_ZSt9terminatev() #16
  unreachable
}

declare ptr @__cxa_begin_catch(ptr)

declare void @_ZSt9terminatev()

; Function Attrs: mustprogress nounwind uwtable
define linkonce_odr dso_local void @_ZNSt15__uniq_ptr_implINSt7__cxx1112basic_stringIcSt11char_traitsIcESaIcEEESt14default_deleteIS5_EEC2EPS5_(ptr noundef nonnull align 8 dereferenceable(8) %this, ptr noundef %__p) unnamed_addr #5 comdat align 2 {
entry:
  %this.addr = alloca ptr, align 8
  %__p.addr = alloca ptr, align 8
  store ptr %this, ptr %this.addr, align 8
  store ptr %__p, ptr %__p.addr, align 8
  %this1 = load ptr, ptr %this.addr, align 8
  %_M_t = getelementptr inbounds %"class.std::__uniq_ptr_impl.17", ptr %this1, i32 0, i32 0
  call void @_ZNSt5tupleIJPNSt7__cxx1112basic_stringIcSt11char_traitsIcESaIcEEESt14default_deleteIS5_EEEC2ILb1ETnNSt9enable_ifIXclsr17_TupleConstraintsIXT_ES6_S8_EE37__is_implicitly_default_constructibleEEbE4typeELb1EEEv(ptr noundef nonnull align 8 dereferenceable(8) %_M_t) #3
  %0 = load ptr, ptr %__p.addr, align 8
  %call = call noundef nonnull align 8 dereferenceable(8) ptr @_ZNSt15__uniq_ptr_implINSt7__cxx1112basic_stringIcSt11char_traitsIcESaIcEEESt14default_deleteIS5_EE6_M_ptrEv(ptr noundef nonnull align 8 dereferenceable(8) %this1) #3
  store ptr %0, ptr %call, align 8
  ret void
}

; Function Attrs: mustprogress nounwind uwtable
define linkonce_odr dso_local void @_ZNSt5tupleIJPNSt7__cxx1112basic_stringIcSt11char_traitsIcESaIcEEESt14default_deleteIS5_EEEC2ILb1ETnNSt9enable_ifIXclsr17_TupleConstraintsIXT_ES6_S8_EE37__is_implicitly_default_constructibleEEbE4typeELb1EEEv(ptr noundef nonnull align 8 dereferenceable(8) %this) unnamed_addr #5 comdat align 2 personality ptr @__gxx_personality_v0 {
entry:
  %this.addr = alloca ptr, align 8
  store ptr %this, ptr %this.addr, align 8
  %this1 = load ptr, ptr %this.addr, align 8
  invoke void @_ZNSt11_Tuple_implILm0EJPNSt7__cxx1112basic_stringIcSt11char_traitsIcESaIcEEESt14default_deleteIS5_EEEC2Ev(ptr noundef nonnull align 8 dereferenceable(8) %this1)
          to label %invoke.cont unwind label %terminate.lpad

invoke.cont:                                      ; preds = %entry
  ret void

terminate.lpad:                                   ; preds = %entry
  %0 = landingpad { ptr, i32 }
          catch ptr null
  %1 = extractvalue { ptr, i32 } %0, 0
  call void @__clang_call_terminate(ptr %1) #16
  unreachable
}

; Function Attrs: mustprogress nounwind uwtable
define linkonce_odr dso_local noundef nonnull align 8 dereferenceable(8) ptr @_ZNSt15__uniq_ptr_implINSt7__cxx1112basic_stringIcSt11char_traitsIcESaIcEEESt14default_deleteIS5_EE6_M_ptrEv(ptr noundef nonnull align 8 dereferenceable(8) %this) #5 comdat align 2 {
entry:
  %this.addr = alloca ptr, align 8
  store ptr %this, ptr %this.addr, align 8
  %this1 = load ptr, ptr %this.addr, align 8
  %_M_t = getelementptr inbounds %"class.std::__uniq_ptr_impl.17", ptr %this1, i32 0, i32 0
  %call = call noundef nonnull align 8 dereferenceable(8) ptr @_ZSt3getILm0EJPNSt7__cxx1112basic_stringIcSt11char_traitsIcESaIcEEESt14default_deleteIS5_EEERNSt13tuple_elementIXT_ESt5tupleIJDpT0_EEE4typeERSD_(ptr noundef nonnull align 8 dereferenceable(8) %_M_t) #3
  ret ptr %call
}

; Function Attrs: mustprogress uwtable
define linkonce_odr dso_local void @_ZNSt11_Tuple_implILm0EJPNSt7__cxx1112basic_stringIcSt11char_traitsIcESaIcEEESt14default_deleteIS5_EEEC2Ev(ptr noundef nonnull align 8 dereferenceable(8) %this) unnamed_addr #4 comdat align 2 {
entry:
  %this.addr = alloca ptr, align 8
  store ptr %this, ptr %this.addr, align 8
  %this1 = load ptr, ptr %this.addr, align 8
  call void @_ZNSt11_Tuple_implILm1EJSt14default_deleteINSt7__cxx1112basic_stringIcSt11char_traitsIcESaIcEEEEEEC2Ev(ptr noundef nonnull align 1 dereferenceable(1) %this1)
  call void @_ZNSt10_Head_baseILm0EPNSt7__cxx1112basic_stringIcSt11char_traitsIcESaIcEEELb0EEC2Ev(ptr noundef nonnull align 8 dereferenceable(8) %this1)
  ret void
}

; Function Attrs: mustprogress uwtable
define linkonce_odr dso_local void @_ZNSt11_Tuple_implILm1EJSt14default_deleteINSt7__cxx1112basic_stringIcSt11char_traitsIcESaIcEEEEEEC2Ev(ptr noundef nonnull align 1 dereferenceable(1) %this) unnamed_addr #4 comdat align 2 {
entry:
  %this.addr = alloca ptr, align 8
  store ptr %this, ptr %this.addr, align 8
  %this1 = load ptr, ptr %this.addr, align 8
  call void @_ZNSt10_Head_baseILm1ESt14default_deleteINSt7__cxx1112basic_stringIcSt11char_traitsIcESaIcEEEELb1EEC2Ev(ptr noundef nonnull align 1 dereferenceable(1) %this1)
  ret void
}

; Function Attrs: mustprogress nounwind uwtable
define linkonce_odr dso_local void @_ZNSt10_Head_baseILm0EPNSt7__cxx1112basic_stringIcSt11char_traitsIcESaIcEEELb0EEC2Ev(ptr noundef nonnull align 8 dereferenceable(8) %this) unnamed_addr #5 comdat align 2 {
entry:
  %this.addr = alloca ptr, align 8
  store ptr %this, ptr %this.addr, align 8
  %this1 = load ptr, ptr %this.addr, align 8
  %_M_head_impl = getelementptr inbounds %"struct.std::_Head_base.22", ptr %this1, i32 0, i32 0
  store ptr null, ptr %_M_head_impl, align 8
  ret void
}

; Function Attrs: mustprogress nounwind uwtable
define linkonce_odr dso_local void @_ZNSt10_Head_baseILm1ESt14default_deleteINSt7__cxx1112basic_stringIcSt11char_traitsIcESaIcEEEELb1EEC2Ev(ptr noundef nonnull align 1 dereferenceable(1) %this) unnamed_addr #5 comdat align 2 {
entry:
  %this.addr = alloca ptr, align 8
  store ptr %this, ptr %this.addr, align 8
  ret void
}

; Function Attrs: mustprogress nounwind uwtable
define linkonce_odr dso_local noundef nonnull align 8 dereferenceable(8) ptr @_ZSt3getILm0EJPNSt7__cxx1112basic_stringIcSt11char_traitsIcESaIcEEESt14default_deleteIS5_EEERNSt13tuple_elementIXT_ESt5tupleIJDpT0_EEE4typeERSD_(ptr noundef nonnull align 8 dereferenceable(8) %__t) #5 comdat {
entry:
  %__t.addr = alloca ptr, align 8
  store ptr %__t, ptr %__t.addr, align 8
  %0 = load ptr, ptr %__t.addr, align 8
  %call = call noundef nonnull align 8 dereferenceable(8) ptr @_ZSt12__get_helperILm0EPNSt7__cxx1112basic_stringIcSt11char_traitsIcESaIcEEEJSt14default_deleteIS5_EEERT0_RSt11_Tuple_implIXT_EJS9_DpT1_EE(ptr noundef nonnull align 8 dereferenceable(8) %0) #3
  ret ptr %call
}

; Function Attrs: mustprogress nounwind uwtable
define linkonce_odr dso_local noundef nonnull align 8 dereferenceable(8) ptr @_ZSt12__get_helperILm0EPNSt7__cxx1112basic_stringIcSt11char_traitsIcESaIcEEEJSt14default_deleteIS5_EEERT0_RSt11_Tuple_implIXT_EJS9_DpT1_EE(ptr noundef nonnull align 8 dereferenceable(8) %__t) #5 comdat {
entry:
  %__t.addr = alloca ptr, align 8
  store ptr %__t, ptr %__t.addr, align 8
  %0 = load ptr, ptr %__t.addr, align 8
  %call = call noundef nonnull align 8 dereferenceable(8) ptr @_ZNSt11_Tuple_implILm0EJPNSt7__cxx1112basic_stringIcSt11char_traitsIcESaIcEEESt14default_deleteIS5_EEE7_M_headERS9_(ptr noundef nonnull align 8 dereferenceable(8) %0) #3
  ret ptr %call
}

; Function Attrs: mustprogress nounwind uwtable
define linkonce_odr dso_local noundef nonnull align 8 dereferenceable(8) ptr @_ZNSt11_Tuple_implILm0EJPNSt7__cxx1112basic_stringIcSt11char_traitsIcESaIcEEESt14default_deleteIS5_EEE7_M_headERS9_(ptr noundef nonnull align 8 dereferenceable(8) %__t) #5 comdat align 2 {
entry:
  %__t.addr = alloca ptr, align 8
  store ptr %__t, ptr %__t.addr, align 8
  %0 = load ptr, ptr %__t.addr, align 8
  %call = call noundef nonnull align 8 dereferenceable(8) ptr @_ZNSt10_Head_baseILm0EPNSt7__cxx1112basic_stringIcSt11char_traitsIcESaIcEEELb0EE7_M_headERS7_(ptr noundef nonnull align 8 dereferenceable(8) %0) #3
  ret ptr %call
}

; Function Attrs: mustprogress nounwind uwtable
define linkonce_odr dso_local noundef nonnull align 8 dereferenceable(8) ptr @_ZNSt10_Head_baseILm0EPNSt7__cxx1112basic_stringIcSt11char_traitsIcESaIcEEELb0EE7_M_headERS7_(ptr noundef nonnull align 8 dereferenceable(8) %__b) #5 comdat align 2 {
entry:
  %__b.addr = alloca ptr, align 8
  store ptr %__b, ptr %__b.addr, align 8
  %0 = load ptr, ptr %__b.addr, align 8
  %_M_head_impl = getelementptr inbounds %"struct.std::_Head_base.22", ptr %0, i32 0, i32 0
  ret ptr %_M_head_impl
}

; Function Attrs: mustprogress nounwind uwtable
define linkonce_odr dso_local noundef nonnull align 8 dereferenceable(8) ptr @_ZNSt15__uniq_ptr_dataINSt7__cxx1112basic_stringIcSt11char_traitsIcESaIcEEESt14default_deleteIS5_ELb1ELb1EEaSEOS8_(ptr noundef nonnull align 8 dereferenceable(8) %this, ptr noundef nonnull align 8 dereferenceable(8) %0) #5 comdat align 2 {
entry:
  %this.addr = alloca ptr, align 8
  %.addr = alloca ptr, align 8
  store ptr %this, ptr %this.addr, align 8
  store ptr %0, ptr %.addr, align 8
  %this1 = load ptr, ptr %this.addr, align 8
  %1 = load ptr, ptr %.addr, align 8
  %call = call noundef nonnull align 8 dereferenceable(8) ptr @_ZNSt15__uniq_ptr_implINSt7__cxx1112basic_stringIcSt11char_traitsIcESaIcEEESt14default_deleteIS5_EEaSEOS8_(ptr noundef nonnull align 8 dereferenceable(8) %this1, ptr noundef nonnull align 8 dereferenceable(8) %1) #3
  ret ptr %this1
}

; Function Attrs: mustprogress nounwind uwtable
define linkonce_odr dso_local noundef nonnull align 8 dereferenceable(8) ptr @_ZNSt15__uniq_ptr_implINSt7__cxx1112basic_stringIcSt11char_traitsIcESaIcEEESt14default_deleteIS5_EEaSEOS8_(ptr noundef nonnull align 8 dereferenceable(8) %this, ptr noundef nonnull align 8 dereferenceable(8) %__u) #5 comdat align 2 {
entry:
  %this.addr = alloca ptr, align 8
  %__u.addr = alloca ptr, align 8
  store ptr %this, ptr %this.addr, align 8
  store ptr %__u, ptr %__u.addr, align 8
  %this1 = load ptr, ptr %this.addr, align 8
  %0 = load ptr, ptr %__u.addr, align 8
  %call = call noundef ptr @_ZNSt15__uniq_ptr_implINSt7__cxx1112basic_stringIcSt11char_traitsIcESaIcEEESt14default_deleteIS5_EE7releaseEv(ptr noundef nonnull align 8 dereferenceable(8) %0) #3
  call void @_ZNSt15__uniq_ptr_implINSt7__cxx1112basic_stringIcSt11char_traitsIcESaIcEEESt14default_deleteIS5_EE5resetEPS5_(ptr noundef nonnull align 8 dereferenceable(8) %this1, ptr noundef %call) #3
  %1 = load ptr, ptr %__u.addr, align 8
  %call2 = call noundef nonnull align 1 dereferenceable(1) ptr @_ZNSt15__uniq_ptr_implINSt7__cxx1112basic_stringIcSt11char_traitsIcESaIcEEESt14default_deleteIS5_EE10_M_deleterEv(ptr noundef nonnull align 8 dereferenceable(8) %1) #3
  %call3 = call noundef nonnull align 1 dereferenceable(1) ptr @_ZNSt15__uniq_ptr_implINSt7__cxx1112basic_stringIcSt11char_traitsIcESaIcEEESt14default_deleteIS5_EE10_M_deleterEv(ptr noundef nonnull align 8 dereferenceable(8) %this1) #3
  ret ptr %this1
}

; Function Attrs: mustprogress nounwind uwtable
define linkonce_odr dso_local void @_ZNSt15__uniq_ptr_implINSt7__cxx1112basic_stringIcSt11char_traitsIcESaIcEEESt14default_deleteIS5_EE5resetEPS5_(ptr noundef nonnull align 8 dereferenceable(8) %this, ptr noundef %__p) #5 comdat align 2 personality ptr @__gxx_personality_v0 {
entry:
  %this.addr = alloca ptr, align 8
  %__p.addr = alloca ptr, align 8
  %__old_p = alloca ptr, align 8
  store ptr %this, ptr %this.addr, align 8
  store ptr %__p, ptr %__p.addr, align 8
  %this1 = load ptr, ptr %this.addr, align 8
  %call = call noundef nonnull align 8 dereferenceable(8) ptr @_ZNSt15__uniq_ptr_implINSt7__cxx1112basic_stringIcSt11char_traitsIcESaIcEEESt14default_deleteIS5_EE6_M_ptrEv(ptr noundef nonnull align 8 dereferenceable(8) %this1) #3
  %0 = load ptr, ptr %call, align 8
  store ptr %0, ptr %__old_p, align 8
  %1 = load ptr, ptr %__p.addr, align 8
  %call2 = call noundef nonnull align 8 dereferenceable(8) ptr @_ZNSt15__uniq_ptr_implINSt7__cxx1112basic_stringIcSt11char_traitsIcESaIcEEESt14default_deleteIS5_EE6_M_ptrEv(ptr noundef nonnull align 8 dereferenceable(8) %this1) #3
  store ptr %1, ptr %call2, align 8
  %2 = load ptr, ptr %__old_p, align 8
  %tobool = icmp ne ptr %2, null
  br i1 %tobool, label %if.then, label %if.end

if.then:                                          ; preds = %entry
  %call3 = call noundef nonnull align 1 dereferenceable(1) ptr @_ZNSt15__uniq_ptr_implINSt7__cxx1112basic_stringIcSt11char_traitsIcESaIcEEESt14default_deleteIS5_EE10_M_deleterEv(ptr noundef nonnull align 8 dereferenceable(8) %this1) #3
  %3 = load ptr, ptr %__old_p, align 8
  invoke void @_ZNKSt14default_deleteINSt7__cxx1112basic_stringIcSt11char_traitsIcESaIcEEEEclEPS5_(ptr noundef nonnull align 1 dereferenceable(1) %call3, ptr noundef %3)
          to label %invoke.cont unwind label %terminate.lpad

invoke.cont:                                      ; preds = %if.then
  br label %if.end

if.end:                                           ; preds = %invoke.cont, %entry
  ret void

terminate.lpad:                                   ; preds = %if.then
  %4 = landingpad { ptr, i32 }
          catch ptr null
  %5 = extractvalue { ptr, i32 } %4, 0
  call void @__clang_call_terminate(ptr %5) #16
  unreachable
}

; Function Attrs: mustprogress nounwind uwtable
define linkonce_odr dso_local noundef ptr @_ZNSt15__uniq_ptr_implINSt7__cxx1112basic_stringIcSt11char_traitsIcESaIcEEESt14default_deleteIS5_EE7releaseEv(ptr noundef nonnull align 8 dereferenceable(8) %this) #5 comdat align 2 {
entry:
  %this.addr = alloca ptr, align 8
  %__p = alloca ptr, align 8
  store ptr %this, ptr %this.addr, align 8
  %this1 = load ptr, ptr %this.addr, align 8
  %call = call noundef nonnull align 8 dereferenceable(8) ptr @_ZNSt15__uniq_ptr_implINSt7__cxx1112basic_stringIcSt11char_traitsIcESaIcEEESt14default_deleteIS5_EE6_M_ptrEv(ptr noundef nonnull align 8 dereferenceable(8) %this1) #3
  %0 = load ptr, ptr %call, align 8
  store ptr %0, ptr %__p, align 8
  %call2 = call noundef nonnull align 8 dereferenceable(8) ptr @_ZNSt15__uniq_ptr_implINSt7__cxx1112basic_stringIcSt11char_traitsIcESaIcEEESt14default_deleteIS5_EE6_M_ptrEv(ptr noundef nonnull align 8 dereferenceable(8) %this1) #3
  store ptr null, ptr %call2, align 8
  %1 = load ptr, ptr %__p, align 8
  ret ptr %1
}

; Function Attrs: mustprogress nounwind uwtable
define linkonce_odr dso_local noundef nonnull align 1 dereferenceable(1) ptr @_ZNSt15__uniq_ptr_implINSt7__cxx1112basic_stringIcSt11char_traitsIcESaIcEEESt14default_deleteIS5_EE10_M_deleterEv(ptr noundef nonnull align 8 dereferenceable(8) %this) #5 comdat align 2 {
entry:
  %this.addr = alloca ptr, align 8
  store ptr %this, ptr %this.addr, align 8
  %this1 = load ptr, ptr %this.addr, align 8
  %_M_t = getelementptr inbounds %"class.std::__uniq_ptr_impl.17", ptr %this1, i32 0, i32 0
  %call = call noundef nonnull align 1 dereferenceable(1) ptr @_ZSt3getILm1EJPNSt7__cxx1112basic_stringIcSt11char_traitsIcESaIcEEESt14default_deleteIS5_EEERNSt13tuple_elementIXT_ESt5tupleIJDpT0_EEE4typeERSD_(ptr noundef nonnull align 8 dereferenceable(8) %_M_t) #3
  ret ptr %call
}

; Function Attrs: mustprogress nounwind uwtable
define linkonce_odr dso_local void @_ZNKSt14default_deleteINSt7__cxx1112basic_stringIcSt11char_traitsIcESaIcEEEEclEPS5_(ptr noundef nonnull align 1 dereferenceable(1) %this, ptr noundef %__ptr) #5 comdat align 2 {
entry:
  %this.addr = alloca ptr, align 8
  %__ptr.addr = alloca ptr, align 8
  store ptr %this, ptr %this.addr, align 8
  store ptr %__ptr, ptr %__ptr.addr, align 8
  %0 = load ptr, ptr %__ptr.addr, align 8
  %isnull = icmp eq ptr %0, null
  br i1 %isnull, label %delete.end, label %delete.notnull

delete.notnull:                                   ; preds = %entry
  call void @_ZNSt7__cxx1112basic_stringIcSt11char_traitsIcESaIcEED1Ev(ptr noundef nonnull align 8 dereferenceable(32) %0) #3
  call void @_ZdlPv(ptr noundef %0) #14
  br label %delete.end

delete.end:                                       ; preds = %delete.notnull, %entry
  ret void
}

; Function Attrs: mustprogress nounwind uwtable
define linkonce_odr dso_local noundef nonnull align 1 dereferenceable(1) ptr @_ZSt3getILm1EJPNSt7__cxx1112basic_stringIcSt11char_traitsIcESaIcEEESt14default_deleteIS5_EEERNSt13tuple_elementIXT_ESt5tupleIJDpT0_EEE4typeERSD_(ptr noundef nonnull align 8 dereferenceable(8) %__t) #5 comdat {
entry:
  %__t.addr = alloca ptr, align 8
  store ptr %__t, ptr %__t.addr, align 8
  %0 = load ptr, ptr %__t.addr, align 8
  %call = call noundef nonnull align 1 dereferenceable(1) ptr @_ZSt12__get_helperILm1ESt14default_deleteINSt7__cxx1112basic_stringIcSt11char_traitsIcESaIcEEEEJEERT0_RSt11_Tuple_implIXT_EJS8_DpT1_EE(ptr noundef nonnull align 1 dereferenceable(1) %0) #3
  ret ptr %call
}

; Function Attrs: mustprogress nounwind uwtable
define linkonce_odr dso_local noundef nonnull align 1 dereferenceable(1) ptr @_ZSt12__get_helperILm1ESt14default_deleteINSt7__cxx1112basic_stringIcSt11char_traitsIcESaIcEEEEJEERT0_RSt11_Tuple_implIXT_EJS8_DpT1_EE(ptr noundef nonnull align 1 dereferenceable(1) %__t) #5 comdat {
entry:
  %__t.addr = alloca ptr, align 8
  store ptr %__t, ptr %__t.addr, align 8
  %0 = load ptr, ptr %__t.addr, align 8
  %call = call noundef nonnull align 1 dereferenceable(1) ptr @_ZNSt11_Tuple_implILm1EJSt14default_deleteINSt7__cxx1112basic_stringIcSt11char_traitsIcESaIcEEEEEE7_M_headERS8_(ptr noundef nonnull align 1 dereferenceable(1) %0) #3
  ret ptr %call
}

; Function Attrs: mustprogress nounwind uwtable
define linkonce_odr dso_local noundef nonnull align 1 dereferenceable(1) ptr @_ZNSt11_Tuple_implILm1EJSt14default_deleteINSt7__cxx1112basic_stringIcSt11char_traitsIcESaIcEEEEEE7_M_headERS8_(ptr noundef nonnull align 1 dereferenceable(1) %__t) #5 comdat align 2 {
entry:
  %__t.addr = alloca ptr, align 8
  store ptr %__t, ptr %__t.addr, align 8
  %0 = load ptr, ptr %__t.addr, align 8
  %call = call noundef nonnull align 1 dereferenceable(1) ptr @_ZNSt10_Head_baseILm1ESt14default_deleteINSt7__cxx1112basic_stringIcSt11char_traitsIcESaIcEEEELb1EE7_M_headERS8_(ptr noundef nonnull align 1 dereferenceable(1) %0) #3
  ret ptr %call
}

; Function Attrs: mustprogress nounwind uwtable
define linkonce_odr dso_local noundef nonnull align 1 dereferenceable(1) ptr @_ZNSt10_Head_baseILm1ESt14default_deleteINSt7__cxx1112basic_stringIcSt11char_traitsIcESaIcEEEELb1EE7_M_headERS8_(ptr noundef nonnull align 1 dereferenceable(1) %__b) #5 comdat align 2 {
entry:
  %__b.addr = alloca ptr, align 8
  store ptr %__b, ptr %__b.addr, align 8
  %0 = load ptr, ptr %__b.addr, align 8
  ret ptr %0
}

; Function Attrs: mustprogress nounwind uwtable
define linkonce_odr dso_local noundef nonnull align 1 dereferenceable(1) ptr @_ZNSt10unique_ptrINSt7__cxx1112basic_stringIcSt11char_traitsIcESaIcEEESt14default_deleteIS5_EE11get_deleterEv(ptr noundef nonnull align 8 dereferenceable(8) %this) #5 comdat align 2 {
entry:
  %this.addr = alloca ptr, align 8
  store ptr %this, ptr %this.addr, align 8
  %this1 = load ptr, ptr %this.addr, align 8
  %_M_t = getelementptr inbounds %"class.std::unique_ptr.15", ptr %this1, i32 0, i32 0
  %call = call noundef nonnull align 1 dereferenceable(1) ptr @_ZNSt15__uniq_ptr_implINSt7__cxx1112basic_stringIcSt11char_traitsIcESaIcEEESt14default_deleteIS5_EE10_M_deleterEv(ptr noundef nonnull align 8 dereferenceable(8) %_M_t) #3
  ret ptr %call
}

declare noundef nonnull align 8 dereferenceable(8) ptr @_ZStlsISt11char_traitsIcEERSt13basic_ostreamIcT_ES5_PKc(ptr noundef nonnull align 8 dereferenceable(8), ptr noundef) #1

; Function Attrs: mustprogress nounwind uwtable
define linkonce_odr dso_local noundef nonnull align 8 dereferenceable(128) ptr @_ZNKSt10unique_ptrINSt7__cxx1118basic_stringstreamIcSt11char_traitsIcESaIcEEESt14default_deleteIS5_EEdeEv(ptr noundef nonnull align 8 dereferenceable(8) %this) #5 comdat align 2 {
entry:
  %this.addr = alloca ptr, align 8
  store ptr %this, ptr %this.addr, align 8
  %this1 = load ptr, ptr %this.addr, align 8
  br label %do.body

do.body:                                          ; preds = %entry
  br label %do.cond

do.cond:                                          ; preds = %do.body
  br label %do.end

do.end:                                           ; preds = %do.cond
  %call = call noundef ptr @_ZNKSt10unique_ptrINSt7__cxx1118basic_stringstreamIcSt11char_traitsIcESaIcEEESt14default_deleteIS5_EE3getEv(ptr noundef nonnull align 8 dereferenceable(8) %this1) #3
  ret ptr %call
}

; Function Attrs: mustprogress nounwind uwtable
define linkonce_odr dso_local noundef ptr @_ZNKSt10unique_ptrINSt7__cxx1118basic_stringstreamIcSt11char_traitsIcESaIcEEESt14default_deleteIS5_EE3getEv(ptr noundef nonnull align 8 dereferenceable(8) %this) #5 comdat align 2 {
entry:
  %this.addr = alloca ptr, align 8
  store ptr %this, ptr %this.addr, align 8
  %this1 = load ptr, ptr %this.addr, align 8
  %_M_t = getelementptr inbounds %"class.std::unique_ptr.23", ptr %this1, i32 0, i32 0
  %call = call noundef ptr @_ZNKSt15__uniq_ptr_implINSt7__cxx1118basic_stringstreamIcSt11char_traitsIcESaIcEEESt14default_deleteIS5_EE6_M_ptrEv(ptr noundef nonnull align 8 dereferenceable(8) %_M_t) #3
  ret ptr %call
}

; Function Attrs: mustprogress nounwind uwtable
define linkonce_odr dso_local noundef ptr @_ZNKSt15__uniq_ptr_implINSt7__cxx1118basic_stringstreamIcSt11char_traitsIcESaIcEEESt14default_deleteIS5_EE6_M_ptrEv(ptr noundef nonnull align 8 dereferenceable(8) %this) #5 comdat align 2 {
entry:
  %this.addr = alloca ptr, align 8
  store ptr %this, ptr %this.addr, align 8
  %this1 = load ptr, ptr %this.addr, align 8
  %_M_t = getelementptr inbounds %"class.std::__uniq_ptr_impl.25", ptr %this1, i32 0, i32 0
  %call = call noundef nonnull align 8 dereferenceable(8) ptr @_ZSt3getILm0EJPNSt7__cxx1118basic_stringstreamIcSt11char_traitsIcESaIcEEESt14default_deleteIS5_EEERKNSt13tuple_elementIXT_ESt5tupleIJDpT0_EEE4typeERKSD_(ptr noundef nonnull align 8 dereferenceable(8) %_M_t) #3
  %0 = load ptr, ptr %call, align 8
  ret ptr %0
}

; Function Attrs: mustprogress nounwind uwtable
define linkonce_odr dso_local noundef nonnull align 8 dereferenceable(8) ptr @_ZSt3getILm0EJPNSt7__cxx1118basic_stringstreamIcSt11char_traitsIcESaIcEEESt14default_deleteIS5_EEERKNSt13tuple_elementIXT_ESt5tupleIJDpT0_EEE4typeERKSD_(ptr noundef nonnull align 8 dereferenceable(8) %__t) #5 comdat {
entry:
  %__t.addr = alloca ptr, align 8
  store ptr %__t, ptr %__t.addr, align 8
  %0 = load ptr, ptr %__t.addr, align 8
  %call = call noundef nonnull align 8 dereferenceable(8) ptr @_ZSt12__get_helperILm0EPNSt7__cxx1118basic_stringstreamIcSt11char_traitsIcESaIcEEEJSt14default_deleteIS5_EEERKT0_RKSt11_Tuple_implIXT_EJS9_DpT1_EE(ptr noundef nonnull align 8 dereferenceable(8) %0) #3
  ret ptr %call
}

; Function Attrs: mustprogress nounwind uwtable
define linkonce_odr dso_local noundef nonnull align 8 dereferenceable(8) ptr @_ZSt12__get_helperILm0EPNSt7__cxx1118basic_stringstreamIcSt11char_traitsIcESaIcEEEJSt14default_deleteIS5_EEERKT0_RKSt11_Tuple_implIXT_EJS9_DpT1_EE(ptr noundef nonnull align 8 dereferenceable(8) %__t) #5 comdat {
entry:
  %__t.addr = alloca ptr, align 8
  store ptr %__t, ptr %__t.addr, align 8
  %0 = load ptr, ptr %__t.addr, align 8
  %call = call noundef nonnull align 8 dereferenceable(8) ptr @_ZNSt11_Tuple_implILm0EJPNSt7__cxx1118basic_stringstreamIcSt11char_traitsIcESaIcEEESt14default_deleteIS5_EEE7_M_headERKS9_(ptr noundef nonnull align 8 dereferenceable(8) %0) #3
  ret ptr %call
}

; Function Attrs: mustprogress nounwind uwtable
define linkonce_odr dso_local noundef nonnull align 8 dereferenceable(8) ptr @_ZNSt11_Tuple_implILm0EJPNSt7__cxx1118basic_stringstreamIcSt11char_traitsIcESaIcEEESt14default_deleteIS5_EEE7_M_headERKS9_(ptr noundef nonnull align 8 dereferenceable(8) %__t) #5 comdat align 2 {
entry:
  %__t.addr = alloca ptr, align 8
  store ptr %__t, ptr %__t.addr, align 8
  %0 = load ptr, ptr %__t.addr, align 8
  %call = call noundef nonnull align 8 dereferenceable(8) ptr @_ZNSt10_Head_baseILm0EPNSt7__cxx1118basic_stringstreamIcSt11char_traitsIcESaIcEEELb0EE7_M_headERKS7_(ptr noundef nonnull align 8 dereferenceable(8) %0) #3
  ret ptr %call
}

; Function Attrs: mustprogress nounwind uwtable
define linkonce_odr dso_local noundef nonnull align 8 dereferenceable(8) ptr @_ZNSt10_Head_baseILm0EPNSt7__cxx1118basic_stringstreamIcSt11char_traitsIcESaIcEEELb0EE7_M_headERKS7_(ptr noundef nonnull align 8 dereferenceable(8) %__b) #5 comdat align 2 {
entry:
  %__b.addr = alloca ptr, align 8
  store ptr %__b, ptr %__b.addr, align 8
  %0 = load ptr, ptr %__b.addr, align 8
  %_M_head_impl = getelementptr inbounds %"struct.std::_Head_base.30", ptr %0, i32 0, i32 0
  ret ptr %_M_head_impl
}

; Function Attrs: mustprogress uwtable
define linkonce_odr dso_local noundef nonnull align 8 dereferenceable(8) ptr @_ZN7testing7MessagelsIKcEERS0_RKPT_(ptr noundef nonnull align 8 dereferenceable(8) %this, ptr noundef nonnull align 8 dereferenceable(8) %pointer) #4 comdat align 2 {
entry:
  %this.addr = alloca ptr, align 8
  %pointer.addr = alloca ptr, align 8
  store ptr %this, ptr %this.addr, align 8
  store ptr %pointer, ptr %pointer.addr, align 8
  %this1 = load ptr, ptr %this.addr, align 8
  %0 = load ptr, ptr %pointer.addr, align 8
  %1 = load ptr, ptr %0, align 8
  %cmp = icmp eq ptr %1, null
  br i1 %cmp, label %if.then, label %if.else

if.then:                                          ; preds = %entry
  %ss_ = getelementptr inbounds %"class.testing::Message", ptr %this1, i32 0, i32 0
  %call = call noundef nonnull align 8 dereferenceable(128) ptr @_ZNKSt10unique_ptrINSt7__cxx1118basic_stringstreamIcSt11char_traitsIcESaIcEEESt14default_deleteIS5_EEdeEv(ptr noundef nonnull align 8 dereferenceable(8) %ss_) #3
  %add.ptr = getelementptr inbounds i8, ptr %call, i64 16
  %call2 = call noundef nonnull align 8 dereferenceable(8) ptr @_ZStlsISt11char_traitsIcEERSt13basic_ostreamIcT_ES5_PKc(ptr noundef nonnull align 8 dereferenceable(8) %add.ptr, ptr noundef @.str.45)
  br label %if.end

if.else:                                          ; preds = %entry
  %ss_3 = getelementptr inbounds %"class.testing::Message", ptr %this1, i32 0, i32 0
  %call4 = call noundef nonnull align 8 dereferenceable(128) ptr @_ZNKSt10unique_ptrINSt7__cxx1118basic_stringstreamIcSt11char_traitsIcESaIcEEESt14default_deleteIS5_EEdeEv(ptr noundef nonnull align 8 dereferenceable(8) %ss_3) #3
  %add.ptr5 = getelementptr inbounds i8, ptr %call4, i64 16
  %2 = load ptr, ptr %pointer.addr, align 8
  %3 = load ptr, ptr %2, align 8
  %call6 = call noundef nonnull align 8 dereferenceable(8) ptr @_ZStlsISt11char_traitsIcEERSt13basic_ostreamIcT_ES5_PKc(ptr noundef nonnull align 8 dereferenceable(8) %add.ptr5, ptr noundef %3)
  br label %if.end

if.end:                                           ; preds = %if.else, %if.then
  ret ptr %this1
}

; Function Attrs: mustprogress uwtable
define linkonce_odr dso_local noundef nonnull align 8 dereferenceable(8) ptr @_ZN7testing7MessagelsIA3_cEERS0_RKT_(ptr noundef nonnull align 8 dereferenceable(8) %this, ptr noundef nonnull align 1 dereferenceable(3) %val) #4 comdat align 2 {
entry:
  %this.addr = alloca ptr, align 8
  %val.addr = alloca ptr, align 8
  store ptr %this, ptr %this.addr, align 8
  store ptr %val, ptr %val.addr, align 8
  %this1 = load ptr, ptr %this.addr, align 8
  %ss_ = getelementptr inbounds %"class.testing::Message", ptr %this1, i32 0, i32 0
  %call = call noundef nonnull align 8 dereferenceable(128) ptr @_ZNKSt10unique_ptrINSt7__cxx1118basic_stringstreamIcSt11char_traitsIcESaIcEEESt14default_deleteIS5_EEdeEv(ptr noundef nonnull align 8 dereferenceable(8) %ss_) #3
  %add.ptr = getelementptr inbounds i8, ptr %call, i64 16
  %0 = load ptr, ptr %val.addr, align 8
  %arraydecay = getelementptr inbounds [3 x i8], ptr %0, i64 0, i64 0
  %call2 = call noundef nonnull align 8 dereferenceable(8) ptr @_ZStlsISt11char_traitsIcEERSt13basic_ostreamIcT_ES5_PKc(ptr noundef nonnull align 8 dereferenceable(8) %add.ptr, ptr noundef %arraydecay)
  ret ptr %this1
}

; Function Attrs: mustprogress uwtable
define linkonce_odr dso_local noundef nonnull align 8 dereferenceable(8) ptr @_ZN7testing7MessagelsINSt7__cxx1112basic_stringIcSt11char_traitsIcESaIcEEEEERS0_RKT_(ptr noundef nonnull align 8 dereferenceable(8) %this, ptr noundef nonnull align 8 dereferenceable(32) %val) #4 comdat align 2 {
entry:
  %this.addr = alloca ptr, align 8
  %val.addr = alloca ptr, align 8
  store ptr %this, ptr %this.addr, align 8
  store ptr %val, ptr %val.addr, align 8
  %this1 = load ptr, ptr %this.addr, align 8
  %ss_ = getelementptr inbounds %"class.testing::Message", ptr %this1, i32 0, i32 0
  %call = call noundef nonnull align 8 dereferenceable(128) ptr @_ZNKSt10unique_ptrINSt7__cxx1118basic_stringstreamIcSt11char_traitsIcESaIcEEESt14default_deleteIS5_EEdeEv(ptr noundef nonnull align 8 dereferenceable(8) %ss_) #3
  %add.ptr = getelementptr inbounds i8, ptr %call, i64 16
  %0 = load ptr, ptr %val.addr, align 8
  %call2 = call noundef nonnull align 8 dereferenceable(8) ptr @_ZStlsIcSt11char_traitsIcESaIcEERSt13basic_ostreamIT_T0_ES7_RKNSt7__cxx1112basic_stringIS4_S5_T1_EE(ptr noundef nonnull align 8 dereferenceable(8) %add.ptr, ptr noundef nonnull align 8 dereferenceable(32) %0)
  ret ptr %this1
}

declare noundef nonnull align 8 dereferenceable(8) ptr @_ZStlsIcSt11char_traitsIcESaIcEERSt13basic_ostreamIT_T0_ES7_RKNSt7__cxx1112basic_stringIS4_S5_T1_EE(ptr noundef nonnull align 8 dereferenceable(8), ptr noundef nonnull align 8 dereferenceable(32)) #1

; Function Attrs: mustprogress uwtable
define linkonce_odr dso_local void @_ZN7testing8internal19FormatForComparisonIifE6FormatB5cxx11ERKi(ptr noalias sret(%"class.std::__cxx11::basic_string") align 8 %agg.result, ptr noundef nonnull align 4 dereferenceable(4) %value) #4 comdat align 2 {
entry:
  %result.ptr = alloca ptr, align 8
  %value.addr = alloca ptr, align 8
  store ptr %agg.result, ptr %result.ptr, align 8
  store ptr %value, ptr %value.addr, align 8
  %0 = load ptr, ptr %value.addr, align 8
  call void @_ZN7testing13PrintToStringIiEENSt7__cxx1112basic_stringIcSt11char_traitsIcESaIcEEERKT_(ptr sret(%"class.std::__cxx11::basic_string") align 8 %agg.result, ptr noundef nonnull align 4 dereferenceable(4) %0)
  ret void
}

; Function Attrs: mustprogress uwtable
define linkonce_odr dso_local void @_ZN7testing13PrintToStringIiEENSt7__cxx1112basic_stringIcSt11char_traitsIcESaIcEEERKT_(ptr noalias sret(%"class.std::__cxx11::basic_string") align 8 %agg.result, ptr noundef nonnull align 4 dereferenceable(4) %value) #4 comdat personality ptr @__gxx_personality_v0 {
entry:
  %result.ptr = alloca ptr, align 8
  %value.addr = alloca ptr, align 8
  %ss = alloca %"class.std::__cxx11::basic_stringstream", align 8
  %exn.slot = alloca ptr, align 8
  %ehselector.slot = alloca i32, align 4
  store ptr %agg.result, ptr %result.ptr, align 8
  store ptr %value, ptr %value.addr, align 8
  call void @_ZNSt7__cxx1118basic_stringstreamIcSt11char_traitsIcESaIcEEC1Ev(ptr noundef nonnull align 8 dereferenceable(128) %ss)
  %0 = load ptr, ptr %value.addr, align 8
  %1 = icmp eq ptr %ss, null
  br i1 %1, label %cast.end, label %cast.notnull

cast.notnull:                                     ; preds = %entry
  %add.ptr = getelementptr inbounds i8, ptr %ss, i64 16
  br label %cast.end

cast.end:                                         ; preds = %cast.notnull, %entry
  %cast.result = phi ptr [ %add.ptr, %cast.notnull ], [ null, %entry ]
  invoke void @_ZN7testing8internal21UniversalTersePrinterIiE5PrintERKiPSo(ptr noundef nonnull align 4 dereferenceable(4) %0, ptr noundef %cast.result)
          to label %invoke.cont unwind label %lpad

invoke.cont:                                      ; preds = %cast.end
  invoke void @_ZNKSt7__cxx1118basic_stringstreamIcSt11char_traitsIcESaIcEE3strEv(ptr sret(%"class.std::__cxx11::basic_string") align 8 %agg.result, ptr noundef nonnull align 8 dereferenceable(128) %ss)
          to label %invoke.cont1 unwind label %lpad

invoke.cont1:                                     ; preds = %invoke.cont
  call void @_ZNSt7__cxx1118basic_stringstreamIcSt11char_traitsIcESaIcEED1Ev(ptr noundef nonnull align 8 dereferenceable(128) %ss) #3
  ret void

lpad:                                             ; preds = %invoke.cont, %cast.end
  %2 = landingpad { ptr, i32 }
          cleanup
  %3 = extractvalue { ptr, i32 } %2, 0
  store ptr %3, ptr %exn.slot, align 8
  %4 = extractvalue { ptr, i32 } %2, 1
  store i32 %4, ptr %ehselector.slot, align 4
  call void @_ZNSt7__cxx1118basic_stringstreamIcSt11char_traitsIcESaIcEED1Ev(ptr noundef nonnull align 8 dereferenceable(128) %ss) #3
  br label %eh.resume

eh.resume:                                        ; preds = %lpad
  %exn = load ptr, ptr %exn.slot, align 8
  %sel = load i32, ptr %ehselector.slot, align 4
  %lpad.val = insertvalue { ptr, i32 } poison, ptr %exn, 0
  %lpad.val2 = insertvalue { ptr, i32 } %lpad.val, i32 %sel, 1
  resume { ptr, i32 } %lpad.val2
}

declare void @_ZNSt7__cxx1118basic_stringstreamIcSt11char_traitsIcESaIcEEC1Ev(ptr noundef nonnull align 8 dereferenceable(128)) unnamed_addr #1

; Function Attrs: mustprogress uwtable
define linkonce_odr dso_local void @_ZN7testing8internal21UniversalTersePrinterIiE5PrintERKiPSo(ptr noundef nonnull align 4 dereferenceable(4) %value, ptr noundef %os) #4 comdat align 2 {
entry:
  %value.addr = alloca ptr, align 8
  %os.addr = alloca ptr, align 8
  store ptr %value, ptr %value.addr, align 8
  store ptr %os, ptr %os.addr, align 8
  %0 = load ptr, ptr %value.addr, align 8
  %1 = load ptr, ptr %os.addr, align 8
  call void @_ZN7testing8internal14UniversalPrintIiEEvRKT_PSo(ptr noundef nonnull align 4 dereferenceable(4) %0, ptr noundef %1)
  ret void
}

declare void @_ZNKSt7__cxx1118basic_stringstreamIcSt11char_traitsIcESaIcEE3strEv(ptr sret(%"class.std::__cxx11::basic_string") align 8, ptr noundef nonnull align 8 dereferenceable(128)) #1

; Function Attrs: nounwind
declare void @_ZNSt7__cxx1118basic_stringstreamIcSt11char_traitsIcESaIcEED1Ev(ptr noundef nonnull align 8 dereferenceable(128)) unnamed_addr #2

; Function Attrs: mustprogress uwtable
define linkonce_odr dso_local void @_ZN7testing8internal14UniversalPrintIiEEvRKT_PSo(ptr noundef nonnull align 4 dereferenceable(4) %value, ptr noundef %os) #4 comdat {
entry:
  %value.addr = alloca ptr, align 8
  %os.addr = alloca ptr, align 8
  store ptr %value, ptr %value.addr, align 8
  store ptr %os, ptr %os.addr, align 8
  %0 = load ptr, ptr %value.addr, align 8
  %1 = load ptr, ptr %os.addr, align 8
  call void @_ZN7testing8internal16UniversalPrinterIiE5PrintERKiPSo(ptr noundef nonnull align 4 dereferenceable(4) %0, ptr noundef %1)
  ret void
}

; Function Attrs: mustprogress uwtable
define linkonce_odr dso_local void @_ZN7testing8internal16UniversalPrinterIiE5PrintERKiPSo(ptr noundef nonnull align 4 dereferenceable(4) %value, ptr noundef %os) #4 comdat align 2 {
entry:
  %value.addr = alloca ptr, align 8
  %os.addr = alloca ptr, align 8
  store ptr %value, ptr %value.addr, align 8
  store ptr %os, ptr %os.addr, align 8
  %0 = load ptr, ptr %value.addr, align 8
  %1 = load ptr, ptr %os.addr, align 8
  call void @_ZN7testing8internal7PrintToIiEEvRKT_PSo(ptr noundef nonnull align 4 dereferenceable(4) %0, ptr noundef %1)
  ret void
}

; Function Attrs: mustprogress uwtable
define linkonce_odr dso_local void @_ZN7testing8internal7PrintToIiEEvRKT_PSo(ptr noundef nonnull align 4 dereferenceable(4) %value, ptr noundef %os) #4 comdat {
entry:
  %value.addr = alloca ptr, align 8
  %os.addr = alloca ptr, align 8
  store ptr %value, ptr %value.addr, align 8
  store ptr %os, ptr %os.addr, align 8
  %0 = load ptr, ptr %value.addr, align 8
  %1 = load ptr, ptr %os.addr, align 8
  call void @_ZN7testing8internal17PrintWithFallbackIiEEvRKT_PSo(ptr noundef nonnull align 4 dereferenceable(4) %0, ptr noundef %1)
  ret void
}

; Function Attrs: mustprogress uwtable
define linkonce_odr dso_local void @_ZN7testing8internal17PrintWithFallbackIiEEvRKT_PSo(ptr noundef nonnull align 4 dereferenceable(4) %value, ptr noundef %os) #4 comdat {
entry:
  %value.addr = alloca ptr, align 8
  %os.addr = alloca ptr, align 8
  store ptr %value, ptr %value.addr, align 8
  store ptr %os, ptr %os.addr, align 8
  %0 = load ptr, ptr %value.addr, align 8
  %1 = load ptr, ptr %os.addr, align 8
  call void @_ZN7testing8internal52internal_stream_operator_without_lexical_name_lookup13StreamPrinter10PrintValueIivEEDTcvvlsdefp0_fp_ERKT_PSo(ptr noundef nonnull align 4 dereferenceable(4) %0, ptr noundef %1)
  ret void
}

; Function Attrs: mustprogress uwtable
define linkonce_odr dso_local void @_ZN7testing8internal52internal_stream_operator_without_lexical_name_lookup13StreamPrinter10PrintValueIivEEDTcvvlsdefp0_fp_ERKT_PSo(ptr noundef nonnull align 4 dereferenceable(4) %value, ptr noundef %os) #4 comdat align 2 {
entry:
  %value.addr = alloca ptr, align 8
  %os.addr = alloca ptr, align 8
  store ptr %value, ptr %value.addr, align 8
  store ptr %os, ptr %os.addr, align 8
  %0 = load ptr, ptr %os.addr, align 8
  %1 = load ptr, ptr %value.addr, align 8
  %2 = load i32, ptr %1, align 4
  %call = call noundef nonnull align 8 dereferenceable(8) ptr @_ZNSolsEi(ptr noundef nonnull align 8 dereferenceable(8) %0, i32 noundef %2)
  ret void
}

declare noundef nonnull align 8 dereferenceable(8) ptr @_ZNSolsEi(ptr noundef nonnull align 8 dereferenceable(8), i32 noundef) #1

; Function Attrs: mustprogress uwtable
define linkonce_odr dso_local noundef nonnull align 8 dereferenceable(8) ptr @_ZN7testing7MessagelsIA5_cEERS0_RKT_(ptr noundef nonnull align 8 dereferenceable(8) %this, ptr noundef nonnull align 1 dereferenceable(5) %val) #4 comdat align 2 {
entry:
  %this.addr = alloca ptr, align 8
  %val.addr = alloca ptr, align 8
  store ptr %this, ptr %this.addr, align 8
  store ptr %val, ptr %val.addr, align 8
  %this1 = load ptr, ptr %this.addr, align 8
  %ss_ = getelementptr inbounds %"class.testing::Message", ptr %this1, i32 0, i32 0
  %call = call noundef nonnull align 8 dereferenceable(128) ptr @_ZNKSt10unique_ptrINSt7__cxx1118basic_stringstreamIcSt11char_traitsIcESaIcEEESt14default_deleteIS5_EEdeEv(ptr noundef nonnull align 8 dereferenceable(8) %ss_) #3
  %add.ptr = getelementptr inbounds i8, ptr %call, i64 16
  %0 = load ptr, ptr %val.addr, align 8
  %arraydecay = getelementptr inbounds [5 x i8], ptr %0, i64 0, i64 0
  %call2 = call noundef nonnull align 8 dereferenceable(8) ptr @_ZStlsISt11char_traitsIcEERSt13basic_ostreamIcT_ES5_PKc(ptr noundef nonnull align 8 dereferenceable(8) %add.ptr, ptr noundef %arraydecay)
  ret ptr %this1
}

; Function Attrs: mustprogress uwtable
define linkonce_odr dso_local void @_ZN7testing8internal19FormatForComparisonIfiE6FormatB5cxx11ERKf(ptr noalias sret(%"class.std::__cxx11::basic_string") align 8 %agg.result, ptr noundef nonnull align 4 dereferenceable(4) %value) #4 comdat align 2 {
entry:
  %result.ptr = alloca ptr, align 8
  %value.addr = alloca ptr, align 8
  store ptr %agg.result, ptr %result.ptr, align 8
  store ptr %value, ptr %value.addr, align 8
  %0 = load ptr, ptr %value.addr, align 8
  call void @_ZN7testing13PrintToStringIfEENSt7__cxx1112basic_stringIcSt11char_traitsIcESaIcEEERKT_(ptr sret(%"class.std::__cxx11::basic_string") align 8 %agg.result, ptr noundef nonnull align 4 dereferenceable(4) %0)
  ret void
}

; Function Attrs: mustprogress uwtable
define linkonce_odr dso_local void @_ZN7testing13PrintToStringIfEENSt7__cxx1112basic_stringIcSt11char_traitsIcESaIcEEERKT_(ptr noalias sret(%"class.std::__cxx11::basic_string") align 8 %agg.result, ptr noundef nonnull align 4 dereferenceable(4) %value) #4 comdat personality ptr @__gxx_personality_v0 {
entry:
  %result.ptr = alloca ptr, align 8
  %value.addr = alloca ptr, align 8
  %ss = alloca %"class.std::__cxx11::basic_stringstream", align 8
  %exn.slot = alloca ptr, align 8
  %ehselector.slot = alloca i32, align 4
  store ptr %agg.result, ptr %result.ptr, align 8
  store ptr %value, ptr %value.addr, align 8
  call void @_ZNSt7__cxx1118basic_stringstreamIcSt11char_traitsIcESaIcEEC1Ev(ptr noundef nonnull align 8 dereferenceable(128) %ss)
  %0 = load ptr, ptr %value.addr, align 8
  %1 = icmp eq ptr %ss, null
  br i1 %1, label %cast.end, label %cast.notnull

cast.notnull:                                     ; preds = %entry
  %add.ptr = getelementptr inbounds i8, ptr %ss, i64 16
  br label %cast.end

cast.end:                                         ; preds = %cast.notnull, %entry
  %cast.result = phi ptr [ %add.ptr, %cast.notnull ], [ null, %entry ]
  invoke void @_ZN7testing8internal21UniversalTersePrinterIfE5PrintERKfPSo(ptr noundef nonnull align 4 dereferenceable(4) %0, ptr noundef %cast.result)
          to label %invoke.cont unwind label %lpad

invoke.cont:                                      ; preds = %cast.end
  invoke void @_ZNKSt7__cxx1118basic_stringstreamIcSt11char_traitsIcESaIcEE3strEv(ptr sret(%"class.std::__cxx11::basic_string") align 8 %agg.result, ptr noundef nonnull align 8 dereferenceable(128) %ss)
          to label %invoke.cont1 unwind label %lpad

invoke.cont1:                                     ; preds = %invoke.cont
  call void @_ZNSt7__cxx1118basic_stringstreamIcSt11char_traitsIcESaIcEED1Ev(ptr noundef nonnull align 8 dereferenceable(128) %ss) #3
  ret void

lpad:                                             ; preds = %invoke.cont, %cast.end
  %2 = landingpad { ptr, i32 }
          cleanup
  %3 = extractvalue { ptr, i32 } %2, 0
  store ptr %3, ptr %exn.slot, align 8
  %4 = extractvalue { ptr, i32 } %2, 1
  store i32 %4, ptr %ehselector.slot, align 4
  call void @_ZNSt7__cxx1118basic_stringstreamIcSt11char_traitsIcESaIcEED1Ev(ptr noundef nonnull align 8 dereferenceable(128) %ss) #3
  br label %eh.resume

eh.resume:                                        ; preds = %lpad
  %exn = load ptr, ptr %exn.slot, align 8
  %sel = load i32, ptr %ehselector.slot, align 4
  %lpad.val = insertvalue { ptr, i32 } poison, ptr %exn, 0
  %lpad.val2 = insertvalue { ptr, i32 } %lpad.val, i32 %sel, 1
  resume { ptr, i32 } %lpad.val2
}

; Function Attrs: mustprogress uwtable
define linkonce_odr dso_local void @_ZN7testing8internal21UniversalTersePrinterIfE5PrintERKfPSo(ptr noundef nonnull align 4 dereferenceable(4) %value, ptr noundef %os) #4 comdat align 2 {
entry:
  %value.addr = alloca ptr, align 8
  %os.addr = alloca ptr, align 8
  store ptr %value, ptr %value.addr, align 8
  store ptr %os, ptr %os.addr, align 8
  %0 = load ptr, ptr %value.addr, align 8
  %1 = load ptr, ptr %os.addr, align 8
  call void @_ZN7testing8internal14UniversalPrintIfEEvRKT_PSo(ptr noundef nonnull align 4 dereferenceable(4) %0, ptr noundef %1)
  ret void
}

; Function Attrs: mustprogress uwtable
define linkonce_odr dso_local void @_ZN7testing8internal14UniversalPrintIfEEvRKT_PSo(ptr noundef nonnull align 4 dereferenceable(4) %value, ptr noundef %os) #4 comdat {
entry:
  %value.addr = alloca ptr, align 8
  %os.addr = alloca ptr, align 8
  store ptr %value, ptr %value.addr, align 8
  store ptr %os, ptr %os.addr, align 8
  %0 = load ptr, ptr %value.addr, align 8
  %1 = load ptr, ptr %os.addr, align 8
  call void @_ZN7testing8internal16UniversalPrinterIfE5PrintERKfPSo(ptr noundef nonnull align 4 dereferenceable(4) %0, ptr noundef %1)
  ret void
}

; Function Attrs: mustprogress uwtable
define linkonce_odr dso_local void @_ZN7testing8internal16UniversalPrinterIfE5PrintERKfPSo(ptr noundef nonnull align 4 dereferenceable(4) %value, ptr noundef %os) #4 comdat align 2 {
entry:
  %value.addr = alloca ptr, align 8
  %os.addr = alloca ptr, align 8
  store ptr %value, ptr %value.addr, align 8
  store ptr %os, ptr %os.addr, align 8
  %0 = load ptr, ptr %value.addr, align 8
  %1 = load float, ptr %0, align 4
  %2 = load ptr, ptr %os.addr, align 8
  call void @_ZN7testing8internal7PrintToEfPSo(float noundef %1, ptr noundef %2)
  ret void
}

; Function Attrs: mustprogress uwtable
define linkonce_odr dso_local void @_ZN7testing8internal7PrintToEfPSo(float noundef %f, ptr noundef %os) #4 comdat {
entry:
  %f.addr = alloca float, align 4
  %os.addr = alloca ptr, align 8
  %old_precision = alloca i64, align 8
  store float %f, ptr %f.addr, align 4
  store ptr %os, ptr %os.addr, align 8
  %0 = load ptr, ptr %os.addr, align 8
  %vtable = load ptr, ptr %0, align 8
  %vbase.offset.ptr = getelementptr i8, ptr %vtable, i64 -24
  %vbase.offset = load i64, ptr %vbase.offset.ptr, align 8
  %add.ptr = getelementptr inbounds i8, ptr %0, i64 %vbase.offset
  %call = call noundef i64 @_ZNKSt8ios_base9precisionEv(ptr noundef nonnull align 8 dereferenceable(216) %add.ptr)
  store i64 %call, ptr %old_precision, align 8
  %1 = load ptr, ptr %os.addr, align 8
  %vtable1 = load ptr, ptr %1, align 8
  %vbase.offset.ptr2 = getelementptr i8, ptr %vtable1, i64 -24
  %vbase.offset3 = load i64, ptr %vbase.offset.ptr2, align 8
  %add.ptr4 = getelementptr inbounds i8, ptr %1, i64 %vbase.offset3
  %2 = load float, ptr %f.addr, align 4
  %call5 = call noundef i32 @_ZN7testing8internal21AppropriateResolutionIfEEiT_(float noundef %2)
  %conv = sext i32 %call5 to i64
  %call6 = call noundef i64 @_ZNSt8ios_base9precisionEl(ptr noundef nonnull align 8 dereferenceable(216) %add.ptr4, i64 noundef %conv)
  %3 = load ptr, ptr %os.addr, align 8
  %4 = load float, ptr %f.addr, align 4
  %call7 = call noundef nonnull align 8 dereferenceable(8) ptr @_ZNSolsEf(ptr noundef nonnull align 8 dereferenceable(8) %3, float noundef %4)
  %5 = load ptr, ptr %os.addr, align 8
  %vtable8 = load ptr, ptr %5, align 8
  %vbase.offset.ptr9 = getelementptr i8, ptr %vtable8, i64 -24
  %vbase.offset10 = load i64, ptr %vbase.offset.ptr9, align 8
  %add.ptr11 = getelementptr inbounds i8, ptr %5, i64 %vbase.offset10
  %6 = load i64, ptr %old_precision, align 8
  %call12 = call noundef i64 @_ZNSt8ios_base9precisionEl(ptr noundef nonnull align 8 dereferenceable(216) %add.ptr11, i64 noundef %6)
  ret void
}

; Function Attrs: mustprogress nounwind uwtable
define linkonce_odr dso_local noundef i64 @_ZNKSt8ios_base9precisionEv(ptr noundef nonnull align 8 dereferenceable(216) %this) #5 comdat align 2 {
entry:
  %this.addr = alloca ptr, align 8
  store ptr %this, ptr %this.addr, align 8
  %this1 = load ptr, ptr %this.addr, align 8
  %_M_precision = getelementptr inbounds %"class.std::ios_base", ptr %this1, i32 0, i32 1
  %0 = load i64, ptr %_M_precision, align 8
  ret i64 %0
}

; Function Attrs: mustprogress nounwind uwtable
define linkonce_odr dso_local noundef i64 @_ZNSt8ios_base9precisionEl(ptr noundef nonnull align 8 dereferenceable(216) %this, i64 noundef %__prec) #5 comdat align 2 {
entry:
  %this.addr = alloca ptr, align 8
  %__prec.addr = alloca i64, align 8
  %__old = alloca i64, align 8
  store ptr %this, ptr %this.addr, align 8
  store i64 %__prec, ptr %__prec.addr, align 8
  %this1 = load ptr, ptr %this.addr, align 8
  %_M_precision = getelementptr inbounds %"class.std::ios_base", ptr %this1, i32 0, i32 1
  %0 = load i64, ptr %_M_precision, align 8
  store i64 %0, ptr %__old, align 8
  %1 = load i64, ptr %__prec.addr, align 8
  %_M_precision2 = getelementptr inbounds %"class.std::ios_base", ptr %this1, i32 0, i32 1
  store i64 %1, ptr %_M_precision2, align 8
  %2 = load i64, ptr %__old, align 8
  ret i64 %2
}

; Function Attrs: mustprogress nounwind uwtable
define linkonce_odr dso_local noundef i32 @_ZN7testing8internal21AppropriateResolutionIfEEiT_(float noundef %val) #5 comdat {
entry:
  %retval = alloca i32, align 4
  %val.addr = alloca float, align 4
  %full = alloca i32, align 4
  %mulfor6 = alloca float, align 4
  %divfor6 = alloca float, align 4
  store float %val, ptr %val.addr, align 4
  store i32 9, ptr %full, align 4
  %0 = load float, ptr %val.addr, align 4
  %cmp = fcmp olt float %0, 0.000000e+00
  br i1 %cmp, label %if.then, label %if.end

if.then:                                          ; preds = %entry
  %1 = load float, ptr %val.addr, align 4
  %fneg = fneg float %1
  store float %fneg, ptr %val.addr, align 4
  br label %if.end

if.end:                                           ; preds = %if.then, %entry
  %2 = load float, ptr %val.addr, align 4
  %cmp1 = fcmp olt float %2, 1.000000e+06
  br i1 %cmp1, label %if.then2, label %if.else56

if.then2:                                         ; preds = %if.end
  store float 1.000000e+10, ptr %mulfor6, align 4
  %3 = load float, ptr %val.addr, align 4
  %conv = fpext float %3 to double
  %cmp3 = fcmp oge double %conv, 1.000000e+05
  br i1 %cmp3, label %if.then4, label %if.else

if.then4:                                         ; preds = %if.then2
  store float 1.000000e+00, ptr %mulfor6, align 4
  br label %if.end49

if.else:                                          ; preds = %if.then2
  %4 = load float, ptr %val.addr, align 4
  %conv5 = fpext float %4 to double
  %cmp6 = fcmp oge double %conv5, 1.000000e+04
  br i1 %cmp6, label %if.then7, label %if.else8

if.then7:                                         ; preds = %if.else
  store float 1.000000e+01, ptr %mulfor6, align 4
  br label %if.end48

if.else8:                                         ; preds = %if.else
  %5 = load float, ptr %val.addr, align 4
  %conv9 = fpext float %5 to double
  %cmp10 = fcmp oge double %conv9, 1.000000e+03
  br i1 %cmp10, label %if.then11, label %if.else12

if.then11:                                        ; preds = %if.else8
  store float 1.000000e+02, ptr %mulfor6, align 4
  br label %if.end47

if.else12:                                        ; preds = %if.else8
  %6 = load float, ptr %val.addr, align 4
  %conv13 = fpext float %6 to double
  %cmp14 = fcmp oge double %conv13, 1.000000e+02
  br i1 %cmp14, label %if.then15, label %if.else16

if.then15:                                        ; preds = %if.else12
  store float 1.000000e+03, ptr %mulfor6, align 4
  br label %if.end46

if.else16:                                        ; preds = %if.else12
  %7 = load float, ptr %val.addr, align 4
  %conv17 = fpext float %7 to double
  %cmp18 = fcmp oge double %conv17, 1.000000e+01
  br i1 %cmp18, label %if.then19, label %if.else20

if.then19:                                        ; preds = %if.else16
  store float 1.000000e+04, ptr %mulfor6, align 4
  br label %if.end45

if.else20:                                        ; preds = %if.else16
  %8 = load float, ptr %val.addr, align 4
  %conv21 = fpext float %8 to double
  %cmp22 = fcmp oge double %conv21, 1.000000e+00
  br i1 %cmp22, label %if.then23, label %if.else24

if.then23:                                        ; preds = %if.else20
  store float 1.000000e+05, ptr %mulfor6, align 4
  br label %if.end44

if.else24:                                        ; preds = %if.else20
  %9 = load float, ptr %val.addr, align 4
  %conv25 = fpext float %9 to double
  %cmp26 = fcmp oge double %conv25, 1.000000e-01
  br i1 %cmp26, label %if.then27, label %if.else28

if.then27:                                        ; preds = %if.else24
  store float 1.000000e+06, ptr %mulfor6, align 4
  br label %if.end43

if.else28:                                        ; preds = %if.else24
  %10 = load float, ptr %val.addr, align 4
  %conv29 = fpext float %10 to double
  %cmp30 = fcmp oge double %conv29, 1.000000e-02
  br i1 %cmp30, label %if.then31, label %if.else32

if.then31:                                        ; preds = %if.else28
  store float 1.000000e+07, ptr %mulfor6, align 4
  br label %if.end42

if.else32:                                        ; preds = %if.else28
  %11 = load float, ptr %val.addr, align 4
  %conv33 = fpext float %11 to double
  %cmp34 = fcmp oge double %conv33, 1.000000e-03
  br i1 %cmp34, label %if.then35, label %if.else36

if.then35:                                        ; preds = %if.else32
  store float 1.000000e+08, ptr %mulfor6, align 4
  br label %if.end41

if.else36:                                        ; preds = %if.else32
  %12 = load float, ptr %val.addr, align 4
  %conv37 = fpext float %12 to double
  %cmp38 = fcmp oge double %conv37, 1.000000e-04
  br i1 %cmp38, label %if.then39, label %if.end40

if.then39:                                        ; preds = %if.else36
  store float 1.000000e+09, ptr %mulfor6, align 4
  br label %if.end40

if.end40:                                         ; preds = %if.then39, %if.else36
  br label %if.end41

if.end41:                                         ; preds = %if.end40, %if.then35
  br label %if.end42

if.end42:                                         ; preds = %if.end41, %if.then31
  br label %if.end43

if.end43:                                         ; preds = %if.end42, %if.then27
  br label %if.end44

if.end44:                                         ; preds = %if.end43, %if.then23
  br label %if.end45

if.end45:                                         ; preds = %if.end44, %if.then19
  br label %if.end46

if.end46:                                         ; preds = %if.end45, %if.then15
  br label %if.end47

if.end47:                                         ; preds = %if.end46, %if.then11
  br label %if.end48

if.end48:                                         ; preds = %if.end47, %if.then7
  br label %if.end49

if.end49:                                         ; preds = %if.end48, %if.then4
  %13 = load float, ptr %val.addr, align 4
  %14 = load float, ptr %mulfor6, align 4
  %mul = fmul float %13, %14
  %conv50 = fpext float %mul to double
  %add = fadd double %conv50, 5.000000e-01
  %conv51 = fptosi double %add to i32
  %conv52 = sitofp i32 %conv51 to float
  %15 = load float, ptr %mulfor6, align 4
  %div = fdiv float %conv52, %15
  %16 = load float, ptr %val.addr, align 4
  %cmp53 = fcmp oeq float %div, %16
  br i1 %cmp53, label %if.then54, label %if.end55

if.then54:                                        ; preds = %if.end49
  store i32 6, ptr %retval, align 4
  br label %return

if.end55:                                         ; preds = %if.end49
  br label %if.end89

if.else56:                                        ; preds = %if.end
  %17 = load float, ptr %val.addr, align 4
  %conv57 = fpext float %17 to double
  %cmp58 = fcmp olt double %conv57, 1.000000e+10
  br i1 %cmp58, label %if.then59, label %if.end88

if.then59:                                        ; preds = %if.else56
  store float 1.000000e+00, ptr %divfor6, align 4
  %18 = load float, ptr %val.addr, align 4
  %conv60 = fpext float %18 to double
  %cmp61 = fcmp oge double %conv60, 1.000000e+09
  br i1 %cmp61, label %if.then62, label %if.else63

if.then62:                                        ; preds = %if.then59
  store float 1.000000e+04, ptr %divfor6, align 4
  br label %if.end78

if.else63:                                        ; preds = %if.then59
  %19 = load float, ptr %val.addr, align 4
  %conv64 = fpext float %19 to double
  %cmp65 = fcmp oge double %conv64, 1.000000e+08
  br i1 %cmp65, label %if.then66, label %if.else67

if.then66:                                        ; preds = %if.else63
  store float 1.000000e+03, ptr %divfor6, align 4
  br label %if.end77

if.else67:                                        ; preds = %if.else63
  %20 = load float, ptr %val.addr, align 4
  %conv68 = fpext float %20 to double
  %cmp69 = fcmp oge double %conv68, 1.000000e+07
  br i1 %cmp69, label %if.then70, label %if.else71

if.then70:                                        ; preds = %if.else67
  store float 1.000000e+02, ptr %divfor6, align 4
  br label %if.end76

if.else71:                                        ; preds = %if.else67
  %21 = load float, ptr %val.addr, align 4
  %conv72 = fpext float %21 to double
  %cmp73 = fcmp oge double %conv72, 1.000000e+06
  br i1 %cmp73, label %if.then74, label %if.end75

if.then74:                                        ; preds = %if.else71
  store float 1.000000e+01, ptr %divfor6, align 4
  br label %if.end75

if.end75:                                         ; preds = %if.then74, %if.else71
  br label %if.end76

if.end76:                                         ; preds = %if.end75, %if.then70
  br label %if.end77

if.end77:                                         ; preds = %if.end76, %if.then66
  br label %if.end78

if.end78:                                         ; preds = %if.end77, %if.then62
  %22 = load float, ptr %val.addr, align 4
  %23 = load float, ptr %divfor6, align 4
  %div79 = fdiv float %22, %23
  %conv80 = fpext float %div79 to double
  %add81 = fadd double %conv80, 5.000000e-01
  %conv82 = fptosi double %add81 to i32
  %conv83 = sitofp i32 %conv82 to float
  %24 = load float, ptr %divfor6, align 4
  %mul84 = fmul float %conv83, %24
  %25 = load float, ptr %val.addr, align 4
  %cmp85 = fcmp oeq float %mul84, %25
  br i1 %cmp85, label %if.then86, label %if.end87

if.then86:                                        ; preds = %if.end78
  store i32 6, ptr %retval, align 4
  br label %return

if.end87:                                         ; preds = %if.end78
  br label %if.end88

if.end88:                                         ; preds = %if.end87, %if.else56
  br label %if.end89

if.end89:                                         ; preds = %if.end88, %if.end55
  %26 = load i32, ptr %full, align 4
  store i32 %26, ptr %retval, align 4
  br label %return

return:                                           ; preds = %if.end89, %if.then86, %if.then54
  %27 = load i32, ptr %retval, align 4
  ret i32 %27
}

declare noundef nonnull align 8 dereferenceable(8) ptr @_ZNSolsEf(ptr noundef nonnull align 8 dereferenceable(8), float noundef) #1

; Function Attrs: mustprogress nounwind uwtable
