target datalayout = "e-m:e-p270:32:32-p271:32:32-p272:64:64-i64:64-i128:128-f80:128-n8:16:32:64-S128"
target triple = "x86_64-unknown-linux-gnu"

%"class.std::ios_base::Init" = type { i8 }
%"struct.absl::IntervalClosedClosedTag" = type { i8 }
%"struct.absl::IntervalOpenOpenTag" = type { i8 }
%"struct.absl::IntervalClosedOpenTag" = type { i8 }
%"struct.absl::IntervalOpenClosedTag" = type { i8 }
%"struct.absl::random_internal::gaussian_distribution_base::Tables" = type { [129 x double], [129 x double] }
%"class.std::basic_ostream" = type { ptr, %"class.std::basic_ios" }
%"class.std::basic_ios" = type { %"class.std::ios_base", ptr, i8, i8, ptr, ptr, ptr, ptr }
%"class.std::ios_base" = type { ptr, i64, i64, i32, i32, i32, ptr, %"struct.std::ios_base::_Words", [8 x %"struct.std::ios_base::_Words"], i32, ptr, %"class.std::locale" }
%"struct.std::ios_base::_Words" = type { ptr, i64 }
%"class.std::locale" = type { ptr }
%"struct.testing::internal::CodeLocation" = type <{ %"class.std::__cxx11::basic_string", i32, [4 x i8] }>
%"class.std::__cxx11::basic_string" = type { %"struct.std::__cxx11::basic_string<char>::_Alloc_hider", i64, %union.anon }
%"struct.std::__cxx11::basic_string<char>::_Alloc_hider" = type { ptr }
%union.anon = type { i64, [8 x i8] }
%"class.std::allocator" = type { i8 }
%"class.testing::internal::GTestLog" = type { i32 }
%"class.std::mersenne_twister_engine" = type { [312 x i64], i64 }
%"class.std::vector" = type { %"struct.std::_Vector_base" }
%"struct.std::_Vector_base" = type { %"struct.std::_Vector_base<int, std::allocator<int>>::_Vector_impl" }
%"struct.std::_Vector_base<int, std::allocator<int>>::_Vector_impl" = type { %"struct.std::_Vector_base<int, std::allocator<int>>::_Vector_impl_data" }
%"struct.std::_Vector_base<int, std::allocator<int>>::_Vector_impl_data" = type { ptr, ptr, ptr }
%"class.std::initializer_list" = type { ptr, i64 }
%"class.std::allocator.5" = type { i8 }
%"class.absl::int128" = type { i128 }
%"class.absl::uint128" = type { i64, i64 }
%"struct.absl::random_internal::UniformDistributionWrapper" = type { %"class.absl::uniform_int_distribution" }
%"class.absl::uniform_int_distribution" = type { %"class.absl::uniform_int_distribution<>::param_type" }
%"class.absl::uniform_int_distribution<>::param_type" = type { i32, i32 }
%"class.absl::random_internal::FastUniformBits" = type { i8 }
%"struct.absl::random_internal::UniformDistributionWrapper.10" = type { %"class.absl::uniform_real_distribution.base", [7 x i8] }
%"class.absl::uniform_real_distribution.base" = type <{ %"class.absl::uniform_real_distribution<>::param_type", %"class.absl::random_internal::FastUniformBits.11" }>
%"class.absl::uniform_real_distribution<>::param_type" = type { double, double, double }
%"class.absl::random_internal::FastUniformBits.11" = type { i8 }
%"class.absl::uniform_real_distribution" = type <{ %"class.absl::uniform_real_distribution<>::param_type", %"class.absl::random_internal::FastUniformBits.11", [7 x i8] }>
%"struct.absl::random_internal::UniformDistributionWrapper.12" = type { %"class.absl::uniform_int_distribution.13" }
%"class.absl::uniform_int_distribution.13" = type { %"class.absl::uniform_int_distribution<long>::param_type" }
%"class.absl::uniform_int_distribution<long>::param_type" = type { i64, i64 }
%"struct.absl::random_internal::UniformDistributionWrapper.14" = type { %"class.absl::uniform_int_distribution.15" }
%"class.absl::uniform_int_distribution.15" = type { %"class.absl::uniform_int_distribution<unsigned long>::param_type" }
%"class.absl::uniform_int_distribution<unsigned long>::param_type" = type { i64, i64 }
%"struct.absl::random_internal::UniformDistributionWrapper.16" = type { %"class.absl::uniform_int_distribution.17" }
%"class.absl::uniform_int_distribution.17" = type { %"class.absl::uniform_int_distribution<signed char>::param_type" }
%"class.absl::uniform_int_distribution<signed char>::param_type" = type { i8, i8 }
%"class.absl::random_internal::FastUniformBits.18" = type { i8 }
%"struct.absl::random_internal::UniformDistributionWrapper.19" = type { %"class.absl::uniform_int_distribution.20" }
%"class.absl::uniform_int_distribution.20" = type { %"class.absl::uniform_int_distribution<short>::param_type" }
%"class.absl::uniform_int_distribution<short>::param_type" = type { i16, i16 }
%"class.absl::random_internal::FastUniformBits.21" = type { i8 }
%"struct.absl::random_internal::UniformDistributionWrapper.22" = type { %"class.absl::uniform_int_distribution.23" }
%"class.absl::uniform_int_distribution.23" = type { %"class.absl::uniform_int_distribution<unsigned short>::param_type" }
%"class.absl::uniform_int_distribution<unsigned short>::param_type" = type { i16, i16 }
%"struct.absl::random_internal::UniformDistributionWrapper.24" = type { %"class.absl::uniform_int_distribution.25" }
%"class.absl::uniform_int_distribution.25" = type { %"class.absl::uniform_int_distribution<unsigned int>::param_type" }
%"class.absl::uniform_int_distribution<unsigned int>::param_type" = type { i32, i32 }
%"struct.absl::random_internal::UniformDistributionWrapper.26" = type { %"class.absl::uniform_real_distribution.base.28", [3 x i8] }
%"class.absl::uniform_real_distribution.base.28" = type <{ %"class.absl::uniform_real_distribution<float>::param_type", %"class.absl::random_internal::FastUniformBits.11" }>
%"class.absl::uniform_real_distribution<float>::param_type" = type { float, float, float }
%"class.absl::uniform_real_distribution.27" = type <{ %"class.absl::uniform_real_distribution<float>::param_type", %"class.absl::random_internal::FastUniformBits.11", [3 x i8] }>
%"class.absl::exponential_distribution" = type <{ %"class.absl::exponential_distribution<float>::param_type", %"class.absl::random_internal::FastUniformBits.11", [3 x i8] }>
%"class.absl::exponential_distribution<float>::param_type" = type { float, float }
%"class.absl::exponential_distribution.30" = type <{ %"class.absl::exponential_distribution<>::param_type", %"class.absl::random_internal::FastUniformBits.11", [7 x i8] }>
%"class.absl::exponential_distribution<>::param_type" = type { double, double }
%"class.absl::poisson_distribution" = type { %"class.absl::poisson_distribution<>::param_type", %"class.absl::random_internal::FastUniformBits.11", [7 x i8] }
%"class.absl::poisson_distribution<>::param_type" = type <{ double, double, double, double, double, i32, [4 x i8] }>
%"class.absl::poisson_distribution.32" = type { %"class.absl::poisson_distribution<short>::param_type", %"class.absl::random_internal::FastUniformBits.11", [7 x i8] }
%"class.absl::poisson_distribution<short>::param_type" = type <{ double, double, double, double, double, i32, [4 x i8] }>
%"class.absl::poisson_distribution.34" = type { %"class.absl::poisson_distribution<unsigned short>::param_type", %"class.absl::random_internal::FastUniformBits.11", [7 x i8] }
%"class.absl::poisson_distribution<unsigned short>::param_type" = type <{ double, double, double, double, double, i32, [4 x i8] }>
%"class.absl::poisson_distribution.36" = type { %"class.absl::poisson_distribution<unsigned int>::param_type", %"class.absl::random_internal::FastUniformBits.11", [7 x i8] }
%"class.absl::poisson_distribution<unsigned int>::param_type" = type <{ double, double, double, double, double, i32, [4 x i8] }>
%"class.absl::poisson_distribution.38" = type { %"class.absl::poisson_distribution<long>::param_type", %"class.absl::random_internal::FastUniformBits.11", [7 x i8] }
%"class.absl::poisson_distribution<long>::param_type" = type <{ double, double, double, double, double, i32, [4 x i8] }>
%"class.absl::poisson_distribution.40" = type { %"class.absl::poisson_distribution<unsigned long>::param_type", %"class.absl::random_internal::FastUniformBits.11", [7 x i8] }
%"class.absl::poisson_distribution<unsigned long>::param_type" = type <{ double, double, double, double, double, i32, [4 x i8] }>
%"class.absl::poisson_distribution.42" = type { %"class.absl::poisson_distribution<absl::int128>::param_type", %"class.absl::random_internal::FastUniformBits.11", [7 x i8] }
%"class.absl::poisson_distribution<absl::int128>::param_type" = type <{ double, double, double, double, double, i32, [4 x i8] }>
%"class.absl::poisson_distribution.44" = type { %"class.absl::poisson_distribution<absl::uint128>::param_type", %"class.absl::random_internal::FastUniformBits.11", [7 x i8] }
%"class.absl::poisson_distribution<absl::uint128>::param_type" = type <{ double, double, double, double, double, i32, [4 x i8] }>
%"class.absl::bernoulli_distribution" = type { %"class.absl::bernoulli_distribution::param_type" }
%"class.absl::bernoulli_distribution::param_type" = type { double }
%"class.absl::zipf_distribution" = type { %"class.absl::zipf_distribution<>::param_type" }
%"class.absl::zipf_distribution<>::param_type" = type { i32, double, double, double, double, double, double, double }
%"class.absl::zipf_distribution.46" = type { %"class.absl::zipf_distribution<signed char>::param_type" }
%"class.absl::zipf_distribution<signed char>::param_type" = type { i8, double, double, double, double, double, double, double }
%"class.absl::zipf_distribution.47" = type { %"class.absl::zipf_distribution<short>::param_type" }
%"class.absl::zipf_distribution<short>::param_type" = type { i16, double, double, double, double, double, double, double }
%"class.absl::zipf_distribution.48" = type { %"class.absl::zipf_distribution<unsigned short>::param_type" }
%"class.absl::zipf_distribution<unsigned short>::param_type" = type { i16, double, double, double, double, double, double, double }
%"class.absl::zipf_distribution.49" = type { %"class.absl::zipf_distribution<unsigned int>::param_type" }
%"class.absl::zipf_distribution<unsigned int>::param_type" = type { i32, double, double, double, double, double, double, double }
%"class.absl::zipf_distribution.50" = type { %"class.absl::zipf_distribution<long>::param_type" }
%"class.absl::zipf_distribution<long>::param_type" = type { i64, double, double, double, double, double, double, double }
%"class.absl::zipf_distribution.51" = type { %"class.absl::zipf_distribution<unsigned long>::param_type" }
%"class.absl::zipf_distribution<unsigned long>::param_type" = type { i64, double, double, double, double, double, double, double }
%"class.absl::zipf_distribution.52" = type { %"class.absl::zipf_distribution<absl::int128>::param_type" }
%"class.absl::zipf_distribution<absl::int128>::param_type" = type <{ %"class.absl::int128", double, double, double, double, double, double, double, [8 x i8] }>
%"class.absl::zipf_distribution.53" = type { %"class.absl::zipf_distribution<absl::uint128>::param_type" }
%"class.absl::zipf_distribution<absl::uint128>::param_type" = type { %"class.absl::uint128", double, double, double, double, double, double, double, [8 x i8] }
%"class.absl::gaussian_distribution" = type { %"class.absl::random_internal::gaussian_distribution_base", %"class.absl::gaussian_distribution<float>::param_type" }
%"class.absl::random_internal::gaussian_distribution_base" = type { %"class.absl::random_internal::FastUniformBits.11" }
%"class.absl::gaussian_distribution<float>::param_type" = type { float, float }
%"class.absl::gaussian_distribution.54" = type { %"class.absl::random_internal::gaussian_distribution_base", %"class.absl::gaussian_distribution<>::param_type" }
%"class.absl::gaussian_distribution<>::param_type" = type { double, double }
%"class.absl::log_uniform_int_distribution" = type { %"class.absl::log_uniform_int_distribution<>::param_type" }
%"class.absl::log_uniform_int_distribution<>::param_type" = type { i32, i32, i32, i32, i32 }
%"class.absl::log_uniform_int_distribution.55" = type { %"class.absl::log_uniform_int_distribution<signed char>::param_type" }
%"class.absl::log_uniform_int_distribution<signed char>::param_type" = type { i8, i8, i8, i8, i32 }
%"class.absl::log_uniform_int_distribution.56" = type { %"class.absl::log_uniform_int_distribution<short>::param_type" }
%"class.absl::log_uniform_int_distribution<short>::param_type" = type { i16, i16, i16, i16, i32 }
%"class.absl::log_uniform_int_distribution.57" = type { %"class.absl::log_uniform_int_distribution<unsigned short>::param_type" }
%"class.absl::log_uniform_int_distribution<unsigned short>::param_type" = type { i16, i16, i16, i16, i32 }
%"class.absl::log_uniform_int_distribution.58" = type { %"class.absl::log_uniform_int_distribution<unsigned int>::param_type" }
%"class.absl::log_uniform_int_distribution<unsigned int>::param_type" = type { i32, i32, i32, i32, i32 }
%"class.absl::log_uniform_int_distribution.59" = type { %"class.absl::log_uniform_int_distribution<long>::param_type" }
%"class.absl::log_uniform_int_distribution<long>::param_type" = type <{ i64, i64, i64, i64, i32, [4 x i8] }>
%"class.absl::log_uniform_int_distribution.60" = type { %"class.absl::log_uniform_int_distribution<unsigned long>::param_type" }
%"class.absl::log_uniform_int_distribution<unsigned long>::param_type" = type <{ i64, i64, i64, i64, i32, [4 x i8] }>
%"class.absl::log_uniform_int_distribution.61" = type { %"class.absl::log_uniform_int_distribution<absl::int128>::param_type" }
%"class.absl::log_uniform_int_distribution<absl::int128>::param_type" = type <{ %"class.absl::int128", %"class.absl::int128", %"class.absl::int128", %"class.absl::uint128", i32, [12 x i8] }>
%"class.absl::uniform_int_distribution.62" = type { %"class.absl::uniform_int_distribution<absl::int128>::param_type" }
%"class.absl::uniform_int_distribution<absl::int128>::param_type" = type { %"class.absl::int128", %"class.absl::uint128" }
%"class.absl::random_internal::FastUniformBits.63" = type { i8 }
%"struct.absl::random_internal::U256" = type { %"class.absl::uint128", %"class.absl::uint128" }
%"class.absl::log_uniform_int_distribution.64" = type { %"class.absl::log_uniform_int_distribution<absl::uint128>::param_type" }
%"class.absl::log_uniform_int_distribution<absl::uint128>::param_type" = type <{ %"class.absl::uint128", %"class.absl::uint128", %"class.absl::uint128", %"class.absl::uint128", i32, [12 x i8] }>
%"class.absl::uniform_int_distribution.65" = type { %"class.absl::uniform_int_distribution<absl::uint128>::param_type" }
%"class.absl::uniform_int_distribution<absl::uint128>::param_type" = type { %"class.absl::uint128", %"class.absl::uint128" }
%"class.absl::random_internal::NonsecureURBGBase" = type { %"class.absl::random_internal::randen_engine" }
%"class.absl::random_internal::randen_engine" = type { [264 x i8], i64, %"class.absl::random_internal::Randen" }
%"class.absl::random_internal::Randen" = type <{ ptr, i8, [7 x i8] }>
%"class.absl::random_internal::RandenPoolSeedSeq" = type { i8 }
%"class.absl::Span" = type { ptr, i64 }
%"class.absl::random_internal::NonsecureURBGBase.66" = type { %"class.absl::random_internal::pcg_engine" }
%"class.absl::random_internal::pcg_engine" = type { %"class.absl::uint128" }
%"struct.absl::random_internal::pcg_xsl_rr_128_64" = type { i8 }
%struct._Guard = type { ptr }

$_ZNSt7__cxx1112basic_stringIcSt11char_traitsIcESaIcEEC2IS3_EEPKcRKS3_ = comdat any

$_ZN7testing8internal12CodeLocationC2ERKNSt7__cxx1112basic_stringIcSt11char_traitsIcESaIcEEEi = comdat any

$_ZN7testing8internal16SuiteApiResolverINS_4TestEE19GetSetUpCaseOrSuiteEPKci = comdat any

$_ZN7testing8internal16SuiteApiResolverINS_4TestEE22GetTearDownCaseOrSuiteEPKci = comdat any

$_ZN7testing8internal12CodeLocationD2Ev = comdat any

$_ZN7testing8internal15TestFactoryBaseC2Ev = comdat any

$_ZN7testing8internal15TestFactoryBaseD2Ev = comdat any

$_ZN7testing8internal15TestFactoryBaseD0Ev = comdat any

$_ZN7testing4Test5SetupEv = comdat any

$_ZNSt23mersenne_twister_engineImLm64ELm312ELm156ELm31ELm13043109905998158313ELm29ELm6148914691236517205ELm17ELm8202884508482404352ELm37ELm18444473444759240704ELm43ELm6364136223846793005EEC2Ev = comdat any

$_ZNSt23mersenne_twister_engineImLm64ELm312ELm156ELm31ELm13043109905998158313ELm29ELm6148914691236517205ELm17ELm8202884508482404352ELm37ELm18444473444759240704ELm43ELm6364136223846793005EEC2Em = comdat any

$_ZNSt23mersenne_twister_engineImLm64ELm312ELm156ELm31ELm13043109905998158313ELm29ELm6148914691236517205ELm17ELm8202884508482404352ELm37ELm18444473444759240704ELm43ELm6364136223846793005EE4seedEm = comdat any

$_ZNSt8__detail5__modImTnT_Lm0ETnS1_Lm1ETnS1_Lm0EEES1_S1_ = comdat any

$_ZNSt8__detail5__modImTnT_Lm312ETnS1_Lm1ETnS1_Lm0EEES1_S1_ = comdat any

$_ZNSt8__detail4_ModImLm0ELm1ELm0ELb1ELb0EE6__calcEm = comdat any

$_ZNSt8__detail4_ModImLm312ELm1ELm0ELb1ELb1EE6__calcEm = comdat any

$_ZN4absl7UniformIiRSt23mersenne_twister_engineImLm64ELm312ELm156ELm31ELm13043109905998158313ELm29ELm6148914691236517205ELm17ELm8202884508482404352ELm37ELm18444473444759240704ELm43ELm6364136223846793005EEEENSt9enable_ifIXntsr3std7is_sameIT_vEE5valueES5_E4typeEOT0_S5_S5_ = comdat any

$_ZN4absl7UniformIvRSt23mersenne_twister_engineImLm64ELm312ELm156ELm31ELm13043109905998158313ELm29ELm6148914691236517205ELm17ELm8202884508482404352ELm37ELm18444473444759240704ELm43ELm6364136223846793005EEidEENSt9enable_ifIXsr3std7is_sameIT_vEE5valueENS4_IXsr4absl11disjunctionINS_15random_internal23is_widening_convertibleIT1_T2_EENS7_IS9_S8_EEEE5valueENSt11conditionalIXsr23is_widening_convertibleIS8_S9_EE5valueES9_S8_E4typeEE4typeEE4typeEOT0_S8_S9_ = comdat any

$_ZN4absl7UniformIvRSt23mersenne_twister_engineImLm64ELm312ELm156ELm31ELm13043109905998158313ELm29ELm6148914691236517205ELm17ELm8202884508482404352ELm37ELm18444473444759240704ELm43ELm6364136223846793005EEfdEENSt9enable_ifIXsr3std7is_sameIT_vEE5valueENS4_IXsr4absl11disjunctionINS_15random_internal23is_widening_convertibleIT1_T2_EENS7_IS9_S8_EEEE5valueENSt11conditionalIXsr23is_widening_convertibleIS8_S9_EE5valueES9_S8_E4typeEE4typeEE4typeEOT0_S8_S9_ = comdat any

$_ZN4absl7UniformIdRSt23mersenne_twister_engineImLm64ELm312ELm156ELm31ELm13043109905998158313ELm29ELm6148914691236517205ELm17ELm8202884508482404352ELm37ELm18444473444759240704ELm43ELm6364136223846793005EEEENSt9enable_ifIXntsr3std7is_sameIT_vEE5valueES5_E4typeEOT0_S5_S5_ = comdat any

$_ZN4absl7UniformIvRSt23mersenne_twister_engineImLm64ELm312ELm156ELm31ELm13043109905998158313ELm29ELm6148914691236517205ELm17ELm8202884508482404352ELm37ELm18444473444759240704ELm43ELm6364136223846793005EEilEENSt9enable_ifIXsr3std7is_sameIT_vEE5valueENS4_IXsr4absl11disjunctionINS_15random_internal23is_widening_convertibleIT1_T2_EENS7_IS9_S8_EEEE5valueENSt11conditionalIXsr23is_widening_convertibleIS8_S9_EE5valueES9_S8_E4typeEE4typeEE4typeEOT0_S8_S9_ = comdat any

$_ZN4absl7UniformIiNS_23IntervalClosedClosedTagERSt23mersenne_twister_engineImLm64ELm312ELm156ELm31ELm13043109905998158313ELm29ELm6148914691236517205ELm17ELm8202884508482404352ELm37ELm18444473444759240704ELm43ELm6364136223846793005EEEENSt9enable_ifIXntsr3std7is_sameIT_vEE5valueES6_E4typeET0_OT1_S6_S6_ = comdat any

$_ZN4absl7UniformIdNS_19IntervalOpenOpenTagERSt23mersenne_twister_engineImLm64ELm312ELm156ELm31ELm13043109905998158313ELm29ELm6148914691236517205ELm17ELm8202884508482404352ELm37ELm18444473444759240704ELm43ELm6364136223846793005EEEENSt9enable_ifIXntsr3std7is_sameIT_vEE5valueES6_E4typeET0_OT1_S6_S6_ = comdat any

$_ZNSaIiEC2Ev = comdat any

$_ZNSt6vectorIiSaIiEEC2ESt16initializer_listIiERKS0_ = comdat any

$_ZNSaIiED2Ev = comdat any

$_ZNSt6vectorIiSaIiEEixEm = comdat any

$_ZN4absl7UniformIvRSt23mersenne_twister_engineImLm64ELm312ELm156ELm31ELm13043109905998158313ELm29ELm6148914691236517205ELm17ELm8202884508482404352ELm37ELm18444473444759240704ELm43ELm6364136223846793005EEjmEENSt9enable_ifIXsr3std7is_sameIT_vEE5valueENS4_IXsr4absl11disjunctionINS_15random_internal23is_widening_convertibleIT1_T2_EENS7_IS9_S8_EEEE5valueENSt11conditionalIXsr23is_widening_convertibleIS8_S9_EE5valueES9_S8_E4typeEE4typeEE4typeEOT0_S8_S9_ = comdat any

$_ZNKSt6vectorIiSaIiEE4sizeEv = comdat any

$_ZN4absl7UniformImRSt23mersenne_twister_engineImLm64ELm312ELm156ELm31ELm13043109905998158313ELm29ELm6148914691236517205ELm17ELm8202884508482404352ELm37ELm18444473444759240704ELm43ELm6364136223846793005EEEENSt9enable_ifIXntsr3std7is_sameIT_vEE5valueES5_E4typeEOT0_S5_S5_ = comdat any

$_ZN4absl7UniformIvNS_19IntervalOpenOpenTagERSt23mersenne_twister_engineImLm64ELm312ELm156ELm31ELm13043109905998158313ELm29ELm6148914691236517205ELm17ELm8202884508482404352ELm37ELm18444473444759240704ELm43ELm6364136223846793005EEidEENSt9enable_ifIXsr3std7is_sameIT_vEE5valueENS5_IXsr4absl11disjunctionINS_15random_internal23is_widening_convertibleIT2_T3_EENS8_ISA_S9_EEEE5valueENSt11conditionalIXsr23is_widening_convertibleIS9_SA_EE5valueESA_S9_E4typeEE4typeEE4typeET0_OT1_S9_SA_ = comdat any

$_ZN4absl7UniformIaRSt23mersenne_twister_engineImLm64ELm312ELm156ELm31ELm13043109905998158313ELm29ELm6148914691236517205ELm17ELm8202884508482404352ELm37ELm18444473444759240704ELm43ELm6364136223846793005EEEENSt9enable_ifIXntsr3std7is_sameIT_vEE5valueES5_E4typeEOT0_S5_S5_ = comdat any

$_ZN4absl7UniformIsRSt23mersenne_twister_engineImLm64ELm312ELm156ELm31ELm13043109905998158313ELm29ELm6148914691236517205ELm17ELm8202884508482404352ELm37ELm18444473444759240704ELm43ELm6364136223846793005EEEENSt9enable_ifIXntsr3std7is_sameIT_vEE5valueES5_E4typeEOT0_S5_S5_ = comdat any

$_ZN4absl7UniformItRSt23mersenne_twister_engineImLm64ELm312ELm156ELm31ELm13043109905998158313ELm29ELm6148914691236517205ELm17ELm8202884508482404352ELm37ELm18444473444759240704ELm43ELm6364136223846793005EEEENSt9enable_ifIXntsr3std7is_sameIT_vEE5valueES5_E4typeEOT0_S5_S5_ = comdat any

$_ZN4absl7UniformIjRSt23mersenne_twister_engineImLm64ELm312ELm156ELm31ELm13043109905998158313ELm29ELm6148914691236517205ELm17ELm8202884508482404352ELm37ELm18444473444759240704ELm43ELm6364136223846793005EEEENSt9enable_ifIXntsr3std7is_sameIT_vEE5valueES5_E4typeEOT0_S5_S5_ = comdat any

$_ZN4absl7UniformIlRSt23mersenne_twister_engineImLm64ELm312ELm156ELm31ELm13043109905998158313ELm29ELm6148914691236517205ELm17ELm8202884508482404352ELm37ELm18444473444759240704ELm43ELm6364136223846793005EEEENSt9enable_ifIXntsr3std7is_sameIT_vEE5valueES5_E4typeEOT0_S5_S5_ = comdat any

$_ZN4absl7UniformIfRSt23mersenne_twister_engineImLm64ELm312ELm156ELm31ELm13043109905998158313ELm29ELm6148914691236517205ELm17ELm8202884508482404352ELm37ELm18444473444759240704ELm43ELm6364136223846793005EEEENSt9enable_ifIXntsr3std7is_sameIT_vEE5valueES5_E4typeEOT0_S5_S5_ = comdat any

$_ZN4absl7UniformIdNS_23IntervalClosedClosedTagERSt23mersenne_twister_engineImLm64ELm312ELm156ELm31ELm13043109905998158313ELm29ELm6148914691236517205ELm17ELm8202884508482404352ELm37ELm18444473444759240704ELm43ELm6364136223846793005EEEENSt9enable_ifIXntsr3std7is_sameIT_vEE5valueES6_E4typeET0_OT1_S6_S6_ = comdat any

$_ZN4absl7UniformIdNS_21IntervalClosedOpenTagERSt23mersenne_twister_engineImLm64ELm312ELm156ELm31ELm13043109905998158313ELm29ELm6148914691236517205ELm17ELm8202884508482404352ELm37ELm18444473444759240704ELm43ELm6364136223846793005EEEENSt9enable_ifIXntsr3std7is_sameIT_vEE5valueES6_E4typeET0_OT1_S6_S6_ = comdat any

$_ZN4absl7UniformIdNS_21IntervalOpenClosedTagERSt23mersenne_twister_engineImLm64ELm312ELm156ELm31ELm13043109905998158313ELm29ELm6148914691236517205ELm17ELm8202884508482404352ELm37ELm18444473444759240704ELm43ELm6364136223846793005EEEENSt9enable_ifIXntsr3std7is_sameIT_vEE5valueES6_E4typeET0_OT1_S6_S6_ = comdat any

$_ZN4absl7UniformIiNS_21IntervalClosedOpenTagERSt23mersenne_twister_engineImLm64ELm312ELm156ELm31ELm13043109905998158313ELm29ELm6148914691236517205ELm17ELm8202884508482404352ELm37ELm18444473444759240704ELm43ELm6364136223846793005EEEENSt9enable_ifIXntsr3std7is_sameIT_vEE5valueES6_E4typeET0_OT1_S6_S6_ = comdat any

$_ZN4absl7UniformIiNS_19IntervalOpenOpenTagERSt23mersenne_twister_engineImLm64ELm312ELm156ELm31ELm13043109905998158313ELm29ELm6148914691236517205ELm17ELm8202884508482404352ELm37ELm18444473444759240704ELm43ELm6364136223846793005EEEENSt9enable_ifIXntsr3std7is_sameIT_vEE5valueES6_E4typeET0_OT1_S6_S6_ = comdat any

$_ZN4absl7UniformIiNS_21IntervalOpenClosedTagERSt23mersenne_twister_engineImLm64ELm312ELm156ELm31ELm13043109905998158313ELm29ELm6148914691236517205ELm17ELm8202884508482404352ELm37ELm18444473444759240704ELm43ELm6364136223846793005EEEENSt9enable_ifIXntsr3std7is_sameIT_vEE5valueES6_E4typeET0_OT1_S6_S6_ = comdat any

$_ZN4absl7UniformIiSt23mersenne_twister_engineImLm64ELm312ELm156ELm31ELm13043109905998158313ELm29ELm6148914691236517205ELm17ELm8202884508482404352ELm37ELm18444473444759240704ELm43ELm6364136223846793005EEEENSt9enable_ifIXntsr3std7is_sameIT_vEE5valueES4_E4typeEOT0_S4_S4_ = comdat any

$_ZN4absl7UniformIdSt23mersenne_twister_engineImLm64ELm312ELm156ELm31ELm13043109905998158313ELm29ELm6148914691236517205ELm17ELm8202884508482404352ELm37ELm18444473444759240704ELm43ELm6364136223846793005EEEENSt9enable_ifIXntsr3std7is_sameIT_vEE5valueES4_E4typeEOT0_S4_S4_ = comdat any

$_ZNSt6vectorIiSaIiEED2Ev = comdat any

$_ZN4absl15random_internal19uniform_lower_boundIiNS_21IntervalClosedOpenTagEEENSt9enable_ifIXsr4absl11disjunctionISt7is_sameIT0_NS_23IntervalClosedClosedTagEES4_IS5_S2_EEE5valueET_E4typeES5_S9_S9_ = comdat any

$_ZN4absl15random_internal19uniform_upper_boundIiNS_21IntervalClosedOpenTagEEENSt9enable_ifIXsr4absl11conjunctionINS0_10IsIntegralIT_EENS_11disjunctionIJSt7is_sameIT0_S2_ES8_IS9_NS_19IntervalOpenOpenTagEEEEEEE5valueES5_E4typeES9_S5_S5_ = comdat any

$_ZN4absl15random_internal22is_uniform_range_validIiEENSt9enable_ifIXsr10IsIntegralIT_EE5valueEbE4typeES3_S3_ = comdat any

$_ZN4absl15random_internal18DistributionCallerISt23mersenne_twister_engineImLm64ELm312ELm156ELm31ELm13043109905998158313ELm29ELm6148914691236517205ELm17ELm8202884508482404352ELm37ELm18444473444759240704ELm43ELm6364136223846793005EEE4CallINS0_26UniformDistributionWrapperIiEEJRiS8_EEENT_11result_typeEPS3_DpOT0_ = comdat any

$_ZNSt14numeric_limitsIiE3minEv = comdat any

$_ZN4absl15random_internal18DistributionCallerISt23mersenne_twister_engineImLm64ELm312ELm156ELm31ELm13043109905998158313ELm29ELm6148914691236517205ELm17ELm8202884508482404352ELm37ELm18444473444759240704ELm43ELm6364136223846793005EEE4ImplINS0_26UniformDistributionWrapperIiEEJRiS8_EEENT_11result_typeESt17integral_constantIbLb0EEPS3_DpOT0_ = comdat any

$_ZN4absl15random_internal26UniformDistributionWrapperIiEC2Eii = comdat any

$_ZN4absl24uniform_int_distributionIiEclISt23mersenne_twister_engineImLm64ELm312ELm156ELm31ELm13043109905998158313ELm29ELm6148914691236517205ELm17ELm8202884508482404352ELm37ELm18444473444759240704ELm43ELm6364136223846793005EEEEiRT_ = comdat any

$_ZN4absl24uniform_int_distributionIiE10param_typeC2Eii = comdat any

$_ZN4absl24uniform_int_distributionIiEclISt23mersenne_twister_engineImLm64ELm312ELm156ELm31ELm13043109905998158313ELm29ELm6148914691236517205ELm17ELm8202884508482404352ELm37ELm18444473444759240704ELm43ELm6364136223846793005EEEEiRT_RKNS1_10param_typeE = comdat any

$_ZNK4absl24uniform_int_distributionIiE5paramEv = comdat any

$_ZNK4absl24uniform_int_distributionIiE10param_type1aEv = comdat any

$_ZN4absl24uniform_int_distributionIiE8GenerateISt23mersenne_twister_engineImLm64ELm312ELm156ELm31ELm13043109905998158313ELm29ELm6148914691236517205ELm17ELm8202884508482404352ELm37ELm18444473444759240704ELm43ELm6364136223846793005EEEEjRT_j = comdat any

$_ZNK4absl24uniform_int_distributionIiE10param_type5rangeEv = comdat any

$_ZN4absl15random_internal15FastUniformBitsIjEclISt23mersenne_twister_engineImLm64ELm312ELm156ELm31ELm13043109905998158313ELm29ELm6148914691236517205ELm17ELm8202884508482404352ELm37ELm18444473444759240704ELm43ELm6364136223846793005EEEEjRT_ = comdat any

$_ZN4absl15random_internal13wide_multiplyIjE8multiplyEjj = comdat any

$_ZN4absl15random_internal13wide_multiplyIjE2loEm = comdat any

$_ZNSt14numeric_limitsIjE3maxEv = comdat any

$_ZN4absl15random_internal13wide_multiplyIjE2hiEm = comdat any

$_ZN4absl15random_internal15FastUniformBitsIjE8GenerateISt23mersenne_twister_engineImLm64ELm312ELm156ELm31ELm13043109905998158313ELm29ELm6148914691236517205ELm17ELm8202884508482404352ELm37ELm18444473444759240704ELm43ELm6364136223846793005EEEEjRT_NS0_17SimplifiedLoopTagE = comdat any

$_ZNSt23mersenne_twister_engineImLm64ELm312ELm156ELm31ELm13043109905998158313ELm29ELm6148914691236517205ELm17ELm8202884508482404352ELm37ELm18444473444759240704ELm43ELm6364136223846793005EEclEv = comdat any

$_ZNSt23mersenne_twister_engineImLm64ELm312ELm156ELm31ELm13043109905998158313ELm29ELm6148914691236517205ELm17ELm8202884508482404352ELm37ELm18444473444759240704ELm43ELm6364136223846793005EE11_M_gen_randEv = comdat any

$_ZN4absl15random_internal19uniform_lower_boundIdNS_21IntervalClosedOpenTagEEENSt9enable_ifIXsr4absl11disjunctionISt7is_sameIT0_NS_23IntervalClosedClosedTagEES4_IS5_S2_EEE5valueET_E4typeES5_S9_S9_ = comdat any

$_ZN4absl15random_internal19uniform_upper_boundIdNS_21IntervalClosedOpenTagEEENSt9enable_ifIXsr4absl11conjunctionISt17is_floating_pointIT_ENS_11disjunctionIJSt7is_sameIT0_S2_ES8_IS9_NS_19IntervalOpenOpenTagEEEEEEE5valueES5_E4typeES9_S5_S5_ = comdat any

$_ZN4absl15random_internal22is_uniform_range_validIdEENSt9enable_ifIXsr3std17is_floating_pointIT_EE5valueEbE4typeES3_S3_ = comdat any

$_ZN4absl15random_internal18DistributionCallerISt23mersenne_twister_engineImLm64ELm312ELm156ELm31ELm13043109905998158313ELm29ELm6148914691236517205ELm17ELm8202884508482404352ELm37ELm18444473444759240704ELm43ELm6364136223846793005EEE4CallINS0_26UniformDistributionWrapperIdEEJddEEENT_11result_typeEPS3_DpOT0_ = comdat any

$_ZSt8isfinited = comdat any

$_ZN4absl15random_internal18DistributionCallerISt23mersenne_twister_engineImLm64ELm312ELm156ELm31ELm13043109905998158313ELm29ELm6148914691236517205ELm17ELm8202884508482404352ELm37ELm18444473444759240704ELm43ELm6364136223846793005EEE4ImplINS0_26UniformDistributionWrapperIdEEJddEEENT_11result_typeESt17integral_constantIbLb0EEPS3_DpOT0_ = comdat any

$_ZN4absl15random_internal26UniformDistributionWrapperIdEC2Edd = comdat any

$_ZN4absl25uniform_real_distributionIdEclISt23mersenne_twister_engineImLm64ELm312ELm156ELm31ELm13043109905998158313ELm29ELm6148914691236517205ELm17ELm8202884508482404352ELm37ELm18444473444759240704ELm43ELm6364136223846793005EEEEdRT_ = comdat any

$_ZN4absl25uniform_real_distributionIdEC2Edd = comdat any

$_ZN4absl25uniform_real_distributionIdE10param_typeC2Edd = comdat any

$_ZN4absl25uniform_real_distributionIdEclISt23mersenne_twister_engineImLm64ELm312ELm156ELm31ELm13043109905998158313ELm29ELm6148914691236517205ELm17ELm8202884508482404352ELm37ELm18444473444759240704ELm43ELm6364136223846793005EEEEdRT_RKNS1_10param_typeE = comdat any

$_ZN4absl15random_internal20GenerateRealFromBitsIdNS0_19GeneratePositiveTagELb1EEET_mi = comdat any

$_ZN4absl15random_internal15FastUniformBitsImEclISt23mersenne_twister_engineImLm64ELm312ELm156ELm31ELm13043109905998158313ELm29ELm6148914691236517205ELm17ELm8202884508482404352ELm37ELm18444473444759240704ELm43ELm6364136223846793005EEEEmRT_ = comdat any

$_ZNK4absl25uniform_real_distributionIdE10param_type1aEv = comdat any

$_ZNK4absl25uniform_real_distributionIdE10param_type1bEv = comdat any

$_ZN4absl11countl_zeroImEENSt9enable_ifIXsr3std11is_unsignedIT_EE5valueEiE4typeES2_ = comdat any

$__clang_call_terminate = comdat any

$_ZN4absl15random_internal15FastUniformBitsImE8GenerateISt23mersenne_twister_engineImLm64ELm312ELm156ELm31ELm13043109905998158313ELm29ELm6148914691236517205ELm17ELm8202884508482404352ELm37ELm18444473444759240704ELm43ELm6364136223846793005EEEEmRT_NS0_17SimplifiedLoopTagE = comdat any

$_ZN4absl15random_internal18DistributionCallerISt23mersenne_twister_engineImLm64ELm312ELm156ELm31ELm13043109905998158313ELm29ELm6148914691236517205ELm17ELm8202884508482404352ELm37ELm18444473444759240704ELm43ELm6364136223846793005EEE4CallINS0_26UniformDistributionWrapperIdEEJRdS8_EEENT_11result_typeEPS3_DpOT0_ = comdat any

$_ZN4absl15random_internal18DistributionCallerISt23mersenne_twister_engineImLm64ELm312ELm156ELm31ELm13043109905998158313ELm29ELm6148914691236517205ELm17ELm8202884508482404352ELm37ELm18444473444759240704ELm43ELm6364136223846793005EEE4ImplINS0_26UniformDistributionWrapperIdEEJRdS8_EEENT_11result_typeESt17integral_constantIbLb0EEPS3_DpOT0_ = comdat any

$_ZN4absl15random_internal19uniform_lower_boundIlNS_21IntervalClosedOpenTagEEENSt9enable_ifIXsr4absl11disjunctionISt7is_sameIT0_NS_23IntervalClosedClosedTagEES4_IS5_S2_EEE5valueET_E4typeES5_S9_S9_ = comdat any

$_ZN4absl15random_internal19uniform_upper_boundIlNS_21IntervalClosedOpenTagEEENSt9enable_ifIXsr4absl11conjunctionINS0_10IsIntegralIT_EENS_11disjunctionIJSt7is_sameIT0_S2_ES8_IS9_NS_19IntervalOpenOpenTagEEEEEEE5valueES5_E4typeES9_S5_S5_ = comdat any

$_ZN4absl15random_internal22is_uniform_range_validIlEENSt9enable_ifIXsr10IsIntegralIT_EE5valueEbE4typeES3_S3_ = comdat any

$_ZN4absl15random_internal18DistributionCallerISt23mersenne_twister_engineImLm64ELm312ELm156ELm31ELm13043109905998158313ELm29ELm6148914691236517205ELm17ELm8202884508482404352ELm37ELm18444473444759240704ELm43ELm6364136223846793005EEE4CallINS0_26UniformDistributionWrapperIlEEJllEEENT_11result_typeEPS3_DpOT0_ = comdat any

$_ZNSt14numeric_limitsIlE3minEv = comdat any

$_ZN4absl15random_internal18DistributionCallerISt23mersenne_twister_engineImLm64ELm312ELm156ELm31ELm13043109905998158313ELm29ELm6148914691236517205ELm17ELm8202884508482404352ELm37ELm18444473444759240704ELm43ELm6364136223846793005EEE4ImplINS0_26UniformDistributionWrapperIlEEJllEEENT_11result_typeESt17integral_constantIbLb0EEPS3_DpOT0_ = comdat any

$_ZN4absl15random_internal26UniformDistributionWrapperIlEC2Ell = comdat any

$_ZN4absl24uniform_int_distributionIlEclISt23mersenne_twister_engineImLm64ELm312ELm156ELm31ELm13043109905998158313ELm29ELm6148914691236517205ELm17ELm8202884508482404352ELm37ELm18444473444759240704ELm43ELm6364136223846793005EEEElRT_ = comdat any

$_ZN4absl24uniform_int_distributionIlE10param_typeC2Ell = comdat any

$_ZN4absl24uniform_int_distributionIlEclISt23mersenne_twister_engineImLm64ELm312ELm156ELm31ELm13043109905998158313ELm29ELm6148914691236517205ELm17ELm8202884508482404352ELm37ELm18444473444759240704ELm43ELm6364136223846793005EEEElRT_RKNS1_10param_typeE = comdat any

$_ZNK4absl24uniform_int_distributionIlE5paramEv = comdat any

$_ZNK4absl24uniform_int_distributionIlE10param_type1aEv = comdat any

$_ZN4absl24uniform_int_distributionIlE8GenerateISt23mersenne_twister_engineImLm64ELm312ELm156ELm31ELm13043109905998158313ELm29ELm6148914691236517205ELm17ELm8202884508482404352ELm37ELm18444473444759240704ELm43ELm6364136223846793005EEEEmRT_m = comdat any

$_ZNK4absl24uniform_int_distributionIlE10param_type5rangeEv = comdat any

$_ZN4absl15random_internal13wide_multiplyImE8multiplyEmm = comdat any

$_ZN4absl15random_internal13wide_multiplyImE2loENS_7uint128E = comdat any

$_ZNSt14numeric_limitsImE3maxEv = comdat any

$_ZN4absl15random_internal13wide_multiplyImE2hiENS_7uint128E = comdat any

$_ZN4abslmlENS_7uint128ES0_ = comdat any

$_ZN4absl7uint128C2Em = comdat any

$_ZNK4absl7uint128cvoEv = comdat any

$_ZN4absl7uint128C2Eo = comdat any

$_ZNK4absl7uint128cvmEv = comdat any

$_ZN4abslrsENS_7uint128Ei = comdat any

$_ZN4absl15random_internal19uniform_lower_boundIiNS_23IntervalClosedClosedTagEEENSt9enable_ifIXsr4absl11disjunctionISt7is_sameIT0_S2_ES4_IS5_NS_21IntervalClosedOpenTagEEEE5valueET_E4typeES5_S9_S9_ = comdat any

$_ZN4absl15random_internal19uniform_upper_boundIiNS_23IntervalClosedClosedTagEEENSt9enable_ifIXsr4absl11conjunctionINS0_10IsIntegralIT_EENS_11disjunctionIJSt7is_sameIT0_S2_ES8_IS9_NS_21IntervalOpenClosedTagEEEEEEE5valueES5_E4typeES9_S5_S5_ = comdat any

$_ZN4absl15random_internal18DistributionCallerISt23mersenne_twister_engineImLm64ELm312ELm156ELm31ELm13043109905998158313ELm29ELm6148914691236517205ELm17ELm8202884508482404352ELm37ELm18444473444759240704ELm43ELm6364136223846793005EEE4CallINS0_26UniformDistributionWrapperIiEEJRNS_23IntervalClosedClosedTagERiSA_EEENT_11result_typeEPS3_DpOT0_ = comdat any

$_ZN4absl15random_internal18DistributionCallerISt23mersenne_twister_engineImLm64ELm312ELm156ELm31ELm13043109905998158313ELm29ELm6148914691236517205ELm17ELm8202884508482404352ELm37ELm18444473444759240704ELm43ELm6364136223846793005EEE4ImplINS0_26UniformDistributionWrapperIiEEJRNS_23IntervalClosedClosedTagERiSA_EEENT_11result_typeESt17integral_constantIbLb0EEPS3_DpOT0_ = comdat any

$_ZN4absl15random_internal26UniformDistributionWrapperIiEC2INS_23IntervalClosedClosedTagEEET_ii = comdat any

$_ZN4absl15random_internal19uniform_lower_boundIdNS_19IntervalOpenOpenTagEEENSt9enable_ifIXsr4absl11conjunctionISt17is_floating_pointIT_ENS_11disjunctionIJSt7is_sameIT0_NS_21IntervalOpenClosedTagEES8_IS9_S2_EEEEEE5valueES5_E4typeES9_S5_S5_ = comdat any

$_ZN4absl15random_internal19uniform_upper_boundIdNS_19IntervalOpenOpenTagEEENSt9enable_ifIXsr4absl11conjunctionISt17is_floating_pointIT_ENS_11disjunctionIJSt7is_sameIT0_NS_21IntervalClosedOpenTagEES8_IS9_S2_EEEEEE5valueES5_E4typeES9_S5_S5_ = comdat any

$_ZN4absl15random_internal18DistributionCallerISt23mersenne_twister_engineImLm64ELm312ELm156ELm31ELm13043109905998158313ELm29ELm6148914691236517205ELm17ELm8202884508482404352ELm37ELm18444473444759240704ELm43ELm6364136223846793005EEE4CallINS0_26UniformDistributionWrapperIdEEJRNS_19IntervalOpenOpenTagERdSA_EEENT_11result_typeEPS3_DpOT0_ = comdat any

$_ZN4absl15random_internal18DistributionCallerISt23mersenne_twister_engineImLm64ELm312ELm156ELm31ELm13043109905998158313ELm29ELm6148914691236517205ELm17ELm8202884508482404352ELm37ELm18444473444759240704ELm43ELm6364136223846793005EEE4ImplINS0_26UniformDistributionWrapperIdEEJRNS_19IntervalOpenOpenTagERdSA_EEENT_11result_typeESt17integral_constantIbLb0EEPS3_DpOT0_ = comdat any

$_ZN4absl15random_internal26UniformDistributionWrapperIdEC2INS_19IntervalOpenOpenTagEEET_dd = comdat any

$_ZNSt15__new_allocatorIiEC2Ev = comdat any

$_ZNSt12_Vector_baseIiSaIiEEC2ERKS0_ = comdat any

$_ZNSt6vectorIiSaIiEE19_M_range_initializeIPKiEEvT_S5_St20forward_iterator_tag = comdat any

$_ZNKSt16initializer_listIiE5beginEv = comdat any

$_ZNKSt16initializer_listIiE3endEv = comdat any

$_ZNSt12_Vector_baseIiSaIiEED2Ev = comdat any

$_ZNSt12_Vector_baseIiSaIiEE12_Vector_implC2ERKS0_ = comdat any

$_ZNSt12_Vector_baseIiSaIiEE17_Vector_impl_dataC2Ev = comdat any

$_ZNSt15__new_allocatorIiEC2ERKS0_ = comdat any

$_ZSt8distanceIPKiENSt15iterator_traitsIT_E15difference_typeES3_S3_ = comdat any

$_ZNSt12_Vector_baseIiSaIiEE11_M_allocateEm = comdat any

$_ZNSt6vectorIiSaIiEE17_S_check_init_lenEmRKS0_ = comdat any

$_ZNSt12_Vector_baseIiSaIiEE19_M_get_Tp_allocatorEv = comdat any

$_ZSt22__uninitialized_copy_aIPKiPiiET0_T_S4_S3_RSaIT1_E = comdat any

$_ZSt10__distanceIPKiENSt15iterator_traitsIT_E15difference_typeES3_S3_St26random_access_iterator_tag = comdat any

$_ZSt19__iterator_categoryIPKiENSt15iterator_traitsIT_E17iterator_categoryERKS3_ = comdat any

$_ZNSt16allocator_traitsISaIiEE8allocateERS0_m = comdat any

$_ZNSt15__new_allocatorIiE8allocateEmPKv = comdat any

$_ZNKSt15__new_allocatorIiE11_M_max_sizeEv = comdat any

$_ZNSt6vectorIiSaIiEE11_S_max_sizeERKS0_ = comdat any

$_ZNSaIiEC2ERKS_ = comdat any

$_ZNSt16allocator_traitsISaIiEE8max_sizeERKS0_ = comdat any

$_ZSt3minImERKT_S2_S2_ = comdat any

$_ZNKSt15__new_allocatorIiE8max_sizeEv = comdat any

$_ZSt18uninitialized_copyIPKiPiET0_T_S4_S3_ = comdat any

$_ZNSt20__uninitialized_copyILb1EE13__uninit_copyIPKiPiEET0_T_S6_S5_ = comdat any

$_ZSt4copyIPKiPiET0_T_S4_S3_ = comdat any

$_ZSt13__copy_move_aILb0EPKiPiET1_T0_S4_S3_ = comdat any

$_ZSt12__miter_baseIPKiET_S2_ = comdat any

$_ZSt12__niter_wrapIPiET_RKS1_S1_ = comdat any

$_ZSt14__copy_move_a1ILb0EPKiPiET1_T0_S4_S3_ = comdat any

$_ZSt12__niter_baseIPKiET_S2_ = comdat any

$_ZSt12__niter_baseIPiET_S1_ = comdat any

$_ZSt14__copy_move_a2ILb0EPKiPiET1_T0_S4_S3_ = comdat any

$_ZNSt11__copy_moveILb0ELb1ESt26random_access_iterator_tagE8__copy_mIiEEPT_PKS3_S6_S4_ = comdat any

$_ZNKSt16initializer_listIiE4sizeEv = comdat any

$_ZNSt12_Vector_baseIiSaIiEE13_M_deallocateEPim = comdat any

$_ZNSt12_Vector_baseIiSaIiEE12_Vector_implD2Ev = comdat any

$_ZNSt16allocator_traitsISaIiEE10deallocateERS0_Pim = comdat any

$_ZNSt15__new_allocatorIiE10deallocateEPim = comdat any

$_ZNSt15__new_allocatorIiED2Ev = comdat any

$_ZN4absl15random_internal19uniform_lower_boundImNS_21IntervalClosedOpenTagEEENSt9enable_ifIXsr4absl11disjunctionISt7is_sameIT0_NS_23IntervalClosedClosedTagEES4_IS5_S2_EEE5valueET_E4typeES5_S9_S9_ = comdat any

$_ZN4absl15random_internal19uniform_upper_boundImNS_21IntervalClosedOpenTagEEENSt9enable_ifIXsr4absl11conjunctionINS0_10IsIntegralIT_EENS_11disjunctionIJSt7is_sameIT0_S2_ES8_IS9_NS_19IntervalOpenOpenTagEEEEEEE5valueES5_E4typeES9_S5_S5_ = comdat any

$_ZN4absl15random_internal22is_uniform_range_validImEENSt9enable_ifIXsr10IsIntegralIT_EE5valueEbE4typeES3_S3_ = comdat any

$_ZN4absl15random_internal18DistributionCallerISt23mersenne_twister_engineImLm64ELm312ELm156ELm31ELm13043109905998158313ELm29ELm6148914691236517205ELm17ELm8202884508482404352ELm37ELm18444473444759240704ELm43ELm6364136223846793005EEE4CallINS0_26UniformDistributionWrapperImEEJmmEEENT_11result_typeEPS3_DpOT0_ = comdat any

$_ZNSt14numeric_limitsImE3minEv = comdat any

$_ZN4absl15random_internal18DistributionCallerISt23mersenne_twister_engineImLm64ELm312ELm156ELm31ELm13043109905998158313ELm29ELm6148914691236517205ELm17ELm8202884508482404352ELm37ELm18444473444759240704ELm43ELm6364136223846793005EEE4ImplINS0_26UniformDistributionWrapperImEEJmmEEENT_11result_typeESt17integral_constantIbLb0EEPS3_DpOT0_ = comdat any

$_ZN4absl15random_internal26UniformDistributionWrapperImEC2Emm = comdat any

$_ZN4absl24uniform_int_distributionImEclISt23mersenne_twister_engineImLm64ELm312ELm156ELm31ELm13043109905998158313ELm29ELm6148914691236517205ELm17ELm8202884508482404352ELm37ELm18444473444759240704ELm43ELm6364136223846793005EEEEmRT_ = comdat any

$_ZN4absl24uniform_int_distributionImE10param_typeC2Emm = comdat any

$_ZN4absl24uniform_int_distributionImEclISt23mersenne_twister_engineImLm64ELm312ELm156ELm31ELm13043109905998158313ELm29ELm6148914691236517205ELm17ELm8202884508482404352ELm37ELm18444473444759240704ELm43ELm6364136223846793005EEEEmRT_RKNS1_10param_typeE = comdat any

$_ZNK4absl24uniform_int_distributionImE5paramEv = comdat any

$_ZNK4absl24uniform_int_distributionImE10param_type1aEv = comdat any

$_ZN4absl24uniform_int_distributionImE8GenerateISt23mersenne_twister_engineImLm64ELm312ELm156ELm31ELm13043109905998158313ELm29ELm6148914691236517205ELm17ELm8202884508482404352ELm37ELm18444473444759240704ELm43ELm6364136223846793005EEEEmRT_m = comdat any

$_ZNK4absl24uniform_int_distributionImE10param_type5rangeEv = comdat any

$_ZN4absl15random_internal18DistributionCallerISt23mersenne_twister_engineImLm64ELm312ELm156ELm31ELm13043109905998158313ELm29ELm6148914691236517205ELm17ELm8202884508482404352ELm37ELm18444473444759240704ELm43ELm6364136223846793005EEE4CallINS0_26UniformDistributionWrapperImEEJRmS8_EEENT_11result_typeEPS3_DpOT0_ = comdat any

$_ZN4absl15random_internal18DistributionCallerISt23mersenne_twister_engineImLm64ELm312ELm156ELm31ELm13043109905998158313ELm29ELm6148914691236517205ELm17ELm8202884508482404352ELm37ELm18444473444759240704ELm43ELm6364136223846793005EEE4ImplINS0_26UniformDistributionWrapperImEEJRmS8_EEENT_11result_typeESt17integral_constantIbLb0EEPS3_DpOT0_ = comdat any

$_ZN4absl15random_internal18DistributionCallerISt23mersenne_twister_engineImLm64ELm312ELm156ELm31ELm13043109905998158313ELm29ELm6148914691236517205ELm17ELm8202884508482404352ELm37ELm18444473444759240704ELm43ELm6364136223846793005EEE4CallINS0_26UniformDistributionWrapperIdEEJRNS_19IntervalOpenOpenTagEddEEENT_11result_typeEPS3_DpOT0_ = comdat any

$_ZN4absl15random_internal18DistributionCallerISt23mersenne_twister_engineImLm64ELm312ELm156ELm31ELm13043109905998158313ELm29ELm6148914691236517205ELm17ELm8202884508482404352ELm37ELm18444473444759240704ELm43ELm6364136223846793005EEE4ImplINS0_26UniformDistributionWrapperIdEEJRNS_19IntervalOpenOpenTagEddEEENT_11result_typeESt17integral_constantIbLb0EEPS3_DpOT0_ = comdat any

$_ZN4absl15random_internal19uniform_lower_boundIaNS_21IntervalClosedOpenTagEEENSt9enable_ifIXsr4absl11disjunctionISt7is_sameIT0_NS_23IntervalClosedClosedTagEES4_IS5_S2_EEE5valueET_E4typeES5_S9_S9_ = comdat any

$_ZN4absl15random_internal19uniform_upper_boundIaNS_21IntervalClosedOpenTagEEENSt9enable_ifIXsr4absl11conjunctionINS0_10IsIntegralIT_EENS_11disjunctionIJSt7is_sameIT0_S2_ES8_IS9_NS_19IntervalOpenOpenTagEEEEEEE5valueES5_E4typeES9_S5_S5_ = comdat any

$_ZN4absl15random_internal22is_uniform_range_validIaEENSt9enable_ifIXsr10IsIntegralIT_EE5valueEbE4typeES3_S3_ = comdat any

$_ZN4absl15random_internal18DistributionCallerISt23mersenne_twister_engineImLm64ELm312ELm156ELm31ELm13043109905998158313ELm29ELm6148914691236517205ELm17ELm8202884508482404352ELm37ELm18444473444759240704ELm43ELm6364136223846793005EEE4CallINS0_26UniformDistributionWrapperIaEEJRaS8_EEENT_11result_typeEPS3_DpOT0_ = comdat any

$_ZNSt14numeric_limitsIaE3minEv = comdat any

$_ZN4absl15random_internal18DistributionCallerISt23mersenne_twister_engineImLm64ELm312ELm156ELm31ELm13043109905998158313ELm29ELm6148914691236517205ELm17ELm8202884508482404352ELm37ELm18444473444759240704ELm43ELm6364136223846793005EEE4ImplINS0_26UniformDistributionWrapperIaEEJRaS8_EEENT_11result_typeESt17integral_constantIbLb0EEPS3_DpOT0_ = comdat any

$_ZN4absl15random_internal26UniformDistributionWrapperIaEC2Eaa = comdat any

$_ZN4absl24uniform_int_distributionIaEclISt23mersenne_twister_engineImLm64ELm312ELm156ELm31ELm13043109905998158313ELm29ELm6148914691236517205ELm17ELm8202884508482404352ELm37ELm18444473444759240704ELm43ELm6364136223846793005EEEEaRT_ = comdat any

$_ZN4absl24uniform_int_distributionIaE10param_typeC2Eaa = comdat any

$_ZN4absl24uniform_int_distributionIaEclISt23mersenne_twister_engineImLm64ELm312ELm156ELm31ELm13043109905998158313ELm29ELm6148914691236517205ELm17ELm8202884508482404352ELm37ELm18444473444759240704ELm43ELm6364136223846793005EEEEaRT_RKNS1_10param_typeE = comdat any

$_ZNK4absl24uniform_int_distributionIaE5paramEv = comdat any

$_ZNK4absl24uniform_int_distributionIaE10param_type1aEv = comdat any

$_ZN4absl24uniform_int_distributionIaE8GenerateISt23mersenne_twister_engineImLm64ELm312ELm156ELm31ELm13043109905998158313ELm29ELm6148914691236517205ELm17ELm8202884508482404352ELm37ELm18444473444759240704ELm43ELm6364136223846793005EEEEhRT_h = comdat any

$_ZNK4absl24uniform_int_distributionIaE10param_type5rangeEv = comdat any

$_ZN4absl15random_internal15FastUniformBitsIhEclISt23mersenne_twister_engineImLm64ELm312ELm156ELm31ELm13043109905998158313ELm29ELm6148914691236517205ELm17ELm8202884508482404352ELm37ELm18444473444759240704ELm43ELm6364136223846793005EEEEhRT_ = comdat any

$_ZN4absl15random_internal13wide_multiplyIhE8multiplyEhh = comdat any

$_ZN4absl15random_internal13wide_multiplyIhE2loEt = comdat any

$_ZNSt14numeric_limitsIhE3maxEv = comdat any

$_ZN4absl15random_internal13wide_multiplyIhE2hiEt = comdat any

$_ZN4absl15random_internal15FastUniformBitsIhE8GenerateISt23mersenne_twister_engineImLm64ELm312ELm156ELm31ELm13043109905998158313ELm29ELm6148914691236517205ELm17ELm8202884508482404352ELm37ELm18444473444759240704ELm43ELm6364136223846793005EEEEhRT_NS0_17SimplifiedLoopTagE = comdat any

$_ZN4absl15random_internal19uniform_lower_boundIsNS_21IntervalClosedOpenTagEEENSt9enable_ifIXsr4absl11disjunctionISt7is_sameIT0_NS_23IntervalClosedClosedTagEES4_IS5_S2_EEE5valueET_E4typeES5_S9_S9_ = comdat any

$_ZN4absl15random_internal19uniform_upper_boundIsNS_21IntervalClosedOpenTagEEENSt9enable_ifIXsr4absl11conjunctionINS0_10IsIntegralIT_EENS_11disjunctionIJSt7is_sameIT0_S2_ES8_IS9_NS_19IntervalOpenOpenTagEEEEEEE5valueES5_E4typeES9_S5_S5_ = comdat any

$_ZN4absl15random_internal22is_uniform_range_validIsEENSt9enable_ifIXsr10IsIntegralIT_EE5valueEbE4typeES3_S3_ = comdat any

$_ZN4absl15random_internal18DistributionCallerISt23mersenne_twister_engineImLm64ELm312ELm156ELm31ELm13043109905998158313ELm29ELm6148914691236517205ELm17ELm8202884508482404352ELm37ELm18444473444759240704ELm43ELm6364136223846793005EEE4CallINS0_26UniformDistributionWrapperIsEEJRsS8_EEENT_11result_typeEPS3_DpOT0_ = comdat any

$_ZNSt14numeric_limitsIsE3minEv = comdat any

$_ZN4absl15random_internal18DistributionCallerISt23mersenne_twister_engineImLm64ELm312ELm156ELm31ELm13043109905998158313ELm29ELm6148914691236517205ELm17ELm8202884508482404352ELm37ELm18444473444759240704ELm43ELm6364136223846793005EEE4ImplINS0_26UniformDistributionWrapperIsEEJRsS8_EEENT_11result_typeESt17integral_constantIbLb0EEPS3_DpOT0_ = comdat any

$_ZN4absl15random_internal26UniformDistributionWrapperIsEC2Ess = comdat any

$_ZN4absl24uniform_int_distributionIsEclISt23mersenne_twister_engineImLm64ELm312ELm156ELm31ELm13043109905998158313ELm29ELm6148914691236517205ELm17ELm8202884508482404352ELm37ELm18444473444759240704ELm43ELm6364136223846793005EEEEsRT_ = comdat any

$_ZN4absl24uniform_int_distributionIsE10param_typeC2Ess = comdat any

$_ZN4absl24uniform_int_distributionIsEclISt23mersenne_twister_engineImLm64ELm312ELm156ELm31ELm13043109905998158313ELm29ELm6148914691236517205ELm17ELm8202884508482404352ELm37ELm18444473444759240704ELm43ELm6364136223846793005EEEEsRT_RKNS1_10param_typeE = comdat any

$_ZNK4absl24uniform_int_distributionIsE5paramEv = comdat any

$_ZNK4absl24uniform_int_distributionIsE10param_type1aEv = comdat any

$_ZN4absl24uniform_int_distributionIsE8GenerateISt23mersenne_twister_engineImLm64ELm312ELm156ELm31ELm13043109905998158313ELm29ELm6148914691236517205ELm17ELm8202884508482404352ELm37ELm18444473444759240704ELm43ELm6364136223846793005EEEEtRT_t = comdat any

$_ZNK4absl24uniform_int_distributionIsE10param_type5rangeEv = comdat any

$_ZN4absl15random_internal15FastUniformBitsItEclISt23mersenne_twister_engineImLm64ELm312ELm156ELm31ELm13043109905998158313ELm29ELm6148914691236517205ELm17ELm8202884508482404352ELm37ELm18444473444759240704ELm43ELm6364136223846793005EEEEtRT_ = comdat any

$_ZN4absl15random_internal13wide_multiplyItE8multiplyEtt = comdat any

$_ZN4absl15random_internal13wide_multiplyItE2loEj = comdat any

$_ZNSt14numeric_limitsItE3maxEv = comdat any

$_ZN4absl15random_internal13wide_multiplyItE2hiEj = comdat any

$_ZN4absl15random_internal15FastUniformBitsItE8GenerateISt23mersenne_twister_engineImLm64ELm312ELm156ELm31ELm13043109905998158313ELm29ELm6148914691236517205ELm17ELm8202884508482404352ELm37ELm18444473444759240704ELm43ELm6364136223846793005EEEEtRT_NS0_17SimplifiedLoopTagE = comdat any

$_ZN4absl15random_internal19uniform_lower_boundItNS_21IntervalClosedOpenTagEEENSt9enable_ifIXsr4absl11disjunctionISt7is_sameIT0_NS_23IntervalClosedClosedTagEES4_IS5_S2_EEE5valueET_E4typeES5_S9_S9_ = comdat any

$_ZN4absl15random_internal19uniform_upper_boundItNS_21IntervalClosedOpenTagEEENSt9enable_ifIXsr4absl11conjunctionINS0_10IsIntegralIT_EENS_11disjunctionIJSt7is_sameIT0_S2_ES8_IS9_NS_19IntervalOpenOpenTagEEEEEEE5valueES5_E4typeES9_S5_S5_ = comdat any

$_ZN4absl15random_internal22is_uniform_range_validItEENSt9enable_ifIXsr10IsIntegralIT_EE5valueEbE4typeES3_S3_ = comdat any

$_ZN4absl15random_internal18DistributionCallerISt23mersenne_twister_engineImLm64ELm312ELm156ELm31ELm13043109905998158313ELm29ELm6148914691236517205ELm17ELm8202884508482404352ELm37ELm18444473444759240704ELm43ELm6364136223846793005EEE4CallINS0_26UniformDistributionWrapperItEEJRtS8_EEENT_11result_typeEPS3_DpOT0_ = comdat any

$_ZNSt14numeric_limitsItE3minEv = comdat any

$_ZN4absl15random_internal18DistributionCallerISt23mersenne_twister_engineImLm64ELm312ELm156ELm31ELm13043109905998158313ELm29ELm6148914691236517205ELm17ELm8202884508482404352ELm37ELm18444473444759240704ELm43ELm6364136223846793005EEE4ImplINS0_26UniformDistributionWrapperItEEJRtS8_EEENT_11result_typeESt17integral_constantIbLb0EEPS3_DpOT0_ = comdat any

$_ZN4absl15random_internal26UniformDistributionWrapperItEC2Ett = comdat any

$_ZN4absl24uniform_int_distributionItEclISt23mersenne_twister_engineImLm64ELm312ELm156ELm31ELm13043109905998158313ELm29ELm6148914691236517205ELm17ELm8202884508482404352ELm37ELm18444473444759240704ELm43ELm6364136223846793005EEEEtRT_ = comdat any

$_ZN4absl24uniform_int_distributionItE10param_typeC2Ett = comdat any

$_ZN4absl24uniform_int_distributionItEclISt23mersenne_twister_engineImLm64ELm312ELm156ELm31ELm13043109905998158313ELm29ELm6148914691236517205ELm17ELm8202884508482404352ELm37ELm18444473444759240704ELm43ELm6364136223846793005EEEEtRT_RKNS1_10param_typeE = comdat any

$_ZNK4absl24uniform_int_distributionItE5paramEv = comdat any

$_ZNK4absl24uniform_int_distributionItE10param_type1aEv = comdat any

$_ZN4absl24uniform_int_distributionItE8GenerateISt23mersenne_twister_engineImLm64ELm312ELm156ELm31ELm13043109905998158313ELm29ELm6148914691236517205ELm17ELm8202884508482404352ELm37ELm18444473444759240704ELm43ELm6364136223846793005EEEEtRT_t = comdat any

$_ZNK4absl24uniform_int_distributionItE10param_type5rangeEv = comdat any

$_ZN4absl15random_internal19uniform_lower_boundIjNS_21IntervalClosedOpenTagEEENSt9enable_ifIXsr4absl11disjunctionISt7is_sameIT0_NS_23IntervalClosedClosedTagEES4_IS5_S2_EEE5valueET_E4typeES5_S9_S9_ = comdat any

$_ZN4absl15random_internal19uniform_upper_boundIjNS_21IntervalClosedOpenTagEEENSt9enable_ifIXsr4absl11conjunctionINS0_10IsIntegralIT_EENS_11disjunctionIJSt7is_sameIT0_S2_ES8_IS9_NS_19IntervalOpenOpenTagEEEEEEE5valueES5_E4typeES9_S5_S5_ = comdat any

$_ZN4absl15random_internal22is_uniform_range_validIjEENSt9enable_ifIXsr10IsIntegralIT_EE5valueEbE4typeES3_S3_ = comdat any

$_ZN4absl15random_internal18DistributionCallerISt23mersenne_twister_engineImLm64ELm312ELm156ELm31ELm13043109905998158313ELm29ELm6148914691236517205ELm17ELm8202884508482404352ELm37ELm18444473444759240704ELm43ELm6364136223846793005EEE4CallINS0_26UniformDistributionWrapperIjEEJRjS8_EEENT_11result_typeEPS3_DpOT0_ = comdat any

$_ZNSt14numeric_limitsIjE3minEv = comdat any

$_ZN4absl15random_internal18DistributionCallerISt23mersenne_twister_engineImLm64ELm312ELm156ELm31ELm13043109905998158313ELm29ELm6148914691236517205ELm17ELm8202884508482404352ELm37ELm18444473444759240704ELm43ELm6364136223846793005EEE4ImplINS0_26UniformDistributionWrapperIjEEJRjS8_EEENT_11result_typeESt17integral_constantIbLb0EEPS3_DpOT0_ = comdat any

$_ZN4absl15random_internal26UniformDistributionWrapperIjEC2Ejj = comdat any

$_ZN4absl24uniform_int_distributionIjEclISt23mersenne_twister_engineImLm64ELm312ELm156ELm31ELm13043109905998158313ELm29ELm6148914691236517205ELm17ELm8202884508482404352ELm37ELm18444473444759240704ELm43ELm6364136223846793005EEEEjRT_ = comdat any

$_ZN4absl24uniform_int_distributionIjE10param_typeC2Ejj = comdat any

$_ZN4absl24uniform_int_distributionIjEclISt23mersenne_twister_engineImLm64ELm312ELm156ELm31ELm13043109905998158313ELm29ELm6148914691236517205ELm17ELm8202884508482404352ELm37ELm18444473444759240704ELm43ELm6364136223846793005EEEEjRT_RKNS1_10param_typeE = comdat any

$_ZNK4absl24uniform_int_distributionIjE5paramEv = comdat any

$_ZNK4absl24uniform_int_distributionIjE10param_type1aEv = comdat any

$_ZN4absl24uniform_int_distributionIjE8GenerateISt23mersenne_twister_engineImLm64ELm312ELm156ELm31ELm13043109905998158313ELm29ELm6148914691236517205ELm17ELm8202884508482404352ELm37ELm18444473444759240704ELm43ELm6364136223846793005EEEEjRT_j = comdat any

$_ZNK4absl24uniform_int_distributionIjE10param_type5rangeEv = comdat any

$_ZN4absl15random_internal18DistributionCallerISt23mersenne_twister_engineImLm64ELm312ELm156ELm31ELm13043109905998158313ELm29ELm6148914691236517205ELm17ELm8202884508482404352ELm37ELm18444473444759240704ELm43ELm6364136223846793005EEE4CallINS0_26UniformDistributionWrapperIlEEJRlS8_EEENT_11result_typeEPS3_DpOT0_ = comdat any

$_ZN4absl15random_internal18DistributionCallerISt23mersenne_twister_engineImLm64ELm312ELm156ELm31ELm13043109905998158313ELm29ELm6148914691236517205ELm17ELm8202884508482404352ELm37ELm18444473444759240704ELm43ELm6364136223846793005EEE4ImplINS0_26UniformDistributionWrapperIlEEJRlS8_EEENT_11result_typeESt17integral_constantIbLb0EEPS3_DpOT0_ = comdat any

$_ZN4absl15random_internal19uniform_lower_boundIfNS_21IntervalClosedOpenTagEEENSt9enable_ifIXsr4absl11disjunctionISt7is_sameIT0_NS_23IntervalClosedClosedTagEES4_IS5_S2_EEE5valueET_E4typeES5_S9_S9_ = comdat any

$_ZN4absl15random_internal19uniform_upper_boundIfNS_21IntervalClosedOpenTagEEENSt9enable_ifIXsr4absl11conjunctionISt17is_floating_pointIT_ENS_11disjunctionIJSt7is_sameIT0_S2_ES8_IS9_NS_19IntervalOpenOpenTagEEEEEEE5valueES5_E4typeES9_S5_S5_ = comdat any

$_ZN4absl15random_internal22is_uniform_range_validIfEENSt9enable_ifIXsr3std17is_floating_pointIT_EE5valueEbE4typeES3_S3_ = comdat any

$_ZN4absl15random_internal18DistributionCallerISt23mersenne_twister_engineImLm64ELm312ELm156ELm31ELm13043109905998158313ELm29ELm6148914691236517205ELm17ELm8202884508482404352ELm37ELm18444473444759240704ELm43ELm6364136223846793005EEE4CallINS0_26UniformDistributionWrapperIfEEJRfS8_EEENT_11result_typeEPS3_DpOT0_ = comdat any

$_ZSt8isfinitef = comdat any

$_ZN4absl15random_internal18DistributionCallerISt23mersenne_twister_engineImLm64ELm312ELm156ELm31ELm13043109905998158313ELm29ELm6148914691236517205ELm17ELm8202884508482404352ELm37ELm18444473444759240704ELm43ELm6364136223846793005EEE4ImplINS0_26UniformDistributionWrapperIfEEJRfS8_EEENT_11result_typeESt17integral_constantIbLb0EEPS3_DpOT0_ = comdat any

$_ZN4absl15random_internal26UniformDistributionWrapperIfEC2Eff = comdat any

$_ZN4absl25uniform_real_distributionIfEclISt23mersenne_twister_engineImLm64ELm312ELm156ELm31ELm13043109905998158313ELm29ELm6148914691236517205ELm17ELm8202884508482404352ELm37ELm18444473444759240704ELm43ELm6364136223846793005EEEEfRT_ = comdat any

$_ZN4absl25uniform_real_distributionIfEC2Eff = comdat any

$_ZN4absl25uniform_real_distributionIfE10param_typeC2Eff = comdat any

$_ZN4absl25uniform_real_distributionIfEclISt23mersenne_twister_engineImLm64ELm312ELm156ELm31ELm13043109905998158313ELm29ELm6148914691236517205ELm17ELm8202884508482404352ELm37ELm18444473444759240704ELm43ELm6364136223846793005EEEEfRT_RKNS1_10param_typeE = comdat any

$_ZN4absl15random_internal20GenerateRealFromBitsIfNS0_19GeneratePositiveTagELb1EEET_mi = comdat any

$_ZNK4absl25uniform_real_distributionIfE10param_type1aEv = comdat any

$_ZNK4absl25uniform_real_distributionIfE10param_type1bEv = comdat any

$_ZN4absl15random_internal19uniform_lower_boundIdNS_23IntervalClosedClosedTagEEENSt9enable_ifIXsr4absl11disjunctionISt7is_sameIT0_S2_ES4_IS5_NS_21IntervalClosedOpenTagEEEE5valueET_E4typeES5_S9_S9_ = comdat any

$_ZN4absl15random_internal19uniform_upper_boundIdNS_23IntervalClosedClosedTagEEENSt9enable_ifIXsr4absl11conjunctionISt17is_floating_pointIT_ENS_11disjunctionIJSt7is_sameIT0_S2_ES8_IS9_NS_21IntervalOpenClosedTagEEEEEEE5valueES5_E4typeES9_S5_S5_ = comdat any

$_ZN4absl15random_internal18DistributionCallerISt23mersenne_twister_engineImLm64ELm312ELm156ELm31ELm13043109905998158313ELm29ELm6148914691236517205ELm17ELm8202884508482404352ELm37ELm18444473444759240704ELm43ELm6364136223846793005EEE4CallINS0_26UniformDistributionWrapperIdEEJRNS_23IntervalClosedClosedTagERdSA_EEENT_11result_typeEPS3_DpOT0_ = comdat any

$_ZNSt14numeric_limitsIdE3maxEv = comdat any

$_ZN4absl15random_internal18DistributionCallerISt23mersenne_twister_engineImLm64ELm312ELm156ELm31ELm13043109905998158313ELm29ELm6148914691236517205ELm17ELm8202884508482404352ELm37ELm18444473444759240704ELm43ELm6364136223846793005EEE4ImplINS0_26UniformDistributionWrapperIdEEJRNS_23IntervalClosedClosedTagERdSA_EEENT_11result_typeESt17integral_constantIbLb0EEPS3_DpOT0_ = comdat any

$_ZN4absl15random_internal26UniformDistributionWrapperIdEC2INS_23IntervalClosedClosedTagEEET_dd = comdat any

$_ZN4absl15random_internal18DistributionCallerISt23mersenne_twister_engineImLm64ELm312ELm156ELm31ELm13043109905998158313ELm29ELm6148914691236517205ELm17ELm8202884508482404352ELm37ELm18444473444759240704ELm43ELm6364136223846793005EEE4CallINS0_26UniformDistributionWrapperIdEEJRNS_21IntervalClosedOpenTagERdSA_EEENT_11result_typeEPS3_DpOT0_ = comdat any

$_ZN4absl15random_internal18DistributionCallerISt23mersenne_twister_engineImLm64ELm312ELm156ELm31ELm13043109905998158313ELm29ELm6148914691236517205ELm17ELm8202884508482404352ELm37ELm18444473444759240704ELm43ELm6364136223846793005EEE4ImplINS0_26UniformDistributionWrapperIdEEJRNS_21IntervalClosedOpenTagERdSA_EEENT_11result_typeESt17integral_constantIbLb0EEPS3_DpOT0_ = comdat any

$_ZN4absl15random_internal26UniformDistributionWrapperIdEC2INS_21IntervalClosedOpenTagEEET_dd = comdat any

$_ZN4absl15random_internal19uniform_lower_boundIdNS_21IntervalOpenClosedTagEEENSt9enable_ifIXsr4absl11conjunctionISt17is_floating_pointIT_ENS_11disjunctionIJSt7is_sameIT0_S2_ES8_IS9_NS_19IntervalOpenOpenTagEEEEEEE5valueES5_E4typeES9_S5_S5_ = comdat any

$_ZN4absl15random_internal19uniform_upper_boundIdNS_21IntervalOpenClosedTagEEENSt9enable_ifIXsr4absl11conjunctionISt17is_floating_pointIT_ENS_11disjunctionIJSt7is_sameIT0_NS_23IntervalClosedClosedTagEES8_IS9_S2_EEEEEE5valueES5_E4typeES9_S5_S5_ = comdat any

$_ZN4absl15random_internal18DistributionCallerISt23mersenne_twister_engineImLm64ELm312ELm156ELm31ELm13043109905998158313ELm29ELm6148914691236517205ELm17ELm8202884508482404352ELm37ELm18444473444759240704ELm43ELm6364136223846793005EEE4CallINS0_26UniformDistributionWrapperIdEEJRNS_21IntervalOpenClosedTagERdSA_EEENT_11result_typeEPS3_DpOT0_ = comdat any

$_ZN4absl15random_internal18DistributionCallerISt23mersenne_twister_engineImLm64ELm312ELm156ELm31ELm13043109905998158313ELm29ELm6148914691236517205ELm17ELm8202884508482404352ELm37ELm18444473444759240704ELm43ELm6364136223846793005EEE4ImplINS0_26UniformDistributionWrapperIdEEJRNS_21IntervalOpenClosedTagERdSA_EEENT_11result_typeESt17integral_constantIbLb0EEPS3_DpOT0_ = comdat any

$_ZN4absl15random_internal26UniformDistributionWrapperIdEC2INS_21IntervalOpenClosedTagEEET_dd = comdat any

$_ZN4absl15random_internal18DistributionCallerISt23mersenne_twister_engineImLm64ELm312ELm156ELm31ELm13043109905998158313ELm29ELm6148914691236517205ELm17ELm8202884508482404352ELm37ELm18444473444759240704ELm43ELm6364136223846793005EEE4CallINS0_26UniformDistributionWrapperIiEEJRNS_21IntervalClosedOpenTagERiSA_EEENT_11result_typeEPS3_DpOT0_ = comdat any

$_ZN4absl15random_internal18DistributionCallerISt23mersenne_twister_engineImLm64ELm312ELm156ELm31ELm13043109905998158313ELm29ELm6148914691236517205ELm17ELm8202884508482404352ELm37ELm18444473444759240704ELm43ELm6364136223846793005EEE4ImplINS0_26UniformDistributionWrapperIiEEJRNS_21IntervalClosedOpenTagERiSA_EEENT_11result_typeESt17integral_constantIbLb0EEPS3_DpOT0_ = comdat any

$_ZN4absl15random_internal26UniformDistributionWrapperIiEC2INS_21IntervalClosedOpenTagEEET_ii = comdat any

$_ZN4absl15random_internal19uniform_lower_boundIiNS_19IntervalOpenOpenTagEEENSt9enable_ifIXsr4absl11conjunctionINS0_10IsIntegralIT_EENS_11disjunctionIJSt7is_sameIT0_NS_21IntervalOpenClosedTagEES8_IS9_S2_EEEEEE5valueES5_E4typeES9_S5_S5_ = comdat any

$_ZN4absl15random_internal19uniform_upper_boundIiNS_19IntervalOpenOpenTagEEENSt9enable_ifIXsr4absl11conjunctionINS0_10IsIntegralIT_EENS_11disjunctionIJSt7is_sameIT0_NS_21IntervalClosedOpenTagEES8_IS9_S2_EEEEEE5valueES5_E4typeES9_S5_S5_ = comdat any

$_ZN4absl15random_internal18DistributionCallerISt23mersenne_twister_engineImLm64ELm312ELm156ELm31ELm13043109905998158313ELm29ELm6148914691236517205ELm17ELm8202884508482404352ELm37ELm18444473444759240704ELm43ELm6364136223846793005EEE4CallINS0_26UniformDistributionWrapperIiEEJRNS_19IntervalOpenOpenTagERiSA_EEENT_11result_typeEPS3_DpOT0_ = comdat any

$_ZNSt14numeric_limitsIiE3maxEv = comdat any

$_ZN4absl15random_internal18DistributionCallerISt23mersenne_twister_engineImLm64ELm312ELm156ELm31ELm13043109905998158313ELm29ELm6148914691236517205ELm17ELm8202884508482404352ELm37ELm18444473444759240704ELm43ELm6364136223846793005EEE4ImplINS0_26UniformDistributionWrapperIiEEJRNS_19IntervalOpenOpenTagERiSA_EEENT_11result_typeESt17integral_constantIbLb0EEPS3_DpOT0_ = comdat any

$_ZN4absl15random_internal26UniformDistributionWrapperIiEC2INS_19IntervalOpenOpenTagEEET_ii = comdat any

$_ZN4absl15random_internal19uniform_lower_boundIiNS_21IntervalOpenClosedTagEEENSt9enable_ifIXsr4absl11conjunctionINS0_10IsIntegralIT_EENS_11disjunctionIJSt7is_sameIT0_S2_ES8_IS9_NS_19IntervalOpenOpenTagEEEEEEE5valueES5_E4typeES9_S5_S5_ = comdat any

$_ZN4absl15random_internal19uniform_upper_boundIiNS_21IntervalOpenClosedTagEEENSt9enable_ifIXsr4absl11conjunctionINS0_10IsIntegralIT_EENS_11disjunctionIJSt7is_sameIT0_NS_23IntervalClosedClosedTagEES8_IS9_S2_EEEEEE5valueES5_E4typeES9_S5_S5_ = comdat any

$_ZN4absl15random_internal18DistributionCallerISt23mersenne_twister_engineImLm64ELm312ELm156ELm31ELm13043109905998158313ELm29ELm6148914691236517205ELm17ELm8202884508482404352ELm37ELm18444473444759240704ELm43ELm6364136223846793005EEE4CallINS0_26UniformDistributionWrapperIiEEJRNS_21IntervalOpenClosedTagERiSA_EEENT_11result_typeEPS3_DpOT0_ = comdat any

$_ZN4absl15random_internal18DistributionCallerISt23mersenne_twister_engineImLm64ELm312ELm156ELm31ELm13043109905998158313ELm29ELm6148914691236517205ELm17ELm8202884508482404352ELm37ELm18444473444759240704ELm43ELm6364136223846793005EEE4ImplINS0_26UniformDistributionWrapperIiEEJRNS_21IntervalOpenClosedTagERiSA_EEENT_11result_typeESt17integral_constantIbLb0EEPS3_DpOT0_ = comdat any

$_ZN4absl15random_internal26UniformDistributionWrapperIiEC2INS_21IntervalOpenClosedTagEEET_ii = comdat any

$_ZSt8_DestroyIPiiEvT_S1_RSaIT0_E = comdat any

$_ZSt8_DestroyIPiEvT_S1_ = comdat any

$_ZNSt12_Destroy_auxILb1EE9__destroyIPiEEvT_S3_ = comdat any

$_ZN4absl11ExponentialIfRSt23mersenne_twister_engineImLm64ELm312ELm156ELm31ELm13043109905998158313ELm29ELm6148914691236517205ELm17ELm8202884508482404352ELm37ELm18444473444759240704ELm43ELm6364136223846793005EEEET_OT0_S4_ = comdat any

$_ZN4absl11ExponentialIdRSt23mersenne_twister_engineImLm64ELm312ELm156ELm31ELm13043109905998158313ELm29ELm6148914691236517205ELm17ELm8202884508482404352ELm37ELm18444473444759240704ELm43ELm6364136223846793005EEEET_OT0_S4_ = comdat any

$_ZN4absl11ExponentialIdSt23mersenne_twister_engineImLm64ELm312ELm156ELm31ELm13043109905998158313ELm29ELm6148914691236517205ELm17ELm8202884508482404352ELm37ELm18444473444759240704ELm43ELm6364136223846793005EEEET_OT0_S3_ = comdat any

$_ZN4absl15random_internal18DistributionCallerISt23mersenne_twister_engineImLm64ELm312ELm156ELm31ELm13043109905998158313ELm29ELm6148914691236517205ELm17ELm8202884508482404352ELm37ELm18444473444759240704ELm43ELm6364136223846793005EEE4CallINS_24exponential_distributionIfEEJRfEEENT_11result_typeEPS3_DpOT0_ = comdat any

$_ZN4absl15random_internal18DistributionCallerISt23mersenne_twister_engineImLm64ELm312ELm156ELm31ELm13043109905998158313ELm29ELm6148914691236517205ELm17ELm8202884508482404352ELm37ELm18444473444759240704ELm43ELm6364136223846793005EEE4ImplINS_24exponential_distributionIfEEJRfEEENT_11result_typeESt17integral_constantIbLb0EEPS3_DpOT0_ = comdat any

$_ZN4absl24exponential_distributionIfEC2Ef = comdat any

$_ZN4absl24exponential_distributionIfEclISt23mersenne_twister_engineImLm64ELm312ELm156ELm31ELm13043109905998158313ELm29ELm6148914691236517205ELm17ELm8202884508482404352ELm37ELm18444473444759240704ELm43ELm6364136223846793005EEEEfRT_ = comdat any

$_ZN4absl24exponential_distributionIfE10param_typeC2Ef = comdat any

$_ZN4absl24exponential_distributionIfEclISt23mersenne_twister_engineImLm64ELm312ELm156ELm31ELm13043109905998158313ELm29ELm6148914691236517205ELm17ELm8202884508482404352ELm37ELm18444473444759240704ELm43ELm6364136223846793005EEEEfRT_RKNS1_10param_typeE = comdat any

$_ZN4absl15random_internal20GenerateRealFromBitsIfNS0_19GenerateNegativeTagELb0EEET_mi = comdat any

$_ZSt5log1pf = comdat any

$_ZN4absl15random_internal18DistributionCallerISt23mersenne_twister_engineImLm64ELm312ELm156ELm31ELm13043109905998158313ELm29ELm6148914691236517205ELm17ELm8202884508482404352ELm37ELm18444473444759240704ELm43ELm6364136223846793005EEE4CallINS_24exponential_distributionIdEEJRdEEENT_11result_typeEPS3_DpOT0_ = comdat any

$_ZN4absl15random_internal18DistributionCallerISt23mersenne_twister_engineImLm64ELm312ELm156ELm31ELm13043109905998158313ELm29ELm6148914691236517205ELm17ELm8202884508482404352ELm37ELm18444473444759240704ELm43ELm6364136223846793005EEE4ImplINS_24exponential_distributionIdEEJRdEEENT_11result_typeESt17integral_constantIbLb0EEPS3_DpOT0_ = comdat any

$_ZN4absl24exponential_distributionIdEC2Ed = comdat any

$_ZN4absl24exponential_distributionIdEclISt23mersenne_twister_engineImLm64ELm312ELm156ELm31ELm13043109905998158313ELm29ELm6148914691236517205ELm17ELm8202884508482404352ELm37ELm18444473444759240704ELm43ELm6364136223846793005EEEEdRT_ = comdat any

$_ZN4absl24exponential_distributionIdE10param_typeC2Ed = comdat any

$_ZN4absl24exponential_distributionIdEclISt23mersenne_twister_engineImLm64ELm312ELm156ELm31ELm13043109905998158313ELm29ELm6148914691236517205ELm17ELm8202884508482404352ELm37ELm18444473444759240704ELm43ELm6364136223846793005EEEEdRT_RKNS1_10param_typeE = comdat any

$_ZN4absl15random_internal20GenerateRealFromBitsIdNS0_19GenerateNegativeTagELb0EEET_mi = comdat any

$_ZN4absl7PoissonIiRSt23mersenne_twister_engineImLm64ELm312ELm156ELm31ELm13043109905998158313ELm29ELm6148914691236517205ELm17ELm8202884508482404352ELm37ELm18444473444759240704ELm43ELm6364136223846793005EEEET_OT0_d = comdat any

$_ZN4absl7PoissonIsRSt23mersenne_twister_engineImLm64ELm312ELm156ELm31ELm13043109905998158313ELm29ELm6148914691236517205ELm17ELm8202884508482404352ELm37ELm18444473444759240704ELm43ELm6364136223846793005EEEET_OT0_d = comdat any

$_ZN4absl7PoissonItRSt23mersenne_twister_engineImLm64ELm312ELm156ELm31ELm13043109905998158313ELm29ELm6148914691236517205ELm17ELm8202884508482404352ELm37ELm18444473444759240704ELm43ELm6364136223846793005EEEET_OT0_d = comdat any

$_ZN4absl7PoissonIjRSt23mersenne_twister_engineImLm64ELm312ELm156ELm31ELm13043109905998158313ELm29ELm6148914691236517205ELm17ELm8202884508482404352ELm37ELm18444473444759240704ELm43ELm6364136223846793005EEEET_OT0_d = comdat any

$_ZN4absl7PoissonIlRSt23mersenne_twister_engineImLm64ELm312ELm156ELm31ELm13043109905998158313ELm29ELm6148914691236517205ELm17ELm8202884508482404352ELm37ELm18444473444759240704ELm43ELm6364136223846793005EEEET_OT0_d = comdat any

$_ZN4absl7PoissonImRSt23mersenne_twister_engineImLm64ELm312ELm156ELm31ELm13043109905998158313ELm29ELm6148914691236517205ELm17ELm8202884508482404352ELm37ELm18444473444759240704ELm43ELm6364136223846793005EEEET_OT0_d = comdat any

$_ZN4absl7PoissonImSt23mersenne_twister_engineImLm64ELm312ELm156ELm31ELm13043109905998158313ELm29ELm6148914691236517205ELm17ELm8202884508482404352ELm37ELm18444473444759240704ELm43ELm6364136223846793005EEEET_OT0_d = comdat any

$_ZN4absl7PoissonINS_6int128ERSt23mersenne_twister_engineImLm64ELm312ELm156ELm31ELm13043109905998158313ELm29ELm6148914691236517205ELm17ELm8202884508482404352ELm37ELm18444473444759240704ELm43ELm6364136223846793005EEEET_OT0_d = comdat any

$_ZN4absl7PoissonINS_7uint128ERSt23mersenne_twister_engineImLm64ELm312ELm156ELm31ELm13043109905998158313ELm29ELm6148914691236517205ELm17ELm8202884508482404352ELm37ELm18444473444759240704ELm43ELm6364136223846793005EEEET_OT0_d = comdat any

$_ZN4absl15random_internal18DistributionCallerISt23mersenne_twister_engineImLm64ELm312ELm156ELm31ELm13043109905998158313ELm29ELm6148914691236517205ELm17ELm8202884508482404352ELm37ELm18444473444759240704ELm43ELm6364136223846793005EEE4CallINS_20poisson_distributionIiEEJRdEEENT_11result_typeEPS3_DpOT0_ = comdat any

$_ZN4absl15random_internal18DistributionCallerISt23mersenne_twister_engineImLm64ELm312ELm156ELm31ELm13043109905998158313ELm29ELm6148914691236517205ELm17ELm8202884508482404352ELm37ELm18444473444759240704ELm43ELm6364136223846793005EEE4ImplINS_20poisson_distributionIiEEJRdEEENT_11result_typeESt17integral_constantIbLb0EEPS3_DpOT0_ = comdat any

$_ZN4absl20poisson_distributionIiEC2Ed = comdat any

$_ZN4absl20poisson_distributionIiEclISt23mersenne_twister_engineImLm64ELm312ELm156ELm31ELm13043109905998158313ELm29ELm6148914691236517205ELm17ELm8202884508482404352ELm37ELm18444473444759240704ELm43ELm6364136223846793005EEEEiRT_ = comdat any

$_ZN4absl20poisson_distributionIiE10param_typeC2Ed = comdat any

$_ZN4absl15random_internal20StirlingLogFactorialEd = comdat any

$_ZN4absl20poisson_distributionIiEclISt23mersenne_twister_engineImLm64ELm312ELm156ELm31ELm13043109905998158313ELm29ELm6148914691236517205ELm17ELm8202884508482404352ELm37ELm18444473444759240704ELm43ELm6364136223846793005EEEEiRT_RKNS1_10param_typeE = comdat any

$_ZN4absl15random_internal20GenerateRealFromBitsIdNS0_19GeneratePositiveTagELb0EEET_mi = comdat any

$_ZN4absl15random_internal20GenerateRealFromBitsIdNS0_17GenerateSignedTagELb0EEET_mi = comdat any

$_ZNK4absl20poisson_distributionIiE3maxEv = comdat any

$_ZN4absl15random_internal18DistributionCallerISt23mersenne_twister_engineImLm64ELm312ELm156ELm31ELm13043109905998158313ELm29ELm6148914691236517205ELm17ELm8202884508482404352ELm37ELm18444473444759240704ELm43ELm6364136223846793005EEE4CallINS_20poisson_distributionIsEEJRdEEENT_11result_typeEPS3_DpOT0_ = comdat any

$_ZN4absl15random_internal18DistributionCallerISt23mersenne_twister_engineImLm64ELm312ELm156ELm31ELm13043109905998158313ELm29ELm6148914691236517205ELm17ELm8202884508482404352ELm37ELm18444473444759240704ELm43ELm6364136223846793005EEE4ImplINS_20poisson_distributionIsEEJRdEEENT_11result_typeESt17integral_constantIbLb0EEPS3_DpOT0_ = comdat any

$_ZN4absl20poisson_distributionIsEC2Ed = comdat any

$_ZN4absl20poisson_distributionIsEclISt23mersenne_twister_engineImLm64ELm312ELm156ELm31ELm13043109905998158313ELm29ELm6148914691236517205ELm17ELm8202884508482404352ELm37ELm18444473444759240704ELm43ELm6364136223846793005EEEEsRT_ = comdat any

$_ZN4absl20poisson_distributionIsE10param_typeC2Ed = comdat any

$_ZN4absl20poisson_distributionIsEclISt23mersenne_twister_engineImLm64ELm312ELm156ELm31ELm13043109905998158313ELm29ELm6148914691236517205ELm17ELm8202884508482404352ELm37ELm18444473444759240704ELm43ELm6364136223846793005EEEEsRT_RKNS1_10param_typeE = comdat any

$_ZNK4absl20poisson_distributionIsE3maxEv = comdat any

$_ZNSt14numeric_limitsIsE3maxEv = comdat any

$_ZN4absl15random_internal18DistributionCallerISt23mersenne_twister_engineImLm64ELm312ELm156ELm31ELm13043109905998158313ELm29ELm6148914691236517205ELm17ELm8202884508482404352ELm37ELm18444473444759240704ELm43ELm6364136223846793005EEE4CallINS_20poisson_distributionItEEJRdEEENT_11result_typeEPS3_DpOT0_ = comdat any

$_ZN4absl15random_internal18DistributionCallerISt23mersenne_twister_engineImLm64ELm312ELm156ELm31ELm13043109905998158313ELm29ELm6148914691236517205ELm17ELm8202884508482404352ELm37ELm18444473444759240704ELm43ELm6364136223846793005EEE4ImplINS_20poisson_distributionItEEJRdEEENT_11result_typeESt17integral_constantIbLb0EEPS3_DpOT0_ = comdat any

$_ZN4absl20poisson_distributionItEC2Ed = comdat any

$_ZN4absl20poisson_distributionItEclISt23mersenne_twister_engineImLm64ELm312ELm156ELm31ELm13043109905998158313ELm29ELm6148914691236517205ELm17ELm8202884508482404352ELm37ELm18444473444759240704ELm43ELm6364136223846793005EEEEtRT_ = comdat any

$_ZN4absl20poisson_distributionItE10param_typeC2Ed = comdat any

$_ZN4absl20poisson_distributionItEclISt23mersenne_twister_engineImLm64ELm312ELm156ELm31ELm13043109905998158313ELm29ELm6148914691236517205ELm17ELm8202884508482404352ELm37ELm18444473444759240704ELm43ELm6364136223846793005EEEEtRT_RKNS1_10param_typeE = comdat any

$_ZNK4absl20poisson_distributionItE3maxEv = comdat any

$_ZN4absl15random_internal18DistributionCallerISt23mersenne_twister_engineImLm64ELm312ELm156ELm31ELm13043109905998158313ELm29ELm6148914691236517205ELm17ELm8202884508482404352ELm37ELm18444473444759240704ELm43ELm6364136223846793005EEE4CallINS_20poisson_distributionIjEEJRdEEENT_11result_typeEPS3_DpOT0_ = comdat any

$_ZN4absl15random_internal18DistributionCallerISt23mersenne_twister_engineImLm64ELm312ELm156ELm31ELm13043109905998158313ELm29ELm6148914691236517205ELm17ELm8202884508482404352ELm37ELm18444473444759240704ELm43ELm6364136223846793005EEE4ImplINS_20poisson_distributionIjEEJRdEEENT_11result_typeESt17integral_constantIbLb0EEPS3_DpOT0_ = comdat any

$_ZN4absl20poisson_distributionIjEC2Ed = comdat any

$_ZN4absl20poisson_distributionIjEclISt23mersenne_twister_engineImLm64ELm312ELm156ELm31ELm13043109905998158313ELm29ELm6148914691236517205ELm17ELm8202884508482404352ELm37ELm18444473444759240704ELm43ELm6364136223846793005EEEEjRT_ = comdat any

$_ZN4absl20poisson_distributionIjE10param_typeC2Ed = comdat any

$_ZN4absl20poisson_distributionIjEclISt23mersenne_twister_engineImLm64ELm312ELm156ELm31ELm13043109905998158313ELm29ELm6148914691236517205ELm17ELm8202884508482404352ELm37ELm18444473444759240704ELm43ELm6364136223846793005EEEEjRT_RKNS1_10param_typeE = comdat any

$_ZNK4absl20poisson_distributionIjE3maxEv = comdat any

$_ZN4absl15random_internal18DistributionCallerISt23mersenne_twister_engineImLm64ELm312ELm156ELm31ELm13043109905998158313ELm29ELm6148914691236517205ELm17ELm8202884508482404352ELm37ELm18444473444759240704ELm43ELm6364136223846793005EEE4CallINS_20poisson_distributionIlEEJRdEEENT_11result_typeEPS3_DpOT0_ = comdat any

$_ZN4absl15random_internal18DistributionCallerISt23mersenne_twister_engineImLm64ELm312ELm156ELm31ELm13043109905998158313ELm29ELm6148914691236517205ELm17ELm8202884508482404352ELm37ELm18444473444759240704ELm43ELm6364136223846793005EEE4ImplINS_20poisson_distributionIlEEJRdEEENT_11result_typeESt17integral_constantIbLb0EEPS3_DpOT0_ = comdat any

$_ZN4absl20poisson_distributionIlEC2Ed = comdat any

$_ZN4absl20poisson_distributionIlEclISt23mersenne_twister_engineImLm64ELm312ELm156ELm31ELm13043109905998158313ELm29ELm6148914691236517205ELm17ELm8202884508482404352ELm37ELm18444473444759240704ELm43ELm6364136223846793005EEEElRT_ = comdat any

$_ZN4absl20poisson_distributionIlE10param_typeC2Ed = comdat any

$_ZN4absl20poisson_distributionIlEclISt23mersenne_twister_engineImLm64ELm312ELm156ELm31ELm13043109905998158313ELm29ELm6148914691236517205ELm17ELm8202884508482404352ELm37ELm18444473444759240704ELm43ELm6364136223846793005EEEElRT_RKNS1_10param_typeE = comdat any

$_ZNK4absl20poisson_distributionIlE3maxEv = comdat any

$_ZNSt14numeric_limitsIlE3maxEv = comdat any

$_ZN4absl15random_internal18DistributionCallerISt23mersenne_twister_engineImLm64ELm312ELm156ELm31ELm13043109905998158313ELm29ELm6148914691236517205ELm17ELm8202884508482404352ELm37ELm18444473444759240704ELm43ELm6364136223846793005EEE4CallINS_20poisson_distributionImEEJRdEEENT_11result_typeEPS3_DpOT0_ = comdat any

$_ZN4absl15random_internal18DistributionCallerISt23mersenne_twister_engineImLm64ELm312ELm156ELm31ELm13043109905998158313ELm29ELm6148914691236517205ELm17ELm8202884508482404352ELm37ELm18444473444759240704ELm43ELm6364136223846793005EEE4ImplINS_20poisson_distributionImEEJRdEEENT_11result_typeESt17integral_constantIbLb0EEPS3_DpOT0_ = comdat any

$_ZN4absl20poisson_distributionImEC2Ed = comdat any

$_ZN4absl20poisson_distributionImEclISt23mersenne_twister_engineImLm64ELm312ELm156ELm31ELm13043109905998158313ELm29ELm6148914691236517205ELm17ELm8202884508482404352ELm37ELm18444473444759240704ELm43ELm6364136223846793005EEEEmRT_ = comdat any

$_ZN4absl20poisson_distributionImE10param_typeC2Ed = comdat any

$_ZN4absl20poisson_distributionImEclISt23mersenne_twister_engineImLm64ELm312ELm156ELm31ELm13043109905998158313ELm29ELm6148914691236517205ELm17ELm8202884508482404352ELm37ELm18444473444759240704ELm43ELm6364136223846793005EEEEmRT_RKNS1_10param_typeE = comdat any

$_ZNK4absl20poisson_distributionImE3maxEv = comdat any

$_ZN4absl15random_internal18DistributionCallerISt23mersenne_twister_engineImLm64ELm312ELm156ELm31ELm13043109905998158313ELm29ELm6148914691236517205ELm17ELm8202884508482404352ELm37ELm18444473444759240704ELm43ELm6364136223846793005EEE4CallINS_20poisson_distributionINS_6int128EEEJRdEEENT_11result_typeEPS3_DpOT0_ = comdat any

$_ZN4absl15random_internal18DistributionCallerISt23mersenne_twister_engineImLm64ELm312ELm156ELm31ELm13043109905998158313ELm29ELm6148914691236517205ELm17ELm8202884508482404352ELm37ELm18444473444759240704ELm43ELm6364136223846793005EEE4ImplINS_20poisson_distributionINS_6int128EEEJRdEEENT_11result_typeESt17integral_constantIbLb0EEPS3_DpOT0_ = comdat any

$_ZN4absl20poisson_distributionINS_6int128EEC2Ed = comdat any

$_ZN4absl20poisson_distributionINS_6int128EEclISt23mersenne_twister_engineImLm64ELm312ELm156ELm31ELm13043109905998158313ELm29ELm6148914691236517205ELm17ELm8202884508482404352ELm37ELm18444473444759240704ELm43ELm6364136223846793005EEEES1_RT_ = comdat any

$_ZN4absl20poisson_distributionINS_6int128EE10param_typeC2Ed = comdat any

$_ZN4absl20poisson_distributionINS_6int128EEclISt23mersenne_twister_engineImLm64ELm312ELm156ELm31ELm13043109905998158313ELm29ELm6148914691236517205ELm17ELm8202884508482404352ELm37ELm18444473444759240704ELm43ELm6364136223846793005EEEES1_RT_RKNS2_10param_typeE = comdat any

$_ZN4absl6int128ppEv = comdat any

$_ZN4absl6int128mmEv = comdat any

$_ZNK4absl20poisson_distributionINS_6int128EE3maxEv = comdat any

$_ZNK4absl6int128cvdEv = comdat any

$_ZN4absl6int128C2Ed = comdat any

$_ZNSt14numeric_limitsIN4absl6int128EE3maxEv = comdat any

$_ZN4absl9Int128MaxEv = comdat any

$_ZN4absl6int128C2Elm = comdat any

$_ZN4absl15int128_internal15BitCastToSignedEo = comdat any

$_ZN4absl15random_internal18DistributionCallerISt23mersenne_twister_engineImLm64ELm312ELm156ELm31ELm13043109905998158313ELm29ELm6148914691236517205ELm17ELm8202884508482404352ELm37ELm18444473444759240704ELm43ELm6364136223846793005EEE4CallINS_20poisson_distributionINS_7uint128EEEJRdEEENT_11result_typeEPS3_DpOT0_ = comdat any

$_ZN4absl15random_internal18DistributionCallerISt23mersenne_twister_engineImLm64ELm312ELm156ELm31ELm13043109905998158313ELm29ELm6148914691236517205ELm17ELm8202884508482404352ELm37ELm18444473444759240704ELm43ELm6364136223846793005EEE4ImplINS_20poisson_distributionINS_7uint128EEEJRdEEENT_11result_typeESt17integral_constantIbLb0EEPS3_DpOT0_ = comdat any

$_ZN4absl20poisson_distributionINS_7uint128EEC2Ed = comdat any

$_ZN4absl20poisson_distributionINS_7uint128EEclISt23mersenne_twister_engineImLm64ELm312ELm156ELm31ELm13043109905998158313ELm29ELm6148914691236517205ELm17ELm8202884508482404352ELm37ELm18444473444759240704ELm43ELm6364136223846793005EEEES1_RT_ = comdat any

$_ZN4absl20poisson_distributionINS_7uint128EE10param_typeC2Ed = comdat any

$_ZN4absl20poisson_distributionINS_7uint128EEclISt23mersenne_twister_engineImLm64ELm312ELm156ELm31ELm13043109905998158313ELm29ELm6148914691236517205ELm17ELm8202884508482404352ELm37ELm18444473444759240704ELm43ELm6364136223846793005EEEES1_RT_RKNS2_10param_typeE = comdat any

$_ZN4absl7uint128ppEv = comdat any

$_ZN4absl7uint128mmEv = comdat any

$_ZNK4absl20poisson_distributionINS_7uint128EE3maxEv = comdat any

$_ZNK4absl7uint128cvdEv = comdat any

$_ZN4absl7uint128C2Ei = comdat any

$_ZN4absl7uint128pLES0_ = comdat any

$_ZN4abslplENS_7uint128ES0_ = comdat any

$_ZN4absl7uint128mIES0_ = comdat any

$_ZN4abslmiENS_7uint128ES0_ = comdat any

$_ZNSt14numeric_limitsIN4absl7uint128EE3maxEv = comdat any

$_ZN4absl10Uint128MaxEv = comdat any

$_ZN4absl7uint128C2Emm = comdat any

$_ZN4absl9BernoulliIRSt23mersenne_twister_engineImLm64ELm312ELm156ELm31ELm13043109905998158313ELm29ELm6148914691236517205ELm17ELm8202884508482404352ELm37ELm18444473444759240704ELm43ELm6364136223846793005EEEEbOT_d = comdat any

$_ZN4absl15random_internal18DistributionCallerISt23mersenne_twister_engineImLm64ELm312ELm156ELm31ELm13043109905998158313ELm29ELm6148914691236517205ELm17ELm8202884508482404352ELm37ELm18444473444759240704ELm43ELm6364136223846793005EEE4CallINS_22bernoulli_distributionEJRdEEENT_11result_typeEPS3_DpOT0_ = comdat any

$_ZN4absl15random_internal18DistributionCallerISt23mersenne_twister_engineImLm64ELm312ELm156ELm31ELm13043109905998158313ELm29ELm6148914691236517205ELm17ELm8202884508482404352ELm37ELm18444473444759240704ELm43ELm6364136223846793005EEE4ImplINS_22bernoulli_distributionEJRdEEENT_11result_typeESt17integral_constantIbLb0EEPS3_DpOT0_ = comdat any

$_ZN4absl22bernoulli_distributionC2Ed = comdat any

$_ZN4absl22bernoulli_distributionclISt23mersenne_twister_engineImLm64ELm312ELm156ELm31ELm13043109905998158313ELm29ELm6148914691236517205ELm17ELm8202884508482404352ELm37ELm18444473444759240704ELm43ELm6364136223846793005EEEEbRT_ = comdat any

$_ZN4absl22bernoulli_distribution10param_typeC2Ed = comdat any

$_ZN4absl22bernoulli_distribution8GenerateISt23mersenne_twister_engineImLm64ELm312ELm156ELm31ELm13043109905998158313ELm29ELm6148914691236517205ELm17ELm8202884508482404352ELm37ELm18444473444759240704ELm43ELm6364136223846793005EEEEbdRT_ = comdat any

$_ZNK4absl22bernoulli_distribution10param_type1pEv = comdat any

$_ZN4absl4ZipfIiRSt23mersenne_twister_engineImLm64ELm312ELm156ELm31ELm13043109905998158313ELm29ELm6148914691236517205ELm17ELm8202884508482404352ELm37ELm18444473444759240704ELm43ELm6364136223846793005EEEET_OT0_S4_dd = comdat any

$_ZN4absl4ZipfIaRSt23mersenne_twister_engineImLm64ELm312ELm156ELm31ELm13043109905998158313ELm29ELm6148914691236517205ELm17ELm8202884508482404352ELm37ELm18444473444759240704ELm43ELm6364136223846793005EEEET_OT0_S4_dd = comdat any

$_ZN4absl4ZipfIsRSt23mersenne_twister_engineImLm64ELm312ELm156ELm31ELm13043109905998158313ELm29ELm6148914691236517205ELm17ELm8202884508482404352ELm37ELm18444473444759240704ELm43ELm6364136223846793005EEEET_OT0_S4_dd = comdat any

$_ZN4absl4ZipfItRSt23mersenne_twister_engineImLm64ELm312ELm156ELm31ELm13043109905998158313ELm29ELm6148914691236517205ELm17ELm8202884508482404352ELm37ELm18444473444759240704ELm43ELm6364136223846793005EEEET_OT0_S4_dd = comdat any

$_ZN4absl4ZipfIjRSt23mersenne_twister_engineImLm64ELm312ELm156ELm31ELm13043109905998158313ELm29ELm6148914691236517205ELm17ELm8202884508482404352ELm37ELm18444473444759240704ELm43ELm6364136223846793005EEEET_OT0_S4_dd = comdat any

$_ZN4absl4ZipfIlRSt23mersenne_twister_engineImLm64ELm312ELm156ELm31ELm13043109905998158313ELm29ELm6148914691236517205ELm17ELm8202884508482404352ELm37ELm18444473444759240704ELm43ELm6364136223846793005EEEET_OT0_S4_dd = comdat any

$_ZN4absl4ZipfImRSt23mersenne_twister_engineImLm64ELm312ELm156ELm31ELm13043109905998158313ELm29ELm6148914691236517205ELm17ELm8202884508482404352ELm37ELm18444473444759240704ELm43ELm6364136223846793005EEEET_OT0_S4_dd = comdat any

$_ZN4absl4ZipfImSt23mersenne_twister_engineImLm64ELm312ELm156ELm31ELm13043109905998158313ELm29ELm6148914691236517205ELm17ELm8202884508482404352ELm37ELm18444473444759240704ELm43ELm6364136223846793005EEEET_OT0_S3_dd = comdat any

$_ZN4absl4ZipfINS_6int128ERSt23mersenne_twister_engineImLm64ELm312ELm156ELm31ELm13043109905998158313ELm29ELm6148914691236517205ELm17ELm8202884508482404352ELm37ELm18444473444759240704ELm43ELm6364136223846793005EEEET_OT0_S5_dd = comdat any

$_ZN4absl6int128C2Ei = comdat any

$_ZN4absl4ZipfINS_7uint128ERSt23mersenne_twister_engineImLm64ELm312ELm156ELm31ELm13043109905998158313ELm29ELm6148914691236517205ELm17ELm8202884508482404352ELm37ELm18444473444759240704ELm43ELm6364136223846793005EEEET_OT0_S5_dd = comdat any

$_ZN4absl15random_internal18DistributionCallerISt23mersenne_twister_engineImLm64ELm312ELm156ELm31ELm13043109905998158313ELm29ELm6148914691236517205ELm17ELm8202884508482404352ELm37ELm18444473444759240704ELm43ELm6364136223846793005EEE4CallINS_17zipf_distributionIiEEJRiRdS9_EEENT_11result_typeEPS3_DpOT0_ = comdat any

$_ZN4absl15random_internal18DistributionCallerISt23mersenne_twister_engineImLm64ELm312ELm156ELm31ELm13043109905998158313ELm29ELm6148914691236517205ELm17ELm8202884508482404352ELm37ELm18444473444759240704ELm43ELm6364136223846793005EEE4ImplINS_17zipf_distributionIiEEJRiRdS9_EEENT_11result_typeESt17integral_constantIbLb0EEPS3_DpOT0_ = comdat any

$_ZN4absl17zipf_distributionIiEC2Eidd = comdat any

$_ZN4absl17zipf_distributionIiEclISt23mersenne_twister_engineImLm64ELm312ELm156ELm31ELm13043109905998158313ELm29ELm6148914691236517205ELm17ELm8202884508482404352ELm37ELm18444473444759240704ELm43ELm6364136223846793005EEEEiRT_ = comdat any

$_ZN4absl17zipf_distributionIiE10param_typeC2Eidd = comdat any

$_ZNK4absl17zipf_distributionIiE10param_type1hEd = comdat any

$_ZNK4absl17zipf_distributionIiE10param_type14pow_negative_qEd = comdat any

$_ZNK4absl17zipf_distributionIiE10param_type9compute_sEv = comdat any

$_ZNK4absl17zipf_distributionIiE10param_type4hinvEd = comdat any

$_ZN4absl17zipf_distributionIiEclISt23mersenne_twister_engineImLm64ELm312ELm156ELm31ELm13043109905998158313ELm29ELm6148914691236517205ELm17ELm8202884508482404352ELm37ELm18444473444759240704ELm43ELm6364136223846793005EEEEiRT_RKNS1_10param_typeE = comdat any

$_ZN4absl25uniform_real_distributionIdEC2Ev = comdat any

$_ZNK4absl17zipf_distributionIiE10param_type1kEv = comdat any

$_ZN4absl15random_internal18DistributionCallerISt23mersenne_twister_engineImLm64ELm312ELm156ELm31ELm13043109905998158313ELm29ELm6148914691236517205ELm17ELm8202884508482404352ELm37ELm18444473444759240704ELm43ELm6364136223846793005EEE4CallINS_17zipf_distributionIaEEJRaRdS9_EEENT_11result_typeEPS3_DpOT0_ = comdat any

$_ZN4absl15random_internal18DistributionCallerISt23mersenne_twister_engineImLm64ELm312ELm156ELm31ELm13043109905998158313ELm29ELm6148914691236517205ELm17ELm8202884508482404352ELm37ELm18444473444759240704ELm43ELm6364136223846793005EEE4ImplINS_17zipf_distributionIaEEJRaRdS9_EEENT_11result_typeESt17integral_constantIbLb0EEPS3_DpOT0_ = comdat any

$_ZN4absl17zipf_distributionIaEC2Eadd = comdat any

$_ZN4absl17zipf_distributionIaEclISt23mersenne_twister_engineImLm64ELm312ELm156ELm31ELm13043109905998158313ELm29ELm6148914691236517205ELm17ELm8202884508482404352ELm37ELm18444473444759240704ELm43ELm6364136223846793005EEEEaRT_ = comdat any

$_ZN4absl17zipf_distributionIaE10param_typeC2Eadd = comdat any

$_ZNK4absl17zipf_distributionIaE10param_type1hEd = comdat any

$_ZNK4absl17zipf_distributionIaE10param_type14pow_negative_qEd = comdat any

$_ZNK4absl17zipf_distributionIaE10param_type9compute_sEv = comdat any

$_ZNK4absl17zipf_distributionIaE10param_type4hinvEd = comdat any

$_ZN4absl17zipf_distributionIaEclISt23mersenne_twister_engineImLm64ELm312ELm156ELm31ELm13043109905998158313ELm29ELm6148914691236517205ELm17ELm8202884508482404352ELm37ELm18444473444759240704ELm43ELm6364136223846793005EEEEaRT_RKNS1_10param_typeE = comdat any

$_ZNK4absl17zipf_distributionIaE10param_type1kEv = comdat any

$_ZN4absl15random_internal18DistributionCallerISt23mersenne_twister_engineImLm64ELm312ELm156ELm31ELm13043109905998158313ELm29ELm6148914691236517205ELm17ELm8202884508482404352ELm37ELm18444473444759240704ELm43ELm6364136223846793005EEE4CallINS_17zipf_distributionIsEEJRsRdS9_EEENT_11result_typeEPS3_DpOT0_ = comdat any

$_ZN4absl15random_internal18DistributionCallerISt23mersenne_twister_engineImLm64ELm312ELm156ELm31ELm13043109905998158313ELm29ELm6148914691236517205ELm17ELm8202884508482404352ELm37ELm18444473444759240704ELm43ELm6364136223846793005EEE4ImplINS_17zipf_distributionIsEEJRsRdS9_EEENT_11result_typeESt17integral_constantIbLb0EEPS3_DpOT0_ = comdat any

$_ZN4absl17zipf_distributionIsEC2Esdd = comdat any

$_ZN4absl17zipf_distributionIsEclISt23mersenne_twister_engineImLm64ELm312ELm156ELm31ELm13043109905998158313ELm29ELm6148914691236517205ELm17ELm8202884508482404352ELm37ELm18444473444759240704ELm43ELm6364136223846793005EEEEsRT_ = comdat any

$_ZN4absl17zipf_distributionIsE10param_typeC2Esdd = comdat any

$_ZNK4absl17zipf_distributionIsE10param_type1hEd = comdat any

$_ZNK4absl17zipf_distributionIsE10param_type14pow_negative_qEd = comdat any

$_ZNK4absl17zipf_distributionIsE10param_type9compute_sEv = comdat any

$_ZNK4absl17zipf_distributionIsE10param_type4hinvEd = comdat any

$_ZN4absl17zipf_distributionIsEclISt23mersenne_twister_engineImLm64ELm312ELm156ELm31ELm13043109905998158313ELm29ELm6148914691236517205ELm17ELm8202884508482404352ELm37ELm18444473444759240704ELm43ELm6364136223846793005EEEEsRT_RKNS1_10param_typeE = comdat any

$_ZNK4absl17zipf_distributionIsE10param_type1kEv = comdat any

$_ZN4absl15random_internal18DistributionCallerISt23mersenne_twister_engineImLm64ELm312ELm156ELm31ELm13043109905998158313ELm29ELm6148914691236517205ELm17ELm8202884508482404352ELm37ELm18444473444759240704ELm43ELm6364136223846793005EEE4CallINS_17zipf_distributionItEEJRtRdS9_EEENT_11result_typeEPS3_DpOT0_ = comdat any

$_ZN4absl15random_internal18DistributionCallerISt23mersenne_twister_engineImLm64ELm312ELm156ELm31ELm13043109905998158313ELm29ELm6148914691236517205ELm17ELm8202884508482404352ELm37ELm18444473444759240704ELm43ELm6364136223846793005EEE4ImplINS_17zipf_distributionItEEJRtRdS9_EEENT_11result_typeESt17integral_constantIbLb0EEPS3_DpOT0_ = comdat any

$_ZN4absl17zipf_distributionItEC2Etdd = comdat any

$_ZN4absl17zipf_distributionItEclISt23mersenne_twister_engineImLm64ELm312ELm156ELm31ELm13043109905998158313ELm29ELm6148914691236517205ELm17ELm8202884508482404352ELm37ELm18444473444759240704ELm43ELm6364136223846793005EEEEtRT_ = comdat any

$_ZN4absl17zipf_distributionItE10param_typeC2Etdd = comdat any

$_ZNK4absl17zipf_distributionItE10param_type1hEd = comdat any

$_ZNK4absl17zipf_distributionItE10param_type14pow_negative_qEd = comdat any

$_ZNK4absl17zipf_distributionItE10param_type9compute_sEv = comdat any

$_ZNK4absl17zipf_distributionItE10param_type4hinvEd = comdat any

$_ZN4absl17zipf_distributionItEclISt23mersenne_twister_engineImLm64ELm312ELm156ELm31ELm13043109905998158313ELm29ELm6148914691236517205ELm17ELm8202884508482404352ELm37ELm18444473444759240704ELm43ELm6364136223846793005EEEEtRT_RKNS1_10param_typeE = comdat any

$_ZNK4absl17zipf_distributionItE10param_type1kEv = comdat any

$_ZN4absl15random_internal18DistributionCallerISt23mersenne_twister_engineImLm64ELm312ELm156ELm31ELm13043109905998158313ELm29ELm6148914691236517205ELm17ELm8202884508482404352ELm37ELm18444473444759240704ELm43ELm6364136223846793005EEE4CallINS_17zipf_distributionIjEEJRjRdS9_EEENT_11result_typeEPS3_DpOT0_ = comdat any

$_ZN4absl15random_internal18DistributionCallerISt23mersenne_twister_engineImLm64ELm312ELm156ELm31ELm13043109905998158313ELm29ELm6148914691236517205ELm17ELm8202884508482404352ELm37ELm18444473444759240704ELm43ELm6364136223846793005EEE4ImplINS_17zipf_distributionIjEEJRjRdS9_EEENT_11result_typeESt17integral_constantIbLb0EEPS3_DpOT0_ = comdat any

$_ZN4absl17zipf_distributionIjEC2Ejdd = comdat any

$_ZN4absl17zipf_distributionIjEclISt23mersenne_twister_engineImLm64ELm312ELm156ELm31ELm13043109905998158313ELm29ELm6148914691236517205ELm17ELm8202884508482404352ELm37ELm18444473444759240704ELm43ELm6364136223846793005EEEEjRT_ = comdat any

$_ZN4absl17zipf_distributionIjE10param_typeC2Ejdd = comdat any

$_ZNK4absl17zipf_distributionIjE10param_type1hEd = comdat any

$_ZNK4absl17zipf_distributionIjE10param_type14pow_negative_qEd = comdat any

$_ZNK4absl17zipf_distributionIjE10param_type9compute_sEv = comdat any

$_ZNK4absl17zipf_distributionIjE10param_type4hinvEd = comdat any

$_ZN4absl17zipf_distributionIjEclISt23mersenne_twister_engineImLm64ELm312ELm156ELm31ELm13043109905998158313ELm29ELm6148914691236517205ELm17ELm8202884508482404352ELm37ELm18444473444759240704ELm43ELm6364136223846793005EEEEjRT_RKNS1_10param_typeE = comdat any

$_ZNK4absl17zipf_distributionIjE10param_type1kEv = comdat any

$_ZN4absl15random_internal18DistributionCallerISt23mersenne_twister_engineImLm64ELm312ELm156ELm31ELm13043109905998158313ELm29ELm6148914691236517205ELm17ELm8202884508482404352ELm37ELm18444473444759240704ELm43ELm6364136223846793005EEE4CallINS_17zipf_distributionIlEEJRlRdS9_EEENT_11result_typeEPS3_DpOT0_ = comdat any

$_ZN4absl15random_internal18DistributionCallerISt23mersenne_twister_engineImLm64ELm312ELm156ELm31ELm13043109905998158313ELm29ELm6148914691236517205ELm17ELm8202884508482404352ELm37ELm18444473444759240704ELm43ELm6364136223846793005EEE4ImplINS_17zipf_distributionIlEEJRlRdS9_EEENT_11result_typeESt17integral_constantIbLb0EEPS3_DpOT0_ = comdat any

$_ZN4absl17zipf_distributionIlEC2Eldd = comdat any

$_ZN4absl17zipf_distributionIlEclISt23mersenne_twister_engineImLm64ELm312ELm156ELm31ELm13043109905998158313ELm29ELm6148914691236517205ELm17ELm8202884508482404352ELm37ELm18444473444759240704ELm43ELm6364136223846793005EEEElRT_ = comdat any

$_ZN4absl17zipf_distributionIlE10param_typeC2Eldd = comdat any

$_ZNK4absl17zipf_distributionIlE10param_type1hEd = comdat any

$_ZNK4absl17zipf_distributionIlE10param_type14pow_negative_qEd = comdat any

$_ZNK4absl17zipf_distributionIlE10param_type9compute_sEv = comdat any

$_ZNK4absl17zipf_distributionIlE10param_type4hinvEd = comdat any

$_ZN4absl17zipf_distributionIlEclISt23mersenne_twister_engineImLm64ELm312ELm156ELm31ELm13043109905998158313ELm29ELm6148914691236517205ELm17ELm8202884508482404352ELm37ELm18444473444759240704ELm43ELm6364136223846793005EEEElRT_RKNS1_10param_typeE = comdat any

$_ZNK4absl17zipf_distributionIlE10param_type1kEv = comdat any

$_ZN4absl15random_internal18DistributionCallerISt23mersenne_twister_engineImLm64ELm312ELm156ELm31ELm13043109905998158313ELm29ELm6148914691236517205ELm17ELm8202884508482404352ELm37ELm18444473444759240704ELm43ELm6364136223846793005EEE4CallINS_17zipf_distributionImEEJRmRdS9_EEENT_11result_typeEPS3_DpOT0_ = comdat any

$_ZN4absl15random_internal18DistributionCallerISt23mersenne_twister_engineImLm64ELm312ELm156ELm31ELm13043109905998158313ELm29ELm6148914691236517205ELm17ELm8202884508482404352ELm37ELm18444473444759240704ELm43ELm6364136223846793005EEE4ImplINS_17zipf_distributionImEEJRmRdS9_EEENT_11result_typeESt17integral_constantIbLb0EEPS3_DpOT0_ = comdat any

$_ZN4absl17zipf_distributionImEC2Emdd = comdat any

$_ZN4absl17zipf_distributionImEclISt23mersenne_twister_engineImLm64ELm312ELm156ELm31ELm13043109905998158313ELm29ELm6148914691236517205ELm17ELm8202884508482404352ELm37ELm18444473444759240704ELm43ELm6364136223846793005EEEEmRT_ = comdat any

$_ZN4absl17zipf_distributionImE10param_typeC2Emdd = comdat any

$_ZNK4absl17zipf_distributionImE10param_type1hEd = comdat any

$_ZNK4absl17zipf_distributionImE10param_type14pow_negative_qEd = comdat any

$_ZNK4absl17zipf_distributionImE10param_type9compute_sEv = comdat any

$_ZNK4absl17zipf_distributionImE10param_type4hinvEd = comdat any

$_ZN4absl17zipf_distributionImEclISt23mersenne_twister_engineImLm64ELm312ELm156ELm31ELm13043109905998158313ELm29ELm6148914691236517205ELm17ELm8202884508482404352ELm37ELm18444473444759240704ELm43ELm6364136223846793005EEEEmRT_RKNS1_10param_typeE = comdat any

$_ZNK4absl17zipf_distributionImE10param_type1kEv = comdat any

$_ZN4absl15random_internal18DistributionCallerISt23mersenne_twister_engineImLm64ELm312ELm156ELm31ELm13043109905998158313ELm29ELm6148914691236517205ELm17ELm8202884508482404352ELm37ELm18444473444759240704ELm43ELm6364136223846793005EEE4CallINS_17zipf_distributionINS_6int128EEEJRS7_RdSA_EEENT_11result_typeEPS3_DpOT0_ = comdat any

$_ZN4absl15random_internal18DistributionCallerISt23mersenne_twister_engineImLm64ELm312ELm156ELm31ELm13043109905998158313ELm29ELm6148914691236517205ELm17ELm8202884508482404352ELm37ELm18444473444759240704ELm43ELm6364136223846793005EEE4ImplINS_17zipf_distributionINS_6int128EEEJRS7_RdSA_EEENT_11result_typeESt17integral_constantIbLb0EEPS3_DpOT0_ = comdat any

$_ZN4absl17zipf_distributionINS_6int128EEC2ES1_dd = comdat any

$_ZN4absl17zipf_distributionINS_6int128EEclISt23mersenne_twister_engineImLm64ELm312ELm156ELm31ELm13043109905998158313ELm29ELm6148914691236517205ELm17ELm8202884508482404352ELm37ELm18444473444759240704ELm43ELm6364136223846793005EEEES1_RT_ = comdat any

$_ZN4absl17zipf_distributionINS_6int128EE10param_typeC2ES1_dd = comdat any

$_ZNK4absl17zipf_distributionINS_6int128EE10param_type1hEd = comdat any

$_ZNK4absl17zipf_distributionINS_6int128EE10param_type14pow_negative_qEd = comdat any

$_ZNK4absl17zipf_distributionINS_6int128EE10param_type9compute_sEv = comdat any

$_ZNK4absl17zipf_distributionINS_6int128EE10param_type4hinvEd = comdat any

$_ZN4absl17zipf_distributionINS_6int128EEclISt23mersenne_twister_engineImLm64ELm312ELm156ELm31ELm13043109905998158313ELm29ELm6148914691236517205ELm17ELm8202884508482404352ELm37ELm18444473444759240704ELm43ELm6364136223846793005EEEES1_RT_RKNS2_10param_typeE = comdat any

$_ZNK4absl17zipf_distributionINS_6int128EE10param_type1kEv = comdat any

$_ZN4absl15random_internal18DistributionCallerISt23mersenne_twister_engineImLm64ELm312ELm156ELm31ELm13043109905998158313ELm29ELm6148914691236517205ELm17ELm8202884508482404352ELm37ELm18444473444759240704ELm43ELm6364136223846793005EEE4CallINS_17zipf_distributionINS_7uint128EEEJRS7_RdSA_EEENT_11result_typeEPS3_DpOT0_ = comdat any

$_ZN4absl15random_internal18DistributionCallerISt23mersenne_twister_engineImLm64ELm312ELm156ELm31ELm13043109905998158313ELm29ELm6148914691236517205ELm17ELm8202884508482404352ELm37ELm18444473444759240704ELm43ELm6364136223846793005EEE4ImplINS_17zipf_distributionINS_7uint128EEEJRS7_RdSA_EEENT_11result_typeESt17integral_constantIbLb0EEPS3_DpOT0_ = comdat any

$_ZN4absl17zipf_distributionINS_7uint128EEC2ES1_dd = comdat any

$_ZN4absl17zipf_distributionINS_7uint128EEclISt23mersenne_twister_engineImLm64ELm312ELm156ELm31ELm13043109905998158313ELm29ELm6148914691236517205ELm17ELm8202884508482404352ELm37ELm18444473444759240704ELm43ELm6364136223846793005EEEES1_RT_ = comdat any

$_ZN4absl17zipf_distributionINS_7uint128EE10param_typeC2ES1_dd = comdat any

$_ZNK4absl17zipf_distributionINS_7uint128EE10param_type1hEd = comdat any

$_ZNK4absl17zipf_distributionINS_7uint128EE10param_type14pow_negative_qEd = comdat any

$_ZNK4absl17zipf_distributionINS_7uint128EE10param_type9compute_sEv = comdat any

$_ZNK4absl17zipf_distributionINS_7uint128EE10param_type4hinvEd = comdat any

$_ZN4absl17zipf_distributionINS_7uint128EEclISt23mersenne_twister_engineImLm64ELm312ELm156ELm31ELm13043109905998158313ELm29ELm6148914691236517205ELm17ELm8202884508482404352ELm37ELm18444473444759240704ELm43ELm6364136223846793005EEEES1_RT_RKNS2_10param_typeE = comdat any

$_ZNK4absl17zipf_distributionINS_7uint128EE10param_type1kEv = comdat any

$_ZN4absl8GaussianIfRSt23mersenne_twister_engineImLm64ELm312ELm156ELm31ELm13043109905998158313ELm29ELm6148914691236517205ELm17ELm8202884508482404352ELm37ELm18444473444759240704ELm43ELm6364136223846793005EEEET_OT0_S4_S4_ = comdat any

$_ZN4absl8GaussianIdRSt23mersenne_twister_engineImLm64ELm312ELm156ELm31ELm13043109905998158313ELm29ELm6148914691236517205ELm17ELm8202884508482404352ELm37ELm18444473444759240704ELm43ELm6364136223846793005EEEET_OT0_S4_S4_ = comdat any

$_ZN4absl8GaussianIdSt23mersenne_twister_engineImLm64ELm312ELm156ELm31ELm13043109905998158313ELm29ELm6148914691236517205ELm17ELm8202884508482404352ELm37ELm18444473444759240704ELm43ELm6364136223846793005EEEET_OT0_S3_S3_ = comdat any

$_ZN4absl15random_internal18DistributionCallerISt23mersenne_twister_engineImLm64ELm312ELm156ELm31ELm13043109905998158313ELm29ELm6148914691236517205ELm17ELm8202884508482404352ELm37ELm18444473444759240704ELm43ELm6364136223846793005EEE4CallINS_21gaussian_distributionIfEEJRfS8_EEENT_11result_typeEPS3_DpOT0_ = comdat any

$_ZN4absl15random_internal18DistributionCallerISt23mersenne_twister_engineImLm64ELm312ELm156ELm31ELm13043109905998158313ELm29ELm6148914691236517205ELm17ELm8202884508482404352ELm37ELm18444473444759240704ELm43ELm6364136223846793005EEE4ImplINS_21gaussian_distributionIfEEJRfS8_EEENT_11result_typeESt17integral_constantIbLb0EEPS3_DpOT0_ = comdat any

$_ZN4absl21gaussian_distributionIfEC2Eff = comdat any

$_ZN4absl21gaussian_distributionIfEclISt23mersenne_twister_engineImLm64ELm312ELm156ELm31ELm13043109905998158313ELm29ELm6148914691236517205ELm17ELm8202884508482404352ELm37ELm18444473444759240704ELm43ELm6364136223846793005EEEEfRT_ = comdat any

$_ZN4absl21gaussian_distributionIfE10param_typeC2Eff = comdat any

$_ZN4absl21gaussian_distributionIfEclISt23mersenne_twister_engineImLm64ELm312ELm156ELm31ELm13043109905998158313ELm29ELm6148914691236517205ELm17ELm8202884508482404352ELm37ELm18444473444759240704ELm43ELm6364136223846793005EEEEfRT_RKNS1_10param_typeE = comdat any

$_ZNK4absl21gaussian_distributionIfE10param_type4meanEv = comdat any

$_ZNK4absl21gaussian_distributionIfE10param_type6stddevEv = comdat any

$_ZN4absl15random_internal26gaussian_distribution_base6zignorISt23mersenne_twister_engineImLm64ELm312ELm156ELm31ELm13043109905998158313ELm29ELm6148914691236517205ELm17ELm8202884508482404352ELm37ELm18444473444759240704ELm43ELm6364136223846793005EEEEdRT_ = comdat any

$_ZSt3absd = comdat any

$_ZN4absl15random_internal26gaussian_distribution_base15zignor_fallbackISt23mersenne_twister_engineImLm64ELm312ELm156ELm31ELm13043109905998158313ELm29ELm6148914691236517205ELm17ELm8202884508482404352ELm37ELm18444473444759240704ELm43ELm6364136223846793005EEEEdRT_b = comdat any

$_ZN4absl15random_internal18DistributionCallerISt23mersenne_twister_engineImLm64ELm312ELm156ELm31ELm13043109905998158313ELm29ELm6148914691236517205ELm17ELm8202884508482404352ELm37ELm18444473444759240704ELm43ELm6364136223846793005EEE4CallINS_21gaussian_distributionIdEEJRdS8_EEENT_11result_typeEPS3_DpOT0_ = comdat any

$_ZN4absl15random_internal18DistributionCallerISt23mersenne_twister_engineImLm64ELm312ELm156ELm31ELm13043109905998158313ELm29ELm6148914691236517205ELm17ELm8202884508482404352ELm37ELm18444473444759240704ELm43ELm6364136223846793005EEE4ImplINS_21gaussian_distributionIdEEJRdS8_EEENT_11result_typeESt17integral_constantIbLb0EEPS3_DpOT0_ = comdat any

$_ZN4absl21gaussian_distributionIdEC2Edd = comdat any

$_ZN4absl21gaussian_distributionIdEclISt23mersenne_twister_engineImLm64ELm312ELm156ELm31ELm13043109905998158313ELm29ELm6148914691236517205ELm17ELm8202884508482404352ELm37ELm18444473444759240704ELm43ELm6364136223846793005EEEEdRT_ = comdat any

$_ZN4absl21gaussian_distributionIdE10param_typeC2Edd = comdat any

$_ZN4absl21gaussian_distributionIdEclISt23mersenne_twister_engineImLm64ELm312ELm156ELm31ELm13043109905998158313ELm29ELm6148914691236517205ELm17ELm8202884508482404352ELm37ELm18444473444759240704ELm43ELm6364136223846793005EEEEdRT_RKNS1_10param_typeE = comdat any

$_ZNK4absl21gaussian_distributionIdE10param_type4meanEv = comdat any

$_ZNK4absl21gaussian_distributionIdE10param_type6stddevEv = comdat any

$_ZN4absl10LogUniformIiRSt23mersenne_twister_engineImLm64ELm312ELm156ELm31ELm13043109905998158313ELm29ELm6148914691236517205ELm17ELm8202884508482404352ELm37ELm18444473444759240704ELm43ELm6364136223846793005EEEET_OT0_S4_S4_S4_ = comdat any

$_ZN4absl10LogUniformIaRSt23mersenne_twister_engineImLm64ELm312ELm156ELm31ELm13043109905998158313ELm29ELm6148914691236517205ELm17ELm8202884508482404352ELm37ELm18444473444759240704ELm43ELm6364136223846793005EEEET_OT0_S4_S4_S4_ = comdat any

$_ZN4absl10LogUniformIsRSt23mersenne_twister_engineImLm64ELm312ELm156ELm31ELm13043109905998158313ELm29ELm6148914691236517205ELm17ELm8202884508482404352ELm37ELm18444473444759240704ELm43ELm6364136223846793005EEEET_OT0_S4_S4_S4_ = comdat any

$_ZN4absl10LogUniformItRSt23mersenne_twister_engineImLm64ELm312ELm156ELm31ELm13043109905998158313ELm29ELm6148914691236517205ELm17ELm8202884508482404352ELm37ELm18444473444759240704ELm43ELm6364136223846793005EEEET_OT0_S4_S4_S4_ = comdat any

$_ZN4absl10LogUniformIjRSt23mersenne_twister_engineImLm64ELm312ELm156ELm31ELm13043109905998158313ELm29ELm6148914691236517205ELm17ELm8202884508482404352ELm37ELm18444473444759240704ELm43ELm6364136223846793005EEEET_OT0_S4_S4_S4_ = comdat any

$_ZN4absl10LogUniformIlRSt23mersenne_twister_engineImLm64ELm312ELm156ELm31ELm13043109905998158313ELm29ELm6148914691236517205ELm17ELm8202884508482404352ELm37ELm18444473444759240704ELm43ELm6364136223846793005EEEET_OT0_S4_S4_S4_ = comdat any

$_ZN4absl10LogUniformImRSt23mersenne_twister_engineImLm64ELm312ELm156ELm31ELm13043109905998158313ELm29ELm6148914691236517205ELm17ELm8202884508482404352ELm37ELm18444473444759240704ELm43ELm6364136223846793005EEEET_OT0_S4_S4_S4_ = comdat any

$_ZN4absl10LogUniformImSt23mersenne_twister_engineImLm64ELm312ELm156ELm31ELm13043109905998158313ELm29ELm6148914691236517205ELm17ELm8202884508482404352ELm37ELm18444473444759240704ELm43ELm6364136223846793005EEEET_OT0_S3_S3_S3_ = comdat any

$_ZN4absl10LogUniformINS_6int128ERSt23mersenne_twister_engineImLm64ELm312ELm156ELm31ELm13043109905998158313ELm29ELm6148914691236517205ELm17ELm8202884508482404352ELm37ELm18444473444759240704ELm43ELm6364136223846793005EEEET_OT0_S5_S5_S5_ = comdat any

$_ZN4absl10LogUniformINS_7uint128ERSt23mersenne_twister_engineImLm64ELm312ELm156ELm31ELm13043109905998158313ELm29ELm6148914691236517205ELm17ELm8202884508482404352ELm37ELm18444473444759240704ELm43ELm6364136223846793005EEEET_OT0_S5_S5_S5_ = comdat any

$_ZN4absl15random_internal18DistributionCallerISt23mersenne_twister_engineImLm64ELm312ELm156ELm31ELm13043109905998158313ELm29ELm6148914691236517205ELm17ELm8202884508482404352ELm37ELm18444473444759240704ELm43ELm6364136223846793005EEE4CallINS_28log_uniform_int_distributionIiEEJRiS8_S8_EEENT_11result_typeEPS3_DpOT0_ = comdat any

$_ZN4absl15random_internal18DistributionCallerISt23mersenne_twister_engineImLm64ELm312ELm156ELm31ELm13043109905998158313ELm29ELm6148914691236517205ELm17ELm8202884508482404352ELm37ELm18444473444759240704ELm43ELm6364136223846793005EEE4ImplINS_28log_uniform_int_distributionIiEEJRiS8_S8_EEENT_11result_typeESt17integral_constantIbLb0EEPS3_DpOT0_ = comdat any

$_ZN4absl28log_uniform_int_distributionIiEC2Eiii = comdat any

$_ZN4absl28log_uniform_int_distributionIiEclISt23mersenne_twister_engineImLm64ELm312ELm156ELm31ELm13043109905998158313ELm29ELm6148914691236517205ELm17ELm8202884508482404352ELm37ELm18444473444759240704ELm43ELm6364136223846793005EEEEiRT_ = comdat any

$_ZN4absl28log_uniform_int_distributionIiE10param_typeC2Eiii = comdat any

$_ZSt3minIiERKT_S2_S2_ = comdat any

$_ZN4absl15random_internal8BitWidthIjEEiT_ = comdat any

$_ZNK4absl28log_uniform_int_distributionIiE10param_type5rangeEv = comdat any

$_ZN4absl9bit_widthImEENSt9enable_ifIXsr3std11is_unsignedIT_EE5valueEiE4typeES2_ = comdat any

$_ZN4absl28log_uniform_int_distributionIiEclISt23mersenne_twister_engineImLm64ELm312ELm156ELm31ELm13043109905998158313ELm29ELm6148914691236517205ELm17ELm8202884508482404352ELm37ELm18444473444759240704ELm43ELm6364136223846793005EEEEiRT_RKNS1_10param_typeE = comdat any

$_ZNK4absl28log_uniform_int_distributionIiE10param_type3minEv = comdat any

$_ZN4absl28log_uniform_int_distributionIiE8GenerateISt23mersenne_twister_engineImLm64ELm312ELm156ELm31ELm13043109905998158313ELm29ELm6148914691236517205ELm17ELm8202884508482404352ELm37ELm18444473444759240704ELm43ELm6364136223846793005EEEEjRT_RKNS1_10param_typeE = comdat any

$_ZNK4absl28log_uniform_int_distributionIiE10param_type9log_rangeEv = comdat any

$_ZN4absl24uniform_int_distributionIiEC2Eii = comdat any

$_ZNK4absl28log_uniform_int_distributionIiE10param_type4baseEv = comdat any

$_ZSt3powIdiEN9__gnu_cxx9__promoteIDTplcvNS1_IT_Xsr3std12__is_integerIS2_EE7__valueEE6__typeELi0EcvNS1_IT0_Xsr3std12__is_integerIS5_EE7__valueEE6__typeELi0EEXsr3std12__is_integerIS8_EE7__valueEE6__typeES2_S5_ = comdat any

$_ZN4absl15random_internal18DistributionCallerISt23mersenne_twister_engineImLm64ELm312ELm156ELm31ELm13043109905998158313ELm29ELm6148914691236517205ELm17ELm8202884508482404352ELm37ELm18444473444759240704ELm43ELm6364136223846793005EEE4CallINS_28log_uniform_int_distributionIaEEJRaS8_S8_EEENT_11result_typeEPS3_DpOT0_ = comdat any

$_ZN4absl15random_internal18DistributionCallerISt23mersenne_twister_engineImLm64ELm312ELm156ELm31ELm13043109905998158313ELm29ELm6148914691236517205ELm17ELm8202884508482404352ELm37ELm18444473444759240704ELm43ELm6364136223846793005EEE4ImplINS_28log_uniform_int_distributionIaEEJRaS8_S8_EEENT_11result_typeESt17integral_constantIbLb0EEPS3_DpOT0_ = comdat any

$_ZN4absl28log_uniform_int_distributionIaEC2Eaaa = comdat any

$_ZN4absl28log_uniform_int_distributionIaEclISt23mersenne_twister_engineImLm64ELm312ELm156ELm31ELm13043109905998158313ELm29ELm6148914691236517205ELm17ELm8202884508482404352ELm37ELm18444473444759240704ELm43ELm6364136223846793005EEEEaRT_ = comdat any

$_ZN4absl28log_uniform_int_distributionIaE10param_typeC2Eaaa = comdat any

$_ZN4absl15random_internal8BitWidthIhEEiT_ = comdat any

$_ZNK4absl28log_uniform_int_distributionIaE10param_type5rangeEv = comdat any

$_ZN4absl28log_uniform_int_distributionIaEclISt23mersenne_twister_engineImLm64ELm312ELm156ELm31ELm13043109905998158313ELm29ELm6148914691236517205ELm17ELm8202884508482404352ELm37ELm18444473444759240704ELm43ELm6364136223846793005EEEEaRT_RKNS1_10param_typeE = comdat any

$_ZNK4absl28log_uniform_int_distributionIaE10param_type3minEv = comdat any

$_ZN4absl28log_uniform_int_distributionIaE8GenerateISt23mersenne_twister_engineImLm64ELm312ELm156ELm31ELm13043109905998158313ELm29ELm6148914691236517205ELm17ELm8202884508482404352ELm37ELm18444473444759240704ELm43ELm6364136223846793005EEEEhRT_RKNS1_10param_typeE = comdat any

$_ZNK4absl28log_uniform_int_distributionIaE10param_type9log_rangeEv = comdat any

$_ZNK4absl28log_uniform_int_distributionIaE10param_type4baseEv = comdat any

$_ZN4absl24uniform_int_distributionIaEC2Eaa = comdat any

$_ZN4absl15random_internal18DistributionCallerISt23mersenne_twister_engineImLm64ELm312ELm156ELm31ELm13043109905998158313ELm29ELm6148914691236517205ELm17ELm8202884508482404352ELm37ELm18444473444759240704ELm43ELm6364136223846793005EEE4CallINS_28log_uniform_int_distributionIsEEJRsS8_S8_EEENT_11result_typeEPS3_DpOT0_ = comdat any

$_ZN4absl15random_internal18DistributionCallerISt23mersenne_twister_engineImLm64ELm312ELm156ELm31ELm13043109905998158313ELm29ELm6148914691236517205ELm17ELm8202884508482404352ELm37ELm18444473444759240704ELm43ELm6364136223846793005EEE4ImplINS_28log_uniform_int_distributionIsEEJRsS8_S8_EEENT_11result_typeESt17integral_constantIbLb0EEPS3_DpOT0_ = comdat any

$_ZN4absl28log_uniform_int_distributionIsEC2Esss = comdat any

$_ZN4absl28log_uniform_int_distributionIsEclISt23mersenne_twister_engineImLm64ELm312ELm156ELm31ELm13043109905998158313ELm29ELm6148914691236517205ELm17ELm8202884508482404352ELm37ELm18444473444759240704ELm43ELm6364136223846793005EEEEsRT_ = comdat any

$_ZN4absl28log_uniform_int_distributionIsE10param_typeC2Esss = comdat any

$_ZN4absl15random_internal8BitWidthItEEiT_ = comdat any

$_ZNK4absl28log_uniform_int_distributionIsE10param_type5rangeEv = comdat any

$_ZN4absl28log_uniform_int_distributionIsEclISt23mersenne_twister_engineImLm64ELm312ELm156ELm31ELm13043109905998158313ELm29ELm6148914691236517205ELm17ELm8202884508482404352ELm37ELm18444473444759240704ELm43ELm6364136223846793005EEEEsRT_RKNS1_10param_typeE = comdat any

$_ZNK4absl28log_uniform_int_distributionIsE10param_type3minEv = comdat any

$_ZN4absl28log_uniform_int_distributionIsE8GenerateISt23mersenne_twister_engineImLm64ELm312ELm156ELm31ELm13043109905998158313ELm29ELm6148914691236517205ELm17ELm8202884508482404352ELm37ELm18444473444759240704ELm43ELm6364136223846793005EEEEtRT_RKNS1_10param_typeE = comdat any

$_ZNK4absl28log_uniform_int_distributionIsE10param_type9log_rangeEv = comdat any

$_ZNK4absl28log_uniform_int_distributionIsE10param_type4baseEv = comdat any

$_ZN4absl24uniform_int_distributionIsEC2Ess = comdat any

$_ZN4absl15random_internal18DistributionCallerISt23mersenne_twister_engineImLm64ELm312ELm156ELm31ELm13043109905998158313ELm29ELm6148914691236517205ELm17ELm8202884508482404352ELm37ELm18444473444759240704ELm43ELm6364136223846793005EEE4CallINS_28log_uniform_int_distributionItEEJRtS8_S8_EEENT_11result_typeEPS3_DpOT0_ = comdat any

$_ZN4absl15random_internal18DistributionCallerISt23mersenne_twister_engineImLm64ELm312ELm156ELm31ELm13043109905998158313ELm29ELm6148914691236517205ELm17ELm8202884508482404352ELm37ELm18444473444759240704ELm43ELm6364136223846793005EEE4ImplINS_28log_uniform_int_distributionItEEJRtS8_S8_EEENT_11result_typeESt17integral_constantIbLb0EEPS3_DpOT0_ = comdat any

$_ZN4absl28log_uniform_int_distributionItEC2Ettt = comdat any

$_ZN4absl28log_uniform_int_distributionItEclISt23mersenne_twister_engineImLm64ELm312ELm156ELm31ELm13043109905998158313ELm29ELm6148914691236517205ELm17ELm8202884508482404352ELm37ELm18444473444759240704ELm43ELm6364136223846793005EEEEtRT_ = comdat any

$_ZN4absl28log_uniform_int_distributionItE10param_typeC2Ettt = comdat any

$_ZNK4absl28log_uniform_int_distributionItE10param_type5rangeEv = comdat any

$_ZN4absl28log_uniform_int_distributionItEclISt23mersenne_twister_engineImLm64ELm312ELm156ELm31ELm13043109905998158313ELm29ELm6148914691236517205ELm17ELm8202884508482404352ELm37ELm18444473444759240704ELm43ELm6364136223846793005EEEEtRT_RKNS1_10param_typeE = comdat any

$_ZNK4absl28log_uniform_int_distributionItE10param_type3minEv = comdat any

$_ZN4absl28log_uniform_int_distributionItE8GenerateISt23mersenne_twister_engineImLm64ELm312ELm156ELm31ELm13043109905998158313ELm29ELm6148914691236517205ELm17ELm8202884508482404352ELm37ELm18444473444759240704ELm43ELm6364136223846793005EEEEtRT_RKNS1_10param_typeE = comdat any

$_ZNK4absl28log_uniform_int_distributionItE10param_type9log_rangeEv = comdat any

$_ZNK4absl28log_uniform_int_distributionItE10param_type4baseEv = comdat any

$_ZN4absl24uniform_int_distributionItEC2Ett = comdat any

$_ZN4absl15random_internal18DistributionCallerISt23mersenne_twister_engineImLm64ELm312ELm156ELm31ELm13043109905998158313ELm29ELm6148914691236517205ELm17ELm8202884508482404352ELm37ELm18444473444759240704ELm43ELm6364136223846793005EEE4CallINS_28log_uniform_int_distributionIjEEJRjS8_S8_EEENT_11result_typeEPS3_DpOT0_ = comdat any

$_ZN4absl15random_internal18DistributionCallerISt23mersenne_twister_engineImLm64ELm312ELm156ELm31ELm13043109905998158313ELm29ELm6148914691236517205ELm17ELm8202884508482404352ELm37ELm18444473444759240704ELm43ELm6364136223846793005EEE4ImplINS_28log_uniform_int_distributionIjEEJRjS8_S8_EEENT_11result_typeESt17integral_constantIbLb0EEPS3_DpOT0_ = comdat any

$_ZN4absl28log_uniform_int_distributionIjEC2Ejjj = comdat any

$_ZN4absl28log_uniform_int_distributionIjEclISt23mersenne_twister_engineImLm64ELm312ELm156ELm31ELm13043109905998158313ELm29ELm6148914691236517205ELm17ELm8202884508482404352ELm37ELm18444473444759240704ELm43ELm6364136223846793005EEEEjRT_ = comdat any

$_ZN4absl28log_uniform_int_distributionIjE10param_typeC2Ejjj = comdat any

$_ZNK4absl28log_uniform_int_distributionIjE10param_type5rangeEv = comdat any

$_ZN4absl28log_uniform_int_distributionIjEclISt23mersenne_twister_engineImLm64ELm312ELm156ELm31ELm13043109905998158313ELm29ELm6148914691236517205ELm17ELm8202884508482404352ELm37ELm18444473444759240704ELm43ELm6364136223846793005EEEEjRT_RKNS1_10param_typeE = comdat any

$_ZNK4absl28log_uniform_int_distributionIjE10param_type3minEv = comdat any

$_ZN4absl28log_uniform_int_distributionIjE8GenerateISt23mersenne_twister_engineImLm64ELm312ELm156ELm31ELm13043109905998158313ELm29ELm6148914691236517205ELm17ELm8202884508482404352ELm37ELm18444473444759240704ELm43ELm6364136223846793005EEEEjRT_RKNS1_10param_typeE = comdat any

$_ZNK4absl28log_uniform_int_distributionIjE10param_type9log_rangeEv = comdat any

$_ZNK4absl28log_uniform_int_distributionIjE10param_type4baseEv = comdat any

$_ZN4absl24uniform_int_distributionIjEC2Ejj = comdat any

$_ZN4absl15random_internal18DistributionCallerISt23mersenne_twister_engineImLm64ELm312ELm156ELm31ELm13043109905998158313ELm29ELm6148914691236517205ELm17ELm8202884508482404352ELm37ELm18444473444759240704ELm43ELm6364136223846793005EEE4CallINS_28log_uniform_int_distributionIlEEJRlS8_S8_EEENT_11result_typeEPS3_DpOT0_ = comdat any

$_ZN4absl15random_internal18DistributionCallerISt23mersenne_twister_engineImLm64ELm312ELm156ELm31ELm13043109905998158313ELm29ELm6148914691236517205ELm17ELm8202884508482404352ELm37ELm18444473444759240704ELm43ELm6364136223846793005EEE4ImplINS_28log_uniform_int_distributionIlEEJRlS8_S8_EEENT_11result_typeESt17integral_constantIbLb0EEPS3_DpOT0_ = comdat any

$_ZN4absl28log_uniform_int_distributionIlEC2Elll = comdat any

$_ZN4absl28log_uniform_int_distributionIlEclISt23mersenne_twister_engineImLm64ELm312ELm156ELm31ELm13043109905998158313ELm29ELm6148914691236517205ELm17ELm8202884508482404352ELm37ELm18444473444759240704ELm43ELm6364136223846793005EEEElRT_ = comdat any

$_ZN4absl28log_uniform_int_distributionIlE10param_typeC2Elll = comdat any

$_ZN4absl15random_internal8BitWidthImEEiT_ = comdat any

$_ZNK4absl28log_uniform_int_distributionIlE10param_type5rangeEv = comdat any

$_ZN4absl28log_uniform_int_distributionIlEclISt23mersenne_twister_engineImLm64ELm312ELm156ELm31ELm13043109905998158313ELm29ELm6148914691236517205ELm17ELm8202884508482404352ELm37ELm18444473444759240704ELm43ELm6364136223846793005EEEElRT_RKNS1_10param_typeE = comdat any

$_ZNK4absl28log_uniform_int_distributionIlE10param_type3minEv = comdat any

$_ZN4absl28log_uniform_int_distributionIlE8GenerateISt23mersenne_twister_engineImLm64ELm312ELm156ELm31ELm13043109905998158313ELm29ELm6148914691236517205ELm17ELm8202884508482404352ELm37ELm18444473444759240704ELm43ELm6364136223846793005EEEEmRT_RKNS1_10param_typeE = comdat any

$_ZNK4absl28log_uniform_int_distributionIlE10param_type9log_rangeEv = comdat any

$_ZNK4absl28log_uniform_int_distributionIlE10param_type4baseEv = comdat any

$_ZN4absl24uniform_int_distributionIlEC2Ell = comdat any

$_ZN4absl15random_internal18DistributionCallerISt23mersenne_twister_engineImLm64ELm312ELm156ELm31ELm13043109905998158313ELm29ELm6148914691236517205ELm17ELm8202884508482404352ELm37ELm18444473444759240704ELm43ELm6364136223846793005EEE4CallINS_28log_uniform_int_distributionImEEJRmS8_S8_EEENT_11result_typeEPS3_DpOT0_ = comdat any

$_ZN4absl15random_internal18DistributionCallerISt23mersenne_twister_engineImLm64ELm312ELm156ELm31ELm13043109905998158313ELm29ELm6148914691236517205ELm17ELm8202884508482404352ELm37ELm18444473444759240704ELm43ELm6364136223846793005EEE4ImplINS_28log_uniform_int_distributionImEEJRmS8_S8_EEENT_11result_typeESt17integral_constantIbLb0EEPS3_DpOT0_ = comdat any

$_ZN4absl28log_uniform_int_distributionImEC2Emmm = comdat any

$_ZN4absl28log_uniform_int_distributionImEclISt23mersenne_twister_engineImLm64ELm312ELm156ELm31ELm13043109905998158313ELm29ELm6148914691236517205ELm17ELm8202884508482404352ELm37ELm18444473444759240704ELm43ELm6364136223846793005EEEEmRT_ = comdat any

$_ZN4absl28log_uniform_int_distributionImE10param_typeC2Emmm = comdat any

$_ZNK4absl28log_uniform_int_distributionImE10param_type5rangeEv = comdat any

$_ZN4absl28log_uniform_int_distributionImEclISt23mersenne_twister_engineImLm64ELm312ELm156ELm31ELm13043109905998158313ELm29ELm6148914691236517205ELm17ELm8202884508482404352ELm37ELm18444473444759240704ELm43ELm6364136223846793005EEEEmRT_RKNS1_10param_typeE = comdat any

$_ZNK4absl28log_uniform_int_distributionImE10param_type3minEv = comdat any

$_ZN4absl28log_uniform_int_distributionImE8GenerateISt23mersenne_twister_engineImLm64ELm312ELm156ELm31ELm13043109905998158313ELm29ELm6148914691236517205ELm17ELm8202884508482404352ELm37ELm18444473444759240704ELm43ELm6364136223846793005EEEEmRT_RKNS1_10param_typeE = comdat any

$_ZNK4absl28log_uniform_int_distributionImE10param_type9log_rangeEv = comdat any

$_ZNK4absl28log_uniform_int_distributionImE10param_type4baseEv = comdat any

$_ZN4absl24uniform_int_distributionImEC2Emm = comdat any

$_ZN4absl15random_internal18DistributionCallerISt23mersenne_twister_engineImLm64ELm312ELm156ELm31ELm13043109905998158313ELm29ELm6148914691236517205ELm17ELm8202884508482404352ELm37ELm18444473444759240704ELm43ELm6364136223846793005EEE4CallINS_28log_uniform_int_distributionINS_6int128EEEJRS7_S9_S9_EEENT_11result_typeEPS3_DpOT0_ = comdat any

$_ZN4absl15random_internal18DistributionCallerISt23mersenne_twister_engineImLm64ELm312ELm156ELm31ELm13043109905998158313ELm29ELm6148914691236517205ELm17ELm8202884508482404352ELm37ELm18444473444759240704ELm43ELm6364136223846793005EEE4ImplINS_28log_uniform_int_distributionINS_6int128EEEJRS7_S9_S9_EEENT_11result_typeESt17integral_constantIbLb0EEPS3_DpOT0_ = comdat any

$_ZN4absl28log_uniform_int_distributionINS_6int128EEC2ES1_S1_S1_ = comdat any

$_ZN4absl28log_uniform_int_distributionINS_6int128EEclISt23mersenne_twister_engineImLm64ELm312ELm156ELm31ELm13043109905998158313ELm29ELm6148914691236517205ELm17ELm8202884508482404352ELm37ELm18444473444759240704ELm43ELm6364136223846793005EEEES1_RT_ = comdat any

$_ZN4absl28log_uniform_int_distributionINS_6int128EE10param_typeC2ES1_S1_S1_ = comdat any

$_ZN4absl7uint128C2ENS_6int128E = comdat any

$_ZN4absleqENS_6int128ES0_ = comdat any

$_ZN4absl15random_internal8BitWidthINS_7uint128EEEiT_ = comdat any

$_ZNK4absl28log_uniform_int_distributionINS_6int128EE10param_type5rangeEv = comdat any

$_ZN4absl11Int128Low64ENS_6int128E = comdat any

$_ZN4absl12Int128High64ENS_6int128E = comdat any

$_ZN4absl15int128_internal15BitCastToSignedEm = comdat any

$_ZNK4absl6int128cvnEv = comdat any

$_ZN4abslneENS_7uint128ES0_ = comdat any

$_ZN4absleqENS_7uint128ES0_ = comdat any

$_ZN4absl28log_uniform_int_distributionINS_6int128EEclISt23mersenne_twister_engineImLm64ELm312ELm156ELm31ELm13043109905998158313ELm29ELm6148914691236517205ELm17ELm8202884508482404352ELm37ELm18444473444759240704ELm43ELm6364136223846793005EEEES1_RT_RKNS2_10param_typeE = comdat any

$_ZNK4absl28log_uniform_int_distributionINS_6int128EE10param_type3minEv = comdat any

$_ZN4absl28log_uniform_int_distributionINS_6int128EE8GenerateISt23mersenne_twister_engineImLm64ELm312ELm156ELm31ELm13043109905998158313ELm29ELm6148914691236517205ELm17ELm8202884508482404352ELm37ELm18444473444759240704ELm43ELm6364136223846793005EEEENS_7uint128ERT_RKNS2_10param_typeE = comdat any

$_ZN4absl6int128C2ENS_7uint128E = comdat any

$_ZNK4absl28log_uniform_int_distributionINS_6int128EE10param_type9log_rangeEv = comdat any

$_ZNK4absl28log_uniform_int_distributionINS_6int128EE10param_type4baseEv = comdat any

$_ZN4absllsENS_7uint128Ei = comdat any

$_ZN4abslgeENS_7uint128ES0_ = comdat any

$_ZN4absl24uniform_int_distributionINS_6int128EEC2ES1_S1_ = comdat any

$_ZN4absl24uniform_int_distributionINS_6int128EEclISt23mersenne_twister_engineImLm64ELm312ELm156ELm31ELm13043109905998158313ELm29ELm6148914691236517205ELm17ELm8202884508482404352ELm37ELm18444473444759240704ELm43ELm6364136223846793005EEEES1_RT_ = comdat any

$_ZN4abslltENS_7uint128ES0_ = comdat any

$_ZN4absl24uniform_int_distributionINS_6int128EE10param_typeC2ES1_S1_ = comdat any

$_ZN4absl24uniform_int_distributionINS_6int128EEclISt23mersenne_twister_engineImLm64ELm312ELm156ELm31ELm13043109905998158313ELm29ELm6148914691236517205ELm17ELm8202884508482404352ELm37ELm18444473444759240704ELm43ELm6364136223846793005EEEES1_RT_RKNS2_10param_typeE = comdat any

$_ZNK4absl24uniform_int_distributionINS_6int128EE5paramEv = comdat any

$_ZNK4absl24uniform_int_distributionINS_6int128EE10param_type1aEv = comdat any

$_ZN4absl24uniform_int_distributionINS_6int128EE8GenerateISt23mersenne_twister_engineImLm64ELm312ELm156ELm31ELm13043109905998158313ELm29ELm6148914691236517205ELm17ELm8202884508482404352ELm37ELm18444473444759240704ELm43ELm6364136223846793005EEEENS_7uint128ERT_S6_ = comdat any

$_ZNK4absl24uniform_int_distributionINS_6int128EE10param_type5rangeEv = comdat any

$_ZN4absl15random_internal15FastUniformBitsINS_7uint128EEclISt23mersenne_twister_engineImLm64ELm312ELm156ELm31ELm13043109905998158313ELm29ELm6148914691236517205ELm17ELm8202884508482404352ELm37ELm18444473444759240704ELm43ELm6364136223846793005EEEES2_RT_ = comdat any

$_ZN4abslanENS_7uint128ES0_ = comdat any

$_ZN4absl15random_internal13wide_multiplyINS_7uint128EE8multiplyES2_S2_ = comdat any

$_ZN4absl15random_internal13wide_multiplyINS_7uint128EE2loENS0_4U256E = comdat any

$_ZN4abslrmENS_7uint128ES0_ = comdat any

$_ZN4absl15random_internal13wide_multiplyINS_7uint128EE2hiENS0_4U256E = comdat any

$_ZN4absl15random_internal15FastUniformBitsINS_7uint128EE8GenerateISt23mersenne_twister_engineImLm64ELm312ELm156ELm31ELm13043109905998158313ELm29ELm6148914691236517205ELm17ELm8202884508482404352ELm37ELm18444473444759240704ELm43ELm6364136223846793005EEEES2_RT_NS0_17SimplifiedLoopTagE = comdat any

$_ZN4absl15random_internal18MultiplyU128ToU256ENS_7uint128ES1_ = comdat any

$_ZNK4absl7uint128cvnEv = comdat any

$_ZN4absl15random_internal18DistributionCallerISt23mersenne_twister_engineImLm64ELm312ELm156ELm31ELm13043109905998158313ELm29ELm6148914691236517205ELm17ELm8202884508482404352ELm37ELm18444473444759240704ELm43ELm6364136223846793005EEE4CallINS_28log_uniform_int_distributionINS_7uint128EEEJRS7_S9_S9_EEENT_11result_typeEPS3_DpOT0_ = comdat any

$_ZN4absl15random_internal18DistributionCallerISt23mersenne_twister_engineImLm64ELm312ELm156ELm31ELm13043109905998158313ELm29ELm6148914691236517205ELm17ELm8202884508482404352ELm37ELm18444473444759240704ELm43ELm6364136223846793005EEE4ImplINS_28log_uniform_int_distributionINS_7uint128EEEJRS7_S9_S9_EEENT_11result_typeESt17integral_constantIbLb0EEPS3_DpOT0_ = comdat any

$_ZN4absl28log_uniform_int_distributionINS_7uint128EEC2ES1_S1_S1_ = comdat any

$_ZN4absl28log_uniform_int_distributionINS_7uint128EEclISt23mersenne_twister_engineImLm64ELm312ELm156ELm31ELm13043109905998158313ELm29ELm6148914691236517205ELm17ELm8202884508482404352ELm37ELm18444473444759240704ELm43ELm6364136223846793005EEEES1_RT_ = comdat any

$_ZN4absl28log_uniform_int_distributionINS_7uint128EE10param_typeC2ES1_S1_S1_ = comdat any

$_ZNK4absl28log_uniform_int_distributionINS_7uint128EE10param_type5rangeEv = comdat any

$_ZN4absl28log_uniform_int_distributionINS_7uint128EEclISt23mersenne_twister_engineImLm64ELm312ELm156ELm31ELm13043109905998158313ELm29ELm6148914691236517205ELm17ELm8202884508482404352ELm37ELm18444473444759240704ELm43ELm6364136223846793005EEEES1_RT_RKNS2_10param_typeE = comdat any

$_ZNK4absl28log_uniform_int_distributionINS_7uint128EE10param_type3minEv = comdat any

$_ZN4absl28log_uniform_int_distributionINS_7uint128EE8GenerateISt23mersenne_twister_engineImLm64ELm312ELm156ELm31ELm13043109905998158313ELm29ELm6148914691236517205ELm17ELm8202884508482404352ELm37ELm18444473444759240704ELm43ELm6364136223846793005EEEES1_RT_RKNS2_10param_typeE = comdat any

$_ZNK4absl28log_uniform_int_distributionINS_7uint128EE10param_type9log_rangeEv = comdat any

$_ZNK4absl28log_uniform_int_distributionINS_7uint128EE10param_type4baseEv = comdat any

$_ZN4absl24uniform_int_distributionINS_7uint128EEC2ES1_S1_ = comdat any

$_ZN4absl24uniform_int_distributionINS_7uint128EEclISt23mersenne_twister_engineImLm64ELm312ELm156ELm31ELm13043109905998158313ELm29ELm6148914691236517205ELm17ELm8202884508482404352ELm37ELm18444473444759240704ELm43ELm6364136223846793005EEEES1_RT_ = comdat any

$_ZN4absl24uniform_int_distributionINS_7uint128EE10param_typeC2ES1_S1_ = comdat any

$_ZN4absl24uniform_int_distributionINS_7uint128EEclISt23mersenne_twister_engineImLm64ELm312ELm156ELm31ELm13043109905998158313ELm29ELm6148914691236517205ELm17ELm8202884508482404352ELm37ELm18444473444759240704ELm43ELm6364136223846793005EEEES1_RT_RKNS2_10param_typeE = comdat any

$_ZNK4absl24uniform_int_distributionINS_7uint128EE5paramEv = comdat any

$_ZNK4absl24uniform_int_distributionINS_7uint128EE10param_type1aEv = comdat any

$_ZN4absl24uniform_int_distributionINS_7uint128EE8GenerateISt23mersenne_twister_engineImLm64ELm312ELm156ELm31ELm13043109905998158313ELm29ELm6148914691236517205ELm17ELm8202884508482404352ELm37ELm18444473444759240704ELm43ELm6364136223846793005EEEES1_RT_S1_ = comdat any

$_ZNK4absl24uniform_int_distributionINS_7uint128EE10param_type5rangeEv = comdat any

$_ZN4absl15random_internal17NonsecureURBGBaseINS0_13randen_engineImEENS0_17RandenPoolSeedSeqEEC2Ev = comdat any

$_ZN4absl15random_internal17NonsecureURBGBaseINS0_13randen_engineImEENS0_17RandenPoolSeedSeqEE13ConstructURBGEv = comdat any

$_ZN4absl15random_internal13randen_engineImEC2IRNS0_17RandenPoolSeedSeqEvEEOT_ = comdat any

$_ZN4absl15random_internal13randen_engineImE4seedIRNS0_17RandenPoolSeedSeqEEENSt9enable_ifIXntsr3std14is_convertibleIT_mEE5valueEvE4typeEOS7_ = comdat any

$_ZN4absl15random_internal13randen_engineImE4seedEm = comdat any

$_ZN4absl15random_internal13randen_engineImE6reseedINS0_17RandenPoolSeedSeqEEEvRT_ = comdat any

$_ZN4absl15random_internal13randen_engineImE5stateEv = comdat any

$_ZSt4fillIPmiEvT_S1_RKT0_ = comdat any

$_ZSt4fillIPmmEvT_S1_RKT0_ = comdat any

$_ZSt8__fill_aIPmiEvT_S1_RKT0_ = comdat any

$_ZSt9__fill_a1IPmiEN9__gnu_cxx11__enable_ifIXsr11__is_scalarIT0_EE7__valueEvE6__typeET_S6_RKS3_ = comdat any

$_ZSt8__fill_aIPmmEvT_S1_RKT0_ = comdat any

$_ZSt9__fill_a1IPmmEN9__gnu_cxx11__enable_ifIXsr11__is_scalarIT0_EE7__valueEvE6__typeET_S6_RKS3_ = comdat any

$_ZN4absl15random_internal17RandenPoolSeedSeq4sizeEv = comdat any

$_ZSt4fillIPjiEvT_S1_RKT0_ = comdat any

$_ZN4absl15random_internal17RandenPoolSeedSeq8generateIPjEEvT_S4_ = comdat any

$_ZSt4swapIjENSt9enable_ifIXsr6__and_ISt6__not_ISt15__is_tuple_likeIT_EESt21is_move_constructibleIS3_ESt18is_move_assignableIS3_EEE5valueEvE4typeERS3_SC_ = comdat any

$_ZNK4absl15random_internal6Randen6AbsorbEPKvPv = comdat any

$_ZSt8__fill_aIPjiEvT_S1_RKT0_ = comdat any

$_ZSt9__fill_a1IPjiEN9__gnu_cxx11__enable_ifIXsr11__is_scalarIT0_EE7__valueEvE6__typeET_S6_RKS3_ = comdat any

$_ZN4absl15random_internal17RandenPoolSeedSeq13generate_implIPjEEvNS1_13ContiguousTagET_S5_ = comdat any

$_ZSt8distanceIPjENSt15iterator_traitsIT_E15difference_typeES2_S2_ = comdat any

$_ZN4absl8MakeSpanITpTnRiJEhEENS_4SpanIT0_EEPS3_m = comdat any

$_ZSt10__distanceIPjENSt15iterator_traitsIT_E15difference_typeES2_S2_St26random_access_iterator_tag = comdat any

$_ZSt19__iterator_categoryIPjENSt15iterator_traitsIT_E17iterator_categoryERKS2_ = comdat any

$_ZN4absl4SpanIhEC2EPhm = comdat any

$_ZN4absl7UniformIiRNS_15random_internal17NonsecureURBGBaseINS1_13randen_engineImEENS1_17RandenPoolSeedSeqEEEEENSt9enable_ifIXntsr3std7is_sameIT_vEE5valueES9_E4typeEOT0_S9_S9_ = comdat any

$_ZN4absl7UniformIvRNS_15random_internal17NonsecureURBGBaseINS1_13randen_engineImEENS1_17RandenPoolSeedSeqEEEidEENSt9enable_ifIXsr3std7is_sameIT_vEE5valueENS8_IXsr4absl11disjunctionINS1_23is_widening_convertibleIT1_T2_EENSA_ISC_SB_EEEE5valueENSt11conditionalIXsr23is_widening_convertibleISB_SC_EE5valueESC_SB_E4typeEE4typeEE4typeEOT0_SB_SC_ = comdat any

$_ZN4absl7UniformIvRNS_15random_internal17NonsecureURBGBaseINS1_13randen_engineImEENS1_17RandenPoolSeedSeqEEEfdEENSt9enable_ifIXsr3std7is_sameIT_vEE5valueENS8_IXsr4absl11disjunctionINS1_23is_widening_convertibleIT1_T2_EENSA_ISC_SB_EEEE5valueENSt11conditionalIXsr23is_widening_convertibleISB_SC_EE5valueESC_SB_E4typeEE4typeEE4typeEOT0_SB_SC_ = comdat any

$_ZN4absl7UniformIdRNS_15random_internal17NonsecureURBGBaseINS1_13randen_engineImEENS1_17RandenPoolSeedSeqEEEEENSt9enable_ifIXntsr3std7is_sameIT_vEE5valueES9_E4typeEOT0_S9_S9_ = comdat any

$_ZN4absl7UniformIvRNS_15random_internal17NonsecureURBGBaseINS1_13randen_engineImEENS1_17RandenPoolSeedSeqEEEilEENSt9enable_ifIXsr3std7is_sameIT_vEE5valueENS8_IXsr4absl11disjunctionINS1_23is_widening_convertibleIT1_T2_EENSA_ISC_SB_EEEE5valueENSt11conditionalIXsr23is_widening_convertibleISB_SC_EE5valueESC_SB_E4typeEE4typeEE4typeEOT0_SB_SC_ = comdat any

$_ZN4absl7UniformIiNS_23IntervalClosedClosedTagERNS_15random_internal17NonsecureURBGBaseINS2_13randen_engineImEENS2_17RandenPoolSeedSeqEEEEENSt9enable_ifIXntsr3std7is_sameIT_vEE5valueESA_E4typeET0_OT1_SA_SA_ = comdat any

$_ZN4absl7UniformIdNS_19IntervalOpenOpenTagERNS_15random_internal17NonsecureURBGBaseINS2_13randen_engineImEENS2_17RandenPoolSeedSeqEEEEENSt9enable_ifIXntsr3std7is_sameIT_vEE5valueESA_E4typeET0_OT1_SA_SA_ = comdat any

$_ZN4absl7UniformIvRNS_15random_internal17NonsecureURBGBaseINS1_13randen_engineImEENS1_17RandenPoolSeedSeqEEEjmEENSt9enable_ifIXsr3std7is_sameIT_vEE5valueENS8_IXsr4absl11disjunctionINS1_23is_widening_convertibleIT1_T2_EENSA_ISC_SB_EEEE5valueENSt11conditionalIXsr23is_widening_convertibleISB_SC_EE5valueESC_SB_E4typeEE4typeEE4typeEOT0_SB_SC_ = comdat any

$_ZN4absl7UniformImRNS_15random_internal17NonsecureURBGBaseINS1_13randen_engineImEENS1_17RandenPoolSeedSeqEEEEENSt9enable_ifIXntsr3std7is_sameIT_vEE5valueES9_E4typeEOT0_S9_S9_ = comdat any

$_ZN4absl7UniformIvNS_19IntervalOpenOpenTagERNS_15random_internal17NonsecureURBGBaseINS2_13randen_engineImEENS2_17RandenPoolSeedSeqEEEidEENSt9enable_ifIXsr3std7is_sameIT_vEE5valueENS9_IXsr4absl11disjunctionINS2_23is_widening_convertibleIT2_T3_EENSB_ISD_SC_EEEE5valueENSt11conditionalIXsr23is_widening_convertibleISC_SD_EE5valueESD_SC_E4typeEE4typeEE4typeET0_OT1_SC_SD_ = comdat any

$_ZN4absl7UniformIaRNS_15random_internal17NonsecureURBGBaseINS1_13randen_engineImEENS1_17RandenPoolSeedSeqEEEEENSt9enable_ifIXntsr3std7is_sameIT_vEE5valueES9_E4typeEOT0_S9_S9_ = comdat any

$_ZN4absl7UniformIsRNS_15random_internal17NonsecureURBGBaseINS1_13randen_engineImEENS1_17RandenPoolSeedSeqEEEEENSt9enable_ifIXntsr3std7is_sameIT_vEE5valueES9_E4typeEOT0_S9_S9_ = comdat any

$_ZN4absl7UniformItRNS_15random_internal17NonsecureURBGBaseINS1_13randen_engineImEENS1_17RandenPoolSeedSeqEEEEENSt9enable_ifIXntsr3std7is_sameIT_vEE5valueES9_E4typeEOT0_S9_S9_ = comdat any

$_ZN4absl7UniformIjRNS_15random_internal17NonsecureURBGBaseINS1_13randen_engineImEENS1_17RandenPoolSeedSeqEEEEENSt9enable_ifIXntsr3std7is_sameIT_vEE5valueES9_E4typeEOT0_S9_S9_ = comdat any

$_ZN4absl7UniformIlRNS_15random_internal17NonsecureURBGBaseINS1_13randen_engineImEENS1_17RandenPoolSeedSeqEEEEENSt9enable_ifIXntsr3std7is_sameIT_vEE5valueES9_E4typeEOT0_S9_S9_ = comdat any

$_ZN4absl7UniformIfRNS_15random_internal17NonsecureURBGBaseINS1_13randen_engineImEENS1_17RandenPoolSeedSeqEEEEENSt9enable_ifIXntsr3std7is_sameIT_vEE5valueES9_E4typeEOT0_S9_S9_ = comdat any

$_ZN4absl7UniformIdNS_23IntervalClosedClosedTagERNS_15random_internal17NonsecureURBGBaseINS2_13randen_engineImEENS2_17RandenPoolSeedSeqEEEEENSt9enable_ifIXntsr3std7is_sameIT_vEE5valueESA_E4typeET0_OT1_SA_SA_ = comdat any

$_ZN4absl7UniformIdNS_21IntervalClosedOpenTagERNS_15random_internal17NonsecureURBGBaseINS2_13randen_engineImEENS2_17RandenPoolSeedSeqEEEEENSt9enable_ifIXntsr3std7is_sameIT_vEE5valueESA_E4typeET0_OT1_SA_SA_ = comdat any

$_ZN4absl7UniformIdNS_21IntervalOpenClosedTagERNS_15random_internal17NonsecureURBGBaseINS2_13randen_engineImEENS2_17RandenPoolSeedSeqEEEEENSt9enable_ifIXntsr3std7is_sameIT_vEE5valueESA_E4typeET0_OT1_SA_SA_ = comdat any

$_ZN4absl7UniformIiNS_21IntervalClosedOpenTagERNS_15random_internal17NonsecureURBGBaseINS2_13randen_engineImEENS2_17RandenPoolSeedSeqEEEEENSt9enable_ifIXntsr3std7is_sameIT_vEE5valueESA_E4typeET0_OT1_SA_SA_ = comdat any

$_ZN4absl7UniformIiNS_19IntervalOpenOpenTagERNS_15random_internal17NonsecureURBGBaseINS2_13randen_engineImEENS2_17RandenPoolSeedSeqEEEEENSt9enable_ifIXntsr3std7is_sameIT_vEE5valueESA_E4typeET0_OT1_SA_SA_ = comdat any

$_ZN4absl7UniformIiNS_21IntervalOpenClosedTagERNS_15random_internal17NonsecureURBGBaseINS2_13randen_engineImEENS2_17RandenPoolSeedSeqEEEEENSt9enable_ifIXntsr3std7is_sameIT_vEE5valueESA_E4typeET0_OT1_SA_SA_ = comdat any

$_ZN4absl7UniformIiNS_15random_internal17NonsecureURBGBaseINS1_13randen_engineImEENS1_17RandenPoolSeedSeqEEEEENSt9enable_ifIXntsr3std7is_sameIT_vEE5valueES8_E4typeEOT0_S8_S8_ = comdat any

$_ZN4absl7UniformIdNS_15random_internal17NonsecureURBGBaseINS1_13randen_engineImEENS1_17RandenPoolSeedSeqEEEEENSt9enable_ifIXntsr3std7is_sameIT_vEE5valueES8_E4typeEOT0_S8_S8_ = comdat any

$_ZN4absl15random_internal18DistributionCallerINS0_17NonsecureURBGBaseINS0_13randen_engineImEENS0_17RandenPoolSeedSeqEEEE4CallINS0_26UniformDistributionWrapperIiEEJRiSB_EEENT_11result_typeEPS6_DpOT0_ = comdat any

$_ZN4absl15random_internal18DistributionCallerINS0_17NonsecureURBGBaseINS0_13randen_engineImEENS0_17RandenPoolSeedSeqEEEE4ImplINS0_26UniformDistributionWrapperIiEEJRiSB_EEENT_11result_typeESt17integral_constantIbLb0EEPS6_DpOT0_ = comdat any

$_ZN4absl24uniform_int_distributionIiEclINS_15random_internal17NonsecureURBGBaseINS3_13randen_engineImEENS3_17RandenPoolSeedSeqEEEEEiRT_ = comdat any

$_ZN4absl24uniform_int_distributionIiEclINS_15random_internal17NonsecureURBGBaseINS3_13randen_engineImEENS3_17RandenPoolSeedSeqEEEEEiRT_RKNS1_10param_typeE = comdat any

$_ZN4absl24uniform_int_distributionIiE8GenerateINS_15random_internal17NonsecureURBGBaseINS3_13randen_engineImEENS3_17RandenPoolSeedSeqEEEEEjRT_j = comdat any

$_ZN4absl15random_internal15FastUniformBitsIjEclINS0_17NonsecureURBGBaseINS0_13randen_engineImEENS0_17RandenPoolSeedSeqEEEEEjRT_ = comdat any

$_ZN4absl15random_internal15FastUniformBitsIjE8GenerateINS0_17NonsecureURBGBaseINS0_13randen_engineImEENS0_17RandenPoolSeedSeqEEEEEjRT_NS0_17SimplifiedLoopTagE = comdat any

$_ZN4absl15random_internal17NonsecureURBGBaseINS0_13randen_engineImEENS0_17RandenPoolSeedSeqEEclEv = comdat any

$_ZN4absl15random_internal13randen_engineImEclEv = comdat any

$_ZNK4absl15random_internal6Randen8GenerateEPv = comdat any

$_ZN4absl13little_endian6ToHostEm = comdat any

$_ZN4absl13little_endian8ToHost64Em = comdat any

$_ZN4absl15random_internal18DistributionCallerINS0_17NonsecureURBGBaseINS0_13randen_engineImEENS0_17RandenPoolSeedSeqEEEE4CallINS0_26UniformDistributionWrapperIdEEJddEEENT_11result_typeEPS6_DpOT0_ = comdat any

$_ZN4absl15random_internal18DistributionCallerINS0_17NonsecureURBGBaseINS0_13randen_engineImEENS0_17RandenPoolSeedSeqEEEE4ImplINS0_26UniformDistributionWrapperIdEEJddEEENT_11result_typeESt17integral_constantIbLb0EEPS6_DpOT0_ = comdat any

$_ZN4absl25uniform_real_distributionIdEclINS_15random_internal17NonsecureURBGBaseINS3_13randen_engineImEENS3_17RandenPoolSeedSeqEEEEEdRT_ = comdat any

$_ZN4absl25uniform_real_distributionIdEclINS_15random_internal17NonsecureURBGBaseINS3_13randen_engineImEENS3_17RandenPoolSeedSeqEEEEEdRT_RKNS1_10param_typeE = comdat any

$_ZN4absl15random_internal15FastUniformBitsImEclINS0_17NonsecureURBGBaseINS0_13randen_engineImEENS0_17RandenPoolSeedSeqEEEEEmRT_ = comdat any

$_ZN4absl15random_internal15FastUniformBitsImE8GenerateINS0_17NonsecureURBGBaseINS0_13randen_engineImEENS0_17RandenPoolSeedSeqEEEEEmRT_NS0_17SimplifiedLoopTagE = comdat any

$_ZN4absl15random_internal18DistributionCallerINS0_17NonsecureURBGBaseINS0_13randen_engineImEENS0_17RandenPoolSeedSeqEEEE4CallINS0_26UniformDistributionWrapperIdEEJRdSB_EEENT_11result_typeEPS6_DpOT0_ = comdat any

$_ZN4absl15random_internal18DistributionCallerINS0_17NonsecureURBGBaseINS0_13randen_engineImEENS0_17RandenPoolSeedSeqEEEE4ImplINS0_26UniformDistributionWrapperIdEEJRdSB_EEENT_11result_typeESt17integral_constantIbLb0EEPS6_DpOT0_ = comdat any

$_ZN4absl15random_internal18DistributionCallerINS0_17NonsecureURBGBaseINS0_13randen_engineImEENS0_17RandenPoolSeedSeqEEEE4CallINS0_26UniformDistributionWrapperIlEEJllEEENT_11result_typeEPS6_DpOT0_ = comdat any

$_ZN4absl15random_internal18DistributionCallerINS0_17NonsecureURBGBaseINS0_13randen_engineImEENS0_17RandenPoolSeedSeqEEEE4ImplINS0_26UniformDistributionWrapperIlEEJllEEENT_11result_typeESt17integral_constantIbLb0EEPS6_DpOT0_ = comdat any

$_ZN4absl24uniform_int_distributionIlEclINS_15random_internal17NonsecureURBGBaseINS3_13randen_engineImEENS3_17RandenPoolSeedSeqEEEEElRT_ = comdat any

$_ZN4absl24uniform_int_distributionIlEclINS_15random_internal17NonsecureURBGBaseINS3_13randen_engineImEENS3_17RandenPoolSeedSeqEEEEElRT_RKNS1_10param_typeE = comdat any

$_ZN4absl24uniform_int_distributionIlE8GenerateINS_15random_internal17NonsecureURBGBaseINS3_13randen_engineImEENS3_17RandenPoolSeedSeqEEEEEmRT_m = comdat any

$_ZN4absl15random_internal18DistributionCallerINS0_17NonsecureURBGBaseINS0_13randen_engineImEENS0_17RandenPoolSeedSeqEEEE4CallINS0_26UniformDistributionWrapperIiEEJRNS_23IntervalClosedClosedTagERiSD_EEENT_11result_typeEPS6_DpOT0_ = comdat any

$_ZN4absl15random_internal18DistributionCallerINS0_17NonsecureURBGBaseINS0_13randen_engineImEENS0_17RandenPoolSeedSeqEEEE4ImplINS0_26UniformDistributionWrapperIiEEJRNS_23IntervalClosedClosedTagERiSD_EEENT_11result_typeESt17integral_constantIbLb0EEPS6_DpOT0_ = comdat any

$_ZN4absl15random_internal18DistributionCallerINS0_17NonsecureURBGBaseINS0_13randen_engineImEENS0_17RandenPoolSeedSeqEEEE4CallINS0_26UniformDistributionWrapperIdEEJRNS_19IntervalOpenOpenTagERdSD_EEENT_11result_typeEPS6_DpOT0_ = comdat any

$_ZN4absl15random_internal18DistributionCallerINS0_17NonsecureURBGBaseINS0_13randen_engineImEENS0_17RandenPoolSeedSeqEEEE4ImplINS0_26UniformDistributionWrapperIdEEJRNS_19IntervalOpenOpenTagERdSD_EEENT_11result_typeESt17integral_constantIbLb0EEPS6_DpOT0_ = comdat any

$_ZN4absl15random_internal18DistributionCallerINS0_17NonsecureURBGBaseINS0_13randen_engineImEENS0_17RandenPoolSeedSeqEEEE4CallINS0_26UniformDistributionWrapperImEEJmmEEENT_11result_typeEPS6_DpOT0_ = comdat any

$_ZN4absl15random_internal18DistributionCallerINS0_17NonsecureURBGBaseINS0_13randen_engineImEENS0_17RandenPoolSeedSeqEEEE4ImplINS0_26UniformDistributionWrapperImEEJmmEEENT_11result_typeESt17integral_constantIbLb0EEPS6_DpOT0_ = comdat any

$_ZN4absl24uniform_int_distributionImEclINS_15random_internal17NonsecureURBGBaseINS3_13randen_engineImEENS3_17RandenPoolSeedSeqEEEEEmRT_ = comdat any

$_ZN4absl24uniform_int_distributionImEclINS_15random_internal17NonsecureURBGBaseINS3_13randen_engineImEENS3_17RandenPoolSeedSeqEEEEEmRT_RKNS1_10param_typeE = comdat any

$_ZN4absl24uniform_int_distributionImE8GenerateINS_15random_internal17NonsecureURBGBaseINS3_13randen_engineImEENS3_17RandenPoolSeedSeqEEEEEmRT_m = comdat any

$_ZN4absl15random_internal18DistributionCallerINS0_17NonsecureURBGBaseINS0_13randen_engineImEENS0_17RandenPoolSeedSeqEEEE4CallINS0_26UniformDistributionWrapperImEEJRmSB_EEENT_11result_typeEPS6_DpOT0_ = comdat any

$_ZN4absl15random_internal18DistributionCallerINS0_17NonsecureURBGBaseINS0_13randen_engineImEENS0_17RandenPoolSeedSeqEEEE4ImplINS0_26UniformDistributionWrapperImEEJRmSB_EEENT_11result_typeESt17integral_constantIbLb0EEPS6_DpOT0_ = comdat any

$_ZN4absl15random_internal18DistributionCallerINS0_17NonsecureURBGBaseINS0_13randen_engineImEENS0_17RandenPoolSeedSeqEEEE4CallINS0_26UniformDistributionWrapperIdEEJRNS_19IntervalOpenOpenTagEddEEENT_11result_typeEPS6_DpOT0_ = comdat any

$_ZN4absl15random_internal18DistributionCallerINS0_17NonsecureURBGBaseINS0_13randen_engineImEENS0_17RandenPoolSeedSeqEEEE4ImplINS0_26UniformDistributionWrapperIdEEJRNS_19IntervalOpenOpenTagEddEEENT_11result_typeESt17integral_constantIbLb0EEPS6_DpOT0_ = comdat any

$_ZN4absl15random_internal18DistributionCallerINS0_17NonsecureURBGBaseINS0_13randen_engineImEENS0_17RandenPoolSeedSeqEEEE4CallINS0_26UniformDistributionWrapperIaEEJRaSB_EEENT_11result_typeEPS6_DpOT0_ = comdat any

$_ZN4absl15random_internal18DistributionCallerINS0_17NonsecureURBGBaseINS0_13randen_engineImEENS0_17RandenPoolSeedSeqEEEE4ImplINS0_26UniformDistributionWrapperIaEEJRaSB_EEENT_11result_typeESt17integral_constantIbLb0EEPS6_DpOT0_ = comdat any

$_ZN4absl24uniform_int_distributionIaEclINS_15random_internal17NonsecureURBGBaseINS3_13randen_engineImEENS3_17RandenPoolSeedSeqEEEEEaRT_ = comdat any

$_ZN4absl24uniform_int_distributionIaEclINS_15random_internal17NonsecureURBGBaseINS3_13randen_engineImEENS3_17RandenPoolSeedSeqEEEEEaRT_RKNS1_10param_typeE = comdat any

$_ZN4absl24uniform_int_distributionIaE8GenerateINS_15random_internal17NonsecureURBGBaseINS3_13randen_engineImEENS3_17RandenPoolSeedSeqEEEEEhRT_h = comdat any

$_ZN4absl15random_internal15FastUniformBitsIhEclINS0_17NonsecureURBGBaseINS0_13randen_engineImEENS0_17RandenPoolSeedSeqEEEEEhRT_ = comdat any

$_ZN4absl15random_internal15FastUniformBitsIhE8GenerateINS0_17NonsecureURBGBaseINS0_13randen_engineImEENS0_17RandenPoolSeedSeqEEEEEhRT_NS0_17SimplifiedLoopTagE = comdat any

$_ZN4absl15random_internal18DistributionCallerINS0_17NonsecureURBGBaseINS0_13randen_engineImEENS0_17RandenPoolSeedSeqEEEE4CallINS0_26UniformDistributionWrapperIsEEJRsSB_EEENT_11result_typeEPS6_DpOT0_ = comdat any

$_ZN4absl15random_internal18DistributionCallerINS0_17NonsecureURBGBaseINS0_13randen_engineImEENS0_17RandenPoolSeedSeqEEEE4ImplINS0_26UniformDistributionWrapperIsEEJRsSB_EEENT_11result_typeESt17integral_constantIbLb0EEPS6_DpOT0_ = comdat any

$_ZN4absl24uniform_int_distributionIsEclINS_15random_internal17NonsecureURBGBaseINS3_13randen_engineImEENS3_17RandenPoolSeedSeqEEEEEsRT_ = comdat any

$_ZN4absl24uniform_int_distributionIsEclINS_15random_internal17NonsecureURBGBaseINS3_13randen_engineImEENS3_17RandenPoolSeedSeqEEEEEsRT_RKNS1_10param_typeE = comdat any

$_ZN4absl24uniform_int_distributionIsE8GenerateINS_15random_internal17NonsecureURBGBaseINS3_13randen_engineImEENS3_17RandenPoolSeedSeqEEEEEtRT_t = comdat any

$_ZN4absl15random_internal15FastUniformBitsItEclINS0_17NonsecureURBGBaseINS0_13randen_engineImEENS0_17RandenPoolSeedSeqEEEEEtRT_ = comdat any

$_ZN4absl15random_internal15FastUniformBitsItE8GenerateINS0_17NonsecureURBGBaseINS0_13randen_engineImEENS0_17RandenPoolSeedSeqEEEEEtRT_NS0_17SimplifiedLoopTagE = comdat any

$_ZN4absl15random_internal18DistributionCallerINS0_17NonsecureURBGBaseINS0_13randen_engineImEENS0_17RandenPoolSeedSeqEEEE4CallINS0_26UniformDistributionWrapperItEEJRtSB_EEENT_11result_typeEPS6_DpOT0_ = comdat any

$_ZN4absl15random_internal18DistributionCallerINS0_17NonsecureURBGBaseINS0_13randen_engineImEENS0_17RandenPoolSeedSeqEEEE4ImplINS0_26UniformDistributionWrapperItEEJRtSB_EEENT_11result_typeESt17integral_constantIbLb0EEPS6_DpOT0_ = comdat any

$_ZN4absl24uniform_int_distributionItEclINS_15random_internal17NonsecureURBGBaseINS3_13randen_engineImEENS3_17RandenPoolSeedSeqEEEEEtRT_ = comdat any

$_ZN4absl24uniform_int_distributionItEclINS_15random_internal17NonsecureURBGBaseINS3_13randen_engineImEENS3_17RandenPoolSeedSeqEEEEEtRT_RKNS1_10param_typeE = comdat any

$_ZN4absl24uniform_int_distributionItE8GenerateINS_15random_internal17NonsecureURBGBaseINS3_13randen_engineImEENS3_17RandenPoolSeedSeqEEEEEtRT_t = comdat any

$_ZN4absl15random_internal18DistributionCallerINS0_17NonsecureURBGBaseINS0_13randen_engineImEENS0_17RandenPoolSeedSeqEEEE4CallINS0_26UniformDistributionWrapperIjEEJRjSB_EEENT_11result_typeEPS6_DpOT0_ = comdat any

$_ZN4absl15random_internal18DistributionCallerINS0_17NonsecureURBGBaseINS0_13randen_engineImEENS0_17RandenPoolSeedSeqEEEE4ImplINS0_26UniformDistributionWrapperIjEEJRjSB_EEENT_11result_typeESt17integral_constantIbLb0EEPS6_DpOT0_ = comdat any

$_ZN4absl24uniform_int_distributionIjEclINS_15random_internal17NonsecureURBGBaseINS3_13randen_engineImEENS3_17RandenPoolSeedSeqEEEEEjRT_ = comdat any

$_ZN4absl24uniform_int_distributionIjEclINS_15random_internal17NonsecureURBGBaseINS3_13randen_engineImEENS3_17RandenPoolSeedSeqEEEEEjRT_RKNS1_10param_typeE = comdat any

$_ZN4absl24uniform_int_distributionIjE8GenerateINS_15random_internal17NonsecureURBGBaseINS3_13randen_engineImEENS3_17RandenPoolSeedSeqEEEEEjRT_j = comdat any

$_ZN4absl15random_internal18DistributionCallerINS0_17NonsecureURBGBaseINS0_13randen_engineImEENS0_17RandenPoolSeedSeqEEEE4CallINS0_26UniformDistributionWrapperIlEEJRlSB_EEENT_11result_typeEPS6_DpOT0_ = comdat any

$_ZN4absl15random_internal18DistributionCallerINS0_17NonsecureURBGBaseINS0_13randen_engineImEENS0_17RandenPoolSeedSeqEEEE4ImplINS0_26UniformDistributionWrapperIlEEJRlSB_EEENT_11result_typeESt17integral_constantIbLb0EEPS6_DpOT0_ = comdat any

$_ZN4absl15random_internal18DistributionCallerINS0_17NonsecureURBGBaseINS0_13randen_engineImEENS0_17RandenPoolSeedSeqEEEE4CallINS0_26UniformDistributionWrapperIfEEJRfSB_EEENT_11result_typeEPS6_DpOT0_ = comdat any

$_ZN4absl15random_internal18DistributionCallerINS0_17NonsecureURBGBaseINS0_13randen_engineImEENS0_17RandenPoolSeedSeqEEEE4ImplINS0_26UniformDistributionWrapperIfEEJRfSB_EEENT_11result_typeESt17integral_constantIbLb0EEPS6_DpOT0_ = comdat any

$_ZN4absl25uniform_real_distributionIfEclINS_15random_internal17NonsecureURBGBaseINS3_13randen_engineImEENS3_17RandenPoolSeedSeqEEEEEfRT_ = comdat any

$_ZN4absl25uniform_real_distributionIfEclINS_15random_internal17NonsecureURBGBaseINS3_13randen_engineImEENS3_17RandenPoolSeedSeqEEEEEfRT_RKNS1_10param_typeE = comdat any

$_ZN4absl15random_internal18DistributionCallerINS0_17NonsecureURBGBaseINS0_13randen_engineImEENS0_17RandenPoolSeedSeqEEEE4CallINS0_26UniformDistributionWrapperIdEEJRNS_23IntervalClosedClosedTagERdSD_EEENT_11result_typeEPS6_DpOT0_ = comdat any

$_ZN4absl15random_internal18DistributionCallerINS0_17NonsecureURBGBaseINS0_13randen_engineImEENS0_17RandenPoolSeedSeqEEEE4ImplINS0_26UniformDistributionWrapperIdEEJRNS_23IntervalClosedClosedTagERdSD_EEENT_11result_typeESt17integral_constantIbLb0EEPS6_DpOT0_ = comdat any

$_ZN4absl15random_internal18DistributionCallerINS0_17NonsecureURBGBaseINS0_13randen_engineImEENS0_17RandenPoolSeedSeqEEEE4CallINS0_26UniformDistributionWrapperIdEEJRNS_21IntervalClosedOpenTagERdSD_EEENT_11result_typeEPS6_DpOT0_ = comdat any

$_ZN4absl15random_internal18DistributionCallerINS0_17NonsecureURBGBaseINS0_13randen_engineImEENS0_17RandenPoolSeedSeqEEEE4ImplINS0_26UniformDistributionWrapperIdEEJRNS_21IntervalClosedOpenTagERdSD_EEENT_11result_typeESt17integral_constantIbLb0EEPS6_DpOT0_ = comdat any

$_ZN4absl15random_internal18DistributionCallerINS0_17NonsecureURBGBaseINS0_13randen_engineImEENS0_17RandenPoolSeedSeqEEEE4CallINS0_26UniformDistributionWrapperIdEEJRNS_21IntervalOpenClosedTagERdSD_EEENT_11result_typeEPS6_DpOT0_ = comdat any

$_ZN4absl15random_internal18DistributionCallerINS0_17NonsecureURBGBaseINS0_13randen_engineImEENS0_17RandenPoolSeedSeqEEEE4ImplINS0_26UniformDistributionWrapperIdEEJRNS_21IntervalOpenClosedTagERdSD_EEENT_11result_typeESt17integral_constantIbLb0EEPS6_DpOT0_ = comdat any

$_ZN4absl15random_internal18DistributionCallerINS0_17NonsecureURBGBaseINS0_13randen_engineImEENS0_17RandenPoolSeedSeqEEEE4CallINS0_26UniformDistributionWrapperIiEEJRNS_21IntervalClosedOpenTagERiSD_EEENT_11result_typeEPS6_DpOT0_ = comdat any

$_ZN4absl15random_internal18DistributionCallerINS0_17NonsecureURBGBaseINS0_13randen_engineImEENS0_17RandenPoolSeedSeqEEEE4ImplINS0_26UniformDistributionWrapperIiEEJRNS_21IntervalClosedOpenTagERiSD_EEENT_11result_typeESt17integral_constantIbLb0EEPS6_DpOT0_ = comdat any

$_ZN4absl15random_internal18DistributionCallerINS0_17NonsecureURBGBaseINS0_13randen_engineImEENS0_17RandenPoolSeedSeqEEEE4CallINS0_26UniformDistributionWrapperIiEEJRNS_19IntervalOpenOpenTagERiSD_EEENT_11result_typeEPS6_DpOT0_ = comdat any

$_ZN4absl15random_internal18DistributionCallerINS0_17NonsecureURBGBaseINS0_13randen_engineImEENS0_17RandenPoolSeedSeqEEEE4ImplINS0_26UniformDistributionWrapperIiEEJRNS_19IntervalOpenOpenTagERiSD_EEENT_11result_typeESt17integral_constantIbLb0EEPS6_DpOT0_ = comdat any

$_ZN4absl15random_internal18DistributionCallerINS0_17NonsecureURBGBaseINS0_13randen_engineImEENS0_17RandenPoolSeedSeqEEEE4CallINS0_26UniformDistributionWrapperIiEEJRNS_21IntervalOpenClosedTagERiSD_EEENT_11result_typeEPS6_DpOT0_ = comdat any

$_ZN4absl15random_internal18DistributionCallerINS0_17NonsecureURBGBaseINS0_13randen_engineImEENS0_17RandenPoolSeedSeqEEEE4ImplINS0_26UniformDistributionWrapperIiEEJRNS_21IntervalOpenClosedTagERiSD_EEENT_11result_typeESt17integral_constantIbLb0EEPS6_DpOT0_ = comdat any

$_ZN4absl11ExponentialIfRNS_15random_internal17NonsecureURBGBaseINS1_13randen_engineImEENS1_17RandenPoolSeedSeqEEEEET_OT0_S8_ = comdat any

$_ZN4absl11ExponentialIdRNS_15random_internal17NonsecureURBGBaseINS1_13randen_engineImEENS1_17RandenPoolSeedSeqEEEEET_OT0_S8_ = comdat any

$_ZN4absl11ExponentialIdNS_15random_internal17NonsecureURBGBaseINS1_13randen_engineImEENS1_17RandenPoolSeedSeqEEEEET_OT0_S7_ = comdat any

$_ZN4absl15random_internal18DistributionCallerINS0_17NonsecureURBGBaseINS0_13randen_engineImEENS0_17RandenPoolSeedSeqEEEE4CallINS_24exponential_distributionIfEEJRfEEENT_11result_typeEPS6_DpOT0_ = comdat any

$_ZN4absl15random_internal18DistributionCallerINS0_17NonsecureURBGBaseINS0_13randen_engineImEENS0_17RandenPoolSeedSeqEEEE4ImplINS_24exponential_distributionIfEEJRfEEENT_11result_typeESt17integral_constantIbLb0EEPS6_DpOT0_ = comdat any

$_ZN4absl24exponential_distributionIfEclINS_15random_internal17NonsecureURBGBaseINS3_13randen_engineImEENS3_17RandenPoolSeedSeqEEEEEfRT_ = comdat any

$_ZN4absl24exponential_distributionIfEclINS_15random_internal17NonsecureURBGBaseINS3_13randen_engineImEENS3_17RandenPoolSeedSeqEEEEEfRT_RKNS1_10param_typeE = comdat any

$_ZN4absl15random_internal18DistributionCallerINS0_17NonsecureURBGBaseINS0_13randen_engineImEENS0_17RandenPoolSeedSeqEEEE4CallINS_24exponential_distributionIdEEJRdEEENT_11result_typeEPS6_DpOT0_ = comdat any

$_ZN4absl15random_internal18DistributionCallerINS0_17NonsecureURBGBaseINS0_13randen_engineImEENS0_17RandenPoolSeedSeqEEEE4ImplINS_24exponential_distributionIdEEJRdEEENT_11result_typeESt17integral_constantIbLb0EEPS6_DpOT0_ = comdat any

$_ZN4absl24exponential_distributionIdEclINS_15random_internal17NonsecureURBGBaseINS3_13randen_engineImEENS3_17RandenPoolSeedSeqEEEEEdRT_ = comdat any

$_ZN4absl24exponential_distributionIdEclINS_15random_internal17NonsecureURBGBaseINS3_13randen_engineImEENS3_17RandenPoolSeedSeqEEEEEdRT_RKNS1_10param_typeE = comdat any

$_ZN4absl7PoissonIiRNS_15random_internal17NonsecureURBGBaseINS1_13randen_engineImEENS1_17RandenPoolSeedSeqEEEEET_OT0_d = comdat any

$_ZN4absl7PoissonIsRNS_15random_internal17NonsecureURBGBaseINS1_13randen_engineImEENS1_17RandenPoolSeedSeqEEEEET_OT0_d = comdat any

$_ZN4absl7PoissonItRNS_15random_internal17NonsecureURBGBaseINS1_13randen_engineImEENS1_17RandenPoolSeedSeqEEEEET_OT0_d = comdat any

$_ZN4absl7PoissonIjRNS_15random_internal17NonsecureURBGBaseINS1_13randen_engineImEENS1_17RandenPoolSeedSeqEEEEET_OT0_d = comdat any

$_ZN4absl7PoissonIlRNS_15random_internal17NonsecureURBGBaseINS1_13randen_engineImEENS1_17RandenPoolSeedSeqEEEEET_OT0_d = comdat any

$_ZN4absl7PoissonImRNS_15random_internal17NonsecureURBGBaseINS1_13randen_engineImEENS1_17RandenPoolSeedSeqEEEEET_OT0_d = comdat any

$_ZN4absl7PoissonImNS_15random_internal17NonsecureURBGBaseINS1_13randen_engineImEENS1_17RandenPoolSeedSeqEEEEET_OT0_d = comdat any

$_ZN4absl7PoissonINS_6int128ERNS_15random_internal17NonsecureURBGBaseINS2_13randen_engineImEENS2_17RandenPoolSeedSeqEEEEET_OT0_d = comdat any

$_ZN4absl7PoissonINS_7uint128ERNS_15random_internal17NonsecureURBGBaseINS2_13randen_engineImEENS2_17RandenPoolSeedSeqEEEEET_OT0_d = comdat any

$_ZN4absl15random_internal18DistributionCallerINS0_17NonsecureURBGBaseINS0_13randen_engineImEENS0_17RandenPoolSeedSeqEEEE4CallINS_20poisson_distributionIiEEJRdEEENT_11result_typeEPS6_DpOT0_ = comdat any

$_ZN4absl15random_internal18DistributionCallerINS0_17NonsecureURBGBaseINS0_13randen_engineImEENS0_17RandenPoolSeedSeqEEEE4ImplINS_20poisson_distributionIiEEJRdEEENT_11result_typeESt17integral_constantIbLb0EEPS6_DpOT0_ = comdat any

$_ZN4absl20poisson_distributionIiEclINS_15random_internal17NonsecureURBGBaseINS3_13randen_engineImEENS3_17RandenPoolSeedSeqEEEEEiRT_ = comdat any

$_ZN4absl20poisson_distributionIiEclINS_15random_internal17NonsecureURBGBaseINS3_13randen_engineImEENS3_17RandenPoolSeedSeqEEEEEiRT_RKNS1_10param_typeE = comdat any

$_ZN4absl15random_internal18DistributionCallerINS0_17NonsecureURBGBaseINS0_13randen_engineImEENS0_17RandenPoolSeedSeqEEEE4CallINS_20poisson_distributionIsEEJRdEEENT_11result_typeEPS6_DpOT0_ = comdat any

$_ZN4absl15random_internal18DistributionCallerINS0_17NonsecureURBGBaseINS0_13randen_engineImEENS0_17RandenPoolSeedSeqEEEE4ImplINS_20poisson_distributionIsEEJRdEEENT_11result_typeESt17integral_constantIbLb0EEPS6_DpOT0_ = comdat any

$_ZN4absl20poisson_distributionIsEclINS_15random_internal17NonsecureURBGBaseINS3_13randen_engineImEENS3_17RandenPoolSeedSeqEEEEEsRT_ = comdat any

$_ZN4absl20poisson_distributionIsEclINS_15random_internal17NonsecureURBGBaseINS3_13randen_engineImEENS3_17RandenPoolSeedSeqEEEEEsRT_RKNS1_10param_typeE = comdat any

$_ZN4absl15random_internal18DistributionCallerINS0_17NonsecureURBGBaseINS0_13randen_engineImEENS0_17RandenPoolSeedSeqEEEE4CallINS_20poisson_distributionItEEJRdEEENT_11result_typeEPS6_DpOT0_ = comdat any

$_ZN4absl15random_internal18DistributionCallerINS0_17NonsecureURBGBaseINS0_13randen_engineImEENS0_17RandenPoolSeedSeqEEEE4ImplINS_20poisson_distributionItEEJRdEEENT_11result_typeESt17integral_constantIbLb0EEPS6_DpOT0_ = comdat any

$_ZN4absl20poisson_distributionItEclINS_15random_internal17NonsecureURBGBaseINS3_13randen_engineImEENS3_17RandenPoolSeedSeqEEEEEtRT_ = comdat any

$_ZN4absl20poisson_distributionItEclINS_15random_internal17NonsecureURBGBaseINS3_13randen_engineImEENS3_17RandenPoolSeedSeqEEEEEtRT_RKNS1_10param_typeE = comdat any

$_ZN4absl15random_internal18DistributionCallerINS0_17NonsecureURBGBaseINS0_13randen_engineImEENS0_17RandenPoolSeedSeqEEEE4CallINS_20poisson_distributionIjEEJRdEEENT_11result_typeEPS6_DpOT0_ = comdat any

$_ZN4absl15random_internal18DistributionCallerINS0_17NonsecureURBGBaseINS0_13randen_engineImEENS0_17RandenPoolSeedSeqEEEE4ImplINS_20poisson_distributionIjEEJRdEEENT_11result_typeESt17integral_constantIbLb0EEPS6_DpOT0_ = comdat any

$_ZN4absl20poisson_distributionIjEclINS_15random_internal17NonsecureURBGBaseINS3_13randen_engineImEENS3_17RandenPoolSeedSeqEEEEEjRT_ = comdat any

$_ZN4absl20poisson_distributionIjEclINS_15random_internal17NonsecureURBGBaseINS3_13randen_engineImEENS3_17RandenPoolSeedSeqEEEEEjRT_RKNS1_10param_typeE = comdat any

$_ZN4absl15random_internal18DistributionCallerINS0_17NonsecureURBGBaseINS0_13randen_engineImEENS0_17RandenPoolSeedSeqEEEE4CallINS_20poisson_distributionIlEEJRdEEENT_11result_typeEPS6_DpOT0_ = comdat any

$_ZN4absl15random_internal18DistributionCallerINS0_17NonsecureURBGBaseINS0_13randen_engineImEENS0_17RandenPoolSeedSeqEEEE4ImplINS_20poisson_distributionIlEEJRdEEENT_11result_typeESt17integral_constantIbLb0EEPS6_DpOT0_ = comdat any

$_ZN4absl20poisson_distributionIlEclINS_15random_internal17NonsecureURBGBaseINS3_13randen_engineImEENS3_17RandenPoolSeedSeqEEEEElRT_ = comdat any

$_ZN4absl20poisson_distributionIlEclINS_15random_internal17NonsecureURBGBaseINS3_13randen_engineImEENS3_17RandenPoolSeedSeqEEEEElRT_RKNS1_10param_typeE = comdat any

$_ZN4absl15random_internal18DistributionCallerINS0_17NonsecureURBGBaseINS0_13randen_engineImEENS0_17RandenPoolSeedSeqEEEE4CallINS_20poisson_distributionImEEJRdEEENT_11result_typeEPS6_DpOT0_ = comdat any

$_ZN4absl15random_internal18DistributionCallerINS0_17NonsecureURBGBaseINS0_13randen_engineImEENS0_17RandenPoolSeedSeqEEEE4ImplINS_20poisson_distributionImEEJRdEEENT_11result_typeESt17integral_constantIbLb0EEPS6_DpOT0_ = comdat any

$_ZN4absl20poisson_distributionImEclINS_15random_internal17NonsecureURBGBaseINS3_13randen_engineImEENS3_17RandenPoolSeedSeqEEEEEmRT_ = comdat any

$_ZN4absl20poisson_distributionImEclINS_15random_internal17NonsecureURBGBaseINS3_13randen_engineImEENS3_17RandenPoolSeedSeqEEEEEmRT_RKNS1_10param_typeE = comdat any

$_ZN4absl15random_internal18DistributionCallerINS0_17NonsecureURBGBaseINS0_13randen_engineImEENS0_17RandenPoolSeedSeqEEEE4CallINS_20poisson_distributionINS_6int128EEEJRdEEENT_11result_typeEPS6_DpOT0_ = comdat any

$_ZN4absl15random_internal18DistributionCallerINS0_17NonsecureURBGBaseINS0_13randen_engineImEENS0_17RandenPoolSeedSeqEEEE4ImplINS_20poisson_distributionINS_6int128EEEJRdEEENT_11result_typeESt17integral_constantIbLb0EEPS6_DpOT0_ = comdat any

$_ZN4absl20poisson_distributionINS_6int128EEclINS_15random_internal17NonsecureURBGBaseINS4_13randen_engineImEENS4_17RandenPoolSeedSeqEEEEES1_RT_ = comdat any

$_ZN4absl20poisson_distributionINS_6int128EEclINS_15random_internal17NonsecureURBGBaseINS4_13randen_engineImEENS4_17RandenPoolSeedSeqEEEEES1_RT_RKNS2_10param_typeE = comdat any

$_ZN4absl15random_internal18DistributionCallerINS0_17NonsecureURBGBaseINS0_13randen_engineImEENS0_17RandenPoolSeedSeqEEEE4CallINS_20poisson_distributionINS_7uint128EEEJRdEEENT_11result_typeEPS6_DpOT0_ = comdat any

$_ZN4absl15random_internal18DistributionCallerINS0_17NonsecureURBGBaseINS0_13randen_engineImEENS0_17RandenPoolSeedSeqEEEE4ImplINS_20poisson_distributionINS_7uint128EEEJRdEEENT_11result_typeESt17integral_constantIbLb0EEPS6_DpOT0_ = comdat any

$_ZN4absl20poisson_distributionINS_7uint128EEclINS_15random_internal17NonsecureURBGBaseINS4_13randen_engineImEENS4_17RandenPoolSeedSeqEEEEES1_RT_ = comdat any

$_ZN4absl20poisson_distributionINS_7uint128EEclINS_15random_internal17NonsecureURBGBaseINS4_13randen_engineImEENS4_17RandenPoolSeedSeqEEEEES1_RT_RKNS2_10param_typeE = comdat any

$_ZN4absl9BernoulliIRNS_15random_internal17NonsecureURBGBaseINS1_13randen_engineImEENS1_17RandenPoolSeedSeqEEEEEbOT_d = comdat any

$_ZN4absl15random_internal18DistributionCallerINS0_17NonsecureURBGBaseINS0_13randen_engineImEENS0_17RandenPoolSeedSeqEEEE4CallINS_22bernoulli_distributionEJRdEEENT_11result_typeEPS6_DpOT0_ = comdat any

$_ZN4absl15random_internal18DistributionCallerINS0_17NonsecureURBGBaseINS0_13randen_engineImEENS0_17RandenPoolSeedSeqEEEE4ImplINS_22bernoulli_distributionEJRdEEENT_11result_typeESt17integral_constantIbLb0EEPS6_DpOT0_ = comdat any

$_ZN4absl22bernoulli_distributionclINS_15random_internal17NonsecureURBGBaseINS2_13randen_engineImEENS2_17RandenPoolSeedSeqEEEEEbRT_ = comdat any

$_ZN4absl22bernoulli_distribution8GenerateINS_15random_internal17NonsecureURBGBaseINS2_13randen_engineImEENS2_17RandenPoolSeedSeqEEEEEbdRT_ = comdat any

$_ZN4absl4ZipfIiRNS_15random_internal17NonsecureURBGBaseINS1_13randen_engineImEENS1_17RandenPoolSeedSeqEEEEET_OT0_S8_dd = comdat any

$_ZN4absl4ZipfIaRNS_15random_internal17NonsecureURBGBaseINS1_13randen_engineImEENS1_17RandenPoolSeedSeqEEEEET_OT0_S8_dd = comdat any

$_ZN4absl4ZipfIsRNS_15random_internal17NonsecureURBGBaseINS1_13randen_engineImEENS1_17RandenPoolSeedSeqEEEEET_OT0_S8_dd = comdat any

$_ZN4absl4ZipfItRNS_15random_internal17NonsecureURBGBaseINS1_13randen_engineImEENS1_17RandenPoolSeedSeqEEEEET_OT0_S8_dd = comdat any

$_ZN4absl4ZipfIjRNS_15random_internal17NonsecureURBGBaseINS1_13randen_engineImEENS1_17RandenPoolSeedSeqEEEEET_OT0_S8_dd = comdat any

$_ZN4absl4ZipfIlRNS_15random_internal17NonsecureURBGBaseINS1_13randen_engineImEENS1_17RandenPoolSeedSeqEEEEET_OT0_S8_dd = comdat any

$_ZN4absl4ZipfImRNS_15random_internal17NonsecureURBGBaseINS1_13randen_engineImEENS1_17RandenPoolSeedSeqEEEEET_OT0_S8_dd = comdat any

$_ZN4absl4ZipfImNS_15random_internal17NonsecureURBGBaseINS1_13randen_engineImEENS1_17RandenPoolSeedSeqEEEEET_OT0_S7_dd = comdat any

$_ZN4absl4ZipfINS_6int128ERNS_15random_internal17NonsecureURBGBaseINS2_13randen_engineImEENS2_17RandenPoolSeedSeqEEEEET_OT0_S9_dd = comdat any

$_ZN4absl4ZipfINS_7uint128ERNS_15random_internal17NonsecureURBGBaseINS2_13randen_engineImEENS2_17RandenPoolSeedSeqEEEEET_OT0_S9_dd = comdat any

$_ZN4absl15random_internal18DistributionCallerINS0_17NonsecureURBGBaseINS0_13randen_engineImEENS0_17RandenPoolSeedSeqEEEE4CallINS_17zipf_distributionIiEEJRiRdSC_EEENT_11result_typeEPS6_DpOT0_ = comdat any

$_ZN4absl15random_internal18DistributionCallerINS0_17NonsecureURBGBaseINS0_13randen_engineImEENS0_17RandenPoolSeedSeqEEEE4ImplINS_17zipf_distributionIiEEJRiRdSC_EEENT_11result_typeESt17integral_constantIbLb0EEPS6_DpOT0_ = comdat any

$_ZN4absl17zipf_distributionIiEclINS_15random_internal17NonsecureURBGBaseINS3_13randen_engineImEENS3_17RandenPoolSeedSeqEEEEEiRT_ = comdat any

$_ZN4absl17zipf_distributionIiEclINS_15random_internal17NonsecureURBGBaseINS3_13randen_engineImEENS3_17RandenPoolSeedSeqEEEEEiRT_RKNS1_10param_typeE = comdat any

$_ZN4absl15random_internal18DistributionCallerINS0_17NonsecureURBGBaseINS0_13randen_engineImEENS0_17RandenPoolSeedSeqEEEE4CallINS_17zipf_distributionIaEEJRaRdSC_EEENT_11result_typeEPS6_DpOT0_ = comdat any

$_ZN4absl15random_internal18DistributionCallerINS0_17NonsecureURBGBaseINS0_13randen_engineImEENS0_17RandenPoolSeedSeqEEEE4ImplINS_17zipf_distributionIaEEJRaRdSC_EEENT_11result_typeESt17integral_constantIbLb0EEPS6_DpOT0_ = comdat any

$_ZN4absl17zipf_distributionIaEclINS_15random_internal17NonsecureURBGBaseINS3_13randen_engineImEENS3_17RandenPoolSeedSeqEEEEEaRT_ = comdat any

$_ZN4absl17zipf_distributionIaEclINS_15random_internal17NonsecureURBGBaseINS3_13randen_engineImEENS3_17RandenPoolSeedSeqEEEEEaRT_RKNS1_10param_typeE = comdat any

$_ZN4absl15random_internal18DistributionCallerINS0_17NonsecureURBGBaseINS0_13randen_engineImEENS0_17RandenPoolSeedSeqEEEE4CallINS_17zipf_distributionIsEEJRsRdSC_EEENT_11result_typeEPS6_DpOT0_ = comdat any

$_ZN4absl15random_internal18DistributionCallerINS0_17NonsecureURBGBaseINS0_13randen_engineImEENS0_17RandenPoolSeedSeqEEEE4ImplINS_17zipf_distributionIsEEJRsRdSC_EEENT_11result_typeESt17integral_constantIbLb0EEPS6_DpOT0_ = comdat any

$_ZN4absl17zipf_distributionIsEclINS_15random_internal17NonsecureURBGBaseINS3_13randen_engineImEENS3_17RandenPoolSeedSeqEEEEEsRT_ = comdat any

$_ZN4absl17zipf_distributionIsEclINS_15random_internal17NonsecureURBGBaseINS3_13randen_engineImEENS3_17RandenPoolSeedSeqEEEEEsRT_RKNS1_10param_typeE = comdat any

$_ZN4absl15random_internal18DistributionCallerINS0_17NonsecureURBGBaseINS0_13randen_engineImEENS0_17RandenPoolSeedSeqEEEE4CallINS_17zipf_distributionItEEJRtRdSC_EEENT_11result_typeEPS6_DpOT0_ = comdat any

$_ZN4absl15random_internal18DistributionCallerINS0_17NonsecureURBGBaseINS0_13randen_engineImEENS0_17RandenPoolSeedSeqEEEE4ImplINS_17zipf_distributionItEEJRtRdSC_EEENT_11result_typeESt17integral_constantIbLb0EEPS6_DpOT0_ = comdat any

$_ZN4absl17zipf_distributionItEclINS_15random_internal17NonsecureURBGBaseINS3_13randen_engineImEENS3_17RandenPoolSeedSeqEEEEEtRT_ = comdat any

$_ZN4absl17zipf_distributionItEclINS_15random_internal17NonsecureURBGBaseINS3_13randen_engineImEENS3_17RandenPoolSeedSeqEEEEEtRT_RKNS1_10param_typeE = comdat any

$_ZN4absl15random_internal18DistributionCallerINS0_17NonsecureURBGBaseINS0_13randen_engineImEENS0_17RandenPoolSeedSeqEEEE4CallINS_17zipf_distributionIjEEJRjRdSC_EEENT_11result_typeEPS6_DpOT0_ = comdat any

$_ZN4absl15random_internal18DistributionCallerINS0_17NonsecureURBGBaseINS0_13randen_engineImEENS0_17RandenPoolSeedSeqEEEE4ImplINS_17zipf_distributionIjEEJRjRdSC_EEENT_11result_typeESt17integral_constantIbLb0EEPS6_DpOT0_ = comdat any

$_ZN4absl17zipf_distributionIjEclINS_15random_internal17NonsecureURBGBaseINS3_13randen_engineImEENS3_17RandenPoolSeedSeqEEEEEjRT_ = comdat any

$_ZN4absl17zipf_distributionIjEclINS_15random_internal17NonsecureURBGBaseINS3_13randen_engineImEENS3_17RandenPoolSeedSeqEEEEEjRT_RKNS1_10param_typeE = comdat any

$_ZN4absl15random_internal18DistributionCallerINS0_17NonsecureURBGBaseINS0_13randen_engineImEENS0_17RandenPoolSeedSeqEEEE4CallINS_17zipf_distributionIlEEJRlRdSC_EEENT_11result_typeEPS6_DpOT0_ = comdat any

$_ZN4absl15random_internal18DistributionCallerINS0_17NonsecureURBGBaseINS0_13randen_engineImEENS0_17RandenPoolSeedSeqEEEE4ImplINS_17zipf_distributionIlEEJRlRdSC_EEENT_11result_typeESt17integral_constantIbLb0EEPS6_DpOT0_ = comdat any

$_ZN4absl17zipf_distributionIlEclINS_15random_internal17NonsecureURBGBaseINS3_13randen_engineImEENS3_17RandenPoolSeedSeqEEEEElRT_ = comdat any

$_ZN4absl17zipf_distributionIlEclINS_15random_internal17NonsecureURBGBaseINS3_13randen_engineImEENS3_17RandenPoolSeedSeqEEEEElRT_RKNS1_10param_typeE = comdat any

$_ZN4absl15random_internal18DistributionCallerINS0_17NonsecureURBGBaseINS0_13randen_engineImEENS0_17RandenPoolSeedSeqEEEE4CallINS_17zipf_distributionImEEJRmRdSC_EEENT_11result_typeEPS6_DpOT0_ = comdat any

$_ZN4absl15random_internal18DistributionCallerINS0_17NonsecureURBGBaseINS0_13randen_engineImEENS0_17RandenPoolSeedSeqEEEE4ImplINS_17zipf_distributionImEEJRmRdSC_EEENT_11result_typeESt17integral_constantIbLb0EEPS6_DpOT0_ = comdat any

$_ZN4absl17zipf_distributionImEclINS_15random_internal17NonsecureURBGBaseINS3_13randen_engineImEENS3_17RandenPoolSeedSeqEEEEEmRT_ = comdat any

$_ZN4absl17zipf_distributionImEclINS_15random_internal17NonsecureURBGBaseINS3_13randen_engineImEENS3_17RandenPoolSeedSeqEEEEEmRT_RKNS1_10param_typeE = comdat any

$_ZN4absl15random_internal18DistributionCallerINS0_17NonsecureURBGBaseINS0_13randen_engineImEENS0_17RandenPoolSeedSeqEEEE4CallINS_17zipf_distributionINS_6int128EEEJRSA_RdSD_EEENT_11result_typeEPS6_DpOT0_ = comdat any

$_ZN4absl15random_internal18DistributionCallerINS0_17NonsecureURBGBaseINS0_13randen_engineImEENS0_17RandenPoolSeedSeqEEEE4ImplINS_17zipf_distributionINS_6int128EEEJRSA_RdSD_EEENT_11result_typeESt17integral_constantIbLb0EEPS6_DpOT0_ = comdat any

$_ZN4absl17zipf_distributionINS_6int128EEclINS_15random_internal17NonsecureURBGBaseINS4_13randen_engineImEENS4_17RandenPoolSeedSeqEEEEES1_RT_ = comdat any

$_ZN4absl17zipf_distributionINS_6int128EEclINS_15random_internal17NonsecureURBGBaseINS4_13randen_engineImEENS4_17RandenPoolSeedSeqEEEEES1_RT_RKNS2_10param_typeE = comdat any

$_ZN4absl15random_internal18DistributionCallerINS0_17NonsecureURBGBaseINS0_13randen_engineImEENS0_17RandenPoolSeedSeqEEEE4CallINS_17zipf_distributionINS_7uint128EEEJRSA_RdSD_EEENT_11result_typeEPS6_DpOT0_ = comdat any

$_ZN4absl15random_internal18DistributionCallerINS0_17NonsecureURBGBaseINS0_13randen_engineImEENS0_17RandenPoolSeedSeqEEEE4ImplINS_17zipf_distributionINS_7uint128EEEJRSA_RdSD_EEENT_11result_typeESt17integral_constantIbLb0EEPS6_DpOT0_ = comdat any

$_ZN4absl17zipf_distributionINS_7uint128EEclINS_15random_internal17NonsecureURBGBaseINS4_13randen_engineImEENS4_17RandenPoolSeedSeqEEEEES1_RT_ = comdat any

$_ZN4absl17zipf_distributionINS_7uint128EEclINS_15random_internal17NonsecureURBGBaseINS4_13randen_engineImEENS4_17RandenPoolSeedSeqEEEEES1_RT_RKNS2_10param_typeE = comdat any

$_ZN4absl8GaussianIfRNS_15random_internal17NonsecureURBGBaseINS1_13randen_engineImEENS1_17RandenPoolSeedSeqEEEEET_OT0_S8_S8_ = comdat any

$_ZN4absl8GaussianIdRNS_15random_internal17NonsecureURBGBaseINS1_13randen_engineImEENS1_17RandenPoolSeedSeqEEEEET_OT0_S8_S8_ = comdat any

$_ZN4absl8GaussianIdNS_15random_internal17NonsecureURBGBaseINS1_13randen_engineImEENS1_17RandenPoolSeedSeqEEEEET_OT0_S7_S7_ = comdat any

$_ZN4absl15random_internal18DistributionCallerINS0_17NonsecureURBGBaseINS0_13randen_engineImEENS0_17RandenPoolSeedSeqEEEE4CallINS_21gaussian_distributionIfEEJRfSB_EEENT_11result_typeEPS6_DpOT0_ = comdat any

$_ZN4absl15random_internal18DistributionCallerINS0_17NonsecureURBGBaseINS0_13randen_engineImEENS0_17RandenPoolSeedSeqEEEE4ImplINS_21gaussian_distributionIfEEJRfSB_EEENT_11result_typeESt17integral_constantIbLb0EEPS6_DpOT0_ = comdat any

$_ZN4absl21gaussian_distributionIfEclINS_15random_internal17NonsecureURBGBaseINS3_13randen_engineImEENS3_17RandenPoolSeedSeqEEEEEfRT_ = comdat any

$_ZN4absl21gaussian_distributionIfEclINS_15random_internal17NonsecureURBGBaseINS3_13randen_engineImEENS3_17RandenPoolSeedSeqEEEEEfRT_RKNS1_10param_typeE = comdat any

$_ZN4absl15random_internal26gaussian_distribution_base6zignorINS0_17NonsecureURBGBaseINS0_13randen_engineImEENS0_17RandenPoolSeedSeqEEEEEdRT_ = comdat any

$_ZN4absl15random_internal26gaussian_distribution_base15zignor_fallbackINS0_17NonsecureURBGBaseINS0_13randen_engineImEENS0_17RandenPoolSeedSeqEEEEEdRT_b = comdat any

$_ZN4absl15random_internal18DistributionCallerINS0_17NonsecureURBGBaseINS0_13randen_engineImEENS0_17RandenPoolSeedSeqEEEE4CallINS_21gaussian_distributionIdEEJRdSB_EEENT_11result_typeEPS6_DpOT0_ = comdat any

$_ZN4absl15random_internal18DistributionCallerINS0_17NonsecureURBGBaseINS0_13randen_engineImEENS0_17RandenPoolSeedSeqEEEE4ImplINS_21gaussian_distributionIdEEJRdSB_EEENT_11result_typeESt17integral_constantIbLb0EEPS6_DpOT0_ = comdat any

$_ZN4absl21gaussian_distributionIdEclINS_15random_internal17NonsecureURBGBaseINS3_13randen_engineImEENS3_17RandenPoolSeedSeqEEEEEdRT_ = comdat any

$_ZN4absl21gaussian_distributionIdEclINS_15random_internal17NonsecureURBGBaseINS3_13randen_engineImEENS3_17RandenPoolSeedSeqEEEEEdRT_RKNS1_10param_typeE = comdat any

$_ZN4absl10LogUniformIiRNS_15random_internal17NonsecureURBGBaseINS1_13randen_engineImEENS1_17RandenPoolSeedSeqEEEEET_OT0_S8_S8_S8_ = comdat any

$_ZN4absl10LogUniformIaRNS_15random_internal17NonsecureURBGBaseINS1_13randen_engineImEENS1_17RandenPoolSeedSeqEEEEET_OT0_S8_S8_S8_ = comdat any

$_ZN4absl10LogUniformIsRNS_15random_internal17NonsecureURBGBaseINS1_13randen_engineImEENS1_17RandenPoolSeedSeqEEEEET_OT0_S8_S8_S8_ = comdat any

$_ZN4absl10LogUniformItRNS_15random_internal17NonsecureURBGBaseINS1_13randen_engineImEENS1_17RandenPoolSeedSeqEEEEET_OT0_S8_S8_S8_ = comdat any

$_ZN4absl10LogUniformIjRNS_15random_internal17NonsecureURBGBaseINS1_13randen_engineImEENS1_17RandenPoolSeedSeqEEEEET_OT0_S8_S8_S8_ = comdat any

$_ZN4absl10LogUniformIlRNS_15random_internal17NonsecureURBGBaseINS1_13randen_engineImEENS1_17RandenPoolSeedSeqEEEEET_OT0_S8_S8_S8_ = comdat any

$_ZN4absl10LogUniformImRNS_15random_internal17NonsecureURBGBaseINS1_13randen_engineImEENS1_17RandenPoolSeedSeqEEEEET_OT0_S8_S8_S8_ = comdat any

$_ZN4absl10LogUniformImNS_15random_internal17NonsecureURBGBaseINS1_13randen_engineImEENS1_17RandenPoolSeedSeqEEEEET_OT0_S7_S7_S7_ = comdat any

$_ZN4absl10LogUniformINS_6int128ERNS_15random_internal17NonsecureURBGBaseINS2_13randen_engineImEENS2_17RandenPoolSeedSeqEEEEET_OT0_S9_S9_S9_ = comdat any

$_ZN4absl10LogUniformINS_7uint128ERNS_15random_internal17NonsecureURBGBaseINS2_13randen_engineImEENS2_17RandenPoolSeedSeqEEEEET_OT0_S9_S9_S9_ = comdat any

$_ZN4absl15random_internal18DistributionCallerINS0_17NonsecureURBGBaseINS0_13randen_engineImEENS0_17RandenPoolSeedSeqEEEE4CallINS_28log_uniform_int_distributionIiEEJRiSB_SB_EEENT_11result_typeEPS6_DpOT0_ = comdat any

$_ZN4absl15random_internal18DistributionCallerINS0_17NonsecureURBGBaseINS0_13randen_engineImEENS0_17RandenPoolSeedSeqEEEE4ImplINS_28log_uniform_int_distributionIiEEJRiSB_SB_EEENT_11result_typeESt17integral_constantIbLb0EEPS6_DpOT0_ = comdat any

$_ZN4absl28log_uniform_int_distributionIiEclINS_15random_internal17NonsecureURBGBaseINS3_13randen_engineImEENS3_17RandenPoolSeedSeqEEEEEiRT_ = comdat any

$_ZN4absl28log_uniform_int_distributionIiEclINS_15random_internal17NonsecureURBGBaseINS3_13randen_engineImEENS3_17RandenPoolSeedSeqEEEEEiRT_RKNS1_10param_typeE = comdat any

$_ZN4absl28log_uniform_int_distributionIiE8GenerateINS_15random_internal17NonsecureURBGBaseINS3_13randen_engineImEENS3_17RandenPoolSeedSeqEEEEEjRT_RKNS1_10param_typeE = comdat any

$_ZN4absl15random_internal18DistributionCallerINS0_17NonsecureURBGBaseINS0_13randen_engineImEENS0_17RandenPoolSeedSeqEEEE4CallINS_28log_uniform_int_distributionIaEEJRaSB_SB_EEENT_11result_typeEPS6_DpOT0_ = comdat any

$_ZN4absl15random_internal18DistributionCallerINS0_17NonsecureURBGBaseINS0_13randen_engineImEENS0_17RandenPoolSeedSeqEEEE4ImplINS_28log_uniform_int_distributionIaEEJRaSB_SB_EEENT_11result_typeESt17integral_constantIbLb0EEPS6_DpOT0_ = comdat any

$_ZN4absl28log_uniform_int_distributionIaEclINS_15random_internal17NonsecureURBGBaseINS3_13randen_engineImEENS3_17RandenPoolSeedSeqEEEEEaRT_ = comdat any

$_ZN4absl28log_uniform_int_distributionIaEclINS_15random_internal17NonsecureURBGBaseINS3_13randen_engineImEENS3_17RandenPoolSeedSeqEEEEEaRT_RKNS1_10param_typeE = comdat any

$_ZN4absl28log_uniform_int_distributionIaE8GenerateINS_15random_internal17NonsecureURBGBaseINS3_13randen_engineImEENS3_17RandenPoolSeedSeqEEEEEhRT_RKNS1_10param_typeE = comdat any

$_ZN4absl15random_internal18DistributionCallerINS0_17NonsecureURBGBaseINS0_13randen_engineImEENS0_17RandenPoolSeedSeqEEEE4CallINS_28log_uniform_int_distributionIsEEJRsSB_SB_EEENT_11result_typeEPS6_DpOT0_ = comdat any

$_ZN4absl15random_internal18DistributionCallerINS0_17NonsecureURBGBaseINS0_13randen_engineImEENS0_17RandenPoolSeedSeqEEEE4ImplINS_28log_uniform_int_distributionIsEEJRsSB_SB_EEENT_11result_typeESt17integral_constantIbLb0EEPS6_DpOT0_ = comdat any

$_ZN4absl28log_uniform_int_distributionIsEclINS_15random_internal17NonsecureURBGBaseINS3_13randen_engineImEENS3_17RandenPoolSeedSeqEEEEEsRT_ = comdat any

$_ZN4absl28log_uniform_int_distributionIsEclINS_15random_internal17NonsecureURBGBaseINS3_13randen_engineImEENS3_17RandenPoolSeedSeqEEEEEsRT_RKNS1_10param_typeE = comdat any

$_ZN4absl28log_uniform_int_distributionIsE8GenerateINS_15random_internal17NonsecureURBGBaseINS3_13randen_engineImEENS3_17RandenPoolSeedSeqEEEEEtRT_RKNS1_10param_typeE = comdat any

$_ZN4absl15random_internal18DistributionCallerINS0_17NonsecureURBGBaseINS0_13randen_engineImEENS0_17RandenPoolSeedSeqEEEE4CallINS_28log_uniform_int_distributionItEEJRtSB_SB_EEENT_11result_typeEPS6_DpOT0_ = comdat any

$_ZN4absl15random_internal18DistributionCallerINS0_17NonsecureURBGBaseINS0_13randen_engineImEENS0_17RandenPoolSeedSeqEEEE4ImplINS_28log_uniform_int_distributionItEEJRtSB_SB_EEENT_11result_typeESt17integral_constantIbLb0EEPS6_DpOT0_ = comdat any

$_ZN4absl28log_uniform_int_distributionItEclINS_15random_internal17NonsecureURBGBaseINS3_13randen_engineImEENS3_17RandenPoolSeedSeqEEEEEtRT_ = comdat any

$_ZN4absl28log_uniform_int_distributionItEclINS_15random_internal17NonsecureURBGBaseINS3_13randen_engineImEENS3_17RandenPoolSeedSeqEEEEEtRT_RKNS1_10param_typeE = comdat any

$_ZN4absl28log_uniform_int_distributionItE8GenerateINS_15random_internal17NonsecureURBGBaseINS3_13randen_engineImEENS3_17RandenPoolSeedSeqEEEEEtRT_RKNS1_10param_typeE = comdat any

$_ZN4absl15random_internal18DistributionCallerINS0_17NonsecureURBGBaseINS0_13randen_engineImEENS0_17RandenPoolSeedSeqEEEE4CallINS_28log_uniform_int_distributionIjEEJRjSB_SB_EEENT_11result_typeEPS6_DpOT0_ = comdat any

$_ZN4absl15random_internal18DistributionCallerINS0_17NonsecureURBGBaseINS0_13randen_engineImEENS0_17RandenPoolSeedSeqEEEE4ImplINS_28log_uniform_int_distributionIjEEJRjSB_SB_EEENT_11result_typeESt17integral_constantIbLb0EEPS6_DpOT0_ = comdat any

$_ZN4absl28log_uniform_int_distributionIjEclINS_15random_internal17NonsecureURBGBaseINS3_13randen_engineImEENS3_17RandenPoolSeedSeqEEEEEjRT_ = comdat any

$_ZN4absl28log_uniform_int_distributionIjEclINS_15random_internal17NonsecureURBGBaseINS3_13randen_engineImEENS3_17RandenPoolSeedSeqEEEEEjRT_RKNS1_10param_typeE = comdat any

$_ZN4absl28log_uniform_int_distributionIjE8GenerateINS_15random_internal17NonsecureURBGBaseINS3_13randen_engineImEENS3_17RandenPoolSeedSeqEEEEEjRT_RKNS1_10param_typeE = comdat any

$_ZN4absl15random_internal18DistributionCallerINS0_17NonsecureURBGBaseINS0_13randen_engineImEENS0_17RandenPoolSeedSeqEEEE4CallINS_28log_uniform_int_distributionIlEEJRlSB_SB_EEENT_11result_typeEPS6_DpOT0_ = comdat any

$_ZN4absl15random_internal18DistributionCallerINS0_17NonsecureURBGBaseINS0_13randen_engineImEENS0_17RandenPoolSeedSeqEEEE4ImplINS_28log_uniform_int_distributionIlEEJRlSB_SB_EEENT_11result_typeESt17integral_constantIbLb0EEPS6_DpOT0_ = comdat any

$_ZN4absl28log_uniform_int_distributionIlEclINS_15random_internal17NonsecureURBGBaseINS3_13randen_engineImEENS3_17RandenPoolSeedSeqEEEEElRT_ = comdat any

$_ZN4absl28log_uniform_int_distributionIlEclINS_15random_internal17NonsecureURBGBaseINS3_13randen_engineImEENS3_17RandenPoolSeedSeqEEEEElRT_RKNS1_10param_typeE = comdat any

$_ZN4absl28log_uniform_int_distributionIlE8GenerateINS_15random_internal17NonsecureURBGBaseINS3_13randen_engineImEENS3_17RandenPoolSeedSeqEEEEEmRT_RKNS1_10param_typeE = comdat any

$_ZN4absl15random_internal18DistributionCallerINS0_17NonsecureURBGBaseINS0_13randen_engineImEENS0_17RandenPoolSeedSeqEEEE4CallINS_28log_uniform_int_distributionImEEJRmSB_SB_EEENT_11result_typeEPS6_DpOT0_ = comdat any

$_ZN4absl15random_internal18DistributionCallerINS0_17NonsecureURBGBaseINS0_13randen_engineImEENS0_17RandenPoolSeedSeqEEEE4ImplINS_28log_uniform_int_distributionImEEJRmSB_SB_EEENT_11result_typeESt17integral_constantIbLb0EEPS6_DpOT0_ = comdat any

$_ZN4absl28log_uniform_int_distributionImEclINS_15random_internal17NonsecureURBGBaseINS3_13randen_engineImEENS3_17RandenPoolSeedSeqEEEEEmRT_ = comdat any

$_ZN4absl28log_uniform_int_distributionImEclINS_15random_internal17NonsecureURBGBaseINS3_13randen_engineImEENS3_17RandenPoolSeedSeqEEEEEmRT_RKNS1_10param_typeE = comdat any

$_ZN4absl28log_uniform_int_distributionImE8GenerateINS_15random_internal17NonsecureURBGBaseINS3_13randen_engineImEENS3_17RandenPoolSeedSeqEEEEEmRT_RKNS1_10param_typeE = comdat any

$_ZN4absl15random_internal18DistributionCallerINS0_17NonsecureURBGBaseINS0_13randen_engineImEENS0_17RandenPoolSeedSeqEEEE4CallINS_28log_uniform_int_distributionINS_6int128EEEJRSA_SC_SC_EEENT_11result_typeEPS6_DpOT0_ = comdat any

$_ZN4absl15random_internal18DistributionCallerINS0_17NonsecureURBGBaseINS0_13randen_engineImEENS0_17RandenPoolSeedSeqEEEE4ImplINS_28log_uniform_int_distributionINS_6int128EEEJRSA_SC_SC_EEENT_11result_typeESt17integral_constantIbLb0EEPS6_DpOT0_ = comdat any

$_ZN4absl28log_uniform_int_distributionINS_6int128EEclINS_15random_internal17NonsecureURBGBaseINS4_13randen_engineImEENS4_17RandenPoolSeedSeqEEEEES1_RT_ = comdat any

$_ZN4absl28log_uniform_int_distributionINS_6int128EEclINS_15random_internal17NonsecureURBGBaseINS4_13randen_engineImEENS4_17RandenPoolSeedSeqEEEEES1_RT_RKNS2_10param_typeE = comdat any

$_ZN4absl28log_uniform_int_distributionINS_6int128EE8GenerateINS_15random_internal17NonsecureURBGBaseINS4_13randen_engineImEENS4_17RandenPoolSeedSeqEEEEENS_7uint128ERT_RKNS2_10param_typeE = comdat any

$_ZN4absl24uniform_int_distributionINS_6int128EEclINS_15random_internal17NonsecureURBGBaseINS4_13randen_engineImEENS4_17RandenPoolSeedSeqEEEEES1_RT_ = comdat any

$_ZN4absl24uniform_int_distributionINS_6int128EEclINS_15random_internal17NonsecureURBGBaseINS4_13randen_engineImEENS4_17RandenPoolSeedSeqEEEEES1_RT_RKNS2_10param_typeE = comdat any

$_ZN4absl24uniform_int_distributionINS_6int128EE8GenerateINS_15random_internal17NonsecureURBGBaseINS4_13randen_engineImEENS4_17RandenPoolSeedSeqEEEEENS_7uint128ERT_SA_ = comdat any

$_ZN4absl15random_internal15FastUniformBitsINS_7uint128EEclINS0_17NonsecureURBGBaseINS0_13randen_engineImEENS0_17RandenPoolSeedSeqEEEEES2_RT_ = comdat any

$_ZN4absl15random_internal15FastUniformBitsINS_7uint128EE8GenerateINS0_17NonsecureURBGBaseINS0_13randen_engineImEENS0_17RandenPoolSeedSeqEEEEES2_RT_NS0_17SimplifiedLoopTagE = comdat any

$_ZN4absl15random_internal18DistributionCallerINS0_17NonsecureURBGBaseINS0_13randen_engineImEENS0_17RandenPoolSeedSeqEEEE4CallINS_28log_uniform_int_distributionINS_7uint128EEEJRSA_SC_SC_EEENT_11result_typeEPS6_DpOT0_ = comdat any

$_ZN4absl15random_internal18DistributionCallerINS0_17NonsecureURBGBaseINS0_13randen_engineImEENS0_17RandenPoolSeedSeqEEEE4ImplINS_28log_uniform_int_distributionINS_7uint128EEEJRSA_SC_SC_EEENT_11result_typeESt17integral_constantIbLb0EEPS6_DpOT0_ = comdat any

$_ZN4absl28log_uniform_int_distributionINS_7uint128EEclINS_15random_internal17NonsecureURBGBaseINS4_13randen_engineImEENS4_17RandenPoolSeedSeqEEEEES1_RT_ = comdat any

$_ZN4absl28log_uniform_int_distributionINS_7uint128EEclINS_15random_internal17NonsecureURBGBaseINS4_13randen_engineImEENS4_17RandenPoolSeedSeqEEEEES1_RT_RKNS2_10param_typeE = comdat any

$_ZN4absl28log_uniform_int_distributionINS_7uint128EE8GenerateINS_15random_internal17NonsecureURBGBaseINS4_13randen_engineImEENS4_17RandenPoolSeedSeqEEEEES1_RT_RKNS2_10param_typeE = comdat any

$_ZN4absl24uniform_int_distributionINS_7uint128EEclINS_15random_internal17NonsecureURBGBaseINS4_13randen_engineImEENS4_17RandenPoolSeedSeqEEEEES1_RT_ = comdat any

$_ZN4absl24uniform_int_distributionINS_7uint128EEclINS_15random_internal17NonsecureURBGBaseINS4_13randen_engineImEENS4_17RandenPoolSeedSeqEEEEES1_RT_RKNS2_10param_typeE = comdat any

$_ZN4absl24uniform_int_distributionINS_7uint128EE8GenerateINS_15random_internal17NonsecureURBGBaseINS4_13randen_engineImEENS4_17RandenPoolSeedSeqEEEEES1_RT_S1_ = comdat any

$_ZN4absl15random_internal17NonsecureURBGBaseINS0_10pcg_engineINS0_13pcg128_paramsILm2549297995355413924ELm4865540595714422341ELm6364136223846793005ELm1442695040888963407EEENS0_17pcg_xsl_rr_128_64EEENS0_17RandenPoolSeedSeqEEC2Ev = comdat any

$_ZN4absl15random_internal17NonsecureURBGBaseINS0_10pcg_engineINS0_13pcg128_paramsILm2549297995355413924ELm4865540595714422341ELm6364136223846793005ELm1442695040888963407EEENS0_17pcg_xsl_rr_128_64EEENS0_17RandenPoolSeedSeqEE13ConstructURBGEv = comdat any

$_ZN4absl15random_internal10pcg_engineINS0_13pcg128_paramsILm2549297995355413924ELm4865540595714422341ELm6364136223846793005ELm1442695040888963407EEENS0_17pcg_xsl_rr_128_64EEC2IRNS0_17RandenPoolSeedSeqEvEEOT_ = comdat any

$_ZN4absl15random_internal10pcg_engineINS0_13pcg128_paramsILm2549297995355413924ELm4865540595714422341ELm6364136223846793005ELm1442695040888963407EEENS0_17pcg_xsl_rr_128_64EE4seedIRNS0_17RandenPoolSeedSeqEEENSt9enable_ifIXntsr3std14is_convertibleIT_mEE5valueEvE4typeEOSA_ = comdat any

$_ZN4absl15random_internal10pcg_engineINS0_13pcg128_paramsILm2549297995355413924ELm4865540595714422341ELm6364136223846793005ELm1442695040888963407EEENS0_17pcg_xsl_rr_128_64EE6reseedINS0_17RandenPoolSeedSeqEEEvRT_ = comdat any

$_ZSt5beginIjLm4EEPT_RAT0__S0_ = comdat any

$_ZSt3endIjLm4EEPT_RAT0__S0_ = comdat any

$_ZN4absl7uint128C2Ej = comdat any

$_ZN4absl7uint128lSEi = comdat any

$_ZN4absl7uint128oRES0_ = comdat any

$_ZN4absl15random_internal10pcg_engineINS0_13pcg128_paramsILm2549297995355413924ELm4865540595714422341ELm6364136223846793005ELm1442695040888963407EEENS0_17pcg_xsl_rr_128_64EE3lcgENS_7uint128E = comdat any

$_ZN4absl15random_internal13pcg128_paramsILm2549297995355413924ELm4865540595714422341ELm6364136223846793005ELm1442695040888963407EE9incrementEv = comdat any

$_ZN4abslorENS_7uint128ES0_ = comdat any

$_ZN4absl15random_internal13pcg128_paramsILm2549297995355413924ELm4865540595714422341ELm6364136223846793005ELm1442695040888963407EE10multiplierEv = comdat any

$_ZN4absl11MakeUint128Emm = comdat any

$_ZN4absl7UniformIiRNS_15random_internal17NonsecureURBGBaseINS1_10pcg_engineINS1_13pcg128_paramsILm2549297995355413924ELm4865540595714422341ELm6364136223846793005ELm1442695040888963407EEENS1_17pcg_xsl_rr_128_64EEENS1_17RandenPoolSeedSeqEEEEENSt9enable_ifIXntsr3std7is_sameIT_vEE5valueESC_E4typeEOT0_SC_SC_ = comdat any

$_ZN4absl7UniformIvRNS_15random_internal17NonsecureURBGBaseINS1_10pcg_engineINS1_13pcg128_paramsILm2549297995355413924ELm4865540595714422341ELm6364136223846793005ELm1442695040888963407EEENS1_17pcg_xsl_rr_128_64EEENS1_17RandenPoolSeedSeqEEEidEENSt9enable_ifIXsr3std7is_sameIT_vEE5valueENSB_IXsr4absl11disjunctionINS1_23is_widening_convertibleIT1_T2_EENSD_ISF_SE_EEEE5valueENSt11conditionalIXsr23is_widening_convertibleISE_SF_EE5valueESF_SE_E4typeEE4typeEE4typeEOT0_SE_SF_ = comdat any

$_ZN4absl7UniformIvRNS_15random_internal17NonsecureURBGBaseINS1_10pcg_engineINS1_13pcg128_paramsILm2549297995355413924ELm4865540595714422341ELm6364136223846793005ELm1442695040888963407EEENS1_17pcg_xsl_rr_128_64EEENS1_17RandenPoolSeedSeqEEEfdEENSt9enable_ifIXsr3std7is_sameIT_vEE5valueENSB_IXsr4absl11disjunctionINS1_23is_widening_convertibleIT1_T2_EENSD_ISF_SE_EEEE5valueENSt11conditionalIXsr23is_widening_convertibleISE_SF_EE5valueESF_SE_E4typeEE4typeEE4typeEOT0_SE_SF_ = comdat any

$_ZN4absl7UniformIdRNS_15random_internal17NonsecureURBGBaseINS1_10pcg_engineINS1_13pcg128_paramsILm2549297995355413924ELm4865540595714422341ELm6364136223846793005ELm1442695040888963407EEENS1_17pcg_xsl_rr_128_64EEENS1_17RandenPoolSeedSeqEEEEENSt9enable_ifIXntsr3std7is_sameIT_vEE5valueESC_E4typeEOT0_SC_SC_ = comdat any

$_ZN4absl7UniformIvRNS_15random_internal17NonsecureURBGBaseINS1_10pcg_engineINS1_13pcg128_paramsILm2549297995355413924ELm4865540595714422341ELm6364136223846793005ELm1442695040888963407EEENS1_17pcg_xsl_rr_128_64EEENS1_17RandenPoolSeedSeqEEEilEENSt9enable_ifIXsr3std7is_sameIT_vEE5valueENSB_IXsr4absl11disjunctionINS1_23is_widening_convertibleIT1_T2_EENSD_ISF_SE_EEEE5valueENSt11conditionalIXsr23is_widening_convertibleISE_SF_EE5valueESF_SE_E4typeEE4typeEE4typeEOT0_SE_SF_ = comdat any

$_ZN4absl7UniformIiNS_23IntervalClosedClosedTagERNS_15random_internal17NonsecureURBGBaseINS2_10pcg_engineINS2_13pcg128_paramsILm2549297995355413924ELm4865540595714422341ELm6364136223846793005ELm1442695040888963407EEENS2_17pcg_xsl_rr_128_64EEENS2_17RandenPoolSeedSeqEEEEENSt9enable_ifIXntsr3std7is_sameIT_vEE5valueESD_E4typeET0_OT1_SD_SD_ = comdat any

$_ZN4absl7UniformIdNS_19IntervalOpenOpenTagERNS_15random_internal17NonsecureURBGBaseINS2_10pcg_engineINS2_13pcg128_paramsILm2549297995355413924ELm4865540595714422341ELm6364136223846793005ELm1442695040888963407EEENS2_17pcg_xsl_rr_128_64EEENS2_17RandenPoolSeedSeqEEEEENSt9enable_ifIXntsr3std7is_sameIT_vEE5valueESD_E4typeET0_OT1_SD_SD_ = comdat any

$_ZN4absl7UniformIvRNS_15random_internal17NonsecureURBGBaseINS1_10pcg_engineINS1_13pcg128_paramsILm2549297995355413924ELm4865540595714422341ELm6364136223846793005ELm1442695040888963407EEENS1_17pcg_xsl_rr_128_64EEENS1_17RandenPoolSeedSeqEEEjmEENSt9enable_ifIXsr3std7is_sameIT_vEE5valueENSB_IXsr4absl11disjunctionINS1_23is_widening_convertibleIT1_T2_EENSD_ISF_SE_EEEE5valueENSt11conditionalIXsr23is_widening_convertibleISE_SF_EE5valueESF_SE_E4typeEE4typeEE4typeEOT0_SE_SF_ = comdat any

$_ZN4absl7UniformImRNS_15random_internal17NonsecureURBGBaseINS1_10pcg_engineINS1_13pcg128_paramsILm2549297995355413924ELm4865540595714422341ELm6364136223846793005ELm1442695040888963407EEENS1_17pcg_xsl_rr_128_64EEENS1_17RandenPoolSeedSeqEEEEENSt9enable_ifIXntsr3std7is_sameIT_vEE5valueESC_E4typeEOT0_SC_SC_ = comdat any

$_ZN4absl7UniformIvNS_19IntervalOpenOpenTagERNS_15random_internal17NonsecureURBGBaseINS2_10pcg_engineINS2_13pcg128_paramsILm2549297995355413924ELm4865540595714422341ELm6364136223846793005ELm1442695040888963407EEENS2_17pcg_xsl_rr_128_64EEENS2_17RandenPoolSeedSeqEEEidEENSt9enable_ifIXsr3std7is_sameIT_vEE5valueENSC_IXsr4absl11disjunctionINS2_23is_widening_convertibleIT2_T3_EENSE_ISG_SF_EEEE5valueENSt11conditionalIXsr23is_widening_convertibleISF_SG_EE5valueESG_SF_E4typeEE4typeEE4typeET0_OT1_SF_SG_ = comdat any

$_ZN4absl7UniformIaRNS_15random_internal17NonsecureURBGBaseINS1_10pcg_engineINS1_13pcg128_paramsILm2549297995355413924ELm4865540595714422341ELm6364136223846793005ELm1442695040888963407EEENS1_17pcg_xsl_rr_128_64EEENS1_17RandenPoolSeedSeqEEEEENSt9enable_ifIXntsr3std7is_sameIT_vEE5valueESC_E4typeEOT0_SC_SC_ = comdat any

$_ZN4absl7UniformIsRNS_15random_internal17NonsecureURBGBaseINS1_10pcg_engineINS1_13pcg128_paramsILm2549297995355413924ELm4865540595714422341ELm6364136223846793005ELm1442695040888963407EEENS1_17pcg_xsl_rr_128_64EEENS1_17RandenPoolSeedSeqEEEEENSt9enable_ifIXntsr3std7is_sameIT_vEE5valueESC_E4typeEOT0_SC_SC_ = comdat any

$_ZN4absl7UniformItRNS_15random_internal17NonsecureURBGBaseINS1_10pcg_engineINS1_13pcg128_paramsILm2549297995355413924ELm4865540595714422341ELm6364136223846793005ELm1442695040888963407EEENS1_17pcg_xsl_rr_128_64EEENS1_17RandenPoolSeedSeqEEEEENSt9enable_ifIXntsr3std7is_sameIT_vEE5valueESC_E4typeEOT0_SC_SC_ = comdat any

$_ZN4absl7UniformIjRNS_15random_internal17NonsecureURBGBaseINS1_10pcg_engineINS1_13pcg128_paramsILm2549297995355413924ELm4865540595714422341ELm6364136223846793005ELm1442695040888963407EEENS1_17pcg_xsl_rr_128_64EEENS1_17RandenPoolSeedSeqEEEEENSt9enable_ifIXntsr3std7is_sameIT_vEE5valueESC_E4typeEOT0_SC_SC_ = comdat any

$_ZN4absl7UniformIlRNS_15random_internal17NonsecureURBGBaseINS1_10pcg_engineINS1_13pcg128_paramsILm2549297995355413924ELm4865540595714422341ELm6364136223846793005ELm1442695040888963407EEENS1_17pcg_xsl_rr_128_64EEENS1_17RandenPoolSeedSeqEEEEENSt9enable_ifIXntsr3std7is_sameIT_vEE5valueESC_E4typeEOT0_SC_SC_ = comdat any

$_ZN4absl7UniformIfRNS_15random_internal17NonsecureURBGBaseINS1_10pcg_engineINS1_13pcg128_paramsILm2549297995355413924ELm4865540595714422341ELm6364136223846793005ELm1442695040888963407EEENS1_17pcg_xsl_rr_128_64EEENS1_17RandenPoolSeedSeqEEEEENSt9enable_ifIXntsr3std7is_sameIT_vEE5valueESC_E4typeEOT0_SC_SC_ = comdat any

$_ZN4absl7UniformIdNS_23IntervalClosedClosedTagERNS_15random_internal17NonsecureURBGBaseINS2_10pcg_engineINS2_13pcg128_paramsILm2549297995355413924ELm4865540595714422341ELm6364136223846793005ELm1442695040888963407EEENS2_17pcg_xsl_rr_128_64EEENS2_17RandenPoolSeedSeqEEEEENSt9enable_ifIXntsr3std7is_sameIT_vEE5valueESD_E4typeET0_OT1_SD_SD_ = comdat any

$_ZN4absl7UniformIdNS_21IntervalClosedOpenTagERNS_15random_internal17NonsecureURBGBaseINS2_10pcg_engineINS2_13pcg128_paramsILm2549297995355413924ELm4865540595714422341ELm6364136223846793005ELm1442695040888963407EEENS2_17pcg_xsl_rr_128_64EEENS2_17RandenPoolSeedSeqEEEEENSt9enable_ifIXntsr3std7is_sameIT_vEE5valueESD_E4typeET0_OT1_SD_SD_ = comdat any

$_ZN4absl7UniformIdNS_21IntervalOpenClosedTagERNS_15random_internal17NonsecureURBGBaseINS2_10pcg_engineINS2_13pcg128_paramsILm2549297995355413924ELm4865540595714422341ELm6364136223846793005ELm1442695040888963407EEENS2_17pcg_xsl_rr_128_64EEENS2_17RandenPoolSeedSeqEEEEENSt9enable_ifIXntsr3std7is_sameIT_vEE5valueESD_E4typeET0_OT1_SD_SD_ = comdat any

$_ZN4absl7UniformIiNS_21IntervalClosedOpenTagERNS_15random_internal17NonsecureURBGBaseINS2_10pcg_engineINS2_13pcg128_paramsILm2549297995355413924ELm4865540595714422341ELm6364136223846793005ELm1442695040888963407EEENS2_17pcg_xsl_rr_128_64EEENS2_17RandenPoolSeedSeqEEEEENSt9enable_ifIXntsr3std7is_sameIT_vEE5valueESD_E4typeET0_OT1_SD_SD_ = comdat any

$_ZN4absl7UniformIiNS_19IntervalOpenOpenTagERNS_15random_internal17NonsecureURBGBaseINS2_10pcg_engineINS2_13pcg128_paramsILm2549297995355413924ELm4865540595714422341ELm6364136223846793005ELm1442695040888963407EEENS2_17pcg_xsl_rr_128_64EEENS2_17RandenPoolSeedSeqEEEEENSt9enable_ifIXntsr3std7is_sameIT_vEE5valueESD_E4typeET0_OT1_SD_SD_ = comdat any

$_ZN4absl7UniformIiNS_21IntervalOpenClosedTagERNS_15random_internal17NonsecureURBGBaseINS2_10pcg_engineINS2_13pcg128_paramsILm2549297995355413924ELm4865540595714422341ELm6364136223846793005ELm1442695040888963407EEENS2_17pcg_xsl_rr_128_64EEENS2_17RandenPoolSeedSeqEEEEENSt9enable_ifIXntsr3std7is_sameIT_vEE5valueESD_E4typeET0_OT1_SD_SD_ = comdat any

$_ZN4absl7UniformIiNS_15random_internal17NonsecureURBGBaseINS1_10pcg_engineINS1_13pcg128_paramsILm2549297995355413924ELm4865540595714422341ELm6364136223846793005ELm1442695040888963407EEENS1_17pcg_xsl_rr_128_64EEENS1_17RandenPoolSeedSeqEEEEENSt9enable_ifIXntsr3std7is_sameIT_vEE5valueESB_E4typeEOT0_SB_SB_ = comdat any

$_ZN4absl7UniformIdNS_15random_internal17NonsecureURBGBaseINS1_10pcg_engineINS1_13pcg128_paramsILm2549297995355413924ELm4865540595714422341ELm6364136223846793005ELm1442695040888963407EEENS1_17pcg_xsl_rr_128_64EEENS1_17RandenPoolSeedSeqEEEEENSt9enable_ifIXntsr3std7is_sameIT_vEE5valueESB_E4typeEOT0_SB_SB_ = comdat any

$_ZN4absl15random_internal18DistributionCallerINS0_17NonsecureURBGBaseINS0_10pcg_engineINS0_13pcg128_paramsILm2549297995355413924ELm4865540595714422341ELm6364136223846793005ELm1442695040888963407EEENS0_17pcg_xsl_rr_128_64EEENS0_17RandenPoolSeedSeqEEEE4CallINS0_26UniformDistributionWrapperIiEEJRiSE_EEENT_11result_typeEPS9_DpOT0_ = comdat any

$_ZN4absl15random_internal18DistributionCallerINS0_17NonsecureURBGBaseINS0_10pcg_engineINS0_13pcg128_paramsILm2549297995355413924ELm4865540595714422341ELm6364136223846793005ELm1442695040888963407EEENS0_17pcg_xsl_rr_128_64EEENS0_17RandenPoolSeedSeqEEEE4ImplINS0_26UniformDistributionWrapperIiEEJRiSE_EEENT_11result_typeESt17integral_constantIbLb0EEPS9_DpOT0_ = comdat any

$_ZN4absl24uniform_int_distributionIiEclINS_15random_internal17NonsecureURBGBaseINS3_10pcg_engineINS3_13pcg128_paramsILm2549297995355413924ELm4865540595714422341ELm6364136223846793005ELm1442695040888963407EEENS3_17pcg_xsl_rr_128_64EEENS3_17RandenPoolSeedSeqEEEEEiRT_ = comdat any

$_ZN4absl24uniform_int_distributionIiEclINS_15random_internal17NonsecureURBGBaseINS3_10pcg_engineINS3_13pcg128_paramsILm2549297995355413924ELm4865540595714422341ELm6364136223846793005ELm1442695040888963407EEENS3_17pcg_xsl_rr_128_64EEENS3_17RandenPoolSeedSeqEEEEEiRT_RKNS1_10param_typeE = comdat any

$_ZN4absl24uniform_int_distributionIiE8GenerateINS_15random_internal17NonsecureURBGBaseINS3_10pcg_engineINS3_13pcg128_paramsILm2549297995355413924ELm4865540595714422341ELm6364136223846793005ELm1442695040888963407EEENS3_17pcg_xsl_rr_128_64EEENS3_17RandenPoolSeedSeqEEEEEjRT_j = comdat any

$_ZN4absl15random_internal15FastUniformBitsIjEclINS0_17NonsecureURBGBaseINS0_10pcg_engineINS0_13pcg128_paramsILm2549297995355413924ELm4865540595714422341ELm6364136223846793005ELm1442695040888963407EEENS0_17pcg_xsl_rr_128_64EEENS0_17RandenPoolSeedSeqEEEEEjRT_ = comdat any

$_ZN4absl15random_internal15FastUniformBitsIjE8GenerateINS0_17NonsecureURBGBaseINS0_10pcg_engineINS0_13pcg128_paramsILm2549297995355413924ELm4865540595714422341ELm6364136223846793005ELm1442695040888963407EEENS0_17pcg_xsl_rr_128_64EEENS0_17RandenPoolSeedSeqEEEEEjRT_NS0_17SimplifiedLoopTagE = comdat any

$_ZN4absl15random_internal17NonsecureURBGBaseINS0_10pcg_engineINS0_13pcg128_paramsILm2549297995355413924ELm4865540595714422341ELm6364136223846793005ELm1442695040888963407EEENS0_17pcg_xsl_rr_128_64EEENS0_17RandenPoolSeedSeqEEclEv = comdat any

$_ZN4absl15random_internal10pcg_engineINS0_13pcg128_paramsILm2549297995355413924ELm4865540595714422341ELm6364136223846793005ELm1442695040888963407EEENS0_17pcg_xsl_rr_128_64EEclEv = comdat any

$_ZN4absl15random_internal17pcg_xsl_rr_128_64clENS_7uint128E = comdat any

$_ZN4absl7uint128eOES0_ = comdat any

$_ZN4absl4rotrImEENSt9enable_ifIXsr3std11is_unsignedIT_EE5valueES2_E4typeES2_i = comdat any

$_ZN4absleoENS_7uint128ES0_ = comdat any

$_ZN4absl15random_internal18DistributionCallerINS0_17NonsecureURBGBaseINS0_10pcg_engineINS0_13pcg128_paramsILm2549297995355413924ELm4865540595714422341ELm6364136223846793005ELm1442695040888963407EEENS0_17pcg_xsl_rr_128_64EEENS0_17RandenPoolSeedSeqEEEE4CallINS0_26UniformDistributionWrapperIdEEJddEEENT_11result_typeEPS9_DpOT0_ = comdat any

$_ZN4absl15random_internal18DistributionCallerINS0_17NonsecureURBGBaseINS0_10pcg_engineINS0_13pcg128_paramsILm2549297995355413924ELm4865540595714422341ELm6364136223846793005ELm1442695040888963407EEENS0_17pcg_xsl_rr_128_64EEENS0_17RandenPoolSeedSeqEEEE4ImplINS0_26UniformDistributionWrapperIdEEJddEEENT_11result_typeESt17integral_constantIbLb0EEPS9_DpOT0_ = comdat any

$_ZN4absl25uniform_real_distributionIdEclINS_15random_internal17NonsecureURBGBaseINS3_10pcg_engineINS3_13pcg128_paramsILm2549297995355413924ELm4865540595714422341ELm6364136223846793005ELm1442695040888963407EEENS3_17pcg_xsl_rr_128_64EEENS3_17RandenPoolSeedSeqEEEEEdRT_ = comdat any

$_ZN4absl25uniform_real_distributionIdEclINS_15random_internal17NonsecureURBGBaseINS3_10pcg_engineINS3_13pcg128_paramsILm2549297995355413924ELm4865540595714422341ELm6364136223846793005ELm1442695040888963407EEENS3_17pcg_xsl_rr_128_64EEENS3_17RandenPoolSeedSeqEEEEEdRT_RKNS1_10param_typeE = comdat any

$_ZN4absl15random_internal15FastUniformBitsImEclINS0_17NonsecureURBGBaseINS0_10pcg_engineINS0_13pcg128_paramsILm2549297995355413924ELm4865540595714422341ELm6364136223846793005ELm1442695040888963407EEENS0_17pcg_xsl_rr_128_64EEENS0_17RandenPoolSeedSeqEEEEEmRT_ = comdat any

$_ZN4absl15random_internal15FastUniformBitsImE8GenerateINS0_17NonsecureURBGBaseINS0_10pcg_engineINS0_13pcg128_paramsILm2549297995355413924ELm4865540595714422341ELm6364136223846793005ELm1442695040888963407EEENS0_17pcg_xsl_rr_128_64EEENS0_17RandenPoolSeedSeqEEEEEmRT_NS0_17SimplifiedLoopTagE = comdat any

$_ZN4absl15random_internal18DistributionCallerINS0_17NonsecureURBGBaseINS0_10pcg_engineINS0_13pcg128_paramsILm2549297995355413924ELm4865540595714422341ELm6364136223846793005ELm1442695040888963407EEENS0_17pcg_xsl_rr_128_64EEENS0_17RandenPoolSeedSeqEEEE4CallINS0_26UniformDistributionWrapperIdEEJRdSE_EEENT_11result_typeEPS9_DpOT0_ = comdat any

$_ZN4absl15random_internal18DistributionCallerINS0_17NonsecureURBGBaseINS0_10pcg_engineINS0_13pcg128_paramsILm2549297995355413924ELm4865540595714422341ELm6364136223846793005ELm1442695040888963407EEENS0_17pcg_xsl_rr_128_64EEENS0_17RandenPoolSeedSeqEEEE4ImplINS0_26UniformDistributionWrapperIdEEJRdSE_EEENT_11result_typeESt17integral_constantIbLb0EEPS9_DpOT0_ = comdat any

$_ZN4absl15random_internal18DistributionCallerINS0_17NonsecureURBGBaseINS0_10pcg_engineINS0_13pcg128_paramsILm2549297995355413924ELm4865540595714422341ELm6364136223846793005ELm1442695040888963407EEENS0_17pcg_xsl_rr_128_64EEENS0_17RandenPoolSeedSeqEEEE4CallINS0_26UniformDistributionWrapperIlEEJllEEENT_11result_typeEPS9_DpOT0_ = comdat any

$_ZN4absl15random_internal18DistributionCallerINS0_17NonsecureURBGBaseINS0_10pcg_engineINS0_13pcg128_paramsILm2549297995355413924ELm4865540595714422341ELm6364136223846793005ELm1442695040888963407EEENS0_17pcg_xsl_rr_128_64EEENS0_17RandenPoolSeedSeqEEEE4ImplINS0_26UniformDistributionWrapperIlEEJllEEENT_11result_typeESt17integral_constantIbLb0EEPS9_DpOT0_ = comdat any

$_ZN4absl24uniform_int_distributionIlEclINS_15random_internal17NonsecureURBGBaseINS3_10pcg_engineINS3_13pcg128_paramsILm2549297995355413924ELm4865540595714422341ELm6364136223846793005ELm1442695040888963407EEENS3_17pcg_xsl_rr_128_64EEENS3_17RandenPoolSeedSeqEEEEElRT_ = comdat any

$_ZN4absl24uniform_int_distributionIlEclINS_15random_internal17NonsecureURBGBaseINS3_10pcg_engineINS3_13pcg128_paramsILm2549297995355413924ELm4865540595714422341ELm6364136223846793005ELm1442695040888963407EEENS3_17pcg_xsl_rr_128_64EEENS3_17RandenPoolSeedSeqEEEEElRT_RKNS1_10param_typeE = comdat any

$_ZN4absl24uniform_int_distributionIlE8GenerateINS_15random_internal17NonsecureURBGBaseINS3_10pcg_engineINS3_13pcg128_paramsILm2549297995355413924ELm4865540595714422341ELm6364136223846793005ELm1442695040888963407EEENS3_17pcg_xsl_rr_128_64EEENS3_17RandenPoolSeedSeqEEEEEmRT_m = comdat any

$_ZN4absl15random_internal18DistributionCallerINS0_17NonsecureURBGBaseINS0_10pcg_engineINS0_13pcg128_paramsILm2549297995355413924ELm4865540595714422341ELm6364136223846793005ELm1442695040888963407EEENS0_17pcg_xsl_rr_128_64EEENS0_17RandenPoolSeedSeqEEEE4CallINS0_26UniformDistributionWrapperIiEEJRNS_23IntervalClosedClosedTagERiSG_EEENT_11result_typeEPS9_DpOT0_ = comdat any

$_ZN4absl15random_internal18DistributionCallerINS0_17NonsecureURBGBaseINS0_10pcg_engineINS0_13pcg128_paramsILm2549297995355413924ELm4865540595714422341ELm6364136223846793005ELm1442695040888963407EEENS0_17pcg_xsl_rr_128_64EEENS0_17RandenPoolSeedSeqEEEE4ImplINS0_26UniformDistributionWrapperIiEEJRNS_23IntervalClosedClosedTagERiSG_EEENT_11result_typeESt17integral_constantIbLb0EEPS9_DpOT0_ = comdat any

$_ZN4absl15random_internal18DistributionCallerINS0_17NonsecureURBGBaseINS0_10pcg_engineINS0_13pcg128_paramsILm2549297995355413924ELm4865540595714422341ELm6364136223846793005ELm1442695040888963407EEENS0_17pcg_xsl_rr_128_64EEENS0_17RandenPoolSeedSeqEEEE4CallINS0_26UniformDistributionWrapperIdEEJRNS_19IntervalOpenOpenTagERdSG_EEENT_11result_typeEPS9_DpOT0_ = comdat any

$_ZN4absl15random_internal18DistributionCallerINS0_17NonsecureURBGBaseINS0_10pcg_engineINS0_13pcg128_paramsILm2549297995355413924ELm4865540595714422341ELm6364136223846793005ELm1442695040888963407EEENS0_17pcg_xsl_rr_128_64EEENS0_17RandenPoolSeedSeqEEEE4ImplINS0_26UniformDistributionWrapperIdEEJRNS_19IntervalOpenOpenTagERdSG_EEENT_11result_typeESt17integral_constantIbLb0EEPS9_DpOT0_ = comdat any

$_ZN4absl15random_internal18DistributionCallerINS0_17NonsecureURBGBaseINS0_10pcg_engineINS0_13pcg128_paramsILm2549297995355413924ELm4865540595714422341ELm6364136223846793005ELm1442695040888963407EEENS0_17pcg_xsl_rr_128_64EEENS0_17RandenPoolSeedSeqEEEE4CallINS0_26UniformDistributionWrapperImEEJmmEEENT_11result_typeEPS9_DpOT0_ = comdat any

$_ZN4absl15random_internal18DistributionCallerINS0_17NonsecureURBGBaseINS0_10pcg_engineINS0_13pcg128_paramsILm2549297995355413924ELm4865540595714422341ELm6364136223846793005ELm1442695040888963407EEENS0_17pcg_xsl_rr_128_64EEENS0_17RandenPoolSeedSeqEEEE4ImplINS0_26UniformDistributionWrapperImEEJmmEEENT_11result_typeESt17integral_constantIbLb0EEPS9_DpOT0_ = comdat any

$_ZN4absl24uniform_int_distributionImEclINS_15random_internal17NonsecureURBGBaseINS3_10pcg_engineINS3_13pcg128_paramsILm2549297995355413924ELm4865540595714422341ELm6364136223846793005ELm1442695040888963407EEENS3_17pcg_xsl_rr_128_64EEENS3_17RandenPoolSeedSeqEEEEEmRT_ = comdat any

$_ZN4absl24uniform_int_distributionImEclINS_15random_internal17NonsecureURBGBaseINS3_10pcg_engineINS3_13pcg128_paramsILm2549297995355413924ELm4865540595714422341ELm6364136223846793005ELm1442695040888963407EEENS3_17pcg_xsl_rr_128_64EEENS3_17RandenPoolSeedSeqEEEEEmRT_RKNS1_10param_typeE = comdat any

$_ZN4absl24uniform_int_distributionImE8GenerateINS_15random_internal17NonsecureURBGBaseINS3_10pcg_engineINS3_13pcg128_paramsILm2549297995355413924ELm4865540595714422341ELm6364136223846793005ELm1442695040888963407EEENS3_17pcg_xsl_rr_128_64EEENS3_17RandenPoolSeedSeqEEEEEmRT_m = comdat any

$_ZN4absl15random_internal18DistributionCallerINS0_17NonsecureURBGBaseINS0_10pcg_engineINS0_13pcg128_paramsILm2549297995355413924ELm4865540595714422341ELm6364136223846793005ELm1442695040888963407EEENS0_17pcg_xsl_rr_128_64EEENS0_17RandenPoolSeedSeqEEEE4CallINS0_26UniformDistributionWrapperImEEJRmSE_EEENT_11result_typeEPS9_DpOT0_ = comdat any

$_ZN4absl15random_internal18DistributionCallerINS0_17NonsecureURBGBaseINS0_10pcg_engineINS0_13pcg128_paramsILm2549297995355413924ELm4865540595714422341ELm6364136223846793005ELm1442695040888963407EEENS0_17pcg_xsl_rr_128_64EEENS0_17RandenPoolSeedSeqEEEE4ImplINS0_26UniformDistributionWrapperImEEJRmSE_EEENT_11result_typeESt17integral_constantIbLb0EEPS9_DpOT0_ = comdat any

$_ZN4absl15random_internal18DistributionCallerINS0_17NonsecureURBGBaseINS0_10pcg_engineINS0_13pcg128_paramsILm2549297995355413924ELm4865540595714422341ELm6364136223846793005ELm1442695040888963407EEENS0_17pcg_xsl_rr_128_64EEENS0_17RandenPoolSeedSeqEEEE4CallINS0_26UniformDistributionWrapperIdEEJRNS_19IntervalOpenOpenTagEddEEENT_11result_typeEPS9_DpOT0_ = comdat any

$_ZN4absl15random_internal18DistributionCallerINS0_17NonsecureURBGBaseINS0_10pcg_engineINS0_13pcg128_paramsILm2549297995355413924ELm4865540595714422341ELm6364136223846793005ELm1442695040888963407EEENS0_17pcg_xsl_rr_128_64EEENS0_17RandenPoolSeedSeqEEEE4ImplINS0_26UniformDistributionWrapperIdEEJRNS_19IntervalOpenOpenTagEddEEENT_11result_typeESt17integral_constantIbLb0EEPS9_DpOT0_ = comdat any

$_ZN4absl15random_internal18DistributionCallerINS0_17NonsecureURBGBaseINS0_10pcg_engineINS0_13pcg128_paramsILm2549297995355413924ELm4865540595714422341ELm6364136223846793005ELm1442695040888963407EEENS0_17pcg_xsl_rr_128_64EEENS0_17RandenPoolSeedSeqEEEE4CallINS0_26UniformDistributionWrapperIaEEJRaSE_EEENT_11result_typeEPS9_DpOT0_ = comdat any

$_ZN4absl15random_internal18DistributionCallerINS0_17NonsecureURBGBaseINS0_10pcg_engineINS0_13pcg128_paramsILm2549297995355413924ELm4865540595714422341ELm6364136223846793005ELm1442695040888963407EEENS0_17pcg_xsl_rr_128_64EEENS0_17RandenPoolSeedSeqEEEE4ImplINS0_26UniformDistributionWrapperIaEEJRaSE_EEENT_11result_typeESt17integral_constantIbLb0EEPS9_DpOT0_ = comdat any

$_ZN4absl24uniform_int_distributionIaEclINS_15random_internal17NonsecureURBGBaseINS3_10pcg_engineINS3_13pcg128_paramsILm2549297995355413924ELm4865540595714422341ELm6364136223846793005ELm1442695040888963407EEENS3_17pcg_xsl_rr_128_64EEENS3_17RandenPoolSeedSeqEEEEEaRT_ = comdat any

$_ZN4absl24uniform_int_distributionIaEclINS_15random_internal17NonsecureURBGBaseINS3_10pcg_engineINS3_13pcg128_paramsILm2549297995355413924ELm4865540595714422341ELm6364136223846793005ELm1442695040888963407EEENS3_17pcg_xsl_rr_128_64EEENS3_17RandenPoolSeedSeqEEEEEaRT_RKNS1_10param_typeE = comdat any

$_ZN4absl24uniform_int_distributionIaE8GenerateINS_15random_internal17NonsecureURBGBaseINS3_10pcg_engineINS3_13pcg128_paramsILm2549297995355413924ELm4865540595714422341ELm6364136223846793005ELm1442695040888963407EEENS3_17pcg_xsl_rr_128_64EEENS3_17RandenPoolSeedSeqEEEEEhRT_h = comdat any

$_ZN4absl15random_internal15FastUniformBitsIhEclINS0_17NonsecureURBGBaseINS0_10pcg_engineINS0_13pcg128_paramsILm2549297995355413924ELm4865540595714422341ELm6364136223846793005ELm1442695040888963407EEENS0_17pcg_xsl_rr_128_64EEENS0_17RandenPoolSeedSeqEEEEEhRT_ = comdat any

$_ZN4absl15random_internal15FastUniformBitsIhE8GenerateINS0_17NonsecureURBGBaseINS0_10pcg_engineINS0_13pcg128_paramsILm2549297995355413924ELm4865540595714422341ELm6364136223846793005ELm1442695040888963407EEENS0_17pcg_xsl_rr_128_64EEENS0_17RandenPoolSeedSeqEEEEEhRT_NS0_17SimplifiedLoopTagE = comdat any

$_ZN4absl15random_internal18DistributionCallerINS0_17NonsecureURBGBaseINS0_10pcg_engineINS0_13pcg128_paramsILm2549297995355413924ELm4865540595714422341ELm6364136223846793005ELm1442695040888963407EEENS0_17pcg_xsl_rr_128_64EEENS0_17RandenPoolSeedSeqEEEE4CallINS0_26UniformDistributionWrapperIsEEJRsSE_EEENT_11result_typeEPS9_DpOT0_ = comdat any

$_ZN4absl15random_internal18DistributionCallerINS0_17NonsecureURBGBaseINS0_10pcg_engineINS0_13pcg128_paramsILm2549297995355413924ELm4865540595714422341ELm6364136223846793005ELm1442695040888963407EEENS0_17pcg_xsl_rr_128_64EEENS0_17RandenPoolSeedSeqEEEE4ImplINS0_26UniformDistributionWrapperIsEEJRsSE_EEENT_11result_typeESt17integral_constantIbLb0EEPS9_DpOT0_ = comdat any

$_ZN4absl24uniform_int_distributionIsEclINS_15random_internal17NonsecureURBGBaseINS3_10pcg_engineINS3_13pcg128_paramsILm2549297995355413924ELm4865540595714422341ELm6364136223846793005ELm1442695040888963407EEENS3_17pcg_xsl_rr_128_64EEENS3_17RandenPoolSeedSeqEEEEEsRT_ = comdat any

$_ZN4absl24uniform_int_distributionIsEclINS_15random_internal17NonsecureURBGBaseINS3_10pcg_engineINS3_13pcg128_paramsILm2549297995355413924ELm4865540595714422341ELm6364136223846793005ELm1442695040888963407EEENS3_17pcg_xsl_rr_128_64EEENS3_17RandenPoolSeedSeqEEEEEsRT_RKNS1_10param_typeE = comdat any

$_ZN4absl24uniform_int_distributionIsE8GenerateINS_15random_internal17NonsecureURBGBaseINS3_10pcg_engineINS3_13pcg128_paramsILm2549297995355413924ELm4865540595714422341ELm6364136223846793005ELm1442695040888963407EEENS3_17pcg_xsl_rr_128_64EEENS3_17RandenPoolSeedSeqEEEEEtRT_t = comdat any

$_ZN4absl15random_internal15FastUniformBitsItEclINS0_17NonsecureURBGBaseINS0_10pcg_engineINS0_13pcg128_paramsILm2549297995355413924ELm4865540595714422341ELm6364136223846793005ELm1442695040888963407EEENS0_17pcg_xsl_rr_128_64EEENS0_17RandenPoolSeedSeqEEEEEtRT_ = comdat any

$_ZN4absl15random_internal15FastUniformBitsItE8GenerateINS0_17NonsecureURBGBaseINS0_10pcg_engineINS0_13pcg128_paramsILm2549297995355413924ELm4865540595714422341ELm6364136223846793005ELm1442695040888963407EEENS0_17pcg_xsl_rr_128_64EEENS0_17RandenPoolSeedSeqEEEEEtRT_NS0_17SimplifiedLoopTagE = comdat any

$_ZN4absl15random_internal18DistributionCallerINS0_17NonsecureURBGBaseINS0_10pcg_engineINS0_13pcg128_paramsILm2549297995355413924ELm4865540595714422341ELm6364136223846793005ELm1442695040888963407EEENS0_17pcg_xsl_rr_128_64EEENS0_17RandenPoolSeedSeqEEEE4CallINS0_26UniformDistributionWrapperItEEJRtSE_EEENT_11result_typeEPS9_DpOT0_ = comdat any

$_ZN4absl15random_internal18DistributionCallerINS0_17NonsecureURBGBaseINS0_10pcg_engineINS0_13pcg128_paramsILm2549297995355413924ELm4865540595714422341ELm6364136223846793005ELm1442695040888963407EEENS0_17pcg_xsl_rr_128_64EEENS0_17RandenPoolSeedSeqEEEE4ImplINS0_26UniformDistributionWrapperItEEJRtSE_EEENT_11result_typeESt17integral_constantIbLb0EEPS9_DpOT0_ = comdat any

$_ZN4absl24uniform_int_distributionItEclINS_15random_internal17NonsecureURBGBaseINS3_10pcg_engineINS3_13pcg128_paramsILm2549297995355413924ELm4865540595714422341ELm6364136223846793005ELm1442695040888963407EEENS3_17pcg_xsl_rr_128_64EEENS3_17RandenPoolSeedSeqEEEEEtRT_ = comdat any

$_ZN4absl24uniform_int_distributionItEclINS_15random_internal17NonsecureURBGBaseINS3_10pcg_engineINS3_13pcg128_paramsILm2549297995355413924ELm4865540595714422341ELm6364136223846793005ELm1442695040888963407EEENS3_17pcg_xsl_rr_128_64EEENS3_17RandenPoolSeedSeqEEEEEtRT_RKNS1_10param_typeE = comdat any

$_ZN4absl24uniform_int_distributionItE8GenerateINS_15random_internal17NonsecureURBGBaseINS3_10pcg_engineINS3_13pcg128_paramsILm2549297995355413924ELm4865540595714422341ELm6364136223846793005ELm1442695040888963407EEENS3_17pcg_xsl_rr_128_64EEENS3_17RandenPoolSeedSeqEEEEEtRT_t = comdat any

$_ZN4absl15random_internal18DistributionCallerINS0_17NonsecureURBGBaseINS0_10pcg_engineINS0_13pcg128_paramsILm2549297995355413924ELm4865540595714422341ELm6364136223846793005ELm1442695040888963407EEENS0_17pcg_xsl_rr_128_64EEENS0_17RandenPoolSeedSeqEEEE4CallINS0_26UniformDistributionWrapperIjEEJRjSE_EEENT_11result_typeEPS9_DpOT0_ = comdat any

$_ZN4absl15random_internal18DistributionCallerINS0_17NonsecureURBGBaseINS0_10pcg_engineINS0_13pcg128_paramsILm2549297995355413924ELm4865540595714422341ELm6364136223846793005ELm1442695040888963407EEENS0_17pcg_xsl_rr_128_64EEENS0_17RandenPoolSeedSeqEEEE4ImplINS0_26UniformDistributionWrapperIjEEJRjSE_EEENT_11result_typeESt17integral_constantIbLb0EEPS9_DpOT0_ = comdat any

$_ZN4absl24uniform_int_distributionIjEclINS_15random_internal17NonsecureURBGBaseINS3_10pcg_engineINS3_13pcg128_paramsILm2549297995355413924ELm4865540595714422341ELm6364136223846793005ELm1442695040888963407EEENS3_17pcg_xsl_rr_128_64EEENS3_17RandenPoolSeedSeqEEEEEjRT_ = comdat any

$_ZN4absl24uniform_int_distributionIjEclINS_15random_internal17NonsecureURBGBaseINS3_10pcg_engineINS3_13pcg128_paramsILm2549297995355413924ELm4865540595714422341ELm6364136223846793005ELm1442695040888963407EEENS3_17pcg_xsl_rr_128_64EEENS3_17RandenPoolSeedSeqEEEEEjRT_RKNS1_10param_typeE = comdat any

$_ZN4absl24uniform_int_distributionIjE8GenerateINS_15random_internal17NonsecureURBGBaseINS3_10pcg_engineINS3_13pcg128_paramsILm2549297995355413924ELm4865540595714422341ELm6364136223846793005ELm1442695040888963407EEENS3_17pcg_xsl_rr_128_64EEENS3_17RandenPoolSeedSeqEEEEEjRT_j = comdat any

$_ZN4absl15random_internal18DistributionCallerINS0_17NonsecureURBGBaseINS0_10pcg_engineINS0_13pcg128_paramsILm2549297995355413924ELm4865540595714422341ELm6364136223846793005ELm1442695040888963407EEENS0_17pcg_xsl_rr_128_64EEENS0_17RandenPoolSeedSeqEEEE4CallINS0_26UniformDistributionWrapperIlEEJRlSE_EEENT_11result_typeEPS9_DpOT0_ = comdat any

$_ZN4absl15random_internal18DistributionCallerINS0_17NonsecureURBGBaseINS0_10pcg_engineINS0_13pcg128_paramsILm2549297995355413924ELm4865540595714422341ELm6364136223846793005ELm1442695040888963407EEENS0_17pcg_xsl_rr_128_64EEENS0_17RandenPoolSeedSeqEEEE4ImplINS0_26UniformDistributionWrapperIlEEJRlSE_EEENT_11result_typeESt17integral_constantIbLb0EEPS9_DpOT0_ = comdat any

$_ZN4absl15random_internal18DistributionCallerINS0_17NonsecureURBGBaseINS0_10pcg_engineINS0_13pcg128_paramsILm2549297995355413924ELm4865540595714422341ELm6364136223846793005ELm1442695040888963407EEENS0_17pcg_xsl_rr_128_64EEENS0_17RandenPoolSeedSeqEEEE4CallINS0_26UniformDistributionWrapperIfEEJRfSE_EEENT_11result_typeEPS9_DpOT0_ = comdat any

$_ZN4absl15random_internal18DistributionCallerINS0_17NonsecureURBGBaseINS0_10pcg_engineINS0_13pcg128_paramsILm2549297995355413924ELm4865540595714422341ELm6364136223846793005ELm1442695040888963407EEENS0_17pcg_xsl_rr_128_64EEENS0_17RandenPoolSeedSeqEEEE4ImplINS0_26UniformDistributionWrapperIfEEJRfSE_EEENT_11result_typeESt17integral_constantIbLb0EEPS9_DpOT0_ = comdat any

$_ZN4absl25uniform_real_distributionIfEclINS_15random_internal17NonsecureURBGBaseINS3_10pcg_engineINS3_13pcg128_paramsILm2549297995355413924ELm4865540595714422341ELm6364136223846793005ELm1442695040888963407EEENS3_17pcg_xsl_rr_128_64EEENS3_17RandenPoolSeedSeqEEEEEfRT_ = comdat any

$_ZN4absl25uniform_real_distributionIfEclINS_15random_internal17NonsecureURBGBaseINS3_10pcg_engineINS3_13pcg128_paramsILm2549297995355413924ELm4865540595714422341ELm6364136223846793005ELm1442695040888963407EEENS3_17pcg_xsl_rr_128_64EEENS3_17RandenPoolSeedSeqEEEEEfRT_RKNS1_10param_typeE = comdat any

$_ZN4absl15random_internal18DistributionCallerINS0_17NonsecureURBGBaseINS0_10pcg_engineINS0_13pcg128_paramsILm2549297995355413924ELm4865540595714422341ELm6364136223846793005ELm1442695040888963407EEENS0_17pcg_xsl_rr_128_64EEENS0_17RandenPoolSeedSeqEEEE4CallINS0_26UniformDistributionWrapperIdEEJRNS_23IntervalClosedClosedTagERdSG_EEENT_11result_typeEPS9_DpOT0_ = comdat any

$_ZN4absl15random_internal18DistributionCallerINS0_17NonsecureURBGBaseINS0_10pcg_engineINS0_13pcg128_paramsILm2549297995355413924ELm4865540595714422341ELm6364136223846793005ELm1442695040888963407EEENS0_17pcg_xsl_rr_128_64EEENS0_17RandenPoolSeedSeqEEEE4ImplINS0_26UniformDistributionWrapperIdEEJRNS_23IntervalClosedClosedTagERdSG_EEENT_11result_typeESt17integral_constantIbLb0EEPS9_DpOT0_ = comdat any

$_ZN4absl15random_internal18DistributionCallerINS0_17NonsecureURBGBaseINS0_10pcg_engineINS0_13pcg128_paramsILm2549297995355413924ELm4865540595714422341ELm6364136223846793005ELm1442695040888963407EEENS0_17pcg_xsl_rr_128_64EEENS0_17RandenPoolSeedSeqEEEE4CallINS0_26UniformDistributionWrapperIdEEJRNS_21IntervalClosedOpenTagERdSG_EEENT_11result_typeEPS9_DpOT0_ = comdat any

$_ZN4absl15random_internal18DistributionCallerINS0_17NonsecureURBGBaseINS0_10pcg_engineINS0_13pcg128_paramsILm2549297995355413924ELm4865540595714422341ELm6364136223846793005ELm1442695040888963407EEENS0_17pcg_xsl_rr_128_64EEENS0_17RandenPoolSeedSeqEEEE4ImplINS0_26UniformDistributionWrapperIdEEJRNS_21IntervalClosedOpenTagERdSG_EEENT_11result_typeESt17integral_constantIbLb0EEPS9_DpOT0_ = comdat any

$_ZN4absl15random_internal18DistributionCallerINS0_17NonsecureURBGBaseINS0_10pcg_engineINS0_13pcg128_paramsILm2549297995355413924ELm4865540595714422341ELm6364136223846793005ELm1442695040888963407EEENS0_17pcg_xsl_rr_128_64EEENS0_17RandenPoolSeedSeqEEEE4CallINS0_26UniformDistributionWrapperIdEEJRNS_21IntervalOpenClosedTagERdSG_EEENT_11result_typeEPS9_DpOT0_ = comdat any

$_ZN4absl15random_internal18DistributionCallerINS0_17NonsecureURBGBaseINS0_10pcg_engineINS0_13pcg128_paramsILm2549297995355413924ELm4865540595714422341ELm6364136223846793005ELm1442695040888963407EEENS0_17pcg_xsl_rr_128_64EEENS0_17RandenPoolSeedSeqEEEE4ImplINS0_26UniformDistributionWrapperIdEEJRNS_21IntervalOpenClosedTagERdSG_EEENT_11result_typeESt17integral_constantIbLb0EEPS9_DpOT0_ = comdat any

$_ZN4absl15random_internal18DistributionCallerINS0_17NonsecureURBGBaseINS0_10pcg_engineINS0_13pcg128_paramsILm2549297995355413924ELm4865540595714422341ELm6364136223846793005ELm1442695040888963407EEENS0_17pcg_xsl_rr_128_64EEENS0_17RandenPoolSeedSeqEEEE4CallINS0_26UniformDistributionWrapperIiEEJRNS_21IntervalClosedOpenTagERiSG_EEENT_11result_typeEPS9_DpOT0_ = comdat any

$_ZN4absl15random_internal18DistributionCallerINS0_17NonsecureURBGBaseINS0_10pcg_engineINS0_13pcg128_paramsILm2549297995355413924ELm4865540595714422341ELm6364136223846793005ELm1442695040888963407EEENS0_17pcg_xsl_rr_128_64EEENS0_17RandenPoolSeedSeqEEEE4ImplINS0_26UniformDistributionWrapperIiEEJRNS_21IntervalClosedOpenTagERiSG_EEENT_11result_typeESt17integral_constantIbLb0EEPS9_DpOT0_ = comdat any

$_ZN4absl15random_internal18DistributionCallerINS0_17NonsecureURBGBaseINS0_10pcg_engineINS0_13pcg128_paramsILm2549297995355413924ELm4865540595714422341ELm6364136223846793005ELm1442695040888963407EEENS0_17pcg_xsl_rr_128_64EEENS0_17RandenPoolSeedSeqEEEE4CallINS0_26UniformDistributionWrapperIiEEJRNS_19IntervalOpenOpenTagERiSG_EEENT_11result_typeEPS9_DpOT0_ = comdat any

$_ZN4absl15random_internal18DistributionCallerINS0_17NonsecureURBGBaseINS0_10pcg_engineINS0_13pcg128_paramsILm2549297995355413924ELm4865540595714422341ELm6364136223846793005ELm1442695040888963407EEENS0_17pcg_xsl_rr_128_64EEENS0_17RandenPoolSeedSeqEEEE4ImplINS0_26UniformDistributionWrapperIiEEJRNS_19IntervalOpenOpenTagERiSG_EEENT_11result_typeESt17integral_constantIbLb0EEPS9_DpOT0_ = comdat any

$_ZN4absl15random_internal18DistributionCallerINS0_17NonsecureURBGBaseINS0_10pcg_engineINS0_13pcg128_paramsILm2549297995355413924ELm4865540595714422341ELm6364136223846793005ELm1442695040888963407EEENS0_17pcg_xsl_rr_128_64EEENS0_17RandenPoolSeedSeqEEEE4CallINS0_26UniformDistributionWrapperIiEEJRNS_21IntervalOpenClosedTagERiSG_EEENT_11result_typeEPS9_DpOT0_ = comdat any

$_ZN4absl15random_internal18DistributionCallerINS0_17NonsecureURBGBaseINS0_10pcg_engineINS0_13pcg128_paramsILm2549297995355413924ELm4865540595714422341ELm6364136223846793005ELm1442695040888963407EEENS0_17pcg_xsl_rr_128_64EEENS0_17RandenPoolSeedSeqEEEE4ImplINS0_26UniformDistributionWrapperIiEEJRNS_21IntervalOpenClosedTagERiSG_EEENT_11result_typeESt17integral_constantIbLb0EEPS9_DpOT0_ = comdat any

$_ZN4absl11ExponentialIfRNS_15random_internal17NonsecureURBGBaseINS1_10pcg_engineINS1_13pcg128_paramsILm2549297995355413924ELm4865540595714422341ELm6364136223846793005ELm1442695040888963407EEENS1_17pcg_xsl_rr_128_64EEENS1_17RandenPoolSeedSeqEEEEET_OT0_SB_ = comdat any

$_ZN4absl11ExponentialIdRNS_15random_internal17NonsecureURBGBaseINS1_10pcg_engineINS1_13pcg128_paramsILm2549297995355413924ELm4865540595714422341ELm6364136223846793005ELm1442695040888963407EEENS1_17pcg_xsl_rr_128_64EEENS1_17RandenPoolSeedSeqEEEEET_OT0_SB_ = comdat any

$_ZN4absl11ExponentialIdNS_15random_internal17NonsecureURBGBaseINS1_10pcg_engineINS1_13pcg128_paramsILm2549297995355413924ELm4865540595714422341ELm6364136223846793005ELm1442695040888963407EEENS1_17pcg_xsl_rr_128_64EEENS1_17RandenPoolSeedSeqEEEEET_OT0_SA_ = comdat any

$_ZN4absl15random_internal18DistributionCallerINS0_17NonsecureURBGBaseINS0_10pcg_engineINS0_13pcg128_paramsILm2549297995355413924ELm4865540595714422341ELm6364136223846793005ELm1442695040888963407EEENS0_17pcg_xsl_rr_128_64EEENS0_17RandenPoolSeedSeqEEEE4CallINS_24exponential_distributionIfEEJRfEEENT_11result_typeEPS9_DpOT0_ = comdat any

$_ZN4absl15random_internal18DistributionCallerINS0_17NonsecureURBGBaseINS0_10pcg_engineINS0_13pcg128_paramsILm2549297995355413924ELm4865540595714422341ELm6364136223846793005ELm1442695040888963407EEENS0_17pcg_xsl_rr_128_64EEENS0_17RandenPoolSeedSeqEEEE4ImplINS_24exponential_distributionIfEEJRfEEENT_11result_typeESt17integral_constantIbLb0EEPS9_DpOT0_ = comdat any

$_ZN4absl24exponential_distributionIfEclINS_15random_internal17NonsecureURBGBaseINS3_10pcg_engineINS3_13pcg128_paramsILm2549297995355413924ELm4865540595714422341ELm6364136223846793005ELm1442695040888963407EEENS3_17pcg_xsl_rr_128_64EEENS3_17RandenPoolSeedSeqEEEEEfRT_ = comdat any

$_ZN4absl24exponential_distributionIfEclINS_15random_internal17NonsecureURBGBaseINS3_10pcg_engineINS3_13pcg128_paramsILm2549297995355413924ELm4865540595714422341ELm6364136223846793005ELm1442695040888963407EEENS3_17pcg_xsl_rr_128_64EEENS3_17RandenPoolSeedSeqEEEEEfRT_RKNS1_10param_typeE = comdat any

$_ZN4absl15random_internal18DistributionCallerINS0_17NonsecureURBGBaseINS0_10pcg_engineINS0_13pcg128_paramsILm2549297995355413924ELm4865540595714422341ELm6364136223846793005ELm1442695040888963407EEENS0_17pcg_xsl_rr_128_64EEENS0_17RandenPoolSeedSeqEEEE4CallINS_24exponential_distributionIdEEJRdEEENT_11result_typeEPS9_DpOT0_ = comdat any

$_ZN4absl15random_internal18DistributionCallerINS0_17NonsecureURBGBaseINS0_10pcg_engineINS0_13pcg128_paramsILm2549297995355413924ELm4865540595714422341ELm6364136223846793005ELm1442695040888963407EEENS0_17pcg_xsl_rr_128_64EEENS0_17RandenPoolSeedSeqEEEE4ImplINS_24exponential_distributionIdEEJRdEEENT_11result_typeESt17integral_constantIbLb0EEPS9_DpOT0_ = comdat any

$_ZN4absl24exponential_distributionIdEclINS_15random_internal17NonsecureURBGBaseINS3_10pcg_engineINS3_13pcg128_paramsILm2549297995355413924ELm4865540595714422341ELm6364136223846793005ELm1442695040888963407EEENS3_17pcg_xsl_rr_128_64EEENS3_17RandenPoolSeedSeqEEEEEdRT_ = comdat any

$_ZN4absl24exponential_distributionIdEclINS_15random_internal17NonsecureURBGBaseINS3_10pcg_engineINS3_13pcg128_paramsILm2549297995355413924ELm4865540595714422341ELm6364136223846793005ELm1442695040888963407EEENS3_17pcg_xsl_rr_128_64EEENS3_17RandenPoolSeedSeqEEEEEdRT_RKNS1_10param_typeE = comdat any

$_ZN4absl7PoissonIiRNS_15random_internal17NonsecureURBGBaseINS1_10pcg_engineINS1_13pcg128_paramsILm2549297995355413924ELm4865540595714422341ELm6364136223846793005ELm1442695040888963407EEENS1_17pcg_xsl_rr_128_64EEENS1_17RandenPoolSeedSeqEEEEET_OT0_d = comdat any

$_ZN4absl7PoissonIsRNS_15random_internal17NonsecureURBGBaseINS1_10pcg_engineINS1_13pcg128_paramsILm2549297995355413924ELm4865540595714422341ELm6364136223846793005ELm1442695040888963407EEENS1_17pcg_xsl_rr_128_64EEENS1_17RandenPoolSeedSeqEEEEET_OT0_d = comdat any

$_ZN4absl7PoissonItRNS_15random_internal17NonsecureURBGBaseINS1_10pcg_engineINS1_13pcg128_paramsILm2549297995355413924ELm4865540595714422341ELm6364136223846793005ELm1442695040888963407EEENS1_17pcg_xsl_rr_128_64EEENS1_17RandenPoolSeedSeqEEEEET_OT0_d = comdat any

$_ZN4absl7PoissonIjRNS_15random_internal17NonsecureURBGBaseINS1_10pcg_engineINS1_13pcg128_paramsILm2549297995355413924ELm4865540595714422341ELm6364136223846793005ELm1442695040888963407EEENS1_17pcg_xsl_rr_128_64EEENS1_17RandenPoolSeedSeqEEEEET_OT0_d = comdat any

$_ZN4absl7PoissonIlRNS_15random_internal17NonsecureURBGBaseINS1_10pcg_engineINS1_13pcg128_paramsILm2549297995355413924ELm4865540595714422341ELm6364136223846793005ELm1442695040888963407EEENS1_17pcg_xsl_rr_128_64EEENS1_17RandenPoolSeedSeqEEEEET_OT0_d = comdat any

$_ZN4absl7PoissonImRNS_15random_internal17NonsecureURBGBaseINS1_10pcg_engineINS1_13pcg128_paramsILm2549297995355413924ELm4865540595714422341ELm6364136223846793005ELm1442695040888963407EEENS1_17pcg_xsl_rr_128_64EEENS1_17RandenPoolSeedSeqEEEEET_OT0_d = comdat any

$_ZN4absl7PoissonImNS_15random_internal17NonsecureURBGBaseINS1_10pcg_engineINS1_13pcg128_paramsILm2549297995355413924ELm4865540595714422341ELm6364136223846793005ELm1442695040888963407EEENS1_17pcg_xsl_rr_128_64EEENS1_17RandenPoolSeedSeqEEEEET_OT0_d = comdat any

$_ZN4absl7PoissonINS_6int128ERNS_15random_internal17NonsecureURBGBaseINS2_10pcg_engineINS2_13pcg128_paramsILm2549297995355413924ELm4865540595714422341ELm6364136223846793005ELm1442695040888963407EEENS2_17pcg_xsl_rr_128_64EEENS2_17RandenPoolSeedSeqEEEEET_OT0_d = comdat any

$_ZN4absl7PoissonINS_7uint128ERNS_15random_internal17NonsecureURBGBaseINS2_10pcg_engineINS2_13pcg128_paramsILm2549297995355413924ELm4865540595714422341ELm6364136223846793005ELm1442695040888963407EEENS2_17pcg_xsl_rr_128_64EEENS2_17RandenPoolSeedSeqEEEEET_OT0_d = comdat any

$_ZN4absl15random_internal18DistributionCallerINS0_17NonsecureURBGBaseINS0_10pcg_engineINS0_13pcg128_paramsILm2549297995355413924ELm4865540595714422341ELm6364136223846793005ELm1442695040888963407EEENS0_17pcg_xsl_rr_128_64EEENS0_17RandenPoolSeedSeqEEEE4CallINS_20poisson_distributionIiEEJRdEEENT_11result_typeEPS9_DpOT0_ = comdat any

$_ZN4absl15random_internal18DistributionCallerINS0_17NonsecureURBGBaseINS0_10pcg_engineINS0_13pcg128_paramsILm2549297995355413924ELm4865540595714422341ELm6364136223846793005ELm1442695040888963407EEENS0_17pcg_xsl_rr_128_64EEENS0_17RandenPoolSeedSeqEEEE4ImplINS_20poisson_distributionIiEEJRdEEENT_11result_typeESt17integral_constantIbLb0EEPS9_DpOT0_ = comdat any

$_ZN4absl20poisson_distributionIiEclINS_15random_internal17NonsecureURBGBaseINS3_10pcg_engineINS3_13pcg128_paramsILm2549297995355413924ELm4865540595714422341ELm6364136223846793005ELm1442695040888963407EEENS3_17pcg_xsl_rr_128_64EEENS3_17RandenPoolSeedSeqEEEEEiRT_ = comdat any

$_ZN4absl20poisson_distributionIiEclINS_15random_internal17NonsecureURBGBaseINS3_10pcg_engineINS3_13pcg128_paramsILm2549297995355413924ELm4865540595714422341ELm6364136223846793005ELm1442695040888963407EEENS3_17pcg_xsl_rr_128_64EEENS3_17RandenPoolSeedSeqEEEEEiRT_RKNS1_10param_typeE = comdat any

$_ZN4absl15random_internal18DistributionCallerINS0_17NonsecureURBGBaseINS0_10pcg_engineINS0_13pcg128_paramsILm2549297995355413924ELm4865540595714422341ELm6364136223846793005ELm1442695040888963407EEENS0_17pcg_xsl_rr_128_64EEENS0_17RandenPoolSeedSeqEEEE4CallINS_20poisson_distributionIsEEJRdEEENT_11result_typeEPS9_DpOT0_ = comdat any

$_ZN4absl15random_internal18DistributionCallerINS0_17NonsecureURBGBaseINS0_10pcg_engineINS0_13pcg128_paramsILm2549297995355413924ELm4865540595714422341ELm6364136223846793005ELm1442695040888963407EEENS0_17pcg_xsl_rr_128_64EEENS0_17RandenPoolSeedSeqEEEE4ImplINS_20poisson_distributionIsEEJRdEEENT_11result_typeESt17integral_constantIbLb0EEPS9_DpOT0_ = comdat any

$_ZN4absl20poisson_distributionIsEclINS_15random_internal17NonsecureURBGBaseINS3_10pcg_engineINS3_13pcg128_paramsILm2549297995355413924ELm4865540595714422341ELm6364136223846793005ELm1442695040888963407EEENS3_17pcg_xsl_rr_128_64EEENS3_17RandenPoolSeedSeqEEEEEsRT_ = comdat any

$_ZN4absl20poisson_distributionIsEclINS_15random_internal17NonsecureURBGBaseINS3_10pcg_engineINS3_13pcg128_paramsILm2549297995355413924ELm4865540595714422341ELm6364136223846793005ELm1442695040888963407EEENS3_17pcg_xsl_rr_128_64EEENS3_17RandenPoolSeedSeqEEEEEsRT_RKNS1_10param_typeE = comdat any

$_ZN4absl15random_internal18DistributionCallerINS0_17NonsecureURBGBaseINS0_10pcg_engineINS0_13pcg128_paramsILm2549297995355413924ELm4865540595714422341ELm6364136223846793005ELm1442695040888963407EEENS0_17pcg_xsl_rr_128_64EEENS0_17RandenPoolSeedSeqEEEE4CallINS_20poisson_distributionItEEJRdEEENT_11result_typeEPS9_DpOT0_ = comdat any

$_ZN4absl15random_internal18DistributionCallerINS0_17NonsecureURBGBaseINS0_10pcg_engineINS0_13pcg128_paramsILm2549297995355413924ELm4865540595714422341ELm6364136223846793005ELm1442695040888963407EEENS0_17pcg_xsl_rr_128_64EEENS0_17RandenPoolSeedSeqEEEE4ImplINS_20poisson_distributionItEEJRdEEENT_11result_typeESt17integral_constantIbLb0EEPS9_DpOT0_ = comdat any

$_ZN4absl20poisson_distributionItEclINS_15random_internal17NonsecureURBGBaseINS3_10pcg_engineINS3_13pcg128_paramsILm2549297995355413924ELm4865540595714422341ELm6364136223846793005ELm1442695040888963407EEENS3_17pcg_xsl_rr_128_64EEENS3_17RandenPoolSeedSeqEEEEEtRT_ = comdat any

$_ZN4absl20poisson_distributionItEclINS_15random_internal17NonsecureURBGBaseINS3_10pcg_engineINS3_13pcg128_paramsILm2549297995355413924ELm4865540595714422341ELm6364136223846793005ELm1442695040888963407EEENS3_17pcg_xsl_rr_128_64EEENS3_17RandenPoolSeedSeqEEEEEtRT_RKNS1_10param_typeE = comdat any

$_ZN4absl15random_internal18DistributionCallerINS0_17NonsecureURBGBaseINS0_10pcg_engineINS0_13pcg128_paramsILm2549297995355413924ELm4865540595714422341ELm6364136223846793005ELm1442695040888963407EEENS0_17pcg_xsl_rr_128_64EEENS0_17RandenPoolSeedSeqEEEE4CallINS_20poisson_distributionIjEEJRdEEENT_11result_typeEPS9_DpOT0_ = comdat any

$_ZN4absl15random_internal18DistributionCallerINS0_17NonsecureURBGBaseINS0_10pcg_engineINS0_13pcg128_paramsILm2549297995355413924ELm4865540595714422341ELm6364136223846793005ELm1442695040888963407EEENS0_17pcg_xsl_rr_128_64EEENS0_17RandenPoolSeedSeqEEEE4ImplINS_20poisson_distributionIjEEJRdEEENT_11result_typeESt17integral_constantIbLb0EEPS9_DpOT0_ = comdat any

$_ZN4absl20poisson_distributionIjEclINS_15random_internal17NonsecureURBGBaseINS3_10pcg_engineINS3_13pcg128_paramsILm2549297995355413924ELm4865540595714422341ELm6364136223846793005ELm1442695040888963407EEENS3_17pcg_xsl_rr_128_64EEENS3_17RandenPoolSeedSeqEEEEEjRT_ = comdat any

$_ZN4absl20poisson_distributionIjEclINS_15random_internal17NonsecureURBGBaseINS3_10pcg_engineINS3_13pcg128_paramsILm2549297995355413924ELm4865540595714422341ELm6364136223846793005ELm1442695040888963407EEENS3_17pcg_xsl_rr_128_64EEENS3_17RandenPoolSeedSeqEEEEEjRT_RKNS1_10param_typeE = comdat any

$_ZN4absl15random_internal18DistributionCallerINS0_17NonsecureURBGBaseINS0_10pcg_engineINS0_13pcg128_paramsILm2549297995355413924ELm4865540595714422341ELm6364136223846793005ELm1442695040888963407EEENS0_17pcg_xsl_rr_128_64EEENS0_17RandenPoolSeedSeqEEEE4CallINS_20poisson_distributionIlEEJRdEEENT_11result_typeEPS9_DpOT0_ = comdat any

$_ZN4absl15random_internal18DistributionCallerINS0_17NonsecureURBGBaseINS0_10pcg_engineINS0_13pcg128_paramsILm2549297995355413924ELm4865540595714422341ELm6364136223846793005ELm1442695040888963407EEENS0_17pcg_xsl_rr_128_64EEENS0_17RandenPoolSeedSeqEEEE4ImplINS_20poisson_distributionIlEEJRdEEENT_11result_typeESt17integral_constantIbLb0EEPS9_DpOT0_ = comdat any

$_ZN4absl20poisson_distributionIlEclINS_15random_internal17NonsecureURBGBaseINS3_10pcg_engineINS3_13pcg128_paramsILm2549297995355413924ELm4865540595714422341ELm6364136223846793005ELm1442695040888963407EEENS3_17pcg_xsl_rr_128_64EEENS3_17RandenPoolSeedSeqEEEEElRT_ = comdat any

$_ZN4absl20poisson_distributionIlEclINS_15random_internal17NonsecureURBGBaseINS3_10pcg_engineINS3_13pcg128_paramsILm2549297995355413924ELm4865540595714422341ELm6364136223846793005ELm1442695040888963407EEENS3_17pcg_xsl_rr_128_64EEENS3_17RandenPoolSeedSeqEEEEElRT_RKNS1_10param_typeE = comdat any

$_ZN4absl15random_internal18DistributionCallerINS0_17NonsecureURBGBaseINS0_10pcg_engineINS0_13pcg128_paramsILm2549297995355413924ELm4865540595714422341ELm6364136223846793005ELm1442695040888963407EEENS0_17pcg_xsl_rr_128_64EEENS0_17RandenPoolSeedSeqEEEE4CallINS_20poisson_distributionImEEJRdEEENT_11result_typeEPS9_DpOT0_ = comdat any

$_ZN4absl15random_internal18DistributionCallerINS0_17NonsecureURBGBaseINS0_10pcg_engineINS0_13pcg128_paramsILm2549297995355413924ELm4865540595714422341ELm6364136223846793005ELm1442695040888963407EEENS0_17pcg_xsl_rr_128_64EEENS0_17RandenPoolSeedSeqEEEE4ImplINS_20poisson_distributionImEEJRdEEENT_11result_typeESt17integral_constantIbLb0EEPS9_DpOT0_ = comdat any

$_ZN4absl20poisson_distributionImEclINS_15random_internal17NonsecureURBGBaseINS3_10pcg_engineINS3_13pcg128_paramsILm2549297995355413924ELm4865540595714422341ELm6364136223846793005ELm1442695040888963407EEENS3_17pcg_xsl_rr_128_64EEENS3_17RandenPoolSeedSeqEEEEEmRT_ = comdat any

$_ZN4absl20poisson_distributionImEclINS_15random_internal17NonsecureURBGBaseINS3_10pcg_engineINS3_13pcg128_paramsILm2549297995355413924ELm4865540595714422341ELm6364136223846793005ELm1442695040888963407EEENS3_17pcg_xsl_rr_128_64EEENS3_17RandenPoolSeedSeqEEEEEmRT_RKNS1_10param_typeE = comdat any

$_ZN4absl15random_internal18DistributionCallerINS0_17NonsecureURBGBaseINS0_10pcg_engineINS0_13pcg128_paramsILm2549297995355413924ELm4865540595714422341ELm6364136223846793005ELm1442695040888963407EEENS0_17pcg_xsl_rr_128_64EEENS0_17RandenPoolSeedSeqEEEE4CallINS_20poisson_distributionINS_6int128EEEJRdEEENT_11result_typeEPS9_DpOT0_ = comdat any

$_ZN4absl15random_internal18DistributionCallerINS0_17NonsecureURBGBaseINS0_10pcg_engineINS0_13pcg128_paramsILm2549297995355413924ELm4865540595714422341ELm6364136223846793005ELm1442695040888963407EEENS0_17pcg_xsl_rr_128_64EEENS0_17RandenPoolSeedSeqEEEE4ImplINS_20poisson_distributionINS_6int128EEEJRdEEENT_11result_typeESt17integral_constantIbLb0EEPS9_DpOT0_ = comdat any

$_ZN4absl20poisson_distributionINS_6int128EEclINS_15random_internal17NonsecureURBGBaseINS4_10pcg_engineINS4_13pcg128_paramsILm2549297995355413924ELm4865540595714422341ELm6364136223846793005ELm1442695040888963407EEENS4_17pcg_xsl_rr_128_64EEENS4_17RandenPoolSeedSeqEEEEES1_RT_ = comdat any

$_ZN4absl20poisson_distributionINS_6int128EEclINS_15random_internal17NonsecureURBGBaseINS4_10pcg_engineINS4_13pcg128_paramsILm2549297995355413924ELm4865540595714422341ELm6364136223846793005ELm1442695040888963407EEENS4_17pcg_xsl_rr_128_64EEENS4_17RandenPoolSeedSeqEEEEES1_RT_RKNS2_10param_typeE = comdat any

$_ZN4absl15random_internal18DistributionCallerINS0_17NonsecureURBGBaseINS0_10pcg_engineINS0_13pcg128_paramsILm2549297995355413924ELm4865540595714422341ELm6364136223846793005ELm1442695040888963407EEENS0_17pcg_xsl_rr_128_64EEENS0_17RandenPoolSeedSeqEEEE4CallINS_20poisson_distributionINS_7uint128EEEJRdEEENT_11result_typeEPS9_DpOT0_ = comdat any

$_ZN4absl15random_internal18DistributionCallerINS0_17NonsecureURBGBaseINS0_10pcg_engineINS0_13pcg128_paramsILm2549297995355413924ELm4865540595714422341ELm6364136223846793005ELm1442695040888963407EEENS0_17pcg_xsl_rr_128_64EEENS0_17RandenPoolSeedSeqEEEE4ImplINS_20poisson_distributionINS_7uint128EEEJRdEEENT_11result_typeESt17integral_constantIbLb0EEPS9_DpOT0_ = comdat any

$_ZN4absl20poisson_distributionINS_7uint128EEclINS_15random_internal17NonsecureURBGBaseINS4_10pcg_engineINS4_13pcg128_paramsILm2549297995355413924ELm4865540595714422341ELm6364136223846793005ELm1442695040888963407EEENS4_17pcg_xsl_rr_128_64EEENS4_17RandenPoolSeedSeqEEEEES1_RT_ = comdat any

$_ZN4absl20poisson_distributionINS_7uint128EEclINS_15random_internal17NonsecureURBGBaseINS4_10pcg_engineINS4_13pcg128_paramsILm2549297995355413924ELm4865540595714422341ELm6364136223846793005ELm1442695040888963407EEENS4_17pcg_xsl_rr_128_64EEENS4_17RandenPoolSeedSeqEEEEES1_RT_RKNS2_10param_typeE = comdat any

$_ZN4absl9BernoulliIRNS_15random_internal17NonsecureURBGBaseINS1_10pcg_engineINS1_13pcg128_paramsILm2549297995355413924ELm4865540595714422341ELm6364136223846793005ELm1442695040888963407EEENS1_17pcg_xsl_rr_128_64EEENS1_17RandenPoolSeedSeqEEEEEbOT_d = comdat any

$_ZN4absl15random_internal18DistributionCallerINS0_17NonsecureURBGBaseINS0_10pcg_engineINS0_13pcg128_paramsILm2549297995355413924ELm4865540595714422341ELm6364136223846793005ELm1442695040888963407EEENS0_17pcg_xsl_rr_128_64EEENS0_17RandenPoolSeedSeqEEEE4CallINS_22bernoulli_distributionEJRdEEENT_11result_typeEPS9_DpOT0_ = comdat any

$_ZN4absl15random_internal18DistributionCallerINS0_17NonsecureURBGBaseINS0_10pcg_engineINS0_13pcg128_paramsILm2549297995355413924ELm4865540595714422341ELm6364136223846793005ELm1442695040888963407EEENS0_17pcg_xsl_rr_128_64EEENS0_17RandenPoolSeedSeqEEEE4ImplINS_22bernoulli_distributionEJRdEEENT_11result_typeESt17integral_constantIbLb0EEPS9_DpOT0_ = comdat any

$_ZN4absl22bernoulli_distributionclINS_15random_internal17NonsecureURBGBaseINS2_10pcg_engineINS2_13pcg128_paramsILm2549297995355413924ELm4865540595714422341ELm6364136223846793005ELm1442695040888963407EEENS2_17pcg_xsl_rr_128_64EEENS2_17RandenPoolSeedSeqEEEEEbRT_ = comdat any

$_ZN4absl22bernoulli_distribution8GenerateINS_15random_internal17NonsecureURBGBaseINS2_10pcg_engineINS2_13pcg128_paramsILm2549297995355413924ELm4865540595714422341ELm6364136223846793005ELm1442695040888963407EEENS2_17pcg_xsl_rr_128_64EEENS2_17RandenPoolSeedSeqEEEEEbdRT_ = comdat any

$_ZN4absl4ZipfIiRNS_15random_internal17NonsecureURBGBaseINS1_10pcg_engineINS1_13pcg128_paramsILm2549297995355413924ELm4865540595714422341ELm6364136223846793005ELm1442695040888963407EEENS1_17pcg_xsl_rr_128_64EEENS1_17RandenPoolSeedSeqEEEEET_OT0_SB_dd = comdat any

$_ZN4absl4ZipfIaRNS_15random_internal17NonsecureURBGBaseINS1_10pcg_engineINS1_13pcg128_paramsILm2549297995355413924ELm4865540595714422341ELm6364136223846793005ELm1442695040888963407EEENS1_17pcg_xsl_rr_128_64EEENS1_17RandenPoolSeedSeqEEEEET_OT0_SB_dd = comdat any

$_ZN4absl4ZipfIsRNS_15random_internal17NonsecureURBGBaseINS1_10pcg_engineINS1_13pcg128_paramsILm2549297995355413924ELm4865540595714422341ELm6364136223846793005ELm1442695040888963407EEENS1_17pcg_xsl_rr_128_64EEENS1_17RandenPoolSeedSeqEEEEET_OT0_SB_dd = comdat any

$_ZN4absl4ZipfItRNS_15random_internal17NonsecureURBGBaseINS1_10pcg_engineINS1_13pcg128_paramsILm2549297995355413924ELm4865540595714422341ELm6364136223846793005ELm1442695040888963407EEENS1_17pcg_xsl_rr_128_64EEENS1_17RandenPoolSeedSeqEEEEET_OT0_SB_dd = comdat any

$_ZN4absl4ZipfIjRNS_15random_internal17NonsecureURBGBaseINS1_10pcg_engineINS1_13pcg128_paramsILm2549297995355413924ELm4865540595714422341ELm6364136223846793005ELm1442695040888963407EEENS1_17pcg_xsl_rr_128_64EEENS1_17RandenPoolSeedSeqEEEEET_OT0_SB_dd = comdat any

$_ZN4absl4ZipfIlRNS_15random_internal17NonsecureURBGBaseINS1_10pcg_engineINS1_13pcg128_paramsILm2549297995355413924ELm4865540595714422341ELm6364136223846793005ELm1442695040888963407EEENS1_17pcg_xsl_rr_128_64EEENS1_17RandenPoolSeedSeqEEEEET_OT0_SB_dd = comdat any

$_ZN4absl4ZipfImRNS_15random_internal17NonsecureURBGBaseINS1_10pcg_engineINS1_13pcg128_paramsILm2549297995355413924ELm4865540595714422341ELm6364136223846793005ELm1442695040888963407EEENS1_17pcg_xsl_rr_128_64EEENS1_17RandenPoolSeedSeqEEEEET_OT0_SB_dd = comdat any

$_ZN4absl4ZipfImNS_15random_internal17NonsecureURBGBaseINS1_10pcg_engineINS1_13pcg128_paramsILm2549297995355413924ELm4865540595714422341ELm6364136223846793005ELm1442695040888963407EEENS1_17pcg_xsl_rr_128_64EEENS1_17RandenPoolSeedSeqEEEEET_OT0_SA_dd = comdat any

$_ZN4absl4ZipfINS_6int128ERNS_15random_internal17NonsecureURBGBaseINS2_10pcg_engineINS2_13pcg128_paramsILm2549297995355413924ELm4865540595714422341ELm6364136223846793005ELm1442695040888963407EEENS2_17pcg_xsl_rr_128_64EEENS2_17RandenPoolSeedSeqEEEEET_OT0_SC_dd = comdat any

$_ZN4absl4ZipfINS_7uint128ERNS_15random_internal17NonsecureURBGBaseINS2_10pcg_engineINS2_13pcg128_paramsILm2549297995355413924ELm4865540595714422341ELm6364136223846793005ELm1442695040888963407EEENS2_17pcg_xsl_rr_128_64EEENS2_17RandenPoolSeedSeqEEEEET_OT0_SC_dd = comdat any

$_ZN4absl15random_internal18DistributionCallerINS0_17NonsecureURBGBaseINS0_10pcg_engineINS0_13pcg128_paramsILm2549297995355413924ELm4865540595714422341ELm6364136223846793005ELm1442695040888963407EEENS0_17pcg_xsl_rr_128_64EEENS0_17RandenPoolSeedSeqEEEE4CallINS_17zipf_distributionIiEEJRiRdSF_EEENT_11result_typeEPS9_DpOT0_ = comdat any

$_ZN4absl15random_internal18DistributionCallerINS0_17NonsecureURBGBaseINS0_10pcg_engineINS0_13pcg128_paramsILm2549297995355413924ELm4865540595714422341ELm6364136223846793005ELm1442695040888963407EEENS0_17pcg_xsl_rr_128_64EEENS0_17RandenPoolSeedSeqEEEE4ImplINS_17zipf_distributionIiEEJRiRdSF_EEENT_11result_typeESt17integral_constantIbLb0EEPS9_DpOT0_ = comdat any

$_ZN4absl17zipf_distributionIiEclINS_15random_internal17NonsecureURBGBaseINS3_10pcg_engineINS3_13pcg128_paramsILm2549297995355413924ELm4865540595714422341ELm6364136223846793005ELm1442695040888963407EEENS3_17pcg_xsl_rr_128_64EEENS3_17RandenPoolSeedSeqEEEEEiRT_ = comdat any

$_ZN4absl17zipf_distributionIiEclINS_15random_internal17NonsecureURBGBaseINS3_10pcg_engineINS3_13pcg128_paramsILm2549297995355413924ELm4865540595714422341ELm6364136223846793005ELm1442695040888963407EEENS3_17pcg_xsl_rr_128_64EEENS3_17RandenPoolSeedSeqEEEEEiRT_RKNS1_10param_typeE = comdat any

$_ZN4absl15random_internal18DistributionCallerINS0_17NonsecureURBGBaseINS0_10pcg_engineINS0_13pcg128_paramsILm2549297995355413924ELm4865540595714422341ELm6364136223846793005ELm1442695040888963407EEENS0_17pcg_xsl_rr_128_64EEENS0_17RandenPoolSeedSeqEEEE4CallINS_17zipf_distributionIaEEJRaRdSF_EEENT_11result_typeEPS9_DpOT0_ = comdat any

$_ZN4absl15random_internal18DistributionCallerINS0_17NonsecureURBGBaseINS0_10pcg_engineINS0_13pcg128_paramsILm2549297995355413924ELm4865540595714422341ELm6364136223846793005ELm1442695040888963407EEENS0_17pcg_xsl_rr_128_64EEENS0_17RandenPoolSeedSeqEEEE4ImplINS_17zipf_distributionIaEEJRaRdSF_EEENT_11result_typeESt17integral_constantIbLb0EEPS9_DpOT0_ = comdat any

$_ZN4absl17zipf_distributionIaEclINS_15random_internal17NonsecureURBGBaseINS3_10pcg_engineINS3_13pcg128_paramsILm2549297995355413924ELm4865540595714422341ELm6364136223846793005ELm1442695040888963407EEENS3_17pcg_xsl_rr_128_64EEENS3_17RandenPoolSeedSeqEEEEEaRT_ = comdat any

$_ZN4absl17zipf_distributionIaEclINS_15random_internal17NonsecureURBGBaseINS3_10pcg_engineINS3_13pcg128_paramsILm2549297995355413924ELm4865540595714422341ELm6364136223846793005ELm1442695040888963407EEENS3_17pcg_xsl_rr_128_64EEENS3_17RandenPoolSeedSeqEEEEEaRT_RKNS1_10param_typeE = comdat any

$_ZN4absl15random_internal18DistributionCallerINS0_17NonsecureURBGBaseINS0_10pcg_engineINS0_13pcg128_paramsILm2549297995355413924ELm4865540595714422341ELm6364136223846793005ELm1442695040888963407EEENS0_17pcg_xsl_rr_128_64EEENS0_17RandenPoolSeedSeqEEEE4CallINS_17zipf_distributionIsEEJRsRdSF_EEENT_11result_typeEPS9_DpOT0_ = comdat any

$_ZN4absl15random_internal18DistributionCallerINS0_17NonsecureURBGBaseINS0_10pcg_engineINS0_13pcg128_paramsILm2549297995355413924ELm4865540595714422341ELm6364136223846793005ELm1442695040888963407EEENS0_17pcg_xsl_rr_128_64EEENS0_17RandenPoolSeedSeqEEEE4ImplINS_17zipf_distributionIsEEJRsRdSF_EEENT_11result_typeESt17integral_constantIbLb0EEPS9_DpOT0_ = comdat any

$_ZN4absl17zipf_distributionIsEclINS_15random_internal17NonsecureURBGBaseINS3_10pcg_engineINS3_13pcg128_paramsILm2549297995355413924ELm4865540595714422341ELm6364136223846793005ELm1442695040888963407EEENS3_17pcg_xsl_rr_128_64EEENS3_17RandenPoolSeedSeqEEEEEsRT_ = comdat any

$_ZN4absl17zipf_distributionIsEclINS_15random_internal17NonsecureURBGBaseINS3_10pcg_engineINS3_13pcg128_paramsILm2549297995355413924ELm4865540595714422341ELm6364136223846793005ELm1442695040888963407EEENS3_17pcg_xsl_rr_128_64EEENS3_17RandenPoolSeedSeqEEEEEsRT_RKNS1_10param_typeE = comdat any

$_ZN4absl15random_internal18DistributionCallerINS0_17NonsecureURBGBaseINS0_10pcg_engineINS0_13pcg128_paramsILm2549297995355413924ELm4865540595714422341ELm6364136223846793005ELm1442695040888963407EEENS0_17pcg_xsl_rr_128_64EEENS0_17RandenPoolSeedSeqEEEE4CallINS_17zipf_distributionItEEJRtRdSF_EEENT_11result_typeEPS9_DpOT0_ = comdat any

$_ZN4absl15random_internal18DistributionCallerINS0_17NonsecureURBGBaseINS0_10pcg_engineINS0_13pcg128_paramsILm2549297995355413924ELm4865540595714422341ELm6364136223846793005ELm1442695040888963407EEENS0_17pcg_xsl_rr_128_64EEENS0_17RandenPoolSeedSeqEEEE4ImplINS_17zipf_distributionItEEJRtRdSF_EEENT_11result_typeESt17integral_constantIbLb0EEPS9_DpOT0_ = comdat any

$_ZN4absl17zipf_distributionItEclINS_15random_internal17NonsecureURBGBaseINS3_10pcg_engineINS3_13pcg128_paramsILm2549297995355413924ELm4865540595714422341ELm6364136223846793005ELm1442695040888963407EEENS3_17pcg_xsl_rr_128_64EEENS3_17RandenPoolSeedSeqEEEEEtRT_ = comdat any

$_ZN4absl17zipf_distributionItEclINS_15random_internal17NonsecureURBGBaseINS3_10pcg_engineINS3_13pcg128_paramsILm2549297995355413924ELm4865540595714422341ELm6364136223846793005ELm1442695040888963407EEENS3_17pcg_xsl_rr_128_64EEENS3_17RandenPoolSeedSeqEEEEEtRT_RKNS1_10param_typeE = comdat any

$_ZN4absl15random_internal18DistributionCallerINS0_17NonsecureURBGBaseINS0_10pcg_engineINS0_13pcg128_paramsILm2549297995355413924ELm4865540595714422341ELm6364136223846793005ELm1442695040888963407EEENS0_17pcg_xsl_rr_128_64EEENS0_17RandenPoolSeedSeqEEEE4CallINS_17zipf_distributionIjEEJRjRdSF_EEENT_11result_typeEPS9_DpOT0_ = comdat any

$_ZN4absl15random_internal18DistributionCallerINS0_17NonsecureURBGBaseINS0_10pcg_engineINS0_13pcg128_paramsILm2549297995355413924ELm4865540595714422341ELm6364136223846793005ELm1442695040888963407EEENS0_17pcg_xsl_rr_128_64EEENS0_17RandenPoolSeedSeqEEEE4ImplINS_17zipf_distributionIjEEJRjRdSF_EEENT_11result_typeESt17integral_constantIbLb0EEPS9_DpOT0_ = comdat any

$_ZN4absl17zipf_distributionIjEclINS_15random_internal17NonsecureURBGBaseINS3_10pcg_engineINS3_13pcg128_paramsILm2549297995355413924ELm4865540595714422341ELm6364136223846793005ELm1442695040888963407EEENS3_17pcg_xsl_rr_128_64EEENS3_17RandenPoolSeedSeqEEEEEjRT_ = comdat any

$_ZN4absl17zipf_distributionIjEclINS_15random_internal17NonsecureURBGBaseINS3_10pcg_engineINS3_13pcg128_paramsILm2549297995355413924ELm4865540595714422341ELm6364136223846793005ELm1442695040888963407EEENS3_17pcg_xsl_rr_128_64EEENS3_17RandenPoolSeedSeqEEEEEjRT_RKNS1_10param_typeE = comdat any

$_ZN4absl15random_internal18DistributionCallerINS0_17NonsecureURBGBaseINS0_10pcg_engineINS0_13pcg128_paramsILm2549297995355413924ELm4865540595714422341ELm6364136223846793005ELm1442695040888963407EEENS0_17pcg_xsl_rr_128_64EEENS0_17RandenPoolSeedSeqEEEE4CallINS_17zipf_distributionIlEEJRlRdSF_EEENT_11result_typeEPS9_DpOT0_ = comdat any

$_ZN4absl15random_internal18DistributionCallerINS0_17NonsecureURBGBaseINS0_10pcg_engineINS0_13pcg128_paramsILm2549297995355413924ELm4865540595714422341ELm6364136223846793005ELm1442695040888963407EEENS0_17pcg_xsl_rr_128_64EEENS0_17RandenPoolSeedSeqEEEE4ImplINS_17zipf_distributionIlEEJRlRdSF_EEENT_11result_typeESt17integral_constantIbLb0EEPS9_DpOT0_ = comdat any

$_ZN4absl17zipf_distributionIlEclINS_15random_internal17NonsecureURBGBaseINS3_10pcg_engineINS3_13pcg128_paramsILm2549297995355413924ELm4865540595714422341ELm6364136223846793005ELm1442695040888963407EEENS3_17pcg_xsl_rr_128_64EEENS3_17RandenPoolSeedSeqEEEEElRT_ = comdat any

$_ZN4absl17zipf_distributionIlEclINS_15random_internal17NonsecureURBGBaseINS3_10pcg_engineINS3_13pcg128_paramsILm2549297995355413924ELm4865540595714422341ELm6364136223846793005ELm1442695040888963407EEENS3_17pcg_xsl_rr_128_64EEENS3_17RandenPoolSeedSeqEEEEElRT_RKNS1_10param_typeE = comdat any

$_ZN4absl15random_internal18DistributionCallerINS0_17NonsecureURBGBaseINS0_10pcg_engineINS0_13pcg128_paramsILm2549297995355413924ELm4865540595714422341ELm6364136223846793005ELm1442695040888963407EEENS0_17pcg_xsl_rr_128_64EEENS0_17RandenPoolSeedSeqEEEE4CallINS_17zipf_distributionImEEJRmRdSF_EEENT_11result_typeEPS9_DpOT0_ = comdat any

$_ZN4absl15random_internal18DistributionCallerINS0_17NonsecureURBGBaseINS0_10pcg_engineINS0_13pcg128_paramsILm2549297995355413924ELm4865540595714422341ELm6364136223846793005ELm1442695040888963407EEENS0_17pcg_xsl_rr_128_64EEENS0_17RandenPoolSeedSeqEEEE4ImplINS_17zipf_distributionImEEJRmRdSF_EEENT_11result_typeESt17integral_constantIbLb0EEPS9_DpOT0_ = comdat any

$_ZN4absl17zipf_distributionImEclINS_15random_internal17NonsecureURBGBaseINS3_10pcg_engineINS3_13pcg128_paramsILm2549297995355413924ELm4865540595714422341ELm6364136223846793005ELm1442695040888963407EEENS3_17pcg_xsl_rr_128_64EEENS3_17RandenPoolSeedSeqEEEEEmRT_ = comdat any

$_ZN4absl17zipf_distributionImEclINS_15random_internal17NonsecureURBGBaseINS3_10pcg_engineINS3_13pcg128_paramsILm2549297995355413924ELm4865540595714422341ELm6364136223846793005ELm1442695040888963407EEENS3_17pcg_xsl_rr_128_64EEENS3_17RandenPoolSeedSeqEEEEEmRT_RKNS1_10param_typeE = comdat any

$_ZN4absl15random_internal18DistributionCallerINS0_17NonsecureURBGBaseINS0_10pcg_engineINS0_13pcg128_paramsILm2549297995355413924ELm4865540595714422341ELm6364136223846793005ELm1442695040888963407EEENS0_17pcg_xsl_rr_128_64EEENS0_17RandenPoolSeedSeqEEEE4CallINS_17zipf_distributionINS_6int128EEEJRSD_RdSG_EEENT_11result_typeEPS9_DpOT0_ = comdat any

$_ZN4absl15random_internal18DistributionCallerINS0_17NonsecureURBGBaseINS0_10pcg_engineINS0_13pcg128_paramsILm2549297995355413924ELm4865540595714422341ELm6364136223846793005ELm1442695040888963407EEENS0_17pcg_xsl_rr_128_64EEENS0_17RandenPoolSeedSeqEEEE4ImplINS_17zipf_distributionINS_6int128EEEJRSD_RdSG_EEENT_11result_typeESt17integral_constantIbLb0EEPS9_DpOT0_ = comdat any

$_ZN4absl17zipf_distributionINS_6int128EEclINS_15random_internal17NonsecureURBGBaseINS4_10pcg_engineINS4_13pcg128_paramsILm2549297995355413924ELm4865540595714422341ELm6364136223846793005ELm1442695040888963407EEENS4_17pcg_xsl_rr_128_64EEENS4_17RandenPoolSeedSeqEEEEES1_RT_ = comdat any

$_ZN4absl17zipf_distributionINS_6int128EEclINS_15random_internal17NonsecureURBGBaseINS4_10pcg_engineINS4_13pcg128_paramsILm2549297995355413924ELm4865540595714422341ELm6364136223846793005ELm1442695040888963407EEENS4_17pcg_xsl_rr_128_64EEENS4_17RandenPoolSeedSeqEEEEES1_RT_RKNS2_10param_typeE = comdat any

$_ZN4absl15random_internal18DistributionCallerINS0_17NonsecureURBGBaseINS0_10pcg_engineINS0_13pcg128_paramsILm2549297995355413924ELm4865540595714422341ELm6364136223846793005ELm1442695040888963407EEENS0_17pcg_xsl_rr_128_64EEENS0_17RandenPoolSeedSeqEEEE4CallINS_17zipf_distributionINS_7uint128EEEJRSD_RdSG_EEENT_11result_typeEPS9_DpOT0_ = comdat any

$_ZN4absl15random_internal18DistributionCallerINS0_17NonsecureURBGBaseINS0_10pcg_engineINS0_13pcg128_paramsILm2549297995355413924ELm4865540595714422341ELm6364136223846793005ELm1442695040888963407EEENS0_17pcg_xsl_rr_128_64EEENS0_17RandenPoolSeedSeqEEEE4ImplINS_17zipf_distributionINS_7uint128EEEJRSD_RdSG_EEENT_11result_typeESt17integral_constantIbLb0EEPS9_DpOT0_ = comdat any

$_ZN4absl17zipf_distributionINS_7uint128EEclINS_15random_internal17NonsecureURBGBaseINS4_10pcg_engineINS4_13pcg128_paramsILm2549297995355413924ELm4865540595714422341ELm6364136223846793005ELm1442695040888963407EEENS4_17pcg_xsl_rr_128_64EEENS4_17RandenPoolSeedSeqEEEEES1_RT_ = comdat any

$_ZN4absl17zipf_distributionINS_7uint128EEclINS_15random_internal17NonsecureURBGBaseINS4_10pcg_engineINS4_13pcg128_paramsILm2549297995355413924ELm4865540595714422341ELm6364136223846793005ELm1442695040888963407EEENS4_17pcg_xsl_rr_128_64EEENS4_17RandenPoolSeedSeqEEEEES1_RT_RKNS2_10param_typeE = comdat any

$_ZN4absl8GaussianIfRNS_15random_internal17NonsecureURBGBaseINS1_10pcg_engineINS1_13pcg128_paramsILm2549297995355413924ELm4865540595714422341ELm6364136223846793005ELm1442695040888963407EEENS1_17pcg_xsl_rr_128_64EEENS1_17RandenPoolSeedSeqEEEEET_OT0_SB_SB_ = comdat any

$_ZN4absl8GaussianIdRNS_15random_internal17NonsecureURBGBaseINS1_10pcg_engineINS1_13pcg128_paramsILm2549297995355413924ELm4865540595714422341ELm6364136223846793005ELm1442695040888963407EEENS1_17pcg_xsl_rr_128_64EEENS1_17RandenPoolSeedSeqEEEEET_OT0_SB_SB_ = comdat any

$_ZN4absl8GaussianIdNS_15random_internal17NonsecureURBGBaseINS1_10pcg_engineINS1_13pcg128_paramsILm2549297995355413924ELm4865540595714422341ELm6364136223846793005ELm1442695040888963407EEENS1_17pcg_xsl_rr_128_64EEENS1_17RandenPoolSeedSeqEEEEET_OT0_SA_SA_ = comdat any

$_ZN4absl15random_internal18DistributionCallerINS0_17NonsecureURBGBaseINS0_10pcg_engineINS0_13pcg128_paramsILm2549297995355413924ELm4865540595714422341ELm6364136223846793005ELm1442695040888963407EEENS0_17pcg_xsl_rr_128_64EEENS0_17RandenPoolSeedSeqEEEE4CallINS_21gaussian_distributionIfEEJRfSE_EEENT_11result_typeEPS9_DpOT0_ = comdat any

$_ZN4absl15random_internal18DistributionCallerINS0_17NonsecureURBGBaseINS0_10pcg_engineINS0_13pcg128_paramsILm2549297995355413924ELm4865540595714422341ELm6364136223846793005ELm1442695040888963407EEENS0_17pcg_xsl_rr_128_64EEENS0_17RandenPoolSeedSeqEEEE4ImplINS_21gaussian_distributionIfEEJRfSE_EEENT_11result_typeESt17integral_constantIbLb0EEPS9_DpOT0_ = comdat any

$_ZN4absl21gaussian_distributionIfEclINS_15random_internal17NonsecureURBGBaseINS3_10pcg_engineINS3_13pcg128_paramsILm2549297995355413924ELm4865540595714422341ELm6364136223846793005ELm1442695040888963407EEENS3_17pcg_xsl_rr_128_64EEENS3_17RandenPoolSeedSeqEEEEEfRT_ = comdat any

$_ZN4absl21gaussian_distributionIfEclINS_15random_internal17NonsecureURBGBaseINS3_10pcg_engineINS3_13pcg128_paramsILm2549297995355413924ELm4865540595714422341ELm6364136223846793005ELm1442695040888963407EEENS3_17pcg_xsl_rr_128_64EEENS3_17RandenPoolSeedSeqEEEEEfRT_RKNS1_10param_typeE = comdat any

$_ZN4absl15random_internal26gaussian_distribution_base6zignorINS0_17NonsecureURBGBaseINS0_10pcg_engineINS0_13pcg128_paramsILm2549297995355413924ELm4865540595714422341ELm6364136223846793005ELm1442695040888963407EEENS0_17pcg_xsl_rr_128_64EEENS0_17RandenPoolSeedSeqEEEEEdRT_ = comdat any

$_ZN4absl15random_internal26gaussian_distribution_base15zignor_fallbackINS0_17NonsecureURBGBaseINS0_10pcg_engineINS0_13pcg128_paramsILm2549297995355413924ELm4865540595714422341ELm6364136223846793005ELm1442695040888963407EEENS0_17pcg_xsl_rr_128_64EEENS0_17RandenPoolSeedSeqEEEEEdRT_b = comdat any

$_ZN4absl15random_internal18DistributionCallerINS0_17NonsecureURBGBaseINS0_10pcg_engineINS0_13pcg128_paramsILm2549297995355413924ELm4865540595714422341ELm6364136223846793005ELm1442695040888963407EEENS0_17pcg_xsl_rr_128_64EEENS0_17RandenPoolSeedSeqEEEE4CallINS_21gaussian_distributionIdEEJRdSE_EEENT_11result_typeEPS9_DpOT0_ = comdat any

$_ZN4absl15random_internal18DistributionCallerINS0_17NonsecureURBGBaseINS0_10pcg_engineINS0_13pcg128_paramsILm2549297995355413924ELm4865540595714422341ELm6364136223846793005ELm1442695040888963407EEENS0_17pcg_xsl_rr_128_64EEENS0_17RandenPoolSeedSeqEEEE4ImplINS_21gaussian_distributionIdEEJRdSE_EEENT_11result_typeESt17integral_constantIbLb0EEPS9_DpOT0_ = comdat any

$_ZN4absl21gaussian_distributionIdEclINS_15random_internal17NonsecureURBGBaseINS3_10pcg_engineINS3_13pcg128_paramsILm2549297995355413924ELm4865540595714422341ELm6364136223846793005ELm1442695040888963407EEENS3_17pcg_xsl_rr_128_64EEENS3_17RandenPoolSeedSeqEEEEEdRT_ = comdat any

$_ZN4absl21gaussian_distributionIdEclINS_15random_internal17NonsecureURBGBaseINS3_10pcg_engineINS3_13pcg128_paramsILm2549297995355413924ELm4865540595714422341ELm6364136223846793005ELm1442695040888963407EEENS3_17pcg_xsl_rr_128_64EEENS3_17RandenPoolSeedSeqEEEEEdRT_RKNS1_10param_typeE = comdat any

$_ZN4absl10LogUniformIiRNS_15random_internal17NonsecureURBGBaseINS1_10pcg_engineINS1_13pcg128_paramsILm2549297995355413924ELm4865540595714422341ELm6364136223846793005ELm1442695040888963407EEENS1_17pcg_xsl_rr_128_64EEENS1_17RandenPoolSeedSeqEEEEET_OT0_SB_SB_SB_ = comdat any

$_ZN4absl10LogUniformIaRNS_15random_internal17NonsecureURBGBaseINS1_10pcg_engineINS1_13pcg128_paramsILm2549297995355413924ELm4865540595714422341ELm6364136223846793005ELm1442695040888963407EEENS1_17pcg_xsl_rr_128_64EEENS1_17RandenPoolSeedSeqEEEEET_OT0_SB_SB_SB_ = comdat any

$_ZN4absl10LogUniformIsRNS_15random_internal17NonsecureURBGBaseINS1_10pcg_engineINS1_13pcg128_paramsILm2549297995355413924ELm4865540595714422341ELm6364136223846793005ELm1442695040888963407EEENS1_17pcg_xsl_rr_128_64EEENS1_17RandenPoolSeedSeqEEEEET_OT0_SB_SB_SB_ = comdat any

$_ZN4absl10LogUniformItRNS_15random_internal17NonsecureURBGBaseINS1_10pcg_engineINS1_13pcg128_paramsILm2549297995355413924ELm4865540595714422341ELm6364136223846793005ELm1442695040888963407EEENS1_17pcg_xsl_rr_128_64EEENS1_17RandenPoolSeedSeqEEEEET_OT0_SB_SB_SB_ = comdat any

$_ZN4absl10LogUniformIjRNS_15random_internal17NonsecureURBGBaseINS1_10pcg_engineINS1_13pcg128_paramsILm2549297995355413924ELm4865540595714422341ELm6364136223846793005ELm1442695040888963407EEENS1_17pcg_xsl_rr_128_64EEENS1_17RandenPoolSeedSeqEEEEET_OT0_SB_SB_SB_ = comdat any

$_ZN4absl10LogUniformIlRNS_15random_internal17NonsecureURBGBaseINS1_10pcg_engineINS1_13pcg128_paramsILm2549297995355413924ELm4865540595714422341ELm6364136223846793005ELm1442695040888963407EEENS1_17pcg_xsl_rr_128_64EEENS1_17RandenPoolSeedSeqEEEEET_OT0_SB_SB_SB_ = comdat any

$_ZN4absl10LogUniformImRNS_15random_internal17NonsecureURBGBaseINS1_10pcg_engineINS1_13pcg128_paramsILm2549297995355413924ELm4865540595714422341ELm6364136223846793005ELm1442695040888963407EEENS1_17pcg_xsl_rr_128_64EEENS1_17RandenPoolSeedSeqEEEEET_OT0_SB_SB_SB_ = comdat any

$_ZN4absl10LogUniformImNS_15random_internal17NonsecureURBGBaseINS1_10pcg_engineINS1_13pcg128_paramsILm2549297995355413924ELm4865540595714422341ELm6364136223846793005ELm1442695040888963407EEENS1_17pcg_xsl_rr_128_64EEENS1_17RandenPoolSeedSeqEEEEET_OT0_SA_SA_SA_ = comdat any

$_ZN4absl10LogUniformINS_6int128ERNS_15random_internal17NonsecureURBGBaseINS2_10pcg_engineINS2_13pcg128_paramsILm2549297995355413924ELm4865540595714422341ELm6364136223846793005ELm1442695040888963407EEENS2_17pcg_xsl_rr_128_64EEENS2_17RandenPoolSeedSeqEEEEET_OT0_SC_SC_SC_ = comdat any

$_ZN4absl10LogUniformINS_7uint128ERNS_15random_internal17NonsecureURBGBaseINS2_10pcg_engineINS2_13pcg128_paramsILm2549297995355413924ELm4865540595714422341ELm6364136223846793005ELm1442695040888963407EEENS2_17pcg_xsl_rr_128_64EEENS2_17RandenPoolSeedSeqEEEEET_OT0_SC_SC_SC_ = comdat any

$_ZN4absl15random_internal18DistributionCallerINS0_17NonsecureURBGBaseINS0_10pcg_engineINS0_13pcg128_paramsILm2549297995355413924ELm4865540595714422341ELm6364136223846793005ELm1442695040888963407EEENS0_17pcg_xsl_rr_128_64EEENS0_17RandenPoolSeedSeqEEEE4CallINS_28log_uniform_int_distributionIiEEJRiSE_SE_EEENT_11result_typeEPS9_DpOT0_ = comdat any

$_ZN4absl15random_internal18DistributionCallerINS0_17NonsecureURBGBaseINS0_10pcg_engineINS0_13pcg128_paramsILm2549297995355413924ELm4865540595714422341ELm6364136223846793005ELm1442695040888963407EEENS0_17pcg_xsl_rr_128_64EEENS0_17RandenPoolSeedSeqEEEE4ImplINS_28log_uniform_int_distributionIiEEJRiSE_SE_EEENT_11result_typeESt17integral_constantIbLb0EEPS9_DpOT0_ = comdat any

$_ZN4absl28log_uniform_int_distributionIiEclINS_15random_internal17NonsecureURBGBaseINS3_10pcg_engineINS3_13pcg128_paramsILm2549297995355413924ELm4865540595714422341ELm6364136223846793005ELm1442695040888963407EEENS3_17pcg_xsl_rr_128_64EEENS3_17RandenPoolSeedSeqEEEEEiRT_ = comdat any

$_ZN4absl28log_uniform_int_distributionIiEclINS_15random_internal17NonsecureURBGBaseINS3_10pcg_engineINS3_13pcg128_paramsILm2549297995355413924ELm4865540595714422341ELm6364136223846793005ELm1442695040888963407EEENS3_17pcg_xsl_rr_128_64EEENS3_17RandenPoolSeedSeqEEEEEiRT_RKNS1_10param_typeE = comdat any

$_ZN4absl28log_uniform_int_distributionIiE8GenerateINS_15random_internal17NonsecureURBGBaseINS3_10pcg_engineINS3_13pcg128_paramsILm2549297995355413924ELm4865540595714422341ELm6364136223846793005ELm1442695040888963407EEENS3_17pcg_xsl_rr_128_64EEENS3_17RandenPoolSeedSeqEEEEEjRT_RKNS1_10param_typeE = comdat any

$_ZN4absl15random_internal18DistributionCallerINS0_17NonsecureURBGBaseINS0_10pcg_engineINS0_13pcg128_paramsILm2549297995355413924ELm4865540595714422341ELm6364136223846793005ELm1442695040888963407EEENS0_17pcg_xsl_rr_128_64EEENS0_17RandenPoolSeedSeqEEEE4CallINS_28log_uniform_int_distributionIaEEJRaSE_SE_EEENT_11result_typeEPS9_DpOT0_ = comdat any

$_ZN4absl15random_internal18DistributionCallerINS0_17NonsecureURBGBaseINS0_10pcg_engineINS0_13pcg128_paramsILm2549297995355413924ELm4865540595714422341ELm6364136223846793005ELm1442695040888963407EEENS0_17pcg_xsl_rr_128_64EEENS0_17RandenPoolSeedSeqEEEE4ImplINS_28log_uniform_int_distributionIaEEJRaSE_SE_EEENT_11result_typeESt17integral_constantIbLb0EEPS9_DpOT0_ = comdat any

$_ZN4absl28log_uniform_int_distributionIaEclINS_15random_internal17NonsecureURBGBaseINS3_10pcg_engineINS3_13pcg128_paramsILm2549297995355413924ELm4865540595714422341ELm6364136223846793005ELm1442695040888963407EEENS3_17pcg_xsl_rr_128_64EEENS3_17RandenPoolSeedSeqEEEEEaRT_ = comdat any

$_ZN4absl28log_uniform_int_distributionIaEclINS_15random_internal17NonsecureURBGBaseINS3_10pcg_engineINS3_13pcg128_paramsILm2549297995355413924ELm4865540595714422341ELm6364136223846793005ELm1442695040888963407EEENS3_17pcg_xsl_rr_128_64EEENS3_17RandenPoolSeedSeqEEEEEaRT_RKNS1_10param_typeE = comdat any

$_ZN4absl28log_uniform_int_distributionIaE8GenerateINS_15random_internal17NonsecureURBGBaseINS3_10pcg_engineINS3_13pcg128_paramsILm2549297995355413924ELm4865540595714422341ELm6364136223846793005ELm1442695040888963407EEENS3_17pcg_xsl_rr_128_64EEENS3_17RandenPoolSeedSeqEEEEEhRT_RKNS1_10param_typeE = comdat any

$_ZN4absl15random_internal18DistributionCallerINS0_17NonsecureURBGBaseINS0_10pcg_engineINS0_13pcg128_paramsILm2549297995355413924ELm4865540595714422341ELm6364136223846793005ELm1442695040888963407EEENS0_17pcg_xsl_rr_128_64EEENS0_17RandenPoolSeedSeqEEEE4CallINS_28log_uniform_int_distributionIsEEJRsSE_SE_EEENT_11result_typeEPS9_DpOT0_ = comdat any

$_ZN4absl15random_internal18DistributionCallerINS0_17NonsecureURBGBaseINS0_10pcg_engineINS0_13pcg128_paramsILm2549297995355413924ELm4865540595714422341ELm6364136223846793005ELm1442695040888963407EEENS0_17pcg_xsl_rr_128_64EEENS0_17RandenPoolSeedSeqEEEE4ImplINS_28log_uniform_int_distributionIsEEJRsSE_SE_EEENT_11result_typeESt17integral_constantIbLb0EEPS9_DpOT0_ = comdat any

$_ZN4absl28log_uniform_int_distributionIsEclINS_15random_internal17NonsecureURBGBaseINS3_10pcg_engineINS3_13pcg128_paramsILm2549297995355413924ELm4865540595714422341ELm6364136223846793005ELm1442695040888963407EEENS3_17pcg_xsl_rr_128_64EEENS3_17RandenPoolSeedSeqEEEEEsRT_ = comdat any

$_ZN4absl28log_uniform_int_distributionIsEclINS_15random_internal17NonsecureURBGBaseINS3_10pcg_engineINS3_13pcg128_paramsILm2549297995355413924ELm4865540595714422341ELm6364136223846793005ELm1442695040888963407EEENS3_17pcg_xsl_rr_128_64EEENS3_17RandenPoolSeedSeqEEEEEsRT_RKNS1_10param_typeE = comdat any

$_ZN4absl28log_uniform_int_distributionIsE8GenerateINS_15random_internal17NonsecureURBGBaseINS3_10pcg_engineINS3_13pcg128_paramsILm2549297995355413924ELm4865540595714422341ELm6364136223846793005ELm1442695040888963407EEENS3_17pcg_xsl_rr_128_64EEENS3_17RandenPoolSeedSeqEEEEEtRT_RKNS1_10param_typeE = comdat any

$_ZN4absl15random_internal18DistributionCallerINS0_17NonsecureURBGBaseINS0_10pcg_engineINS0_13pcg128_paramsILm2549297995355413924ELm4865540595714422341ELm6364136223846793005ELm1442695040888963407EEENS0_17pcg_xsl_rr_128_64EEENS0_17RandenPoolSeedSeqEEEE4CallINS_28log_uniform_int_distributionItEEJRtSE_SE_EEENT_11result_typeEPS9_DpOT0_ = comdat any

$_ZN4absl15random_internal18DistributionCallerINS0_17NonsecureURBGBaseINS0_10pcg_engineINS0_13pcg128_paramsILm2549297995355413924ELm4865540595714422341ELm6364136223846793005ELm1442695040888963407EEENS0_17pcg_xsl_rr_128_64EEENS0_17RandenPoolSeedSeqEEEE4ImplINS_28log_uniform_int_distributionItEEJRtSE_SE_EEENT_11result_typeESt17integral_constantIbLb0EEPS9_DpOT0_ = comdat any

$_ZN4absl28log_uniform_int_distributionItEclINS_15random_internal17NonsecureURBGBaseINS3_10pcg_engineINS3_13pcg128_paramsILm2549297995355413924ELm4865540595714422341ELm6364136223846793005ELm1442695040888963407EEENS3_17pcg_xsl_rr_128_64EEENS3_17RandenPoolSeedSeqEEEEEtRT_ = comdat any

$_ZN4absl28log_uniform_int_distributionItEclINS_15random_internal17NonsecureURBGBaseINS3_10pcg_engineINS3_13pcg128_paramsILm2549297995355413924ELm4865540595714422341ELm6364136223846793005ELm1442695040888963407EEENS3_17pcg_xsl_rr_128_64EEENS3_17RandenPoolSeedSeqEEEEEtRT_RKNS1_10param_typeE = comdat any

$_ZN4absl28log_uniform_int_distributionItE8GenerateINS_15random_internal17NonsecureURBGBaseINS3_10pcg_engineINS3_13pcg128_paramsILm2549297995355413924ELm4865540595714422341ELm6364136223846793005ELm1442695040888963407EEENS3_17pcg_xsl_rr_128_64EEENS3_17RandenPoolSeedSeqEEEEEtRT_RKNS1_10param_typeE = comdat any

$_ZN4absl15random_internal18DistributionCallerINS0_17NonsecureURBGBaseINS0_10pcg_engineINS0_13pcg128_paramsILm2549297995355413924ELm4865540595714422341ELm6364136223846793005ELm1442695040888963407EEENS0_17pcg_xsl_rr_128_64EEENS0_17RandenPoolSeedSeqEEEE4CallINS_28log_uniform_int_distributionIjEEJRjSE_SE_EEENT_11result_typeEPS9_DpOT0_ = comdat any

$_ZN4absl15random_internal18DistributionCallerINS0_17NonsecureURBGBaseINS0_10pcg_engineINS0_13pcg128_paramsILm2549297995355413924ELm4865540595714422341ELm6364136223846793005ELm1442695040888963407EEENS0_17pcg_xsl_rr_128_64EEENS0_17RandenPoolSeedSeqEEEE4ImplINS_28log_uniform_int_distributionIjEEJRjSE_SE_EEENT_11result_typeESt17integral_constantIbLb0EEPS9_DpOT0_ = comdat any

$_ZN4absl28log_uniform_int_distributionIjEclINS_15random_internal17NonsecureURBGBaseINS3_10pcg_engineINS3_13pcg128_paramsILm2549297995355413924ELm4865540595714422341ELm6364136223846793005ELm1442695040888963407EEENS3_17pcg_xsl_rr_128_64EEENS3_17RandenPoolSeedSeqEEEEEjRT_ = comdat any

$_ZN4absl28log_uniform_int_distributionIjEclINS_15random_internal17NonsecureURBGBaseINS3_10pcg_engineINS3_13pcg128_paramsILm2549297995355413924ELm4865540595714422341ELm6364136223846793005ELm1442695040888963407EEENS3_17pcg_xsl_rr_128_64EEENS3_17RandenPoolSeedSeqEEEEEjRT_RKNS1_10param_typeE = comdat any

$_ZN4absl28log_uniform_int_distributionIjE8GenerateINS_15random_internal17NonsecureURBGBaseINS3_10pcg_engineINS3_13pcg128_paramsILm2549297995355413924ELm4865540595714422341ELm6364136223846793005ELm1442695040888963407EEENS3_17pcg_xsl_rr_128_64EEENS3_17RandenPoolSeedSeqEEEEEjRT_RKNS1_10param_typeE = comdat any

$_ZN4absl15random_internal18DistributionCallerINS0_17NonsecureURBGBaseINS0_10pcg_engineINS0_13pcg128_paramsILm2549297995355413924ELm4865540595714422341ELm6364136223846793005ELm1442695040888963407EEENS0_17pcg_xsl_rr_128_64EEENS0_17RandenPoolSeedSeqEEEE4CallINS_28log_uniform_int_distributionIlEEJRlSE_SE_EEENT_11result_typeEPS9_DpOT0_ = comdat any

$_ZN4absl15random_internal18DistributionCallerINS0_17NonsecureURBGBaseINS0_10pcg_engineINS0_13pcg128_paramsILm2549297995355413924ELm4865540595714422341ELm6364136223846793005ELm1442695040888963407EEENS0_17pcg_xsl_rr_128_64EEENS0_17RandenPoolSeedSeqEEEE4ImplINS_28log_uniform_int_distributionIlEEJRlSE_SE_EEENT_11result_typeESt17integral_constantIbLb0EEPS9_DpOT0_ = comdat any

$_ZN4absl28log_uniform_int_distributionIlEclINS_15random_internal17NonsecureURBGBaseINS3_10pcg_engineINS3_13pcg128_paramsILm2549297995355413924ELm4865540595714422341ELm6364136223846793005ELm1442695040888963407EEENS3_17pcg_xsl_rr_128_64EEENS3_17RandenPoolSeedSeqEEEEElRT_ = comdat any

$_ZN4absl28log_uniform_int_distributionIlEclINS_15random_internal17NonsecureURBGBaseINS3_10pcg_engineINS3_13pcg128_paramsILm2549297995355413924ELm4865540595714422341ELm6364136223846793005ELm1442695040888963407EEENS3_17pcg_xsl_rr_128_64EEENS3_17RandenPoolSeedSeqEEEEElRT_RKNS1_10param_typeE = comdat any

$_ZN4absl28log_uniform_int_distributionIlE8GenerateINS_15random_internal17NonsecureURBGBaseINS3_10pcg_engineINS3_13pcg128_paramsILm2549297995355413924ELm4865540595714422341ELm6364136223846793005ELm1442695040888963407EEENS3_17pcg_xsl_rr_128_64EEENS3_17RandenPoolSeedSeqEEEEEmRT_RKNS1_10param_typeE = comdat any

$_ZN4absl15random_internal18DistributionCallerINS0_17NonsecureURBGBaseINS0_10pcg_engineINS0_13pcg128_paramsILm2549297995355413924ELm4865540595714422341ELm6364136223846793005ELm1442695040888963407EEENS0_17pcg_xsl_rr_128_64EEENS0_17RandenPoolSeedSeqEEEE4CallINS_28log_uniform_int_distributionImEEJRmSE_SE_EEENT_11result_typeEPS9_DpOT0_ = comdat any

$_ZN4absl15random_internal18DistributionCallerINS0_17NonsecureURBGBaseINS0_10pcg_engineINS0_13pcg128_paramsILm2549297995355413924ELm4865540595714422341ELm6364136223846793005ELm1442695040888963407EEENS0_17pcg_xsl_rr_128_64EEENS0_17RandenPoolSeedSeqEEEE4ImplINS_28log_uniform_int_distributionImEEJRmSE_SE_EEENT_11result_typeESt17integral_constantIbLb0EEPS9_DpOT0_ = comdat any

$_ZN4absl28log_uniform_int_distributionImEclINS_15random_internal17NonsecureURBGBaseINS3_10pcg_engineINS3_13pcg128_paramsILm2549297995355413924ELm4865540595714422341ELm6364136223846793005ELm1442695040888963407EEENS3_17pcg_xsl_rr_128_64EEENS3_17RandenPoolSeedSeqEEEEEmRT_ = comdat any

$_ZN4absl28log_uniform_int_distributionImEclINS_15random_internal17NonsecureURBGBaseINS3_10pcg_engineINS3_13pcg128_paramsILm2549297995355413924ELm4865540595714422341ELm6364136223846793005ELm1442695040888963407EEENS3_17pcg_xsl_rr_128_64EEENS3_17RandenPoolSeedSeqEEEEEmRT_RKNS1_10param_typeE = comdat any

$_ZN4absl28log_uniform_int_distributionImE8GenerateINS_15random_internal17NonsecureURBGBaseINS3_10pcg_engineINS3_13pcg128_paramsILm2549297995355413924ELm4865540595714422341ELm6364136223846793005ELm1442695040888963407EEENS3_17pcg_xsl_rr_128_64EEENS3_17RandenPoolSeedSeqEEEEEmRT_RKNS1_10param_typeE = comdat any

$_ZN4absl15random_internal18DistributionCallerINS0_17NonsecureURBGBaseINS0_10pcg_engineINS0_13pcg128_paramsILm2549297995355413924ELm4865540595714422341ELm6364136223846793005ELm1442695040888963407EEENS0_17pcg_xsl_rr_128_64EEENS0_17RandenPoolSeedSeqEEEE4CallINS_28log_uniform_int_distributionINS_6int128EEEJRSD_SF_SF_EEENT_11result_typeEPS9_DpOT0_ = comdat any

$_ZN4absl15random_internal18DistributionCallerINS0_17NonsecureURBGBaseINS0_10pcg_engineINS0_13pcg128_paramsILm2549297995355413924ELm4865540595714422341ELm6364136223846793005ELm1442695040888963407EEENS0_17pcg_xsl_rr_128_64EEENS0_17RandenPoolSeedSeqEEEE4ImplINS_28log_uniform_int_distributionINS_6int128EEEJRSD_SF_SF_EEENT_11result_typeESt17integral_constantIbLb0EEPS9_DpOT0_ = comdat any

$_ZN4absl28log_uniform_int_distributionINS_6int128EEclINS_15random_internal17NonsecureURBGBaseINS4_10pcg_engineINS4_13pcg128_paramsILm2549297995355413924ELm4865540595714422341ELm6364136223846793005ELm1442695040888963407EEENS4_17pcg_xsl_rr_128_64EEENS4_17RandenPoolSeedSeqEEEEES1_RT_ = comdat any

$_ZN4absl28log_uniform_int_distributionINS_6int128EEclINS_15random_internal17NonsecureURBGBaseINS4_10pcg_engineINS4_13pcg128_paramsILm2549297995355413924ELm4865540595714422341ELm6364136223846793005ELm1442695040888963407EEENS4_17pcg_xsl_rr_128_64EEENS4_17RandenPoolSeedSeqEEEEES1_RT_RKNS2_10param_typeE = comdat any

$_ZN4absl28log_uniform_int_distributionINS_6int128EE8GenerateINS_15random_internal17NonsecureURBGBaseINS4_10pcg_engineINS4_13pcg128_paramsILm2549297995355413924ELm4865540595714422341ELm6364136223846793005ELm1442695040888963407EEENS4_17pcg_xsl_rr_128_64EEENS4_17RandenPoolSeedSeqEEEEENS_7uint128ERT_RKNS2_10param_typeE = comdat any

$_ZN4absl24uniform_int_distributionINS_6int128EEclINS_15random_internal17NonsecureURBGBaseINS4_10pcg_engineINS4_13pcg128_paramsILm2549297995355413924ELm4865540595714422341ELm6364136223846793005ELm1442695040888963407EEENS4_17pcg_xsl_rr_128_64EEENS4_17RandenPoolSeedSeqEEEEES1_RT_ = comdat any

$_ZN4absl24uniform_int_distributionINS_6int128EEclINS_15random_internal17NonsecureURBGBaseINS4_10pcg_engineINS4_13pcg128_paramsILm2549297995355413924ELm4865540595714422341ELm6364136223846793005ELm1442695040888963407EEENS4_17pcg_xsl_rr_128_64EEENS4_17RandenPoolSeedSeqEEEEES1_RT_RKNS2_10param_typeE = comdat any

$_ZN4absl24uniform_int_distributionINS_6int128EE8GenerateINS_15random_internal17NonsecureURBGBaseINS4_10pcg_engineINS4_13pcg128_paramsILm2549297995355413924ELm4865540595714422341ELm6364136223846793005ELm1442695040888963407EEENS4_17pcg_xsl_rr_128_64EEENS4_17RandenPoolSeedSeqEEEEENS_7uint128ERT_SD_ = comdat any

$_ZN4absl15random_internal15FastUniformBitsINS_7uint128EEclINS0_17NonsecureURBGBaseINS0_10pcg_engineINS0_13pcg128_paramsILm2549297995355413924ELm4865540595714422341ELm6364136223846793005ELm1442695040888963407EEENS0_17pcg_xsl_rr_128_64EEENS0_17RandenPoolSeedSeqEEEEES2_RT_ = comdat any

$_ZN4absl15random_internal15FastUniformBitsINS_7uint128EE8GenerateINS0_17NonsecureURBGBaseINS0_10pcg_engineINS0_13pcg128_paramsILm2549297995355413924ELm4865540595714422341ELm6364136223846793005ELm1442695040888963407EEENS0_17pcg_xsl_rr_128_64EEENS0_17RandenPoolSeedSeqEEEEES2_RT_NS0_17SimplifiedLoopTagE = comdat any

$_ZN4absl15random_internal18DistributionCallerINS0_17NonsecureURBGBaseINS0_10pcg_engineINS0_13pcg128_paramsILm2549297995355413924ELm4865540595714422341ELm6364136223846793005ELm1442695040888963407EEENS0_17pcg_xsl_rr_128_64EEENS0_17RandenPoolSeedSeqEEEE4CallINS_28log_uniform_int_distributionINS_7uint128EEEJRSD_SF_SF_EEENT_11result_typeEPS9_DpOT0_ = comdat any

$_ZN4absl15random_internal18DistributionCallerINS0_17NonsecureURBGBaseINS0_10pcg_engineINS0_13pcg128_paramsILm2549297995355413924ELm4865540595714422341ELm6364136223846793005ELm1442695040888963407EEENS0_17pcg_xsl_rr_128_64EEENS0_17RandenPoolSeedSeqEEEE4ImplINS_28log_uniform_int_distributionINS_7uint128EEEJRSD_SF_SF_EEENT_11result_typeESt17integral_constantIbLb0EEPS9_DpOT0_ = comdat any

$_ZN4absl28log_uniform_int_distributionINS_7uint128EEclINS_15random_internal17NonsecureURBGBaseINS4_10pcg_engineINS4_13pcg128_paramsILm2549297995355413924ELm4865540595714422341ELm6364136223846793005ELm1442695040888963407EEENS4_17pcg_xsl_rr_128_64EEENS4_17RandenPoolSeedSeqEEEEES1_RT_ = comdat any

$_ZN4absl28log_uniform_int_distributionINS_7uint128EEclINS_15random_internal17NonsecureURBGBaseINS4_10pcg_engineINS4_13pcg128_paramsILm2549297995355413924ELm4865540595714422341ELm6364136223846793005ELm1442695040888963407EEENS4_17pcg_xsl_rr_128_64EEENS4_17RandenPoolSeedSeqEEEEES1_RT_RKNS2_10param_typeE = comdat any

$_ZN4absl28log_uniform_int_distributionINS_7uint128EE8GenerateINS_15random_internal17NonsecureURBGBaseINS4_10pcg_engineINS4_13pcg128_paramsILm2549297995355413924ELm4865540595714422341ELm6364136223846793005ELm1442695040888963407EEENS4_17pcg_xsl_rr_128_64EEENS4_17RandenPoolSeedSeqEEEEES1_RT_RKNS2_10param_typeE = comdat any

$_ZN4absl24uniform_int_distributionINS_7uint128EEclINS_15random_internal17NonsecureURBGBaseINS4_10pcg_engineINS4_13pcg128_paramsILm2549297995355413924ELm4865540595714422341ELm6364136223846793005ELm1442695040888963407EEENS4_17pcg_xsl_rr_128_64EEENS4_17RandenPoolSeedSeqEEEEES1_RT_ = comdat any

$_ZN4absl24uniform_int_distributionINS_7uint128EEclINS_15random_internal17NonsecureURBGBaseINS4_10pcg_engineINS4_13pcg128_paramsILm2549297995355413924ELm4865540595714422341ELm6364136223846793005ELm1442695040888963407EEENS4_17pcg_xsl_rr_128_64EEENS4_17RandenPoolSeedSeqEEEEES1_RT_RKNS2_10param_typeE = comdat any

$_ZN4absl24uniform_int_distributionINS_7uint128EE8GenerateINS_15random_internal17NonsecureURBGBaseINS4_10pcg_engineINS4_13pcg128_paramsILm2549297995355413924ELm4865540595714422341ELm6364136223846793005ELm1442695040888963407EEENS4_17pcg_xsl_rr_128_64EEENS4_17RandenPoolSeedSeqEEEEES1_RT_S1_ = comdat any

$_ZNSt11char_traitsIcE6lengthEPKc = comdat any

$_ZNSt7__cxx1112basic_stringIcSt11char_traitsIcESaIcEE12_M_constructIPKcEEvT_S8_St20forward_iterator_tag = comdat any

$_ZNSt7__cxx1112basic_stringIcSt11char_traitsIcESaIcEE12_Alloc_hiderD2Ev = comdat any

$_ZSt8distanceIPKcENSt15iterator_traitsIT_E15difference_typeES3_S3_ = comdat any

$_ZZNSt7__cxx1112basic_stringIcSt11char_traitsIcESaIcEE12_M_constructIPKcEEvT_S8_St20forward_iterator_tagEN6_GuardC2EPS4_ = comdat any

$_ZZNSt7__cxx1112basic_stringIcSt11char_traitsIcESaIcEE12_M_constructIPKcEEvT_S8_St20forward_iterator_tagEN6_GuardD2Ev = comdat any

$_ZSt10__distanceIPKcENSt15iterator_traitsIT_E15difference_typeES3_S3_St26random_access_iterator_tag = comdat any

$_ZSt19__iterator_categoryIPKcENSt15iterator_traitsIT_E17iterator_categoryERKS3_ = comdat any

$_ZN7testing8internal19GetNotDefaultOrNullEPFvvES2_ = comdat any

$_ZN7testing4Test13SetUpTestCaseEv = comdat any

$_ZN7testing4Test14SetUpTestSuiteEv = comdat any

$_ZN7testing8internal8GTestLog9GetStreamEv = comdat any

$_ZN7testing4Test16TearDownTestCaseEv = comdat any

$_ZN7testing4Test17TearDownTestSuiteEv = comdat any

$_ZTSN7testing8internal15TestFactoryBaseE = comdat any

$_ZTIN7testing8internal15TestFactoryBaseE = comdat any

$_ZTVN7testing8internal15TestFactoryBaseE = comdat any

$_ZN4absl20IntervalClosedClosedE = comdat any

$_ZN4absl16IntervalOpenOpenE = comdat any

$_ZN4absl18IntervalClosedOpenE = comdat any

$_ZN4absl18IntervalOpenClosedE = comdat any

$_ZZN4absl15random_internal15FastUniformBitsIjE8GenerateISt23mersenne_twister_engineImLm64ELm312ELm156ELm31ELm13043109905998158313ELm29ELm6148914691236517205ELm17ELm8202884508482404352ELm37ELm18444473444759240704ELm43ELm6364136223846793005EEEEjRT_NS0_17SimplifiedLoopTagEE11kResultBits = comdat any

$_ZZN4absl15random_internal15FastUniformBitsIjE8GenerateISt23mersenne_twister_engineImLm64ELm312ELm156ELm31ELm13043109905998158313ELm29ELm6148914691236517205ELm17ELm8202884508482404352ELm37ELm18444473444759240704ELm43ELm6364136223846793005EEEEjRT_NS0_17SimplifiedLoopTagEE9kUrbgBits = comdat any

$_ZZN4absl15random_internal15FastUniformBitsIjE8GenerateISt23mersenne_twister_engineImLm64ELm312ELm156ELm31ELm13043109905998158313ELm29ELm6148914691236517205ELm17ELm8202884508482404352ELm37ELm18444473444759240704ELm43ELm6364136223846793005EEEEjRT_NS0_17SimplifiedLoopTagEE6kIters = comdat any

$_ZZN4absl15random_internal15FastUniformBitsIjE8GenerateISt23mersenne_twister_engineImLm64ELm312ELm156ELm31ELm13043109905998158313ELm29ELm6148914691236517205ELm17ELm8202884508482404352ELm37ELm18444473444759240704ELm43ELm6364136223846793005EEEEjRT_NS0_17SimplifiedLoopTagEE6kShift = comdat any

$_ZZN4absl15random_internal15FastUniformBitsIjE8GenerateISt23mersenne_twister_engineImLm64ELm312ELm156ELm31ELm13043109905998158313ELm29ELm6148914691236517205ELm17ELm8202884508482404352ELm37ELm18444473444759240704ELm43ELm6364136223846793005EEEEjRT_NS0_17SimplifiedLoopTagEE4kMin = comdat any

$_ZZN4absl15random_internal20GenerateRealFromBitsIdNS0_19GeneratePositiveTagELb1EEET_miE4kExp = comdat any

$_ZZN4absl15random_internal20GenerateRealFromBitsIdNS0_19GeneratePositiveTagELb1EEET_miE5kMask = comdat any

$_ZZN4absl15random_internal20GenerateRealFromBitsIdNS0_19GeneratePositiveTagELb1EEET_miE9kUintBits = comdat any

$_ZZN4absl15random_internal15FastUniformBitsImE8GenerateISt23mersenne_twister_engineImLm64ELm312ELm156ELm31ELm13043109905998158313ELm29ELm6148914691236517205ELm17ELm8202884508482404352ELm37ELm18444473444759240704ELm43ELm6364136223846793005EEEEmRT_NS0_17SimplifiedLoopTagEE11kResultBits = comdat any

$_ZZN4absl15random_internal15FastUniformBitsImE8GenerateISt23mersenne_twister_engineImLm64ELm312ELm156ELm31ELm13043109905998158313ELm29ELm6148914691236517205ELm17ELm8202884508482404352ELm37ELm18444473444759240704ELm43ELm6364136223846793005EEEEmRT_NS0_17SimplifiedLoopTagEE9kUrbgBits = comdat any

$_ZZN4absl15random_internal15FastUniformBitsImE8GenerateISt23mersenne_twister_engineImLm64ELm312ELm156ELm31ELm13043109905998158313ELm29ELm6148914691236517205ELm17ELm8202884508482404352ELm37ELm18444473444759240704ELm43ELm6364136223846793005EEEEmRT_NS0_17SimplifiedLoopTagEE6kIters = comdat any

$_ZZN4absl15random_internal15FastUniformBitsImE8GenerateISt23mersenne_twister_engineImLm64ELm312ELm156ELm31ELm13043109905998158313ELm29ELm6148914691236517205ELm17ELm8202884508482404352ELm37ELm18444473444759240704ELm43ELm6364136223846793005EEEEmRT_NS0_17SimplifiedLoopTagEE6kShift = comdat any

$_ZZN4absl15random_internal15FastUniformBitsImE8GenerateISt23mersenne_twister_engineImLm64ELm312ELm156ELm31ELm13043109905998158313ELm29ELm6148914691236517205ELm17ELm8202884508482404352ELm37ELm18444473444759240704ELm43ELm6364136223846793005EEEEmRT_NS0_17SimplifiedLoopTagEE4kMin = comdat any

$_ZZN4absl15random_internal15FastUniformBitsIhE8GenerateISt23mersenne_twister_engineImLm64ELm312ELm156ELm31ELm13043109905998158313ELm29ELm6148914691236517205ELm17ELm8202884508482404352ELm37ELm18444473444759240704ELm43ELm6364136223846793005EEEEhRT_NS0_17SimplifiedLoopTagEE11kResultBits = comdat any

$_ZZN4absl15random_internal15FastUniformBitsIhE8GenerateISt23mersenne_twister_engineImLm64ELm312ELm156ELm31ELm13043109905998158313ELm29ELm6148914691236517205ELm17ELm8202884508482404352ELm37ELm18444473444759240704ELm43ELm6364136223846793005EEEEhRT_NS0_17SimplifiedLoopTagEE9kUrbgBits = comdat any

$_ZZN4absl15random_internal15FastUniformBitsIhE8GenerateISt23mersenne_twister_engineImLm64ELm312ELm156ELm31ELm13043109905998158313ELm29ELm6148914691236517205ELm17ELm8202884508482404352ELm37ELm18444473444759240704ELm43ELm6364136223846793005EEEEhRT_NS0_17SimplifiedLoopTagEE6kIters = comdat any

$_ZZN4absl15random_internal15FastUniformBitsIhE8GenerateISt23mersenne_twister_engineImLm64ELm312ELm156ELm31ELm13043109905998158313ELm29ELm6148914691236517205ELm17ELm8202884508482404352ELm37ELm18444473444759240704ELm43ELm6364136223846793005EEEEhRT_NS0_17SimplifiedLoopTagEE6kShift = comdat any

$_ZZN4absl15random_internal15FastUniformBitsIhE8GenerateISt23mersenne_twister_engineImLm64ELm312ELm156ELm31ELm13043109905998158313ELm29ELm6148914691236517205ELm17ELm8202884508482404352ELm37ELm18444473444759240704ELm43ELm6364136223846793005EEEEhRT_NS0_17SimplifiedLoopTagEE4kMin = comdat any

$_ZZN4absl15random_internal15FastUniformBitsItE8GenerateISt23mersenne_twister_engineImLm64ELm312ELm156ELm31ELm13043109905998158313ELm29ELm6148914691236517205ELm17ELm8202884508482404352ELm37ELm18444473444759240704ELm43ELm6364136223846793005EEEEtRT_NS0_17SimplifiedLoopTagEE11kResultBits = comdat any

$_ZZN4absl15random_internal15FastUniformBitsItE8GenerateISt23mersenne_twister_engineImLm64ELm312ELm156ELm31ELm13043109905998158313ELm29ELm6148914691236517205ELm17ELm8202884508482404352ELm37ELm18444473444759240704ELm43ELm6364136223846793005EEEEtRT_NS0_17SimplifiedLoopTagEE9kUrbgBits = comdat any

$_ZZN4absl15random_internal15FastUniformBitsItE8GenerateISt23mersenne_twister_engineImLm64ELm312ELm156ELm31ELm13043109905998158313ELm29ELm6148914691236517205ELm17ELm8202884508482404352ELm37ELm18444473444759240704ELm43ELm6364136223846793005EEEEtRT_NS0_17SimplifiedLoopTagEE6kIters = comdat any

$_ZZN4absl15random_internal15FastUniformBitsItE8GenerateISt23mersenne_twister_engineImLm64ELm312ELm156ELm31ELm13043109905998158313ELm29ELm6148914691236517205ELm17ELm8202884508482404352ELm37ELm18444473444759240704ELm43ELm6364136223846793005EEEEtRT_NS0_17SimplifiedLoopTagEE6kShift = comdat any

$_ZZN4absl15random_internal15FastUniformBitsItE8GenerateISt23mersenne_twister_engineImLm64ELm312ELm156ELm31ELm13043109905998158313ELm29ELm6148914691236517205ELm17ELm8202884508482404352ELm37ELm18444473444759240704ELm43ELm6364136223846793005EEEEtRT_NS0_17SimplifiedLoopTagEE4kMin = comdat any

$_ZZN4absl15random_internal20GenerateRealFromBitsIfNS0_19GeneratePositiveTagELb1EEET_miE4kExp = comdat any

$_ZZN4absl15random_internal20GenerateRealFromBitsIfNS0_19GeneratePositiveTagELb1EEET_miE5kMask = comdat any

$_ZZN4absl15random_internal20GenerateRealFromBitsIfNS0_19GeneratePositiveTagELb1EEET_miE9kUintBits = comdat any

$_ZZN4absl15random_internal20GenerateRealFromBitsIfNS0_19GenerateNegativeTagELb0EEET_miE4kExp = comdat any

$_ZZN4absl15random_internal20GenerateRealFromBitsIfNS0_19GenerateNegativeTagELb0EEET_miE5kMask = comdat any

$_ZZN4absl15random_internal20GenerateRealFromBitsIfNS0_19GenerateNegativeTagELb0EEET_miE9kUintBits = comdat any

$_ZZN4absl15random_internal20GenerateRealFromBitsIdNS0_19GenerateNegativeTagELb0EEET_miE4kExp = comdat any

$_ZZN4absl15random_internal20GenerateRealFromBitsIdNS0_19GenerateNegativeTagELb0EEET_miE5kMask = comdat any

$_ZZN4absl15random_internal20GenerateRealFromBitsIdNS0_19GenerateNegativeTagELb0EEET_miE9kUintBits = comdat any

$_ZZN4absl15random_internal20GenerateRealFromBitsIdNS0_19GeneratePositiveTagELb0EEET_miE4kExp = comdat any

$_ZZN4absl15random_internal20GenerateRealFromBitsIdNS0_19GeneratePositiveTagELb0EEET_miE5kMask = comdat any

$_ZZN4absl15random_internal20GenerateRealFromBitsIdNS0_19GeneratePositiveTagELb0EEET_miE9kUintBits = comdat any

$_ZZN4absl15random_internal20GenerateRealFromBitsIdNS0_17GenerateSignedTagELb0EEET_miE4kExp = comdat any

$_ZZN4absl15random_internal20GenerateRealFromBitsIdNS0_17GenerateSignedTagELb0EEET_miE5kMask = comdat any

$_ZZN4absl15random_internal20GenerateRealFromBitsIdNS0_17GenerateSignedTagELb0EEET_miE9kUintBits = comdat any

$_ZNSt14numeric_limitsIjE6digitsE = comdat any

$_ZNSt14numeric_limitsIhE6digitsE = comdat any

$_ZNSt14numeric_limitsItE6digitsE = comdat any

$_ZNSt14numeric_limitsImE6digitsE = comdat any

$_ZNSt14numeric_limitsIN4absl7uint128EE6digitsE = comdat any

$_ZZN4absl15random_internal15FastUniformBitsINS_7uint128EE8GenerateISt23mersenne_twister_engineImLm64ELm312ELm156ELm31ELm13043109905998158313ELm29ELm6148914691236517205ELm17ELm8202884508482404352ELm37ELm18444473444759240704ELm43ELm6364136223846793005EEEES2_RT_NS0_17SimplifiedLoopTagEE11kResultBits = comdat any

$_ZZN4absl15random_internal15FastUniformBitsINS_7uint128EE8GenerateISt23mersenne_twister_engineImLm64ELm312ELm156ELm31ELm13043109905998158313ELm29ELm6148914691236517205ELm17ELm8202884508482404352ELm37ELm18444473444759240704ELm43ELm6364136223846793005EEEES2_RT_NS0_17SimplifiedLoopTagEE9kUrbgBits = comdat any

$_ZZN4absl15random_internal15FastUniformBitsINS_7uint128EE8GenerateISt23mersenne_twister_engineImLm64ELm312ELm156ELm31ELm13043109905998158313ELm29ELm6148914691236517205ELm17ELm8202884508482404352ELm37ELm18444473444759240704ELm43ELm6364136223846793005EEEES2_RT_NS0_17SimplifiedLoopTagEE6kIters = comdat any

$_ZZN4absl15random_internal15FastUniformBitsINS_7uint128EE8GenerateISt23mersenne_twister_engineImLm64ELm312ELm156ELm31ELm13043109905998158313ELm29ELm6148914691236517205ELm17ELm8202884508482404352ELm37ELm18444473444759240704ELm43ELm6364136223846793005EEEES2_RT_NS0_17SimplifiedLoopTagEE6kShift = comdat any

$_ZZN4absl15random_internal15FastUniformBitsINS_7uint128EE8GenerateISt23mersenne_twister_engineImLm64ELm312ELm156ELm31ELm13043109905998158313ELm29ELm6148914691236517205ELm17ELm8202884508482404352ELm37ELm18444473444759240704ELm43ELm6364136223846793005EEEES2_RT_NS0_17SimplifiedLoopTagEE4kMin = comdat any

$_ZZN4absl15random_internal15FastUniformBitsIjE8GenerateINS0_17NonsecureURBGBaseINS0_13randen_engineImEENS0_17RandenPoolSeedSeqEEEEEjRT_NS0_17SimplifiedLoopTagEE11kResultBits = comdat any

$_ZZN4absl15random_internal15FastUniformBitsIjE8GenerateINS0_17NonsecureURBGBaseINS0_13randen_engineImEENS0_17RandenPoolSeedSeqEEEEEjRT_NS0_17SimplifiedLoopTagEE9kUrbgBits = comdat any

$_ZZN4absl15random_internal15FastUniformBitsIjE8GenerateINS0_17NonsecureURBGBaseINS0_13randen_engineImEENS0_17RandenPoolSeedSeqEEEEEjRT_NS0_17SimplifiedLoopTagEE6kIters = comdat any

$_ZZN4absl15random_internal15FastUniformBitsIjE8GenerateINS0_17NonsecureURBGBaseINS0_13randen_engineImEENS0_17RandenPoolSeedSeqEEEEEjRT_NS0_17SimplifiedLoopTagEE6kShift = comdat any

$_ZZN4absl15random_internal15FastUniformBitsIjE8GenerateINS0_17NonsecureURBGBaseINS0_13randen_engineImEENS0_17RandenPoolSeedSeqEEEEEjRT_NS0_17SimplifiedLoopTagEE4kMin = comdat any

$_ZZN4absl15random_internal15FastUniformBitsImE8GenerateINS0_17NonsecureURBGBaseINS0_13randen_engineImEENS0_17RandenPoolSeedSeqEEEEEmRT_NS0_17SimplifiedLoopTagEE11kResultBits = comdat any

$_ZZN4absl15random_internal15FastUniformBitsImE8GenerateINS0_17NonsecureURBGBaseINS0_13randen_engineImEENS0_17RandenPoolSeedSeqEEEEEmRT_NS0_17SimplifiedLoopTagEE9kUrbgBits = comdat any

$_ZZN4absl15random_internal15FastUniformBitsImE8GenerateINS0_17NonsecureURBGBaseINS0_13randen_engineImEENS0_17RandenPoolSeedSeqEEEEEmRT_NS0_17SimplifiedLoopTagEE6kIters = comdat any

$_ZZN4absl15random_internal15FastUniformBitsImE8GenerateINS0_17NonsecureURBGBaseINS0_13randen_engineImEENS0_17RandenPoolSeedSeqEEEEEmRT_NS0_17SimplifiedLoopTagEE6kShift = comdat any

$_ZZN4absl15random_internal15FastUniformBitsImE8GenerateINS0_17NonsecureURBGBaseINS0_13randen_engineImEENS0_17RandenPoolSeedSeqEEEEEmRT_NS0_17SimplifiedLoopTagEE4kMin = comdat any

$_ZZN4absl15random_internal15FastUniformBitsIhE8GenerateINS0_17NonsecureURBGBaseINS0_13randen_engineImEENS0_17RandenPoolSeedSeqEEEEEhRT_NS0_17SimplifiedLoopTagEE11kResultBits = comdat any

$_ZZN4absl15random_internal15FastUniformBitsIhE8GenerateINS0_17NonsecureURBGBaseINS0_13randen_engineImEENS0_17RandenPoolSeedSeqEEEEEhRT_NS0_17SimplifiedLoopTagEE9kUrbgBits = comdat any

$_ZZN4absl15random_internal15FastUniformBitsIhE8GenerateINS0_17NonsecureURBGBaseINS0_13randen_engineImEENS0_17RandenPoolSeedSeqEEEEEhRT_NS0_17SimplifiedLoopTagEE6kIters = comdat any

$_ZZN4absl15random_internal15FastUniformBitsIhE8GenerateINS0_17NonsecureURBGBaseINS0_13randen_engineImEENS0_17RandenPoolSeedSeqEEEEEhRT_NS0_17SimplifiedLoopTagEE6kShift = comdat any

$_ZZN4absl15random_internal15FastUniformBitsIhE8GenerateINS0_17NonsecureURBGBaseINS0_13randen_engineImEENS0_17RandenPoolSeedSeqEEEEEhRT_NS0_17SimplifiedLoopTagEE4kMin = comdat any

$_ZZN4absl15random_internal15FastUniformBitsItE8GenerateINS0_17NonsecureURBGBaseINS0_13randen_engineImEENS0_17RandenPoolSeedSeqEEEEEtRT_NS0_17SimplifiedLoopTagEE11kResultBits = comdat any

$_ZZN4absl15random_internal15FastUniformBitsItE8GenerateINS0_17NonsecureURBGBaseINS0_13randen_engineImEENS0_17RandenPoolSeedSeqEEEEEtRT_NS0_17SimplifiedLoopTagEE9kUrbgBits = comdat any

$_ZZN4absl15random_internal15FastUniformBitsItE8GenerateINS0_17NonsecureURBGBaseINS0_13randen_engineImEENS0_17RandenPoolSeedSeqEEEEEtRT_NS0_17SimplifiedLoopTagEE6kIters = comdat any

$_ZZN4absl15random_internal15FastUniformBitsItE8GenerateINS0_17NonsecureURBGBaseINS0_13randen_engineImEENS0_17RandenPoolSeedSeqEEEEEtRT_NS0_17SimplifiedLoopTagEE6kShift = comdat any

$_ZZN4absl15random_internal15FastUniformBitsItE8GenerateINS0_17NonsecureURBGBaseINS0_13randen_engineImEENS0_17RandenPoolSeedSeqEEEEEtRT_NS0_17SimplifiedLoopTagEE4kMin = comdat any

$_ZZN4absl15random_internal15FastUniformBitsINS_7uint128EE8GenerateINS0_17NonsecureURBGBaseINS0_13randen_engineImEENS0_17RandenPoolSeedSeqEEEEES2_RT_NS0_17SimplifiedLoopTagEE11kResultBits = comdat any

$_ZZN4absl15random_internal15FastUniformBitsINS_7uint128EE8GenerateINS0_17NonsecureURBGBaseINS0_13randen_engineImEENS0_17RandenPoolSeedSeqEEEEES2_RT_NS0_17SimplifiedLoopTagEE9kUrbgBits = comdat any

$_ZZN4absl15random_internal15FastUniformBitsINS_7uint128EE8GenerateINS0_17NonsecureURBGBaseINS0_13randen_engineImEENS0_17RandenPoolSeedSeqEEEEES2_RT_NS0_17SimplifiedLoopTagEE6kIters = comdat any

$_ZZN4absl15random_internal15FastUniformBitsINS_7uint128EE8GenerateINS0_17NonsecureURBGBaseINS0_13randen_engineImEENS0_17RandenPoolSeedSeqEEEEES2_RT_NS0_17SimplifiedLoopTagEE6kShift = comdat any

$_ZZN4absl15random_internal15FastUniformBitsINS_7uint128EE8GenerateINS0_17NonsecureURBGBaseINS0_13randen_engineImEENS0_17RandenPoolSeedSeqEEEEES2_RT_NS0_17SimplifiedLoopTagEE4kMin = comdat any

$_ZZN4absl15random_internal15FastUniformBitsIjE8GenerateINS0_17NonsecureURBGBaseINS0_10pcg_engineINS0_13pcg128_paramsILm2549297995355413924ELm4865540595714422341ELm6364136223846793005ELm1442695040888963407EEENS0_17pcg_xsl_rr_128_64EEENS0_17RandenPoolSeedSeqEEEEEjRT_NS0_17SimplifiedLoopTagEE11kResultBits = comdat any

$_ZZN4absl15random_internal15FastUniformBitsIjE8GenerateINS0_17NonsecureURBGBaseINS0_10pcg_engineINS0_13pcg128_paramsILm2549297995355413924ELm4865540595714422341ELm6364136223846793005ELm1442695040888963407EEENS0_17pcg_xsl_rr_128_64EEENS0_17RandenPoolSeedSeqEEEEEjRT_NS0_17SimplifiedLoopTagEE9kUrbgBits = comdat any

$_ZZN4absl15random_internal15FastUniformBitsIjE8GenerateINS0_17NonsecureURBGBaseINS0_10pcg_engineINS0_13pcg128_paramsILm2549297995355413924ELm4865540595714422341ELm6364136223846793005ELm1442695040888963407EEENS0_17pcg_xsl_rr_128_64EEENS0_17RandenPoolSeedSeqEEEEEjRT_NS0_17SimplifiedLoopTagEE6kIters = comdat any

$_ZZN4absl15random_internal15FastUniformBitsIjE8GenerateINS0_17NonsecureURBGBaseINS0_10pcg_engineINS0_13pcg128_paramsILm2549297995355413924ELm4865540595714422341ELm6364136223846793005ELm1442695040888963407EEENS0_17pcg_xsl_rr_128_64EEENS0_17RandenPoolSeedSeqEEEEEjRT_NS0_17SimplifiedLoopTagEE6kShift = comdat any

$_ZZN4absl15random_internal15FastUniformBitsIjE8GenerateINS0_17NonsecureURBGBaseINS0_10pcg_engineINS0_13pcg128_paramsILm2549297995355413924ELm4865540595714422341ELm6364136223846793005ELm1442695040888963407EEENS0_17pcg_xsl_rr_128_64EEENS0_17RandenPoolSeedSeqEEEEEjRT_NS0_17SimplifiedLoopTagEE4kMin = comdat any

$_ZZN4absl15random_internal15FastUniformBitsImE8GenerateINS0_17NonsecureURBGBaseINS0_10pcg_engineINS0_13pcg128_paramsILm2549297995355413924ELm4865540595714422341ELm6364136223846793005ELm1442695040888963407EEENS0_17pcg_xsl_rr_128_64EEENS0_17RandenPoolSeedSeqEEEEEmRT_NS0_17SimplifiedLoopTagEE11kResultBits = comdat any

$_ZZN4absl15random_internal15FastUniformBitsImE8GenerateINS0_17NonsecureURBGBaseINS0_10pcg_engineINS0_13pcg128_paramsILm2549297995355413924ELm4865540595714422341ELm6364136223846793005ELm1442695040888963407EEENS0_17pcg_xsl_rr_128_64EEENS0_17RandenPoolSeedSeqEEEEEmRT_NS0_17SimplifiedLoopTagEE9kUrbgBits = comdat any

$_ZZN4absl15random_internal15FastUniformBitsImE8GenerateINS0_17NonsecureURBGBaseINS0_10pcg_engineINS0_13pcg128_paramsILm2549297995355413924ELm4865540595714422341ELm6364136223846793005ELm1442695040888963407EEENS0_17pcg_xsl_rr_128_64EEENS0_17RandenPoolSeedSeqEEEEEmRT_NS0_17SimplifiedLoopTagEE6kIters = comdat any

$_ZZN4absl15random_internal15FastUniformBitsImE8GenerateINS0_17NonsecureURBGBaseINS0_10pcg_engineINS0_13pcg128_paramsILm2549297995355413924ELm4865540595714422341ELm6364136223846793005ELm1442695040888963407EEENS0_17pcg_xsl_rr_128_64EEENS0_17RandenPoolSeedSeqEEEEEmRT_NS0_17SimplifiedLoopTagEE6kShift = comdat any

$_ZZN4absl15random_internal15FastUniformBitsImE8GenerateINS0_17NonsecureURBGBaseINS0_10pcg_engineINS0_13pcg128_paramsILm2549297995355413924ELm4865540595714422341ELm6364136223846793005ELm1442695040888963407EEENS0_17pcg_xsl_rr_128_64EEENS0_17RandenPoolSeedSeqEEEEEmRT_NS0_17SimplifiedLoopTagEE4kMin = comdat any

$_ZZN4absl15random_internal15FastUniformBitsIhE8GenerateINS0_17NonsecureURBGBaseINS0_10pcg_engineINS0_13pcg128_paramsILm2549297995355413924ELm4865540595714422341ELm6364136223846793005ELm1442695040888963407EEENS0_17pcg_xsl_rr_128_64EEENS0_17RandenPoolSeedSeqEEEEEhRT_NS0_17SimplifiedLoopTagEE11kResultBits = comdat any

$_ZZN4absl15random_internal15FastUniformBitsIhE8GenerateINS0_17NonsecureURBGBaseINS0_10pcg_engineINS0_13pcg128_paramsILm2549297995355413924ELm4865540595714422341ELm6364136223846793005ELm1442695040888963407EEENS0_17pcg_xsl_rr_128_64EEENS0_17RandenPoolSeedSeqEEEEEhRT_NS0_17SimplifiedLoopTagEE9kUrbgBits = comdat any

$_ZZN4absl15random_internal15FastUniformBitsIhE8GenerateINS0_17NonsecureURBGBaseINS0_10pcg_engineINS0_13pcg128_paramsILm2549297995355413924ELm4865540595714422341ELm6364136223846793005ELm1442695040888963407EEENS0_17pcg_xsl_rr_128_64EEENS0_17RandenPoolSeedSeqEEEEEhRT_NS0_17SimplifiedLoopTagEE6kIters = comdat any

$_ZZN4absl15random_internal15FastUniformBitsIhE8GenerateINS0_17NonsecureURBGBaseINS0_10pcg_engineINS0_13pcg128_paramsILm2549297995355413924ELm4865540595714422341ELm6364136223846793005ELm1442695040888963407EEENS0_17pcg_xsl_rr_128_64EEENS0_17RandenPoolSeedSeqEEEEEhRT_NS0_17SimplifiedLoopTagEE6kShift = comdat any

$_ZZN4absl15random_internal15FastUniformBitsIhE8GenerateINS0_17NonsecureURBGBaseINS0_10pcg_engineINS0_13pcg128_paramsILm2549297995355413924ELm4865540595714422341ELm6364136223846793005ELm1442695040888963407EEENS0_17pcg_xsl_rr_128_64EEENS0_17RandenPoolSeedSeqEEEEEhRT_NS0_17SimplifiedLoopTagEE4kMin = comdat any

$_ZZN4absl15random_internal15FastUniformBitsItE8GenerateINS0_17NonsecureURBGBaseINS0_10pcg_engineINS0_13pcg128_paramsILm2549297995355413924ELm4865540595714422341ELm6364136223846793005ELm1442695040888963407EEENS0_17pcg_xsl_rr_128_64EEENS0_17RandenPoolSeedSeqEEEEEtRT_NS0_17SimplifiedLoopTagEE11kResultBits = comdat any

$_ZZN4absl15random_internal15FastUniformBitsItE8GenerateINS0_17NonsecureURBGBaseINS0_10pcg_engineINS0_13pcg128_paramsILm2549297995355413924ELm4865540595714422341ELm6364136223846793005ELm1442695040888963407EEENS0_17pcg_xsl_rr_128_64EEENS0_17RandenPoolSeedSeqEEEEEtRT_NS0_17SimplifiedLoopTagEE9kUrbgBits = comdat any

$_ZZN4absl15random_internal15FastUniformBitsItE8GenerateINS0_17NonsecureURBGBaseINS0_10pcg_engineINS0_13pcg128_paramsILm2549297995355413924ELm4865540595714422341ELm6364136223846793005ELm1442695040888963407EEENS0_17pcg_xsl_rr_128_64EEENS0_17RandenPoolSeedSeqEEEEEtRT_NS0_17SimplifiedLoopTagEE6kIters = comdat any

$_ZZN4absl15random_internal15FastUniformBitsItE8GenerateINS0_17NonsecureURBGBaseINS0_10pcg_engineINS0_13pcg128_paramsILm2549297995355413924ELm4865540595714422341ELm6364136223846793005ELm1442695040888963407EEENS0_17pcg_xsl_rr_128_64EEENS0_17RandenPoolSeedSeqEEEEEtRT_NS0_17SimplifiedLoopTagEE6kShift = comdat any

$_ZZN4absl15random_internal15FastUniformBitsItE8GenerateINS0_17NonsecureURBGBaseINS0_10pcg_engineINS0_13pcg128_paramsILm2549297995355413924ELm4865540595714422341ELm6364136223846793005ELm1442695040888963407EEENS0_17pcg_xsl_rr_128_64EEENS0_17RandenPoolSeedSeqEEEEEtRT_NS0_17SimplifiedLoopTagEE4kMin = comdat any

$_ZZN4absl15random_internal15FastUniformBitsINS_7uint128EE8GenerateINS0_17NonsecureURBGBaseINS0_10pcg_engineINS0_13pcg128_paramsILm2549297995355413924ELm4865540595714422341ELm6364136223846793005ELm1442695040888963407EEENS0_17pcg_xsl_rr_128_64EEENS0_17RandenPoolSeedSeqEEEEES2_RT_NS0_17SimplifiedLoopTagEE11kResultBits = comdat any

$_ZZN4absl15random_internal15FastUniformBitsINS_7uint128EE8GenerateINS0_17NonsecureURBGBaseINS0_10pcg_engineINS0_13pcg128_paramsILm2549297995355413924ELm4865540595714422341ELm6364136223846793005ELm1442695040888963407EEENS0_17pcg_xsl_rr_128_64EEENS0_17RandenPoolSeedSeqEEEEES2_RT_NS0_17SimplifiedLoopTagEE9kUrbgBits = comdat any

$_ZZN4absl15random_internal15FastUniformBitsINS_7uint128EE8GenerateINS0_17NonsecureURBGBaseINS0_10pcg_engineINS0_13pcg128_paramsILm2549297995355413924ELm4865540595714422341ELm6364136223846793005ELm1442695040888963407EEENS0_17pcg_xsl_rr_128_64EEENS0_17RandenPoolSeedSeqEEEEES2_RT_NS0_17SimplifiedLoopTagEE6kIters = comdat any

$_ZZN4absl15random_internal15FastUniformBitsINS_7uint128EE8GenerateINS0_17NonsecureURBGBaseINS0_10pcg_engineINS0_13pcg128_paramsILm2549297995355413924ELm4865540595714422341ELm6364136223846793005ELm1442695040888963407EEENS0_17pcg_xsl_rr_128_64EEENS0_17RandenPoolSeedSeqEEEEES2_RT_NS0_17SimplifiedLoopTagEE6kShift = comdat any

$_ZZN4absl15random_internal15FastUniformBitsINS_7uint128EE8GenerateINS0_17NonsecureURBGBaseINS0_10pcg_engineINS0_13pcg128_paramsILm2549297995355413924ELm4865540595714422341ELm6364136223846793005ELm1442695040888963407EEENS0_17pcg_xsl_rr_128_64EEENS0_17RandenPoolSeedSeqEEEEES2_RT_NS0_17SimplifiedLoopTagEE4kMin = comdat any

@_ZStL8__ioinit = internal global %"class.std::ios_base::Init" zeroinitializer, align 1
@__dso_handle = external hidden global i8
@_ZN12_GLOBAL__N_133std_mt19937_64_Compatibility_Test10test_info_E = internal global ptr null, align 8
@.str = private unnamed_addr constant [15 x i8] c"std_mt19937_64\00", align 1
@.str.2 = private unnamed_addr constant [14 x i8] c"Compatibility\00", align 1
@.str.3 = private unnamed_addr constant [130 x i8] c"generated/home/dtcxzyw/WorkSpace/Projects/compilers/llvm-opt-benchmark/bench/abseil-cpp/abseil-cpp/absl/random/generators_test.cc\00", align 1
@_ZN12_GLOBAL__N_125BitGen_Compatibility_Test10test_info_E = internal global ptr null, align 8
@.str.5 = private unnamed_addr constant [7 x i8] c"BitGen\00", align 1
@_ZN12_GLOBAL__N_133InsecureBitGen_Compatibility_Test10test_info_E = internal global ptr null, align 8
@.str.7 = private unnamed_addr constant [15 x i8] c"InsecureBitGen\00", align 1
@_ZTVN7testing8internal15TestFactoryImplIN12_GLOBAL__N_133std_mt19937_64_Compatibility_TestEEE = internal unnamed_addr constant { [5 x ptr] } { [5 x ptr] [ptr null, ptr @_ZTIN7testing8internal15TestFactoryImplIN12_GLOBAL__N_133std_mt19937_64_Compatibility_TestEEE, ptr @_ZN7testing8internal15TestFactoryImplIN12_GLOBAL__N_133std_mt19937_64_Compatibility_TestEED2Ev, ptr @_ZN7testing8internal15TestFactoryImplIN12_GLOBAL__N_133std_mt19937_64_Compatibility_TestEED0Ev, ptr @_ZN7testing8internal15TestFactoryImplIN12_GLOBAL__N_133std_mt19937_64_Compatibility_TestEE10CreateTestEv] }, align 8
@_ZTVN10__cxxabiv120__si_class_type_infoE = external global [0 x ptr]
@_ZTSN7testing8internal15TestFactoryImplIN12_GLOBAL__N_133std_mt19937_64_Compatibility_TestEEE = internal constant [90 x i8] c"N7testing8internal15TestFactoryImplIN12_GLOBAL__N_133std_mt19937_64_Compatibility_TestEEE\00", align 1
@_ZTVN10__cxxabiv117__class_type_infoE = external global [0 x ptr]
@_ZTSN7testing8internal15TestFactoryBaseE = linkonce_odr dso_local constant [37 x i8] c"N7testing8internal15TestFactoryBaseE\00", comdat, align 1
@_ZTIN7testing8internal15TestFactoryBaseE = linkonce_odr dso_local constant { ptr, ptr } { ptr getelementptr inbounds (ptr, ptr @_ZTVN10__cxxabiv117__class_type_infoE, i64 2), ptr @_ZTSN7testing8internal15TestFactoryBaseE }, comdat, align 8
@_ZTIN7testing8internal15TestFactoryImplIN12_GLOBAL__N_133std_mt19937_64_Compatibility_TestEEE = internal constant { ptr, ptr, ptr } { ptr getelementptr inbounds (ptr, ptr @_ZTVN10__cxxabiv120__si_class_type_infoE, i64 2), ptr @_ZTSN7testing8internal15TestFactoryImplIN12_GLOBAL__N_133std_mt19937_64_Compatibility_TestEEE, ptr @_ZTIN7testing8internal15TestFactoryBaseE }, align 8
@_ZTVN7testing8internal15TestFactoryBaseE = linkonce_odr dso_local unnamed_addr constant { [5 x ptr] } { [5 x ptr] [ptr null, ptr @_ZTIN7testing8internal15TestFactoryBaseE, ptr @_ZN7testing8internal15TestFactoryBaseD2Ev, ptr @_ZN7testing8internal15TestFactoryBaseD0Ev, ptr @__cxa_pure_virtual] }, comdat, align 8
@_ZTVN12_GLOBAL__N_133std_mt19937_64_Compatibility_TestE = internal unnamed_addr constant { [8 x ptr] } { [8 x ptr] [ptr null, ptr @_ZTIN12_GLOBAL__N_133std_mt19937_64_Compatibility_TestE, ptr @_ZN12_GLOBAL__N_133std_mt19937_64_Compatibility_TestD2Ev, ptr @_ZN12_GLOBAL__N_133std_mt19937_64_Compatibility_TestD0Ev, ptr @_ZN7testing4Test5SetUpEv, ptr @_ZN7testing4Test8TearDownEv, ptr @_ZN12_GLOBAL__N_133std_mt19937_64_Compatibility_Test8TestBodyEv, ptr @_ZN7testing4Test5SetupEv] }, align 8
@_ZTSN12_GLOBAL__N_133std_mt19937_64_Compatibility_TestE = internal constant [52 x i8] c"N12_GLOBAL__N_133std_mt19937_64_Compatibility_TestE\00", align 1
@_ZTIN7testing4TestE = external constant ptr
@_ZTIN12_GLOBAL__N_133std_mt19937_64_Compatibility_TestE = internal constant { ptr, ptr, ptr } { ptr getelementptr inbounds (ptr, ptr @_ZTVN10__cxxabiv120__si_class_type_infoE, i64 2), ptr @_ZTSN12_GLOBAL__N_133std_mt19937_64_Compatibility_TestE, ptr @_ZTIN7testing4TestE }, align 8
@_ZN4absl20IntervalClosedClosedE = linkonce_odr dso_local constant %"struct.absl::IntervalClosedClosedTag" undef, comdat, align 1
@_ZN4absl16IntervalOpenOpenE = linkonce_odr dso_local constant %"struct.absl::IntervalOpenOpenTag" undef, comdat, align 1
@constinit = private constant [5 x i32] [i32 10, i32 20, i32 30, i32 40, i32 50], align 4
@_ZN4absl18IntervalClosedOpenE = linkonce_odr dso_local constant %"struct.absl::IntervalClosedOpenTag" undef, comdat, align 1
@_ZN4absl18IntervalOpenClosedE = linkonce_odr dso_local constant %"struct.absl::IntervalOpenClosedTag" undef, comdat, align 1
@__const._ZN4absl7UniformIiRSt23mersenne_twister_engineImLm64ELm312ELm156ELm31ELm13043109905998158313ELm29ELm6148914691236517205ELm17ELm8202884508482404352ELm37ELm18444473444759240704ELm43ELm6364136223846793005EEEENSt9enable_ifIXntsr3std7is_sameIT_vEE5valueES5_E4typeEOT0_S5_S5_.tag = private unnamed_addr constant %"struct.absl::IntervalClosedOpenTag" undef, align 1
@_ZZN4absl15random_internal15FastUniformBitsIjE8GenerateISt23mersenne_twister_engineImLm64ELm312ELm156ELm31ELm13043109905998158313ELm29ELm6148914691236517205ELm17ELm8202884508482404352ELm37ELm18444473444759240704ELm43ELm6364136223846793005EEEEjRT_NS0_17SimplifiedLoopTagEE11kResultBits = linkonce_odr dso_local constant i64 32, comdat, align 8
@_ZZN4absl15random_internal15FastUniformBitsIjE8GenerateISt23mersenne_twister_engineImLm64ELm312ELm156ELm31ELm13043109905998158313ELm29ELm6148914691236517205ELm17ELm8202884508482404352ELm37ELm18444473444759240704ELm43ELm6364136223846793005EEEEjRT_NS0_17SimplifiedLoopTagEE9kUrbgBits = linkonce_odr dso_local constant i64 64, comdat, align 8
@_ZZN4absl15random_internal15FastUniformBitsIjE8GenerateISt23mersenne_twister_engineImLm64ELm312ELm156ELm31ELm13043109905998158313ELm29ELm6148914691236517205ELm17ELm8202884508482404352ELm37ELm18444473444759240704ELm43ELm6364136223846793005EEEEjRT_NS0_17SimplifiedLoopTagEE6kIters = linkonce_odr dso_local constant i64 1, comdat, align 8
@_ZZN4absl15random_internal15FastUniformBitsIjE8GenerateISt23mersenne_twister_engineImLm64ELm312ELm156ELm31ELm13043109905998158313ELm29ELm6148914691236517205ELm17ELm8202884508482404352ELm37ELm18444473444759240704ELm43ELm6364136223846793005EEEEjRT_NS0_17SimplifiedLoopTagEE6kShift = linkonce_odr dso_local constant i64 0, comdat, align 8
@_ZZN4absl15random_internal15FastUniformBitsIjE8GenerateISt23mersenne_twister_engineImLm64ELm312ELm156ELm31ELm13043109905998158313ELm29ELm6148914691236517205ELm17ELm8202884508482404352ELm37ELm18444473444759240704ELm43ELm6364136223846793005EEEEjRT_NS0_17SimplifiedLoopTagEE4kMin = linkonce_odr dso_local constant i64 0, comdat, align 8
@__const._ZN4absl7UniformIvRSt23mersenne_twister_engineImLm64ELm312ELm156ELm31ELm13043109905998158313ELm29ELm6148914691236517205ELm17ELm8202884508482404352ELm37ELm18444473444759240704ELm43ELm6364136223846793005EEidEENSt9enable_ifIXsr3std7is_sameIT_vEE5valueENS4_IXsr4absl11disjunctionINS_15random_internal23is_widening_convertibleIT1_T2_EENS7_IS9_S8_EEEE5valueENSt11conditionalIXsr23is_widening_convertibleIS8_S9_EE5valueES9_S8_E4typeEE4typeEE4typeEOT0_S8_S9_.tag = private unnamed_addr constant %"struct.absl::IntervalClosedOpenTag" undef, align 1
@_ZZN4absl15random_internal20GenerateRealFromBitsIdNS0_19GeneratePositiveTagELb1EEET_miE4kExp = linkonce_odr dso_local constant i32 52, comdat, align 4
@_ZZN4absl15random_internal20GenerateRealFromBitsIdNS0_19GeneratePositiveTagELb1EEET_miE5kMask = linkonce_odr dso_local constant i64 4503599627370495, comdat, align 8
@_ZZN4absl15random_internal20GenerateRealFromBitsIdNS0_19GeneratePositiveTagELb1EEET_miE9kUintBits = linkonce_odr dso_local constant i32 64, comdat, align 4
@_ZZN4absl15random_internal15FastUniformBitsImE8GenerateISt23mersenne_twister_engineImLm64ELm312ELm156ELm31ELm13043109905998158313ELm29ELm6148914691236517205ELm17ELm8202884508482404352ELm37ELm18444473444759240704ELm43ELm6364136223846793005EEEEmRT_NS0_17SimplifiedLoopTagEE11kResultBits = linkonce_odr dso_local constant i64 64, comdat, align 8
@_ZZN4absl15random_internal15FastUniformBitsImE8GenerateISt23mersenne_twister_engineImLm64ELm312ELm156ELm31ELm13043109905998158313ELm29ELm6148914691236517205ELm17ELm8202884508482404352ELm37ELm18444473444759240704ELm43ELm6364136223846793005EEEEmRT_NS0_17SimplifiedLoopTagEE9kUrbgBits = linkonce_odr dso_local constant i64 64, comdat, align 8
@_ZZN4absl15random_internal15FastUniformBitsImE8GenerateISt23mersenne_twister_engineImLm64ELm312ELm156ELm31ELm13043109905998158313ELm29ELm6148914691236517205ELm17ELm8202884508482404352ELm37ELm18444473444759240704ELm43ELm6364136223846793005EEEEmRT_NS0_17SimplifiedLoopTagEE6kIters = linkonce_odr dso_local constant i64 1, comdat, align 8
@_ZZN4absl15random_internal15FastUniformBitsImE8GenerateISt23mersenne_twister_engineImLm64ELm312ELm156ELm31ELm13043109905998158313ELm29ELm6148914691236517205ELm17ELm8202884508482404352ELm37ELm18444473444759240704ELm43ELm6364136223846793005EEEEmRT_NS0_17SimplifiedLoopTagEE6kShift = linkonce_odr dso_local constant i64 0, comdat, align 8
@_ZZN4absl15random_internal15FastUniformBitsImE8GenerateISt23mersenne_twister_engineImLm64ELm312ELm156ELm31ELm13043109905998158313ELm29ELm6148914691236517205ELm17ELm8202884508482404352ELm37ELm18444473444759240704ELm43ELm6364136223846793005EEEEmRT_NS0_17SimplifiedLoopTagEE4kMin = linkonce_odr dso_local constant i64 0, comdat, align 8
@__const._ZN4absl7UniformIvRSt23mersenne_twister_engineImLm64ELm312ELm156ELm31ELm13043109905998158313ELm29ELm6148914691236517205ELm17ELm8202884508482404352ELm37ELm18444473444759240704ELm43ELm6364136223846793005EEfdEENSt9enable_ifIXsr3std7is_sameIT_vEE5valueENS4_IXsr4absl11disjunctionINS_15random_internal23is_widening_convertibleIT1_T2_EENS7_IS9_S8_EEEE5valueENSt11conditionalIXsr23is_widening_convertibleIS8_S9_EE5valueES9_S8_E4typeEE4typeEE4typeEOT0_S8_S9_.tag = private unnamed_addr constant %"struct.absl::IntervalClosedOpenTag" undef, align 1
@__const._ZN4absl7UniformIdRSt23mersenne_twister_engineImLm64ELm312ELm156ELm31ELm13043109905998158313ELm29ELm6148914691236517205ELm17ELm8202884508482404352ELm37ELm18444473444759240704ELm43ELm6364136223846793005EEEENSt9enable_ifIXntsr3std7is_sameIT_vEE5valueES5_E4typeEOT0_S5_S5_.tag = private unnamed_addr constant %"struct.absl::IntervalClosedOpenTag" undef, align 1
@__const._ZN4absl7UniformIvRSt23mersenne_twister_engineImLm64ELm312ELm156ELm31ELm13043109905998158313ELm29ELm6148914691236517205ELm17ELm8202884508482404352ELm37ELm18444473444759240704ELm43ELm6364136223846793005EEilEENSt9enable_ifIXsr3std7is_sameIT_vEE5valueENS4_IXsr4absl11disjunctionINS_15random_internal23is_widening_convertibleIT1_T2_EENS7_IS9_S8_EEEE5valueENSt11conditionalIXsr23is_widening_convertibleIS8_S9_EE5valueES9_S8_E4typeEE4typeEE4typeEOT0_S8_S9_.tag = private unnamed_addr constant %"struct.absl::IntervalClosedOpenTag" undef, align 1
@.str.8 = private unnamed_addr constant [49 x i8] c"cannot create std::vector larger than max_size()\00", align 1
@__const._ZN4absl7UniformIvRSt23mersenne_twister_engineImLm64ELm312ELm156ELm31ELm13043109905998158313ELm29ELm6148914691236517205ELm17ELm8202884508482404352ELm37ELm18444473444759240704ELm43ELm6364136223846793005EEjmEENSt9enable_ifIXsr3std7is_sameIT_vEE5valueENS4_IXsr4absl11disjunctionINS_15random_internal23is_widening_convertibleIT1_T2_EENS7_IS9_S8_EEEE5valueENSt11conditionalIXsr23is_widening_convertibleIS8_S9_EE5valueES9_S8_E4typeEE4typeEE4typeEOT0_S8_S9_.tag = private unnamed_addr constant %"struct.absl::IntervalClosedOpenTag" undef, align 1
@__const._ZN4absl7UniformImRSt23mersenne_twister_engineImLm64ELm312ELm156ELm31ELm13043109905998158313ELm29ELm6148914691236517205ELm17ELm8202884508482404352ELm37ELm18444473444759240704ELm43ELm6364136223846793005EEEENSt9enable_ifIXntsr3std7is_sameIT_vEE5valueES5_E4typeEOT0_S5_S5_.tag = private unnamed_addr constant %"struct.absl::IntervalClosedOpenTag" undef, align 1
@__const._ZN4absl7UniformIaRSt23mersenne_twister_engineImLm64ELm312ELm156ELm31ELm13043109905998158313ELm29ELm6148914691236517205ELm17ELm8202884508482404352ELm37ELm18444473444759240704ELm43ELm6364136223846793005EEEENSt9enable_ifIXntsr3std7is_sameIT_vEE5valueES5_E4typeEOT0_S5_S5_.tag = private unnamed_addr constant %"struct.absl::IntervalClosedOpenTag" undef, align 1
@_ZZN4absl15random_internal15FastUniformBitsIhE8GenerateISt23mersenne_twister_engineImLm64ELm312ELm156ELm31ELm13043109905998158313ELm29ELm6148914691236517205ELm17ELm8202884508482404352ELm37ELm18444473444759240704ELm43ELm6364136223846793005EEEEhRT_NS0_17SimplifiedLoopTagEE11kResultBits = linkonce_odr dso_local constant i64 8, comdat, align 8
@_ZZN4absl15random_internal15FastUniformBitsIhE8GenerateISt23mersenne_twister_engineImLm64ELm312ELm156ELm31ELm13043109905998158313ELm29ELm6148914691236517205ELm17ELm8202884508482404352ELm37ELm18444473444759240704ELm43ELm6364136223846793005EEEEhRT_NS0_17SimplifiedLoopTagEE9kUrbgBits = linkonce_odr dso_local constant i64 64, comdat, align 8
@_ZZN4absl15random_internal15FastUniformBitsIhE8GenerateISt23mersenne_twister_engineImLm64ELm312ELm156ELm31ELm13043109905998158313ELm29ELm6148914691236517205ELm17ELm8202884508482404352ELm37ELm18444473444759240704ELm43ELm6364136223846793005EEEEhRT_NS0_17SimplifiedLoopTagEE6kIters = linkonce_odr dso_local constant i64 1, comdat, align 8
@_ZZN4absl15random_internal15FastUniformBitsIhE8GenerateISt23mersenne_twister_engineImLm64ELm312ELm156ELm31ELm13043109905998158313ELm29ELm6148914691236517205ELm17ELm8202884508482404352ELm37ELm18444473444759240704ELm43ELm6364136223846793005EEEEhRT_NS0_17SimplifiedLoopTagEE6kShift = linkonce_odr dso_local constant i64 0, comdat, align 8
@_ZZN4absl15random_internal15FastUniformBitsIhE8GenerateISt23mersenne_twister_engineImLm64ELm312ELm156ELm31ELm13043109905998158313ELm29ELm6148914691236517205ELm17ELm8202884508482404352ELm37ELm18444473444759240704ELm43ELm6364136223846793005EEEEhRT_NS0_17SimplifiedLoopTagEE4kMin = linkonce_odr dso_local constant i64 0, comdat, align 8
@__const._ZN4absl7UniformIsRSt23mersenne_twister_engineImLm64ELm312ELm156ELm31ELm13043109905998158313ELm29ELm6148914691236517205ELm17ELm8202884508482404352ELm37ELm18444473444759240704ELm43ELm6364136223846793005EEEENSt9enable_ifIXntsr3std7is_sameIT_vEE5valueES5_E4typeEOT0_S5_S5_.tag = private unnamed_addr constant %"struct.absl::IntervalClosedOpenTag" undef, align 1
@_ZZN4absl15random_internal15FastUniformBitsItE8GenerateISt23mersenne_twister_engineImLm64ELm312ELm156ELm31ELm13043109905998158313ELm29ELm6148914691236517205ELm17ELm8202884508482404352ELm37ELm18444473444759240704ELm43ELm6364136223846793005EEEEtRT_NS0_17SimplifiedLoopTagEE11kResultBits = linkonce_odr dso_local constant i64 16, comdat, align 8
@_ZZN4absl15random_internal15FastUniformBitsItE8GenerateISt23mersenne_twister_engineImLm64ELm312ELm156ELm31ELm13043109905998158313ELm29ELm6148914691236517205ELm17ELm8202884508482404352ELm37ELm18444473444759240704ELm43ELm6364136223846793005EEEEtRT_NS0_17SimplifiedLoopTagEE9kUrbgBits = linkonce_odr dso_local constant i64 64, comdat, align 8
@_ZZN4absl15random_internal15FastUniformBitsItE8GenerateISt23mersenne_twister_engineImLm64ELm312ELm156ELm31ELm13043109905998158313ELm29ELm6148914691236517205ELm17ELm8202884508482404352ELm37ELm18444473444759240704ELm43ELm6364136223846793005EEEEtRT_NS0_17SimplifiedLoopTagEE6kIters = linkonce_odr dso_local constant i64 1, comdat, align 8
@_ZZN4absl15random_internal15FastUniformBitsItE8GenerateISt23mersenne_twister_engineImLm64ELm312ELm156ELm31ELm13043109905998158313ELm29ELm6148914691236517205ELm17ELm8202884508482404352ELm37ELm18444473444759240704ELm43ELm6364136223846793005EEEEtRT_NS0_17SimplifiedLoopTagEE6kShift = linkonce_odr dso_local constant i64 0, comdat, align 8
@_ZZN4absl15random_internal15FastUniformBitsItE8GenerateISt23mersenne_twister_engineImLm64ELm312ELm156ELm31ELm13043109905998158313ELm29ELm6148914691236517205ELm17ELm8202884508482404352ELm37ELm18444473444759240704ELm43ELm6364136223846793005EEEEtRT_NS0_17SimplifiedLoopTagEE4kMin = linkonce_odr dso_local constant i64 0, comdat, align 8
@__const._ZN4absl7UniformItRSt23mersenne_twister_engineImLm64ELm312ELm156ELm31ELm13043109905998158313ELm29ELm6148914691236517205ELm17ELm8202884508482404352ELm37ELm18444473444759240704ELm43ELm6364136223846793005EEEENSt9enable_ifIXntsr3std7is_sameIT_vEE5valueES5_E4typeEOT0_S5_S5_.tag = private unnamed_addr constant %"struct.absl::IntervalClosedOpenTag" undef, align 1
@__const._ZN4absl7UniformIjRSt23mersenne_twister_engineImLm64ELm312ELm156ELm31ELm13043109905998158313ELm29ELm6148914691236517205ELm17ELm8202884508482404352ELm37ELm18444473444759240704ELm43ELm6364136223846793005EEEENSt9enable_ifIXntsr3std7is_sameIT_vEE5valueES5_E4typeEOT0_S5_S5_.tag = private unnamed_addr constant %"struct.absl::IntervalClosedOpenTag" undef, align 1
@__const._ZN4absl7UniformIlRSt23mersenne_twister_engineImLm64ELm312ELm156ELm31ELm13043109905998158313ELm29ELm6148914691236517205ELm17ELm8202884508482404352ELm37ELm18444473444759240704ELm43ELm6364136223846793005EEEENSt9enable_ifIXntsr3std7is_sameIT_vEE5valueES5_E4typeEOT0_S5_S5_.tag = private unnamed_addr constant %"struct.absl::IntervalClosedOpenTag" undef, align 1
@__const._ZN4absl7UniformIfRSt23mersenne_twister_engineImLm64ELm312ELm156ELm31ELm13043109905998158313ELm29ELm6148914691236517205ELm17ELm8202884508482404352ELm37ELm18444473444759240704ELm43ELm6364136223846793005EEEENSt9enable_ifIXntsr3std7is_sameIT_vEE5valueES5_E4typeEOT0_S5_S5_.tag = private unnamed_addr constant %"struct.absl::IntervalClosedOpenTag" undef, align 1
@_ZZN4absl15random_internal20GenerateRealFromBitsIfNS0_19GeneratePositiveTagELb1EEET_miE4kExp = linkonce_odr dso_local constant i32 23, comdat, align 4
@_ZZN4absl15random_internal20GenerateRealFromBitsIfNS0_19GeneratePositiveTagELb1EEET_miE5kMask = linkonce_odr dso_local constant i32 8388607, comdat, align 4
@_ZZN4absl15random_internal20GenerateRealFromBitsIfNS0_19GeneratePositiveTagELb1EEET_miE9kUintBits = linkonce_odr dso_local constant i32 32, comdat, align 4
@__const._ZN4absl7UniformIiSt23mersenne_twister_engineImLm64ELm312ELm156ELm31ELm13043109905998158313ELm29ELm6148914691236517205ELm17ELm8202884508482404352ELm37ELm18444473444759240704ELm43ELm6364136223846793005EEEENSt9enable_ifIXntsr3std7is_sameIT_vEE5valueES4_E4typeEOT0_S4_S4_.tag = private unnamed_addr constant %"struct.absl::IntervalClosedOpenTag" undef, align 1
@__const._ZN4absl7UniformIdSt23mersenne_twister_engineImLm64ELm312ELm156ELm31ELm13043109905998158313ELm29ELm6148914691236517205ELm17ELm8202884508482404352ELm37ELm18444473444759240704ELm43ELm6364136223846793005EEEENSt9enable_ifIXntsr3std7is_sameIT_vEE5valueES4_E4typeEOT0_S4_S4_.tag = private unnamed_addr constant %"struct.absl::IntervalClosedOpenTag" undef, align 1
@_ZZN4absl15random_internal20GenerateRealFromBitsIfNS0_19GenerateNegativeTagELb0EEET_miE4kExp = linkonce_odr dso_local constant i32 23, comdat, align 4
@_ZZN4absl15random_internal20GenerateRealFromBitsIfNS0_19GenerateNegativeTagELb0EEET_miE5kMask = linkonce_odr dso_local constant i32 8388607, comdat, align 4
@_ZZN4absl15random_internal20GenerateRealFromBitsIfNS0_19GenerateNegativeTagELb0EEET_miE9kUintBits = linkonce_odr dso_local constant i32 32, comdat, align 4
@_ZZN4absl15random_internal20GenerateRealFromBitsIdNS0_19GenerateNegativeTagELb0EEET_miE4kExp = linkonce_odr dso_local constant i32 52, comdat, align 4
@_ZZN4absl15random_internal20GenerateRealFromBitsIdNS0_19GenerateNegativeTagELb0EEET_miE5kMask = linkonce_odr dso_local constant i64 4503599627370495, comdat, align 8
@_ZZN4absl15random_internal20GenerateRealFromBitsIdNS0_19GenerateNegativeTagELb0EEET_miE9kUintBits = linkonce_odr dso_local constant i32 64, comdat, align 4
@_ZZN4absl15random_internal20GenerateRealFromBitsIdNS0_19GeneratePositiveTagELb0EEET_miE4kExp = linkonce_odr dso_local constant i32 52, comdat, align 4
@_ZZN4absl15random_internal20GenerateRealFromBitsIdNS0_19GeneratePositiveTagELb0EEET_miE5kMask = linkonce_odr dso_local constant i64 4503599627370495, comdat, align 8
@_ZZN4absl15random_internal20GenerateRealFromBitsIdNS0_19GeneratePositiveTagELb0EEET_miE9kUintBits = linkonce_odr dso_local constant i32 64, comdat, align 4
@_ZZN4absl15random_internal20GenerateRealFromBitsIdNS0_17GenerateSignedTagELb0EEET_miE4kExp = linkonce_odr dso_local constant i32 52, comdat, align 4
@_ZZN4absl15random_internal20GenerateRealFromBitsIdNS0_17GenerateSignedTagELb0EEET_miE5kMask = linkonce_odr dso_local constant i64 4503599627370495, comdat, align 8
@_ZZN4absl15random_internal20GenerateRealFromBitsIdNS0_17GenerateSignedTagELb0EEET_miE9kUintBits = linkonce_odr dso_local constant i32 64, comdat, align 4
@_ZN4absl15random_internal26gaussian_distribution_base3zg_E = external global %"struct.absl::random_internal::gaussian_distribution_base::Tables", align 8
@_ZNSt14numeric_limitsIjE6digitsE = linkonce_odr dso_local constant i32 32, comdat, align 4
@_ZNSt14numeric_limitsIhE6digitsE = linkonce_odr dso_local constant i32 8, comdat, align 4
@_ZNSt14numeric_limitsItE6digitsE = linkonce_odr dso_local constant i32 16, comdat, align 4
@_ZNSt14numeric_limitsImE6digitsE = linkonce_odr dso_local constant i32 64, comdat, align 4
@_ZNSt14numeric_limitsIN4absl7uint128EE6digitsE = linkonce_odr dso_local constant i32 128, comdat, align 4
@_ZZN4absl15random_internal15FastUniformBitsINS_7uint128EE8GenerateISt23mersenne_twister_engineImLm64ELm312ELm156ELm31ELm13043109905998158313ELm29ELm6148914691236517205ELm17ELm8202884508482404352ELm37ELm18444473444759240704ELm43ELm6364136223846793005EEEES2_RT_NS0_17SimplifiedLoopTagEE11kResultBits = linkonce_odr dso_local constant i64 128, comdat, align 8
@_ZZN4absl15random_internal15FastUniformBitsINS_7uint128EE8GenerateISt23mersenne_twister_engineImLm64ELm312ELm156ELm31ELm13043109905998158313ELm29ELm6148914691236517205ELm17ELm8202884508482404352ELm37ELm18444473444759240704ELm43ELm6364136223846793005EEEES2_RT_NS0_17SimplifiedLoopTagEE9kUrbgBits = linkonce_odr dso_local constant i64 64, comdat, align 8
@_ZZN4absl15random_internal15FastUniformBitsINS_7uint128EE8GenerateISt23mersenne_twister_engineImLm64ELm312ELm156ELm31ELm13043109905998158313ELm29ELm6148914691236517205ELm17ELm8202884508482404352ELm37ELm18444473444759240704ELm43ELm6364136223846793005EEEES2_RT_NS0_17SimplifiedLoopTagEE6kIters = linkonce_odr dso_local constant i64 2, comdat, align 8
@_ZZN4absl15random_internal15FastUniformBitsINS_7uint128EE8GenerateISt23mersenne_twister_engineImLm64ELm312ELm156ELm31ELm13043109905998158313ELm29ELm6148914691236517205ELm17ELm8202884508482404352ELm37ELm18444473444759240704ELm43ELm6364136223846793005EEEES2_RT_NS0_17SimplifiedLoopTagEE6kShift = linkonce_odr dso_local constant i64 64, comdat, align 8
@_ZZN4absl15random_internal15FastUniformBitsINS_7uint128EE8GenerateISt23mersenne_twister_engineImLm64ELm312ELm156ELm31ELm13043109905998158313ELm29ELm6148914691236517205ELm17ELm8202884508482404352ELm37ELm18444473444759240704ELm43ELm6364136223846793005EEEES2_RT_NS0_17SimplifiedLoopTagEE4kMin = linkonce_odr dso_local constant i64 0, comdat, align 8
@_ZTVN7testing8internal15TestFactoryImplIN12_GLOBAL__N_125BitGen_Compatibility_TestEEE = internal unnamed_addr constant { [5 x ptr] } { [5 x ptr] [ptr null, ptr @_ZTIN7testing8internal15TestFactoryImplIN12_GLOBAL__N_125BitGen_Compatibility_TestEEE, ptr @_ZN7testing8internal15TestFactoryImplIN12_GLOBAL__N_125BitGen_Compatibility_TestEED2Ev, ptr @_ZN7testing8internal15TestFactoryImplIN12_GLOBAL__N_125BitGen_Compatibility_TestEED0Ev, ptr @_ZN7testing8internal15TestFactoryImplIN12_GLOBAL__N_125BitGen_Compatibility_TestEE10CreateTestEv] }, align 8
@_ZTSN7testing8internal15TestFactoryImplIN12_GLOBAL__N_125BitGen_Compatibility_TestEEE = internal constant [82 x i8] c"N7testing8internal15TestFactoryImplIN12_GLOBAL__N_125BitGen_Compatibility_TestEEE\00", align 1
@_ZTIN7testing8internal15TestFactoryImplIN12_GLOBAL__N_125BitGen_Compatibility_TestEEE = internal constant { ptr, ptr, ptr } { ptr getelementptr inbounds (ptr, ptr @_ZTVN10__cxxabiv120__si_class_type_infoE, i64 2), ptr @_ZTSN7testing8internal15TestFactoryImplIN12_GLOBAL__N_125BitGen_Compatibility_TestEEE, ptr @_ZTIN7testing8internal15TestFactoryBaseE }, align 8
@_ZTVN12_GLOBAL__N_125BitGen_Compatibility_TestE = internal unnamed_addr constant { [8 x ptr] } { [8 x ptr] [ptr null, ptr @_ZTIN12_GLOBAL__N_125BitGen_Compatibility_TestE, ptr @_ZN12_GLOBAL__N_125BitGen_Compatibility_TestD2Ev, ptr @_ZN12_GLOBAL__N_125BitGen_Compatibility_TestD0Ev, ptr @_ZN7testing4Test5SetUpEv, ptr @_ZN7testing4Test8TearDownEv, ptr @_ZN12_GLOBAL__N_125BitGen_Compatibility_Test8TestBodyEv, ptr @_ZN7testing4Test5SetupEv] }, align 8
@_ZTSN12_GLOBAL__N_125BitGen_Compatibility_TestE = internal constant [44 x i8] c"N12_GLOBAL__N_125BitGen_Compatibility_TestE\00", align 1
@_ZTIN12_GLOBAL__N_125BitGen_Compatibility_TestE = internal constant { ptr, ptr, ptr } { ptr getelementptr inbounds (ptr, ptr @_ZTVN10__cxxabiv120__si_class_type_infoE, i64 2), ptr @_ZTSN12_GLOBAL__N_125BitGen_Compatibility_TestE, ptr @_ZTIN7testing4TestE }, align 8
@constinit.9 = private constant [5 x i32] [i32 10, i32 20, i32 30, i32 40, i32 50], align 4
@__const._ZN4absl7UniformIiRNS_15random_internal17NonsecureURBGBaseINS1_13randen_engineImEENS1_17RandenPoolSeedSeqEEEEENSt9enable_ifIXntsr3std7is_sameIT_vEE5valueES9_E4typeEOT0_S9_S9_.tag = private unnamed_addr constant %"struct.absl::IntervalClosedOpenTag" undef, align 1
@_ZZN4absl15random_internal15FastUniformBitsIjE8GenerateINS0_17NonsecureURBGBaseINS0_13randen_engineImEENS0_17RandenPoolSeedSeqEEEEEjRT_NS0_17SimplifiedLoopTagEE11kResultBits = linkonce_odr dso_local constant i64 32, comdat, align 8
@_ZZN4absl15random_internal15FastUniformBitsIjE8GenerateINS0_17NonsecureURBGBaseINS0_13randen_engineImEENS0_17RandenPoolSeedSeqEEEEEjRT_NS0_17SimplifiedLoopTagEE9kUrbgBits = linkonce_odr dso_local constant i64 64, comdat, align 8
@_ZZN4absl15random_internal15FastUniformBitsIjE8GenerateINS0_17NonsecureURBGBaseINS0_13randen_engineImEENS0_17RandenPoolSeedSeqEEEEEjRT_NS0_17SimplifiedLoopTagEE6kIters = linkonce_odr dso_local constant i64 1, comdat, align 8
@_ZZN4absl15random_internal15FastUniformBitsIjE8GenerateINS0_17NonsecureURBGBaseINS0_13randen_engineImEENS0_17RandenPoolSeedSeqEEEEEjRT_NS0_17SimplifiedLoopTagEE6kShift = linkonce_odr dso_local constant i64 0, comdat, align 8
@_ZZN4absl15random_internal15FastUniformBitsIjE8GenerateINS0_17NonsecureURBGBaseINS0_13randen_engineImEENS0_17RandenPoolSeedSeqEEEEEjRT_NS0_17SimplifiedLoopTagEE4kMin = linkonce_odr dso_local constant i64 0, comdat, align 8
@__const._ZN4absl7UniformIvRNS_15random_internal17NonsecureURBGBaseINS1_13randen_engineImEENS1_17RandenPoolSeedSeqEEEidEENSt9enable_ifIXsr3std7is_sameIT_vEE5valueENS8_IXsr4absl11disjunctionINS1_23is_widening_convertibleIT1_T2_EENSA_ISC_SB_EEEE5valueENSt11conditionalIXsr23is_widening_convertibleISB_SC_EE5valueESC_SB_E4typeEE4typeEE4typeEOT0_SB_SC_.tag = private unnamed_addr constant %"struct.absl::IntervalClosedOpenTag" undef, align 1
@_ZZN4absl15random_internal15FastUniformBitsImE8GenerateINS0_17NonsecureURBGBaseINS0_13randen_engineImEENS0_17RandenPoolSeedSeqEEEEEmRT_NS0_17SimplifiedLoopTagEE11kResultBits = linkonce_odr dso_local constant i64 64, comdat, align 8
@_ZZN4absl15random_internal15FastUniformBitsImE8GenerateINS0_17NonsecureURBGBaseINS0_13randen_engineImEENS0_17RandenPoolSeedSeqEEEEEmRT_NS0_17SimplifiedLoopTagEE9kUrbgBits = linkonce_odr dso_local constant i64 64, comdat, align 8
@_ZZN4absl15random_internal15FastUniformBitsImE8GenerateINS0_17NonsecureURBGBaseINS0_13randen_engineImEENS0_17RandenPoolSeedSeqEEEEEmRT_NS0_17SimplifiedLoopTagEE6kIters = linkonce_odr dso_local constant i64 1, comdat, align 8
@_ZZN4absl15random_internal15FastUniformBitsImE8GenerateINS0_17NonsecureURBGBaseINS0_13randen_engineImEENS0_17RandenPoolSeedSeqEEEEEmRT_NS0_17SimplifiedLoopTagEE6kShift = linkonce_odr dso_local constant i64 0, comdat, align 8
@_ZZN4absl15random_internal15FastUniformBitsImE8GenerateINS0_17NonsecureURBGBaseINS0_13randen_engineImEENS0_17RandenPoolSeedSeqEEEEEmRT_NS0_17SimplifiedLoopTagEE4kMin = linkonce_odr dso_local constant i64 0, comdat, align 8
@__const._ZN4absl7UniformIvRNS_15random_internal17NonsecureURBGBaseINS1_13randen_engineImEENS1_17RandenPoolSeedSeqEEEfdEENSt9enable_ifIXsr3std7is_sameIT_vEE5valueENS8_IXsr4absl11disjunctionINS1_23is_widening_convertibleIT1_T2_EENSA_ISC_SB_EEEE5valueENSt11conditionalIXsr23is_widening_convertibleISB_SC_EE5valueESC_SB_E4typeEE4typeEE4typeEOT0_SB_SC_.tag = private unnamed_addr constant %"struct.absl::IntervalClosedOpenTag" undef, align 1
@__const._ZN4absl7UniformIdRNS_15random_internal17NonsecureURBGBaseINS1_13randen_engineImEENS1_17RandenPoolSeedSeqEEEEENSt9enable_ifIXntsr3std7is_sameIT_vEE5valueES9_E4typeEOT0_S9_S9_.tag = private unnamed_addr constant %"struct.absl::IntervalClosedOpenTag" undef, align 1
@__const._ZN4absl7UniformIvRNS_15random_internal17NonsecureURBGBaseINS1_13randen_engineImEENS1_17RandenPoolSeedSeqEEEilEENSt9enable_ifIXsr3std7is_sameIT_vEE5valueENS8_IXsr4absl11disjunctionINS1_23is_widening_convertibleIT1_T2_EENSA_ISC_SB_EEEE5valueENSt11conditionalIXsr23is_widening_convertibleISB_SC_EE5valueESC_SB_E4typeEE4typeEE4typeEOT0_SB_SC_.tag = private unnamed_addr constant %"struct.absl::IntervalClosedOpenTag" undef, align 1
@__const._ZN4absl7UniformIvRNS_15random_internal17NonsecureURBGBaseINS1_13randen_engineImEENS1_17RandenPoolSeedSeqEEEjmEENSt9enable_ifIXsr3std7is_sameIT_vEE5valueENS8_IXsr4absl11disjunctionINS1_23is_widening_convertibleIT1_T2_EENSA_ISC_SB_EEEE5valueENSt11conditionalIXsr23is_widening_convertibleISB_SC_EE5valueESC_SB_E4typeEE4typeEE4typeEOT0_SB_SC_.tag = private unnamed_addr constant %"struct.absl::IntervalClosedOpenTag" undef, align 1
@__const._ZN4absl7UniformImRNS_15random_internal17NonsecureURBGBaseINS1_13randen_engineImEENS1_17RandenPoolSeedSeqEEEEENSt9enable_ifIXntsr3std7is_sameIT_vEE5valueES9_E4typeEOT0_S9_S9_.tag = private unnamed_addr constant %"struct.absl::IntervalClosedOpenTag" undef, align 1
@__const._ZN4absl7UniformIaRNS_15random_internal17NonsecureURBGBaseINS1_13randen_engineImEENS1_17RandenPoolSeedSeqEEEEENSt9enable_ifIXntsr3std7is_sameIT_vEE5valueES9_E4typeEOT0_S9_S9_.tag = private unnamed_addr constant %"struct.absl::IntervalClosedOpenTag" undef, align 1
@_ZZN4absl15random_internal15FastUniformBitsIhE8GenerateINS0_17NonsecureURBGBaseINS0_13randen_engineImEENS0_17RandenPoolSeedSeqEEEEEhRT_NS0_17SimplifiedLoopTagEE11kResultBits = linkonce_odr dso_local constant i64 8, comdat, align 8
@_ZZN4absl15random_internal15FastUniformBitsIhE8GenerateINS0_17NonsecureURBGBaseINS0_13randen_engineImEENS0_17RandenPoolSeedSeqEEEEEhRT_NS0_17SimplifiedLoopTagEE9kUrbgBits = linkonce_odr dso_local constant i64 64, comdat, align 8
@_ZZN4absl15random_internal15FastUniformBitsIhE8GenerateINS0_17NonsecureURBGBaseINS0_13randen_engineImEENS0_17RandenPoolSeedSeqEEEEEhRT_NS0_17SimplifiedLoopTagEE6kIters = linkonce_odr dso_local constant i64 1, comdat, align 8
@_ZZN4absl15random_internal15FastUniformBitsIhE8GenerateINS0_17NonsecureURBGBaseINS0_13randen_engineImEENS0_17RandenPoolSeedSeqEEEEEhRT_NS0_17SimplifiedLoopTagEE6kShift = linkonce_odr dso_local constant i64 0, comdat, align 8
@_ZZN4absl15random_internal15FastUniformBitsIhE8GenerateINS0_17NonsecureURBGBaseINS0_13randen_engineImEENS0_17RandenPoolSeedSeqEEEEEhRT_NS0_17SimplifiedLoopTagEE4kMin = linkonce_odr dso_local constant i64 0, comdat, align 8
@__const._ZN4absl7UniformIsRNS_15random_internal17NonsecureURBGBaseINS1_13randen_engineImEENS1_17RandenPoolSeedSeqEEEEENSt9enable_ifIXntsr3std7is_sameIT_vEE5valueES9_E4typeEOT0_S9_S9_.tag = private unnamed_addr constant %"struct.absl::IntervalClosedOpenTag" undef, align 1
@_ZZN4absl15random_internal15FastUniformBitsItE8GenerateINS0_17NonsecureURBGBaseINS0_13randen_engineImEENS0_17RandenPoolSeedSeqEEEEEtRT_NS0_17SimplifiedLoopTagEE11kResultBits = linkonce_odr dso_local constant i64 16, comdat, align 8
@_ZZN4absl15random_internal15FastUniformBitsItE8GenerateINS0_17NonsecureURBGBaseINS0_13randen_engineImEENS0_17RandenPoolSeedSeqEEEEEtRT_NS0_17SimplifiedLoopTagEE9kUrbgBits = linkonce_odr dso_local constant i64 64, comdat, align 8
@_ZZN4absl15random_internal15FastUniformBitsItE8GenerateINS0_17NonsecureURBGBaseINS0_13randen_engineImEENS0_17RandenPoolSeedSeqEEEEEtRT_NS0_17SimplifiedLoopTagEE6kIters = linkonce_odr dso_local constant i64 1, comdat, align 8
@_ZZN4absl15random_internal15FastUniformBitsItE8GenerateINS0_17NonsecureURBGBaseINS0_13randen_engineImEENS0_17RandenPoolSeedSeqEEEEEtRT_NS0_17SimplifiedLoopTagEE6kShift = linkonce_odr dso_local constant i64 0, comdat, align 8
@_ZZN4absl15random_internal15FastUniformBitsItE8GenerateINS0_17NonsecureURBGBaseINS0_13randen_engineImEENS0_17RandenPoolSeedSeqEEEEEtRT_NS0_17SimplifiedLoopTagEE4kMin = linkonce_odr dso_local constant i64 0, comdat, align 8
@__const._ZN4absl7UniformItRNS_15random_internal17NonsecureURBGBaseINS1_13randen_engineImEENS1_17RandenPoolSeedSeqEEEEENSt9enable_ifIXntsr3std7is_sameIT_vEE5valueES9_E4typeEOT0_S9_S9_.tag = private unnamed_addr constant %"struct.absl::IntervalClosedOpenTag" undef, align 1
@__const._ZN4absl7UniformIjRNS_15random_internal17NonsecureURBGBaseINS1_13randen_engineImEENS1_17RandenPoolSeedSeqEEEEENSt9enable_ifIXntsr3std7is_sameIT_vEE5valueES9_E4typeEOT0_S9_S9_.tag = private unnamed_addr constant %"struct.absl::IntervalClosedOpenTag" undef, align 1
@__const._ZN4absl7UniformIlRNS_15random_internal17NonsecureURBGBaseINS1_13randen_engineImEENS1_17RandenPoolSeedSeqEEEEENSt9enable_ifIXntsr3std7is_sameIT_vEE5valueES9_E4typeEOT0_S9_S9_.tag = private unnamed_addr constant %"struct.absl::IntervalClosedOpenTag" undef, align 1
@__const._ZN4absl7UniformIfRNS_15random_internal17NonsecureURBGBaseINS1_13randen_engineImEENS1_17RandenPoolSeedSeqEEEEENSt9enable_ifIXntsr3std7is_sameIT_vEE5valueES9_E4typeEOT0_S9_S9_.tag = private unnamed_addr constant %"struct.absl::IntervalClosedOpenTag" undef, align 1
@__const._ZN4absl7UniformIiNS_15random_internal17NonsecureURBGBaseINS1_13randen_engineImEENS1_17RandenPoolSeedSeqEEEEENSt9enable_ifIXntsr3std7is_sameIT_vEE5valueES8_E4typeEOT0_S8_S8_.tag = private unnamed_addr constant %"struct.absl::IntervalClosedOpenTag" undef, align 1
@__const._ZN4absl7UniformIdNS_15random_internal17NonsecureURBGBaseINS1_13randen_engineImEENS1_17RandenPoolSeedSeqEEEEENSt9enable_ifIXntsr3std7is_sameIT_vEE5valueES8_E4typeEOT0_S8_S8_.tag = private unnamed_addr constant %"struct.absl::IntervalClosedOpenTag" undef, align 1
@_ZZN4absl15random_internal15FastUniformBitsINS_7uint128EE8GenerateINS0_17NonsecureURBGBaseINS0_13randen_engineImEENS0_17RandenPoolSeedSeqEEEEES2_RT_NS0_17SimplifiedLoopTagEE11kResultBits = linkonce_odr dso_local constant i64 128, comdat, align 8
@_ZZN4absl15random_internal15FastUniformBitsINS_7uint128EE8GenerateINS0_17NonsecureURBGBaseINS0_13randen_engineImEENS0_17RandenPoolSeedSeqEEEEES2_RT_NS0_17SimplifiedLoopTagEE9kUrbgBits = linkonce_odr dso_local constant i64 64, comdat, align 8
@_ZZN4absl15random_internal15FastUniformBitsINS_7uint128EE8GenerateINS0_17NonsecureURBGBaseINS0_13randen_engineImEENS0_17RandenPoolSeedSeqEEEEES2_RT_NS0_17SimplifiedLoopTagEE6kIters = linkonce_odr dso_local constant i64 2, comdat, align 8
@_ZZN4absl15random_internal15FastUniformBitsINS_7uint128EE8GenerateINS0_17NonsecureURBGBaseINS0_13randen_engineImEENS0_17RandenPoolSeedSeqEEEEES2_RT_NS0_17SimplifiedLoopTagEE6kShift = linkonce_odr dso_local constant i64 64, comdat, align 8
@_ZZN4absl15random_internal15FastUniformBitsINS_7uint128EE8GenerateINS0_17NonsecureURBGBaseINS0_13randen_engineImEENS0_17RandenPoolSeedSeqEEEEES2_RT_NS0_17SimplifiedLoopTagEE4kMin = linkonce_odr dso_local constant i64 0, comdat, align 8
@_ZTVN7testing8internal15TestFactoryImplIN12_GLOBAL__N_133InsecureBitGen_Compatibility_TestEEE = internal unnamed_addr constant { [5 x ptr] } { [5 x ptr] [ptr null, ptr @_ZTIN7testing8internal15TestFactoryImplIN12_GLOBAL__N_133InsecureBitGen_Compatibility_TestEEE, ptr @_ZN7testing8internal15TestFactoryImplIN12_GLOBAL__N_133InsecureBitGen_Compatibility_TestEED2Ev, ptr @_ZN7testing8internal15TestFactoryImplIN12_GLOBAL__N_133InsecureBitGen_Compatibility_TestEED0Ev, ptr @_ZN7testing8internal15TestFactoryImplIN12_GLOBAL__N_133InsecureBitGen_Compatibility_TestEE10CreateTestEv] }, align 8
@_ZTSN7testing8internal15TestFactoryImplIN12_GLOBAL__N_133InsecureBitGen_Compatibility_TestEEE = internal constant [90 x i8] c"N7testing8internal15TestFactoryImplIN12_GLOBAL__N_133InsecureBitGen_Compatibility_TestEEE\00", align 1
@_ZTIN7testing8internal15TestFactoryImplIN12_GLOBAL__N_133InsecureBitGen_Compatibility_TestEEE = internal constant { ptr, ptr, ptr } { ptr getelementptr inbounds (ptr, ptr @_ZTVN10__cxxabiv120__si_class_type_infoE, i64 2), ptr @_ZTSN7testing8internal15TestFactoryImplIN12_GLOBAL__N_133InsecureBitGen_Compatibility_TestEEE, ptr @_ZTIN7testing8internal15TestFactoryBaseE }, align 8
@_ZTVN12_GLOBAL__N_133InsecureBitGen_Compatibility_TestE = internal unnamed_addr constant { [8 x ptr] } { [8 x ptr] [ptr null, ptr @_ZTIN12_GLOBAL__N_133InsecureBitGen_Compatibility_TestE, ptr @_ZN12_GLOBAL__N_133InsecureBitGen_Compatibility_TestD2Ev, ptr @_ZN12_GLOBAL__N_133InsecureBitGen_Compatibility_TestD0Ev, ptr @_ZN7testing4Test5SetUpEv, ptr @_ZN7testing4Test8TearDownEv, ptr @_ZN12_GLOBAL__N_133InsecureBitGen_Compatibility_Test8TestBodyEv, ptr @_ZN7testing4Test5SetupEv] }, align 8
@_ZTSN12_GLOBAL__N_133InsecureBitGen_Compatibility_TestE = internal constant [52 x i8] c"N12_GLOBAL__N_133InsecureBitGen_Compatibility_TestE\00", align 1
@_ZTIN12_GLOBAL__N_133InsecureBitGen_Compatibility_TestE = internal constant { ptr, ptr, ptr } { ptr getelementptr inbounds (ptr, ptr @_ZTVN10__cxxabiv120__si_class_type_infoE, i64 2), ptr @_ZTSN12_GLOBAL__N_133InsecureBitGen_Compatibility_TestE, ptr @_ZTIN7testing4TestE }, align 8
@constinit.10 = private constant [5 x i32] [i32 10, i32 20, i32 30, i32 40, i32 50], align 4
@__const._ZN4absl7UniformIiRNS_15random_internal17NonsecureURBGBaseINS1_10pcg_engineINS1_13pcg128_paramsILm2549297995355413924ELm4865540595714422341ELm6364136223846793005ELm1442695040888963407EEENS1_17pcg_xsl_rr_128_64EEENS1_17RandenPoolSeedSeqEEEEENSt9enable_ifIXntsr3std7is_sameIT_vEE5valueESC_E4typeEOT0_SC_SC_.tag = private unnamed_addr constant %"struct.absl::IntervalClosedOpenTag" undef, align 1
@_ZZN4absl15random_internal15FastUniformBitsIjE8GenerateINS0_17NonsecureURBGBaseINS0_10pcg_engineINS0_13pcg128_paramsILm2549297995355413924ELm4865540595714422341ELm6364136223846793005ELm1442695040888963407EEENS0_17pcg_xsl_rr_128_64EEENS0_17RandenPoolSeedSeqEEEEEjRT_NS0_17SimplifiedLoopTagEE11kResultBits = linkonce_odr dso_local constant i64 32, comdat, align 8
@_ZZN4absl15random_internal15FastUniformBitsIjE8GenerateINS0_17NonsecureURBGBaseINS0_10pcg_engineINS0_13pcg128_paramsILm2549297995355413924ELm4865540595714422341ELm6364136223846793005ELm1442695040888963407EEENS0_17pcg_xsl_rr_128_64EEENS0_17RandenPoolSeedSeqEEEEEjRT_NS0_17SimplifiedLoopTagEE9kUrbgBits = linkonce_odr dso_local constant i64 64, comdat, align 8
@_ZZN4absl15random_internal15FastUniformBitsIjE8GenerateINS0_17NonsecureURBGBaseINS0_10pcg_engineINS0_13pcg128_paramsILm2549297995355413924ELm4865540595714422341ELm6364136223846793005ELm1442695040888963407EEENS0_17pcg_xsl_rr_128_64EEENS0_17RandenPoolSeedSeqEEEEEjRT_NS0_17SimplifiedLoopTagEE6kIters = linkonce_odr dso_local constant i64 1, comdat, align 8
@_ZZN4absl15random_internal15FastUniformBitsIjE8GenerateINS0_17NonsecureURBGBaseINS0_10pcg_engineINS0_13pcg128_paramsILm2549297995355413924ELm4865540595714422341ELm6364136223846793005ELm1442695040888963407EEENS0_17pcg_xsl_rr_128_64EEENS0_17RandenPoolSeedSeqEEEEEjRT_NS0_17SimplifiedLoopTagEE6kShift = linkonce_odr dso_local constant i64 0, comdat, align 8
@_ZZN4absl15random_internal15FastUniformBitsIjE8GenerateINS0_17NonsecureURBGBaseINS0_10pcg_engineINS0_13pcg128_paramsILm2549297995355413924ELm4865540595714422341ELm6364136223846793005ELm1442695040888963407EEENS0_17pcg_xsl_rr_128_64EEENS0_17RandenPoolSeedSeqEEEEEjRT_NS0_17SimplifiedLoopTagEE4kMin = linkonce_odr dso_local constant i64 0, comdat, align 8
@__const._ZN4absl7UniformIvRNS_15random_internal17NonsecureURBGBaseINS1_10pcg_engineINS1_13pcg128_paramsILm2549297995355413924ELm4865540595714422341ELm6364136223846793005ELm1442695040888963407EEENS1_17pcg_xsl_rr_128_64EEENS1_17RandenPoolSeedSeqEEEidEENSt9enable_ifIXsr3std7is_sameIT_vEE5valueENSB_IXsr4absl11disjunctionINS1_23is_widening_convertibleIT1_T2_EENSD_ISF_SE_EEEE5valueENSt11conditionalIXsr23is_widening_convertibleISE_SF_EE5valueESF_SE_E4typeEE4typeEE4typeEOT0_SE_SF_.tag = private unnamed_addr constant %"struct.absl::IntervalClosedOpenTag" undef, align 1
@_ZZN4absl15random_internal15FastUniformBitsImE8GenerateINS0_17NonsecureURBGBaseINS0_10pcg_engineINS0_13pcg128_paramsILm2549297995355413924ELm4865540595714422341ELm6364136223846793005ELm1442695040888963407EEENS0_17pcg_xsl_rr_128_64EEENS0_17RandenPoolSeedSeqEEEEEmRT_NS0_17SimplifiedLoopTagEE11kResultBits = linkonce_odr dso_local constant i64 64, comdat, align 8
@_ZZN4absl15random_internal15FastUniformBitsImE8GenerateINS0_17NonsecureURBGBaseINS0_10pcg_engineINS0_13pcg128_paramsILm2549297995355413924ELm4865540595714422341ELm6364136223846793005ELm1442695040888963407EEENS0_17pcg_xsl_rr_128_64EEENS0_17RandenPoolSeedSeqEEEEEmRT_NS0_17SimplifiedLoopTagEE9kUrbgBits = linkonce_odr dso_local constant i64 64, comdat, align 8
@_ZZN4absl15random_internal15FastUniformBitsImE8GenerateINS0_17NonsecureURBGBaseINS0_10pcg_engineINS0_13pcg128_paramsILm2549297995355413924ELm4865540595714422341ELm6364136223846793005ELm1442695040888963407EEENS0_17pcg_xsl_rr_128_64EEENS0_17RandenPoolSeedSeqEEEEEmRT_NS0_17SimplifiedLoopTagEE6kIters = linkonce_odr dso_local constant i64 1, comdat, align 8
@_ZZN4absl15random_internal15FastUniformBitsImE8GenerateINS0_17NonsecureURBGBaseINS0_10pcg_engineINS0_13pcg128_paramsILm2549297995355413924ELm4865540595714422341ELm6364136223846793005ELm1442695040888963407EEENS0_17pcg_xsl_rr_128_64EEENS0_17RandenPoolSeedSeqEEEEEmRT_NS0_17SimplifiedLoopTagEE6kShift = linkonce_odr dso_local constant i64 0, comdat, align 8
@_ZZN4absl15random_internal15FastUniformBitsImE8GenerateINS0_17NonsecureURBGBaseINS0_10pcg_engineINS0_13pcg128_paramsILm2549297995355413924ELm4865540595714422341ELm6364136223846793005ELm1442695040888963407EEENS0_17pcg_xsl_rr_128_64EEENS0_17RandenPoolSeedSeqEEEEEmRT_NS0_17SimplifiedLoopTagEE4kMin = linkonce_odr dso_local constant i64 0, comdat, align 8
@__const._ZN4absl7UniformIvRNS_15random_internal17NonsecureURBGBaseINS1_10pcg_engineINS1_13pcg128_paramsILm2549297995355413924ELm4865540595714422341ELm6364136223846793005ELm1442695040888963407EEENS1_17pcg_xsl_rr_128_64EEENS1_17RandenPoolSeedSeqEEEfdEENSt9enable_ifIXsr3std7is_sameIT_vEE5valueENSB_IXsr4absl11disjunctionINS1_23is_widening_convertibleIT1_T2_EENSD_ISF_SE_EEEE5valueENSt11conditionalIXsr23is_widening_convertibleISE_SF_EE5valueESF_SE_E4typeEE4typeEE4typeEOT0_SE_SF_.tag = private unnamed_addr constant %"struct.absl::IntervalClosedOpenTag" undef, align 1
@__const._ZN4absl7UniformIdRNS_15random_internal17NonsecureURBGBaseINS1_10pcg_engineINS1_13pcg128_paramsILm2549297995355413924ELm4865540595714422341ELm6364136223846793005ELm1442695040888963407EEENS1_17pcg_xsl_rr_128_64EEENS1_17RandenPoolSeedSeqEEEEENSt9enable_ifIXntsr3std7is_sameIT_vEE5valueESC_E4typeEOT0_SC_SC_.tag = private unnamed_addr constant %"struct.absl::IntervalClosedOpenTag" undef, align 1
@__const._ZN4absl7UniformIvRNS_15random_internal17NonsecureURBGBaseINS1_10pcg_engineINS1_13pcg128_paramsILm2549297995355413924ELm4865540595714422341ELm6364136223846793005ELm1442695040888963407EEENS1_17pcg_xsl_rr_128_64EEENS1_17RandenPoolSeedSeqEEEilEENSt9enable_ifIXsr3std7is_sameIT_vEE5valueENSB_IXsr4absl11disjunctionINS1_23is_widening_convertibleIT1_T2_EENSD_ISF_SE_EEEE5valueENSt11conditionalIXsr23is_widening_convertibleISE_SF_EE5valueESF_SE_E4typeEE4typeEE4typeEOT0_SE_SF_.tag = private unnamed_addr constant %"struct.absl::IntervalClosedOpenTag" undef, align 1
@__const._ZN4absl7UniformIvRNS_15random_internal17NonsecureURBGBaseINS1_10pcg_engineINS1_13pcg128_paramsILm2549297995355413924ELm4865540595714422341ELm6364136223846793005ELm1442695040888963407EEENS1_17pcg_xsl_rr_128_64EEENS1_17RandenPoolSeedSeqEEEjmEENSt9enable_ifIXsr3std7is_sameIT_vEE5valueENSB_IXsr4absl11disjunctionINS1_23is_widening_convertibleIT1_T2_EENSD_ISF_SE_EEEE5valueENSt11conditionalIXsr23is_widening_convertibleISE_SF_EE5valueESF_SE_E4typeEE4typeEE4typeEOT0_SE_SF_.tag = private unnamed_addr constant %"struct.absl::IntervalClosedOpenTag" undef, align 1
@__const._ZN4absl7UniformImRNS_15random_internal17NonsecureURBGBaseINS1_10pcg_engineINS1_13pcg128_paramsILm2549297995355413924ELm4865540595714422341ELm6364136223846793005ELm1442695040888963407EEENS1_17pcg_xsl_rr_128_64EEENS1_17RandenPoolSeedSeqEEEEENSt9enable_ifIXntsr3std7is_sameIT_vEE5valueESC_E4typeEOT0_SC_SC_.tag = private unnamed_addr constant %"struct.absl::IntervalClosedOpenTag" undef, align 1
@__const._ZN4absl7UniformIaRNS_15random_internal17NonsecureURBGBaseINS1_10pcg_engineINS1_13pcg128_paramsILm2549297995355413924ELm4865540595714422341ELm6364136223846793005ELm1442695040888963407EEENS1_17pcg_xsl_rr_128_64EEENS1_17RandenPoolSeedSeqEEEEENSt9enable_ifIXntsr3std7is_sameIT_vEE5valueESC_E4typeEOT0_SC_SC_.tag = private unnamed_addr constant %"struct.absl::IntervalClosedOpenTag" undef, align 1
@_ZZN4absl15random_internal15FastUniformBitsIhE8GenerateINS0_17NonsecureURBGBaseINS0_10pcg_engineINS0_13pcg128_paramsILm2549297995355413924ELm4865540595714422341ELm6364136223846793005ELm1442695040888963407EEENS0_17pcg_xsl_rr_128_64EEENS0_17RandenPoolSeedSeqEEEEEhRT_NS0_17SimplifiedLoopTagEE11kResultBits = linkonce_odr dso_local constant i64 8, comdat, align 8
@_ZZN4absl15random_internal15FastUniformBitsIhE8GenerateINS0_17NonsecureURBGBaseINS0_10pcg_engineINS0_13pcg128_paramsILm2549297995355413924ELm4865540595714422341ELm6364136223846793005ELm1442695040888963407EEENS0_17pcg_xsl_rr_128_64EEENS0_17RandenPoolSeedSeqEEEEEhRT_NS0_17SimplifiedLoopTagEE9kUrbgBits = linkonce_odr dso_local constant i64 64, comdat, align 8
@_ZZN4absl15random_internal15FastUniformBitsIhE8GenerateINS0_17NonsecureURBGBaseINS0_10pcg_engineINS0_13pcg128_paramsILm2549297995355413924ELm4865540595714422341ELm6364136223846793005ELm1442695040888963407EEENS0_17pcg_xsl_rr_128_64EEENS0_17RandenPoolSeedSeqEEEEEhRT_NS0_17SimplifiedLoopTagEE6kIters = linkonce_odr dso_local constant i64 1, comdat, align 8
@_ZZN4absl15random_internal15FastUniformBitsIhE8GenerateINS0_17NonsecureURBGBaseINS0_10pcg_engineINS0_13pcg128_paramsILm2549297995355413924ELm4865540595714422341ELm6364136223846793005ELm1442695040888963407EEENS0_17pcg_xsl_rr_128_64EEENS0_17RandenPoolSeedSeqEEEEEhRT_NS0_17SimplifiedLoopTagEE6kShift = linkonce_odr dso_local constant i64 0, comdat, align 8
@_ZZN4absl15random_internal15FastUniformBitsIhE8GenerateINS0_17NonsecureURBGBaseINS0_10pcg_engineINS0_13pcg128_paramsILm2549297995355413924ELm4865540595714422341ELm6364136223846793005ELm1442695040888963407EEENS0_17pcg_xsl_rr_128_64EEENS0_17RandenPoolSeedSeqEEEEEhRT_NS0_17SimplifiedLoopTagEE4kMin = linkonce_odr dso_local constant i64 0, comdat, align 8
@__const._ZN4absl7UniformIsRNS_15random_internal17NonsecureURBGBaseINS1_10pcg_engineINS1_13pcg128_paramsILm2549297995355413924ELm4865540595714422341ELm6364136223846793005ELm1442695040888963407EEENS1_17pcg_xsl_rr_128_64EEENS1_17RandenPoolSeedSeqEEEEENSt9enable_ifIXntsr3std7is_sameIT_vEE5valueESC_E4typeEOT0_SC_SC_.tag = private unnamed_addr constant %"struct.absl::IntervalClosedOpenTag" undef, align 1
@_ZZN4absl15random_internal15FastUniformBitsItE8GenerateINS0_17NonsecureURBGBaseINS0_10pcg_engineINS0_13pcg128_paramsILm2549297995355413924ELm4865540595714422341ELm6364136223846793005ELm1442695040888963407EEENS0_17pcg_xsl_rr_128_64EEENS0_17RandenPoolSeedSeqEEEEEtRT_NS0_17SimplifiedLoopTagEE11kResultBits = linkonce_odr dso_local constant i64 16, comdat, align 8
@_ZZN4absl15random_internal15FastUniformBitsItE8GenerateINS0_17NonsecureURBGBaseINS0_10pcg_engineINS0_13pcg128_paramsILm2549297995355413924ELm4865540595714422341ELm6364136223846793005ELm1442695040888963407EEENS0_17pcg_xsl_rr_128_64EEENS0_17RandenPoolSeedSeqEEEEEtRT_NS0_17SimplifiedLoopTagEE9kUrbgBits = linkonce_odr dso_local constant i64 64, comdat, align 8
@_ZZN4absl15random_internal15FastUniformBitsItE8GenerateINS0_17NonsecureURBGBaseINS0_10pcg_engineINS0_13pcg128_paramsILm2549297995355413924ELm4865540595714422341ELm6364136223846793005ELm1442695040888963407EEENS0_17pcg_xsl_rr_128_64EEENS0_17RandenPoolSeedSeqEEEEEtRT_NS0_17SimplifiedLoopTagEE6kIters = linkonce_odr dso_local constant i64 1, comdat, align 8
@_ZZN4absl15random_internal15FastUniformBitsItE8GenerateINS0_17NonsecureURBGBaseINS0_10pcg_engineINS0_13pcg128_paramsILm2549297995355413924ELm4865540595714422341ELm6364136223846793005ELm1442695040888963407EEENS0_17pcg_xsl_rr_128_64EEENS0_17RandenPoolSeedSeqEEEEEtRT_NS0_17SimplifiedLoopTagEE6kShift = linkonce_odr dso_local constant i64 0, comdat, align 8
@_ZZN4absl15random_internal15FastUniformBitsItE8GenerateINS0_17NonsecureURBGBaseINS0_10pcg_engineINS0_13pcg128_paramsILm2549297995355413924ELm4865540595714422341ELm6364136223846793005ELm1442695040888963407EEENS0_17pcg_xsl_rr_128_64EEENS0_17RandenPoolSeedSeqEEEEEtRT_NS0_17SimplifiedLoopTagEE4kMin = linkonce_odr dso_local constant i64 0, comdat, align 8
@__const._ZN4absl7UniformItRNS_15random_internal17NonsecureURBGBaseINS1_10pcg_engineINS1_13pcg128_paramsILm2549297995355413924ELm4865540595714422341ELm6364136223846793005ELm1442695040888963407EEENS1_17pcg_xsl_rr_128_64EEENS1_17RandenPoolSeedSeqEEEEENSt9enable_ifIXntsr3std7is_sameIT_vEE5valueESC_E4typeEOT0_SC_SC_.tag = private unnamed_addr constant %"struct.absl::IntervalClosedOpenTag" undef, align 1
@__const._ZN4absl7UniformIjRNS_15random_internal17NonsecureURBGBaseINS1_10pcg_engineINS1_13pcg128_paramsILm2549297995355413924ELm4865540595714422341ELm6364136223846793005ELm1442695040888963407EEENS1_17pcg_xsl_rr_128_64EEENS1_17RandenPoolSeedSeqEEEEENSt9enable_ifIXntsr3std7is_sameIT_vEE5valueESC_E4typeEOT0_SC_SC_.tag = private unnamed_addr constant %"struct.absl::IntervalClosedOpenTag" undef, align 1
@__const._ZN4absl7UniformIlRNS_15random_internal17NonsecureURBGBaseINS1_10pcg_engineINS1_13pcg128_paramsILm2549297995355413924ELm4865540595714422341ELm6364136223846793005ELm1442695040888963407EEENS1_17pcg_xsl_rr_128_64EEENS1_17RandenPoolSeedSeqEEEEENSt9enable_ifIXntsr3std7is_sameIT_vEE5valueESC_E4typeEOT0_SC_SC_.tag = private unnamed_addr constant %"struct.absl::IntervalClosedOpenTag" undef, align 1
@__const._ZN4absl7UniformIfRNS_15random_internal17NonsecureURBGBaseINS1_10pcg_engineINS1_13pcg128_paramsILm2549297995355413924ELm4865540595714422341ELm6364136223846793005ELm1442695040888963407EEENS1_17pcg_xsl_rr_128_64EEENS1_17RandenPoolSeedSeqEEEEENSt9enable_ifIXntsr3std7is_sameIT_vEE5valueESC_E4typeEOT0_SC_SC_.tag = private unnamed_addr constant %"struct.absl::IntervalClosedOpenTag" undef, align 1
@__const._ZN4absl7UniformIiNS_15random_internal17NonsecureURBGBaseINS1_10pcg_engineINS1_13pcg128_paramsILm2549297995355413924ELm4865540595714422341ELm6364136223846793005ELm1442695040888963407EEENS1_17pcg_xsl_rr_128_64EEENS1_17RandenPoolSeedSeqEEEEENSt9enable_ifIXntsr3std7is_sameIT_vEE5valueESB_E4typeEOT0_SB_SB_.tag = private unnamed_addr constant %"struct.absl::IntervalClosedOpenTag" undef, align 1
@__const._ZN4absl7UniformIdNS_15random_internal17NonsecureURBGBaseINS1_10pcg_engineINS1_13pcg128_paramsILm2549297995355413924ELm4865540595714422341ELm6364136223846793005ELm1442695040888963407EEENS1_17pcg_xsl_rr_128_64EEENS1_17RandenPoolSeedSeqEEEEENSt9enable_ifIXntsr3std7is_sameIT_vEE5valueESB_E4typeEOT0_SB_SB_.tag = private unnamed_addr constant %"struct.absl::IntervalClosedOpenTag" undef, align 1
@_ZZN4absl15random_internal15FastUniformBitsINS_7uint128EE8GenerateINS0_17NonsecureURBGBaseINS0_10pcg_engineINS0_13pcg128_paramsILm2549297995355413924ELm4865540595714422341ELm6364136223846793005ELm1442695040888963407EEENS0_17pcg_xsl_rr_128_64EEENS0_17RandenPoolSeedSeqEEEEES2_RT_NS0_17SimplifiedLoopTagEE11kResultBits = linkonce_odr dso_local constant i64 128, comdat, align 8
@_ZZN4absl15random_internal15FastUniformBitsINS_7uint128EE8GenerateINS0_17NonsecureURBGBaseINS0_10pcg_engineINS0_13pcg128_paramsILm2549297995355413924ELm4865540595714422341ELm6364136223846793005ELm1442695040888963407EEENS0_17pcg_xsl_rr_128_64EEENS0_17RandenPoolSeedSeqEEEEES2_RT_NS0_17SimplifiedLoopTagEE9kUrbgBits = linkonce_odr dso_local constant i64 64, comdat, align 8
@_ZZN4absl15random_internal15FastUniformBitsINS_7uint128EE8GenerateINS0_17NonsecureURBGBaseINS0_10pcg_engineINS0_13pcg128_paramsILm2549297995355413924ELm4865540595714422341ELm6364136223846793005ELm1442695040888963407EEENS0_17pcg_xsl_rr_128_64EEENS0_17RandenPoolSeedSeqEEEEES2_RT_NS0_17SimplifiedLoopTagEE6kIters = linkonce_odr dso_local constant i64 2, comdat, align 8
@_ZZN4absl15random_internal15FastUniformBitsINS_7uint128EE8GenerateINS0_17NonsecureURBGBaseINS0_10pcg_engineINS0_13pcg128_paramsILm2549297995355413924ELm4865540595714422341ELm6364136223846793005ELm1442695040888963407EEENS0_17pcg_xsl_rr_128_64EEENS0_17RandenPoolSeedSeqEEEEES2_RT_NS0_17SimplifiedLoopTagEE6kShift = linkonce_odr dso_local constant i64 64, comdat, align 8
@_ZZN4absl15random_internal15FastUniformBitsINS_7uint128EE8GenerateINS0_17NonsecureURBGBaseINS0_10pcg_engineINS0_13pcg128_paramsILm2549297995355413924ELm4865540595714422341ELm6364136223846793005ELm1442695040888963407EEENS0_17pcg_xsl_rr_128_64EEENS0_17RandenPoolSeedSeqEEEEES2_RT_NS0_17SimplifiedLoopTagEE4kMin = linkonce_odr dso_local constant i64 0, comdat, align 8
@.str.11 = private unnamed_addr constant [50 x i8] c"basic_string: construction from null is not valid\00", align 1
@.str.12 = private unnamed_addr constant [166 x i8] c"generated/home/dtcxzyw/WorkSpace/Projects/compilers/llvm-opt-benchmark/bench/abseil-cpp/bench_build/googletest-src/googletest/include/gtest/internal/gtest-internal.h\00", align 1
@.str.13 = private unnamed_addr constant [51 x i8] c"Condition !test_case_fp || !test_suite_fp failed. \00", align 1
@.str.14 = private unnamed_addr constant [107 x i8] c"Test can not provide both SetUpTestSuite and SetUpTestCase, please make sure there is only one present at \00", align 1
@.str.15 = private unnamed_addr constant [2 x i8] c":\00", align 1
@_ZSt4cerr = external global %"class.std::basic_ostream", align 8
@.str.16 = private unnamed_addr constant [112 x i8] c"Test can not provide both TearDownTestSuite and TearDownTestCase, please make sure there is only one present at\00", align 1
@llvm.global_ctors = appending global [1 x { i32, ptr, ptr }] [{ i32, ptr, ptr } { i32 65535, ptr @_GLOBAL__sub_I_generators_test.cc, ptr null }]

; Function Attrs: uwtable
define internal void @__cxx_global_var_init() #0 section ".text.startup" {
entry:
  call void @_ZNSt8ios_base4InitC1Ev(ptr noundef nonnull align 1 dereferenceable(1) @_ZStL8__ioinit)
  %0 = call i32 @__cxa_atexit(ptr @_ZNSt8ios_base4InitD1Ev, ptr @_ZStL8__ioinit, ptr @__dso_handle) #3
  ret void
}

declare void @_ZNSt8ios_base4InitC1Ev(ptr noundef nonnull align 1 dereferenceable(1)) unnamed_addr #1

; Function Attrs: nounwind
declare void @_ZNSt8ios_base4InitD1Ev(ptr noundef nonnull align 1 dereferenceable(1)) unnamed_addr #2

; Function Attrs: nounwind
declare i32 @__cxa_atexit(ptr, ptr, ptr) #3

; Function Attrs: uwtable
define internal void @__cxx_global_var_init.1() #0 section ".text.startup" personality ptr @__gxx_personality_v0 {
entry:
  %agg.tmp = alloca %"struct.testing::internal::CodeLocation", align 8
  %ref.tmp = alloca %"class.std::__cxx11::basic_string", align 8
  %ref.tmp1 = alloca %"class.std::allocator", align 1
  %exn.slot = alloca ptr, align 8
  %ehselector.slot = alloca i32, align 4
  call void @_ZNSaIcEC1Ev(ptr noundef nonnull align 1 dereferenceable(1) %ref.tmp1) #3
  invoke void @_ZNSt7__cxx1112basic_stringIcSt11char_traitsIcESaIcEEC2IS3_EEPKcRKS3_(ptr noundef nonnull align 8 dereferenceable(32) %ref.tmp, ptr noundef @.str.3, ptr noundef nonnull align 1 dereferenceable(1) %ref.tmp1)
          to label %invoke.cont unwind label %lpad

invoke.cont:                                      ; preds = %entry
  invoke void @_ZN7testing8internal12CodeLocationC2ERKNSt7__cxx1112basic_stringIcSt11char_traitsIcESaIcEEEi(ptr noundef nonnull align 8 dereferenceable(36) %agg.tmp, ptr noundef nonnull align 8 dereferenceable(32) %ref.tmp, i32 noundef 171)
          to label %invoke.cont3 unwind label %lpad2

invoke.cont3:                                     ; preds = %invoke.cont
  %call = invoke noundef ptr @_ZN7testing8internal13GetTestTypeIdEv()
          to label %invoke.cont5 unwind label %lpad4

invoke.cont5:                                     ; preds = %invoke.cont3
  %call7 = invoke noundef ptr @_ZN7testing8internal16SuiteApiResolverINS_4TestEE19GetSetUpCaseOrSuiteEPKci(ptr noundef @.str.3, i32 noundef 171)
          to label %invoke.cont6 unwind label %lpad4

invoke.cont6:                                     ; preds = %invoke.cont5
  %call9 = invoke noundef ptr @_ZN7testing8internal16SuiteApiResolverINS_4TestEE22GetTearDownCaseOrSuiteEPKci(ptr noundef @.str.3, i32 noundef 171)
          to label %invoke.cont8 unwind label %lpad4

invoke.cont8:                                     ; preds = %invoke.cont6
  %call11 = invoke noalias noundef nonnull ptr @_Znwm(i64 noundef 8) #14
          to label %invoke.cont10 unwind label %lpad4

invoke.cont10:                                    ; preds = %invoke.cont8
  invoke void @_ZN7testing8internal15TestFactoryImplIN12_GLOBAL__N_133std_mt19937_64_Compatibility_TestEEC2Ev(ptr noundef nonnull align 8 dereferenceable(8) %call11)
          to label %invoke.cont13 unwind label %lpad12

invoke.cont13:                                    ; preds = %invoke.cont10
  %call15 = invoke noundef ptr @_ZN7testing8internal23MakeAndRegisterTestInfoEPKcS2_S2_S2_NS0_12CodeLocationEPKvPFvvES7_PNS0_15TestFactoryBaseE(ptr noundef @.str, ptr noundef @.str.2, ptr noundef null, ptr noundef null, ptr noundef %agg.tmp, ptr noundef %call, ptr noundef %call7, ptr noundef %call9, ptr noundef %call11)
          to label %invoke.cont14 unwind label %lpad4

invoke.cont14:                                    ; preds = %invoke.cont13
  call void @_ZN7testing8internal12CodeLocationD2Ev(ptr noundef nonnull align 8 dereferenceable(36) %agg.tmp) #3
  call void @_ZNSt7__cxx1112basic_stringIcSt11char_traitsIcESaIcEED1Ev(ptr noundef nonnull align 8 dereferenceable(32) %ref.tmp) #3
  call void @_ZNSaIcED1Ev(ptr noundef nonnull align 1 dereferenceable(1) %ref.tmp1) #3
  store ptr %call15, ptr @_ZN12_GLOBAL__N_133std_mt19937_64_Compatibility_Test10test_info_E, align 8
  ret void

lpad:                                             ; preds = %entry
  %0 = landingpad { ptr, i32 }
          cleanup
  %1 = extractvalue { ptr, i32 } %0, 0
  store ptr %1, ptr %exn.slot, align 8
  %2 = extractvalue { ptr, i32 } %0, 1
  store i32 %2, ptr %ehselector.slot, align 4
  br label %ehcleanup17

lpad2:                                            ; preds = %invoke.cont
  %3 = landingpad { ptr, i32 }
          cleanup
  %4 = extractvalue { ptr, i32 } %3, 0
  store ptr %4, ptr %exn.slot, align 8
  %5 = extractvalue { ptr, i32 } %3, 1
  store i32 %5, ptr %ehselector.slot, align 4
  br label %ehcleanup16

lpad4:                                            ; preds = %invoke.cont13, %invoke.cont8, %invoke.cont6, %invoke.cont5, %invoke.cont3
  %6 = landingpad { ptr, i32 }
          cleanup
  %7 = extractvalue { ptr, i32 } %6, 0
  store ptr %7, ptr %exn.slot, align 8
  %8 = extractvalue { ptr, i32 } %6, 1
  store i32 %8, ptr %ehselector.slot, align 4
  br label %ehcleanup

lpad12:                                           ; preds = %invoke.cont10
  %9 = landingpad { ptr, i32 }
          cleanup
  %10 = extractvalue { ptr, i32 } %9, 0
  store ptr %10, ptr %exn.slot, align 8
  %11 = extractvalue { ptr, i32 } %9, 1
  store i32 %11, ptr %ehselector.slot, align 4
  call void @_ZdlPv(ptr noundef %call11) #15
  br label %ehcleanup

ehcleanup:                                        ; preds = %lpad12, %lpad4
  call void @_ZN7testing8internal12CodeLocationD2Ev(ptr noundef nonnull align 8 dereferenceable(36) %agg.tmp) #3
  br label %ehcleanup16

ehcleanup16:                                      ; preds = %ehcleanup, %lpad2
  call void @_ZNSt7__cxx1112basic_stringIcSt11char_traitsIcESaIcEED1Ev(ptr noundef nonnull align 8 dereferenceable(32) %ref.tmp) #3
  br label %ehcleanup17

ehcleanup17:                                      ; preds = %ehcleanup16, %lpad
  call void @_ZNSaIcED1Ev(ptr noundef nonnull align 1 dereferenceable(1) %ref.tmp1) #3
  br label %eh.resume

eh.resume:                                        ; preds = %ehcleanup17
  %exn = load ptr, ptr %exn.slot, align 8
  %sel = load i32, ptr %ehselector.slot, align 4
  %lpad.val = insertvalue { ptr, i32 } poison, ptr %exn, 0
  %lpad.val18 = insertvalue { ptr, i32 } %lpad.val, i32 %sel, 1
  resume { ptr, i32 } %lpad.val18
}

declare noundef ptr @_ZN7testing8internal23MakeAndRegisterTestInfoEPKcS2_S2_S2_NS0_12CodeLocationEPKvPFvvES7_PNS0_15TestFactoryBaseE(ptr noundef, ptr noundef, ptr noundef, ptr noundef, ptr noundef, ptr noundef, ptr noundef, ptr noundef, ptr noundef) #1

; Function Attrs: nounwind
declare void @_ZNSaIcEC1Ev(ptr noundef nonnull align 1 dereferenceable(1)) unnamed_addr #2

; Function Attrs: mustprogress uwtable
define linkonce_odr dso_local void @_ZNSt7__cxx1112basic_stringIcSt11char_traitsIcESaIcEEC2IS3_EEPKcRKS3_(ptr noundef nonnull align 8 dereferenceable(32) %this, ptr noundef %__s, ptr noundef nonnull align 1 dereferenceable(1) %__a) unnamed_addr #4 comdat align 2 personality ptr @__gxx_personality_v0 {
entry:
  %this.addr = alloca ptr, align 8
  %__s.addr = alloca ptr, align 8
  %__a.addr = alloca ptr, align 8
  %exn.slot = alloca ptr, align 8
  %ehselector.slot = alloca i32, align 4
  %__end = alloca ptr, align 8
  store ptr %this, ptr %this.addr, align 8
  store ptr %__s, ptr %__s.addr, align 8
  store ptr %__a, ptr %__a.addr, align 8
  %this1 = load ptr, ptr %this.addr, align 8
  %_M_dataplus = getelementptr inbounds %"class.std::__cxx11::basic_string", ptr %this1, i32 0, i32 0
  %call = call noundef ptr @_ZNSt7__cxx1112basic_stringIcSt11char_traitsIcESaIcEE13_M_local_dataEv(ptr noundef nonnull align 8 dereferenceable(32) %this1)
  %0 = load ptr, ptr %__a.addr, align 8
  call void @_ZNSt7__cxx1112basic_stringIcSt11char_traitsIcESaIcEE12_Alloc_hiderC1EPcRKS3_(ptr noundef nonnull align 8 dereferenceable(8) %_M_dataplus, ptr noundef %call, ptr noundef nonnull align 1 dereferenceable(1) %0)
  %1 = load ptr, ptr %__s.addr, align 8
  %cmp = icmp eq ptr %1, null
  br i1 %cmp, label %if.then, label %if.end

if.then:                                          ; preds = %entry
  invoke void @_ZSt19__throw_logic_errorPKc(ptr noundef @.str.11) #16
          to label %invoke.cont unwind label %lpad

invoke.cont:                                      ; preds = %if.then
  unreachable

lpad:                                             ; preds = %invoke.cont2, %if.end, %if.then
  %2 = landingpad { ptr, i32 }
          cleanup
  %3 = extractvalue { ptr, i32 } %2, 0
  store ptr %3, ptr %exn.slot, align 8
  %4 = extractvalue { ptr, i32 } %2, 1
  store i32 %4, ptr %ehselector.slot, align 4
  call void @_ZNSt7__cxx1112basic_stringIcSt11char_traitsIcESaIcEE12_Alloc_hiderD2Ev(ptr noundef nonnull align 8 dereferenceable(8) %_M_dataplus) #3
  br label %eh.resume

if.end:                                           ; preds = %entry
  %5 = load ptr, ptr %__s.addr, align 8
  %6 = load ptr, ptr %__s.addr, align 8
  %call3 = invoke noundef i64 @_ZNSt11char_traitsIcE6lengthEPKc(ptr noundef %6)
          to label %invoke.cont2 unwind label %lpad

invoke.cont2:                                     ; preds = %if.end
  %add.ptr = getelementptr inbounds i8, ptr %5, i64 %call3
  store ptr %add.ptr, ptr %__end, align 8
  %7 = load ptr, ptr %__s.addr, align 8
  %8 = load ptr, ptr %__end, align 8
  invoke void @_ZNSt7__cxx1112basic_stringIcSt11char_traitsIcESaIcEE12_M_constructIPKcEEvT_S8_St20forward_iterator_tag(ptr noundef nonnull align 8 dereferenceable(32) %this1, ptr noundef %7, ptr noundef %8)
          to label %invoke.cont4 unwind label %lpad

invoke.cont4:                                     ; preds = %invoke.cont2
  ret void

eh.resume:                                        ; preds = %lpad
  %exn = load ptr, ptr %exn.slot, align 8
  %sel = load i32, ptr %ehselector.slot, align 4
  %lpad.val = insertvalue { ptr, i32 } poison, ptr %exn, 0
  %lpad.val5 = insertvalue { ptr, i32 } %lpad.val, i32 %sel, 1
  resume { ptr, i32 } %lpad.val5
}

declare i32 @__gxx_personality_v0(...)

; Function Attrs: mustprogress uwtable
define linkonce_odr dso_local void @_ZN7testing8internal12CodeLocationC2ERKNSt7__cxx1112basic_stringIcSt11char_traitsIcESaIcEEEi(ptr noundef nonnull align 8 dereferenceable(36) %this, ptr noundef nonnull align 8 dereferenceable(32) %a_file, i32 noundef %a_line) unnamed_addr #4 comdat align 2 {
entry:
  %this.addr = alloca ptr, align 8
  %a_file.addr = alloca ptr, align 8
  %a_line.addr = alloca i32, align 4
  store ptr %this, ptr %this.addr, align 8
  store ptr %a_file, ptr %a_file.addr, align 8
  store i32 %a_line, ptr %a_line.addr, align 4
  %this1 = load ptr, ptr %this.addr, align 8
  %file = getelementptr inbounds %"struct.testing::internal::CodeLocation", ptr %this1, i32 0, i32 0
  %0 = load ptr, ptr %a_file.addr, align 8
  call void @_ZNSt7__cxx1112basic_stringIcSt11char_traitsIcESaIcEEC1ERKS4_(ptr noundef nonnull align 8 dereferenceable(32) %file, ptr noundef nonnull align 8 dereferenceable(32) %0)
  %line = getelementptr inbounds %"struct.testing::internal::CodeLocation", ptr %this1, i32 0, i32 1
  %1 = load i32, ptr %a_line.addr, align 4
  store i32 %1, ptr %line, align 8
  ret void
}

declare noundef ptr @_ZN7testing8internal13GetTestTypeIdEv() #1

; Function Attrs: mustprogress uwtable
define linkonce_odr dso_local noundef ptr @_ZN7testing8internal16SuiteApiResolverINS_4TestEE19GetSetUpCaseOrSuiteEPKci(ptr noundef %filename, i32 noundef %line_num) #4 comdat align 2 personality ptr @__gxx_personality_v0 {
entry:
  %filename.addr = alloca ptr, align 8
  %line_num.addr = alloca i32, align 4
  %test_case_fp = alloca ptr, align 8
  %test_suite_fp = alloca ptr, align 8
  %ref.tmp = alloca %"class.testing::internal::GTestLog", align 4
  %exn.slot = alloca ptr, align 8
  %ehselector.slot = alloca i32, align 4
  store ptr %filename, ptr %filename.addr, align 8
  store i32 %line_num, ptr %line_num.addr, align 4
  %call = call noundef ptr @_ZN7testing8internal19GetNotDefaultOrNullEPFvvES2_(ptr noundef @_ZN7testing4Test13SetUpTestCaseEv, ptr noundef @_ZN7testing4Test13SetUpTestCaseEv)
  store ptr %call, ptr %test_case_fp, align 8
  %call1 = call noundef ptr @_ZN7testing8internal19GetNotDefaultOrNullEPFvvES2_(ptr noundef @_ZN7testing4Test14SetUpTestSuiteEv, ptr noundef @_ZN7testing4Test14SetUpTestSuiteEv)
  store ptr %call1, ptr %test_suite_fp, align 8
  %0 = load ptr, ptr %test_case_fp, align 8
  %tobool = icmp ne ptr %0, null
  br i1 %tobool, label %lor.rhs, label %lor.end

lor.rhs:                                          ; preds = %entry
  %1 = load ptr, ptr %test_suite_fp, align 8
  %tobool2 = icmp ne ptr %1, null
  %lnot = xor i1 %tobool2, true
  br label %lor.end

lor.end:                                          ; preds = %lor.rhs, %entry
  %2 = phi i1 [ true, %entry ], [ %lnot, %lor.rhs ]
  %call3 = call noundef zeroext i1 @_ZN7testing8internal6IsTrueEb(i1 noundef zeroext %2)
  br i1 %call3, label %if.then, label %if.else

if.then:                                          ; preds = %lor.end
  br label %if.end

if.else:                                          ; preds = %lor.end
  call void @_ZN7testing8internal8GTestLogC1ENS0_16GTestLogSeverityEPKci(ptr noundef nonnull align 4 dereferenceable(4) %ref.tmp, i32 noundef 3, ptr noundef @.str.12, i32 noundef 513)
  %call4 = invoke noundef nonnull align 8 dereferenceable(8) ptr @_ZN7testing8internal8GTestLog9GetStreamEv(ptr noundef nonnull align 4 dereferenceable(4) %ref.tmp)
          to label %invoke.cont unwind label %lpad

invoke.cont:                                      ; preds = %if.else
  %call6 = invoke noundef nonnull align 8 dereferenceable(8) ptr @_ZStlsISt11char_traitsIcEERSt13basic_ostreamIcT_ES5_PKc(ptr noundef nonnull align 8 dereferenceable(8) %call4, ptr noundef @.str.13)
          to label %invoke.cont5 unwind label %lpad

invoke.cont5:                                     ; preds = %invoke.cont
  %call8 = invoke noundef nonnull align 8 dereferenceable(8) ptr @_ZStlsISt11char_traitsIcEERSt13basic_ostreamIcT_ES5_PKc(ptr noundef nonnull align 8 dereferenceable(8) %call6, ptr noundef @.str.14)
          to label %invoke.cont7 unwind label %lpad

invoke.cont7:                                     ; preds = %invoke.cont5
  %3 = load ptr, ptr %filename.addr, align 8
  %call10 = invoke noundef nonnull align 8 dereferenceable(8) ptr @_ZStlsISt11char_traitsIcEERSt13basic_ostreamIcT_ES5_PKc(ptr noundef nonnull align 8 dereferenceable(8) %call8, ptr noundef %3)
          to label %invoke.cont9 unwind label %lpad

invoke.cont9:                                     ; preds = %invoke.cont7
  %call12 = invoke noundef nonnull align 8 dereferenceable(8) ptr @_ZStlsISt11char_traitsIcEERSt13basic_ostreamIcT_ES5_PKc(ptr noundef nonnull align 8 dereferenceable(8) %call10, ptr noundef @.str.15)
          to label %invoke.cont11 unwind label %lpad

invoke.cont11:                                    ; preds = %invoke.cont9
  %4 = load i32, ptr %line_num.addr, align 4
  %call14 = invoke noundef nonnull align 8 dereferenceable(8) ptr @_ZNSolsEi(ptr noundef nonnull align 8 dereferenceable(8) %call12, i32 noundef %4)
          to label %invoke.cont13 unwind label %lpad

invoke.cont13:                                    ; preds = %invoke.cont11
  call void @_ZN7testing8internal8GTestLogD1Ev(ptr noundef nonnull align 4 dereferenceable(4) %ref.tmp) #3
  br label %if.end

lpad:                                             ; preds = %invoke.cont11, %invoke.cont9, %invoke.cont7, %invoke.cont5, %invoke.cont, %if.else
  %5 = landingpad { ptr, i32 }
          cleanup
  %6 = extractvalue { ptr, i32 } %5, 0
  store ptr %6, ptr %exn.slot, align 8
  %7 = extractvalue { ptr, i32 } %5, 1
  store i32 %7, ptr %ehselector.slot, align 4
  call void @_ZN7testing8internal8GTestLogD1Ev(ptr noundef nonnull align 4 dereferenceable(4) %ref.tmp) #3
  br label %eh.resume

if.end:                                           ; preds = %invoke.cont13, %if.then
  %8 = load ptr, ptr %test_case_fp, align 8
  %cmp = icmp ne ptr %8, null
  br i1 %cmp, label %cond.true, label %cond.false

cond.true:                                        ; preds = %if.end
  %9 = load ptr, ptr %test_case_fp, align 8
  br label %cond.end

cond.false:                                       ; preds = %if.end
  %10 = load ptr, ptr %test_suite_fp, align 8
  br label %cond.end

cond.end:                                         ; preds = %cond.false, %cond.true
  %cond = phi ptr [ %9, %cond.true ], [ %10, %cond.false ]
  ret ptr %cond

eh.resume:                                        ; preds = %lpad
  %exn = load ptr, ptr %exn.slot, align 8
  %sel = load i32, ptr %ehselector.slot, align 4
  %lpad.val = insertvalue { ptr, i32 } poison, ptr %exn, 0
  %lpad.val15 = insertvalue { ptr, i32 } %lpad.val, i32 %sel, 1
  resume { ptr, i32 } %lpad.val15
}

; Function Attrs: mustprogress uwtable
define linkonce_odr dso_local noundef ptr @_ZN7testing8internal16SuiteApiResolverINS_4TestEE22GetTearDownCaseOrSuiteEPKci(ptr noundef %filename, i32 noundef %line_num) #4 comdat align 2 personality ptr @__gxx_personality_v0 {
entry:
  %filename.addr = alloca ptr, align 8
  %line_num.addr = alloca i32, align 4
  %test_case_fp = alloca ptr, align 8
  %test_suite_fp = alloca ptr, align 8
  %ref.tmp = alloca %"class.testing::internal::GTestLog", align 4
  %exn.slot = alloca ptr, align 8
  %ehselector.slot = alloca i32, align 4
  store ptr %filename, ptr %filename.addr, align 8
  store i32 %line_num, ptr %line_num.addr, align 4
  %call = call noundef ptr @_ZN7testing8internal19GetNotDefaultOrNullEPFvvES2_(ptr noundef @_ZN7testing4Test16TearDownTestCaseEv, ptr noundef @_ZN7testing4Test16TearDownTestCaseEv)
  store ptr %call, ptr %test_case_fp, align 8
  %call1 = call noundef ptr @_ZN7testing8internal19GetNotDefaultOrNullEPFvvES2_(ptr noundef @_ZN7testing4Test17TearDownTestSuiteEv, ptr noundef @_ZN7testing4Test17TearDownTestSuiteEv)
  store ptr %call1, ptr %test_suite_fp, align 8
  %0 = load ptr, ptr %test_case_fp, align 8
  %tobool = icmp ne ptr %0, null
  br i1 %tobool, label %lor.rhs, label %lor.end

lor.rhs:                                          ; preds = %entry
  %1 = load ptr, ptr %test_suite_fp, align 8
  %tobool2 = icmp ne ptr %1, null
  %lnot = xor i1 %tobool2, true
  br label %lor.end

lor.end:                                          ; preds = %lor.rhs, %entry
  %2 = phi i1 [ true, %entry ], [ %lnot, %lor.rhs ]
  %call3 = call noundef zeroext i1 @_ZN7testing8internal6IsTrueEb(i1 noundef zeroext %2)
  br i1 %call3, label %if.then, label %if.else

if.then:                                          ; preds = %lor.end
  br label %if.end

if.else:                                          ; preds = %lor.end
  call void @_ZN7testing8internal8GTestLogC1ENS0_16GTestLogSeverityEPKci(ptr noundef nonnull align 4 dereferenceable(4) %ref.tmp, i32 noundef 3, ptr noundef @.str.12, i32 noundef 534)
  %call4 = call noundef nonnull align 8 dereferenceable(8) ptr @_ZN7testing8internal8GTestLog9GetStreamEv(ptr noundef nonnull align 4 dereferenceable(4) %ref.tmp)
  %call5 = invoke noundef nonnull align 8 dereferenceable(8) ptr @_ZStlsISt11char_traitsIcEERSt13basic_ostreamIcT_ES5_PKc(ptr noundef nonnull align 8 dereferenceable(8) %call4, ptr noundef @.str.13)
          to label %invoke.cont unwind label %lpad

invoke.cont:                                      ; preds = %if.else
  %call7 = invoke noundef nonnull align 8 dereferenceable(8) ptr @_ZStlsISt11char_traitsIcEERSt13basic_ostreamIcT_ES5_PKc(ptr noundef nonnull align 8 dereferenceable(8) %call5, ptr noundef @.str.16)
          to label %invoke.cont6 unwind label %lpad

invoke.cont6:                                     ; preds = %invoke.cont
  %3 = load ptr, ptr %filename.addr, align 8
  %call9 = invoke noundef nonnull align 8 dereferenceable(8) ptr @_ZStlsISt11char_traitsIcEERSt13basic_ostreamIcT_ES5_PKc(ptr noundef nonnull align 8 dereferenceable(8) %call7, ptr noundef %3)
          to label %invoke.cont8 unwind label %lpad

invoke.cont8:                                     ; preds = %invoke.cont6
  %call11 = invoke noundef nonnull align 8 dereferenceable(8) ptr @_ZStlsISt11char_traitsIcEERSt13basic_ostreamIcT_ES5_PKc(ptr noundef nonnull align 8 dereferenceable(8) %call9, ptr noundef @.str.15)
          to label %invoke.cont10 unwind label %lpad

invoke.cont10:                                    ; preds = %invoke.cont8
  %4 = load i32, ptr %line_num.addr, align 4
  %call13 = invoke noundef nonnull align 8 dereferenceable(8) ptr @_ZNSolsEi(ptr noundef nonnull align 8 dereferenceable(8) %call11, i32 noundef %4)
          to label %invoke.cont12 unwind label %lpad

invoke.cont12:                                    ; preds = %invoke.cont10
  call void @_ZN7testing8internal8GTestLogD1Ev(ptr noundef nonnull align 4 dereferenceable(4) %ref.tmp) #3
  br label %if.end

lpad:                                             ; preds = %invoke.cont10, %invoke.cont8, %invoke.cont6, %invoke.cont, %if.else
  %5 = landingpad { ptr, i32 }
          cleanup
  %6 = extractvalue { ptr, i32 } %5, 0
  store ptr %6, ptr %exn.slot, align 8
  %7 = extractvalue { ptr, i32 } %5, 1
  store i32 %7, ptr %ehselector.slot, align 4
  call void @_ZN7testing8internal8GTestLogD1Ev(ptr noundef nonnull align 4 dereferenceable(4) %ref.tmp) #3
  br label %eh.resume

if.end:                                           ; preds = %invoke.cont12, %if.then
  %8 = load ptr, ptr %test_case_fp, align 8
  %cmp = icmp ne ptr %8, null
  br i1 %cmp, label %cond.true, label %cond.false

cond.true:                                        ; preds = %if.end
  %9 = load ptr, ptr %test_case_fp, align 8
  br label %cond.end

cond.false:                                       ; preds = %if.end
  %10 = load ptr, ptr %test_suite_fp, align 8
  br label %cond.end

cond.end:                                         ; preds = %cond.false, %cond.true
  %cond = phi ptr [ %9, %cond.true ], [ %10, %cond.false ]
  ret ptr %cond

eh.resume:                                        ; preds = %lpad
  %exn = load ptr, ptr %exn.slot, align 8
  %sel = load i32, ptr %ehselector.slot, align 4
  %lpad.val = insertvalue { ptr, i32 } poison, ptr %exn, 0
  %lpad.val14 = insertvalue { ptr, i32 } %lpad.val, i32 %sel, 1
  resume { ptr, i32 } %lpad.val14
}

; Function Attrs: nobuiltin allocsize(0)
declare noundef nonnull ptr @_Znwm(i64 noundef) #5

; Function Attrs: mustprogress uwtable
define internal void @_ZN7testing8internal15TestFactoryImplIN12_GLOBAL__N_133std_mt19937_64_Compatibility_TestEEC2Ev(ptr noundef nonnull align 8 dereferenceable(8) %this) unnamed_addr #4 align 2 {
entry:
  %this.addr = alloca ptr, align 8
  store ptr %this, ptr %this.addr, align 8
  %this1 = load ptr, ptr %this.addr, align 8
  call void @_ZN7testing8internal15TestFactoryBaseC2Ev(ptr noundef nonnull align 8 dereferenceable(8) %this1)
  store ptr getelementptr inbounds ({ [5 x ptr] }, ptr @_ZTVN7testing8internal15TestFactoryImplIN12_GLOBAL__N_133std_mt19937_64_Compatibility_TestEEE, i32 0, inrange i32 0, i32 2), ptr %this1, align 8
  ret void
}

; Function Attrs: nobuiltin nounwind
declare void @_ZdlPv(ptr noundef) #6

; Function Attrs: mustprogress nounwind uwtable
define linkonce_odr dso_local void @_ZN7testing8internal12CodeLocationD2Ev(ptr noundef nonnull align 8 dereferenceable(36) %this) unnamed_addr #7 comdat align 2 {
entry:
  %this.addr = alloca ptr, align 8
  store ptr %this, ptr %this.addr, align 8
  %this1 = load ptr, ptr %this.addr, align 8
  %file = getelementptr inbounds %"struct.testing::internal::CodeLocation", ptr %this1, i32 0, i32 0
  call void @_ZNSt7__cxx1112basic_stringIcSt11char_traitsIcESaIcEED1Ev(ptr noundef nonnull align 8 dereferenceable(32) %file) #3
  ret void
}

; Function Attrs: nounwind
declare void @_ZNSt7__cxx1112basic_stringIcSt11char_traitsIcESaIcEED1Ev(ptr noundef nonnull align 8 dereferenceable(32)) unnamed_addr #2

; Function Attrs: nounwind
declare void @_ZNSaIcED1Ev(ptr noundef nonnull align 1 dereferenceable(1)) unnamed_addr #2

; Function Attrs: uwtable
define internal void @__cxx_global_var_init.4() #0 section ".text.startup" personality ptr @__gxx_personality_v0 {
entry:
  %agg.tmp = alloca %"struct.testing::internal::CodeLocation", align 8
  %ref.tmp = alloca %"class.std::__cxx11::basic_string", align 8
  %ref.tmp1 = alloca %"class.std::allocator", align 1
  %exn.slot = alloca ptr, align 8
  %ehselector.slot = alloca i32, align 4
  call void @_ZNSaIcEC1Ev(ptr noundef nonnull align 1 dereferenceable(1) %ref.tmp1) #3
  invoke void @_ZNSt7__cxx1112basic_stringIcSt11char_traitsIcESaIcEEC2IS3_EEPKcRKS3_(ptr noundef nonnull align 8 dereferenceable(32) %ref.tmp, ptr noundef @.str.3, ptr noundef nonnull align 1 dereferenceable(1) %ref.tmp1)
          to label %invoke.cont unwind label %lpad

invoke.cont:                                      ; preds = %entry
  invoke void @_ZN7testing8internal12CodeLocationC2ERKNSt7__cxx1112basic_stringIcSt11char_traitsIcESaIcEEEi(ptr noundef nonnull align 8 dereferenceable(36) %agg.tmp, ptr noundef nonnull align 8 dereferenceable(32) %ref.tmp, i32 noundef 176)
          to label %invoke.cont3 unwind label %lpad2

invoke.cont3:                                     ; preds = %invoke.cont
  %call = invoke noundef ptr @_ZN7testing8internal13GetTestTypeIdEv()
          to label %invoke.cont5 unwind label %lpad4

invoke.cont5:                                     ; preds = %invoke.cont3
  %call7 = invoke noundef ptr @_ZN7testing8internal16SuiteApiResolverINS_4TestEE19GetSetUpCaseOrSuiteEPKci(ptr noundef @.str.3, i32 noundef 176)
          to label %invoke.cont6 unwind label %lpad4

invoke.cont6:                                     ; preds = %invoke.cont5
  %call9 = invoke noundef ptr @_ZN7testing8internal16SuiteApiResolverINS_4TestEE22GetTearDownCaseOrSuiteEPKci(ptr noundef @.str.3, i32 noundef 176)
          to label %invoke.cont8 unwind label %lpad4

invoke.cont8:                                     ; preds = %invoke.cont6
  %call11 = invoke noalias noundef nonnull ptr @_Znwm(i64 noundef 8) #14
          to label %invoke.cont10 unwind label %lpad4

invoke.cont10:                                    ; preds = %invoke.cont8
  invoke void @_ZN7testing8internal15TestFactoryImplIN12_GLOBAL__N_125BitGen_Compatibility_TestEEC2Ev(ptr noundef nonnull align 8 dereferenceable(8) %call11)
          to label %invoke.cont13 unwind label %lpad12

invoke.cont13:                                    ; preds = %invoke.cont10
  %call15 = invoke noundef ptr @_ZN7testing8internal23MakeAndRegisterTestInfoEPKcS2_S2_S2_NS0_12CodeLocationEPKvPFvvES7_PNS0_15TestFactoryBaseE(ptr noundef @.str.5, ptr noundef @.str.2, ptr noundef null, ptr noundef null, ptr noundef %agg.tmp, ptr noundef %call, ptr noundef %call7, ptr noundef %call9, ptr noundef %call11)
          to label %invoke.cont14 unwind label %lpad4

invoke.cont14:                                    ; preds = %invoke.cont13
  call void @_ZN7testing8internal12CodeLocationD2Ev(ptr noundef nonnull align 8 dereferenceable(36) %agg.tmp) #3
  call void @_ZNSt7__cxx1112basic_stringIcSt11char_traitsIcESaIcEED1Ev(ptr noundef nonnull align 8 dereferenceable(32) %ref.tmp) #3
  call void @_ZNSaIcED1Ev(ptr noundef nonnull align 1 dereferenceable(1) %ref.tmp1) #3
  store ptr %call15, ptr @_ZN12_GLOBAL__N_125BitGen_Compatibility_Test10test_info_E, align 8
  ret void

lpad:                                             ; preds = %entry
  %0 = landingpad { ptr, i32 }
          cleanup
  %1 = extractvalue { ptr, i32 } %0, 0
  store ptr %1, ptr %exn.slot, align 8
  %2 = extractvalue { ptr, i32 } %0, 1
  store i32 %2, ptr %ehselector.slot, align 4
  br label %ehcleanup17

lpad2:                                            ; preds = %invoke.cont
  %3 = landingpad { ptr, i32 }
          cleanup
  %4 = extractvalue { ptr, i32 } %3, 0
  store ptr %4, ptr %exn.slot, align 8
  %5 = extractvalue { ptr, i32 } %3, 1
  store i32 %5, ptr %ehselector.slot, align 4
  br label %ehcleanup16

lpad4:                                            ; preds = %invoke.cont13, %invoke.cont8, %invoke.cont6, %invoke.cont5, %invoke.cont3
  %6 = landingpad { ptr, i32 }
          cleanup
  %7 = extractvalue { ptr, i32 } %6, 0
  store ptr %7, ptr %exn.slot, align 8
  %8 = extractvalue { ptr, i32 } %6, 1
  store i32 %8, ptr %ehselector.slot, align 4
  br label %ehcleanup

lpad12:                                           ; preds = %invoke.cont10
  %9 = landingpad { ptr, i32 }
          cleanup
  %10 = extractvalue { ptr, i32 } %9, 0
  store ptr %10, ptr %exn.slot, align 8
  %11 = extractvalue { ptr, i32 } %9, 1
  store i32 %11, ptr %ehselector.slot, align 4
  call void @_ZdlPv(ptr noundef %call11) #15
  br label %ehcleanup

ehcleanup:                                        ; preds = %lpad12, %lpad4
  call void @_ZN7testing8internal12CodeLocationD2Ev(ptr noundef nonnull align 8 dereferenceable(36) %agg.tmp) #3
  br label %ehcleanup16

ehcleanup16:                                      ; preds = %ehcleanup, %lpad2
  call void @_ZNSt7__cxx1112basic_stringIcSt11char_traitsIcESaIcEED1Ev(ptr noundef nonnull align 8 dereferenceable(32) %ref.tmp) #3
  br label %ehcleanup17

ehcleanup17:                                      ; preds = %ehcleanup16, %lpad
  call void @_ZNSaIcED1Ev(ptr noundef nonnull align 1 dereferenceable(1) %ref.tmp1) #3
  br label %eh.resume

eh.resume:                                        ; preds = %ehcleanup17
  %exn = load ptr, ptr %exn.slot, align 8
  %sel = load i32, ptr %ehselector.slot, align 4
  %lpad.val = insertvalue { ptr, i32 } poison, ptr %exn, 0
  %lpad.val18 = insertvalue { ptr, i32 } %lpad.val, i32 %sel, 1
  resume { ptr, i32 } %lpad.val18
}

; Function Attrs: mustprogress nounwind uwtable
define internal void @_ZN7testing8internal15TestFactoryImplIN12_GLOBAL__N_125BitGen_Compatibility_TestEEC2Ev(ptr noundef nonnull align 8 dereferenceable(8) %this) unnamed_addr #7 align 2 {
entry:
  %this.addr = alloca ptr, align 8
  store ptr %this, ptr %this.addr, align 8
  %this1 = load ptr, ptr %this.addr, align 8
  call void @_ZN7testing8internal15TestFactoryBaseC2Ev(ptr noundef nonnull align 8 dereferenceable(8) %this1)
  store ptr getelementptr inbounds ({ [5 x ptr] }, ptr @_ZTVN7testing8internal15TestFactoryImplIN12_GLOBAL__N_125BitGen_Compatibility_TestEEE, i32 0, inrange i32 0, i32 2), ptr %this1, align 8
  ret void
}

; Function Attrs: uwtable
define internal void @__cxx_global_var_init.6() #0 section ".text.startup" personality ptr @__gxx_personality_v0 {
entry:
  %agg.tmp = alloca %"struct.testing::internal::CodeLocation", align 8
  %ref.tmp = alloca %"class.std::__cxx11::basic_string", align 8
  %ref.tmp1 = alloca %"class.std::allocator", align 1
  %exn.slot = alloca ptr, align 8
  %ehselector.slot = alloca i32, align 4
  call void @_ZNSaIcEC1Ev(ptr noundef nonnull align 1 dereferenceable(1) %ref.tmp1) #3
  invoke void @_ZNSt7__cxx1112basic_stringIcSt11char_traitsIcESaIcEEC2IS3_EEPKcRKS3_(ptr noundef nonnull align 8 dereferenceable(32) %ref.tmp, ptr noundef @.str.3, ptr noundef nonnull align 1 dereferenceable(1) %ref.tmp1)
          to label %invoke.cont unwind label %lpad

invoke.cont:                                      ; preds = %entry
  invoke void @_ZN7testing8internal12CodeLocationC2ERKNSt7__cxx1112basic_stringIcSt11char_traitsIcESaIcEEEi(ptr noundef nonnull align 8 dereferenceable(36) %agg.tmp, ptr noundef nonnull align 8 dereferenceable(32) %ref.tmp, i32 noundef 181)
          to label %invoke.cont3 unwind label %lpad2

invoke.cont3:                                     ; preds = %invoke.cont
  %call = invoke noundef ptr @_ZN7testing8internal13GetTestTypeIdEv()
          to label %invoke.cont5 unwind label %lpad4

invoke.cont5:                                     ; preds = %invoke.cont3
  %call7 = invoke noundef ptr @_ZN7testing8internal16SuiteApiResolverINS_4TestEE19GetSetUpCaseOrSuiteEPKci(ptr noundef @.str.3, i32 noundef 181)
          to label %invoke.cont6 unwind label %lpad4

invoke.cont6:                                     ; preds = %invoke.cont5
  %call9 = invoke noundef ptr @_ZN7testing8internal16SuiteApiResolverINS_4TestEE22GetTearDownCaseOrSuiteEPKci(ptr noundef @.str.3, i32 noundef 181)
          to label %invoke.cont8 unwind label %lpad4

invoke.cont8:                                     ; preds = %invoke.cont6
  %call11 = invoke noalias noundef nonnull ptr @_Znwm(i64 noundef 8) #14
          to label %invoke.cont10 unwind label %lpad4

invoke.cont10:                                    ; preds = %invoke.cont8
  invoke void @_ZN7testing8internal15TestFactoryImplIN12_GLOBAL__N_133InsecureBitGen_Compatibility_TestEEC2Ev(ptr noundef nonnull align 8 dereferenceable(8) %call11)
          to label %invoke.cont13 unwind label %lpad12

invoke.cont13:                                    ; preds = %invoke.cont10
  %call15 = invoke noundef ptr @_ZN7testing8internal23MakeAndRegisterTestInfoEPKcS2_S2_S2_NS0_12CodeLocationEPKvPFvvES7_PNS0_15TestFactoryBaseE(ptr noundef @.str.7, ptr noundef @.str.2, ptr noundef null, ptr noundef null, ptr noundef %agg.tmp, ptr noundef %call, ptr noundef %call7, ptr noundef %call9, ptr noundef %call11)
          to label %invoke.cont14 unwind label %lpad4

invoke.cont14:                                    ; preds = %invoke.cont13
  call void @_ZN7testing8internal12CodeLocationD2Ev(ptr noundef nonnull align 8 dereferenceable(36) %agg.tmp) #3
  call void @_ZNSt7__cxx1112basic_stringIcSt11char_traitsIcESaIcEED1Ev(ptr noundef nonnull align 8 dereferenceable(32) %ref.tmp) #3
  call void @_ZNSaIcED1Ev(ptr noundef nonnull align 1 dereferenceable(1) %ref.tmp1) #3
  store ptr %call15, ptr @_ZN12_GLOBAL__N_133InsecureBitGen_Compatibility_Test10test_info_E, align 8
  ret void

lpad:                                             ; preds = %entry
  %0 = landingpad { ptr, i32 }
          cleanup
  %1 = extractvalue { ptr, i32 } %0, 0
  store ptr %1, ptr %exn.slot, align 8
  %2 = extractvalue { ptr, i32 } %0, 1
  store i32 %2, ptr %ehselector.slot, align 4
  br label %ehcleanup17

lpad2:                                            ; preds = %invoke.cont
  %3 = landingpad { ptr, i32 }
          cleanup
  %4 = extractvalue { ptr, i32 } %3, 0
  store ptr %4, ptr %exn.slot, align 8
  %5 = extractvalue { ptr, i32 } %3, 1
  store i32 %5, ptr %ehselector.slot, align 4
  br label %ehcleanup16

lpad4:                                            ; preds = %invoke.cont13, %invoke.cont8, %invoke.cont6, %invoke.cont5, %invoke.cont3
  %6 = landingpad { ptr, i32 }
          cleanup
  %7 = extractvalue { ptr, i32 } %6, 0
  store ptr %7, ptr %exn.slot, align 8
  %8 = extractvalue { ptr, i32 } %6, 1
  store i32 %8, ptr %ehselector.slot, align 4
  br label %ehcleanup

lpad12:                                           ; preds = %invoke.cont10
  %9 = landingpad { ptr, i32 }
          cleanup
  %10 = extractvalue { ptr, i32 } %9, 0
  store ptr %10, ptr %exn.slot, align 8
  %11 = extractvalue { ptr, i32 } %9, 1
  store i32 %11, ptr %ehselector.slot, align 4
  call void @_ZdlPv(ptr noundef %call11) #15
  br label %ehcleanup

ehcleanup:                                        ; preds = %lpad12, %lpad4
  call void @_ZN7testing8internal12CodeLocationD2Ev(ptr noundef nonnull align 8 dereferenceable(36) %agg.tmp) #3
  br label %ehcleanup16

ehcleanup16:                                      ; preds = %ehcleanup, %lpad2
  call void @_ZNSt7__cxx1112basic_stringIcSt11char_traitsIcESaIcEED1Ev(ptr noundef nonnull align 8 dereferenceable(32) %ref.tmp) #3
  br label %ehcleanup17

ehcleanup17:                                      ; preds = %ehcleanup16, %lpad
  call void @_ZNSaIcED1Ev(ptr noundef nonnull align 1 dereferenceable(1) %ref.tmp1) #3
  br label %eh.resume

eh.resume:                                        ; preds = %ehcleanup17
  %exn = load ptr, ptr %exn.slot, align 8
  %sel = load i32, ptr %ehselector.slot, align 4
  %lpad.val = insertvalue { ptr, i32 } poison, ptr %exn, 0
  %lpad.val18 = insertvalue { ptr, i32 } %lpad.val, i32 %sel, 1
  resume { ptr, i32 } %lpad.val18
}

; Function Attrs: mustprogress nounwind uwtable
define internal void @_ZN7testing8internal15TestFactoryImplIN12_GLOBAL__N_133InsecureBitGen_Compatibility_TestEEC2Ev(ptr noundef nonnull align 8 dereferenceable(8) %this) unnamed_addr #7 align 2 {
entry:
  %this.addr = alloca ptr, align 8
  store ptr %this, ptr %this.addr, align 8
  %this1 = load ptr, ptr %this.addr, align 8
  call void @_ZN7testing8internal15TestFactoryBaseC2Ev(ptr noundef nonnull align 8 dereferenceable(8) %this1)
  store ptr getelementptr inbounds ({ [5 x ptr] }, ptr @_ZTVN7testing8internal15TestFactoryImplIN12_GLOBAL__N_133InsecureBitGen_Compatibility_TestEEE, i32 0, inrange i32 0, i32 2), ptr %this1, align 8
  ret void
}

declare void @_ZNSt7__cxx1112basic_stringIcSt11char_traitsIcESaIcEEC1ERKS4_(ptr noundef nonnull align 8 dereferenceable(32), ptr noundef nonnull align 8 dereferenceable(32)) unnamed_addr #1

; Function Attrs: mustprogress nounwind uwtable
define linkonce_odr dso_local void @_ZN7testing8internal15TestFactoryBaseC2Ev(ptr noundef nonnull align 8 dereferenceable(8) %this) unnamed_addr #7 comdat align 2 {
entry:
  %this.addr = alloca ptr, align 8
  store ptr %this, ptr %this.addr, align 8
  %this1 = load ptr, ptr %this.addr, align 8
  store ptr getelementptr inbounds ({ [5 x ptr] }, ptr @_ZTVN7testing8internal15TestFactoryBaseE, i32 0, inrange i32 0, i32 2), ptr %this1, align 8
  ret void
}

; Function Attrs: mustprogress nounwind uwtable
define internal void @_ZN7testing8internal15TestFactoryImplIN12_GLOBAL__N_133std_mt19937_64_Compatibility_TestEED2Ev(ptr noundef nonnull align 8 dereferenceable(8) %this) unnamed_addr #7 align 2 {
entry:
  %this.addr = alloca ptr, align 8
  store ptr %this, ptr %this.addr, align 8
  %this1 = load ptr, ptr %this.addr, align 8
  call void @_ZN7testing8internal15TestFactoryBaseD2Ev(ptr noundef nonnull align 8 dereferenceable(8) %this1) #3
  ret void
}

; Function Attrs: mustprogress nounwind uwtable
define internal void @_ZN7testing8internal15TestFactoryImplIN12_GLOBAL__N_133std_mt19937_64_Compatibility_TestEED0Ev(ptr noundef nonnull align 8 dereferenceable(8) %this) unnamed_addr #7 align 2 {
entry:
  %this.addr = alloca ptr, align 8
  store ptr %this, ptr %this.addr, align 8
  %this1 = load ptr, ptr %this.addr, align 8
  call void @_ZN7testing8internal15TestFactoryImplIN12_GLOBAL__N_133std_mt19937_64_Compatibility_TestEED2Ev(ptr noundef nonnull align 8 dereferenceable(8) %this1) #3
  call void @_ZdlPv(ptr noundef %this1) #15
  ret void
}

; Function Attrs: mustprogress uwtable
define internal noundef ptr @_ZN7testing8internal15TestFactoryImplIN12_GLOBAL__N_133std_mt19937_64_Compatibility_TestEE10CreateTestEv(ptr noundef nonnull align 8 dereferenceable(8) %this) unnamed_addr #4 align 2 personality ptr @__gxx_personality_v0 {
entry:
  %this.addr = alloca ptr, align 8
  %exn.slot = alloca ptr, align 8
  %ehselector.slot = alloca i32, align 4
  store ptr %this, ptr %this.addr, align 8
  %call = call noalias noundef nonnull ptr @_Znwm(i64 noundef 16) #14
  invoke void @_ZN12_GLOBAL__N_133std_mt19937_64_Compatibility_TestC2Ev(ptr noundef nonnull align 8 dereferenceable(16) %call)
          to label %invoke.cont unwind label %lpad

invoke.cont:                                      ; preds = %entry
  ret ptr %call

lpad:                                             ; preds = %entry
  %0 = landingpad { ptr, i32 }
          cleanup
  %1 = extractvalue { ptr, i32 } %0, 0
  store ptr %1, ptr %exn.slot, align 8
  %2 = extractvalue { ptr, i32 } %0, 1
  store i32 %2, ptr %ehselector.slot, align 4
  call void @_ZdlPv(ptr noundef %call) #15
  br label %eh.resume

eh.resume:                                        ; preds = %lpad
  %exn = load ptr, ptr %exn.slot, align 8
  %sel = load i32, ptr %ehselector.slot, align 4
  %lpad.val = insertvalue { ptr, i32 } poison, ptr %exn, 0
  %lpad.val2 = insertvalue { ptr, i32 } %lpad.val, i32 %sel, 1
  resume { ptr, i32 } %lpad.val2
}

; Function Attrs: mustprogress nounwind uwtable
define linkonce_odr dso_local void @_ZN7testing8internal15TestFactoryBaseD2Ev(ptr noundef nonnull align 8 dereferenceable(8) %this) unnamed_addr #7 comdat align 2 {
entry:
  %this.addr = alloca ptr, align 8
  store ptr %this, ptr %this.addr, align 8
  ret void
}

; Function Attrs: mustprogress nounwind uwtable
define linkonce_odr dso_local void @_ZN7testing8internal15TestFactoryBaseD0Ev(ptr noundef nonnull align 8 dereferenceable(8) %this) unnamed_addr #7 comdat align 2 {
entry:
  %this.addr = alloca ptr, align 8
  store ptr %this, ptr %this.addr, align 8
  call void @llvm.trap() #17
  unreachable
}

declare void @__cxa_pure_virtual() unnamed_addr

; Function Attrs: cold noreturn nounwind memory(inaccessiblemem: write)
declare void @llvm.trap() #8

; Function Attrs: mustprogress uwtable
define internal void @_ZN12_GLOBAL__N_133std_mt19937_64_Compatibility_TestC2Ev(ptr noundef nonnull align 8 dereferenceable(16) %this) unnamed_addr #4 align 2 {
entry:
  %this.addr = alloca ptr, align 8
  store ptr %this, ptr %this.addr, align 8
  %this1 = load ptr, ptr %this.addr, align 8
  call void @_ZN7testing4TestC2Ev(ptr noundef nonnull align 8 dereferenceable(16) %this1)
  store ptr getelementptr inbounds ({ [8 x ptr] }, ptr @_ZTVN12_GLOBAL__N_133std_mt19937_64_Compatibility_TestE, i32 0, inrange i32 0, i32 2), ptr %this1, align 8
  ret void
}

declare void @_ZN7testing4TestC2Ev(ptr noundef nonnull align 8 dereferenceable(16)) unnamed_addr #1

; Function Attrs: mustprogress nounwind uwtable
define internal void @_ZN12_GLOBAL__N_133std_mt19937_64_Compatibility_TestD2Ev(ptr noundef nonnull align 8 dereferenceable(16) %this) unnamed_addr #7 align 2 {
entry:
  %this.addr = alloca ptr, align 8
  store ptr %this, ptr %this.addr, align 8
  %this1 = load ptr, ptr %this.addr, align 8
  call void @_ZN7testing4TestD2Ev(ptr noundef nonnull align 8 dereferenceable(16) %this1) #3
  ret void
}

; Function Attrs: mustprogress nounwind uwtable
define internal void @_ZN12_GLOBAL__N_133std_mt19937_64_Compatibility_TestD0Ev(ptr noundef nonnull align 8 dereferenceable(16) %this) unnamed_addr #7 align 2 {
entry:
  %this.addr = alloca ptr, align 8
  store ptr %this, ptr %this.addr, align 8
  %this1 = load ptr, ptr %this.addr, align 8
  call void @_ZN12_GLOBAL__N_133std_mt19937_64_Compatibility_TestD2Ev(ptr noundef nonnull align 8 dereferenceable(16) %this1) #3
  call void @_ZdlPv(ptr noundef %this1) #15
  ret void
}

declare void @_ZN7testing4Test5SetUpEv(ptr noundef nonnull align 8 dereferenceable(16)) unnamed_addr #1

declare void @_ZN7testing4Test8TearDownEv(ptr noundef nonnull align 8 dereferenceable(16)) unnamed_addr #1

; Function Attrs: mustprogress uwtable
define internal void @_ZN12_GLOBAL__N_133std_mt19937_64_Compatibility_Test8TestBodyEv(ptr noundef nonnull align 8 dereferenceable(16) %this) unnamed_addr #4 align 2 {
entry:
  %this.addr = alloca ptr, align 8
  store ptr %this, ptr %this.addr, align 8
  call void @_ZN12_GLOBAL__N_117CompatibilityTestISt23mersenne_twister_engineImLm64ELm312ELm156ELm31ELm13043109905998158313ELm29ELm6148914691236517205ELm17ELm8202884508482404352ELm37ELm18444473444759240704ELm43ELm6364136223846793005EEEEvv()
  ret void
}

; Function Attrs: mustprogress nounwind uwtable
define linkonce_odr dso_local noundef ptr @_ZN7testing4Test5SetupEv(ptr noundef nonnull align 8 dereferenceable(16) %this) unnamed_addr #7 comdat align 2 {
entry:
  %this.addr = alloca ptr, align 8
  store ptr %this, ptr %this.addr, align 8
  ret ptr null
}

; Function Attrs: nounwind
declare void @_ZN7testing4TestD2Ev(ptr noundef nonnull align 8 dereferenceable(16)) unnamed_addr #2

; Function Attrs: mustprogress uwtable
define internal void @_ZN12_GLOBAL__N_117CompatibilityTestISt23mersenne_twister_engineImLm64ELm312ELm156ELm31ELm13043109905998158313ELm29ELm6148914691236517205ELm17ELm8202884508482404352ELm37ELm18444473444759240704ELm43ELm6364136223846793005EEEEvv() #4 {
entry:
  %gen = alloca %"class.std::mersenne_twister_engine", align 8
  call void @_ZNSt23mersenne_twister_engineImLm64ELm312ELm156ELm31ELm13043109905998158313ELm29ELm6148914691236517205ELm17ELm8202884508482404352ELm37ELm18444473444759240704ELm43ELm6364136223846793005EEC2Ev(ptr noundef nonnull align 8 dereferenceable(2504) %gen)
  call void @_ZN12_GLOBAL__N_111TestUniformISt23mersenne_twister_engineImLm64ELm312ELm156ELm31ELm13043109905998158313ELm29ELm6148914691236517205ELm17ELm8202884508482404352ELm37ELm18444473444759240704ELm43ELm6364136223846793005EEEEvPT_(ptr noundef %gen)
  call void @_ZN12_GLOBAL__N_115TestExponentialISt23mersenne_twister_engineImLm64ELm312ELm156ELm31ELm13043109905998158313ELm29ELm6148914691236517205ELm17ELm8202884508482404352ELm37ELm18444473444759240704ELm43ELm6364136223846793005EEEEvPT_(ptr noundef %gen)
  call void @_ZN12_GLOBAL__N_111TestPoissonISt23mersenne_twister_engineImLm64ELm312ELm156ELm31ELm13043109905998158313ELm29ELm6148914691236517205ELm17ELm8202884508482404352ELm37ELm18444473444759240704ELm43ELm6364136223846793005EEEEvPT_(ptr noundef %gen)
  call void @_ZN12_GLOBAL__N_113TestBernoulliISt23mersenne_twister_engineImLm64ELm312ELm156ELm31ELm13043109905998158313ELm29ELm6148914691236517205ELm17ELm8202884508482404352ELm37ELm18444473444759240704ELm43ELm6364136223846793005EEEEvPT_(ptr noundef %gen)
  call void @_ZN12_GLOBAL__N_18TestZipfISt23mersenne_twister_engineImLm64ELm312ELm156ELm31ELm13043109905998158313ELm29ELm6148914691236517205ELm17ELm8202884508482404352ELm37ELm18444473444759240704ELm43ELm6364136223846793005EEEEvPT_(ptr noundef %gen)
  call void @_ZN12_GLOBAL__N_112TestGaussianISt23mersenne_twister_engineImLm64ELm312ELm156ELm31ELm13043109905998158313ELm29ELm6148914691236517205ELm17ELm8202884508482404352ELm37ELm18444473444759240704ELm43ELm6364136223846793005EEEEvPT_(ptr noundef %gen)
  call void @_ZN12_GLOBAL__N_113TestLogNormalISt23mersenne_twister_engineImLm64ELm312ELm156ELm31ELm13043109905998158313ELm29ELm6148914691236517205ELm17ELm8202884508482404352ELm37ELm18444473444759240704ELm43ELm6364136223846793005EEEEvPT_(ptr noundef %gen)
  ret void
}

; Function Attrs: mustprogress uwtable
define linkonce_odr dso_local void @_ZNSt23mersenne_twister_engineImLm64ELm312ELm156ELm31ELm13043109905998158313ELm29ELm6148914691236517205ELm17ELm8202884508482404352ELm37ELm18444473444759240704ELm43ELm6364136223846793005EEC2Ev(ptr noundef nonnull align 8 dereferenceable(2504) %this) unnamed_addr #4 comdat align 2 {
entry:
  %this.addr = alloca ptr, align 8
  store ptr %this, ptr %this.addr, align 8
  %this1 = load ptr, ptr %this.addr, align 8
  call void @_ZNSt23mersenne_twister_engineImLm64ELm312ELm156ELm31ELm13043109905998158313ELm29ELm6148914691236517205ELm17ELm8202884508482404352ELm37ELm18444473444759240704ELm43ELm6364136223846793005EEC2Em(ptr noundef nonnull align 8 dereferenceable(2504) %this1, i64 noundef 5489)
  ret void
}

; Function Attrs: mustprogress uwtable
define internal void @_ZN12_GLOBAL__N_111TestUniformISt23mersenne_twister_engineImLm64ELm312ELm156ELm31ELm13043109905998158313ELm29ELm6148914691236517205ELm17ELm8202884508482404352ELm37ELm18444473444759240704ELm43ELm6364136223846793005EEEEvPT_(ptr noundef %gen) #4 personality ptr @__gxx_personality_v0 {
entry:
  %gen.addr = alloca ptr, align 8
  %elems = alloca %"class.std::vector", align 8
  %agg.tmp8 = alloca %"class.std::initializer_list", align 8
  %ref.tmp = alloca [5 x i32], align 4
  %ref.tmp9 = alloca %"class.std::allocator.5", align 1
  %exn.slot = alloca ptr, align 8
  %ehselector.slot = alloca i32, align 4
  %ref.tmp89 = alloca %"class.std::mersenne_twister_engine", align 8
  %ref.tmp93 = alloca %"class.std::mersenne_twister_engine", align 8
  store ptr %gen, ptr %gen.addr, align 8
  %0 = load ptr, ptr %gen.addr, align 8
  %call = call noundef i32 @_ZN4absl7UniformIiRSt23mersenne_twister_engineImLm64ELm312ELm156ELm31ELm13043109905998158313ELm29ELm6148914691236517205ELm17ELm8202884508482404352ELm37ELm18444473444759240704ELm43ELm6364136223846793005EEEENSt9enable_ifIXntsr3std7is_sameIT_vEE5valueES5_E4typeEOT0_S5_S5_(ptr noundef nonnull align 8 dereferenceable(2504) %0, i32 noundef 0, i32 noundef 100)
  %1 = load ptr, ptr %gen.addr, align 8
  %call1 = call noundef double @_ZN4absl7UniformIvRSt23mersenne_twister_engineImLm64ELm312ELm156ELm31ELm13043109905998158313ELm29ELm6148914691236517205ELm17ELm8202884508482404352ELm37ELm18444473444759240704ELm43ELm6364136223846793005EEidEENSt9enable_ifIXsr3std7is_sameIT_vEE5valueENS4_IXsr4absl11disjunctionINS_15random_internal23is_widening_convertibleIT1_T2_EENS7_IS9_S8_EEEE5valueENSt11conditionalIXsr23is_widening_convertibleIS8_S9_EE5valueES9_S8_E4typeEE4typeEE4typeEOT0_S8_S9_(ptr noundef nonnull align 8 dereferenceable(2504) %1, i32 noundef 0, double noundef 1.000000e+00)
  %2 = load ptr, ptr %gen.addr, align 8
  %call2 = call noundef double @_ZN4absl7UniformIvRSt23mersenne_twister_engineImLm64ELm312ELm156ELm31ELm13043109905998158313ELm29ELm6148914691236517205ELm17ELm8202884508482404352ELm37ELm18444473444759240704ELm43ELm6364136223846793005EEfdEENSt9enable_ifIXsr3std7is_sameIT_vEE5valueENS4_IXsr4absl11disjunctionINS_15random_internal23is_widening_convertibleIT1_T2_EENS7_IS9_S8_EEEE5valueENSt11conditionalIXsr23is_widening_convertibleIS8_S9_EE5valueES9_S8_E4typeEE4typeEE4typeEOT0_S8_S9_(ptr noundef nonnull align 8 dereferenceable(2504) %2, float noundef 0.000000e+00, double noundef 1.000000e+00)
  %3 = load ptr, ptr %gen.addr, align 8
  %call3 = call noundef double @_ZN4absl7UniformIdRSt23mersenne_twister_engineImLm64ELm312ELm156ELm31ELm13043109905998158313ELm29ELm6148914691236517205ELm17ELm8202884508482404352ELm37ELm18444473444759240704ELm43ELm6364136223846793005EEEENSt9enable_ifIXntsr3std7is_sameIT_vEE5valueES5_E4typeEOT0_S5_S5_(ptr noundef nonnull align 8 dereferenceable(2504) %3, double noundef 0.000000e+00, double noundef 1.000000e+00)
  %4 = load ptr, ptr %gen.addr, align 8
  %call4 = call noundef i64 @_ZN4absl7UniformIvRSt23mersenne_twister_engineImLm64ELm312ELm156ELm31ELm13043109905998158313ELm29ELm6148914691236517205ELm17ELm8202884508482404352ELm37ELm18444473444759240704ELm43ELm6364136223846793005EEilEENSt9enable_ifIXsr3std7is_sameIT_vEE5valueENS4_IXsr4absl11disjunctionINS_15random_internal23is_widening_convertibleIT1_T2_EENS7_IS9_S8_EEEE5valueENSt11conditionalIXsr23is_widening_convertibleIS8_S9_EE5valueES9_S8_E4typeEE4typeEE4typeEOT0_S8_S9_(ptr noundef nonnull align 8 dereferenceable(2504) %4, i32 noundef -1, i64 noundef 1)
  %5 = load ptr, ptr %gen.addr, align 8
  %call5 = call noundef i32 @_ZN4absl7UniformIiNS_23IntervalClosedClosedTagERSt23mersenne_twister_engineImLm64ELm312ELm156ELm31ELm13043109905998158313ELm29ELm6148914691236517205ELm17ELm8202884508482404352ELm37ELm18444473444759240704ELm43ELm6364136223846793005EEEENSt9enable_ifIXntsr3std7is_sameIT_vEE5valueES6_E4typeET0_OT1_S6_S6_(ptr noundef nonnull align 8 dereferenceable(2504) %5, i32 noundef 1, i32 noundef 6)
  %6 = load ptr, ptr %gen.addr, align 8
  %call7 = call noundef double @_ZN4absl7UniformIdNS_19IntervalOpenOpenTagERSt23mersenne_twister_engineImLm64ELm312ELm156ELm31ELm13043109905998158313ELm29ELm6148914691236517205ELm17ELm8202884508482404352ELm37ELm18444473444759240704ELm43ELm6364136223846793005EEEENSt9enable_ifIXntsr3std7is_sameIT_vEE5valueES6_E4typeET0_OT1_S6_S6_(ptr noundef nonnull align 8 dereferenceable(2504) %6, double noundef 0.000000e+00, double noundef 1.000000e+00)
  call void @llvm.memcpy.p0.p0.i64(ptr align 4 %ref.tmp, ptr align 4 @constinit, i64 20, i1 false)
  %_M_array = getelementptr inbounds %"class.std::initializer_list", ptr %agg.tmp8, i32 0, i32 0
  %arraystart = getelementptr inbounds [5 x i32], ptr %ref.tmp, i64 0, i64 0
  store ptr %arraystart, ptr %_M_array, align 8
  %_M_len = getelementptr inbounds %"class.std::initializer_list", ptr %agg.tmp8, i32 0, i32 1
  store i64 5, ptr %_M_len, align 8
  call void @_ZNSaIiEC2Ev(ptr noundef nonnull align 1 dereferenceable(1) %ref.tmp9) #3
  %7 = getelementptr inbounds { ptr, i64 }, ptr %agg.tmp8, i32 0, i32 0
  %8 = load ptr, ptr %7, align 8
  %9 = getelementptr inbounds { ptr, i64 }, ptr %agg.tmp8, i32 0, i32 1
  %10 = load i64, ptr %9, align 8
  invoke void @_ZNSt6vectorIiSaIiEEC2ESt16initializer_listIiERKS0_(ptr noundef nonnull align 8 dereferenceable(24) %elems, ptr %8, i64 %10, ptr noundef nonnull align 1 dereferenceable(1) %ref.tmp9)
          to label %invoke.cont unwind label %lpad

invoke.cont:                                      ; preds = %entry
  call void @_ZNSaIiED2Ev(ptr noundef nonnull align 1 dereferenceable(1) %ref.tmp9) #3
  %11 = load ptr, ptr %gen.addr, align 8
  %call10 = call noundef i64 @_ZNKSt6vectorIiSaIiEE4sizeEv(ptr noundef nonnull align 8 dereferenceable(24) %elems) #3
  %call13 = invoke noundef i64 @_ZN4absl7UniformIvRSt23mersenne_twister_engineImLm64ELm312ELm156ELm31ELm13043109905998158313ELm29ELm6148914691236517205ELm17ELm8202884508482404352ELm37ELm18444473444759240704ELm43ELm6364136223846793005EEjmEENSt9enable_ifIXsr3std7is_sameIT_vEE5valueENS4_IXsr4absl11disjunctionINS_15random_internal23is_widening_convertibleIT1_T2_EENS7_IS9_S8_EEEE5valueENSt11conditionalIXsr23is_widening_convertibleIS8_S9_EE5valueES9_S8_E4typeEE4typeEE4typeEOT0_S8_S9_(ptr noundef nonnull align 8 dereferenceable(2504) %11, i32 noundef 0, i64 noundef %call10)
          to label %invoke.cont12 unwind label %lpad11

invoke.cont12:                                    ; preds = %invoke.cont
  %call14 = call noundef nonnull align 4 dereferenceable(4) ptr @_ZNSt6vectorIiSaIiEEixEm(ptr noundef nonnull align 8 dereferenceable(24) %elems, i64 noundef %call13) #3
  store i32 5, ptr %call14, align 4
  %12 = load ptr, ptr %gen.addr, align 8
  %call15 = call noundef i64 @_ZNKSt6vectorIiSaIiEE4sizeEv(ptr noundef nonnull align 8 dereferenceable(24) %elems) #3
  %call17 = invoke noundef i64 @_ZN4absl7UniformImRSt23mersenne_twister_engineImLm64ELm312ELm156ELm31ELm13043109905998158313ELm29ELm6148914691236517205ELm17ELm8202884508482404352ELm37ELm18444473444759240704ELm43ELm6364136223846793005EEEENSt9enable_ifIXntsr3std7is_sameIT_vEE5valueES5_E4typeEOT0_S5_S5_(ptr noundef nonnull align 8 dereferenceable(2504) %12, i64 noundef 0, i64 noundef %call15)
          to label %invoke.cont16 unwind label %lpad11

invoke.cont16:                                    ; preds = %invoke.cont12
  %call18 = call noundef nonnull align 4 dereferenceable(4) ptr @_ZNSt6vectorIiSaIiEEixEm(ptr noundef nonnull align 8 dereferenceable(24) %elems, i64 noundef %call17) #3
  store i32 3, ptr %call18, align 4
  %13 = load ptr, ptr %gen.addr, align 8
  %call21 = invoke noundef double @_ZN4absl7UniformIdNS_19IntervalOpenOpenTagERSt23mersenne_twister_engineImLm64ELm312ELm156ELm31ELm13043109905998158313ELm29ELm6148914691236517205ELm17ELm8202884508482404352ELm37ELm18444473444759240704ELm43ELm6364136223846793005EEEENSt9enable_ifIXntsr3std7is_sameIT_vEE5valueES6_E4typeET0_OT1_S6_S6_(ptr noundef nonnull align 8 dereferenceable(2504) %13, double noundef -1.000000e+00, double noundef 1.000000e+00)
          to label %invoke.cont20 unwind label %lpad11

invoke.cont20:                                    ; preds = %invoke.cont16
  %14 = load ptr, ptr %gen.addr, align 8
  %call24 = invoke noundef double @_ZN4absl7UniformIvNS_19IntervalOpenOpenTagERSt23mersenne_twister_engineImLm64ELm312ELm156ELm31ELm13043109905998158313ELm29ELm6148914691236517205ELm17ELm8202884508482404352ELm37ELm18444473444759240704ELm43ELm6364136223846793005EEidEENSt9enable_ifIXsr3std7is_sameIT_vEE5valueENS5_IXsr4absl11disjunctionINS_15random_internal23is_widening_convertibleIT2_T3_EENS8_ISA_S9_EEEE5valueENSt11conditionalIXsr23is_widening_convertibleIS9_SA_EE5valueESA_S9_E4typeEE4typeEE4typeET0_OT1_S9_SA_(ptr noundef nonnull align 8 dereferenceable(2504) %14, i32 noundef 0, double noundef 1.000000e+00)
          to label %invoke.cont23 unwind label %lpad11

invoke.cont23:                                    ; preds = %invoke.cont20
  %15 = load ptr, ptr %gen.addr, align 8
  %call26 = invoke noundef i32 @_ZN4absl7UniformIiRSt23mersenne_twister_engineImLm64ELm312ELm156ELm31ELm13043109905998158313ELm29ELm6148914691236517205ELm17ELm8202884508482404352ELm37ELm18444473444759240704ELm43ELm6364136223846793005EEEENSt9enable_ifIXntsr3std7is_sameIT_vEE5valueES5_E4typeEOT0_S5_S5_(ptr noundef nonnull align 8 dereferenceable(2504) %15, i32 noundef 0, i32 noundef 100)
          to label %invoke.cont25 unwind label %lpad11

invoke.cont25:                                    ; preds = %invoke.cont23
  %16 = load ptr, ptr %gen.addr, align 8
  %call28 = invoke noundef signext i8 @_ZN4absl7UniformIaRSt23mersenne_twister_engineImLm64ELm312ELm156ELm31ELm13043109905998158313ELm29ELm6148914691236517205ELm17ELm8202884508482404352ELm37ELm18444473444759240704ELm43ELm6364136223846793005EEEENSt9enable_ifIXntsr3std7is_sameIT_vEE5valueES5_E4typeEOT0_S5_S5_(ptr noundef nonnull align 8 dereferenceable(2504) %16, i8 noundef signext 0, i8 noundef signext 100)
          to label %invoke.cont27 unwind label %lpad11

invoke.cont27:                                    ; preds = %invoke.cont25
  %17 = load ptr, ptr %gen.addr, align 8
  %call30 = invoke noundef signext i16 @_ZN4absl7UniformIsRSt23mersenne_twister_engineImLm64ELm312ELm156ELm31ELm13043109905998158313ELm29ELm6148914691236517205ELm17ELm8202884508482404352ELm37ELm18444473444759240704ELm43ELm6364136223846793005EEEENSt9enable_ifIXntsr3std7is_sameIT_vEE5valueES5_E4typeEOT0_S5_S5_(ptr noundef nonnull align 8 dereferenceable(2504) %17, i16 noundef signext 0, i16 noundef signext 100)
          to label %invoke.cont29 unwind label %lpad11

invoke.cont29:                                    ; preds = %invoke.cont27
  %18 = load ptr, ptr %gen.addr, align 8
  %call32 = invoke noundef zeroext i16 @_ZN4absl7UniformItRSt23mersenne_twister_engineImLm64ELm312ELm156ELm31ELm13043109905998158313ELm29ELm6148914691236517205ELm17ELm8202884508482404352ELm37ELm18444473444759240704ELm43ELm6364136223846793005EEEENSt9enable_ifIXntsr3std7is_sameIT_vEE5valueES5_E4typeEOT0_S5_S5_(ptr noundef nonnull align 8 dereferenceable(2504) %18, i16 noundef zeroext 0, i16 noundef zeroext 100)
          to label %invoke.cont31 unwind label %lpad11

invoke.cont31:                                    ; preds = %invoke.cont29
  %19 = load ptr, ptr %gen.addr, align 8
  %call34 = invoke noundef i32 @_ZN4absl7UniformIiRSt23mersenne_twister_engineImLm64ELm312ELm156ELm31ELm13043109905998158313ELm29ELm6148914691236517205ELm17ELm8202884508482404352ELm37ELm18444473444759240704ELm43ELm6364136223846793005EEEENSt9enable_ifIXntsr3std7is_sameIT_vEE5valueES5_E4typeEOT0_S5_S5_(ptr noundef nonnull align 8 dereferenceable(2504) %19, i32 noundef 0, i32 noundef 1024)
          to label %invoke.cont33 unwind label %lpad11

invoke.cont33:                                    ; preds = %invoke.cont31
  %20 = load ptr, ptr %gen.addr, align 8
  %call36 = invoke noundef i32 @_ZN4absl7UniformIjRSt23mersenne_twister_engineImLm64ELm312ELm156ELm31ELm13043109905998158313ELm29ELm6148914691236517205ELm17ELm8202884508482404352ELm37ELm18444473444759240704ELm43ELm6364136223846793005EEEENSt9enable_ifIXntsr3std7is_sameIT_vEE5valueES5_E4typeEOT0_S5_S5_(ptr noundef nonnull align 8 dereferenceable(2504) %20, i32 noundef 0, i32 noundef 1024)
          to label %invoke.cont35 unwind label %lpad11

invoke.cont35:                                    ; preds = %invoke.cont33
  %21 = load ptr, ptr %gen.addr, align 8
  %call38 = invoke noundef i64 @_ZN4absl7UniformIlRSt23mersenne_twister_engineImLm64ELm312ELm156ELm31ELm13043109905998158313ELm29ELm6148914691236517205ELm17ELm8202884508482404352ELm37ELm18444473444759240704ELm43ELm6364136223846793005EEEENSt9enable_ifIXntsr3std7is_sameIT_vEE5valueES5_E4typeEOT0_S5_S5_(ptr noundef nonnull align 8 dereferenceable(2504) %21, i64 noundef 0, i64 noundef 1024)
          to label %invoke.cont37 unwind label %lpad11

invoke.cont37:                                    ; preds = %invoke.cont35
  %22 = load ptr, ptr %gen.addr, align 8
  %call40 = invoke noundef i64 @_ZN4absl7UniformImRSt23mersenne_twister_engineImLm64ELm312ELm156ELm31ELm13043109905998158313ELm29ELm6148914691236517205ELm17ELm8202884508482404352ELm37ELm18444473444759240704ELm43ELm6364136223846793005EEEENSt9enable_ifIXntsr3std7is_sameIT_vEE5valueES5_E4typeEOT0_S5_S5_(ptr noundef nonnull align 8 dereferenceable(2504) %22, i64 noundef 0, i64 noundef 1024)
          to label %invoke.cont39 unwind label %lpad11

invoke.cont39:                                    ; preds = %invoke.cont37
  %23 = load ptr, ptr %gen.addr, align 8
  %call42 = invoke noundef float @_ZN4absl7UniformIfRSt23mersenne_twister_engineImLm64ELm312ELm156ELm31ELm13043109905998158313ELm29ELm6148914691236517205ELm17ELm8202884508482404352ELm37ELm18444473444759240704ELm43ELm6364136223846793005EEEENSt9enable_ifIXntsr3std7is_sameIT_vEE5valueES5_E4typeEOT0_S5_S5_(ptr noundef nonnull align 8 dereferenceable(2504) %23, float noundef 0.000000e+00, float noundef 1.000000e+00)
          to label %invoke.cont41 unwind label %lpad11

invoke.cont41:                                    ; preds = %invoke.cont39
  %24 = load ptr, ptr %gen.addr, align 8
  %call44 = invoke noundef float @_ZN4absl7UniformIfRSt23mersenne_twister_engineImLm64ELm312ELm156ELm31ELm13043109905998158313ELm29ELm6148914691236517205ELm17ELm8202884508482404352ELm37ELm18444473444759240704ELm43ELm6364136223846793005EEEENSt9enable_ifIXntsr3std7is_sameIT_vEE5valueES5_E4typeEOT0_S5_S5_(ptr noundef nonnull align 8 dereferenceable(2504) %24, float noundef 0.000000e+00, float noundef 1.000000e+00)
          to label %invoke.cont43 unwind label %lpad11

invoke.cont43:                                    ; preds = %invoke.cont41
  %25 = load ptr, ptr %gen.addr, align 8
  %call46 = invoke noundef float @_ZN4absl7UniformIfRSt23mersenne_twister_engineImLm64ELm312ELm156ELm31ELm13043109905998158313ELm29ELm6148914691236517205ELm17ELm8202884508482404352ELm37ELm18444473444759240704ELm43ELm6364136223846793005EEEENSt9enable_ifIXntsr3std7is_sameIT_vEE5valueES5_E4typeEOT0_S5_S5_(ptr noundef nonnull align 8 dereferenceable(2504) %25, float noundef -1.000000e+00, float noundef 1.000000e+00)
          to label %invoke.cont45 unwind label %lpad11

invoke.cont45:                                    ; preds = %invoke.cont43
  %26 = load ptr, ptr %gen.addr, align 8
  %call48 = invoke noundef double @_ZN4absl7UniformIdRSt23mersenne_twister_engineImLm64ELm312ELm156ELm31ELm13043109905998158313ELm29ELm6148914691236517205ELm17ELm8202884508482404352ELm37ELm18444473444759240704ELm43ELm6364136223846793005EEEENSt9enable_ifIXntsr3std7is_sameIT_vEE5valueES5_E4typeEOT0_S5_S5_(ptr noundef nonnull align 8 dereferenceable(2504) %26, double noundef 0.000000e+00, double noundef 1.000000e+00)
          to label %invoke.cont47 unwind label %lpad11

invoke.cont47:                                    ; preds = %invoke.cont45
  %27 = load ptr, ptr %gen.addr, align 8
  %call50 = invoke noundef float @_ZN4absl7UniformIfRSt23mersenne_twister_engineImLm64ELm312ELm156ELm31ELm13043109905998158313ELm29ELm6148914691236517205ELm17ELm8202884508482404352ELm37ELm18444473444759240704ELm43ELm6364136223846793005EEEENSt9enable_ifIXntsr3std7is_sameIT_vEE5valueES5_E4typeEOT0_S5_S5_(ptr noundef nonnull align 8 dereferenceable(2504) %27, float noundef -1.000000e+00, float noundef 0.000000e+00)
          to label %invoke.cont49 unwind label %lpad11

invoke.cont49:                                    ; preds = %invoke.cont47
  %28 = load ptr, ptr %gen.addr, align 8
  %call52 = invoke noundef double @_ZN4absl7UniformIdRSt23mersenne_twister_engineImLm64ELm312ELm156ELm31ELm13043109905998158313ELm29ELm6148914691236517205ELm17ELm8202884508482404352ELm37ELm18444473444759240704ELm43ELm6364136223846793005EEEENSt9enable_ifIXntsr3std7is_sameIT_vEE5valueES5_E4typeEOT0_S5_S5_(ptr noundef nonnull align 8 dereferenceable(2504) %28, double noundef -1.000000e+00, double noundef 0.000000e+00)
          to label %invoke.cont51 unwind label %lpad11

invoke.cont51:                                    ; preds = %invoke.cont49
  %29 = load ptr, ptr %gen.addr, align 8
  %call55 = invoke noundef double @_ZN4absl7UniformIdNS_23IntervalClosedClosedTagERSt23mersenne_twister_engineImLm64ELm312ELm156ELm31ELm13043109905998158313ELm29ELm6148914691236517205ELm17ELm8202884508482404352ELm37ELm18444473444759240704ELm43ELm6364136223846793005EEEENSt9enable_ifIXntsr3std7is_sameIT_vEE5valueES6_E4typeET0_OT1_S6_S6_(ptr noundef nonnull align 8 dereferenceable(2504) %29, double noundef 0.000000e+00, double noundef 1.000000e+00)
          to label %invoke.cont54 unwind label %lpad11

invoke.cont54:                                    ; preds = %invoke.cont51
  %30 = load ptr, ptr %gen.addr, align 8
  %call58 = invoke noundef double @_ZN4absl7UniformIdNS_21IntervalClosedOpenTagERSt23mersenne_twister_engineImLm64ELm312ELm156ELm31ELm13043109905998158313ELm29ELm6148914691236517205ELm17ELm8202884508482404352ELm37ELm18444473444759240704ELm43ELm6364136223846793005EEEENSt9enable_ifIXntsr3std7is_sameIT_vEE5valueES6_E4typeET0_OT1_S6_S6_(ptr noundef nonnull align 8 dereferenceable(2504) %30, double noundef 0.000000e+00, double noundef 1.000000e+00)
          to label %invoke.cont57 unwind label %lpad11

invoke.cont57:                                    ; preds = %invoke.cont54
  %31 = load ptr, ptr %gen.addr, align 8
  %call61 = invoke noundef double @_ZN4absl7UniformIdNS_19IntervalOpenOpenTagERSt23mersenne_twister_engineImLm64ELm312ELm156ELm31ELm13043109905998158313ELm29ELm6148914691236517205ELm17ELm8202884508482404352ELm37ELm18444473444759240704ELm43ELm6364136223846793005EEEENSt9enable_ifIXntsr3std7is_sameIT_vEE5valueES6_E4typeET0_OT1_S6_S6_(ptr noundef nonnull align 8 dereferenceable(2504) %31, double noundef 0.000000e+00, double noundef 1.000000e+00)
          to label %invoke.cont60 unwind label %lpad11

invoke.cont60:                                    ; preds = %invoke.cont57
  %32 = load ptr, ptr %gen.addr, align 8
  %call64 = invoke noundef double @_ZN4absl7UniformIdNS_21IntervalOpenClosedTagERSt23mersenne_twister_engineImLm64ELm312ELm156ELm31ELm13043109905998158313ELm29ELm6148914691236517205ELm17ELm8202884508482404352ELm37ELm18444473444759240704ELm43ELm6364136223846793005EEEENSt9enable_ifIXntsr3std7is_sameIT_vEE5valueES6_E4typeET0_OT1_S6_S6_(ptr noundef nonnull align 8 dereferenceable(2504) %32, double noundef 0.000000e+00, double noundef 1.000000e+00)
          to label %invoke.cont63 unwind label %lpad11

invoke.cont63:                                    ; preds = %invoke.cont60
  %33 = load ptr, ptr %gen.addr, align 8
  %call67 = invoke noundef double @_ZN4absl7UniformIdNS_23IntervalClosedClosedTagERSt23mersenne_twister_engineImLm64ELm312ELm156ELm31ELm13043109905998158313ELm29ELm6148914691236517205ELm17ELm8202884508482404352ELm37ELm18444473444759240704ELm43ELm6364136223846793005EEEENSt9enable_ifIXntsr3std7is_sameIT_vEE5valueES6_E4typeET0_OT1_S6_S6_(ptr noundef nonnull align 8 dereferenceable(2504) %33, double noundef 0.000000e+00, double noundef 1.000000e+00)
          to label %invoke.cont66 unwind label %lpad11

invoke.cont66:                                    ; preds = %invoke.cont63
  %34 = load ptr, ptr %gen.addr, align 8
  %call70 = invoke noundef double @_ZN4absl7UniformIdNS_19IntervalOpenOpenTagERSt23mersenne_twister_engineImLm64ELm312ELm156ELm31ELm13043109905998158313ELm29ELm6148914691236517205ELm17ELm8202884508482404352ELm37ELm18444473444759240704ELm43ELm6364136223846793005EEEENSt9enable_ifIXntsr3std7is_sameIT_vEE5valueES6_E4typeET0_OT1_S6_S6_(ptr noundef nonnull align 8 dereferenceable(2504) %34, double noundef 0.000000e+00, double noundef 1.000000e+00)
          to label %invoke.cont69 unwind label %lpad11

invoke.cont69:                                    ; preds = %invoke.cont66
  %35 = load ptr, ptr %gen.addr, align 8
  %call73 = invoke noundef i32 @_ZN4absl7UniformIiNS_23IntervalClosedClosedTagERSt23mersenne_twister_engineImLm64ELm312ELm156ELm31ELm13043109905998158313ELm29ELm6148914691236517205ELm17ELm8202884508482404352ELm37ELm18444473444759240704ELm43ELm6364136223846793005EEEENSt9enable_ifIXntsr3std7is_sameIT_vEE5valueES6_E4typeET0_OT1_S6_S6_(ptr noundef nonnull align 8 dereferenceable(2504) %35, i32 noundef 0, i32 noundef 100)
          to label %invoke.cont72 unwind label %lpad11

invoke.cont72:                                    ; preds = %invoke.cont69
  %36 = load ptr, ptr %gen.addr, align 8
  %call76 = invoke noundef i32 @_ZN4absl7UniformIiNS_21IntervalClosedOpenTagERSt23mersenne_twister_engineImLm64ELm312ELm156ELm31ELm13043109905998158313ELm29ELm6148914691236517205ELm17ELm8202884508482404352ELm37ELm18444473444759240704ELm43ELm6364136223846793005EEEENSt9enable_ifIXntsr3std7is_sameIT_vEE5valueES6_E4typeET0_OT1_S6_S6_(ptr noundef nonnull align 8 dereferenceable(2504) %36, i32 noundef 0, i32 noundef 100)
          to label %invoke.cont75 unwind label %lpad11

invoke.cont75:                                    ; preds = %invoke.cont72
  %37 = load ptr, ptr %gen.addr, align 8
  %call79 = invoke noundef i32 @_ZN4absl7UniformIiNS_19IntervalOpenOpenTagERSt23mersenne_twister_engineImLm64ELm312ELm156ELm31ELm13043109905998158313ELm29ELm6148914691236517205ELm17ELm8202884508482404352ELm37ELm18444473444759240704ELm43ELm6364136223846793005EEEENSt9enable_ifIXntsr3std7is_sameIT_vEE5valueES6_E4typeET0_OT1_S6_S6_(ptr noundef nonnull align 8 dereferenceable(2504) %37, i32 noundef 0, i32 noundef 100)
          to label %invoke.cont78 unwind label %lpad11

invoke.cont78:                                    ; preds = %invoke.cont75
  %38 = load ptr, ptr %gen.addr, align 8
  %call82 = invoke noundef i32 @_ZN4absl7UniformIiNS_21IntervalOpenClosedTagERSt23mersenne_twister_engineImLm64ELm312ELm156ELm31ELm13043109905998158313ELm29ELm6148914691236517205ELm17ELm8202884508482404352ELm37ELm18444473444759240704ELm43ELm6364136223846793005EEEENSt9enable_ifIXntsr3std7is_sameIT_vEE5valueES6_E4typeET0_OT1_S6_S6_(ptr noundef nonnull align 8 dereferenceable(2504) %38, i32 noundef 0, i32 noundef 100)
          to label %invoke.cont81 unwind label %lpad11

invoke.cont81:                                    ; preds = %invoke.cont78
  %39 = load ptr, ptr %gen.addr, align 8
  %call85 = invoke noundef i32 @_ZN4absl7UniformIiNS_23IntervalClosedClosedTagERSt23mersenne_twister_engineImLm64ELm312ELm156ELm31ELm13043109905998158313ELm29ELm6148914691236517205ELm17ELm8202884508482404352ELm37ELm18444473444759240704ELm43ELm6364136223846793005EEEENSt9enable_ifIXntsr3std7is_sameIT_vEE5valueES6_E4typeET0_OT1_S6_S6_(ptr noundef nonnull align 8 dereferenceable(2504) %39, i32 noundef 0, i32 noundef 100)
          to label %invoke.cont84 unwind label %lpad11

invoke.cont84:                                    ; preds = %invoke.cont81
  %40 = load ptr, ptr %gen.addr, align 8
  %call88 = invoke noundef i32 @_ZN4absl7UniformIiNS_19IntervalOpenOpenTagERSt23mersenne_twister_engineImLm64ELm312ELm156ELm31ELm13043109905998158313ELm29ELm6148914691236517205ELm17ELm8202884508482404352ELm37ELm18444473444759240704ELm43ELm6364136223846793005EEEENSt9enable_ifIXntsr3std7is_sameIT_vEE5valueES6_E4typeET0_OT1_S6_S6_(ptr noundef nonnull align 8 dereferenceable(2504) %40, i32 noundef 0, i32 noundef 100)
          to label %invoke.cont87 unwind label %lpad11

invoke.cont87:                                    ; preds = %invoke.cont84
  invoke void @_ZNSt23mersenne_twister_engineImLm64ELm312ELm156ELm31ELm13043109905998158313ELm29ELm6148914691236517205ELm17ELm8202884508482404352ELm37ELm18444473444759240704ELm43ELm6364136223846793005EEC2Ev(ptr noundef nonnull align 8 dereferenceable(2504) %ref.tmp89)
          to label %invoke.cont90 unwind label %lpad11

invoke.cont90:                                    ; preds = %invoke.cont87
  %call92 = invoke noundef i32 @_ZN4absl7UniformIiSt23mersenne_twister_engineImLm64ELm312ELm156ELm31ELm13043109905998158313ELm29ELm6148914691236517205ELm17ELm8202884508482404352ELm37ELm18444473444759240704ELm43ELm6364136223846793005EEEENSt9enable_ifIXntsr3std7is_sameIT_vEE5valueES4_E4typeEOT0_S4_S4_(ptr noundef nonnull align 8 dereferenceable(2504) %ref.tmp89, i32 noundef 0, i32 noundef 100)
          to label %invoke.cont91 unwind label %lpad11

invoke.cont91:                                    ; preds = %invoke.cont90
  invoke void @_ZNSt23mersenne_twister_engineImLm64ELm312ELm156ELm31ELm13043109905998158313ELm29ELm6148914691236517205ELm17ELm8202884508482404352ELm37ELm18444473444759240704ELm43ELm6364136223846793005EEC2Ev(ptr noundef nonnull align 8 dereferenceable(2504) %ref.tmp93)
          to label %invoke.cont94 unwind label %lpad11

invoke.cont94:                                    ; preds = %invoke.cont91
  %call96 = invoke noundef double @_ZN4absl7UniformIdSt23mersenne_twister_engineImLm64ELm312ELm156ELm31ELm13043109905998158313ELm29ELm6148914691236517205ELm17ELm8202884508482404352ELm37ELm18444473444759240704ELm43ELm6364136223846793005EEEENSt9enable_ifIXntsr3std7is_sameIT_vEE5valueES4_E4typeEOT0_S4_S4_(ptr noundef nonnull align 8 dereferenceable(2504) %ref.tmp93, double noundef 0.000000e+00, double noundef 1.000000e+00)
          to label %invoke.cont95 unwind label %lpad11

invoke.cont95:                                    ; preds = %invoke.cont94
  call void @_ZNSt6vectorIiSaIiEED2Ev(ptr noundef nonnull align 8 dereferenceable(24) %elems) #3
  ret void

lpad:                                             ; preds = %entry
  %41 = landingpad { ptr, i32 }
          cleanup
  %42 = extractvalue { ptr, i32 } %41, 0
  store ptr %42, ptr %exn.slot, align 8
  %43 = extractvalue { ptr, i32 } %41, 1
  store i32 %43, ptr %ehselector.slot, align 4
  call void @_ZNSaIiED2Ev(ptr noundef nonnull align 1 dereferenceable(1) %ref.tmp9) #3
  br label %eh.resume

lpad11:                                           ; preds = %invoke.cont94, %invoke.cont91, %invoke.cont90, %invoke.cont87, %invoke.cont84, %invoke.cont81, %invoke.cont78, %invoke.cont75, %invoke.cont72, %invoke.cont69, %invoke.cont66, %invoke.cont63, %invoke.cont60, %invoke.cont57, %invoke.cont54, %invoke.cont51, %invoke.cont49, %invoke.cont47, %invoke.cont45, %invoke.cont43, %invoke.cont41, %invoke.cont39, %invoke.cont37, %invoke.cont35, %invoke.cont33, %invoke.cont31, %invoke.cont29, %invoke.cont27, %invoke.cont25, %invoke.cont23, %invoke.cont20, %invoke.cont16, %invoke.cont12, %invoke.cont
  %44 = landingpad { ptr, i32 }
          cleanup
  %45 = extractvalue { ptr, i32 } %44, 0
  store ptr %45, ptr %exn.slot, align 8
  %46 = extractvalue { ptr, i32 } %44, 1
  store i32 %46, ptr %ehselector.slot, align 4
  call void @_ZNSt6vectorIiSaIiEED2Ev(ptr noundef nonnull align 8 dereferenceable(24) %elems) #3
  br label %eh.resume

eh.resume:                                        ; preds = %lpad11, %lpad
  %exn = load ptr, ptr %exn.slot, align 8
  %sel = load i32, ptr %ehselector.slot, align 4
  %lpad.val = insertvalue { ptr, i32 } poison, ptr %exn, 0
  %lpad.val97 = insertvalue { ptr, i32 } %lpad.val, i32 %sel, 1
  resume { ptr, i32 } %lpad.val97
}

; Function Attrs: mustprogress uwtable
define internal void @_ZN12_GLOBAL__N_115TestExponentialISt23mersenne_twister_engineImLm64ELm312ELm156ELm31ELm13043109905998158313ELm29ELm6148914691236517205ELm17ELm8202884508482404352ELm37ELm18444473444759240704ELm43ELm6364136223846793005EEEEvPT_(ptr noundef %gen) #4 {
entry:
  %gen.addr = alloca ptr, align 8
  %ref.tmp = alloca %"class.std::mersenne_twister_engine", align 8
  store ptr %gen, ptr %gen.addr, align 8
  %0 = load ptr, ptr %gen.addr, align 8
  %call = call noundef float @_ZN4absl11ExponentialIfRSt23mersenne_twister_engineImLm64ELm312ELm156ELm31ELm13043109905998158313ELm29ELm6148914691236517205ELm17ELm8202884508482404352ELm37ELm18444473444759240704ELm43ELm6364136223846793005EEEET_OT0_S4_(ptr noundef nonnull align 8 dereferenceable(2504) %0, float noundef 1.000000e+00)
  %1 = load ptr, ptr %gen.addr, align 8
  %call1 = call noundef double @_ZN4absl11ExponentialIdRSt23mersenne_twister_engineImLm64ELm312ELm156ELm31ELm13043109905998158313ELm29ELm6148914691236517205ELm17ELm8202884508482404352ELm37ELm18444473444759240704ELm43ELm6364136223846793005EEEET_OT0_S4_(ptr noundef nonnull align 8 dereferenceable(2504) %1, double noundef 1.000000e+00)
  call void @_ZNSt23mersenne_twister_engineImLm64ELm312ELm156ELm31ELm13043109905998158313ELm29ELm6148914691236517205ELm17ELm8202884508482404352ELm37ELm18444473444759240704ELm43ELm6364136223846793005EEC2Ev(ptr noundef nonnull align 8 dereferenceable(2504) %ref.tmp)
  %call2 = call noundef double @_ZN4absl11ExponentialIdSt23mersenne_twister_engineImLm64ELm312ELm156ELm31ELm13043109905998158313ELm29ELm6148914691236517205ELm17ELm8202884508482404352ELm37ELm18444473444759240704ELm43ELm6364136223846793005EEEET_OT0_S3_(ptr noundef nonnull align 8 dereferenceable(2504) %ref.tmp, double noundef 1.000000e+00)
  ret void
}

; Function Attrs: mustprogress uwtable
define internal void @_ZN12_GLOBAL__N_111TestPoissonISt23mersenne_twister_engineImLm64ELm312ELm156ELm31ELm13043109905998158313ELm29ELm6148914691236517205ELm17ELm8202884508482404352ELm37ELm18444473444759240704ELm43ELm6364136223846793005EEEEvPT_(ptr noundef %gen) #4 {
entry:
  %gen.addr = alloca ptr, align 8
  %ref.tmp = alloca %"class.std::mersenne_twister_engine", align 8
  %coerce = alloca %"class.absl::int128", align 16
  %coerce10 = alloca %"class.absl::uint128", align 16
  store ptr %gen, ptr %gen.addr, align 8
  %0 = load ptr, ptr %gen.addr, align 8
  %call = call noundef i32 @_ZN4absl7PoissonIiRSt23mersenne_twister_engineImLm64ELm312ELm156ELm31ELm13043109905998158313ELm29ELm6148914691236517205ELm17ELm8202884508482404352ELm37ELm18444473444759240704ELm43ELm6364136223846793005EEEET_OT0_d(ptr noundef nonnull align 8 dereferenceable(2504) %0, double noundef 1.000000e+00)
  %1 = load ptr, ptr %gen.addr, align 8
  %call1 = call noundef signext i16 @_ZN4absl7PoissonIsRSt23mersenne_twister_engineImLm64ELm312ELm156ELm31ELm13043109905998158313ELm29ELm6148914691236517205ELm17ELm8202884508482404352ELm37ELm18444473444759240704ELm43ELm6364136223846793005EEEET_OT0_d(ptr noundef nonnull align 8 dereferenceable(2504) %1, double noundef 1.000000e+00)
  %2 = load ptr, ptr %gen.addr, align 8
  %call2 = call noundef zeroext i16 @_ZN4absl7PoissonItRSt23mersenne_twister_engineImLm64ELm312ELm156ELm31ELm13043109905998158313ELm29ELm6148914691236517205ELm17ELm8202884508482404352ELm37ELm18444473444759240704ELm43ELm6364136223846793005EEEET_OT0_d(ptr noundef nonnull align 8 dereferenceable(2504) %2, double noundef 1.000000e+00)
  %3 = load ptr, ptr %gen.addr, align 8
  %call3 = call noundef i32 @_ZN4absl7PoissonIiRSt23mersenne_twister_engineImLm64ELm312ELm156ELm31ELm13043109905998158313ELm29ELm6148914691236517205ELm17ELm8202884508482404352ELm37ELm18444473444759240704ELm43ELm6364136223846793005EEEET_OT0_d(ptr noundef nonnull align 8 dereferenceable(2504) %3, double noundef 1.000000e+00)
  %4 = load ptr, ptr %gen.addr, align 8
  %call4 = call noundef i32 @_ZN4absl7PoissonIjRSt23mersenne_twister_engineImLm64ELm312ELm156ELm31ELm13043109905998158313ELm29ELm6148914691236517205ELm17ELm8202884508482404352ELm37ELm18444473444759240704ELm43ELm6364136223846793005EEEET_OT0_d(ptr noundef nonnull align 8 dereferenceable(2504) %4, double noundef 1.000000e+00)
  %5 = load ptr, ptr %gen.addr, align 8
  %call5 = call noundef i64 @_ZN4absl7PoissonIlRSt23mersenne_twister_engineImLm64ELm312ELm156ELm31ELm13043109905998158313ELm29ELm6148914691236517205ELm17ELm8202884508482404352ELm37ELm18444473444759240704ELm43ELm6364136223846793005EEEET_OT0_d(ptr noundef nonnull align 8 dereferenceable(2504) %5, double noundef 1.000000e+00)
  %6 = load ptr, ptr %gen.addr, align 8
  %call6 = call noundef i64 @_ZN4absl7PoissonImRSt23mersenne_twister_engineImLm64ELm312ELm156ELm31ELm13043109905998158313ELm29ELm6148914691236517205ELm17ELm8202884508482404352ELm37ELm18444473444759240704ELm43ELm6364136223846793005EEEET_OT0_d(ptr noundef nonnull align 8 dereferenceable(2504) %6, double noundef 1.000000e+00)
  call void @_ZNSt23mersenne_twister_engineImLm64ELm312ELm156ELm31ELm13043109905998158313ELm29ELm6148914691236517205ELm17ELm8202884508482404352ELm37ELm18444473444759240704ELm43ELm6364136223846793005EEC2Ev(ptr noundef nonnull align 8 dereferenceable(2504) %ref.tmp)
  %call7 = call noundef i64 @_ZN4absl7PoissonImSt23mersenne_twister_engineImLm64ELm312ELm156ELm31ELm13043109905998158313ELm29ELm6148914691236517205ELm17ELm8202884508482404352ELm37ELm18444473444759240704ELm43ELm6364136223846793005EEEET_OT0_d(ptr noundef nonnull align 8 dereferenceable(2504) %ref.tmp, double noundef 1.000000e+00)
  %7 = load ptr, ptr %gen.addr, align 8
  %call8 = call { i64, i64 } @_ZN4absl7PoissonINS_6int128ERSt23mersenne_twister_engineImLm64ELm312ELm156ELm31ELm13043109905998158313ELm29ELm6148914691236517205ELm17ELm8202884508482404352ELm37ELm18444473444759240704ELm43ELm6364136223846793005EEEET_OT0_d(ptr noundef nonnull align 8 dereferenceable(2504) %7, double noundef 1.000000e+00)
  %coerce.dive = getelementptr inbounds %"class.absl::int128", ptr %coerce, i32 0, i32 0
  %8 = getelementptr inbounds { i64, i64 }, ptr %coerce.dive, i32 0, i32 0
  %9 = extractvalue { i64, i64 } %call8, 0
  store i64 %9, ptr %8, align 16
  %10 = getelementptr inbounds { i64, i64 }, ptr %coerce.dive, i32 0, i32 1
  %11 = extractvalue { i64, i64 } %call8, 1
  store i64 %11, ptr %10, align 8
  %12 = load ptr, ptr %gen.addr, align 8
  %call9 = call { i64, i64 } @_ZN4absl7PoissonINS_7uint128ERSt23mersenne_twister_engineImLm64ELm312ELm156ELm31ELm13043109905998158313ELm29ELm6148914691236517205ELm17ELm8202884508482404352ELm37ELm18444473444759240704ELm43ELm6364136223846793005EEEET_OT0_d(ptr noundef nonnull align 8 dereferenceable(2504) %12, double noundef 1.000000e+00)
  %13 = getelementptr inbounds { i64, i64 }, ptr %coerce10, i32 0, i32 0
  %14 = extractvalue { i64, i64 } %call9, 0
  store i64 %14, ptr %13, align 16
  %15 = getelementptr inbounds { i64, i64 }, ptr %coerce10, i32 0, i32 1
  %16 = extractvalue { i64, i64 } %call9, 1
  store i64 %16, ptr %15, align 8
  ret void
}

; Function Attrs: mustprogress uwtable
define internal void @_ZN12_GLOBAL__N_113TestBernoulliISt23mersenne_twister_engineImLm64ELm312ELm156ELm31ELm13043109905998158313ELm29ELm6148914691236517205ELm17ELm8202884508482404352ELm37ELm18444473444759240704ELm43ELm6364136223846793005EEEEvPT_(ptr noundef %gen) #4 {
entry:
  %gen.addr = alloca ptr, align 8
  store ptr %gen, ptr %gen.addr, align 8
  %0 = load ptr, ptr %gen.addr, align 8
  %call = call noundef zeroext i1 @_ZN4absl9BernoulliIRSt23mersenne_twister_engineImLm64ELm312ELm156ELm31ELm13043109905998158313ELm29ELm6148914691236517205ELm17ELm8202884508482404352ELm37ELm18444473444759240704ELm43ELm6364136223846793005EEEEbOT_d(ptr noundef nonnull align 8 dereferenceable(2504) %0, double noundef 5.000000e-01)
  %1 = load ptr, ptr %gen.addr, align 8
  %call1 = call noundef zeroext i1 @_ZN4absl9BernoulliIRSt23mersenne_twister_engineImLm64ELm312ELm156ELm31ELm13043109905998158313ELm29ELm6148914691236517205ELm17ELm8202884508482404352ELm37ELm18444473444759240704ELm43ELm6364136223846793005EEEEbOT_d(ptr noundef nonnull align 8 dereferenceable(2504) %1, double noundef 5.000000e-01)
  ret void
}

; Function Attrs: mustprogress uwtable
define internal void @_ZN12_GLOBAL__N_18TestZipfISt23mersenne_twister_engineImLm64ELm312ELm156ELm31ELm13043109905998158313ELm29ELm6148914691236517205ELm17ELm8202884508482404352ELm37ELm18444473444759240704ELm43ELm6364136223846793005EEEEvPT_(ptr noundef %gen) #4 {
entry:
  %gen.addr = alloca ptr, align 8
  %ref.tmp = alloca %"class.std::mersenne_twister_engine", align 8
  %agg.tmp = alloca %"class.absl::int128", align 16
  %coerce = alloca %"class.absl::int128", align 16
  %agg.tmp10 = alloca %"class.absl::uint128", align 16
  %coerce12 = alloca %"class.absl::uint128", align 16
  store ptr %gen, ptr %gen.addr, align 8
  %0 = load ptr, ptr %gen.addr, align 8
  %call = call noundef i32 @_ZN4absl4ZipfIiRSt23mersenne_twister_engineImLm64ELm312ELm156ELm31ELm13043109905998158313ELm29ELm6148914691236517205ELm17ELm8202884508482404352ELm37ELm18444473444759240704ELm43ELm6364136223846793005EEEET_OT0_S4_dd(ptr noundef nonnull align 8 dereferenceable(2504) %0, i32 noundef 100, double noundef 2.000000e+00, double noundef 1.000000e+00)
  %1 = load ptr, ptr %gen.addr, align 8
  %call1 = call noundef signext i8 @_ZN4absl4ZipfIaRSt23mersenne_twister_engineImLm64ELm312ELm156ELm31ELm13043109905998158313ELm29ELm6148914691236517205ELm17ELm8202884508482404352ELm37ELm18444473444759240704ELm43ELm6364136223846793005EEEET_OT0_S4_dd(ptr noundef nonnull align 8 dereferenceable(2504) %1, i8 noundef signext 100, double noundef 2.000000e+00, double noundef 1.000000e+00)
  %2 = load ptr, ptr %gen.addr, align 8
  %call2 = call noundef signext i16 @_ZN4absl4ZipfIsRSt23mersenne_twister_engineImLm64ELm312ELm156ELm31ELm13043109905998158313ELm29ELm6148914691236517205ELm17ELm8202884508482404352ELm37ELm18444473444759240704ELm43ELm6364136223846793005EEEET_OT0_S4_dd(ptr noundef nonnull align 8 dereferenceable(2504) %2, i16 noundef signext 100, double noundef 2.000000e+00, double noundef 1.000000e+00)
  %3 = load ptr, ptr %gen.addr, align 8
  %call3 = call noundef zeroext i16 @_ZN4absl4ZipfItRSt23mersenne_twister_engineImLm64ELm312ELm156ELm31ELm13043109905998158313ELm29ELm6148914691236517205ELm17ELm8202884508482404352ELm37ELm18444473444759240704ELm43ELm6364136223846793005EEEET_OT0_S4_dd(ptr noundef nonnull align 8 dereferenceable(2504) %3, i16 noundef zeroext 100, double noundef 2.000000e+00, double noundef 1.000000e+00)
  %4 = load ptr, ptr %gen.addr, align 8
  %call4 = call noundef i32 @_ZN4absl4ZipfIiRSt23mersenne_twister_engineImLm64ELm312ELm156ELm31ELm13043109905998158313ELm29ELm6148914691236517205ELm17ELm8202884508482404352ELm37ELm18444473444759240704ELm43ELm6364136223846793005EEEET_OT0_S4_dd(ptr noundef nonnull align 8 dereferenceable(2504) %4, i32 noundef 1024, double noundef 2.000000e+00, double noundef 1.000000e+00)
  %5 = load ptr, ptr %gen.addr, align 8
  %call5 = call noundef i32 @_ZN4absl4ZipfIjRSt23mersenne_twister_engineImLm64ELm312ELm156ELm31ELm13043109905998158313ELm29ELm6148914691236517205ELm17ELm8202884508482404352ELm37ELm18444473444759240704ELm43ELm6364136223846793005EEEET_OT0_S4_dd(ptr noundef nonnull align 8 dereferenceable(2504) %5, i32 noundef 1024, double noundef 2.000000e+00, double noundef 1.000000e+00)
  %6 = load ptr, ptr %gen.addr, align 8
  %call6 = call noundef i64 @_ZN4absl4ZipfIlRSt23mersenne_twister_engineImLm64ELm312ELm156ELm31ELm13043109905998158313ELm29ELm6148914691236517205ELm17ELm8202884508482404352ELm37ELm18444473444759240704ELm43ELm6364136223846793005EEEET_OT0_S4_dd(ptr noundef nonnull align 8 dereferenceable(2504) %6, i64 noundef 1024, double noundef 2.000000e+00, double noundef 1.000000e+00)
  %7 = load ptr, ptr %gen.addr, align 8
  %call7 = call noundef i64 @_ZN4absl4ZipfImRSt23mersenne_twister_engineImLm64ELm312ELm156ELm31ELm13043109905998158313ELm29ELm6148914691236517205ELm17ELm8202884508482404352ELm37ELm18444473444759240704ELm43ELm6364136223846793005EEEET_OT0_S4_dd(ptr noundef nonnull align 8 dereferenceable(2504) %7, i64 noundef 1024, double noundef 2.000000e+00, double noundef 1.000000e+00)
  call void @_ZNSt23mersenne_twister_engineImLm64ELm312ELm156ELm31ELm13043109905998158313ELm29ELm6148914691236517205ELm17ELm8202884508482404352ELm37ELm18444473444759240704ELm43ELm6364136223846793005EEC2Ev(ptr noundef nonnull align 8 dereferenceable(2504) %ref.tmp)
  %call8 = call noundef i64 @_ZN4absl4ZipfImSt23mersenne_twister_engineImLm64ELm312ELm156ELm31ELm13043109905998158313ELm29ELm6148914691236517205ELm17ELm8202884508482404352ELm37ELm18444473444759240704ELm43ELm6364136223846793005EEEET_OT0_S3_dd(ptr noundef nonnull align 8 dereferenceable(2504) %ref.tmp, i64 noundef 1024, double noundef 2.000000e+00, double noundef 1.000000e+00)
  %8 = load ptr, ptr %gen.addr, align 8
  call void @_ZN4absl6int128C2Ei(ptr noundef nonnull align 16 dereferenceable(16) %agg.tmp, i32 noundef 1024)
  %9 = getelementptr inbounds { i64, i64 }, ptr %agg.tmp, i32 0, i32 0
  %10 = load i64, ptr %9, align 16
  %11 = getelementptr inbounds { i64, i64 }, ptr %agg.tmp, i32 0, i32 1
  %12 = load i64, ptr %11, align 8
  %call9 = call { i64, i64 } @_ZN4absl4ZipfINS_6int128ERSt23mersenne_twister_engineImLm64ELm312ELm156ELm31ELm13043109905998158313ELm29ELm6148914691236517205ELm17ELm8202884508482404352ELm37ELm18444473444759240704ELm43ELm6364136223846793005EEEET_OT0_S5_dd(ptr noundef nonnull align 8 dereferenceable(2504) %8, i64 %10, i64 %12, double noundef 2.000000e+00, double noundef 1.000000e+00)
  %coerce.dive = getelementptr inbounds %"class.absl::int128", ptr %coerce, i32 0, i32 0
  %13 = getelementptr inbounds { i64, i64 }, ptr %coerce.dive, i32 0, i32 0
  %14 = extractvalue { i64, i64 } %call9, 0
  store i64 %14, ptr %13, align 16
  %15 = getelementptr inbounds { i64, i64 }, ptr %coerce.dive, i32 0, i32 1
  %16 = extractvalue { i64, i64 } %call9, 1
  store i64 %16, ptr %15, align 8
  %17 = load ptr, ptr %gen.addr, align 8
  call void @_ZN4absl7uint128C2Ei(ptr noundef nonnull align 16 dereferenceable(16) %agg.tmp10, i32 noundef 1024)
  %18 = getelementptr inbounds { i64, i64 }, ptr %agg.tmp10, i32 0, i32 0
  %19 = load i64, ptr %18, align 16
  %20 = getelementptr inbounds { i64, i64 }, ptr %agg.tmp10, i32 0, i32 1
  %21 = load i64, ptr %20, align 8
  %call11 = call { i64, i64 } @_ZN4absl4ZipfINS_7uint128ERSt23mersenne_twister_engineImLm64ELm312ELm156ELm31ELm13043109905998158313ELm29ELm6148914691236517205ELm17ELm8202884508482404352ELm37ELm18444473444759240704ELm43ELm6364136223846793005EEEET_OT0_S5_dd(ptr noundef nonnull align 8 dereferenceable(2504) %17, i64 %19, i64 %21, double noundef 2.000000e+00, double noundef 1.000000e+00)
  %22 = getelementptr inbounds { i64, i64 }, ptr %coerce12, i32 0, i32 0
  %23 = extractvalue { i64, i64 } %call11, 0
  store i64 %23, ptr %22, align 16
  %24 = getelementptr inbounds { i64, i64 }, ptr %coerce12, i32 0, i32 1
  %25 = extractvalue { i64, i64 } %call11, 1
  store i64 %25, ptr %24, align 8
  ret void
}

; Function Attrs: mustprogress uwtable
define internal void @_ZN12_GLOBAL__N_112TestGaussianISt23mersenne_twister_engineImLm64ELm312ELm156ELm31ELm13043109905998158313ELm29ELm6148914691236517205ELm17ELm8202884508482404352ELm37ELm18444473444759240704ELm43ELm6364136223846793005EEEEvPT_(ptr noundef %gen) #4 {
entry:
  %gen.addr = alloca ptr, align 8
  %ref.tmp = alloca %"class.std::mersenne_twister_engine", align 8
  store ptr %gen, ptr %gen.addr, align 8
  %0 = load ptr, ptr %gen.addr, align 8
  %call = call noundef float @_ZN4absl8GaussianIfRSt23mersenne_twister_engineImLm64ELm312ELm156ELm31ELm13043109905998158313ELm29ELm6148914691236517205ELm17ELm8202884508482404352ELm37ELm18444473444759240704ELm43ELm6364136223846793005EEEET_OT0_S4_S4_(ptr noundef nonnull align 8 dereferenceable(2504) %0, float noundef 1.000000e+00, float noundef 1.000000e+00)
  %1 = load ptr, ptr %gen.addr, align 8
  %call1 = call noundef double @_ZN4absl8GaussianIdRSt23mersenne_twister_engineImLm64ELm312ELm156ELm31ELm13043109905998158313ELm29ELm6148914691236517205ELm17ELm8202884508482404352ELm37ELm18444473444759240704ELm43ELm6364136223846793005EEEET_OT0_S4_S4_(ptr noundef nonnull align 8 dereferenceable(2504) %1, double noundef 1.000000e+00, double noundef 1.000000e+00)
  call void @_ZNSt23mersenne_twister_engineImLm64ELm312ELm156ELm31ELm13043109905998158313ELm29ELm6148914691236517205ELm17ELm8202884508482404352ELm37ELm18444473444759240704ELm43ELm6364136223846793005EEC2Ev(ptr noundef nonnull align 8 dereferenceable(2504) %ref.tmp)
  %call2 = call noundef double @_ZN4absl8GaussianIdSt23mersenne_twister_engineImLm64ELm312ELm156ELm31ELm13043109905998158313ELm29ELm6148914691236517205ELm17ELm8202884508482404352ELm37ELm18444473444759240704ELm43ELm6364136223846793005EEEET_OT0_S3_S3_(ptr noundef nonnull align 8 dereferenceable(2504) %ref.tmp, double noundef 1.000000e+00, double noundef 1.000000e+00)
  ret void
}

; Function Attrs: mustprogress uwtable
define internal void @_ZN12_GLOBAL__N_113TestLogNormalISt23mersenne_twister_engineImLm64ELm312ELm156ELm31ELm13043109905998158313ELm29ELm6148914691236517205ELm17ELm8202884508482404352ELm37ELm18444473444759240704ELm43ELm6364136223846793005EEEEvPT_(ptr noundef %gen) #4 {
entry:
  %gen.addr = alloca ptr, align 8
  %ref.tmp = alloca %"class.std::mersenne_twister_engine", align 8
  %agg.tmp = alloca %"class.absl::int128", align 16
  %agg.tmp9 = alloca %"class.absl::int128", align 16
  %agg.tmp10 = alloca %"class.absl::int128", align 16
  %coerce = alloca %"class.absl::int128", align 16
  %agg.tmp12 = alloca %"class.absl::uint128", align 16
  %agg.tmp13 = alloca %"class.absl::uint128", align 16
  %agg.tmp14 = alloca %"class.absl::uint128", align 16
  %coerce16 = alloca %"class.absl::uint128", align 16
  store ptr %gen, ptr %gen.addr, align 8
  %0 = load ptr, ptr %gen.addr, align 8
  %call = call noundef i32 @_ZN4absl10LogUniformIiRSt23mersenne_twister_engineImLm64ELm312ELm156ELm31ELm13043109905998158313ELm29ELm6148914691236517205ELm17ELm8202884508482404352ELm37ELm18444473444759240704ELm43ELm6364136223846793005EEEET_OT0_S4_S4_S4_(ptr noundef nonnull align 8 dereferenceable(2504) %0, i32 noundef 0, i32 noundef 100, i32 noundef 2)
  %1 = load ptr, ptr %gen.addr, align 8
  %call1 = call noundef signext i8 @_ZN4absl10LogUniformIaRSt23mersenne_twister_engineImLm64ELm312ELm156ELm31ELm13043109905998158313ELm29ELm6148914691236517205ELm17ELm8202884508482404352ELm37ELm18444473444759240704ELm43ELm6364136223846793005EEEET_OT0_S4_S4_S4_(ptr noundef nonnull align 8 dereferenceable(2504) %1, i8 noundef signext 0, i8 noundef signext 100, i8 noundef signext 2)
  %2 = load ptr, ptr %gen.addr, align 8
  %call2 = call noundef signext i16 @_ZN4absl10LogUniformIsRSt23mersenne_twister_engineImLm64ELm312ELm156ELm31ELm13043109905998158313ELm29ELm6148914691236517205ELm17ELm8202884508482404352ELm37ELm18444473444759240704ELm43ELm6364136223846793005EEEET_OT0_S4_S4_S4_(ptr noundef nonnull align 8 dereferenceable(2504) %2, i16 noundef signext 0, i16 noundef signext 100, i16 noundef signext 2)
  %3 = load ptr, ptr %gen.addr, align 8
  %call3 = call noundef zeroext i16 @_ZN4absl10LogUniformItRSt23mersenne_twister_engineImLm64ELm312ELm156ELm31ELm13043109905998158313ELm29ELm6148914691236517205ELm17ELm8202884508482404352ELm37ELm18444473444759240704ELm43ELm6364136223846793005EEEET_OT0_S4_S4_S4_(ptr noundef nonnull align 8 dereferenceable(2504) %3, i16 noundef zeroext 0, i16 noundef zeroext 100, i16 noundef zeroext 2)
  %4 = load ptr, ptr %gen.addr, align 8
  %call4 = call noundef i32 @_ZN4absl10LogUniformIiRSt23mersenne_twister_engineImLm64ELm312ELm156ELm31ELm13043109905998158313ELm29ELm6148914691236517205ELm17ELm8202884508482404352ELm37ELm18444473444759240704ELm43ELm6364136223846793005EEEET_OT0_S4_S4_S4_(ptr noundef nonnull align 8 dereferenceable(2504) %4, i32 noundef 0, i32 noundef 1024, i32 noundef 2)
  %5 = load ptr, ptr %gen.addr, align 8
  %call5 = call noundef i32 @_ZN4absl10LogUniformIjRSt23mersenne_twister_engineImLm64ELm312ELm156ELm31ELm13043109905998158313ELm29ELm6148914691236517205ELm17ELm8202884508482404352ELm37ELm18444473444759240704ELm43ELm6364136223846793005EEEET_OT0_S4_S4_S4_(ptr noundef nonnull align 8 dereferenceable(2504) %5, i32 noundef 0, i32 noundef 1024, i32 noundef 2)
  %6 = load ptr, ptr %gen.addr, align 8
  %call6 = call noundef i64 @_ZN4absl10LogUniformIlRSt23mersenne_twister_engineImLm64ELm312ELm156ELm31ELm13043109905998158313ELm29ELm6148914691236517205ELm17ELm8202884508482404352ELm37ELm18444473444759240704ELm43ELm6364136223846793005EEEET_OT0_S4_S4_S4_(ptr noundef nonnull align 8 dereferenceable(2504) %6, i64 noundef 0, i64 noundef 1024, i64 noundef 2)
  %7 = load ptr, ptr %gen.addr, align 8
  %call7 = call noundef i64 @_ZN4absl10LogUniformImRSt23mersenne_twister_engineImLm64ELm312ELm156ELm31ELm13043109905998158313ELm29ELm6148914691236517205ELm17ELm8202884508482404352ELm37ELm18444473444759240704ELm43ELm6364136223846793005EEEET_OT0_S4_S4_S4_(ptr noundef nonnull align 8 dereferenceable(2504) %7, i64 noundef 0, i64 noundef 1024, i64 noundef 2)
  call void @_ZNSt23mersenne_twister_engineImLm64ELm312ELm156ELm31ELm13043109905998158313ELm29ELm6148914691236517205ELm17ELm8202884508482404352ELm37ELm18444473444759240704ELm43ELm6364136223846793005EEC2Ev(ptr noundef nonnull align 8 dereferenceable(2504) %ref.tmp)
  %call8 = call noundef i64 @_ZN4absl10LogUniformImSt23mersenne_twister_engineImLm64ELm312ELm156ELm31ELm13043109905998158313ELm29ELm6148914691236517205ELm17ELm8202884508482404352ELm37ELm18444473444759240704ELm43ELm6364136223846793005EEEET_OT0_S3_S3_S3_(ptr noundef nonnull align 8 dereferenceable(2504) %ref.tmp, i64 noundef 0, i64 noundef 1024, i64 noundef 2)
  %8 = load ptr, ptr %gen.addr, align 8
  call void @_ZN4absl6int128C2Ei(ptr noundef nonnull align 16 dereferenceable(16) %agg.tmp, i32 noundef 0)
  call void @_ZN4absl6int128C2Ei(ptr noundef nonnull align 16 dereferenceable(16) %agg.tmp9, i32 noundef 1024)
  call void @_ZN4absl6int128C2Ei(ptr noundef nonnull align 16 dereferenceable(16) %agg.tmp10, i32 noundef 2)
  %9 = getelementptr inbounds { i64, i64 }, ptr %agg.tmp, i32 0, i32 0
  %10 = load i64, ptr %9, align 16
  %11 = getelementptr inbounds { i64, i64 }, ptr %agg.tmp, i32 0, i32 1
  %12 = load i64, ptr %11, align 8
  %13 = getelementptr inbounds { i64, i64 }, ptr %agg.tmp9, i32 0, i32 0
  %14 = load i64, ptr %13, align 16
  %15 = getelementptr inbounds { i64, i64 }, ptr %agg.tmp9, i32 0, i32 1
  %16 = load i64, ptr %15, align 8
  %call11 = call { i64, i64 } @_ZN4absl10LogUniformINS_6int128ERSt23mersenne_twister_engineImLm64ELm312ELm156ELm31ELm13043109905998158313ELm29ELm6148914691236517205ELm17ELm8202884508482404352ELm37ELm18444473444759240704ELm43ELm6364136223846793005EEEET_OT0_S5_S5_S5_(ptr noundef nonnull align 8 dereferenceable(2504) %8, i64 %10, i64 %12, i64 %14, i64 %16, ptr noundef byval(%"class.absl::int128") align 16 %agg.tmp10)
  %coerce.dive = getelementptr inbounds %"class.absl::int128", ptr %coerce, i32 0, i32 0
  %17 = getelementptr inbounds { i64, i64 }, ptr %coerce.dive, i32 0, i32 0
  %18 = extractvalue { i64, i64 } %call11, 0
  store i64 %18, ptr %17, align 16
  %19 = getelementptr inbounds { i64, i64 }, ptr %coerce.dive, i32 0, i32 1
  %20 = extractvalue { i64, i64 } %call11, 1
  store i64 %20, ptr %19, align 8
  %21 = load ptr, ptr %gen.addr, align 8
  call void @_ZN4absl7uint128C2Ei(ptr noundef nonnull align 16 dereferenceable(16) %agg.tmp12, i32 noundef 0)
  call void @_ZN4absl7uint128C2Ei(ptr noundef nonnull align 16 dereferenceable(16) %agg.tmp13, i32 noundef 1024)
  call void @_ZN4absl7uint128C2Ei(ptr noundef nonnull align 16 dereferenceable(16) %agg.tmp14, i32 noundef 2)
  %22 = getelementptr inbounds { i64, i64 }, ptr %agg.tmp12, i32 0, i32 0
  %23 = load i64, ptr %22, align 16
  %24 = getelementptr inbounds { i64, i64 }, ptr %agg.tmp12, i32 0, i32 1
  %25 = load i64, ptr %24, align 8
  %26 = getelementptr inbounds { i64, i64 }, ptr %agg.tmp13, i32 0, i32 0
  %27 = load i64, ptr %26, align 16
  %28 = getelementptr inbounds { i64, i64 }, ptr %agg.tmp13, i32 0, i32 1
  %29 = load i64, ptr %28, align 8
  %call15 = call { i64, i64 } @_ZN4absl10LogUniformINS_7uint128ERSt23mersenne_twister_engineImLm64ELm312ELm156ELm31ELm13043109905998158313ELm29ELm6148914691236517205ELm17ELm8202884508482404352ELm37ELm18444473444759240704ELm43ELm6364136223846793005EEEET_OT0_S5_S5_S5_(ptr noundef nonnull align 8 dereferenceable(2504) %21, i64 %23, i64 %25, i64 %27, i64 %29, ptr noundef byval(%"class.absl::uint128") align 16 %agg.tmp14)
  %30 = getelementptr inbounds { i64, i64 }, ptr %coerce16, i32 0, i32 0
  %31 = extractvalue { i64, i64 } %call15, 0
  store i64 %31, ptr %30, align 16
  %32 = getelementptr inbounds { i64, i64 }, ptr %coerce16, i32 0, i32 1
  %33 = extractvalue { i64, i64 } %call15, 1
  store i64 %33, ptr %32, align 8
  ret void
}

; Function Attrs: mustprogress uwtable
define linkonce_odr dso_local void @_ZNSt23mersenne_twister_engineImLm64ELm312ELm156ELm31ELm13043109905998158313ELm29ELm6148914691236517205ELm17ELm8202884508482404352ELm37ELm18444473444759240704ELm43ELm6364136223846793005EEC2Em(ptr noundef nonnull align 8 dereferenceable(2504) %this, i64 noundef %__sd) unnamed_addr #4 comdat align 2 {
entry:
  %this.addr = alloca ptr, align 8
  %__sd.addr = alloca i64, align 8
  store ptr %this, ptr %this.addr, align 8
  store i64 %__sd, ptr %__sd.addr, align 8
  %this1 = load ptr, ptr %this.addr, align 8
  %0 = load i64, ptr %__sd.addr, align 8
  call void @_ZNSt23mersenne_twister_engineImLm64ELm312ELm156ELm31ELm13043109905998158313ELm29ELm6148914691236517205ELm17ELm8202884508482404352ELm37ELm18444473444759240704ELm43ELm6364136223846793005EE4seedEm(ptr noundef nonnull align 8 dereferenceable(2504) %this1, i64 noundef %0)
  ret void
}

; Function Attrs: mustprogress uwtable
define linkonce_odr dso_local void @_ZNSt23mersenne_twister_engineImLm64ELm312ELm156ELm31ELm13043109905998158313ELm29ELm6148914691236517205ELm17ELm8202884508482404352ELm37ELm18444473444759240704ELm43ELm6364136223846793005EE4seedEm(ptr noundef nonnull align 8 dereferenceable(2504) %this, i64 noundef %__sd) #4 comdat align 2 {
entry:
  %this.addr = alloca ptr, align 8
  %__sd.addr = alloca i64, align 8
  %__i = alloca i64, align 8
  %__x = alloca i64, align 8
  store ptr %this, ptr %this.addr, align 8
  store i64 %__sd, ptr %__sd.addr, align 8
  %this1 = load ptr, ptr %this.addr, align 8
  %0 = load i64, ptr %__sd.addr, align 8
  %call = call noundef i64 @_ZNSt8__detail5__modImTnT_Lm0ETnS1_Lm1ETnS1_Lm0EEES1_S1_(i64 noundef %0)
  %_M_x = getelementptr inbounds %"class.std::mersenne_twister_engine", ptr %this1, i32 0, i32 0
  %arrayidx = getelementptr inbounds [312 x i64], ptr %_M_x, i64 0, i64 0
  store i64 %call, ptr %arrayidx, align 8
  store i64 1, ptr %__i, align 8
  br label %for.cond

for.cond:                                         ; preds = %for.inc, %entry
  %1 = load i64, ptr %__i, align 8
  %cmp = icmp ult i64 %1, 312
  br i1 %cmp, label %for.body, label %for.end

for.body:                                         ; preds = %for.cond
  %_M_x2 = getelementptr inbounds %"class.std::mersenne_twister_engine", ptr %this1, i32 0, i32 0
  %2 = load i64, ptr %__i, align 8
  %sub = sub i64 %2, 1
  %arrayidx3 = getelementptr inbounds [312 x i64], ptr %_M_x2, i64 0, i64 %sub
  %3 = load i64, ptr %arrayidx3, align 8
  store i64 %3, ptr %__x, align 8
  %4 = load i64, ptr %__x, align 8
  %shr = lshr i64 %4, 62
  %5 = load i64, ptr %__x, align 8
  %xor = xor i64 %5, %shr
  store i64 %xor, ptr %__x, align 8
  %6 = load i64, ptr %__x, align 8
  %mul = mul i64 %6, 6364136223846793005
  store i64 %mul, ptr %__x, align 8
  %7 = load i64, ptr %__i, align 8
  %call4 = call noundef i64 @_ZNSt8__detail5__modImTnT_Lm312ETnS1_Lm1ETnS1_Lm0EEES1_S1_(i64 noundef %7)
  %8 = load i64, ptr %__x, align 8
  %add = add i64 %8, %call4
  store i64 %add, ptr %__x, align 8
  %9 = load i64, ptr %__x, align 8
  %call5 = call noundef i64 @_ZNSt8__detail5__modImTnT_Lm0ETnS1_Lm1ETnS1_Lm0EEES1_S1_(i64 noundef %9)
  %_M_x6 = getelementptr inbounds %"class.std::mersenne_twister_engine", ptr %this1, i32 0, i32 0
  %10 = load i64, ptr %__i, align 8
  %arrayidx7 = getelementptr inbounds [312 x i64], ptr %_M_x6, i64 0, i64 %10
  store i64 %call5, ptr %arrayidx7, align 8
  br label %for.inc

for.inc:                                          ; preds = %for.body
  %11 = load i64, ptr %__i, align 8
  %inc = add i64 %11, 1
  store i64 %inc, ptr %__i, align 8
  br label %for.cond, !llvm.loop !5

for.end:                                          ; preds = %for.cond
  %_M_p = getelementptr inbounds %"class.std::mersenne_twister_engine", ptr %this1, i32 0, i32 1
  store i64 312, ptr %_M_p, align 8
  ret void
}

; Function Attrs: mustprogress uwtable
define linkonce_odr dso_local noundef i64 @_ZNSt8__detail5__modImTnT_Lm0ETnS1_Lm1ETnS1_Lm0EEES1_S1_(i64 noundef %__x) #4 comdat {
entry:
  %__x.addr = alloca i64, align 8
  %__a1 = alloca i64, align 8
  store i64 %__x, ptr %__x.addr, align 8
  store i64 1, ptr %__a1, align 8
  %0 = load i64, ptr %__x.addr, align 8
  %call = call noundef i64 @_ZNSt8__detail4_ModImLm0ELm1ELm0ELb1ELb0EE6__calcEm(i64 noundef %0)
  ret i64 %call
}

; Function Attrs: mustprogress uwtable
define linkonce_odr dso_local noundef i64 @_ZNSt8__detail5__modImTnT_Lm312ETnS1_Lm1ETnS1_Lm0EEES1_S1_(i64 noundef %__x) #4 comdat {
entry:
  %__x.addr = alloca i64, align 8
  %__a1 = alloca i64, align 8
  store i64 %__x, ptr %__x.addr, align 8
  store i64 1, ptr %__a1, align 8
  %0 = load i64, ptr %__x.addr, align 8
  %call = call noundef i64 @_ZNSt8__detail4_ModImLm312ELm1ELm0ELb1ELb1EE6__calcEm(i64 noundef %0)
  ret i64 %call
}

; Function Attrs: mustprogress nounwind uwtable
define linkonce_odr dso_local noundef i64 @_ZNSt8__detail4_ModImLm0ELm1ELm0ELb1ELb0EE6__calcEm(i64 noundef %__x) #7 comdat align 2 {
entry:
  %__x.addr = alloca i64, align 8
  %__res = alloca i64, align 8
  store i64 %__x, ptr %__x.addr, align 8
  %0 = load i64, ptr %__x.addr, align 8
  %mul = mul i64 1, %0
  %add = add i64 %mul, 0
  store i64 %add, ptr %__res, align 8
  %1 = load i64, ptr %__res, align 8
  ret i64 %1
}

; Function Attrs: mustprogress nounwind uwtable
define linkonce_odr dso_local noundef i64 @_ZNSt8__detail4_ModImLm312ELm1ELm0ELb1ELb1EE6__calcEm(i64 noundef %__x) #7 comdat align 2 {
entry:
  %__x.addr = alloca i64, align 8
  %__res = alloca i64, align 8
  store i64 %__x, ptr %__x.addr, align 8
  %0 = load i64, ptr %__x.addr, align 8
  %mul = mul i64 1, %0
  %add = add i64 %mul, 0
  store i64 %add, ptr %__res, align 8
  %1 = load i64, ptr %__res, align 8
  %rem = urem i64 %1, 312
  store i64 %rem, ptr %__res, align 8
  %2 = load i64, ptr %__res, align 8
  ret i64 %2
}

; Function Attrs: mustprogress uwtable
define linkonce_odr dso_local noundef i32 @_ZN4absl7UniformIiRSt23mersenne_twister_engineImLm64ELm312ELm156ELm31ELm13043109905998158313ELm29ELm6148914691236517205ELm17ELm8202884508482404352ELm37ELm18444473444759240704ELm43ELm6364136223846793005EEEENSt9enable_ifIXntsr3std7is_sameIT_vEE5valueES5_E4typeEOT0_S5_S5_(ptr noundef nonnull align 8 dereferenceable(2504) %urbg, i32 noundef %lo, i32 noundef %hi) #4 comdat {
entry:
  %retval = alloca i32, align 4
  %urbg.addr = alloca ptr, align 8
  %lo.addr = alloca i32, align 4
  %hi.addr = alloca i32, align 4
  %tag = alloca %"struct.absl::IntervalClosedOpenTag", align 1
  %a = alloca i32, align 4
  %b = alloca i32, align 4
  store ptr %urbg, ptr %urbg.addr, align 8
  store i32 %lo, ptr %lo.addr, align 4
  store i32 %hi, ptr %hi.addr, align 4
  call void @llvm.memcpy.p0.p0.i64(ptr align 1 %tag, ptr align 1 @__const._ZN4absl7UniformIiRSt23mersenne_twister_engineImLm64ELm312ELm156ELm31ELm13043109905998158313ELm29ELm6148914691236517205ELm17ELm8202884508482404352ELm37ELm18444473444759240704ELm43ELm6364136223846793005EEEENSt9enable_ifIXntsr3std7is_sameIT_vEE5valueES5_E4typeEOT0_S5_S5_.tag, i64 1, i1 false)
  %0 = load i32, ptr %lo.addr, align 4
  %1 = load i32, ptr %hi.addr, align 4
  %call = call noundef i32 @_ZN4absl15random_internal19uniform_lower_boundIiNS_21IntervalClosedOpenTagEEENSt9enable_ifIXsr4absl11disjunctionISt7is_sameIT0_NS_23IntervalClosedClosedTagEES4_IS5_S2_EEE5valueET_E4typeES5_S9_S9_(i32 noundef %0, i32 noundef %1)
  store i32 %call, ptr %a, align 4
  %2 = load i32, ptr %lo.addr, align 4
  %3 = load i32, ptr %hi.addr, align 4
  %call2 = call noundef i32 @_ZN4absl15random_internal19uniform_upper_boundIiNS_21IntervalClosedOpenTagEEENSt9enable_ifIXsr4absl11conjunctionINS0_10IsIntegralIT_EENS_11disjunctionIJSt7is_sameIT0_S2_ES8_IS9_NS_19IntervalOpenOpenTagEEEEEEE5valueES5_E4typeES9_S5_S5_(i32 noundef %2, i32 noundef %3)
  store i32 %call2, ptr %b, align 4
  %4 = load i32, ptr %a, align 4
  %5 = load i32, ptr %b, align 4
  %call3 = call noundef zeroext i1 @_ZN4absl15random_internal22is_uniform_range_validIiEENSt9enable_ifIXsr10IsIntegralIT_EE5valueEbE4typeES3_S3_(i32 noundef %4, i32 noundef %5)
  br i1 %call3, label %if.end, label %if.then

if.then:                                          ; preds = %entry
  %6 = load i32, ptr %lo.addr, align 4
  store i32 %6, ptr %retval, align 4
  br label %return

if.end:                                           ; preds = %entry
  %7 = load ptr, ptr %urbg.addr, align 8
  %call4 = call noundef i32 @_ZN4absl15random_internal18DistributionCallerISt23mersenne_twister_engineImLm64ELm312ELm156ELm31ELm13043109905998158313ELm29ELm6148914691236517205ELm17ELm8202884508482404352ELm37ELm18444473444759240704ELm43ELm6364136223846793005EEE4CallINS0_26UniformDistributionWrapperIiEEJRiS8_EEENT_11result_typeEPS3_DpOT0_(ptr noundef %7, ptr noundef nonnull align 4 dereferenceable(4) %lo.addr, ptr noundef nonnull align 4 dereferenceable(4) %hi.addr)
  store i32 %call4, ptr %retval, align 4
  br label %return

return:                                           ; preds = %if.end, %if.then
  %8 = load i32, ptr %retval, align 4
  ret i32 %8
}

; Function Attrs: mustprogress uwtable
define linkonce_odr dso_local noundef double @_ZN4absl7UniformIvRSt23mersenne_twister_engineImLm64ELm312ELm156ELm31ELm13043109905998158313ELm29ELm6148914691236517205ELm17ELm8202884508482404352ELm37ELm18444473444759240704ELm43ELm6364136223846793005EEidEENSt9enable_ifIXsr3std7is_sameIT_vEE5valueENS4_IXsr4absl11disjunctionINS_15random_internal23is_widening_convertibleIT1_T2_EENS7_IS9_S8_EEEE5valueENSt11conditionalIXsr23is_widening_convertibleIS8_S9_EE5valueES9_S8_E4typeEE4typeEE4typeEOT0_S8_S9_(ptr noundef nonnull align 8 dereferenceable(2504) %urbg, i32 noundef %lo, double noundef %hi) #4 comdat {
entry:
  %retval = alloca double, align 8
  %urbg.addr = alloca ptr, align 8
  %lo.addr = alloca i32, align 4
  %hi.addr = alloca double, align 8
  %tag = alloca %"struct.absl::IntervalClosedOpenTag", align 1
  %a = alloca double, align 8
  %b = alloca double, align 8
  %ref.tmp = alloca double, align 8
  %ref.tmp7 = alloca double, align 8
  store ptr %urbg, ptr %urbg.addr, align 8
  store i32 %lo, ptr %lo.addr, align 4
  store double %hi, ptr %hi.addr, align 8
  call void @llvm.memcpy.p0.p0.i64(ptr align 1 %tag, ptr align 1 @__const._ZN4absl7UniformIvRSt23mersenne_twister_engineImLm64ELm312ELm156ELm31ELm13043109905998158313ELm29ELm6148914691236517205ELm17ELm8202884508482404352ELm37ELm18444473444759240704ELm43ELm6364136223846793005EEidEENSt9enable_ifIXsr3std7is_sameIT_vEE5valueENS4_IXsr4absl11disjunctionINS_15random_internal23is_widening_convertibleIT1_T2_EENS7_IS9_S8_EEEE5valueENSt11conditionalIXsr23is_widening_convertibleIS8_S9_EE5valueES9_S8_E4typeEE4typeEE4typeEOT0_S8_S9_.tag, i64 1, i1 false)
  %0 = load i32, ptr %lo.addr, align 4
  %conv = sitofp i32 %0 to double
  %1 = load double, ptr %hi.addr, align 8
  %call = call noundef double @_ZN4absl15random_internal19uniform_lower_boundIdNS_21IntervalClosedOpenTagEEENSt9enable_ifIXsr4absl11disjunctionISt7is_sameIT0_NS_23IntervalClosedClosedTagEES4_IS5_S2_EEE5valueET_E4typeES5_S9_S9_(double noundef %conv, double noundef %1)
  store double %call, ptr %a, align 8
  %2 = load i32, ptr %lo.addr, align 4
  %conv2 = sitofp i32 %2 to double
  %3 = load double, ptr %hi.addr, align 8
  %call3 = call noundef double @_ZN4absl15random_internal19uniform_upper_boundIdNS_21IntervalClosedOpenTagEEENSt9enable_ifIXsr4absl11conjunctionISt17is_floating_pointIT_ENS_11disjunctionIJSt7is_sameIT0_S2_ES8_IS9_NS_19IntervalOpenOpenTagEEEEEEE5valueES5_E4typeES9_S5_S5_(double noundef %conv2, double noundef %3)
  store double %call3, ptr %b, align 8
  %4 = load double, ptr %a, align 8
  %5 = load double, ptr %b, align 8
  %call4 = call noundef zeroext i1 @_ZN4absl15random_internal22is_uniform_range_validIdEENSt9enable_ifIXsr3std17is_floating_pointIT_EE5valueEbE4typeES3_S3_(double noundef %4, double noundef %5)
  br i1 %call4, label %if.end, label %if.then

if.then:                                          ; preds = %entry
  %6 = load i32, ptr %lo.addr, align 4
  %conv5 = sitofp i32 %6 to double
  store double %conv5, ptr %retval, align 8
  br label %return

if.end:                                           ; preds = %entry
  %7 = load ptr, ptr %urbg.addr, align 8
  %8 = load i32, ptr %lo.addr, align 4
  %conv6 = sitofp i32 %8 to double
  store double %conv6, ptr %ref.tmp, align 8
  %9 = load double, ptr %hi.addr, align 8
  store double %9, ptr %ref.tmp7, align 8
  %call8 = call noundef double @_ZN4absl15random_internal18DistributionCallerISt23mersenne_twister_engineImLm64ELm312ELm156ELm31ELm13043109905998158313ELm29ELm6148914691236517205ELm17ELm8202884508482404352ELm37ELm18444473444759240704ELm43ELm6364136223846793005EEE4CallINS0_26UniformDistributionWrapperIdEEJddEEENT_11result_typeEPS3_DpOT0_(ptr noundef %7, ptr noundef nonnull align 8 dereferenceable(8) %ref.tmp, ptr noundef nonnull align 8 dereferenceable(8) %ref.tmp7)
  store double %call8, ptr %retval, align 8
  br label %return

return:                                           ; preds = %if.end, %if.then
  %10 = load double, ptr %retval, align 8
  ret double %10
}

; Function Attrs: mustprogress uwtable
define linkonce_odr dso_local noundef double @_ZN4absl7UniformIvRSt23mersenne_twister_engineImLm64ELm312ELm156ELm31ELm13043109905998158313ELm29ELm6148914691236517205ELm17ELm8202884508482404352ELm37ELm18444473444759240704ELm43ELm6364136223846793005EEfdEENSt9enable_ifIXsr3std7is_sameIT_vEE5valueENS4_IXsr4absl11disjunctionINS_15random_internal23is_widening_convertibleIT1_T2_EENS7_IS9_S8_EEEE5valueENSt11conditionalIXsr23is_widening_convertibleIS8_S9_EE5valueES9_S8_E4typeEE4typeEE4typeEOT0_S8_S9_(ptr noundef nonnull align 8 dereferenceable(2504) %urbg, float noundef %lo, double noundef %hi) #4 comdat {
entry:
  %retval = alloca double, align 8
  %urbg.addr = alloca ptr, align 8
  %lo.addr = alloca float, align 4
  %hi.addr = alloca double, align 8
  %tag = alloca %"struct.absl::IntervalClosedOpenTag", align 1
  %a = alloca double, align 8
  %b = alloca double, align 8
  %ref.tmp = alloca double, align 8
  %ref.tmp7 = alloca double, align 8
  store ptr %urbg, ptr %urbg.addr, align 8
  store float %lo, ptr %lo.addr, align 4
  store double %hi, ptr %hi.addr, align 8
  call void @llvm.memcpy.p0.p0.i64(ptr align 1 %tag, ptr align 1 @__const._ZN4absl7UniformIvRSt23mersenne_twister_engineImLm64ELm312ELm156ELm31ELm13043109905998158313ELm29ELm6148914691236517205ELm17ELm8202884508482404352ELm37ELm18444473444759240704ELm43ELm6364136223846793005EEfdEENSt9enable_ifIXsr3std7is_sameIT_vEE5valueENS4_IXsr4absl11disjunctionINS_15random_internal23is_widening_convertibleIT1_T2_EENS7_IS9_S8_EEEE5valueENSt11conditionalIXsr23is_widening_convertibleIS8_S9_EE5valueES9_S8_E4typeEE4typeEE4typeEOT0_S8_S9_.tag, i64 1, i1 false)
  %0 = load float, ptr %lo.addr, align 4
  %conv = fpext float %0 to double
  %1 = load double, ptr %hi.addr, align 8
  %call = call noundef double @_ZN4absl15random_internal19uniform_lower_boundIdNS_21IntervalClosedOpenTagEEENSt9enable_ifIXsr4absl11disjunctionISt7is_sameIT0_NS_23IntervalClosedClosedTagEES4_IS5_S2_EEE5valueET_E4typeES5_S9_S9_(double noundef %conv, double noundef %1)
  store double %call, ptr %a, align 8
  %2 = load float, ptr %lo.addr, align 4
  %conv2 = fpext float %2 to double
  %3 = load double, ptr %hi.addr, align 8
  %call3 = call noundef double @_ZN4absl15random_internal19uniform_upper_boundIdNS_21IntervalClosedOpenTagEEENSt9enable_ifIXsr4absl11conjunctionISt17is_floating_pointIT_ENS_11disjunctionIJSt7is_sameIT0_S2_ES8_IS9_NS_19IntervalOpenOpenTagEEEEEEE5valueES5_E4typeES9_S5_S5_(double noundef %conv2, double noundef %3)
  store double %call3, ptr %b, align 8
  %4 = load double, ptr %a, align 8
  %5 = load double, ptr %b, align 8
  %call4 = call noundef zeroext i1 @_ZN4absl15random_internal22is_uniform_range_validIdEENSt9enable_ifIXsr3std17is_floating_pointIT_EE5valueEbE4typeES3_S3_(double noundef %4, double noundef %5)
  br i1 %call4, label %if.end, label %if.then

if.then:                                          ; preds = %entry
  %6 = load float, ptr %lo.addr, align 4
  %conv5 = fpext float %6 to double
  store double %conv5, ptr %retval, align 8
  br label %return

if.end:                                           ; preds = %entry
  %7 = load ptr, ptr %urbg.addr, align 8
  %8 = load float, ptr %lo.addr, align 4
  %conv6 = fpext float %8 to double
  store double %conv6, ptr %ref.tmp, align 8
  %9 = load double, ptr %hi.addr, align 8
  store double %9, ptr %ref.tmp7, align 8
  %call8 = call noundef double @_ZN4absl15random_internal18DistributionCallerISt23mersenne_twister_engineImLm64ELm312ELm156ELm31ELm13043109905998158313ELm29ELm6148914691236517205ELm17ELm8202884508482404352ELm37ELm18444473444759240704ELm43ELm6364136223846793005EEE4CallINS0_26UniformDistributionWrapperIdEEJddEEENT_11result_typeEPS3_DpOT0_(ptr noundef %7, ptr noundef nonnull align 8 dereferenceable(8) %ref.tmp, ptr noundef nonnull align 8 dereferenceable(8) %ref.tmp7)
  store double %call8, ptr %retval, align 8
  br label %return

return:                                           ; preds = %if.end, %if.then
  %10 = load double, ptr %retval, align 8
  ret double %10
}

; Function Attrs: mustprogress uwtable
define linkonce_odr dso_local noundef double @_ZN4absl7UniformIdRSt23mersenne_twister_engineImLm64ELm312ELm156ELm31ELm13043109905998158313ELm29ELm6148914691236517205ELm17ELm8202884508482404352ELm37ELm18444473444759240704ELm43ELm6364136223846793005EEEENSt9enable_ifIXntsr3std7is_sameIT_vEE5valueES5_E4typeEOT0_S5_S5_(ptr noundef nonnull align 8 dereferenceable(2504) %urbg, double noundef %lo, double noundef %hi) #4 comdat {
entry:
  %retval = alloca double, align 8
  %urbg.addr = alloca ptr, align 8
  %lo.addr = alloca double, align 8
  %hi.addr = alloca double, align 8
  %tag = alloca %"struct.absl::IntervalClosedOpenTag", align 1
  %a = alloca double, align 8
  %b = alloca double, align 8
  store ptr %urbg, ptr %urbg.addr, align 8
  store double %lo, ptr %lo.addr, align 8
  store double %hi, ptr %hi.addr, align 8
  call void @llvm.memcpy.p0.p0.i64(ptr align 1 %tag, ptr align 1 @__const._ZN4absl7UniformIdRSt23mersenne_twister_engineImLm64ELm312ELm156ELm31ELm13043109905998158313ELm29ELm6148914691236517205ELm17ELm8202884508482404352ELm37ELm18444473444759240704ELm43ELm6364136223846793005EEEENSt9enable_ifIXntsr3std7is_sameIT_vEE5valueES5_E4typeEOT0_S5_S5_.tag, i64 1, i1 false)
  %0 = load double, ptr %lo.addr, align 8
  %1 = load double, ptr %hi.addr, align 8
  %call = call noundef double @_ZN4absl15random_internal19uniform_lower_boundIdNS_21IntervalClosedOpenTagEEENSt9enable_ifIXsr4absl11disjunctionISt7is_sameIT0_NS_23IntervalClosedClosedTagEES4_IS5_S2_EEE5valueET_E4typeES5_S9_S9_(double noundef %0, double noundef %1)
  store double %call, ptr %a, align 8
  %2 = load double, ptr %lo.addr, align 8
  %3 = load double, ptr %hi.addr, align 8
  %call2 = call noundef double @_ZN4absl15random_internal19uniform_upper_boundIdNS_21IntervalClosedOpenTagEEENSt9enable_ifIXsr4absl11conjunctionISt17is_floating_pointIT_ENS_11disjunctionIJSt7is_sameIT0_S2_ES8_IS9_NS_19IntervalOpenOpenTagEEEEEEE5valueES5_E4typeES9_S5_S5_(double noundef %2, double noundef %3)
  store double %call2, ptr %b, align 8
  %4 = load double, ptr %a, align 8
  %5 = load double, ptr %b, align 8
  %call3 = call noundef zeroext i1 @_ZN4absl15random_internal22is_uniform_range_validIdEENSt9enable_ifIXsr3std17is_floating_pointIT_EE5valueEbE4typeES3_S3_(double noundef %4, double noundef %5)
  br i1 %call3, label %if.end, label %if.then

if.then:                                          ; preds = %entry
  %6 = load double, ptr %lo.addr, align 8
  store double %6, ptr %retval, align 8
  br label %return

if.end:                                           ; preds = %entry
  %7 = load ptr, ptr %urbg.addr, align 8
  %call4 = call noundef double @_ZN4absl15random_internal18DistributionCallerISt23mersenne_twister_engineImLm64ELm312ELm156ELm31ELm13043109905998158313ELm29ELm6148914691236517205ELm17ELm8202884508482404352ELm37ELm18444473444759240704ELm43ELm6364136223846793005EEE4CallINS0_26UniformDistributionWrapperIdEEJRdS8_EEENT_11result_typeEPS3_DpOT0_(ptr noundef %7, ptr noundef nonnull align 8 dereferenceable(8) %lo.addr, ptr noundef nonnull align 8 dereferenceable(8) %hi.addr)
  store double %call4, ptr %retval, align 8
  br label %return

return:                                           ; preds = %if.end, %if.then
  %8 = load double, ptr %retval, align 8
  ret double %8
}

; Function Attrs: mustprogress uwtable
define linkonce_odr dso_local noundef i64 @_ZN4absl7UniformIvRSt23mersenne_twister_engineImLm64ELm312ELm156ELm31ELm13043109905998158313ELm29ELm6148914691236517205ELm17ELm8202884508482404352ELm37ELm18444473444759240704ELm43ELm6364136223846793005EEilEENSt9enable_ifIXsr3std7is_sameIT_vEE5valueENS4_IXsr4absl11disjunctionINS_15random_internal23is_widening_convertibleIT1_T2_EENS7_IS9_S8_EEEE5valueENSt11conditionalIXsr23is_widening_convertibleIS8_S9_EE5valueES9_S8_E4typeEE4typeEE4typeEOT0_S8_S9_(ptr noundef nonnull align 8 dereferenceable(2504) %urbg, i32 noundef %lo, i64 noundef %hi) #4 comdat {
entry:
  %retval = alloca i64, align 8
  %urbg.addr = alloca ptr, align 8
  %lo.addr = alloca i32, align 4
  %hi.addr = alloca i64, align 8
  %tag = alloca %"struct.absl::IntervalClosedOpenTag", align 1
  %a = alloca i64, align 8
  %b = alloca i64, align 8
  %ref.tmp = alloca i64, align 8
  %ref.tmp7 = alloca i64, align 8
  store ptr %urbg, ptr %urbg.addr, align 8
  store i32 %lo, ptr %lo.addr, align 4
  store i64 %hi, ptr %hi.addr, align 8
  call void @llvm.memcpy.p0.p0.i64(ptr align 1 %tag, ptr align 1 @__const._ZN4absl7UniformIvRSt23mersenne_twister_engineImLm64ELm312ELm156ELm31ELm13043109905998158313ELm29ELm6148914691236517205ELm17ELm8202884508482404352ELm37ELm18444473444759240704ELm43ELm6364136223846793005EEilEENSt9enable_ifIXsr3std7is_sameIT_vEE5valueENS4_IXsr4absl11disjunctionINS_15random_internal23is_widening_convertibleIT1_T2_EENS7_IS9_S8_EEEE5valueENSt11conditionalIXsr23is_widening_convertibleIS8_S9_EE5valueES9_S8_E4typeEE4typeEE4typeEOT0_S8_S9_.tag, i64 1, i1 false)
  %0 = load i32, ptr %lo.addr, align 4
  %conv = sext i32 %0 to i64
  %1 = load i64, ptr %hi.addr, align 8
  %call = call noundef i64 @_ZN4absl15random_internal19uniform_lower_boundIlNS_21IntervalClosedOpenTagEEENSt9enable_ifIXsr4absl11disjunctionISt7is_sameIT0_NS_23IntervalClosedClosedTagEES4_IS5_S2_EEE5valueET_E4typeES5_S9_S9_(i64 noundef %conv, i64 noundef %1)
  store i64 %call, ptr %a, align 8
  %2 = load i32, ptr %lo.addr, align 4
  %conv2 = sext i32 %2 to i64
  %3 = load i64, ptr %hi.addr, align 8
  %call3 = call noundef i64 @_ZN4absl15random_internal19uniform_upper_boundIlNS_21IntervalClosedOpenTagEEENSt9enable_ifIXsr4absl11conjunctionINS0_10IsIntegralIT_EENS_11disjunctionIJSt7is_sameIT0_S2_ES8_IS9_NS_19IntervalOpenOpenTagEEEEEEE5valueES5_E4typeES9_S5_S5_(i64 noundef %conv2, i64 noundef %3)
  store i64 %call3, ptr %b, align 8
  %4 = load i64, ptr %a, align 8
  %5 = load i64, ptr %b, align 8
  %call4 = call noundef zeroext i1 @_ZN4absl15random_internal22is_uniform_range_validIlEENSt9enable_ifIXsr10IsIntegralIT_EE5valueEbE4typeES3_S3_(i64 noundef %4, i64 noundef %5)
  br i1 %call4, label %if.end, label %if.then

if.then:                                          ; preds = %entry
  %6 = load i32, ptr %lo.addr, align 4
  %conv5 = sext i32 %6 to i64
  store i64 %conv5, ptr %retval, align 8
  br label %return

if.end:                                           ; preds = %entry
  %7 = load ptr, ptr %urbg.addr, align 8
  %8 = load i32, ptr %lo.addr, align 4
  %conv6 = sext i32 %8 to i64
  store i64 %conv6, ptr %ref.tmp, align 8
  %9 = load i64, ptr %hi.addr, align 8
  store i64 %9, ptr %ref.tmp7, align 8
  %call8 = call noundef i64 @_ZN4absl15random_internal18DistributionCallerISt23mersenne_twister_engineImLm64ELm312ELm156ELm31ELm13043109905998158313ELm29ELm6148914691236517205ELm17ELm8202884508482404352ELm37ELm18444473444759240704ELm43ELm6364136223846793005EEE4CallINS0_26UniformDistributionWrapperIlEEJllEEENT_11result_typeEPS3_DpOT0_(ptr noundef %7, ptr noundef nonnull align 8 dereferenceable(8) %ref.tmp, ptr noundef nonnull align 8 dereferenceable(8) %ref.tmp7)
  store i64 %call8, ptr %retval, align 8
  br label %return

return:                                           ; preds = %if.end, %if.then
  %10 = load i64, ptr %retval, align 8
  ret i64 %10
}

; Function Attrs: mustprogress uwtable
define linkonce_odr dso_local noundef i32 @_ZN4absl7UniformIiNS_23IntervalClosedClosedTagERSt23mersenne_twister_engineImLm64ELm312ELm156ELm31ELm13043109905998158313ELm29ELm6148914691236517205ELm17ELm8202884508482404352ELm37ELm18444473444759240704ELm43ELm6364136223846793005EEEENSt9enable_ifIXntsr3std7is_sameIT_vEE5valueES6_E4typeET0_OT1_S6_S6_(ptr noundef nonnull align 8 dereferenceable(2504) %urbg, i32 noundef %lo, i32 noundef %hi) #4 comdat {
entry:
  %retval = alloca i32, align 4
  %tag = alloca %"struct.absl::IntervalClosedClosedTag", align 1
  %urbg.addr = alloca ptr, align 8
  %lo.addr = alloca i32, align 4
  %hi.addr = alloca i32, align 4
  %a = alloca i32, align 4
  %b = alloca i32, align 4
  store ptr %urbg, ptr %urbg.addr, align 8
  store i32 %lo, ptr %lo.addr, align 4
  store i32 %hi, ptr %hi.addr, align 4
  %0 = load i32, ptr %lo.addr, align 4
  %1 = load i32, ptr %hi.addr, align 4
  %call = call noundef i32 @_ZN4absl15random_internal19uniform_lower_boundIiNS_23IntervalClosedClosedTagEEENSt9enable_ifIXsr4absl11disjunctionISt7is_sameIT0_S2_ES4_IS5_NS_21IntervalClosedOpenTagEEEE5valueET_E4typeES5_S9_S9_(i32 noundef %0, i32 noundef %1)
  store i32 %call, ptr %a, align 4
  %2 = load i32, ptr %lo.addr, align 4
  %3 = load i32, ptr %hi.addr, align 4
  %call2 = call noundef i32 @_ZN4absl15random_internal19uniform_upper_boundIiNS_23IntervalClosedClosedTagEEENSt9enable_ifIXsr4absl11conjunctionINS0_10IsIntegralIT_EENS_11disjunctionIJSt7is_sameIT0_S2_ES8_IS9_NS_21IntervalOpenClosedTagEEEEEEE5valueES5_E4typeES9_S5_S5_(i32 noundef %2, i32 noundef %3)
  store i32 %call2, ptr %b, align 4
  %4 = load i32, ptr %a, align 4
  %5 = load i32, ptr %b, align 4
  %call3 = call noundef zeroext i1 @_ZN4absl15random_internal22is_uniform_range_validIiEENSt9enable_ifIXsr10IsIntegralIT_EE5valueEbE4typeES3_S3_(i32 noundef %4, i32 noundef %5)
  br i1 %call3, label %if.end, label %if.then

if.then:                                          ; preds = %entry
  %6 = load i32, ptr %lo.addr, align 4
  store i32 %6, ptr %retval, align 4
  br label %return

if.end:                                           ; preds = %entry
  %7 = load ptr, ptr %urbg.addr, align 8
  %call4 = call noundef i32 @_ZN4absl15random_internal18DistributionCallerISt23mersenne_twister_engineImLm64ELm312ELm156ELm31ELm13043109905998158313ELm29ELm6148914691236517205ELm17ELm8202884508482404352ELm37ELm18444473444759240704ELm43ELm6364136223846793005EEE4CallINS0_26UniformDistributionWrapperIiEEJRNS_23IntervalClosedClosedTagERiSA_EEENT_11result_typeEPS3_DpOT0_(ptr noundef %7, ptr noundef nonnull align 1 dereferenceable(1) %tag, ptr noundef nonnull align 4 dereferenceable(4) %lo.addr, ptr noundef nonnull align 4 dereferenceable(4) %hi.addr)
  store i32 %call4, ptr %retval, align 4
  br label %return

return:                                           ; preds = %if.end, %if.then
  %8 = load i32, ptr %retval, align 4
  ret i32 %8
}

; Function Attrs: mustprogress uwtable
define linkonce_odr dso_local noundef double @_ZN4absl7UniformIdNS_19IntervalOpenOpenTagERSt23mersenne_twister_engineImLm64ELm312ELm156ELm31ELm13043109905998158313ELm29ELm6148914691236517205ELm17ELm8202884508482404352ELm37ELm18444473444759240704ELm43ELm6364136223846793005EEEENSt9enable_ifIXntsr3std7is_sameIT_vEE5valueES6_E4typeET0_OT1_S6_S6_(ptr noundef nonnull align 8 dereferenceable(2504) %urbg, double noundef %lo, double noundef %hi) #4 comdat {
entry:
  %retval = alloca double, align 8
  %tag = alloca %"struct.absl::IntervalOpenOpenTag", align 1
  %urbg.addr = alloca ptr, align 8
  %lo.addr = alloca double, align 8
  %hi.addr = alloca double, align 8
  %a = alloca double, align 8
  %b = alloca double, align 8
  store ptr %urbg, ptr %urbg.addr, align 8
  store double %lo, ptr %lo.addr, align 8
  store double %hi, ptr %hi.addr, align 8
  %0 = load double, ptr %lo.addr, align 8
  %1 = load double, ptr %hi.addr, align 8
  %call = call noundef double @_ZN4absl15random_internal19uniform_lower_boundIdNS_19IntervalOpenOpenTagEEENSt9enable_ifIXsr4absl11conjunctionISt17is_floating_pointIT_ENS_11disjunctionIJSt7is_sameIT0_NS_21IntervalOpenClosedTagEES8_IS9_S2_EEEEEE5valueES5_E4typeES9_S5_S5_(double noundef %0, double noundef %1)
  store double %call, ptr %a, align 8
  %2 = load double, ptr %lo.addr, align 8
  %3 = load double, ptr %hi.addr, align 8
  %call2 = call noundef double @_ZN4absl15random_internal19uniform_upper_boundIdNS_19IntervalOpenOpenTagEEENSt9enable_ifIXsr4absl11conjunctionISt17is_floating_pointIT_ENS_11disjunctionIJSt7is_sameIT0_NS_21IntervalClosedOpenTagEES8_IS9_S2_EEEEEE5valueES5_E4typeES9_S5_S5_(double noundef %2, double noundef %3)
  store double %call2, ptr %b, align 8
  %4 = load double, ptr %a, align 8
  %5 = load double, ptr %b, align 8
  %call3 = call noundef zeroext i1 @_ZN4absl15random_internal22is_uniform_range_validIdEENSt9enable_ifIXsr3std17is_floating_pointIT_EE5valueEbE4typeES3_S3_(double noundef %4, double noundef %5)
  br i1 %call3, label %if.end, label %if.then

if.then:                                          ; preds = %entry
  %6 = load double, ptr %lo.addr, align 8
  store double %6, ptr %retval, align 8
  br label %return

if.end:                                           ; preds = %entry
  %7 = load ptr, ptr %urbg.addr, align 8
  %call4 = call noundef double @_ZN4absl15random_internal18DistributionCallerISt23mersenne_twister_engineImLm64ELm312ELm156ELm31ELm13043109905998158313ELm29ELm6148914691236517205ELm17ELm8202884508482404352ELm37ELm18444473444759240704ELm43ELm6364136223846793005EEE4CallINS0_26UniformDistributionWrapperIdEEJRNS_19IntervalOpenOpenTagERdSA_EEENT_11result_typeEPS3_DpOT0_(ptr noundef %7, ptr noundef nonnull align 1 dereferenceable(1) %tag, ptr noundef nonnull align 8 dereferenceable(8) %lo.addr, ptr noundef nonnull align 8 dereferenceable(8) %hi.addr)
  store double %call4, ptr %retval, align 8
  br label %return

return:                                           ; preds = %if.end, %if.then
  %8 = load double, ptr %retval, align 8
  ret double %8
}

; Function Attrs: nocallback nofree nounwind willreturn memory(argmem: readwrite)
declare void @llvm.memcpy.p0.p0.i64(ptr noalias nocapture writeonly, ptr noalias nocapture readonly, i64, i1 immarg) #9

; Function Attrs: mustprogress nounwind uwtable
define linkonce_odr dso_local void @_ZNSaIiEC2Ev(ptr noundef nonnull align 1 dereferenceable(1) %this) unnamed_addr #7 comdat align 2 {
entry:
  %this.addr = alloca ptr, align 8
  store ptr %this, ptr %this.addr, align 8
  %this1 = load ptr, ptr %this.addr, align 8
  call void @_ZNSt15__new_allocatorIiEC2Ev(ptr noundef nonnull align 1 dereferenceable(1) %this1) #3
  ret void
}

; Function Attrs: mustprogress uwtable
define linkonce_odr dso_local void @_ZNSt6vectorIiSaIiEEC2ESt16initializer_listIiERKS0_(ptr noundef nonnull align 8 dereferenceable(24) %this, ptr %__l.coerce0, i64 %__l.coerce1, ptr noundef nonnull align 1 dereferenceable(1) %__a) unnamed_addr #4 comdat align 2 personality ptr @__gxx_personality_v0 {
entry:
  %__l = alloca %"class.std::initializer_list", align 8
  %this.addr = alloca ptr, align 8
  %__a.addr = alloca ptr, align 8
  %exn.slot = alloca ptr, align 8
  %ehselector.slot = alloca i32, align 4
  %0 = getelementptr inbounds { ptr, i64 }, ptr %__l, i32 0, i32 0
  store ptr %__l.coerce0, ptr %0, align 8
  %1 = getelementptr inbounds { ptr, i64 }, ptr %__l, i32 0, i32 1
  store i64 %__l.coerce1, ptr %1, align 8
  store ptr %this, ptr %this.addr, align 8
  store ptr %__a, ptr %__a.addr, align 8
  %this1 = load ptr, ptr %this.addr, align 8
  %2 = load ptr, ptr %__a.addr, align 8
  call void @_ZNSt12_Vector_baseIiSaIiEEC2ERKS0_(ptr noundef nonnull align 8 dereferenceable(24) %this1, ptr noundef nonnull align 1 dereferenceable(1) %2) #3
  %call = call noundef ptr @_ZNKSt16initializer_listIiE5beginEv(ptr noundef nonnull align 8 dereferenceable(16) %__l) #3
  %call2 = call noundef ptr @_ZNKSt16initializer_listIiE3endEv(ptr noundef nonnull align 8 dereferenceable(16) %__l) #3
  invoke void @_ZNSt6vectorIiSaIiEE19_M_range_initializeIPKiEEvT_S5_St20forward_iterator_tag(ptr noundef nonnull align 8 dereferenceable(24) %this1, ptr noundef %call, ptr noundef %call2)
          to label %invoke.cont unwind label %lpad

invoke.cont:                                      ; preds = %entry
  ret void

lpad:                                             ; preds = %entry
  %3 = landingpad { ptr, i32 }
          cleanup
  %4 = extractvalue { ptr, i32 } %3, 0
  store ptr %4, ptr %exn.slot, align 8
  %5 = extractvalue { ptr, i32 } %3, 1
  store i32 %5, ptr %ehselector.slot, align 4
  call void @_ZNSt12_Vector_baseIiSaIiEED2Ev(ptr noundef nonnull align 8 dereferenceable(24) %this1) #3
  br label %eh.resume

eh.resume:                                        ; preds = %lpad
  %exn = load ptr, ptr %exn.slot, align 8
  %sel = load i32, ptr %ehselector.slot, align 4
  %lpad.val = insertvalue { ptr, i32 } poison, ptr %exn, 0
  %lpad.val3 = insertvalue { ptr, i32 } %lpad.val, i32 %sel, 1
  resume { ptr, i32 } %lpad.val3
}

; Function Attrs: mustprogress nounwind uwtable
define linkonce_odr dso_local void @_ZNSaIiED2Ev(ptr noundef nonnull align 1 dereferenceable(1) %this) unnamed_addr #7 comdat align 2 {
entry:
  %this.addr = alloca ptr, align 8
  store ptr %this, ptr %this.addr, align 8
  %this1 = load ptr, ptr %this.addr, align 8
  call void @_ZNSt15__new_allocatorIiED2Ev(ptr noundef nonnull align 1 dereferenceable(1) %this1) #3
  ret void
}

; Function Attrs: mustprogress nounwind uwtable
define linkonce_odr dso_local noundef nonnull align 4 dereferenceable(4) ptr @_ZNSt6vectorIiSaIiEEixEm(ptr noundef nonnull align 8 dereferenceable(24) %this, i64 noundef %__n) #7 comdat align 2 {
entry:
  %this.addr = alloca ptr, align 8
  %__n.addr = alloca i64, align 8
  store ptr %this, ptr %this.addr, align 8
  store i64 %__n, ptr %__n.addr, align 8
  %this1 = load ptr, ptr %this.addr, align 8
  %_M_impl = getelementptr inbounds %"struct.std::_Vector_base", ptr %this1, i32 0, i32 0
  %_M_start = getelementptr inbounds %"struct.std::_Vector_base<int, std::allocator<int>>::_Vector_impl_data", ptr %_M_impl, i32 0, i32 0
  %0 = load ptr, ptr %_M_start, align 8
  %1 = load i64, ptr %__n.addr, align 8
  %add.ptr = getelementptr inbounds i32, ptr %0, i64 %1
  ret ptr %add.ptr
}

; Function Attrs: mustprogress uwtable
define linkonce_odr dso_local noundef i64 @_ZN4absl7UniformIvRSt23mersenne_twister_engineImLm64ELm312ELm156ELm31ELm13043109905998158313ELm29ELm6148914691236517205ELm17ELm8202884508482404352ELm37ELm18444473444759240704ELm43ELm6364136223846793005EEjmEENSt9enable_ifIXsr3std7is_sameIT_vEE5valueENS4_IXsr4absl11disjunctionINS_15random_internal23is_widening_convertibleIT1_T2_EENS7_IS9_S8_EEEE5valueENSt11conditionalIXsr23is_widening_convertibleIS8_S9_EE5valueES9_S8_E4typeEE4typeEE4typeEOT0_S8_S9_(ptr noundef nonnull align 8 dereferenceable(2504) %urbg, i32 noundef %lo, i64 noundef %hi) #4 comdat {
entry:
  %retval = alloca i64, align 8
  %urbg.addr = alloca ptr, align 8
  %lo.addr = alloca i32, align 4
  %hi.addr = alloca i64, align 8
  %tag = alloca %"struct.absl::IntervalClosedOpenTag", align 1
  %a = alloca i64, align 8
  %b = alloca i64, align 8
  %ref.tmp = alloca i64, align 8
  %ref.tmp7 = alloca i64, align 8
  store ptr %urbg, ptr %urbg.addr, align 8
  store i32 %lo, ptr %lo.addr, align 4
  store i64 %hi, ptr %hi.addr, align 8
  call void @llvm.memcpy.p0.p0.i64(ptr align 1 %tag, ptr align 1 @__const._ZN4absl7UniformIvRSt23mersenne_twister_engineImLm64ELm312ELm156ELm31ELm13043109905998158313ELm29ELm6148914691236517205ELm17ELm8202884508482404352ELm37ELm18444473444759240704ELm43ELm6364136223846793005EEjmEENSt9enable_ifIXsr3std7is_sameIT_vEE5valueENS4_IXsr4absl11disjunctionINS_15random_internal23is_widening_convertibleIT1_T2_EENS7_IS9_S8_EEEE5valueENSt11conditionalIXsr23is_widening_convertibleIS8_S9_EE5valueES9_S8_E4typeEE4typeEE4typeEOT0_S8_S9_.tag, i64 1, i1 false)
  %0 = load i32, ptr %lo.addr, align 4
  %conv = zext i32 %0 to i64
  %1 = load i64, ptr %hi.addr, align 8
  %call = call noundef i64 @_ZN4absl15random_internal19uniform_lower_boundImNS_21IntervalClosedOpenTagEEENSt9enable_ifIXsr4absl11disjunctionISt7is_sameIT0_NS_23IntervalClosedClosedTagEES4_IS5_S2_EEE5valueET_E4typeES5_S9_S9_(i64 noundef %conv, i64 noundef %1)
  store i64 %call, ptr %a, align 8
  %2 = load i32, ptr %lo.addr, align 4
  %conv2 = zext i32 %2 to i64
  %3 = load i64, ptr %hi.addr, align 8
  %call3 = call noundef i64 @_ZN4absl15random_internal19uniform_upper_boundImNS_21IntervalClosedOpenTagEEENSt9enable_ifIXsr4absl11conjunctionINS0_10IsIntegralIT_EENS_11disjunctionIJSt7is_sameIT0_S2_ES8_IS9_NS_19IntervalOpenOpenTagEEEEEEE5valueES5_E4typeES9_S5_S5_(i64 noundef %conv2, i64 noundef %3)
  store i64 %call3, ptr %b, align 8
  %4 = load i64, ptr %a, align 8
  %5 = load i64, ptr %b, align 8
  %call4 = call noundef zeroext i1 @_ZN4absl15random_internal22is_uniform_range_validImEENSt9enable_ifIXsr10IsIntegralIT_EE5valueEbE4typeES3_S3_(i64 noundef %4, i64 noundef %5)
  br i1 %call4, label %if.end, label %if.then

if.then:                                          ; preds = %entry
  %6 = load i32, ptr %lo.addr, align 4
  %conv5 = zext i32 %6 to i64
  store i64 %conv5, ptr %retval, align 8
  br label %return

if.end:                                           ; preds = %entry
  %7 = load ptr, ptr %urbg.addr, align 8
  %8 = load i32, ptr %lo.addr, align 4
  %conv6 = zext i32 %8 to i64
  store i64 %conv6, ptr %ref.tmp, align 8
  %9 = load i64, ptr %hi.addr, align 8
  store i64 %9, ptr %ref.tmp7, align 8
  %call8 = call noundef i64 @_ZN4absl15random_internal18DistributionCallerISt23mersenne_twister_engineImLm64ELm312ELm156ELm31ELm13043109905998158313ELm29ELm6148914691236517205ELm17ELm8202884508482404352ELm37ELm18444473444759240704ELm43ELm6364136223846793005EEE4CallINS0_26UniformDistributionWrapperImEEJmmEEENT_11result_typeEPS3_DpOT0_(ptr noundef %7, ptr noundef nonnull align 8 dereferenceable(8) %ref.tmp, ptr noundef nonnull align 8 dereferenceable(8) %ref.tmp7)
  store i64 %call8, ptr %retval, align 8
  br label %return

return:                                           ; preds = %if.end, %if.then
  %10 = load i64, ptr %retval, align 8
  ret i64 %10
}

; Function Attrs: mustprogress nounwind uwtable
define linkonce_odr dso_local noundef i64 @_ZNKSt6vectorIiSaIiEE4sizeEv(ptr noundef nonnull align 8 dereferenceable(24) %this) #7 comdat align 2 {
entry:
  %this.addr = alloca ptr, align 8
  store ptr %this, ptr %this.addr, align 8
  %this1 = load ptr, ptr %this.addr, align 8
  %_M_impl = getelementptr inbounds %"struct.std::_Vector_base", ptr %this1, i32 0, i32 0
  %_M_finish = getelementptr inbounds %"struct.std::_Vector_base<int, std::allocator<int>>::_Vector_impl_data", ptr %_M_impl, i32 0, i32 1
  %0 = load ptr, ptr %_M_finish, align 8
  %_M_impl2 = getelementptr inbounds %"struct.std::_Vector_base", ptr %this1, i32 0, i32 0
  %_M_start = getelementptr inbounds %"struct.std::_Vector_base<int, std::allocator<int>>::_Vector_impl_data", ptr %_M_impl2, i32 0, i32 0
  %1 = load ptr, ptr %_M_start, align 8
  %sub.ptr.lhs.cast = ptrtoint ptr %0 to i64
  %sub.ptr.rhs.cast = ptrtoint ptr %1 to i64
  %sub.ptr.sub = sub i64 %sub.ptr.lhs.cast, %sub.ptr.rhs.cast
  %sub.ptr.div = sdiv exact i64 %sub.ptr.sub, 4
  ret i64 %sub.ptr.div
}

; Function Attrs: mustprogress uwtable
define linkonce_odr dso_local noundef i64 @_ZN4absl7UniformImRSt23mersenne_twister_engineImLm64ELm312ELm156ELm31ELm13043109905998158313ELm29ELm6148914691236517205ELm17ELm8202884508482404352ELm37ELm18444473444759240704ELm43ELm6364136223846793005EEEENSt9enable_ifIXntsr3std7is_sameIT_vEE5valueES5_E4typeEOT0_S5_S5_(ptr noundef nonnull align 8 dereferenceable(2504) %urbg, i64 noundef %lo, i64 noundef %hi) #4 comdat {
entry:
  %retval = alloca i64, align 8
  %urbg.addr = alloca ptr, align 8
  %lo.addr = alloca i64, align 8
  %hi.addr = alloca i64, align 8
  %tag = alloca %"struct.absl::IntervalClosedOpenTag", align 1
  %a = alloca i64, align 8
  %b = alloca i64, align 8
  store ptr %urbg, ptr %urbg.addr, align 8
  store i64 %lo, ptr %lo.addr, align 8
  store i64 %hi, ptr %hi.addr, align 8
  call void @llvm.memcpy.p0.p0.i64(ptr align 1 %tag, ptr align 1 @__const._ZN4absl7UniformImRSt23mersenne_twister_engineImLm64ELm312ELm156ELm31ELm13043109905998158313ELm29ELm6148914691236517205ELm17ELm8202884508482404352ELm37ELm18444473444759240704ELm43ELm6364136223846793005EEEENSt9enable_ifIXntsr3std7is_sameIT_vEE5valueES5_E4typeEOT0_S5_S5_.tag, i64 1, i1 false)
  %0 = load i64, ptr %lo.addr, align 8
  %1 = load i64, ptr %hi.addr, align 8
  %call = call noundef i64 @_ZN4absl15random_internal19uniform_lower_boundImNS_21IntervalClosedOpenTagEEENSt9enable_ifIXsr4absl11disjunctionISt7is_sameIT0_NS_23IntervalClosedClosedTagEES4_IS5_S2_EEE5valueET_E4typeES5_S9_S9_(i64 noundef %0, i64 noundef %1)
  store i64 %call, ptr %a, align 8
  %2 = load i64, ptr %lo.addr, align 8
  %3 = load i64, ptr %hi.addr, align 8
  %call2 = call noundef i64 @_ZN4absl15random_internal19uniform_upper_boundImNS_21IntervalClosedOpenTagEEENSt9enable_ifIXsr4absl11conjunctionINS0_10IsIntegralIT_EENS_11disjunctionIJSt7is_sameIT0_S2_ES8_IS9_NS_19IntervalOpenOpenTagEEEEEEE5valueES5_E4typeES9_S5_S5_(i64 noundef %2, i64 noundef %3)
  store i64 %call2, ptr %b, align 8
  %4 = load i64, ptr %a, align 8
  %5 = load i64, ptr %b, align 8
  %call3 = call noundef zeroext i1 @_ZN4absl15random_internal22is_uniform_range_validImEENSt9enable_ifIXsr10IsIntegralIT_EE5valueEbE4typeES3_S3_(i64 noundef %4, i64 noundef %5)
  br i1 %call3, label %if.end, label %if.then

if.then:                                          ; preds = %entry
  %6 = load i64, ptr %lo.addr, align 8
  store i64 %6, ptr %retval, align 8
  br label %return

if.end:                                           ; preds = %entry
  %7 = load ptr, ptr %urbg.addr, align 8
  %call4 = call noundef i64 @_ZN4absl15random_internal18DistributionCallerISt23mersenne_twister_engineImLm64ELm312ELm156ELm31ELm13043109905998158313ELm29ELm6148914691236517205ELm17ELm8202884508482404352ELm37ELm18444473444759240704ELm43ELm6364136223846793005EEE4CallINS0_26UniformDistributionWrapperImEEJRmS8_EEENT_11result_typeEPS3_DpOT0_(ptr noundef %7, ptr noundef nonnull align 8 dereferenceable(8) %lo.addr, ptr noundef nonnull align 8 dereferenceable(8) %hi.addr)
  store i64 %call4, ptr %retval, align 8
  br label %return

return:                                           ; preds = %if.end, %if.then
  %8 = load i64, ptr %retval, align 8
  ret i64 %8
}

; Function Attrs: mustprogress uwtable
