target datalayout = "e-m:e-p270:32:32-p271:32:32-p272:64:64-i64:64-i128:128-f80:128-n8:16:32:64-S128"
target triple = "x86_64-unknown-linux-gnu"

%"class.std::ios_base::Init" = type { i8 }
%"class.std::basic_ostream" = type { ptr, %"class.std::basic_ios" }
%"class.std::basic_ios" = type { %"class.std::ios_base", ptr, i8, i8, ptr, ptr, ptr, ptr }
%"class.std::ios_base" = type { ptr, i64, i64, i32, i32, i32, ptr, %"struct.std::ios_base::_Words", [8 x %"struct.std::ios_base::_Words"], i32, ptr, %"class.std::locale" }
%"struct.std::ios_base::_Words" = type { ptr, i64 }
%"class.std::locale" = type { ptr }
%"struct.testing::internal::CodeLocation" = type <{ %"class.std::__cxx11::basic_string", i32, [4 x i8] }>
%"class.std::__cxx11::basic_string" = type { %"struct.std::__cxx11::basic_string<char>::_Alloc_hider", i64, %union.anon }
%"struct.std::__cxx11::basic_string<char>::_Alloc_hider" = type { ptr }
%union.anon = type { i64, [8 x i8] }
%"class.std::allocator" = type { i8 }
%"class.std::vector" = type { %"struct.std::_Vector_base" }
%"struct.std::_Vector_base" = type { %"struct.std::_Vector_base<std::__cxx11::basic_string<char>, std::allocator<std::__cxx11::basic_string<char>>>::_Vector_impl" }
%"struct.std::_Vector_base<std::__cxx11::basic_string<char>, std::allocator<std::__cxx11::basic_string<char>>>::_Vector_impl" = type { %"struct.std::_Vector_base<std::__cxx11::basic_string<char>, std::allocator<std::__cxx11::basic_string<char>>>::_Vector_impl_data" }
%"struct.std::_Vector_base<std::__cxx11::basic_string<char>, std::allocator<std::__cxx11::basic_string<char>>>::_Vector_impl_data" = type { ptr, ptr, ptr }
%"class.testing::internal::GTestLog" = type { i32 }
%"class.absl::random_internal::randen_engine" = type { [264 x i8], i64, %"class.absl::random_internal::Randen" }
%"class.absl::random_internal::Randen" = type <{ ptr, i8, [7 x i8] }>
%"class.testing::AssertionResult" = type { i8, %"class.std::unique_ptr.10" }
%"class.std::unique_ptr.10" = type { %"struct.std::__uniq_ptr_data.11" }
%"struct.std::__uniq_ptr_data.11" = type { %"class.std::__uniq_ptr_impl.12" }
%"class.std::__uniq_ptr_impl.12" = type { %"class.std::tuple.13" }
%"class.std::tuple.13" = type { %"struct.std::_Tuple_impl.14" }
%"struct.std::_Tuple_impl.14" = type { %"struct.std::_Head_base.17" }
%"struct.std::_Head_base.17" = type { ptr }
%"class.testing::Message" = type { %"class.std::unique_ptr.18" }
%"class.std::unique_ptr.18" = type { %"struct.std::__uniq_ptr_data.19" }
%"struct.std::__uniq_ptr_data.19" = type { %"class.std::__uniq_ptr_impl.20" }
%"class.std::__uniq_ptr_impl.20" = type { %"class.std::tuple.21" }
%"class.std::tuple.21" = type { %"struct.std::_Tuple_impl.22" }
%"struct.std::_Tuple_impl.22" = type { %"struct.std::_Head_base.25" }
%"struct.std::_Head_base.25" = type { ptr }
%"class.testing::internal::AssertHelper" = type { ptr }
%"class.std::__cxx11::basic_stringstream" = type { %"class.std::basic_iostream.base", %"class.std::__cxx11::basic_stringbuf", %"class.std::basic_ios" }
%"class.std::basic_iostream.base" = type { %"class.std::basic_istream.base", %"class.std::basic_ostream.base" }
%"class.std::basic_istream.base" = type { ptr, i64 }
%"class.std::basic_ostream.base" = type { ptr }
%"class.std::__cxx11::basic_stringbuf" = type { %"class.std::basic_streambuf", i32, %"class.std::__cxx11::basic_string" }
%"class.std::basic_streambuf" = type { ptr, ptr, ptr, ptr, ptr, ptr, ptr, %"class.std::locale" }
%"class.absl::random_internal::ExplicitSeedSeq" = type { %"class.std::vector.28" }
%"class.std::vector.28" = type { %"struct.std::_Vector_base.29" }
%"struct.std::_Vector_base.29" = type { %"struct.std::_Vector_base<unsigned int, std::allocator<unsigned int>>::_Vector_impl" }
%"struct.std::_Vector_base<unsigned int, std::allocator<unsigned int>>::_Vector_impl" = type { %"struct.std::_Vector_base<unsigned int, std::allocator<unsigned int>>::_Vector_impl_data" }
%"struct.std::_Vector_base<unsigned int, std::allocator<unsigned int>>::_Vector_impl_data" = type { ptr, ptr, ptr }
%"class.std::initializer_list" = type { ptr, i64 }
%"class.__gnu_cxx::__normal_iterator" = type { ptr }
%"class.__gnu_cxx::__normal_iterator.33" = type { ptr }
%"class.absl::random_internal::randen_engine.34" = type { [264 x i8], i64, %"class.absl::random_internal::Randen" }
%"class.std::__cxx11::basic_istringstream" = type { %"class.std::basic_istream.base", %"class.std::__cxx11::basic_stringbuf", %"class.std::basic_ios" }
%"class.absl::log_internal::Voidify" = type { i8 }
%"class.absl::log_internal::LogMessage" = type { %"class.absl::base_internal::ErrnoSaver", %"class.std::unique_ptr.35" }
%"class.absl::base_internal::ErrnoSaver" = type { i32 }
%"class.std::unique_ptr.35" = type { %"struct.std::__uniq_ptr_data.36" }
%"struct.std::__uniq_ptr_data.36" = type { %"class.std::__uniq_ptr_impl.37" }
%"class.std::__uniq_ptr_impl.37" = type { %"class.std::tuple.38" }
%"class.std::tuple.38" = type { %"struct.std::_Tuple_impl.39" }
%"struct.std::_Tuple_impl.39" = type { %"struct.std::_Head_base.42" }
%"struct.std::_Head_base.42" = type { ptr }
%"class.std::basic_string_view" = type { i64, ptr }
%struct._Guard = type { ptr }
%"class.__gnu_cxx::__normal_iterator.44" = type { ptr }
%"class.__gnu_cxx::__normal_iterator.45" = type { ptr }
%"class.std::type_info" = type { ptr, ptr }
%"class.absl::random_internal::randen_engine.46" = type { [264 x i8], i64, %"class.absl::random_internal::Randen" }
%"class.std::seed_seq" = type { %"class.std::vector.28" }
%"class.std::reference_wrapper" = type { ptr }
%"class.std::random_device" = type { %union.anon.47 }
%union.anon.47 = type { %"class.std::mersenne_twister_engine" }
%"class.std::mersenne_twister_engine" = type { [624 x i64], i64 }
%"class.std::initializer_list.48" = type { ptr, i64 }
%"class.std::bitset" = type { %"struct.std::_Base_bitset" }
%"struct.std::_Base_bitset" = type { i64 }
%"class.absl::random_internal::randen_engine.52" = type { [264 x i8], i64, %"class.absl::random_internal::Randen" }
%"class.std::reference_wrapper.53" = type { ptr }
%"class.std::bitset.62" = type { %"struct.std::_Base_bitset" }
%"class.std::reference_wrapper.66" = type { ptr }
%"class.std::bitset.75" = type { %"struct.std::_Base_bitset" }
%"class.std::reference_wrapper.79" = type { ptr }
%"class.std::bitset.88" = type { %"struct.std::_Base_bitset" }
%"class.__gnu_cxx::__normal_iterator.90" = type { ptr }
%"class.std::__cxx11::basic_ostringstream" = type { %"class.std::basic_ostream.base.103", %"class.std::__cxx11::basic_stringbuf.104", %"class.std::basic_ios.102" }
%"class.std::basic_ostream.base.103" = type { ptr }
%"class.std::__cxx11::basic_stringbuf.104" = type { %"class.std::basic_streambuf.105", i32, %"class.std::__cxx11::basic_string.106" }
%"class.std::basic_streambuf.105" = type { ptr, ptr, ptr, ptr, ptr, ptr, ptr, %"class.std::locale" }
%"class.std::__cxx11::basic_string.106" = type { %"struct.std::__cxx11::basic_string<wchar_t>::_Alloc_hider", i64, %union.anon.110 }
%"struct.std::__cxx11::basic_string<wchar_t>::_Alloc_hider" = type { ptr }
%union.anon.110 = type { i64, [8 x i8] }
%"class.std::basic_ios.102" = type { %"class.std::ios_base", ptr, i32, i8, ptr, ptr, ptr, ptr }
%"class.std::__cxx11::basic_istringstream.111" = type { %"class.std::basic_istream.base.113", %"class.std::__cxx11::basic_stringbuf.104", %"class.std::basic_ios.102" }
%"class.std::basic_istream.base.113" = type { ptr, i64 }
%"class.absl::random_internal::ostream_state_saver" = type { ptr, i32, i32, i64 }
%"class.absl::random_internal::ostream_state_saver.122" = type { ptr, i32, i8, i64 }

$_ZNSt7__cxx1112basic_stringIcSt11char_traitsIcESaIcEEC2IS3_EEPKcRKS3_ = comdat any

$_ZN7testing8internal12CodeLocationC2ERKNSt7__cxx1112basic_stringIcSt11char_traitsIcESaIcEEEi = comdat any

$_ZN7testing8internal13GenerateNamesINS0_20DefaultNameGeneratorENS0_5TypesIhJtjmEEEEESt6vectorINSt7__cxx1112basic_stringIcSt11char_traitsIcESaIcEEESaISB_EEv = comdat any

$_ZNSt6vectorINSt7__cxx1112basic_stringIcSt11char_traitsIcESaIcEEESaIS5_EED2Ev = comdat any

$_ZN7testing8internal12CodeLocationD2Ev = comdat any

$_ZN7testing8internal16SuiteApiResolverINS_4TestEE19GetSetUpCaseOrSuiteEPKci = comdat any

$_ZN7testing8internal16SuiteApiResolverINS_4TestEE22GetTearDownCaseOrSuiteEPKci = comdat any

$_ZN7testing8internal15TestFactoryBaseC2Ev = comdat any

$_ZN7testing8internal15TestFactoryBaseD2Ev = comdat any

$_ZN7testing8internal15TestFactoryBaseD0Ev = comdat any

$_ZN7testing4Test5SetupEv = comdat any

$_ZN4absl15random_internal13randen_engineImEC2Ev = comdat any

$_ZN7testing8internal8EqHelper7CompareImmTnPNSt9enable_ifIXoontsr3std11is_integralIT_EE5valuentsr3std10is_pointerIT0_EE5valueEvE4typeELPv0EEENS_15AssertionResultEPKcSC_RKS4_RKS5_ = comdat any

$_ZN4absl15random_internal13randen_engineImEclEv = comdat any

$_ZNK7testing15AssertionResultcvbEv = comdat any

$_ZNK7testing15AssertionResult15failure_messageEv = comdat any

$_ZN7testing7MessageD2Ev = comdat any

$_ZN7testing15AssertionResultD2Ev = comdat any

$_ZN4absl15random_internal13randen_engineImE4seedEm = comdat any

$_ZN7testing8internal11CmpHelperEQImmEENS_15AssertionResultEPKcS4_RKT_RKT0_ = comdat any

$_ZN7testing8internal18CmpHelperEQFailureImmEENS_15AssertionResultEPKcS4_RKT_RKT0_ = comdat any

$_ZN7testing8internal33FormatForComparisonFailureMessageImmEENSt7__cxx1112basic_stringIcSt11char_traitsIcESaIcEEERKT_RKT0_ = comdat any

$_ZN7testing8internal19FormatForComparisonImmE6FormatB5cxx11ERKm = comdat any

$_ZN7testing13PrintToStringImEENSt7__cxx1112basic_stringIcSt11char_traitsIcESaIcEEERKT_ = comdat any

$_ZN7testing8internal21UniversalTersePrinterImE5PrintERKmPSo = comdat any

$_ZN7testing8internal14UniversalPrintImEEvRKT_PSo = comdat any

$_ZN7testing8internal16UniversalPrinterImE5PrintERKmPSo = comdat any

$_ZN7testing8internal7PrintToImEEvRKT_PSo = comdat any

$_ZN7testing8internal17PrintWithFallbackImEEvRKT_PSo = comdat any

$_ZN7testing8internal52internal_stream_operator_without_lexical_name_lookup13StreamPrinter10PrintValueImvEEDTcvvlsdefp0_fp_ERKT_PSo = comdat any

$_ZN4absl15random_internal13randen_engineImE5stateEv = comdat any

$_ZNK4absl15random_internal6Randen8GenerateEPv = comdat any

$_ZN4absl13little_endian6ToHostEm = comdat any

$_ZN4absl13little_endian8ToHost64Em = comdat any

$_ZNK7testing15AssertionResult7messageEv = comdat any

$_ZStneINSt7__cxx1112basic_stringIcSt11char_traitsIcESaIcEEESt14default_deleteIS5_EEbRKSt10unique_ptrIT_T0_EDn = comdat any

$_ZNKSt10unique_ptrINSt7__cxx1112basic_stringIcSt11char_traitsIcESaIcEEESt14default_deleteIS5_EEptEv = comdat any

$_ZNKSt10unique_ptrINSt7__cxx1112basic_stringIcSt11char_traitsIcESaIcEEESt14default_deleteIS5_EEcvbEv = comdat any

$_ZNKSt10unique_ptrINSt7__cxx1112basic_stringIcSt11char_traitsIcESaIcEEESt14default_deleteIS5_EE3getEv = comdat any

$_ZNKSt15__uniq_ptr_implINSt7__cxx1112basic_stringIcSt11char_traitsIcESaIcEEESt14default_deleteIS5_EE6_M_ptrEv = comdat any

$_ZSt3getILm0EJPNSt7__cxx1112basic_stringIcSt11char_traitsIcESaIcEEESt14default_deleteIS5_EEERKNSt13tuple_elementIXT_ESt5tupleIJDpT0_EEE4typeERKSD_ = comdat any

$_ZSt12__get_helperILm0EPNSt7__cxx1112basic_stringIcSt11char_traitsIcESaIcEEEJSt14default_deleteIS5_EEERKT0_RKSt11_Tuple_implIXT_EJS9_DpT1_EE = comdat any

$_ZNSt11_Tuple_implILm0EJPNSt7__cxx1112basic_stringIcSt11char_traitsIcESaIcEEESt14default_deleteIS5_EEE7_M_headERKS9_ = comdat any

$_ZNSt10_Head_baseILm0EPNSt7__cxx1112basic_stringIcSt11char_traitsIcESaIcEEELb0EE7_M_headERKS7_ = comdat any

$_ZNSt10unique_ptrINSt7__cxx1118basic_stringstreamIcSt11char_traitsIcESaIcEEESt14default_deleteIS5_EED2Ev = comdat any

$_ZNSt15__uniq_ptr_implINSt7__cxx1118basic_stringstreamIcSt11char_traitsIcESaIcEEESt14default_deleteIS5_EE6_M_ptrEv = comdat any

$_ZNSt10unique_ptrINSt7__cxx1118basic_stringstreamIcSt11char_traitsIcESaIcEEESt14default_deleteIS5_EE11get_deleterEv = comdat any

$_ZNKSt14default_deleteINSt7__cxx1118basic_stringstreamIcSt11char_traitsIcESaIcEEEEclEPS5_ = comdat any

$__clang_call_terminate = comdat any

$_ZSt3getILm0EJPNSt7__cxx1118basic_stringstreamIcSt11char_traitsIcESaIcEEESt14default_deleteIS5_EEERNSt13tuple_elementIXT_ESt5tupleIJDpT0_EEE4typeERSD_ = comdat any

$_ZSt12__get_helperILm0EPNSt7__cxx1118basic_stringstreamIcSt11char_traitsIcESaIcEEEJSt14default_deleteIS5_EEERT0_RSt11_Tuple_implIXT_EJS9_DpT1_EE = comdat any

$_ZNSt11_Tuple_implILm0EJPNSt7__cxx1118basic_stringstreamIcSt11char_traitsIcESaIcEEESt14default_deleteIS5_EEE7_M_headERS9_ = comdat any

$_ZNSt10_Head_baseILm0EPNSt7__cxx1118basic_stringstreamIcSt11char_traitsIcESaIcEEELb0EE7_M_headERS7_ = comdat any

$_ZNSt15__uniq_ptr_implINSt7__cxx1118basic_stringstreamIcSt11char_traitsIcESaIcEEESt14default_deleteIS5_EE10_M_deleterEv = comdat any

$_ZSt3getILm1EJPNSt7__cxx1118basic_stringstreamIcSt11char_traitsIcESaIcEEESt14default_deleteIS5_EEERNSt13tuple_elementIXT_ESt5tupleIJDpT0_EEE4typeERSD_ = comdat any

$_ZSt12__get_helperILm1ESt14default_deleteINSt7__cxx1118basic_stringstreamIcSt11char_traitsIcESaIcEEEEJEERT0_RSt11_Tuple_implIXT_EJS8_DpT1_EE = comdat any

$_ZNSt11_Tuple_implILm1EJSt14default_deleteINSt7__cxx1118basic_stringstreamIcSt11char_traitsIcESaIcEEEEEE7_M_headERS8_ = comdat any

$_ZNSt10_Head_baseILm1ESt14default_deleteINSt7__cxx1118basic_stringstreamIcSt11char_traitsIcESaIcEEEELb1EE7_M_headERS8_ = comdat any

$_ZNSt10unique_ptrINSt7__cxx1112basic_stringIcSt11char_traitsIcESaIcEEESt14default_deleteIS5_EED2Ev = comdat any

$_ZNSt15__uniq_ptr_implINSt7__cxx1112basic_stringIcSt11char_traitsIcESaIcEEESt14default_deleteIS5_EE6_M_ptrEv = comdat any

$_ZNSt10unique_ptrINSt7__cxx1112basic_stringIcSt11char_traitsIcESaIcEEESt14default_deleteIS5_EE11get_deleterEv = comdat any

$_ZNKSt14default_deleteINSt7__cxx1112basic_stringIcSt11char_traitsIcESaIcEEEEclEPS5_ = comdat any

$_ZSt3getILm0EJPNSt7__cxx1112basic_stringIcSt11char_traitsIcESaIcEEESt14default_deleteIS5_EEERNSt13tuple_elementIXT_ESt5tupleIJDpT0_EEE4typeERSD_ = comdat any

$_ZSt12__get_helperILm0EPNSt7__cxx1112basic_stringIcSt11char_traitsIcESaIcEEEJSt14default_deleteIS5_EEERT0_RSt11_Tuple_implIXT_EJS9_DpT1_EE = comdat any

$_ZNSt11_Tuple_implILm0EJPNSt7__cxx1112basic_stringIcSt11char_traitsIcESaIcEEESt14default_deleteIS5_EEE7_M_headERS9_ = comdat any

$_ZNSt10_Head_baseILm0EPNSt7__cxx1112basic_stringIcSt11char_traitsIcESaIcEEELb0EE7_M_headERS7_ = comdat any

$_ZNSt15__uniq_ptr_implINSt7__cxx1112basic_stringIcSt11char_traitsIcESaIcEEESt14default_deleteIS5_EE10_M_deleterEv = comdat any

$_ZSt3getILm1EJPNSt7__cxx1112basic_stringIcSt11char_traitsIcESaIcEEESt14default_deleteIS5_EEERNSt13tuple_elementIXT_ESt5tupleIJDpT0_EEE4typeERSD_ = comdat any

$_ZSt12__get_helperILm1ESt14default_deleteINSt7__cxx1112basic_stringIcSt11char_traitsIcESaIcEEEEJEERT0_RSt11_Tuple_implIXT_EJS8_DpT1_EE = comdat any

$_ZNSt11_Tuple_implILm1EJSt14default_deleteINSt7__cxx1112basic_stringIcSt11char_traitsIcESaIcEEEEEE7_M_headERS8_ = comdat any

$_ZNSt10_Head_baseILm1ESt14default_deleteINSt7__cxx1112basic_stringIcSt11char_traitsIcESaIcEEEELb1EE7_M_headERS8_ = comdat any

$_ZSt4fillIPmiEvT_S1_RKT0_ = comdat any

$_ZSt4fillIPmmEvT_S1_RKT0_ = comdat any

$_ZSt8__fill_aIPmiEvT_S1_RKT0_ = comdat any

$_ZSt9__fill_a1IPmiEN9__gnu_cxx11__enable_ifIXsr11__is_scalarIT0_EE7__valueEvE6__typeET_S6_RKS3_ = comdat any

$_ZSt8__fill_aIPmmEvT_S1_RKT0_ = comdat any

$_ZSt9__fill_a1IPmmEN9__gnu_cxx11__enable_ifIXsr11__is_scalarIT0_EE7__valueEvE6__typeET_S6_RKS3_ = comdat any

$_ZN4absl15random_internal15ExplicitSeedSeqC2IiEESt16initializer_listIT_E = comdat any

$_ZN4absl15random_internal13randen_engineImEC2IRNS0_15ExplicitSeedSeqEvEEOT_ = comdat any

$_ZN4absl15random_internal13randen_engineImE4seedIRNS0_15ExplicitSeedSeqEEENSt9enable_ifIXntsr3std14is_convertibleIT_mEE5valueEvE4typeEOS7_ = comdat any

$_ZN4absl15random_internal15ExplicitSeedSeqD2Ev = comdat any

$_ZNKSt16initializer_listIiE5beginEv = comdat any

$_ZNKSt16initializer_listIiE3endEv = comdat any

$_ZN4absl15random_internal15ExplicitSeedSeqC2IPKiEET_S5_ = comdat any

$_ZNKSt16initializer_listIiE4sizeEv = comdat any

$_ZNSt6vectorIjSaIjEEC2Ev = comdat any

$_ZNSt6vectorIjSaIjEE9push_backEOj = comdat any

$_ZNSt6vectorIjSaIjEED2Ev = comdat any

$_ZNSt12_Vector_baseIjSaIjEEC2Ev = comdat any

$_ZNSt12_Vector_baseIjSaIjEE12_Vector_implC2Ev = comdat any

$_ZNSaIjEC2Ev = comdat any

$_ZNSt12_Vector_baseIjSaIjEE17_Vector_impl_dataC2Ev = comdat any

$_ZNSt15__new_allocatorIjEC2Ev = comdat any

$_ZNSt6vectorIjSaIjEE12emplace_backIJjEEERjDpOT_ = comdat any

$_ZNSt16allocator_traitsISaIjEE9constructIjJjEEEvRS0_PT_DpOT0_ = comdat any

$_ZNSt6vectorIjSaIjEE17_M_realloc_insertIJjEEEvN9__gnu_cxx17__normal_iteratorIPjS1_EEDpOT_ = comdat any

$_ZNSt6vectorIjSaIjEE3endEv = comdat any

$_ZNSt6vectorIjSaIjEE4backEv = comdat any

$_ZNSt15__new_allocatorIjE9constructIjJjEEEvPT_DpOT0_ = comdat any

$_ZNKSt6vectorIjSaIjEE12_M_check_lenEmPKc = comdat any

$_ZN9__gnu_cxxmiIPjSt6vectorIjSaIjEEEENS_17__normal_iteratorIT_T0_E15difference_typeERKS8_SB_ = comdat any

$_ZNSt6vectorIjSaIjEE5beginEv = comdat any

$_ZNSt12_Vector_baseIjSaIjEE11_M_allocateEm = comdat any

$_ZNSt6vectorIjSaIjEE11_S_relocateEPjS2_S2_RS0_ = comdat any

$_ZNK9__gnu_cxx17__normal_iteratorIPjSt6vectorIjSaIjEEE4baseEv = comdat any

$_ZNSt12_Vector_baseIjSaIjEE19_M_get_Tp_allocatorEv = comdat any

$_ZNSt12_Vector_baseIjSaIjEE13_M_deallocateEPjm = comdat any

$_ZNKSt6vectorIjSaIjEE8max_sizeEv = comdat any

$_ZNKSt6vectorIjSaIjEE4sizeEv = comdat any

$_ZSt3maxImERKT_S2_S2_ = comdat any

$_ZNSt6vectorIjSaIjEE11_S_max_sizeERKS0_ = comdat any

$_ZNKSt12_Vector_baseIjSaIjEE19_M_get_Tp_allocatorEv = comdat any

$_ZNSt16allocator_traitsISaIjEE8max_sizeERKS0_ = comdat any

$_ZSt3minImERKT_S2_S2_ = comdat any

$_ZNKSt15__new_allocatorIjE8max_sizeEv = comdat any

$_ZNKSt15__new_allocatorIjE11_M_max_sizeEv = comdat any

$_ZN9__gnu_cxx17__normal_iteratorIPjSt6vectorIjSaIjEEEC2ERKS1_ = comdat any

$_ZNSt16allocator_traitsISaIjEE8allocateERS0_m = comdat any

$_ZNSt15__new_allocatorIjE8allocateEmPKv = comdat any

$_ZSt12__relocate_aIPjS0_SaIjEET0_T_S3_S2_RT1_ = comdat any

$_ZSt14__relocate_a_1IjjENSt9enable_ifIXsr3std24__is_bitwise_relocatableIT_EE5valueEPS1_E4typeES2_S2_S2_RSaIT0_E = comdat any

$_ZSt12__niter_baseIPjET_S1_ = comdat any

$_ZNSt16allocator_traitsISaIjEE10deallocateERS0_Pjm = comdat any

$_ZNSt15__new_allocatorIjE10deallocateEPjm = comdat any

$_ZNK9__gnu_cxx17__normal_iteratorIPjSt6vectorIjSaIjEEEmiEl = comdat any

$_ZNK9__gnu_cxx17__normal_iteratorIPjSt6vectorIjSaIjEEEdeEv = comdat any

$_ZSt8_DestroyIPjjEvT_S1_RSaIT0_E = comdat any

$_ZNSt12_Vector_baseIjSaIjEED2Ev = comdat any

$_ZSt8_DestroyIPjEvT_S1_ = comdat any

$_ZNSt12_Destroy_auxILb1EE9__destroyIPjEEvT_S3_ = comdat any

$_ZNSt12_Vector_baseIjSaIjEE12_Vector_implD2Ev = comdat any

$_ZNSaIjED2Ev = comdat any

$_ZNSt15__new_allocatorIjED2Ev = comdat any

$_ZN4absl15random_internal13randen_engineImE6reseedINS0_15ExplicitSeedSeqEEEvRT_ = comdat any

$_ZNK4absl15random_internal15ExplicitSeedSeq4sizeEv = comdat any

$_ZSt4fillIPjiEvT_S1_RKT0_ = comdat any

$_ZN4absl15random_internal15ExplicitSeedSeq8generateIPjEEvT_S4_ = comdat any

$_ZSt4swapIjENSt9enable_ifIXsr6__and_ISt6__not_ISt15__is_tuple_likeIT_EESt21is_move_constructibleIS3_ESt18is_move_assignableIS3_EEE5valueEvE4typeERS3_SC_ = comdat any

$_ZNK4absl15random_internal6Randen6AbsorbEPKvPv = comdat any

$_ZSt8__fill_aIPjiEvT_S1_RKT0_ = comdat any

$_ZSt9__fill_a1IPjiEN9__gnu_cxx11__enable_ifIXsr11__is_scalarIT0_EE7__valueEvE6__typeET_S6_RKS3_ = comdat any

$_ZNKSt6vectorIjSaIjEE5emptyEv = comdat any

$_ZNSt6vectorIjSaIjEEixEm = comdat any

$_ZN9__gnu_cxxeqIPKjSt6vectorIjSaIjEEEEbRKNS_17__normal_iteratorIT_T0_EESB_ = comdat any

$_ZNKSt6vectorIjSaIjEE5beginEv = comdat any

$_ZNKSt6vectorIjSaIjEE3endEv = comdat any

$_ZNK9__gnu_cxx17__normal_iteratorIPKjSt6vectorIjSaIjEEE4baseEv = comdat any

$_ZN9__gnu_cxx17__normal_iteratorIPKjSt6vectorIjSaIjEEEC2ERKS2_ = comdat any

$_ZN4absl15random_internal13randen_engineIjEC2Ev = comdat any

$_ZN7testing8internal8EqHelper7CompareImjTnPNSt9enable_ifIXoontsr3std11is_integralIT_EE5valuentsr3std10is_pointerIT0_EE5valueEvE4typeELPv0EEENS_15AssertionResultEPKcSC_RKS4_RKS5_ = comdat any

$_ZN4absl15random_internal13randen_engineIjEclEv = comdat any

$_ZN4absl15random_internal13randen_engineIjE4seedEj = comdat any

$_ZN7testing8internal11CmpHelperEQImjEENS_15AssertionResultEPKcS4_RKT_RKT0_ = comdat any

$_ZN7testing8internal18CmpHelperEQFailureImjEENS_15AssertionResultEPKcS4_RKT_RKT0_ = comdat any

$_ZN7testing8internal33FormatForComparisonFailureMessageImjEENSt7__cxx1112basic_stringIcSt11char_traitsIcESaIcEEERKT_RKT0_ = comdat any

$_ZN7testing8internal33FormatForComparisonFailureMessageIjmEENSt7__cxx1112basic_stringIcSt11char_traitsIcESaIcEEERKT_RKT0_ = comdat any

$_ZN7testing8internal19FormatForComparisonImjE6FormatB5cxx11ERKm = comdat any

$_ZN7testing8internal19FormatForComparisonIjmE6FormatB5cxx11ERKj = comdat any

$_ZN7testing13PrintToStringIjEENSt7__cxx1112basic_stringIcSt11char_traitsIcESaIcEEERKT_ = comdat any

$_ZN7testing8internal21UniversalTersePrinterIjE5PrintERKjPSo = comdat any

$_ZN7testing8internal14UniversalPrintIjEEvRKT_PSo = comdat any

$_ZN7testing8internal16UniversalPrinterIjE5PrintERKjPSo = comdat any

$_ZN7testing8internal7PrintToIjEEvRKT_PSo = comdat any

$_ZN7testing8internal17PrintWithFallbackIjEEvRKT_PSo = comdat any

$_ZN7testing8internal52internal_stream_operator_without_lexical_name_lookup13StreamPrinter10PrintValueIjvEEDTcvvlsdefp0_fp_ERKT_PSo = comdat any

$_ZN4absl15random_internal13randen_engineIjE5stateEv = comdat any

$_ZN4absl13little_endian6ToHostEj = comdat any

$_ZN4absl13little_endian8ToHost32Ej = comdat any

$_ZSt4fillIPjjEvT_S1_RKT0_ = comdat any

$_ZSt8__fill_aIPjjEvT_S1_RKT0_ = comdat any

$_ZSt9__fill_a1IPjjEN9__gnu_cxx11__enable_ifIXsr11__is_scalarIT0_EE7__valueEvE6__typeET_S6_RKS3_ = comdat any

$_ZN4absl15random_internal13randen_engineIjEC2IRNS0_15ExplicitSeedSeqEvEEOT_ = comdat any

$_ZN4absl15random_internal13randen_engineIjE4seedIRNS0_15ExplicitSeedSeqEEENSt9enable_ifIXntsr3std14is_convertibleIT_jEE5valueEvE4typeEOS7_ = comdat any

$_ZN4absl15random_internal13randen_engineIjE6reseedINS0_15ExplicitSeedSeqEEEvRT_ = comdat any

$_ZN4absl15random_internalrsIcSt11char_traitsIcEEERSt13basic_istreamIT_T0_ES8_RNS0_13randen_engineImEE = comdat any

$_ZNKO4absl12log_internal7VoidifyaaINS0_10LogMessageEEEvRKT_ = comdat any

$_ZN4absl12log_internal10LogMessage14InternalStreamEv = comdat any

$_ZN4absl12log_internal10LogMessagelsEd = comdat any

$_ZN4absl12log_internal10LogMessagelsILi3EEERS1_RAT__Kc = comdat any

$_ZN7testing8internal11CmpHelperGTImiEENS_15AssertionResultEPKcS4_RKT_RKT0_ = comdat any

$_ZN7testing8internal11CmpHelperGEIlmEENS_15AssertionResultEPKcS4_RKT_RKT0_ = comdat any

$_ZNSt17basic_string_viewIcSt11char_traitsIcEEC2EPKc = comdat any

$_ZNSt11char_traitsIcE6lengthEPKc = comdat any

$_ZN7testing8internal18CmpHelperOpFailureImiEENS_15AssertionResultEPKcS4_RKT_RKT0_S4_ = comdat any

$_ZN7testing15AssertionResultlsIA12_cEERS0_RKT_ = comdat any

$_ZN7testing15AssertionResultlsIPKcEERS0_RKT_ = comdat any

$_ZN7testing15AssertionResultlsIA3_cEERS0_RKT_ = comdat any

$_ZN7testing15AssertionResultlsINSt7__cxx1112basic_stringIcSt11char_traitsIcESaIcEEEEERS0_RKT_ = comdat any

$_ZN7testing8internal33FormatForComparisonFailureMessageImiEENSt7__cxx1112basic_stringIcSt11char_traitsIcESaIcEEERKT_RKT0_ = comdat any

$_ZN7testing15AssertionResultlsIA5_cEERS0_RKT_ = comdat any

$_ZN7testing8internal33FormatForComparisonFailureMessageIimEENSt7__cxx1112basic_stringIcSt11char_traitsIcESaIcEEERKT_RKT0_ = comdat any

$_ZN7testing15AssertionResult13AppendMessageERKNS_7MessageE = comdat any

$_ZN7testing7MessagelsIA12_cEERS0_RKT_ = comdat any

$_ZSteqINSt7__cxx1112basic_stringIcSt11char_traitsIcESaIcEEESt14default_deleteIS5_EEbRKSt10unique_ptrIT_T0_EDn = comdat any

$_ZSt11make_uniqueINSt7__cxx1112basic_stringIcSt11char_traitsIcESaIcEEEJEENSt8__detail9_MakeUniqIT_E15__single_objectEDpOT0_ = comdat any

$_ZNSt10unique_ptrINSt7__cxx1112basic_stringIcSt11char_traitsIcESaIcEEESt14default_deleteIS5_EEaSEOS8_ = comdat any

$_ZNSt10unique_ptrINSt7__cxx1112basic_stringIcSt11char_traitsIcESaIcEEESt14default_deleteIS5_EEC2IS7_vEEPS5_ = comdat any

$_ZNSt15__uniq_ptr_dataINSt7__cxx1112basic_stringIcSt11char_traitsIcESaIcEEESt14default_deleteIS5_ELb1ELb1EECI2St15__uniq_ptr_implIS5_S7_EEPS5_ = comdat any

$_ZNSt15__uniq_ptr_implINSt7__cxx1112basic_stringIcSt11char_traitsIcESaIcEEESt14default_deleteIS5_EEC2EPS5_ = comdat any

$_ZNSt5tupleIJPNSt7__cxx1112basic_stringIcSt11char_traitsIcESaIcEEESt14default_deleteIS5_EEEC2ILb1ETnNSt9enable_ifIXclsr17_TupleConstraintsIXT_ES6_S8_EE37__is_implicitly_default_constructibleEEbE4typeELb1EEEv = comdat any

$_ZNSt11_Tuple_implILm0EJPNSt7__cxx1112basic_stringIcSt11char_traitsIcESaIcEEESt14default_deleteIS5_EEEC2Ev = comdat any

$_ZNSt11_Tuple_implILm1EJSt14default_deleteINSt7__cxx1112basic_stringIcSt11char_traitsIcESaIcEEEEEEC2Ev = comdat any

$_ZNSt10_Head_baseILm0EPNSt7__cxx1112basic_stringIcSt11char_traitsIcESaIcEEELb0EEC2Ev = comdat any

$_ZNSt10_Head_baseILm1ESt14default_deleteINSt7__cxx1112basic_stringIcSt11char_traitsIcESaIcEEEELb1EEC2Ev = comdat any

$_ZNSt15__uniq_ptr_dataINSt7__cxx1112basic_stringIcSt11char_traitsIcESaIcEEESt14default_deleteIS5_ELb1ELb1EEaSEOS8_ = comdat any

$_ZNSt15__uniq_ptr_implINSt7__cxx1112basic_stringIcSt11char_traitsIcESaIcEEESt14default_deleteIS5_EEaSEOS8_ = comdat any

$_ZNSt15__uniq_ptr_implINSt7__cxx1112basic_stringIcSt11char_traitsIcESaIcEEESt14default_deleteIS5_EE5resetEPS5_ = comdat any

$_ZNSt15__uniq_ptr_implINSt7__cxx1112basic_stringIcSt11char_traitsIcESaIcEEESt14default_deleteIS5_EE7releaseEv = comdat any

$_ZNKSt10unique_ptrINSt7__cxx1118basic_stringstreamIcSt11char_traitsIcESaIcEEESt14default_deleteIS5_EEdeEv = comdat any

$_ZNKSt10unique_ptrINSt7__cxx1118basic_stringstreamIcSt11char_traitsIcESaIcEEESt14default_deleteIS5_EE3getEv = comdat any

$_ZNKSt15__uniq_ptr_implINSt7__cxx1118basic_stringstreamIcSt11char_traitsIcESaIcEEESt14default_deleteIS5_EE6_M_ptrEv = comdat any

$_ZSt3getILm0EJPNSt7__cxx1118basic_stringstreamIcSt11char_traitsIcESaIcEEESt14default_deleteIS5_EEERKNSt13tuple_elementIXT_ESt5tupleIJDpT0_EEE4typeERKSD_ = comdat any

$_ZSt12__get_helperILm0EPNSt7__cxx1118basic_stringstreamIcSt11char_traitsIcESaIcEEEJSt14default_deleteIS5_EEERKT0_RKSt11_Tuple_implIXT_EJS9_DpT1_EE = comdat any

$_ZNSt11_Tuple_implILm0EJPNSt7__cxx1118basic_stringstreamIcSt11char_traitsIcESaIcEEESt14default_deleteIS5_EEE7_M_headERKS9_ = comdat any

$_ZNSt10_Head_baseILm0EPNSt7__cxx1118basic_stringstreamIcSt11char_traitsIcESaIcEEELb0EE7_M_headERKS7_ = comdat any

$_ZN7testing7MessagelsIKcEERS0_RKPT_ = comdat any

$_ZN7testing7MessagelsIA3_cEERS0_RKT_ = comdat any

$_ZN7testing7MessagelsINSt7__cxx1112basic_stringIcSt11char_traitsIcESaIcEEEEERS0_RKT_ = comdat any

$_ZN7testing8internal19FormatForComparisonImiE6FormatB5cxx11ERKm = comdat any

$_ZN7testing7MessagelsIA5_cEERS0_RKT_ = comdat any

$_ZN7testing8internal19FormatForComparisonIimE6FormatB5cxx11ERKi = comdat any

$_ZN7testing13PrintToStringIiEENSt7__cxx1112basic_stringIcSt11char_traitsIcESaIcEEERKT_ = comdat any

$_ZN7testing8internal21UniversalTersePrinterIiE5PrintERKiPSo = comdat any

$_ZN7testing8internal14UniversalPrintIiEEvRKT_PSo = comdat any

$_ZN7testing8internal16UniversalPrinterIiE5PrintERKiPSo = comdat any

$_ZN7testing8internal7PrintToIiEEvRKT_PSo = comdat any

$_ZN7testing8internal17PrintWithFallbackIiEEvRKT_PSo = comdat any

$_ZN7testing8internal52internal_stream_operator_without_lexical_name_lookup13StreamPrinter10PrintValueIivEEDTcvvlsdefp0_fp_ERKT_PSo = comdat any

$_ZN7testing8internal18CmpHelperOpFailureIlmEENS_15AssertionResultEPKcS4_RKT_RKT0_S4_ = comdat any

$_ZN7testing8internal33FormatForComparisonFailureMessageIlmEENSt7__cxx1112basic_stringIcSt11char_traitsIcESaIcEEERKT_RKT0_ = comdat any

$_ZN7testing8internal33FormatForComparisonFailureMessageImlEENSt7__cxx1112basic_stringIcSt11char_traitsIcESaIcEEERKT_RKT0_ = comdat any

$_ZN7testing8internal19FormatForComparisonIlmE6FormatB5cxx11ERKl = comdat any

$_ZN7testing13PrintToStringIlEENSt7__cxx1112basic_stringIcSt11char_traitsIcESaIcEEERKT_ = comdat any

$_ZN7testing8internal21UniversalTersePrinterIlE5PrintERKlPSo = comdat any

$_ZN7testing8internal14UniversalPrintIlEEvRKT_PSo = comdat any

$_ZN7testing8internal16UniversalPrinterIlE5PrintERKlPSo = comdat any

$_ZN7testing8internal7PrintToIlEEvRKT_PSo = comdat any

$_ZN7testing8internal17PrintWithFallbackIlEEvRKT_PSo = comdat any

$_ZN7testing8internal52internal_stream_operator_without_lexical_name_lookup13StreamPrinter10PrintValueIlvEEDTcvvlsdefp0_fp_ERKT_PSo = comdat any

$_ZN7testing8internal19FormatForComparisonImlE6FormatB5cxx11ERKm = comdat any

$_ZNSt7__cxx1112basic_stringIcSt11char_traitsIcESaIcEE12_M_constructIPKcEEvT_S8_St20forward_iterator_tag = comdat any

$_ZNSt7__cxx1112basic_stringIcSt11char_traitsIcESaIcEE12_Alloc_hiderD2Ev = comdat any

$_ZSt8distanceIPKcENSt15iterator_traitsIT_E15difference_typeES3_S3_ = comdat any

$_ZZNSt7__cxx1112basic_stringIcSt11char_traitsIcESaIcEE12_M_constructIPKcEEvT_S8_St20forward_iterator_tagEN6_GuardC2EPS4_ = comdat any

$_ZZNSt7__cxx1112basic_stringIcSt11char_traitsIcESaIcEE12_M_constructIPKcEEvT_S8_St20forward_iterator_tagEN6_GuardD2Ev = comdat any

$_ZSt10__distanceIPKcENSt15iterator_traitsIT_E15difference_typeES3_S3_St26random_access_iterator_tag = comdat any

$_ZSt19__iterator_categoryIPKcENSt15iterator_traitsIT_E17iterator_categoryERKS3_ = comdat any

$_ZStplIcSt11char_traitsIcESaIcEENSt7__cxx1112basic_stringIT_T0_T1_EEOS8_RKS8_ = comdat any

$_ZStplIcSt11char_traitsIcESaIcEENSt7__cxx1112basic_stringIT_T0_T1_EEOS8_PKS5_ = comdat any

$_ZNKSt6vectorINSt7__cxx1112basic_stringIcSt11char_traitsIcESaIcEEESaIS5_EEixEm = comdat any

$_ZN7testing8internal19StripTrailingSpacesENSt7__cxx1112basic_stringIcSt11char_traitsIcESaIcEEE = comdat any

$_ZN7testing8internal19GetPrefixUntilCommaB5cxx11EPKc = comdat any

$_ZN7testing8internal11GetTypeNameIhEENSt7__cxx1112basic_stringIcSt11char_traitsIcESaIcEEEv = comdat any

$_ZN7testing8internal12CodeLocationC2ERKS1_ = comdat any

$_ZN9__gnu_cxxneIPcNSt7__cxx1112basic_stringIcSt11char_traitsIcESaIcEEEEEbRKNS_17__normal_iteratorIT_T0_EESD_ = comdat any

$_ZN7testing8internal7IsSpaceEc = comdat any

$_ZN9__gnu_cxx17__normal_iteratorIPcNSt7__cxx1112basic_stringIcSt11char_traitsIcESaIcEEEEmmEv = comdat any

$_ZNK9__gnu_cxx17__normal_iteratorIPcNSt7__cxx1112basic_stringIcSt11char_traitsIcESaIcEEEEdeEv = comdat any

$_ZN9__gnu_cxx17__normal_iteratorIPKcNSt7__cxx1112basic_stringIcSt11char_traitsIcESaIcEEEEC2IPcvEERKNS0_IT_S8_EE = comdat any

$_ZNK9__gnu_cxx17__normal_iteratorIPcNSt7__cxx1112basic_stringIcSt11char_traitsIcESaIcEEEE4baseEv = comdat any

$_ZNSt7__cxx1112basic_stringIcSt11char_traitsIcESaIcEEC2IPKcvEET_S8_RKS3_ = comdat any

$_ZN7testing8internal11GetTypeNameB5cxx11ERKSt9type_info = comdat any

$_ZNKSt9type_info4nameEv = comdat any

$_ZN7testing8internal31CanonicalizeForStdLibVersioningENSt7__cxx1112basic_stringIcSt11char_traitsIcESaIcEEE = comdat any

$_ZN7testing8internal19GetNotDefaultOrNullEPFvvES2_ = comdat any

$_ZN7testing4Test13SetUpTestCaseEv = comdat any

$_ZN7testing4Test14SetUpTestSuiteEv = comdat any

$_ZN7testing8internal8GTestLog9GetStreamEv = comdat any

$_ZN7testing4Test16TearDownTestCaseEv = comdat any

$_ZN7testing4Test17TearDownTestSuiteEv = comdat any

$_ZN4absl15random_internal13randen_engineIhEC2Ev = comdat any

$_ZNSt8seed_seqC2IivEESt16initializer_listIT_E = comdat any

$_ZN4absl15random_internal13randen_engineIhE4seedIRSt8seed_seqEENSt9enable_ifIXntsr3std14is_convertibleIT_hEE5valueEvE4typeEOS7_ = comdat any

$_ZNSt8seed_seqD2Ev = comdat any

$_ZSt8generateIPhSt17reference_wrapperIN4absl15random_internal13randen_engineIhEEEEvT_S7_T0_ = comdat any

$_ZSt5beginIhLm577EEPT_RAT0__S0_ = comdat any

$_ZSt3endIhLm577EEPT_RAT0__S0_ = comdat any

$_ZSt3refIN4absl15random_internal13randen_engineIhEEESt17reference_wrapperIT_ERS5_ = comdat any

$_ZNSt13random_deviceC2Ev = comdat any

$_ZNSt13random_deviceclEv = comdat any

$_ZNSt8seed_seqC2IjvEESt16initializer_listIT_E = comdat any

$_ZNSt13random_deviceD2Ev = comdat any

$_ZNSt6bitsetILm8EEC2Ey = comdat any

$_ZNKSt6bitsetILm8EE5countEv = comdat any

$_ZNKSt6bitsetILm8EE4sizeEv = comdat any

$_ZN7testing8internal11CmpHelperLEImdEENS_15AssertionResultEPKcS4_RKT_RKT0_ = comdat any

$_ZN7testing8internal11CmpHelperGEImdEENS_15AssertionResultEPKcS4_RKT_RKT0_ = comdat any

$_ZSt4sqrtImEN9__gnu_cxx11__enable_ifIXsr12__is_integerIT_EE7__valueEdE6__typeES2_ = comdat any

$_ZN7testing7MessagelsIA2_cEERS0_RKT_ = comdat any

$_ZN7testing7MessagelsIdEERS0_RKT_ = comdat any

$_ZN4absl15random_internal13randen_engineIhE4seedEh = comdat any

$_ZN4absl15random_internal13randen_engineIhE5stateEv = comdat any

$_ZSt4fillIPhiEvT_S1_RKT0_ = comdat any

$_ZSt4fillIPhhEvT_S1_RKT0_ = comdat any

$_ZSt8__fill_aIPhiEvT_S1_RKT0_ = comdat any

$_ZSt9__fill_a1IPhiEN9__gnu_cxx11__enable_ifIXsr11__is_scalarIT0_EE7__valueEvE6__typeET_S6_RKS3_ = comdat any

$_ZSt8__fill_aIPhhEvT_S1_RKT0_ = comdat any

$_ZSt9__fill_a1IhEN9__gnu_cxx11__enable_ifIXsr9__is_byteIT_EE7__valueEvE6__typeEPS2_S5_RKS2_ = comdat any

$_ZNSt6vectorIjSaIjEE7reserveEm = comdat any

$_ZNSt8__detail5__modIjTnT_Lj0ETnS1_Lj1ETnS1_Lj0EEES1_S1_ = comdat any

$_ZNKSt6vectorIjSaIjEE8capacityEv = comdat any

$_ZNSt8__detail4_ModIjLj0ELj1ELj0ELb1ELb0EE6__calcEj = comdat any

$_ZN4absl15random_internal13randen_engineIhE6reseedISt8seed_seqEEvRT_ = comdat any

$_ZNKSt8seed_seq4sizeEv = comdat any

$_ZNSt8seed_seq8generateIPjEEvT_S2_ = comdat any

$_ZNKSt17reference_wrapperIN4absl15random_internal13randen_engineIhEEEclIJEEENSt15__invoke_resultIRS3_JDpT_EE4typeEDpOS8_ = comdat any

$_ZSt8__invokeIRN4absl15random_internal13randen_engineIhEEJEENSt15__invoke_resultIT_JDpT0_EE4typeEOS6_DpOS7_ = comdat any

$_ZNKSt17reference_wrapperIN4absl15random_internal13randen_engineIhEEE3getEv = comdat any

$_ZSt13__invoke_implIhRN4absl15random_internal13randen_engineIhEEJEET_St14__invoke_otherOT0_DpOT1_ = comdat any

$_ZN4absl15random_internal13randen_engineIhEclEv = comdat any

$_ZN4absl13little_endian6ToHostEh = comdat any

$_ZNSt17reference_wrapperIN4absl15random_internal13randen_engineIhEEEC2IRS3_vPS3_EEOT_ = comdat any

$_ZNSt17reference_wrapperIN4absl15random_internal13randen_engineIhEEE6_S_funERS3_ = comdat any

$_ZNKSt16initializer_listIjE4sizeEv = comdat any

$_ZNKSt16initializer_listIjE5beginEv = comdat any

$_ZNKSt16initializer_listIjE3endEv = comdat any

$_ZNSt13_Sanitize_valILm8ELb1EE18_S_do_sanitize_valEy = comdat any

$_ZNSt12_Base_bitsetILm1EEC2Ey = comdat any

$_ZNKSt12_Base_bitsetILm1EE11_M_do_countEv = comdat any

$_ZN7testing8internal18CmpHelperOpFailureImdEENS_15AssertionResultEPKcS4_RKT_RKT0_S4_ = comdat any

$_ZN7testing8internal33FormatForComparisonFailureMessageImdEENSt7__cxx1112basic_stringIcSt11char_traitsIcESaIcEEERKT_RKT0_ = comdat any

$_ZN7testing8internal33FormatForComparisonFailureMessageIdmEENSt7__cxx1112basic_stringIcSt11char_traitsIcESaIcEEERKT_RKT0_ = comdat any

$_ZN7testing8internal19FormatForComparisonImdE6FormatB5cxx11ERKm = comdat any

$_ZN7testing8internal19FormatForComparisonIdmE6FormatB5cxx11ERKd = comdat any

$_ZN7testing13PrintToStringIdEENSt7__cxx1112basic_stringIcSt11char_traitsIcESaIcEEERKT_ = comdat any

$_ZN7testing8internal21UniversalTersePrinterIdE5PrintERKdPSo = comdat any

$_ZN7testing8internal14UniversalPrintIdEEvRKT_PSo = comdat any

$_ZN7testing8internal16UniversalPrinterIdE5PrintERKdPSo = comdat any

$_ZN7testing8internal7PrintToEdPSo = comdat any

$_ZNKSt8ios_base9precisionEv = comdat any

$_ZNSt8ios_base9precisionEl = comdat any

$_ZN7testing8internal21AppropriateResolutionIdEEiT_ = comdat any

$_ZN7testing8internal11GetTypeNameItEENSt7__cxx1112basic_stringIcSt11char_traitsIcESaIcEEEv = comdat any

$_ZN4absl15random_internal13randen_engineItEC2Ev = comdat any

$_ZN4absl15random_internal13randen_engineItE4seedIRSt8seed_seqEENSt9enable_ifIXntsr3std14is_convertibleIT_tEE5valueEvE4typeEOS7_ = comdat any

$_ZSt8generateIPtSt17reference_wrapperIN4absl15random_internal13randen_engineItEEEEvT_S7_T0_ = comdat any

$_ZSt5beginItLm289EEPT_RAT0__S0_ = comdat any

$_ZSt3endItLm289EEPT_RAT0__S0_ = comdat any

$_ZSt3refIN4absl15random_internal13randen_engineItEEESt17reference_wrapperIT_ERS5_ = comdat any

$_ZNSt6bitsetILm16EEC2Ey = comdat any

$_ZNKSt6bitsetILm16EE5countEv = comdat any

$_ZNKSt6bitsetILm16EE4sizeEv = comdat any

$_ZN4absl15random_internal13randen_engineItE4seedEt = comdat any

$_ZN4absl15random_internal13randen_engineItE5stateEv = comdat any

$_ZSt4fillIPtiEvT_S1_RKT0_ = comdat any

$_ZSt4fillIPttEvT_S1_RKT0_ = comdat any

$_ZSt8__fill_aIPtiEvT_S1_RKT0_ = comdat any

$_ZSt9__fill_a1IPtiEN9__gnu_cxx11__enable_ifIXsr11__is_scalarIT0_EE7__valueEvE6__typeET_S6_RKS3_ = comdat any

$_ZSt8__fill_aIPttEvT_S1_RKT0_ = comdat any

$_ZSt9__fill_a1IPttEN9__gnu_cxx11__enable_ifIXsr11__is_scalarIT0_EE7__valueEvE6__typeET_S6_RKS3_ = comdat any

$_ZN4absl15random_internal13randen_engineItE6reseedISt8seed_seqEEvRT_ = comdat any

$_ZNKSt17reference_wrapperIN4absl15random_internal13randen_engineItEEEclIJEEENSt15__invoke_resultIRS3_JDpT_EE4typeEDpOS8_ = comdat any

$_ZSt8__invokeIRN4absl15random_internal13randen_engineItEEJEENSt15__invoke_resultIT_JDpT0_EE4typeEOS6_DpOS7_ = comdat any

$_ZNKSt17reference_wrapperIN4absl15random_internal13randen_engineItEEE3getEv = comdat any

$_ZSt13__invoke_implItRN4absl15random_internal13randen_engineItEEJEET_St14__invoke_otherOT0_DpOT1_ = comdat any

$_ZN4absl15random_internal13randen_engineItEclEv = comdat any

$_ZN4absl13little_endian6ToHostEt = comdat any

$_ZN4absl13little_endian8ToHost16Et = comdat any

$_ZNSt17reference_wrapperIN4absl15random_internal13randen_engineItEEEC2IRS3_vPS3_EEOT_ = comdat any

$_ZNSt17reference_wrapperIN4absl15random_internal13randen_engineItEEE6_S_funERS3_ = comdat any

$_ZNSt13_Sanitize_valILm16ELb1EE18_S_do_sanitize_valEy = comdat any

$_ZN7testing8internal11GetTypeNameIjEENSt7__cxx1112basic_stringIcSt11char_traitsIcESaIcEEEv = comdat any

$_ZN4absl15random_internal13randen_engineIjE4seedIRSt8seed_seqEENSt9enable_ifIXntsr3std14is_convertibleIT_jEE5valueEvE4typeEOS7_ = comdat any

$_ZSt8generateIPjSt17reference_wrapperIN4absl15random_internal13randen_engineIjEEEEvT_S7_T0_ = comdat any

$_ZSt5beginIjLm145EEPT_RAT0__S0_ = comdat any

$_ZSt3endIjLm145EEPT_RAT0__S0_ = comdat any

$_ZSt3refIN4absl15random_internal13randen_engineIjEEESt17reference_wrapperIT_ERS5_ = comdat any

$_ZNSt6bitsetILm32EEC2Ey = comdat any

$_ZNKSt6bitsetILm32EE5countEv = comdat any

$_ZNKSt6bitsetILm32EE4sizeEv = comdat any

$_ZN4absl15random_internal13randen_engineIjE6reseedISt8seed_seqEEvRT_ = comdat any

$_ZNKSt17reference_wrapperIN4absl15random_internal13randen_engineIjEEEclIJEEENSt15__invoke_resultIRS3_JDpT_EE4typeEDpOS8_ = comdat any

$_ZSt8__invokeIRN4absl15random_internal13randen_engineIjEEJEENSt15__invoke_resultIT_JDpT0_EE4typeEOS6_DpOS7_ = comdat any

$_ZNKSt17reference_wrapperIN4absl15random_internal13randen_engineIjEEE3getEv = comdat any

$_ZSt13__invoke_implIjRN4absl15random_internal13randen_engineIjEEJEET_St14__invoke_otherOT0_DpOT1_ = comdat any

$_ZNSt17reference_wrapperIN4absl15random_internal13randen_engineIjEEEC2IRS3_vPS3_EEOT_ = comdat any

$_ZNSt17reference_wrapperIN4absl15random_internal13randen_engineIjEEE6_S_funERS3_ = comdat any

$_ZNSt13_Sanitize_valILm32ELb1EE18_S_do_sanitize_valEy = comdat any

$_ZN7testing8internal11GetTypeNameImEENSt7__cxx1112basic_stringIcSt11char_traitsIcESaIcEEEv = comdat any

$_ZN4absl15random_internal13randen_engineImE4seedIRSt8seed_seqEENSt9enable_ifIXntsr3std14is_convertibleIT_mEE5valueEvE4typeEOS7_ = comdat any

$_ZSt8generateIPmSt17reference_wrapperIN4absl15random_internal13randen_engineImEEEEvT_S7_T0_ = comdat any

$_ZSt5beginImLm73EEPT_RAT0__S0_ = comdat any

$_ZSt3endImLm73EEPT_RAT0__S0_ = comdat any

$_ZSt3refIN4absl15random_internal13randen_engineImEEESt17reference_wrapperIT_ERS5_ = comdat any

$_ZNSt6bitsetILm64EEC2Ey = comdat any

$_ZNKSt6bitsetILm64EE5countEv = comdat any

$_ZNKSt6bitsetILm64EE4sizeEv = comdat any

$_ZN4absl15random_internal13randen_engineImE6reseedISt8seed_seqEEvRT_ = comdat any

$_ZNKSt17reference_wrapperIN4absl15random_internal13randen_engineImEEEclIJEEENSt15__invoke_resultIRS3_JDpT_EE4typeEDpOS8_ = comdat any

$_ZSt8__invokeIRN4absl15random_internal13randen_engineImEEJEENSt15__invoke_resultIT_JDpT0_EE4typeEOS6_DpOS7_ = comdat any

$_ZNKSt17reference_wrapperIN4absl15random_internal13randen_engineImEEE3getEv = comdat any

$_ZSt13__invoke_implImRN4absl15random_internal13randen_engineImEEJEET_St14__invoke_otherOT0_DpOT1_ = comdat any

$_ZNSt17reference_wrapperIN4absl15random_internal13randen_engineImEEEC2IRS3_vPS3_EEOT_ = comdat any

$_ZNSt17reference_wrapperIN4absl15random_internal13randen_engineImEEE6_S_funERS3_ = comdat any

$_ZNSt13_Sanitize_valILm64ELb0EE18_S_do_sanitize_valEy = comdat any

$_ZNSt6vectorINSt7__cxx1112basic_stringIcSt11char_traitsIcESaIcEEESaIS5_EEC2Ev = comdat any

$_ZN7testing8internal24GenerateNamesRecursivelyINS0_20DefaultNameGeneratorENS0_5TypesIhJtjmEEEEEvT0_PSt6vectorINSt7__cxx1112basic_stringIcSt11char_traitsIcESaIcEEESaISC_EEi = comdat any

$_ZNSt12_Vector_baseINSt7__cxx1112basic_stringIcSt11char_traitsIcESaIcEEESaIS5_EEC2Ev = comdat any

$_ZNSt12_Vector_baseINSt7__cxx1112basic_stringIcSt11char_traitsIcESaIcEEESaIS5_EE12_Vector_implC2Ev = comdat any

$_ZNSaINSt7__cxx1112basic_stringIcSt11char_traitsIcESaIcEEEEC2Ev = comdat any

$_ZNSt12_Vector_baseINSt7__cxx1112basic_stringIcSt11char_traitsIcESaIcEEESaIS5_EE17_Vector_impl_dataC2Ev = comdat any

$_ZNSt15__new_allocatorINSt7__cxx1112basic_stringIcSt11char_traitsIcESaIcEEEEC2Ev = comdat any

$_ZNSt6vectorINSt7__cxx1112basic_stringIcSt11char_traitsIcESaIcEEESaIS5_EE9push_backEOS5_ = comdat any

$_ZN7testing8internal20DefaultNameGenerator7GetNameIhEENSt7__cxx1112basic_stringIcSt11char_traitsIcESaIcEEEi = comdat any

$_ZN7testing8internal24GenerateNamesRecursivelyINS0_20DefaultNameGeneratorENS0_5TypesItJjmEEEEEvT0_PSt6vectorINSt7__cxx1112basic_stringIcSt11char_traitsIcESaIcEEESaISC_EEi = comdat any

$_ZNSt6vectorINSt7__cxx1112basic_stringIcSt11char_traitsIcESaIcEEESaIS5_EE12emplace_backIJS5_EEERS5_DpOT_ = comdat any

$_ZNSt16allocator_traitsISaINSt7__cxx1112basic_stringIcSt11char_traitsIcESaIcEEEEE9constructIS5_JS5_EEEvRS6_PT_DpOT0_ = comdat any

$_ZNSt6vectorINSt7__cxx1112basic_stringIcSt11char_traitsIcESaIcEEESaIS5_EE17_M_realloc_insertIJS5_EEEvN9__gnu_cxx17__normal_iteratorIPS5_S7_EEDpOT_ = comdat any

$_ZNSt6vectorINSt7__cxx1112basic_stringIcSt11char_traitsIcESaIcEEESaIS5_EE3endEv = comdat any

$_ZNSt6vectorINSt7__cxx1112basic_stringIcSt11char_traitsIcESaIcEEESaIS5_EE4backEv = comdat any

$_ZNSt15__new_allocatorINSt7__cxx1112basic_stringIcSt11char_traitsIcESaIcEEEE9constructIS5_JS5_EEEvPT_DpOT0_ = comdat any

$_ZNKSt6vectorINSt7__cxx1112basic_stringIcSt11char_traitsIcESaIcEEESaIS5_EE12_M_check_lenEmPKc = comdat any

$_ZN9__gnu_cxxmiIPNSt7__cxx1112basic_stringIcSt11char_traitsIcESaIcEEESt6vectorIS6_SaIS6_EEEENS_17__normal_iteratorIT_T0_E15difference_typeERKSE_SH_ = comdat any

$_ZNSt6vectorINSt7__cxx1112basic_stringIcSt11char_traitsIcESaIcEEESaIS5_EE5beginEv = comdat any

$_ZNSt12_Vector_baseINSt7__cxx1112basic_stringIcSt11char_traitsIcESaIcEEESaIS5_EE11_M_allocateEm = comdat any

$_ZNSt6vectorINSt7__cxx1112basic_stringIcSt11char_traitsIcESaIcEEESaIS5_EE11_S_relocateEPS5_S8_S8_RS6_ = comdat any

$_ZNK9__gnu_cxx17__normal_iteratorIPNSt7__cxx1112basic_stringIcSt11char_traitsIcESaIcEEESt6vectorIS6_SaIS6_EEE4baseEv = comdat any

$_ZNSt12_Vector_baseINSt7__cxx1112basic_stringIcSt11char_traitsIcESaIcEEESaIS5_EE19_M_get_Tp_allocatorEv = comdat any

$_ZNSt12_Vector_baseINSt7__cxx1112basic_stringIcSt11char_traitsIcESaIcEEESaIS5_EE13_M_deallocateEPS5_m = comdat any

$_ZNKSt6vectorINSt7__cxx1112basic_stringIcSt11char_traitsIcESaIcEEESaIS5_EE8max_sizeEv = comdat any

$_ZNKSt6vectorINSt7__cxx1112basic_stringIcSt11char_traitsIcESaIcEEESaIS5_EE4sizeEv = comdat any

$_ZNSt6vectorINSt7__cxx1112basic_stringIcSt11char_traitsIcESaIcEEESaIS5_EE11_S_max_sizeERKS6_ = comdat any

$_ZNKSt12_Vector_baseINSt7__cxx1112basic_stringIcSt11char_traitsIcESaIcEEESaIS5_EE19_M_get_Tp_allocatorEv = comdat any

$_ZNSt16allocator_traitsISaINSt7__cxx1112basic_stringIcSt11char_traitsIcESaIcEEEEE8max_sizeERKS6_ = comdat any

$_ZNKSt15__new_allocatorINSt7__cxx1112basic_stringIcSt11char_traitsIcESaIcEEEE8max_sizeEv = comdat any

$_ZNKSt15__new_allocatorINSt7__cxx1112basic_stringIcSt11char_traitsIcESaIcEEEE11_M_max_sizeEv = comdat any

$_ZN9__gnu_cxx17__normal_iteratorIPNSt7__cxx1112basic_stringIcSt11char_traitsIcESaIcEEESt6vectorIS6_SaIS6_EEEC2ERKS7_ = comdat any

$_ZNSt16allocator_traitsISaINSt7__cxx1112basic_stringIcSt11char_traitsIcESaIcEEEEE8allocateERS6_m = comdat any

$_ZNSt15__new_allocatorINSt7__cxx1112basic_stringIcSt11char_traitsIcESaIcEEEE8allocateEmPKv = comdat any

$_ZSt12__relocate_aIPNSt7__cxx1112basic_stringIcSt11char_traitsIcESaIcEEES6_SaIS5_EET0_T_S9_S8_RT1_ = comdat any

$_ZSt14__relocate_a_1IPNSt7__cxx1112basic_stringIcSt11char_traitsIcESaIcEEES6_SaIS5_EET0_T_S9_S8_RT1_ = comdat any

$_ZSt12__niter_baseIPNSt7__cxx1112basic_stringIcSt11char_traitsIcESaIcEEEET_S7_ = comdat any

$_ZSt19__relocate_object_aINSt7__cxx1112basic_stringIcSt11char_traitsIcESaIcEEES5_SaIS5_EEvPT_PT0_RT1_ = comdat any

$_ZNSt16allocator_traitsISaINSt7__cxx1112basic_stringIcSt11char_traitsIcESaIcEEEEE7destroyIS5_EEvRS6_PT_ = comdat any

$_ZNSt15__new_allocatorINSt7__cxx1112basic_stringIcSt11char_traitsIcESaIcEEEE7destroyIS5_EEvPT_ = comdat any

$_ZNSt16allocator_traitsISaINSt7__cxx1112basic_stringIcSt11char_traitsIcESaIcEEEEE10deallocateERS6_PS5_m = comdat any

$_ZNSt15__new_allocatorINSt7__cxx1112basic_stringIcSt11char_traitsIcESaIcEEEE10deallocateEPS5_m = comdat any

$_ZNK9__gnu_cxx17__normal_iteratorIPNSt7__cxx1112basic_stringIcSt11char_traitsIcESaIcEEESt6vectorIS6_SaIS6_EEEmiEl = comdat any

$_ZNK9__gnu_cxx17__normal_iteratorIPNSt7__cxx1112basic_stringIcSt11char_traitsIcESaIcEEESt6vectorIS6_SaIS6_EEEdeEv = comdat any

$_ZN7testing8internal18StreamableToStringIiEENSt7__cxx1112basic_stringIcSt11char_traitsIcESaIcEEERKT_ = comdat any

$_ZN7testing7MessagelsIiEERS0_RKT_ = comdat any

$_ZN7testing8internal20DefaultNameGenerator7GetNameItEENSt7__cxx1112basic_stringIcSt11char_traitsIcESaIcEEEi = comdat any

$_ZN7testing8internal24GenerateNamesRecursivelyINS0_20DefaultNameGeneratorENS0_5TypesIjJmEEEEEvT0_PSt6vectorINSt7__cxx1112basic_stringIcSt11char_traitsIcESaIcEEESaISC_EEi = comdat any

$_ZN7testing8internal20DefaultNameGenerator7GetNameIjEENSt7__cxx1112basic_stringIcSt11char_traitsIcESaIcEEEi = comdat any

$_ZN7testing8internal24GenerateNamesRecursivelyINS0_20DefaultNameGeneratorENS0_5TypesImJEEEEEvT0_PSt6vectorINSt7__cxx1112basic_stringIcSt11char_traitsIcESaIcEEESaISC_EEi = comdat any

$_ZN7testing8internal20DefaultNameGenerator7GetNameImEENSt7__cxx1112basic_stringIcSt11char_traitsIcESaIcEEEi = comdat any

$_ZN7testing8internal24GenerateNamesRecursivelyINS0_20DefaultNameGeneratorEEEvNS0_4NoneEPSt6vectorINSt7__cxx1112basic_stringIcSt11char_traitsIcESaIcEEESaISA_EEi = comdat any

$_ZSt8_DestroyIPNSt7__cxx1112basic_stringIcSt11char_traitsIcESaIcEEES5_EvT_S7_RSaIT0_E = comdat any

$_ZNSt12_Vector_baseINSt7__cxx1112basic_stringIcSt11char_traitsIcESaIcEEESaIS5_EED2Ev = comdat any

$_ZSt8_DestroyIPNSt7__cxx1112basic_stringIcSt11char_traitsIcESaIcEEEEvT_S7_ = comdat any

$_ZNSt12_Destroy_auxILb0EE9__destroyIPNSt7__cxx1112basic_stringIcSt11char_traitsIcESaIcEEEEEvT_S9_ = comdat any

$_ZSt8_DestroyINSt7__cxx1112basic_stringIcSt11char_traitsIcESaIcEEEEvPT_ = comdat any

$_ZNSt12_Vector_baseINSt7__cxx1112basic_stringIcSt11char_traitsIcESaIcEEESaIS5_EE12_Vector_implD2Ev = comdat any

$_ZNSaINSt7__cxx1112basic_stringIcSt11char_traitsIcESaIcEEEED2Ev = comdat any

$_ZNSt15__new_allocatorINSt7__cxx1112basic_stringIcSt11char_traitsIcESaIcEEEED2Ev = comdat any

$_ZN4absl15random_internal13randen_engineIhEC2ERKS2_ = comdat any

$_ZN4absl15random_internal13randen_engineIhE7discardEm = comdat any

$_ZN7testing8internal8EqHelper7CompareIhhTnPNSt9enable_ifIXoontsr3std11is_integralIT_EE5valuentsr3std10is_pointerIT0_EE5valueEvE4typeELPv0EEENS_15AssertionResultEPKcSC_RKS4_RKS5_ = comdat any

$_ZN7testing7MessagelsIA6_cEERS0_RKT_ = comdat any

$_ZN7testing7MessagelsImEERS0_RKT_ = comdat any

$_ZN7testing7MessagelsIA10_cEERS0_RKT_ = comdat any

$_ZNK4absl15random_internal13randen_engineIhE5stateEv = comdat any

$_ZN7testing8internal11CmpHelperEQIhhEENS_15AssertionResultEPKcS4_RKT_RKT0_ = comdat any

$_ZN7testing8internal18CmpHelperEQFailureIhhEENS_15AssertionResultEPKcS4_RKT_RKT0_ = comdat any

$_ZN7testing8internal33FormatForComparisonFailureMessageIhhEENSt7__cxx1112basic_stringIcSt11char_traitsIcESaIcEEERKT_RKT0_ = comdat any

$_ZN7testing8internal19FormatForComparisonIhhE6FormatB5cxx11ERKh = comdat any

$_ZN7testing13PrintToStringIhEENSt7__cxx1112basic_stringIcSt11char_traitsIcESaIcEEERKT_ = comdat any

$_ZN7testing8internal21UniversalTersePrinterIhE5PrintERKhPSo = comdat any

$_ZN7testing8internal14UniversalPrintIhEEvRKT_PSo = comdat any

$_ZN7testing8internal16UniversalPrinterIhE5PrintERKhPSo = comdat any

$_ZN4absl15random_internal13randen_engineItEC2ERKS2_ = comdat any

$_ZN4absl15random_internal13randen_engineItE7discardEm = comdat any

$_ZN7testing8internal8EqHelper7CompareIttTnPNSt9enable_ifIXoontsr3std11is_integralIT_EE5valuentsr3std10is_pointerIT0_EE5valueEvE4typeELPv0EEENS_15AssertionResultEPKcSC_RKS4_RKS5_ = comdat any

$_ZNK4absl15random_internal13randen_engineItE5stateEv = comdat any

$_ZN7testing8internal11CmpHelperEQIttEENS_15AssertionResultEPKcS4_RKT_RKT0_ = comdat any

$_ZN7testing8internal18CmpHelperEQFailureIttEENS_15AssertionResultEPKcS4_RKT_RKT0_ = comdat any

$_ZN7testing8internal33FormatForComparisonFailureMessageIttEENSt7__cxx1112basic_stringIcSt11char_traitsIcESaIcEEERKT_RKT0_ = comdat any

$_ZN7testing8internal19FormatForComparisonIttE6FormatB5cxx11ERKt = comdat any

$_ZN7testing13PrintToStringItEENSt7__cxx1112basic_stringIcSt11char_traitsIcESaIcEEERKT_ = comdat any

$_ZN7testing8internal21UniversalTersePrinterItE5PrintERKtPSo = comdat any

$_ZN7testing8internal14UniversalPrintItEEvRKT_PSo = comdat any

$_ZN7testing8internal16UniversalPrinterItE5PrintERKtPSo = comdat any

$_ZN7testing8internal7PrintToItEEvRKT_PSo = comdat any

$_ZN7testing8internal17PrintWithFallbackItEEvRKT_PSo = comdat any

$_ZN7testing8internal52internal_stream_operator_without_lexical_name_lookup13StreamPrinter10PrintValueItvEEDTcvvlsdefp0_fp_ERKT_PSo = comdat any

$_ZN4absl15random_internal13randen_engineIjEC2ERKS2_ = comdat any

$_ZN4absl15random_internal13randen_engineIjE7discardEm = comdat any

$_ZN7testing8internal8EqHelper7CompareIjjTnPNSt9enable_ifIXoontsr3std11is_integralIT_EE5valuentsr3std10is_pointerIT0_EE5valueEvE4typeELPv0EEENS_15AssertionResultEPKcSC_RKS4_RKS5_ = comdat any

$_ZNK4absl15random_internal13randen_engineIjE5stateEv = comdat any

$_ZN7testing8internal11CmpHelperEQIjjEENS_15AssertionResultEPKcS4_RKT_RKT0_ = comdat any

$_ZN7testing8internal18CmpHelperEQFailureIjjEENS_15AssertionResultEPKcS4_RKT_RKT0_ = comdat any

$_ZN7testing8internal33FormatForComparisonFailureMessageIjjEENSt7__cxx1112basic_stringIcSt11char_traitsIcESaIcEEERKT_RKT0_ = comdat any

$_ZN7testing8internal19FormatForComparisonIjjE6FormatB5cxx11ERKj = comdat any

$_ZN4absl15random_internal13randen_engineImEC2ERKS2_ = comdat any

$_ZN4absl15random_internal13randen_engineImE7discardEm = comdat any

$_ZNK4absl15random_internal13randen_engineImE5stateEv = comdat any

$_ZN7testing8internal8EqHelper7CompareIPSt13basic_ostreamIwSt11char_traitsIwEEPNSt7__cxx1119basic_ostringstreamIwS5_SaIwEEETnPNSt9enable_ifIXoontsr3std11is_integralIT_EE5valuentsr3std10is_pointerIT0_EE5valueEvE4typeELPv0EEENS_15AssertionResultEPKcSM_RKSE_RKSF_ = comdat any

$_ZN4absl15random_internallsIwSt11char_traitsIwEEERSt13basic_ostreamIT_T0_ES8_RKNS0_13randen_engineIhEE = comdat any

$_ZN7testing8internal8EqHelper7CompareIPSt13basic_istreamIwSt11char_traitsIwEEPNSt7__cxx1119basic_istringstreamIwS5_SaIwEEETnPNSt9enable_ifIXoontsr3std11is_integralIT_EE5valuentsr3std10is_pointerIT0_EE5valueEvE4typeELPv0EEENS_15AssertionResultEPKcSM_RKSE_RKSF_ = comdat any

$_ZN4absl15random_internalrsIwSt11char_traitsIwEEERSt13basic_istreamIT_T0_ES8_RNS0_13randen_engineIhEE = comdat any

$_ZN7testing8internal11CmpHelperEQIPSt13basic_ostreamIwSt11char_traitsIwEEPNSt7__cxx1119basic_ostringstreamIwS4_SaIwEEEEENS_15AssertionResultEPKcSE_RKT_RKT0_ = comdat any

$_ZN7testing8internal18CmpHelperEQFailureIPSt13basic_ostreamIwSt11char_traitsIwEEPNSt7__cxx1119basic_ostringstreamIwS4_SaIwEEEEENS_15AssertionResultEPKcSE_RKT_RKT0_ = comdat any

$_ZN7testing8internal33FormatForComparisonFailureMessageIPSt13basic_ostreamIwSt11char_traitsIwEEPNSt7__cxx1119basic_ostringstreamIwS4_SaIwEEEEENS7_12basic_stringIcS3_IcESaIcEEERKT_RKT0_ = comdat any

$_ZN7testing8internal33FormatForComparisonFailureMessageIPNSt7__cxx1119basic_ostringstreamIwSt11char_traitsIwESaIwEEEPSt13basic_ostreamIwS5_EEENS2_12basic_stringIcS4_IcESaIcEEERKT_RKT0_ = comdat any

$_ZN7testing8internal19FormatForComparisonIPSt13basic_ostreamIwSt11char_traitsIwEEPNSt7__cxx1119basic_ostringstreamIwS4_SaIwEEEE6FormatERKS6_ = comdat any

$_ZN7testing13PrintToStringIPSt13basic_ostreamIwSt11char_traitsIwEEEENSt7__cxx1112basic_stringIcS2_IcESaIcEEERKT_ = comdat any

$_ZN7testing8internal21UniversalTersePrinterIPSt13basic_ostreamIwSt11char_traitsIwEEE5PrintERKS6_PSo = comdat any

$_ZN7testing8internal14UniversalPrintIPSt13basic_ostreamIwSt11char_traitsIwEEEEvRKT_PSo = comdat any

$_ZN7testing8internal16UniversalPrinterIPSt13basic_ostreamIwSt11char_traitsIwEEE5PrintERKS6_PSo = comdat any

$_ZN7testing8internal7PrintToIPSt13basic_ostreamIwSt11char_traitsIwEEEEvRKT_PSo = comdat any

$_ZN7testing8internal17PrintWithFallbackIPSt13basic_ostreamIwSt11char_traitsIwEEEEvRKT_PSo = comdat any

$_ZN7testing8internal14PointerPrinter10PrintValueISt13basic_ostreamIwSt11char_traitsIwEEEEvPT_PSo = comdat any

$_ZN7testing8internal19FormatForComparisonIPNSt7__cxx1119basic_ostringstreamIwSt11char_traitsIwESaIwEEEPSt13basic_ostreamIwS5_EE6FormatERKS8_ = comdat any

$_ZN7testing13PrintToStringIPNSt7__cxx1119basic_ostringstreamIwSt11char_traitsIwESaIwEEEEENS1_12basic_stringIcS3_IcESaIcEEERKT_ = comdat any

$_ZN7testing8internal21UniversalTersePrinterIPNSt7__cxx1119basic_ostringstreamIwSt11char_traitsIwESaIwEEEE5PrintERKS8_PSo = comdat any

$_ZN7testing8internal14UniversalPrintIPNSt7__cxx1119basic_ostringstreamIwSt11char_traitsIwESaIwEEEEEvRKT_PSo = comdat any

$_ZN7testing8internal16UniversalPrinterIPNSt7__cxx1119basic_ostringstreamIwSt11char_traitsIwESaIwEEEE5PrintERKS8_PSo = comdat any

$_ZN7testing8internal7PrintToIPNSt7__cxx1119basic_ostringstreamIwSt11char_traitsIwESaIwEEEEEvRKT_PSo = comdat any

$_ZN7testing8internal17PrintWithFallbackIPNSt7__cxx1119basic_ostringstreamIwSt11char_traitsIwESaIwEEEEEvRKT_PSo = comdat any

$_ZN7testing8internal14PointerPrinter10PrintValueINSt7__cxx1119basic_ostringstreamIwSt11char_traitsIwESaIwEEEEEvPT_PSo = comdat any

$_ZN4absl15random_internal24make_ostream_state_saverIwSt11char_traitsIwEEENS0_19ostream_state_saverISt13basic_ostreamIT_T0_EEERS8_St13_Ios_Fmtflags = comdat any

$_ZStorSt13_Ios_FmtflagsS_ = comdat any

$_ZN4absl13little_endian8FromHostEh = comdat any

$_ZN4absl15random_internal19ostream_state_saverISt13basic_ostreamIwSt11char_traitsIwEEED2Ev = comdat any

$_ZN4absl15random_internal19ostream_state_saverISt13basic_ostreamIwSt11char_traitsIwEEEC2ERS5_St13_Ios_Fmtflagsw = comdat any

$_ZNSt8ios_base5flagsESt13_Ios_Fmtflags = comdat any

$_ZN7testing8internal11CmpHelperEQIPSt13basic_istreamIwSt11char_traitsIwEEPNSt7__cxx1119basic_istringstreamIwS4_SaIwEEEEENS_15AssertionResultEPKcSE_RKT_RKT0_ = comdat any

$_ZN7testing8internal18CmpHelperEQFailureIPSt13basic_istreamIwSt11char_traitsIwEEPNSt7__cxx1119basic_istringstreamIwS4_SaIwEEEEENS_15AssertionResultEPKcSE_RKT_RKT0_ = comdat any

$_ZN7testing8internal33FormatForComparisonFailureMessageIPSt13basic_istreamIwSt11char_traitsIwEEPNSt7__cxx1119basic_istringstreamIwS4_SaIwEEEEENS7_12basic_stringIcS3_IcESaIcEEERKT_RKT0_ = comdat any

$_ZN7testing8internal33FormatForComparisonFailureMessageIPNSt7__cxx1119basic_istringstreamIwSt11char_traitsIwESaIwEEEPSt13basic_istreamIwS5_EEENS2_12basic_stringIcS4_IcESaIcEEERKT_RKT0_ = comdat any

$_ZN7testing8internal19FormatForComparisonIPSt13basic_istreamIwSt11char_traitsIwEEPNSt7__cxx1119basic_istringstreamIwS4_SaIwEEEE6FormatERKS6_ = comdat any

$_ZN7testing13PrintToStringIPSt13basic_istreamIwSt11char_traitsIwEEEENSt7__cxx1112basic_stringIcS2_IcESaIcEEERKT_ = comdat any

$_ZN7testing8internal21UniversalTersePrinterIPSt13basic_istreamIwSt11char_traitsIwEEE5PrintERKS6_PSo = comdat any

$_ZN7testing8internal14UniversalPrintIPSt13basic_istreamIwSt11char_traitsIwEEEEvRKT_PSo = comdat any

$_ZN7testing8internal16UniversalPrinterIPSt13basic_istreamIwSt11char_traitsIwEEE5PrintERKS6_PSo = comdat any

$_ZN7testing8internal7PrintToIPSt13basic_istreamIwSt11char_traitsIwEEEEvRKT_PSo = comdat any

$_ZN7testing8internal17PrintWithFallbackIPSt13basic_istreamIwSt11char_traitsIwEEEEvRKT_PSo = comdat any

$_ZN7testing8internal14PointerPrinter10PrintValueISt13basic_istreamIwSt11char_traitsIwEEEEvPT_PSo = comdat any

$_ZN7testing8internal19FormatForComparisonIPNSt7__cxx1119basic_istringstreamIwSt11char_traitsIwESaIwEEEPSt13basic_istreamIwS5_EE6FormatERKS8_ = comdat any

$_ZN7testing13PrintToStringIPNSt7__cxx1119basic_istringstreamIwSt11char_traitsIwESaIwEEEEENS1_12basic_stringIcS3_IcESaIcEEERKT_ = comdat any

$_ZN7testing8internal21UniversalTersePrinterIPNSt7__cxx1119basic_istringstreamIwSt11char_traitsIwESaIwEEEE5PrintERKS8_PSo = comdat any

$_ZN7testing8internal14UniversalPrintIPNSt7__cxx1119basic_istringstreamIwSt11char_traitsIwESaIwEEEEEvRKT_PSo = comdat any

$_ZN7testing8internal16UniversalPrinterIPNSt7__cxx1119basic_istringstreamIwSt11char_traitsIwESaIwEEEE5PrintERKS8_PSo = comdat any

$_ZN7testing8internal7PrintToIPNSt7__cxx1119basic_istringstreamIwSt11char_traitsIwESaIwEEEEEvRKT_PSo = comdat any

$_ZN7testing8internal17PrintWithFallbackIPNSt7__cxx1119basic_istringstreamIwSt11char_traitsIwESaIwEEEEEvRKT_PSo = comdat any

$_ZN7testing8internal14PointerPrinter10PrintValueINSt7__cxx1119basic_istringstreamIwSt11char_traitsIwESaIwEEEEEvPT_PSo = comdat any

$_ZN4absl15random_internallsIwSt11char_traitsIwEEERSt13basic_ostreamIT_T0_ES8_RKNS0_13randen_engineItEE = comdat any

$_ZN4absl15random_internalrsIwSt11char_traitsIwEEERSt13basic_istreamIT_T0_ES8_RNS0_13randen_engineItEE = comdat any

$_ZN4absl13little_endian8FromHostEt = comdat any

$_ZN4absl13little_endian10FromHost16Et = comdat any

$_ZN4absl15random_internallsIwSt11char_traitsIwEEERSt13basic_ostreamIT_T0_ES8_RKNS0_13randen_engineIjEE = comdat any

$_ZN4absl15random_internalrsIwSt11char_traitsIwEEERSt13basic_istreamIT_T0_ES8_RNS0_13randen_engineIjEE = comdat any

$_ZN4absl13little_endian8FromHostEj = comdat any

$_ZN4absl13little_endian10FromHost32Ej = comdat any

$_ZN4absl15random_internallsIwSt11char_traitsIwEEERSt13basic_ostreamIT_T0_ES8_RKNS0_13randen_engineImEE = comdat any

$_ZN4absl15random_internalrsIwSt11char_traitsIwEEERSt13basic_istreamIT_T0_ES8_RNS0_13randen_engineImEE = comdat any

$_ZN4absl13little_endian8FromHostEm = comdat any

$_ZN4absl13little_endian10FromHost64Em = comdat any

$_ZN4absl15random_internal13randen_engineIhEC2IRNS0_15ExplicitSeedSeqEvEEOT_ = comdat any

$_ZN4absl15random_internallsIcSt11char_traitsIcEEERSt13basic_ostreamIT_T0_ES8_RKNS0_13randen_engineIhEE = comdat any

$_ZN4absl15random_internalrsIcSt11char_traitsIcEEERSt13basic_istreamIT_T0_ES8_RNS0_13randen_engineIhEE = comdat any

$_ZN4absl15random_internal13randen_engineIhE4seedIRNS0_15ExplicitSeedSeqEEENSt9enable_ifIXntsr3std14is_convertibleIT_hEE5valueEvE4typeEOS7_ = comdat any

$_ZN4absl15random_internal13randen_engineIhE6reseedINS0_15ExplicitSeedSeqEEEvRT_ = comdat any

$_ZN4absl15random_internal24make_ostream_state_saverIcSt11char_traitsIcEEENS0_19ostream_state_saverISt13basic_ostreamIT_T0_EEERS8_St13_Ios_Fmtflags = comdat any

$_ZN4absl15random_internal19ostream_state_saverISoED2Ev = comdat any

$_ZN4absl15random_internal19ostream_state_saverISoEC2ERSoSt13_Ios_Fmtflagsc = comdat any

$_ZN4absl15random_internal13randen_engineItEC2IRNS0_15ExplicitSeedSeqEvEEOT_ = comdat any

$_ZN4absl15random_internallsIcSt11char_traitsIcEEERSt13basic_ostreamIT_T0_ES8_RKNS0_13randen_engineItEE = comdat any

$_ZN4absl15random_internalrsIcSt11char_traitsIcEEERSt13basic_istreamIT_T0_ES8_RNS0_13randen_engineItEE = comdat any

$_ZN4absl15random_internal13randen_engineItE4seedIRNS0_15ExplicitSeedSeqEEENSt9enable_ifIXntsr3std14is_convertibleIT_tEE5valueEvE4typeEOS7_ = comdat any

$_ZN4absl15random_internal13randen_engineItE6reseedINS0_15ExplicitSeedSeqEEEvRT_ = comdat any

$_ZN4absl15random_internallsIcSt11char_traitsIcEEERSt13basic_ostreamIT_T0_ES8_RKNS0_13randen_engineIjEE = comdat any

$_ZN4absl15random_internalrsIcSt11char_traitsIcEEERSt13basic_istreamIT_T0_ES8_RNS0_13randen_engineIjEE = comdat any

$_ZN4absl15random_internallsIcSt11char_traitsIcEEERSt13basic_ostreamIT_T0_ES8_RKNS0_13randen_engineImEE = comdat any

$_ZN4absl15random_internal13randen_engineIhEC2Eh = comdat any

$_ZN4absl15random_internal13randen_engineIhEC2IRSt8seed_seqvEEOT_ = comdat any

$_ZNK4absl15random_internal13randen_engineIhEeqERKS2_ = comdat any

$_ZN7testing15AssertionResultC2IbEERKT_PNSt9enable_ifIXntsr3std14is_convertibleIS2_S0_EE5valueEvE4typeE = comdat any

$_ZNK4absl15random_internal13randen_engineIhEneERKS2_ = comdat any

$_ZSt5equalIPKhS1_EbT_S2_T0_ = comdat any

$_ZSt11__equal_auxIPKhS1_EbT_S2_T0_ = comdat any

$_ZSt12__equal_aux1IPKhS1_EbT_S2_T0_ = comdat any

$_ZSt12__niter_baseIPKhET_S2_ = comdat any

$_ZNSt7__equalILb1EE5equalIhEEbPKT_S4_S4_ = comdat any

$_ZSt8__memcmpIhhEiPKT_PKT0_m = comdat any

$_ZNSt10unique_ptrINSt7__cxx1112basic_stringIcSt11char_traitsIcESaIcEEESt14default_deleteIS5_EEC2IS7_vEEv = comdat any

$_ZNSt15__uniq_ptr_dataINSt7__cxx1112basic_stringIcSt11char_traitsIcESaIcEEESt14default_deleteIS5_ELb1ELb1EEC2Ev = comdat any

$_ZNSt15__uniq_ptr_implINSt7__cxx1112basic_stringIcSt11char_traitsIcESaIcEEESt14default_deleteIS5_EEC2Ev = comdat any

$_ZN4absl15random_internal13randen_engineItEC2Et = comdat any

$_ZN4absl15random_internal13randen_engineItEC2IRSt8seed_seqvEEOT_ = comdat any

$_ZNK4absl15random_internal13randen_engineItEeqERKS2_ = comdat any

$_ZNK4absl15random_internal13randen_engineItEneERKS2_ = comdat any

$_ZSt5equalIPKtS1_EbT_S2_T0_ = comdat any

$_ZSt11__equal_auxIPKtS1_EbT_S2_T0_ = comdat any

$_ZSt12__equal_aux1IPKtS1_EbT_S2_T0_ = comdat any

$_ZSt12__niter_baseIPKtET_S2_ = comdat any

$_ZNSt7__equalILb1EE5equalItEEbPKT_S4_S4_ = comdat any

$_ZSt8__memcmpIttEiPKT_PKT0_m = comdat any

$_ZN4absl15random_internal13randen_engineIjEC2Ej = comdat any

$_ZN4absl15random_internal13randen_engineIjEC2IRSt8seed_seqvEEOT_ = comdat any

$_ZNK4absl15random_internal13randen_engineIjEeqERKS2_ = comdat any

$_ZNK4absl15random_internal13randen_engineIjEneERKS2_ = comdat any

$_ZSt5equalIPKjS1_EbT_S2_T0_ = comdat any

$_ZSt11__equal_auxIPKjS1_EbT_S2_T0_ = comdat any

$_ZSt12__equal_aux1IPKjS1_EbT_S2_T0_ = comdat any

$_ZSt12__niter_baseIPKjET_S2_ = comdat any

$_ZNSt7__equalILb1EE5equalIjEEbPKT_S4_S4_ = comdat any

$_ZSt8__memcmpIjjEiPKT_PKT0_m = comdat any

$_ZN4absl15random_internal13randen_engineImEC2Em = comdat any

$_ZN4absl15random_internal13randen_engineImEC2IRSt8seed_seqvEEOT_ = comdat any

$_ZNK4absl15random_internal13randen_engineImEeqERKS2_ = comdat any

$_ZNK4absl15random_internal13randen_engineImEneERKS2_ = comdat any

$_ZSt5equalIPKmS1_EbT_S2_T0_ = comdat any

$_ZSt11__equal_auxIPKmS1_EbT_S2_T0_ = comdat any

$_ZSt12__equal_aux1IPKmS1_EbT_S2_T0_ = comdat any

$_ZSt12__niter_baseIPKmET_S2_ = comdat any

$_ZNSt7__equalILb1EE5equalImEEbPKT_S4_S4_ = comdat any

$_ZSt8__memcmpImmEiPKT_PKT0_m = comdat any

$_ZN4absl15random_internal13randen_engineIhEC2IivEEOT_ = comdat any

$_ZN4absl15random_internal13randen_engineIhEC2IRivEEOT_ = comdat any

$_ZNSt8seed_seqC2Ev = comdat any

$_ZN4absl15random_internal13randen_engineIhEC2ISt8seed_seqvEEOT_ = comdat any

$_ZN4absl15random_internal13randen_engineIhE4seedISt8seed_seqEENSt9enable_ifIXntsr3std14is_convertibleIT_hEE5valueEvE4typeEOS6_ = comdat any

$_ZN4absl15random_internal13randen_engineItEC2IivEEOT_ = comdat any

$_ZN4absl15random_internal13randen_engineItEC2IRivEEOT_ = comdat any

$_ZN4absl15random_internal13randen_engineItEC2ISt8seed_seqvEEOT_ = comdat any

$_ZN4absl15random_internal13randen_engineItE4seedISt8seed_seqEENSt9enable_ifIXntsr3std14is_convertibleIT_tEE5valueEvE4typeEOS6_ = comdat any

$_ZN4absl15random_internal13randen_engineIjEC2IivEEOT_ = comdat any

$_ZN4absl15random_internal13randen_engineIjEC2IRivEEOT_ = comdat any

$_ZN4absl15random_internal13randen_engineIjEC2ISt8seed_seqvEEOT_ = comdat any

$_ZN4absl15random_internal13randen_engineIjE4seedISt8seed_seqEENSt9enable_ifIXntsr3std14is_convertibleIT_jEE5valueEvE4typeEOS6_ = comdat any

$_ZN4absl15random_internal13randen_engineImEC2IivEEOT_ = comdat any

$_ZN4absl15random_internal13randen_engineImEC2IRivEEOT_ = comdat any

$_ZN4absl15random_internal13randen_engineImEC2ISt8seed_seqvEEOT_ = comdat any

$_ZN4absl15random_internal13randen_engineImE4seedISt8seed_seqEENSt9enable_ifIXntsr3std14is_convertibleIT_mEE5valueEvE4typeEOS6_ = comdat any

$_ZTSN7testing8internal15TestFactoryBaseE = comdat any

$_ZTIN7testing8internal15TestFactoryBaseE = comdat any

$_ZTVN7testing8internal15TestFactoryBaseE = comdat any

$_ZZN7testing8internal31CanonicalizeForStdLibVersioningENSt7__cxx1112basic_stringIcSt11char_traitsIcESaIcEEEE6prefix = comdat any

$_ZZN7testing8internal31CanonicalizeForStdLibVersioningENSt7__cxx1112basic_stringIcSt11char_traitsIcESaIcEEEE9to_search = comdat any

$_ZZN7testing8internal31CanonicalizeForStdLibVersioningENSt7__cxx1112basic_stringIcSt11char_traitsIcESaIcEEEE11replace_str = comdat any

@_ZStL8__ioinit = internal global %"class.std::ios_base::Init" zeroinitializer, align 1
@__dso_handle = external hidden global i8
@_ZN12_GLOBAL__N_168gtest_RandenEngineTypedTest_VerifyReseedChangesAllValues_registered_E = internal global i8 0, align 1
@.str = private unnamed_addr constant [1 x i8] zeroinitializer, align 1
@.str.2 = private unnamed_addr constant [142 x i8] c"generated/home/dtcxzyw/WorkSpace/Projects/compilers/llvm-opt-benchmark/bench/abseil-cpp/abseil-cpp/absl/random/internal/randen_engine_test.cc\00", align 1
@.str.3 = private unnamed_addr constant [22 x i8] c"RandenEngineTypedTest\00", align 1
@.str.4 = private unnamed_addr constant [29 x i8] c"VerifyReseedChangesAllValues\00", align 1
@_ZN12_GLOBAL__N_153gtest_RandenEngineTypedTest_VerifyDiscard_registered_E = internal global i8 0, align 1
@.str.6 = private unnamed_addr constant [14 x i8] c"VerifyDiscard\00", align 1
@_ZN12_GLOBAL__N_161gtest_RandenEngineTypedTest_StreamOperatorsResult_registered_E = internal global i8 0, align 1
@.str.8 = private unnamed_addr constant [22 x i8] c"StreamOperatorsResult\00", align 1
@_ZN12_GLOBAL__N_159gtest_RandenEngineTypedTest_StreamSerialization_registered_E = internal global i8 0, align 1
@.str.10 = private unnamed_addr constant [20 x i8] c"StreamSerialization\00", align 1
@_ZN12_GLOBAL__N_167gtest_RandenEngineTypedTest_RandomNumberEngineInterface_registered_E = internal global i8 0, align 1
@.str.12 = private unnamed_addr constant [28 x i8] c"RandomNumberEngineInterface\00", align 1
@_ZN12_GLOBAL__N_162gtest_RandenEngineTypedTest_RandenEngineSFINAETest_registered_E = internal global i8 0, align 1
@.str.14 = private unnamed_addr constant [23 x i8] c"RandenEngineSFINAETest\00", align 1
@_ZN12_GLOBAL__N_143RandenTest_VerifyGoldenRanden64Default_Test10test_info_E = internal global ptr null, align 8
@.str.16 = private unnamed_addr constant [11 x i8] c"RandenTest\00", align 1
@.str.17 = private unnamed_addr constant [28 x i8] c"VerifyGoldenRanden64Default\00", align 1
@_ZN12_GLOBAL__N_142RandenTest_VerifyGoldenRanden64Seeded_Test10test_info_E = internal global ptr null, align 8
@.str.19 = private unnamed_addr constant [27 x i8] c"VerifyGoldenRanden64Seeded\00", align 1
@_ZN12_GLOBAL__N_143RandenTest_VerifyGoldenRanden32Default_Test10test_info_E = internal global ptr null, align 8
@.str.21 = private unnamed_addr constant [28 x i8] c"VerifyGoldenRanden32Default\00", align 1
@_ZN12_GLOBAL__N_142RandenTest_VerifyGoldenRanden32Seeded_Test10test_info_E = internal global ptr null, align 8
@.str.23 = private unnamed_addr constant [27 x i8] c"VerifyGoldenRanden32Seeded\00", align 1
@_ZN12_GLOBAL__N_150RandenTest_VerifyGoldenFromDeserializedEngine_Test10test_info_E = internal global ptr null, align 8
@.str.25 = private unnamed_addr constant [35 x i8] c"VerifyGoldenFromDeserializedEngine\00", align 1
@_ZN12_GLOBAL__N_128RandenTest_IsFastOrSlow_Test10test_info_E = internal global ptr null, align 8
@.str.27 = private unnamed_addr constant [13 x i8] c"IsFastOrSlow\00", align 1
@_ZTVN7testing8internal15TestFactoryImplIN12_GLOBAL__N_143RandenTest_VerifyGoldenRanden64Default_TestEEE = internal unnamed_addr constant { [5 x ptr] } { [5 x ptr] [ptr null, ptr @_ZTIN7testing8internal15TestFactoryImplIN12_GLOBAL__N_143RandenTest_VerifyGoldenRanden64Default_TestEEE, ptr @_ZN7testing8internal15TestFactoryImplIN12_GLOBAL__N_143RandenTest_VerifyGoldenRanden64Default_TestEED2Ev, ptr @_ZN7testing8internal15TestFactoryImplIN12_GLOBAL__N_143RandenTest_VerifyGoldenRanden64Default_TestEED0Ev, ptr @_ZN7testing8internal15TestFactoryImplIN12_GLOBAL__N_143RandenTest_VerifyGoldenRanden64Default_TestEE10CreateTestEv] }, align 8
@_ZTVN10__cxxabiv120__si_class_type_infoE = external global [0 x ptr]
@_ZTSN7testing8internal15TestFactoryImplIN12_GLOBAL__N_143RandenTest_VerifyGoldenRanden64Default_TestEEE = internal constant [100 x i8] c"N7testing8internal15TestFactoryImplIN12_GLOBAL__N_143RandenTest_VerifyGoldenRanden64Default_TestEEE\00", align 1
@_ZTVN10__cxxabiv117__class_type_infoE = external global [0 x ptr]
@_ZTSN7testing8internal15TestFactoryBaseE = linkonce_odr dso_local constant [37 x i8] c"N7testing8internal15TestFactoryBaseE\00", comdat, align 1
@_ZTIN7testing8internal15TestFactoryBaseE = linkonce_odr dso_local constant { ptr, ptr } { ptr getelementptr inbounds (ptr, ptr @_ZTVN10__cxxabiv117__class_type_infoE, i64 2), ptr @_ZTSN7testing8internal15TestFactoryBaseE }, comdat, align 8
@_ZTIN7testing8internal15TestFactoryImplIN12_GLOBAL__N_143RandenTest_VerifyGoldenRanden64Default_TestEEE = internal constant { ptr, ptr, ptr } { ptr getelementptr inbounds (ptr, ptr @_ZTVN10__cxxabiv120__si_class_type_infoE, i64 2), ptr @_ZTSN7testing8internal15TestFactoryImplIN12_GLOBAL__N_143RandenTest_VerifyGoldenRanden64Default_TestEEE, ptr @_ZTIN7testing8internal15TestFactoryBaseE }, align 8
@_ZTVN7testing8internal15TestFactoryBaseE = linkonce_odr dso_local unnamed_addr constant { [5 x ptr] } { [5 x ptr] [ptr null, ptr @_ZTIN7testing8internal15TestFactoryBaseE, ptr @_ZN7testing8internal15TestFactoryBaseD2Ev, ptr @_ZN7testing8internal15TestFactoryBaseD0Ev, ptr @__cxa_pure_virtual] }, comdat, align 8
@_ZTVN12_GLOBAL__N_143RandenTest_VerifyGoldenRanden64Default_TestE = internal unnamed_addr constant { [8 x ptr] } { [8 x ptr] [ptr null, ptr @_ZTIN12_GLOBAL__N_143RandenTest_VerifyGoldenRanden64Default_TestE, ptr @_ZN12_GLOBAL__N_143RandenTest_VerifyGoldenRanden64Default_TestD2Ev, ptr @_ZN12_GLOBAL__N_143RandenTest_VerifyGoldenRanden64Default_TestD0Ev, ptr @_ZN7testing4Test5SetUpEv, ptr @_ZN7testing4Test8TearDownEv, ptr @_ZN12_GLOBAL__N_143RandenTest_VerifyGoldenRanden64Default_Test8TestBodyEv, ptr @_ZN7testing4Test5SetupEv] }, align 8
@_ZTSN12_GLOBAL__N_143RandenTest_VerifyGoldenRanden64Default_TestE = internal constant [62 x i8] c"N12_GLOBAL__N_143RandenTest_VerifyGoldenRanden64Default_TestE\00", align 1
@_ZTIN7testing4TestE = external constant ptr
@_ZTIN12_GLOBAL__N_143RandenTest_VerifyGoldenRanden64Default_TestE = internal constant { ptr, ptr, ptr } { ptr getelementptr inbounds (ptr, ptr @_ZTVN10__cxxabiv120__si_class_type_infoE, i64 2), ptr @_ZTSN12_GLOBAL__N_143RandenTest_VerifyGoldenRanden64Default_TestE, ptr @_ZTIN7testing4TestE }, align 8
@__const._ZN12_GLOBAL__N_143RandenTest_VerifyGoldenRanden64Default_Test8TestBodyEv.kGolden = private unnamed_addr constant [127 x i64] [i64 -4341101621472446089, i64 -2474177703209332498, i64 -8612022644585739760, i64 -1101269792942773998, i64 1575048016481900959, i64 3525302263121472857, i64 -5575610955636727642, i64 180295930019947852, i64 4291907328661841166, i64 -7151891725326623094, i64 -3931451045987206213, i64 -2831919932513444139, i64 -814263135484036041, i64 -3603568584928814567, i64 -4349062256332239715, i64 -3049211974903687850, i64 5249820265831187617, i64 8080462745485180556, i64 6400555531774553410, i64 -1360380921554421696, i64 -8147237528482927117, i64 5295296323171472636, i64 5630685930613545611, i64 -2843082764674079254, i64 -4156359000479209169, i64 8718102655548998389, i64 5061121589868713435, i64 3832251765023485923, i64 175626593270618750, i64 -9142605751905294255, i64 8033965880365087321, i64 -6888814759220782852, i64 337949693411038663, i64 -7971595342714132584, i64 2774264145999393230, i64 5071956039248517250, i64 -5044612448488929480, i64 6163380849626475601, i64 -6768881365621466794, i64 6949500239703242237, i64 9083763785380464484, i64 -2169081095233206519, i64 587001548511797359, i64 -3760690047743675663, i64 -1683574061970106127, i64 649721876909582578, i64 -1113564368086315695, i64 641941006154835610, i64 7296572513035206645, i64 3357158348032928582, i64 -2724737306982104175, i64 8710990891495157755, i64 -2587698842727745370, i64 -4570266209373292513, i64 -5062131072332939291, i64 -5083849564137508964, i64 -4565910171025894700, i64 6135234764899173211, i64 -9050587919633242288, i64 -50960527628994363, i64 -1086388671759067265, i64 7414145402268111241, i64 -4022504875618323856, i64 3757379217913124579, i64 -4896374787685819171, i64 -4498597306076701505, i64 1298042458792724793, i64 9191957953065609908, i64 8252645210453531347, i64 -6356555147206623568, i64 -3420260080057187487, i64 8943015828735663333, i64 -2095983647145203810, i64 8671220245348271277, i64 8309627292234788781, i64 3071081286673929919, i64 7804482614798787109, i64 1415965943890937824, i64 7261735929999530353, i64 3482254642552179089, i64 97123838261015223, i64 9080914545341833436, i64 8403855015065937471, i64 8323078964813480402, i64 2810206930398493387, i64 7768130487261799775, i64 -6851396831426268730, i64 1665760224343393796, i64 9125878437010488922, i64 6709431198335769834, i64 -7674352791962107937, i64 -5016054578138980305, i64 6948502331429507822, i64 -8562043178020833374, i64 -1799273970596858818, i64 5670744579590049627, i64 6500432963439298897, i64 7989974935828331896, i64 -688072853116214307, i64 4917477268118337226, i64 8722797786175299563, i64 -2911946242460292787, i64 233863220143606275, i64 -8393794944886384035, i64 4424545504681388729, i64 -7460278606059419018, i64 -2986616557029339213, i64 4820317455958993289, i64 2763897742818409959, i64 4385371217995975563, i64 2964112371963823993, i64 5967872242207653768, i64 6738349787383912117, i64 3014050544742129190, i64 2922186213954360480, i64 7783739718610043318, i64 834416890635984178, i64 -8090357944846488419, i64 -8555808747799173860, i64 -207198030996567584, i64 -1555214835408167974, i64 -9202839656268313034, i64 -82732182578705103, i64 4842698566188622127, i64 -2609761082748181994, i64 679218472831797339, i64 3130761624382068688], align 16
@.str.28 = private unnamed_addr constant [5 x i8] c"elem\00", align 1
@.str.29 = private unnamed_addr constant [9 x i8] c"engine()\00", align 1
@_ZTVN7testing8internal15TestFactoryImplIN12_GLOBAL__N_142RandenTest_VerifyGoldenRanden64Seeded_TestEEE = internal unnamed_addr constant { [5 x ptr] } { [5 x ptr] [ptr null, ptr @_ZTIN7testing8internal15TestFactoryImplIN12_GLOBAL__N_142RandenTest_VerifyGoldenRanden64Seeded_TestEEE, ptr @_ZN7testing8internal15TestFactoryImplIN12_GLOBAL__N_142RandenTest_VerifyGoldenRanden64Seeded_TestEED2Ev, ptr @_ZN7testing8internal15TestFactoryImplIN12_GLOBAL__N_142RandenTest_VerifyGoldenRanden64Seeded_TestEED0Ev, ptr @_ZN7testing8internal15TestFactoryImplIN12_GLOBAL__N_142RandenTest_VerifyGoldenRanden64Seeded_TestEE10CreateTestEv] }, align 8
@_ZTSN7testing8internal15TestFactoryImplIN12_GLOBAL__N_142RandenTest_VerifyGoldenRanden64Seeded_TestEEE = internal constant [99 x i8] c"N7testing8internal15TestFactoryImplIN12_GLOBAL__N_142RandenTest_VerifyGoldenRanden64Seeded_TestEEE\00", align 1
@_ZTIN7testing8internal15TestFactoryImplIN12_GLOBAL__N_142RandenTest_VerifyGoldenRanden64Seeded_TestEEE = internal constant { ptr, ptr, ptr } { ptr getelementptr inbounds (ptr, ptr @_ZTVN10__cxxabiv120__si_class_type_infoE, i64 2), ptr @_ZTSN7testing8internal15TestFactoryImplIN12_GLOBAL__N_142RandenTest_VerifyGoldenRanden64Seeded_TestEEE, ptr @_ZTIN7testing8internal15TestFactoryBaseE }, align 8
@_ZTVN12_GLOBAL__N_142RandenTest_VerifyGoldenRanden64Seeded_TestE = internal unnamed_addr constant { [8 x ptr] } { [8 x ptr] [ptr null, ptr @_ZTIN12_GLOBAL__N_142RandenTest_VerifyGoldenRanden64Seeded_TestE, ptr @_ZN12_GLOBAL__N_142RandenTest_VerifyGoldenRanden64Seeded_TestD2Ev, ptr @_ZN12_GLOBAL__N_142RandenTest_VerifyGoldenRanden64Seeded_TestD0Ev, ptr @_ZN7testing4Test5SetUpEv, ptr @_ZN7testing4Test8TearDownEv, ptr @_ZN12_GLOBAL__N_142RandenTest_VerifyGoldenRanden64Seeded_Test8TestBodyEv, ptr @_ZN7testing4Test5SetupEv] }, align 8
@_ZTSN12_GLOBAL__N_142RandenTest_VerifyGoldenRanden64Seeded_TestE = internal constant [61 x i8] c"N12_GLOBAL__N_142RandenTest_VerifyGoldenRanden64Seeded_TestE\00", align 1
@_ZTIN12_GLOBAL__N_142RandenTest_VerifyGoldenRanden64Seeded_TestE = internal constant { ptr, ptr, ptr } { ptr getelementptr inbounds (ptr, ptr @_ZTVN10__cxxabiv120__si_class_type_infoE, i64 2), ptr @_ZTSN12_GLOBAL__N_142RandenTest_VerifyGoldenRanden64Seeded_TestE, ptr @_ZTIN7testing4TestE }, align 8
@__const._ZN12_GLOBAL__N_142RandenTest_VerifyGoldenRanden64Seeded_Test8TestBodyEv.kGolden = private unnamed_addr constant [127 x i64] [i64 -8959377578836894507, i64 8123332591311473147, i64 304072274782306740, i64 3818425276614531376, i64 -3535801602032829161, i64 -5358603607879799127, i64 -8402459843986385088, i64 -2838743325079200652, i64 257001072545775583, i64 -3202231922001802881, i64 1074373447819165252, i64 -7424846725075460782, i64 -5475263151994598130, i64 2594199388677400632, i64 -3195425825154336159, i64 -6130010560995307648, i64 -4113252392158449810, i64 -5217844749564715187, i64 -7346903265305832839, i64 330159181266691047, i64 6453039689728516334, i64 75092349257274017, i64 7207950117908392002, i64 6509639309059920800, i64 -3997046263178948862, i64 -7053093309516630208, i64 1355634284677366262, i64 -4351421534638206793, i64 -5714888732207206815, i64 1532024599678779498, i64 2298623605085216134, i64 -5131555455052201556, i64 2566302631062264980, i64 -3166675416624410308, i64 4232297418495495600, i64 -7229009306487911071, i64 851738404440722364, i64 -8139326697853202878, i64 -427928959458875501, i64 5838929184353095936, i64 3191818970441305109, i64 -4751036705358134817, i64 -510405816183222985, i64 5461991915308572985, i64 -6465160568957968986, i64 -5100470117739623755, i64 8619798984204796335, i64 7335025576203074471, i64 -2932273230085192849, i64 -3432978387889609281, i64 3146109889489115175, i64 -2876339254796738354, i64 -1439235835361262047, i64 5410961318078145965, i64 -1062018301763293274, i64 12239728580998496, i64 -828901999479769864, i64 -7492604029819683816, i64 -5849094027788123699, i64 6219966192533321937, i64 4501972489948144582, i64 7464337832880065261, i64 941036287469045263, i64 1127587064497411364, i64 3102121984431664860, i64 1215850438305947606, i64 4183847595029007193, i64 6895205446454929423, i64 -7028157832377707696, i64 582658849751804293, i64 3515490576577319448, i64 1489065966391398184, i64 -2214281673725999180, i64 3628433940035334389, i64 8172655233899380022, i64 4421656645553951823, i64 7785764367662126994, i64 -4874285292557486798, i64 3067135866960113852, i64 -8240907865601205107, i64 -3475809952518925622, i64 -4746254482264087665, i64 -8338658123349924355, i64 6287976495896690004, i64 3824526581403764590, i64 3158688093441820767, i64 7576741105661310154, i64 -1351402956253084227, i64 -2380560971151115666, i64 -2005775396601863499, i64 5643422498493678341, i64 -4622839762351222930, i64 8549418317565662662, i64 138983620452761932, i64 -6563564328610743477, i64 53308363084078557, i64 -5167564020808884805, i64 -5510537571960461312, i64 36460314673747481, i64 3734492013417896504, i64 -9124932324282549511, i64 4770146448857824538, i64 -5345783735930189772, i64 6341500539090007651, i64 -6280935108842619239, i64 8240892523711168817, i64 -6719885130197075259, i64 8893085429877308792, i64 -5282380590372260298, i64 7354125792104695530, i64 837962976929049758, i64 -1842572220651250879, i64 4258198031733779430, i64 5592799141482576179, i64 4712975831791857290, i64 -1043780752558057292, i64 5586889191350791921, i64 8175659616641260395, i64 -315741537158711331, i64 -4378327243804680691, i64 -3198818897714972382, i64 -4263377246672924370, i64 2582151871741446886, i64 5928409885689210390, i64 4095880637383923597, i64 -7191084011118212098, i64 8574344859759729109], align 16
@.str.30 = private unnamed_addr constant [26 x i8] c"vector::_M_realloc_insert\00", align 1
@_ZTVN7testing8internal15TestFactoryImplIN12_GLOBAL__N_143RandenTest_VerifyGoldenRanden32Default_TestEEE = internal unnamed_addr constant { [5 x ptr] } { [5 x ptr] [ptr null, ptr @_ZTIN7testing8internal15TestFactoryImplIN12_GLOBAL__N_143RandenTest_VerifyGoldenRanden32Default_TestEEE, ptr @_ZN7testing8internal15TestFactoryImplIN12_GLOBAL__N_143RandenTest_VerifyGoldenRanden32Default_TestEED2Ev, ptr @_ZN7testing8internal15TestFactoryImplIN12_GLOBAL__N_143RandenTest_VerifyGoldenRanden32Default_TestEED0Ev, ptr @_ZN7testing8internal15TestFactoryImplIN12_GLOBAL__N_143RandenTest_VerifyGoldenRanden32Default_TestEE10CreateTestEv] }, align 8
@_ZTSN7testing8internal15TestFactoryImplIN12_GLOBAL__N_143RandenTest_VerifyGoldenRanden32Default_TestEEE = internal constant [100 x i8] c"N7testing8internal15TestFactoryImplIN12_GLOBAL__N_143RandenTest_VerifyGoldenRanden32Default_TestEEE\00", align 1
@_ZTIN7testing8internal15TestFactoryImplIN12_GLOBAL__N_143RandenTest_VerifyGoldenRanden32Default_TestEEE = internal constant { ptr, ptr, ptr } { ptr getelementptr inbounds (ptr, ptr @_ZTVN10__cxxabiv120__si_class_type_infoE, i64 2), ptr @_ZTSN7testing8internal15TestFactoryImplIN12_GLOBAL__N_143RandenTest_VerifyGoldenRanden32Default_TestEEE, ptr @_ZTIN7testing8internal15TestFactoryBaseE }, align 8
@_ZTVN12_GLOBAL__N_143RandenTest_VerifyGoldenRanden32Default_TestE = internal unnamed_addr constant { [8 x ptr] } { [8 x ptr] [ptr null, ptr @_ZTIN12_GLOBAL__N_143RandenTest_VerifyGoldenRanden32Default_TestE, ptr @_ZN12_GLOBAL__N_143RandenTest_VerifyGoldenRanden32Default_TestD2Ev, ptr @_ZN12_GLOBAL__N_143RandenTest_VerifyGoldenRanden32Default_TestD0Ev, ptr @_ZN7testing4Test5SetUpEv, ptr @_ZN7testing4Test8TearDownEv, ptr @_ZN12_GLOBAL__N_143RandenTest_VerifyGoldenRanden32Default_Test8TestBodyEv, ptr @_ZN7testing4Test5SetupEv] }, align 8
@_ZTSN12_GLOBAL__N_143RandenTest_VerifyGoldenRanden32Default_TestE = internal constant [62 x i8] c"N12_GLOBAL__N_143RandenTest_VerifyGoldenRanden32Default_TestE\00", align 1
@_ZTIN12_GLOBAL__N_143RandenTest_VerifyGoldenRanden32Default_TestE = internal constant { ptr, ptr, ptr } { ptr getelementptr inbounds (ptr, ptr @_ZTVN10__cxxabiv120__si_class_type_infoE, i64 2), ptr @_ZTSN12_GLOBAL__N_143RandenTest_VerifyGoldenRanden32Default_TestE, ptr @_ZTIN7testing4TestE }, align 8
@__const._ZN12_GLOBAL__N_143RandenTest_VerifyGoldenRanden32Default_Test8TestBodyEv.kGolden = private unnamed_addr constant [254 x i64] [i64 1313028471, i64 3284225811, i64 3640922350, i64 3718902908, i64 2144913936, i64 2289824520, i64 1170680082, i64 4038557941, i64 1989564831, i64 366719443, i64 4282150233, i64 820798394, i64 1870602406, i64 2996794208, i64 1867097420, i64 41978417, i64 3586712846, i64 999287545, i64 1071242890, i64 2629787742, i64 2014854075, i64 3379605018, i64 1445994197, i64 3635609555, i64 264715319, i64 4105381886, i64 3952056857, i64 3455946102, i64 2437024925, i64 3282372331, i64 1056937302, i64 3585017309, i64 2407777441, i64 1222319031, i64 225181324, i64 1881379342, i64 882208066, i64 1490245464, i64 1804056640, i64 3978228930, i64 1040920051, i64 2398040738, i64 1125209340, i64 1232907251, i64 1879218827, i64 1310996229, i64 4036027882, i64 3633010505, i64 2842716463, i64 3327239554, i64 3143844597, i64 2029841452, i64 1630492123, i64 1178384197, i64 404140003, i64 892265645, i64 3238124158, i64 40891252, i64 473819217, i64 2166288514, i64 80018009, i64 1870553447, i64 2569885948, i64 2691040121, i64 2746717639, i64 78685044, i64 1750968216, i64 2438935621, i64 3345314254, i64 645933706, i64 869144706, i64 1180906789, i64 2723006264, i64 3120426932, i64 1299082321, i64 1435023930, i64 3546224982, i64 2718964290, i64 3791713789, i64 1618056613, i64 4079552356, i64 2114978568, i64 1973159689, i64 3789938748, i64 1571184751, i64 136671948, i64 2581869297, i64 3419363411, i64 2201344241, i64 3902979663, i64 3422480626, i64 151275162, i64 1840172369, i64 4035695387, i64 2795349658, i64 149463537, i64 2908209141, i64 1698865674, i64 87911238, i64 781649339, i64 118735761, i64 3660564955, i64 557543419, i64 2028185616, i64 3716544678, i64 3692471708, i64 3444930591, i64 3230869272, i64 723566565, i64 3116348060, i64 3188666268, i64 3111291329, i64 61379284, i64 3231883492, i64 1198605147, i64 1428470659, i64 970041168, i64 2187713085, i64 2367387845, i64 4283102123, i64 1271584639, i64 4042022722, i64 659116425, i64 1726240246, i64 3044946544, i64 3358404896, i64 3257243363, i64 874833021, i64 2630802653, i64 3154941202, i64 2948914367, i64 3247555989, i64 733415737, i64 302224061, i64 2798480052, i64 2140169486, i64 845765331, i64 1921468696, i64 2811330224, i64 2814966469, i64 415105889, i64 3498625940, i64 2625379557, i64 2082208131, i64 1491199902, i64 3806958074, i64 4247307437, i64 2018925790, i64 4186681261, i64 1934735870, i64 2962003647, i64 715041832, i64 2529894949, i64 1817122710, i64 464226272, i64 329680262, i64 2689603953, i64 1690754650, i64 3402041745, i64 810775589, i64 3334812343, i64 22613405, i64 2395414748, i64 2114315178, i64 1424221759, i64 1956674972, i64 2403058130, i64 1937867832, i64 1740520139, i64 654302288, i64 1444881759, i64 1808658821, i64 3482956230, i64 2699752161, i64 888571396, i64 387840025, i64 1701330522, i64 2124784150, i64 1975131370, i64 1562161184, i64 3524411359, i64 2508142795, i64 4161658927, i64 3127076079, i64 1104433902, i64 1617824270, i64 3733125026, i64 2301461271, i64 1358410814, i64 3876041179, i64 1987039067, i64 1320323110, i64 3892971857, i64 1513499990, i64 374504824, i64 1860311007, i64 3127583709, i64 4134762850, i64 2101376714, i64 1144939397, i64 76210155, i64 2030934623, i64 354347341, i64 3616976978, i64 313543171, i64 54450524, i64 1217649245, i64 2340634616, i64 3138775737, i64 1030169777, i64 1348586102, i64 2557985826, i64 2918666163, i64 3599591440, i64 3809274249, i64 1122317615, i64 1949433319, i64 643520090, i64 1491028875, i64 1021048803, i64 1832814457, i64 690136191, i64 1706262408, i64 1389503535, i64 693687989, i64 1568894318, i64 1450008102, i64 701763328, i64 306910368, i64 680374497, i64 3084501430, i64 1812293128, i64 3102842162, i64 194277821, i64 1336568989, i64 2411284048, i64 1161831708, i64 2302912838, i64 340396512, i64 4246725245, i64 3658750938, i64 3932865624, i64 1665125942, i64 2152264215, i64 2917616945, i64 4275704708, i64 804741423, i64 1127528624, i64 1378345494, i64 3687334943, i64 906348635, i64 158142874, i64 565696464, i64 728937244], align 16
@_ZTVN7testing8internal15TestFactoryImplIN12_GLOBAL__N_142RandenTest_VerifyGoldenRanden32Seeded_TestEEE = internal unnamed_addr constant { [5 x ptr] } { [5 x ptr] [ptr null, ptr @_ZTIN7testing8internal15TestFactoryImplIN12_GLOBAL__N_142RandenTest_VerifyGoldenRanden32Seeded_TestEEE, ptr @_ZN7testing8internal15TestFactoryImplIN12_GLOBAL__N_142RandenTest_VerifyGoldenRanden32Seeded_TestEED2Ev, ptr @_ZN7testing8internal15TestFactoryImplIN12_GLOBAL__N_142RandenTest_VerifyGoldenRanden32Seeded_TestEED0Ev, ptr @_ZN7testing8internal15TestFactoryImplIN12_GLOBAL__N_142RandenTest_VerifyGoldenRanden32Seeded_TestEE10CreateTestEv] }, align 8
@_ZTSN7testing8internal15TestFactoryImplIN12_GLOBAL__N_142RandenTest_VerifyGoldenRanden32Seeded_TestEEE = internal constant [99 x i8] c"N7testing8internal15TestFactoryImplIN12_GLOBAL__N_142RandenTest_VerifyGoldenRanden32Seeded_TestEEE\00", align 1
@_ZTIN7testing8internal15TestFactoryImplIN12_GLOBAL__N_142RandenTest_VerifyGoldenRanden32Seeded_TestEEE = internal constant { ptr, ptr, ptr } { ptr getelementptr inbounds (ptr, ptr @_ZTVN10__cxxabiv120__si_class_type_infoE, i64 2), ptr @_ZTSN7testing8internal15TestFactoryImplIN12_GLOBAL__N_142RandenTest_VerifyGoldenRanden32Seeded_TestEEE, ptr @_ZTIN7testing8internal15TestFactoryBaseE }, align 8
@_ZTVN12_GLOBAL__N_142RandenTest_VerifyGoldenRanden32Seeded_TestE = internal unnamed_addr constant { [8 x ptr] } { [8 x ptr] [ptr null, ptr @_ZTIN12_GLOBAL__N_142RandenTest_VerifyGoldenRanden32Seeded_TestE, ptr @_ZN12_GLOBAL__N_142RandenTest_VerifyGoldenRanden32Seeded_TestD2Ev, ptr @_ZN12_GLOBAL__N_142RandenTest_VerifyGoldenRanden32Seeded_TestD0Ev, ptr @_ZN7testing4Test5SetUpEv, ptr @_ZN7testing4Test8TearDownEv, ptr @_ZN12_GLOBAL__N_142RandenTest_VerifyGoldenRanden32Seeded_Test8TestBodyEv, ptr @_ZN7testing4Test5SetupEv] }, align 8
@_ZTSN12_GLOBAL__N_142RandenTest_VerifyGoldenRanden32Seeded_TestE = internal constant [61 x i8] c"N12_GLOBAL__N_142RandenTest_VerifyGoldenRanden32Seeded_TestE\00", align 1
@_ZTIN12_GLOBAL__N_142RandenTest_VerifyGoldenRanden32Seeded_TestE = internal constant { ptr, ptr, ptr } { ptr getelementptr inbounds (ptr, ptr @_ZTVN10__cxxabiv120__si_class_type_infoE, i64 2), ptr @_ZTSN12_GLOBAL__N_142RandenTest_VerifyGoldenRanden32Seeded_TestE, ptr @_ZTIN7testing4TestE }, align 8
@__const._ZN12_GLOBAL__N_142RandenTest_VerifyGoldenRanden32Seeded_Test8TestBodyEv.kGolden = private unnamed_addr constant [254 x i64] [i64 2496912597, i64 2208949647, i64 3648604667, i64 1891360755, i64 1953612212, i64 70797343, i64 3858454832, i64 889046414, i64 714308887, i64 3471724333, i64 3828526761, i64 3047320168, i64 1068832576, i64 2338617162, i64 1948556404, i64 3634020860, i64 603733983, i64 59837725, i64 2024442239, i64 3549389576, i64 1633648196, i64 250147061, i64 4163345746, i64 2566235453, i64 630426894, i64 3020158252, i64 1856432184, i64 604009113, i64 1636891233, i64 3550974244, i64 2054901632, i64 2867712991, i64 98479982, i64 3337276094, i64 2031017805, i64 3080093144, i64 3762934393, i64 2584383079, i64 2931565543, i64 76871174, i64 2076434670, i64 1502465384, i64 47469217, i64 17483800, i64 1621764162, i64 1678231665, i64 1215271840, i64 1515643510, i64 3563753218, i64 3364332441, i64 4271093568, i64 2652791040, i64 260637174, i64 315633203, i64 1206358199, i64 3281823019, i64 300428897, i64 2964366074, i64 2734915690, i64 356702273, i64 2104401286, i64 535190013, i64 1952793004, i64 3100183936, i64 1721621652, i64 597513893, i64 2166608188, i64 3557668220, i64 356126128, i64 985408532, i64 818646369, i64 2611832406, i64 3997125564, i64 198310800, i64 127618626, i64 2399882622, i64 3998869395, i64 4195332320, i64 1040650496, i64 1359481640, i64 1350683669, i64 743153265, i64 3729342943, i64 3188780361, i64 1260064055, i64 4176129181, i64 1174790457, i64 1271719093, i64 1734729126, i64 2789679799, i64 2359462581, i64 3107421555, i64 2831991215, i64 2006953345, i64 536689575, i64 1707818726, i64 2019722095, i64 3612244232, i64 1279206847, i64 3495664728, i64 2471991335, i64 732510790, i64 4032045262, i64 3625267375, i64 357008929, i64 3959869090, i64 2037212589, i64 1259837606, i64 980381606, i64 4047696891, i64 3795301728, i64 2849783, i64 4016420088, i64 4101973509, i64 401603608, i64 2550459477, i64 3084157389, i64 2933118968, i64 484653265, i64 1448198732, i64 2347803590, i64 1048197152, i64 341002989, i64 1737926582, i64 2203600399, i64 219102084, i64 11638052, i64 262536822, i64 1408937692, i64 722269058, i64 591044566, i64 283087240, i64 2148764505, i64 974127928, i64 961079311, i64 1605415122, i64 801067856, i64 2658596784, i64 78752133, i64 135660835, i64 3021984280, i64 818513933, i64 1709313832, i64 346700187, i64 2900854708, i64 3779414668, i64 3066491125, i64 844810609, i64 2018458934, i64 1902844578, i64 3439137871, i64 1029497162, i64 258283410, i64 1812764529, i64 4214437170, i64 3160084313, i64 335835324, i64 714123218, i64 1545477261, i64 2376231413, i64 2304217802, i64 3485692227, i64 4077593487, i64 3189893809, i64 3998049789, i64 2353472157, i64 3522002260, i64 1464033614, i64 2661042030, i64 890466985, i64 3856336991, i64 735439381, i64 1846211786, i64 1764097508, i64 3693036989, i64 3980319275, i64 3563125358, i64 3740699752, i64 1649664693, i64 3827961319, i64 3156853509, i64 1313961692, i64 2676035438, i64 3218628538, i64 3199735238, i64 1990566569, i64 3467592012, i64 32359645, i64 3032169291, i64 2766768388, i64 2100239837, i64 12411820, i64 3919109563, i64 3091800038, i64 1037723648, i64 3011945286, i64 2290554393, i64 8489078, i64 877566520, i64 869504179, i64 2745744121, i64 2170403429, i64 46333210, i64 1110636268, i64 3989964852, i64 3050305027, i64 1063810659, i64 1476495652, i64 3693608601, i64 2832573131, i64 2482635057, i64 1918732310, i64 3677125317, i64 2730372115, i64 3037330808, i64 2070582804, i64 510752310, i64 3065067223, i64 2951759594, i64 1712265841, i64 1187572894, i64 195103459, i64 3809762113, i64 3865960019, i64 2294442982, i64 991438988, i64 4029528371, i64 1302175023, i64 1895067274, i64 1097325196, i64 2355304628, i64 4051943151, i64 1911484145, i64 1300799006, i64 3597179755, i64 1903544090, i64 2899425245, i64 4221452990, i64 2996526605, i64 3275558545, i64 484735266, i64 3550184233, i64 2224279854, i64 3302322427, i64 1329744614, i64 601204082, i64 2271962646, i64 1380315489, i64 564877197, i64 953646525, i64 525257726, i64 2620662577, i64 2611796437, i64 1996370232], align 16
@_ZTVN7testing8internal15TestFactoryImplIN12_GLOBAL__N_150RandenTest_VerifyGoldenFromDeserializedEngine_TestEEE = internal unnamed_addr constant { [5 x ptr] } { [5 x ptr] [ptr null, ptr @_ZTIN7testing8internal15TestFactoryImplIN12_GLOBAL__N_150RandenTest_VerifyGoldenFromDeserializedEngine_TestEEE, ptr @_ZN7testing8internal15TestFactoryImplIN12_GLOBAL__N_150RandenTest_VerifyGoldenFromDeserializedEngine_TestEED2Ev, ptr @_ZN7testing8internal15TestFactoryImplIN12_GLOBAL__N_150RandenTest_VerifyGoldenFromDeserializedEngine_TestEED0Ev, ptr @_ZN7testing8internal15TestFactoryImplIN12_GLOBAL__N_150RandenTest_VerifyGoldenFromDeserializedEngine_TestEE10CreateTestEv] }, align 8
@_ZTSN7testing8internal15TestFactoryImplIN12_GLOBAL__N_150RandenTest_VerifyGoldenFromDeserializedEngine_TestEEE = internal constant [107 x i8] c"N7testing8internal15TestFactoryImplIN12_GLOBAL__N_150RandenTest_VerifyGoldenFromDeserializedEngine_TestEEE\00", align 1
@_ZTIN7testing8internal15TestFactoryImplIN12_GLOBAL__N_150RandenTest_VerifyGoldenFromDeserializedEngine_TestEEE = internal constant { ptr, ptr, ptr } { ptr getelementptr inbounds (ptr, ptr @_ZTVN10__cxxabiv120__si_class_type_infoE, i64 2), ptr @_ZTSN7testing8internal15TestFactoryImplIN12_GLOBAL__N_150RandenTest_VerifyGoldenFromDeserializedEngine_TestEEE, ptr @_ZTIN7testing8internal15TestFactoryBaseE }, align 8
@_ZTVN12_GLOBAL__N_150RandenTest_VerifyGoldenFromDeserializedEngine_TestE = internal unnamed_addr constant { [8 x ptr] } { [8 x ptr] [ptr null, ptr @_ZTIN12_GLOBAL__N_150RandenTest_VerifyGoldenFromDeserializedEngine_TestE, ptr @_ZN12_GLOBAL__N_150RandenTest_VerifyGoldenFromDeserializedEngine_TestD2Ev, ptr @_ZN12_GLOBAL__N_150RandenTest_VerifyGoldenFromDeserializedEngine_TestD0Ev, ptr @_ZN7testing4Test5SetUpEv, ptr @_ZN7testing4Test8TearDownEv, ptr @_ZN12_GLOBAL__N_150RandenTest_VerifyGoldenFromDeserializedEngine_Test8TestBodyEv, ptr @_ZN7testing4Test5SetupEv] }, align 8
@_ZTSN12_GLOBAL__N_150RandenTest_VerifyGoldenFromDeserializedEngine_TestE = internal constant [69 x i8] c"N12_GLOBAL__N_150RandenTest_VerifyGoldenFromDeserializedEngine_TestE\00", align 1
@_ZTIN12_GLOBAL__N_150RandenTest_VerifyGoldenFromDeserializedEngine_TestE = internal constant { ptr, ptr, ptr } { ptr getelementptr inbounds (ptr, ptr @_ZTVN10__cxxabiv120__si_class_type_infoE, i64 2), ptr @_ZTSN12_GLOBAL__N_150RandenTest_VerifyGoldenFromDeserializedEngine_TestE, ptr @_ZTIN7testing4TestE }, align 8
@__const._ZN12_GLOBAL__N_150RandenTest_VerifyGoldenFromDeserializedEngine_Test8TestBodyEv.kGolden = private unnamed_addr constant [127 x i64] [i64 468268373149050234, i64 375030604658935171, i64 -8489215534461982913, i64 8626642287940147292, i64 -2760829440990193519, i64 -2793983518084098891, i64 9204912977332384899, i64 -8416765372819278195, i64 4223906330373528220, i64 5928517838597078641, i64 4715710812233681057, i64 8871101660978486537, i64 -7743463070872165535, i64 -221838659017694111, i64 -3007557392317748073, i64 6378567667311235612, i64 5987319165137128792, i64 2061647070951504577, i64 -2064865058195842902, i64 -7718165293790911876, i64 6608155391937299663, i64 -5348124502657487045, i64 8037612565745579113, i64 -152808113269420305, i64 3690767168687144399, i64 3485998233270484193, i64 1798152297724692326, i64 -1784448635532551638, i64 -8265014172524531036, i64 -5181220451062658561, i64 5294668530081381411, i64 2571498558764211434, i64 1778764469290652422, i64 -3205085649110768199, i64 4908280105090611991, i64 -3453297468322483905, i64 6795886741337372732, i64 -2246657085650118063, i64 1102681943521314906, i64 -6965048373349997213, i64 7156778119867810707, i64 -6454291833423861333, i64 1148839848126520056, i64 -2932874858312636893, i64 3904686579956172482, i64 5269437419894597783, i64 830994042810597069, i64 -7055624468369469805, i64 1834464234547738664, i64 -4686581530797927883, i64 1790494376282858791, i64 -5223584889658903603, i64 3230398518478499580, i64 -5522991803760508961, i64 -7915406109097591289, i64 7367675360143192926, i64 -6329265372702100921, i64 9211721750391345759, i64 -4750151947673555791, i64 -3137052589914497263, i64 -854608043813780022, i64 2184308914845826421, i64 -1383556665165171401, i64 -5685209097259693996, i64 -4265146407466003811, i64 -1650223194568504180, i64 -6248140171502778360, i64 2439896848104619939, i64 -6724400784643579218, i64 -127906443547007756, i64 -1614456730455830232, i64 -3810914092474623360, i64 4827543762305055960, i64 -6019437428484678520, i64 -6874961168989638801, i64 -2353457653199696250, i64 -1016045091984567863, i64 3198644586629764544, i64 8063305575763868375, i64 -6173970684969180687, i64 2607354283730963196, i64 -8162621306031041221, i64 2504564998743211985, i64 6302106423500621964, i64 530480699914960541, i64 -7317081324914571119, i64 8345545454228819261, i64 -4503723730200390857, i64 5101636756138012628, i64 6753383637474924716, i64 -5216488247257409631, i64 -7380184627044491567, i64 -3204258191021488140, i64 -927895076782405252, i64 8317274213184964201, i64 8811696520250274787, i64 -1371244989044242804, i64 -7045914804463125426, i64 1564684656933553916, i64 -2501123350863169508, i64 -5341357498072959014, i64 -3862321584701005194, i64 2047789775039958781, i64 7652689303502167926, i64 4995690736551262223, i64 -8937155693180579643, i64 2499121507723021337, i64 -377357811135583638, i64 -3338024268202517201, i64 -972270602691881979, i64 531425461156417103, i64 7696141612950684741, i64 5060465399307289819, i64 1474667654944221612, i64 1332832055279877048, i64 -2332009985718090584, i64 -8572836806424732354, i64 7117949485354313549, i64 2504216227418129035, i64 -7248856496002367411, i64 -5058337925018340560, i64 1756559408952400269, i64 -7872084258739372494, i64 -8610900019986150747, i64 -6884806412820890352, i64 1777586736549470307, i64 1540420130239281543], align 16
@.str.31 = private unnamed_addr constant [620 x i8] c"0 0 9824501439887287479 3242284395352394785 243836530774933777 4047941804708365596 17165468127298385802 949276103645889255 10659970394998657921 1657570836810929787 11697746266668051452 9967209969299905230 14140390331161524430 7383014124183271684 13146719127702337852 13983155220295807171 11121125587542359264 195757810993252695 17138580243103178492 11326030747260920501 8585097322474965590 18342582839328350995 15052982824209724634 7321861343874683609 1806786911778767826 10100850842665572955 9249328950653985078 13600624835326909759 11137960060943860251 10208781341792329629 9282723971471525577 16373271619486811032 32\00", align 1
@_ZTVN7testing8internal15TestFactoryImplIN12_GLOBAL__N_128RandenTest_IsFastOrSlow_TestEEE = internal unnamed_addr constant { [5 x ptr] } { [5 x ptr] [ptr null, ptr @_ZTIN7testing8internal15TestFactoryImplIN12_GLOBAL__N_128RandenTest_IsFastOrSlow_TestEEE, ptr @_ZN7testing8internal15TestFactoryImplIN12_GLOBAL__N_128RandenTest_IsFastOrSlow_TestEED2Ev, ptr @_ZN7testing8internal15TestFactoryImplIN12_GLOBAL__N_128RandenTest_IsFastOrSlow_TestEED0Ev, ptr @_ZN7testing8internal15TestFactoryImplIN12_GLOBAL__N_128RandenTest_IsFastOrSlow_TestEE10CreateTestEv] }, align 8
@_ZTSN7testing8internal15TestFactoryImplIN12_GLOBAL__N_128RandenTest_IsFastOrSlow_TestEEE = internal constant [85 x i8] c"N7testing8internal15TestFactoryImplIN12_GLOBAL__N_128RandenTest_IsFastOrSlow_TestEEE\00", align 1
@_ZTIN7testing8internal15TestFactoryImplIN12_GLOBAL__N_128RandenTest_IsFastOrSlow_TestEEE = internal constant { ptr, ptr, ptr } { ptr getelementptr inbounds (ptr, ptr @_ZTVN10__cxxabiv120__si_class_type_infoE, i64 2), ptr @_ZTSN7testing8internal15TestFactoryImplIN12_GLOBAL__N_128RandenTest_IsFastOrSlow_TestEEE, ptr @_ZTIN7testing8internal15TestFactoryBaseE }, align 8
@_ZTVN12_GLOBAL__N_128RandenTest_IsFastOrSlow_TestE = internal unnamed_addr constant { [8 x ptr] } { [8 x ptr] [ptr null, ptr @_ZTIN12_GLOBAL__N_128RandenTest_IsFastOrSlow_TestE, ptr @_ZN12_GLOBAL__N_128RandenTest_IsFastOrSlow_TestD2Ev, ptr @_ZN12_GLOBAL__N_128RandenTest_IsFastOrSlow_TestD0Ev, ptr @_ZN7testing4Test5SetUpEv, ptr @_ZN7testing4Test8TearDownEv, ptr @_ZN12_GLOBAL__N_128RandenTest_IsFastOrSlow_Test8TestBodyEv, ptr @_ZN7testing4Test5SetupEv] }, align 8
@_ZTSN12_GLOBAL__N_128RandenTest_IsFastOrSlow_TestE = internal constant [47 x i8] c"N12_GLOBAL__N_128RandenTest_IsFastOrSlow_TestE\00", align 1
@_ZTIN12_GLOBAL__N_128RandenTest_IsFastOrSlow_TestE = internal constant { ptr, ptr, ptr } { ptr getelementptr inbounds (ptr, ptr @_ZTVN10__cxxabiv120__si_class_type_infoE, i64 2), ptr @_ZTSN12_GLOBAL__N_128RandenTest_IsFastOrSlow_TestE, ptr @_ZTIN7testing4TestE }, align 8
@_ZZN12_GLOBAL__N_128RandenTest_IsFastOrSlow_Test8TestBodyEvE6kCount = internal constant i64 100000, align 8
@.str.32 = private unnamed_addr constant [3 x i8] c"ns\00", align 1
@.str.33 = private unnamed_addr constant [4 x i8] c"sum\00", align 1
@.str.34 = private unnamed_addr constant [2 x i8] c"0\00", align 1
@.str.35 = private unnamed_addr constant [9 x i8] c"duration\00", align 1
@.str.36 = private unnamed_addr constant [7 x i8] c"kCount\00", align 1
@.str.37 = private unnamed_addr constant [2 x i8] c">\00", align 1
@.str.38 = private unnamed_addr constant [12 x i8] c"Expected: (\00", align 1
@.str.39 = private unnamed_addr constant [3 x i8] c") \00", align 1
@.str.40 = private unnamed_addr constant [3 x i8] c" (\00", align 1
@.str.41 = private unnamed_addr constant [12 x i8] c"), actual: \00", align 1
@.str.42 = private unnamed_addr constant [5 x i8] c" vs \00", align 1
@.str.43 = private unnamed_addr constant [7 x i8] c"(null)\00", align 1
@.str.44 = private unnamed_addr constant [3 x i8] c">=\00", align 1
@.str.45 = private unnamed_addr constant [50 x i8] c"basic_string: construction from null is not valid\00", align 1
@.str.46 = private unnamed_addr constant [2 x i8] c"/\00", align 1
@_ZTIh = external constant ptr
@_ZZN7testing8internal31CanonicalizeForStdLibVersioningENSt7__cxx1112basic_stringIcSt11char_traitsIcESaIcEEEE6prefix = linkonce_odr dso_local constant [8 x i8] c"std::__\00", comdat, align 1
@.str.47 = private unnamed_addr constant [3 x i8] c"::\00", align 1
@_ZZN7testing8internal31CanonicalizeForStdLibVersioningENSt7__cxx1112basic_stringIcSt11char_traitsIcESaIcEEEE9to_search = linkonce_odr dso_local constant [3 x i8] c", \00", comdat, align 1
@_ZZN7testing8internal31CanonicalizeForStdLibVersioningENSt7__cxx1112basic_stringIcSt11char_traitsIcESaIcEEEE11replace_str = linkonce_odr dso_local constant [2 x i8] c",\00", comdat, align 1
@_ZN7testing8internal12TypeIdHelperIN12_GLOBAL__N_121RandenEngineTypedTestIhEEE6dummy_E = internal global i8 0, align 1
@.str.48 = private unnamed_addr constant [166 x i8] c"generated/home/dtcxzyw/WorkSpace/Projects/compilers/llvm-opt-benchmark/bench/abseil-cpp/bench_build/googletest-src/googletest/include/gtest/internal/gtest-internal.h\00", align 1
@.str.49 = private unnamed_addr constant [51 x i8] c"Condition !test_case_fp || !test_suite_fp failed. \00", align 1
@.str.50 = private unnamed_addr constant [107 x i8] c"Test can not provide both SetUpTestSuite and SetUpTestCase, please make sure there is only one present at \00", align 1
@.str.51 = private unnamed_addr constant [2 x i8] c":\00", align 1
@_ZSt4cerr = external global %"class.std::basic_ostream", align 8
@.str.52 = private unnamed_addr constant [112 x i8] c"Test can not provide both TearDownTestSuite and TearDownTestCase, please make sure there is only one present at\00", align 1
@_ZTVN7testing8internal15TestFactoryImplIN12_GLOBAL__N_155RandenEngineTypedTest_VerifyReseedChangesAllValues_TestIhEEEE = internal unnamed_addr constant { [5 x ptr] } { [5 x ptr] [ptr null, ptr @_ZTIN7testing8internal15TestFactoryImplIN12_GLOBAL__N_155RandenEngineTypedTest_VerifyReseedChangesAllValues_TestIhEEEE, ptr @_ZN7testing8internal15TestFactoryImplIN12_GLOBAL__N_155RandenEngineTypedTest_VerifyReseedChangesAllValues_TestIhEEED2Ev, ptr @_ZN7testing8internal15TestFactoryImplIN12_GLOBAL__N_155RandenEngineTypedTest_VerifyReseedChangesAllValues_TestIhEEED0Ev, ptr @_ZN7testing8internal15TestFactoryImplIN12_GLOBAL__N_155RandenEngineTypedTest_VerifyReseedChangesAllValues_TestIhEEE10CreateTestEv] }, align 8
@_ZTSN7testing8internal15TestFactoryImplIN12_GLOBAL__N_155RandenEngineTypedTest_VerifyReseedChangesAllValues_TestIhEEEE = internal constant [115 x i8] c"N7testing8internal15TestFactoryImplIN12_GLOBAL__N_155RandenEngineTypedTest_VerifyReseedChangesAllValues_TestIhEEEE\00", align 1
@_ZTIN7testing8internal15TestFactoryImplIN12_GLOBAL__N_155RandenEngineTypedTest_VerifyReseedChangesAllValues_TestIhEEEE = internal constant { ptr, ptr, ptr } { ptr getelementptr inbounds (ptr, ptr @_ZTVN10__cxxabiv120__si_class_type_infoE, i64 2), ptr @_ZTSN7testing8internal15TestFactoryImplIN12_GLOBAL__N_155RandenEngineTypedTest_VerifyReseedChangesAllValues_TestIhEEEE, ptr @_ZTIN7testing8internal15TestFactoryBaseE }, align 8
@_ZTVN12_GLOBAL__N_155RandenEngineTypedTest_VerifyReseedChangesAllValues_TestIhEE = internal unnamed_addr constant { [8 x ptr] } { [8 x ptr] [ptr null, ptr @_ZTIN12_GLOBAL__N_155RandenEngineTypedTest_VerifyReseedChangesAllValues_TestIhEE, ptr @_ZN12_GLOBAL__N_155RandenEngineTypedTest_VerifyReseedChangesAllValues_TestIhED2Ev, ptr @_ZN12_GLOBAL__N_155RandenEngineTypedTest_VerifyReseedChangesAllValues_TestIhED0Ev, ptr @_ZN7testing4Test5SetUpEv, ptr @_ZN7testing4Test8TearDownEv, ptr @_ZN12_GLOBAL__N_155RandenEngineTypedTest_VerifyReseedChangesAllValues_TestIhE8TestBodyEv, ptr @_ZN7testing4Test5SetupEv] }, align 8
@_ZTSN12_GLOBAL__N_155RandenEngineTypedTest_VerifyReseedChangesAllValues_TestIhEE = internal constant [77 x i8] c"N12_GLOBAL__N_155RandenEngineTypedTest_VerifyReseedChangesAllValues_TestIhEE\00", align 1
@_ZTSN12_GLOBAL__N_121RandenEngineTypedTestIhEE = internal constant [43 x i8] c"N12_GLOBAL__N_121RandenEngineTypedTestIhEE\00", align 1
@_ZTIN12_GLOBAL__N_121RandenEngineTypedTestIhEE = internal constant { ptr, ptr, ptr } { ptr getelementptr inbounds (ptr, ptr @_ZTVN10__cxxabiv120__si_class_type_infoE, i64 2), ptr @_ZTSN12_GLOBAL__N_121RandenEngineTypedTestIhEE, ptr @_ZTIN7testing4TestE }, align 8
@_ZTIN12_GLOBAL__N_155RandenEngineTypedTest_VerifyReseedChangesAllValues_TestIhEE = internal constant { ptr, ptr, ptr } { ptr getelementptr inbounds (ptr, ptr @_ZTVN10__cxxabiv120__si_class_type_infoE, i64 2), ptr @_ZTSN12_GLOBAL__N_155RandenEngineTypedTest_VerifyReseedChangesAllValues_TestIhEE, ptr @_ZTIN12_GLOBAL__N_121RandenEngineTypedTestIhEE }, align 8
@_ZTVN12_GLOBAL__N_121RandenEngineTypedTestIhEE = internal unnamed_addr constant { [8 x ptr] } { [8 x ptr] [ptr null, ptr @_ZTIN12_GLOBAL__N_121RandenEngineTypedTestIhEE, ptr @_ZN12_GLOBAL__N_121RandenEngineTypedTestIhED2Ev, ptr @_ZN12_GLOBAL__N_121RandenEngineTypedTestIhED0Ev, ptr @_ZN7testing4Test5SetUpEv, ptr @_ZN7testing4Test8TearDownEv, ptr @__cxa_pure_virtual, ptr @_ZN7testing4Test5SetupEv] }, align 8
@constinit = private constant [7 x i32] [i32 1, i32 2, i32 3, i32 4, i32 5, i32 6, i32 7], align 4
@.str.53 = private unnamed_addr constant [13 x i8] c"changed_bits\00", align 1
@.str.54 = private unnamed_addr constant [39 x i8] c"0.60 * (changed_bits + unchanged_bits)\00", align 1
@.str.55 = private unnamed_addr constant [39 x i8] c"0.40 * (changed_bits + unchanged_bits)\00", align 1
@.str.56 = private unnamed_addr constant [10 x i8] c"total_set\00", align 1
@.str.57 = private unnamed_addr constant [17 x i8] c"total_bits * 0.5\00", align 1
@.str.58 = private unnamed_addr constant [26 x i8] c"4 * std::sqrt(total_bits)\00", align 1
@.str.59 = private unnamed_addr constant [2 x i8] c"@\00", align 1
@.str.60 = private unnamed_addr constant [12 x i8] c"equal_count\00", align 1
@.str.61 = private unnamed_addr constant [16 x i8] c"1.0 + kExpected\00", align 1
@.str.62 = private unnamed_addr constant [16 x i8] c"vector::reserve\00", align 1
@.str.63 = private unnamed_addr constant [8 x i8] c"default\00", align 1
@.str.64 = private unnamed_addr constant [3 x i8] c"<=\00", align 1
@_ZTIt = external constant ptr
@_ZN7testing8internal12TypeIdHelperIN12_GLOBAL__N_121RandenEngineTypedTestItEEE6dummy_E = internal global i8 0, align 1
@_ZTVN7testing8internal15TestFactoryImplIN12_GLOBAL__N_155RandenEngineTypedTest_VerifyReseedChangesAllValues_TestItEEEE = internal unnamed_addr constant { [5 x ptr] } { [5 x ptr] [ptr null, ptr @_ZTIN7testing8internal15TestFactoryImplIN12_GLOBAL__N_155RandenEngineTypedTest_VerifyReseedChangesAllValues_TestItEEEE, ptr @_ZN7testing8internal15TestFactoryImplIN12_GLOBAL__N_155RandenEngineTypedTest_VerifyReseedChangesAllValues_TestItEEED2Ev, ptr @_ZN7testing8internal15TestFactoryImplIN12_GLOBAL__N_155RandenEngineTypedTest_VerifyReseedChangesAllValues_TestItEEED0Ev, ptr @_ZN7testing8internal15TestFactoryImplIN12_GLOBAL__N_155RandenEngineTypedTest_VerifyReseedChangesAllValues_TestItEEE10CreateTestEv] }, align 8
@_ZTSN7testing8internal15TestFactoryImplIN12_GLOBAL__N_155RandenEngineTypedTest_VerifyReseedChangesAllValues_TestItEEEE = internal constant [115 x i8] c"N7testing8internal15TestFactoryImplIN12_GLOBAL__N_155RandenEngineTypedTest_VerifyReseedChangesAllValues_TestItEEEE\00", align 1
@_ZTIN7testing8internal15TestFactoryImplIN12_GLOBAL__N_155RandenEngineTypedTest_VerifyReseedChangesAllValues_TestItEEEE = internal constant { ptr, ptr, ptr } { ptr getelementptr inbounds (ptr, ptr @_ZTVN10__cxxabiv120__si_class_type_infoE, i64 2), ptr @_ZTSN7testing8internal15TestFactoryImplIN12_GLOBAL__N_155RandenEngineTypedTest_VerifyReseedChangesAllValues_TestItEEEE, ptr @_ZTIN7testing8internal15TestFactoryBaseE }, align 8
@_ZTVN12_GLOBAL__N_155RandenEngineTypedTest_VerifyReseedChangesAllValues_TestItEE = internal unnamed_addr constant { [8 x ptr] } { [8 x ptr] [ptr null, ptr @_ZTIN12_GLOBAL__N_155RandenEngineTypedTest_VerifyReseedChangesAllValues_TestItEE, ptr @_ZN12_GLOBAL__N_155RandenEngineTypedTest_VerifyReseedChangesAllValues_TestItED2Ev, ptr @_ZN12_GLOBAL__N_155RandenEngineTypedTest_VerifyReseedChangesAllValues_TestItED0Ev, ptr @_ZN7testing4Test5SetUpEv, ptr @_ZN7testing4Test8TearDownEv, ptr @_ZN12_GLOBAL__N_155RandenEngineTypedTest_VerifyReseedChangesAllValues_TestItE8TestBodyEv, ptr @_ZN7testing4Test5SetupEv] }, align 8
@_ZTSN12_GLOBAL__N_155RandenEngineTypedTest_VerifyReseedChangesAllValues_TestItEE = internal constant [77 x i8] c"N12_GLOBAL__N_155RandenEngineTypedTest_VerifyReseedChangesAllValues_TestItEE\00", align 1
@_ZTSN12_GLOBAL__N_121RandenEngineTypedTestItEE = internal constant [43 x i8] c"N12_GLOBAL__N_121RandenEngineTypedTestItEE\00", align 1
@_ZTIN12_GLOBAL__N_121RandenEngineTypedTestItEE = internal constant { ptr, ptr, ptr } { ptr getelementptr inbounds (ptr, ptr @_ZTVN10__cxxabiv120__si_class_type_infoE, i64 2), ptr @_ZTSN12_GLOBAL__N_121RandenEngineTypedTestItEE, ptr @_ZTIN7testing4TestE }, align 8
@_ZTIN12_GLOBAL__N_155RandenEngineTypedTest_VerifyReseedChangesAllValues_TestItEE = internal constant { ptr, ptr, ptr } { ptr getelementptr inbounds (ptr, ptr @_ZTVN10__cxxabiv120__si_class_type_infoE, i64 2), ptr @_ZTSN12_GLOBAL__N_155RandenEngineTypedTest_VerifyReseedChangesAllValues_TestItEE, ptr @_ZTIN12_GLOBAL__N_121RandenEngineTypedTestItEE }, align 8
@_ZTVN12_GLOBAL__N_121RandenEngineTypedTestItEE = internal unnamed_addr constant { [8 x ptr] } { [8 x ptr] [ptr null, ptr @_ZTIN12_GLOBAL__N_121RandenEngineTypedTestItEE, ptr @_ZN12_GLOBAL__N_121RandenEngineTypedTestItED2Ev, ptr @_ZN12_GLOBAL__N_121RandenEngineTypedTestItED0Ev, ptr @_ZN7testing4Test5SetUpEv, ptr @_ZN7testing4Test8TearDownEv, ptr @__cxa_pure_virtual, ptr @_ZN7testing4Test5SetupEv] }, align 8
@constinit.65 = private constant [7 x i32] [i32 1, i32 2, i32 3, i32 4, i32 5, i32 6, i32 7], align 4
@_ZTIj = external constant ptr
@_ZN7testing8internal12TypeIdHelperIN12_GLOBAL__N_121RandenEngineTypedTestIjEEE6dummy_E = internal global i8 0, align 1
@_ZTVN7testing8internal15TestFactoryImplIN12_GLOBAL__N_155RandenEngineTypedTest_VerifyReseedChangesAllValues_TestIjEEEE = internal unnamed_addr constant { [5 x ptr] } { [5 x ptr] [ptr null, ptr @_ZTIN7testing8internal15TestFactoryImplIN12_GLOBAL__N_155RandenEngineTypedTest_VerifyReseedChangesAllValues_TestIjEEEE, ptr @_ZN7testing8internal15TestFactoryImplIN12_GLOBAL__N_155RandenEngineTypedTest_VerifyReseedChangesAllValues_TestIjEEED2Ev, ptr @_ZN7testing8internal15TestFactoryImplIN12_GLOBAL__N_155RandenEngineTypedTest_VerifyReseedChangesAllValues_TestIjEEED0Ev, ptr @_ZN7testing8internal15TestFactoryImplIN12_GLOBAL__N_155RandenEngineTypedTest_VerifyReseedChangesAllValues_TestIjEEE10CreateTestEv] }, align 8
@_ZTSN7testing8internal15TestFactoryImplIN12_GLOBAL__N_155RandenEngineTypedTest_VerifyReseedChangesAllValues_TestIjEEEE = internal constant [115 x i8] c"N7testing8internal15TestFactoryImplIN12_GLOBAL__N_155RandenEngineTypedTest_VerifyReseedChangesAllValues_TestIjEEEE\00", align 1
@_ZTIN7testing8internal15TestFactoryImplIN12_GLOBAL__N_155RandenEngineTypedTest_VerifyReseedChangesAllValues_TestIjEEEE = internal constant { ptr, ptr, ptr } { ptr getelementptr inbounds (ptr, ptr @_ZTVN10__cxxabiv120__si_class_type_infoE, i64 2), ptr @_ZTSN7testing8internal15TestFactoryImplIN12_GLOBAL__N_155RandenEngineTypedTest_VerifyReseedChangesAllValues_TestIjEEEE, ptr @_ZTIN7testing8internal15TestFactoryBaseE }, align 8
@_ZTVN12_GLOBAL__N_155RandenEngineTypedTest_VerifyReseedChangesAllValues_TestIjEE = internal unnamed_addr constant { [8 x ptr] } { [8 x ptr] [ptr null, ptr @_ZTIN12_GLOBAL__N_155RandenEngineTypedTest_VerifyReseedChangesAllValues_TestIjEE, ptr @_ZN12_GLOBAL__N_155RandenEngineTypedTest_VerifyReseedChangesAllValues_TestIjED2Ev, ptr @_ZN12_GLOBAL__N_155RandenEngineTypedTest_VerifyReseedChangesAllValues_TestIjED0Ev, ptr @_ZN7testing4Test5SetUpEv, ptr @_ZN7testing4Test8TearDownEv, ptr @_ZN12_GLOBAL__N_155RandenEngineTypedTest_VerifyReseedChangesAllValues_TestIjE8TestBodyEv, ptr @_ZN7testing4Test5SetupEv] }, align 8
@_ZTSN12_GLOBAL__N_155RandenEngineTypedTest_VerifyReseedChangesAllValues_TestIjEE = internal constant [77 x i8] c"N12_GLOBAL__N_155RandenEngineTypedTest_VerifyReseedChangesAllValues_TestIjEE\00", align 1
@_ZTSN12_GLOBAL__N_121RandenEngineTypedTestIjEE = internal constant [43 x i8] c"N12_GLOBAL__N_121RandenEngineTypedTestIjEE\00", align 1
@_ZTIN12_GLOBAL__N_121RandenEngineTypedTestIjEE = internal constant { ptr, ptr, ptr } { ptr getelementptr inbounds (ptr, ptr @_ZTVN10__cxxabiv120__si_class_type_infoE, i64 2), ptr @_ZTSN12_GLOBAL__N_121RandenEngineTypedTestIjEE, ptr @_ZTIN7testing4TestE }, align 8
@_ZTIN12_GLOBAL__N_155RandenEngineTypedTest_VerifyReseedChangesAllValues_TestIjEE = internal constant { ptr, ptr, ptr } { ptr getelementptr inbounds (ptr, ptr @_ZTVN10__cxxabiv120__si_class_type_infoE, i64 2), ptr @_ZTSN12_GLOBAL__N_155RandenEngineTypedTest_VerifyReseedChangesAllValues_TestIjEE, ptr @_ZTIN12_GLOBAL__N_121RandenEngineTypedTestIjEE }, align 8
@_ZTVN12_GLOBAL__N_121RandenEngineTypedTestIjEE = internal unnamed_addr constant { [8 x ptr] } { [8 x ptr] [ptr null, ptr @_ZTIN12_GLOBAL__N_121RandenEngineTypedTestIjEE, ptr @_ZN12_GLOBAL__N_121RandenEngineTypedTestIjED2Ev, ptr @_ZN12_GLOBAL__N_121RandenEngineTypedTestIjED0Ev, ptr @_ZN7testing4Test5SetUpEv, ptr @_ZN7testing4Test8TearDownEv, ptr @__cxa_pure_virtual, ptr @_ZN7testing4Test5SetupEv] }, align 8
@constinit.66 = private constant [7 x i32] [i32 1, i32 2, i32 3, i32 4, i32 5, i32 6, i32 7], align 4
@_ZTIm = external constant ptr
@_ZN7testing8internal12TypeIdHelperIN12_GLOBAL__N_121RandenEngineTypedTestImEEE6dummy_E = internal global i8 0, align 1
@_ZTVN7testing8internal15TestFactoryImplIN12_GLOBAL__N_155RandenEngineTypedTest_VerifyReseedChangesAllValues_TestImEEEE = internal unnamed_addr constant { [5 x ptr] } { [5 x ptr] [ptr null, ptr @_ZTIN7testing8internal15TestFactoryImplIN12_GLOBAL__N_155RandenEngineTypedTest_VerifyReseedChangesAllValues_TestImEEEE, ptr @_ZN7testing8internal15TestFactoryImplIN12_GLOBAL__N_155RandenEngineTypedTest_VerifyReseedChangesAllValues_TestImEEED2Ev, ptr @_ZN7testing8internal15TestFactoryImplIN12_GLOBAL__N_155RandenEngineTypedTest_VerifyReseedChangesAllValues_TestImEEED0Ev, ptr @_ZN7testing8internal15TestFactoryImplIN12_GLOBAL__N_155RandenEngineTypedTest_VerifyReseedChangesAllValues_TestImEEE10CreateTestEv] }, align 8
@_ZTSN7testing8internal15TestFactoryImplIN12_GLOBAL__N_155RandenEngineTypedTest_VerifyReseedChangesAllValues_TestImEEEE = internal constant [115 x i8] c"N7testing8internal15TestFactoryImplIN12_GLOBAL__N_155RandenEngineTypedTest_VerifyReseedChangesAllValues_TestImEEEE\00", align 1
@_ZTIN7testing8internal15TestFactoryImplIN12_GLOBAL__N_155RandenEngineTypedTest_VerifyReseedChangesAllValues_TestImEEEE = internal constant { ptr, ptr, ptr } { ptr getelementptr inbounds (ptr, ptr @_ZTVN10__cxxabiv120__si_class_type_infoE, i64 2), ptr @_ZTSN7testing8internal15TestFactoryImplIN12_GLOBAL__N_155RandenEngineTypedTest_VerifyReseedChangesAllValues_TestImEEEE, ptr @_ZTIN7testing8internal15TestFactoryBaseE }, align 8
@_ZTVN12_GLOBAL__N_155RandenEngineTypedTest_VerifyReseedChangesAllValues_TestImEE = internal unnamed_addr constant { [8 x ptr] } { [8 x ptr] [ptr null, ptr @_ZTIN12_GLOBAL__N_155RandenEngineTypedTest_VerifyReseedChangesAllValues_TestImEE, ptr @_ZN12_GLOBAL__N_155RandenEngineTypedTest_VerifyReseedChangesAllValues_TestImED2Ev, ptr @_ZN12_GLOBAL__N_155RandenEngineTypedTest_VerifyReseedChangesAllValues_TestImED0Ev, ptr @_ZN7testing4Test5SetUpEv, ptr @_ZN7testing4Test8TearDownEv, ptr @_ZN12_GLOBAL__N_155RandenEngineTypedTest_VerifyReseedChangesAllValues_TestImE8TestBodyEv, ptr @_ZN7testing4Test5SetupEv] }, align 8
@_ZTSN12_GLOBAL__N_155RandenEngineTypedTest_VerifyReseedChangesAllValues_TestImEE = internal constant [77 x i8] c"N12_GLOBAL__N_155RandenEngineTypedTest_VerifyReseedChangesAllValues_TestImEE\00", align 1
@_ZTSN12_GLOBAL__N_121RandenEngineTypedTestImEE = internal constant [43 x i8] c"N12_GLOBAL__N_121RandenEngineTypedTestImEE\00", align 1
@_ZTIN12_GLOBAL__N_121RandenEngineTypedTestImEE = internal constant { ptr, ptr, ptr } { ptr getelementptr inbounds (ptr, ptr @_ZTVN10__cxxabiv120__si_class_type_infoE, i64 2), ptr @_ZTSN12_GLOBAL__N_121RandenEngineTypedTestImEE, ptr @_ZTIN7testing4TestE }, align 8
@_ZTIN12_GLOBAL__N_155RandenEngineTypedTest_VerifyReseedChangesAllValues_TestImEE = internal constant { ptr, ptr, ptr } { ptr getelementptr inbounds (ptr, ptr @_ZTVN10__cxxabiv120__si_class_type_infoE, i64 2), ptr @_ZTSN12_GLOBAL__N_155RandenEngineTypedTest_VerifyReseedChangesAllValues_TestImEE, ptr @_ZTIN12_GLOBAL__N_121RandenEngineTypedTestImEE }, align 8
@_ZTVN12_GLOBAL__N_121RandenEngineTypedTestImEE = internal unnamed_addr constant { [8 x ptr] } { [8 x ptr] [ptr null, ptr @_ZTIN12_GLOBAL__N_121RandenEngineTypedTestImEE, ptr @_ZN12_GLOBAL__N_121RandenEngineTypedTestImED2Ev, ptr @_ZN12_GLOBAL__N_121RandenEngineTypedTestImED0Ev, ptr @_ZN7testing4Test5SetUpEv, ptr @_ZN7testing4Test8TearDownEv, ptr @__cxa_pure_virtual, ptr @_ZN7testing4Test5SetupEv] }, align 8
@constinit.67 = private constant [7 x i32] [i32 1, i32 2, i32 3, i32 4, i32 5, i32 6, i32 7], align 4
@_ZTVN7testing8internal15TestFactoryImplIN12_GLOBAL__N_140RandenEngineTypedTest_VerifyDiscard_TestIhEEEE = internal unnamed_addr constant { [5 x ptr] } { [5 x ptr] [ptr null, ptr @_ZTIN7testing8internal15TestFactoryImplIN12_GLOBAL__N_140RandenEngineTypedTest_VerifyDiscard_TestIhEEEE, ptr @_ZN7testing8internal15TestFactoryImplIN12_GLOBAL__N_140RandenEngineTypedTest_VerifyDiscard_TestIhEEED2Ev, ptr @_ZN7testing8internal15TestFactoryImplIN12_GLOBAL__N_140RandenEngineTypedTest_VerifyDiscard_TestIhEEED0Ev, ptr @_ZN7testing8internal15TestFactoryImplIN12_GLOBAL__N_140RandenEngineTypedTest_VerifyDiscard_TestIhEEE10CreateTestEv] }, align 8
@_ZTSN7testing8internal15TestFactoryImplIN12_GLOBAL__N_140RandenEngineTypedTest_VerifyDiscard_TestIhEEEE = internal constant [100 x i8] c"N7testing8internal15TestFactoryImplIN12_GLOBAL__N_140RandenEngineTypedTest_VerifyDiscard_TestIhEEEE\00", align 1
@_ZTIN7testing8internal15TestFactoryImplIN12_GLOBAL__N_140RandenEngineTypedTest_VerifyDiscard_TestIhEEEE = internal constant { ptr, ptr, ptr } { ptr getelementptr inbounds (ptr, ptr @_ZTVN10__cxxabiv120__si_class_type_infoE, i64 2), ptr @_ZTSN7testing8internal15TestFactoryImplIN12_GLOBAL__N_140RandenEngineTypedTest_VerifyDiscard_TestIhEEEE, ptr @_ZTIN7testing8internal15TestFactoryBaseE }, align 8
@_ZTVN12_GLOBAL__N_140RandenEngineTypedTest_VerifyDiscard_TestIhEE = internal unnamed_addr constant { [8 x ptr] } { [8 x ptr] [ptr null, ptr @_ZTIN12_GLOBAL__N_140RandenEngineTypedTest_VerifyDiscard_TestIhEE, ptr @_ZN12_GLOBAL__N_140RandenEngineTypedTest_VerifyDiscard_TestIhED2Ev, ptr @_ZN12_GLOBAL__N_140RandenEngineTypedTest_VerifyDiscard_TestIhED0Ev, ptr @_ZN7testing4Test5SetUpEv, ptr @_ZN7testing4Test8TearDownEv, ptr @_ZN12_GLOBAL__N_140RandenEngineTypedTest_VerifyDiscard_TestIhE8TestBodyEv, ptr @_ZN7testing4Test5SetupEv] }, align 8
@_ZTSN12_GLOBAL__N_140RandenEngineTypedTest_VerifyDiscard_TestIhEE = internal constant [62 x i8] c"N12_GLOBAL__N_140RandenEngineTypedTest_VerifyDiscard_TestIhEE\00", align 1
@_ZTIN12_GLOBAL__N_140RandenEngineTypedTest_VerifyDiscard_TestIhEE = internal constant { ptr, ptr, ptr } { ptr getelementptr inbounds (ptr, ptr @_ZTVN10__cxxabiv120__si_class_type_infoE, i64 2), ptr @_ZTSN12_GLOBAL__N_140RandenEngineTypedTest_VerifyDiscard_TestIhEE, ptr @_ZTIN12_GLOBAL__N_121RandenEngineTypedTestIhEE }, align 8
@.str.68 = private unnamed_addr constant [3 x i8] c"r1\00", align 1
@.str.69 = private unnamed_addr constant [3 x i8] c"r2\00", align 1
@.str.70 = private unnamed_addr constant [6 x i8] c"used=\00", align 1
@.str.71 = private unnamed_addr constant [10 x i8] c" discard=\00", align 1
@_ZTVN7testing8internal15TestFactoryImplIN12_GLOBAL__N_140RandenEngineTypedTest_VerifyDiscard_TestItEEEE = internal unnamed_addr constant { [5 x ptr] } { [5 x ptr] [ptr null, ptr @_ZTIN7testing8internal15TestFactoryImplIN12_GLOBAL__N_140RandenEngineTypedTest_VerifyDiscard_TestItEEEE, ptr @_ZN7testing8internal15TestFactoryImplIN12_GLOBAL__N_140RandenEngineTypedTest_VerifyDiscard_TestItEEED2Ev, ptr @_ZN7testing8internal15TestFactoryImplIN12_GLOBAL__N_140RandenEngineTypedTest_VerifyDiscard_TestItEEED0Ev, ptr @_ZN7testing8internal15TestFactoryImplIN12_GLOBAL__N_140RandenEngineTypedTest_VerifyDiscard_TestItEEE10CreateTestEv] }, align 8
@_ZTSN7testing8internal15TestFactoryImplIN12_GLOBAL__N_140RandenEngineTypedTest_VerifyDiscard_TestItEEEE = internal constant [100 x i8] c"N7testing8internal15TestFactoryImplIN12_GLOBAL__N_140RandenEngineTypedTest_VerifyDiscard_TestItEEEE\00", align 1
@_ZTIN7testing8internal15TestFactoryImplIN12_GLOBAL__N_140RandenEngineTypedTest_VerifyDiscard_TestItEEEE = internal constant { ptr, ptr, ptr } { ptr getelementptr inbounds (ptr, ptr @_ZTVN10__cxxabiv120__si_class_type_infoE, i64 2), ptr @_ZTSN7testing8internal15TestFactoryImplIN12_GLOBAL__N_140RandenEngineTypedTest_VerifyDiscard_TestItEEEE, ptr @_ZTIN7testing8internal15TestFactoryBaseE }, align 8
@_ZTVN12_GLOBAL__N_140RandenEngineTypedTest_VerifyDiscard_TestItEE = internal unnamed_addr constant { [8 x ptr] } { [8 x ptr] [ptr null, ptr @_ZTIN12_GLOBAL__N_140RandenEngineTypedTest_VerifyDiscard_TestItEE, ptr @_ZN12_GLOBAL__N_140RandenEngineTypedTest_VerifyDiscard_TestItED2Ev, ptr @_ZN12_GLOBAL__N_140RandenEngineTypedTest_VerifyDiscard_TestItED0Ev, ptr @_ZN7testing4Test5SetUpEv, ptr @_ZN7testing4Test8TearDownEv, ptr @_ZN12_GLOBAL__N_140RandenEngineTypedTest_VerifyDiscard_TestItE8TestBodyEv, ptr @_ZN7testing4Test5SetupEv] }, align 8
@_ZTSN12_GLOBAL__N_140RandenEngineTypedTest_VerifyDiscard_TestItEE = internal constant [62 x i8] c"N12_GLOBAL__N_140RandenEngineTypedTest_VerifyDiscard_TestItEE\00", align 1
@_ZTIN12_GLOBAL__N_140RandenEngineTypedTest_VerifyDiscard_TestItEE = internal constant { ptr, ptr, ptr } { ptr getelementptr inbounds (ptr, ptr @_ZTVN10__cxxabiv120__si_class_type_infoE, i64 2), ptr @_ZTSN12_GLOBAL__N_140RandenEngineTypedTest_VerifyDiscard_TestItEE, ptr @_ZTIN12_GLOBAL__N_121RandenEngineTypedTestItEE }, align 8
@_ZTVN7testing8internal15TestFactoryImplIN12_GLOBAL__N_140RandenEngineTypedTest_VerifyDiscard_TestIjEEEE = internal unnamed_addr constant { [5 x ptr] } { [5 x ptr] [ptr null, ptr @_ZTIN7testing8internal15TestFactoryImplIN12_GLOBAL__N_140RandenEngineTypedTest_VerifyDiscard_TestIjEEEE, ptr @_ZN7testing8internal15TestFactoryImplIN12_GLOBAL__N_140RandenEngineTypedTest_VerifyDiscard_TestIjEEED2Ev, ptr @_ZN7testing8internal15TestFactoryImplIN12_GLOBAL__N_140RandenEngineTypedTest_VerifyDiscard_TestIjEEED0Ev, ptr @_ZN7testing8internal15TestFactoryImplIN12_GLOBAL__N_140RandenEngineTypedTest_VerifyDiscard_TestIjEEE10CreateTestEv] }, align 8
@_ZTSN7testing8internal15TestFactoryImplIN12_GLOBAL__N_140RandenEngineTypedTest_VerifyDiscard_TestIjEEEE = internal constant [100 x i8] c"N7testing8internal15TestFactoryImplIN12_GLOBAL__N_140RandenEngineTypedTest_VerifyDiscard_TestIjEEEE\00", align 1
@_ZTIN7testing8internal15TestFactoryImplIN12_GLOBAL__N_140RandenEngineTypedTest_VerifyDiscard_TestIjEEEE = internal constant { ptr, ptr, ptr } { ptr getelementptr inbounds (ptr, ptr @_ZTVN10__cxxabiv120__si_class_type_infoE, i64 2), ptr @_ZTSN7testing8internal15TestFactoryImplIN12_GLOBAL__N_140RandenEngineTypedTest_VerifyDiscard_TestIjEEEE, ptr @_ZTIN7testing8internal15TestFactoryBaseE }, align 8
@_ZTVN12_GLOBAL__N_140RandenEngineTypedTest_VerifyDiscard_TestIjEE = internal unnamed_addr constant { [8 x ptr] } { [8 x ptr] [ptr null, ptr @_ZTIN12_GLOBAL__N_140RandenEngineTypedTest_VerifyDiscard_TestIjEE, ptr @_ZN12_GLOBAL__N_140RandenEngineTypedTest_VerifyDiscard_TestIjED2Ev, ptr @_ZN12_GLOBAL__N_140RandenEngineTypedTest_VerifyDiscard_TestIjED0Ev, ptr @_ZN7testing4Test5SetUpEv, ptr @_ZN7testing4Test8TearDownEv, ptr @_ZN12_GLOBAL__N_140RandenEngineTypedTest_VerifyDiscard_TestIjE8TestBodyEv, ptr @_ZN7testing4Test5SetupEv] }, align 8
@_ZTSN12_GLOBAL__N_140RandenEngineTypedTest_VerifyDiscard_TestIjEE = internal constant [62 x i8] c"N12_GLOBAL__N_140RandenEngineTypedTest_VerifyDiscard_TestIjEE\00", align 1
@_ZTIN12_GLOBAL__N_140RandenEngineTypedTest_VerifyDiscard_TestIjEE = internal constant { ptr, ptr, ptr } { ptr getelementptr inbounds (ptr, ptr @_ZTVN10__cxxabiv120__si_class_type_infoE, i64 2), ptr @_ZTSN12_GLOBAL__N_140RandenEngineTypedTest_VerifyDiscard_TestIjEE, ptr @_ZTIN12_GLOBAL__N_121RandenEngineTypedTestIjEE }, align 8
@_ZTVN7testing8internal15TestFactoryImplIN12_GLOBAL__N_140RandenEngineTypedTest_VerifyDiscard_TestImEEEE = internal unnamed_addr constant { [5 x ptr] } { [5 x ptr] [ptr null, ptr @_ZTIN7testing8internal15TestFactoryImplIN12_GLOBAL__N_140RandenEngineTypedTest_VerifyDiscard_TestImEEEE, ptr @_ZN7testing8internal15TestFactoryImplIN12_GLOBAL__N_140RandenEngineTypedTest_VerifyDiscard_TestImEEED2Ev, ptr @_ZN7testing8internal15TestFactoryImplIN12_GLOBAL__N_140RandenEngineTypedTest_VerifyDiscard_TestImEEED0Ev, ptr @_ZN7testing8internal15TestFactoryImplIN12_GLOBAL__N_140RandenEngineTypedTest_VerifyDiscard_TestImEEE10CreateTestEv] }, align 8
@_ZTSN7testing8internal15TestFactoryImplIN12_GLOBAL__N_140RandenEngineTypedTest_VerifyDiscard_TestImEEEE = internal constant [100 x i8] c"N7testing8internal15TestFactoryImplIN12_GLOBAL__N_140RandenEngineTypedTest_VerifyDiscard_TestImEEEE\00", align 1
@_ZTIN7testing8internal15TestFactoryImplIN12_GLOBAL__N_140RandenEngineTypedTest_VerifyDiscard_TestImEEEE = internal constant { ptr, ptr, ptr } { ptr getelementptr inbounds (ptr, ptr @_ZTVN10__cxxabiv120__si_class_type_infoE, i64 2), ptr @_ZTSN7testing8internal15TestFactoryImplIN12_GLOBAL__N_140RandenEngineTypedTest_VerifyDiscard_TestImEEEE, ptr @_ZTIN7testing8internal15TestFactoryBaseE }, align 8
@_ZTVN12_GLOBAL__N_140RandenEngineTypedTest_VerifyDiscard_TestImEE = internal unnamed_addr constant { [8 x ptr] } { [8 x ptr] [ptr null, ptr @_ZTIN12_GLOBAL__N_140RandenEngineTypedTest_VerifyDiscard_TestImEE, ptr @_ZN12_GLOBAL__N_140RandenEngineTypedTest_VerifyDiscard_TestImED2Ev, ptr @_ZN12_GLOBAL__N_140RandenEngineTypedTest_VerifyDiscard_TestImED0Ev, ptr @_ZN7testing4Test5SetUpEv, ptr @_ZN7testing4Test8TearDownEv, ptr @_ZN12_GLOBAL__N_140RandenEngineTypedTest_VerifyDiscard_TestImE8TestBodyEv, ptr @_ZN7testing4Test5SetupEv] }, align 8
@_ZTSN12_GLOBAL__N_140RandenEngineTypedTest_VerifyDiscard_TestImEE = internal constant [62 x i8] c"N12_GLOBAL__N_140RandenEngineTypedTest_VerifyDiscard_TestImEE\00", align 1
@_ZTIN12_GLOBAL__N_140RandenEngineTypedTest_VerifyDiscard_TestImEE = internal constant { ptr, ptr, ptr } { ptr getelementptr inbounds (ptr, ptr @_ZTVN10__cxxabiv120__si_class_type_infoE, i64 2), ptr @_ZTSN12_GLOBAL__N_140RandenEngineTypedTest_VerifyDiscard_TestImEE, ptr @_ZTIN12_GLOBAL__N_121RandenEngineTypedTestImEE }, align 8
@_ZTVN7testing8internal15TestFactoryImplIN12_GLOBAL__N_148RandenEngineTypedTest_StreamOperatorsResult_TestIhEEEE = internal unnamed_addr constant { [5 x ptr] } { [5 x ptr] [ptr null, ptr @_ZTIN7testing8internal15TestFactoryImplIN12_GLOBAL__N_148RandenEngineTypedTest_StreamOperatorsResult_TestIhEEEE, ptr @_ZN7testing8internal15TestFactoryImplIN12_GLOBAL__N_148RandenEngineTypedTest_StreamOperatorsResult_TestIhEEED2Ev, ptr @_ZN7testing8internal15TestFactoryImplIN12_GLOBAL__N_148RandenEngineTypedTest_StreamOperatorsResult_TestIhEEED0Ev, ptr @_ZN7testing8internal15TestFactoryImplIN12_GLOBAL__N_148RandenEngineTypedTest_StreamOperatorsResult_TestIhEEE10CreateTestEv] }, align 8
@_ZTSN7testing8internal15TestFactoryImplIN12_GLOBAL__N_148RandenEngineTypedTest_StreamOperatorsResult_TestIhEEEE = internal constant [108 x i8] c"N7testing8internal15TestFactoryImplIN12_GLOBAL__N_148RandenEngineTypedTest_StreamOperatorsResult_TestIhEEEE\00", align 1
@_ZTIN7testing8internal15TestFactoryImplIN12_GLOBAL__N_148RandenEngineTypedTest_StreamOperatorsResult_TestIhEEEE = internal constant { ptr, ptr, ptr } { ptr getelementptr inbounds (ptr, ptr @_ZTVN10__cxxabiv120__si_class_type_infoE, i64 2), ptr @_ZTSN7testing8internal15TestFactoryImplIN12_GLOBAL__N_148RandenEngineTypedTest_StreamOperatorsResult_TestIhEEEE, ptr @_ZTIN7testing8internal15TestFactoryBaseE }, align 8
@_ZTVN12_GLOBAL__N_148RandenEngineTypedTest_StreamOperatorsResult_TestIhEE = internal unnamed_addr constant { [8 x ptr] } { [8 x ptr] [ptr null, ptr @_ZTIN12_GLOBAL__N_148RandenEngineTypedTest_StreamOperatorsResult_TestIhEE, ptr @_ZN12_GLOBAL__N_148RandenEngineTypedTest_StreamOperatorsResult_TestIhED2Ev, ptr @_ZN12_GLOBAL__N_148RandenEngineTypedTest_StreamOperatorsResult_TestIhED0Ev, ptr @_ZN7testing4Test5SetUpEv, ptr @_ZN7testing4Test8TearDownEv, ptr @_ZN12_GLOBAL__N_148RandenEngineTypedTest_StreamOperatorsResult_TestIhE8TestBodyEv, ptr @_ZN7testing4Test5SetupEv] }, align 8
@_ZTSN12_GLOBAL__N_148RandenEngineTypedTest_StreamOperatorsResult_TestIhEE = internal constant [70 x i8] c"N12_GLOBAL__N_148RandenEngineTypedTest_StreamOperatorsResult_TestIhEE\00", align 1
@_ZTIN12_GLOBAL__N_148RandenEngineTypedTest_StreamOperatorsResult_TestIhEE = internal constant { ptr, ptr, ptr } { ptr getelementptr inbounds (ptr, ptr @_ZTVN10__cxxabiv120__si_class_type_infoE, i64 2), ptr @_ZTSN12_GLOBAL__N_148RandenEngineTypedTest_StreamOperatorsResult_TestIhEE, ptr @_ZTIN12_GLOBAL__N_121RandenEngineTypedTestIhEE }, align 8
@.str.72 = private unnamed_addr constant [16 x i8] c"&(os << engine)\00", align 1
@.str.73 = private unnamed_addr constant [4 x i8] c"&os\00", align 1
@.str.74 = private unnamed_addr constant [16 x i8] c"&(is >> engine)\00", align 1
@.str.75 = private unnamed_addr constant [4 x i8] c"&is\00", align 1
@.str.76 = private unnamed_addr constant [5 x i8] c"NULL\00", align 1
@_ZTVN7testing8internal15TestFactoryImplIN12_GLOBAL__N_148RandenEngineTypedTest_StreamOperatorsResult_TestItEEEE = internal unnamed_addr constant { [5 x ptr] } { [5 x ptr] [ptr null, ptr @_ZTIN7testing8internal15TestFactoryImplIN12_GLOBAL__N_148RandenEngineTypedTest_StreamOperatorsResult_TestItEEEE, ptr @_ZN7testing8internal15TestFactoryImplIN12_GLOBAL__N_148RandenEngineTypedTest_StreamOperatorsResult_TestItEEED2Ev, ptr @_ZN7testing8internal15TestFactoryImplIN12_GLOBAL__N_148RandenEngineTypedTest_StreamOperatorsResult_TestItEEED0Ev, ptr @_ZN7testing8internal15TestFactoryImplIN12_GLOBAL__N_148RandenEngineTypedTest_StreamOperatorsResult_TestItEEE10CreateTestEv] }, align 8
@_ZTSN7testing8internal15TestFactoryImplIN12_GLOBAL__N_148RandenEngineTypedTest_StreamOperatorsResult_TestItEEEE = internal constant [108 x i8] c"N7testing8internal15TestFactoryImplIN12_GLOBAL__N_148RandenEngineTypedTest_StreamOperatorsResult_TestItEEEE\00", align 1
@_ZTIN7testing8internal15TestFactoryImplIN12_GLOBAL__N_148RandenEngineTypedTest_StreamOperatorsResult_TestItEEEE = internal constant { ptr, ptr, ptr } { ptr getelementptr inbounds (ptr, ptr @_ZTVN10__cxxabiv120__si_class_type_infoE, i64 2), ptr @_ZTSN7testing8internal15TestFactoryImplIN12_GLOBAL__N_148RandenEngineTypedTest_StreamOperatorsResult_TestItEEEE, ptr @_ZTIN7testing8internal15TestFactoryBaseE }, align 8
@_ZTVN12_GLOBAL__N_148RandenEngineTypedTest_StreamOperatorsResult_TestItEE = internal unnamed_addr constant { [8 x ptr] } { [8 x ptr] [ptr null, ptr @_ZTIN12_GLOBAL__N_148RandenEngineTypedTest_StreamOperatorsResult_TestItEE, ptr @_ZN12_GLOBAL__N_148RandenEngineTypedTest_StreamOperatorsResult_TestItED2Ev, ptr @_ZN12_GLOBAL__N_148RandenEngineTypedTest_StreamOperatorsResult_TestItED0Ev, ptr @_ZN7testing4Test5SetUpEv, ptr @_ZN7testing4Test8TearDownEv, ptr @_ZN12_GLOBAL__N_148RandenEngineTypedTest_StreamOperatorsResult_TestItE8TestBodyEv, ptr @_ZN7testing4Test5SetupEv] }, align 8
@_ZTSN12_GLOBAL__N_148RandenEngineTypedTest_StreamOperatorsResult_TestItEE = internal constant [70 x i8] c"N12_GLOBAL__N_148RandenEngineTypedTest_StreamOperatorsResult_TestItEE\00", align 1
@_ZTIN12_GLOBAL__N_148RandenEngineTypedTest_StreamOperatorsResult_TestItEE = internal constant { ptr, ptr, ptr } { ptr getelementptr inbounds (ptr, ptr @_ZTVN10__cxxabiv120__si_class_type_infoE, i64 2), ptr @_ZTSN12_GLOBAL__N_148RandenEngineTypedTest_StreamOperatorsResult_TestItEE, ptr @_ZTIN12_GLOBAL__N_121RandenEngineTypedTestItEE }, align 8
@_ZTVN7testing8internal15TestFactoryImplIN12_GLOBAL__N_148RandenEngineTypedTest_StreamOperatorsResult_TestIjEEEE = internal unnamed_addr constant { [5 x ptr] } { [5 x ptr] [ptr null, ptr @_ZTIN7testing8internal15TestFactoryImplIN12_GLOBAL__N_148RandenEngineTypedTest_StreamOperatorsResult_TestIjEEEE, ptr @_ZN7testing8internal15TestFactoryImplIN12_GLOBAL__N_148RandenEngineTypedTest_StreamOperatorsResult_TestIjEEED2Ev, ptr @_ZN7testing8internal15TestFactoryImplIN12_GLOBAL__N_148RandenEngineTypedTest_StreamOperatorsResult_TestIjEEED0Ev, ptr @_ZN7testing8internal15TestFactoryImplIN12_GLOBAL__N_148RandenEngineTypedTest_StreamOperatorsResult_TestIjEEE10CreateTestEv] }, align 8
@_ZTSN7testing8internal15TestFactoryImplIN12_GLOBAL__N_148RandenEngineTypedTest_StreamOperatorsResult_TestIjEEEE = internal constant [108 x i8] c"N7testing8internal15TestFactoryImplIN12_GLOBAL__N_148RandenEngineTypedTest_StreamOperatorsResult_TestIjEEEE\00", align 1
@_ZTIN7testing8internal15TestFactoryImplIN12_GLOBAL__N_148RandenEngineTypedTest_StreamOperatorsResult_TestIjEEEE = internal constant { ptr, ptr, ptr } { ptr getelementptr inbounds (ptr, ptr @_ZTVN10__cxxabiv120__si_class_type_infoE, i64 2), ptr @_ZTSN7testing8internal15TestFactoryImplIN12_GLOBAL__N_148RandenEngineTypedTest_StreamOperatorsResult_TestIjEEEE, ptr @_ZTIN7testing8internal15TestFactoryBaseE }, align 8
@_ZTVN12_GLOBAL__N_148RandenEngineTypedTest_StreamOperatorsResult_TestIjEE = internal unnamed_addr constant { [8 x ptr] } { [8 x ptr] [ptr null, ptr @_ZTIN12_GLOBAL__N_148RandenEngineTypedTest_StreamOperatorsResult_TestIjEE, ptr @_ZN12_GLOBAL__N_148RandenEngineTypedTest_StreamOperatorsResult_TestIjED2Ev, ptr @_ZN12_GLOBAL__N_148RandenEngineTypedTest_StreamOperatorsResult_TestIjED0Ev, ptr @_ZN7testing4Test5SetUpEv, ptr @_ZN7testing4Test8TearDownEv, ptr @_ZN12_GLOBAL__N_148RandenEngineTypedTest_StreamOperatorsResult_TestIjE8TestBodyEv, ptr @_ZN7testing4Test5SetupEv] }, align 8
@_ZTSN12_GLOBAL__N_148RandenEngineTypedTest_StreamOperatorsResult_TestIjEE = internal constant [70 x i8] c"N12_GLOBAL__N_148RandenEngineTypedTest_StreamOperatorsResult_TestIjEE\00", align 1
@_ZTIN12_GLOBAL__N_148RandenEngineTypedTest_StreamOperatorsResult_TestIjEE = internal constant { ptr, ptr, ptr } { ptr getelementptr inbounds (ptr, ptr @_ZTVN10__cxxabiv120__si_class_type_infoE, i64 2), ptr @_ZTSN12_GLOBAL__N_148RandenEngineTypedTest_StreamOperatorsResult_TestIjEE, ptr @_ZTIN12_GLOBAL__N_121RandenEngineTypedTestIjEE }, align 8
@_ZTVN7testing8internal15TestFactoryImplIN12_GLOBAL__N_148RandenEngineTypedTest_StreamOperatorsResult_TestImEEEE = internal unnamed_addr constant { [5 x ptr] } { [5 x ptr] [ptr null, ptr @_ZTIN7testing8internal15TestFactoryImplIN12_GLOBAL__N_148RandenEngineTypedTest_StreamOperatorsResult_TestImEEEE, ptr @_ZN7testing8internal15TestFactoryImplIN12_GLOBAL__N_148RandenEngineTypedTest_StreamOperatorsResult_TestImEEED2Ev, ptr @_ZN7testing8internal15TestFactoryImplIN12_GLOBAL__N_148RandenEngineTypedTest_StreamOperatorsResult_TestImEEED0Ev, ptr @_ZN7testing8internal15TestFactoryImplIN12_GLOBAL__N_148RandenEngineTypedTest_StreamOperatorsResult_TestImEEE10CreateTestEv] }, align 8
@_ZTSN7testing8internal15TestFactoryImplIN12_GLOBAL__N_148RandenEngineTypedTest_StreamOperatorsResult_TestImEEEE = internal constant [108 x i8] c"N7testing8internal15TestFactoryImplIN12_GLOBAL__N_148RandenEngineTypedTest_StreamOperatorsResult_TestImEEEE\00", align 1
@_ZTIN7testing8internal15TestFactoryImplIN12_GLOBAL__N_148RandenEngineTypedTest_StreamOperatorsResult_TestImEEEE = internal constant { ptr, ptr, ptr } { ptr getelementptr inbounds (ptr, ptr @_ZTVN10__cxxabiv120__si_class_type_infoE, i64 2), ptr @_ZTSN7testing8internal15TestFactoryImplIN12_GLOBAL__N_148RandenEngineTypedTest_StreamOperatorsResult_TestImEEEE, ptr @_ZTIN7testing8internal15TestFactoryBaseE }, align 8
@_ZTVN12_GLOBAL__N_148RandenEngineTypedTest_StreamOperatorsResult_TestImEE = internal unnamed_addr constant { [8 x ptr] } { [8 x ptr] [ptr null, ptr @_ZTIN12_GLOBAL__N_148RandenEngineTypedTest_StreamOperatorsResult_TestImEE, ptr @_ZN12_GLOBAL__N_148RandenEngineTypedTest_StreamOperatorsResult_TestImED2Ev, ptr @_ZN12_GLOBAL__N_148RandenEngineTypedTest_StreamOperatorsResult_TestImED0Ev, ptr @_ZN7testing4Test5SetUpEv, ptr @_ZN7testing4Test8TearDownEv, ptr @_ZN12_GLOBAL__N_148RandenEngineTypedTest_StreamOperatorsResult_TestImE8TestBodyEv, ptr @_ZN7testing4Test5SetupEv] }, align 8
@_ZTSN12_GLOBAL__N_148RandenEngineTypedTest_StreamOperatorsResult_TestImEE = internal constant [70 x i8] c"N12_GLOBAL__N_148RandenEngineTypedTest_StreamOperatorsResult_TestImEE\00", align 1
@_ZTIN12_GLOBAL__N_148RandenEngineTypedTest_StreamOperatorsResult_TestImEE = internal constant { ptr, ptr, ptr } { ptr getelementptr inbounds (ptr, ptr @_ZTVN10__cxxabiv120__si_class_type_infoE, i64 2), ptr @_ZTSN12_GLOBAL__N_148RandenEngineTypedTest_StreamOperatorsResult_TestImEE, ptr @_ZTIN12_GLOBAL__N_121RandenEngineTypedTestImEE }, align 8
@_ZTVN7testing8internal15TestFactoryImplIN12_GLOBAL__N_146RandenEngineTypedTest_StreamSerialization_TestIhEEEE = internal unnamed_addr constant { [5 x ptr] } { [5 x ptr] [ptr null, ptr @_ZTIN7testing8internal15TestFactoryImplIN12_GLOBAL__N_146RandenEngineTypedTest_StreamSerialization_TestIhEEEE, ptr @_ZN7testing8internal15TestFactoryImplIN12_GLOBAL__N_146RandenEngineTypedTest_StreamSerialization_TestIhEEED2Ev, ptr @_ZN7testing8internal15TestFactoryImplIN12_GLOBAL__N_146RandenEngineTypedTest_StreamSerialization_TestIhEEED0Ev, ptr @_ZN7testing8internal15TestFactoryImplIN12_GLOBAL__N_146RandenEngineTypedTest_StreamSerialization_TestIhEEE10CreateTestEv] }, align 8
@_ZTSN7testing8internal15TestFactoryImplIN12_GLOBAL__N_146RandenEngineTypedTest_StreamSerialization_TestIhEEEE = internal constant [106 x i8] c"N7testing8internal15TestFactoryImplIN12_GLOBAL__N_146RandenEngineTypedTest_StreamSerialization_TestIhEEEE\00", align 1
@_ZTIN7testing8internal15TestFactoryImplIN12_GLOBAL__N_146RandenEngineTypedTest_StreamSerialization_TestIhEEEE = internal constant { ptr, ptr, ptr } { ptr getelementptr inbounds (ptr, ptr @_ZTVN10__cxxabiv120__si_class_type_infoE, i64 2), ptr @_ZTSN7testing8internal15TestFactoryImplIN12_GLOBAL__N_146RandenEngineTypedTest_StreamSerialization_TestIhEEEE, ptr @_ZTIN7testing8internal15TestFactoryBaseE }, align 8
@_ZTVN12_GLOBAL__N_146RandenEngineTypedTest_StreamSerialization_TestIhEE = internal unnamed_addr constant { [8 x ptr] } { [8 x ptr] [ptr null, ptr @_ZTIN12_GLOBAL__N_146RandenEngineTypedTest_StreamSerialization_TestIhEE, ptr @_ZN12_GLOBAL__N_146RandenEngineTypedTest_StreamSerialization_TestIhED2Ev, ptr @_ZN12_GLOBAL__N_146RandenEngineTypedTest_StreamSerialization_TestIhED0Ev, ptr @_ZN7testing4Test5SetUpEv, ptr @_ZN7testing4Test8TearDownEv, ptr @_ZN12_GLOBAL__N_146RandenEngineTypedTest_StreamSerialization_TestIhE8TestBodyEv, ptr @_ZN7testing4Test5SetupEv] }, align 8
@_ZTSN12_GLOBAL__N_146RandenEngineTypedTest_StreamSerialization_TestIhEE = internal constant [68 x i8] c"N12_GLOBAL__N_146RandenEngineTypedTest_StreamSerialization_TestIhEE\00", align 1
@_ZTIN12_GLOBAL__N_146RandenEngineTypedTest_StreamSerialization_TestIhEE = internal constant { ptr, ptr, ptr } { ptr getelementptr inbounds (ptr, ptr @_ZTVN10__cxxabiv120__si_class_type_infoE, i64 2), ptr @_ZTSN12_GLOBAL__N_146RandenEngineTypedTest_StreamSerialization_TestIhEE, ptr @_ZTIN12_GLOBAL__N_121RandenEngineTypedTestIhEE }, align 8
@.str.77 = private unnamed_addr constant [13 x i8] c"new_engine()\00", align 1
@.str.78 = private unnamed_addr constant [2 x i8] c" \00", align 1
@_ZTVN7testing8internal15TestFactoryImplIN12_GLOBAL__N_146RandenEngineTypedTest_StreamSerialization_TestItEEEE = internal unnamed_addr constant { [5 x ptr] } { [5 x ptr] [ptr null, ptr @_ZTIN7testing8internal15TestFactoryImplIN12_GLOBAL__N_146RandenEngineTypedTest_StreamSerialization_TestItEEEE, ptr @_ZN7testing8internal15TestFactoryImplIN12_GLOBAL__N_146RandenEngineTypedTest_StreamSerialization_TestItEEED2Ev, ptr @_ZN7testing8internal15TestFactoryImplIN12_GLOBAL__N_146RandenEngineTypedTest_StreamSerialization_TestItEEED0Ev, ptr @_ZN7testing8internal15TestFactoryImplIN12_GLOBAL__N_146RandenEngineTypedTest_StreamSerialization_TestItEEE10CreateTestEv] }, align 8
@_ZTSN7testing8internal15TestFactoryImplIN12_GLOBAL__N_146RandenEngineTypedTest_StreamSerialization_TestItEEEE = internal constant [106 x i8] c"N7testing8internal15TestFactoryImplIN12_GLOBAL__N_146RandenEngineTypedTest_StreamSerialization_TestItEEEE\00", align 1
@_ZTIN7testing8internal15TestFactoryImplIN12_GLOBAL__N_146RandenEngineTypedTest_StreamSerialization_TestItEEEE = internal constant { ptr, ptr, ptr } { ptr getelementptr inbounds (ptr, ptr @_ZTVN10__cxxabiv120__si_class_type_infoE, i64 2), ptr @_ZTSN7testing8internal15TestFactoryImplIN12_GLOBAL__N_146RandenEngineTypedTest_StreamSerialization_TestItEEEE, ptr @_ZTIN7testing8internal15TestFactoryBaseE }, align 8
@_ZTVN12_GLOBAL__N_146RandenEngineTypedTest_StreamSerialization_TestItEE = internal unnamed_addr constant { [8 x ptr] } { [8 x ptr] [ptr null, ptr @_ZTIN12_GLOBAL__N_146RandenEngineTypedTest_StreamSerialization_TestItEE, ptr @_ZN12_GLOBAL__N_146RandenEngineTypedTest_StreamSerialization_TestItED2Ev, ptr @_ZN12_GLOBAL__N_146RandenEngineTypedTest_StreamSerialization_TestItED0Ev, ptr @_ZN7testing4Test5SetUpEv, ptr @_ZN7testing4Test8TearDownEv, ptr @_ZN12_GLOBAL__N_146RandenEngineTypedTest_StreamSerialization_TestItE8TestBodyEv, ptr @_ZN7testing4Test5SetupEv] }, align 8
@_ZTSN12_GLOBAL__N_146RandenEngineTypedTest_StreamSerialization_TestItEE = internal constant [68 x i8] c"N12_GLOBAL__N_146RandenEngineTypedTest_StreamSerialization_TestItEE\00", align 1
@_ZTIN12_GLOBAL__N_146RandenEngineTypedTest_StreamSerialization_TestItEE = internal constant { ptr, ptr, ptr } { ptr getelementptr inbounds (ptr, ptr @_ZTVN10__cxxabiv120__si_class_type_infoE, i64 2), ptr @_ZTSN12_GLOBAL__N_146RandenEngineTypedTest_StreamSerialization_TestItEE, ptr @_ZTIN12_GLOBAL__N_121RandenEngineTypedTestItEE }, align 8
@_ZTVN7testing8internal15TestFactoryImplIN12_GLOBAL__N_146RandenEngineTypedTest_StreamSerialization_TestIjEEEE = internal unnamed_addr constant { [5 x ptr] } { [5 x ptr] [ptr null, ptr @_ZTIN7testing8internal15TestFactoryImplIN12_GLOBAL__N_146RandenEngineTypedTest_StreamSerialization_TestIjEEEE, ptr @_ZN7testing8internal15TestFactoryImplIN12_GLOBAL__N_146RandenEngineTypedTest_StreamSerialization_TestIjEEED2Ev, ptr @_ZN7testing8internal15TestFactoryImplIN12_GLOBAL__N_146RandenEngineTypedTest_StreamSerialization_TestIjEEED0Ev, ptr @_ZN7testing8internal15TestFactoryImplIN12_GLOBAL__N_146RandenEngineTypedTest_StreamSerialization_TestIjEEE10CreateTestEv] }, align 8
@_ZTSN7testing8internal15TestFactoryImplIN12_GLOBAL__N_146RandenEngineTypedTest_StreamSerialization_TestIjEEEE = internal constant [106 x i8] c"N7testing8internal15TestFactoryImplIN12_GLOBAL__N_146RandenEngineTypedTest_StreamSerialization_TestIjEEEE\00", align 1
@_ZTIN7testing8internal15TestFactoryImplIN12_GLOBAL__N_146RandenEngineTypedTest_StreamSerialization_TestIjEEEE = internal constant { ptr, ptr, ptr } { ptr getelementptr inbounds (ptr, ptr @_ZTVN10__cxxabiv120__si_class_type_infoE, i64 2), ptr @_ZTSN7testing8internal15TestFactoryImplIN12_GLOBAL__N_146RandenEngineTypedTest_StreamSerialization_TestIjEEEE, ptr @_ZTIN7testing8internal15TestFactoryBaseE }, align 8
@_ZTVN12_GLOBAL__N_146RandenEngineTypedTest_StreamSerialization_TestIjEE = internal unnamed_addr constant { [8 x ptr] } { [8 x ptr] [ptr null, ptr @_ZTIN12_GLOBAL__N_146RandenEngineTypedTest_StreamSerialization_TestIjEE, ptr @_ZN12_GLOBAL__N_146RandenEngineTypedTest_StreamSerialization_TestIjED2Ev, ptr @_ZN12_GLOBAL__N_146RandenEngineTypedTest_StreamSerialization_TestIjED0Ev, ptr @_ZN7testing4Test5SetUpEv, ptr @_ZN7testing4Test8TearDownEv, ptr @_ZN12_GLOBAL__N_146RandenEngineTypedTest_StreamSerialization_TestIjE8TestBodyEv, ptr @_ZN7testing4Test5SetupEv] }, align 8
@_ZTSN12_GLOBAL__N_146RandenEngineTypedTest_StreamSerialization_TestIjEE = internal constant [68 x i8] c"N12_GLOBAL__N_146RandenEngineTypedTest_StreamSerialization_TestIjEE\00", align 1
@_ZTIN12_GLOBAL__N_146RandenEngineTypedTest_StreamSerialization_TestIjEE = internal constant { ptr, ptr, ptr } { ptr getelementptr inbounds (ptr, ptr @_ZTVN10__cxxabiv120__si_class_type_infoE, i64 2), ptr @_ZTSN12_GLOBAL__N_146RandenEngineTypedTest_StreamSerialization_TestIjEE, ptr @_ZTIN12_GLOBAL__N_121RandenEngineTypedTestIjEE }, align 8
@_ZTVN7testing8internal15TestFactoryImplIN12_GLOBAL__N_146RandenEngineTypedTest_StreamSerialization_TestImEEEE = internal unnamed_addr constant { [5 x ptr] } { [5 x ptr] [ptr null, ptr @_ZTIN7testing8internal15TestFactoryImplIN12_GLOBAL__N_146RandenEngineTypedTest_StreamSerialization_TestImEEEE, ptr @_ZN7testing8internal15TestFactoryImplIN12_GLOBAL__N_146RandenEngineTypedTest_StreamSerialization_TestImEEED2Ev, ptr @_ZN7testing8internal15TestFactoryImplIN12_GLOBAL__N_146RandenEngineTypedTest_StreamSerialization_TestImEEED0Ev, ptr @_ZN7testing8internal15TestFactoryImplIN12_GLOBAL__N_146RandenEngineTypedTest_StreamSerialization_TestImEEE10CreateTestEv] }, align 8
@_ZTSN7testing8internal15TestFactoryImplIN12_GLOBAL__N_146RandenEngineTypedTest_StreamSerialization_TestImEEEE = internal constant [106 x i8] c"N7testing8internal15TestFactoryImplIN12_GLOBAL__N_146RandenEngineTypedTest_StreamSerialization_TestImEEEE\00", align 1
@_ZTIN7testing8internal15TestFactoryImplIN12_GLOBAL__N_146RandenEngineTypedTest_StreamSerialization_TestImEEEE = internal constant { ptr, ptr, ptr } { ptr getelementptr inbounds (ptr, ptr @_ZTVN10__cxxabiv120__si_class_type_infoE, i64 2), ptr @_ZTSN7testing8internal15TestFactoryImplIN12_GLOBAL__N_146RandenEngineTypedTest_StreamSerialization_TestImEEEE, ptr @_ZTIN7testing8internal15TestFactoryBaseE }, align 8
@_ZTVN12_GLOBAL__N_146RandenEngineTypedTest_StreamSerialization_TestImEE = internal unnamed_addr constant { [8 x ptr] } { [8 x ptr] [ptr null, ptr @_ZTIN12_GLOBAL__N_146RandenEngineTypedTest_StreamSerialization_TestImEE, ptr @_ZN12_GLOBAL__N_146RandenEngineTypedTest_StreamSerialization_TestImED2Ev, ptr @_ZN12_GLOBAL__N_146RandenEngineTypedTest_StreamSerialization_TestImED0Ev, ptr @_ZN7testing4Test5SetUpEv, ptr @_ZN7testing4Test8TearDownEv, ptr @_ZN12_GLOBAL__N_146RandenEngineTypedTest_StreamSerialization_TestImE8TestBodyEv, ptr @_ZN7testing4Test5SetupEv] }, align 8
@_ZTSN12_GLOBAL__N_146RandenEngineTypedTest_StreamSerialization_TestImEE = internal constant [68 x i8] c"N12_GLOBAL__N_146RandenEngineTypedTest_StreamSerialization_TestImEE\00", align 1
@_ZTIN12_GLOBAL__N_146RandenEngineTypedTest_StreamSerialization_TestImEE = internal constant { ptr, ptr, ptr } { ptr getelementptr inbounds (ptr, ptr @_ZTVN10__cxxabiv120__si_class_type_infoE, i64 2), ptr @_ZTSN12_GLOBAL__N_146RandenEngineTypedTest_StreamSerialization_TestImEE, ptr @_ZTIN12_GLOBAL__N_121RandenEngineTypedTestImEE }, align 8
@_ZTVN7testing8internal15TestFactoryImplIN12_GLOBAL__N_154RandenEngineTypedTest_RandomNumberEngineInterface_TestIhEEEE = internal unnamed_addr constant { [5 x ptr] } { [5 x ptr] [ptr null, ptr @_ZTIN7testing8internal15TestFactoryImplIN12_GLOBAL__N_154RandenEngineTypedTest_RandomNumberEngineInterface_TestIhEEEE, ptr @_ZN7testing8internal15TestFactoryImplIN12_GLOBAL__N_154RandenEngineTypedTest_RandomNumberEngineInterface_TestIhEEED2Ev, ptr @_ZN7testing8internal15TestFactoryImplIN12_GLOBAL__N_154RandenEngineTypedTest_RandomNumberEngineInterface_TestIhEEED0Ev, ptr @_ZN7testing8internal15TestFactoryImplIN12_GLOBAL__N_154RandenEngineTypedTest_RandomNumberEngineInterface_TestIhEEE10CreateTestEv] }, align 8
@_ZTSN7testing8internal15TestFactoryImplIN12_GLOBAL__N_154RandenEngineTypedTest_RandomNumberEngineInterface_TestIhEEEE = internal constant [114 x i8] c"N7testing8internal15TestFactoryImplIN12_GLOBAL__N_154RandenEngineTypedTest_RandomNumberEngineInterface_TestIhEEEE\00", align 1
@_ZTIN7testing8internal15TestFactoryImplIN12_GLOBAL__N_154RandenEngineTypedTest_RandomNumberEngineInterface_TestIhEEEE = internal constant { ptr, ptr, ptr } { ptr getelementptr inbounds (ptr, ptr @_ZTVN10__cxxabiv120__si_class_type_infoE, i64 2), ptr @_ZTSN7testing8internal15TestFactoryImplIN12_GLOBAL__N_154RandenEngineTypedTest_RandomNumberEngineInterface_TestIhEEEE, ptr @_ZTIN7testing8internal15TestFactoryBaseE }, align 8
@_ZTVN12_GLOBAL__N_154RandenEngineTypedTest_RandomNumberEngineInterface_TestIhEE = internal unnamed_addr constant { [8 x ptr] } { [8 x ptr] [ptr null, ptr @_ZTIN12_GLOBAL__N_154RandenEngineTypedTest_RandomNumberEngineInterface_TestIhEE, ptr @_ZN12_GLOBAL__N_154RandenEngineTypedTest_RandomNumberEngineInterface_TestIhED2Ev, ptr @_ZN12_GLOBAL__N_154RandenEngineTypedTest_RandomNumberEngineInterface_TestIhED0Ev, ptr @_ZN7testing4Test5SetUpEv, ptr @_ZN7testing4Test8TearDownEv, ptr @_ZN12_GLOBAL__N_154RandenEngineTypedTest_RandomNumberEngineInterface_TestIhE8TestBodyEv, ptr @_ZN7testing4Test5SetupEv] }, align 8
@_ZTSN12_GLOBAL__N_154RandenEngineTypedTest_RandomNumberEngineInterface_TestIhEE = internal constant [76 x i8] c"N12_GLOBAL__N_154RandenEngineTypedTest_RandomNumberEngineInterface_TestIhEE\00", align 1
@_ZTIN12_GLOBAL__N_154RandenEngineTypedTest_RandomNumberEngineInterface_TestIhEE = internal constant { ptr, ptr, ptr } { ptr getelementptr inbounds (ptr, ptr @_ZTVN10__cxxabiv120__si_class_type_infoE, i64 2), ptr @_ZTSN12_GLOBAL__N_154RandenEngineTypedTest_RandomNumberEngineInterface_TestIhEE, ptr @_ZTIN12_GLOBAL__N_121RandenEngineTypedTestIhEE }, align 8
@.str.79 = private unnamed_addr constant [7 x i8] c"e == x\00", align 1
@.str.80 = private unnamed_addr constant [6 x i8] c"false\00", align 1
@.str.81 = private unnamed_addr constant [5 x i8] c"true\00", align 1
@.str.82 = private unnamed_addr constant [9 x i8] c"e == tmp\00", align 1
@.str.83 = private unnamed_addr constant [9 x i8] c"e != tmp\00", align 1
@_ZTVN7testing8internal15TestFactoryImplIN12_GLOBAL__N_154RandenEngineTypedTest_RandomNumberEngineInterface_TestItEEEE = internal unnamed_addr constant { [5 x ptr] } { [5 x ptr] [ptr null, ptr @_ZTIN7testing8internal15TestFactoryImplIN12_GLOBAL__N_154RandenEngineTypedTest_RandomNumberEngineInterface_TestItEEEE, ptr @_ZN7testing8internal15TestFactoryImplIN12_GLOBAL__N_154RandenEngineTypedTest_RandomNumberEngineInterface_TestItEEED2Ev, ptr @_ZN7testing8internal15TestFactoryImplIN12_GLOBAL__N_154RandenEngineTypedTest_RandomNumberEngineInterface_TestItEEED0Ev, ptr @_ZN7testing8internal15TestFactoryImplIN12_GLOBAL__N_154RandenEngineTypedTest_RandomNumberEngineInterface_TestItEEE10CreateTestEv] }, align 8
@_ZTSN7testing8internal15TestFactoryImplIN12_GLOBAL__N_154RandenEngineTypedTest_RandomNumberEngineInterface_TestItEEEE = internal constant [114 x i8] c"N7testing8internal15TestFactoryImplIN12_GLOBAL__N_154RandenEngineTypedTest_RandomNumberEngineInterface_TestItEEEE\00", align 1
@_ZTIN7testing8internal15TestFactoryImplIN12_GLOBAL__N_154RandenEngineTypedTest_RandomNumberEngineInterface_TestItEEEE = internal constant { ptr, ptr, ptr } { ptr getelementptr inbounds (ptr, ptr @_ZTVN10__cxxabiv120__si_class_type_infoE, i64 2), ptr @_ZTSN7testing8internal15TestFactoryImplIN12_GLOBAL__N_154RandenEngineTypedTest_RandomNumberEngineInterface_TestItEEEE, ptr @_ZTIN7testing8internal15TestFactoryBaseE }, align 8
@_ZTVN12_GLOBAL__N_154RandenEngineTypedTest_RandomNumberEngineInterface_TestItEE = internal unnamed_addr constant { [8 x ptr] } { [8 x ptr] [ptr null, ptr @_ZTIN12_GLOBAL__N_154RandenEngineTypedTest_RandomNumberEngineInterface_TestItEE, ptr @_ZN12_GLOBAL__N_154RandenEngineTypedTest_RandomNumberEngineInterface_TestItED2Ev, ptr @_ZN12_GLOBAL__N_154RandenEngineTypedTest_RandomNumberEngineInterface_TestItED0Ev, ptr @_ZN7testing4Test5SetUpEv, ptr @_ZN7testing4Test8TearDownEv, ptr @_ZN12_GLOBAL__N_154RandenEngineTypedTest_RandomNumberEngineInterface_TestItE8TestBodyEv, ptr @_ZN7testing4Test5SetupEv] }, align 8
@_ZTSN12_GLOBAL__N_154RandenEngineTypedTest_RandomNumberEngineInterface_TestItEE = internal constant [76 x i8] c"N12_GLOBAL__N_154RandenEngineTypedTest_RandomNumberEngineInterface_TestItEE\00", align 1
@_ZTIN12_GLOBAL__N_154RandenEngineTypedTest_RandomNumberEngineInterface_TestItEE = internal constant { ptr, ptr, ptr } { ptr getelementptr inbounds (ptr, ptr @_ZTVN10__cxxabiv120__si_class_type_infoE, i64 2), ptr @_ZTSN12_GLOBAL__N_154RandenEngineTypedTest_RandomNumberEngineInterface_TestItEE, ptr @_ZTIN12_GLOBAL__N_121RandenEngineTypedTestItEE }, align 8
@_ZTVN7testing8internal15TestFactoryImplIN12_GLOBAL__N_154RandenEngineTypedTest_RandomNumberEngineInterface_TestIjEEEE = internal unnamed_addr constant { [5 x ptr] } { [5 x ptr] [ptr null, ptr @_ZTIN7testing8internal15TestFactoryImplIN12_GLOBAL__N_154RandenEngineTypedTest_RandomNumberEngineInterface_TestIjEEEE, ptr @_ZN7testing8internal15TestFactoryImplIN12_GLOBAL__N_154RandenEngineTypedTest_RandomNumberEngineInterface_TestIjEEED2Ev, ptr @_ZN7testing8internal15TestFactoryImplIN12_GLOBAL__N_154RandenEngineTypedTest_RandomNumberEngineInterface_TestIjEEED0Ev, ptr @_ZN7testing8internal15TestFactoryImplIN12_GLOBAL__N_154RandenEngineTypedTest_RandomNumberEngineInterface_TestIjEEE10CreateTestEv] }, align 8
@_ZTSN7testing8internal15TestFactoryImplIN12_GLOBAL__N_154RandenEngineTypedTest_RandomNumberEngineInterface_TestIjEEEE = internal constant [114 x i8] c"N7testing8internal15TestFactoryImplIN12_GLOBAL__N_154RandenEngineTypedTest_RandomNumberEngineInterface_TestIjEEEE\00", align 1
@_ZTIN7testing8internal15TestFactoryImplIN12_GLOBAL__N_154RandenEngineTypedTest_RandomNumberEngineInterface_TestIjEEEE = internal constant { ptr, ptr, ptr } { ptr getelementptr inbounds (ptr, ptr @_ZTVN10__cxxabiv120__si_class_type_infoE, i64 2), ptr @_ZTSN7testing8internal15TestFactoryImplIN12_GLOBAL__N_154RandenEngineTypedTest_RandomNumberEngineInterface_TestIjEEEE, ptr @_ZTIN7testing8internal15TestFactoryBaseE }, align 8
@_ZTVN12_GLOBAL__N_154RandenEngineTypedTest_RandomNumberEngineInterface_TestIjEE = internal unnamed_addr constant { [8 x ptr] } { [8 x ptr] [ptr null, ptr @_ZTIN12_GLOBAL__N_154RandenEngineTypedTest_RandomNumberEngineInterface_TestIjEE, ptr @_ZN12_GLOBAL__N_154RandenEngineTypedTest_RandomNumberEngineInterface_TestIjED2Ev, ptr @_ZN12_GLOBAL__N_154RandenEngineTypedTest_RandomNumberEngineInterface_TestIjED0Ev, ptr @_ZN7testing4Test5SetUpEv, ptr @_ZN7testing4Test8TearDownEv, ptr @_ZN12_GLOBAL__N_154RandenEngineTypedTest_RandomNumberEngineInterface_TestIjE8TestBodyEv, ptr @_ZN7testing4Test5SetupEv] }, align 8
@_ZTSN12_GLOBAL__N_154RandenEngineTypedTest_RandomNumberEngineInterface_TestIjEE = internal constant [76 x i8] c"N12_GLOBAL__N_154RandenEngineTypedTest_RandomNumberEngineInterface_TestIjEE\00", align 1
@_ZTIN12_GLOBAL__N_154RandenEngineTypedTest_RandomNumberEngineInterface_TestIjEE = internal constant { ptr, ptr, ptr } { ptr getelementptr inbounds (ptr, ptr @_ZTVN10__cxxabiv120__si_class_type_infoE, i64 2), ptr @_ZTSN12_GLOBAL__N_154RandenEngineTypedTest_RandomNumberEngineInterface_TestIjEE, ptr @_ZTIN12_GLOBAL__N_121RandenEngineTypedTestIjEE }, align 8
@_ZTVN7testing8internal15TestFactoryImplIN12_GLOBAL__N_154RandenEngineTypedTest_RandomNumberEngineInterface_TestImEEEE = internal unnamed_addr constant { [5 x ptr] } { [5 x ptr] [ptr null, ptr @_ZTIN7testing8internal15TestFactoryImplIN12_GLOBAL__N_154RandenEngineTypedTest_RandomNumberEngineInterface_TestImEEEE, ptr @_ZN7testing8internal15TestFactoryImplIN12_GLOBAL__N_154RandenEngineTypedTest_RandomNumberEngineInterface_TestImEEED2Ev, ptr @_ZN7testing8internal15TestFactoryImplIN12_GLOBAL__N_154RandenEngineTypedTest_RandomNumberEngineInterface_TestImEEED0Ev, ptr @_ZN7testing8internal15TestFactoryImplIN12_GLOBAL__N_154RandenEngineTypedTest_RandomNumberEngineInterface_TestImEEE10CreateTestEv] }, align 8
@_ZTSN7testing8internal15TestFactoryImplIN12_GLOBAL__N_154RandenEngineTypedTest_RandomNumberEngineInterface_TestImEEEE = internal constant [114 x i8] c"N7testing8internal15TestFactoryImplIN12_GLOBAL__N_154RandenEngineTypedTest_RandomNumberEngineInterface_TestImEEEE\00", align 1
@_ZTIN7testing8internal15TestFactoryImplIN12_GLOBAL__N_154RandenEngineTypedTest_RandomNumberEngineInterface_TestImEEEE = internal constant { ptr, ptr, ptr } { ptr getelementptr inbounds (ptr, ptr @_ZTVN10__cxxabiv120__si_class_type_infoE, i64 2), ptr @_ZTSN7testing8internal15TestFactoryImplIN12_GLOBAL__N_154RandenEngineTypedTest_RandomNumberEngineInterface_TestImEEEE, ptr @_ZTIN7testing8internal15TestFactoryBaseE }, align 8
@_ZTVN12_GLOBAL__N_154RandenEngineTypedTest_RandomNumberEngineInterface_TestImEE = internal unnamed_addr constant { [8 x ptr] } { [8 x ptr] [ptr null, ptr @_ZTIN12_GLOBAL__N_154RandenEngineTypedTest_RandomNumberEngineInterface_TestImEE, ptr @_ZN12_GLOBAL__N_154RandenEngineTypedTest_RandomNumberEngineInterface_TestImED2Ev, ptr @_ZN12_GLOBAL__N_154RandenEngineTypedTest_RandomNumberEngineInterface_TestImED0Ev, ptr @_ZN7testing4Test5SetUpEv, ptr @_ZN7testing4Test8TearDownEv, ptr @_ZN12_GLOBAL__N_154RandenEngineTypedTest_RandomNumberEngineInterface_TestImE8TestBodyEv, ptr @_ZN7testing4Test5SetupEv] }, align 8
@_ZTSN12_GLOBAL__N_154RandenEngineTypedTest_RandomNumberEngineInterface_TestImEE = internal constant [76 x i8] c"N12_GLOBAL__N_154RandenEngineTypedTest_RandomNumberEngineInterface_TestImEE\00", align 1
@_ZTIN12_GLOBAL__N_154RandenEngineTypedTest_RandomNumberEngineInterface_TestImEE = internal constant { ptr, ptr, ptr } { ptr getelementptr inbounds (ptr, ptr @_ZTVN10__cxxabiv120__si_class_type_infoE, i64 2), ptr @_ZTSN12_GLOBAL__N_154RandenEngineTypedTest_RandomNumberEngineInterface_TestImEE, ptr @_ZTIN12_GLOBAL__N_121RandenEngineTypedTestImEE }, align 8
@_ZTVN7testing8internal15TestFactoryImplIN12_GLOBAL__N_149RandenEngineTypedTest_RandenEngineSFINAETest_TestIhEEEE = internal unnamed_addr constant { [5 x ptr] } { [5 x ptr] [ptr null, ptr @_ZTIN7testing8internal15TestFactoryImplIN12_GLOBAL__N_149RandenEngineTypedTest_RandenEngineSFINAETest_TestIhEEEE, ptr @_ZN7testing8internal15TestFactoryImplIN12_GLOBAL__N_149RandenEngineTypedTest_RandenEngineSFINAETest_TestIhEEED2Ev, ptr @_ZN7testing8internal15TestFactoryImplIN12_GLOBAL__N_149RandenEngineTypedTest_RandenEngineSFINAETest_TestIhEEED0Ev, ptr @_ZN7testing8internal15TestFactoryImplIN12_GLOBAL__N_149RandenEngineTypedTest_RandenEngineSFINAETest_TestIhEEE10CreateTestEv] }, align 8
@_ZTSN7testing8internal15TestFactoryImplIN12_GLOBAL__N_149RandenEngineTypedTest_RandenEngineSFINAETest_TestIhEEEE = internal constant [109 x i8] c"N7testing8internal15TestFactoryImplIN12_GLOBAL__N_149RandenEngineTypedTest_RandenEngineSFINAETest_TestIhEEEE\00", align 1
@_ZTIN7testing8internal15TestFactoryImplIN12_GLOBAL__N_149RandenEngineTypedTest_RandenEngineSFINAETest_TestIhEEEE = internal constant { ptr, ptr, ptr } { ptr getelementptr inbounds (ptr, ptr @_ZTVN10__cxxabiv120__si_class_type_infoE, i64 2), ptr @_ZTSN7testing8internal15TestFactoryImplIN12_GLOBAL__N_149RandenEngineTypedTest_RandenEngineSFINAETest_TestIhEEEE, ptr @_ZTIN7testing8internal15TestFactoryBaseE }, align 8
@_ZTVN12_GLOBAL__N_149RandenEngineTypedTest_RandenEngineSFINAETest_TestIhEE = internal unnamed_addr constant { [8 x ptr] } { [8 x ptr] [ptr null, ptr @_ZTIN12_GLOBAL__N_149RandenEngineTypedTest_RandenEngineSFINAETest_TestIhEE, ptr @_ZN12_GLOBAL__N_149RandenEngineTypedTest_RandenEngineSFINAETest_TestIhED2Ev, ptr @_ZN12_GLOBAL__N_149RandenEngineTypedTest_RandenEngineSFINAETest_TestIhED0Ev, ptr @_ZN7testing4Test5SetUpEv, ptr @_ZN7testing4Test8TearDownEv, ptr @_ZN12_GLOBAL__N_149RandenEngineTypedTest_RandenEngineSFINAETest_TestIhE8TestBodyEv, ptr @_ZN7testing4Test5SetupEv] }, align 8
@_ZTSN12_GLOBAL__N_149RandenEngineTypedTest_RandenEngineSFINAETest_TestIhEE = internal constant [71 x i8] c"N12_GLOBAL__N_149RandenEngineTypedTest_RandenEngineSFINAETest_TestIhEE\00", align 1
@_ZTIN12_GLOBAL__N_149RandenEngineTypedTest_RandenEngineSFINAETest_TestIhEE = internal constant { ptr, ptr, ptr } { ptr getelementptr inbounds (ptr, ptr @_ZTVN10__cxxabiv120__si_class_type_infoE, i64 2), ptr @_ZTSN12_GLOBAL__N_149RandenEngineTypedTest_RandenEngineSFINAETest_TestIhEE, ptr @_ZTIN12_GLOBAL__N_121RandenEngineTypedTestIhEE }, align 8
@_ZTVN7testing8internal15TestFactoryImplIN12_GLOBAL__N_149RandenEngineTypedTest_RandenEngineSFINAETest_TestItEEEE = internal unnamed_addr constant { [5 x ptr] } { [5 x ptr] [ptr null, ptr @_ZTIN7testing8internal15TestFactoryImplIN12_GLOBAL__N_149RandenEngineTypedTest_RandenEngineSFINAETest_TestItEEEE, ptr @_ZN7testing8internal15TestFactoryImplIN12_GLOBAL__N_149RandenEngineTypedTest_RandenEngineSFINAETest_TestItEEED2Ev, ptr @_ZN7testing8internal15TestFactoryImplIN12_GLOBAL__N_149RandenEngineTypedTest_RandenEngineSFINAETest_TestItEEED0Ev, ptr @_ZN7testing8internal15TestFactoryImplIN12_GLOBAL__N_149RandenEngineTypedTest_RandenEngineSFINAETest_TestItEEE10CreateTestEv] }, align 8
@_ZTSN7testing8internal15TestFactoryImplIN12_GLOBAL__N_149RandenEngineTypedTest_RandenEngineSFINAETest_TestItEEEE = internal constant [109 x i8] c"N7testing8internal15TestFactoryImplIN12_GLOBAL__N_149RandenEngineTypedTest_RandenEngineSFINAETest_TestItEEEE\00", align 1
@_ZTIN7testing8internal15TestFactoryImplIN12_GLOBAL__N_149RandenEngineTypedTest_RandenEngineSFINAETest_TestItEEEE = internal constant { ptr, ptr, ptr } { ptr getelementptr inbounds (ptr, ptr @_ZTVN10__cxxabiv120__si_class_type_infoE, i64 2), ptr @_ZTSN7testing8internal15TestFactoryImplIN12_GLOBAL__N_149RandenEngineTypedTest_RandenEngineSFINAETest_TestItEEEE, ptr @_ZTIN7testing8internal15TestFactoryBaseE }, align 8
@_ZTVN12_GLOBAL__N_149RandenEngineTypedTest_RandenEngineSFINAETest_TestItEE = internal unnamed_addr constant { [8 x ptr] } { [8 x ptr] [ptr null, ptr @_ZTIN12_GLOBAL__N_149RandenEngineTypedTest_RandenEngineSFINAETest_TestItEE, ptr @_ZN12_GLOBAL__N_149RandenEngineTypedTest_RandenEngineSFINAETest_TestItED2Ev, ptr @_ZN12_GLOBAL__N_149RandenEngineTypedTest_RandenEngineSFINAETest_TestItED0Ev, ptr @_ZN7testing4Test5SetUpEv, ptr @_ZN7testing4Test8TearDownEv, ptr @_ZN12_GLOBAL__N_149RandenEngineTypedTest_RandenEngineSFINAETest_TestItE8TestBodyEv, ptr @_ZN7testing4Test5SetupEv] }, align 8
@_ZTSN12_GLOBAL__N_149RandenEngineTypedTest_RandenEngineSFINAETest_TestItEE = internal constant [71 x i8] c"N12_GLOBAL__N_149RandenEngineTypedTest_RandenEngineSFINAETest_TestItEE\00", align 1
@_ZTIN12_GLOBAL__N_149RandenEngineTypedTest_RandenEngineSFINAETest_TestItEE = internal constant { ptr, ptr, ptr } { ptr getelementptr inbounds (ptr, ptr @_ZTVN10__cxxabiv120__si_class_type_infoE, i64 2), ptr @_ZTSN12_GLOBAL__N_149RandenEngineTypedTest_RandenEngineSFINAETest_TestItEE, ptr @_ZTIN12_GLOBAL__N_121RandenEngineTypedTestItEE }, align 8
@_ZTVN7testing8internal15TestFactoryImplIN12_GLOBAL__N_149RandenEngineTypedTest_RandenEngineSFINAETest_TestIjEEEE = internal unnamed_addr constant { [5 x ptr] } { [5 x ptr] [ptr null, ptr @_ZTIN7testing8internal15TestFactoryImplIN12_GLOBAL__N_149RandenEngineTypedTest_RandenEngineSFINAETest_TestIjEEEE, ptr @_ZN7testing8internal15TestFactoryImplIN12_GLOBAL__N_149RandenEngineTypedTest_RandenEngineSFINAETest_TestIjEEED2Ev, ptr @_ZN7testing8internal15TestFactoryImplIN12_GLOBAL__N_149RandenEngineTypedTest_RandenEngineSFINAETest_TestIjEEED0Ev, ptr @_ZN7testing8internal15TestFactoryImplIN12_GLOBAL__N_149RandenEngineTypedTest_RandenEngineSFINAETest_TestIjEEE10CreateTestEv] }, align 8
@_ZTSN7testing8internal15TestFactoryImplIN12_GLOBAL__N_149RandenEngineTypedTest_RandenEngineSFINAETest_TestIjEEEE = internal constant [109 x i8] c"N7testing8internal15TestFactoryImplIN12_GLOBAL__N_149RandenEngineTypedTest_RandenEngineSFINAETest_TestIjEEEE\00", align 1
@_ZTIN7testing8internal15TestFactoryImplIN12_GLOBAL__N_149RandenEngineTypedTest_RandenEngineSFINAETest_TestIjEEEE = internal constant { ptr, ptr, ptr } { ptr getelementptr inbounds (ptr, ptr @_ZTVN10__cxxabiv120__si_class_type_infoE, i64 2), ptr @_ZTSN7testing8internal15TestFactoryImplIN12_GLOBAL__N_149RandenEngineTypedTest_RandenEngineSFINAETest_TestIjEEEE, ptr @_ZTIN7testing8internal15TestFactoryBaseE }, align 8
@_ZTVN12_GLOBAL__N_149RandenEngineTypedTest_RandenEngineSFINAETest_TestIjEE = internal unnamed_addr constant { [8 x ptr] } { [8 x ptr] [ptr null, ptr @_ZTIN12_GLOBAL__N_149RandenEngineTypedTest_RandenEngineSFINAETest_TestIjEE, ptr @_ZN12_GLOBAL__N_149RandenEngineTypedTest_RandenEngineSFINAETest_TestIjED2Ev, ptr @_ZN12_GLOBAL__N_149RandenEngineTypedTest_RandenEngineSFINAETest_TestIjED0Ev, ptr @_ZN7testing4Test5SetUpEv, ptr @_ZN7testing4Test8TearDownEv, ptr @_ZN12_GLOBAL__N_149RandenEngineTypedTest_RandenEngineSFINAETest_TestIjE8TestBodyEv, ptr @_ZN7testing4Test5SetupEv] }, align 8
@_ZTSN12_GLOBAL__N_149RandenEngineTypedTest_RandenEngineSFINAETest_TestIjEE = internal constant [71 x i8] c"N12_GLOBAL__N_149RandenEngineTypedTest_RandenEngineSFINAETest_TestIjEE\00", align 1
@_ZTIN12_GLOBAL__N_149RandenEngineTypedTest_RandenEngineSFINAETest_TestIjEE = internal constant { ptr, ptr, ptr } { ptr getelementptr inbounds (ptr, ptr @_ZTVN10__cxxabiv120__si_class_type_infoE, i64 2), ptr @_ZTSN12_GLOBAL__N_149RandenEngineTypedTest_RandenEngineSFINAETest_TestIjEE, ptr @_ZTIN12_GLOBAL__N_121RandenEngineTypedTestIjEE }, align 8
@_ZTVN7testing8internal15TestFactoryImplIN12_GLOBAL__N_149RandenEngineTypedTest_RandenEngineSFINAETest_TestImEEEE = internal unnamed_addr constant { [5 x ptr] } { [5 x ptr] [ptr null, ptr @_ZTIN7testing8internal15TestFactoryImplIN12_GLOBAL__N_149RandenEngineTypedTest_RandenEngineSFINAETest_TestImEEEE, ptr @_ZN7testing8internal15TestFactoryImplIN12_GLOBAL__N_149RandenEngineTypedTest_RandenEngineSFINAETest_TestImEEED2Ev, ptr @_ZN7testing8internal15TestFactoryImplIN12_GLOBAL__N_149RandenEngineTypedTest_RandenEngineSFINAETest_TestImEEED0Ev, ptr @_ZN7testing8internal15TestFactoryImplIN12_GLOBAL__N_149RandenEngineTypedTest_RandenEngineSFINAETest_TestImEEE10CreateTestEv] }, align 8
@_ZTSN7testing8internal15TestFactoryImplIN12_GLOBAL__N_149RandenEngineTypedTest_RandenEngineSFINAETest_TestImEEEE = internal constant [109 x i8] c"N7testing8internal15TestFactoryImplIN12_GLOBAL__N_149RandenEngineTypedTest_RandenEngineSFINAETest_TestImEEEE\00", align 1
@_ZTIN7testing8internal15TestFactoryImplIN12_GLOBAL__N_149RandenEngineTypedTest_RandenEngineSFINAETest_TestImEEEE = internal constant { ptr, ptr, ptr } { ptr getelementptr inbounds (ptr, ptr @_ZTVN10__cxxabiv120__si_class_type_infoE, i64 2), ptr @_ZTSN7testing8internal15TestFactoryImplIN12_GLOBAL__N_149RandenEngineTypedTest_RandenEngineSFINAETest_TestImEEEE, ptr @_ZTIN7testing8internal15TestFactoryBaseE }, align 8
@_ZTVN12_GLOBAL__N_149RandenEngineTypedTest_RandenEngineSFINAETest_TestImEE = internal unnamed_addr constant { [8 x ptr] } { [8 x ptr] [ptr null, ptr @_ZTIN12_GLOBAL__N_149RandenEngineTypedTest_RandenEngineSFINAETest_TestImEE, ptr @_ZN12_GLOBAL__N_149RandenEngineTypedTest_RandenEngineSFINAETest_TestImED2Ev, ptr @_ZN12_GLOBAL__N_149RandenEngineTypedTest_RandenEngineSFINAETest_TestImED0Ev, ptr @_ZN7testing4Test5SetUpEv, ptr @_ZN7testing4Test8TearDownEv, ptr @_ZN12_GLOBAL__N_149RandenEngineTypedTest_RandenEngineSFINAETest_TestImE8TestBodyEv, ptr @_ZN7testing4Test5SetupEv] }, align 8
@_ZTSN12_GLOBAL__N_149RandenEngineTypedTest_RandenEngineSFINAETest_TestImEE = internal constant [71 x i8] c"N12_GLOBAL__N_149RandenEngineTypedTest_RandenEngineSFINAETest_TestImEE\00", align 1
@_ZTIN12_GLOBAL__N_149RandenEngineTypedTest_RandenEngineSFINAETest_TestImEE = internal constant { ptr, ptr, ptr } { ptr getelementptr inbounds (ptr, ptr @_ZTVN10__cxxabiv120__si_class_type_infoE, i64 2), ptr @_ZTSN12_GLOBAL__N_149RandenEngineTypedTest_RandenEngineSFINAETest_TestImEE, ptr @_ZTIN12_GLOBAL__N_121RandenEngineTypedTestImEE }, align 8
@llvm.global_ctors = appending global [1 x { i32, ptr, ptr }] [{ i32, ptr, ptr } { i32 65535, ptr @_GLOBAL__sub_I_randen_engine_test.cc, ptr null }]

; Function Attrs: uwtable
define internal void @__cxx_global_var_init() #0 section ".text.startup" {
entry:
  call void @_ZNSt8ios_base4InitC1Ev(ptr noundef nonnull align 1 dereferenceable(1) @_ZStL8__ioinit)
  %0 = call i32 @__cxa_atexit(ptr @_ZNSt8ios_base4InitD1Ev, ptr @_ZStL8__ioinit, ptr @__dso_handle) #3
  ret void
}

declare void @_ZNSt8ios_base4InitC1Ev(ptr noundef nonnull align 1 dereferenceable(1)) unnamed_addr #1

; Function Attrs: nounwind
declare void @_ZNSt8ios_base4InitD1Ev(ptr noundef nonnull align 1 dereferenceable(1)) unnamed_addr #2

; Function Attrs: nounwind
declare i32 @__cxa_atexit(ptr, ptr, ptr) #3

; Function Attrs: uwtable
define internal void @__cxx_global_var_init.1() #0 section ".text.startup" personality ptr @__gxx_personality_v0 {
entry:
  %ref.tmp = alloca %"struct.testing::internal::CodeLocation", align 8
  %ref.tmp1 = alloca %"class.std::__cxx11::basic_string", align 8
  %ref.tmp2 = alloca %"class.std::allocator", align 1
  %exn.slot = alloca ptr, align 8
  %ehselector.slot = alloca i32, align 4
  %ref.tmp5 = alloca %"class.std::vector", align 8
  call void @_ZNSaIcEC1Ev(ptr noundef nonnull align 1 dereferenceable(1) %ref.tmp2) #3
  invoke void @_ZNSt7__cxx1112basic_stringIcSt11char_traitsIcESaIcEEC2IS3_EEPKcRKS3_(ptr noundef nonnull align 8 dereferenceable(32) %ref.tmp1, ptr noundef @.str.2, ptr noundef nonnull align 1 dereferenceable(1) %ref.tmp2)
          to label %invoke.cont unwind label %lpad

invoke.cont:                                      ; preds = %entry
  invoke void @_ZN7testing8internal12CodeLocationC2ERKNSt7__cxx1112basic_stringIcSt11char_traitsIcESaIcEEEi(ptr noundef nonnull align 8 dereferenceable(36) %ref.tmp, ptr noundef nonnull align 8 dereferenceable(32) %ref.tmp1, i32 noundef 44)
          to label %invoke.cont4 unwind label %lpad3

invoke.cont4:                                     ; preds = %invoke.cont
  invoke void @_ZN7testing8internal13GenerateNamesINS0_20DefaultNameGeneratorENS0_5TypesIhJtjmEEEEESt6vectorINSt7__cxx1112basic_stringIcSt11char_traitsIcESaIcEEESaISB_EEv(ptr sret(%"class.std::vector") align 8 %ref.tmp5)
          to label %invoke.cont7 unwind label %lpad6

invoke.cont7:                                     ; preds = %invoke.cont4
  %call = invoke noundef zeroext i1 @_ZN7testing8internal21TypeParameterizedTestIN12_GLOBAL__N_121RandenEngineTypedTestENS0_11TemplateSelINS2_55RandenEngineTypedTest_VerifyReseedChangesAllValues_TestEEENS0_5TypesIhJtjmEEEE8RegisterEPKcRKNS0_12CodeLocationESB_SB_iRKSt6vectorINSt7__cxx1112basic_stringIcSt11char_traitsIcESaIcEEESaISL_EE(ptr noundef @.str, ptr noundef nonnull align 8 dereferenceable(36) %ref.tmp, ptr noundef @.str.3, ptr noundef @.str.4, i32 noundef 0, ptr noundef nonnull align 8 dereferenceable(24) %ref.tmp5)
          to label %invoke.cont9 unwind label %lpad8

invoke.cont9:                                     ; preds = %invoke.cont7
  call void @_ZNSt6vectorINSt7__cxx1112basic_stringIcSt11char_traitsIcESaIcEEESaIS5_EED2Ev(ptr noundef nonnull align 8 dereferenceable(24) %ref.tmp5) #3
  call void @_ZN7testing8internal12CodeLocationD2Ev(ptr noundef nonnull align 8 dereferenceable(36) %ref.tmp) #3
  call void @_ZNSt7__cxx1112basic_stringIcSt11char_traitsIcESaIcEED1Ev(ptr noundef nonnull align 8 dereferenceable(32) %ref.tmp1) #3
  call void @_ZNSaIcED1Ev(ptr noundef nonnull align 1 dereferenceable(1) %ref.tmp2) #3
  %frombool = zext i1 %call to i8
  store i8 %frombool, ptr @_ZN12_GLOBAL__N_168gtest_RandenEngineTypedTest_VerifyReseedChangesAllValues_registered_E, align 1
  ret void

lpad:                                             ; preds = %entry
  %0 = landingpad { ptr, i32 }
          cleanup
  %1 = extractvalue { ptr, i32 } %0, 0
  store ptr %1, ptr %exn.slot, align 8
  %2 = extractvalue { ptr, i32 } %0, 1
  store i32 %2, ptr %ehselector.slot, align 4
  br label %ehcleanup11

lpad3:                                            ; preds = %invoke.cont
  %3 = landingpad { ptr, i32 }
          cleanup
  %4 = extractvalue { ptr, i32 } %3, 0
  store ptr %4, ptr %exn.slot, align 8
  %5 = extractvalue { ptr, i32 } %3, 1
  store i32 %5, ptr %ehselector.slot, align 4
  br label %ehcleanup10

lpad6:                                            ; preds = %invoke.cont4
  %6 = landingpad { ptr, i32 }
          cleanup
  %7 = extractvalue { ptr, i32 } %6, 0
  store ptr %7, ptr %exn.slot, align 8
  %8 = extractvalue { ptr, i32 } %6, 1
  store i32 %8, ptr %ehselector.slot, align 4
  br label %ehcleanup

lpad8:                                            ; preds = %invoke.cont7
  %9 = landingpad { ptr, i32 }
          cleanup
  %10 = extractvalue { ptr, i32 } %9, 0
  store ptr %10, ptr %exn.slot, align 8
  %11 = extractvalue { ptr, i32 } %9, 1
  store i32 %11, ptr %ehselector.slot, align 4
  call void @_ZNSt6vectorINSt7__cxx1112basic_stringIcSt11char_traitsIcESaIcEEESaIS5_EED2Ev(ptr noundef nonnull align 8 dereferenceable(24) %ref.tmp5) #3
  br label %ehcleanup

ehcleanup:                                        ; preds = %lpad8, %lpad6
  call void @_ZN7testing8internal12CodeLocationD2Ev(ptr noundef nonnull align 8 dereferenceable(36) %ref.tmp) #3
  br label %ehcleanup10

ehcleanup10:                                      ; preds = %ehcleanup, %lpad3
  call void @_ZNSt7__cxx1112basic_stringIcSt11char_traitsIcESaIcEED1Ev(ptr noundef nonnull align 8 dereferenceable(32) %ref.tmp1) #3
  br label %ehcleanup11

ehcleanup11:                                      ; preds = %ehcleanup10, %lpad
  call void @_ZNSaIcED1Ev(ptr noundef nonnull align 1 dereferenceable(1) %ref.tmp2) #3
  br label %eh.resume

eh.resume:                                        ; preds = %ehcleanup11
  %exn = load ptr, ptr %exn.slot, align 8
  %sel = load i32, ptr %ehselector.slot, align 4
  %lpad.val = insertvalue { ptr, i32 } poison, ptr %exn, 0
  %lpad.val12 = insertvalue { ptr, i32 } %lpad.val, i32 %sel, 1
  resume { ptr, i32 } %lpad.val12
}

; Function Attrs: mustprogress uwtable
define internal noundef zeroext i1 @_ZN7testing8internal21TypeParameterizedTestIN12_GLOBAL__N_121RandenEngineTypedTestENS0_11TemplateSelINS2_55RandenEngineTypedTest_VerifyReseedChangesAllValues_TestEEENS0_5TypesIhJtjmEEEE8RegisterEPKcRKNS0_12CodeLocationESB_SB_iRKSt6vectorINSt7__cxx1112basic_stringIcSt11char_traitsIcESaIcEEESaISL_EE(ptr noundef %prefix, ptr noundef nonnull align 8 dereferenceable(36) %code_location, ptr noundef %case_name, ptr noundef %test_names, i32 noundef %index, ptr noundef nonnull align 8 dereferenceable(24) %type_names) #4 align 2 personality ptr @__gxx_personality_v0 {
entry:
  %prefix.addr = alloca ptr, align 8
  %code_location.addr = alloca ptr, align 8
  %case_name.addr = alloca ptr, align 8
  %test_names.addr = alloca ptr, align 8
  %index.addr = alloca i32, align 4
  %type_names.addr = alloca ptr, align 8
  %ref.tmp = alloca %"class.std::__cxx11::basic_string", align 8
  %ref.tmp1 = alloca %"class.std::__cxx11::basic_string", align 8
  %ref.tmp2 = alloca %"class.std::__cxx11::basic_string", align 8
  %ref.tmp3 = alloca %"class.std::__cxx11::basic_string", align 8
  %ref.tmp4 = alloca %"class.std::__cxx11::basic_string", align 8
  %ref.tmp5 = alloca %"class.std::allocator", align 1
  %exn.slot = alloca ptr, align 8
  %ehselector.slot = alloca i32, align 4
  %ref.tmp16 = alloca %"class.std::__cxx11::basic_string", align 8
  %agg.tmp = alloca %"class.std::__cxx11::basic_string", align 8
  %ref.tmp22 = alloca %"class.std::__cxx11::basic_string", align 8
  %agg.tmp26 = alloca %"struct.testing::internal::CodeLocation", align 8
  store ptr %prefix, ptr %prefix.addr, align 8
  store ptr %code_location, ptr %code_location.addr, align 8
  store ptr %case_name, ptr %case_name.addr, align 8
  store ptr %test_names, ptr %test_names.addr, align 8
  store i32 %index, ptr %index.addr, align 4
  store ptr %type_names, ptr %type_names.addr, align 8
  %0 = load ptr, ptr %prefix.addr, align 8
  call void @_ZNSaIcEC1Ev(ptr noundef nonnull align 1 dereferenceable(1) %ref.tmp5) #3
  invoke void @_ZNSt7__cxx1112basic_stringIcSt11char_traitsIcESaIcEEC2IS3_EEPKcRKS3_(ptr noundef nonnull align 8 dereferenceable(32) %ref.tmp4, ptr noundef %0, ptr noundef nonnull align 1 dereferenceable(1) %ref.tmp5)
          to label %invoke.cont unwind label %lpad

invoke.cont:                                      ; preds = %entry
  %1 = load ptr, ptr %prefix.addr, align 8
  %arrayidx = getelementptr inbounds i8, ptr %1, i64 0
  %2 = load i8, ptr %arrayidx, align 1
  %conv = sext i8 %2 to i32
  %cmp = icmp eq i32 %conv, 0
  %cond = select i1 %cmp, ptr @.str, ptr @.str.46
  invoke void @_ZStplIcSt11char_traitsIcESaIcEENSt7__cxx1112basic_stringIT_T0_T1_EEOS8_PKS5_(ptr sret(%"class.std::__cxx11::basic_string") align 8 %ref.tmp3, ptr noundef nonnull align 8 dereferenceable(32) %ref.tmp4, ptr noundef %cond)
          to label %invoke.cont7 unwind label %lpad6

invoke.cont7:                                     ; preds = %invoke.cont
  %3 = load ptr, ptr %case_name.addr, align 8
  invoke void @_ZStplIcSt11char_traitsIcESaIcEENSt7__cxx1112basic_stringIT_T0_T1_EEOS8_PKS5_(ptr sret(%"class.std::__cxx11::basic_string") align 8 %ref.tmp2, ptr noundef nonnull align 8 dereferenceable(32) %ref.tmp3, ptr noundef %3)
          to label %invoke.cont9 unwind label %lpad8

invoke.cont9:                                     ; preds = %invoke.cont7
  invoke void @_ZStplIcSt11char_traitsIcESaIcEENSt7__cxx1112basic_stringIT_T0_T1_EEOS8_PKS5_(ptr sret(%"class.std::__cxx11::basic_string") align 8 %ref.tmp1, ptr noundef nonnull align 8 dereferenceable(32) %ref.tmp2, ptr noundef @.str.46)
          to label %invoke.cont11 unwind label %lpad10

invoke.cont11:                                    ; preds = %invoke.cont9
  %4 = load ptr, ptr %type_names.addr, align 8
  %5 = load i32, ptr %index.addr, align 4
  %conv12 = sext i32 %5 to i64
  %call = call noundef nonnull align 8 dereferenceable(32) ptr @_ZNKSt6vectorINSt7__cxx1112basic_stringIcSt11char_traitsIcESaIcEEESaIS5_EEixEm(ptr noundef nonnull align 8 dereferenceable(24) %4, i64 noundef %conv12) #3
  invoke void @_ZStplIcSt11char_traitsIcESaIcEENSt7__cxx1112basic_stringIT_T0_T1_EEOS8_RKS8_(ptr sret(%"class.std::__cxx11::basic_string") align 8 %ref.tmp, ptr noundef nonnull align 8 dereferenceable(32) %ref.tmp1, ptr noundef nonnull align 8 dereferenceable(32) %call)
          to label %invoke.cont14 unwind label %lpad13

invoke.cont14:                                    ; preds = %invoke.cont11
  %call15 = call noundef ptr @_ZNKSt7__cxx1112basic_stringIcSt11char_traitsIcESaIcEE5c_strEv(ptr noundef nonnull align 8 dereferenceable(32) %ref.tmp) #3
  %6 = load ptr, ptr %test_names.addr, align 8
  invoke void @_ZN7testing8internal19GetPrefixUntilCommaB5cxx11EPKc(ptr sret(%"class.std::__cxx11::basic_string") align 8 %agg.tmp, ptr noundef %6)
          to label %invoke.cont18 unwind label %lpad17

invoke.cont18:                                    ; preds = %invoke.cont14
  invoke void @_ZN7testing8internal19StripTrailingSpacesENSt7__cxx1112basic_stringIcSt11char_traitsIcESaIcEEE(ptr sret(%"class.std::__cxx11::basic_string") align 8 %ref.tmp16, ptr noundef %agg.tmp)
          to label %invoke.cont20 unwind label %lpad19

invoke.cont20:                                    ; preds = %invoke.cont18
  %call21 = call noundef ptr @_ZNKSt7__cxx1112basic_stringIcSt11char_traitsIcESaIcEE5c_strEv(ptr noundef nonnull align 8 dereferenceable(32) %ref.tmp16) #3
  invoke void @_ZN7testing8internal11GetTypeNameIhEENSt7__cxx1112basic_stringIcSt11char_traitsIcESaIcEEEv(ptr sret(%"class.std::__cxx11::basic_string") align 8 %ref.tmp22)
          to label %invoke.cont24 unwind label %lpad23

invoke.cont24:                                    ; preds = %invoke.cont20
  %call25 = call noundef ptr @_ZNKSt7__cxx1112basic_stringIcSt11char_traitsIcESaIcEE5c_strEv(ptr noundef nonnull align 8 dereferenceable(32) %ref.tmp22) #3
  %7 = load ptr, ptr %code_location.addr, align 8
  invoke void @_ZN7testing8internal12CodeLocationC2ERKS1_(ptr noundef nonnull align 8 dereferenceable(36) %agg.tmp26, ptr noundef nonnull align 8 dereferenceable(36) %7)
          to label %invoke.cont28 unwind label %lpad27

invoke.cont28:                                    ; preds = %invoke.cont24
  %call31 = invoke noundef ptr @_ZN7testing8internal9GetTypeIdIN12_GLOBAL__N_121RandenEngineTypedTestIhEEEEPKvv()
          to label %invoke.cont30 unwind label %lpad29

invoke.cont30:                                    ; preds = %invoke.cont28
  %8 = load ptr, ptr %code_location.addr, align 8
  %file = getelementptr inbounds %"struct.testing::internal::CodeLocation", ptr %8, i32 0, i32 0
  %call32 = call noundef ptr @_ZNKSt7__cxx1112basic_stringIcSt11char_traitsIcESaIcEE5c_strEv(ptr noundef nonnull align 8 dereferenceable(32) %file) #3
  %9 = load ptr, ptr %code_location.addr, align 8
  %line = getelementptr inbounds %"struct.testing::internal::CodeLocation", ptr %9, i32 0, i32 1
  %10 = load i32, ptr %line, align 8
  %call34 = invoke noundef ptr @_ZN7testing8internal16SuiteApiResolverIN12_GLOBAL__N_155RandenEngineTypedTest_VerifyReseedChangesAllValues_TestIhEEE19GetSetUpCaseOrSuiteEPKci(ptr noundef %call32, i32 noundef %10)
          to label %invoke.cont33 unwind label %lpad29

invoke.cont33:                                    ; preds = %invoke.cont30
  %11 = load ptr, ptr %code_location.addr, align 8
  %file35 = getelementptr inbounds %"struct.testing::internal::CodeLocation", ptr %11, i32 0, i32 0
  %call36 = call noundef ptr @_ZNKSt7__cxx1112basic_stringIcSt11char_traitsIcESaIcEE5c_strEv(ptr noundef nonnull align 8 dereferenceable(32) %file35) #3
  %12 = load ptr, ptr %code_location.addr, align 8
  %line37 = getelementptr inbounds %"struct.testing::internal::CodeLocation", ptr %12, i32 0, i32 1
  %13 = load i32, ptr %line37, align 8
  %call39 = invoke noundef ptr @_ZN7testing8internal16SuiteApiResolverIN12_GLOBAL__N_155RandenEngineTypedTest_VerifyReseedChangesAllValues_TestIhEEE22GetTearDownCaseOrSuiteEPKci(ptr noundef %call36, i32 noundef %13)
          to label %invoke.cont38 unwind label %lpad29

invoke.cont38:                                    ; preds = %invoke.cont33
  %call41 = invoke noalias noundef nonnull ptr @_Znwm(i64 noundef 8) #17
          to label %invoke.cont40 unwind label %lpad29

invoke.cont40:                                    ; preds = %invoke.cont38
  invoke void @_ZN7testing8internal15TestFactoryImplIN12_GLOBAL__N_155RandenEngineTypedTest_VerifyReseedChangesAllValues_TestIhEEEC2Ev(ptr noundef nonnull align 8 dereferenceable(8) %call41)
          to label %invoke.cont43 unwind label %lpad42

invoke.cont43:                                    ; preds = %invoke.cont40
  %call45 = invoke noundef ptr @_ZN7testing8internal23MakeAndRegisterTestInfoEPKcS2_S2_S2_NS0_12CodeLocationEPKvPFvvES7_PNS0_15TestFactoryBaseE(ptr noundef %call15, ptr noundef %call21, ptr noundef %call25, ptr noundef null, ptr noundef %agg.tmp26, ptr noundef %call31, ptr noundef %call34, ptr noundef %call39, ptr noundef %call41)
          to label %invoke.cont44 unwind label %lpad29

invoke.cont44:                                    ; preds = %invoke.cont43
  call void @_ZN7testing8internal12CodeLocationD2Ev(ptr noundef nonnull align 8 dereferenceable(36) %agg.tmp26) #3
  call void @_ZNSt7__cxx1112basic_stringIcSt11char_traitsIcESaIcEED1Ev(ptr noundef nonnull align 8 dereferenceable(32) %ref.tmp22) #3
  call void @_ZNSt7__cxx1112basic_stringIcSt11char_traitsIcESaIcEED1Ev(ptr noundef nonnull align 8 dereferenceable(32) %ref.tmp16) #3
  call void @_ZNSt7__cxx1112basic_stringIcSt11char_traitsIcESaIcEED1Ev(ptr noundef nonnull align 8 dereferenceable(32) %agg.tmp) #3
  call void @_ZNSt7__cxx1112basic_stringIcSt11char_traitsIcESaIcEED1Ev(ptr noundef nonnull align 8 dereferenceable(32) %ref.tmp) #3
  call void @_ZNSt7__cxx1112basic_stringIcSt11char_traitsIcESaIcEED1Ev(ptr noundef nonnull align 8 dereferenceable(32) %ref.tmp1) #3
  call void @_ZNSt7__cxx1112basic_stringIcSt11char_traitsIcESaIcEED1Ev(ptr noundef nonnull align 8 dereferenceable(32) %ref.tmp2) #3
  call void @_ZNSt7__cxx1112basic_stringIcSt11char_traitsIcESaIcEED1Ev(ptr noundef nonnull align 8 dereferenceable(32) %ref.tmp3) #3
  call void @_ZNSt7__cxx1112basic_stringIcSt11char_traitsIcESaIcEED1Ev(ptr noundef nonnull align 8 dereferenceable(32) %ref.tmp4) #3
  call void @_ZNSaIcED1Ev(ptr noundef nonnull align 1 dereferenceable(1) %ref.tmp5) #3
  %14 = load ptr, ptr %prefix.addr, align 8
  %15 = load ptr, ptr %code_location.addr, align 8
  %16 = load ptr, ptr %case_name.addr, align 8
  %17 = load ptr, ptr %test_names.addr, align 8
  %18 = load i32, ptr %index.addr, align 4
  %add = add nsw i32 %18, 1
  %19 = load ptr, ptr %type_names.addr, align 8
  %call55 = call noundef zeroext i1 @_ZN7testing8internal21TypeParameterizedTestIN12_GLOBAL__N_121RandenEngineTypedTestENS0_11TemplateSelINS2_55RandenEngineTypedTest_VerifyReseedChangesAllValues_TestEEENS0_5TypesItJjmEEEE8RegisterEPKcRKNS0_12CodeLocationESB_SB_iRKSt6vectorINSt7__cxx1112basic_stringIcSt11char_traitsIcESaIcEEESaISL_EE(ptr noundef %14, ptr noundef nonnull align 8 dereferenceable(36) %15, ptr noundef %16, ptr noundef %17, i32 noundef %add, ptr noundef nonnull align 8 dereferenceable(24) %19)
  ret i1 %call55

lpad:                                             ; preds = %entry
  %20 = landingpad { ptr, i32 }
          cleanup
  %21 = extractvalue { ptr, i32 } %20, 0
  store ptr %21, ptr %exn.slot, align 8
  %22 = extractvalue { ptr, i32 } %20, 1
  store i32 %22, ptr %ehselector.slot, align 4
  br label %ehcleanup54

lpad6:                                            ; preds = %invoke.cont
  %23 = landingpad { ptr, i32 }
          cleanup
  %24 = extractvalue { ptr, i32 } %23, 0
  store ptr %24, ptr %exn.slot, align 8
  %25 = extractvalue { ptr, i32 } %23, 1
  store i32 %25, ptr %ehselector.slot, align 4
  br label %ehcleanup53

lpad8:                                            ; preds = %invoke.cont7
  %26 = landingpad { ptr, i32 }
          cleanup
  %27 = extractvalue { ptr, i32 } %26, 0
  store ptr %27, ptr %exn.slot, align 8
  %28 = extractvalue { ptr, i32 } %26, 1
  store i32 %28, ptr %ehselector.slot, align 4
  br label %ehcleanup52

lpad10:                                           ; preds = %invoke.cont9
  %29 = landingpad { ptr, i32 }
          cleanup
  %30 = extractvalue { ptr, i32 } %29, 0
  store ptr %30, ptr %exn.slot, align 8
  %31 = extractvalue { ptr, i32 } %29, 1
  store i32 %31, ptr %ehselector.slot, align 4
  br label %ehcleanup51

lpad13:                                           ; preds = %invoke.cont11
  %32 = landingpad { ptr, i32 }
          cleanup
  %33 = extractvalue { ptr, i32 } %32, 0
  store ptr %33, ptr %exn.slot, align 8
  %34 = extractvalue { ptr, i32 } %32, 1
  store i32 %34, ptr %ehselector.slot, align 4
  br label %ehcleanup50

lpad17:                                           ; preds = %invoke.cont14
  %35 = landingpad { ptr, i32 }
          cleanup
  %36 = extractvalue { ptr, i32 } %35, 0
  store ptr %36, ptr %exn.slot, align 8
  %37 = extractvalue { ptr, i32 } %35, 1
  store i32 %37, ptr %ehselector.slot, align 4
  br label %ehcleanup49

lpad19:                                           ; preds = %invoke.cont18
  %38 = landingpad { ptr, i32 }
          cleanup
  %39 = extractvalue { ptr, i32 } %38, 0
  store ptr %39, ptr %exn.slot, align 8
  %40 = extractvalue { ptr, i32 } %38, 1
  store i32 %40, ptr %ehselector.slot, align 4
  br label %ehcleanup48

lpad23:                                           ; preds = %invoke.cont20
  %41 = landingpad { ptr, i32 }
          cleanup
  %42 = extractvalue { ptr, i32 } %41, 0
  store ptr %42, ptr %exn.slot, align 8
  %43 = extractvalue { ptr, i32 } %41, 1
  store i32 %43, ptr %ehselector.slot, align 4
  br label %ehcleanup47

lpad27:                                           ; preds = %invoke.cont24
  %44 = landingpad { ptr, i32 }
          cleanup
  %45 = extractvalue { ptr, i32 } %44, 0
  store ptr %45, ptr %exn.slot, align 8
  %46 = extractvalue { ptr, i32 } %44, 1
  store i32 %46, ptr %ehselector.slot, align 4
  br label %ehcleanup46

lpad29:                                           ; preds = %invoke.cont43, %invoke.cont38, %invoke.cont33, %invoke.cont30, %invoke.cont28
  %47 = landingpad { ptr, i32 }
          cleanup
  %48 = extractvalue { ptr, i32 } %47, 0
  store ptr %48, ptr %exn.slot, align 8
  %49 = extractvalue { ptr, i32 } %47, 1
  store i32 %49, ptr %ehselector.slot, align 4
  br label %ehcleanup

lpad42:                                           ; preds = %invoke.cont40
  %50 = landingpad { ptr, i32 }
          cleanup
  %51 = extractvalue { ptr, i32 } %50, 0
  store ptr %51, ptr %exn.slot, align 8
  %52 = extractvalue { ptr, i32 } %50, 1
  store i32 %52, ptr %ehselector.slot, align 4
  call void @_ZdlPv(ptr noundef %call41) #18
  br label %ehcleanup

ehcleanup:                                        ; preds = %lpad42, %lpad29
  call void @_ZN7testing8internal12CodeLocationD2Ev(ptr noundef nonnull align 8 dereferenceable(36) %agg.tmp26) #3
  br label %ehcleanup46

ehcleanup46:                                      ; preds = %ehcleanup, %lpad27
  call void @_ZNSt7__cxx1112basic_stringIcSt11char_traitsIcESaIcEED1Ev(ptr noundef nonnull align 8 dereferenceable(32) %ref.tmp22) #3
  br label %ehcleanup47

ehcleanup47:                                      ; preds = %ehcleanup46, %lpad23
  call void @_ZNSt7__cxx1112basic_stringIcSt11char_traitsIcESaIcEED1Ev(ptr noundef nonnull align 8 dereferenceable(32) %ref.tmp16) #3
  br label %ehcleanup48

ehcleanup48:                                      ; preds = %ehcleanup47, %lpad19
  call void @_ZNSt7__cxx1112basic_stringIcSt11char_traitsIcESaIcEED1Ev(ptr noundef nonnull align 8 dereferenceable(32) %agg.tmp) #3
  br label %ehcleanup49

ehcleanup49:                                      ; preds = %ehcleanup48, %lpad17
  call void @_ZNSt7__cxx1112basic_stringIcSt11char_traitsIcESaIcEED1Ev(ptr noundef nonnull align 8 dereferenceable(32) %ref.tmp) #3
  br label %ehcleanup50

ehcleanup50:                                      ; preds = %ehcleanup49, %lpad13
  call void @_ZNSt7__cxx1112basic_stringIcSt11char_traitsIcESaIcEED1Ev(ptr noundef nonnull align 8 dereferenceable(32) %ref.tmp1) #3
  br label %ehcleanup51

ehcleanup51:                                      ; preds = %ehcleanup50, %lpad10
  call void @_ZNSt7__cxx1112basic_stringIcSt11char_traitsIcESaIcEED1Ev(ptr noundef nonnull align 8 dereferenceable(32) %ref.tmp2) #3
  br label %ehcleanup52

ehcleanup52:                                      ; preds = %ehcleanup51, %lpad8
  call void @_ZNSt7__cxx1112basic_stringIcSt11char_traitsIcESaIcEED1Ev(ptr noundef nonnull align 8 dereferenceable(32) %ref.tmp3) #3
  br label %ehcleanup53

ehcleanup53:                                      ; preds = %ehcleanup52, %lpad6
  call void @_ZNSt7__cxx1112basic_stringIcSt11char_traitsIcESaIcEED1Ev(ptr noundef nonnull align 8 dereferenceable(32) %ref.tmp4) #3
  br label %ehcleanup54

ehcleanup54:                                      ; preds = %ehcleanup53, %lpad
  call void @_ZNSaIcED1Ev(ptr noundef nonnull align 1 dereferenceable(1) %ref.tmp5) #3
  br label %eh.resume

eh.resume:                                        ; preds = %ehcleanup54
  %exn = load ptr, ptr %exn.slot, align 8
  %sel = load i32, ptr %ehselector.slot, align 4
  %lpad.val = insertvalue { ptr, i32 } poison, ptr %exn, 0
  %lpad.val56 = insertvalue { ptr, i32 } %lpad.val, i32 %sel, 1
  resume { ptr, i32 } %lpad.val56
}

; Function Attrs: nounwind
declare void @_ZNSaIcEC1Ev(ptr noundef nonnull align 1 dereferenceable(1)) unnamed_addr #2

; Function Attrs: mustprogress uwtable
define linkonce_odr dso_local void @_ZNSt7__cxx1112basic_stringIcSt11char_traitsIcESaIcEEC2IS3_EEPKcRKS3_(ptr noundef nonnull align 8 dereferenceable(32) %this, ptr noundef %__s, ptr noundef nonnull align 1 dereferenceable(1) %__a) unnamed_addr #4 comdat align 2 personality ptr @__gxx_personality_v0 {
entry:
  %this.addr = alloca ptr, align 8
  %__s.addr = alloca ptr, align 8
  %__a.addr = alloca ptr, align 8
  %exn.slot = alloca ptr, align 8
  %ehselector.slot = alloca i32, align 4
  %__end = alloca ptr, align 8
  store ptr %this, ptr %this.addr, align 8
  store ptr %__s, ptr %__s.addr, align 8
  store ptr %__a, ptr %__a.addr, align 8
  %this1 = load ptr, ptr %this.addr, align 8
  %_M_dataplus = getelementptr inbounds %"class.std::__cxx11::basic_string", ptr %this1, i32 0, i32 0
  %call = call noundef ptr @_ZNSt7__cxx1112basic_stringIcSt11char_traitsIcESaIcEE13_M_local_dataEv(ptr noundef nonnull align 8 dereferenceable(32) %this1)
  %0 = load ptr, ptr %__a.addr, align 8
  call void @_ZNSt7__cxx1112basic_stringIcSt11char_traitsIcESaIcEE12_Alloc_hiderC1EPcRKS3_(ptr noundef nonnull align 8 dereferenceable(8) %_M_dataplus, ptr noundef %call, ptr noundef nonnull align 1 dereferenceable(1) %0)
  %1 = load ptr, ptr %__s.addr, align 8
  %cmp = icmp eq ptr %1, null
  br i1 %cmp, label %if.then, label %if.end

if.then:                                          ; preds = %entry
  invoke void @_ZSt19__throw_logic_errorPKc(ptr noundef @.str.45) #19
          to label %invoke.cont unwind label %lpad

invoke.cont:                                      ; preds = %if.then
  unreachable

lpad:                                             ; preds = %if.end, %if.then
  %2 = landingpad { ptr, i32 }
          cleanup
  %3 = extractvalue { ptr, i32 } %2, 0
  store ptr %3, ptr %exn.slot, align 8
  %4 = extractvalue { ptr, i32 } %2, 1
  store i32 %4, ptr %ehselector.slot, align 4
  call void @_ZNSt7__cxx1112basic_stringIcSt11char_traitsIcESaIcEE12_Alloc_hiderD2Ev(ptr noundef nonnull align 8 dereferenceable(8) %_M_dataplus) #3
  br label %eh.resume

if.end:                                           ; preds = %entry
  %5 = load ptr, ptr %__s.addr, align 8
  %6 = load ptr, ptr %__s.addr, align 8
  %call2 = call noundef i64 @_ZNSt11char_traitsIcE6lengthEPKc(ptr noundef %6)
  %add.ptr = getelementptr inbounds i8, ptr %5, i64 %call2
  store ptr %add.ptr, ptr %__end, align 8
  %7 = load ptr, ptr %__s.addr, align 8
  %8 = load ptr, ptr %__end, align 8
  invoke void @_ZNSt7__cxx1112basic_stringIcSt11char_traitsIcESaIcEE12_M_constructIPKcEEvT_S8_St20forward_iterator_tag(ptr noundef nonnull align 8 dereferenceable(32) %this1, ptr noundef %7, ptr noundef %8)
          to label %invoke.cont3 unwind label %lpad

invoke.cont3:                                     ; preds = %if.end
  ret void

eh.resume:                                        ; preds = %lpad
  %exn = load ptr, ptr %exn.slot, align 8
  %sel = load i32, ptr %ehselector.slot, align 4
  %lpad.val = insertvalue { ptr, i32 } poison, ptr %exn, 0
  %lpad.val4 = insertvalue { ptr, i32 } %lpad.val, i32 %sel, 1
  resume { ptr, i32 } %lpad.val4
}

declare i32 @__gxx_personality_v0(...)

; Function Attrs: mustprogress uwtable
define linkonce_odr dso_local void @_ZN7testing8internal12CodeLocationC2ERKNSt7__cxx1112basic_stringIcSt11char_traitsIcESaIcEEEi(ptr noundef nonnull align 8 dereferenceable(36) %this, ptr noundef nonnull align 8 dereferenceable(32) %a_file, i32 noundef %a_line) unnamed_addr #4 comdat align 2 {
entry:
  %this.addr = alloca ptr, align 8
  %a_file.addr = alloca ptr, align 8
  %a_line.addr = alloca i32, align 4
  store ptr %this, ptr %this.addr, align 8
  store ptr %a_file, ptr %a_file.addr, align 8
  store i32 %a_line, ptr %a_line.addr, align 4
  %this1 = load ptr, ptr %this.addr, align 8
  %file = getelementptr inbounds %"struct.testing::internal::CodeLocation", ptr %this1, i32 0, i32 0
  %0 = load ptr, ptr %a_file.addr, align 8
  call void @_ZNSt7__cxx1112basic_stringIcSt11char_traitsIcESaIcEEC1ERKS4_(ptr noundef nonnull align 8 dereferenceable(32) %file, ptr noundef nonnull align 8 dereferenceable(32) %0)
  %line = getelementptr inbounds %"struct.testing::internal::CodeLocation", ptr %this1, i32 0, i32 1
  %1 = load i32, ptr %a_line.addr, align 4
  store i32 %1, ptr %line, align 8
  ret void
}

; Function Attrs: mustprogress uwtable
define linkonce_odr dso_local void @_ZN7testing8internal13GenerateNamesINS0_20DefaultNameGeneratorENS0_5TypesIhJtjmEEEEESt6vectorINSt7__cxx1112basic_stringIcSt11char_traitsIcESaIcEEESaISB_EEv(ptr noalias sret(%"class.std::vector") align 8 %agg.result) #4 comdat personality ptr @__gxx_personality_v0 {
entry:
  %result.ptr = alloca ptr, align 8
  %nrvo = alloca i1, align 1
  %exn.slot = alloca ptr, align 8
  %ehselector.slot = alloca i32, align 4
  store ptr %agg.result, ptr %result.ptr, align 8
  store i1 false, ptr %nrvo, align 1
  call void @_ZNSt6vectorINSt7__cxx1112basic_stringIcSt11char_traitsIcESaIcEEESaIS5_EEC2Ev(ptr noundef nonnull align 8 dereferenceable(24) %agg.result) #3
  invoke void @_ZN7testing8internal24GenerateNamesRecursivelyINS0_20DefaultNameGeneratorENS0_5TypesIhJtjmEEEEEvT0_PSt6vectorINSt7__cxx1112basic_stringIcSt11char_traitsIcESaIcEEESaISC_EEi(ptr noundef %agg.result, i32 noundef 0)
          to label %invoke.cont unwind label %lpad

invoke.cont:                                      ; preds = %entry
  store i1 true, ptr %nrvo, align 1
  %nrvo.val = load i1, ptr %nrvo, align 1
  br i1 %nrvo.val, label %nrvo.skipdtor, label %nrvo.unused

lpad:                                             ; preds = %entry
  %0 = landingpad { ptr, i32 }
          cleanup
  %1 = extractvalue { ptr, i32 } %0, 0
  store ptr %1, ptr %exn.slot, align 8
  %2 = extractvalue { ptr, i32 } %0, 1
  store i32 %2, ptr %ehselector.slot, align 4
  call void @_ZNSt6vectorINSt7__cxx1112basic_stringIcSt11char_traitsIcESaIcEEESaIS5_EED2Ev(ptr noundef nonnull align 8 dereferenceable(24) %agg.result) #3
  br label %eh.resume

nrvo.unused:                                      ; preds = %invoke.cont
  call void @_ZNSt6vectorINSt7__cxx1112basic_stringIcSt11char_traitsIcESaIcEEESaIS5_EED2Ev(ptr noundef nonnull align 8 dereferenceable(24) %agg.result) #3
  br label %nrvo.skipdtor

nrvo.skipdtor:                                    ; preds = %nrvo.unused, %invoke.cont
  ret void

eh.resume:                                        ; preds = %lpad
  %exn = load ptr, ptr %exn.slot, align 8
  %sel = load i32, ptr %ehselector.slot, align 4
  %lpad.val = insertvalue { ptr, i32 } poison, ptr %exn, 0
  %lpad.val1 = insertvalue { ptr, i32 } %lpad.val, i32 %sel, 1
  resume { ptr, i32 } %lpad.val1
}

; Function Attrs: mustprogress nounwind uwtable
define linkonce_odr dso_local void @_ZNSt6vectorINSt7__cxx1112basic_stringIcSt11char_traitsIcESaIcEEESaIS5_EED2Ev(ptr noundef nonnull align 8 dereferenceable(24) %this) unnamed_addr #5 comdat align 2 personality ptr @__gxx_personality_v0 {
entry:
  %this.addr = alloca ptr, align 8
  store ptr %this, ptr %this.addr, align 8
  %this1 = load ptr, ptr %this.addr, align 8
  %_M_impl = getelementptr inbounds %"struct.std::_Vector_base", ptr %this1, i32 0, i32 0
  %_M_start = getelementptr inbounds %"struct.std::_Vector_base<std::__cxx11::basic_string<char>, std::allocator<std::__cxx11::basic_string<char>>>::_Vector_impl_data", ptr %_M_impl, i32 0, i32 0
  %0 = load ptr, ptr %_M_start, align 8
  %_M_impl2 = getelementptr inbounds %"struct.std::_Vector_base", ptr %this1, i32 0, i32 0
  %_M_finish = getelementptr inbounds %"struct.std::_Vector_base<std::__cxx11::basic_string<char>, std::allocator<std::__cxx11::basic_string<char>>>::_Vector_impl_data", ptr %_M_impl2, i32 0, i32 1
  %1 = load ptr, ptr %_M_finish, align 8
  %call = call noundef nonnull align 1 dereferenceable(1) ptr @_ZNSt12_Vector_baseINSt7__cxx1112basic_stringIcSt11char_traitsIcESaIcEEESaIS5_EE19_M_get_Tp_allocatorEv(ptr noundef nonnull align 8 dereferenceable(24) %this1) #3
  invoke void @_ZSt8_DestroyIPNSt7__cxx1112basic_stringIcSt11char_traitsIcESaIcEEES5_EvT_S7_RSaIT0_E(ptr noundef %0, ptr noundef %1, ptr noundef nonnull align 1 dereferenceable(1) %call)
          to label %invoke.cont unwind label %terminate.lpad

invoke.cont:                                      ; preds = %entry
  call void @_ZNSt12_Vector_baseINSt7__cxx1112basic_stringIcSt11char_traitsIcESaIcEEESaIS5_EED2Ev(ptr noundef nonnull align 8 dereferenceable(24) %this1) #3
  ret void

terminate.lpad:                                   ; preds = %entry
  %2 = landingpad { ptr, i32 }
          catch ptr null
  %3 = extractvalue { ptr, i32 } %2, 0
  call void @__clang_call_terminate(ptr %3) #20
  unreachable
}

; Function Attrs: mustprogress nounwind uwtable
define linkonce_odr dso_local void @_ZN7testing8internal12CodeLocationD2Ev(ptr noundef nonnull align 8 dereferenceable(36) %this) unnamed_addr #5 comdat align 2 {
entry:
  %this.addr = alloca ptr, align 8
  store ptr %this, ptr %this.addr, align 8
  %this1 = load ptr, ptr %this.addr, align 8
  %file = getelementptr inbounds %"struct.testing::internal::CodeLocation", ptr %this1, i32 0, i32 0
  call void @_ZNSt7__cxx1112basic_stringIcSt11char_traitsIcESaIcEED1Ev(ptr noundef nonnull align 8 dereferenceable(32) %file) #3
  ret void
}

; Function Attrs: nounwind
declare void @_ZNSt7__cxx1112basic_stringIcSt11char_traitsIcESaIcEED1Ev(ptr noundef nonnull align 8 dereferenceable(32)) unnamed_addr #2

; Function Attrs: nounwind
declare void @_ZNSaIcED1Ev(ptr noundef nonnull align 1 dereferenceable(1)) unnamed_addr #2

; Function Attrs: uwtable
define internal void @__cxx_global_var_init.5() #0 section ".text.startup" personality ptr @__gxx_personality_v0 {
entry:
  %ref.tmp = alloca %"struct.testing::internal::CodeLocation", align 8
  %ref.tmp1 = alloca %"class.std::__cxx11::basic_string", align 8
  %ref.tmp2 = alloca %"class.std::allocator", align 1
  %exn.slot = alloca ptr, align 8
  %ehselector.slot = alloca i32, align 4
  %ref.tmp5 = alloca %"class.std::vector", align 8
  call void @_ZNSaIcEC1Ev(ptr noundef nonnull align 1 dereferenceable(1) %ref.tmp2) #3
  invoke void @_ZNSt7__cxx1112basic_stringIcSt11char_traitsIcESaIcEEC2IS3_EEPKcRKS3_(ptr noundef nonnull align 8 dereferenceable(32) %ref.tmp1, ptr noundef @.str.2, ptr noundef nonnull align 1 dereferenceable(1) %ref.tmp2)
          to label %invoke.cont unwind label %lpad

invoke.cont:                                      ; preds = %entry
  invoke void @_ZN7testing8internal12CodeLocationC2ERKNSt7__cxx1112basic_stringIcSt11char_traitsIcESaIcEEEi(ptr noundef nonnull align 8 dereferenceable(36) %ref.tmp, ptr noundef nonnull align 8 dereferenceable(32) %ref.tmp1, i32 noundef 105)
          to label %invoke.cont4 unwind label %lpad3

invoke.cont4:                                     ; preds = %invoke.cont
  invoke void @_ZN7testing8internal13GenerateNamesINS0_20DefaultNameGeneratorENS0_5TypesIhJtjmEEEEESt6vectorINSt7__cxx1112basic_stringIcSt11char_traitsIcESaIcEEESaISB_EEv(ptr sret(%"class.std::vector") align 8 %ref.tmp5)
          to label %invoke.cont7 unwind label %lpad6

invoke.cont7:                                     ; preds = %invoke.cont4
  %call = invoke noundef zeroext i1 @_ZN7testing8internal21TypeParameterizedTestIN12_GLOBAL__N_121RandenEngineTypedTestENS0_11TemplateSelINS2_40RandenEngineTypedTest_VerifyDiscard_TestEEENS0_5TypesIhJtjmEEEE8RegisterEPKcRKNS0_12CodeLocationESB_SB_iRKSt6vectorINSt7__cxx1112basic_stringIcSt11char_traitsIcESaIcEEESaISL_EE(ptr noundef @.str, ptr noundef nonnull align 8 dereferenceable(36) %ref.tmp, ptr noundef @.str.3, ptr noundef @.str.6, i32 noundef 0, ptr noundef nonnull align 8 dereferenceable(24) %ref.tmp5)
          to label %invoke.cont9 unwind label %lpad8

invoke.cont9:                                     ; preds = %invoke.cont7
  call void @_ZNSt6vectorINSt7__cxx1112basic_stringIcSt11char_traitsIcESaIcEEESaIS5_EED2Ev(ptr noundef nonnull align 8 dereferenceable(24) %ref.tmp5) #3
  call void @_ZN7testing8internal12CodeLocationD2Ev(ptr noundef nonnull align 8 dereferenceable(36) %ref.tmp) #3
  call void @_ZNSt7__cxx1112basic_stringIcSt11char_traitsIcESaIcEED1Ev(ptr noundef nonnull align 8 dereferenceable(32) %ref.tmp1) #3
  call void @_ZNSaIcED1Ev(ptr noundef nonnull align 1 dereferenceable(1) %ref.tmp2) #3
  %frombool = zext i1 %call to i8
  store i8 %frombool, ptr @_ZN12_GLOBAL__N_153gtest_RandenEngineTypedTest_VerifyDiscard_registered_E, align 1
  ret void

lpad:                                             ; preds = %entry
  %0 = landingpad { ptr, i32 }
          cleanup
  %1 = extractvalue { ptr, i32 } %0, 0
  store ptr %1, ptr %exn.slot, align 8
  %2 = extractvalue { ptr, i32 } %0, 1
  store i32 %2, ptr %ehselector.slot, align 4
  br label %ehcleanup11

lpad3:                                            ; preds = %invoke.cont
  %3 = landingpad { ptr, i32 }
          cleanup
  %4 = extractvalue { ptr, i32 } %3, 0
  store ptr %4, ptr %exn.slot, align 8
  %5 = extractvalue { ptr, i32 } %3, 1
  store i32 %5, ptr %ehselector.slot, align 4
  br label %ehcleanup10

lpad6:                                            ; preds = %invoke.cont4
  %6 = landingpad { ptr, i32 }
          cleanup
  %7 = extractvalue { ptr, i32 } %6, 0
  store ptr %7, ptr %exn.slot, align 8
  %8 = extractvalue { ptr, i32 } %6, 1
  store i32 %8, ptr %ehselector.slot, align 4
  br label %ehcleanup

lpad8:                                            ; preds = %invoke.cont7
  %9 = landingpad { ptr, i32 }
          cleanup
  %10 = extractvalue { ptr, i32 } %9, 0
  store ptr %10, ptr %exn.slot, align 8
  %11 = extractvalue { ptr, i32 } %9, 1
  store i32 %11, ptr %ehselector.slot, align 4
  call void @_ZNSt6vectorINSt7__cxx1112basic_stringIcSt11char_traitsIcESaIcEEESaIS5_EED2Ev(ptr noundef nonnull align 8 dereferenceable(24) %ref.tmp5) #3
  br label %ehcleanup

ehcleanup:                                        ; preds = %lpad8, %lpad6
  call void @_ZN7testing8internal12CodeLocationD2Ev(ptr noundef nonnull align 8 dereferenceable(36) %ref.tmp) #3
  br label %ehcleanup10

ehcleanup10:                                      ; preds = %ehcleanup, %lpad3
  call void @_ZNSt7__cxx1112basic_stringIcSt11char_traitsIcESaIcEED1Ev(ptr noundef nonnull align 8 dereferenceable(32) %ref.tmp1) #3
  br label %ehcleanup11

ehcleanup11:                                      ; preds = %ehcleanup10, %lpad
  call void @_ZNSaIcED1Ev(ptr noundef nonnull align 1 dereferenceable(1) %ref.tmp2) #3
  br label %eh.resume

eh.resume:                                        ; preds = %ehcleanup11
  %exn = load ptr, ptr %exn.slot, align 8
  %sel = load i32, ptr %ehselector.slot, align 4
  %lpad.val = insertvalue { ptr, i32 } poison, ptr %exn, 0
  %lpad.val12 = insertvalue { ptr, i32 } %lpad.val, i32 %sel, 1
  resume { ptr, i32 } %lpad.val12
}

; Function Attrs: mustprogress uwtable
define internal noundef zeroext i1 @_ZN7testing8internal21TypeParameterizedTestIN12_GLOBAL__N_121RandenEngineTypedTestENS0_11TemplateSelINS2_40RandenEngineTypedTest_VerifyDiscard_TestEEENS0_5TypesIhJtjmEEEE8RegisterEPKcRKNS0_12CodeLocationESB_SB_iRKSt6vectorINSt7__cxx1112basic_stringIcSt11char_traitsIcESaIcEEESaISL_EE(ptr noundef %prefix, ptr noundef nonnull align 8 dereferenceable(36) %code_location, ptr noundef %case_name, ptr noundef %test_names, i32 noundef %index, ptr noundef nonnull align 8 dereferenceable(24) %type_names) #4 align 2 personality ptr @__gxx_personality_v0 {
entry:
  %prefix.addr = alloca ptr, align 8
  %code_location.addr = alloca ptr, align 8
  %case_name.addr = alloca ptr, align 8
  %test_names.addr = alloca ptr, align 8
  %index.addr = alloca i32, align 4
  %type_names.addr = alloca ptr, align 8
  %ref.tmp = alloca %"class.std::__cxx11::basic_string", align 8
  %ref.tmp1 = alloca %"class.std::__cxx11::basic_string", align 8
  %ref.tmp2 = alloca %"class.std::__cxx11::basic_string", align 8
  %ref.tmp3 = alloca %"class.std::__cxx11::basic_string", align 8
  %ref.tmp4 = alloca %"class.std::__cxx11::basic_string", align 8
  %ref.tmp5 = alloca %"class.std::allocator", align 1
  %exn.slot = alloca ptr, align 8
  %ehselector.slot = alloca i32, align 4
  %ref.tmp16 = alloca %"class.std::__cxx11::basic_string", align 8
  %agg.tmp = alloca %"class.std::__cxx11::basic_string", align 8
  %ref.tmp22 = alloca %"class.std::__cxx11::basic_string", align 8
  %agg.tmp26 = alloca %"struct.testing::internal::CodeLocation", align 8
  store ptr %prefix, ptr %prefix.addr, align 8
  store ptr %code_location, ptr %code_location.addr, align 8
  store ptr %case_name, ptr %case_name.addr, align 8
  store ptr %test_names, ptr %test_names.addr, align 8
  store i32 %index, ptr %index.addr, align 4
  store ptr %type_names, ptr %type_names.addr, align 8
  %0 = load ptr, ptr %prefix.addr, align 8
  call void @_ZNSaIcEC1Ev(ptr noundef nonnull align 1 dereferenceable(1) %ref.tmp5) #3
  invoke void @_ZNSt7__cxx1112basic_stringIcSt11char_traitsIcESaIcEEC2IS3_EEPKcRKS3_(ptr noundef nonnull align 8 dereferenceable(32) %ref.tmp4, ptr noundef %0, ptr noundef nonnull align 1 dereferenceable(1) %ref.tmp5)
          to label %invoke.cont unwind label %lpad

invoke.cont:                                      ; preds = %entry
  %1 = load ptr, ptr %prefix.addr, align 8
  %arrayidx = getelementptr inbounds i8, ptr %1, i64 0
  %2 = load i8, ptr %arrayidx, align 1
  %conv = sext i8 %2 to i32
  %cmp = icmp eq i32 %conv, 0
  %cond = select i1 %cmp, ptr @.str, ptr @.str.46
  invoke void @_ZStplIcSt11char_traitsIcESaIcEENSt7__cxx1112basic_stringIT_T0_T1_EEOS8_PKS5_(ptr sret(%"class.std::__cxx11::basic_string") align 8 %ref.tmp3, ptr noundef nonnull align 8 dereferenceable(32) %ref.tmp4, ptr noundef %cond)
          to label %invoke.cont7 unwind label %lpad6

invoke.cont7:                                     ; preds = %invoke.cont
  %3 = load ptr, ptr %case_name.addr, align 8
  invoke void @_ZStplIcSt11char_traitsIcESaIcEENSt7__cxx1112basic_stringIT_T0_T1_EEOS8_PKS5_(ptr sret(%"class.std::__cxx11::basic_string") align 8 %ref.tmp2, ptr noundef nonnull align 8 dereferenceable(32) %ref.tmp3, ptr noundef %3)
          to label %invoke.cont9 unwind label %lpad8

invoke.cont9:                                     ; preds = %invoke.cont7
  invoke void @_ZStplIcSt11char_traitsIcESaIcEENSt7__cxx1112basic_stringIT_T0_T1_EEOS8_PKS5_(ptr sret(%"class.std::__cxx11::basic_string") align 8 %ref.tmp1, ptr noundef nonnull align 8 dereferenceable(32) %ref.tmp2, ptr noundef @.str.46)
          to label %invoke.cont11 unwind label %lpad10

invoke.cont11:                                    ; preds = %invoke.cont9
  %4 = load ptr, ptr %type_names.addr, align 8
  %5 = load i32, ptr %index.addr, align 4
  %conv12 = sext i32 %5 to i64
  %call = call noundef nonnull align 8 dereferenceable(32) ptr @_ZNKSt6vectorINSt7__cxx1112basic_stringIcSt11char_traitsIcESaIcEEESaIS5_EEixEm(ptr noundef nonnull align 8 dereferenceable(24) %4, i64 noundef %conv12) #3
  invoke void @_ZStplIcSt11char_traitsIcESaIcEENSt7__cxx1112basic_stringIT_T0_T1_EEOS8_RKS8_(ptr sret(%"class.std::__cxx11::basic_string") align 8 %ref.tmp, ptr noundef nonnull align 8 dereferenceable(32) %ref.tmp1, ptr noundef nonnull align 8 dereferenceable(32) %call)
          to label %invoke.cont14 unwind label %lpad13

invoke.cont14:                                    ; preds = %invoke.cont11
  %call15 = call noundef ptr @_ZNKSt7__cxx1112basic_stringIcSt11char_traitsIcESaIcEE5c_strEv(ptr noundef nonnull align 8 dereferenceable(32) %ref.tmp) #3
  %6 = load ptr, ptr %test_names.addr, align 8
  invoke void @_ZN7testing8internal19GetPrefixUntilCommaB5cxx11EPKc(ptr sret(%"class.std::__cxx11::basic_string") align 8 %agg.tmp, ptr noundef %6)
          to label %invoke.cont18 unwind label %lpad17

invoke.cont18:                                    ; preds = %invoke.cont14
  invoke void @_ZN7testing8internal19StripTrailingSpacesENSt7__cxx1112basic_stringIcSt11char_traitsIcESaIcEEE(ptr sret(%"class.std::__cxx11::basic_string") align 8 %ref.tmp16, ptr noundef %agg.tmp)
          to label %invoke.cont20 unwind label %lpad19

invoke.cont20:                                    ; preds = %invoke.cont18
  %call21 = call noundef ptr @_ZNKSt7__cxx1112basic_stringIcSt11char_traitsIcESaIcEE5c_strEv(ptr noundef nonnull align 8 dereferenceable(32) %ref.tmp16) #3
  invoke void @_ZN7testing8internal11GetTypeNameIhEENSt7__cxx1112basic_stringIcSt11char_traitsIcESaIcEEEv(ptr sret(%"class.std::__cxx11::basic_string") align 8 %ref.tmp22)
          to label %invoke.cont24 unwind label %lpad23

invoke.cont24:                                    ; preds = %invoke.cont20
  %call25 = call noundef ptr @_ZNKSt7__cxx1112basic_stringIcSt11char_traitsIcESaIcEE5c_strEv(ptr noundef nonnull align 8 dereferenceable(32) %ref.tmp22) #3
  %7 = load ptr, ptr %code_location.addr, align 8
  invoke void @_ZN7testing8internal12CodeLocationC2ERKS1_(ptr noundef nonnull align 8 dereferenceable(36) %agg.tmp26, ptr noundef nonnull align 8 dereferenceable(36) %7)
          to label %invoke.cont28 unwind label %lpad27

invoke.cont28:                                    ; preds = %invoke.cont24
  %call29 = call noundef ptr @_ZN7testing8internal9GetTypeIdIN12_GLOBAL__N_121RandenEngineTypedTestIhEEEEPKvv()
  %8 = load ptr, ptr %code_location.addr, align 8
  %file = getelementptr inbounds %"struct.testing::internal::CodeLocation", ptr %8, i32 0, i32 0
  %call30 = call noundef ptr @_ZNKSt7__cxx1112basic_stringIcSt11char_traitsIcESaIcEE5c_strEv(ptr noundef nonnull align 8 dereferenceable(32) %file) #3
  %9 = load ptr, ptr %code_location.addr, align 8
  %line = getelementptr inbounds %"struct.testing::internal::CodeLocation", ptr %9, i32 0, i32 1
  %10 = load i32, ptr %line, align 8
  %call33 = invoke noundef ptr @_ZN7testing8internal16SuiteApiResolverIN12_GLOBAL__N_140RandenEngineTypedTest_VerifyDiscard_TestIhEEE19GetSetUpCaseOrSuiteEPKci(ptr noundef %call30, i32 noundef %10)
          to label %invoke.cont32 unwind label %lpad31

invoke.cont32:                                    ; preds = %invoke.cont28
  %11 = load ptr, ptr %code_location.addr, align 8
  %file34 = getelementptr inbounds %"struct.testing::internal::CodeLocation", ptr %11, i32 0, i32 0
  %call35 = call noundef ptr @_ZNKSt7__cxx1112basic_stringIcSt11char_traitsIcESaIcEE5c_strEv(ptr noundef nonnull align 8 dereferenceable(32) %file34) #3
  %12 = load ptr, ptr %code_location.addr, align 8
  %line36 = getelementptr inbounds %"struct.testing::internal::CodeLocation", ptr %12, i32 0, i32 1
  %13 = load i32, ptr %line36, align 8
  %call38 = invoke noundef ptr @_ZN7testing8internal16SuiteApiResolverIN12_GLOBAL__N_140RandenEngineTypedTest_VerifyDiscard_TestIhEEE22GetTearDownCaseOrSuiteEPKci(ptr noundef %call35, i32 noundef %13)
          to label %invoke.cont37 unwind label %lpad31

invoke.cont37:                                    ; preds = %invoke.cont32
  %call40 = invoke noalias noundef nonnull ptr @_Znwm(i64 noundef 8) #17
          to label %invoke.cont39 unwind label %lpad31

invoke.cont39:                                    ; preds = %invoke.cont37
  invoke void @_ZN7testing8internal15TestFactoryImplIN12_GLOBAL__N_140RandenEngineTypedTest_VerifyDiscard_TestIhEEEC2Ev(ptr noundef nonnull align 8 dereferenceable(8) %call40)
          to label %invoke.cont42 unwind label %lpad41

invoke.cont42:                                    ; preds = %invoke.cont39
  %call44 = invoke noundef ptr @_ZN7testing8internal23MakeAndRegisterTestInfoEPKcS2_S2_S2_NS0_12CodeLocationEPKvPFvvES7_PNS0_15TestFactoryBaseE(ptr noundef %call15, ptr noundef %call21, ptr noundef %call25, ptr noundef null, ptr noundef %agg.tmp26, ptr noundef %call29, ptr noundef %call33, ptr noundef %call38, ptr noundef %call40)
          to label %invoke.cont43 unwind label %lpad31

invoke.cont43:                                    ; preds = %invoke.cont42
  call void @_ZN7testing8internal12CodeLocationD2Ev(ptr noundef nonnull align 8 dereferenceable(36) %agg.tmp26) #3
  call void @_ZNSt7__cxx1112basic_stringIcSt11char_traitsIcESaIcEED1Ev(ptr noundef nonnull align 8 dereferenceable(32) %ref.tmp22) #3
  call void @_ZNSt7__cxx1112basic_stringIcSt11char_traitsIcESaIcEED1Ev(ptr noundef nonnull align 8 dereferenceable(32) %ref.tmp16) #3
  call void @_ZNSt7__cxx1112basic_stringIcSt11char_traitsIcESaIcEED1Ev(ptr noundef nonnull align 8 dereferenceable(32) %agg.tmp) #3
  call void @_ZNSt7__cxx1112basic_stringIcSt11char_traitsIcESaIcEED1Ev(ptr noundef nonnull align 8 dereferenceable(32) %ref.tmp) #3
  call void @_ZNSt7__cxx1112basic_stringIcSt11char_traitsIcESaIcEED1Ev(ptr noundef nonnull align 8 dereferenceable(32) %ref.tmp1) #3
  call void @_ZNSt7__cxx1112basic_stringIcSt11char_traitsIcESaIcEED1Ev(ptr noundef nonnull align 8 dereferenceable(32) %ref.tmp2) #3
  call void @_ZNSt7__cxx1112basic_stringIcSt11char_traitsIcESaIcEED1Ev(ptr noundef nonnull align 8 dereferenceable(32) %ref.tmp3) #3
  call void @_ZNSt7__cxx1112basic_stringIcSt11char_traitsIcESaIcEED1Ev(ptr noundef nonnull align 8 dereferenceable(32) %ref.tmp4) #3
  call void @_ZNSaIcED1Ev(ptr noundef nonnull align 1 dereferenceable(1) %ref.tmp5) #3
  %14 = load ptr, ptr %prefix.addr, align 8
  %15 = load ptr, ptr %code_location.addr, align 8
  %16 = load ptr, ptr %case_name.addr, align 8
  %17 = load ptr, ptr %test_names.addr, align 8
  %18 = load i32, ptr %index.addr, align 4
  %add = add nsw i32 %18, 1
  %19 = load ptr, ptr %type_names.addr, align 8
  %call54 = call noundef zeroext i1 @_ZN7testing8internal21TypeParameterizedTestIN12_GLOBAL__N_121RandenEngineTypedTestENS0_11TemplateSelINS2_40RandenEngineTypedTest_VerifyDiscard_TestEEENS0_5TypesItJjmEEEE8RegisterEPKcRKNS0_12CodeLocationESB_SB_iRKSt6vectorINSt7__cxx1112basic_stringIcSt11char_traitsIcESaIcEEESaISL_EE(ptr noundef %14, ptr noundef nonnull align 8 dereferenceable(36) %15, ptr noundef %16, ptr noundef %17, i32 noundef %add, ptr noundef nonnull align 8 dereferenceable(24) %19)
  ret i1 %call54

lpad:                                             ; preds = %entry
  %20 = landingpad { ptr, i32 }
          cleanup
  %21 = extractvalue { ptr, i32 } %20, 0
  store ptr %21, ptr %exn.slot, align 8
  %22 = extractvalue { ptr, i32 } %20, 1
  store i32 %22, ptr %ehselector.slot, align 4
  br label %ehcleanup53

lpad6:                                            ; preds = %invoke.cont
  %23 = landingpad { ptr, i32 }
          cleanup
  %24 = extractvalue { ptr, i32 } %23, 0
  store ptr %24, ptr %exn.slot, align 8
  %25 = extractvalue { ptr, i32 } %23, 1
  store i32 %25, ptr %ehselector.slot, align 4
  br label %ehcleanup52

lpad8:                                            ; preds = %invoke.cont7
  %26 = landingpad { ptr, i32 }
          cleanup
  %27 = extractvalue { ptr, i32 } %26, 0
  store ptr %27, ptr %exn.slot, align 8
  %28 = extractvalue { ptr, i32 } %26, 1
  store i32 %28, ptr %ehselector.slot, align 4
  br label %ehcleanup51

lpad10:                                           ; preds = %invoke.cont9
  %29 = landingpad { ptr, i32 }
          cleanup
  %30 = extractvalue { ptr, i32 } %29, 0
  store ptr %30, ptr %exn.slot, align 8
  %31 = extractvalue { ptr, i32 } %29, 1
  store i32 %31, ptr %ehselector.slot, align 4
  br label %ehcleanup50

lpad13:                                           ; preds = %invoke.cont11
  %32 = landingpad { ptr, i32 }
          cleanup
  %33 = extractvalue { ptr, i32 } %32, 0
  store ptr %33, ptr %exn.slot, align 8
  %34 = extractvalue { ptr, i32 } %32, 1
  store i32 %34, ptr %ehselector.slot, align 4
  br label %ehcleanup49

lpad17:                                           ; preds = %invoke.cont14
  %35 = landingpad { ptr, i32 }
          cleanup
  %36 = extractvalue { ptr, i32 } %35, 0
  store ptr %36, ptr %exn.slot, align 8
  %37 = extractvalue { ptr, i32 } %35, 1
  store i32 %37, ptr %ehselector.slot, align 4
  br label %ehcleanup48

lpad19:                                           ; preds = %invoke.cont18
  %38 = landingpad { ptr, i32 }
          cleanup
  %39 = extractvalue { ptr, i32 } %38, 0
  store ptr %39, ptr %exn.slot, align 8
  %40 = extractvalue { ptr, i32 } %38, 1
  store i32 %40, ptr %ehselector.slot, align 4
  br label %ehcleanup47

lpad23:                                           ; preds = %invoke.cont20
  %41 = landingpad { ptr, i32 }
          cleanup
  %42 = extractvalue { ptr, i32 } %41, 0
  store ptr %42, ptr %exn.slot, align 8
  %43 = extractvalue { ptr, i32 } %41, 1
  store i32 %43, ptr %ehselector.slot, align 4
  br label %ehcleanup46

lpad27:                                           ; preds = %invoke.cont24
  %44 = landingpad { ptr, i32 }
          cleanup
  %45 = extractvalue { ptr, i32 } %44, 0
  store ptr %45, ptr %exn.slot, align 8
  %46 = extractvalue { ptr, i32 } %44, 1
  store i32 %46, ptr %ehselector.slot, align 4
  br label %ehcleanup45

lpad31:                                           ; preds = %invoke.cont42, %invoke.cont37, %invoke.cont32, %invoke.cont28
  %47 = landingpad { ptr, i32 }
          cleanup
  %48 = extractvalue { ptr, i32 } %47, 0
  store ptr %48, ptr %exn.slot, align 8
  %49 = extractvalue { ptr, i32 } %47, 1
  store i32 %49, ptr %ehselector.slot, align 4
  br label %ehcleanup

lpad41:                                           ; preds = %invoke.cont39
  %50 = landingpad { ptr, i32 }
          cleanup
  %51 = extractvalue { ptr, i32 } %50, 0
  store ptr %51, ptr %exn.slot, align 8
  %52 = extractvalue { ptr, i32 } %50, 1
  store i32 %52, ptr %ehselector.slot, align 4
  call void @_ZdlPv(ptr noundef %call40) #18
  br label %ehcleanup

ehcleanup:                                        ; preds = %lpad41, %lpad31
  call void @_ZN7testing8internal12CodeLocationD2Ev(ptr noundef nonnull align 8 dereferenceable(36) %agg.tmp26) #3
  br label %ehcleanup45

ehcleanup45:                                      ; preds = %ehcleanup, %lpad27
  call void @_ZNSt7__cxx1112basic_stringIcSt11char_traitsIcESaIcEED1Ev(ptr noundef nonnull align 8 dereferenceable(32) %ref.tmp22) #3
  br label %ehcleanup46

ehcleanup46:                                      ; preds = %ehcleanup45, %lpad23
  call void @_ZNSt7__cxx1112basic_stringIcSt11char_traitsIcESaIcEED1Ev(ptr noundef nonnull align 8 dereferenceable(32) %ref.tmp16) #3
  br label %ehcleanup47

ehcleanup47:                                      ; preds = %ehcleanup46, %lpad19
  call void @_ZNSt7__cxx1112basic_stringIcSt11char_traitsIcESaIcEED1Ev(ptr noundef nonnull align 8 dereferenceable(32) %agg.tmp) #3
  br label %ehcleanup48

ehcleanup48:                                      ; preds = %ehcleanup47, %lpad17
  call void @_ZNSt7__cxx1112basic_stringIcSt11char_traitsIcESaIcEED1Ev(ptr noundef nonnull align 8 dereferenceable(32) %ref.tmp) #3
  br label %ehcleanup49

ehcleanup49:                                      ; preds = %ehcleanup48, %lpad13
  call void @_ZNSt7__cxx1112basic_stringIcSt11char_traitsIcESaIcEED1Ev(ptr noundef nonnull align 8 dereferenceable(32) %ref.tmp1) #3
  br label %ehcleanup50

ehcleanup50:                                      ; preds = %ehcleanup49, %lpad10
  call void @_ZNSt7__cxx1112basic_stringIcSt11char_traitsIcESaIcEED1Ev(ptr noundef nonnull align 8 dereferenceable(32) %ref.tmp2) #3
  br label %ehcleanup51

ehcleanup51:                                      ; preds = %ehcleanup50, %lpad8
  call void @_ZNSt7__cxx1112basic_stringIcSt11char_traitsIcESaIcEED1Ev(ptr noundef nonnull align 8 dereferenceable(32) %ref.tmp3) #3
  br label %ehcleanup52

ehcleanup52:                                      ; preds = %ehcleanup51, %lpad6
  call void @_ZNSt7__cxx1112basic_stringIcSt11char_traitsIcESaIcEED1Ev(ptr noundef nonnull align 8 dereferenceable(32) %ref.tmp4) #3
  br label %ehcleanup53

ehcleanup53:                                      ; preds = %ehcleanup52, %lpad
  call void @_ZNSaIcED1Ev(ptr noundef nonnull align 1 dereferenceable(1) %ref.tmp5) #3
  br label %eh.resume

eh.resume:                                        ; preds = %ehcleanup53
  %exn = load ptr, ptr %exn.slot, align 8
  %sel = load i32, ptr %ehselector.slot, align 4
  %lpad.val = insertvalue { ptr, i32 } poison, ptr %exn, 0
  %lpad.val55 = insertvalue { ptr, i32 } %lpad.val, i32 %sel, 1
  resume { ptr, i32 } %lpad.val55
}

; Function Attrs: uwtable
define internal void @__cxx_global_var_init.7() #0 section ".text.startup" personality ptr @__gxx_personality_v0 {
entry:
  %ref.tmp = alloca %"struct.testing::internal::CodeLocation", align 8
  %ref.tmp1 = alloca %"class.std::__cxx11::basic_string", align 8
  %ref.tmp2 = alloca %"class.std::allocator", align 1
  %exn.slot = alloca ptr, align 8
  %ehselector.slot = alloca i32, align 4
  %ref.tmp5 = alloca %"class.std::vector", align 8
  call void @_ZNSaIcEC1Ev(ptr noundef nonnull align 1 dereferenceable(1) %ref.tmp2) #3
  invoke void @_ZNSt7__cxx1112basic_stringIcSt11char_traitsIcESaIcEEC2IS3_EEPKcRKS3_(ptr noundef nonnull align 8 dereferenceable(32) %ref.tmp1, ptr noundef @.str.2, ptr noundef nonnull align 1 dereferenceable(1) %ref.tmp2)
          to label %invoke.cont unwind label %lpad

invoke.cont:                                      ; preds = %entry
  invoke void @_ZN7testing8internal12CodeLocationC2ERKNSt7__cxx1112basic_stringIcSt11char_traitsIcESaIcEEEi(ptr noundef nonnull align 8 dereferenceable(36) %ref.tmp, ptr noundef nonnull align 8 dereferenceable(32) %ref.tmp1, i32 noundef 131)
          to label %invoke.cont4 unwind label %lpad3

invoke.cont4:                                     ; preds = %invoke.cont
  invoke void @_ZN7testing8internal13GenerateNamesINS0_20DefaultNameGeneratorENS0_5TypesIhJtjmEEEEESt6vectorINSt7__cxx1112basic_stringIcSt11char_traitsIcESaIcEEESaISB_EEv(ptr sret(%"class.std::vector") align 8 %ref.tmp5)
          to label %invoke.cont7 unwind label %lpad6

invoke.cont7:                                     ; preds = %invoke.cont4
  %call = invoke noundef zeroext i1 @_ZN7testing8internal21TypeParameterizedTestIN12_GLOBAL__N_121RandenEngineTypedTestENS0_11TemplateSelINS2_48RandenEngineTypedTest_StreamOperatorsResult_TestEEENS0_5TypesIhJtjmEEEE8RegisterEPKcRKNS0_12CodeLocationESB_SB_iRKSt6vectorINSt7__cxx1112basic_stringIcSt11char_traitsIcESaIcEEESaISL_EE(ptr noundef @.str, ptr noundef nonnull align 8 dereferenceable(36) %ref.tmp, ptr noundef @.str.3, ptr noundef @.str.8, i32 noundef 0, ptr noundef nonnull align 8 dereferenceable(24) %ref.tmp5)
          to label %invoke.cont9 unwind label %lpad8

invoke.cont9:                                     ; preds = %invoke.cont7
  call void @_ZNSt6vectorINSt7__cxx1112basic_stringIcSt11char_traitsIcESaIcEEESaIS5_EED2Ev(ptr noundef nonnull align 8 dereferenceable(24) %ref.tmp5) #3
  call void @_ZN7testing8internal12CodeLocationD2Ev(ptr noundef nonnull align 8 dereferenceable(36) %ref.tmp) #3
  call void @_ZNSt7__cxx1112basic_stringIcSt11char_traitsIcESaIcEED1Ev(ptr noundef nonnull align 8 dereferenceable(32) %ref.tmp1) #3
  call void @_ZNSaIcED1Ev(ptr noundef nonnull align 1 dereferenceable(1) %ref.tmp2) #3
  %frombool = zext i1 %call to i8
  store i8 %frombool, ptr @_ZN12_GLOBAL__N_161gtest_RandenEngineTypedTest_StreamOperatorsResult_registered_E, align 1
  ret void

lpad:                                             ; preds = %entry
  %0 = landingpad { ptr, i32 }
          cleanup
  %1 = extractvalue { ptr, i32 } %0, 0
  store ptr %1, ptr %exn.slot, align 8
  %2 = extractvalue { ptr, i32 } %0, 1
  store i32 %2, ptr %ehselector.slot, align 4
  br label %ehcleanup11

lpad3:                                            ; preds = %invoke.cont
  %3 = landingpad { ptr, i32 }
          cleanup
  %4 = extractvalue { ptr, i32 } %3, 0
  store ptr %4, ptr %exn.slot, align 8
  %5 = extractvalue { ptr, i32 } %3, 1
  store i32 %5, ptr %ehselector.slot, align 4
  br label %ehcleanup10

lpad6:                                            ; preds = %invoke.cont4
  %6 = landingpad { ptr, i32 }
          cleanup
  %7 = extractvalue { ptr, i32 } %6, 0
  store ptr %7, ptr %exn.slot, align 8
  %8 = extractvalue { ptr, i32 } %6, 1
  store i32 %8, ptr %ehselector.slot, align 4
  br label %ehcleanup

lpad8:                                            ; preds = %invoke.cont7
  %9 = landingpad { ptr, i32 }
          cleanup
  %10 = extractvalue { ptr, i32 } %9, 0
  store ptr %10, ptr %exn.slot, align 8
  %11 = extractvalue { ptr, i32 } %9, 1
  store i32 %11, ptr %ehselector.slot, align 4
  call void @_ZNSt6vectorINSt7__cxx1112basic_stringIcSt11char_traitsIcESaIcEEESaIS5_EED2Ev(ptr noundef nonnull align 8 dereferenceable(24) %ref.tmp5) #3
  br label %ehcleanup

ehcleanup:                                        ; preds = %lpad8, %lpad6
  call void @_ZN7testing8internal12CodeLocationD2Ev(ptr noundef nonnull align 8 dereferenceable(36) %ref.tmp) #3
  br label %ehcleanup10

ehcleanup10:                                      ; preds = %ehcleanup, %lpad3
  call void @_ZNSt7__cxx1112basic_stringIcSt11char_traitsIcESaIcEED1Ev(ptr noundef nonnull align 8 dereferenceable(32) %ref.tmp1) #3
  br label %ehcleanup11

ehcleanup11:                                      ; preds = %ehcleanup10, %lpad
  call void @_ZNSaIcED1Ev(ptr noundef nonnull align 1 dereferenceable(1) %ref.tmp2) #3
  br label %eh.resume

eh.resume:                                        ; preds = %ehcleanup11
  %exn = load ptr, ptr %exn.slot, align 8
  %sel = load i32, ptr %ehselector.slot, align 4
  %lpad.val = insertvalue { ptr, i32 } poison, ptr %exn, 0
  %lpad.val12 = insertvalue { ptr, i32 } %lpad.val, i32 %sel, 1
  resume { ptr, i32 } %lpad.val12
}

; Function Attrs: mustprogress uwtable
define internal noundef zeroext i1 @_ZN7testing8internal21TypeParameterizedTestIN12_GLOBAL__N_121RandenEngineTypedTestENS0_11TemplateSelINS2_48RandenEngineTypedTest_StreamOperatorsResult_TestEEENS0_5TypesIhJtjmEEEE8RegisterEPKcRKNS0_12CodeLocationESB_SB_iRKSt6vectorINSt7__cxx1112basic_stringIcSt11char_traitsIcESaIcEEESaISL_EE(ptr noundef %prefix, ptr noundef nonnull align 8 dereferenceable(36) %code_location, ptr noundef %case_name, ptr noundef %test_names, i32 noundef %index, ptr noundef nonnull align 8 dereferenceable(24) %type_names) #4 align 2 personality ptr @__gxx_personality_v0 {
entry:
  %prefix.addr = alloca ptr, align 8
  %code_location.addr = alloca ptr, align 8
  %case_name.addr = alloca ptr, align 8
  %test_names.addr = alloca ptr, align 8
  %index.addr = alloca i32, align 4
  %type_names.addr = alloca ptr, align 8
  %ref.tmp = alloca %"class.std::__cxx11::basic_string", align 8
  %ref.tmp1 = alloca %"class.std::__cxx11::basic_string", align 8
  %ref.tmp2 = alloca %"class.std::__cxx11::basic_string", align 8
  %ref.tmp3 = alloca %"class.std::__cxx11::basic_string", align 8
  %ref.tmp4 = alloca %"class.std::__cxx11::basic_string", align 8
  %ref.tmp5 = alloca %"class.std::allocator", align 1
  %exn.slot = alloca ptr, align 8
  %ehselector.slot = alloca i32, align 4
  %ref.tmp16 = alloca %"class.std::__cxx11::basic_string", align 8
  %agg.tmp = alloca %"class.std::__cxx11::basic_string", align 8
  %ref.tmp22 = alloca %"class.std::__cxx11::basic_string", align 8
  %agg.tmp26 = alloca %"struct.testing::internal::CodeLocation", align 8
  store ptr %prefix, ptr %prefix.addr, align 8
  store ptr %code_location, ptr %code_location.addr, align 8
  store ptr %case_name, ptr %case_name.addr, align 8
  store ptr %test_names, ptr %test_names.addr, align 8
  store i32 %index, ptr %index.addr, align 4
  store ptr %type_names, ptr %type_names.addr, align 8
  %0 = load ptr, ptr %prefix.addr, align 8
  call void @_ZNSaIcEC1Ev(ptr noundef nonnull align 1 dereferenceable(1) %ref.tmp5) #3
  invoke void @_ZNSt7__cxx1112basic_stringIcSt11char_traitsIcESaIcEEC2IS3_EEPKcRKS3_(ptr noundef nonnull align 8 dereferenceable(32) %ref.tmp4, ptr noundef %0, ptr noundef nonnull align 1 dereferenceable(1) %ref.tmp5)
          to label %invoke.cont unwind label %lpad

invoke.cont:                                      ; preds = %entry
  %1 = load ptr, ptr %prefix.addr, align 8
  %arrayidx = getelementptr inbounds i8, ptr %1, i64 0
  %2 = load i8, ptr %arrayidx, align 1
  %conv = sext i8 %2 to i32
  %cmp = icmp eq i32 %conv, 0
  %cond = select i1 %cmp, ptr @.str, ptr @.str.46
  invoke void @_ZStplIcSt11char_traitsIcESaIcEENSt7__cxx1112basic_stringIT_T0_T1_EEOS8_PKS5_(ptr sret(%"class.std::__cxx11::basic_string") align 8 %ref.tmp3, ptr noundef nonnull align 8 dereferenceable(32) %ref.tmp4, ptr noundef %cond)
          to label %invoke.cont7 unwind label %lpad6

invoke.cont7:                                     ; preds = %invoke.cont
  %3 = load ptr, ptr %case_name.addr, align 8
  invoke void @_ZStplIcSt11char_traitsIcESaIcEENSt7__cxx1112basic_stringIT_T0_T1_EEOS8_PKS5_(ptr sret(%"class.std::__cxx11::basic_string") align 8 %ref.tmp2, ptr noundef nonnull align 8 dereferenceable(32) %ref.tmp3, ptr noundef %3)
          to label %invoke.cont9 unwind label %lpad8

invoke.cont9:                                     ; preds = %invoke.cont7
  invoke void @_ZStplIcSt11char_traitsIcESaIcEENSt7__cxx1112basic_stringIT_T0_T1_EEOS8_PKS5_(ptr sret(%"class.std::__cxx11::basic_string") align 8 %ref.tmp1, ptr noundef nonnull align 8 dereferenceable(32) %ref.tmp2, ptr noundef @.str.46)
          to label %invoke.cont11 unwind label %lpad10

invoke.cont11:                                    ; preds = %invoke.cont9
  %4 = load ptr, ptr %type_names.addr, align 8
  %5 = load i32, ptr %index.addr, align 4
  %conv12 = sext i32 %5 to i64
  %call = call noundef nonnull align 8 dereferenceable(32) ptr @_ZNKSt6vectorINSt7__cxx1112basic_stringIcSt11char_traitsIcESaIcEEESaIS5_EEixEm(ptr noundef nonnull align 8 dereferenceable(24) %4, i64 noundef %conv12) #3
  invoke void @_ZStplIcSt11char_traitsIcESaIcEENSt7__cxx1112basic_stringIT_T0_T1_EEOS8_RKS8_(ptr sret(%"class.std::__cxx11::basic_string") align 8 %ref.tmp, ptr noundef nonnull align 8 dereferenceable(32) %ref.tmp1, ptr noundef nonnull align 8 dereferenceable(32) %call)
          to label %invoke.cont14 unwind label %lpad13

invoke.cont14:                                    ; preds = %invoke.cont11
  %call15 = call noundef ptr @_ZNKSt7__cxx1112basic_stringIcSt11char_traitsIcESaIcEE5c_strEv(ptr noundef nonnull align 8 dereferenceable(32) %ref.tmp) #3
  %6 = load ptr, ptr %test_names.addr, align 8
  invoke void @_ZN7testing8internal19GetPrefixUntilCommaB5cxx11EPKc(ptr sret(%"class.std::__cxx11::basic_string") align 8 %agg.tmp, ptr noundef %6)
          to label %invoke.cont18 unwind label %lpad17

invoke.cont18:                                    ; preds = %invoke.cont14
  invoke void @_ZN7testing8internal19StripTrailingSpacesENSt7__cxx1112basic_stringIcSt11char_traitsIcESaIcEEE(ptr sret(%"class.std::__cxx11::basic_string") align 8 %ref.tmp16, ptr noundef %agg.tmp)
          to label %invoke.cont20 unwind label %lpad19

invoke.cont20:                                    ; preds = %invoke.cont18
  %call21 = call noundef ptr @_ZNKSt7__cxx1112basic_stringIcSt11char_traitsIcESaIcEE5c_strEv(ptr noundef nonnull align 8 dereferenceable(32) %ref.tmp16) #3
  invoke void @_ZN7testing8internal11GetTypeNameIhEENSt7__cxx1112basic_stringIcSt11char_traitsIcESaIcEEEv(ptr sret(%"class.std::__cxx11::basic_string") align 8 %ref.tmp22)
          to label %invoke.cont24 unwind label %lpad23

invoke.cont24:                                    ; preds = %invoke.cont20
  %call25 = call noundef ptr @_ZNKSt7__cxx1112basic_stringIcSt11char_traitsIcESaIcEE5c_strEv(ptr noundef nonnull align 8 dereferenceable(32) %ref.tmp22) #3
  %7 = load ptr, ptr %code_location.addr, align 8
  invoke void @_ZN7testing8internal12CodeLocationC2ERKS1_(ptr noundef nonnull align 8 dereferenceable(36) %agg.tmp26, ptr noundef nonnull align 8 dereferenceable(36) %7)
          to label %invoke.cont28 unwind label %lpad27

invoke.cont28:                                    ; preds = %invoke.cont24
  %call29 = call noundef ptr @_ZN7testing8internal9GetTypeIdIN12_GLOBAL__N_121RandenEngineTypedTestIhEEEEPKvv()
  %8 = load ptr, ptr %code_location.addr, align 8
  %file = getelementptr inbounds %"struct.testing::internal::CodeLocation", ptr %8, i32 0, i32 0
  %call30 = call noundef ptr @_ZNKSt7__cxx1112basic_stringIcSt11char_traitsIcESaIcEE5c_strEv(ptr noundef nonnull align 8 dereferenceable(32) %file) #3
  %9 = load ptr, ptr %code_location.addr, align 8
  %line = getelementptr inbounds %"struct.testing::internal::CodeLocation", ptr %9, i32 0, i32 1
  %10 = load i32, ptr %line, align 8
  %call33 = invoke noundef ptr @_ZN7testing8internal16SuiteApiResolverIN12_GLOBAL__N_148RandenEngineTypedTest_StreamOperatorsResult_TestIhEEE19GetSetUpCaseOrSuiteEPKci(ptr noundef %call30, i32 noundef %10)
          to label %invoke.cont32 unwind label %lpad31

invoke.cont32:                                    ; preds = %invoke.cont28
  %11 = load ptr, ptr %code_location.addr, align 8
  %file34 = getelementptr inbounds %"struct.testing::internal::CodeLocation", ptr %11, i32 0, i32 0
  %call35 = call noundef ptr @_ZNKSt7__cxx1112basic_stringIcSt11char_traitsIcESaIcEE5c_strEv(ptr noundef nonnull align 8 dereferenceable(32) %file34) #3
  %12 = load ptr, ptr %code_location.addr, align 8
  %line36 = getelementptr inbounds %"struct.testing::internal::CodeLocation", ptr %12, i32 0, i32 1
  %13 = load i32, ptr %line36, align 8
  %call38 = invoke noundef ptr @_ZN7testing8internal16SuiteApiResolverIN12_GLOBAL__N_148RandenEngineTypedTest_StreamOperatorsResult_TestIhEEE22GetTearDownCaseOrSuiteEPKci(ptr noundef %call35, i32 noundef %13)
          to label %invoke.cont37 unwind label %lpad31

invoke.cont37:                                    ; preds = %invoke.cont32
  %call40 = invoke noalias noundef nonnull ptr @_Znwm(i64 noundef 8) #17
          to label %invoke.cont39 unwind label %lpad31

invoke.cont39:                                    ; preds = %invoke.cont37
  invoke void @_ZN7testing8internal15TestFactoryImplIN12_GLOBAL__N_148RandenEngineTypedTest_StreamOperatorsResult_TestIhEEEC2Ev(ptr noundef nonnull align 8 dereferenceable(8) %call40)
          to label %invoke.cont42 unwind label %lpad41

invoke.cont42:                                    ; preds = %invoke.cont39
  %call44 = invoke noundef ptr @_ZN7testing8internal23MakeAndRegisterTestInfoEPKcS2_S2_S2_NS0_12CodeLocationEPKvPFvvES7_PNS0_15TestFactoryBaseE(ptr noundef %call15, ptr noundef %call21, ptr noundef %call25, ptr noundef null, ptr noundef %agg.tmp26, ptr noundef %call29, ptr noundef %call33, ptr noundef %call38, ptr noundef %call40)
          to label %invoke.cont43 unwind label %lpad31

invoke.cont43:                                    ; preds = %invoke.cont42
  call void @_ZN7testing8internal12CodeLocationD2Ev(ptr noundef nonnull align 8 dereferenceable(36) %agg.tmp26) #3
  call void @_ZNSt7__cxx1112basic_stringIcSt11char_traitsIcESaIcEED1Ev(ptr noundef nonnull align 8 dereferenceable(32) %ref.tmp22) #3
  call void @_ZNSt7__cxx1112basic_stringIcSt11char_traitsIcESaIcEED1Ev(ptr noundef nonnull align 8 dereferenceable(32) %ref.tmp16) #3
  call void @_ZNSt7__cxx1112basic_stringIcSt11char_traitsIcESaIcEED1Ev(ptr noundef nonnull align 8 dereferenceable(32) %agg.tmp) #3
  call void @_ZNSt7__cxx1112basic_stringIcSt11char_traitsIcESaIcEED1Ev(ptr noundef nonnull align 8 dereferenceable(32) %ref.tmp) #3
  call void @_ZNSt7__cxx1112basic_stringIcSt11char_traitsIcESaIcEED1Ev(ptr noundef nonnull align 8 dereferenceable(32) %ref.tmp1) #3
  call void @_ZNSt7__cxx1112basic_stringIcSt11char_traitsIcESaIcEED1Ev(ptr noundef nonnull align 8 dereferenceable(32) %ref.tmp2) #3
  call void @_ZNSt7__cxx1112basic_stringIcSt11char_traitsIcESaIcEED1Ev(ptr noundef nonnull align 8 dereferenceable(32) %ref.tmp3) #3
  call void @_ZNSt7__cxx1112basic_stringIcSt11char_traitsIcESaIcEED1Ev(ptr noundef nonnull align 8 dereferenceable(32) %ref.tmp4) #3
  call void @_ZNSaIcED1Ev(ptr noundef nonnull align 1 dereferenceable(1) %ref.tmp5) #3
  %14 = load ptr, ptr %prefix.addr, align 8
  %15 = load ptr, ptr %code_location.addr, align 8
  %16 = load ptr, ptr %case_name.addr, align 8
  %17 = load ptr, ptr %test_names.addr, align 8
  %18 = load i32, ptr %index.addr, align 4
  %add = add nsw i32 %18, 1
  %19 = load ptr, ptr %type_names.addr, align 8
  %call54 = call noundef zeroext i1 @_ZN7testing8internal21TypeParameterizedTestIN12_GLOBAL__N_121RandenEngineTypedTestENS0_11TemplateSelINS2_48RandenEngineTypedTest_StreamOperatorsResult_TestEEENS0_5TypesItJjmEEEE8RegisterEPKcRKNS0_12CodeLocationESB_SB_iRKSt6vectorINSt7__cxx1112basic_stringIcSt11char_traitsIcESaIcEEESaISL_EE(ptr noundef %14, ptr noundef nonnull align 8 dereferenceable(36) %15, ptr noundef %16, ptr noundef %17, i32 noundef %add, ptr noundef nonnull align 8 dereferenceable(24) %19)
  ret i1 %call54

lpad:                                             ; preds = %entry
  %20 = landingpad { ptr, i32 }
          cleanup
  %21 = extractvalue { ptr, i32 } %20, 0
  store ptr %21, ptr %exn.slot, align 8
  %22 = extractvalue { ptr, i32 } %20, 1
  store i32 %22, ptr %ehselector.slot, align 4
  br label %ehcleanup53

lpad6:                                            ; preds = %invoke.cont
  %23 = landingpad { ptr, i32 }
          cleanup
  %24 = extractvalue { ptr, i32 } %23, 0
  store ptr %24, ptr %exn.slot, align 8
  %25 = extractvalue { ptr, i32 } %23, 1
  store i32 %25, ptr %ehselector.slot, align 4
  br label %ehcleanup52

lpad8:                                            ; preds = %invoke.cont7
  %26 = landingpad { ptr, i32 }
          cleanup
  %27 = extractvalue { ptr, i32 } %26, 0
  store ptr %27, ptr %exn.slot, align 8
  %28 = extractvalue { ptr, i32 } %26, 1
  store i32 %28, ptr %ehselector.slot, align 4
  br label %ehcleanup51

lpad10:                                           ; preds = %invoke.cont9
  %29 = landingpad { ptr, i32 }
          cleanup
  %30 = extractvalue { ptr, i32 } %29, 0
  store ptr %30, ptr %exn.slot, align 8
  %31 = extractvalue { ptr, i32 } %29, 1
  store i32 %31, ptr %ehselector.slot, align 4
  br label %ehcleanup50

lpad13:                                           ; preds = %invoke.cont11
  %32 = landingpad { ptr, i32 }
          cleanup
  %33 = extractvalue { ptr, i32 } %32, 0
  store ptr %33, ptr %exn.slot, align 8
  %34 = extractvalue { ptr, i32 } %32, 1
  store i32 %34, ptr %ehselector.slot, align 4
  br label %ehcleanup49

lpad17:                                           ; preds = %invoke.cont14
  %35 = landingpad { ptr, i32 }
          cleanup
  %36 = extractvalue { ptr, i32 } %35, 0
  store ptr %36, ptr %exn.slot, align 8
  %37 = extractvalue { ptr, i32 } %35, 1
  store i32 %37, ptr %ehselector.slot, align 4
  br label %ehcleanup48

lpad19:                                           ; preds = %invoke.cont18
  %38 = landingpad { ptr, i32 }
          cleanup
  %39 = extractvalue { ptr, i32 } %38, 0
  store ptr %39, ptr %exn.slot, align 8
  %40 = extractvalue { ptr, i32 } %38, 1
  store i32 %40, ptr %ehselector.slot, align 4
  br label %ehcleanup47

lpad23:                                           ; preds = %invoke.cont20
  %41 = landingpad { ptr, i32 }
          cleanup
  %42 = extractvalue { ptr, i32 } %41, 0
  store ptr %42, ptr %exn.slot, align 8
  %43 = extractvalue { ptr, i32 } %41, 1
  store i32 %43, ptr %ehselector.slot, align 4
  br label %ehcleanup46

lpad27:                                           ; preds = %invoke.cont24
  %44 = landingpad { ptr, i32 }
          cleanup
  %45 = extractvalue { ptr, i32 } %44, 0
  store ptr %45, ptr %exn.slot, align 8
  %46 = extractvalue { ptr, i32 } %44, 1
  store i32 %46, ptr %ehselector.slot, align 4
  br label %ehcleanup45

lpad31:                                           ; preds = %invoke.cont42, %invoke.cont37, %invoke.cont32, %invoke.cont28
  %47 = landingpad { ptr, i32 }
          cleanup
  %48 = extractvalue { ptr, i32 } %47, 0
  store ptr %48, ptr %exn.slot, align 8
  %49 = extractvalue { ptr, i32 } %47, 1
  store i32 %49, ptr %ehselector.slot, align 4
  br label %ehcleanup

lpad41:                                           ; preds = %invoke.cont39
  %50 = landingpad { ptr, i32 }
          cleanup
  %51 = extractvalue { ptr, i32 } %50, 0
  store ptr %51, ptr %exn.slot, align 8
  %52 = extractvalue { ptr, i32 } %50, 1
  store i32 %52, ptr %ehselector.slot, align 4
  call void @_ZdlPv(ptr noundef %call40) #18
  br label %ehcleanup

ehcleanup:                                        ; preds = %lpad41, %lpad31
  call void @_ZN7testing8internal12CodeLocationD2Ev(ptr noundef nonnull align 8 dereferenceable(36) %agg.tmp26) #3
  br label %ehcleanup45

ehcleanup45:                                      ; preds = %ehcleanup, %lpad27
  call void @_ZNSt7__cxx1112basic_stringIcSt11char_traitsIcESaIcEED1Ev(ptr noundef nonnull align 8 dereferenceable(32) %ref.tmp22) #3
  br label %ehcleanup46

ehcleanup46:                                      ; preds = %ehcleanup45, %lpad23
  call void @_ZNSt7__cxx1112basic_stringIcSt11char_traitsIcESaIcEED1Ev(ptr noundef nonnull align 8 dereferenceable(32) %ref.tmp16) #3
  br label %ehcleanup47

ehcleanup47:                                      ; preds = %ehcleanup46, %lpad19
  call void @_ZNSt7__cxx1112basic_stringIcSt11char_traitsIcESaIcEED1Ev(ptr noundef nonnull align 8 dereferenceable(32) %agg.tmp) #3
  br label %ehcleanup48

ehcleanup48:                                      ; preds = %ehcleanup47, %lpad17
  call void @_ZNSt7__cxx1112basic_stringIcSt11char_traitsIcESaIcEED1Ev(ptr noundef nonnull align 8 dereferenceable(32) %ref.tmp) #3
  br label %ehcleanup49

ehcleanup49:                                      ; preds = %ehcleanup48, %lpad13
  call void @_ZNSt7__cxx1112basic_stringIcSt11char_traitsIcESaIcEED1Ev(ptr noundef nonnull align 8 dereferenceable(32) %ref.tmp1) #3
  br label %ehcleanup50

ehcleanup50:                                      ; preds = %ehcleanup49, %lpad10
  call void @_ZNSt7__cxx1112basic_stringIcSt11char_traitsIcESaIcEED1Ev(ptr noundef nonnull align 8 dereferenceable(32) %ref.tmp2) #3
  br label %ehcleanup51

ehcleanup51:                                      ; preds = %ehcleanup50, %lpad8
  call void @_ZNSt7__cxx1112basic_stringIcSt11char_traitsIcESaIcEED1Ev(ptr noundef nonnull align 8 dereferenceable(32) %ref.tmp3) #3
  br label %ehcleanup52

ehcleanup52:                                      ; preds = %ehcleanup51, %lpad6
  call void @_ZNSt7__cxx1112basic_stringIcSt11char_traitsIcESaIcEED1Ev(ptr noundef nonnull align 8 dereferenceable(32) %ref.tmp4) #3
  br label %ehcleanup53

ehcleanup53:                                      ; preds = %ehcleanup52, %lpad
  call void @_ZNSaIcED1Ev(ptr noundef nonnull align 1 dereferenceable(1) %ref.tmp5) #3
  br label %eh.resume

eh.resume:                                        ; preds = %ehcleanup53
  %exn = load ptr, ptr %exn.slot, align 8
  %sel = load i32, ptr %ehselector.slot, align 4
  %lpad.val = insertvalue { ptr, i32 } poison, ptr %exn, 0
  %lpad.val55 = insertvalue { ptr, i32 } %lpad.val, i32 %sel, 1
  resume { ptr, i32 } %lpad.val55
}

; Function Attrs: uwtable
define internal void @__cxx_global_var_init.9() #0 section ".text.startup" personality ptr @__gxx_personality_v0 {
entry:
  %ref.tmp = alloca %"struct.testing::internal::CodeLocation", align 8
  %ref.tmp1 = alloca %"class.std::__cxx11::basic_string", align 8
  %ref.tmp2 = alloca %"class.std::allocator", align 1
  %exn.slot = alloca ptr, align 8
  %ehselector.slot = alloca i32, align 4
  %ref.tmp5 = alloca %"class.std::vector", align 8
  call void @_ZNSaIcEC1Ev(ptr noundef nonnull align 1 dereferenceable(1) %ref.tmp2) #3
  invoke void @_ZNSt7__cxx1112basic_stringIcSt11char_traitsIcESaIcEEC2IS3_EEPKcRKS3_(ptr noundef nonnull align 8 dereferenceable(32) %ref.tmp1, ptr noundef @.str.2, ptr noundef nonnull align 1 dereferenceable(1) %ref.tmp2)
          to label %invoke.cont unwind label %lpad

invoke.cont:                                      ; preds = %entry
  invoke void @_ZN7testing8internal12CodeLocationC2ERKNSt7__cxx1112basic_stringIcSt11char_traitsIcESaIcEEEi(ptr noundef nonnull align 8 dereferenceable(36) %ref.tmp, ptr noundef nonnull align 8 dereferenceable(32) %ref.tmp1, i32 noundef 141)
          to label %invoke.cont4 unwind label %lpad3

invoke.cont4:                                     ; preds = %invoke.cont
  invoke void @_ZN7testing8internal13GenerateNamesINS0_20DefaultNameGeneratorENS0_5TypesIhJtjmEEEEESt6vectorINSt7__cxx1112basic_stringIcSt11char_traitsIcESaIcEEESaISB_EEv(ptr sret(%"class.std::vector") align 8 %ref.tmp5)
          to label %invoke.cont7 unwind label %lpad6

invoke.cont7:                                     ; preds = %invoke.cont4
  %call = invoke noundef zeroext i1 @_ZN7testing8internal21TypeParameterizedTestIN12_GLOBAL__N_121RandenEngineTypedTestENS0_11TemplateSelINS2_46RandenEngineTypedTest_StreamSerialization_TestEEENS0_5TypesIhJtjmEEEE8RegisterEPKcRKNS0_12CodeLocationESB_SB_iRKSt6vectorINSt7__cxx1112basic_stringIcSt11char_traitsIcESaIcEEESaISL_EE(ptr noundef @.str, ptr noundef nonnull align 8 dereferenceable(36) %ref.tmp, ptr noundef @.str.3, ptr noundef @.str.10, i32 noundef 0, ptr noundef nonnull align 8 dereferenceable(24) %ref.tmp5)
          to label %invoke.cont9 unwind label %lpad8

invoke.cont9:                                     ; preds = %invoke.cont7
  call void @_ZNSt6vectorINSt7__cxx1112basic_stringIcSt11char_traitsIcESaIcEEESaIS5_EED2Ev(ptr noundef nonnull align 8 dereferenceable(24) %ref.tmp5) #3
  call void @_ZN7testing8internal12CodeLocationD2Ev(ptr noundef nonnull align 8 dereferenceable(36) %ref.tmp) #3
  call void @_ZNSt7__cxx1112basic_stringIcSt11char_traitsIcESaIcEED1Ev(ptr noundef nonnull align 8 dereferenceable(32) %ref.tmp1) #3
  call void @_ZNSaIcED1Ev(ptr noundef nonnull align 1 dereferenceable(1) %ref.tmp2) #3
  %frombool = zext i1 %call to i8
  store i8 %frombool, ptr @_ZN12_GLOBAL__N_159gtest_RandenEngineTypedTest_StreamSerialization_registered_E, align 1
  ret void

lpad:                                             ; preds = %entry
  %0 = landingpad { ptr, i32 }
          cleanup
  %1 = extractvalue { ptr, i32 } %0, 0
  store ptr %1, ptr %exn.slot, align 8
  %2 = extractvalue { ptr, i32 } %0, 1
  store i32 %2, ptr %ehselector.slot, align 4
  br label %ehcleanup11

lpad3:                                            ; preds = %invoke.cont
  %3 = landingpad { ptr, i32 }
          cleanup
  %4 = extractvalue { ptr, i32 } %3, 0
  store ptr %4, ptr %exn.slot, align 8
  %5 = extractvalue { ptr, i32 } %3, 1
  store i32 %5, ptr %ehselector.slot, align 4
  br label %ehcleanup10

lpad6:                                            ; preds = %invoke.cont4
  %6 = landingpad { ptr, i32 }
          cleanup
  %7 = extractvalue { ptr, i32 } %6, 0
  store ptr %7, ptr %exn.slot, align 8
  %8 = extractvalue { ptr, i32 } %6, 1
  store i32 %8, ptr %ehselector.slot, align 4
  br label %ehcleanup

lpad8:                                            ; preds = %invoke.cont7
  %9 = landingpad { ptr, i32 }
          cleanup
  %10 = extractvalue { ptr, i32 } %9, 0
  store ptr %10, ptr %exn.slot, align 8
  %11 = extractvalue { ptr, i32 } %9, 1
  store i32 %11, ptr %ehselector.slot, align 4
  call void @_ZNSt6vectorINSt7__cxx1112basic_stringIcSt11char_traitsIcESaIcEEESaIS5_EED2Ev(ptr noundef nonnull align 8 dereferenceable(24) %ref.tmp5) #3
  br label %ehcleanup

ehcleanup:                                        ; preds = %lpad8, %lpad6
  call void @_ZN7testing8internal12CodeLocationD2Ev(ptr noundef nonnull align 8 dereferenceable(36) %ref.tmp) #3
  br label %ehcleanup10

ehcleanup10:                                      ; preds = %ehcleanup, %lpad3
  call void @_ZNSt7__cxx1112basic_stringIcSt11char_traitsIcESaIcEED1Ev(ptr noundef nonnull align 8 dereferenceable(32) %ref.tmp1) #3
  br label %ehcleanup11

ehcleanup11:                                      ; preds = %ehcleanup10, %lpad
  call void @_ZNSaIcED1Ev(ptr noundef nonnull align 1 dereferenceable(1) %ref.tmp2) #3
  br label %eh.resume

eh.resume:                                        ; preds = %ehcleanup11
  %exn = load ptr, ptr %exn.slot, align 8
  %sel = load i32, ptr %ehselector.slot, align 4
  %lpad.val = insertvalue { ptr, i32 } poison, ptr %exn, 0
  %lpad.val12 = insertvalue { ptr, i32 } %lpad.val, i32 %sel, 1
  resume { ptr, i32 } %lpad.val12
}

; Function Attrs: mustprogress uwtable
define internal noundef zeroext i1 @_ZN7testing8internal21TypeParameterizedTestIN12_GLOBAL__N_121RandenEngineTypedTestENS0_11TemplateSelINS2_46RandenEngineTypedTest_StreamSerialization_TestEEENS0_5TypesIhJtjmEEEE8RegisterEPKcRKNS0_12CodeLocationESB_SB_iRKSt6vectorINSt7__cxx1112basic_stringIcSt11char_traitsIcESaIcEEESaISL_EE(ptr noundef %prefix, ptr noundef nonnull align 8 dereferenceable(36) %code_location, ptr noundef %case_name, ptr noundef %test_names, i32 noundef %index, ptr noundef nonnull align 8 dereferenceable(24) %type_names) #4 align 2 personality ptr @__gxx_personality_v0 {
entry:
  %prefix.addr = alloca ptr, align 8
  %code_location.addr = alloca ptr, align 8
  %case_name.addr = alloca ptr, align 8
  %test_names.addr = alloca ptr, align 8
  %index.addr = alloca i32, align 4
  %type_names.addr = alloca ptr, align 8
  %ref.tmp = alloca %"class.std::__cxx11::basic_string", align 8
  %ref.tmp1 = alloca %"class.std::__cxx11::basic_string", align 8
  %ref.tmp2 = alloca %"class.std::__cxx11::basic_string", align 8
  %ref.tmp3 = alloca %"class.std::__cxx11::basic_string", align 8
  %ref.tmp4 = alloca %"class.std::__cxx11::basic_string", align 8
  %ref.tmp5 = alloca %"class.std::allocator", align 1
  %exn.slot = alloca ptr, align 8
  %ehselector.slot = alloca i32, align 4
  %ref.tmp16 = alloca %"class.std::__cxx11::basic_string", align 8
  %agg.tmp = alloca %"class.std::__cxx11::basic_string", align 8
  %ref.tmp22 = alloca %"class.std::__cxx11::basic_string", align 8
  %agg.tmp26 = alloca %"struct.testing::internal::CodeLocation", align 8
  store ptr %prefix, ptr %prefix.addr, align 8
  store ptr %code_location, ptr %code_location.addr, align 8
  store ptr %case_name, ptr %case_name.addr, align 8
  store ptr %test_names, ptr %test_names.addr, align 8
  store i32 %index, ptr %index.addr, align 4
  store ptr %type_names, ptr %type_names.addr, align 8
  %0 = load ptr, ptr %prefix.addr, align 8
  call void @_ZNSaIcEC1Ev(ptr noundef nonnull align 1 dereferenceable(1) %ref.tmp5) #3
  invoke void @_ZNSt7__cxx1112basic_stringIcSt11char_traitsIcESaIcEEC2IS3_EEPKcRKS3_(ptr noundef nonnull align 8 dereferenceable(32) %ref.tmp4, ptr noundef %0, ptr noundef nonnull align 1 dereferenceable(1) %ref.tmp5)
          to label %invoke.cont unwind label %lpad

invoke.cont:                                      ; preds = %entry
  %1 = load ptr, ptr %prefix.addr, align 8
  %arrayidx = getelementptr inbounds i8, ptr %1, i64 0
  %2 = load i8, ptr %arrayidx, align 1
  %conv = sext i8 %2 to i32
  %cmp = icmp eq i32 %conv, 0
  %cond = select i1 %cmp, ptr @.str, ptr @.str.46
  invoke void @_ZStplIcSt11char_traitsIcESaIcEENSt7__cxx1112basic_stringIT_T0_T1_EEOS8_PKS5_(ptr sret(%"class.std::__cxx11::basic_string") align 8 %ref.tmp3, ptr noundef nonnull align 8 dereferenceable(32) %ref.tmp4, ptr noundef %cond)
          to label %invoke.cont7 unwind label %lpad6

invoke.cont7:                                     ; preds = %invoke.cont
  %3 = load ptr, ptr %case_name.addr, align 8
  invoke void @_ZStplIcSt11char_traitsIcESaIcEENSt7__cxx1112basic_stringIT_T0_T1_EEOS8_PKS5_(ptr sret(%"class.std::__cxx11::basic_string") align 8 %ref.tmp2, ptr noundef nonnull align 8 dereferenceable(32) %ref.tmp3, ptr noundef %3)
          to label %invoke.cont9 unwind label %lpad8

invoke.cont9:                                     ; preds = %invoke.cont7
  invoke void @_ZStplIcSt11char_traitsIcESaIcEENSt7__cxx1112basic_stringIT_T0_T1_EEOS8_PKS5_(ptr sret(%"class.std::__cxx11::basic_string") align 8 %ref.tmp1, ptr noundef nonnull align 8 dereferenceable(32) %ref.tmp2, ptr noundef @.str.46)
          to label %invoke.cont11 unwind label %lpad10

invoke.cont11:                                    ; preds = %invoke.cont9
  %4 = load ptr, ptr %type_names.addr, align 8
  %5 = load i32, ptr %index.addr, align 4
  %conv12 = sext i32 %5 to i64
  %call = call noundef nonnull align 8 dereferenceable(32) ptr @_ZNKSt6vectorINSt7__cxx1112basic_stringIcSt11char_traitsIcESaIcEEESaIS5_EEixEm(ptr noundef nonnull align 8 dereferenceable(24) %4, i64 noundef %conv12) #3
  invoke void @_ZStplIcSt11char_traitsIcESaIcEENSt7__cxx1112basic_stringIT_T0_T1_EEOS8_RKS8_(ptr sret(%"class.std::__cxx11::basic_string") align 8 %ref.tmp, ptr noundef nonnull align 8 dereferenceable(32) %ref.tmp1, ptr noundef nonnull align 8 dereferenceable(32) %call)
          to label %invoke.cont14 unwind label %lpad13

invoke.cont14:                                    ; preds = %invoke.cont11
  %call15 = call noundef ptr @_ZNKSt7__cxx1112basic_stringIcSt11char_traitsIcESaIcEE5c_strEv(ptr noundef nonnull align 8 dereferenceable(32) %ref.tmp) #3
  %6 = load ptr, ptr %test_names.addr, align 8
  invoke void @_ZN7testing8internal19GetPrefixUntilCommaB5cxx11EPKc(ptr sret(%"class.std::__cxx11::basic_string") align 8 %agg.tmp, ptr noundef %6)
          to label %invoke.cont18 unwind label %lpad17

invoke.cont18:                                    ; preds = %invoke.cont14
  invoke void @_ZN7testing8internal19StripTrailingSpacesENSt7__cxx1112basic_stringIcSt11char_traitsIcESaIcEEE(ptr sret(%"class.std::__cxx11::basic_string") align 8 %ref.tmp16, ptr noundef %agg.tmp)
          to label %invoke.cont20 unwind label %lpad19

invoke.cont20:                                    ; preds = %invoke.cont18
  %call21 = call noundef ptr @_ZNKSt7__cxx1112basic_stringIcSt11char_traitsIcESaIcEE5c_strEv(ptr noundef nonnull align 8 dereferenceable(32) %ref.tmp16) #3
  invoke void @_ZN7testing8internal11GetTypeNameIhEENSt7__cxx1112basic_stringIcSt11char_traitsIcESaIcEEEv(ptr sret(%"class.std::__cxx11::basic_string") align 8 %ref.tmp22)
          to label %invoke.cont24 unwind label %lpad23

invoke.cont24:                                    ; preds = %invoke.cont20
  %call25 = call noundef ptr @_ZNKSt7__cxx1112basic_stringIcSt11char_traitsIcESaIcEE5c_strEv(ptr noundef nonnull align 8 dereferenceable(32) %ref.tmp22) #3
  %7 = load ptr, ptr %code_location.addr, align 8
  invoke void @_ZN7testing8internal12CodeLocationC2ERKS1_(ptr noundef nonnull align 8 dereferenceable(36) %agg.tmp26, ptr noundef nonnull align 8 dereferenceable(36) %7)
          to label %invoke.cont28 unwind label %lpad27

invoke.cont28:                                    ; preds = %invoke.cont24
  %call29 = call noundef ptr @_ZN7testing8internal9GetTypeIdIN12_GLOBAL__N_121RandenEngineTypedTestIhEEEEPKvv()
  %8 = load ptr, ptr %code_location.addr, align 8
  %file = getelementptr inbounds %"struct.testing::internal::CodeLocation", ptr %8, i32 0, i32 0
  %call30 = call noundef ptr @_ZNKSt7__cxx1112basic_stringIcSt11char_traitsIcESaIcEE5c_strEv(ptr noundef nonnull align 8 dereferenceable(32) %file) #3
  %9 = load ptr, ptr %code_location.addr, align 8
  %line = getelementptr inbounds %"struct.testing::internal::CodeLocation", ptr %9, i32 0, i32 1
  %10 = load i32, ptr %line, align 8
  %call33 = invoke noundef ptr @_ZN7testing8internal16SuiteApiResolverIN12_GLOBAL__N_146RandenEngineTypedTest_StreamSerialization_TestIhEEE19GetSetUpCaseOrSuiteEPKci(ptr noundef %call30, i32 noundef %10)
          to label %invoke.cont32 unwind label %lpad31

invoke.cont32:                                    ; preds = %invoke.cont28
  %11 = load ptr, ptr %code_location.addr, align 8
  %file34 = getelementptr inbounds %"struct.testing::internal::CodeLocation", ptr %11, i32 0, i32 0
  %call35 = call noundef ptr @_ZNKSt7__cxx1112basic_stringIcSt11char_traitsIcESaIcEE5c_strEv(ptr noundef nonnull align 8 dereferenceable(32) %file34) #3
  %12 = load ptr, ptr %code_location.addr, align 8
  %line36 = getelementptr inbounds %"struct.testing::internal::CodeLocation", ptr %12, i32 0, i32 1
  %13 = load i32, ptr %line36, align 8
  %call38 = invoke noundef ptr @_ZN7testing8internal16SuiteApiResolverIN12_GLOBAL__N_146RandenEngineTypedTest_StreamSerialization_TestIhEEE22GetTearDownCaseOrSuiteEPKci(ptr noundef %call35, i32 noundef %13)
          to label %invoke.cont37 unwind label %lpad31

invoke.cont37:                                    ; preds = %invoke.cont32
  %call40 = invoke noalias noundef nonnull ptr @_Znwm(i64 noundef 8) #17
          to label %invoke.cont39 unwind label %lpad31

invoke.cont39:                                    ; preds = %invoke.cont37
  invoke void @_ZN7testing8internal15TestFactoryImplIN12_GLOBAL__N_146RandenEngineTypedTest_StreamSerialization_TestIhEEEC2Ev(ptr noundef nonnull align 8 dereferenceable(8) %call40)
          to label %invoke.cont42 unwind label %lpad41

invoke.cont42:                                    ; preds = %invoke.cont39
  %call44 = invoke noundef ptr @_ZN7testing8internal23MakeAndRegisterTestInfoEPKcS2_S2_S2_NS0_12CodeLocationEPKvPFvvES7_PNS0_15TestFactoryBaseE(ptr noundef %call15, ptr noundef %call21, ptr noundef %call25, ptr noundef null, ptr noundef %agg.tmp26, ptr noundef %call29, ptr noundef %call33, ptr noundef %call38, ptr noundef %call40)
          to label %invoke.cont43 unwind label %lpad31

invoke.cont43:                                    ; preds = %invoke.cont42
  call void @_ZN7testing8internal12CodeLocationD2Ev(ptr noundef nonnull align 8 dereferenceable(36) %agg.tmp26) #3
  call void @_ZNSt7__cxx1112basic_stringIcSt11char_traitsIcESaIcEED1Ev(ptr noundef nonnull align 8 dereferenceable(32) %ref.tmp22) #3
  call void @_ZNSt7__cxx1112basic_stringIcSt11char_traitsIcESaIcEED1Ev(ptr noundef nonnull align 8 dereferenceable(32) %ref.tmp16) #3
  call void @_ZNSt7__cxx1112basic_stringIcSt11char_traitsIcESaIcEED1Ev(ptr noundef nonnull align 8 dereferenceable(32) %agg.tmp) #3
  call void @_ZNSt7__cxx1112basic_stringIcSt11char_traitsIcESaIcEED1Ev(ptr noundef nonnull align 8 dereferenceable(32) %ref.tmp) #3
  call void @_ZNSt7__cxx1112basic_stringIcSt11char_traitsIcESaIcEED1Ev(ptr noundef nonnull align 8 dereferenceable(32) %ref.tmp1) #3
  call void @_ZNSt7__cxx1112basic_stringIcSt11char_traitsIcESaIcEED1Ev(ptr noundef nonnull align 8 dereferenceable(32) %ref.tmp2) #3
  call void @_ZNSt7__cxx1112basic_stringIcSt11char_traitsIcESaIcEED1Ev(ptr noundef nonnull align 8 dereferenceable(32) %ref.tmp3) #3
  call void @_ZNSt7__cxx1112basic_stringIcSt11char_traitsIcESaIcEED1Ev(ptr noundef nonnull align 8 dereferenceable(32) %ref.tmp4) #3
  call void @_ZNSaIcED1Ev(ptr noundef nonnull align 1 dereferenceable(1) %ref.tmp5) #3
  %14 = load ptr, ptr %prefix.addr, align 8
  %15 = load ptr, ptr %code_location.addr, align 8
  %16 = load ptr, ptr %case_name.addr, align 8
  %17 = load ptr, ptr %test_names.addr, align 8
  %18 = load i32, ptr %index.addr, align 4
  %add = add nsw i32 %18, 1
  %19 = load ptr, ptr %type_names.addr, align 8
  %call54 = call noundef zeroext i1 @_ZN7testing8internal21TypeParameterizedTestIN12_GLOBAL__N_121RandenEngineTypedTestENS0_11TemplateSelINS2_46RandenEngineTypedTest_StreamSerialization_TestEEENS0_5TypesItJjmEEEE8RegisterEPKcRKNS0_12CodeLocationESB_SB_iRKSt6vectorINSt7__cxx1112basic_stringIcSt11char_traitsIcESaIcEEESaISL_EE(ptr noundef %14, ptr noundef nonnull align 8 dereferenceable(36) %15, ptr noundef %16, ptr noundef %17, i32 noundef %add, ptr noundef nonnull align 8 dereferenceable(24) %19)
  ret i1 %call54

lpad:                                             ; preds = %entry
  %20 = landingpad { ptr, i32 }
          cleanup
  %21 = extractvalue { ptr, i32 } %20, 0
  store ptr %21, ptr %exn.slot, align 8
  %22 = extractvalue { ptr, i32 } %20, 1
  store i32 %22, ptr %ehselector.slot, align 4
  br label %ehcleanup53

lpad6:                                            ; preds = %invoke.cont
  %23 = landingpad { ptr, i32 }
          cleanup
  %24 = extractvalue { ptr, i32 } %23, 0
  store ptr %24, ptr %exn.slot, align 8
  %25 = extractvalue { ptr, i32 } %23, 1
  store i32 %25, ptr %ehselector.slot, align 4
  br label %ehcleanup52

lpad8:                                            ; preds = %invoke.cont7
  %26 = landingpad { ptr, i32 }
          cleanup
  %27 = extractvalue { ptr, i32 } %26, 0
  store ptr %27, ptr %exn.slot, align 8
  %28 = extractvalue { ptr, i32 } %26, 1
  store i32 %28, ptr %ehselector.slot, align 4
  br label %ehcleanup51

lpad10:                                           ; preds = %invoke.cont9
  %29 = landingpad { ptr, i32 }
          cleanup
  %30 = extractvalue { ptr, i32 } %29, 0
  store ptr %30, ptr %exn.slot, align 8
  %31 = extractvalue { ptr, i32 } %29, 1
  store i32 %31, ptr %ehselector.slot, align 4
  br label %ehcleanup50

lpad13:                                           ; preds = %invoke.cont11
  %32 = landingpad { ptr, i32 }
          cleanup
  %33 = extractvalue { ptr, i32 } %32, 0
  store ptr %33, ptr %exn.slot, align 8
  %34 = extractvalue { ptr, i32 } %32, 1
  store i32 %34, ptr %ehselector.slot, align 4
  br label %ehcleanup49

lpad17:                                           ; preds = %invoke.cont14
  %35 = landingpad { ptr, i32 }
          cleanup
  %36 = extractvalue { ptr, i32 } %35, 0
  store ptr %36, ptr %exn.slot, align 8
  %37 = extractvalue { ptr, i32 } %35, 1
  store i32 %37, ptr %ehselector.slot, align 4
  br label %ehcleanup48

lpad19:                                           ; preds = %invoke.cont18
  %38 = landingpad { ptr, i32 }
          cleanup
  %39 = extractvalue { ptr, i32 } %38, 0
  store ptr %39, ptr %exn.slot, align 8
  %40 = extractvalue { ptr, i32 } %38, 1
  store i32 %40, ptr %ehselector.slot, align 4
  br label %ehcleanup47

lpad23:                                           ; preds = %invoke.cont20
  %41 = landingpad { ptr, i32 }
          cleanup
  %42 = extractvalue { ptr, i32 } %41, 0
  store ptr %42, ptr %exn.slot, align 8
  %43 = extractvalue { ptr, i32 } %41, 1
  store i32 %43, ptr %ehselector.slot, align 4
  br label %ehcleanup46

lpad27:                                           ; preds = %invoke.cont24
  %44 = landingpad { ptr, i32 }
          cleanup
  %45 = extractvalue { ptr, i32 } %44, 0
  store ptr %45, ptr %exn.slot, align 8
  %46 = extractvalue { ptr, i32 } %44, 1
  store i32 %46, ptr %ehselector.slot, align 4
  br label %ehcleanup45

lpad31:                                           ; preds = %invoke.cont42, %invoke.cont37, %invoke.cont32, %invoke.cont28
  %47 = landingpad { ptr, i32 }
          cleanup
  %48 = extractvalue { ptr, i32 } %47, 0
  store ptr %48, ptr %exn.slot, align 8
  %49 = extractvalue { ptr, i32 } %47, 1
  store i32 %49, ptr %ehselector.slot, align 4
  br label %ehcleanup

lpad41:                                           ; preds = %invoke.cont39
  %50 = landingpad { ptr, i32 }
          cleanup
  %51 = extractvalue { ptr, i32 } %50, 0
  store ptr %51, ptr %exn.slot, align 8
  %52 = extractvalue { ptr, i32 } %50, 1
  store i32 %52, ptr %ehselector.slot, align 4
  call void @_ZdlPv(ptr noundef %call40) #18
  br label %ehcleanup

ehcleanup:                                        ; preds = %lpad41, %lpad31
  call void @_ZN7testing8internal12CodeLocationD2Ev(ptr noundef nonnull align 8 dereferenceable(36) %agg.tmp26) #3
  br label %ehcleanup45

ehcleanup45:                                      ; preds = %ehcleanup, %lpad27
  call void @_ZNSt7__cxx1112basic_stringIcSt11char_traitsIcESaIcEED1Ev(ptr noundef nonnull align 8 dereferenceable(32) %ref.tmp22) #3
  br label %ehcleanup46

ehcleanup46:                                      ; preds = %ehcleanup45, %lpad23
  call void @_ZNSt7__cxx1112basic_stringIcSt11char_traitsIcESaIcEED1Ev(ptr noundef nonnull align 8 dereferenceable(32) %ref.tmp16) #3
  br label %ehcleanup47

ehcleanup47:                                      ; preds = %ehcleanup46, %lpad19
  call void @_ZNSt7__cxx1112basic_stringIcSt11char_traitsIcESaIcEED1Ev(ptr noundef nonnull align 8 dereferenceable(32) %agg.tmp) #3
  br label %ehcleanup48

ehcleanup48:                                      ; preds = %ehcleanup47, %lpad17
  call void @_ZNSt7__cxx1112basic_stringIcSt11char_traitsIcESaIcEED1Ev(ptr noundef nonnull align 8 dereferenceable(32) %ref.tmp) #3
  br label %ehcleanup49

ehcleanup49:                                      ; preds = %ehcleanup48, %lpad13
  call void @_ZNSt7__cxx1112basic_stringIcSt11char_traitsIcESaIcEED1Ev(ptr noundef nonnull align 8 dereferenceable(32) %ref.tmp1) #3
  br label %ehcleanup50

ehcleanup50:                                      ; preds = %ehcleanup49, %lpad10
  call void @_ZNSt7__cxx1112basic_stringIcSt11char_traitsIcESaIcEED1Ev(ptr noundef nonnull align 8 dereferenceable(32) %ref.tmp2) #3
  br label %ehcleanup51

ehcleanup51:                                      ; preds = %ehcleanup50, %lpad8
  call void @_ZNSt7__cxx1112basic_stringIcSt11char_traitsIcESaIcEED1Ev(ptr noundef nonnull align 8 dereferenceable(32) %ref.tmp3) #3
  br label %ehcleanup52

ehcleanup52:                                      ; preds = %ehcleanup51, %lpad6
  call void @_ZNSt7__cxx1112basic_stringIcSt11char_traitsIcESaIcEED1Ev(ptr noundef nonnull align 8 dereferenceable(32) %ref.tmp4) #3
  br label %ehcleanup53

ehcleanup53:                                      ; preds = %ehcleanup52, %lpad
  call void @_ZNSaIcED1Ev(ptr noundef nonnull align 1 dereferenceable(1) %ref.tmp5) #3
  br label %eh.resume

eh.resume:                                        ; preds = %ehcleanup53
  %exn = load ptr, ptr %exn.slot, align 8
  %sel = load i32, ptr %ehselector.slot, align 4
  %lpad.val = insertvalue { ptr, i32 } poison, ptr %exn, 0
  %lpad.val55 = insertvalue { ptr, i32 } %lpad.val, i32 %sel, 1
  resume { ptr, i32 } %lpad.val55
}

; Function Attrs: uwtable
define internal void @__cxx_global_var_init.11() #0 section ".text.startup" personality ptr @__gxx_personality_v0 {
entry:
  %ref.tmp = alloca %"struct.testing::internal::CodeLocation", align 8
  %ref.tmp1 = alloca %"class.std::__cxx11::basic_string", align 8
  %ref.tmp2 = alloca %"class.std::allocator", align 1
  %exn.slot = alloca ptr, align 8
  %ehselector.slot = alloca i32, align 4
  %ref.tmp5 = alloca %"class.std::vector", align 8
  call void @_ZNSaIcEC1Ev(ptr noundef nonnull align 1 dereferenceable(1) %ref.tmp2) #3
  invoke void @_ZNSt7__cxx1112basic_stringIcSt11char_traitsIcESaIcEEC2IS3_EEPKcRKS3_(ptr noundef nonnull align 8 dereferenceable(32) %ref.tmp1, ptr noundef @.str.2, ptr noundef nonnull align 1 dereferenceable(1) %ref.tmp2)
          to label %invoke.cont unwind label %lpad

invoke.cont:                                      ; preds = %entry
  invoke void @_ZN7testing8internal12CodeLocationC2ERKNSt7__cxx1112basic_stringIcSt11char_traitsIcESaIcEEEi(ptr noundef nonnull align 8 dereferenceable(36) %ref.tmp, ptr noundef nonnull align 8 dereferenceable(32) %ref.tmp1, i32 noundef 164)
          to label %invoke.cont4 unwind label %lpad3

invoke.cont4:                                     ; preds = %invoke.cont
  invoke void @_ZN7testing8internal13GenerateNamesINS0_20DefaultNameGeneratorENS0_5TypesIhJtjmEEEEESt6vectorINSt7__cxx1112basic_stringIcSt11char_traitsIcESaIcEEESaISB_EEv(ptr sret(%"class.std::vector") align 8 %ref.tmp5)
          to label %invoke.cont7 unwind label %lpad6

invoke.cont7:                                     ; preds = %invoke.cont4
  %call = invoke noundef zeroext i1 @_ZN7testing8internal21TypeParameterizedTestIN12_GLOBAL__N_121RandenEngineTypedTestENS0_11TemplateSelINS2_54RandenEngineTypedTest_RandomNumberEngineInterface_TestEEENS0_5TypesIhJtjmEEEE8RegisterEPKcRKNS0_12CodeLocationESB_SB_iRKSt6vectorINSt7__cxx1112basic_stringIcSt11char_traitsIcESaIcEEESaISL_EE(ptr noundef @.str, ptr noundef nonnull align 8 dereferenceable(36) %ref.tmp, ptr noundef @.str.3, ptr noundef @.str.12, i32 noundef 0, ptr noundef nonnull align 8 dereferenceable(24) %ref.tmp5)
          to label %invoke.cont9 unwind label %lpad8

invoke.cont9:                                     ; preds = %invoke.cont7
  call void @_ZNSt6vectorINSt7__cxx1112basic_stringIcSt11char_traitsIcESaIcEEESaIS5_EED2Ev(ptr noundef nonnull align 8 dereferenceable(24) %ref.tmp5) #3
  call void @_ZN7testing8internal12CodeLocationD2Ev(ptr noundef nonnull align 8 dereferenceable(36) %ref.tmp) #3
  call void @_ZNSt7__cxx1112basic_stringIcSt11char_traitsIcESaIcEED1Ev(ptr noundef nonnull align 8 dereferenceable(32) %ref.tmp1) #3
  call void @_ZNSaIcED1Ev(ptr noundef nonnull align 1 dereferenceable(1) %ref.tmp2) #3
  %frombool = zext i1 %call to i8
  store i8 %frombool, ptr @_ZN12_GLOBAL__N_167gtest_RandenEngineTypedTest_RandomNumberEngineInterface_registered_E, align 1
  ret void

lpad:                                             ; preds = %entry
  %0 = landingpad { ptr, i32 }
          cleanup
  %1 = extractvalue { ptr, i32 } %0, 0
  store ptr %1, ptr %exn.slot, align 8
  %2 = extractvalue { ptr, i32 } %0, 1
  store i32 %2, ptr %ehselector.slot, align 4
  br label %ehcleanup11

lpad3:                                            ; preds = %invoke.cont
  %3 = landingpad { ptr, i32 }
          cleanup
  %4 = extractvalue { ptr, i32 } %3, 0
  store ptr %4, ptr %exn.slot, align 8
  %5 = extractvalue { ptr, i32 } %3, 1
  store i32 %5, ptr %ehselector.slot, align 4
  br label %ehcleanup10

lpad6:                                            ; preds = %invoke.cont4
  %6 = landingpad { ptr, i32 }
          cleanup
  %7 = extractvalue { ptr, i32 } %6, 0
  store ptr %7, ptr %exn.slot, align 8
  %8 = extractvalue { ptr, i32 } %6, 1
  store i32 %8, ptr %ehselector.slot, align 4
  br label %ehcleanup

lpad8:                                            ; preds = %invoke.cont7
  %9 = landingpad { ptr, i32 }
          cleanup
  %10 = extractvalue { ptr, i32 } %9, 0
  store ptr %10, ptr %exn.slot, align 8
  %11 = extractvalue { ptr, i32 } %9, 1
  store i32 %11, ptr %ehselector.slot, align 4
  call void @_ZNSt6vectorINSt7__cxx1112basic_stringIcSt11char_traitsIcESaIcEEESaIS5_EED2Ev(ptr noundef nonnull align 8 dereferenceable(24) %ref.tmp5) #3
  br label %ehcleanup

ehcleanup:                                        ; preds = %lpad8, %lpad6
  call void @_ZN7testing8internal12CodeLocationD2Ev(ptr noundef nonnull align 8 dereferenceable(36) %ref.tmp) #3
  br label %ehcleanup10

ehcleanup10:                                      ; preds = %ehcleanup, %lpad3
  call void @_ZNSt7__cxx1112basic_stringIcSt11char_traitsIcESaIcEED1Ev(ptr noundef nonnull align 8 dereferenceable(32) %ref.tmp1) #3
  br label %ehcleanup11

ehcleanup11:                                      ; preds = %ehcleanup10, %lpad
  call void @_ZNSaIcED1Ev(ptr noundef nonnull align 1 dereferenceable(1) %ref.tmp2) #3
  br label %eh.resume

eh.resume:                                        ; preds = %ehcleanup11
  %exn = load ptr, ptr %exn.slot, align 8
  %sel = load i32, ptr %ehselector.slot, align 4
  %lpad.val = insertvalue { ptr, i32 } poison, ptr %exn, 0
  %lpad.val12 = insertvalue { ptr, i32 } %lpad.val, i32 %sel, 1
  resume { ptr, i32 } %lpad.val12
}

; Function Attrs: mustprogress uwtable
define internal noundef zeroext i1 @_ZN7testing8internal21TypeParameterizedTestIN12_GLOBAL__N_121RandenEngineTypedTestENS0_11TemplateSelINS2_54RandenEngineTypedTest_RandomNumberEngineInterface_TestEEENS0_5TypesIhJtjmEEEE8RegisterEPKcRKNS0_12CodeLocationESB_SB_iRKSt6vectorINSt7__cxx1112basic_stringIcSt11char_traitsIcESaIcEEESaISL_EE(ptr noundef %prefix, ptr noundef nonnull align 8 dereferenceable(36) %code_location, ptr noundef %case_name, ptr noundef %test_names, i32 noundef %index, ptr noundef nonnull align 8 dereferenceable(24) %type_names) #4 align 2 personality ptr @__gxx_personality_v0 {
entry:
  %prefix.addr = alloca ptr, align 8
  %code_location.addr = alloca ptr, align 8
  %case_name.addr = alloca ptr, align 8
  %test_names.addr = alloca ptr, align 8
  %index.addr = alloca i32, align 4
  %type_names.addr = alloca ptr, align 8
  %ref.tmp = alloca %"class.std::__cxx11::basic_string", align 8
  %ref.tmp1 = alloca %"class.std::__cxx11::basic_string", align 8
  %ref.tmp2 = alloca %"class.std::__cxx11::basic_string", align 8
  %ref.tmp3 = alloca %"class.std::__cxx11::basic_string", align 8
  %ref.tmp4 = alloca %"class.std::__cxx11::basic_string", align 8
  %ref.tmp5 = alloca %"class.std::allocator", align 1
  %exn.slot = alloca ptr, align 8
  %ehselector.slot = alloca i32, align 4
  %ref.tmp16 = alloca %"class.std::__cxx11::basic_string", align 8
  %agg.tmp = alloca %"class.std::__cxx11::basic_string", align 8
  %ref.tmp22 = alloca %"class.std::__cxx11::basic_string", align 8
  %agg.tmp26 = alloca %"struct.testing::internal::CodeLocation", align 8
  store ptr %prefix, ptr %prefix.addr, align 8
  store ptr %code_location, ptr %code_location.addr, align 8
  store ptr %case_name, ptr %case_name.addr, align 8
  store ptr %test_names, ptr %test_names.addr, align 8
  store i32 %index, ptr %index.addr, align 4
  store ptr %type_names, ptr %type_names.addr, align 8
  %0 = load ptr, ptr %prefix.addr, align 8
  call void @_ZNSaIcEC1Ev(ptr noundef nonnull align 1 dereferenceable(1) %ref.tmp5) #3
  invoke void @_ZNSt7__cxx1112basic_stringIcSt11char_traitsIcESaIcEEC2IS3_EEPKcRKS3_(ptr noundef nonnull align 8 dereferenceable(32) %ref.tmp4, ptr noundef %0, ptr noundef nonnull align 1 dereferenceable(1) %ref.tmp5)
          to label %invoke.cont unwind label %lpad

invoke.cont:                                      ; preds = %entry
  %1 = load ptr, ptr %prefix.addr, align 8
  %arrayidx = getelementptr inbounds i8, ptr %1, i64 0
  %2 = load i8, ptr %arrayidx, align 1
  %conv = sext i8 %2 to i32
  %cmp = icmp eq i32 %conv, 0
  %cond = select i1 %cmp, ptr @.str, ptr @.str.46
  invoke void @_ZStplIcSt11char_traitsIcESaIcEENSt7__cxx1112basic_stringIT_T0_T1_EEOS8_PKS5_(ptr sret(%"class.std::__cxx11::basic_string") align 8 %ref.tmp3, ptr noundef nonnull align 8 dereferenceable(32) %ref.tmp4, ptr noundef %cond)
          to label %invoke.cont7 unwind label %lpad6

invoke.cont7:                                     ; preds = %invoke.cont
  %3 = load ptr, ptr %case_name.addr, align 8
  invoke void @_ZStplIcSt11char_traitsIcESaIcEENSt7__cxx1112basic_stringIT_T0_T1_EEOS8_PKS5_(ptr sret(%"class.std::__cxx11::basic_string") align 8 %ref.tmp2, ptr noundef nonnull align 8 dereferenceable(32) %ref.tmp3, ptr noundef %3)
          to label %invoke.cont9 unwind label %lpad8

invoke.cont9:                                     ; preds = %invoke.cont7
  invoke void @_ZStplIcSt11char_traitsIcESaIcEENSt7__cxx1112basic_stringIT_T0_T1_EEOS8_PKS5_(ptr sret(%"class.std::__cxx11::basic_string") align 8 %ref.tmp1, ptr noundef nonnull align 8 dereferenceable(32) %ref.tmp2, ptr noundef @.str.46)
          to label %invoke.cont11 unwind label %lpad10

invoke.cont11:                                    ; preds = %invoke.cont9
  %4 = load ptr, ptr %type_names.addr, align 8
  %5 = load i32, ptr %index.addr, align 4
  %conv12 = sext i32 %5 to i64
  %call = call noundef nonnull align 8 dereferenceable(32) ptr @_ZNKSt6vectorINSt7__cxx1112basic_stringIcSt11char_traitsIcESaIcEEESaIS5_EEixEm(ptr noundef nonnull align 8 dereferenceable(24) %4, i64 noundef %conv12) #3
  invoke void @_ZStplIcSt11char_traitsIcESaIcEENSt7__cxx1112basic_stringIT_T0_T1_EEOS8_RKS8_(ptr sret(%"class.std::__cxx11::basic_string") align 8 %ref.tmp, ptr noundef nonnull align 8 dereferenceable(32) %ref.tmp1, ptr noundef nonnull align 8 dereferenceable(32) %call)
          to label %invoke.cont14 unwind label %lpad13

invoke.cont14:                                    ; preds = %invoke.cont11
  %call15 = call noundef ptr @_ZNKSt7__cxx1112basic_stringIcSt11char_traitsIcESaIcEE5c_strEv(ptr noundef nonnull align 8 dereferenceable(32) %ref.tmp) #3
  %6 = load ptr, ptr %test_names.addr, align 8
  invoke void @_ZN7testing8internal19GetPrefixUntilCommaB5cxx11EPKc(ptr sret(%"class.std::__cxx11::basic_string") align 8 %agg.tmp, ptr noundef %6)
          to label %invoke.cont18 unwind label %lpad17

invoke.cont18:                                    ; preds = %invoke.cont14
  invoke void @_ZN7testing8internal19StripTrailingSpacesENSt7__cxx1112basic_stringIcSt11char_traitsIcESaIcEEE(ptr sret(%"class.std::__cxx11::basic_string") align 8 %ref.tmp16, ptr noundef %agg.tmp)
          to label %invoke.cont20 unwind label %lpad19

invoke.cont20:                                    ; preds = %invoke.cont18
  %call21 = call noundef ptr @_ZNKSt7__cxx1112basic_stringIcSt11char_traitsIcESaIcEE5c_strEv(ptr noundef nonnull align 8 dereferenceable(32) %ref.tmp16) #3
  invoke void @_ZN7testing8internal11GetTypeNameIhEENSt7__cxx1112basic_stringIcSt11char_traitsIcESaIcEEEv(ptr sret(%"class.std::__cxx11::basic_string") align 8 %ref.tmp22)
          to label %invoke.cont24 unwind label %lpad23

invoke.cont24:                                    ; preds = %invoke.cont20
  %call25 = call noundef ptr @_ZNKSt7__cxx1112basic_stringIcSt11char_traitsIcESaIcEE5c_strEv(ptr noundef nonnull align 8 dereferenceable(32) %ref.tmp22) #3
  %7 = load ptr, ptr %code_location.addr, align 8
  invoke void @_ZN7testing8internal12CodeLocationC2ERKS1_(ptr noundef nonnull align 8 dereferenceable(36) %agg.tmp26, ptr noundef nonnull align 8 dereferenceable(36) %7)
          to label %invoke.cont28 unwind label %lpad27

invoke.cont28:                                    ; preds = %invoke.cont24
  %call29 = call noundef ptr @_ZN7testing8internal9GetTypeIdIN12_GLOBAL__N_121RandenEngineTypedTestIhEEEEPKvv()
  %8 = load ptr, ptr %code_location.addr, align 8
  %file = getelementptr inbounds %"struct.testing::internal::CodeLocation", ptr %8, i32 0, i32 0
  %call30 = call noundef ptr @_ZNKSt7__cxx1112basic_stringIcSt11char_traitsIcESaIcEE5c_strEv(ptr noundef nonnull align 8 dereferenceable(32) %file) #3
  %9 = load ptr, ptr %code_location.addr, align 8
  %line = getelementptr inbounds %"struct.testing::internal::CodeLocation", ptr %9, i32 0, i32 1
  %10 = load i32, ptr %line, align 8
  %call33 = invoke noundef ptr @_ZN7testing8internal16SuiteApiResolverIN12_GLOBAL__N_154RandenEngineTypedTest_RandomNumberEngineInterface_TestIhEEE19GetSetUpCaseOrSuiteEPKci(ptr noundef %call30, i32 noundef %10)
          to label %invoke.cont32 unwind label %lpad31

invoke.cont32:                                    ; preds = %invoke.cont28
  %11 = load ptr, ptr %code_location.addr, align 8
  %file34 = getelementptr inbounds %"struct.testing::internal::CodeLocation", ptr %11, i32 0, i32 0
  %call35 = call noundef ptr @_ZNKSt7__cxx1112basic_stringIcSt11char_traitsIcESaIcEE5c_strEv(ptr noundef nonnull align 8 dereferenceable(32) %file34) #3
  %12 = load ptr, ptr %code_location.addr, align 8
  %line36 = getelementptr inbounds %"struct.testing::internal::CodeLocation", ptr %12, i32 0, i32 1
  %13 = load i32, ptr %line36, align 8
  %call38 = invoke noundef ptr @_ZN7testing8internal16SuiteApiResolverIN12_GLOBAL__N_154RandenEngineTypedTest_RandomNumberEngineInterface_TestIhEEE22GetTearDownCaseOrSuiteEPKci(ptr noundef %call35, i32 noundef %13)
          to label %invoke.cont37 unwind label %lpad31

invoke.cont37:                                    ; preds = %invoke.cont32
  %call40 = invoke noalias noundef nonnull ptr @_Znwm(i64 noundef 8) #17
          to label %invoke.cont39 unwind label %lpad31

invoke.cont39:                                    ; preds = %invoke.cont37
  invoke void @_ZN7testing8internal15TestFactoryImplIN12_GLOBAL__N_154RandenEngineTypedTest_RandomNumberEngineInterface_TestIhEEEC2Ev(ptr noundef nonnull align 8 dereferenceable(8) %call40)
          to label %invoke.cont42 unwind label %lpad41

invoke.cont42:                                    ; preds = %invoke.cont39
  %call44 = invoke noundef ptr @_ZN7testing8internal23MakeAndRegisterTestInfoEPKcS2_S2_S2_NS0_12CodeLocationEPKvPFvvES7_PNS0_15TestFactoryBaseE(ptr noundef %call15, ptr noundef %call21, ptr noundef %call25, ptr noundef null, ptr noundef %agg.tmp26, ptr noundef %call29, ptr noundef %call33, ptr noundef %call38, ptr noundef %call40)
          to label %invoke.cont43 unwind label %lpad31

invoke.cont43:                                    ; preds = %invoke.cont42
  call void @_ZN7testing8internal12CodeLocationD2Ev(ptr noundef nonnull align 8 dereferenceable(36) %agg.tmp26) #3
  call void @_ZNSt7__cxx1112basic_stringIcSt11char_traitsIcESaIcEED1Ev(ptr noundef nonnull align 8 dereferenceable(32) %ref.tmp22) #3
  call void @_ZNSt7__cxx1112basic_stringIcSt11char_traitsIcESaIcEED1Ev(ptr noundef nonnull align 8 dereferenceable(32) %ref.tmp16) #3
  call void @_ZNSt7__cxx1112basic_stringIcSt11char_traitsIcESaIcEED1Ev(ptr noundef nonnull align 8 dereferenceable(32) %agg.tmp) #3
  call void @_ZNSt7__cxx1112basic_stringIcSt11char_traitsIcESaIcEED1Ev(ptr noundef nonnull align 8 dereferenceable(32) %ref.tmp) #3
  call void @_ZNSt7__cxx1112basic_stringIcSt11char_traitsIcESaIcEED1Ev(ptr noundef nonnull align 8 dereferenceable(32) %ref.tmp1) #3
  call void @_ZNSt7__cxx1112basic_stringIcSt11char_traitsIcESaIcEED1Ev(ptr noundef nonnull align 8 dereferenceable(32) %ref.tmp2) #3
  call void @_ZNSt7__cxx1112basic_stringIcSt11char_traitsIcESaIcEED1Ev(ptr noundef nonnull align 8 dereferenceable(32) %ref.tmp3) #3
  call void @_ZNSt7__cxx1112basic_stringIcSt11char_traitsIcESaIcEED1Ev(ptr noundef nonnull align 8 dereferenceable(32) %ref.tmp4) #3
  call void @_ZNSaIcED1Ev(ptr noundef nonnull align 1 dereferenceable(1) %ref.tmp5) #3
  %14 = load ptr, ptr %prefix.addr, align 8
  %15 = load ptr, ptr %code_location.addr, align 8
  %16 = load ptr, ptr %case_name.addr, align 8
  %17 = load ptr, ptr %test_names.addr, align 8
  %18 = load i32, ptr %index.addr, align 4
  %add = add nsw i32 %18, 1
  %19 = load ptr, ptr %type_names.addr, align 8
  %call54 = call noundef zeroext i1 @_ZN7testing8internal21TypeParameterizedTestIN12_GLOBAL__N_121RandenEngineTypedTestENS0_11TemplateSelINS2_54RandenEngineTypedTest_RandomNumberEngineInterface_TestEEENS0_5TypesItJjmEEEE8RegisterEPKcRKNS0_12CodeLocationESB_SB_iRKSt6vectorINSt7__cxx1112basic_stringIcSt11char_traitsIcESaIcEEESaISL_EE(ptr noundef %14, ptr noundef nonnull align 8 dereferenceable(36) %15, ptr noundef %16, ptr noundef %17, i32 noundef %add, ptr noundef nonnull align 8 dereferenceable(24) %19)
  ret i1 %call54

lpad:                                             ; preds = %entry
  %20 = landingpad { ptr, i32 }
          cleanup
  %21 = extractvalue { ptr, i32 } %20, 0
  store ptr %21, ptr %exn.slot, align 8
  %22 = extractvalue { ptr, i32 } %20, 1
  store i32 %22, ptr %ehselector.slot, align 4
  br label %ehcleanup53

lpad6:                                            ; preds = %invoke.cont
  %23 = landingpad { ptr, i32 }
          cleanup
  %24 = extractvalue { ptr, i32 } %23, 0
  store ptr %24, ptr %exn.slot, align 8
  %25 = extractvalue { ptr, i32 } %23, 1
  store i32 %25, ptr %ehselector.slot, align 4
  br label %ehcleanup52

lpad8:                                            ; preds = %invoke.cont7
  %26 = landingpad { ptr, i32 }
          cleanup
  %27 = extractvalue { ptr, i32 } %26, 0
  store ptr %27, ptr %exn.slot, align 8
  %28 = extractvalue { ptr, i32 } %26, 1
  store i32 %28, ptr %ehselector.slot, align 4
  br label %ehcleanup51

lpad10:                                           ; preds = %invoke.cont9
  %29 = landingpad { ptr, i32 }
          cleanup
  %30 = extractvalue { ptr, i32 } %29, 0
  store ptr %30, ptr %exn.slot, align 8
  %31 = extractvalue { ptr, i32 } %29, 1
  store i32 %31, ptr %ehselector.slot, align 4
  br label %ehcleanup50

lpad13:                                           ; preds = %invoke.cont11
  %32 = landingpad { ptr, i32 }
          cleanup
  %33 = extractvalue { ptr, i32 } %32, 0
  store ptr %33, ptr %exn.slot, align 8
  %34 = extractvalue { ptr, i32 } %32, 1
  store i32 %34, ptr %ehselector.slot, align 4
  br label %ehcleanup49

lpad17:                                           ; preds = %invoke.cont14
  %35 = landingpad { ptr, i32 }
          cleanup
  %36 = extractvalue { ptr, i32 } %35, 0
  store ptr %36, ptr %exn.slot, align 8
  %37 = extractvalue { ptr, i32 } %35, 1
  store i32 %37, ptr %ehselector.slot, align 4
  br label %ehcleanup48

lpad19:                                           ; preds = %invoke.cont18
  %38 = landingpad { ptr, i32 }
          cleanup
  %39 = extractvalue { ptr, i32 } %38, 0
  store ptr %39, ptr %exn.slot, align 8
  %40 = extractvalue { ptr, i32 } %38, 1
  store i32 %40, ptr %ehselector.slot, align 4
  br label %ehcleanup47

lpad23:                                           ; preds = %invoke.cont20
  %41 = landingpad { ptr, i32 }
          cleanup
  %42 = extractvalue { ptr, i32 } %41, 0
  store ptr %42, ptr %exn.slot, align 8
  %43 = extractvalue { ptr, i32 } %41, 1
  store i32 %43, ptr %ehselector.slot, align 4
  br label %ehcleanup46

lpad27:                                           ; preds = %invoke.cont24
  %44 = landingpad { ptr, i32 }
          cleanup
  %45 = extractvalue { ptr, i32 } %44, 0
  store ptr %45, ptr %exn.slot, align 8
  %46 = extractvalue { ptr, i32 } %44, 1
  store i32 %46, ptr %ehselector.slot, align 4
  br label %ehcleanup45

lpad31:                                           ; preds = %invoke.cont42, %invoke.cont37, %invoke.cont32, %invoke.cont28
  %47 = landingpad { ptr, i32 }
          cleanup
  %48 = extractvalue { ptr, i32 } %47, 0
  store ptr %48, ptr %exn.slot, align 8
  %49 = extractvalue { ptr, i32 } %47, 1
  store i32 %49, ptr %ehselector.slot, align 4
  br label %ehcleanup

lpad41:                                           ; preds = %invoke.cont39
  %50 = landingpad { ptr, i32 }
          cleanup
  %51 = extractvalue { ptr, i32 } %50, 0
  store ptr %51, ptr %exn.slot, align 8
  %52 = extractvalue { ptr, i32 } %50, 1
  store i32 %52, ptr %ehselector.slot, align 4
  call void @_ZdlPv(ptr noundef %call40) #18
  br label %ehcleanup

ehcleanup:                                        ; preds = %lpad41, %lpad31
  call void @_ZN7testing8internal12CodeLocationD2Ev(ptr noundef nonnull align 8 dereferenceable(36) %agg.tmp26) #3
  br label %ehcleanup45

ehcleanup45:                                      ; preds = %ehcleanup, %lpad27
  call void @_ZNSt7__cxx1112basic_stringIcSt11char_traitsIcESaIcEED1Ev(ptr noundef nonnull align 8 dereferenceable(32) %ref.tmp22) #3
  br label %ehcleanup46

ehcleanup46:                                      ; preds = %ehcleanup45, %lpad23
  call void @_ZNSt7__cxx1112basic_stringIcSt11char_traitsIcESaIcEED1Ev(ptr noundef nonnull align 8 dereferenceable(32) %ref.tmp16) #3
  br label %ehcleanup47

ehcleanup47:                                      ; preds = %ehcleanup46, %lpad19
  call void @_ZNSt7__cxx1112basic_stringIcSt11char_traitsIcESaIcEED1Ev(ptr noundef nonnull align 8 dereferenceable(32) %agg.tmp) #3
  br label %ehcleanup48

ehcleanup48:                                      ; preds = %ehcleanup47, %lpad17
  call void @_ZNSt7__cxx1112basic_stringIcSt11char_traitsIcESaIcEED1Ev(ptr noundef nonnull align 8 dereferenceable(32) %ref.tmp) #3
  br label %ehcleanup49

ehcleanup49:                                      ; preds = %ehcleanup48, %lpad13
  call void @_ZNSt7__cxx1112basic_stringIcSt11char_traitsIcESaIcEED1Ev(ptr noundef nonnull align 8 dereferenceable(32) %ref.tmp1) #3
  br label %ehcleanup50

ehcleanup50:                                      ; preds = %ehcleanup49, %lpad10
  call void @_ZNSt7__cxx1112basic_stringIcSt11char_traitsIcESaIcEED1Ev(ptr noundef nonnull align 8 dereferenceable(32) %ref.tmp2) #3
  br label %ehcleanup51

ehcleanup51:                                      ; preds = %ehcleanup50, %lpad8
  call void @_ZNSt7__cxx1112basic_stringIcSt11char_traitsIcESaIcEED1Ev(ptr noundef nonnull align 8 dereferenceable(32) %ref.tmp3) #3
  br label %ehcleanup52

ehcleanup52:                                      ; preds = %ehcleanup51, %lpad6
  call void @_ZNSt7__cxx1112basic_stringIcSt11char_traitsIcESaIcEED1Ev(ptr noundef nonnull align 8 dereferenceable(32) %ref.tmp4) #3
  br label %ehcleanup53

ehcleanup53:                                      ; preds = %ehcleanup52, %lpad
  call void @_ZNSaIcED1Ev(ptr noundef nonnull align 1 dereferenceable(1) %ref.tmp5) #3
  br label %eh.resume

eh.resume:                                        ; preds = %ehcleanup53
  %exn = load ptr, ptr %exn.slot, align 8
  %sel = load i32, ptr %ehselector.slot, align 4
  %lpad.val = insertvalue { ptr, i32 } poison, ptr %exn, 0
  %lpad.val55 = insertvalue { ptr, i32 } %lpad.val, i32 %sel, 1
  resume { ptr, i32 } %lpad.val55
}

; Function Attrs: uwtable
define internal void @__cxx_global_var_init.13() #0 section ".text.startup" personality ptr @__gxx_personality_v0 {
entry:
  %ref.tmp = alloca %"struct.testing::internal::CodeLocation", align 8
  %ref.tmp1 = alloca %"class.std::__cxx11::basic_string", align 8
  %ref.tmp2 = alloca %"class.std::allocator", align 1
  %exn.slot = alloca ptr, align 8
  %ehselector.slot = alloca i32, align 4
  %ref.tmp5 = alloca %"class.std::vector", align 8
  call void @_ZNSaIcEC1Ev(ptr noundef nonnull align 1 dereferenceable(1) %ref.tmp2) #3
  invoke void @_ZNSt7__cxx1112basic_stringIcSt11char_traitsIcESaIcEEC2IS3_EEPKcRKS3_(ptr noundef nonnull align 8 dereferenceable(32) %ref.tmp1, ptr noundef @.str.2, ptr noundef nonnull align 1 dereferenceable(1) %ref.tmp2)
          to label %invoke.cont unwind label %lpad

invoke.cont:                                      ; preds = %entry
  invoke void @_ZN7testing8internal12CodeLocationC2ERKNSt7__cxx1112basic_stringIcSt11char_traitsIcESaIcEEEi(ptr noundef nonnull align 8 dereferenceable(36) %ref.tmp, ptr noundef nonnull align 8 dereferenceable(32) %ref.tmp1, i32 noundef 235)
          to label %invoke.cont4 unwind label %lpad3

invoke.cont4:                                     ; preds = %invoke.cont
  invoke void @_ZN7testing8internal13GenerateNamesINS0_20DefaultNameGeneratorENS0_5TypesIhJtjmEEEEESt6vectorINSt7__cxx1112basic_stringIcSt11char_traitsIcESaIcEEESaISB_EEv(ptr sret(%"class.std::vector") align 8 %ref.tmp5)
          to label %invoke.cont7 unwind label %lpad6

invoke.cont7:                                     ; preds = %invoke.cont4
  %call = invoke noundef zeroext i1 @_ZN7testing8internal21TypeParameterizedTestIN12_GLOBAL__N_121RandenEngineTypedTestENS0_11TemplateSelINS2_49RandenEngineTypedTest_RandenEngineSFINAETest_TestEEENS0_5TypesIhJtjmEEEE8RegisterEPKcRKNS0_12CodeLocationESB_SB_iRKSt6vectorINSt7__cxx1112basic_stringIcSt11char_traitsIcESaIcEEESaISL_EE(ptr noundef @.str, ptr noundef nonnull align 8 dereferenceable(36) %ref.tmp, ptr noundef @.str.3, ptr noundef @.str.14, i32 noundef 0, ptr noundef nonnull align 8 dereferenceable(24) %ref.tmp5)
          to label %invoke.cont9 unwind label %lpad8

invoke.cont9:                                     ; preds = %invoke.cont7
  call void @_ZNSt6vectorINSt7__cxx1112basic_stringIcSt11char_traitsIcESaIcEEESaIS5_EED2Ev(ptr noundef nonnull align 8 dereferenceable(24) %ref.tmp5) #3
  call void @_ZN7testing8internal12CodeLocationD2Ev(ptr noundef nonnull align 8 dereferenceable(36) %ref.tmp) #3
  call void @_ZNSt7__cxx1112basic_stringIcSt11char_traitsIcESaIcEED1Ev(ptr noundef nonnull align 8 dereferenceable(32) %ref.tmp1) #3
  call void @_ZNSaIcED1Ev(ptr noundef nonnull align 1 dereferenceable(1) %ref.tmp2) #3
  %frombool = zext i1 %call to i8
  store i8 %frombool, ptr @_ZN12_GLOBAL__N_162gtest_RandenEngineTypedTest_RandenEngineSFINAETest_registered_E, align 1
  ret void

lpad:                                             ; preds = %entry
  %0 = landingpad { ptr, i32 }
          cleanup
  %1 = extractvalue { ptr, i32 } %0, 0
  store ptr %1, ptr %exn.slot, align 8
  %2 = extractvalue { ptr, i32 } %0, 1
  store i32 %2, ptr %ehselector.slot, align 4
  br label %ehcleanup11

lpad3:                                            ; preds = %invoke.cont
  %3 = landingpad { ptr, i32 }
          cleanup
  %4 = extractvalue { ptr, i32 } %3, 0
  store ptr %4, ptr %exn.slot, align 8
  %5 = extractvalue { ptr, i32 } %3, 1
  store i32 %5, ptr %ehselector.slot, align 4
  br label %ehcleanup10

lpad6:                                            ; preds = %invoke.cont4
  %6 = landingpad { ptr, i32 }
          cleanup
  %7 = extractvalue { ptr, i32 } %6, 0
  store ptr %7, ptr %exn.slot, align 8
  %8 = extractvalue { ptr, i32 } %6, 1
  store i32 %8, ptr %ehselector.slot, align 4
  br label %ehcleanup

lpad8:                                            ; preds = %invoke.cont7
  %9 = landingpad { ptr, i32 }
          cleanup
  %10 = extractvalue { ptr, i32 } %9, 0
  store ptr %10, ptr %exn.slot, align 8
  %11 = extractvalue { ptr, i32 } %9, 1
  store i32 %11, ptr %ehselector.slot, align 4
  call void @_ZNSt6vectorINSt7__cxx1112basic_stringIcSt11char_traitsIcESaIcEEESaIS5_EED2Ev(ptr noundef nonnull align 8 dereferenceable(24) %ref.tmp5) #3
  br label %ehcleanup

ehcleanup:                                        ; preds = %lpad8, %lpad6
  call void @_ZN7testing8internal12CodeLocationD2Ev(ptr noundef nonnull align 8 dereferenceable(36) %ref.tmp) #3
  br label %ehcleanup10

ehcleanup10:                                      ; preds = %ehcleanup, %lpad3
  call void @_ZNSt7__cxx1112basic_stringIcSt11char_traitsIcESaIcEED1Ev(ptr noundef nonnull align 8 dereferenceable(32) %ref.tmp1) #3
  br label %ehcleanup11

ehcleanup11:                                      ; preds = %ehcleanup10, %lpad
  call void @_ZNSaIcED1Ev(ptr noundef nonnull align 1 dereferenceable(1) %ref.tmp2) #3
  br label %eh.resume

eh.resume:                                        ; preds = %ehcleanup11
  %exn = load ptr, ptr %exn.slot, align 8
  %sel = load i32, ptr %ehselector.slot, align 4
  %lpad.val = insertvalue { ptr, i32 } poison, ptr %exn, 0
  %lpad.val12 = insertvalue { ptr, i32 } %lpad.val, i32 %sel, 1
  resume { ptr, i32 } %lpad.val12
}

; Function Attrs: mustprogress uwtable
define internal noundef zeroext i1 @_ZN7testing8internal21TypeParameterizedTestIN12_GLOBAL__N_121RandenEngineTypedTestENS0_11TemplateSelINS2_49RandenEngineTypedTest_RandenEngineSFINAETest_TestEEENS0_5TypesIhJtjmEEEE8RegisterEPKcRKNS0_12CodeLocationESB_SB_iRKSt6vectorINSt7__cxx1112basic_stringIcSt11char_traitsIcESaIcEEESaISL_EE(ptr noundef %prefix, ptr noundef nonnull align 8 dereferenceable(36) %code_location, ptr noundef %case_name, ptr noundef %test_names, i32 noundef %index, ptr noundef nonnull align 8 dereferenceable(24) %type_names) #4 align 2 personality ptr @__gxx_personality_v0 {
entry:
  %prefix.addr = alloca ptr, align 8
  %code_location.addr = alloca ptr, align 8
  %case_name.addr = alloca ptr, align 8
  %test_names.addr = alloca ptr, align 8
  %index.addr = alloca i32, align 4
  %type_names.addr = alloca ptr, align 8
  %ref.tmp = alloca %"class.std::__cxx11::basic_string", align 8
  %ref.tmp1 = alloca %"class.std::__cxx11::basic_string", align 8
  %ref.tmp2 = alloca %"class.std::__cxx11::basic_string", align 8
  %ref.tmp3 = alloca %"class.std::__cxx11::basic_string", align 8
  %ref.tmp4 = alloca %"class.std::__cxx11::basic_string", align 8
  %ref.tmp5 = alloca %"class.std::allocator", align 1
  %exn.slot = alloca ptr, align 8
  %ehselector.slot = alloca i32, align 4
  %ref.tmp16 = alloca %"class.std::__cxx11::basic_string", align 8
  %agg.tmp = alloca %"class.std::__cxx11::basic_string", align 8
  %ref.tmp22 = alloca %"class.std::__cxx11::basic_string", align 8
  %agg.tmp26 = alloca %"struct.testing::internal::CodeLocation", align 8
  store ptr %prefix, ptr %prefix.addr, align 8
  store ptr %code_location, ptr %code_location.addr, align 8
  store ptr %case_name, ptr %case_name.addr, align 8
  store ptr %test_names, ptr %test_names.addr, align 8
  store i32 %index, ptr %index.addr, align 4
  store ptr %type_names, ptr %type_names.addr, align 8
  %0 = load ptr, ptr %prefix.addr, align 8
  call void @_ZNSaIcEC1Ev(ptr noundef nonnull align 1 dereferenceable(1) %ref.tmp5) #3
  invoke void @_ZNSt7__cxx1112basic_stringIcSt11char_traitsIcESaIcEEC2IS3_EEPKcRKS3_(ptr noundef nonnull align 8 dereferenceable(32) %ref.tmp4, ptr noundef %0, ptr noundef nonnull align 1 dereferenceable(1) %ref.tmp5)
          to label %invoke.cont unwind label %lpad

invoke.cont:                                      ; preds = %entry
  %1 = load ptr, ptr %prefix.addr, align 8
  %arrayidx = getelementptr inbounds i8, ptr %1, i64 0
  %2 = load i8, ptr %arrayidx, align 1
  %conv = sext i8 %2 to i32
  %cmp = icmp eq i32 %conv, 0
  %cond = select i1 %cmp, ptr @.str, ptr @.str.46
  invoke void @_ZStplIcSt11char_traitsIcESaIcEENSt7__cxx1112basic_stringIT_T0_T1_EEOS8_PKS5_(ptr sret(%"class.std::__cxx11::basic_string") align 8 %ref.tmp3, ptr noundef nonnull align 8 dereferenceable(32) %ref.tmp4, ptr noundef %cond)
          to label %invoke.cont7 unwind label %lpad6

invoke.cont7:                                     ; preds = %invoke.cont
  %3 = load ptr, ptr %case_name.addr, align 8
  invoke void @_ZStplIcSt11char_traitsIcESaIcEENSt7__cxx1112basic_stringIT_T0_T1_EEOS8_PKS5_(ptr sret(%"class.std::__cxx11::basic_string") align 8 %ref.tmp2, ptr noundef nonnull align 8 dereferenceable(32) %ref.tmp3, ptr noundef %3)
          to label %invoke.cont9 unwind label %lpad8

invoke.cont9:                                     ; preds = %invoke.cont7
  invoke void @_ZStplIcSt11char_traitsIcESaIcEENSt7__cxx1112basic_stringIT_T0_T1_EEOS8_PKS5_(ptr sret(%"class.std::__cxx11::basic_string") align 8 %ref.tmp1, ptr noundef nonnull align 8 dereferenceable(32) %ref.tmp2, ptr noundef @.str.46)
          to label %invoke.cont11 unwind label %lpad10

invoke.cont11:                                    ; preds = %invoke.cont9
  %4 = load ptr, ptr %type_names.addr, align 8
  %5 = load i32, ptr %index.addr, align 4
  %conv12 = sext i32 %5 to i64
  %call = call noundef nonnull align 8 dereferenceable(32) ptr @_ZNKSt6vectorINSt7__cxx1112basic_stringIcSt11char_traitsIcESaIcEEESaIS5_EEixEm(ptr noundef nonnull align 8 dereferenceable(24) %4, i64 noundef %conv12) #3
  invoke void @_ZStplIcSt11char_traitsIcESaIcEENSt7__cxx1112basic_stringIT_T0_T1_EEOS8_RKS8_(ptr sret(%"class.std::__cxx11::basic_string") align 8 %ref.tmp, ptr noundef nonnull align 8 dereferenceable(32) %ref.tmp1, ptr noundef nonnull align 8 dereferenceable(32) %call)
          to label %invoke.cont14 unwind label %lpad13

invoke.cont14:                                    ; preds = %invoke.cont11
  %call15 = call noundef ptr @_ZNKSt7__cxx1112basic_stringIcSt11char_traitsIcESaIcEE5c_strEv(ptr noundef nonnull align 8 dereferenceable(32) %ref.tmp) #3
  %6 = load ptr, ptr %test_names.addr, align 8
  invoke void @_ZN7testing8internal19GetPrefixUntilCommaB5cxx11EPKc(ptr sret(%"class.std::__cxx11::basic_string") align 8 %agg.tmp, ptr noundef %6)
          to label %invoke.cont18 unwind label %lpad17

invoke.cont18:                                    ; preds = %invoke.cont14
  invoke void @_ZN7testing8internal19StripTrailingSpacesENSt7__cxx1112basic_stringIcSt11char_traitsIcESaIcEEE(ptr sret(%"class.std::__cxx11::basic_string") align 8 %ref.tmp16, ptr noundef %agg.tmp)
          to label %invoke.cont20 unwind label %lpad19

invoke.cont20:                                    ; preds = %invoke.cont18
  %call21 = call noundef ptr @_ZNKSt7__cxx1112basic_stringIcSt11char_traitsIcESaIcEE5c_strEv(ptr noundef nonnull align 8 dereferenceable(32) %ref.tmp16) #3
  invoke void @_ZN7testing8internal11GetTypeNameIhEENSt7__cxx1112basic_stringIcSt11char_traitsIcESaIcEEEv(ptr sret(%"class.std::__cxx11::basic_string") align 8 %ref.tmp22)
          to label %invoke.cont24 unwind label %lpad23

invoke.cont24:                                    ; preds = %invoke.cont20
  %call25 = call noundef ptr @_ZNKSt7__cxx1112basic_stringIcSt11char_traitsIcESaIcEE5c_strEv(ptr noundef nonnull align 8 dereferenceable(32) %ref.tmp22) #3
  %7 = load ptr, ptr %code_location.addr, align 8
  invoke void @_ZN7testing8internal12CodeLocationC2ERKS1_(ptr noundef nonnull align 8 dereferenceable(36) %agg.tmp26, ptr noundef nonnull align 8 dereferenceable(36) %7)
          to label %invoke.cont28 unwind label %lpad27

invoke.cont28:                                    ; preds = %invoke.cont24
  %call29 = call noundef ptr @_ZN7testing8internal9GetTypeIdIN12_GLOBAL__N_121RandenEngineTypedTestIhEEEEPKvv()
  %8 = load ptr, ptr %code_location.addr, align 8
  %file = getelementptr inbounds %"struct.testing::internal::CodeLocation", ptr %8, i32 0, i32 0
  %call30 = call noundef ptr @_ZNKSt7__cxx1112basic_stringIcSt11char_traitsIcESaIcEE5c_strEv(ptr noundef nonnull align 8 dereferenceable(32) %file) #3
  %9 = load ptr, ptr %code_location.addr, align 8
  %line = getelementptr inbounds %"struct.testing::internal::CodeLocation", ptr %9, i32 0, i32 1
  %10 = load i32, ptr %line, align 8
  %call33 = invoke noundef ptr @_ZN7testing8internal16SuiteApiResolverIN12_GLOBAL__N_149RandenEngineTypedTest_RandenEngineSFINAETest_TestIhEEE19GetSetUpCaseOrSuiteEPKci(ptr noundef %call30, i32 noundef %10)
          to label %invoke.cont32 unwind label %lpad31

invoke.cont32:                                    ; preds = %invoke.cont28
  %11 = load ptr, ptr %code_location.addr, align 8
  %file34 = getelementptr inbounds %"struct.testing::internal::CodeLocation", ptr %11, i32 0, i32 0
  %call35 = call noundef ptr @_ZNKSt7__cxx1112basic_stringIcSt11char_traitsIcESaIcEE5c_strEv(ptr noundef nonnull align 8 dereferenceable(32) %file34) #3
  %12 = load ptr, ptr %code_location.addr, align 8
  %line36 = getelementptr inbounds %"struct.testing::internal::CodeLocation", ptr %12, i32 0, i32 1
  %13 = load i32, ptr %line36, align 8
  %call38 = invoke noundef ptr @_ZN7testing8internal16SuiteApiResolverIN12_GLOBAL__N_149RandenEngineTypedTest_RandenEngineSFINAETest_TestIhEEE22GetTearDownCaseOrSuiteEPKci(ptr noundef %call35, i32 noundef %13)
          to label %invoke.cont37 unwind label %lpad31

invoke.cont37:                                    ; preds = %invoke.cont32
  %call40 = invoke noalias noundef nonnull ptr @_Znwm(i64 noundef 8) #17
          to label %invoke.cont39 unwind label %lpad31

invoke.cont39:                                    ; preds = %invoke.cont37
  invoke void @_ZN7testing8internal15TestFactoryImplIN12_GLOBAL__N_149RandenEngineTypedTest_RandenEngineSFINAETest_TestIhEEEC2Ev(ptr noundef nonnull align 8 dereferenceable(8) %call40)
          to label %invoke.cont42 unwind label %lpad41

invoke.cont42:                                    ; preds = %invoke.cont39
  %call44 = invoke noundef ptr @_ZN7testing8internal23MakeAndRegisterTestInfoEPKcS2_S2_S2_NS0_12CodeLocationEPKvPFvvES7_PNS0_15TestFactoryBaseE(ptr noundef %call15, ptr noundef %call21, ptr noundef %call25, ptr noundef null, ptr noundef %agg.tmp26, ptr noundef %call29, ptr noundef %call33, ptr noundef %call38, ptr noundef %call40)
          to label %invoke.cont43 unwind label %lpad31

invoke.cont43:                                    ; preds = %invoke.cont42
  call void @_ZN7testing8internal12CodeLocationD2Ev(ptr noundef nonnull align 8 dereferenceable(36) %agg.tmp26) #3
  call void @_ZNSt7__cxx1112basic_stringIcSt11char_traitsIcESaIcEED1Ev(ptr noundef nonnull align 8 dereferenceable(32) %ref.tmp22) #3
  call void @_ZNSt7__cxx1112basic_stringIcSt11char_traitsIcESaIcEED1Ev(ptr noundef nonnull align 8 dereferenceable(32) %ref.tmp16) #3
  call void @_ZNSt7__cxx1112basic_stringIcSt11char_traitsIcESaIcEED1Ev(ptr noundef nonnull align 8 dereferenceable(32) %agg.tmp) #3
  call void @_ZNSt7__cxx1112basic_stringIcSt11char_traitsIcESaIcEED1Ev(ptr noundef nonnull align 8 dereferenceable(32) %ref.tmp) #3
  call void @_ZNSt7__cxx1112basic_stringIcSt11char_traitsIcESaIcEED1Ev(ptr noundef nonnull align 8 dereferenceable(32) %ref.tmp1) #3
  call void @_ZNSt7__cxx1112basic_stringIcSt11char_traitsIcESaIcEED1Ev(ptr noundef nonnull align 8 dereferenceable(32) %ref.tmp2) #3
  call void @_ZNSt7__cxx1112basic_stringIcSt11char_traitsIcESaIcEED1Ev(ptr noundef nonnull align 8 dereferenceable(32) %ref.tmp3) #3
  call void @_ZNSt7__cxx1112basic_stringIcSt11char_traitsIcESaIcEED1Ev(ptr noundef nonnull align 8 dereferenceable(32) %ref.tmp4) #3
  call void @_ZNSaIcED1Ev(ptr noundef nonnull align 1 dereferenceable(1) %ref.tmp5) #3
  %14 = load ptr, ptr %prefix.addr, align 8
  %15 = load ptr, ptr %code_location.addr, align 8
  %16 = load ptr, ptr %case_name.addr, align 8
  %17 = load ptr, ptr %test_names.addr, align 8
  %18 = load i32, ptr %index.addr, align 4
  %add = add nsw i32 %18, 1
  %19 = load ptr, ptr %type_names.addr, align 8
  %call54 = call noundef zeroext i1 @_ZN7testing8internal21TypeParameterizedTestIN12_GLOBAL__N_121RandenEngineTypedTestENS0_11TemplateSelINS2_49RandenEngineTypedTest_RandenEngineSFINAETest_TestEEENS0_5TypesItJjmEEEE8RegisterEPKcRKNS0_12CodeLocationESB_SB_iRKSt6vectorINSt7__cxx1112basic_stringIcSt11char_traitsIcESaIcEEESaISL_EE(ptr noundef %14, ptr noundef nonnull align 8 dereferenceable(36) %15, ptr noundef %16, ptr noundef %17, i32 noundef %add, ptr noundef nonnull align 8 dereferenceable(24) %19)
  ret i1 %call54

lpad:                                             ; preds = %entry
  %20 = landingpad { ptr, i32 }
          cleanup
  %21 = extractvalue { ptr, i32 } %20, 0
  store ptr %21, ptr %exn.slot, align 8
  %22 = extractvalue { ptr, i32 } %20, 1
  store i32 %22, ptr %ehselector.slot, align 4
  br label %ehcleanup53

lpad6:                                            ; preds = %invoke.cont
  %23 = landingpad { ptr, i32 }
          cleanup
  %24 = extractvalue { ptr, i32 } %23, 0
  store ptr %24, ptr %exn.slot, align 8
  %25 = extractvalue { ptr, i32 } %23, 1
  store i32 %25, ptr %ehselector.slot, align 4
  br label %ehcleanup52

lpad8:                                            ; preds = %invoke.cont7
  %26 = landingpad { ptr, i32 }
          cleanup
  %27 = extractvalue { ptr, i32 } %26, 0
  store ptr %27, ptr %exn.slot, align 8
  %28 = extractvalue { ptr, i32 } %26, 1
  store i32 %28, ptr %ehselector.slot, align 4
  br label %ehcleanup51

lpad10:                                           ; preds = %invoke.cont9
  %29 = landingpad { ptr, i32 }
          cleanup
  %30 = extractvalue { ptr, i32 } %29, 0
  store ptr %30, ptr %exn.slot, align 8
  %31 = extractvalue { ptr, i32 } %29, 1
  store i32 %31, ptr %ehselector.slot, align 4
  br label %ehcleanup50

lpad13:                                           ; preds = %invoke.cont11
  %32 = landingpad { ptr, i32 }
          cleanup
  %33 = extractvalue { ptr, i32 } %32, 0
  store ptr %33, ptr %exn.slot, align 8
  %34 = extractvalue { ptr, i32 } %32, 1
  store i32 %34, ptr %ehselector.slot, align 4
  br label %ehcleanup49

lpad17:                                           ; preds = %invoke.cont14
  %35 = landingpad { ptr, i32 }
          cleanup
  %36 = extractvalue { ptr, i32 } %35, 0
  store ptr %36, ptr %exn.slot, align 8
  %37 = extractvalue { ptr, i32 } %35, 1
  store i32 %37, ptr %ehselector.slot, align 4
  br label %ehcleanup48

lpad19:                                           ; preds = %invoke.cont18
  %38 = landingpad { ptr, i32 }
          cleanup
  %39 = extractvalue { ptr, i32 } %38, 0
  store ptr %39, ptr %exn.slot, align 8
  %40 = extractvalue { ptr, i32 } %38, 1
  store i32 %40, ptr %ehselector.slot, align 4
  br label %ehcleanup47

lpad23:                                           ; preds = %invoke.cont20
  %41 = landingpad { ptr, i32 }
          cleanup
  %42 = extractvalue { ptr, i32 } %41, 0
  store ptr %42, ptr %exn.slot, align 8
  %43 = extractvalue { ptr, i32 } %41, 1
  store i32 %43, ptr %ehselector.slot, align 4
  br label %ehcleanup46

lpad27:                                           ; preds = %invoke.cont24
  %44 = landingpad { ptr, i32 }
          cleanup
  %45 = extractvalue { ptr, i32 } %44, 0
  store ptr %45, ptr %exn.slot, align 8
  %46 = extractvalue { ptr, i32 } %44, 1
  store i32 %46, ptr %ehselector.slot, align 4
  br label %ehcleanup45

lpad31:                                           ; preds = %invoke.cont42, %invoke.cont37, %invoke.cont32, %invoke.cont28
  %47 = landingpad { ptr, i32 }
          cleanup
  %48 = extractvalue { ptr, i32 } %47, 0
  store ptr %48, ptr %exn.slot, align 8
  %49 = extractvalue { ptr, i32 } %47, 1
  store i32 %49, ptr %ehselector.slot, align 4
  br label %ehcleanup

lpad41:                                           ; preds = %invoke.cont39
  %50 = landingpad { ptr, i32 }
          cleanup
  %51 = extractvalue { ptr, i32 } %50, 0
  store ptr %51, ptr %exn.slot, align 8
  %52 = extractvalue { ptr, i32 } %50, 1
  store i32 %52, ptr %ehselector.slot, align 4
  call void @_ZdlPv(ptr noundef %call40) #18
  br label %ehcleanup

ehcleanup:                                        ; preds = %lpad41, %lpad31
  call void @_ZN7testing8internal12CodeLocationD2Ev(ptr noundef nonnull align 8 dereferenceable(36) %agg.tmp26) #3
  br label %ehcleanup45

ehcleanup45:                                      ; preds = %ehcleanup, %lpad27
  call void @_ZNSt7__cxx1112basic_stringIcSt11char_traitsIcESaIcEED1Ev(ptr noundef nonnull align 8 dereferenceable(32) %ref.tmp22) #3
  br label %ehcleanup46

ehcleanup46:                                      ; preds = %ehcleanup45, %lpad23
  call void @_ZNSt7__cxx1112basic_stringIcSt11char_traitsIcESaIcEED1Ev(ptr noundef nonnull align 8 dereferenceable(32) %ref.tmp16) #3
  br label %ehcleanup47

ehcleanup47:                                      ; preds = %ehcleanup46, %lpad19
  call void @_ZNSt7__cxx1112basic_stringIcSt11char_traitsIcESaIcEED1Ev(ptr noundef nonnull align 8 dereferenceable(32) %agg.tmp) #3
  br label %ehcleanup48

ehcleanup48:                                      ; preds = %ehcleanup47, %lpad17
  call void @_ZNSt7__cxx1112basic_stringIcSt11char_traitsIcESaIcEED1Ev(ptr noundef nonnull align 8 dereferenceable(32) %ref.tmp) #3
  br label %ehcleanup49

ehcleanup49:                                      ; preds = %ehcleanup48, %lpad13
  call void @_ZNSt7__cxx1112basic_stringIcSt11char_traitsIcESaIcEED1Ev(ptr noundef nonnull align 8 dereferenceable(32) %ref.tmp1) #3
  br label %ehcleanup50

ehcleanup50:                                      ; preds = %ehcleanup49, %lpad10
  call void @_ZNSt7__cxx1112basic_stringIcSt11char_traitsIcESaIcEED1Ev(ptr noundef nonnull align 8 dereferenceable(32) %ref.tmp2) #3
  br label %ehcleanup51

ehcleanup51:                                      ; preds = %ehcleanup50, %lpad8
  call void @_ZNSt7__cxx1112basic_stringIcSt11char_traitsIcESaIcEED1Ev(ptr noundef nonnull align 8 dereferenceable(32) %ref.tmp3) #3
  br label %ehcleanup52

ehcleanup52:                                      ; preds = %ehcleanup51, %lpad6
  call void @_ZNSt7__cxx1112basic_stringIcSt11char_traitsIcESaIcEED1Ev(ptr noundef nonnull align 8 dereferenceable(32) %ref.tmp4) #3
  br label %ehcleanup53

ehcleanup53:                                      ; preds = %ehcleanup52, %lpad
  call void @_ZNSaIcED1Ev(ptr noundef nonnull align 1 dereferenceable(1) %ref.tmp5) #3
  br label %eh.resume

eh.resume:                                        ; preds = %ehcleanup53
  %exn = load ptr, ptr %exn.slot, align 8
  %sel = load i32, ptr %ehselector.slot, align 4
  %lpad.val = insertvalue { ptr, i32 } poison, ptr %exn, 0
  %lpad.val55 = insertvalue { ptr, i32 } %lpad.val, i32 %sel, 1
  resume { ptr, i32 } %lpad.val55
}

; Function Attrs: uwtable
define internal void @__cxx_global_var_init.15() #0 section ".text.startup" personality ptr @__gxx_personality_v0 {
entry:
  %agg.tmp = alloca %"struct.testing::internal::CodeLocation", align 8
  %ref.tmp = alloca %"class.std::__cxx11::basic_string", align 8
  %ref.tmp1 = alloca %"class.std::allocator", align 1
  %exn.slot = alloca ptr, align 8
  %ehselector.slot = alloca i32, align 4
  call void @_ZNSaIcEC1Ev(ptr noundef nonnull align 1 dereferenceable(1) %ref.tmp1) #3
  invoke void @_ZNSt7__cxx1112basic_stringIcSt11char_traitsIcESaIcEEC2IS3_EEPKcRKS3_(ptr noundef nonnull align 8 dereferenceable(32) %ref.tmp, ptr noundef @.str.2, ptr noundef nonnull align 1 dereferenceable(1) %ref.tmp1)
          to label %invoke.cont unwind label %lpad

invoke.cont:                                      ; preds = %entry
  invoke void @_ZN7testing8internal12CodeLocationC2ERKNSt7__cxx1112basic_stringIcSt11char_traitsIcESaIcEEEi(ptr noundef nonnull align 8 dereferenceable(36) %agg.tmp, ptr noundef nonnull align 8 dereferenceable(32) %ref.tmp, i32 noundef 273)
          to label %invoke.cont3 unwind label %lpad2

invoke.cont3:                                     ; preds = %invoke.cont
  %call = invoke noundef ptr @_ZN7testing8internal13GetTestTypeIdEv()
          to label %invoke.cont5 unwind label %lpad4

invoke.cont5:                                     ; preds = %invoke.cont3
  %call7 = invoke noundef ptr @_ZN7testing8internal16SuiteApiResolverINS_4TestEE19GetSetUpCaseOrSuiteEPKci(ptr noundef @.str.2, i32 noundef 273)
          to label %invoke.cont6 unwind label %lpad4

invoke.cont6:                                     ; preds = %invoke.cont5
  %call9 = invoke noundef ptr @_ZN7testing8internal16SuiteApiResolverINS_4TestEE22GetTearDownCaseOrSuiteEPKci(ptr noundef @.str.2, i32 noundef 273)
          to label %invoke.cont8 unwind label %lpad4

invoke.cont8:                                     ; preds = %invoke.cont6
  %call11 = invoke noalias noundef nonnull ptr @_Znwm(i64 noundef 8) #17
          to label %invoke.cont10 unwind label %lpad4

invoke.cont10:                                    ; preds = %invoke.cont8
  invoke void @_ZN7testing8internal15TestFactoryImplIN12_GLOBAL__N_143RandenTest_VerifyGoldenRanden64Default_TestEEC2Ev(ptr noundef nonnull align 8 dereferenceable(8) %call11)
          to label %invoke.cont13 unwind label %lpad12

invoke.cont13:                                    ; preds = %invoke.cont10
  %call15 = invoke noundef ptr @_ZN7testing8internal23MakeAndRegisterTestInfoEPKcS2_S2_S2_NS0_12CodeLocationEPKvPFvvES7_PNS0_15TestFactoryBaseE(ptr noundef @.str.16, ptr noundef @.str.17, ptr noundef null, ptr noundef null, ptr noundef %agg.tmp, ptr noundef %call, ptr noundef %call7, ptr noundef %call9, ptr noundef %call11)
          to label %invoke.cont14 unwind label %lpad4

invoke.cont14:                                    ; preds = %invoke.cont13
  call void @_ZN7testing8internal12CodeLocationD2Ev(ptr noundef nonnull align 8 dereferenceable(36) %agg.tmp) #3
  call void @_ZNSt7__cxx1112basic_stringIcSt11char_traitsIcESaIcEED1Ev(ptr noundef nonnull align 8 dereferenceable(32) %ref.tmp) #3
  call void @_ZNSaIcED1Ev(ptr noundef nonnull align 1 dereferenceable(1) %ref.tmp1) #3
  store ptr %call15, ptr @_ZN12_GLOBAL__N_143RandenTest_VerifyGoldenRanden64Default_Test10test_info_E, align 8
  ret void

lpad:                                             ; preds = %entry
  %0 = landingpad { ptr, i32 }
          cleanup
  %1 = extractvalue { ptr, i32 } %0, 0
  store ptr %1, ptr %exn.slot, align 8
  %2 = extractvalue { ptr, i32 } %0, 1
  store i32 %2, ptr %ehselector.slot, align 4
  br label %ehcleanup17

lpad2:                                            ; preds = %invoke.cont
  %3 = landingpad { ptr, i32 }
          cleanup
  %4 = extractvalue { ptr, i32 } %3, 0
  store ptr %4, ptr %exn.slot, align 8
  %5 = extractvalue { ptr, i32 } %3, 1
  store i32 %5, ptr %ehselector.slot, align 4
  br label %ehcleanup16

lpad4:                                            ; preds = %invoke.cont13, %invoke.cont8, %invoke.cont6, %invoke.cont5, %invoke.cont3
  %6 = landingpad { ptr, i32 }
          cleanup
  %7 = extractvalue { ptr, i32 } %6, 0
  store ptr %7, ptr %exn.slot, align 8
  %8 = extractvalue { ptr, i32 } %6, 1
  store i32 %8, ptr %ehselector.slot, align 4
  br label %ehcleanup

lpad12:                                           ; preds = %invoke.cont10
  %9 = landingpad { ptr, i32 }
          cleanup
  %10 = extractvalue { ptr, i32 } %9, 0
  store ptr %10, ptr %exn.slot, align 8
  %11 = extractvalue { ptr, i32 } %9, 1
  store i32 %11, ptr %ehselector.slot, align 4
  call void @_ZdlPv(ptr noundef %call11) #18
  br label %ehcleanup

ehcleanup:                                        ; preds = %lpad12, %lpad4
  call void @_ZN7testing8internal12CodeLocationD2Ev(ptr noundef nonnull align 8 dereferenceable(36) %agg.tmp) #3
  br label %ehcleanup16

ehcleanup16:                                      ; preds = %ehcleanup, %lpad2
  call void @_ZNSt7__cxx1112basic_stringIcSt11char_traitsIcESaIcEED1Ev(ptr noundef nonnull align 8 dereferenceable(32) %ref.tmp) #3
  br label %ehcleanup17

ehcleanup17:                                      ; preds = %ehcleanup16, %lpad
  call void @_ZNSaIcED1Ev(ptr noundef nonnull align 1 dereferenceable(1) %ref.tmp1) #3
  br label %eh.resume

eh.resume:                                        ; preds = %ehcleanup17
  %exn = load ptr, ptr %exn.slot, align 8
  %sel = load i32, ptr %ehselector.slot, align 4
  %lpad.val = insertvalue { ptr, i32 } poison, ptr %exn, 0
  %lpad.val18 = insertvalue { ptr, i32 } %lpad.val, i32 %sel, 1
  resume { ptr, i32 } %lpad.val18
}

declare noundef ptr @_ZN7testing8internal23MakeAndRegisterTestInfoEPKcS2_S2_S2_NS0_12CodeLocationEPKvPFvvES7_PNS0_15TestFactoryBaseE(ptr noundef, ptr noundef, ptr noundef, ptr noundef, ptr noundef, ptr noundef, ptr noundef, ptr noundef, ptr noundef) #1

declare noundef ptr @_ZN7testing8internal13GetTestTypeIdEv() #1

; Function Attrs: mustprogress uwtable
define linkonce_odr dso_local noundef ptr @_ZN7testing8internal16SuiteApiResolverINS_4TestEE19GetSetUpCaseOrSuiteEPKci(ptr noundef %filename, i32 noundef %line_num) #4 comdat align 2 personality ptr @__gxx_personality_v0 {
entry:
  %filename.addr = alloca ptr, align 8
  %line_num.addr = alloca i32, align 4
  %test_case_fp = alloca ptr, align 8
  %test_suite_fp = alloca ptr, align 8
  %ref.tmp = alloca %"class.testing::internal::GTestLog", align 4
  %exn.slot = alloca ptr, align 8
  %ehselector.slot = alloca i32, align 4
  store ptr %filename, ptr %filename.addr, align 8
  store i32 %line_num, ptr %line_num.addr, align 4
  %call = call noundef ptr @_ZN7testing8internal19GetNotDefaultOrNullEPFvvES2_(ptr noundef @_ZN7testing4Test13SetUpTestCaseEv, ptr noundef @_ZN7testing4Test13SetUpTestCaseEv)
  store ptr %call, ptr %test_case_fp, align 8
  %call1 = call noundef ptr @_ZN7testing8internal19GetNotDefaultOrNullEPFvvES2_(ptr noundef @_ZN7testing4Test14SetUpTestSuiteEv, ptr noundef @_ZN7testing4Test14SetUpTestSuiteEv)
  store ptr %call1, ptr %test_suite_fp, align 8
  %0 = load ptr, ptr %test_case_fp, align 8
  %tobool = icmp ne ptr %0, null
  br i1 %tobool, label %lor.rhs, label %lor.end

lor.rhs:                                          ; preds = %entry
  %1 = load ptr, ptr %test_suite_fp, align 8
  %tobool2 = icmp ne ptr %1, null
  %lnot = xor i1 %tobool2, true
  br label %lor.end

lor.end:                                          ; preds = %lor.rhs, %entry
  %2 = phi i1 [ true, %entry ], [ %lnot, %lor.rhs ]
  %call3 = call noundef zeroext i1 @_ZN7testing8internal6IsTrueEb(i1 noundef zeroext %2)
  br i1 %call3, label %if.then, label %if.else

if.then:                                          ; preds = %lor.end
  br label %if.end

if.else:                                          ; preds = %lor.end
  call void @_ZN7testing8internal8GTestLogC1ENS0_16GTestLogSeverityEPKci(ptr noundef nonnull align 4 dereferenceable(4) %ref.tmp, i32 noundef 3, ptr noundef @.str.48, i32 noundef 513)
  %call4 = call noundef nonnull align 8 dereferenceable(8) ptr @_ZN7testing8internal8GTestLog9GetStreamEv(ptr noundef nonnull align 4 dereferenceable(4) %ref.tmp)
  %call5 = invoke noundef nonnull align 8 dereferenceable(8) ptr @_ZStlsISt11char_traitsIcEERSt13basic_ostreamIcT_ES5_PKc(ptr noundef nonnull align 8 dereferenceable(8) %call4, ptr noundef @.str.49)
          to label %invoke.cont unwind label %lpad

invoke.cont:                                      ; preds = %if.else
  %call7 = invoke noundef nonnull align 8 dereferenceable(8) ptr @_ZStlsISt11char_traitsIcEERSt13basic_ostreamIcT_ES5_PKc(ptr noundef nonnull align 8 dereferenceable(8) %call5, ptr noundef @.str.50)
          to label %invoke.cont6 unwind label %lpad

invoke.cont6:                                     ; preds = %invoke.cont
  %3 = load ptr, ptr %filename.addr, align 8
  %call9 = invoke noundef nonnull align 8 dereferenceable(8) ptr @_ZStlsISt11char_traitsIcEERSt13basic_ostreamIcT_ES5_PKc(ptr noundef nonnull align 8 dereferenceable(8) %call7, ptr noundef %3)
          to label %invoke.cont8 unwind label %lpad

invoke.cont8:                                     ; preds = %invoke.cont6
  %call11 = invoke noundef nonnull align 8 dereferenceable(8) ptr @_ZStlsISt11char_traitsIcEERSt13basic_ostreamIcT_ES5_PKc(ptr noundef nonnull align 8 dereferenceable(8) %call9, ptr noundef @.str.51)
          to label %invoke.cont10 unwind label %lpad

invoke.cont10:                                    ; preds = %invoke.cont8
  %4 = load i32, ptr %line_num.addr, align 4
  %call13 = invoke noundef nonnull align 8 dereferenceable(8) ptr @_ZNSolsEi(ptr noundef nonnull align 8 dereferenceable(8) %call11, i32 noundef %4)
          to label %invoke.cont12 unwind label %lpad

invoke.cont12:                                    ; preds = %invoke.cont10
  call void @_ZN7testing8internal8GTestLogD1Ev(ptr noundef nonnull align 4 dereferenceable(4) %ref.tmp) #3
  br label %if.end

lpad:                                             ; preds = %invoke.cont10, %invoke.cont8, %invoke.cont6, %invoke.cont, %if.else
  %5 = landingpad { ptr, i32 }
          cleanup
  %6 = extractvalue { ptr, i32 } %5, 0
  store ptr %6, ptr %exn.slot, align 8
  %7 = extractvalue { ptr, i32 } %5, 1
  store i32 %7, ptr %ehselector.slot, align 4
  call void @_ZN7testing8internal8GTestLogD1Ev(ptr noundef nonnull align 4 dereferenceable(4) %ref.tmp) #3
  br label %eh.resume

if.end:                                           ; preds = %invoke.cont12, %if.then
  %8 = load ptr, ptr %test_case_fp, align 8
  %cmp = icmp ne ptr %8, null
  br i1 %cmp, label %cond.true, label %cond.false

cond.true:                                        ; preds = %if.end
  %9 = load ptr, ptr %test_case_fp, align 8
  br label %cond.end

cond.false:                                       ; preds = %if.end
  %10 = load ptr, ptr %test_suite_fp, align 8
  br label %cond.end

cond.end:                                         ; preds = %cond.false, %cond.true
  %cond = phi ptr [ %9, %cond.true ], [ %10, %cond.false ]
  ret ptr %cond

eh.resume:                                        ; preds = %lpad
  %exn = load ptr, ptr %exn.slot, align 8
  %sel = load i32, ptr %ehselector.slot, align 4
  %lpad.val = insertvalue { ptr, i32 } poison, ptr %exn, 0
  %lpad.val14 = insertvalue { ptr, i32 } %lpad.val, i32 %sel, 1
  resume { ptr, i32 } %lpad.val14
}

; Function Attrs: mustprogress uwtable
define linkonce_odr dso_local noundef ptr @_ZN7testing8internal16SuiteApiResolverINS_4TestEE22GetTearDownCaseOrSuiteEPKci(ptr noundef %filename, i32 noundef %line_num) #4 comdat align 2 personality ptr @__gxx_personality_v0 {
entry:
  %filename.addr = alloca ptr, align 8
  %line_num.addr = alloca i32, align 4
  %test_case_fp = alloca ptr, align 8
  %test_suite_fp = alloca ptr, align 8
  %ref.tmp = alloca %"class.testing::internal::GTestLog", align 4
  %exn.slot = alloca ptr, align 8
  %ehselector.slot = alloca i32, align 4
  store ptr %filename, ptr %filename.addr, align 8
  store i32 %line_num, ptr %line_num.addr, align 4
  %call = call noundef ptr @_ZN7testing8internal19GetNotDefaultOrNullEPFvvES2_(ptr noundef @_ZN7testing4Test16TearDownTestCaseEv, ptr noundef @_ZN7testing4Test16TearDownTestCaseEv)
  store ptr %call, ptr %test_case_fp, align 8
  %call1 = call noundef ptr @_ZN7testing8internal19GetNotDefaultOrNullEPFvvES2_(ptr noundef @_ZN7testing4Test17TearDownTestSuiteEv, ptr noundef @_ZN7testing4Test17TearDownTestSuiteEv)
  store ptr %call1, ptr %test_suite_fp, align 8
  %0 = load ptr, ptr %test_case_fp, align 8
  %tobool = icmp ne ptr %0, null
  br i1 %tobool, label %lor.rhs, label %lor.end

lor.rhs:                                          ; preds = %entry
  %1 = load ptr, ptr %test_suite_fp, align 8
  %tobool2 = icmp ne ptr %1, null
  %lnot = xor i1 %tobool2, true
  br label %lor.end

lor.end:                                          ; preds = %lor.rhs, %entry
  %2 = phi i1 [ true, %entry ], [ %lnot, %lor.rhs ]
  %call3 = call noundef zeroext i1 @_ZN7testing8internal6IsTrueEb(i1 noundef zeroext %2)
  br i1 %call3, label %if.then, label %if.else

if.then:                                          ; preds = %lor.end
  br label %if.end

if.else:                                          ; preds = %lor.end
  call void @_ZN7testing8internal8GTestLogC1ENS0_16GTestLogSeverityEPKci(ptr noundef nonnull align 4 dereferenceable(4) %ref.tmp, i32 noundef 3, ptr noundef @.str.48, i32 noundef 534)
  %call4 = call noundef nonnull align 8 dereferenceable(8) ptr @_ZN7testing8internal8GTestLog9GetStreamEv(ptr noundef nonnull align 4 dereferenceable(4) %ref.tmp)
  %call5 = invoke noundef nonnull align 8 dereferenceable(8) ptr @_ZStlsISt11char_traitsIcEERSt13basic_ostreamIcT_ES5_PKc(ptr noundef nonnull align 8 dereferenceable(8) %call4, ptr noundef @.str.49)
          to label %invoke.cont unwind label %lpad

invoke.cont:                                      ; preds = %if.else
  %call7 = invoke noundef nonnull align 8 dereferenceable(8) ptr @_ZStlsISt11char_traitsIcEERSt13basic_ostreamIcT_ES5_PKc(ptr noundef nonnull align 8 dereferenceable(8) %call5, ptr noundef @.str.52)
          to label %invoke.cont6 unwind label %lpad

invoke.cont6:                                     ; preds = %invoke.cont
  %3 = load ptr, ptr %filename.addr, align 8
  %call9 = invoke noundef nonnull align 8 dereferenceable(8) ptr @_ZStlsISt11char_traitsIcEERSt13basic_ostreamIcT_ES5_PKc(ptr noundef nonnull align 8 dereferenceable(8) %call7, ptr noundef %3)
          to label %invoke.cont8 unwind label %lpad

invoke.cont8:                                     ; preds = %invoke.cont6
  %call11 = invoke noundef nonnull align 8 dereferenceable(8) ptr @_ZStlsISt11char_traitsIcEERSt13basic_ostreamIcT_ES5_PKc(ptr noundef nonnull align 8 dereferenceable(8) %call9, ptr noundef @.str.51)
          to label %invoke.cont10 unwind label %lpad

invoke.cont10:                                    ; preds = %invoke.cont8
  %4 = load i32, ptr %line_num.addr, align 4
  %call13 = invoke noundef nonnull align 8 dereferenceable(8) ptr @_ZNSolsEi(ptr noundef nonnull align 8 dereferenceable(8) %call11, i32 noundef %4)
          to label %invoke.cont12 unwind label %lpad

invoke.cont12:                                    ; preds = %invoke.cont10
  call void @_ZN7testing8internal8GTestLogD1Ev(ptr noundef nonnull align 4 dereferenceable(4) %ref.tmp) #3
  br label %if.end

lpad:                                             ; preds = %invoke.cont10, %invoke.cont8, %invoke.cont6, %invoke.cont, %if.else
  %5 = landingpad { ptr, i32 }
          cleanup
  %6 = extractvalue { ptr, i32 } %5, 0
  store ptr %6, ptr %exn.slot, align 8
  %7 = extractvalue { ptr, i32 } %5, 1
  store i32 %7, ptr %ehselector.slot, align 4
  call void @_ZN7testing8internal8GTestLogD1Ev(ptr noundef nonnull align 4 dereferenceable(4) %ref.tmp) #3
  br label %eh.resume

if.end:                                           ; preds = %invoke.cont12, %if.then
  %8 = load ptr, ptr %test_case_fp, align 8
  %cmp = icmp ne ptr %8, null
  br i1 %cmp, label %cond.true, label %cond.false

cond.true:                                        ; preds = %if.end
  %9 = load ptr, ptr %test_case_fp, align 8
  br label %cond.end

cond.false:                                       ; preds = %if.end
  %10 = load ptr, ptr %test_suite_fp, align 8
  br label %cond.end

cond.end:                                         ; preds = %cond.false, %cond.true
  %cond = phi ptr [ %9, %cond.true ], [ %10, %cond.false ]
  ret ptr %cond

eh.resume:                                        ; preds = %lpad
  %exn = load ptr, ptr %exn.slot, align 8
  %sel = load i32, ptr %ehselector.slot, align 4
  %lpad.val = insertvalue { ptr, i32 } poison, ptr %exn, 0
  %lpad.val14 = insertvalue { ptr, i32 } %lpad.val, i32 %sel, 1
  resume { ptr, i32 } %lpad.val14
}

; Function Attrs: nobuiltin allocsize(0)
declare noundef nonnull ptr @_Znwm(i64 noundef) #6

; Function Attrs: mustprogress uwtable
define internal void @_ZN7testing8internal15TestFactoryImplIN12_GLOBAL__N_143RandenTest_VerifyGoldenRanden64Default_TestEEC2Ev(ptr noundef nonnull align 8 dereferenceable(8) %this) unnamed_addr #4 align 2 {
entry:
  %this.addr = alloca ptr, align 8
  store ptr %this, ptr %this.addr, align 8
  %this1 = load ptr, ptr %this.addr, align 8
  call void @_ZN7testing8internal15TestFactoryBaseC2Ev(ptr noundef nonnull align 8 dereferenceable(8) %this1)
  store ptr getelementptr inbounds ({ [5 x ptr] }, ptr @_ZTVN7testing8internal15TestFactoryImplIN12_GLOBAL__N_143RandenTest_VerifyGoldenRanden64Default_TestEEE, i32 0, inrange i32 0, i32 2), ptr %this1, align 8
  ret void
}

; Function Attrs: nobuiltin nounwind
declare void @_ZdlPv(ptr noundef) #7

; Function Attrs: uwtable
define internal void @__cxx_global_var_init.18() #0 section ".text.startup" personality ptr @__gxx_personality_v0 {
entry:
  %agg.tmp = alloca %"struct.testing::internal::CodeLocation", align 8
  %ref.tmp = alloca %"class.std::__cxx11::basic_string", align 8
  %ref.tmp1 = alloca %"class.std::allocator", align 1
  %exn.slot = alloca ptr, align 8
  %ehselector.slot = alloca i32, align 4
  call void @_ZNSaIcEC1Ev(ptr noundef nonnull align 1 dereferenceable(1) %ref.tmp1) #3
  invoke void @_ZNSt7__cxx1112basic_stringIcSt11char_traitsIcESaIcEEC2IS3_EEPKcRKS3_(ptr noundef nonnull align 8 dereferenceable(32) %ref.tmp, ptr noundef @.str.2, ptr noundef nonnull align 1 dereferenceable(1) %ref.tmp1)
          to label %invoke.cont unwind label %lpad

invoke.cont:                                      ; preds = %entry
  invoke void @_ZN7testing8internal12CodeLocationC2ERKNSt7__cxx1112basic_stringIcSt11char_traitsIcESaIcEEEi(ptr noundef nonnull align 8 dereferenceable(36) %agg.tmp, ptr noundef nonnull align 8 dereferenceable(32) %ref.tmp, i32 noundef 340)
          to label %invoke.cont3 unwind label %lpad2

invoke.cont3:                                     ; preds = %invoke.cont
  %call = invoke noundef ptr @_ZN7testing8internal13GetTestTypeIdEv()
          to label %invoke.cont5 unwind label %lpad4

invoke.cont5:                                     ; preds = %invoke.cont3
  %call7 = invoke noundef ptr @_ZN7testing8internal16SuiteApiResolverINS_4TestEE19GetSetUpCaseOrSuiteEPKci(ptr noundef @.str.2, i32 noundef 340)
          to label %invoke.cont6 unwind label %lpad4

invoke.cont6:                                     ; preds = %invoke.cont5
  %call9 = invoke noundef ptr @_ZN7testing8internal16SuiteApiResolverINS_4TestEE22GetTearDownCaseOrSuiteEPKci(ptr noundef @.str.2, i32 noundef 340)
          to label %invoke.cont8 unwind label %lpad4

invoke.cont8:                                     ; preds = %invoke.cont6
  %call11 = invoke noalias noundef nonnull ptr @_Znwm(i64 noundef 8) #17
          to label %invoke.cont10 unwind label %lpad4

invoke.cont10:                                    ; preds = %invoke.cont8
  invoke void @_ZN7testing8internal15TestFactoryImplIN12_GLOBAL__N_142RandenTest_VerifyGoldenRanden64Seeded_TestEEC2Ev(ptr noundef nonnull align 8 dereferenceable(8) %call11)
          to label %invoke.cont13 unwind label %lpad12

invoke.cont13:                                    ; preds = %invoke.cont10
  %call15 = invoke noundef ptr @_ZN7testing8internal23MakeAndRegisterTestInfoEPKcS2_S2_S2_NS0_12CodeLocationEPKvPFvvES7_PNS0_15TestFactoryBaseE(ptr noundef @.str.16, ptr noundef @.str.19, ptr noundef null, ptr noundef null, ptr noundef %agg.tmp, ptr noundef %call, ptr noundef %call7, ptr noundef %call9, ptr noundef %call11)
          to label %invoke.cont14 unwind label %lpad4

invoke.cont14:                                    ; preds = %invoke.cont13
  call void @_ZN7testing8internal12CodeLocationD2Ev(ptr noundef nonnull align 8 dereferenceable(36) %agg.tmp) #3
  call void @_ZNSt7__cxx1112basic_stringIcSt11char_traitsIcESaIcEED1Ev(ptr noundef nonnull align 8 dereferenceable(32) %ref.tmp) #3
  call void @_ZNSaIcED1Ev(ptr noundef nonnull align 1 dereferenceable(1) %ref.tmp1) #3
  store ptr %call15, ptr @_ZN12_GLOBAL__N_142RandenTest_VerifyGoldenRanden64Seeded_Test10test_info_E, align 8
  ret void

lpad:                                             ; preds = %entry
  %0 = landingpad { ptr, i32 }
          cleanup
  %1 = extractvalue { ptr, i32 } %0, 0
  store ptr %1, ptr %exn.slot, align 8
  %2 = extractvalue { ptr, i32 } %0, 1
  store i32 %2, ptr %ehselector.slot, align 4
  br label %ehcleanup17

lpad2:                                            ; preds = %invoke.cont
  %3 = landingpad { ptr, i32 }
          cleanup
  %4 = extractvalue { ptr, i32 } %3, 0
  store ptr %4, ptr %exn.slot, align 8
  %5 = extractvalue { ptr, i32 } %3, 1
  store i32 %5, ptr %ehselector.slot, align 4
  br label %ehcleanup16

lpad4:                                            ; preds = %invoke.cont13, %invoke.cont8, %invoke.cont6, %invoke.cont5, %invoke.cont3
  %6 = landingpad { ptr, i32 }
          cleanup
  %7 = extractvalue { ptr, i32 } %6, 0
  store ptr %7, ptr %exn.slot, align 8
  %8 = extractvalue { ptr, i32 } %6, 1
  store i32 %8, ptr %ehselector.slot, align 4
  br label %ehcleanup

lpad12:                                           ; preds = %invoke.cont10
  %9 = landingpad { ptr, i32 }
          cleanup
  %10 = extractvalue { ptr, i32 } %9, 0
  store ptr %10, ptr %exn.slot, align 8
  %11 = extractvalue { ptr, i32 } %9, 1
  store i32 %11, ptr %ehselector.slot, align 4
  call void @_ZdlPv(ptr noundef %call11) #18
  br label %ehcleanup

ehcleanup:                                        ; preds = %lpad12, %lpad4
  call void @_ZN7testing8internal12CodeLocationD2Ev(ptr noundef nonnull align 8 dereferenceable(36) %agg.tmp) #3
  br label %ehcleanup16

ehcleanup16:                                      ; preds = %ehcleanup, %lpad2
  call void @_ZNSt7__cxx1112basic_stringIcSt11char_traitsIcESaIcEED1Ev(ptr noundef nonnull align 8 dereferenceable(32) %ref.tmp) #3
  br label %ehcleanup17

ehcleanup17:                                      ; preds = %ehcleanup16, %lpad
  call void @_ZNSaIcED1Ev(ptr noundef nonnull align 1 dereferenceable(1) %ref.tmp1) #3
  br label %eh.resume

eh.resume:                                        ; preds = %ehcleanup17
  %exn = load ptr, ptr %exn.slot, align 8
  %sel = load i32, ptr %ehselector.slot, align 4
  %lpad.val = insertvalue { ptr, i32 } poison, ptr %exn, 0
  %lpad.val18 = insertvalue { ptr, i32 } %lpad.val, i32 %sel, 1
  resume { ptr, i32 } %lpad.val18
}

; Function Attrs: mustprogress nounwind uwtable
define internal void @_ZN7testing8internal15TestFactoryImplIN12_GLOBAL__N_142RandenTest_VerifyGoldenRanden64Seeded_TestEEC2Ev(ptr noundef nonnull align 8 dereferenceable(8) %this) unnamed_addr #5 align 2 {
entry:
  %this.addr = alloca ptr, align 8
  store ptr %this, ptr %this.addr, align 8
  %this1 = load ptr, ptr %this.addr, align 8
  call void @_ZN7testing8internal15TestFactoryBaseC2Ev(ptr noundef nonnull align 8 dereferenceable(8) %this1)
  store ptr getelementptr inbounds ({ [5 x ptr] }, ptr @_ZTVN7testing8internal15TestFactoryImplIN12_GLOBAL__N_142RandenTest_VerifyGoldenRanden64Seeded_TestEEE, i32 0, inrange i32 0, i32 2), ptr %this1, align 8
  ret void
}

; Function Attrs: uwtable
define internal void @__cxx_global_var_init.20() #0 section ".text.startup" personality ptr @__gxx_personality_v0 {
entry:
  %agg.tmp = alloca %"struct.testing::internal::CodeLocation", align 8
  %ref.tmp = alloca %"class.std::__cxx11::basic_string", align 8
  %ref.tmp1 = alloca %"class.std::allocator", align 1
  %exn.slot = alloca ptr, align 8
  %ehselector.slot = alloca i32, align 4
  call void @_ZNSaIcEC1Ev(ptr noundef nonnull align 1 dereferenceable(1) %ref.tmp1) #3
  invoke void @_ZNSt7__cxx1112basic_stringIcSt11char_traitsIcESaIcEEC2IS3_EEPKcRKS3_(ptr noundef nonnull align 8 dereferenceable(32) %ref.tmp, ptr noundef @.str.2, ptr noundef nonnull align 1 dereferenceable(1) %ref.tmp1)
          to label %invoke.cont unwind label %lpad

invoke.cont:                                      ; preds = %entry
  invoke void @_ZN7testing8internal12CodeLocationC2ERKNSt7__cxx1112basic_stringIcSt11char_traitsIcESaIcEEEi(ptr noundef nonnull align 8 dereferenceable(36) %agg.tmp, ptr noundef nonnull align 8 dereferenceable(32) %ref.tmp, i32 noundef 409)
          to label %invoke.cont3 unwind label %lpad2

invoke.cont3:                                     ; preds = %invoke.cont
  %call = invoke noundef ptr @_ZN7testing8internal13GetTestTypeIdEv()
          to label %invoke.cont5 unwind label %lpad4

invoke.cont5:                                     ; preds = %invoke.cont3
  %call7 = invoke noundef ptr @_ZN7testing8internal16SuiteApiResolverINS_4TestEE19GetSetUpCaseOrSuiteEPKci(ptr noundef @.str.2, i32 noundef 409)
          to label %invoke.cont6 unwind label %lpad4

invoke.cont6:                                     ; preds = %invoke.cont5
  %call9 = invoke noundef ptr @_ZN7testing8internal16SuiteApiResolverINS_4TestEE22GetTearDownCaseOrSuiteEPKci(ptr noundef @.str.2, i32 noundef 409)
          to label %invoke.cont8 unwind label %lpad4

invoke.cont8:                                     ; preds = %invoke.cont6
  %call11 = invoke noalias noundef nonnull ptr @_Znwm(i64 noundef 8) #17
          to label %invoke.cont10 unwind label %lpad4

invoke.cont10:                                    ; preds = %invoke.cont8
  invoke void @_ZN7testing8internal15TestFactoryImplIN12_GLOBAL__N_143RandenTest_VerifyGoldenRanden32Default_TestEEC2Ev(ptr noundef nonnull align 8 dereferenceable(8) %call11)
          to label %invoke.cont13 unwind label %lpad12

invoke.cont13:                                    ; preds = %invoke.cont10
  %call15 = invoke noundef ptr @_ZN7testing8internal23MakeAndRegisterTestInfoEPKcS2_S2_S2_NS0_12CodeLocationEPKvPFvvES7_PNS0_15TestFactoryBaseE(ptr noundef @.str.16, ptr noundef @.str.21, ptr noundef null, ptr noundef null, ptr noundef %agg.tmp, ptr noundef %call, ptr noundef %call7, ptr noundef %call9, ptr noundef %call11)
          to label %invoke.cont14 unwind label %lpad4

invoke.cont14:                                    ; preds = %invoke.cont13
  call void @_ZN7testing8internal12CodeLocationD2Ev(ptr noundef nonnull align 8 dereferenceable(36) %agg.tmp) #3
  call void @_ZNSt7__cxx1112basic_stringIcSt11char_traitsIcESaIcEED1Ev(ptr noundef nonnull align 8 dereferenceable(32) %ref.tmp) #3
  call void @_ZNSaIcED1Ev(ptr noundef nonnull align 1 dereferenceable(1) %ref.tmp1) #3
  store ptr %call15, ptr @_ZN12_GLOBAL__N_143RandenTest_VerifyGoldenRanden32Default_Test10test_info_E, align 8
  ret void

lpad:                                             ; preds = %entry
  %0 = landingpad { ptr, i32 }
          cleanup
  %1 = extractvalue { ptr, i32 } %0, 0
  store ptr %1, ptr %exn.slot, align 8
  %2 = extractvalue { ptr, i32 } %0, 1
  store i32 %2, ptr %ehselector.slot, align 4
  br label %ehcleanup17

lpad2:                                            ; preds = %invoke.cont
  %3 = landingpad { ptr, i32 }
          cleanup
  %4 = extractvalue { ptr, i32 } %3, 0
  store ptr %4, ptr %exn.slot, align 8
  %5 = extractvalue { ptr, i32 } %3, 1
  store i32 %5, ptr %ehselector.slot, align 4
  br label %ehcleanup16

lpad4:                                            ; preds = %invoke.cont13, %invoke.cont8, %invoke.cont6, %invoke.cont5, %invoke.cont3
  %6 = landingpad { ptr, i32 }
          cleanup
  %7 = extractvalue { ptr, i32 } %6, 0
  store ptr %7, ptr %exn.slot, align 8
  %8 = extractvalue { ptr, i32 } %6, 1
  store i32 %8, ptr %ehselector.slot, align 4
  br label %ehcleanup

lpad12:                                           ; preds = %invoke.cont10
  %9 = landingpad { ptr, i32 }
          cleanup
  %10 = extractvalue { ptr, i32 } %9, 0
  store ptr %10, ptr %exn.slot, align 8
  %11 = extractvalue { ptr, i32 } %9, 1
  store i32 %11, ptr %ehselector.slot, align 4
  call void @_ZdlPv(ptr noundef %call11) #18
  br label %ehcleanup

ehcleanup:                                        ; preds = %lpad12, %lpad4
  call void @_ZN7testing8internal12CodeLocationD2Ev(ptr noundef nonnull align 8 dereferenceable(36) %agg.tmp) #3
  br label %ehcleanup16

ehcleanup16:                                      ; preds = %ehcleanup, %lpad2
  call void @_ZNSt7__cxx1112basic_stringIcSt11char_traitsIcESaIcEED1Ev(ptr noundef nonnull align 8 dereferenceable(32) %ref.tmp) #3
  br label %ehcleanup17

ehcleanup17:                                      ; preds = %ehcleanup16, %lpad
  call void @_ZNSaIcED1Ev(ptr noundef nonnull align 1 dereferenceable(1) %ref.tmp1) #3
  br label %eh.resume

eh.resume:                                        ; preds = %ehcleanup17
  %exn = load ptr, ptr %exn.slot, align 8
  %sel = load i32, ptr %ehselector.slot, align 4
  %lpad.val = insertvalue { ptr, i32 } poison, ptr %exn, 0
  %lpad.val18 = insertvalue { ptr, i32 } %lpad.val, i32 %sel, 1
  resume { ptr, i32 } %lpad.val18
}

; Function Attrs: mustprogress nounwind uwtable
define internal void @_ZN7testing8internal15TestFactoryImplIN12_GLOBAL__N_143RandenTest_VerifyGoldenRanden32Default_TestEEC2Ev(ptr noundef nonnull align 8 dereferenceable(8) %this) unnamed_addr #5 align 2 {
entry:
  %this.addr = alloca ptr, align 8
  store ptr %this, ptr %this.addr, align 8
  %this1 = load ptr, ptr %this.addr, align 8
  call void @_ZN7testing8internal15TestFactoryBaseC2Ev(ptr noundef nonnull align 8 dereferenceable(8) %this1)
  store ptr getelementptr inbounds ({ [5 x ptr] }, ptr @_ZTVN7testing8internal15TestFactoryImplIN12_GLOBAL__N_143RandenTest_VerifyGoldenRanden32Default_TestEEE, i32 0, inrange i32 0, i32 2), ptr %this1, align 8
  ret void
}

; Function Attrs: uwtable
define internal void @__cxx_global_var_init.22() #0 section ".text.startup" personality ptr @__gxx_personality_v0 {
entry:
  %agg.tmp = alloca %"struct.testing::internal::CodeLocation", align 8
  %ref.tmp = alloca %"class.std::__cxx11::basic_string", align 8
  %ref.tmp1 = alloca %"class.std::allocator", align 1
  %exn.slot = alloca ptr, align 8
  %ehselector.slot = alloca i32, align 4
  call void @_ZNSaIcEC1Ev(ptr noundef nonnull align 1 dereferenceable(1) %ref.tmp1) #3
  invoke void @_ZNSt7__cxx1112basic_stringIcSt11char_traitsIcESaIcEEC2IS3_EEPKcRKS3_(ptr noundef nonnull align 8 dereferenceable(32) %ref.tmp, ptr noundef @.str.2, ptr noundef nonnull align 1 dereferenceable(1) %ref.tmp1)
          to label %invoke.cont unwind label %lpad

invoke.cont:                                      ; preds = %entry
  invoke void @_ZN7testing8internal12CodeLocationC2ERKNSt7__cxx1112basic_stringIcSt11char_traitsIcESaIcEEEi(ptr noundef nonnull align 8 dereferenceable(36) %agg.tmp, ptr noundef nonnull align 8 dereferenceable(32) %ref.tmp, i32 noundef 476)
          to label %invoke.cont3 unwind label %lpad2

invoke.cont3:                                     ; preds = %invoke.cont
  %call = invoke noundef ptr @_ZN7testing8internal13GetTestTypeIdEv()
          to label %invoke.cont5 unwind label %lpad4

invoke.cont5:                                     ; preds = %invoke.cont3
  %call7 = invoke noundef ptr @_ZN7testing8internal16SuiteApiResolverINS_4TestEE19GetSetUpCaseOrSuiteEPKci(ptr noundef @.str.2, i32 noundef 476)
          to label %invoke.cont6 unwind label %lpad4

invoke.cont6:                                     ; preds = %invoke.cont5
  %call9 = invoke noundef ptr @_ZN7testing8internal16SuiteApiResolverINS_4TestEE22GetTearDownCaseOrSuiteEPKci(ptr noundef @.str.2, i32 noundef 476)
          to label %invoke.cont8 unwind label %lpad4

invoke.cont8:                                     ; preds = %invoke.cont6
  %call11 = invoke noalias noundef nonnull ptr @_Znwm(i64 noundef 8) #17
          to label %invoke.cont10 unwind label %lpad4

invoke.cont10:                                    ; preds = %invoke.cont8
  invoke void @_ZN7testing8internal15TestFactoryImplIN12_GLOBAL__N_142RandenTest_VerifyGoldenRanden32Seeded_TestEEC2Ev(ptr noundef nonnull align 8 dereferenceable(8) %call11)
          to label %invoke.cont13 unwind label %lpad12

invoke.cont13:                                    ; preds = %invoke.cont10
  %call15 = invoke noundef ptr @_ZN7testing8internal23MakeAndRegisterTestInfoEPKcS2_S2_S2_NS0_12CodeLocationEPKvPFvvES7_PNS0_15TestFactoryBaseE(ptr noundef @.str.16, ptr noundef @.str.23, ptr noundef null, ptr noundef null, ptr noundef %agg.tmp, ptr noundef %call, ptr noundef %call7, ptr noundef %call9, ptr noundef %call11)
          to label %invoke.cont14 unwind label %lpad4

invoke.cont14:                                    ; preds = %invoke.cont13
  call void @_ZN7testing8internal12CodeLocationD2Ev(ptr noundef nonnull align 8 dereferenceable(36) %agg.tmp) #3
  call void @_ZNSt7__cxx1112basic_stringIcSt11char_traitsIcESaIcEED1Ev(ptr noundef nonnull align 8 dereferenceable(32) %ref.tmp) #3
  call void @_ZNSaIcED1Ev(ptr noundef nonnull align 1 dereferenceable(1) %ref.tmp1) #3
  store ptr %call15, ptr @_ZN12_GLOBAL__N_142RandenTest_VerifyGoldenRanden32Seeded_Test10test_info_E, align 8
  ret void

lpad:                                             ; preds = %entry
  %0 = landingpad { ptr, i32 }
          cleanup
  %1 = extractvalue { ptr, i32 } %0, 0
  store ptr %1, ptr %exn.slot, align 8
  %2 = extractvalue { ptr, i32 } %0, 1
  store i32 %2, ptr %ehselector.slot, align 4
  br label %ehcleanup17

lpad2:                                            ; preds = %invoke.cont
  %3 = landingpad { ptr, i32 }
          cleanup
  %4 = extractvalue { ptr, i32 } %3, 0
  store ptr %4, ptr %exn.slot, align 8
  %5 = extractvalue { ptr, i32 } %3, 1
  store i32 %5, ptr %ehselector.slot, align 4
  br label %ehcleanup16

lpad4:                                            ; preds = %invoke.cont13, %invoke.cont8, %invoke.cont6, %invoke.cont5, %invoke.cont3
  %6 = landingpad { ptr, i32 }
          cleanup
  %7 = extractvalue { ptr, i32 } %6, 0
  store ptr %7, ptr %exn.slot, align 8
  %8 = extractvalue { ptr, i32 } %6, 1
  store i32 %8, ptr %ehselector.slot, align 4
  br label %ehcleanup

lpad12:                                           ; preds = %invoke.cont10
  %9 = landingpad { ptr, i32 }
          cleanup
  %10 = extractvalue { ptr, i32 } %9, 0
  store ptr %10, ptr %exn.slot, align 8
  %11 = extractvalue { ptr, i32 } %9, 1
  store i32 %11, ptr %ehselector.slot, align 4
  call void @_ZdlPv(ptr noundef %call11) #18
  br label %ehcleanup

ehcleanup:                                        ; preds = %lpad12, %lpad4
  call void @_ZN7testing8internal12CodeLocationD2Ev(ptr noundef nonnull align 8 dereferenceable(36) %agg.tmp) #3
  br label %ehcleanup16

ehcleanup16:                                      ; preds = %ehcleanup, %lpad2
  call void @_ZNSt7__cxx1112basic_stringIcSt11char_traitsIcESaIcEED1Ev(ptr noundef nonnull align 8 dereferenceable(32) %ref.tmp) #3
  br label %ehcleanup17

ehcleanup17:                                      ; preds = %ehcleanup16, %lpad
  call void @_ZNSaIcED1Ev(ptr noundef nonnull align 1 dereferenceable(1) %ref.tmp1) #3
  br label %eh.resume

eh.resume:                                        ; preds = %ehcleanup17
  %exn = load ptr, ptr %exn.slot, align 8
  %sel = load i32, ptr %ehselector.slot, align 4
  %lpad.val = insertvalue { ptr, i32 } poison, ptr %exn, 0
  %lpad.val18 = insertvalue { ptr, i32 } %lpad.val, i32 %sel, 1
  resume { ptr, i32 } %lpad.val18
}

; Function Attrs: mustprogress nounwind uwtable
define internal void @_ZN7testing8internal15TestFactoryImplIN12_GLOBAL__N_142RandenTest_VerifyGoldenRanden32Seeded_TestEEC2Ev(ptr noundef nonnull align 8 dereferenceable(8) %this) unnamed_addr #5 align 2 {
entry:
  %this.addr = alloca ptr, align 8
  store ptr %this, ptr %this.addr, align 8
  %this1 = load ptr, ptr %this.addr, align 8
  call void @_ZN7testing8internal15TestFactoryBaseC2Ev(ptr noundef nonnull align 8 dereferenceable(8) %this1)
  store ptr getelementptr inbounds ({ [5 x ptr] }, ptr @_ZTVN7testing8internal15TestFactoryImplIN12_GLOBAL__N_142RandenTest_VerifyGoldenRanden32Seeded_TestEEE, i32 0, inrange i32 0, i32 2), ptr %this1, align 8
  ret void
}

; Function Attrs: uwtable
define internal void @__cxx_global_var_init.24() #0 section ".text.startup" personality ptr @__gxx_personality_v0 {
entry:
  %agg.tmp = alloca %"struct.testing::internal::CodeLocation", align 8
  %ref.tmp = alloca %"class.std::__cxx11::basic_string", align 8
  %ref.tmp1 = alloca %"class.std::allocator", align 1
  %exn.slot = alloca ptr, align 8
  %ehselector.slot = alloca i32, align 4
  call void @_ZNSaIcEC1Ev(ptr noundef nonnull align 1 dereferenceable(1) %ref.tmp1) #3
  invoke void @_ZNSt7__cxx1112basic_stringIcSt11char_traitsIcESaIcEEC2IS3_EEPKcRKS3_(ptr noundef nonnull align 8 dereferenceable(32) %ref.tmp, ptr noundef @.str.2, ptr noundef nonnull align 1 dereferenceable(1) %ref.tmp1)
          to label %invoke.cont unwind label %lpad

invoke.cont:                                      ; preds = %entry
  invoke void @_ZN7testing8internal12CodeLocationC2ERKNSt7__cxx1112basic_stringIcSt11char_traitsIcESaIcEEEi(ptr noundef nonnull align 8 dereferenceable(36) %agg.tmp, ptr noundef nonnull align 8 dereferenceable(32) %ref.tmp, i32 noundef 545)
          to label %invoke.cont3 unwind label %lpad2

invoke.cont3:                                     ; preds = %invoke.cont
  %call = invoke noundef ptr @_ZN7testing8internal13GetTestTypeIdEv()
          to label %invoke.cont5 unwind label %lpad4

invoke.cont5:                                     ; preds = %invoke.cont3
  %call7 = invoke noundef ptr @_ZN7testing8internal16SuiteApiResolverINS_4TestEE19GetSetUpCaseOrSuiteEPKci(ptr noundef @.str.2, i32 noundef 545)
          to label %invoke.cont6 unwind label %lpad4

invoke.cont6:                                     ; preds = %invoke.cont5
  %call9 = invoke noundef ptr @_ZN7testing8internal16SuiteApiResolverINS_4TestEE22GetTearDownCaseOrSuiteEPKci(ptr noundef @.str.2, i32 noundef 545)
          to label %invoke.cont8 unwind label %lpad4

invoke.cont8:                                     ; preds = %invoke.cont6
  %call11 = invoke noalias noundef nonnull ptr @_Znwm(i64 noundef 8) #17
          to label %invoke.cont10 unwind label %lpad4

invoke.cont10:                                    ; preds = %invoke.cont8
  invoke void @_ZN7testing8internal15TestFactoryImplIN12_GLOBAL__N_150RandenTest_VerifyGoldenFromDeserializedEngine_TestEEC2Ev(ptr noundef nonnull align 8 dereferenceable(8) %call11)
          to label %invoke.cont13 unwind label %lpad12

invoke.cont13:                                    ; preds = %invoke.cont10
  %call15 = invoke noundef ptr @_ZN7testing8internal23MakeAndRegisterTestInfoEPKcS2_S2_S2_NS0_12CodeLocationEPKvPFvvES7_PNS0_15TestFactoryBaseE(ptr noundef @.str.16, ptr noundef @.str.25, ptr noundef null, ptr noundef null, ptr noundef %agg.tmp, ptr noundef %call, ptr noundef %call7, ptr noundef %call9, ptr noundef %call11)
          to label %invoke.cont14 unwind label %lpad4

invoke.cont14:                                    ; preds = %invoke.cont13
  call void @_ZN7testing8internal12CodeLocationD2Ev(ptr noundef nonnull align 8 dereferenceable(36) %agg.tmp) #3
  call void @_ZNSt7__cxx1112basic_stringIcSt11char_traitsIcESaIcEED1Ev(ptr noundef nonnull align 8 dereferenceable(32) %ref.tmp) #3
  call void @_ZNSaIcED1Ev(ptr noundef nonnull align 1 dereferenceable(1) %ref.tmp1) #3
  store ptr %call15, ptr @_ZN12_GLOBAL__N_150RandenTest_VerifyGoldenFromDeserializedEngine_Test10test_info_E, align 8
  ret void

lpad:                                             ; preds = %entry
  %0 = landingpad { ptr, i32 }
          cleanup
  %1 = extractvalue { ptr, i32 } %0, 0
  store ptr %1, ptr %exn.slot, align 8
  %2 = extractvalue { ptr, i32 } %0, 1
  store i32 %2, ptr %ehselector.slot, align 4
  br label %ehcleanup17

lpad2:                                            ; preds = %invoke.cont
  %3 = landingpad { ptr, i32 }
          cleanup
  %4 = extractvalue { ptr, i32 } %3, 0
  store ptr %4, ptr %exn.slot, align 8
  %5 = extractvalue { ptr, i32 } %3, 1
  store i32 %5, ptr %ehselector.slot, align 4
  br label %ehcleanup16

lpad4:                                            ; preds = %invoke.cont13, %invoke.cont8, %invoke.cont6, %invoke.cont5, %invoke.cont3
  %6 = landingpad { ptr, i32 }
          cleanup
  %7 = extractvalue { ptr, i32 } %6, 0
  store ptr %7, ptr %exn.slot, align 8
  %8 = extractvalue { ptr, i32 } %6, 1
  store i32 %8, ptr %ehselector.slot, align 4
  br label %ehcleanup

lpad12:                                           ; preds = %invoke.cont10
  %9 = landingpad { ptr, i32 }
          cleanup
  %10 = extractvalue { ptr, i32 } %9, 0
  store ptr %10, ptr %exn.slot, align 8
  %11 = extractvalue { ptr, i32 } %9, 1
  store i32 %11, ptr %ehselector.slot, align 4
  call void @_ZdlPv(ptr noundef %call11) #18
  br label %ehcleanup

ehcleanup:                                        ; preds = %lpad12, %lpad4
  call void @_ZN7testing8internal12CodeLocationD2Ev(ptr noundef nonnull align 8 dereferenceable(36) %agg.tmp) #3
  br label %ehcleanup16

ehcleanup16:                                      ; preds = %ehcleanup, %lpad2
  call void @_ZNSt7__cxx1112basic_stringIcSt11char_traitsIcESaIcEED1Ev(ptr noundef nonnull align 8 dereferenceable(32) %ref.tmp) #3
  br label %ehcleanup17

ehcleanup17:                                      ; preds = %ehcleanup16, %lpad
  call void @_ZNSaIcED1Ev(ptr noundef nonnull align 1 dereferenceable(1) %ref.tmp1) #3
  br label %eh.resume

eh.resume:                                        ; preds = %ehcleanup17
  %exn = load ptr, ptr %exn.slot, align 8
  %sel = load i32, ptr %ehselector.slot, align 4
  %lpad.val = insertvalue { ptr, i32 } poison, ptr %exn, 0
  %lpad.val18 = insertvalue { ptr, i32 } %lpad.val, i32 %sel, 1
  resume { ptr, i32 } %lpad.val18
}

; Function Attrs: mustprogress nounwind uwtable
define internal void @_ZN7testing8internal15TestFactoryImplIN12_GLOBAL__N_150RandenTest_VerifyGoldenFromDeserializedEngine_TestEEC2Ev(ptr noundef nonnull align 8 dereferenceable(8) %this) unnamed_addr #5 align 2 {
entry:
  %this.addr = alloca ptr, align 8
  store ptr %this, ptr %this.addr, align 8
  %this1 = load ptr, ptr %this.addr, align 8
  call void @_ZN7testing8internal15TestFactoryBaseC2Ev(ptr noundef nonnull align 8 dereferenceable(8) %this1)
  store ptr getelementptr inbounds ({ [5 x ptr] }, ptr @_ZTVN7testing8internal15TestFactoryImplIN12_GLOBAL__N_150RandenTest_VerifyGoldenFromDeserializedEngine_TestEEE, i32 0, inrange i32 0, i32 2), ptr %this1, align 8
  ret void
}

; Function Attrs: uwtable
define internal void @__cxx_global_var_init.26() #0 section ".text.startup" personality ptr @__gxx_personality_v0 {
entry:
  %agg.tmp = alloca %"struct.testing::internal::CodeLocation", align 8
  %ref.tmp = alloca %"class.std::__cxx11::basic_string", align 8
  %ref.tmp1 = alloca %"class.std::allocator", align 1
  %exn.slot = alloca ptr, align 8
  %ehselector.slot = alloca i32, align 4
  call void @_ZNSaIcEC1Ev(ptr noundef nonnull align 1 dereferenceable(1) %ref.tmp1) #3
  invoke void @_ZNSt7__cxx1112basic_stringIcSt11char_traitsIcESaIcEEC2IS3_EEPKcRKS3_(ptr noundef nonnull align 8 dereferenceable(32) %ref.tmp, ptr noundef @.str.2, ptr noundef nonnull align 1 dereferenceable(1) %ref.tmp1)
          to label %invoke.cont unwind label %lpad

invoke.cont:                                      ; preds = %entry
  invoke void @_ZN7testing8internal12CodeLocationC2ERKNSt7__cxx1112basic_stringIcSt11char_traitsIcESaIcEEEi(ptr noundef nonnull align 8 dereferenceable(36) %agg.tmp, ptr noundef nonnull align 8 dereferenceable(32) %ref.tmp, i32 noundef 626)
          to label %invoke.cont3 unwind label %lpad2

invoke.cont3:                                     ; preds = %invoke.cont
  %call = invoke noundef ptr @_ZN7testing8internal13GetTestTypeIdEv()
          to label %invoke.cont5 unwind label %lpad4

invoke.cont5:                                     ; preds = %invoke.cont3
  %call7 = invoke noundef ptr @_ZN7testing8internal16SuiteApiResolverINS_4TestEE19GetSetUpCaseOrSuiteEPKci(ptr noundef @.str.2, i32 noundef 626)
          to label %invoke.cont6 unwind label %lpad4

invoke.cont6:                                     ; preds = %invoke.cont5
  %call9 = invoke noundef ptr @_ZN7testing8internal16SuiteApiResolverINS_4TestEE22GetTearDownCaseOrSuiteEPKci(ptr noundef @.str.2, i32 noundef 626)
          to label %invoke.cont8 unwind label %lpad4

invoke.cont8:                                     ; preds = %invoke.cont6
  %call11 = invoke noalias noundef nonnull ptr @_Znwm(i64 noundef 8) #17
          to label %invoke.cont10 unwind label %lpad4

invoke.cont10:                                    ; preds = %invoke.cont8
  invoke void @_ZN7testing8internal15TestFactoryImplIN12_GLOBAL__N_128RandenTest_IsFastOrSlow_TestEEC2Ev(ptr noundef nonnull align 8 dereferenceable(8) %call11)
          to label %invoke.cont13 unwind label %lpad12

invoke.cont13:                                    ; preds = %invoke.cont10
  %call15 = invoke noundef ptr @_ZN7testing8internal23MakeAndRegisterTestInfoEPKcS2_S2_S2_NS0_12CodeLocationEPKvPFvvES7_PNS0_15TestFactoryBaseE(ptr noundef @.str.16, ptr noundef @.str.27, ptr noundef null, ptr noundef null, ptr noundef %agg.tmp, ptr noundef %call, ptr noundef %call7, ptr noundef %call9, ptr noundef %call11)
          to label %invoke.cont14 unwind label %lpad4

invoke.cont14:                                    ; preds = %invoke.cont13
  call void @_ZN7testing8internal12CodeLocationD2Ev(ptr noundef nonnull align 8 dereferenceable(36) %agg.tmp) #3
  call void @_ZNSt7__cxx1112basic_stringIcSt11char_traitsIcESaIcEED1Ev(ptr noundef nonnull align 8 dereferenceable(32) %ref.tmp) #3
  call void @_ZNSaIcED1Ev(ptr noundef nonnull align 1 dereferenceable(1) %ref.tmp1) #3
  store ptr %call15, ptr @_ZN12_GLOBAL__N_128RandenTest_IsFastOrSlow_Test10test_info_E, align 8
  ret void

lpad:                                             ; preds = %entry
  %0 = landingpad { ptr, i32 }
          cleanup
  %1 = extractvalue { ptr, i32 } %0, 0
  store ptr %1, ptr %exn.slot, align 8
  %2 = extractvalue { ptr, i32 } %0, 1
  store i32 %2, ptr %ehselector.slot, align 4
  br label %ehcleanup17

lpad2:                                            ; preds = %invoke.cont
  %3 = landingpad { ptr, i32 }
          cleanup
  %4 = extractvalue { ptr, i32 } %3, 0
  store ptr %4, ptr %exn.slot, align 8
  %5 = extractvalue { ptr, i32 } %3, 1
  store i32 %5, ptr %ehselector.slot, align 4
  br label %ehcleanup16

lpad4:                                            ; preds = %invoke.cont13, %invoke.cont8, %invoke.cont6, %invoke.cont5, %invoke.cont3
  %6 = landingpad { ptr, i32 }
          cleanup
  %7 = extractvalue { ptr, i32 } %6, 0
  store ptr %7, ptr %exn.slot, align 8
  %8 = extractvalue { ptr, i32 } %6, 1
  store i32 %8, ptr %ehselector.slot, align 4
  br label %ehcleanup

lpad12:                                           ; preds = %invoke.cont10
  %9 = landingpad { ptr, i32 }
          cleanup
  %10 = extractvalue { ptr, i32 } %9, 0
  store ptr %10, ptr %exn.slot, align 8
  %11 = extractvalue { ptr, i32 } %9, 1
  store i32 %11, ptr %ehselector.slot, align 4
  call void @_ZdlPv(ptr noundef %call11) #18
  br label %ehcleanup

ehcleanup:                                        ; preds = %lpad12, %lpad4
  call void @_ZN7testing8internal12CodeLocationD2Ev(ptr noundef nonnull align 8 dereferenceable(36) %agg.tmp) #3
  br label %ehcleanup16

ehcleanup16:                                      ; preds = %ehcleanup, %lpad2
  call void @_ZNSt7__cxx1112basic_stringIcSt11char_traitsIcESaIcEED1Ev(ptr noundef nonnull align 8 dereferenceable(32) %ref.tmp) #3
  br label %ehcleanup17

ehcleanup17:                                      ; preds = %ehcleanup16, %lpad
  call void @_ZNSaIcED1Ev(ptr noundef nonnull align 1 dereferenceable(1) %ref.tmp1) #3
  br label %eh.resume

eh.resume:                                        ; preds = %ehcleanup17
  %exn = load ptr, ptr %exn.slot, align 8
  %sel = load i32, ptr %ehselector.slot, align 4
  %lpad.val = insertvalue { ptr, i32 } poison, ptr %exn, 0
  %lpad.val18 = insertvalue { ptr, i32 } %lpad.val, i32 %sel, 1
  resume { ptr, i32 } %lpad.val18
}

; Function Attrs: mustprogress nounwind uwtable
define internal void @_ZN7testing8internal15TestFactoryImplIN12_GLOBAL__N_128RandenTest_IsFastOrSlow_TestEEC2Ev(ptr noundef nonnull align 8 dereferenceable(8) %this) unnamed_addr #5 align 2 {
entry:
  %this.addr = alloca ptr, align 8
  store ptr %this, ptr %this.addr, align 8
  %this1 = load ptr, ptr %this.addr, align 8
  call void @_ZN7testing8internal15TestFactoryBaseC2Ev(ptr noundef nonnull align 8 dereferenceable(8) %this1)
  store ptr getelementptr inbounds ({ [5 x ptr] }, ptr @_ZTVN7testing8internal15TestFactoryImplIN12_GLOBAL__N_128RandenTest_IsFastOrSlow_TestEEE, i32 0, inrange i32 0, i32 2), ptr %this1, align 8
  ret void
}

declare void @_ZNSt7__cxx1112basic_stringIcSt11char_traitsIcESaIcEEC1ERKS4_(ptr noundef nonnull align 8 dereferenceable(32), ptr noundef nonnull align 8 dereferenceable(32)) unnamed_addr #1

; Function Attrs: mustprogress nounwind uwtable
define linkonce_odr dso_local void @_ZN7testing8internal15TestFactoryBaseC2Ev(ptr noundef nonnull align 8 dereferenceable(8) %this) unnamed_addr #5 comdat align 2 {
entry:
  %this.addr = alloca ptr, align 8
  store ptr %this, ptr %this.addr, align 8
  %this1 = load ptr, ptr %this.addr, align 8
  store ptr getelementptr inbounds ({ [5 x ptr] }, ptr @_ZTVN7testing8internal15TestFactoryBaseE, i32 0, inrange i32 0, i32 2), ptr %this1, align 8
  ret void
}

; Function Attrs: mustprogress nounwind uwtable
define internal void @_ZN7testing8internal15TestFactoryImplIN12_GLOBAL__N_143RandenTest_VerifyGoldenRanden64Default_TestEED2Ev(ptr noundef nonnull align 8 dereferenceable(8) %this) unnamed_addr #5 align 2 {
entry:
  %this.addr = alloca ptr, align 8
  store ptr %this, ptr %this.addr, align 8
  %this1 = load ptr, ptr %this.addr, align 8
  call void @_ZN7testing8internal15TestFactoryBaseD2Ev(ptr noundef nonnull align 8 dereferenceable(8) %this1) #3
  ret void
}

; Function Attrs: mustprogress nounwind uwtable
define internal void @_ZN7testing8internal15TestFactoryImplIN12_GLOBAL__N_143RandenTest_VerifyGoldenRanden64Default_TestEED0Ev(ptr noundef nonnull align 8 dereferenceable(8) %this) unnamed_addr #5 align 2 {
entry:
  %this.addr = alloca ptr, align 8
  store ptr %this, ptr %this.addr, align 8
  %this1 = load ptr, ptr %this.addr, align 8
  call void @_ZN7testing8internal15TestFactoryImplIN12_GLOBAL__N_143RandenTest_VerifyGoldenRanden64Default_TestEED2Ev(ptr noundef nonnull align 8 dereferenceable(8) %this1) #3
  call void @_ZdlPv(ptr noundef %this1) #18
  ret void
}

; Function Attrs: mustprogress uwtable
define internal noundef ptr @_ZN7testing8internal15TestFactoryImplIN12_GLOBAL__N_143RandenTest_VerifyGoldenRanden64Default_TestEE10CreateTestEv(ptr noundef nonnull align 8 dereferenceable(8) %this) unnamed_addr #4 align 2 personality ptr @__gxx_personality_v0 {
entry:
  %this.addr = alloca ptr, align 8
  %exn.slot = alloca ptr, align 8
  %ehselector.slot = alloca i32, align 4
  store ptr %this, ptr %this.addr, align 8
  %call = call noalias noundef nonnull ptr @_Znwm(i64 noundef 16) #17
  invoke void @_ZN12_GLOBAL__N_143RandenTest_VerifyGoldenRanden64Default_TestC2Ev(ptr noundef nonnull align 8 dereferenceable(16) %call)
          to label %invoke.cont unwind label %lpad

invoke.cont:                                      ; preds = %entry
  ret ptr %call

lpad:                                             ; preds = %entry
  %0 = landingpad { ptr, i32 }
          cleanup
  %1 = extractvalue { ptr, i32 } %0, 0
  store ptr %1, ptr %exn.slot, align 8
  %2 = extractvalue { ptr, i32 } %0, 1
  store i32 %2, ptr %ehselector.slot, align 4
  call void @_ZdlPv(ptr noundef %call) #18
  br label %eh.resume

eh.resume:                                        ; preds = %lpad
  %exn = load ptr, ptr %exn.slot, align 8
  %sel = load i32, ptr %ehselector.slot, align 4
  %lpad.val = insertvalue { ptr, i32 } poison, ptr %exn, 0
  %lpad.val2 = insertvalue { ptr, i32 } %lpad.val, i32 %sel, 1
  resume { ptr, i32 } %lpad.val2
}

; Function Attrs: mustprogress nounwind uwtable
define linkonce_odr dso_local void @_ZN7testing8internal15TestFactoryBaseD2Ev(ptr noundef nonnull align 8 dereferenceable(8) %this) unnamed_addr #5 comdat align 2 {
entry:
  %this.addr = alloca ptr, align 8
  store ptr %this, ptr %this.addr, align 8
  ret void
}

; Function Attrs: mustprogress nounwind uwtable
define linkonce_odr dso_local void @_ZN7testing8internal15TestFactoryBaseD0Ev(ptr noundef nonnull align 8 dereferenceable(8) %this) unnamed_addr #5 comdat align 2 {
entry:
  %this.addr = alloca ptr, align 8
  store ptr %this, ptr %this.addr, align 8
  call void @llvm.trap() #20
  unreachable
}

declare void @__cxa_pure_virtual() unnamed_addr

; Function Attrs: cold noreturn nounwind memory(inaccessiblemem: write)
declare void @llvm.trap() #8

; Function Attrs: mustprogress uwtable
define internal void @_ZN12_GLOBAL__N_143RandenTest_VerifyGoldenRanden64Default_TestC2Ev(ptr noundef nonnull align 8 dereferenceable(16) %this) unnamed_addr #4 align 2 {
entry:
  %this.addr = alloca ptr, align 8
  store ptr %this, ptr %this.addr, align 8
  %this1 = load ptr, ptr %this.addr, align 8
  call void @_ZN7testing4TestC2Ev(ptr noundef nonnull align 8 dereferenceable(16) %this1)
  store ptr getelementptr inbounds ({ [8 x ptr] }, ptr @_ZTVN12_GLOBAL__N_143RandenTest_VerifyGoldenRanden64Default_TestE, i32 0, inrange i32 0, i32 2), ptr %this1, align 8
  ret void
}

declare void @_ZN7testing4TestC2Ev(ptr noundef nonnull align 8 dereferenceable(16)) unnamed_addr #1

; Function Attrs: mustprogress nounwind uwtable
define internal void @_ZN12_GLOBAL__N_143RandenTest_VerifyGoldenRanden64Default_TestD2Ev(ptr noundef nonnull align 8 dereferenceable(16) %this) unnamed_addr #5 align 2 {
entry:
  %this.addr = alloca ptr, align 8
  store ptr %this, ptr %this.addr, align 8
  %this1 = load ptr, ptr %this.addr, align 8
  call void @_ZN7testing4TestD2Ev(ptr noundef nonnull align 8 dereferenceable(16) %this1) #3
  ret void
}

; Function Attrs: mustprogress nounwind uwtable
define internal void @_ZN12_GLOBAL__N_143RandenTest_VerifyGoldenRanden64Default_TestD0Ev(ptr noundef nonnull align 8 dereferenceable(16) %this) unnamed_addr #5 align 2 {
entry:
  %this.addr = alloca ptr, align 8
  store ptr %this, ptr %this.addr, align 8
  %this1 = load ptr, ptr %this.addr, align 8
  call void @_ZN12_GLOBAL__N_143RandenTest_VerifyGoldenRanden64Default_TestD2Ev(ptr noundef nonnull align 8 dereferenceable(16) %this1) #3
  call void @_ZdlPv(ptr noundef %this1) #18
  ret void
}

declare void @_ZN7testing4Test5SetUpEv(ptr noundef nonnull align 8 dereferenceable(16)) unnamed_addr #1

declare void @_ZN7testing4Test8TearDownEv(ptr noundef nonnull align 8 dereferenceable(16)) unnamed_addr #1

; Function Attrs: mustprogress uwtable
define internal void @_ZN12_GLOBAL__N_143RandenTest_VerifyGoldenRanden64Default_Test8TestBodyEv(ptr noundef nonnull align 8 dereferenceable(16) %this) unnamed_addr #4 align 2 personality ptr @__gxx_personality_v0 {
entry:
  %this.addr = alloca ptr, align 8
  %kGolden = alloca [127 x i64], align 16
  %engine = alloca %"class.absl::random_internal::randen_engine", align 8
  %__range1 = alloca ptr, align 8
  %__begin1 = alloca ptr, align 8
  %__end1 = alloca ptr, align 8
  %elem = alloca ptr, align 8
  %gtest_ar = alloca %"class.testing::AssertionResult", align 8
  %ref.tmp = alloca i64, align 8
  %exn.slot = alloca ptr, align 8
  %ehselector.slot = alloca i32, align 4
  %ref.tmp4 = alloca %"class.testing::Message", align 8
  %ref.tmp6 = alloca %"class.testing::internal::AssertHelper", align 8
  %__range114 = alloca ptr, align 8
  %__begin115 = alloca ptr, align 8
  %__end117 = alloca ptr, align 8
  %elem23 = alloca ptr, align 8
  %gtest_ar24 = alloca %"class.testing::AssertionResult", align 8
  %ref.tmp25 = alloca i64, align 8
  %ref.tmp32 = alloca %"class.testing::Message", align 8
  %ref.tmp34 = alloca %"class.testing::internal::AssertHelper", align 8
  store ptr %this, ptr %this.addr, align 8
  call void @llvm.memcpy.p0.p0.i64(ptr align 16 %kGolden, ptr align 16 @__const._ZN12_GLOBAL__N_143RandenTest_VerifyGoldenRanden64Default_Test8TestBodyEv.kGolden, i64 1016, i1 false)
  call void @_ZN4absl15random_internal13randen_engineImEC2Ev(ptr noundef nonnull align 8 dereferenceable(288) %engine)
  store ptr %kGolden, ptr %__range1, align 8
  %0 = load ptr, ptr %__range1, align 8
  %arraydecay = getelementptr inbounds [127 x i64], ptr %0, i64 0, i64 0
  store ptr %arraydecay, ptr %__begin1, align 8
  %1 = load ptr, ptr %__range1, align 8
  %arraydecay2 = getelementptr inbounds [127 x i64], ptr %1, i64 0, i64 0
  %add.ptr = getelementptr inbounds i64, ptr %arraydecay2, i64 127
  store ptr %add.ptr, ptr %__end1, align 8
  br label %for.cond

for.cond:                                         ; preds = %for.inc, %entry
  %2 = load ptr, ptr %__begin1, align 8
  %3 = load ptr, ptr %__end1, align 8
  %cmp = icmp ne ptr %2, %3
  br i1 %cmp, label %for.body, label %for.end

for.body:                                         ; preds = %for.cond
  %4 = load ptr, ptr %__begin1, align 8
  store ptr %4, ptr %elem, align 8
  %5 = load ptr, ptr %elem, align 8
  %call = call noundef i64 @_ZN4absl15random_internal13randen_engineImEclEv(ptr noundef nonnull align 8 dereferenceable(288) %engine)
  store i64 %call, ptr %ref.tmp, align 8
  call void @_ZN7testing8internal8EqHelper7CompareImmTnPNSt9enable_ifIXoontsr3std11is_integralIT_EE5valuentsr3std10is_pointerIT0_EE5valueEvE4typeELPv0EEENS_15AssertionResultEPKcSC_RKS4_RKS5_(ptr sret(%"class.testing::AssertionResult") align 8 %gtest_ar, ptr noundef @.str.28, ptr noundef @.str.29, ptr noundef nonnull align 8 dereferenceable(8) %5, ptr noundef nonnull align 8 dereferenceable(8) %ref.tmp)
  %call3 = invoke noundef zeroext i1 @_ZNK7testing15AssertionResultcvbEv(ptr noundef nonnull align 8 dereferenceable(16) %gtest_ar)
          to label %invoke.cont unwind label %lpad

invoke.cont:                                      ; preds = %for.body
  br i1 %call3, label %if.then, label %if.else

if.then:                                          ; preds = %invoke.cont
  br label %if.end

lpad:                                             ; preds = %if.else, %for.body
  %6 = landingpad { ptr, i32 }
          cleanup
  %7 = extractvalue { ptr, i32 } %6, 0
  store ptr %7, ptr %exn.slot, align 8
  %8 = extractvalue { ptr, i32 } %6, 1
  store i32 %8, ptr %ehselector.slot, align 4
  br label %ehcleanup13

if.else:                                          ; preds = %invoke.cont
  invoke void @_ZN7testing7MessageC1Ev(ptr noundef nonnull align 8 dereferenceable(8) %ref.tmp4)
          to label %invoke.cont5 unwind label %lpad

invoke.cont5:                                     ; preds = %if.else
  %call9 = invoke noundef ptr @_ZNK7testing15AssertionResult15failure_messageEv(ptr noundef nonnull align 8 dereferenceable(16) %gtest_ar)
          to label %invoke.cont8 unwind label %lpad7

invoke.cont8:                                     ; preds = %invoke.cont5
  invoke void @_ZN7testing8internal12AssertHelperC1ENS_14TestPartResult4TypeEPKciS5_(ptr noundef nonnull align 8 dereferenceable(8) %ref.tmp6, i32 noundef 1, ptr noundef @.str.2, i32 noundef 331, ptr noundef %call9)
          to label %invoke.cont10 unwind label %lpad7

invoke.cont10:                                    ; preds = %invoke.cont8
  invoke void @_ZNK7testing8internal12AssertHelperaSERKNS_7MessageE(ptr noundef nonnull align 8 dereferenceable(8) %ref.tmp6, ptr noundef nonnull align 8 dereferenceable(8) %ref.tmp4)
          to label %invoke.cont12 unwind label %lpad11

invoke.cont12:                                    ; preds = %invoke.cont10
  call void @_ZN7testing8internal12AssertHelperD1Ev(ptr noundef nonnull align 8 dereferenceable(8) %ref.tmp6) #3
  call void @_ZN7testing7MessageD2Ev(ptr noundef nonnull align 8 dereferenceable(8) %ref.tmp4) #3
  br label %if.end

lpad7:                                            ; preds = %invoke.cont8, %invoke.cont5
  %9 = landingpad { ptr, i32 }
          cleanup
  %10 = extractvalue { ptr, i32 } %9, 0
  store ptr %10, ptr %exn.slot, align 8
  %11 = extractvalue { ptr, i32 } %9, 1
  store i32 %11, ptr %ehselector.slot, align 4
  br label %ehcleanup

lpad11:                                           ; preds = %invoke.cont10
  %12 = landingpad { ptr, i32 }
          cleanup
  %13 = extractvalue { ptr, i32 } %12, 0
  store ptr %13, ptr %exn.slot, align 8
  %14 = extractvalue { ptr, i32 } %12, 1
  store i32 %14, ptr %ehselector.slot, align 4
  call void @_ZN7testing8internal12AssertHelperD1Ev(ptr noundef nonnull align 8 dereferenceable(8) %ref.tmp6) #3
  br label %ehcleanup

ehcleanup:                                        ; preds = %lpad11, %lpad7
  call void @_ZN7testing7MessageD2Ev(ptr noundef nonnull align 8 dereferenceable(8) %ref.tmp4) #3
  br label %ehcleanup13

if.end:                                           ; preds = %invoke.cont12, %if.then
  call void @_ZN7testing15AssertionResultD2Ev(ptr noundef nonnull align 8 dereferenceable(16) %gtest_ar) #3
  br label %for.inc

for.inc:                                          ; preds = %if.end
  %15 = load ptr, ptr %__begin1, align 8
  %incdec.ptr = getelementptr inbounds i64, ptr %15, i32 1
  store ptr %incdec.ptr, ptr %__begin1, align 8
  br label %for.cond

ehcleanup13:                                      ; preds = %ehcleanup, %lpad
  call void @_ZN7testing15AssertionResultD2Ev(ptr noundef nonnull align 8 dereferenceable(16) %gtest_ar) #3
  br label %eh.resume

for.end:                                          ; preds = %for.cond
  call void @_ZN4absl15random_internal13randen_engineImE4seedEm(ptr noundef nonnull align 8 dereferenceable(288) %engine, i64 noundef 0)
  store ptr %kGolden, ptr %__range114, align 8
  %16 = load ptr, ptr %__range114, align 8
  %arraydecay16 = getelementptr inbounds [127 x i64], ptr %16, i64 0, i64 0
  store ptr %arraydecay16, ptr %__begin115, align 8
  %17 = load ptr, ptr %__range114, align 8
  %arraydecay18 = getelementptr inbounds [127 x i64], ptr %17, i64 0, i64 0
  %add.ptr19 = getelementptr inbounds i64, ptr %arraydecay18, i64 127
  store ptr %add.ptr19, ptr %__end117, align 8
  br label %for.cond20

for.cond20:                                       ; preds = %for.inc45, %for.end
  %18 = load ptr, ptr %__begin115, align 8
  %19 = load ptr, ptr %__end117, align 8
  %cmp21 = icmp ne ptr %18, %19
  br i1 %cmp21, label %for.body22, label %for.end47

for.body22:                                       ; preds = %for.cond20
  %20 = load ptr, ptr %__begin115, align 8
  store ptr %20, ptr %elem23, align 8
  %21 = load ptr, ptr %elem23, align 8
  %call26 = call noundef i64 @_ZN4absl15random_internal13randen_engineImEclEv(ptr noundef nonnull align 8 dereferenceable(288) %engine)
  store i64 %call26, ptr %ref.tmp25, align 8
  call void @_ZN7testing8internal8EqHelper7CompareImmTnPNSt9enable_ifIXoontsr3std11is_integralIT_EE5valuentsr3std10is_pointerIT0_EE5valueEvE4typeELPv0EEENS_15AssertionResultEPKcSC_RKS4_RKS5_(ptr sret(%"class.testing::AssertionResult") align 8 %gtest_ar24, ptr noundef @.str.28, ptr noundef @.str.29, ptr noundef nonnull align 8 dereferenceable(8) %21, ptr noundef nonnull align 8 dereferenceable(8) %ref.tmp25)
  %call29 = invoke noundef zeroext i1 @_ZNK7testing15AssertionResultcvbEv(ptr noundef nonnull align 8 dereferenceable(16) %gtest_ar24)
          to label %invoke.cont28 unwind label %lpad27

invoke.cont28:                                    ; preds = %for.body22
  br i1 %call29, label %if.then30, label %if.else31

if.then30:                                        ; preds = %invoke.cont28
  br label %if.end43

lpad27:                                           ; preds = %if.else31, %for.body22
  %22 = landingpad { ptr, i32 }
          cleanup
  %23 = extractvalue { ptr, i32 } %22, 0
  store ptr %23, ptr %exn.slot, align 8
  %24 = extractvalue { ptr, i32 } %22, 1
  store i32 %24, ptr %ehselector.slot, align 4
  br label %ehcleanup44

if.else31:                                        ; preds = %invoke.cont28
  invoke void @_ZN7testing7MessageC1Ev(ptr noundef nonnull align 8 dereferenceable(8) %ref.tmp32)
          to label %invoke.cont33 unwind label %lpad27

invoke.cont33:                                    ; preds = %if.else31
  %call37 = invoke noundef ptr @_ZNK7testing15AssertionResult15failure_messageEv(ptr noundef nonnull align 8 dereferenceable(16) %gtest_ar24)
          to label %invoke.cont36 unwind label %lpad35

invoke.cont36:                                    ; preds = %invoke.cont33
  invoke void @_ZN7testing8internal12AssertHelperC1ENS_14TestPartResult4TypeEPKciS5_(ptr noundef nonnull align 8 dereferenceable(8) %ref.tmp34, i32 noundef 1, ptr noundef @.str.2, i32 noundef 335, ptr noundef %call37)
          to label %invoke.cont38 unwind label %lpad35

invoke.cont38:                                    ; preds = %invoke.cont36
  invoke void @_ZNK7testing8internal12AssertHelperaSERKNS_7MessageE(ptr noundef nonnull align 8 dereferenceable(8) %ref.tmp34, ptr noundef nonnull align 8 dereferenceable(8) %ref.tmp32)
          to label %invoke.cont40 unwind label %lpad39

invoke.cont40:                                    ; preds = %invoke.cont38
  call void @_ZN7testing8internal12AssertHelperD1Ev(ptr noundef nonnull align 8 dereferenceable(8) %ref.tmp34) #3
  call void @_ZN7testing7MessageD2Ev(ptr noundef nonnull align 8 dereferenceable(8) %ref.tmp32) #3
  br label %if.end43

lpad35:                                           ; preds = %invoke.cont36, %invoke.cont33
  %25 = landingpad { ptr, i32 }
          cleanup
  %26 = extractvalue { ptr, i32 } %25, 0
  store ptr %26, ptr %exn.slot, align 8
  %27 = extractvalue { ptr, i32 } %25, 1
  store i32 %27, ptr %ehselector.slot, align 4
  br label %ehcleanup42

lpad39:                                           ; preds = %invoke.cont38
  %28 = landingpad { ptr, i32 }
          cleanup
  %29 = extractvalue { ptr, i32 } %28, 0
  store ptr %29, ptr %exn.slot, align 8
  %30 = extractvalue { ptr, i32 } %28, 1
  store i32 %30, ptr %ehselector.slot, align 4
  call void @_ZN7testing8internal12AssertHelperD1Ev(ptr noundef nonnull align 8 dereferenceable(8) %ref.tmp34) #3
  br label %ehcleanup42

ehcleanup42:                                      ; preds = %lpad39, %lpad35
  call void @_ZN7testing7MessageD2Ev(ptr noundef nonnull align 8 dereferenceable(8) %ref.tmp32) #3
  br label %ehcleanup44

if.end43:                                         ; preds = %invoke.cont40, %if.then30
  call void @_ZN7testing15AssertionResultD2Ev(ptr noundef nonnull align 8 dereferenceable(16) %gtest_ar24) #3
  br label %for.inc45

for.inc45:                                        ; preds = %if.end43
  %31 = load ptr, ptr %__begin115, align 8
  %incdec.ptr46 = getelementptr inbounds i64, ptr %31, i32 1
  store ptr %incdec.ptr46, ptr %__begin115, align 8
  br label %for.cond20

ehcleanup44:                                      ; preds = %ehcleanup42, %lpad27
  call void @_ZN7testing15AssertionResultD2Ev(ptr noundef nonnull align 8 dereferenceable(16) %gtest_ar24) #3
  br label %eh.resume

for.end47:                                        ; preds = %for.cond20
  ret void

eh.resume:                                        ; preds = %ehcleanup44, %ehcleanup13
  %exn = load ptr, ptr %exn.slot, align 8
  %sel = load i32, ptr %ehselector.slot, align 4
  %lpad.val = insertvalue { ptr, i32 } poison, ptr %exn, 0
  %lpad.val48 = insertvalue { ptr, i32 } %lpad.val, i32 %sel, 1
  resume { ptr, i32 } %lpad.val48
}

; Function Attrs: mustprogress nounwind uwtable
define linkonce_odr dso_local noundef ptr @_ZN7testing4Test5SetupEv(ptr noundef nonnull align 8 dereferenceable(16) %this) unnamed_addr #5 comdat align 2 {
entry:
  %this.addr = alloca ptr, align 8
  store ptr %this, ptr %this.addr, align 8
  ret ptr null
}

; Function Attrs: nounwind
declare void @_ZN7testing4TestD2Ev(ptr noundef nonnull align 8 dereferenceable(16)) unnamed_addr #2

; Function Attrs: nocallback nofree nounwind willreturn memory(argmem: readwrite)
declare void @llvm.memcpy.p0.p0.i64(ptr noalias nocapture writeonly, ptr noalias nocapture readonly, i64, i1 immarg) #9

; Function Attrs: mustprogress uwtable
define linkonce_odr dso_local void @_ZN4absl15random_internal13randen_engineImEC2Ev(ptr noundef nonnull align 8 dereferenceable(288) %this) unnamed_addr #4 comdat align 2 {
entry:
  %this.addr = alloca ptr, align 8
  %ref.tmp = alloca i32, align 4
  store ptr %this, ptr %this.addr, align 8
  %this1 = load ptr, ptr %this.addr, align 8
  store i32 0, ptr %ref.tmp, align 4
  call void @_ZN4absl15random_internal13randen_engineImEC2IivEEOT_(ptr noundef nonnull align 8 dereferenceable(288) %this1, ptr noundef nonnull align 4 dereferenceable(4) %ref.tmp)
  ret void
}

; Function Attrs: mustprogress uwtable
define linkonce_odr dso_local void @_ZN7testing8internal8EqHelper7CompareImmTnPNSt9enable_ifIXoontsr3std11is_integralIT_EE5valuentsr3std10is_pointerIT0_EE5valueEvE4typeELPv0EEENS_15AssertionResultEPKcSC_RKS4_RKS5_(ptr noalias sret(%"class.testing::AssertionResult") align 8 %agg.result, ptr noundef %lhs_expression, ptr noundef %rhs_expression, ptr noundef nonnull align 8 dereferenceable(8) %lhs, ptr noundef nonnull align 8 dereferenceable(8) %rhs) #4 comdat align 2 {
entry:
  %result.ptr = alloca ptr, align 8
  %lhs_expression.addr = alloca ptr, align 8
  %rhs_expression.addr = alloca ptr, align 8
  %lhs.addr = alloca ptr, align 8
  %rhs.addr = alloca ptr, align 8
  store ptr %agg.result, ptr %result.ptr, align 8
  store ptr %lhs_expression, ptr %lhs_expression.addr, align 8
  store ptr %rhs_expression, ptr %rhs_expression.addr, align 8
  store ptr %lhs, ptr %lhs.addr, align 8
  store ptr %rhs, ptr %rhs.addr, align 8
  %0 = load ptr, ptr %lhs_expression.addr, align 8
  %1 = load ptr, ptr %rhs_expression.addr, align 8
  %2 = load ptr, ptr %lhs.addr, align 8
  %3 = load ptr, ptr %rhs.addr, align 8
  call void @_ZN7testing8internal11CmpHelperEQImmEENS_15AssertionResultEPKcS4_RKT_RKT0_(ptr sret(%"class.testing::AssertionResult") align 8 %agg.result, ptr noundef %0, ptr noundef %1, ptr noundef nonnull align 8 dereferenceable(8) %2, ptr noundef nonnull align 8 dereferenceable(8) %3)
  ret void
}

; Function Attrs: mustprogress uwtable
define linkonce_odr dso_local noundef i64 @_ZN4absl15random_internal13randen_engineImEclEv(ptr noundef nonnull align 8 dereferenceable(288) %this) #4 comdat align 2 {
entry:
  %this.addr = alloca ptr, align 8
  %begin = alloca ptr, align 8
  store ptr %this, ptr %this.addr, align 8
  %this1 = load ptr, ptr %this.addr, align 8
  %call = call noundef ptr @_ZN4absl15random_internal13randen_engineImE5stateEv(ptr noundef nonnull align 8 dereferenceable(288) %this1)
  store ptr %call, ptr %begin, align 8
  %next_ = getelementptr inbounds %"class.absl::random_internal::randen_engine", ptr %this1, i32 0, i32 1
  %0 = load i64, ptr %next_, align 8
  %cmp = icmp uge i64 %0, 32
  br i1 %cmp, label %if.then, label %if.end

if.then:                                          ; preds = %entry
  %next_2 = getelementptr inbounds %"class.absl::random_internal::randen_engine", ptr %this1, i32 0, i32 1
  store i64 2, ptr %next_2, align 8
  %impl_ = getelementptr inbounds %"class.absl::random_internal::randen_engine", ptr %this1, i32 0, i32 2
  %1 = load ptr, ptr %begin, align 8
  call void @_ZNK4absl15random_internal6Randen8GenerateEPv(ptr noundef nonnull align 8 dereferenceable(9) %impl_, ptr noundef %1)
  br label %if.end

if.end:                                           ; preds = %if.then, %entry
  %2 = load ptr, ptr %begin, align 8
  %next_3 = getelementptr inbounds %"class.absl::random_internal::randen_engine", ptr %this1, i32 0, i32 1
  %3 = load i64, ptr %next_3, align 8
  %inc = add i64 %3, 1
  store i64 %inc, ptr %next_3, align 8
  %arrayidx = getelementptr inbounds i64, ptr %2, i64 %3
  %4 = load i64, ptr %arrayidx, align 8
  %call4 = call noundef i64 @_ZN4absl13little_endian6ToHostEm(i64 noundef %4)
  ret i64 %call4
}

; Function Attrs: mustprogress nounwind uwtable
define linkonce_odr dso_local noundef zeroext i1 @_ZNK7testing15AssertionResultcvbEv(ptr noundef nonnull align 8 dereferenceable(16) %this) #5 comdat align 2 {
entry:
  %this.addr = alloca ptr, align 8
  store ptr %this, ptr %this.addr, align 8
  %this1 = load ptr, ptr %this.addr, align 8
  %success_ = getelementptr inbounds %"class.testing::AssertionResult", ptr %this1, i32 0, i32 0
  %0 = load i8, ptr %success_, align 8
  %tobool = trunc i8 %0 to i1
  ret i1 %tobool
}

declare void @_ZN7testing7MessageC1Ev(ptr noundef nonnull align 8 dereferenceable(8)) unnamed_addr #1

; Function Attrs: mustprogress uwtable
define linkonce_odr dso_local noundef ptr @_ZNK7testing15AssertionResult15failure_messageEv(ptr noundef nonnull align 8 dereferenceable(16) %this) #4 comdat align 2 {
entry:
  %this.addr = alloca ptr, align 8
  store ptr %this, ptr %this.addr, align 8
  %this1 = load ptr, ptr %this.addr, align 8
  %call = call noundef ptr @_ZNK7testing15AssertionResult7messageEv(ptr noundef nonnull align 8 dereferenceable(16) %this1)
  ret ptr %call
}

declare void @_ZN7testing8internal12AssertHelperC1ENS_14TestPartResult4TypeEPKciS5_(ptr noundef nonnull align 8 dereferenceable(8), i32 noundef, ptr noundef, i32 noundef, ptr noundef) unnamed_addr #1

declare void @_ZNK7testing8internal12AssertHelperaSERKNS_7MessageE(ptr noundef nonnull align 8 dereferenceable(8), ptr noundef nonnull align 8 dereferenceable(8)) #1

; Function Attrs: nounwind
declare void @_ZN7testing8internal12AssertHelperD1Ev(ptr noundef nonnull align 8 dereferenceable(8)) unnamed_addr #2

; Function Attrs: mustprogress nounwind uwtable
define linkonce_odr dso_local void @_ZN7testing7MessageD2Ev(ptr noundef nonnull align 8 dereferenceable(8) %this) unnamed_addr #5 comdat align 2 {
entry:
  %this.addr = alloca ptr, align 8
  store ptr %this, ptr %this.addr, align 8
  %this1 = load ptr, ptr %this.addr, align 8
  %ss_ = getelementptr inbounds %"class.testing::Message", ptr %this1, i32 0, i32 0
  call void @_ZNSt10unique_ptrINSt7__cxx1118basic_stringstreamIcSt11char_traitsIcESaIcEEESt14default_deleteIS5_EED2Ev(ptr noundef nonnull align 8 dereferenceable(8) %ss_) #3
  ret void
}

; Function Attrs: mustprogress nounwind uwtable
define linkonce_odr dso_local void @_ZN7testing15AssertionResultD2Ev(ptr noundef nonnull align 8 dereferenceable(16) %this) unnamed_addr #5 comdat align 2 {
entry:
  %this.addr = alloca ptr, align 8
  store ptr %this, ptr %this.addr, align 8
  %this1 = load ptr, ptr %this.addr, align 8
  %message_ = getelementptr inbounds %"class.testing::AssertionResult", ptr %this1, i32 0, i32 1
  call void @_ZNSt10unique_ptrINSt7__cxx1112basic_stringIcSt11char_traitsIcESaIcEEESt14default_deleteIS5_EED2Ev(ptr noundef nonnull align 8 dereferenceable(8) %message_) #3
  ret void
}

; Function Attrs: mustprogress uwtable
define linkonce_odr dso_local void @_ZN4absl15random_internal13randen_engineImE4seedEm(ptr noundef nonnull align 8 dereferenceable(288) %this, i64 noundef %seed_value) #4 comdat align 2 {
entry:
  %this.addr = alloca ptr, align 8
  %seed_value.addr = alloca i64, align 8
  %begin = alloca ptr, align 8
  %ref.tmp = alloca i32, align 4
  store ptr %this, ptr %this.addr, align 8
  store i64 %seed_value, ptr %seed_value.addr, align 8
  %this1 = load ptr, ptr %this.addr, align 8
  %next_ = getelementptr inbounds %"class.absl::random_internal::randen_engine", ptr %this1, i32 0, i32 1
  store i64 32, ptr %next_, align 8
  %call = call noundef ptr @_ZN4absl15random_internal13randen_engineImE5stateEv(ptr noundef nonnull align 8 dereferenceable(288) %this1)
  store ptr %call, ptr %begin, align 8
  %0 = load ptr, ptr %begin, align 8
  %1 = load ptr, ptr %begin, align 8
  %add.ptr = getelementptr inbounds i64, ptr %1, i64 2
  store i32 0, ptr %ref.tmp, align 4
  call void @_ZSt4fillIPmiEvT_S1_RKT0_(ptr noundef %0, ptr noundef %add.ptr, ptr noundef nonnull align 4 dereferenceable(4) %ref.tmp)
  %2 = load ptr, ptr %begin, align 8
  %add.ptr2 = getelementptr inbounds i64, ptr %2, i64 2
  %3 = load ptr, ptr %begin, align 8
  %add.ptr3 = getelementptr inbounds i64, ptr %3, i64 32
  call void @_ZSt4fillIPmmEvT_S1_RKT0_(ptr noundef %add.ptr2, ptr noundef %add.ptr3, ptr noundef nonnull align 8 dereferenceable(8) %seed_value.addr)
  ret void
}

declare void @_ZN4absl15random_internal6RandenC1Ev(ptr noundef nonnull align 8 dereferenceable(9)) unnamed_addr #1

; Function Attrs: mustprogress uwtable
define linkonce_odr dso_local void @_ZN7testing8internal11CmpHelperEQImmEENS_15AssertionResultEPKcS4_RKT_RKT0_(ptr noalias sret(%"class.testing::AssertionResult") align 8 %agg.result, ptr noundef %lhs_expression, ptr noundef %rhs_expression, ptr noundef nonnull align 8 dereferenceable(8) %lhs, ptr noundef nonnull align 8 dereferenceable(8) %rhs) #4 comdat {
entry:
  %result.ptr = alloca ptr, align 8
  %lhs_expression.addr = alloca ptr, align 8
  %rhs_expression.addr = alloca ptr, align 8
  %lhs.addr = alloca ptr, align 8
  %rhs.addr = alloca ptr, align 8
  store ptr %agg.result, ptr %result.ptr, align 8
  store ptr %lhs_expression, ptr %lhs_expression.addr, align 8
  store ptr %rhs_expression, ptr %rhs_expression.addr, align 8
  store ptr %lhs, ptr %lhs.addr, align 8
  store ptr %rhs, ptr %rhs.addr, align 8
  %0 = load ptr, ptr %lhs.addr, align 8
  %1 = load i64, ptr %0, align 8
  %2 = load ptr, ptr %rhs.addr, align 8
  %3 = load i64, ptr %2, align 8
  %cmp = icmp eq i64 %1, %3
  br i1 %cmp, label %if.then, label %if.end

if.then:                                          ; preds = %entry
  call void @_ZN7testing16AssertionSuccessEv(ptr sret(%"class.testing::AssertionResult") align 8 %agg.result)
  br label %return

if.end:                                           ; preds = %entry
  %4 = load ptr, ptr %lhs_expression.addr, align 8
  %5 = load ptr, ptr %rhs_expression.addr, align 8
  %6 = load ptr, ptr %lhs.addr, align 8
  %7 = load ptr, ptr %rhs.addr, align 8
  call void @_ZN7testing8internal18CmpHelperEQFailureImmEENS_15AssertionResultEPKcS4_RKT_RKT0_(ptr sret(%"class.testing::AssertionResult") align 8 %agg.result, ptr noundef %4, ptr noundef %5, ptr noundef nonnull align 8 dereferenceable(8) %6, ptr noundef nonnull align 8 dereferenceable(8) %7)
  br label %return

return:                                           ; preds = %if.end, %if.then
  ret void
}

declare void @_ZN7testing16AssertionSuccessEv(ptr sret(%"class.testing::AssertionResult") align 8) #1

; Function Attrs: mustprogress uwtable
define linkonce_odr dso_local void @_ZN7testing8internal18CmpHelperEQFailureImmEENS_15AssertionResultEPKcS4_RKT_RKT0_(ptr noalias sret(%"class.testing::AssertionResult") align 8 %agg.result, ptr noundef %lhs_expression, ptr noundef %rhs_expression, ptr noundef nonnull align 8 dereferenceable(8) %lhs, ptr noundef nonnull align 8 dereferenceable(8) %rhs) #4 comdat personality ptr @__gxx_personality_v0 {
entry:
  %result.ptr = alloca ptr, align 8
  %lhs_expression.addr = alloca ptr, align 8
  %rhs_expression.addr = alloca ptr, align 8
  %lhs.addr = alloca ptr, align 8
  %rhs.addr = alloca ptr, align 8
  %ref.tmp = alloca %"class.std::__cxx11::basic_string", align 8
  %ref.tmp1 = alloca %"class.std::__cxx11::basic_string", align 8
  %exn.slot = alloca ptr, align 8
  %ehselector.slot = alloca i32, align 4
  store ptr %agg.result, ptr %result.ptr, align 8
  store ptr %lhs_expression, ptr %lhs_expression.addr, align 8
  store ptr %rhs_expression, ptr %rhs_expression.addr, align 8
  store ptr %lhs, ptr %lhs.addr, align 8
  store ptr %rhs, ptr %rhs.addr, align 8
  %0 = load ptr, ptr %lhs_expression.addr, align 8
  %1 = load ptr, ptr %rhs_expression.addr, align 8
  %2 = load ptr, ptr %lhs.addr, align 8
  %3 = load ptr, ptr %rhs.addr, align 8
  call void @_ZN7testing8internal33FormatForComparisonFailureMessageImmEENSt7__cxx1112basic_stringIcSt11char_traitsIcESaIcEEERKT_RKT0_(ptr sret(%"class.std::__cxx11::basic_string") align 8 %ref.tmp, ptr noundef nonnull align 8 dereferenceable(8) %2, ptr noundef nonnull align 8 dereferenceable(8) %3)
  %4 = load ptr, ptr %rhs.addr, align 8
  %5 = load ptr, ptr %lhs.addr, align 8
  invoke void @_ZN7testing8internal33FormatForComparisonFailureMessageImmEENSt7__cxx1112basic_stringIcSt11char_traitsIcESaIcEEERKT_RKT0_(ptr sret(%"class.std::__cxx11::basic_string") align 8 %ref.tmp1, ptr noundef nonnull align 8 dereferenceable(8) %4, ptr noundef nonnull align 8 dereferenceable(8) %5)
          to label %invoke.cont unwind label %lpad

invoke.cont:                                      ; preds = %entry
  invoke void @_ZN7testing8internal9EqFailureEPKcS2_RKNSt7__cxx1112basic_stringIcSt11char_traitsIcESaIcEEESA_b(ptr sret(%"class.testing::AssertionResult") align 8 %agg.result, ptr noundef %0, ptr noundef %1, ptr noundef nonnull align 8 dereferenceable(32) %ref.tmp, ptr noundef nonnull align 8 dereferenceable(32) %ref.tmp1, i1 noundef zeroext false)
          to label %invoke.cont3 unwind label %lpad2

invoke.cont3:                                     ; preds = %invoke.cont
  call void @_ZNSt7__cxx1112basic_stringIcSt11char_traitsIcESaIcEED1Ev(ptr noundef nonnull align 8 dereferenceable(32) %ref.tmp1) #3
  call void @_ZNSt7__cxx1112basic_stringIcSt11char_traitsIcESaIcEED1Ev(ptr noundef nonnull align 8 dereferenceable(32) %ref.tmp) #3
  ret void

lpad:                                             ; preds = %entry
  %6 = landingpad { ptr, i32 }
          cleanup
  %7 = extractvalue { ptr, i32 } %6, 0
  store ptr %7, ptr %exn.slot, align 8
  %8 = extractvalue { ptr, i32 } %6, 1
  store i32 %8, ptr %ehselector.slot, align 4
  br label %ehcleanup

lpad2:                                            ; preds = %invoke.cont
  %9 = landingpad { ptr, i32 }
          cleanup
  %10 = extractvalue { ptr, i32 } %9, 0
  store ptr %10, ptr %exn.slot, align 8
  %11 = extractvalue { ptr, i32 } %9, 1
  store i32 %11, ptr %ehselector.slot, align 4
  call void @_ZNSt7__cxx1112basic_stringIcSt11char_traitsIcESaIcEED1Ev(ptr noundef nonnull align 8 dereferenceable(32) %ref.tmp1) #3
  br label %ehcleanup

ehcleanup:                                        ; preds = %lpad2, %lpad
  call void @_ZNSt7__cxx1112basic_stringIcSt11char_traitsIcESaIcEED1Ev(ptr noundef nonnull align 8 dereferenceable(32) %ref.tmp) #3
  br label %eh.resume

eh.resume:                                        ; preds = %ehcleanup
  %exn = load ptr, ptr %exn.slot, align 8
  %sel = load i32, ptr %ehselector.slot, align 4
  %lpad.val = insertvalue { ptr, i32 } poison, ptr %exn, 0
  %lpad.val4 = insertvalue { ptr, i32 } %lpad.val, i32 %sel, 1
  resume { ptr, i32 } %lpad.val4
}

declare void @_ZN7testing8internal9EqFailureEPKcS2_RKNSt7__cxx1112basic_stringIcSt11char_traitsIcESaIcEEESA_b(ptr sret(%"class.testing::AssertionResult") align 8, ptr noundef, ptr noundef, ptr noundef nonnull align 8 dereferenceable(32), ptr noundef nonnull align 8 dereferenceable(32), i1 noundef zeroext) #1

; Function Attrs: mustprogress uwtable
define linkonce_odr dso_local void @_ZN7testing8internal33FormatForComparisonFailureMessageImmEENSt7__cxx1112basic_stringIcSt11char_traitsIcESaIcEEERKT_RKT0_(ptr noalias sret(%"class.std::__cxx11::basic_string") align 8 %agg.result, ptr noundef nonnull align 8 dereferenceable(8) %value, ptr noundef nonnull align 8 dereferenceable(8) %0) #4 comdat {
entry:
  %result.ptr = alloca ptr, align 8
  %value.addr = alloca ptr, align 8
  %.addr = alloca ptr, align 8
  store ptr %agg.result, ptr %result.ptr, align 8
  store ptr %value, ptr %value.addr, align 8
  store ptr %0, ptr %.addr, align 8
  %1 = load ptr, ptr %value.addr, align 8
  call void @_ZN7testing8internal19FormatForComparisonImmE6FormatB5cxx11ERKm(ptr sret(%"class.std::__cxx11::basic_string") align 8 %agg.result, ptr noundef nonnull align 8 dereferenceable(8) %1)
  ret void
}

; Function Attrs: mustprogress uwtable
define linkonce_odr dso_local void @_ZN7testing8internal19FormatForComparisonImmE6FormatB5cxx11ERKm(ptr noalias sret(%"class.std::__cxx11::basic_string") align 8 %agg.result, ptr noundef nonnull align 8 dereferenceable(8) %value) #4 comdat align 2 {
entry:
  %result.ptr = alloca ptr, align 8
  %value.addr = alloca ptr, align 8
  store ptr %agg.result, ptr %result.ptr, align 8
  store ptr %value, ptr %value.addr, align 8
  %0 = load ptr, ptr %value.addr, align 8
  call void @_ZN7testing13PrintToStringImEENSt7__cxx1112basic_stringIcSt11char_traitsIcESaIcEEERKT_(ptr sret(%"class.std::__cxx11::basic_string") align 8 %agg.result, ptr noundef nonnull align 8 dereferenceable(8) %0)
  ret void
}

; Function Attrs: mustprogress uwtable
define linkonce_odr dso_local void @_ZN7testing13PrintToStringImEENSt7__cxx1112basic_stringIcSt11char_traitsIcESaIcEEERKT_(ptr noalias sret(%"class.std::__cxx11::basic_string") align 8 %agg.result, ptr noundef nonnull align 8 dereferenceable(8) %value) #4 comdat personality ptr @__gxx_personality_v0 {
entry:
  %result.ptr = alloca ptr, align 8
  %value.addr = alloca ptr, align 8
  %ss = alloca %"class.std::__cxx11::basic_stringstream", align 8
  %exn.slot = alloca ptr, align 8
  %ehselector.slot = alloca i32, align 4
  store ptr %agg.result, ptr %result.ptr, align 8
  store ptr %value, ptr %value.addr, align 8
  call void @_ZNSt7__cxx1118basic_stringstreamIcSt11char_traitsIcESaIcEEC1Ev(ptr noundef nonnull align 8 dereferenceable(128) %ss)
  %0 = load ptr, ptr %value.addr, align 8
  %1 = icmp eq ptr %ss, null
  br i1 %1, label %cast.end, label %cast.notnull

cast.notnull:                                     ; preds = %entry
  %add.ptr = getelementptr inbounds i8, ptr %ss, i64 16
  br label %cast.end

cast.end:                                         ; preds = %cast.notnull, %entry
  %cast.result = phi ptr [ %add.ptr, %cast.notnull ], [ null, %entry ]
  invoke void @_ZN7testing8internal21UniversalTersePrinterImE5PrintERKmPSo(ptr noundef nonnull align 8 dereferenceable(8) %0, ptr noundef %cast.result)
          to label %invoke.cont unwind label %lpad

invoke.cont:                                      ; preds = %cast.end
  invoke void @_ZNKSt7__cxx1118basic_stringstreamIcSt11char_traitsIcESaIcEE3strEv(ptr sret(%"class.std::__cxx11::basic_string") align 8 %agg.result, ptr noundef nonnull align 8 dereferenceable(128) %ss)
          to label %invoke.cont1 unwind label %lpad

invoke.cont1:                                     ; preds = %invoke.cont
  call void @_ZNSt7__cxx1118basic_stringstreamIcSt11char_traitsIcESaIcEED1Ev(ptr noundef nonnull align 8 dereferenceable(128) %ss) #3
  ret void

lpad:                                             ; preds = %invoke.cont, %cast.end
  %2 = landingpad { ptr, i32 }
          cleanup
  %3 = extractvalue { ptr, i32 } %2, 0
  store ptr %3, ptr %exn.slot, align 8
  %4 = extractvalue { ptr, i32 } %2, 1
  store i32 %4, ptr %ehselector.slot, align 4
  call void @_ZNSt7__cxx1118basic_stringstreamIcSt11char_traitsIcESaIcEED1Ev(ptr noundef nonnull align 8 dereferenceable(128) %ss) #3
  br label %eh.resume

eh.resume:                                        ; preds = %lpad
  %exn = load ptr, ptr %exn.slot, align 8
  %sel = load i32, ptr %ehselector.slot, align 4
  %lpad.val = insertvalue { ptr, i32 } poison, ptr %exn, 0
  %lpad.val2 = insertvalue { ptr, i32 } %lpad.val, i32 %sel, 1
  resume { ptr, i32 } %lpad.val2
}

declare void @_ZNSt7__cxx1118basic_stringstreamIcSt11char_traitsIcESaIcEEC1Ev(ptr noundef nonnull align 8 dereferenceable(128)) unnamed_addr #1

; Function Attrs: mustprogress uwtable
define linkonce_odr dso_local void @_ZN7testing8internal21UniversalTersePrinterImE5PrintERKmPSo(ptr noundef nonnull align 8 dereferenceable(8) %value, ptr noundef %os) #4 comdat align 2 {
entry:
  %value.addr = alloca ptr, align 8
  %os.addr = alloca ptr, align 8
  store ptr %value, ptr %value.addr, align 8
  store ptr %os, ptr %os.addr, align 8
  %0 = load ptr, ptr %value.addr, align 8
  %1 = load ptr, ptr %os.addr, align 8
  call void @_ZN7testing8internal14UniversalPrintImEEvRKT_PSo(ptr noundef nonnull align 8 dereferenceable(8) %0, ptr noundef %1)
  ret void
}

declare void @_ZNKSt7__cxx1118basic_stringstreamIcSt11char_traitsIcESaIcEE3strEv(ptr sret(%"class.std::__cxx11::basic_string") align 8, ptr noundef nonnull align 8 dereferenceable(128)) #1

; Function Attrs: nounwind
declare void @_ZNSt7__cxx1118basic_stringstreamIcSt11char_traitsIcESaIcEED1Ev(ptr noundef nonnull align 8 dereferenceable(128)) unnamed_addr #2

; Function Attrs: mustprogress uwtable
define linkonce_odr dso_local void @_ZN7testing8internal14UniversalPrintImEEvRKT_PSo(ptr noundef nonnull align 8 dereferenceable(8) %value, ptr noundef %os) #4 comdat {
entry:
  %value.addr = alloca ptr, align 8
  %os.addr = alloca ptr, align 8
  store ptr %value, ptr %value.addr, align 8
  store ptr %os, ptr %os.addr, align 8
  %0 = load ptr, ptr %value.addr, align 8
  %1 = load ptr, ptr %os.addr, align 8
  call void @_ZN7testing8internal16UniversalPrinterImE5PrintERKmPSo(ptr noundef nonnull align 8 dereferenceable(8) %0, ptr noundef %1)
  ret void
}

; Function Attrs: mustprogress uwtable
define linkonce_odr dso_local void @_ZN7testing8internal16UniversalPrinterImE5PrintERKmPSo(ptr noundef nonnull align 8 dereferenceable(8) %value, ptr noundef %os) #4 comdat align 2 {
entry:
  %value.addr = alloca ptr, align 8
  %os.addr = alloca ptr, align 8
  store ptr %value, ptr %value.addr, align 8
  store ptr %os, ptr %os.addr, align 8
  %0 = load ptr, ptr %value.addr, align 8
  %1 = load ptr, ptr %os.addr, align 8
  call void @_ZN7testing8internal7PrintToImEEvRKT_PSo(ptr noundef nonnull align 8 dereferenceable(8) %0, ptr noundef %1)
  ret void
}

; Function Attrs: mustprogress uwtable
define linkonce_odr dso_local void @_ZN7testing8internal7PrintToImEEvRKT_PSo(ptr noundef nonnull align 8 dereferenceable(8) %value, ptr noundef %os) #4 comdat {
entry:
  %value.addr = alloca ptr, align 8
  %os.addr = alloca ptr, align 8
  store ptr %value, ptr %value.addr, align 8
  store ptr %os, ptr %os.addr, align 8
  %0 = load ptr, ptr %value.addr, align 8
  %1 = load ptr, ptr %os.addr, align 8
  call void @_ZN7testing8internal17PrintWithFallbackImEEvRKT_PSo(ptr noundef nonnull align 8 dereferenceable(8) %0, ptr noundef %1)
  ret void
}

; Function Attrs: mustprogress uwtable
define linkonce_odr dso_local void @_ZN7testing8internal17PrintWithFallbackImEEvRKT_PSo(ptr noundef nonnull align 8 dereferenceable(8) %value, ptr noundef %os) #4 comdat {
entry:
  %value.addr = alloca ptr, align 8
  %os.addr = alloca ptr, align 8
  store ptr %value, ptr %value.addr, align 8
  store ptr %os, ptr %os.addr, align 8
  %0 = load ptr, ptr %value.addr, align 8
  %1 = load ptr, ptr %os.addr, align 8
  call void @_ZN7testing8internal52internal_stream_operator_without_lexical_name_lookup13StreamPrinter10PrintValueImvEEDTcvvlsdefp0_fp_ERKT_PSo(ptr noundef nonnull align 8 dereferenceable(8) %0, ptr noundef %1)
  ret void
}

; Function Attrs: mustprogress uwtable
define linkonce_odr dso_local void @_ZN7testing8internal52internal_stream_operator_without_lexical_name_lookup13StreamPrinter10PrintValueImvEEDTcvvlsdefp0_fp_ERKT_PSo(ptr noundef nonnull align 8 dereferenceable(8) %value, ptr noundef %os) #4 comdat align 2 {
entry:
  %value.addr = alloca ptr, align 8
  %os.addr = alloca ptr, align 8
  store ptr %value, ptr %value.addr, align 8
  store ptr %os, ptr %os.addr, align 8
  %0 = load ptr, ptr %os.addr, align 8
  %1 = load ptr, ptr %value.addr, align 8
  %2 = load i64, ptr %1, align 8
  %call = call noundef nonnull align 8 dereferenceable(8) ptr @_ZNSolsEm(ptr noundef nonnull align 8 dereferenceable(8) %0, i64 noundef %2)
  ret void
}

declare noundef nonnull align 8 dereferenceable(8) ptr @_ZNSolsEm(ptr noundef nonnull align 8 dereferenceable(8), i64 noundef) #1

; Function Attrs: mustprogress nounwind uwtable
define linkonce_odr dso_local noundef ptr @_ZN4absl15random_internal13randen_engineImE5stateEv(ptr noundef nonnull align 8 dereferenceable(288) %this) #5 comdat align 2 {
entry:
  %this.addr = alloca ptr, align 8
  store ptr %this, ptr %this.addr, align 8
  %this1 = load ptr, ptr %this.addr, align 8
  %raw_state_ = getelementptr inbounds %"class.absl::random_internal::randen_engine", ptr %this1, i32 0, i32 0
  %0 = ptrtoint ptr %raw_state_ to i64
  %and = and i64 %0, 15
  %tobool = icmp ne i64 %and, 0
  br i1 %tobool, label %cond.true, label %cond.false

cond.true:                                        ; preds = %entry
  %raw_state_2 = getelementptr inbounds %"class.absl::random_internal::randen_engine", ptr %this1, i32 0, i32 0
  %arraydecay = getelementptr inbounds [264 x i8], ptr %raw_state_2, i64 0, i64 0
  %add.ptr = getelementptr inbounds i8, ptr %arraydecay, i64 8
  br label %cond.end

cond.false:                                       ; preds = %entry
  %raw_state_3 = getelementptr inbounds %"class.absl::random_internal::randen_engine", ptr %this1, i32 0, i32 0
  %arraydecay4 = getelementptr inbounds [264 x i8], ptr %raw_state_3, i64 0, i64 0
  br label %cond.end

cond.end:                                         ; preds = %cond.false, %cond.true
  %cond = phi ptr [ %add.ptr, %cond.true ], [ %arraydecay4, %cond.false ]
  ret ptr %cond
}

; Function Attrs: mustprogress uwtable
define linkonce_odr dso_local void @_ZNK4absl15random_internal6Randen8GenerateEPv(ptr noundef nonnull align 8 dereferenceable(9) %this, ptr noundef %state) #4 comdat align 2 {
entry:
  %this.addr = alloca ptr, align 8
  %state.addr = alloca ptr, align 8
  store ptr %this, ptr %this.addr, align 8
  store ptr %state, ptr %state.addr, align 8
  %this1 = load ptr, ptr %this.addr, align 8
  %has_crypto_ = getelementptr inbounds %"class.absl::random_internal::Randen", ptr %this1, i32 0, i32 1
  %0 = load i8, ptr %has_crypto_, align 8
  %tobool = trunc i8 %0 to i1
  br i1 %tobool, label %if.then, label %if.else

if.then:                                          ; preds = %entry
  %keys_ = getelementptr inbounds %"class.absl::random_internal::Randen", ptr %this1, i32 0, i32 0
  %1 = load ptr, ptr %keys_, align 8
  %2 = load ptr, ptr %state.addr, align 8
  call void @_ZN4absl15random_internal11RandenHwAes8GenerateEPKvPv(ptr noundef %1, ptr noundef %2)
  br label %if.end

if.else:                                          ; preds = %entry
  %keys_2 = getelementptr inbounds %"class.absl::random_internal::Randen", ptr %this1, i32 0, i32 0
  %3 = load ptr, ptr %keys_2, align 8
  %4 = load ptr, ptr %state.addr, align 8
  call void @_ZN4absl15random_internal10RandenSlow8GenerateEPKvPv(ptr noundef %3, ptr noundef %4)
  br label %if.end

if.end:                                           ; preds = %if.else, %if.then
  ret void
}

; Function Attrs: mustprogress uwtable
define linkonce_odr dso_local noundef i64 @_ZN4absl13little_endian6ToHostEm(i64 noundef %x) #4 comdat {
entry:
  %x.addr = alloca i64, align 8
  store i64 %x, ptr %x.addr, align 8
  %0 = load i64, ptr %x.addr, align 8
  %call = call noundef i64 @_ZN4absl13little_endian8ToHost64Em(i64 noundef %0)
  ret i64 %call
}

declare void @_ZN4absl15random_internal11RandenHwAes8GenerateEPKvPv(ptr noundef, ptr noundef) #1

declare void @_ZN4absl15random_internal10RandenSlow8GenerateEPKvPv(ptr noundef, ptr noundef) #1

; Function Attrs: mustprogress nounwind uwtable
define linkonce_odr dso_local noundef i64 @_ZN4absl13little_endian8ToHost64Em(i64 noundef %x) #5 comdat {
entry:
  %x.addr = alloca i64, align 8
  store i64 %x, ptr %x.addr, align 8
  %0 = load i64, ptr %x.addr, align 8
  ret i64 %0
}

; Function Attrs: mustprogress nounwind uwtable
define linkonce_odr dso_local noundef ptr @_ZNK7testing15AssertionResult7messageEv(ptr noundef nonnull align 8 dereferenceable(16) %this) #5 comdat align 2 {
entry:
  %this.addr = alloca ptr, align 8
  store ptr %this, ptr %this.addr, align 8
  %this1 = load ptr, ptr %this.addr, align 8
  %message_ = getelementptr inbounds %"class.testing::AssertionResult", ptr %this1, i32 0, i32 1
  %call = call noundef zeroext i1 @_ZStneINSt7__cxx1112basic_stringIcSt11char_traitsIcESaIcEEESt14default_deleteIS5_EEbRKSt10unique_ptrIT_T0_EDn(ptr noundef nonnull align 8 dereferenceable(8) %message_, ptr null) #3
  br i1 %call, label %cond.true, label %cond.false

cond.true:                                        ; preds = %entry
  %message_2 = getelementptr inbounds %"class.testing::AssertionResult", ptr %this1, i32 0, i32 1
  %call3 = call noundef ptr @_ZNKSt10unique_ptrINSt7__cxx1112basic_stringIcSt11char_traitsIcESaIcEEESt14default_deleteIS5_EEptEv(ptr noundef nonnull align 8 dereferenceable(8) %message_2) #3
  %call4 = call noundef ptr @_ZNKSt7__cxx1112basic_stringIcSt11char_traitsIcESaIcEE5c_strEv(ptr noundef nonnull align 8 dereferenceable(32) %call3) #3
  br label %cond.end

cond.false:                                       ; preds = %entry
  br label %cond.end

cond.end:                                         ; preds = %cond.false, %cond.true
  %cond = phi ptr [ %call4, %cond.true ], [ @.str, %cond.false ]
  ret ptr %cond
}

; Function Attrs: mustprogress nounwind uwtable
define linkonce_odr dso_local noundef zeroext i1 @_ZStneINSt7__cxx1112basic_stringIcSt11char_traitsIcESaIcEEESt14default_deleteIS5_EEbRKSt10unique_ptrIT_T0_EDn(ptr noundef nonnull align 8 dereferenceable(8) %__x, ptr %0) #5 comdat {
entry:
  %__x.addr = alloca ptr, align 8
  %.addr = alloca ptr, align 8
  store ptr %__x, ptr %__x.addr, align 8
  store ptr %0, ptr %.addr, align 8
  %1 = load ptr, ptr %__x.addr, align 8
  %call = call noundef zeroext i1 @_ZNKSt10unique_ptrINSt7__cxx1112basic_stringIcSt11char_traitsIcESaIcEEESt14default_deleteIS5_EEcvbEv(ptr noundef nonnull align 8 dereferenceable(8) %1) #3
  ret i1 %call
}

; Function Attrs: mustprogress nounwind uwtable
define linkonce_odr dso_local noundef ptr @_ZNKSt10unique_ptrINSt7__cxx1112basic_stringIcSt11char_traitsIcESaIcEEESt14default_deleteIS5_EEptEv(ptr noundef nonnull align 8 dereferenceable(8) %this) #5 comdat align 2 {
entry:
  %this.addr = alloca ptr, align 8
  store ptr %this, ptr %this.addr, align 8
  %this1 = load ptr, ptr %this.addr, align 8
  %call = call noundef ptr @_ZNKSt10unique_ptrINSt7__cxx1112basic_stringIcSt11char_traitsIcESaIcEEESt14default_deleteIS5_EE3getEv(ptr noundef nonnull align 8 dereferenceable(8) %this1) #3
  ret ptr %call
}

; Function Attrs: nounwind
declare noundef ptr @_ZNKSt7__cxx1112basic_stringIcSt11char_traitsIcESaIcEE5c_strEv(ptr noundef nonnull align 8 dereferenceable(32)) #2

; Function Attrs: mustprogress nounwind uwtable
define linkonce_odr dso_local noundef zeroext i1 @_ZNKSt10unique_ptrINSt7__cxx1112basic_stringIcSt11char_traitsIcESaIcEEESt14default_deleteIS5_EEcvbEv(ptr noundef nonnull align 8 dereferenceable(8) %this) #5 comdat align 2 {
entry:
  %this.addr = alloca ptr, align 8
  store ptr %this, ptr %this.addr, align 8
  %this1 = load ptr, ptr %this.addr, align 8
  %call = call noundef ptr @_ZNKSt10unique_ptrINSt7__cxx1112basic_stringIcSt11char_traitsIcESaIcEEESt14default_deleteIS5_EE3getEv(ptr noundef nonnull align 8 dereferenceable(8) %this1) #3
  %cmp = icmp eq ptr %call, null
  %cond = select i1 %cmp, i1 false, i1 true
  ret i1 %cond
}

; Function Attrs: mustprogress nounwind uwtable
define linkonce_odr dso_local noundef ptr @_ZNKSt10unique_ptrINSt7__cxx1112basic_stringIcSt11char_traitsIcESaIcEEESt14default_deleteIS5_EE3getEv(ptr noundef nonnull align 8 dereferenceable(8) %this) #5 comdat align 2 {
entry:
  %this.addr = alloca ptr, align 8
  store ptr %this, ptr %this.addr, align 8
  %this1 = load ptr, ptr %this.addr, align 8
  %_M_t = getelementptr inbounds %"class.std::unique_ptr.10", ptr %this1, i32 0, i32 0
  %call = call noundef ptr @_ZNKSt15__uniq_ptr_implINSt7__cxx1112basic_stringIcSt11char_traitsIcESaIcEEESt14default_deleteIS5_EE6_M_ptrEv(ptr noundef nonnull align 8 dereferenceable(8) %_M_t) #3
  ret ptr %call
}

; Function Attrs: mustprogress nounwind uwtable
define linkonce_odr dso_local noundef ptr @_ZNKSt15__uniq_ptr_implINSt7__cxx1112basic_stringIcSt11char_traitsIcESaIcEEESt14default_deleteIS5_EE6_M_ptrEv(ptr noundef nonnull align 8 dereferenceable(8) %this) #5 comdat align 2 {
entry:
  %this.addr = alloca ptr, align 8
  store ptr %this, ptr %this.addr, align 8
  %this1 = load ptr, ptr %this.addr, align 8
  %_M_t = getelementptr inbounds %"class.std::__uniq_ptr_impl.12", ptr %this1, i32 0, i32 0
  %call = call noundef nonnull align 8 dereferenceable(8) ptr @_ZSt3getILm0EJPNSt7__cxx1112basic_stringIcSt11char_traitsIcESaIcEEESt14default_deleteIS5_EEERKNSt13tuple_elementIXT_ESt5tupleIJDpT0_EEE4typeERKSD_(ptr noundef nonnull align 8 dereferenceable(8) %_M_t) #3
  %0 = load ptr, ptr %call, align 8
  ret ptr %0
}

; Function Attrs: mustprogress nounwind uwtable
define linkonce_odr dso_local noundef nonnull align 8 dereferenceable(8) ptr @_ZSt3getILm0EJPNSt7__cxx1112basic_stringIcSt11char_traitsIcESaIcEEESt14default_deleteIS5_EEERKNSt13tuple_elementIXT_ESt5tupleIJDpT0_EEE4typeERKSD_(ptr noundef nonnull align 8 dereferenceable(8) %__t) #5 comdat {
entry:
  %__t.addr = alloca ptr, align 8
  store ptr %__t, ptr %__t.addr, align 8
  %0 = load ptr, ptr %__t.addr, align 8
  %call = call noundef nonnull align 8 dereferenceable(8) ptr @_ZSt12__get_helperILm0EPNSt7__cxx1112basic_stringIcSt11char_traitsIcESaIcEEEJSt14default_deleteIS5_EEERKT0_RKSt11_Tuple_implIXT_EJS9_DpT1_EE(ptr noundef nonnull align 8 dereferenceable(8) %0) #3
  ret ptr %call
}

; Function Attrs: mustprogress nounwind uwtable
define linkonce_odr dso_local noundef nonnull align 8 dereferenceable(8) ptr @_ZSt12__get_helperILm0EPNSt7__cxx1112basic_stringIcSt11char_traitsIcESaIcEEEJSt14default_deleteIS5_EEERKT0_RKSt11_Tuple_implIXT_EJS9_DpT1_EE(ptr noundef nonnull align 8 dereferenceable(8) %__t) #5 comdat {
entry:
  %__t.addr = alloca ptr, align 8
  store ptr %__t, ptr %__t.addr, align 8
  %0 = load ptr, ptr %__t.addr, align 8
  %call = call noundef nonnull align 8 dereferenceable(8) ptr @_ZNSt11_Tuple_implILm0EJPNSt7__cxx1112basic_stringIcSt11char_traitsIcESaIcEEESt14default_deleteIS5_EEE7_M_headERKS9_(ptr noundef nonnull align 8 dereferenceable(8) %0) #3
  ret ptr %call
}

; Function Attrs: mustprogress nounwind uwtable
define linkonce_odr dso_local noundef nonnull align 8 dereferenceable(8) ptr @_ZNSt11_Tuple_implILm0EJPNSt7__cxx1112basic_stringIcSt11char_traitsIcESaIcEEESt14default_deleteIS5_EEE7_M_headERKS9_(ptr noundef nonnull align 8 dereferenceable(8) %__t) #5 comdat align 2 {
entry:
  %__t.addr = alloca ptr, align 8
  store ptr %__t, ptr %__t.addr, align 8
  %0 = load ptr, ptr %__t.addr, align 8
  %call = call noundef nonnull align 8 dereferenceable(8) ptr @_ZNSt10_Head_baseILm0EPNSt7__cxx1112basic_stringIcSt11char_traitsIcESaIcEEELb0EE7_M_headERKS7_(ptr noundef nonnull align 8 dereferenceable(8) %0) #3
  ret ptr %call
}

; Function Attrs: mustprogress nounwind uwtable
define linkonce_odr dso_local noundef nonnull align 8 dereferenceable(8) ptr @_ZNSt10_Head_baseILm0EPNSt7__cxx1112basic_stringIcSt11char_traitsIcESaIcEEELb0EE7_M_headERKS7_(ptr noundef nonnull align 8 dereferenceable(8) %__b) #5 comdat align 2 {
entry:
  %__b.addr = alloca ptr, align 8
  store ptr %__b, ptr %__b.addr, align 8
  %0 = load ptr, ptr %__b.addr, align 8
  %_M_head_impl = getelementptr inbounds %"struct.std::_Head_base.17", ptr %0, i32 0, i32 0
  ret ptr %_M_head_impl
}

; Function Attrs: mustprogress nounwind uwtable
define linkonce_odr dso_local void @_ZNSt10unique_ptrINSt7__cxx1118basic_stringstreamIcSt11char_traitsIcESaIcEEESt14default_deleteIS5_EED2Ev(ptr noundef nonnull align 8 dereferenceable(8) %this) unnamed_addr #5 comdat align 2 personality ptr @__gxx_personality_v0 {
entry:
  %this.addr = alloca ptr, align 8
  %__ptr = alloca ptr, align 8
  store ptr %this, ptr %this.addr, align 8
  %this1 = load ptr, ptr %this.addr, align 8
  %_M_t = getelementptr inbounds %"class.std::unique_ptr.18", ptr %this1, i32 0, i32 0
  %call = call noundef nonnull align 8 dereferenceable(8) ptr @_ZNSt15__uniq_ptr_implINSt7__cxx1118basic_stringstreamIcSt11char_traitsIcESaIcEEESt14default_deleteIS5_EE6_M_ptrEv(ptr noundef nonnull align 8 dereferenceable(8) %_M_t) #3
  store ptr %call, ptr %__ptr, align 8
  %0 = load ptr, ptr %__ptr, align 8
  %1 = load ptr, ptr %0, align 8
  %cmp = icmp ne ptr %1, null
  br i1 %cmp, label %if.then, label %if.end

if.then:                                          ; preds = %entry
  %call2 = call noundef nonnull align 1 dereferenceable(1) ptr @_ZNSt10unique_ptrINSt7__cxx1118basic_stringstreamIcSt11char_traitsIcESaIcEEESt14default_deleteIS5_EE11get_deleterEv(ptr noundef nonnull align 8 dereferenceable(8) %this1) #3
  %2 = load ptr, ptr %__ptr, align 8
  %3 = load ptr, ptr %2, align 8
  invoke void @_ZNKSt14default_deleteINSt7__cxx1118basic_stringstreamIcSt11char_traitsIcESaIcEEEEclEPS5_(ptr noundef nonnull align 1 dereferenceable(1) %call2, ptr noundef %3)
          to label %invoke.cont unwind label %terminate.lpad

invoke.cont:                                      ; preds = %if.then
  br label %if.end

if.end:                                           ; preds = %invoke.cont, %entry
  %4 = load ptr, ptr %__ptr, align 8
  store ptr null, ptr %4, align 8
  ret void

terminate.lpad:                                   ; preds = %if.then
  %5 = landingpad { ptr, i32 }
          catch ptr null
  %6 = extractvalue { ptr, i32 } %5, 0
  call void @__clang_call_terminate(ptr %6) #20
  unreachable
}

; Function Attrs: mustprogress nounwind uwtable
define linkonce_odr dso_local noundef nonnull align 8 dereferenceable(8) ptr @_ZNSt15__uniq_ptr_implINSt7__cxx1118basic_stringstreamIcSt11char_traitsIcESaIcEEESt14default_deleteIS5_EE6_M_ptrEv(ptr noundef nonnull align 8 dereferenceable(8) %this) #5 comdat align 2 {
entry:
  %this.addr = alloca ptr, align 8
  store ptr %this, ptr %this.addr, align 8
  %this1 = load ptr, ptr %this.addr, align 8
  %_M_t = getelementptr inbounds %"class.std::__uniq_ptr_impl.20", ptr %this1, i32 0, i32 0
  %call = call noundef nonnull align 8 dereferenceable(8) ptr @_ZSt3getILm0EJPNSt7__cxx1118basic_stringstreamIcSt11char_traitsIcESaIcEEESt14default_deleteIS5_EEERNSt13tuple_elementIXT_ESt5tupleIJDpT0_EEE4typeERSD_(ptr noundef nonnull align 8 dereferenceable(8) %_M_t) #3
  ret ptr %call
}

; Function Attrs: mustprogress nounwind uwtable
define linkonce_odr dso_local noundef nonnull align 1 dereferenceable(1) ptr @_ZNSt10unique_ptrINSt7__cxx1118basic_stringstreamIcSt11char_traitsIcESaIcEEESt14default_deleteIS5_EE11get_deleterEv(ptr noundef nonnull align 8 dereferenceable(8) %this) #5 comdat align 2 {
entry:
  %this.addr = alloca ptr, align 8
  store ptr %this, ptr %this.addr, align 8
  %this1 = load ptr, ptr %this.addr, align 8
  %_M_t = getelementptr inbounds %"class.std::unique_ptr.18", ptr %this1, i32 0, i32 0
  %call = call noundef nonnull align 1 dereferenceable(1) ptr @_ZNSt15__uniq_ptr_implINSt7__cxx1118basic_stringstreamIcSt11char_traitsIcESaIcEEESt14default_deleteIS5_EE10_M_deleterEv(ptr noundef nonnull align 8 dereferenceable(8) %_M_t) #3
  ret ptr %call
}

; Function Attrs: mustprogress nounwind uwtable
define linkonce_odr dso_local void @_ZNKSt14default_deleteINSt7__cxx1118basic_stringstreamIcSt11char_traitsIcESaIcEEEEclEPS5_(ptr noundef nonnull align 1 dereferenceable(1) %this, ptr noundef %__ptr) #5 comdat align 2 {
entry:
  %this.addr = alloca ptr, align 8
  %__ptr.addr = alloca ptr, align 8
  store ptr %this, ptr %this.addr, align 8
  store ptr %__ptr, ptr %__ptr.addr, align 8
  %0 = load ptr, ptr %__ptr.addr, align 8
  %isnull = icmp eq ptr %0, null
  br i1 %isnull, label %delete.end, label %delete.notnull

delete.notnull:                                   ; preds = %entry
  %vtable = load ptr, ptr %0, align 8
  %vfn = getelementptr inbounds ptr, ptr %vtable, i64 1
  %1 = load ptr, ptr %vfn, align 8
  call void %1(ptr noundef nonnull align 8 dereferenceable(128) %0) #3
  br label %delete.end

delete.end:                                       ; preds = %delete.notnull, %entry
  ret void
}

; Function Attrs: noreturn nounwind uwtable
define linkonce_odr hidden void @__clang_call_terminate(ptr noundef %0) #10 comdat {
  %2 = call ptr @__cxa_begin_catch(ptr %0) #3
  call void @_ZSt9terminatev() #20
  unreachable
}

declare ptr @__cxa_begin_catch(ptr)

declare void @_ZSt9terminatev()

; Function Attrs: mustprogress nounwind uwtable
define linkonce_odr dso_local noundef nonnull align 8 dereferenceable(8) ptr @_ZSt3getILm0EJPNSt7__cxx1118basic_stringstreamIcSt11char_traitsIcESaIcEEESt14default_deleteIS5_EEERNSt13tuple_elementIXT_ESt5tupleIJDpT0_EEE4typeERSD_(ptr noundef nonnull align 8 dereferenceable(8) %__t) #5 comdat {
entry:
  %__t.addr = alloca ptr, align 8
  store ptr %__t, ptr %__t.addr, align 8
  %0 = load ptr, ptr %__t.addr, align 8
  %call = call noundef nonnull align 8 dereferenceable(8) ptr @_ZSt12__get_helperILm0EPNSt7__cxx1118basic_stringstreamIcSt11char_traitsIcESaIcEEEJSt14default_deleteIS5_EEERT0_RSt11_Tuple_implIXT_EJS9_DpT1_EE(ptr noundef nonnull align 8 dereferenceable(8) %0) #3
  ret ptr %call
}

; Function Attrs: mustprogress nounwind uwtable
define linkonce_odr dso_local noundef nonnull align 8 dereferenceable(8) ptr @_ZSt12__get_helperILm0EPNSt7__cxx1118basic_stringstreamIcSt11char_traitsIcESaIcEEEJSt14default_deleteIS5_EEERT0_RSt11_Tuple_implIXT_EJS9_DpT1_EE(ptr noundef nonnull align 8 dereferenceable(8) %__t) #5 comdat {
entry:
  %__t.addr = alloca ptr, align 8
  store ptr %__t, ptr %__t.addr, align 8
  %0 = load ptr, ptr %__t.addr, align 8
  %call = call noundef nonnull align 8 dereferenceable(8) ptr @_ZNSt11_Tuple_implILm0EJPNSt7__cxx1118basic_stringstreamIcSt11char_traitsIcESaIcEEESt14default_deleteIS5_EEE7_M_headERS9_(ptr noundef nonnull align 8 dereferenceable(8) %0) #3
  ret ptr %call
}

; Function Attrs: mustprogress nounwind uwtable
define linkonce_odr dso_local noundef nonnull align 8 dereferenceable(8) ptr @_ZNSt11_Tuple_implILm0EJPNSt7__cxx1118basic_stringstreamIcSt11char_traitsIcESaIcEEESt14default_deleteIS5_EEE7_M_headERS9_(ptr noundef nonnull align 8 dereferenceable(8) %__t) #5 comdat align 2 {
entry:
  %__t.addr = alloca ptr, align 8
  store ptr %__t, ptr %__t.addr, align 8
  %0 = load ptr, ptr %__t.addr, align 8
  %call = call noundef nonnull align 8 dereferenceable(8) ptr @_ZNSt10_Head_baseILm0EPNSt7__cxx1118basic_stringstreamIcSt11char_traitsIcESaIcEEELb0EE7_M_headERS7_(ptr noundef nonnull align 8 dereferenceable(8) %0) #3
  ret ptr %call
}

; Function Attrs: mustprogress nounwind uwtable
define linkonce_odr dso_local noundef nonnull align 8 dereferenceable(8) ptr @_ZNSt10_Head_baseILm0EPNSt7__cxx1118basic_stringstreamIcSt11char_traitsIcESaIcEEELb0EE7_M_headERS7_(ptr noundef nonnull align 8 dereferenceable(8) %__b) #5 comdat align 2 {
entry:
  %__b.addr = alloca ptr, align 8
  store ptr %__b, ptr %__b.addr, align 8
  %0 = load ptr, ptr %__b.addr, align 8
  %_M_head_impl = getelementptr inbounds %"struct.std::_Head_base.25", ptr %0, i32 0, i32 0
  ret ptr %_M_head_impl
}

; Function Attrs: mustprogress nounwind uwtable
define linkonce_odr dso_local noundef nonnull align 1 dereferenceable(1) ptr @_ZNSt15__uniq_ptr_implINSt7__cxx1118basic_stringstreamIcSt11char_traitsIcESaIcEEESt14default_deleteIS5_EE10_M_deleterEv(ptr noundef nonnull align 8 dereferenceable(8) %this) #5 comdat align 2 {
entry:
  %this.addr = alloca ptr, align 8
  store ptr %this, ptr %this.addr, align 8
  %this1 = load ptr, ptr %this.addr, align 8
  %_M_t = getelementptr inbounds %"class.std::__uniq_ptr_impl.20", ptr %this1, i32 0, i32 0
  %call = call noundef nonnull align 1 dereferenceable(1) ptr @_ZSt3getILm1EJPNSt7__cxx1118basic_stringstreamIcSt11char_traitsIcESaIcEEESt14default_deleteIS5_EEERNSt13tuple_elementIXT_ESt5tupleIJDpT0_EEE4typeERSD_(ptr noundef nonnull align 8 dereferenceable(8) %_M_t) #3
  ret ptr %call
}

; Function Attrs: mustprogress nounwind uwtable
define linkonce_odr dso_local noundef nonnull align 1 dereferenceable(1) ptr @_ZSt3getILm1EJPNSt7__cxx1118basic_stringstreamIcSt11char_traitsIcESaIcEEESt14default_deleteIS5_EEERNSt13tuple_elementIXT_ESt5tupleIJDpT0_EEE4typeERSD_(ptr noundef nonnull align 8 dereferenceable(8) %__t) #5 comdat {
entry:
  %__t.addr = alloca ptr, align 8
  store ptr %__t, ptr %__t.addr, align 8
  %0 = load ptr, ptr %__t.addr, align 8
  %call = call noundef nonnull align 1 dereferenceable(1) ptr @_ZSt12__get_helperILm1ESt14default_deleteINSt7__cxx1118basic_stringstreamIcSt11char_traitsIcESaIcEEEEJEERT0_RSt11_Tuple_implIXT_EJS8_DpT1_EE(ptr noundef nonnull align 1 dereferenceable(1) %0) #3
  ret ptr %call
}

; Function Attrs: mustprogress nounwind uwtable
define linkonce_odr dso_local noundef nonnull align 1 dereferenceable(1) ptr @_ZSt12__get_helperILm1ESt14default_deleteINSt7__cxx1118basic_stringstreamIcSt11char_traitsIcESaIcEEEEJEERT0_RSt11_Tuple_implIXT_EJS8_DpT1_EE(ptr noundef nonnull align 1 dereferenceable(1) %__t) #5 comdat {
entry:
  %__t.addr = alloca ptr, align 8
  store ptr %__t, ptr %__t.addr, align 8
  %0 = load ptr, ptr %__t.addr, align 8
  %call = call noundef nonnull align 1 dereferenceable(1) ptr @_ZNSt11_Tuple_implILm1EJSt14default_deleteINSt7__cxx1118basic_stringstreamIcSt11char_traitsIcESaIcEEEEEE7_M_headERS8_(ptr noundef nonnull align 1 dereferenceable(1) %0) #3
  ret ptr %call
}

; Function Attrs: mustprogress nounwind uwtable
define linkonce_odr dso_local noundef nonnull align 1 dereferenceable(1) ptr @_ZNSt11_Tuple_implILm1EJSt14default_deleteINSt7__cxx1118basic_stringstreamIcSt11char_traitsIcESaIcEEEEEE7_M_headERS8_(ptr noundef nonnull align 1 dereferenceable(1) %__t) #5 comdat align 2 {
entry:
  %__t.addr = alloca ptr, align 8
  store ptr %__t, ptr %__t.addr, align 8
  %0 = load ptr, ptr %__t.addr, align 8
  %call = call noundef nonnull align 1 dereferenceable(1) ptr @_ZNSt10_Head_baseILm1ESt14default_deleteINSt7__cxx1118basic_stringstreamIcSt11char_traitsIcESaIcEEEELb1EE7_M_headERS8_(ptr noundef nonnull align 1 dereferenceable(1) %0) #3
  ret ptr %call
}

; Function Attrs: mustprogress nounwind uwtable
define linkonce_odr dso_local noundef nonnull align 1 dereferenceable(1) ptr @_ZNSt10_Head_baseILm1ESt14default_deleteINSt7__cxx1118basic_stringstreamIcSt11char_traitsIcESaIcEEEELb1EE7_M_headERS8_(ptr noundef nonnull align 1 dereferenceable(1) %__b) #5 comdat align 2 {
entry:
  %__b.addr = alloca ptr, align 8
  store ptr %__b, ptr %__b.addr, align 8
  %0 = load ptr, ptr %__b.addr, align 8
  ret ptr %0
}

; Function Attrs: mustprogress nounwind uwtable
define linkonce_odr dso_local void @_ZNSt10unique_ptrINSt7__cxx1112basic_stringIcSt11char_traitsIcESaIcEEESt14default_deleteIS5_EED2Ev(ptr noundef nonnull align 8 dereferenceable(8) %this) unnamed_addr #5 comdat align 2 personality ptr @__gxx_personality_v0 {
entry:
  %this.addr = alloca ptr, align 8
  %__ptr = alloca ptr, align 8
  store ptr %this, ptr %this.addr, align 8
  %this1 = load ptr, ptr %this.addr, align 8
  %_M_t = getelementptr inbounds %"class.std::unique_ptr.10", ptr %this1, i32 0, i32 0
  %call = call noundef nonnull align 8 dereferenceable(8) ptr @_ZNSt15__uniq_ptr_implINSt7__cxx1112basic_stringIcSt11char_traitsIcESaIcEEESt14default_deleteIS5_EE6_M_ptrEv(ptr noundef nonnull align 8 dereferenceable(8) %_M_t) #3
  store ptr %call, ptr %__ptr, align 8
  %0 = load ptr, ptr %__ptr, align 8
  %1 = load ptr, ptr %0, align 8
  %cmp = icmp ne ptr %1, null
  br i1 %cmp, label %if.then, label %if.end

if.then:                                          ; preds = %entry
  %call2 = call noundef nonnull align 1 dereferenceable(1) ptr @_ZNSt10unique_ptrINSt7__cxx1112basic_stringIcSt11char_traitsIcESaIcEEESt14default_deleteIS5_EE11get_deleterEv(ptr noundef nonnull align 8 dereferenceable(8) %this1) #3
  %2 = load ptr, ptr %__ptr, align 8
  %3 = load ptr, ptr %2, align 8
  invoke void @_ZNKSt14default_deleteINSt7__cxx1112basic_stringIcSt11char_traitsIcESaIcEEEEclEPS5_(ptr noundef nonnull align 1 dereferenceable(1) %call2, ptr noundef %3)
          to label %invoke.cont unwind label %terminate.lpad

invoke.cont:                                      ; preds = %if.then
  br label %if.end

if.end:                                           ; preds = %invoke.cont, %entry
  %4 = load ptr, ptr %__ptr, align 8
  store ptr null, ptr %4, align 8
  ret void

terminate.lpad:                                   ; preds = %if.then
  %5 = landingpad { ptr, i32 }
          catch ptr null
  %6 = extractvalue { ptr, i32 } %5, 0
  call void @__clang_call_terminate(ptr %6) #20
  unreachable
}

; Function Attrs: mustprogress nounwind uwtable
define linkonce_odr dso_local noundef nonnull align 8 dereferenceable(8) ptr @_ZNSt15__uniq_ptr_implINSt7__cxx1112basic_stringIcSt11char_traitsIcESaIcEEESt14default_deleteIS5_EE6_M_ptrEv(ptr noundef nonnull align 8 dereferenceable(8) %this) #5 comdat align 2 {
entry:
  %this.addr = alloca ptr, align 8
  store ptr %this, ptr %this.addr, align 8
  %this1 = load ptr, ptr %this.addr, align 8
  %_M_t = getelementptr inbounds %"class.std::__uniq_ptr_impl.12", ptr %this1, i32 0, i32 0
  %call = call noundef nonnull align 8 dereferenceable(8) ptr @_ZSt3getILm0EJPNSt7__cxx1112basic_stringIcSt11char_traitsIcESaIcEEESt14default_deleteIS5_EEERNSt13tuple_elementIXT_ESt5tupleIJDpT0_EEE4typeERSD_(ptr noundef nonnull align 8 dereferenceable(8) %_M_t) #3
  ret ptr %call
}

; Function Attrs: mustprogress nounwind uwtable
define linkonce_odr dso_local noundef nonnull align 1 dereferenceable(1) ptr @_ZNSt10unique_ptrINSt7__cxx1112basic_stringIcSt11char_traitsIcESaIcEEESt14default_deleteIS5_EE11get_deleterEv(ptr noundef nonnull align 8 dereferenceable(8) %this) #5 comdat align 2 {
entry:
  %this.addr = alloca ptr, align 8
  store ptr %this, ptr %this.addr, align 8
  %this1 = load ptr, ptr %this.addr, align 8
  %_M_t = getelementptr inbounds %"class.std::unique_ptr.10", ptr %this1, i32 0, i32 0
  %call = call noundef nonnull align 1 dereferenceable(1) ptr @_ZNSt15__uniq_ptr_implINSt7__cxx1112basic_stringIcSt11char_traitsIcESaIcEEESt14default_deleteIS5_EE10_M_deleterEv(ptr noundef nonnull align 8 dereferenceable(8) %_M_t) #3
  ret ptr %call
}

; Function Attrs: mustprogress nounwind uwtable
define linkonce_odr dso_local void @_ZNKSt14default_deleteINSt7__cxx1112basic_stringIcSt11char_traitsIcESaIcEEEEclEPS5_(ptr noundef nonnull align 1 dereferenceable(1) %this, ptr noundef %__ptr) #5 comdat align 2 {
entry:
  %this.addr = alloca ptr, align 8
  %__ptr.addr = alloca ptr, align 8
  store ptr %this, ptr %this.addr, align 8
  store ptr %__ptr, ptr %__ptr.addr, align 8
  %0 = load ptr, ptr %__ptr.addr, align 8
  %isnull = icmp eq ptr %0, null
  br i1 %isnull, label %delete.end, label %delete.notnull

delete.notnull:                                   ; preds = %entry
  call void @_ZNSt7__cxx1112basic_stringIcSt11char_traitsIcESaIcEED1Ev(ptr noundef nonnull align 8 dereferenceable(32) %0) #3
  call void @_ZdlPv(ptr noundef %0) #18
  br label %delete.end

delete.end:                                       ; preds = %delete.notnull, %entry
  ret void
}

; Function Attrs: mustprogress nounwind uwtable
define linkonce_odr dso_local noundef nonnull align 8 dereferenceable(8) ptr @_ZSt3getILm0EJPNSt7__cxx1112basic_stringIcSt11char_traitsIcESaIcEEESt14default_deleteIS5_EEERNSt13tuple_elementIXT_ESt5tupleIJDpT0_EEE4typeERSD_(ptr noundef nonnull align 8 dereferenceable(8) %__t) #5 comdat {
entry:
  %__t.addr = alloca ptr, align 8
  store ptr %__t, ptr %__t.addr, align 8
  %0 = load ptr, ptr %__t.addr, align 8
  %call = call noundef nonnull align 8 dereferenceable(8) ptr @_ZSt12__get_helperILm0EPNSt7__cxx1112basic_stringIcSt11char_traitsIcESaIcEEEJSt14default_deleteIS5_EEERT0_RSt11_Tuple_implIXT_EJS9_DpT1_EE(ptr noundef nonnull align 8 dereferenceable(8) %0) #3
  ret ptr %call
}

; Function Attrs: mustprogress nounwind uwtable
define linkonce_odr dso_local noundef nonnull align 8 dereferenceable(8) ptr @_ZSt12__get_helperILm0EPNSt7__cxx1112basic_stringIcSt11char_traitsIcESaIcEEEJSt14default_deleteIS5_EEERT0_RSt11_Tuple_implIXT_EJS9_DpT1_EE(ptr noundef nonnull align 8 dereferenceable(8) %__t) #5 comdat {
entry:
  %__t.addr = alloca ptr, align 8
  store ptr %__t, ptr %__t.addr, align 8
  %0 = load ptr, ptr %__t.addr, align 8
  %call = call noundef nonnull align 8 dereferenceable(8) ptr @_ZNSt11_Tuple_implILm0EJPNSt7__cxx1112basic_stringIcSt11char_traitsIcESaIcEEESt14default_deleteIS5_EEE7_M_headERS9_(ptr noundef nonnull align 8 dereferenceable(8) %0) #3
  ret ptr %call
}

; Function Attrs: mustprogress nounwind uwtable
define linkonce_odr dso_local noundef nonnull align 8 dereferenceable(8) ptr @_ZNSt11_Tuple_implILm0EJPNSt7__cxx1112basic_stringIcSt11char_traitsIcESaIcEEESt14default_deleteIS5_EEE7_M_headERS9_(ptr noundef nonnull align 8 dereferenceable(8) %__t) #5 comdat align 2 {
entry:
  %__t.addr = alloca ptr, align 8
  store ptr %__t, ptr %__t.addr, align 8
  %0 = load ptr, ptr %__t.addr, align 8
  %call = call noundef nonnull align 8 dereferenceable(8) ptr @_ZNSt10_Head_baseILm0EPNSt7__cxx1112basic_stringIcSt11char_traitsIcESaIcEEELb0EE7_M_headERS7_(ptr noundef nonnull align 8 dereferenceable(8) %0) #3
  ret ptr %call
}

; Function Attrs: mustprogress nounwind uwtable
define linkonce_odr dso_local noundef nonnull align 8 dereferenceable(8) ptr @_ZNSt10_Head_baseILm0EPNSt7__cxx1112basic_stringIcSt11char_traitsIcESaIcEEELb0EE7_M_headERS7_(ptr noundef nonnull align 8 dereferenceable(8) %__b) #5 comdat align 2 {
entry:
  %__b.addr = alloca ptr, align 8
  store ptr %__b, ptr %__b.addr, align 8
  %0 = load ptr, ptr %__b.addr, align 8
  %_M_head_impl = getelementptr inbounds %"struct.std::_Head_base.17", ptr %0, i32 0, i32 0
  ret ptr %_M_head_impl
}

; Function Attrs: mustprogress nounwind uwtable
define linkonce_odr dso_local noundef nonnull align 1 dereferenceable(1) ptr @_ZNSt15__uniq_ptr_implINSt7__cxx1112basic_stringIcSt11char_traitsIcESaIcEEESt14default_deleteIS5_EE10_M_deleterEv(ptr noundef nonnull align 8 dereferenceable(8) %this) #5 comdat align 2 {
entry:
  %this.addr = alloca ptr, align 8
  store ptr %this, ptr %this.addr, align 8
  %this1 = load ptr, ptr %this.addr, align 8
  %_M_t = getelementptr inbounds %"class.std::__uniq_ptr_impl.12", ptr %this1, i32 0, i32 0
  %call = call noundef nonnull align 1 dereferenceable(1) ptr @_ZSt3getILm1EJPNSt7__cxx1112basic_stringIcSt11char_traitsIcESaIcEEESt14default_deleteIS5_EEERNSt13tuple_elementIXT_ESt5tupleIJDpT0_EEE4typeERSD_(ptr noundef nonnull align 8 dereferenceable(8) %_M_t) #3
  ret ptr %call
}

; Function Attrs: mustprogress nounwind uwtable
define linkonce_odr dso_local noundef nonnull align 1 dereferenceable(1) ptr @_ZSt3getILm1EJPNSt7__cxx1112basic_stringIcSt11char_traitsIcESaIcEEESt14default_deleteIS5_EEERNSt13tuple_elementIXT_ESt5tupleIJDpT0_EEE4typeERSD_(ptr noundef nonnull align 8 dereferenceable(8) %__t) #5 comdat {
entry:
  %__t.addr = alloca ptr, align 8
  store ptr %__t, ptr %__t.addr, align 8
  %0 = load ptr, ptr %__t.addr, align 8
  %call = call noundef nonnull align 1 dereferenceable(1) ptr @_ZSt12__get_helperILm1ESt14default_deleteINSt7__cxx1112basic_stringIcSt11char_traitsIcESaIcEEEEJEERT0_RSt11_Tuple_implIXT_EJS8_DpT1_EE(ptr noundef nonnull align 1 dereferenceable(1) %0) #3
  ret ptr %call
}

; Function Attrs: mustprogress nounwind uwtable
define linkonce_odr dso_local noundef nonnull align 1 dereferenceable(1) ptr @_ZSt12__get_helperILm1ESt14default_deleteINSt7__cxx1112basic_stringIcSt11char_traitsIcESaIcEEEEJEERT0_RSt11_Tuple_implIXT_EJS8_DpT1_EE(ptr noundef nonnull align 1 dereferenceable(1) %__t) #5 comdat {
entry:
  %__t.addr = alloca ptr, align 8
  store ptr %__t, ptr %__t.addr, align 8
  %0 = load ptr, ptr %__t.addr, align 8
  %call = call noundef nonnull align 1 dereferenceable(1) ptr @_ZNSt11_Tuple_implILm1EJSt14default_deleteINSt7__cxx1112basic_stringIcSt11char_traitsIcESaIcEEEEEE7_M_headERS8_(ptr noundef nonnull align 1 dereferenceable(1) %0) #3
  ret ptr %call
}

; Function Attrs: mustprogress nounwind uwtable
define linkonce_odr dso_local noundef nonnull align 1 dereferenceable(1) ptr @_ZNSt11_Tuple_implILm1EJSt14default_deleteINSt7__cxx1112basic_stringIcSt11char_traitsIcESaIcEEEEEE7_M_headERS8_(ptr noundef nonnull align 1 dereferenceable(1) %__t) #5 comdat align 2 {
entry:
  %__t.addr = alloca ptr, align 8
  store ptr %__t, ptr %__t.addr, align 8
  %0 = load ptr, ptr %__t.addr, align 8
  %call = call noundef nonnull align 1 dereferenceable(1) ptr @_ZNSt10_Head_baseILm1ESt14default_deleteINSt7__cxx1112basic_stringIcSt11char_traitsIcESaIcEEEELb1EE7_M_headERS8_(ptr noundef nonnull align 1 dereferenceable(1) %0) #3
  ret ptr %call
}

; Function Attrs: mustprogress nounwind uwtable
define linkonce_odr dso_local noundef nonnull align 1 dereferenceable(1) ptr @_ZNSt10_Head_baseILm1ESt14default_deleteINSt7__cxx1112basic_stringIcSt11char_traitsIcESaIcEEEELb1EE7_M_headERS8_(ptr noundef nonnull align 1 dereferenceable(1) %__b) #5 comdat align 2 {
entry:
  %__b.addr = alloca ptr, align 8
  store ptr %__b, ptr %__b.addr, align 8
  %0 = load ptr, ptr %__b.addr, align 8
  ret ptr %0
}

; Function Attrs: mustprogress uwtable
define linkonce_odr dso_local void @_ZSt4fillIPmiEvT_S1_RKT0_(ptr noundef %__first, ptr noundef %__last, ptr noundef nonnull align 4 dereferenceable(4) %__value) #4 comdat {
entry:
  %__first.addr = alloca ptr, align 8
  %__last.addr = alloca ptr, align 8
  %__value.addr = alloca ptr, align 8
  store ptr %__first, ptr %__first.addr, align 8
  store ptr %__last, ptr %__last.addr, align 8
  store ptr %__value, ptr %__value.addr, align 8
  %0 = load ptr, ptr %__first.addr, align 8
  %1 = load ptr, ptr %__last.addr, align 8
  %2 = load ptr, ptr %__value.addr, align 8
  call void @_ZSt8__fill_aIPmiEvT_S1_RKT0_(ptr noundef %0, ptr noundef %1, ptr noundef nonnull align 4 dereferenceable(4) %2)
  ret void
}

; Function Attrs: mustprogress uwtable
define linkonce_odr dso_local void @_ZSt4fillIPmmEvT_S1_RKT0_(ptr noundef %__first, ptr noundef %__last, ptr noundef nonnull align 8 dereferenceable(8) %__value) #4 comdat {
entry:
  %__first.addr = alloca ptr, align 8
  %__last.addr = alloca ptr, align 8
  %__value.addr = alloca ptr, align 8
  store ptr %__first, ptr %__first.addr, align 8
  store ptr %__last, ptr %__last.addr, align 8
  store ptr %__value, ptr %__value.addr, align 8
  %0 = load ptr, ptr %__first.addr, align 8
  %1 = load ptr, ptr %__last.addr, align 8
  %2 = load ptr, ptr %__value.addr, align 8
  call void @_ZSt8__fill_aIPmmEvT_S1_RKT0_(ptr noundef %0, ptr noundef %1, ptr noundef nonnull align 8 dereferenceable(8) %2)
  ret void
}

; Function Attrs: mustprogress uwtable
define linkonce_odr dso_local void @_ZSt8__fill_aIPmiEvT_S1_RKT0_(ptr noundef %__first, ptr noundef %__last, ptr noundef nonnull align 4 dereferenceable(4) %__value) #4 comdat {
entry:
  %__first.addr = alloca ptr, align 8
  %__last.addr = alloca ptr, align 8
  %__value.addr = alloca ptr, align 8
  store ptr %__first, ptr %__first.addr, align 8
  store ptr %__last, ptr %__last.addr, align 8
  store ptr %__value, ptr %__value.addr, align 8
  %0 = load ptr, ptr %__first.addr, align 8
  %1 = load ptr, ptr %__last.addr, align 8
  %2 = load ptr, ptr %__value.addr, align 8
  call void @_ZSt9__fill_a1IPmiEN9__gnu_cxx11__enable_ifIXsr11__is_scalarIT0_EE7__valueEvE6__typeET_S6_RKS3_(ptr noundef %0, ptr noundef %1, ptr noundef nonnull align 4 dereferenceable(4) %2)
  ret void
}

; Function Attrs: mustprogress nounwind uwtable
define linkonce_odr dso_local void @_ZSt9__fill_a1IPmiEN9__gnu_cxx11__enable_ifIXsr11__is_scalarIT0_EE7__valueEvE6__typeET_S6_RKS3_(ptr noundef %__first, ptr noundef %__last, ptr noundef nonnull align 4 dereferenceable(4) %__value) #5 comdat {
entry:
  %__first.addr = alloca ptr, align 8
  %__last.addr = alloca ptr, align 8
  %__value.addr = alloca ptr, align 8
  %__tmp = alloca i32, align 4
  store ptr %__first, ptr %__first.addr, align 8
  store ptr %__last, ptr %__last.addr, align 8
  store ptr %__value, ptr %__value.addr, align 8
  %0 = load ptr, ptr %__value.addr, align 8
  %1 = load i32, ptr %0, align 4
  store i32 %1, ptr %__tmp, align 4
  br label %for.cond

for.cond:                                         ; preds = %for.inc, %entry
  %2 = load ptr, ptr %__first.addr, align 8
  %3 = load ptr, ptr %__last.addr, align 8
  %cmp = icmp ne ptr %2, %3
  br i1 %cmp, label %for.body, label %for.end

for.body:                                         ; preds = %for.cond
  %4 = load i32, ptr %__tmp, align 4
  %conv = sext i32 %4 to i64
  %5 = load ptr, ptr %__first.addr, align 8
  store i64 %conv, ptr %5, align 8
  br label %for.inc

for.inc:                                          ; preds = %for.body
  %6 = load ptr, ptr %__first.addr, align 8
  %incdec.ptr = getelementptr inbounds i64, ptr %6, i32 1
  store ptr %incdec.ptr, ptr %__first.addr, align 8
  br label %for.cond, !llvm.loop !5

for.end:                                          ; preds = %for.cond
  ret void
}

; Function Attrs: mustprogress uwtable
define linkonce_odr dso_local void @_ZSt8__fill_aIPmmEvT_S1_RKT0_(ptr noundef %__first, ptr noundef %__last, ptr noundef nonnull align 8 dereferenceable(8) %__value) #4 comdat {
entry:
  %__first.addr = alloca ptr, align 8
  %__last.addr = alloca ptr, align 8
  %__value.addr = alloca ptr, align 8
  store ptr %__first, ptr %__first.addr, align 8
  store ptr %__last, ptr %__last.addr, align 8
  store ptr %__value, ptr %__value.addr, align 8
  %0 = load ptr, ptr %__first.addr, align 8
  %1 = load ptr, ptr %__last.addr, align 8
  %2 = load ptr, ptr %__value.addr, align 8
  call void @_ZSt9__fill_a1IPmmEN9__gnu_cxx11__enable_ifIXsr11__is_scalarIT0_EE7__valueEvE6__typeET_S6_RKS3_(ptr noundef %0, ptr noundef %1, ptr noundef nonnull align 8 dereferenceable(8) %2)
  ret void
}

; Function Attrs: mustprogress nounwind uwtable
define linkonce_odr dso_local void @_ZSt9__fill_a1IPmmEN9__gnu_cxx11__enable_ifIXsr11__is_scalarIT0_EE7__valueEvE6__typeET_S6_RKS3_(ptr noundef %__first, ptr noundef %__last, ptr noundef nonnull align 8 dereferenceable(8) %__value) #5 comdat {
entry:
  %__first.addr = alloca ptr, align 8
  %__last.addr = alloca ptr, align 8
  %__value.addr = alloca ptr, align 8
  %__tmp = alloca i64, align 8
  store ptr %__first, ptr %__first.addr, align 8
  store ptr %__last, ptr %__last.addr, align 8
  store ptr %__value, ptr %__value.addr, align 8
  %0 = load ptr, ptr %__value.addr, align 8
  %1 = load i64, ptr %0, align 8
  store i64 %1, ptr %__tmp, align 8
  br label %for.cond

for.cond:                                         ; preds = %for.inc, %entry
  %2 = load ptr, ptr %__first.addr, align 8
  %3 = load ptr, ptr %__last.addr, align 8
  %cmp = icmp ne ptr %2, %3
  br i1 %cmp, label %for.body, label %for.end

for.body:                                         ; preds = %for.cond
  %4 = load i64, ptr %__tmp, align 8
  %5 = load ptr, ptr %__first.addr, align 8
  store i64 %4, ptr %5, align 8
  br label %for.inc

for.inc:                                          ; preds = %for.body
  %6 = load ptr, ptr %__first.addr, align 8
  %incdec.ptr = getelementptr inbounds i64, ptr %6, i32 1
  store ptr %incdec.ptr, ptr %__first.addr, align 8
  br label %for.cond, !llvm.loop !7

for.end:                                          ; preds = %for.cond
  ret void
}

; Function Attrs: mustprogress nounwind uwtable
define internal void @_ZN7testing8internal15TestFactoryImplIN12_GLOBAL__N_142RandenTest_VerifyGoldenRanden64Seeded_TestEED2Ev(ptr noundef nonnull align 8 dereferenceable(8) %this) unnamed_addr #5 align 2 {
entry:
  %this.addr = alloca ptr, align 8
  store ptr %this, ptr %this.addr, align 8
  %this1 = load ptr, ptr %this.addr, align 8
  call void @_ZN7testing8internal15TestFactoryBaseD2Ev(ptr noundef nonnull align 8 dereferenceable(8) %this1) #3
  ret void
}

; Function Attrs: mustprogress nounwind uwtable
define internal void @_ZN7testing8internal15TestFactoryImplIN12_GLOBAL__N_142RandenTest_VerifyGoldenRanden64Seeded_TestEED0Ev(ptr noundef nonnull align 8 dereferenceable(8) %this) unnamed_addr #5 align 2 {
entry:
  %this.addr = alloca ptr, align 8
  store ptr %this, ptr %this.addr, align 8
  %this1 = load ptr, ptr %this.addr, align 8
  call void @_ZN7testing8internal15TestFactoryImplIN12_GLOBAL__N_142RandenTest_VerifyGoldenRanden64Seeded_TestEED2Ev(ptr noundef nonnull align 8 dereferenceable(8) %this1) #3
  call void @_ZdlPv(ptr noundef %this1) #18
  ret void
}

; Function Attrs: mustprogress uwtable
define internal noundef ptr @_ZN7testing8internal15TestFactoryImplIN12_GLOBAL__N_142RandenTest_VerifyGoldenRanden64Seeded_TestEE10CreateTestEv(ptr noundef nonnull align 8 dereferenceable(8) %this) unnamed_addr #4 align 2 personality ptr @__gxx_personality_v0 {
entry:
  %this.addr = alloca ptr, align 8
  %exn.slot = alloca ptr, align 8
  %ehselector.slot = alloca i32, align 4
  store ptr %this, ptr %this.addr, align 8
  %call = call noalias noundef nonnull ptr @_Znwm(i64 noundef 16) #17
  invoke void @_ZN12_GLOBAL__N_142RandenTest_VerifyGoldenRanden64Seeded_TestC2Ev(ptr noundef nonnull align 8 dereferenceable(16) %call)
          to label %invoke.cont unwind label %lpad

invoke.cont:                                      ; preds = %entry
  ret ptr %call

lpad:                                             ; preds = %entry
  %0 = landingpad { ptr, i32 }
          cleanup
  %1 = extractvalue { ptr, i32 } %0, 0
  store ptr %1, ptr %exn.slot, align 8
  %2 = extractvalue { ptr, i32 } %0, 1
  store i32 %2, ptr %ehselector.slot, align 4
  call void @_ZdlPv(ptr noundef %call) #18
  br label %eh.resume

eh.resume:                                        ; preds = %lpad
  %exn = load ptr, ptr %exn.slot, align 8
  %sel = load i32, ptr %ehselector.slot, align 4
  %lpad.val = insertvalue { ptr, i32 } poison, ptr %exn, 0
  %lpad.val2 = insertvalue { ptr, i32 } %lpad.val, i32 %sel, 1
  resume { ptr, i32 } %lpad.val2
}

; Function Attrs: mustprogress uwtable
define internal void @_ZN12_GLOBAL__N_142RandenTest_VerifyGoldenRanden64Seeded_TestC2Ev(ptr noundef nonnull align 8 dereferenceable(16) %this) unnamed_addr #4 align 2 {
entry:
  %this.addr = alloca ptr, align 8
  store ptr %this, ptr %this.addr, align 8
  %this1 = load ptr, ptr %this.addr, align 8
  call void @_ZN7testing4TestC2Ev(ptr noundef nonnull align 8 dereferenceable(16) %this1)
  store ptr getelementptr inbounds ({ [8 x ptr] }, ptr @_ZTVN12_GLOBAL__N_142RandenTest_VerifyGoldenRanden64Seeded_TestE, i32 0, inrange i32 0, i32 2), ptr %this1, align 8
  ret void
}

; Function Attrs: mustprogress nounwind uwtable
define internal void @_ZN12_GLOBAL__N_142RandenTest_VerifyGoldenRanden64Seeded_TestD2Ev(ptr noundef nonnull align 8 dereferenceable(16) %this) unnamed_addr #5 align 2 {
entry:
  %this.addr = alloca ptr, align 8
  store ptr %this, ptr %this.addr, align 8
  %this1 = load ptr, ptr %this.addr, align 8
  call void @_ZN7testing4TestD2Ev(ptr noundef nonnull align 8 dereferenceable(16) %this1) #3
  ret void
}

; Function Attrs: mustprogress nounwind uwtable
define internal void @_ZN12_GLOBAL__N_142RandenTest_VerifyGoldenRanden64Seeded_TestD0Ev(ptr noundef nonnull align 8 dereferenceable(16) %this) unnamed_addr #5 align 2 {
entry:
  %this.addr = alloca ptr, align 8
  store ptr %this, ptr %this.addr, align 8
  %this1 = load ptr, ptr %this.addr, align 8
  call void @_ZN12_GLOBAL__N_142RandenTest_VerifyGoldenRanden64Seeded_TestD2Ev(ptr noundef nonnull align 8 dereferenceable(16) %this1) #3
  call void @_ZdlPv(ptr noundef %this1) #18
  ret void
}

; Function Attrs: mustprogress uwtable
define internal void @_ZN12_GLOBAL__N_142RandenTest_VerifyGoldenRanden64Seeded_Test8TestBodyEv(ptr noundef nonnull align 8 dereferenceable(16) %this) unnamed_addr #4 align 2 personality ptr @__gxx_personality_v0 {
entry:
  %this.addr = alloca ptr, align 8
  %kGolden = alloca [127 x i64], align 16
  %seed_sequence = alloca %"class.absl::random_internal::ExplicitSeedSeq", align 8
  %agg.tmp = alloca %"class.std::initializer_list", align 8
  %ref.tmp = alloca [3 x i32], align 4
  %engine = alloca %"class.absl::random_internal::randen_engine", align 8
  %exn.slot = alloca ptr, align 8
  %ehselector.slot = alloca i32, align 4
  %__range1 = alloca ptr, align 8
  %__begin1 = alloca ptr, align 8
  %__end1 = alloca ptr, align 8
  %elem = alloca ptr, align 8
  %gtest_ar = alloca %"class.testing::AssertionResult", align 8
  %ref.tmp4 = alloca i64, align 8
  %ref.tmp8 = alloca %"class.testing::Message", align 8
  %ref.tmp11 = alloca %"class.testing::internal::AssertHelper", align 8
  %__range120 = alloca ptr, align 8
  %__begin121 = alloca ptr, align 8
  %__end123 = alloca ptr, align 8
  %elem29 = alloca ptr, align 8
  %gtest_ar30 = alloca %"class.testing::AssertionResult", align 8
  %ref.tmp31 = alloca i64, align 8
  %ref.tmp38 = alloca %"class.testing::Message", align 8
  %ref.tmp41 = alloca %"class.testing::internal::AssertHelper", align 8
  store ptr %this, ptr %this.addr, align 8
  call void @llvm.memcpy.p0.p0.i64(ptr align 16 %kGolden, ptr align 16 @__const._ZN12_GLOBAL__N_142RandenTest_VerifyGoldenRanden64Seeded_Test8TestBodyEv.kGolden, i64 1016, i1 false)
  %arrayinit.begin = getelementptr inbounds [3 x i32], ptr %ref.tmp, i64 0, i64 0
  store i32 12, ptr %arrayinit.begin, align 4
  %arrayinit.element = getelementptr inbounds i32, ptr %arrayinit.begin, i64 1
  store i32 34, ptr %arrayinit.element, align 4
  %arrayinit.element2 = getelementptr inbounds i32, ptr %arrayinit.element, i64 1
  store i32 56, ptr %arrayinit.element2, align 4
  %_M_array = getelementptr inbounds %"class.std::initializer_list", ptr %agg.tmp, i32 0, i32 0
  %arraystart = getelementptr inbounds [3 x i32], ptr %ref.tmp, i64 0, i64 0
  store ptr %arraystart, ptr %_M_array, align 8
  %_M_len = getelementptr inbounds %"class.std::initializer_list", ptr %agg.tmp, i32 0, i32 1
  store i64 3, ptr %_M_len, align 8
  %0 = getelementptr inbounds { ptr, i64 }, ptr %agg.tmp, i32 0, i32 0
  %1 = load ptr, ptr %0, align 8
  %2 = getelementptr inbounds { ptr, i64 }, ptr %agg.tmp, i32 0, i32 1
  %3 = load i64, ptr %2, align 8
  call void @_ZN4absl15random_internal15ExplicitSeedSeqC2IiEESt16initializer_listIT_E(ptr noundef nonnull align 8 dereferenceable(24) %seed_sequence, ptr %1, i64 %3)
  invoke void @_ZN4absl15random_internal13randen_engineImEC2IRNS0_15ExplicitSeedSeqEvEEOT_(ptr noundef nonnull align 8 dereferenceable(288) %engine, ptr noundef nonnull align 8 dereferenceable(24) %seed_sequence)
          to label %invoke.cont unwind label %lpad

invoke.cont:                                      ; preds = %entry
  store ptr %kGolden, ptr %__range1, align 8
  %4 = load ptr, ptr %__range1, align 8
  %arraydecay = getelementptr inbounds [127 x i64], ptr %4, i64 0, i64 0
  store ptr %arraydecay, ptr %__begin1, align 8
  %5 = load ptr, ptr %__range1, align 8
  %arraydecay3 = getelementptr inbounds [127 x i64], ptr %5, i64 0, i64 0
  %add.ptr = getelementptr inbounds i64, ptr %arraydecay3, i64 127
  store ptr %add.ptr, ptr %__end1, align 8
  br label %for.cond

for.cond:                                         ; preds = %for.inc, %invoke.cont
  %6 = load ptr, ptr %__begin1, align 8
  %7 = load ptr, ptr %__end1, align 8
  %cmp = icmp ne ptr %6, %7
  br i1 %cmp, label %for.body, label %for.end

for.body:                                         ; preds = %for.cond
  %8 = load ptr, ptr %__begin1, align 8
  store ptr %8, ptr %elem, align 8
  %9 = load ptr, ptr %elem, align 8
  %call = invoke noundef i64 @_ZN4absl15random_internal13randen_engineImEclEv(ptr noundef nonnull align 8 dereferenceable(288) %engine)
          to label %invoke.cont5 unwind label %lpad

invoke.cont5:                                     ; preds = %for.body
  store i64 %call, ptr %ref.tmp4, align 8
  invoke void @_ZN7testing8internal8EqHelper7CompareImmTnPNSt9enable_ifIXoontsr3std11is_integralIT_EE5valuentsr3std10is_pointerIT0_EE5valueEvE4typeELPv0EEENS_15AssertionResultEPKcSC_RKS4_RKS5_(ptr sret(%"class.testing::AssertionResult") align 8 %gtest_ar, ptr noundef @.str.28, ptr noundef @.str.29, ptr noundef nonnull align 8 dereferenceable(8) %9, ptr noundef nonnull align 8 dereferenceable(8) %ref.tmp4)
          to label %invoke.cont6 unwind label %lpad

invoke.cont6:                                     ; preds = %invoke.cont5
  %call7 = call noundef zeroext i1 @_ZNK7testing15AssertionResultcvbEv(ptr noundef nonnull align 8 dereferenceable(16) %gtest_ar)
  br i1 %call7, label %if.then, label %if.else

if.then:                                          ; preds = %invoke.cont6
  br label %if.end

lpad:                                             ; preds = %invoke.cont32, %for.body28, %for.end, %invoke.cont5, %for.body, %entry
  %10 = landingpad { ptr, i32 }
          cleanup
  %11 = extractvalue { ptr, i32 } %10, 0
  store ptr %11, ptr %exn.slot, align 8
  %12 = extractvalue { ptr, i32 } %10, 1
  store i32 %12, ptr %ehselector.slot, align 4
  br label %ehcleanup55

if.else:                                          ; preds = %invoke.cont6
  invoke void @_ZN7testing7MessageC1Ev(ptr noundef nonnull align 8 dereferenceable(8) %ref.tmp8)
          to label %invoke.cont10 unwind label %lpad9

invoke.cont10:                                    ; preds = %if.else
  %call14 = invoke noundef ptr @_ZNK7testing15AssertionResult15failure_messageEv(ptr noundef nonnull align 8 dereferenceable(16) %gtest_ar)
          to label %invoke.cont13 unwind label %lpad12

invoke.cont13:                                    ; preds = %invoke.cont10
  invoke void @_ZN7testing8internal12AssertHelperC1ENS_14TestPartResult4TypeEPKciS5_(ptr noundef nonnull align 8 dereferenceable(8) %ref.tmp11, i32 noundef 1, ptr noundef @.str.2, i32 noundef 400, ptr noundef %call14)
          to label %invoke.cont15 unwind label %lpad12

invoke.cont15:                                    ; preds = %invoke.cont13
  invoke void @_ZNK7testing8internal12AssertHelperaSERKNS_7MessageE(ptr noundef nonnull align 8 dereferenceable(8) %ref.tmp11, ptr noundef nonnull align 8 dereferenceable(8) %ref.tmp8)
          to label %invoke.cont17 unwind label %lpad16

invoke.cont17:                                    ; preds = %invoke.cont15
  call void @_ZN7testing8internal12AssertHelperD1Ev(ptr noundef nonnull align 8 dereferenceable(8) %ref.tmp11) #3
  call void @_ZN7testing7MessageD2Ev(ptr noundef nonnull align 8 dereferenceable(8) %ref.tmp8) #3
  br label %if.end

lpad9:                                            ; preds = %if.else
  %13 = landingpad { ptr, i32 }
          cleanup
  %14 = extractvalue { ptr, i32 } %13, 0
  store ptr %14, ptr %exn.slot, align 8
  %15 = extractvalue { ptr, i32 } %13, 1
  store i32 %15, ptr %ehselector.slot, align 4
  br label %ehcleanup18

lpad12:                                           ; preds = %invoke.cont13, %invoke.cont10
  %16 = landingpad { ptr, i32 }
          cleanup
  %17 = extractvalue { ptr, i32 } %16, 0
  store ptr %17, ptr %exn.slot, align 8
  %18 = extractvalue { ptr, i32 } %16, 1
  store i32 %18, ptr %ehselector.slot, align 4
  br label %ehcleanup

lpad16:                                           ; preds = %invoke.cont15
  %19 = landingpad { ptr, i32 }
          cleanup
  %20 = extractvalue { ptr, i32 } %19, 0
  store ptr %20, ptr %exn.slot, align 8
  %21 = extractvalue { ptr, i32 } %19, 1
  store i32 %21, ptr %ehselector.slot, align 4
  call void @_ZN7testing8internal12AssertHelperD1Ev(ptr noundef nonnull align 8 dereferenceable(8) %ref.tmp11) #3
  br label %ehcleanup

ehcleanup:                                        ; preds = %lpad16, %lpad12
  call void @_ZN7testing7MessageD2Ev(ptr noundef nonnull align 8 dereferenceable(8) %ref.tmp8) #3
  br label %ehcleanup18

if.end:                                           ; preds = %invoke.cont17, %if.then
  call void @_ZN7testing15AssertionResultD2Ev(ptr noundef nonnull align 8 dereferenceable(16) %gtest_ar) #3
  br label %for.inc

for.inc:                                          ; preds = %if.end
  %22 = load ptr, ptr %__begin1, align 8
  %incdec.ptr = getelementptr inbounds i64, ptr %22, i32 1
  store ptr %incdec.ptr, ptr %__begin1, align 8
  br label %for.cond

ehcleanup18:                                      ; preds = %ehcleanup, %lpad9
  call void @_ZN7testing15AssertionResultD2Ev(ptr noundef nonnull align 8 dereferenceable(16) %gtest_ar) #3
  br label %ehcleanup55

for.end:                                          ; preds = %for.cond
  invoke void @_ZN4absl15random_internal13randen_engineImE4seedIRNS0_15ExplicitSeedSeqEEENSt9enable_ifIXntsr3std14is_convertibleIT_mEE5valueEvE4typeEOS7_(ptr noundef nonnull align 8 dereferenceable(288) %engine, ptr noundef nonnull align 8 dereferenceable(24) %seed_sequence)
          to label %invoke.cont19 unwind label %lpad

invoke.cont19:                                    ; preds = %for.end
  store ptr %kGolden, ptr %__range120, align 8
  %23 = load ptr, ptr %__range120, align 8
  %arraydecay22 = getelementptr inbounds [127 x i64], ptr %23, i64 0, i64 0
  store ptr %arraydecay22, ptr %__begin121, align 8
  %24 = load ptr, ptr %__range120, align 8
  %arraydecay24 = getelementptr inbounds [127 x i64], ptr %24, i64 0, i64 0
  %add.ptr25 = getelementptr inbounds i64, ptr %arraydecay24, i64 127
  store ptr %add.ptr25, ptr %__end123, align 8
  br label %for.cond26

for.cond26:                                       ; preds = %for.inc52, %invoke.cont19
  %25 = load ptr, ptr %__begin121, align 8
  %26 = load ptr, ptr %__end123, align 8
  %cmp27 = icmp ne ptr %25, %26
  br i1 %cmp27, label %for.body28, label %for.end54

for.body28:                                       ; preds = %for.cond26
  %27 = load ptr, ptr %__begin121, align 8
  store ptr %27, ptr %elem29, align 8
  %28 = load ptr, ptr %elem29, align 8
  %call33 = invoke noundef i64 @_ZN4absl15random_internal13randen_engineImEclEv(ptr noundef nonnull align 8 dereferenceable(288) %engine)
          to label %invoke.cont32 unwind label %lpad

invoke.cont32:                                    ; preds = %for.body28
  store i64 %call33, ptr %ref.tmp31, align 8
  invoke void @_ZN7testing8internal8EqHelper7CompareImmTnPNSt9enable_ifIXoontsr3std11is_integralIT_EE5valuentsr3std10is_pointerIT0_EE5valueEvE4typeELPv0EEENS_15AssertionResultEPKcSC_RKS4_RKS5_(ptr sret(%"class.testing::AssertionResult") align 8 %gtest_ar30, ptr noundef @.str.28, ptr noundef @.str.29, ptr noundef nonnull align 8 dereferenceable(8) %28, ptr noundef nonnull align 8 dereferenceable(8) %ref.tmp31)
          to label %invoke.cont34 unwind label %lpad

invoke.cont34:                                    ; preds = %invoke.cont32
  %call35 = call noundef zeroext i1 @_ZNK7testing15AssertionResultcvbEv(ptr noundef nonnull align 8 dereferenceable(16) %gtest_ar30)
  br i1 %call35, label %if.then36, label %if.else37

if.then36:                                        ; preds = %invoke.cont34
  br label %if.end50

if.else37:                                        ; preds = %invoke.cont34
  invoke void @_ZN7testing7MessageC1Ev(ptr noundef nonnull align 8 dereferenceable(8) %ref.tmp38)
          to label %invoke.cont40 unwind label %lpad39

invoke.cont40:                                    ; preds = %if.else37
  %call44 = invoke noundef ptr @_ZNK7testing15AssertionResult15failure_messageEv(ptr noundef nonnull align 8 dereferenceable(16) %gtest_ar30)
          to label %invoke.cont43 unwind label %lpad42

invoke.cont43:                                    ; preds = %invoke.cont40
  invoke void @_ZN7testing8internal12AssertHelperC1ENS_14TestPartResult4TypeEPKciS5_(ptr noundef nonnull align 8 dereferenceable(8) %ref.tmp41, i32 noundef 1, ptr noundef @.str.2, i32 noundef 404, ptr noundef %call44)
          to label %invoke.cont45 unwind label %lpad42

invoke.cont45:                                    ; preds = %invoke.cont43
  invoke void @_ZNK7testing8internal12AssertHelperaSERKNS_7MessageE(ptr noundef nonnull align 8 dereferenceable(8) %ref.tmp41, ptr noundef nonnull align 8 dereferenceable(8) %ref.tmp38)
          to label %invoke.cont47 unwind label %lpad46

invoke.cont47:                                    ; preds = %invoke.cont45
  call void @_ZN7testing8internal12AssertHelperD1Ev(ptr noundef nonnull align 8 dereferenceable(8) %ref.tmp41) #3
  call void @_ZN7testing7MessageD2Ev(ptr noundef nonnull align 8 dereferenceable(8) %ref.tmp38) #3
  br label %if.end50

lpad39:                                           ; preds = %if.else37
  %29 = landingpad { ptr, i32 }
          cleanup
  %30 = extractvalue { ptr, i32 } %29, 0
  store ptr %30, ptr %exn.slot, align 8
  %31 = extractvalue { ptr, i32 } %29, 1
  store i32 %31, ptr %ehselector.slot, align 4
  br label %ehcleanup51

lpad42:                                           ; preds = %invoke.cont43, %invoke.cont40
  %32 = landingpad { ptr, i32 }
          cleanup
  %33 = extractvalue { ptr, i32 } %32, 0
  store ptr %33, ptr %exn.slot, align 8
  %34 = extractvalue { ptr, i32 } %32, 1
  store i32 %34, ptr %ehselector.slot, align 4
  br label %ehcleanup49

lpad46:                                           ; preds = %invoke.cont45
  %35 = landingpad { ptr, i32 }
          cleanup
  %36 = extractvalue { ptr, i32 } %35, 0
  store ptr %36, ptr %exn.slot, align 8
  %37 = extractvalue { ptr, i32 } %35, 1
  store i32 %37, ptr %ehselector.slot, align 4
  call void @_ZN7testing8internal12AssertHelperD1Ev(ptr noundef nonnull align 8 dereferenceable(8) %ref.tmp41) #3
  br label %ehcleanup49

ehcleanup49:                                      ; preds = %lpad46, %lpad42
  call void @_ZN7testing7MessageD2Ev(ptr noundef nonnull align 8 dereferenceable(8) %ref.tmp38) #3
  br label %ehcleanup51

if.end50:                                         ; preds = %invoke.cont47, %if.then36
  call void @_ZN7testing15AssertionResultD2Ev(ptr noundef nonnull align 8 dereferenceable(16) %gtest_ar30) #3
  br label %for.inc52

for.inc52:                                        ; preds = %if.end50
  %38 = load ptr, ptr %__begin121, align 8
  %incdec.ptr53 = getelementptr inbounds i64, ptr %38, i32 1
  store ptr %incdec.ptr53, ptr %__begin121, align 8
  br label %for.cond26

ehcleanup51:                                      ; preds = %ehcleanup49, %lpad39
  call void @_ZN7testing15AssertionResultD2Ev(ptr noundef nonnull align 8 dereferenceable(16) %gtest_ar30) #3
  br label %ehcleanup55

for.end54:                                        ; preds = %for.cond26
  call void @_ZN4absl15random_internal15ExplicitSeedSeqD2Ev(ptr noundef nonnull align 8 dereferenceable(24) %seed_sequence) #3
  ret void

ehcleanup55:                                      ; preds = %ehcleanup51, %ehcleanup18, %lpad
  call void @_ZN4absl15random_internal15ExplicitSeedSeqD2Ev(ptr noundef nonnull align 8 dereferenceable(24) %seed_sequence) #3
  br label %eh.resume

eh.resume:                                        ; preds = %ehcleanup55
  %exn = load ptr, ptr %exn.slot, align 8
  %sel = load i32, ptr %ehselector.slot, align 4
  %lpad.val = insertvalue { ptr, i32 } poison, ptr %exn, 0
  %lpad.val56 = insertvalue { ptr, i32 } %lpad.val, i32 %sel, 1
  resume { ptr, i32 } %lpad.val56
}

; Function Attrs: mustprogress uwtable
define linkonce_odr dso_local void @_ZN4absl15random_internal15ExplicitSeedSeqC2IiEESt16initializer_listIT_E(ptr noundef nonnull align 8 dereferenceable(24) %this, ptr %il.coerce0, i64 %il.coerce1) unnamed_addr #4 comdat align 2 {
entry:
  %il = alloca %"class.std::initializer_list", align 8
  %this.addr = alloca ptr, align 8
  %0 = getelementptr inbounds { ptr, i64 }, ptr %il, i32 0, i32 0
  store ptr %il.coerce0, ptr %0, align 8
  %1 = getelementptr inbounds { ptr, i64 }, ptr %il, i32 0, i32 1
  store i64 %il.coerce1, ptr %1, align 8
  store ptr %this, ptr %this.addr, align 8
  %this1 = load ptr, ptr %this.addr, align 8
  %call = call noundef ptr @_ZNKSt16initializer_listIiE5beginEv(ptr noundef nonnull align 8 dereferenceable(16) %il) #3
  %call2 = call noundef ptr @_ZNKSt16initializer_listIiE3endEv(ptr noundef nonnull align 8 dereferenceable(16) %il) #3
  call void @_ZN4absl15random_internal15ExplicitSeedSeqC2IPKiEET_S5_(ptr noundef nonnull align 8 dereferenceable(24) %this1, ptr noundef %call, ptr noundef %call2)
  ret void
}

; Function Attrs: mustprogress uwtable
define linkonce_odr dso_local void @_ZN4absl15random_internal13randen_engineImEC2IRNS0_15ExplicitSeedSeqEvEEOT_(ptr noundef nonnull align 8 dereferenceable(288) %this, ptr noundef nonnull align 8 dereferenceable(24) %seq) unnamed_addr #4 comdat align 2 {
entry:
  %this.addr = alloca ptr, align 8
  %seq.addr = alloca ptr, align 8
  store ptr %this, ptr %this.addr, align 8
  store ptr %seq, ptr %seq.addr, align 8
  %this1 = load ptr, ptr %this.addr, align 8
  %impl_ = getelementptr inbounds %"class.absl::random_internal::randen_engine", ptr %this1, i32 0, i32 2
  call void @_ZN4absl15random_internal6RandenC1Ev(ptr noundef nonnull align 8 dereferenceable(9) %impl_)
  %0 = load ptr, ptr %seq.addr, align 8
  call void @_ZN4absl15random_internal13randen_engineImE4seedIRNS0_15ExplicitSeedSeqEEENSt9enable_ifIXntsr3std14is_convertibleIT_mEE5valueEvE4typeEOS7_(ptr noundef nonnull align 8 dereferenceable(288) %this1, ptr noundef nonnull align 8 dereferenceable(24) %0)
  ret void
}

; Function Attrs: mustprogress uwtable
define linkonce_odr dso_local void @_ZN4absl15random_internal13randen_engineImE4seedIRNS0_15ExplicitSeedSeqEEENSt9enable_ifIXntsr3std14is_convertibleIT_mEE5valueEvE4typeEOS7_(ptr noundef nonnull align 8 dereferenceable(288) %this, ptr noundef nonnull align 8 dereferenceable(24) %seq) #4 comdat align 2 {
entry:
  %this.addr = alloca ptr, align 8
  %seq.addr = alloca ptr, align 8
  store ptr %this, ptr %this.addr, align 8
  store ptr %seq, ptr %seq.addr, align 8
  %this1 = load ptr, ptr %this.addr, align 8
  call void @_ZN4absl15random_internal13randen_engineImE4seedEm(ptr noundef nonnull align 8 dereferenceable(288) %this1, i64 noundef 0)
  %0 = load ptr, ptr %seq.addr, align 8
  call void @_ZN4absl15random_internal13randen_engineImE6reseedINS0_15ExplicitSeedSeqEEEvRT_(ptr noundef nonnull align 8 dereferenceable(288) %this1, ptr noundef nonnull align 8 dereferenceable(24) %0)
  ret void
}

; Function Attrs: mustprogress nounwind uwtable
define linkonce_odr dso_local void @_ZN4absl15random_internal15ExplicitSeedSeqD2Ev(ptr noundef nonnull align 8 dereferenceable(24) %this) unnamed_addr #5 comdat align 2 {
entry:
  %this.addr = alloca ptr, align 8
  store ptr %this, ptr %this.addr, align 8
  %this1 = load ptr, ptr %this.addr, align 8
  %state_ = getelementptr inbounds %"class.absl::random_internal::ExplicitSeedSeq", ptr %this1, i32 0, i32 0
  call void @_ZNSt6vectorIjSaIjEED2Ev(ptr noundef nonnull align 8 dereferenceable(24) %state_) #3
  ret void
}

; Function Attrs: mustprogress nounwind uwtable
define linkonce_odr dso_local noundef ptr @_ZNKSt16initializer_listIiE5beginEv(ptr noundef nonnull align 8 dereferenceable(16) %this) #5 comdat align 2 {
entry:
  %this.addr = alloca ptr, align 8
  store ptr %this, ptr %this.addr, align 8
  %this1 = load ptr, ptr %this.addr, align 8
  %_M_array = getelementptr inbounds %"class.std::initializer_list", ptr %this1, i32 0, i32 0
  %0 = load ptr, ptr %_M_array, align 8
  ret ptr %0
}

; Function Attrs: mustprogress nounwind uwtable
define linkonce_odr dso_local noundef ptr @_ZNKSt16initializer_listIiE3endEv(ptr noundef nonnull align 8 dereferenceable(16) %this) #5 comdat align 2 {
entry:
  %this.addr = alloca ptr, align 8
  store ptr %this, ptr %this.addr, align 8
  %this1 = load ptr, ptr %this.addr, align 8
  %call = call noundef ptr @_ZNKSt16initializer_listIiE5beginEv(ptr noundef nonnull align 8 dereferenceable(16) %this1) #3
  %call2 = call noundef i64 @_ZNKSt16initializer_listIiE4sizeEv(ptr noundef nonnull align 8 dereferenceable(16) %this1) #3
  %add.ptr = getelementptr inbounds i32, ptr %call, i64 %call2
  ret ptr %add.ptr
}

; Function Attrs: mustprogress uwtable
define linkonce_odr dso_local void @_ZN4absl15random_internal15ExplicitSeedSeqC2IPKiEET_S5_(ptr noundef nonnull align 8 dereferenceable(24) %this, ptr noundef %begin, ptr noundef %end) unnamed_addr #4 comdat align 2 personality ptr @__gxx_personality_v0 {
entry:
  %this.addr = alloca ptr, align 8
  %begin.addr = alloca ptr, align 8
  %end.addr = alloca ptr, align 8
  %it = alloca ptr, align 8
  %ref.tmp = alloca i32, align 4
  %exn.slot = alloca ptr, align 8
  %ehselector.slot = alloca i32, align 4
  store ptr %this, ptr %this.addr, align 8
  store ptr %begin, ptr %begin.addr, align 8
  store ptr %end, ptr %end.addr, align 8
  %this1 = load ptr, ptr %this.addr, align 8
  %state_ = getelementptr inbounds %"class.absl::random_internal::ExplicitSeedSeq", ptr %this1, i32 0, i32 0
  call void @_ZNSt6vectorIjSaIjEEC2Ev(ptr noundef nonnull align 8 dereferenceable(24) %state_) #3
  %0 = load ptr, ptr %begin.addr, align 8
  store ptr %0, ptr %it, align 8
  br label %for.cond

for.cond:                                         ; preds = %for.inc, %entry
  %1 = load ptr, ptr %it, align 8
  %2 = load ptr, ptr %end.addr, align 8
  %cmp = icmp ne ptr %1, %2
  br i1 %cmp, label %for.body, label %for.end

for.body:                                         ; preds = %for.cond
  %state_2 = getelementptr inbounds %"class.absl::random_internal::ExplicitSeedSeq", ptr %this1, i32 0, i32 0
  %3 = load ptr, ptr %it, align 8
  %4 = load i32, ptr %3, align 4
  %and = and i32 %4, -1
  store i32 %and, ptr %ref.tmp, align 4
  invoke void @_ZNSt6vectorIjSaIjEE9push_backEOj(ptr noundef nonnull align 8 dereferenceable(24) %state_2, ptr noundef nonnull align 4 dereferenceable(4) %ref.tmp)
          to label %invoke.cont unwind label %lpad

invoke.cont:                                      ; preds = %for.body
  br label %for.inc

for.inc:                                          ; preds = %invoke.cont
  %5 = load ptr, ptr %it, align 8
  %incdec.ptr = getelementptr inbounds i32, ptr %5, i32 1
  store ptr %incdec.ptr, ptr %it, align 8
  br label %for.cond, !llvm.loop !8

lpad:                                             ; preds = %for.body
  %6 = landingpad { ptr, i32 }
          cleanup
  %7 = extractvalue { ptr, i32 } %6, 0
  store ptr %7, ptr %exn.slot, align 8
  %8 = extractvalue { ptr, i32 } %6, 1
  store i32 %8, ptr %ehselector.slot, align 4
  call void @_ZNSt6vectorIjSaIjEED2Ev(ptr noundef nonnull align 8 dereferenceable(24) %state_) #3
  br label %eh.resume

for.end:                                          ; preds = %for.cond
  ret void

eh.resume:                                        ; preds = %lpad
  %exn = load ptr, ptr %exn.slot, align 8
  %sel = load i32, ptr %ehselector.slot, align 4
  %lpad.val = insertvalue { ptr, i32 } poison, ptr %exn, 0
  %lpad.val3 = insertvalue { ptr, i32 } %lpad.val, i32 %sel, 1
  resume { ptr, i32 } %lpad.val3
}

; Function Attrs: mustprogress nounwind uwtable
define linkonce_odr dso_local noundef i64 @_ZNKSt16initializer_listIiE4sizeEv(ptr noundef nonnull align 8 dereferenceable(16) %this) #5 comdat align 2 {
entry:
  %this.addr = alloca ptr, align 8
  store ptr %this, ptr %this.addr, align 8
  %this1 = load ptr, ptr %this.addr, align 8
  %_M_len = getelementptr inbounds %"class.std::initializer_list", ptr %this1, i32 0, i32 1
  %0 = load i64, ptr %_M_len, align 8
  ret i64 %0
}

; Function Attrs: mustprogress nounwind uwtable
define linkonce_odr dso_local void @_ZNSt6vectorIjSaIjEEC2Ev(ptr noundef nonnull align 8 dereferenceable(24) %this) unnamed_addr #5 comdat align 2 {
entry:
  %this.addr = alloca ptr, align 8
  store ptr %this, ptr %this.addr, align 8
  %this1 = load ptr, ptr %this.addr, align 8
  call void @_ZNSt12_Vector_baseIjSaIjEEC2Ev(ptr noundef nonnull align 8 dereferenceable(24) %this1) #3
  ret void
}

; Function Attrs: mustprogress uwtable
define linkonce_odr dso_local void @_ZNSt6vectorIjSaIjEE9push_backEOj(ptr noundef nonnull align 8 dereferenceable(24) %this, ptr noundef nonnull align 4 dereferenceable(4) %__x) #4 comdat align 2 {
entry:
  %this.addr = alloca ptr, align 8
  %__x.addr = alloca ptr, align 8
  store ptr %this, ptr %this.addr, align 8
  store ptr %__x, ptr %__x.addr, align 8
  %this1 = load ptr, ptr %this.addr, align 8
  %0 = load ptr, ptr %__x.addr, align 8
  %call = call noundef nonnull align 4 dereferenceable(4) ptr @_ZNSt6vectorIjSaIjEE12emplace_backIJjEEERjDpOT_(ptr noundef nonnull align 8 dereferenceable(24) %this1, ptr noundef nonnull align 4 dereferenceable(4) %0)
  ret void
}

; Function Attrs: mustprogress nounwind uwtable
define linkonce_odr dso_local void @_ZNSt6vectorIjSaIjEED2Ev(ptr noundef nonnull align 8 dereferenceable(24) %this) unnamed_addr #5 comdat align 2 personality ptr @__gxx_personality_v0 {
entry:
  %this.addr = alloca ptr, align 8
  store ptr %this, ptr %this.addr, align 8
  %this1 = load ptr, ptr %this.addr, align 8
  %_M_impl = getelementptr inbounds %"struct.std::_Vector_base.29", ptr %this1, i32 0, i32 0
  %_M_start = getelementptr inbounds %"struct.std::_Vector_base<unsigned int, std::allocator<unsigned int>>::_Vector_impl_data", ptr %_M_impl, i32 0, i32 0
  %0 = load ptr, ptr %_M_start, align 8
  %_M_impl2 = getelementptr inbounds %"struct.std::_Vector_base.29", ptr %this1, i32 0, i32 0
  %_M_finish = getelementptr inbounds %"struct.std::_Vector_base<unsigned int, std::allocator<unsigned int>>::_Vector_impl_data", ptr %_M_impl2, i32 0, i32 1
  %1 = load ptr, ptr %_M_finish, align 8
  %call = call noundef nonnull align 1 dereferenceable(1) ptr @_ZNSt12_Vector_baseIjSaIjEE19_M_get_Tp_allocatorEv(ptr noundef nonnull align 8 dereferenceable(24) %this1) #3
  invoke void @_ZSt8_DestroyIPjjEvT_S1_RSaIT0_E(ptr noundef %0, ptr noundef %1, ptr noundef nonnull align 1 dereferenceable(1) %call)
          to label %invoke.cont unwind label %terminate.lpad

invoke.cont:                                      ; preds = %entry
  call void @_ZNSt12_Vector_baseIjSaIjEED2Ev(ptr noundef nonnull align 8 dereferenceable(24) %this1) #3
  ret void

terminate.lpad:                                   ; preds = %entry
  %2 = landingpad { ptr, i32 }
          catch ptr null
  %3 = extractvalue { ptr, i32 } %2, 0
  call void @__clang_call_terminate(ptr %3) #20
  unreachable
}

; Function Attrs: mustprogress nounwind uwtable
define linkonce_odr dso_local void @_ZNSt12_Vector_baseIjSaIjEEC2Ev(ptr noundef nonnull align 8 dereferenceable(24) %this) unnamed_addr #5 comdat align 2 {
entry:
  %this.addr = alloca ptr, align 8
  store ptr %this, ptr %this.addr, align 8
  %this1 = load ptr, ptr %this.addr, align 8
  %_M_impl = getelementptr inbounds %"struct.std::_Vector_base.29", ptr %this1, i32 0, i32 0
  call void @_ZNSt12_Vector_baseIjSaIjEE12_Vector_implC2Ev(ptr noundef nonnull align 8 dereferenceable(24) %_M_impl) #3
  ret void
}

; Function Attrs: mustprogress nounwind uwtable
define linkonce_odr dso_local void @_ZNSt12_Vector_baseIjSaIjEE12_Vector_implC2Ev(ptr noundef nonnull align 8 dereferenceable(24) %this) unnamed_addr #5 comdat align 2 {
entry:
  %this.addr = alloca ptr, align 8
  store ptr %this, ptr %this.addr, align 8
  %this1 = load ptr, ptr %this.addr, align 8
  call void @_ZNSaIjEC2Ev(ptr noundef nonnull align 1 dereferenceable(1) %this1) #3
  call void @_ZNSt12_Vector_baseIjSaIjEE17_Vector_impl_dataC2Ev(ptr noundef nonnull align 8 dereferenceable(24) %this1) #3
  ret void
}

; Function Attrs: mustprogress nounwind uwtable
define linkonce_odr dso_local void @_ZNSaIjEC2Ev(ptr noundef nonnull align 1 dereferenceable(1) %this) unnamed_addr #5 comdat align 2 {
entry:
  %this.addr = alloca ptr, align 8
  store ptr %this, ptr %this.addr, align 8
  %this1 = load ptr, ptr %this.addr, align 8
  call void @_ZNSt15__new_allocatorIjEC2Ev(ptr noundef nonnull align 1 dereferenceable(1) %this1) #3
  ret void
}

; Function Attrs: mustprogress nounwind uwtable
define linkonce_odr dso_local void @_ZNSt12_Vector_baseIjSaIjEE17_Vector_impl_dataC2Ev(ptr noundef nonnull align 8 dereferenceable(24) %this) unnamed_addr #5 comdat align 2 {
entry:
  %this.addr = alloca ptr, align 8
  store ptr %this, ptr %this.addr, align 8
  %this1 = load ptr, ptr %this.addr, align 8
  %_M_start = getelementptr inbounds %"struct.std::_Vector_base<unsigned int, std::allocator<unsigned int>>::_Vector_impl_data", ptr %this1, i32 0, i32 0
  store ptr null, ptr %_M_start, align 8
  %_M_finish = getelementptr inbounds %"struct.std::_Vector_base<unsigned int, std::allocator<unsigned int>>::_Vector_impl_data", ptr %this1, i32 0, i32 1
  store ptr null, ptr %_M_finish, align 8
  %_M_end_of_storage = getelementptr inbounds %"struct.std::_Vector_base<unsigned int, std::allocator<unsigned int>>::_Vector_impl_data", ptr %this1, i32 0, i32 2
  store ptr null, ptr %_M_end_of_storage, align 8
  ret void
}

; Function Attrs: mustprogress nounwind uwtable
define linkonce_odr dso_local void @_ZNSt15__new_allocatorIjEC2Ev(ptr noundef nonnull align 1 dereferenceable(1) %this) unnamed_addr #5 comdat align 2 {
entry:
  %this.addr = alloca ptr, align 8
  store ptr %this, ptr %this.addr, align 8
  ret void
}

; Function Attrs: mustprogress uwtable
define linkonce_odr dso_local noundef nonnull align 4 dereferenceable(4) ptr @_ZNSt6vectorIjSaIjEE12emplace_backIJjEEERjDpOT_(ptr noundef nonnull align 8 dereferenceable(24) %this, ptr noundef nonnull align 4 dereferenceable(4) %__args) #4 comdat align 2 {
entry:
  %this.addr = alloca ptr, align 8
  %__args.addr = alloca ptr, align 8
  %agg.tmp = alloca %"class.__gnu_cxx::__normal_iterator", align 8
  store ptr %this, ptr %this.addr, align 8
  store ptr %__args, ptr %__args.addr, align 8
  %this1 = load ptr, ptr %this.addr, align 8
  %_M_impl = getelementptr inbounds %"struct.std::_Vector_base.29", ptr %this1, i32 0, i32 0
  %_M_finish = getelementptr inbounds %"struct.std::_Vector_base<unsigned int, std::allocator<unsigned int>>::_Vector_impl_data", ptr %_M_impl, i32 0, i32 1
  %0 = load ptr, ptr %_M_finish, align 8
  %_M_impl2 = getelementptr inbounds %"struct.std::_Vector_base.29", ptr %this1, i32 0, i32 0
  %_M_end_of_storage = getelementptr inbounds %"struct.std::_Vector_base<unsigned int, std::allocator<unsigned int>>::_Vector_impl_data", ptr %_M_impl2, i32 0, i32 2
  %1 = load ptr, ptr %_M_end_of_storage, align 8
  %cmp = icmp ne ptr %0, %1
  br i1 %cmp, label %if.then, label %if.else

if.then:                                          ; preds = %entry
  %_M_impl3 = getelementptr inbounds %"struct.std::_Vector_base.29", ptr %this1, i32 0, i32 0
  %_M_impl4 = getelementptr inbounds %"struct.std::_Vector_base.29", ptr %this1, i32 0, i32 0
  %_M_finish5 = getelementptr inbounds %"struct.std::_Vector_base<unsigned int, std::allocator<unsigned int>>::_Vector_impl_data", ptr %_M_impl4, i32 0, i32 1
  %2 = load ptr, ptr %_M_finish5, align 8
  %3 = load ptr, ptr %__args.addr, align 8
  call void @_ZNSt16allocator_traitsISaIjEE9constructIjJjEEEvRS0_PT_DpOT0_(ptr noundef nonnull align 1 dereferenceable(1) %_M_impl3, ptr noundef %2, ptr noundef nonnull align 4 dereferenceable(4) %3) #3
  %_M_impl6 = getelementptr inbounds %"struct.std::_Vector_base.29", ptr %this1, i32 0, i32 0
  %_M_finish7 = getelementptr inbounds %"struct.std::_Vector_base<unsigned int, std::allocator<unsigned int>>::_Vector_impl_data", ptr %_M_impl6, i32 0, i32 1
  %4 = load ptr, ptr %_M_finish7, align 8
  %incdec.ptr = getelementptr inbounds i32, ptr %4, i32 1
  store ptr %incdec.ptr, ptr %_M_finish7, align 8
  br label %if.end

if.else:                                          ; preds = %entry
  %call = call ptr @_ZNSt6vectorIjSaIjEE3endEv(ptr noundef nonnull align 8 dereferenceable(24) %this1) #3
  %coerce.dive = getelementptr inbounds %"class.__gnu_cxx::__normal_iterator", ptr %agg.tmp, i32 0, i32 0
  store ptr %call, ptr %coerce.dive, align 8
  %5 = load ptr, ptr %__args.addr, align 8
  %coerce.dive8 = getelementptr inbounds %"class.__gnu_cxx::__normal_iterator", ptr %agg.tmp, i32 0, i32 0
  %6 = load ptr, ptr %coerce.dive8, align 8
  call void @_ZNSt6vectorIjSaIjEE17_M_realloc_insertIJjEEEvN9__gnu_cxx17__normal_iteratorIPjS1_EEDpOT_(ptr noundef nonnull align 8 dereferenceable(24) %this1, ptr %6, ptr noundef nonnull align 4 dereferenceable(4) %5)
  br label %if.end

if.end:                                           ; preds = %if.else, %if.then
  %call9 = call noundef nonnull align 4 dereferenceable(4) ptr @_ZNSt6vectorIjSaIjEE4backEv(ptr noundef nonnull align 8 dereferenceable(24) %this1) #3
  ret ptr %call9
}

; Function Attrs: mustprogress nounwind uwtable
define linkonce_odr dso_local void @_ZNSt16allocator_traitsISaIjEE9constructIjJjEEEvRS0_PT_DpOT0_(ptr noundef nonnull align 1 dereferenceable(1) %__a, ptr noundef %__p, ptr noundef nonnull align 4 dereferenceable(4) %__args) #5 comdat align 2 {
entry:
  %__a.addr = alloca ptr, align 8
  %__p.addr = alloca ptr, align 8
  %__args.addr = alloca ptr, align 8
  store ptr %__a, ptr %__a.addr, align 8
  store ptr %__p, ptr %__p.addr, align 8
  store ptr %__args, ptr %__args.addr, align 8
  %0 = load ptr, ptr %__a.addr, align 8
  %1 = load ptr, ptr %__p.addr, align 8
  %2 = load ptr, ptr %__args.addr, align 8
  call void @_ZNSt15__new_allocatorIjE9constructIjJjEEEvPT_DpOT0_(ptr noundef nonnull align 1 dereferenceable(1) %0, ptr noundef %1, ptr noundef nonnull align 4 dereferenceable(4) %2) #3
  ret void
}

; Function Attrs: mustprogress uwtable
define linkonce_odr dso_local void @_ZNSt6vectorIjSaIjEE17_M_realloc_insertIJjEEEvN9__gnu_cxx17__normal_iteratorIPjS1_EEDpOT_(ptr noundef nonnull align 8 dereferenceable(24) %this, ptr %__position.coerce, ptr noundef nonnull align 4 dereferenceable(4) %__args) #4 comdat align 2 {
entry:
  %__position = alloca %"class.__gnu_cxx::__normal_iterator", align 8
  %this.addr = alloca ptr, align 8
  %__args.addr = alloca ptr, align 8
  %__len = alloca i64, align 8
  %__old_start = alloca ptr, align 8
  %__old_finish = alloca ptr, align 8
  %__elems_before = alloca i64, align 8
  %ref.tmp = alloca %"class.__gnu_cxx::__normal_iterator", align 8
  %__new_start = alloca ptr, align 8
  %__new_finish = alloca ptr, align 8
  %coerce.dive = getelementptr inbounds %"class.__gnu_cxx::__normal_iterator", ptr %__position, i32 0, i32 0
  store ptr %__position.coerce, ptr %coerce.dive, align 8
  store ptr %this, ptr %this.addr, align 8
  store ptr %__args, ptr %__args.addr, align 8
  %this1 = load ptr, ptr %this.addr, align 8
  %call = call noundef i64 @_ZNKSt6vectorIjSaIjEE12_M_check_lenEmPKc(ptr noundef nonnull align 8 dereferenceable(24) %this1, i64 noundef 1, ptr noundef @.str.30)
  store i64 %call, ptr %__len, align 8
  %_M_impl = getelementptr inbounds %"struct.std::_Vector_base.29", ptr %this1, i32 0, i32 0
  %_M_start = getelementptr inbounds %"struct.std::_Vector_base<unsigned int, std::allocator<unsigned int>>::_Vector_impl_data", ptr %_M_impl, i32 0, i32 0
  %0 = load ptr, ptr %_M_start, align 8
  store ptr %0, ptr %__old_start, align 8
  %_M_impl2 = getelementptr inbounds %"struct.std::_Vector_base.29", ptr %this1, i32 0, i32 0
  %_M_finish = getelementptr inbounds %"struct.std::_Vector_base<unsigned int, std::allocator<unsigned int>>::_Vector_impl_data", ptr %_M_impl2, i32 0, i32 1
  %1 = load ptr, ptr %_M_finish, align 8
  store ptr %1, ptr %__old_finish, align 8
  %call3 = call ptr @_ZNSt6vectorIjSaIjEE5beginEv(ptr noundef nonnull align 8 dereferenceable(24) %this1) #3
  %coerce.dive4 = getelementptr inbounds %"class.__gnu_cxx::__normal_iterator", ptr %ref.tmp, i32 0, i32 0
  store ptr %call3, ptr %coerce.dive4, align 8
  %call5 = call noundef i64 @_ZN9__gnu_cxxmiIPjSt6vectorIjSaIjEEEENS_17__normal_iteratorIT_T0_E15difference_typeERKS8_SB_(ptr noundef nonnull align 8 dereferenceable(8) %__position, ptr noundef nonnull align 8 dereferenceable(8) %ref.tmp) #3
  store i64 %call5, ptr %__elems_before, align 8
  %2 = load i64, ptr %__len, align 8
  %call6 = call noundef ptr @_ZNSt12_Vector_baseIjSaIjEE11_M_allocateEm(ptr noundef nonnull align 8 dereferenceable(24) %this1, i64 noundef %2)
  store ptr %call6, ptr %__new_start, align 8
  %3 = load ptr, ptr %__new_start, align 8
  store ptr %3, ptr %__new_finish, align 8
  %_M_impl7 = getelementptr inbounds %"struct.std::_Vector_base.29", ptr %this1, i32 0, i32 0
  %4 = load ptr, ptr %__new_start, align 8
  %5 = load i64, ptr %__elems_before, align 8
  %add.ptr = getelementptr inbounds i32, ptr %4, i64 %5
  %6 = load ptr, ptr %__args.addr, align 8
  call void @_ZNSt16allocator_traitsISaIjEE9constructIjJjEEEvRS0_PT_DpOT0_(ptr noundef nonnull align 1 dereferenceable(1) %_M_impl7, ptr noundef %add.ptr, ptr noundef nonnull align 4 dereferenceable(4) %6) #3
  store ptr null, ptr %__new_finish, align 8
  %7 = load ptr, ptr %__old_start, align 8
  %call8 = call noundef nonnull align 8 dereferenceable(8) ptr @_ZNK9__gnu_cxx17__normal_iteratorIPjSt6vectorIjSaIjEEE4baseEv(ptr noundef nonnull align 8 dereferenceable(8) %__position) #3
  %8 = load ptr, ptr %call8, align 8
  %9 = load ptr, ptr %__new_start, align 8
  %call9 = call noundef nonnull align 1 dereferenceable(1) ptr @_ZNSt12_Vector_baseIjSaIjEE19_M_get_Tp_allocatorEv(ptr noundef nonnull align 8 dereferenceable(24) %this1) #3
  %call10 = call noundef ptr @_ZNSt6vectorIjSaIjEE11_S_relocateEPjS2_S2_RS0_(ptr noundef %7, ptr noundef %8, ptr noundef %9, ptr noundef nonnull align 1 dereferenceable(1) %call9) #3
  store ptr %call10, ptr %__new_finish, align 8
  %10 = load ptr, ptr %__new_finish, align 8
  %incdec.ptr = getelementptr inbounds i32, ptr %10, i32 1
  store ptr %incdec.ptr, ptr %__new_finish, align 8
  %call11 = call noundef nonnull align 8 dereferenceable(8) ptr @_ZNK9__gnu_cxx17__normal_iteratorIPjSt6vectorIjSaIjEEE4baseEv(ptr noundef nonnull align 8 dereferenceable(8) %__position) #3
  %11 = load ptr, ptr %call11, align 8
  %12 = load ptr, ptr %__old_finish, align 8
  %13 = load ptr, ptr %__new_finish, align 8
  %call12 = call noundef nonnull align 1 dereferenceable(1) ptr @_ZNSt12_Vector_baseIjSaIjEE19_M_get_Tp_allocatorEv(ptr noundef nonnull align 8 dereferenceable(24) %this1) #3
  %call13 = call noundef ptr @_ZNSt6vectorIjSaIjEE11_S_relocateEPjS2_S2_RS0_(ptr noundef %11, ptr noundef %12, ptr noundef %13, ptr noundef nonnull align 1 dereferenceable(1) %call12) #3
  store ptr %call13, ptr %__new_finish, align 8
  %14 = load ptr, ptr %__old_start, align 8
  %_M_impl14 = getelementptr inbounds %"struct.std::_Vector_base.29", ptr %this1, i32 0, i32 0
  %_M_end_of_storage = getelementptr inbounds %"struct.std::_Vector_base<unsigned int, std::allocator<unsigned int>>::_Vector_impl_data", ptr %_M_impl14, i32 0, i32 2
  %15 = load ptr, ptr %_M_end_of_storage, align 8
  %16 = load ptr, ptr %__old_start, align 8
  %sub.ptr.lhs.cast = ptrtoint ptr %15 to i64
  %sub.ptr.rhs.cast = ptrtoint ptr %16 to i64
  %sub.ptr.sub = sub i64 %sub.ptr.lhs.cast, %sub.ptr.rhs.cast
  %sub.ptr.div = sdiv exact i64 %sub.ptr.sub, 4
  call void @_ZNSt12_Vector_baseIjSaIjEE13_M_deallocateEPjm(ptr noundef nonnull align 8 dereferenceable(24) %this1, ptr noundef %14, i64 noundef %sub.ptr.div)
  %17 = load ptr, ptr %__new_start, align 8
  %_M_impl15 = getelementptr inbounds %"struct.std::_Vector_base.29", ptr %this1, i32 0, i32 0
  %_M_start16 = getelementptr inbounds %"struct.std::_Vector_base<unsigned int, std::allocator<unsigned int>>::_Vector_impl_data", ptr %_M_impl15, i32 0, i32 0
  store ptr %17, ptr %_M_start16, align 8
  %18 = load ptr, ptr %__new_finish, align 8
  %_M_impl17 = getelementptr inbounds %"struct.std::_Vector_base.29", ptr %this1, i32 0, i32 0
  %_M_finish18 = getelementptr inbounds %"struct.std::_Vector_base<unsigned int, std::allocator<unsigned int>>::_Vector_impl_data", ptr %_M_impl17, i32 0, i32 1
  store ptr %18, ptr %_M_finish18, align 8
  %19 = load ptr, ptr %__new_start, align 8
  %20 = load i64, ptr %__len, align 8
  %add.ptr19 = getelementptr inbounds i32, ptr %19, i64 %20
  %_M_impl20 = getelementptr inbounds %"struct.std::_Vector_base.29", ptr %this1, i32 0, i32 0
  %_M_end_of_storage21 = getelementptr inbounds %"struct.std::_Vector_base<unsigned int, std::allocator<unsigned int>>::_Vector_impl_data", ptr %_M_impl20, i32 0, i32 2
  store ptr %add.ptr19, ptr %_M_end_of_storage21, align 8
  ret void
}

; Function Attrs: mustprogress nounwind uwtable
define linkonce_odr dso_local ptr @_ZNSt6vectorIjSaIjEE3endEv(ptr noundef nonnull align 8 dereferenceable(24) %this) #5 comdat align 2 {
entry:
  %retval = alloca %"class.__gnu_cxx::__normal_iterator", align 8
  %this.addr = alloca ptr, align 8
  store ptr %this, ptr %this.addr, align 8
  %this1 = load ptr, ptr %this.addr, align 8
  %_M_impl = getelementptr inbounds %"struct.std::_Vector_base.29", ptr %this1, i32 0, i32 0
  %_M_finish = getelementptr inbounds %"struct.std::_Vector_base<unsigned int, std::allocator<unsigned int>>::_Vector_impl_data", ptr %_M_impl, i32 0, i32 1
  call void @_ZN9__gnu_cxx17__normal_iteratorIPjSt6vectorIjSaIjEEEC2ERKS1_(ptr noundef nonnull align 8 dereferenceable(8) %retval, ptr noundef nonnull align 8 dereferenceable(8) %_M_finish) #3
  %coerce.dive = getelementptr inbounds %"class.__gnu_cxx::__normal_iterator", ptr %retval, i32 0, i32 0
  %0 = load ptr, ptr %coerce.dive, align 8
  ret ptr %0
}

; Function Attrs: mustprogress nounwind uwtable
define linkonce_odr dso_local noundef nonnull align 4 dereferenceable(4) ptr @_ZNSt6vectorIjSaIjEE4backEv(ptr noundef nonnull align 8 dereferenceable(24) %this) #5 comdat align 2 {
entry:
  %this.addr = alloca ptr, align 8
  %ref.tmp = alloca %"class.__gnu_cxx::__normal_iterator", align 8
  %ref.tmp2 = alloca %"class.__gnu_cxx::__normal_iterator", align 8
  store ptr %this, ptr %this.addr, align 8
  %this1 = load ptr, ptr %this.addr, align 8
  %call = call ptr @_ZNSt6vectorIjSaIjEE3endEv(ptr noundef nonnull align 8 dereferenceable(24) %this1) #3
  %coerce.dive = getelementptr inbounds %"class.__gnu_cxx::__normal_iterator", ptr %ref.tmp2, i32 0, i32 0
  store ptr %call, ptr %coerce.dive, align 8
  %call3 = call ptr @_ZNK9__gnu_cxx17__normal_iteratorIPjSt6vectorIjSaIjEEEmiEl(ptr noundef nonnull align 8 dereferenceable(8) %ref.tmp2, i64 noundef 1) #3
  %coerce.dive4 = getelementptr inbounds %"class.__gnu_cxx::__normal_iterator", ptr %ref.tmp, i32 0, i32 0
  store ptr %call3, ptr %coerce.dive4, align 8
  %call5 = call noundef nonnull align 4 dereferenceable(4) ptr @_ZNK9__gnu_cxx17__normal_iteratorIPjSt6vectorIjSaIjEEEdeEv(ptr noundef nonnull align 8 dereferenceable(8) %ref.tmp) #3
  ret ptr %call5
}

; Function Attrs: mustprogress nounwind uwtable
define linkonce_odr dso_local void @_ZNSt15__new_allocatorIjE9constructIjJjEEEvPT_DpOT0_(ptr noundef nonnull align 1 dereferenceable(1) %this, ptr noundef %__p, ptr noundef nonnull align 4 dereferenceable(4) %__args) #5 comdat align 2 {
entry:
  %this.addr = alloca ptr, align 8
  %__p.addr = alloca ptr, align 8
  %__args.addr = alloca ptr, align 8
  store ptr %this, ptr %this.addr, align 8
  store ptr %__p, ptr %__p.addr, align 8
  store ptr %__args, ptr %__args.addr, align 8
  %0 = load ptr, ptr %__p.addr, align 8
  %1 = load ptr, ptr %__args.addr, align 8
  %2 = load i32, ptr %1, align 4
  store i32 %2, ptr %0, align 4
  ret void
}

; Function Attrs: mustprogress uwtable
define linkonce_odr dso_local noundef i64 @_ZNKSt6vectorIjSaIjEE12_M_check_lenEmPKc(ptr noundef nonnull align 8 dereferenceable(24) %this, i64 noundef %__n, ptr noundef %__s) #4 comdat align 2 {
entry:
  %this.addr = alloca ptr, align 8
  %__n.addr = alloca i64, align 8
  %__s.addr = alloca ptr, align 8
  %__len = alloca i64, align 8
  %ref.tmp = alloca i64, align 8
  store ptr %this, ptr %this.addr, align 8
  store i64 %__n, ptr %__n.addr, align 8
  store ptr %__s, ptr %__s.addr, align 8
  %this1 = load ptr, ptr %this.addr, align 8
  %call = call noundef i64 @_ZNKSt6vectorIjSaIjEE8max_sizeEv(ptr noundef nonnull align 8 dereferenceable(24) %this1) #3
  %call2 = call noundef i64 @_ZNKSt6vectorIjSaIjEE4sizeEv(ptr noundef nonnull align 8 dereferenceable(24) %this1) #3
  %sub = sub i64 %call, %call2
  %0 = load i64, ptr %__n.addr, align 8
  %cmp = icmp ult i64 %sub, %0
  br i1 %cmp, label %if.then, label %if.end

if.then:                                          ; preds = %entry
  %1 = load ptr, ptr %__s.addr, align 8
  call void @_ZSt20__throw_length_errorPKc(ptr noundef %1) #19
  unreachable

if.end:                                           ; preds = %entry
  %call3 = call noundef i64 @_ZNKSt6vectorIjSaIjEE4sizeEv(ptr noundef nonnull align 8 dereferenceable(24) %this1) #3
  %call4 = call noundef i64 @_ZNKSt6vectorIjSaIjEE4sizeEv(ptr noundef nonnull align 8 dereferenceable(24) %this1) #3
  store i64 %call4, ptr %ref.tmp, align 8
  %call5 = call noundef nonnull align 8 dereferenceable(8) ptr @_ZSt3maxImERKT_S2_S2_(ptr noundef nonnull align 8 dereferenceable(8) %ref.tmp, ptr noundef nonnull align 8 dereferenceable(8) %__n.addr)
  %2 = load i64, ptr %call5, align 8
  %add = add i64 %call3, %2
  store i64 %add, ptr %__len, align 8
  %3 = load i64, ptr %__len, align 8
  %call6 = call noundef i64 @_ZNKSt6vectorIjSaIjEE4sizeEv(ptr noundef nonnull align 8 dereferenceable(24) %this1) #3
  %cmp7 = icmp ult i64 %3, %call6
