target datalayout = "e-m:e-p270:32:32-p271:32:32-p272:64:64-i64:64-i128:128-f80:128-n8:16:32:64-S128"
target triple = "x86_64-unknown-linux-gnu"

%"class.std::ios_base::Init" = type { i8 }
%"struct.testing::internal::MatcherBase<const std::__cxx11::basic_string<char> &>::VTable" = type { ptr, ptr, ptr, ptr }
%"class.std::basic_ostream" = type { ptr, %"class.std::basic_ios" }
%"class.std::basic_ios" = type { %"class.std::ios_base", ptr, i8, i8, ptr, ptr, ptr, ptr }
%"class.std::ios_base" = type { ptr, i64, i64, i32, i32, i32, ptr, %"struct.std::ios_base::_Words", [8 x %"struct.std::ios_base::_Words"], i32, ptr, %"class.std::locale" }
%"struct.std::ios_base::_Words" = type { ptr, i64 }
%"class.std::locale" = type { ptr }
%"struct.testing::internal::CodeLocation" = type <{ %"class.std::__cxx11::basic_string", i32, [4 x i8] }>
%"class.std::__cxx11::basic_string" = type { %"struct.std::__cxx11::basic_string<char>::_Alloc_hider", i64, %union.anon }
%"struct.std::__cxx11::basic_string<char>::_Alloc_hider" = type { ptr }
%union.anon = type { i64, [8 x i8] }
%"class.std::allocator" = type { i8 }
%"class.testing::internal::GTestLog" = type { i32 }
%"class.testing::Matcher" = type { %"class.testing::internal::MatcherBase" }
%"class.testing::internal::MatcherBase" = type { %"class.testing::MatcherDescriberInterface", ptr, %"union.testing::internal::MatcherBase<const std::__cxx11::basic_string<char> &>::Buffer" }
%"class.testing::MatcherDescriberInterface" = type { ptr }
%"union.testing::internal::MatcherBase<const std::__cxx11::basic_string<char> &>::Buffer" = type { ptr }
%"class.std::unique_ptr.6" = type { %"struct.std::__uniq_ptr_data.7" }
%"struct.std::__uniq_ptr_data.7" = type { %"class.std::__uniq_ptr_impl.8" }
%"class.std::__uniq_ptr_impl.8" = type { %"class.std::tuple.9" }
%"class.std::tuple.9" = type { %"struct.std::_Tuple_impl.10" }
%"struct.std::_Tuple_impl.10" = type { %"struct.std::_Head_base.13" }
%"struct.std::_Head_base.13" = type { ptr }
%"class.testing::internal::DeathTest::ReturnSentinel" = type { ptr }
%"class.absl::log_internal::Voidify" = type { i8 }
%"class.absl::log_internal::LogMessage" = type { %"class.absl::base_internal::ErrnoSaver", %"class.std::unique_ptr.14" }
%"class.absl::base_internal::ErrnoSaver" = type { i32 }
%"class.std::unique_ptr.14" = type { %"struct.std::__uniq_ptr_data.15" }
%"struct.std::__uniq_ptr_data.15" = type { %"class.std::__uniq_ptr_impl.16" }
%"class.std::__uniq_ptr_impl.16" = type { %"class.std::tuple.17" }
%"class.std::tuple.17" = type { %"struct.std::_Tuple_impl.18" }
%"struct.std::_Tuple_impl.18" = type { %"struct.std::_Head_base.21" }
%"struct.std::_Head_base.21" = type { ptr }
%"class.testing::Message" = type { %"class.std::unique_ptr.22" }
%"class.std::unique_ptr.22" = type { %"struct.std::__uniq_ptr_data.23" }
%"struct.std::__uniq_ptr_data.23" = type { %"class.std::__uniq_ptr_impl.24" }
%"class.std::__uniq_ptr_impl.24" = type { %"class.std::tuple.25" }
%"class.std::tuple.25" = type { %"struct.std::_Tuple_impl.26" }
%"struct.std::_Tuple_impl.26" = type { %"struct.std::_Head_base.29" }
%"struct.std::_Head_base.29" = type { ptr }
%"class.testing::internal::AssertHelper" = type { ptr }
%"class.testing::PolymorphicMatcher" = type { %"class.testing::internal::MatchesRegexMatcher" }
%"class.testing::internal::MatchesRegexMatcher" = type <{ %"class.std::shared_ptr", i8, [7 x i8] }>
%"class.std::shared_ptr" = type { %"class.std::__shared_ptr" }
%"class.std::__shared_ptr" = type { ptr, %"class.std::__shared_count" }
%"class.std::__shared_count" = type { ptr }
%"class.std::basic_string_view" = type { i64, ptr }
%"class.testing::internal::RE" = type { %"class.std::__cxx11::basic_string", i8, %struct.re_pattern_buffer, %struct.re_pattern_buffer }
%struct.re_pattern_buffer = type { ptr, i64, i64, i64, ptr, ptr, i64, i8 }
%"class.std::_Sp_counted_base" = type { ptr, i32, i32 }
%"class.std::_Sp_counted_ptr" = type { %"class.std::_Sp_counted_base", ptr }
%"class.testing::PolymorphicMatcher<testing::internal::MatchesRegexMatcher>::MonomorphicImpl" = type { %"class.testing::MatcherInterface", %"class.testing::internal::MatchesRegexMatcher" }
%"class.testing::MatcherInterface" = type { %"class.testing::MatcherDescriberInterface" }
%"class.std::unique_ptr.30" = type { %"struct.std::__uniq_ptr_data.31" }
%"struct.std::__uniq_ptr_data.31" = type { %"class.std::__uniq_ptr_impl.32" }
%"class.std::__uniq_ptr_impl.32" = type { %"class.std::tuple.33" }
%"class.std::tuple.33" = type { %"struct.std::_Tuple_impl.34" }
%"struct.std::_Tuple_impl.34" = type { %"struct.std::_Head_base.37" }
%"struct.std::_Head_base.37" = type { ptr }
%"class.std::tuple.38" = type { %"struct.std::_Tuple_impl.39" }
%"struct.std::_Tuple_impl.39" = type { %"struct.std::_Tuple_impl.40", %"struct.std::_Head_base.42" }
%"struct.std::_Tuple_impl.40" = type { %"struct.std::_Head_base.41" }
%"struct.std::_Head_base.41" = type { ptr }
%"struct.std::_Head_base.42" = type { ptr }
%"struct.testing::internal::SharedPayload" = type { %"struct.testing::internal::SharedPayloadBase", %"class.std::unique_ptr.30" }
%"struct.testing::internal::SharedPayloadBase" = type { %"struct.std::atomic" }
%"struct.std::atomic" = type { %"struct.std::__atomic_base" }
%"struct.std::__atomic_base" = type { i32 }
%"class.testing::internal::VariadicMatcher" = type { %"class.std::tuple.47" }
%"class.std::tuple.47" = type { %"struct.std::_Tuple_impl.48" }
%"struct.std::_Tuple_impl.48" = type { %"struct.std::_Tuple_impl.49", %"struct.std::_Head_base.52" }
%"struct.std::_Tuple_impl.49" = type { %"struct.std::_Head_base.50" }
%"struct.std::_Head_base.50" = type { %"class.testing::PolymorphicMatcher.51" }
%"class.testing::PolymorphicMatcher.51" = type { %"class.testing::internal::HasSubstrMatcher" }
%"class.testing::internal::HasSubstrMatcher" = type { %"class.std::__cxx11::basic_string" }
%"struct.std::_Head_base.52" = type { %"class.(anonymous namespace)::HasSubstrTimesMatcherP2" }
%"class.(anonymous namespace)::HasSubstrTimesMatcherP2" = type { %"class.testing::internal::MatcherBaseImpl" }
%"class.testing::internal::MatcherBaseImpl" = type { %"class.std::tuple.53" }
%"class.std::tuple.53" = type { %"struct.std::_Tuple_impl.54" }
%"struct.std::_Tuple_impl.54" = type { %"struct.std::_Tuple_impl.55", %"struct.std::_Head_base.57" }
%"struct.std::_Tuple_impl.55" = type { %"struct.std::_Head_base.56" }
%"struct.std::_Head_base.56" = type { i32 }
%"struct.std::_Head_base.57" = type { ptr }
%"class.absl::log_internal::LogMessageFatal" = type { %"class.absl::log_internal::LogMessage" }
%"class.std::vector" = type { %"struct.std::_Vector_base" }
%"struct.std::_Vector_base" = type { %"struct.std::_Vector_base<testing::Matcher<const std::string &>, std::allocator<testing::Matcher<const std::string &>>>::_Vector_impl" }
%"struct.std::_Vector_base<testing::Matcher<const std::string &>, std::allocator<testing::Matcher<const std::string &>>>::_Vector_impl" = type { %"struct.std::_Vector_base<testing::Matcher<const std::string &>, std::allocator<testing::Matcher<const std::string &>>>::_Vector_impl_data" }
%"struct.std::_Vector_base<testing::Matcher<const std::string &>, std::allocator<testing::Matcher<const std::string &>>>::_Vector_impl_data" = type { ptr, ptr, ptr }
%"class.testing::internal::AllOfMatcherImpl" = type { %"class.testing::MatcherInterface", %"class.std::vector" }
%"class.__gnu_cxx::__normal_iterator" = type { ptr }
%"class.(anonymous namespace)::HasSubstrTimesMatcherP2<char *, int>::gmock_Impl" = type <{ %"class.testing::MatcherInterface", ptr, i32, [4 x i8] }>
%"class.std::vector.65" = type { %"struct.std::_Vector_base.66" }
%"struct.std::_Vector_base.66" = type { %"struct.std::_Vector_base<const char *, std::allocator<const char *>>::_Vector_impl" }
%"struct.std::_Vector_base<const char *, std::allocator<const char *>>::_Vector_impl" = type { %"struct.std::_Vector_base<const char *, std::allocator<const char *>>::_Vector_impl_data" }
%"struct.std::_Vector_base<const char *, std::allocator<const char *>>::_Vector_impl_data" = type { ptr, ptr, ptr }
%"class.std::initializer_list" = type { ptr, i64 }
%"class.std::allocator.67" = type { i8 }
%"class.std::vector.70" = type { %"struct.std::_Vector_base.71" }
%"struct.std::_Vector_base.71" = type { %"struct.std::_Vector_base<std::__cxx11::basic_string<char>, std::allocator<std::__cxx11::basic_string<char>>>::_Vector_impl" }
%"struct.std::_Vector_base<std::__cxx11::basic_string<char>, std::allocator<std::__cxx11::basic_string<char>>>::_Vector_impl" = type { %"struct.std::_Vector_base<std::__cxx11::basic_string<char>, std::allocator<std::__cxx11::basic_string<char>>>::_Vector_impl_data" }
%"struct.std::_Vector_base<std::__cxx11::basic_string<char>, std::allocator<std::__cxx11::basic_string<char>>>::_Vector_impl_data" = type { ptr, ptr, ptr }
%"class.std::__cxx11::basic_stringstream" = type { %"class.std::basic_iostream.base", %"class.std::__cxx11::basic_stringbuf", %"class.std::basic_ios" }
%"class.std::basic_iostream.base" = type { %"class.std::basic_istream.base", %"class.std::basic_ostream.base" }
%"class.std::basic_istream.base" = type { ptr, i64 }
%"class.std::basic_ostream.base" = type { ptr }
%"class.std::__cxx11::basic_stringbuf" = type { %"class.std::basic_streambuf", i32, %"class.std::__cxx11::basic_string" }
%"class.std::basic_streambuf" = type { ptr, ptr, ptr, ptr, ptr, ptr, ptr, %"class.std::locale" }
%"class.__gnu_cxx::__normal_iterator.76" = type { ptr }
%"class.testing::PolymorphicMatcher<testing::internal::HasSubstrMatcher<std::__cxx11::basic_string<char>>>::MonomorphicImpl" = type { %"class.testing::MatcherInterface", %"class.testing::internal::HasSubstrMatcher" }
%"class.testing::StringMatchResultListener" = type { %"class.testing::MatchResultListener", %"class.std::__cxx11::basic_stringstream" }
%"class.testing::MatchResultListener" = type { ptr, ptr }
%class.anon = type { i8 }
%struct._Guard = type { ptr }

$_ZN7testing24AddGlobalTestEnvironmentEPNS_11EnvironmentE = comdat any

$_ZN4absl12log_internal18LogTestEnvironmentC2Ev = comdat any

$_ZNSt7__cxx1112basic_stringIcSt11char_traitsIcESaIcEEC2IS3_EEPKcRKS3_ = comdat any

$_ZN7testing8internal12CodeLocationC2ERKNSt7__cxx1112basic_stringIcSt11char_traitsIcESaIcEEEi = comdat any

$_ZN7testing8internal16SuiteApiResolverINS_4TestEE19GetSetUpCaseOrSuiteEPKci = comdat any

$_ZN7testing8internal16SuiteApiResolverINS_4TestEE22GetTearDownCaseOrSuiteEPKci = comdat any

$_ZN7testing8internal12CodeLocationD2Ev = comdat any

$_ZN7testing11EnvironmentC2Ev = comdat any

$_ZN7testing11EnvironmentD2Ev = comdat any

$_ZN7testing11EnvironmentD0Ev = comdat any

$_ZN7testing11Environment5SetUpEv = comdat any

$_ZN7testing11Environment8TearDownEv = comdat any

$_ZN7testing11Environment5SetupEv = comdat any

$_ZN7testing8internal15TestFactoryBaseC2Ev = comdat any

$_ZN7testing8internal15TestFactoryBaseD2Ev = comdat any

$_ZN7testing8internal15TestFactoryBaseD0Ev = comdat any

$_ZN7testing4Test5SetupEv = comdat any

$_ZN7testing8internal20MakeDeathTestMatcherB5cxx11EPKc = comdat any

$_ZN7testing7MatcherIRKNSt7__cxx1112basic_stringIcSt11char_traitsIcESaIcEEEED2Ev = comdat any

$_ZNSt10unique_ptrIN7testing8internal9DeathTestESt14default_deleteIS2_EEC2IS4_vEEPS2_ = comdat any

$_ZN7testing8internal9DeathTest14ReturnSentinelC2EPS1_ = comdat any

$_ZNKO4absl12log_internal7VoidifyaaINS0_10LogMessageEEEvRKT_ = comdat any

$_ZN4absl12log_internal10LogMessage14InternalStreamEv = comdat any

$_ZN4absl12log_internal10LogMessagelsILi13EEERS1_RAT__Kc = comdat any

$__clang_call_terminate = comdat any

$_ZN7testing8internal9DeathTest14ReturnSentinelD2Ev = comdat any

$_ZNSt10unique_ptrIN7testing8internal9DeathTestESt14default_deleteIS2_EED2Ev = comdat any

$_ZN7testing7MessageD2Ev = comdat any

$_ZN7testing13ContainsRegexIPKcEENS_18PolymorphicMatcherINS_8internal19MatchesRegexMatcherEEERKT_ = comdat any

$_ZNK7testing18PolymorphicMatcherINS_8internal19MatchesRegexMatcherEEcvNS_7MatcherIT_EEIRKNSt7__cxx1112basic_stringIcSt11char_traitsIcESaIcEEEEEv = comdat any

$_ZN7testing18PolymorphicMatcherINS_8internal19MatchesRegexMatcherEED2Ev = comdat any

$_ZN7testing13ContainsRegexEPKNS_8internal2REE = comdat any

$_ZN7testing8internal2REC2ERKNSt7__cxx1112basic_stringIcSt11char_traitsIcESaIcEEE = comdat any

$_ZN7testing22MakePolymorphicMatcherINS_8internal19MatchesRegexMatcherEEENS_18PolymorphicMatcherIT_EERKS4_ = comdat any

$_ZN7testing8internal19MatchesRegexMatcherC2EPKNS0_2REEb = comdat any

$_ZN7testing8internal19MatchesRegexMatcherD2Ev = comdat any

$_ZN7testing18PolymorphicMatcherINS_8internal19MatchesRegexMatcherEEC2ERKS2_ = comdat any

$_ZN7testing8internal19MatchesRegexMatcherC2ERKS1_ = comdat any

$_ZNSt10shared_ptrIKN7testing8internal2REEEC2ERKS4_ = comdat any

$_ZNSt12__shared_ptrIKN7testing8internal2REELN9__gnu_cxx12_Lock_policyE2EEC2ERKS6_ = comdat any

$_ZNSt14__shared_countILN9__gnu_cxx12_Lock_policyE2EEC2ERKS2_ = comdat any

$_ZNSt16_Sp_counted_baseILN9__gnu_cxx12_Lock_policyE2EE15_M_add_ref_copyEv = comdat any

$_ZNSt10shared_ptrIKN7testing8internal2REEEC2IS3_vEEPT_ = comdat any

$_ZNSt12__shared_ptrIKN7testing8internal2REELN9__gnu_cxx12_Lock_policyE2EEC2IS3_vEEPT_ = comdat any

$_ZNSt14__shared_countILN9__gnu_cxx12_Lock_policyE2EEC2IPKN7testing8internal2REEEET_St17integral_constantIbLb0EE = comdat any

$_ZNSt12__shared_ptrIKN7testing8internal2REELN9__gnu_cxx12_Lock_policyE2EE31_M_enable_shared_from_this_withIS3_S2_EENSt9enable_ifIXntsr15__has_esft_baseIT0_EE5valueEvE4typeEPT_ = comdat any

$_ZNSt14__shared_countILN9__gnu_cxx12_Lock_policyE2EEC2IPKN7testing8internal2REEEET_ = comdat any

$_ZNSt15_Sp_counted_ptrIPKN7testing8internal2REELN9__gnu_cxx12_Lock_policyE2EEC2ES4_ = comdat any

$_ZNSt16_Sp_counted_baseILN9__gnu_cxx12_Lock_policyE2EEC2Ev = comdat any

$_ZNSt15_Sp_counted_ptrIPKN7testing8internal2REELN9__gnu_cxx12_Lock_policyE2EED2Ev = comdat any

$_ZNSt15_Sp_counted_ptrIPKN7testing8internal2REELN9__gnu_cxx12_Lock_policyE2EED0Ev = comdat any

$_ZNSt15_Sp_counted_ptrIPKN7testing8internal2REELN9__gnu_cxx12_Lock_policyE2EE10_M_disposeEv = comdat any

$_ZNSt15_Sp_counted_ptrIPKN7testing8internal2REELN9__gnu_cxx12_Lock_policyE2EE10_M_destroyEv = comdat any

$_ZNSt15_Sp_counted_ptrIPKN7testing8internal2REELN9__gnu_cxx12_Lock_policyE2EE14_M_get_deleterERKSt9type_info = comdat any

$_ZNSt16_Sp_counted_baseILN9__gnu_cxx12_Lock_policyE2EED2Ev = comdat any

$_ZNSt16_Sp_counted_baseILN9__gnu_cxx12_Lock_policyE2EED0Ev = comdat any

$_ZNSt16_Sp_counted_baseILN9__gnu_cxx12_Lock_policyE2EE10_M_destroyEv = comdat any

$_ZNSt10shared_ptrIKN7testing8internal2REEED2Ev = comdat any

$_ZNSt12__shared_ptrIKN7testing8internal2REELN9__gnu_cxx12_Lock_policyE2EED2Ev = comdat any

$_ZNSt14__shared_countILN9__gnu_cxx12_Lock_policyE2EED2Ev = comdat any

$_ZNSt16_Sp_counted_baseILN9__gnu_cxx12_Lock_policyE2EE10_M_releaseEv = comdat any

$_ZNSt16_Sp_counted_baseILN9__gnu_cxx12_Lock_policyE2EE24_M_release_last_use_coldEv = comdat any

$_ZNSt16_Sp_counted_baseILN9__gnu_cxx12_Lock_policyE2EE19_M_release_last_useEv = comdat any

$_ZN7testing18PolymorphicMatcherINS_8internal19MatchesRegexMatcherEE15MonomorphicImplIRKNSt7__cxx1112basic_stringIcSt11char_traitsIcESaIcEEEEC2ERKS2_ = comdat any

$_ZN7testing7MatcherIRKNSt7__cxx1112basic_stringIcSt11char_traitsIcESaIcEEEEC2EPKNS_16MatcherInterfaceIS8_EE = comdat any

$_ZN7testing16MatcherInterfaceIRKNSt7__cxx1112basic_stringIcSt11char_traitsIcESaIcEEEEC2Ev = comdat any

$_ZN7testing18PolymorphicMatcherINS_8internal19MatchesRegexMatcherEE15MonomorphicImplIRKNSt7__cxx1112basic_stringIcSt11char_traitsIcESaIcEEEED2Ev = comdat any

$_ZN7testing18PolymorphicMatcherINS_8internal19MatchesRegexMatcherEE15MonomorphicImplIRKNSt7__cxx1112basic_stringIcSt11char_traitsIcESaIcEEEED0Ev = comdat any

$_ZNK7testing18PolymorphicMatcherINS_8internal19MatchesRegexMatcherEE15MonomorphicImplIRKNSt7__cxx1112basic_stringIcSt11char_traitsIcESaIcEEEE10DescribeToEPSo = comdat any

$_ZNK7testing18PolymorphicMatcherINS_8internal19MatchesRegexMatcherEE15MonomorphicImplIRKNSt7__cxx1112basic_stringIcSt11char_traitsIcESaIcEEEE18DescribeNegationToEPSo = comdat any

$_ZNK7testing18PolymorphicMatcherINS_8internal19MatchesRegexMatcherEE15MonomorphicImplIRKNSt7__cxx1112basic_stringIcSt11char_traitsIcESaIcEEEE15MatchAndExplainESC_PNS_19MatchResultListenerE = comdat any

$_ZN7testing25MatcherDescriberInterfaceC2Ev = comdat any

$_ZN7testing16MatcherInterfaceIRKNSt7__cxx1112basic_stringIcSt11char_traitsIcESaIcEEEED2Ev = comdat any

$_ZN7testing16MatcherInterfaceIRKNSt7__cxx1112basic_stringIcSt11char_traitsIcESaIcEEEED0Ev = comdat any

$_ZNK7testing25MatcherDescriberInterface18DescribeNegationToEPSo = comdat any

$_ZN7testing25MatcherDescriberInterfaceD2Ev = comdat any

$_ZN7testing25MatcherDescriberInterfaceD0Ev = comdat any

$_ZNK7testing8internal19MatchesRegexMatcher10DescribeToEPSo = comdat any

$_ZN7testing8internal16UniversalPrinterINSt7__cxx1112basic_stringIcSt11char_traitsIcESaIcEEEE5PrintERKS7_PSo = comdat any

$_ZNKSt19__shared_ptr_accessIKN7testing8internal2REELN9__gnu_cxx12_Lock_policyE2ELb0ELb0EEptEv = comdat any

$_ZNK7testing8internal2RE7patternEv = comdat any

$_ZN7testing8internal7PrintToERKNSt7__cxx1112basic_stringIcSt11char_traitsIcESaIcEEEPSo = comdat any

$_ZNKSt19__shared_ptr_accessIKN7testing8internal2REELN9__gnu_cxx12_Lock_policyE2ELb0ELb0EE6_M_getEv = comdat any

$_ZNKSt12__shared_ptrIKN7testing8internal2REELN9__gnu_cxx12_Lock_policyE2EE3getEv = comdat any

$_ZNK7testing8internal19MatchesRegexMatcher18DescribeNegationToEPSo = comdat any

$_ZNK7testing8internal19MatchesRegexMatcher15MatchAndExplainINSt7__cxx1112basic_stringIcSt11char_traitsIcESaIcEEEEEbRKT_PNS_19MatchResultListenerE = comdat any

$_ZN7testing8internal2RE9FullMatchERKNSt7__cxx1112basic_stringIcSt11char_traitsIcESaIcEEERKS1_ = comdat any

$_ZNKSt19__shared_ptr_accessIKN7testing8internal2REELN9__gnu_cxx12_Lock_policyE2ELb0ELb0EEdeEv = comdat any

$_ZN7testing8internal2RE12PartialMatchERKNSt7__cxx1112basic_stringIcSt11char_traitsIcESaIcEEERKS1_ = comdat any

$_ZN7testing8internal11MatcherBaseIRKNSt7__cxx1112basic_stringIcSt11char_traitsIcESaIcEEEEC2IS9_EEPKNS_16MatcherInterfaceIT_EE = comdat any

$_ZN7testing7MatcherIRKNSt7__cxx1112basic_stringIcSt11char_traitsIcESaIcEEEED0Ev = comdat any

$_ZNK7testing8internal11MatcherBaseIRKNSt7__cxx1112basic_stringIcSt11char_traitsIcESaIcEEEE10DescribeToEPSo = comdat any

$_ZNK7testing8internal11MatcherBaseIRKNSt7__cxx1112basic_stringIcSt11char_traitsIcESaIcEEEE18DescribeNegationToEPSo = comdat any

$_ZN7testing8internal11MatcherBaseIRKNSt7__cxx1112basic_stringIcSt11char_traitsIcESaIcEEEE4InitIRPKNS_16MatcherInterfaceIS9_EEEEvOT_ = comdat any

$_ZN7testing8internal11MatcherBaseIRKNSt7__cxx1112basic_stringIcSt11char_traitsIcESaIcEEEED2Ev = comdat any

$_ZN7testing8internal11MatcherBaseIRKNSt7__cxx1112basic_stringIcSt11char_traitsIcESaIcEEEED0Ev = comdat any

$_ZN7testing8internal11MatcherBaseIRKNSt7__cxx1112basic_stringIcSt11char_traitsIcESaIcEEEE9GetVTableINSA_11ValuePolicyIPKNS_16MatcherInterfaceIS9_EELb1EEEEEPKNSA_6VTableEv = comdat any

$_ZN7testing8internal11MatcherBaseIRKNSt7__cxx1112basic_stringIcSt11char_traitsIcESaIcEEEE11ValuePolicyIPKNS_16MatcherInterfaceIS9_EELb1EE4InitERSA_SF_ = comdat any

$_ZN7testing8internal11MatcherBaseIRKNSt7__cxx1112basic_stringIcSt11char_traitsIcESaIcEEEE19MatchAndExplainImplINSA_11ValuePolicyIPKNS_16MatcherInterfaceIS9_EELb1EEEEEDTcldtclsrT_3Getfp_E15MatchAndExplainfp0_fp1_EERKSA_S9_PNS_19MatchResultListenerE = comdat any

$_ZN7testing8internal11MatcherBaseIRKNSt7__cxx1112basic_stringIcSt11char_traitsIcESaIcEEEE12DescribeImplINSA_11ValuePolicyIPKNS_16MatcherInterfaceIS9_EELb1EEEEEvRKSA_PSob = comdat any

$_ZN7testing8internal11MatcherBaseIRKNSt7__cxx1112basic_stringIcSt11char_traitsIcESaIcEEEE16GetDescriberImplINSA_11ValuePolicyIPKNS_16MatcherInterfaceIS9_EELb1EEEEEPKNS_25MatcherDescriberInterfaceERKSA_ = comdat any

$_ZN7testing8internal13SharedPayloadISt10unique_ptrIKNS_16MatcherInterfaceIRKNSt7__cxx1112basic_stringIcSt11char_traitsIcESaIcEEEEESt14default_deleteISD_EEE7DestroyEPNS0_17SharedPayloadBaseE = comdat any

$_ZN7testing8internal11MatcherBaseIRKNSt7__cxx1112basic_stringIcSt11char_traitsIcESaIcEEEE11ValuePolicyIPKNS_16MatcherInterfaceIS9_EELb1EE3GetERKSA_ = comdat any

$_ZNKSt10unique_ptrIKN7testing16MatcherInterfaceIRKNSt7__cxx1112basic_stringIcSt11char_traitsIcESaIcEEEEESt14default_deleteISB_EEdeEv = comdat any

$_ZNKSt10unique_ptrIKN7testing16MatcherInterfaceIRKNSt7__cxx1112basic_stringIcSt11char_traitsIcESaIcEEEEESt14default_deleteISB_EE3getEv = comdat any

$_ZNKSt15__uniq_ptr_implIKN7testing16MatcherInterfaceIRKNSt7__cxx1112basic_stringIcSt11char_traitsIcESaIcEEEEESt14default_deleteISB_EE6_M_ptrEv = comdat any

$_ZSt3getILm0EJPKN7testing16MatcherInterfaceIRKNSt7__cxx1112basic_stringIcSt11char_traitsIcESaIcEEEEESt14default_deleteISB_EEERKNSt13tuple_elementIXT_ESt5tupleIJDpT0_EEE4typeERKSJ_ = comdat any

$_ZSt12__get_helperILm0EPKN7testing16MatcherInterfaceIRKNSt7__cxx1112basic_stringIcSt11char_traitsIcESaIcEEEEEJSt14default_deleteISB_EEERKT0_RKSt11_Tuple_implIXT_EJSF_DpT1_EE = comdat any

$_ZNSt11_Tuple_implILm0EJPKN7testing16MatcherInterfaceIRKNSt7__cxx1112basic_stringIcSt11char_traitsIcESaIcEEEEESt14default_deleteISB_EEE7_M_headERKSF_ = comdat any

$_ZNSt10_Head_baseILm0EPKN7testing16MatcherInterfaceIRKNSt7__cxx1112basic_stringIcSt11char_traitsIcESaIcEEEEELb0EE7_M_headERKSD_ = comdat any

$_ZSt3getILm1EJPKN7testing8internal11MatcherBaseIRKNSt7__cxx1112basic_stringIcSt11char_traitsIcESaIcEEEEEPKNS0_16MatcherInterfaceISA_EEEEONSt13tuple_elementIXT_ESt5tupleIJDpT0_EEE4typeEOSM_ = comdat any

$_ZSt10make_tupleIJPKN7testing8internal11MatcherBaseIRKNSt7__cxx1112basic_stringIcSt11char_traitsIcESaIcEEEEEPKNS0_16MatcherInterfaceISA_EEEESt5tupleIJDpNSt25__strip_reference_wrapperINSt5decayIT_E4typeEE6__typeEEEDpOSL_ = comdat any

$_ZSt12__get_helperILm1EPKN7testing16MatcherInterfaceIRKNSt7__cxx1112basic_stringIcSt11char_traitsIcESaIcEEEEEJEERT0_RSt11_Tuple_implIXT_EJSD_DpT1_EE = comdat any

$_ZNSt11_Tuple_implILm1EJPKN7testing16MatcherInterfaceIRKNSt7__cxx1112basic_stringIcSt11char_traitsIcESaIcEEEEEEE7_M_headERSD_ = comdat any

$_ZNSt10_Head_baseILm1EPKN7testing16MatcherInterfaceIRKNSt7__cxx1112basic_stringIcSt11char_traitsIcESaIcEEEEELb0EE7_M_headERSD_ = comdat any

$_ZNSt5tupleIJPKN7testing8internal11MatcherBaseIRKNSt7__cxx1112basic_stringIcSt11char_traitsIcESaIcEEEEEPKNS0_16MatcherInterfaceISA_EEEEC2ISD_SH_TnNSt9enable_ifIXclsr4_TCCIXntcl14__is_alloc_argIT_EEEEE29__is_implicitly_constructibleISL_T0_EEEbE4typeELb1EEEOSL_OSM_ = comdat any

$_ZNSt11_Tuple_implILm0EJPKN7testing8internal11MatcherBaseIRKNSt7__cxx1112basic_stringIcSt11char_traitsIcESaIcEEEEEPKNS0_16MatcherInterfaceISA_EEEEC2ISD_JSH_EvEEOT_DpOT0_ = comdat any

$_ZNSt11_Tuple_implILm1EJPKN7testing16MatcherInterfaceIRKNSt7__cxx1112basic_stringIcSt11char_traitsIcESaIcEEEEEEEC2ISC_EEOT_ = comdat any

$_ZNSt10_Head_baseILm0EPKN7testing8internal11MatcherBaseIRKNSt7__cxx1112basic_stringIcSt11char_traitsIcESaIcEEEEELb0EEC2ISD_EEOT_ = comdat any

$_ZNSt10_Head_baseILm1EPKN7testing16MatcherInterfaceIRKNSt7__cxx1112basic_stringIcSt11char_traitsIcESaIcEEEEELb0EEC2ISC_EEOT_ = comdat any

$_ZN7testing8internal13SharedPayloadISt10unique_ptrIKNS_16MatcherInterfaceIRKNSt7__cxx1112basic_stringIcSt11char_traitsIcESaIcEEEEESt14default_deleteISD_EEED2Ev = comdat any

$_ZNSt10unique_ptrIKN7testing16MatcherInterfaceIRKNSt7__cxx1112basic_stringIcSt11char_traitsIcESaIcEEEEESt14default_deleteISB_EED2Ev = comdat any

$_ZNSt15__uniq_ptr_implIKN7testing16MatcherInterfaceIRKNSt7__cxx1112basic_stringIcSt11char_traitsIcESaIcEEEEESt14default_deleteISB_EE6_M_ptrEv = comdat any

$_ZNSt10unique_ptrIKN7testing16MatcherInterfaceIRKNSt7__cxx1112basic_stringIcSt11char_traitsIcESaIcEEEEESt14default_deleteISB_EE11get_deleterEv = comdat any

$_ZNKSt14default_deleteIKN7testing16MatcherInterfaceIRKNSt7__cxx1112basic_stringIcSt11char_traitsIcESaIcEEEEEEclEPSB_ = comdat any

$_ZSt3getILm0EJPKN7testing16MatcherInterfaceIRKNSt7__cxx1112basic_stringIcSt11char_traitsIcESaIcEEEEESt14default_deleteISB_EEERNSt13tuple_elementIXT_ESt5tupleIJDpT0_EEE4typeERSJ_ = comdat any

$_ZSt12__get_helperILm0EPKN7testing16MatcherInterfaceIRKNSt7__cxx1112basic_stringIcSt11char_traitsIcESaIcEEEEEJSt14default_deleteISB_EEERT0_RSt11_Tuple_implIXT_EJSF_DpT1_EE = comdat any

$_ZNSt11_Tuple_implILm0EJPKN7testing16MatcherInterfaceIRKNSt7__cxx1112basic_stringIcSt11char_traitsIcESaIcEEEEESt14default_deleteISB_EEE7_M_headERSF_ = comdat any

$_ZNSt10_Head_baseILm0EPKN7testing16MatcherInterfaceIRKNSt7__cxx1112basic_stringIcSt11char_traitsIcESaIcEEEEELb0EE7_M_headERSD_ = comdat any

$_ZNSt15__uniq_ptr_implIKN7testing16MatcherInterfaceIRKNSt7__cxx1112basic_stringIcSt11char_traitsIcESaIcEEEEESt14default_deleteISB_EE10_M_deleterEv = comdat any

$_ZSt3getILm1EJPKN7testing16MatcherInterfaceIRKNSt7__cxx1112basic_stringIcSt11char_traitsIcESaIcEEEEESt14default_deleteISB_EEERNSt13tuple_elementIXT_ESt5tupleIJDpT0_EEE4typeERSJ_ = comdat any

$_ZSt12__get_helperILm1ESt14default_deleteIKN7testing16MatcherInterfaceIRKNSt7__cxx1112basic_stringIcSt11char_traitsIcESaIcEEEEEEJEERT0_RSt11_Tuple_implIXT_EJSE_DpT1_EE = comdat any

$_ZNSt11_Tuple_implILm1EJSt14default_deleteIKN7testing16MatcherInterfaceIRKNSt7__cxx1112basic_stringIcSt11char_traitsIcESaIcEEEEEEEE7_M_headERSE_ = comdat any

$_ZNSt10_Head_baseILm1ESt14default_deleteIKN7testing16MatcherInterfaceIRKNSt7__cxx1112basic_stringIcSt11char_traitsIcESaIcEEEEEELb1EE7_M_headERSE_ = comdat any

$_ZNSt10unique_ptrIKN7testing16MatcherInterfaceIRKNSt7__cxx1112basic_stringIcSt11char_traitsIcESaIcEEEEESt14default_deleteISB_EEC2ISD_vEEPSB_ = comdat any

$_ZN7testing8internal13SharedPayloadISt10unique_ptrIKNS_16MatcherInterfaceIRKNSt7__cxx1112basic_stringIcSt11char_traitsIcESaIcEEEEESt14default_deleteISD_EEEC2EOSG_ = comdat any

$_ZNSt15__uniq_ptr_dataIKN7testing16MatcherInterfaceIRKNSt7__cxx1112basic_stringIcSt11char_traitsIcESaIcEEEEESt14default_deleteISB_ELb1ELb1EECI2St15__uniq_ptr_implISB_SD_EEPSB_ = comdat any

$_ZNSt15__uniq_ptr_implIKN7testing16MatcherInterfaceIRKNSt7__cxx1112basic_stringIcSt11char_traitsIcESaIcEEEEESt14default_deleteISB_EEC2EPSB_ = comdat any

$_ZNSt5tupleIJPKN7testing16MatcherInterfaceIRKNSt7__cxx1112basic_stringIcSt11char_traitsIcESaIcEEEEESt14default_deleteISB_EEEC2ILb1ETnNSt9enable_ifIXclsr17_TupleConstraintsIXT_ESC_SE_EE37__is_implicitly_default_constructibleEEbE4typeELb1EEEv = comdat any

$_ZNSt11_Tuple_implILm0EJPKN7testing16MatcherInterfaceIRKNSt7__cxx1112basic_stringIcSt11char_traitsIcESaIcEEEEESt14default_deleteISB_EEEC2Ev = comdat any

$_ZNSt11_Tuple_implILm1EJSt14default_deleteIKN7testing16MatcherInterfaceIRKNSt7__cxx1112basic_stringIcSt11char_traitsIcESaIcEEEEEEEEC2Ev = comdat any

$_ZNSt10_Head_baseILm0EPKN7testing16MatcherInterfaceIRKNSt7__cxx1112basic_stringIcSt11char_traitsIcESaIcEEEEELb0EEC2Ev = comdat any

$_ZNSt10_Head_baseILm1ESt14default_deleteIKN7testing16MatcherInterfaceIRKNSt7__cxx1112basic_stringIcSt11char_traitsIcESaIcEEEEEELb1EEC2Ev = comdat any

$_ZN7testing8internal17SharedPayloadBaseC2Ev = comdat any

$_ZNSt10unique_ptrIKN7testing16MatcherInterfaceIRKNSt7__cxx1112basic_stringIcSt11char_traitsIcESaIcEEEEESt14default_deleteISB_EEC2EOSE_ = comdat any

$_ZNSt6atomicIiEC2Ei = comdat any

$_ZNSt13__atomic_baseIiEC2Ei = comdat any

$_ZNSt15__uniq_ptr_dataIKN7testing16MatcherInterfaceIRKNSt7__cxx1112basic_stringIcSt11char_traitsIcESaIcEEEEESt14default_deleteISB_ELb1ELb1EEC2EOSE_ = comdat any

$_ZNSt15__uniq_ptr_implIKN7testing16MatcherInterfaceIRKNSt7__cxx1112basic_stringIcSt11char_traitsIcESaIcEEEEESt14default_deleteISB_EEC2EOSE_ = comdat any

$_ZNSt5tupleIJPKN7testing16MatcherInterfaceIRKNSt7__cxx1112basic_stringIcSt11char_traitsIcESaIcEEEEESt14default_deleteISB_EEEC2EOSF_ = comdat any

$_ZNSt11_Tuple_implILm0EJPKN7testing16MatcherInterfaceIRKNSt7__cxx1112basic_stringIcSt11char_traitsIcESaIcEEEEESt14default_deleteISB_EEEC2EOSF_ = comdat any

$_ZNSt11_Tuple_implILm1EJSt14default_deleteIKN7testing16MatcherInterfaceIRKNSt7__cxx1112basic_stringIcSt11char_traitsIcESaIcEEEEEEEEC2EOSE_ = comdat any

$_ZN7testing8internal11MatcherBaseIRKNSt7__cxx1112basic_stringIcSt11char_traitsIcESaIcEEEE7DestroyEv = comdat any

$_ZNK7testing8internal11MatcherBaseIRKNSt7__cxx1112basic_stringIcSt11char_traitsIcESaIcEEEE8IsSharedEv = comdat any

$_ZN7testing8internal17SharedPayloadBase5UnrefEv = comdat any

$_ZN7testing8internal8GTestLog9GetStreamEv = comdat any

$_ZNSt15__uniq_ptr_dataIN7testing8internal9DeathTestESt14default_deleteIS2_ELb1ELb1EECI2St15__uniq_ptr_implIS2_S4_EEPS2_ = comdat any

$_ZNSt15__uniq_ptr_implIN7testing8internal9DeathTestESt14default_deleteIS2_EEC2EPS2_ = comdat any

$_ZNSt5tupleIJPN7testing8internal9DeathTestESt14default_deleteIS2_EEEC2ILb1ETnNSt9enable_ifIXclsr17_TupleConstraintsIXT_ES3_S5_EE37__is_implicitly_default_constructibleEEbE4typeELb1EEEv = comdat any

$_ZNSt15__uniq_ptr_implIN7testing8internal9DeathTestESt14default_deleteIS2_EE6_M_ptrEv = comdat any

$_ZNSt11_Tuple_implILm0EJPN7testing8internal9DeathTestESt14default_deleteIS2_EEEC2Ev = comdat any

$_ZNSt11_Tuple_implILm1EJSt14default_deleteIN7testing8internal9DeathTestEEEEC2Ev = comdat any

$_ZNSt10_Head_baseILm0EPN7testing8internal9DeathTestELb0EEC2Ev = comdat any

$_ZNSt10_Head_baseILm1ESt14default_deleteIN7testing8internal9DeathTestEELb1EEC2Ev = comdat any

$_ZSt3getILm0EJPN7testing8internal9DeathTestESt14default_deleteIS2_EEERNSt13tuple_elementIXT_ESt5tupleIJDpT0_EEE4typeERSA_ = comdat any

$_ZSt12__get_helperILm0EPN7testing8internal9DeathTestEJSt14default_deleteIS2_EEERT0_RSt11_Tuple_implIXT_EJS6_DpT1_EE = comdat any

$_ZNSt11_Tuple_implILm0EJPN7testing8internal9DeathTestESt14default_deleteIS2_EEE7_M_headERS6_ = comdat any

$_ZNSt10_Head_baseILm0EPN7testing8internal9DeathTestELb0EE7_M_headERS4_ = comdat any

$_ZNSt17basic_string_viewIcSt11char_traitsIcEEC2EPKc = comdat any

$_ZNSt11char_traitsIcE6lengthEPKc = comdat any

$_ZNSt10unique_ptrIN7testing8internal9DeathTestESt14default_deleteIS2_EE11get_deleterEv = comdat any

$_ZNKSt14default_deleteIN7testing8internal9DeathTestEEclEPS2_ = comdat any

$_ZNSt15__uniq_ptr_implIN7testing8internal9DeathTestESt14default_deleteIS2_EE10_M_deleterEv = comdat any

$_ZSt3getILm1EJPN7testing8internal9DeathTestESt14default_deleteIS2_EEERNSt13tuple_elementIXT_ESt5tupleIJDpT0_EEE4typeERSA_ = comdat any

$_ZSt12__get_helperILm1ESt14default_deleteIN7testing8internal9DeathTestEEJEERT0_RSt11_Tuple_implIXT_EJS5_DpT1_EE = comdat any

$_ZNSt11_Tuple_implILm1EJSt14default_deleteIN7testing8internal9DeathTestEEEE7_M_headERS5_ = comdat any

$_ZNSt10_Head_baseILm1ESt14default_deleteIN7testing8internal9DeathTestEELb1EE7_M_headERS5_ = comdat any

$_ZNSt10unique_ptrINSt7__cxx1118basic_stringstreamIcSt11char_traitsIcESaIcEEESt14default_deleteIS5_EED2Ev = comdat any

$_ZNSt15__uniq_ptr_implINSt7__cxx1118basic_stringstreamIcSt11char_traitsIcESaIcEEESt14default_deleteIS5_EE6_M_ptrEv = comdat any

$_ZNSt10unique_ptrINSt7__cxx1118basic_stringstreamIcSt11char_traitsIcESaIcEEESt14default_deleteIS5_EE11get_deleterEv = comdat any

$_ZNKSt14default_deleteINSt7__cxx1118basic_stringstreamIcSt11char_traitsIcESaIcEEEEclEPS5_ = comdat any

$_ZSt3getILm0EJPNSt7__cxx1118basic_stringstreamIcSt11char_traitsIcESaIcEEESt14default_deleteIS5_EEERNSt13tuple_elementIXT_ESt5tupleIJDpT0_EEE4typeERSD_ = comdat any

$_ZSt12__get_helperILm0EPNSt7__cxx1118basic_stringstreamIcSt11char_traitsIcESaIcEEEJSt14default_deleteIS5_EEERT0_RSt11_Tuple_implIXT_EJS9_DpT1_EE = comdat any

$_ZNSt11_Tuple_implILm0EJPNSt7__cxx1118basic_stringstreamIcSt11char_traitsIcESaIcEEESt14default_deleteIS5_EEE7_M_headERS9_ = comdat any

$_ZNSt10_Head_baseILm0EPNSt7__cxx1118basic_stringstreamIcSt11char_traitsIcESaIcEEELb0EE7_M_headERS7_ = comdat any

$_ZNSt15__uniq_ptr_implINSt7__cxx1118basic_stringstreamIcSt11char_traitsIcESaIcEEESt14default_deleteIS5_EE10_M_deleterEv = comdat any

$_ZSt3getILm1EJPNSt7__cxx1118basic_stringstreamIcSt11char_traitsIcESaIcEEESt14default_deleteIS5_EEERNSt13tuple_elementIXT_ESt5tupleIJDpT0_EEE4typeERSD_ = comdat any

$_ZSt12__get_helperILm1ESt14default_deleteINSt7__cxx1118basic_stringstreamIcSt11char_traitsIcESaIcEEEEJEERT0_RSt11_Tuple_implIXT_EJS8_DpT1_EE = comdat any

$_ZNSt11_Tuple_implILm1EJSt14default_deleteINSt7__cxx1118basic_stringstreamIcSt11char_traitsIcESaIcEEEEEE7_M_headERS8_ = comdat any

$_ZNSt10_Head_baseILm1ESt14default_deleteINSt7__cxx1118basic_stringstreamIcSt11char_traitsIcESaIcEEEELb1EE7_M_headERS8_ = comdat any

$_ZN4absl12log_internal10LogMessagelsILi16EEERS1_RAT__Kc = comdat any

$_ZN4absl12log_internal10LogMessagelsILi14EEERS1_RAT__Kc = comdat any

$_ZN7testing8internal20MakeDeathTestMatcherENS_7MatcherIRKNSt7__cxx1112basic_stringIcSt11char_traitsIcESaIcEEEEE = comdat any

$_ZN7testing9HasSubstrIA35_cEENS_18PolymorphicMatcherINS_8internal16HasSubstrMatcherINSt7__cxx1112basic_stringIcSt11char_traitsIcESaIcEEEEEEERKT_ = comdat any

$_ZN7testing18PolymorphicMatcherINS_8internal16HasSubstrMatcherINSt7__cxx1112basic_stringIcSt11char_traitsIcESaIcEEEEEED2Ev = comdat any

$_ZN4absl12log_internal10LogMessagelsILi14EEERS1_RAT__c = comdat any

$_ZN7testing7MatcherIRKNSt7__cxx1112basic_stringIcSt11char_traitsIcESaIcEEEEC2EOS9_ = comdat any

$_ZN7testing8internal11MatcherBaseIRKNSt7__cxx1112basic_stringIcSt11char_traitsIcESaIcEEEEC2EOSA_ = comdat any

$_ZNSt11_Tuple_implILm1EJN7testing18PolymorphicMatcherINS0_8internal16HasSubstrMatcherINSt7__cxx1112basic_stringIcSt11char_traitsIcESaIcEEEEEEEEEC2ERKSB_ = comdat any

$_ZNSt11_Tuple_implILm1EJN7testing18PolymorphicMatcherINS0_8internal16HasSubstrMatcherINSt7__cxx1112basic_stringIcSt11char_traitsIcESaIcEEEEEEEEED2Ev = comdat any

$_ZNSt10_Head_baseILm1EN7testing18PolymorphicMatcherINS0_8internal16HasSubstrMatcherINSt7__cxx1112basic_stringIcSt11char_traitsIcESaIcEEEEEEELb0EEC2ERKSB_ = comdat any

$_ZN7testing18PolymorphicMatcherINS_8internal16HasSubstrMatcherINSt7__cxx1112basic_stringIcSt11char_traitsIcESaIcEEEEEEC2ERKSA_ = comdat any

$_ZN7testing8internal16HasSubstrMatcherINSt7__cxx1112basic_stringIcSt11char_traitsIcESaIcEEEEC2ERKS8_ = comdat any

$_ZNSt10_Head_baseILm1EN7testing18PolymorphicMatcherINS0_8internal16HasSubstrMatcherINSt7__cxx1112basic_stringIcSt11char_traitsIcESaIcEEEEEEELb0EED2Ev = comdat any

$_ZNSt5tupleIJPciEEC2IS0_iTnNSt9enable_ifIXclsr4_TCCIXntcl14__is_alloc_argIT_EEEEE29__is_implicitly_constructibleIS4_T0_EEEbE4typeELb1EEEOS4_OS5_ = comdat any

$_ZNSt11_Tuple_implILm0EJPciEEC2IS0_JiEvEEOT_DpOT0_ = comdat any

$_ZNSt11_Tuple_implILm1EJiEEC2IiEEOT_ = comdat any

$_ZNSt10_Head_baseILm0EPcLb0EEC2IS0_EEOT_ = comdat any

$_ZNSt10_Head_baseILm1EiLb0EEC2IiEEOT_ = comdat any

$_ZN7testing22MakePolymorphicMatcherINS_8internal16HasSubstrMatcherINSt7__cxx1112basic_stringIcSt11char_traitsIcESaIcEEEEEEENS_18PolymorphicMatcherIT_EERKSB_ = comdat any

$_ZN7testing8internal16HasSubstrMatcherINSt7__cxx1112basic_stringIcSt11char_traitsIcESaIcEEEEC2ERKS7_ = comdat any

$_ZN7testing8internal16HasSubstrMatcherINSt7__cxx1112basic_stringIcSt11char_traitsIcESaIcEEEED2Ev = comdat any

$_ZN7testing18PolymorphicMatcherINS_8internal16HasSubstrMatcherINSt7__cxx1112basic_stringIcSt11char_traitsIcESaIcEEEEEEC2ERKS9_ = comdat any

$_ZNSt6vectorIN7testing7MatcherIRKNSt7__cxx1112basic_stringIcSt11char_traitsIcESaIcEEEEESaISA_EEC2Ev = comdat any

$_ZNSt6vectorIN7testing7MatcherIRKNSt7__cxx1112basic_stringIcSt11char_traitsIcESaIcEEEEESaISA_EEC2EOSC_ = comdat any

$_ZN7testing8internal16AllOfMatcherImplIRKNSt7__cxx1112basic_stringIcSt11char_traitsIcESaIcEEEEC2ESt6vectorINS_7MatcherIS9_EESaISD_EE = comdat any

$_ZNSt6vectorIN7testing7MatcherIRKNSt7__cxx1112basic_stringIcSt11char_traitsIcESaIcEEEEESaISA_EED2Ev = comdat any

$_ZNSt12_Vector_baseIN7testing7MatcherIRKNSt7__cxx1112basic_stringIcSt11char_traitsIcESaIcEEEEESaISA_EEC2Ev = comdat any

$_ZNSt12_Vector_baseIN7testing7MatcherIRKNSt7__cxx1112basic_stringIcSt11char_traitsIcESaIcEEEEESaISA_EE12_Vector_implC2Ev = comdat any

$_ZNSaIN7testing7MatcherIRKNSt7__cxx1112basic_stringIcSt11char_traitsIcESaIcEEEEEEC2Ev = comdat any

$_ZNSt12_Vector_baseIN7testing7MatcherIRKNSt7__cxx1112basic_stringIcSt11char_traitsIcESaIcEEEEESaISA_EE17_Vector_impl_dataC2Ev = comdat any

$_ZNSt15__new_allocatorIN7testing7MatcherIRKNSt7__cxx1112basic_stringIcSt11char_traitsIcESaIcEEEEEEC2Ev = comdat any

$_ZNSt6vectorIN7testing7MatcherIRKNSt7__cxx1112basic_stringIcSt11char_traitsIcESaIcEEEEESaISA_EE9push_backEOSA_ = comdat any

$_ZNSt6vectorIN7testing7MatcherIRKNSt7__cxx1112basic_stringIcSt11char_traitsIcESaIcEEEEESaISA_EE12emplace_backIJSA_EEERSA_DpOT_ = comdat any

$_ZNSt16allocator_traitsISaIN7testing7MatcherIRKNSt7__cxx1112basic_stringIcSt11char_traitsIcESaIcEEEEEEE9constructISA_JSA_EEEvRSB_PT_DpOT0_ = comdat any

$_ZNSt6vectorIN7testing7MatcherIRKNSt7__cxx1112basic_stringIcSt11char_traitsIcESaIcEEEEESaISA_EE17_M_realloc_insertIJSA_EEEvN9__gnu_cxx17__normal_iteratorIPSA_SC_EEDpOT_ = comdat any

$_ZNSt6vectorIN7testing7MatcherIRKNSt7__cxx1112basic_stringIcSt11char_traitsIcESaIcEEEEESaISA_EE3endEv = comdat any

$_ZNSt6vectorIN7testing7MatcherIRKNSt7__cxx1112basic_stringIcSt11char_traitsIcESaIcEEEEESaISA_EE4backEv = comdat any

$_ZNSt15__new_allocatorIN7testing7MatcherIRKNSt7__cxx1112basic_stringIcSt11char_traitsIcESaIcEEEEEE9constructISA_JSA_EEEvPT_DpOT0_ = comdat any

$_ZNKSt6vectorIN7testing7MatcherIRKNSt7__cxx1112basic_stringIcSt11char_traitsIcESaIcEEEEESaISA_EE12_M_check_lenEmPKc = comdat any

$_ZN9__gnu_cxxmiIPN7testing7MatcherIRKNSt7__cxx1112basic_stringIcSt11char_traitsIcESaIcEEEEESt6vectorISB_SaISB_EEEENS_17__normal_iteratorIT_T0_E15difference_typeERKSJ_SM_ = comdat any

$_ZNSt6vectorIN7testing7MatcherIRKNSt7__cxx1112basic_stringIcSt11char_traitsIcESaIcEEEEESaISA_EE5beginEv = comdat any

$_ZNSt12_Vector_baseIN7testing7MatcherIRKNSt7__cxx1112basic_stringIcSt11char_traitsIcESaIcEEEEESaISA_EE11_M_allocateEm = comdat any

$_ZSt34__uninitialized_move_if_noexcept_aIPN7testing7MatcherIRKNSt7__cxx1112basic_stringIcSt11char_traitsIcESaIcEEEEESB_SaISA_EET0_T_SE_SD_RT1_ = comdat any

$_ZNK9__gnu_cxx17__normal_iteratorIPN7testing7MatcherIRKNSt7__cxx1112basic_stringIcSt11char_traitsIcESaIcEEEEESt6vectorISB_SaISB_EEE4baseEv = comdat any

$_ZNSt12_Vector_baseIN7testing7MatcherIRKNSt7__cxx1112basic_stringIcSt11char_traitsIcESaIcEEEEESaISA_EE19_M_get_Tp_allocatorEv = comdat any

$_ZNSt16allocator_traitsISaIN7testing7MatcherIRKNSt7__cxx1112basic_stringIcSt11char_traitsIcESaIcEEEEEEE7destroyISA_EEvRSB_PT_ = comdat any

$_ZSt8_DestroyIPN7testing7MatcherIRKNSt7__cxx1112basic_stringIcSt11char_traitsIcESaIcEEEEESA_EvT_SC_RSaIT0_E = comdat any

$_ZNSt12_Vector_baseIN7testing7MatcherIRKNSt7__cxx1112basic_stringIcSt11char_traitsIcESaIcEEEEESaISA_EE13_M_deallocateEPSA_m = comdat any

$_ZNKSt6vectorIN7testing7MatcherIRKNSt7__cxx1112basic_stringIcSt11char_traitsIcESaIcEEEEESaISA_EE8max_sizeEv = comdat any

$_ZNKSt6vectorIN7testing7MatcherIRKNSt7__cxx1112basic_stringIcSt11char_traitsIcESaIcEEEEESaISA_EE4sizeEv = comdat any

$_ZSt3maxImERKT_S2_S2_ = comdat any

$_ZNSt6vectorIN7testing7MatcherIRKNSt7__cxx1112basic_stringIcSt11char_traitsIcESaIcEEEEESaISA_EE11_S_max_sizeERKSB_ = comdat any

$_ZNKSt12_Vector_baseIN7testing7MatcherIRKNSt7__cxx1112basic_stringIcSt11char_traitsIcESaIcEEEEESaISA_EE19_M_get_Tp_allocatorEv = comdat any

$_ZNSt16allocator_traitsISaIN7testing7MatcherIRKNSt7__cxx1112basic_stringIcSt11char_traitsIcESaIcEEEEEEE8max_sizeERKSB_ = comdat any

$_ZSt3minImERKT_S2_S2_ = comdat any

$_ZNKSt15__new_allocatorIN7testing7MatcherIRKNSt7__cxx1112basic_stringIcSt11char_traitsIcESaIcEEEEEE8max_sizeEv = comdat any

$_ZNKSt15__new_allocatorIN7testing7MatcherIRKNSt7__cxx1112basic_stringIcSt11char_traitsIcESaIcEEEEEE11_M_max_sizeEv = comdat any

$_ZN9__gnu_cxx17__normal_iteratorIPN7testing7MatcherIRKNSt7__cxx1112basic_stringIcSt11char_traitsIcESaIcEEEEESt6vectorISB_SaISB_EEEC2ERKSC_ = comdat any

$_ZNSt16allocator_traitsISaIN7testing7MatcherIRKNSt7__cxx1112basic_stringIcSt11char_traitsIcESaIcEEEEEEE8allocateERSB_m = comdat any

$_ZNSt15__new_allocatorIN7testing7MatcherIRKNSt7__cxx1112basic_stringIcSt11char_traitsIcESaIcEEEEEE8allocateEmPKv = comdat any

$_ZSt22__uninitialized_copy_aIPKN7testing7MatcherIRKNSt7__cxx1112basic_stringIcSt11char_traitsIcESaIcEEEEEPSA_SA_ET0_T_SF_SE_RSaIT1_E = comdat any

$_ZSt32__make_move_if_noexcept_iteratorIN7testing7MatcherIRKNSt7__cxx1112basic_stringIcSt11char_traitsIcESaIcEEEEEPKSA_ET0_PT_ = comdat any

$_ZSt18uninitialized_copyIPKN7testing7MatcherIRKNSt7__cxx1112basic_stringIcSt11char_traitsIcESaIcEEEEEPSA_ET0_T_SF_SE_ = comdat any

$_ZNSt20__uninitialized_copyILb0EE13__uninit_copyIPKN7testing7MatcherIRKNSt7__cxx1112basic_stringIcSt11char_traitsIcESaIcEEEEEPSC_EET0_T_SH_SG_ = comdat any

$_ZSt16__do_uninit_copyIPKN7testing7MatcherIRKNSt7__cxx1112basic_stringIcSt11char_traitsIcESaIcEEEEEPSA_ET0_T_SF_SE_ = comdat any

$_ZSt10_ConstructIN7testing7MatcherIRKNSt7__cxx1112basic_stringIcSt11char_traitsIcESaIcEEEEEJRKSA_EEvPT_DpOT0_ = comdat any

$_ZSt8_DestroyIPN7testing7MatcherIRKNSt7__cxx1112basic_stringIcSt11char_traitsIcESaIcEEEEEEvT_SC_ = comdat any

$_ZN7testing7MatcherIRKNSt7__cxx1112basic_stringIcSt11char_traitsIcESaIcEEEEC2ERKS9_ = comdat any

$_ZN7testing8internal11MatcherBaseIRKNSt7__cxx1112basic_stringIcSt11char_traitsIcESaIcEEEEC2ERKSA_ = comdat any

$_ZN7testing8internal17SharedPayloadBase3RefEv = comdat any

$_ZNSt12_Destroy_auxILb0EE9__destroyIPN7testing7MatcherIRKNSt7__cxx1112basic_stringIcSt11char_traitsIcESaIcEEEEEEEvT_SE_ = comdat any

$_ZSt8_DestroyIN7testing7MatcherIRKNSt7__cxx1112basic_stringIcSt11char_traitsIcESaIcEEEEEEvPT_ = comdat any

$_ZNSt15__new_allocatorIN7testing7MatcherIRKNSt7__cxx1112basic_stringIcSt11char_traitsIcESaIcEEEEEE7destroyISA_EEvPT_ = comdat any

$_ZNSt16allocator_traitsISaIN7testing7MatcherIRKNSt7__cxx1112basic_stringIcSt11char_traitsIcESaIcEEEEEEE10deallocateERSB_PSA_m = comdat any

$_ZNSt15__new_allocatorIN7testing7MatcherIRKNSt7__cxx1112basic_stringIcSt11char_traitsIcESaIcEEEEEE10deallocateEPSA_m = comdat any

$_ZNK9__gnu_cxx17__normal_iteratorIPN7testing7MatcherIRKNSt7__cxx1112basic_stringIcSt11char_traitsIcESaIcEEEEESt6vectorISB_SaISB_EEEmiEl = comdat any

$_ZNK9__gnu_cxx17__normal_iteratorIPN7testing7MatcherIRKNSt7__cxx1112basic_stringIcSt11char_traitsIcESaIcEEEEESt6vectorISB_SaISB_EEEdeEv = comdat any

$_ZSt3getILm0EJPciEERKNSt13tuple_elementIXT_ESt5tupleIJDpT0_EEE4typeERKS5_ = comdat any

$_ZSt3getILm1EJPciEERKNSt13tuple_elementIXT_ESt5tupleIJDpT0_EEE4typeERKS5_ = comdat any

$_ZSt12__get_helperILm0EPcJiEERKT0_RKSt11_Tuple_implIXT_EJS1_DpT1_EE = comdat any

$_ZNSt11_Tuple_implILm0EJPciEE7_M_headERKS1_ = comdat any

$_ZNSt10_Head_baseILm0EPcLb0EE7_M_headERKS1_ = comdat any

$_ZSt12__get_helperILm1EiJEERKT0_RKSt11_Tuple_implIXT_EJS0_DpT1_EE = comdat any

$_ZNSt11_Tuple_implILm1EJiEE7_M_headERKS0_ = comdat any

$_ZNSt10_Head_baseILm1EiLb0EE7_M_headERKS0_ = comdat any

$_ZNSaIPKcEC2Ev = comdat any

$_ZNSt6vectorIPKcSaIS1_EEC2ESt16initializer_listIS1_ERKS2_ = comdat any

$_ZN7testing8internal39UniversalTersePrintTupleFieldsToStringsISt5tupleIJPciEEEESt6vectorINSt7__cxx1112basic_stringIcSt11char_traitsIcESaIcEEESaISB_EERKT_ = comdat any

$_ZNSt5tupleIJPciEEC2ILb1ETnNSt9enable_ifIXclsr4_TCCIXT_EEE29__is_implicitly_constructibleIRKS0_RKiEEEbE4typeELb1EEES5_S7_ = comdat any

$_ZNSt6vectorINSt7__cxx1112basic_stringIcSt11char_traitsIcESaIcEEESaIS5_EED2Ev = comdat any

$_ZNSt6vectorIPKcSaIS1_EED2Ev = comdat any

$_ZNSaIPKcED2Ev = comdat any

$_ZNSt15__new_allocatorIPKcEC2Ev = comdat any

$_ZNSt12_Vector_baseIPKcSaIS1_EEC2ERKS2_ = comdat any

$_ZNSt6vectorIPKcSaIS1_EE19_M_range_initializeIPKS1_EEvT_S7_St20forward_iterator_tag = comdat any

$_ZNKSt16initializer_listIPKcE5beginEv = comdat any

$_ZNKSt16initializer_listIPKcE3endEv = comdat any

$_ZNSt12_Vector_baseIPKcSaIS1_EED2Ev = comdat any

$_ZNSt12_Vector_baseIPKcSaIS1_EE12_Vector_implC2ERKS2_ = comdat any

$_ZNSt12_Vector_baseIPKcSaIS1_EE17_Vector_impl_dataC2Ev = comdat any

$_ZNSt15__new_allocatorIPKcEC2ERKS2_ = comdat any

$_ZSt8distanceIPKPKcENSt15iterator_traitsIT_E15difference_typeES5_S5_ = comdat any

$_ZNSt12_Vector_baseIPKcSaIS1_EE11_M_allocateEm = comdat any

$_ZNSt6vectorIPKcSaIS1_EE17_S_check_init_lenEmRKS2_ = comdat any

$_ZNSt12_Vector_baseIPKcSaIS1_EE19_M_get_Tp_allocatorEv = comdat any

$_ZSt22__uninitialized_copy_aIPKPKcPS1_S1_ET0_T_S6_S5_RSaIT1_E = comdat any

$_ZSt10__distanceIPKPKcENSt15iterator_traitsIT_E15difference_typeES5_S5_St26random_access_iterator_tag = comdat any

$_ZSt19__iterator_categoryIPKPKcENSt15iterator_traitsIT_E17iterator_categoryERKS5_ = comdat any

$_ZNSt16allocator_traitsISaIPKcEE8allocateERS2_m = comdat any

$_ZNSt15__new_allocatorIPKcE8allocateEmPKv = comdat any

$_ZNKSt15__new_allocatorIPKcE11_M_max_sizeEv = comdat any

$_ZNSt6vectorIPKcSaIS1_EE11_S_max_sizeERKS2_ = comdat any

$_ZNSaIPKcEC2ERKS1_ = comdat any

$_ZNSt16allocator_traitsISaIPKcEE8max_sizeERKS2_ = comdat any

$_ZNKSt15__new_allocatorIPKcE8max_sizeEv = comdat any

$_ZSt18uninitialized_copyIPKPKcPS1_ET0_T_S6_S5_ = comdat any

$_ZNSt20__uninitialized_copyILb1EE13__uninit_copyIPKPKcPS3_EET0_T_S8_S7_ = comdat any

$_ZSt4copyIPKPKcPS1_ET0_T_S6_S5_ = comdat any

$_ZSt13__copy_move_aILb0EPKPKcPS1_ET1_T0_S6_S5_ = comdat any

$_ZSt12__miter_baseIPKPKcET_S4_ = comdat any

$_ZSt12__niter_wrapIPPKcET_RKS3_S3_ = comdat any

$_ZSt14__copy_move_a1ILb0EPKPKcPS1_ET1_T0_S6_S5_ = comdat any

$_ZSt12__niter_baseIPKPKcET_S4_ = comdat any

$_ZSt12__niter_baseIPPKcET_S3_ = comdat any

$_ZSt14__copy_move_a2ILb0EPKPKcPS1_ET1_T0_S6_S5_ = comdat any

$_ZNSt11__copy_moveILb0ELb1ESt26random_access_iterator_tagE8__copy_mIPKcEEPT_PKS5_S8_S6_ = comdat any

$_ZNKSt16initializer_listIPKcE4sizeEv = comdat any

$_ZNSt12_Vector_baseIPKcSaIS1_EE13_M_deallocateEPS1_m = comdat any

$_ZNSt12_Vector_baseIPKcSaIS1_EE12_Vector_implD2Ev = comdat any

$_ZNSt16allocator_traitsISaIPKcEE10deallocateERS2_PS1_m = comdat any

$_ZNSt15__new_allocatorIPKcE10deallocateEPS1_m = comdat any

$_ZNSt15__new_allocatorIPKcED2Ev = comdat any

$_ZNSt6vectorINSt7__cxx1112basic_stringIcSt11char_traitsIcESaIcEEESaIS5_EEC2Ev = comdat any

$_ZN7testing8internal25TersePrintPrefixToStringsISt5tupleIJPciEELm2EEEvRKT_St17integral_constantImXT0_EEPSt6vectorINSt7__cxx1112basic_stringIcSt11char_traitsIcESaIcEEESaISG_EE = comdat any

$_ZNSt12_Vector_baseINSt7__cxx1112basic_stringIcSt11char_traitsIcESaIcEEESaIS5_EEC2Ev = comdat any

$_ZNSt12_Vector_baseINSt7__cxx1112basic_stringIcSt11char_traitsIcESaIcEEESaIS5_EE12_Vector_implC2Ev = comdat any

$_ZNSaINSt7__cxx1112basic_stringIcSt11char_traitsIcESaIcEEEEC2Ev = comdat any

$_ZNSt12_Vector_baseINSt7__cxx1112basic_stringIcSt11char_traitsIcESaIcEEESaIS5_EE17_Vector_impl_dataC2Ev = comdat any

$_ZNSt15__new_allocatorINSt7__cxx1112basic_stringIcSt11char_traitsIcESaIcEEEEC2Ev = comdat any

$_ZN7testing8internal25TersePrintPrefixToStringsISt5tupleIJPciEELm1EEEvRKT_St17integral_constantImXT0_EEPSt6vectorINSt7__cxx1112basic_stringIcSt11char_traitsIcESaIcEEESaISG_EE = comdat any

$_ZN7testing8internal19UniversalTersePrintIiEEvRKT_PSo = comdat any

$_ZNSt6vectorINSt7__cxx1112basic_stringIcSt11char_traitsIcESaIcEEESaIS5_EE9push_backEOS5_ = comdat any

$_ZN7testing8internal25TersePrintPrefixToStringsISt5tupleIJPciEEEEvRKT_St17integral_constantImLm0EEPSt6vectorINSt7__cxx1112basic_stringIcSt11char_traitsIcESaIcEEESaISG_EE = comdat any

$_ZN7testing8internal19UniversalTersePrintIPcEEvRKT_PSo = comdat any

$_ZN7testing8internal21UniversalTersePrinterIPKcE5PrintES3_PSo = comdat any

$_ZN7testing8internal14UniversalPrintINSt7__cxx1112basic_stringIcSt11char_traitsIcESaIcEEEEEvRKT_PSo = comdat any

$_ZN7testing8internal21UniversalTersePrinterIiE5PrintERKiPSo = comdat any

$_ZN7testing8internal14UniversalPrintIiEEvRKT_PSo = comdat any

$_ZN7testing8internal16UniversalPrinterIiE5PrintERKiPSo = comdat any

$_ZN7testing8internal7PrintToIiEEvRKT_PSo = comdat any

$_ZN7testing8internal17PrintWithFallbackIiEEvRKT_PSo = comdat any

$_ZN7testing8internal52internal_stream_operator_without_lexical_name_lookup13StreamPrinter10PrintValueIivEEDTcvvlsdefp0_fp_ERKT_PSo = comdat any

$_ZNSt6vectorINSt7__cxx1112basic_stringIcSt11char_traitsIcESaIcEEESaIS5_EE12emplace_backIJS5_EEERS5_DpOT_ = comdat any

$_ZNSt16allocator_traitsISaINSt7__cxx1112basic_stringIcSt11char_traitsIcESaIcEEEEE9constructIS5_JS5_EEEvRS6_PT_DpOT0_ = comdat any

$_ZNSt6vectorINSt7__cxx1112basic_stringIcSt11char_traitsIcESaIcEEESaIS5_EE17_M_realloc_insertIJS5_EEEvN9__gnu_cxx17__normal_iteratorIPS5_S7_EEDpOT_ = comdat any

$_ZNSt6vectorINSt7__cxx1112basic_stringIcSt11char_traitsIcESaIcEEESaIS5_EE3endEv = comdat any

$_ZNSt6vectorINSt7__cxx1112basic_stringIcSt11char_traitsIcESaIcEEESaIS5_EE4backEv = comdat any

$_ZNSt15__new_allocatorINSt7__cxx1112basic_stringIcSt11char_traitsIcESaIcEEEE9constructIS5_JS5_EEEvPT_DpOT0_ = comdat any

$_ZNKSt6vectorINSt7__cxx1112basic_stringIcSt11char_traitsIcESaIcEEESaIS5_EE12_M_check_lenEmPKc = comdat any

$_ZN9__gnu_cxxmiIPNSt7__cxx1112basic_stringIcSt11char_traitsIcESaIcEEESt6vectorIS6_SaIS6_EEEENS_17__normal_iteratorIT_T0_E15difference_typeERKSE_SH_ = comdat any

$_ZNSt6vectorINSt7__cxx1112basic_stringIcSt11char_traitsIcESaIcEEESaIS5_EE5beginEv = comdat any

$_ZNSt12_Vector_baseINSt7__cxx1112basic_stringIcSt11char_traitsIcESaIcEEESaIS5_EE11_M_allocateEm = comdat any

$_ZNSt6vectorINSt7__cxx1112basic_stringIcSt11char_traitsIcESaIcEEESaIS5_EE11_S_relocateEPS5_S8_S8_RS6_ = comdat any

$_ZNK9__gnu_cxx17__normal_iteratorIPNSt7__cxx1112basic_stringIcSt11char_traitsIcESaIcEEESt6vectorIS6_SaIS6_EEE4baseEv = comdat any

$_ZNSt12_Vector_baseINSt7__cxx1112basic_stringIcSt11char_traitsIcESaIcEEESaIS5_EE19_M_get_Tp_allocatorEv = comdat any

$_ZNSt12_Vector_baseINSt7__cxx1112basic_stringIcSt11char_traitsIcESaIcEEESaIS5_EE13_M_deallocateEPS5_m = comdat any

$_ZNKSt6vectorINSt7__cxx1112basic_stringIcSt11char_traitsIcESaIcEEESaIS5_EE8max_sizeEv = comdat any

$_ZNKSt6vectorINSt7__cxx1112basic_stringIcSt11char_traitsIcESaIcEEESaIS5_EE4sizeEv = comdat any

$_ZNSt6vectorINSt7__cxx1112basic_stringIcSt11char_traitsIcESaIcEEESaIS5_EE11_S_max_sizeERKS6_ = comdat any

$_ZNKSt12_Vector_baseINSt7__cxx1112basic_stringIcSt11char_traitsIcESaIcEEESaIS5_EE19_M_get_Tp_allocatorEv = comdat any

$_ZNSt16allocator_traitsISaINSt7__cxx1112basic_stringIcSt11char_traitsIcESaIcEEEEE8max_sizeERKS6_ = comdat any

$_ZNKSt15__new_allocatorINSt7__cxx1112basic_stringIcSt11char_traitsIcESaIcEEEE8max_sizeEv = comdat any

$_ZNKSt15__new_allocatorINSt7__cxx1112basic_stringIcSt11char_traitsIcESaIcEEEE11_M_max_sizeEv = comdat any

$_ZN9__gnu_cxx17__normal_iteratorIPNSt7__cxx1112basic_stringIcSt11char_traitsIcESaIcEEESt6vectorIS6_SaIS6_EEEC2ERKS7_ = comdat any

$_ZNSt16allocator_traitsISaINSt7__cxx1112basic_stringIcSt11char_traitsIcESaIcEEEEE8allocateERS6_m = comdat any

$_ZNSt15__new_allocatorINSt7__cxx1112basic_stringIcSt11char_traitsIcESaIcEEEE8allocateEmPKv = comdat any

$_ZSt12__relocate_aIPNSt7__cxx1112basic_stringIcSt11char_traitsIcESaIcEEES6_SaIS5_EET0_T_S9_S8_RT1_ = comdat any

$_ZSt14__relocate_a_1IPNSt7__cxx1112basic_stringIcSt11char_traitsIcESaIcEEES6_SaIS5_EET0_T_S9_S8_RT1_ = comdat any

$_ZSt12__niter_baseIPNSt7__cxx1112basic_stringIcSt11char_traitsIcESaIcEEEET_S7_ = comdat any

$_ZSt19__relocate_object_aINSt7__cxx1112basic_stringIcSt11char_traitsIcESaIcEEES5_SaIS5_EEvPT_PT0_RT1_ = comdat any

$_ZNSt16allocator_traitsISaINSt7__cxx1112basic_stringIcSt11char_traitsIcESaIcEEEEE7destroyIS5_EEvRS6_PT_ = comdat any

$_ZNSt15__new_allocatorINSt7__cxx1112basic_stringIcSt11char_traitsIcESaIcEEEE7destroyIS5_EEvPT_ = comdat any

$_ZNSt16allocator_traitsISaINSt7__cxx1112basic_stringIcSt11char_traitsIcESaIcEEEEE10deallocateERS6_PS5_m = comdat any

$_ZNSt15__new_allocatorINSt7__cxx1112basic_stringIcSt11char_traitsIcESaIcEEEE10deallocateEPS5_m = comdat any

$_ZNK9__gnu_cxx17__normal_iteratorIPNSt7__cxx1112basic_stringIcSt11char_traitsIcESaIcEEESt6vectorIS6_SaIS6_EEEmiEl = comdat any

$_ZNK9__gnu_cxx17__normal_iteratorIPNSt7__cxx1112basic_stringIcSt11char_traitsIcESaIcEEESt6vectorIS6_SaIS6_EEEdeEv = comdat any

$_ZNSt11_Tuple_implILm0EJPciEEC2ERKS0_RKi = comdat any

$_ZNSt11_Tuple_implILm1EJiEEC2ERKi = comdat any

$_ZNSt10_Head_baseILm0EPcLb0EEC2ERKS0_ = comdat any

$_ZNSt10_Head_baseILm1EiLb0EEC2ERKi = comdat any

$_ZSt8_DestroyIPNSt7__cxx1112basic_stringIcSt11char_traitsIcESaIcEEES5_EvT_S7_RSaIT0_E = comdat any

$_ZNSt12_Vector_baseINSt7__cxx1112basic_stringIcSt11char_traitsIcESaIcEEESaIS5_EED2Ev = comdat any

$_ZSt8_DestroyIPNSt7__cxx1112basic_stringIcSt11char_traitsIcESaIcEEEEvT_S7_ = comdat any

$_ZNSt12_Destroy_auxILb0EE9__destroyIPNSt7__cxx1112basic_stringIcSt11char_traitsIcESaIcEEEEEvT_S9_ = comdat any

$_ZSt8_DestroyINSt7__cxx1112basic_stringIcSt11char_traitsIcESaIcEEEEvPT_ = comdat any

$_ZNSt12_Vector_baseINSt7__cxx1112basic_stringIcSt11char_traitsIcESaIcEEESaIS5_EE12_Vector_implD2Ev = comdat any

$_ZNSaINSt7__cxx1112basic_stringIcSt11char_traitsIcESaIcEEEED2Ev = comdat any

$_ZNSt15__new_allocatorINSt7__cxx1112basic_stringIcSt11char_traitsIcESaIcEEEED2Ev = comdat any

$_ZSt8_DestroyIPPKcS1_EvT_S3_RSaIT0_E = comdat any

$_ZSt8_DestroyIPPKcEvT_S3_ = comdat any

$_ZNSt12_Destroy_auxILb1EE9__destroyIPPKcEEvT_S5_ = comdat any

$_ZN7testing15SafeMatcherCastIRKNSt7__cxx1112basic_stringIcSt11char_traitsIcESaIcEEENS_18PolymorphicMatcherINS_8internal16HasSubstrMatcherIS6_EEEEEENS_7MatcherIT_EERKT0_ = comdat any

$_ZN7testing11MatcherCastIRKNSt7__cxx1112basic_stringIcSt11char_traitsIcESaIcEEENS_18PolymorphicMatcherINS_8internal16HasSubstrMatcherIS6_EEEEEENS_7MatcherIT_EERKT0_ = comdat any

$_ZN7testing8internal15MatcherCastImplIRKNSt7__cxx1112basic_stringIcSt11char_traitsIcESaIcEEENS_18PolymorphicMatcherINS0_16HasSubstrMatcherIS7_EEEEE4CastERKSD_ = comdat any

$_ZN7testing8internal15MatcherCastImplIRKNSt7__cxx1112basic_stringIcSt11char_traitsIcESaIcEEENS_18PolymorphicMatcherINS0_16HasSubstrMatcherIS7_EEEEE8CastImplILb0EEENS_7MatcherIS9_EERKSD_St17integral_constantIbLb1EESK_IbXT_EE = comdat any

$_ZNK7testing18PolymorphicMatcherINS_8internal16HasSubstrMatcherINSt7__cxx1112basic_stringIcSt11char_traitsIcESaIcEEEEEEcvNS_7MatcherIT_EEIRKS8_EEv = comdat any

$_ZN7testing18PolymorphicMatcherINS_8internal16HasSubstrMatcherINSt7__cxx1112basic_stringIcSt11char_traitsIcESaIcEEEEEE15MonomorphicImplIRKS8_EC2ERKS9_ = comdat any

$_ZN7testing18PolymorphicMatcherINS_8internal16HasSubstrMatcherINSt7__cxx1112basic_stringIcSt11char_traitsIcESaIcEEEEEE15MonomorphicImplIRKS8_ED2Ev = comdat any

$_ZN7testing18PolymorphicMatcherINS_8internal16HasSubstrMatcherINSt7__cxx1112basic_stringIcSt11char_traitsIcESaIcEEEEEE15MonomorphicImplIRKS8_ED0Ev = comdat any

$_ZNK7testing18PolymorphicMatcherINS_8internal16HasSubstrMatcherINSt7__cxx1112basic_stringIcSt11char_traitsIcESaIcEEEEEE15MonomorphicImplIRKS8_E10DescribeToEPSo = comdat any

$_ZNK7testing18PolymorphicMatcherINS_8internal16HasSubstrMatcherINSt7__cxx1112basic_stringIcSt11char_traitsIcESaIcEEEEEE15MonomorphicImplIRKS8_E18DescribeNegationToEPSo = comdat any

$_ZNK7testing18PolymorphicMatcherINS_8internal16HasSubstrMatcherINSt7__cxx1112basic_stringIcSt11char_traitsIcESaIcEEEEEE15MonomorphicImplIRKS8_E15MatchAndExplainESD_PNS_19MatchResultListenerE = comdat any

$_ZNK7testing8internal16HasSubstrMatcherINSt7__cxx1112basic_stringIcSt11char_traitsIcESaIcEEEE10DescribeToEPSo = comdat any

$_ZNK7testing8internal16HasSubstrMatcherINSt7__cxx1112basic_stringIcSt11char_traitsIcESaIcEEEE18DescribeNegationToEPSo = comdat any

$_ZNK7testing8internal16HasSubstrMatcherINSt7__cxx1112basic_stringIcSt11char_traitsIcESaIcEEEE15MatchAndExplainIS7_EEbRKT_PNS_19MatchResultListenerE = comdat any

$_ZSt12__get_helperILm1EN7testing18PolymorphicMatcherINS0_8internal16HasSubstrMatcherINSt7__cxx1112basic_stringIcSt11char_traitsIcESaIcEEEEEEEJEERKT0_RKSt11_Tuple_implIXT_EJSC_DpT1_EE = comdat any

$_ZNSt11_Tuple_implILm1EJN7testing18PolymorphicMatcherINS0_8internal16HasSubstrMatcherINSt7__cxx1112basic_stringIcSt11char_traitsIcESaIcEEEEEEEEE7_M_headERKSC_ = comdat any

$_ZNSt10_Head_baseILm1EN7testing18PolymorphicMatcherINS0_8internal16HasSubstrMatcherINSt7__cxx1112basic_stringIcSt11char_traitsIcESaIcEEEEEEELb0EE7_M_headERKSC_ = comdat any

$_ZNSt12_Vector_baseIN7testing7MatcherIRKNSt7__cxx1112basic_stringIcSt11char_traitsIcESaIcEEEEESaISA_EEC2EOSC_ = comdat any

$_ZNSt12_Vector_baseIN7testing7MatcherIRKNSt7__cxx1112basic_stringIcSt11char_traitsIcESaIcEEEEESaISA_EE12_Vector_implC2EOSD_ = comdat any

$_ZNSaIN7testing7MatcherIRKNSt7__cxx1112basic_stringIcSt11char_traitsIcESaIcEEEEEEC2ERKSA_ = comdat any

$_ZNSt12_Vector_baseIN7testing7MatcherIRKNSt7__cxx1112basic_stringIcSt11char_traitsIcESaIcEEEEESaISA_EE17_Vector_impl_dataC2EOSD_ = comdat any

$_ZNSt15__new_allocatorIN7testing7MatcherIRKNSt7__cxx1112basic_stringIcSt11char_traitsIcESaIcEEEEEEC2ERKSB_ = comdat any

$_ZN7testing8internal16AllOfMatcherImplIRKNSt7__cxx1112basic_stringIcSt11char_traitsIcESaIcEEEED2Ev = comdat any

$_ZN7testing8internal16AllOfMatcherImplIRKNSt7__cxx1112basic_stringIcSt11char_traitsIcESaIcEEEED0Ev = comdat any

$_ZNK7testing8internal16AllOfMatcherImplIRKNSt7__cxx1112basic_stringIcSt11char_traitsIcESaIcEEEE10DescribeToEPSo = comdat any

$_ZNK7testing8internal16AllOfMatcherImplIRKNSt7__cxx1112basic_stringIcSt11char_traitsIcESaIcEEEE18DescribeNegationToEPSo = comdat any

$_ZNK7testing8internal16AllOfMatcherImplIRKNSt7__cxx1112basic_stringIcSt11char_traitsIcESaIcEEEE15MatchAndExplainES9_PNS_19MatchResultListenerE = comdat any

$_ZNKSt6vectorIN7testing7MatcherIRKNSt7__cxx1112basic_stringIcSt11char_traitsIcESaIcEEEEESaISA_EEixEm = comdat any

$_ZN7testing25StringMatchResultListenerC2Ev = comdat any

$_ZNK7testing8internal11MatcherBaseIRKNSt7__cxx1112basic_stringIcSt11char_traitsIcESaIcEEEE15MatchAndExplainES9_PNS_19MatchResultListenerE = comdat any

$_ZNK7testing25StringMatchResultListener3strB5cxx11Ev = comdat any

$_ZN7testing19MatchResultListenerlsINSt7__cxx1112basic_stringIcSt11char_traitsIcESaIcEEEEERS0_RKT_ = comdat any

$_ZN7testing25StringMatchResultListenerD2Ev = comdat any

$_ZN7testing19MatchResultListenerC2EPSo = comdat any

$_ZN7testing19MatchResultListenerD2Ev = comdat any

$_ZN7testing25StringMatchResultListenerD0Ev = comdat any

$_ZNSt12_Vector_baseIN7testing7MatcherIRKNSt7__cxx1112basic_stringIcSt11char_traitsIcESaIcEEEEESaISA_EED2Ev = comdat any

$_ZNSt12_Vector_baseIN7testing7MatcherIRKNSt7__cxx1112basic_stringIcSt11char_traitsIcESaIcEEEEESaISA_EE12_Vector_implD2Ev = comdat any

$_ZNSaIN7testing7MatcherIRKNSt7__cxx1112basic_stringIcSt11char_traitsIcESaIcEEEEEED2Ev = comdat any

$_ZNSt15__new_allocatorIN7testing7MatcherIRKNSt7__cxx1112basic_stringIcSt11char_traitsIcESaIcEEEEEED2Ev = comdat any

$_ZN4absl12log_internal10LogMessagelsILi17EEERS1_RAT__Kc = comdat any

$_ZNSt7__cxx1112basic_stringIcSt11char_traitsIcESaIcEE12_M_constructIPKcEEvT_S8_St20forward_iterator_tag = comdat any

$_ZNSt7__cxx1112basic_stringIcSt11char_traitsIcESaIcEE12_Alloc_hiderD2Ev = comdat any

$_ZSt8distanceIPKcENSt15iterator_traitsIT_E15difference_typeES3_S3_ = comdat any

$_ZZNSt7__cxx1112basic_stringIcSt11char_traitsIcESaIcEE12_M_constructIPKcEEvT_S8_St20forward_iterator_tagEN6_GuardC2EPS4_ = comdat any

$_ZZNSt7__cxx1112basic_stringIcSt11char_traitsIcESaIcEE12_M_constructIPKcEEvT_S8_St20forward_iterator_tagEN6_GuardD2Ev = comdat any

$_ZSt10__distanceIPKcENSt15iterator_traitsIT_E15difference_typeES3_S3_St26random_access_iterator_tag = comdat any

$_ZSt19__iterator_categoryIPKcENSt15iterator_traitsIT_E17iterator_categoryERKS3_ = comdat any

$_ZN7testing8internal19GetNotDefaultOrNullEPFvvES2_ = comdat any

$_ZN7testing4Test13SetUpTestCaseEv = comdat any

$_ZN7testing4Test14SetUpTestSuiteEv = comdat any

$_ZN7testing4Test16TearDownTestCaseEv = comdat any

$_ZN7testing4Test17TearDownTestSuiteEv = comdat any

$_ZTVN7testing11EnvironmentE = comdat any

$_ZTSN7testing11EnvironmentE = comdat any

$_ZTIN7testing11EnvironmentE = comdat any

$_ZTSN7testing8internal15TestFactoryBaseE = comdat any

$_ZTIN7testing8internal15TestFactoryBaseE = comdat any

$_ZTVN7testing8internal15TestFactoryBaseE = comdat any

$_ZTVSt15_Sp_counted_ptrIPKN7testing8internal2REELN9__gnu_cxx12_Lock_policyE2EE = comdat any

$_ZTSSt15_Sp_counted_ptrIPKN7testing8internal2REELN9__gnu_cxx12_Lock_policyE2EE = comdat any

$_ZTSSt16_Sp_counted_baseILN9__gnu_cxx12_Lock_policyE2EE = comdat any

$_ZTSSt11_Mutex_baseILN9__gnu_cxx12_Lock_policyE2EE = comdat any

$_ZTISt11_Mutex_baseILN9__gnu_cxx12_Lock_policyE2EE = comdat any

$_ZTISt16_Sp_counted_baseILN9__gnu_cxx12_Lock_policyE2EE = comdat any

$_ZTISt15_Sp_counted_ptrIPKN7testing8internal2REELN9__gnu_cxx12_Lock_policyE2EE = comdat any

$_ZTVSt16_Sp_counted_baseILN9__gnu_cxx12_Lock_policyE2EE = comdat any

$_ZTVN7testing18PolymorphicMatcherINS_8internal19MatchesRegexMatcherEE15MonomorphicImplIRKNSt7__cxx1112basic_stringIcSt11char_traitsIcESaIcEEEEE = comdat any

$_ZTSN7testing18PolymorphicMatcherINS_8internal19MatchesRegexMatcherEE15MonomorphicImplIRKNSt7__cxx1112basic_stringIcSt11char_traitsIcESaIcEEEEE = comdat any

$_ZTSN7testing16MatcherInterfaceIRKNSt7__cxx1112basic_stringIcSt11char_traitsIcESaIcEEEEE = comdat any

$_ZTSN7testing25MatcherDescriberInterfaceE = comdat any

$_ZTIN7testing25MatcherDescriberInterfaceE = comdat any

$_ZTIN7testing16MatcherInterfaceIRKNSt7__cxx1112basic_stringIcSt11char_traitsIcESaIcEEEEE = comdat any

$_ZTIN7testing18PolymorphicMatcherINS_8internal19MatchesRegexMatcherEE15MonomorphicImplIRKNSt7__cxx1112basic_stringIcSt11char_traitsIcESaIcEEEEE = comdat any

$_ZTVN7testing16MatcherInterfaceIRKNSt7__cxx1112basic_stringIcSt11char_traitsIcESaIcEEEEE = comdat any

$_ZTVN7testing25MatcherDescriberInterfaceE = comdat any

$_ZTVN7testing7MatcherIRKNSt7__cxx1112basic_stringIcSt11char_traitsIcESaIcEEEEE = comdat any

$_ZTSN7testing7MatcherIRKNSt7__cxx1112basic_stringIcSt11char_traitsIcESaIcEEEEE = comdat any

$_ZTSN7testing8internal11MatcherBaseIRKNSt7__cxx1112basic_stringIcSt11char_traitsIcESaIcEEEEE = comdat any

$_ZTIN7testing8internal11MatcherBaseIRKNSt7__cxx1112basic_stringIcSt11char_traitsIcESaIcEEEEE = comdat any

$_ZTIN7testing7MatcherIRKNSt7__cxx1112basic_stringIcSt11char_traitsIcESaIcEEEEE = comdat any

$_ZTVN7testing8internal11MatcherBaseIRKNSt7__cxx1112basic_stringIcSt11char_traitsIcESaIcEEEEE = comdat any

$_ZZN7testing8internal11MatcherBaseIRKNSt7__cxx1112basic_stringIcSt11char_traitsIcESaIcEEEE9GetVTableINSA_11ValuePolicyIPKNS_16MatcherInterfaceIS9_EELb1EEEEEPKNSA_6VTableEvE7kVTableB5cxx11 = comdat any

$_ZTVN7testing18PolymorphicMatcherINS_8internal16HasSubstrMatcherINSt7__cxx1112basic_stringIcSt11char_traitsIcESaIcEEEEEE15MonomorphicImplIRKS8_EE = comdat any

$_ZTSN7testing18PolymorphicMatcherINS_8internal16HasSubstrMatcherINSt7__cxx1112basic_stringIcSt11char_traitsIcESaIcEEEEEE15MonomorphicImplIRKS8_EE = comdat any

$_ZTIN7testing18PolymorphicMatcherINS_8internal16HasSubstrMatcherINSt7__cxx1112basic_stringIcSt11char_traitsIcESaIcEEEEEE15MonomorphicImplIRKS8_EE = comdat any

$_ZTVN7testing8internal16AllOfMatcherImplIRKNSt7__cxx1112basic_stringIcSt11char_traitsIcESaIcEEEEE = comdat any

$_ZTSN7testing8internal16AllOfMatcherImplIRKNSt7__cxx1112basic_stringIcSt11char_traitsIcESaIcEEEEE = comdat any

$_ZTIN7testing8internal16AllOfMatcherImplIRKNSt7__cxx1112basic_stringIcSt11char_traitsIcESaIcEEEEE = comdat any

$_ZTVN7testing25StringMatchResultListenerE = comdat any

$_ZTSN7testing25StringMatchResultListenerE = comdat any

$_ZTSN7testing19MatchResultListenerE = comdat any

$_ZTIN7testing19MatchResultListenerE = comdat any

$_ZTIN7testing25StringMatchResultListenerE = comdat any

$_ZTVN7testing19MatchResultListenerE = comdat any

@_ZStL8__ioinit = internal global %"class.std::ios_base::Init" zeroinitializer, align 1
@__dso_handle = external hidden global i8
@_ZN12_GLOBAL__N_18test_envE = internal global ptr null, align 8
@_ZN12_GLOBAL__N_148StderrLogSinkDeathTest_InfoMessagesInStderr_Test10test_info_E = internal global ptr null, align 8
@.str = private unnamed_addr constant [23 x i8] c"StderrLogSinkDeathTest\00", align 1
@.str.3 = private unnamed_addr constant [21 x i8] c"InfoMessagesInStderr\00", align 1
@.str.4 = private unnamed_addr constant [141 x i8] c"generated/home/dtcxzyw/WorkSpace/Projects/compilers/llvm-opt-benchmark/bench/abseil-cpp/abseil-cpp/absl/log/internal/stderr_log_sink_test.cc\00", align 1
@_ZN12_GLOBAL__N_151StderrLogSinkDeathTest_WarningMessagesInStderr_Test10test_info_E = internal global ptr null, align 8
@.str.6 = private unnamed_addr constant [24 x i8] c"WarningMessagesInStderr\00", align 1
@_ZN12_GLOBAL__N_149StderrLogSinkDeathTest_ErrorMessagesInStderr_Test10test_info_E = internal global ptr null, align 8
@.str.8 = private unnamed_addr constant [22 x i8] c"ErrorMessagesInStderr\00", align 1
@_ZN12_GLOBAL__N_149StderrLogSinkDeathTest_FatalMessagesInStderr_Test10test_info_E = internal global ptr null, align 8
@.str.10 = private unnamed_addr constant [22 x i8] c"FatalMessagesInStderr\00", align 1
@_ZN12_GLOBAL__N_158StderrLogSinkDeathTest_SecondaryFatalMessagesInStderr_Test10test_info_E = internal global ptr null, align 8
@.str.12 = private unnamed_addr constant [31 x i8] c"SecondaryFatalMessagesInStderr\00", align 1
@_ZTVN4absl12log_internal18LogTestEnvironmentE = external unnamed_addr constant { [7 x ptr] }, align 8
@_ZTVN7testing11EnvironmentE = linkonce_odr dso_local unnamed_addr constant { [7 x ptr] } { [7 x ptr] [ptr null, ptr @_ZTIN7testing11EnvironmentE, ptr @_ZN7testing11EnvironmentD2Ev, ptr @_ZN7testing11EnvironmentD0Ev, ptr @_ZN7testing11Environment5SetUpEv, ptr @_ZN7testing11Environment8TearDownEv, ptr @_ZN7testing11Environment5SetupEv] }, comdat, align 8
@_ZTVN10__cxxabiv117__class_type_infoE = external global [0 x ptr]
@_ZTSN7testing11EnvironmentE = linkonce_odr dso_local constant [24 x i8] c"N7testing11EnvironmentE\00", comdat, align 1
@_ZTIN7testing11EnvironmentE = linkonce_odr dso_local constant { ptr, ptr } { ptr getelementptr inbounds (ptr, ptr @_ZTVN10__cxxabiv117__class_type_infoE, i64 2), ptr @_ZTSN7testing11EnvironmentE }, comdat, align 8
@_ZTVN7testing8internal15TestFactoryImplIN12_GLOBAL__N_148StderrLogSinkDeathTest_InfoMessagesInStderr_TestEEE = internal unnamed_addr constant { [5 x ptr] } { [5 x ptr] [ptr null, ptr @_ZTIN7testing8internal15TestFactoryImplIN12_GLOBAL__N_148StderrLogSinkDeathTest_InfoMessagesInStderr_TestEEE, ptr @_ZN7testing8internal15TestFactoryImplIN12_GLOBAL__N_148StderrLogSinkDeathTest_InfoMessagesInStderr_TestEED2Ev, ptr @_ZN7testing8internal15TestFactoryImplIN12_GLOBAL__N_148StderrLogSinkDeathTest_InfoMessagesInStderr_TestEED0Ev, ptr @_ZN7testing8internal15TestFactoryImplIN12_GLOBAL__N_148StderrLogSinkDeathTest_InfoMessagesInStderr_TestEE10CreateTestEv] }, align 8
@_ZTVN10__cxxabiv120__si_class_type_infoE = external global [0 x ptr]
@_ZTSN7testing8internal15TestFactoryImplIN12_GLOBAL__N_148StderrLogSinkDeathTest_InfoMessagesInStderr_TestEEE = internal constant [105 x i8] c"N7testing8internal15TestFactoryImplIN12_GLOBAL__N_148StderrLogSinkDeathTest_InfoMessagesInStderr_TestEEE\00", align 1
@_ZTSN7testing8internal15TestFactoryBaseE = linkonce_odr dso_local constant [37 x i8] c"N7testing8internal15TestFactoryBaseE\00", comdat, align 1
@_ZTIN7testing8internal15TestFactoryBaseE = linkonce_odr dso_local constant { ptr, ptr } { ptr getelementptr inbounds (ptr, ptr @_ZTVN10__cxxabiv117__class_type_infoE, i64 2), ptr @_ZTSN7testing8internal15TestFactoryBaseE }, comdat, align 8
@_ZTIN7testing8internal15TestFactoryImplIN12_GLOBAL__N_148StderrLogSinkDeathTest_InfoMessagesInStderr_TestEEE = internal constant { ptr, ptr, ptr } { ptr getelementptr inbounds (ptr, ptr @_ZTVN10__cxxabiv120__si_class_type_infoE, i64 2), ptr @_ZTSN7testing8internal15TestFactoryImplIN12_GLOBAL__N_148StderrLogSinkDeathTest_InfoMessagesInStderr_TestEEE, ptr @_ZTIN7testing8internal15TestFactoryBaseE }, align 8
@_ZTVN7testing8internal15TestFactoryBaseE = linkonce_odr dso_local unnamed_addr constant { [5 x ptr] } { [5 x ptr] [ptr null, ptr @_ZTIN7testing8internal15TestFactoryBaseE, ptr @_ZN7testing8internal15TestFactoryBaseD2Ev, ptr @_ZN7testing8internal15TestFactoryBaseD0Ev, ptr @__cxa_pure_virtual] }, comdat, align 8
@_ZTVN12_GLOBAL__N_148StderrLogSinkDeathTest_InfoMessagesInStderr_TestE = internal unnamed_addr constant { [8 x ptr] } { [8 x ptr] [ptr null, ptr @_ZTIN12_GLOBAL__N_148StderrLogSinkDeathTest_InfoMessagesInStderr_TestE, ptr @_ZN12_GLOBAL__N_148StderrLogSinkDeathTest_InfoMessagesInStderr_TestD2Ev, ptr @_ZN12_GLOBAL__N_148StderrLogSinkDeathTest_InfoMessagesInStderr_TestD0Ev, ptr @_ZN7testing4Test5SetUpEv, ptr @_ZN7testing4Test8TearDownEv, ptr @_ZN12_GLOBAL__N_148StderrLogSinkDeathTest_InfoMessagesInStderr_Test8TestBodyEv, ptr @_ZN7testing4Test5SetupEv] }, align 8
@_ZTSN12_GLOBAL__N_148StderrLogSinkDeathTest_InfoMessagesInStderr_TestE = internal constant [67 x i8] c"N12_GLOBAL__N_148StderrLogSinkDeathTest_InfoMessagesInStderr_TestE\00", align 1
@_ZTIN7testing4TestE = external constant ptr
@_ZTIN12_GLOBAL__N_148StderrLogSinkDeathTest_InfoMessagesInStderr_TestE = internal constant { ptr, ptr, ptr } { ptr getelementptr inbounds (ptr, ptr @_ZTVN10__cxxabiv120__si_class_type_infoE, i64 2), ptr @_ZTSN12_GLOBAL__N_148StderrLogSinkDeathTest_InfoMessagesInStderr_TestE, ptr @_ZTIN7testing4TestE }, align 8
@.str.13 = private unnamed_addr constant [417 x i8] c"{ absl::SetStderrThreshold(absl::LogSeverityAtLeast::kInfo); switch (0) case 0: default: !(true) ? (void)0 : ::absl::log_internal::Voidify()&& ::absl::log_internal::LogMessage( \22generated/home/dtcxzyw/WorkSpace/Projects/compilers/llvm-opt-benchmark/bench/abseil-cpp/abseil-cpp/absl/log/internal/stderr_log_sink_test.cc\22, 51, ::absl::log_internal::LogMessage::InfoTag{}).InternalStream() << \22INFO message\22; exit(1); }\00", align 1
@.str.14 = private unnamed_addr constant [13 x i8] c"INFO message\00", align 1
@_ZTISt9exception = external constant ptr
@stderr = external global ptr, align 8
@.str.15 = private unnamed_addr constant [103 x i8] c"\0A%s: Caught std::exception-derived exception escaping the death test statement. Exception message: %s\0A\00", align 1
@__libc_single_threaded = external global i8, align 1
@_ZTVSt15_Sp_counted_ptrIPKN7testing8internal2REELN9__gnu_cxx12_Lock_policyE2EE = linkonce_odr dso_local unnamed_addr constant { [7 x ptr] } { [7 x ptr] [ptr null, ptr @_ZTISt15_Sp_counted_ptrIPKN7testing8internal2REELN9__gnu_cxx12_Lock_policyE2EE, ptr @_ZNSt15_Sp_counted_ptrIPKN7testing8internal2REELN9__gnu_cxx12_Lock_policyE2EED2Ev, ptr @_ZNSt15_Sp_counted_ptrIPKN7testing8internal2REELN9__gnu_cxx12_Lock_policyE2EED0Ev, ptr @_ZNSt15_Sp_counted_ptrIPKN7testing8internal2REELN9__gnu_cxx12_Lock_policyE2EE10_M_disposeEv, ptr @_ZNSt15_Sp_counted_ptrIPKN7testing8internal2REELN9__gnu_cxx12_Lock_policyE2EE10_M_destroyEv, ptr @_ZNSt15_Sp_counted_ptrIPKN7testing8internal2REELN9__gnu_cxx12_Lock_policyE2EE14_M_get_deleterERKSt9type_info] }, comdat, align 8
@_ZTSSt15_Sp_counted_ptrIPKN7testing8internal2REELN9__gnu_cxx12_Lock_policyE2EE = linkonce_odr dso_local constant [75 x i8] c"St15_Sp_counted_ptrIPKN7testing8internal2REELN9__gnu_cxx12_Lock_policyE2EE\00", comdat, align 1
@_ZTSSt16_Sp_counted_baseILN9__gnu_cxx12_Lock_policyE2EE = linkonce_odr dso_local constant [52 x i8] c"St16_Sp_counted_baseILN9__gnu_cxx12_Lock_policyE2EE\00", comdat, align 1
@_ZTSSt11_Mutex_baseILN9__gnu_cxx12_Lock_policyE2EE = linkonce_odr dso_local constant [47 x i8] c"St11_Mutex_baseILN9__gnu_cxx12_Lock_policyE2EE\00", comdat, align 1
@_ZTISt11_Mutex_baseILN9__gnu_cxx12_Lock_policyE2EE = linkonce_odr dso_local constant { ptr, ptr } { ptr getelementptr inbounds (ptr, ptr @_ZTVN10__cxxabiv117__class_type_infoE, i64 2), ptr @_ZTSSt11_Mutex_baseILN9__gnu_cxx12_Lock_policyE2EE }, comdat, align 8
@_ZTISt16_Sp_counted_baseILN9__gnu_cxx12_Lock_policyE2EE = linkonce_odr dso_local constant { ptr, ptr, ptr } { ptr getelementptr inbounds (ptr, ptr @_ZTVN10__cxxabiv120__si_class_type_infoE, i64 2), ptr @_ZTSSt16_Sp_counted_baseILN9__gnu_cxx12_Lock_policyE2EE, ptr @_ZTISt11_Mutex_baseILN9__gnu_cxx12_Lock_policyE2EE }, comdat, align 8
@_ZTISt15_Sp_counted_ptrIPKN7testing8internal2REELN9__gnu_cxx12_Lock_policyE2EE = linkonce_odr dso_local constant { ptr, ptr, ptr } { ptr getelementptr inbounds (ptr, ptr @_ZTVN10__cxxabiv120__si_class_type_infoE, i64 2), ptr @_ZTSSt15_Sp_counted_ptrIPKN7testing8internal2REELN9__gnu_cxx12_Lock_policyE2EE, ptr @_ZTISt16_Sp_counted_baseILN9__gnu_cxx12_Lock_policyE2EE }, comdat, align 8
@_ZTVSt16_Sp_counted_baseILN9__gnu_cxx12_Lock_policyE2EE = linkonce_odr dso_local unnamed_addr constant { [7 x ptr] } { [7 x ptr] [ptr null, ptr @_ZTISt16_Sp_counted_baseILN9__gnu_cxx12_Lock_policyE2EE, ptr @_ZNSt16_Sp_counted_baseILN9__gnu_cxx12_Lock_policyE2EED2Ev, ptr @_ZNSt16_Sp_counted_baseILN9__gnu_cxx12_Lock_policyE2EED0Ev, ptr @__cxa_pure_virtual, ptr @_ZNSt16_Sp_counted_baseILN9__gnu_cxx12_Lock_policyE2EE10_M_destroyEv, ptr @__cxa_pure_virtual] }, comdat, align 8
@_ZTVN7testing18PolymorphicMatcherINS_8internal19MatchesRegexMatcherEE15MonomorphicImplIRKNSt7__cxx1112basic_stringIcSt11char_traitsIcESaIcEEEEE = linkonce_odr dso_local unnamed_addr constant { [7 x ptr] } { [7 x ptr] [ptr null, ptr @_ZTIN7testing18PolymorphicMatcherINS_8internal19MatchesRegexMatcherEE15MonomorphicImplIRKNSt7__cxx1112basic_stringIcSt11char_traitsIcESaIcEEEEE, ptr @_ZN7testing18PolymorphicMatcherINS_8internal19MatchesRegexMatcherEE15MonomorphicImplIRKNSt7__cxx1112basic_stringIcSt11char_traitsIcESaIcEEEED2Ev, ptr @_ZN7testing18PolymorphicMatcherINS_8internal19MatchesRegexMatcherEE15MonomorphicImplIRKNSt7__cxx1112basic_stringIcSt11char_traitsIcESaIcEEEED0Ev, ptr @_ZNK7testing18PolymorphicMatcherINS_8internal19MatchesRegexMatcherEE15MonomorphicImplIRKNSt7__cxx1112basic_stringIcSt11char_traitsIcESaIcEEEE10DescribeToEPSo, ptr @_ZNK7testing18PolymorphicMatcherINS_8internal19MatchesRegexMatcherEE15MonomorphicImplIRKNSt7__cxx1112basic_stringIcSt11char_traitsIcESaIcEEEE18DescribeNegationToEPSo, ptr @_ZNK7testing18PolymorphicMatcherINS_8internal19MatchesRegexMatcherEE15MonomorphicImplIRKNSt7__cxx1112basic_stringIcSt11char_traitsIcESaIcEEEE15MatchAndExplainESC_PNS_19MatchResultListenerE] }, comdat, align 8
@_ZTSN7testing18PolymorphicMatcherINS_8internal19MatchesRegexMatcherEE15MonomorphicImplIRKNSt7__cxx1112basic_stringIcSt11char_traitsIcESaIcEEEEE = linkonce_odr dso_local constant [140 x i8] c"N7testing18PolymorphicMatcherINS_8internal19MatchesRegexMatcherEE15MonomorphicImplIRKNSt7__cxx1112basic_stringIcSt11char_traitsIcESaIcEEEEE\00", comdat, align 1
@_ZTSN7testing16MatcherInterfaceIRKNSt7__cxx1112basic_stringIcSt11char_traitsIcESaIcEEEEE = linkonce_odr dso_local constant [85 x i8] c"N7testing16MatcherInterfaceIRKNSt7__cxx1112basic_stringIcSt11char_traitsIcESaIcEEEEE\00", comdat, align 1
@_ZTSN7testing25MatcherDescriberInterfaceE = linkonce_odr dso_local constant [38 x i8] c"N7testing25MatcherDescriberInterfaceE\00", comdat, align 1
@_ZTIN7testing25MatcherDescriberInterfaceE = linkonce_odr dso_local constant { ptr, ptr } { ptr getelementptr inbounds (ptr, ptr @_ZTVN10__cxxabiv117__class_type_infoE, i64 2), ptr @_ZTSN7testing25MatcherDescriberInterfaceE }, comdat, align 8
@_ZTIN7testing16MatcherInterfaceIRKNSt7__cxx1112basic_stringIcSt11char_traitsIcESaIcEEEEE = linkonce_odr dso_local constant { ptr, ptr, ptr } { ptr getelementptr inbounds (ptr, ptr @_ZTVN10__cxxabiv120__si_class_type_infoE, i64 2), ptr @_ZTSN7testing16MatcherInterfaceIRKNSt7__cxx1112basic_stringIcSt11char_traitsIcESaIcEEEEE, ptr @_ZTIN7testing25MatcherDescriberInterfaceE }, comdat, align 8
@_ZTIN7testing18PolymorphicMatcherINS_8internal19MatchesRegexMatcherEE15MonomorphicImplIRKNSt7__cxx1112basic_stringIcSt11char_traitsIcESaIcEEEEE = linkonce_odr dso_local constant { ptr, ptr, ptr } { ptr getelementptr inbounds (ptr, ptr @_ZTVN10__cxxabiv120__si_class_type_infoE, i64 2), ptr @_ZTSN7testing18PolymorphicMatcherINS_8internal19MatchesRegexMatcherEE15MonomorphicImplIRKNSt7__cxx1112basic_stringIcSt11char_traitsIcESaIcEEEEE, ptr @_ZTIN7testing16MatcherInterfaceIRKNSt7__cxx1112basic_stringIcSt11char_traitsIcESaIcEEEEE }, comdat, align 8
@_ZTVN7testing16MatcherInterfaceIRKNSt7__cxx1112basic_stringIcSt11char_traitsIcESaIcEEEEE = linkonce_odr dso_local unnamed_addr constant { [7 x ptr] } { [7 x ptr] [ptr null, ptr @_ZTIN7testing16MatcherInterfaceIRKNSt7__cxx1112basic_stringIcSt11char_traitsIcESaIcEEEEE, ptr @_ZN7testing16MatcherInterfaceIRKNSt7__cxx1112basic_stringIcSt11char_traitsIcESaIcEEEED2Ev, ptr @_ZN7testing16MatcherInterfaceIRKNSt7__cxx1112basic_stringIcSt11char_traitsIcESaIcEEEED0Ev, ptr @__cxa_pure_virtual, ptr @_ZNK7testing25MatcherDescriberInterface18DescribeNegationToEPSo, ptr @__cxa_pure_virtual] }, comdat, align 8
@_ZTVN7testing25MatcherDescriberInterfaceE = linkonce_odr dso_local unnamed_addr constant { [6 x ptr] } { [6 x ptr] [ptr null, ptr @_ZTIN7testing25MatcherDescriberInterfaceE, ptr @_ZN7testing25MatcherDescriberInterfaceD2Ev, ptr @_ZN7testing25MatcherDescriberInterfaceD0Ev, ptr @__cxa_pure_virtual, ptr @_ZNK7testing25MatcherDescriberInterface18DescribeNegationToEPSo] }, comdat, align 8
@.str.16 = private unnamed_addr constant [6 x i8] c"not (\00", align 1
@.str.17 = private unnamed_addr constant [2 x i8] c")\00", align 1
@.str.18 = private unnamed_addr constant [8 x i8] c"matches\00", align 1
@.str.19 = private unnamed_addr constant [9 x i8] c"contains\00", align 1
@.str.20 = private unnamed_addr constant [21 x i8] c" regular expression \00", align 1
@.str.21 = private unnamed_addr constant [9 x i8] c"doesn't \00", align 1
@.str.22 = private unnamed_addr constant [6 x i8] c"match\00", align 1
@.str.23 = private unnamed_addr constant [8 x i8] c"contain\00", align 1
@_ZTVN7testing7MatcherIRKNSt7__cxx1112basic_stringIcSt11char_traitsIcESaIcEEEEE = linkonce_odr dso_local unnamed_addr constant { [6 x ptr] } { [6 x ptr] [ptr null, ptr @_ZTIN7testing7MatcherIRKNSt7__cxx1112basic_stringIcSt11char_traitsIcESaIcEEEEE, ptr @_ZN7testing7MatcherIRKNSt7__cxx1112basic_stringIcSt11char_traitsIcESaIcEEEED2Ev, ptr @_ZN7testing7MatcherIRKNSt7__cxx1112basic_stringIcSt11char_traitsIcESaIcEEEED0Ev, ptr @_ZNK7testing8internal11MatcherBaseIRKNSt7__cxx1112basic_stringIcSt11char_traitsIcESaIcEEEE10DescribeToEPSo, ptr @_ZNK7testing8internal11MatcherBaseIRKNSt7__cxx1112basic_stringIcSt11char_traitsIcESaIcEEEE18DescribeNegationToEPSo] }, comdat, align 8
@_ZTSN7testing7MatcherIRKNSt7__cxx1112basic_stringIcSt11char_traitsIcESaIcEEEEE = linkonce_odr dso_local constant [75 x i8] c"N7testing7MatcherIRKNSt7__cxx1112basic_stringIcSt11char_traitsIcESaIcEEEEE\00", comdat, align 1
@_ZTVN10__cxxabiv121__vmi_class_type_infoE = external global [0 x ptr]
@_ZTSN7testing8internal11MatcherBaseIRKNSt7__cxx1112basic_stringIcSt11char_traitsIcESaIcEEEEE = linkonce_odr dso_local constant [89 x i8] c"N7testing8internal11MatcherBaseIRKNSt7__cxx1112basic_stringIcSt11char_traitsIcESaIcEEEEE\00", comdat, align 1
@_ZTIN7testing8internal11MatcherBaseIRKNSt7__cxx1112basic_stringIcSt11char_traitsIcESaIcEEEEE = linkonce_odr dso_local constant { ptr, ptr, i32, i32, ptr, i64 } { ptr getelementptr inbounds (ptr, ptr @_ZTVN10__cxxabiv121__vmi_class_type_infoE, i64 2), ptr @_ZTSN7testing8internal11MatcherBaseIRKNSt7__cxx1112basic_stringIcSt11char_traitsIcESaIcEEEEE, i32 0, i32 1, ptr @_ZTIN7testing25MatcherDescriberInterfaceE, i64 0 }, comdat, align 8
@_ZTIN7testing7MatcherIRKNSt7__cxx1112basic_stringIcSt11char_traitsIcESaIcEEEEE = linkonce_odr dso_local constant { ptr, ptr, ptr } { ptr getelementptr inbounds (ptr, ptr @_ZTVN10__cxxabiv120__si_class_type_infoE, i64 2), ptr @_ZTSN7testing7MatcherIRKNSt7__cxx1112basic_stringIcSt11char_traitsIcESaIcEEEEE, ptr @_ZTIN7testing8internal11MatcherBaseIRKNSt7__cxx1112basic_stringIcSt11char_traitsIcESaIcEEEEE }, comdat, align 8
@_ZTVN7testing8internal11MatcherBaseIRKNSt7__cxx1112basic_stringIcSt11char_traitsIcESaIcEEEEE = linkonce_odr dso_local unnamed_addr constant { [6 x ptr] } { [6 x ptr] [ptr null, ptr @_ZTIN7testing8internal11MatcherBaseIRKNSt7__cxx1112basic_stringIcSt11char_traitsIcESaIcEEEEE, ptr @_ZN7testing8internal11MatcherBaseIRKNSt7__cxx1112basic_stringIcSt11char_traitsIcESaIcEEEED2Ev, ptr @_ZN7testing8internal11MatcherBaseIRKNSt7__cxx1112basic_stringIcSt11char_traitsIcESaIcEEEED0Ev, ptr @_ZNK7testing8internal11MatcherBaseIRKNSt7__cxx1112basic_stringIcSt11char_traitsIcESaIcEEEE10DescribeToEPSo, ptr @_ZNK7testing8internal11MatcherBaseIRKNSt7__cxx1112basic_stringIcSt11char_traitsIcESaIcEEEE18DescribeNegationToEPSo] }, comdat, align 8
@_ZZN7testing8internal11MatcherBaseIRKNSt7__cxx1112basic_stringIcSt11char_traitsIcESaIcEEEE9GetVTableINSA_11ValuePolicyIPKNS_16MatcherInterfaceIS9_EELb1EEEEEPKNSA_6VTableEvE7kVTableB5cxx11 = linkonce_odr dso_local constant %"struct.testing::internal::MatcherBase<const std::__cxx11::basic_string<char> &>::VTable" { ptr @_ZN7testing8internal11MatcherBaseIRKNSt7__cxx1112basic_stringIcSt11char_traitsIcESaIcEEEE19MatchAndExplainImplINSA_11ValuePolicyIPKNS_16MatcherInterfaceIS9_EELb1EEEEEDTcldtclsrT_3Getfp_E15MatchAndExplainfp0_fp1_EERKSA_S9_PNS_19MatchResultListenerE, ptr @_ZN7testing8internal11MatcherBaseIRKNSt7__cxx1112basic_stringIcSt11char_traitsIcESaIcEEEE12DescribeImplINSA_11ValuePolicyIPKNS_16MatcherInterfaceIS9_EELb1EEEEEvRKSA_PSob, ptr @_ZN7testing8internal11MatcherBaseIRKNSt7__cxx1112basic_stringIcSt11char_traitsIcESaIcEEEE16GetDescriberImplINSA_11ValuePolicyIPKNS_16MatcherInterfaceIS9_EELb1EEEEEPKNS_25MatcherDescriberInterfaceERKSA_, ptr @_ZN7testing8internal13SharedPayloadISt10unique_ptrIKNS_16MatcherInterfaceIRKNSt7__cxx1112basic_stringIcSt11char_traitsIcESaIcEEEEESt14default_deleteISD_EEE7DestroyEPNS0_17SharedPayloadBaseE }, comdat, align 8
@.str.24 = private unnamed_addr constant [157 x i8] c"generated/home/dtcxzyw/WorkSpace/Projects/compilers/llvm-opt-benchmark/bench/abseil-cpp/bench_build/googletest-src/googletest/include/gtest/gtest-matchers.h\00", align 1
@.str.25 = private unnamed_addr constant [38 x i8] c"Condition vtable_ != nullptr failed. \00", align 1
@_ZSt4cerr = external global %"class.std::basic_ostream", align 8
@_ZTVN7testing8internal15TestFactoryImplIN12_GLOBAL__N_151StderrLogSinkDeathTest_WarningMessagesInStderr_TestEEE = internal unnamed_addr constant { [5 x ptr] } { [5 x ptr] [ptr null, ptr @_ZTIN7testing8internal15TestFactoryImplIN12_GLOBAL__N_151StderrLogSinkDeathTest_WarningMessagesInStderr_TestEEE, ptr @_ZN7testing8internal15TestFactoryImplIN12_GLOBAL__N_151StderrLogSinkDeathTest_WarningMessagesInStderr_TestEED2Ev, ptr @_ZN7testing8internal15TestFactoryImplIN12_GLOBAL__N_151StderrLogSinkDeathTest_WarningMessagesInStderr_TestEED0Ev, ptr @_ZN7testing8internal15TestFactoryImplIN12_GLOBAL__N_151StderrLogSinkDeathTest_WarningMessagesInStderr_TestEE10CreateTestEv] }, align 8
@_ZTSN7testing8internal15TestFactoryImplIN12_GLOBAL__N_151StderrLogSinkDeathTest_WarningMessagesInStderr_TestEEE = internal constant [108 x i8] c"N7testing8internal15TestFactoryImplIN12_GLOBAL__N_151StderrLogSinkDeathTest_WarningMessagesInStderr_TestEEE\00", align 1
@_ZTIN7testing8internal15TestFactoryImplIN12_GLOBAL__N_151StderrLogSinkDeathTest_WarningMessagesInStderr_TestEEE = internal constant { ptr, ptr, ptr } { ptr getelementptr inbounds (ptr, ptr @_ZTVN10__cxxabiv120__si_class_type_infoE, i64 2), ptr @_ZTSN7testing8internal15TestFactoryImplIN12_GLOBAL__N_151StderrLogSinkDeathTest_WarningMessagesInStderr_TestEEE, ptr @_ZTIN7testing8internal15TestFactoryBaseE }, align 8
@_ZTVN12_GLOBAL__N_151StderrLogSinkDeathTest_WarningMessagesInStderr_TestE = internal unnamed_addr constant { [8 x ptr] } { [8 x ptr] [ptr null, ptr @_ZTIN12_GLOBAL__N_151StderrLogSinkDeathTest_WarningMessagesInStderr_TestE, ptr @_ZN12_GLOBAL__N_151StderrLogSinkDeathTest_WarningMessagesInStderr_TestD2Ev, ptr @_ZN12_GLOBAL__N_151StderrLogSinkDeathTest_WarningMessagesInStderr_TestD0Ev, ptr @_ZN7testing4Test5SetUpEv, ptr @_ZN7testing4Test8TearDownEv, ptr @_ZN12_GLOBAL__N_151StderrLogSinkDeathTest_WarningMessagesInStderr_Test8TestBodyEv, ptr @_ZN7testing4Test5SetupEv] }, align 8
@_ZTSN12_GLOBAL__N_151StderrLogSinkDeathTest_WarningMessagesInStderr_TestE = internal constant [70 x i8] c"N12_GLOBAL__N_151StderrLogSinkDeathTest_WarningMessagesInStderr_TestE\00", align 1
@_ZTIN12_GLOBAL__N_151StderrLogSinkDeathTest_WarningMessagesInStderr_TestE = internal constant { ptr, ptr, ptr } { ptr getelementptr inbounds (ptr, ptr @_ZTVN10__cxxabiv120__si_class_type_infoE, i64 2), ptr @_ZTSN12_GLOBAL__N_151StderrLogSinkDeathTest_WarningMessagesInStderr_TestE, ptr @_ZTIN7testing4TestE }, align 8
@.str.26 = private unnamed_addr constant [423 x i8] c"{ absl::SetStderrThreshold(absl::LogSeverityAtLeast::kInfo); switch (0) case 0: default: !(true) ? (void)0 : ::absl::log_internal::Voidify()&& ::absl::log_internal::LogMessage( \22generated/home/dtcxzyw/WorkSpace/Projects/compilers/llvm-opt-benchmark/bench/abseil-cpp/abseil-cpp/absl/log/internal/stderr_log_sink_test.cc\22, 61, ::absl::log_internal::LogMessage::WarningTag{}).InternalStream() << \22WARNING message\22; exit(1); }\00", align 1
@.str.27 = private unnamed_addr constant [16 x i8] c"WARNING message\00", align 1
@_ZTVN7testing8internal15TestFactoryImplIN12_GLOBAL__N_149StderrLogSinkDeathTest_ErrorMessagesInStderr_TestEEE = internal unnamed_addr constant { [5 x ptr] } { [5 x ptr] [ptr null, ptr @_ZTIN7testing8internal15TestFactoryImplIN12_GLOBAL__N_149StderrLogSinkDeathTest_ErrorMessagesInStderr_TestEEE, ptr @_ZN7testing8internal15TestFactoryImplIN12_GLOBAL__N_149StderrLogSinkDeathTest_ErrorMessagesInStderr_TestEED2Ev, ptr @_ZN7testing8internal15TestFactoryImplIN12_GLOBAL__N_149StderrLogSinkDeathTest_ErrorMessagesInStderr_TestEED0Ev, ptr @_ZN7testing8internal15TestFactoryImplIN12_GLOBAL__N_149StderrLogSinkDeathTest_ErrorMessagesInStderr_TestEE10CreateTestEv] }, align 8
@_ZTSN7testing8internal15TestFactoryImplIN12_GLOBAL__N_149StderrLogSinkDeathTest_ErrorMessagesInStderr_TestEEE = internal constant [106 x i8] c"N7testing8internal15TestFactoryImplIN12_GLOBAL__N_149StderrLogSinkDeathTest_ErrorMessagesInStderr_TestEEE\00", align 1
@_ZTIN7testing8internal15TestFactoryImplIN12_GLOBAL__N_149StderrLogSinkDeathTest_ErrorMessagesInStderr_TestEEE = internal constant { ptr, ptr, ptr } { ptr getelementptr inbounds (ptr, ptr @_ZTVN10__cxxabiv120__si_class_type_infoE, i64 2), ptr @_ZTSN7testing8internal15TestFactoryImplIN12_GLOBAL__N_149StderrLogSinkDeathTest_ErrorMessagesInStderr_TestEEE, ptr @_ZTIN7testing8internal15TestFactoryBaseE }, align 8
@_ZTVN12_GLOBAL__N_149StderrLogSinkDeathTest_ErrorMessagesInStderr_TestE = internal unnamed_addr constant { [8 x ptr] } { [8 x ptr] [ptr null, ptr @_ZTIN12_GLOBAL__N_149StderrLogSinkDeathTest_ErrorMessagesInStderr_TestE, ptr @_ZN12_GLOBAL__N_149StderrLogSinkDeathTest_ErrorMessagesInStderr_TestD2Ev, ptr @_ZN12_GLOBAL__N_149StderrLogSinkDeathTest_ErrorMessagesInStderr_TestD0Ev, ptr @_ZN7testing4Test5SetUpEv, ptr @_ZN7testing4Test8TearDownEv, ptr @_ZN12_GLOBAL__N_149StderrLogSinkDeathTest_ErrorMessagesInStderr_Test8TestBodyEv, ptr @_ZN7testing4Test5SetupEv] }, align 8
@_ZTSN12_GLOBAL__N_149StderrLogSinkDeathTest_ErrorMessagesInStderr_TestE = internal constant [68 x i8] c"N12_GLOBAL__N_149StderrLogSinkDeathTest_ErrorMessagesInStderr_TestE\00", align 1
@_ZTIN12_GLOBAL__N_149StderrLogSinkDeathTest_ErrorMessagesInStderr_TestE = internal constant { ptr, ptr, ptr } { ptr getelementptr inbounds (ptr, ptr @_ZTVN10__cxxabiv120__si_class_type_infoE, i64 2), ptr @_ZTSN12_GLOBAL__N_149StderrLogSinkDeathTest_ErrorMessagesInStderr_TestE, ptr @_ZTIN7testing4TestE }, align 8
@.str.28 = private unnamed_addr constant [419 x i8] c"{ absl::SetStderrThreshold(absl::LogSeverityAtLeast::kInfo); switch (0) case 0: default: !(true) ? (void)0 : ::absl::log_internal::Voidify()&& ::absl::log_internal::LogMessage( \22generated/home/dtcxzyw/WorkSpace/Projects/compilers/llvm-opt-benchmark/bench/abseil-cpp/abseil-cpp/absl/log/internal/stderr_log_sink_test.cc\22, 71, ::absl::log_internal::LogMessage::ErrorTag{}).InternalStream() << \22ERROR message\22; exit(1); }\00", align 1
@.str.29 = private unnamed_addr constant [14 x i8] c"ERROR message\00", align 1
@_ZTVN7testing8internal15TestFactoryImplIN12_GLOBAL__N_149StderrLogSinkDeathTest_FatalMessagesInStderr_TestEEE = internal unnamed_addr constant { [5 x ptr] } { [5 x ptr] [ptr null, ptr @_ZTIN7testing8internal15TestFactoryImplIN12_GLOBAL__N_149StderrLogSinkDeathTest_FatalMessagesInStderr_TestEEE, ptr @_ZN7testing8internal15TestFactoryImplIN12_GLOBAL__N_149StderrLogSinkDeathTest_FatalMessagesInStderr_TestEED2Ev, ptr @_ZN7testing8internal15TestFactoryImplIN12_GLOBAL__N_149StderrLogSinkDeathTest_FatalMessagesInStderr_TestEED0Ev, ptr @_ZN7testing8internal15TestFactoryImplIN12_GLOBAL__N_149StderrLogSinkDeathTest_FatalMessagesInStderr_TestEE10CreateTestEv] }, align 8
@_ZTSN7testing8internal15TestFactoryImplIN12_GLOBAL__N_149StderrLogSinkDeathTest_FatalMessagesInStderr_TestEEE = internal constant [106 x i8] c"N7testing8internal15TestFactoryImplIN12_GLOBAL__N_149StderrLogSinkDeathTest_FatalMessagesInStderr_TestEEE\00", align 1
@_ZTIN7testing8internal15TestFactoryImplIN12_GLOBAL__N_149StderrLogSinkDeathTest_FatalMessagesInStderr_TestEEE = internal constant { ptr, ptr, ptr } { ptr getelementptr inbounds (ptr, ptr @_ZTVN10__cxxabiv120__si_class_type_infoE, i64 2), ptr @_ZTSN7testing8internal15TestFactoryImplIN12_GLOBAL__N_149StderrLogSinkDeathTest_FatalMessagesInStderr_TestEEE, ptr @_ZTIN7testing8internal15TestFactoryBaseE }, align 8
@_ZTVN12_GLOBAL__N_149StderrLogSinkDeathTest_FatalMessagesInStderr_TestE = internal unnamed_addr constant { [8 x ptr] } { [8 x ptr] [ptr null, ptr @_ZTIN12_GLOBAL__N_149StderrLogSinkDeathTest_FatalMessagesInStderr_TestE, ptr @_ZN12_GLOBAL__N_149StderrLogSinkDeathTest_FatalMessagesInStderr_TestD2Ev, ptr @_ZN12_GLOBAL__N_149StderrLogSinkDeathTest_FatalMessagesInStderr_TestD0Ev, ptr @_ZN7testing4Test5SetUpEv, ptr @_ZN7testing4Test8TearDownEv, ptr @_ZN12_GLOBAL__N_149StderrLogSinkDeathTest_FatalMessagesInStderr_Test8TestBodyEv, ptr @_ZN7testing4Test5SetupEv] }, align 8
@_ZTSN12_GLOBAL__N_149StderrLogSinkDeathTest_FatalMessagesInStderr_TestE = internal constant [68 x i8] c"N12_GLOBAL__N_149StderrLogSinkDeathTest_FatalMessagesInStderr_TestE\00", align 1
@_ZTIN12_GLOBAL__N_149StderrLogSinkDeathTest_FatalMessagesInStderr_TestE = internal constant { ptr, ptr, ptr } { ptr getelementptr inbounds (ptr, ptr @_ZTVN10__cxxabiv120__si_class_type_infoE, i64 2), ptr @_ZTSN12_GLOBAL__N_149StderrLogSinkDeathTest_FatalMessagesInStderr_TestE, ptr @_ZTIN7testing4TestE }, align 8
@__const._ZN12_GLOBAL__N_149StderrLogSinkDeathTest_FatalMessagesInStderr_Test8TestBodyEv.message = private unnamed_addr constant [14 x i8] c"FATAL message\00", align 1
@__const._ZN12_GLOBAL__N_149StderrLogSinkDeathTest_FatalMessagesInStderr_Test8TestBodyEv.stacktrace = private unnamed_addr constant [35 x i8] c"*** Check failure stack trace: ***\00", align 16
@.str.30 = private unnamed_addr constant [360 x i8] c"{ absl::SetStderrThreshold(absl::LogSeverityAtLeast::kInfo); switch (0) case 0: default: !(true) ? (void)0 : ::absl::log_internal::Voidify()&& ::absl::log_internal::LogMessageFatal(\22generated/home/dtcxzyw/WorkSpace/Projects/compilers/llvm-opt-benchmark/bench/abseil-cpp/abseil-cpp/absl/log/internal/stderr_log_sink_test.cc\22, 86).InternalStream() << message; }\00", align 1
@.str.31 = private unnamed_addr constant [26 x i8] c"vector::_M_realloc_insert\00", align 1
@_ZTVN12_GLOBAL__N_123HasSubstrTimesMatcherP2IPciE10gmock_ImplIRKNSt7__cxx1112basic_stringIcSt11char_traitsIcESaIcEEEEE = internal unnamed_addr constant { [7 x ptr] } { [7 x ptr] [ptr null, ptr @_ZTIN12_GLOBAL__N_123HasSubstrTimesMatcherP2IPciE10gmock_ImplIRKNSt7__cxx1112basic_stringIcSt11char_traitsIcESaIcEEEEE, ptr @_ZN12_GLOBAL__N_123HasSubstrTimesMatcherP2IPciE10gmock_ImplIRKNSt7__cxx1112basic_stringIcSt11char_traitsIcESaIcEEEED2Ev, ptr @_ZN12_GLOBAL__N_123HasSubstrTimesMatcherP2IPciE10gmock_ImplIRKNSt7__cxx1112basic_stringIcSt11char_traitsIcESaIcEEEED0Ev, ptr @_ZNK12_GLOBAL__N_123HasSubstrTimesMatcherP2IPciE10gmock_ImplIRKNSt7__cxx1112basic_stringIcSt11char_traitsIcESaIcEEEE10DescribeToEPSo, ptr @_ZNK12_GLOBAL__N_123HasSubstrTimesMatcherP2IPciE10gmock_ImplIRKNSt7__cxx1112basic_stringIcSt11char_traitsIcESaIcEEEE18DescribeNegationToEPSo, ptr @_ZNK12_GLOBAL__N_123HasSubstrTimesMatcherP2IPciE10gmock_ImplIRKNSt7__cxx1112basic_stringIcSt11char_traitsIcESaIcEEEE15MatchAndExplainESB_PN7testing19MatchResultListenerE] }, align 8
@_ZTSN12_GLOBAL__N_123HasSubstrTimesMatcherP2IPciE10gmock_ImplIRKNSt7__cxx1112basic_stringIcSt11char_traitsIcESaIcEEEEE = internal constant [115 x i8] c"N12_GLOBAL__N_123HasSubstrTimesMatcherP2IPciE10gmock_ImplIRKNSt7__cxx1112basic_stringIcSt11char_traitsIcESaIcEEEEE\00", align 1
@_ZTIN12_GLOBAL__N_123HasSubstrTimesMatcherP2IPciE10gmock_ImplIRKNSt7__cxx1112basic_stringIcSt11char_traitsIcESaIcEEEEE = internal constant { ptr, ptr, ptr } { ptr getelementptr inbounds (ptr, ptr @_ZTVN10__cxxabiv120__si_class_type_infoE, i64 2), ptr @_ZTSN12_GLOBAL__N_123HasSubstrTimesMatcherP2IPciE10gmock_ImplIRKNSt7__cxx1112basic_stringIcSt11char_traitsIcESaIcEEEEE, ptr @_ZTIN7testing16MatcherInterfaceIRKNSt7__cxx1112basic_stringIcSt11char_traitsIcESaIcEEEEE }, align 8
@.str.32 = private unnamed_addr constant [1 x i8] zeroinitializer, align 1
@.str.33 = private unnamed_addr constant [15 x i8] c"HasSubstrTimes\00", align 1
@.str.34 = private unnamed_addr constant [7 x i8] c"substr\00", align 1
@.str.35 = private unnamed_addr constant [15 x i8] c"expected_count\00", align 1
@.str.36 = private unnamed_addr constant [49 x i8] c"cannot create std::vector larger than max_size()\00", align 1
@.str.37 = private unnamed_addr constant [5 x i8] c"NULL\00", align 1
@_ZTVN7testing18PolymorphicMatcherINS_8internal16HasSubstrMatcherINSt7__cxx1112basic_stringIcSt11char_traitsIcESaIcEEEEEE15MonomorphicImplIRKS8_EE = linkonce_odr dso_local unnamed_addr constant { [7 x ptr] } { [7 x ptr] [ptr null, ptr @_ZTIN7testing18PolymorphicMatcherINS_8internal16HasSubstrMatcherINSt7__cxx1112basic_stringIcSt11char_traitsIcESaIcEEEEEE15MonomorphicImplIRKS8_EE, ptr @_ZN7testing18PolymorphicMatcherINS_8internal16HasSubstrMatcherINSt7__cxx1112basic_stringIcSt11char_traitsIcESaIcEEEEEE15MonomorphicImplIRKS8_ED2Ev, ptr @_ZN7testing18PolymorphicMatcherINS_8internal16HasSubstrMatcherINSt7__cxx1112basic_stringIcSt11char_traitsIcESaIcEEEEEE15MonomorphicImplIRKS8_ED0Ev, ptr @_ZNK7testing18PolymorphicMatcherINS_8internal16HasSubstrMatcherINSt7__cxx1112basic_stringIcSt11char_traitsIcESaIcEEEEEE15MonomorphicImplIRKS8_E10DescribeToEPSo, ptr @_ZNK7testing18PolymorphicMatcherINS_8internal16HasSubstrMatcherINSt7__cxx1112basic_stringIcSt11char_traitsIcESaIcEEEEEE15MonomorphicImplIRKS8_E18DescribeNegationToEPSo, ptr @_ZNK7testing18PolymorphicMatcherINS_8internal16HasSubstrMatcherINSt7__cxx1112basic_stringIcSt11char_traitsIcESaIcEEEEEE15MonomorphicImplIRKS8_E15MatchAndExplainESD_PNS_19MatchResultListenerE] }, comdat, align 8
@_ZTSN7testing18PolymorphicMatcherINS_8internal16HasSubstrMatcherINSt7__cxx1112basic_stringIcSt11char_traitsIcESaIcEEEEEE15MonomorphicImplIRKS8_EE = linkonce_odr dso_local constant [142 x i8] c"N7testing18PolymorphicMatcherINS_8internal16HasSubstrMatcherINSt7__cxx1112basic_stringIcSt11char_traitsIcESaIcEEEEEE15MonomorphicImplIRKS8_EE\00", comdat, align 1
@_ZTIN7testing18PolymorphicMatcherINS_8internal16HasSubstrMatcherINSt7__cxx1112basic_stringIcSt11char_traitsIcESaIcEEEEEE15MonomorphicImplIRKS8_EE = linkonce_odr dso_local constant { ptr, ptr, ptr } { ptr getelementptr inbounds (ptr, ptr @_ZTVN10__cxxabiv120__si_class_type_infoE, i64 2), ptr @_ZTSN7testing18PolymorphicMatcherINS_8internal16HasSubstrMatcherINSt7__cxx1112basic_stringIcSt11char_traitsIcESaIcEEEEEE15MonomorphicImplIRKS8_EE, ptr @_ZTIN7testing16MatcherInterfaceIRKNSt7__cxx1112basic_stringIcSt11char_traitsIcESaIcEEEEE }, comdat, align 8
@.str.38 = private unnamed_addr constant [15 x i8] c"has substring \00", align 1
@.str.39 = private unnamed_addr constant [18 x i8] c"has no substring \00", align 1
@_ZTVN7testing8internal16AllOfMatcherImplIRKNSt7__cxx1112basic_stringIcSt11char_traitsIcESaIcEEEEE = linkonce_odr dso_local unnamed_addr constant { [7 x ptr] } { [7 x ptr] [ptr null, ptr @_ZTIN7testing8internal16AllOfMatcherImplIRKNSt7__cxx1112basic_stringIcSt11char_traitsIcESaIcEEEEE, ptr @_ZN7testing8internal16AllOfMatcherImplIRKNSt7__cxx1112basic_stringIcSt11char_traitsIcESaIcEEEED2Ev, ptr @_ZN7testing8internal16AllOfMatcherImplIRKNSt7__cxx1112basic_stringIcSt11char_traitsIcESaIcEEEED0Ev, ptr @_ZNK7testing8internal16AllOfMatcherImplIRKNSt7__cxx1112basic_stringIcSt11char_traitsIcESaIcEEEE10DescribeToEPSo, ptr @_ZNK7testing8internal16AllOfMatcherImplIRKNSt7__cxx1112basic_stringIcSt11char_traitsIcESaIcEEEE18DescribeNegationToEPSo, ptr @_ZNK7testing8internal16AllOfMatcherImplIRKNSt7__cxx1112basic_stringIcSt11char_traitsIcESaIcEEEE15MatchAndExplainES9_PNS_19MatchResultListenerE] }, comdat, align 8
@_ZTSN7testing8internal16AllOfMatcherImplIRKNSt7__cxx1112basic_stringIcSt11char_traitsIcESaIcEEEEE = linkonce_odr dso_local constant [94 x i8] c"N7testing8internal16AllOfMatcherImplIRKNSt7__cxx1112basic_stringIcSt11char_traitsIcESaIcEEEEE\00", comdat, align 1
@_ZTIN7testing8internal16AllOfMatcherImplIRKNSt7__cxx1112basic_stringIcSt11char_traitsIcESaIcEEEEE = linkonce_odr dso_local constant { ptr, ptr, ptr } { ptr getelementptr inbounds (ptr, ptr @_ZTVN10__cxxabiv120__si_class_type_infoE, i64 2), ptr @_ZTSN7testing8internal16AllOfMatcherImplIRKNSt7__cxx1112basic_stringIcSt11char_traitsIcESaIcEEEEE, ptr @_ZTIN7testing16MatcherInterfaceIRKNSt7__cxx1112basic_stringIcSt11char_traitsIcESaIcEEEEE }, comdat, align 8
@.str.40 = private unnamed_addr constant [2 x i8] c"(\00", align 1
@.str.41 = private unnamed_addr constant [8 x i8] c") and (\00", align 1
@.str.42 = private unnamed_addr constant [7 x i8] c") or (\00", align 1
@.str.43 = private unnamed_addr constant [7 x i8] c", and \00", align 1
@_ZTVN7testing25StringMatchResultListenerE = linkonce_odr dso_local unnamed_addr constant { [4 x ptr] } { [4 x ptr] [ptr null, ptr @_ZTIN7testing25StringMatchResultListenerE, ptr @_ZN7testing25StringMatchResultListenerD2Ev, ptr @_ZN7testing25StringMatchResultListenerD0Ev] }, comdat, align 8
@_ZTSN7testing25StringMatchResultListenerE = linkonce_odr dso_local constant [38 x i8] c"N7testing25StringMatchResultListenerE\00", comdat, align 1
@_ZTSN7testing19MatchResultListenerE = linkonce_odr dso_local constant [32 x i8] c"N7testing19MatchResultListenerE\00", comdat, align 1
@_ZTIN7testing19MatchResultListenerE = linkonce_odr dso_local constant { ptr, ptr } { ptr getelementptr inbounds (ptr, ptr @_ZTVN10__cxxabiv117__class_type_infoE, i64 2), ptr @_ZTSN7testing19MatchResultListenerE }, comdat, align 8
@_ZTIN7testing25StringMatchResultListenerE = linkonce_odr dso_local constant { ptr, ptr, ptr } { ptr getelementptr inbounds (ptr, ptr @_ZTVN10__cxxabiv120__si_class_type_infoE, i64 2), ptr @_ZTSN7testing25StringMatchResultListenerE, ptr @_ZTIN7testing19MatchResultListenerE }, comdat, align 8
@_ZTVN7testing19MatchResultListenerE = linkonce_odr dso_local unnamed_addr constant { [4 x ptr] } { [4 x ptr] [ptr null, ptr @_ZTIN7testing19MatchResultListenerE, ptr @__cxa_pure_virtual, ptr @__cxa_pure_virtual] }, comdat, align 8
@_ZTVN7testing8internal15TestFactoryImplIN12_GLOBAL__N_158StderrLogSinkDeathTest_SecondaryFatalMessagesInStderr_TestEEE = internal unnamed_addr constant { [5 x ptr] } { [5 x ptr] [ptr null, ptr @_ZTIN7testing8internal15TestFactoryImplIN12_GLOBAL__N_158StderrLogSinkDeathTest_SecondaryFatalMessagesInStderr_TestEEE, ptr @_ZN7testing8internal15TestFactoryImplIN12_GLOBAL__N_158StderrLogSinkDeathTest_SecondaryFatalMessagesInStderr_TestEED2Ev, ptr @_ZN7testing8internal15TestFactoryImplIN12_GLOBAL__N_158StderrLogSinkDeathTest_SecondaryFatalMessagesInStderr_TestEED0Ev, ptr @_ZN7testing8internal15TestFactoryImplIN12_GLOBAL__N_158StderrLogSinkDeathTest_SecondaryFatalMessagesInStderr_TestEE10CreateTestEv] }, align 8
@_ZTSN7testing8internal15TestFactoryImplIN12_GLOBAL__N_158StderrLogSinkDeathTest_SecondaryFatalMessagesInStderr_TestEEE = internal constant [115 x i8] c"N7testing8internal15TestFactoryImplIN12_GLOBAL__N_158StderrLogSinkDeathTest_SecondaryFatalMessagesInStderr_TestEEE\00", align 1
@_ZTIN7testing8internal15TestFactoryImplIN12_GLOBAL__N_158StderrLogSinkDeathTest_SecondaryFatalMessagesInStderr_TestEEE = internal constant { ptr, ptr, ptr } { ptr getelementptr inbounds (ptr, ptr @_ZTVN10__cxxabiv120__si_class_type_infoE, i64 2), ptr @_ZTSN7testing8internal15TestFactoryImplIN12_GLOBAL__N_158StderrLogSinkDeathTest_SecondaryFatalMessagesInStderr_TestEEE, ptr @_ZTIN7testing8internal15TestFactoryBaseE }, align 8
@_ZTVN12_GLOBAL__N_158StderrLogSinkDeathTest_SecondaryFatalMessagesInStderr_TestE = internal unnamed_addr constant { [8 x ptr] } { [8 x ptr] [ptr null, ptr @_ZTIN12_GLOBAL__N_158StderrLogSinkDeathTest_SecondaryFatalMessagesInStderr_TestE, ptr @_ZN12_GLOBAL__N_158StderrLogSinkDeathTest_SecondaryFatalMessagesInStderr_TestD2Ev, ptr @_ZN12_GLOBAL__N_158StderrLogSinkDeathTest_SecondaryFatalMessagesInStderr_TestD0Ev, ptr @_ZN7testing4Test5SetUpEv, ptr @_ZN7testing4Test8TearDownEv, ptr @_ZN12_GLOBAL__N_158StderrLogSinkDeathTest_SecondaryFatalMessagesInStderr_Test8TestBodyEv, ptr @_ZN7testing4Test5SetupEv] }, align 8
@_ZTSN12_GLOBAL__N_158StderrLogSinkDeathTest_SecondaryFatalMessagesInStderr_TestE = internal constant [77 x i8] c"N12_GLOBAL__N_158StderrLogSinkDeathTest_SecondaryFatalMessagesInStderr_TestE\00", align 1
@_ZTIN12_GLOBAL__N_158StderrLogSinkDeathTest_SecondaryFatalMessagesInStderr_TestE = internal constant { ptr, ptr, ptr } { ptr getelementptr inbounds (ptr, ptr @_ZTVN10__cxxabiv120__si_class_type_infoE, i64 2), ptr @_ZTSN12_GLOBAL__N_158StderrLogSinkDeathTest_SecondaryFatalMessagesInStderr_TestE, ptr @_ZTIN7testing4TestE }, align 8
@.str.44 = private unnamed_addr constant [366 x i8] c"{ absl::SetStderrThreshold(absl::LogSeverityAtLeast::kInfo); switch (0) case 0: default: !(true) ? (void)0 : ::absl::log_internal::Voidify()&& ::absl::log_internal::LogMessageFatal(\22generated/home/dtcxzyw/WorkSpace/Projects/compilers/llvm-opt-benchmark/bench/abseil-cpp/abseil-cpp/absl/log/internal/stderr_log_sink_test.cc\22, 100).InternalStream() << MessageGen(); }\00", align 1
@.str.45 = private unnamed_addr constant [17 x i8] c"Internal failure\00", align 1
@.str.46 = private unnamed_addr constant [50 x i8] c"basic_string: construction from null is not valid\00", align 1
@.str.47 = private unnamed_addr constant [166 x i8] c"generated/home/dtcxzyw/WorkSpace/Projects/compilers/llvm-opt-benchmark/bench/abseil-cpp/bench_build/googletest-src/googletest/include/gtest/internal/gtest-internal.h\00", align 1
@.str.48 = private unnamed_addr constant [51 x i8] c"Condition !test_case_fp || !test_suite_fp failed. \00", align 1
@.str.49 = private unnamed_addr constant [107 x i8] c"Test can not provide both SetUpTestSuite and SetUpTestCase, please make sure there is only one present at \00", align 1
@.str.50 = private unnamed_addr constant [2 x i8] c":\00", align 1
@.str.51 = private unnamed_addr constant [112 x i8] c"Test can not provide both TearDownTestSuite and TearDownTestCase, please make sure there is only one present at\00", align 1
@llvm.global_ctors = appending global [1 x { i32, ptr, ptr }] [{ i32, ptr, ptr } { i32 65535, ptr @_GLOBAL__sub_I_stderr_log_sink_test.cc, ptr null }]

; Function Attrs: uwtable
define internal void @__cxx_global_var_init() #0 section ".text.startup" {
entry:
  call void @_ZNSt8ios_base4InitC1Ev(ptr noundef nonnull align 1 dereferenceable(1) @_ZStL8__ioinit)
  %0 = call i32 @__cxa_atexit(ptr @_ZNSt8ios_base4InitD1Ev, ptr @_ZStL8__ioinit, ptr @__dso_handle) #3
  ret void
}

declare void @_ZNSt8ios_base4InitC1Ev(ptr noundef nonnull align 1 dereferenceable(1)) unnamed_addr #1

; Function Attrs: nounwind
declare void @_ZNSt8ios_base4InitD1Ev(ptr noundef nonnull align 1 dereferenceable(1)) unnamed_addr #2

; Function Attrs: nounwind
declare i32 @__cxa_atexit(ptr, ptr, ptr) #3

; Function Attrs: uwtable
define internal void @__cxx_global_var_init.1() #0 section ".text.startup" {
entry:
  %call = call noalias noundef nonnull ptr @_Znwm(i64 noundef 8) #17
  call void @_ZN4absl12log_internal18LogTestEnvironmentC2Ev(ptr noundef nonnull align 8 dereferenceable(8) %call) #3
  %call1 = call noundef ptr @_ZN7testing24AddGlobalTestEnvironmentEPNS_11EnvironmentE(ptr noundef %call)
  store ptr %call1, ptr @_ZN12_GLOBAL__N_18test_envE, align 8
  ret void
}

; Function Attrs: mustprogress uwtable
define linkonce_odr dso_local noundef ptr @_ZN7testing24AddGlobalTestEnvironmentEPNS_11EnvironmentE(ptr noundef %env) #4 comdat {
entry:
  %env.addr = alloca ptr, align 8
  store ptr %env, ptr %env.addr, align 8
  %call = call noundef ptr @_ZN7testing8UnitTest11GetInstanceEv()
  %0 = load ptr, ptr %env.addr, align 8
  %call1 = call noundef ptr @_ZN7testing8UnitTest14AddEnvironmentEPNS_11EnvironmentE(ptr noundef nonnull align 8 dereferenceable(72) %call, ptr noundef %0)
  ret ptr %call1
}

; Function Attrs: nobuiltin allocsize(0)
declare noundef nonnull ptr @_Znwm(i64 noundef) #5

; Function Attrs: mustprogress nounwind uwtable
define linkonce_odr dso_local void @_ZN4absl12log_internal18LogTestEnvironmentC2Ev(ptr noundef nonnull align 8 dereferenceable(8) %this) unnamed_addr #6 comdat align 2 {
entry:
  %this.addr = alloca ptr, align 8
  store ptr %this, ptr %this.addr, align 8
  %this1 = load ptr, ptr %this.addr, align 8
  call void @_ZN7testing11EnvironmentC2Ev(ptr noundef nonnull align 8 dereferenceable(8) %this1) #3
  store ptr getelementptr inbounds ({ [7 x ptr] }, ptr @_ZTVN4absl12log_internal18LogTestEnvironmentE, i32 0, inrange i32 0, i32 2), ptr %this1, align 8
  ret void
}

; Function Attrs: uwtable
define internal void @__cxx_global_var_init.2() #0 section ".text.startup" personality ptr @__gxx_personality_v0 {
entry:
  %agg.tmp = alloca %"struct.testing::internal::CodeLocation", align 8
  %ref.tmp = alloca %"class.std::__cxx11::basic_string", align 8
  %ref.tmp1 = alloca %"class.std::allocator", align 1
  %exn.slot = alloca ptr, align 8
  %ehselector.slot = alloca i32, align 4
  call void @_ZNSaIcEC1Ev(ptr noundef nonnull align 1 dereferenceable(1) %ref.tmp1) #3
  invoke void @_ZNSt7__cxx1112basic_stringIcSt11char_traitsIcESaIcEEC2IS3_EEPKcRKS3_(ptr noundef nonnull align 8 dereferenceable(32) %ref.tmp, ptr noundef @.str.4, ptr noundef nonnull align 1 dereferenceable(1) %ref.tmp1)
          to label %invoke.cont unwind label %lpad

invoke.cont:                                      ; preds = %entry
  invoke void @_ZN7testing8internal12CodeLocationC2ERKNSt7__cxx1112basic_stringIcSt11char_traitsIcESaIcEEEi(ptr noundef nonnull align 8 dereferenceable(36) %agg.tmp, ptr noundef nonnull align 8 dereferenceable(32) %ref.tmp, i32 noundef 47)
          to label %invoke.cont3 unwind label %lpad2

invoke.cont3:                                     ; preds = %invoke.cont
  %call = invoke noundef ptr @_ZN7testing8internal13GetTestTypeIdEv()
          to label %invoke.cont5 unwind label %lpad4

invoke.cont5:                                     ; preds = %invoke.cont3
  %call7 = invoke noundef ptr @_ZN7testing8internal16SuiteApiResolverINS_4TestEE19GetSetUpCaseOrSuiteEPKci(ptr noundef @.str.4, i32 noundef 47)
          to label %invoke.cont6 unwind label %lpad4

invoke.cont6:                                     ; preds = %invoke.cont5
  %call9 = invoke noundef ptr @_ZN7testing8internal16SuiteApiResolverINS_4TestEE22GetTearDownCaseOrSuiteEPKci(ptr noundef @.str.4, i32 noundef 47)
          to label %invoke.cont8 unwind label %lpad4

invoke.cont8:                                     ; preds = %invoke.cont6
  %call11 = invoke noalias noundef nonnull ptr @_Znwm(i64 noundef 8) #17
          to label %invoke.cont10 unwind label %lpad4

invoke.cont10:                                    ; preds = %invoke.cont8
  invoke void @_ZN7testing8internal15TestFactoryImplIN12_GLOBAL__N_148StderrLogSinkDeathTest_InfoMessagesInStderr_TestEEC2Ev(ptr noundef nonnull align 8 dereferenceable(8) %call11)
          to label %invoke.cont13 unwind label %lpad12

invoke.cont13:                                    ; preds = %invoke.cont10
  %call15 = invoke noundef ptr @_ZN7testing8internal23MakeAndRegisterTestInfoEPKcS2_S2_S2_NS0_12CodeLocationEPKvPFvvES7_PNS0_15TestFactoryBaseE(ptr noundef @.str, ptr noundef @.str.3, ptr noundef null, ptr noundef null, ptr noundef %agg.tmp, ptr noundef %call, ptr noundef %call7, ptr noundef %call9, ptr noundef %call11)
          to label %invoke.cont14 unwind label %lpad4

invoke.cont14:                                    ; preds = %invoke.cont13
  call void @_ZN7testing8internal12CodeLocationD2Ev(ptr noundef nonnull align 8 dereferenceable(36) %agg.tmp) #3
  call void @_ZNSt7__cxx1112basic_stringIcSt11char_traitsIcESaIcEED1Ev(ptr noundef nonnull align 8 dereferenceable(32) %ref.tmp) #3
  call void @_ZNSaIcED1Ev(ptr noundef nonnull align 1 dereferenceable(1) %ref.tmp1) #3
  store ptr %call15, ptr @_ZN12_GLOBAL__N_148StderrLogSinkDeathTest_InfoMessagesInStderr_Test10test_info_E, align 8
  ret void

lpad:                                             ; preds = %entry
  %0 = landingpad { ptr, i32 }
          cleanup
  %1 = extractvalue { ptr, i32 } %0, 0
  store ptr %1, ptr %exn.slot, align 8
  %2 = extractvalue { ptr, i32 } %0, 1
  store i32 %2, ptr %ehselector.slot, align 4
  br label %ehcleanup17

lpad2:                                            ; preds = %invoke.cont
  %3 = landingpad { ptr, i32 }
          cleanup
  %4 = extractvalue { ptr, i32 } %3, 0
  store ptr %4, ptr %exn.slot, align 8
  %5 = extractvalue { ptr, i32 } %3, 1
  store i32 %5, ptr %ehselector.slot, align 4
  br label %ehcleanup16

lpad4:                                            ; preds = %invoke.cont13, %invoke.cont8, %invoke.cont6, %invoke.cont5, %invoke.cont3
  %6 = landingpad { ptr, i32 }
          cleanup
  %7 = extractvalue { ptr, i32 } %6, 0
  store ptr %7, ptr %exn.slot, align 8
  %8 = extractvalue { ptr, i32 } %6, 1
  store i32 %8, ptr %ehselector.slot, align 4
  br label %ehcleanup

lpad12:                                           ; preds = %invoke.cont10
  %9 = landingpad { ptr, i32 }
          cleanup
  %10 = extractvalue { ptr, i32 } %9, 0
  store ptr %10, ptr %exn.slot, align 8
  %11 = extractvalue { ptr, i32 } %9, 1
  store i32 %11, ptr %ehselector.slot, align 4
  call void @_ZdlPv(ptr noundef %call11) #18
  br label %ehcleanup

ehcleanup:                                        ; preds = %lpad12, %lpad4
  call void @_ZN7testing8internal12CodeLocationD2Ev(ptr noundef nonnull align 8 dereferenceable(36) %agg.tmp) #3
  br label %ehcleanup16

ehcleanup16:                                      ; preds = %ehcleanup, %lpad2
  call void @_ZNSt7__cxx1112basic_stringIcSt11char_traitsIcESaIcEED1Ev(ptr noundef nonnull align 8 dereferenceable(32) %ref.tmp) #3
  br label %ehcleanup17

ehcleanup17:                                      ; preds = %ehcleanup16, %lpad
  call void @_ZNSaIcED1Ev(ptr noundef nonnull align 1 dereferenceable(1) %ref.tmp1) #3
  br label %eh.resume

eh.resume:                                        ; preds = %ehcleanup17
  %exn = load ptr, ptr %exn.slot, align 8
  %sel = load i32, ptr %ehselector.slot, align 4
  %lpad.val = insertvalue { ptr, i32 } poison, ptr %exn, 0
  %lpad.val18 = insertvalue { ptr, i32 } %lpad.val, i32 %sel, 1
  resume { ptr, i32 } %lpad.val18
}

declare noundef ptr @_ZN7testing8internal23MakeAndRegisterTestInfoEPKcS2_S2_S2_NS0_12CodeLocationEPKvPFvvES7_PNS0_15TestFactoryBaseE(ptr noundef, ptr noundef, ptr noundef, ptr noundef, ptr noundef, ptr noundef, ptr noundef, ptr noundef, ptr noundef) #1

; Function Attrs: nounwind
declare void @_ZNSaIcEC1Ev(ptr noundef nonnull align 1 dereferenceable(1)) unnamed_addr #2

; Function Attrs: mustprogress uwtable
define linkonce_odr dso_local void @_ZNSt7__cxx1112basic_stringIcSt11char_traitsIcESaIcEEC2IS3_EEPKcRKS3_(ptr noundef nonnull align 8 dereferenceable(32) %this, ptr noundef %__s, ptr noundef nonnull align 1 dereferenceable(1) %__a) unnamed_addr #4 comdat align 2 personality ptr @__gxx_personality_v0 {
entry:
  %this.addr = alloca ptr, align 8
  %__s.addr = alloca ptr, align 8
  %__a.addr = alloca ptr, align 8
  %exn.slot = alloca ptr, align 8
  %ehselector.slot = alloca i32, align 4
  %__end = alloca ptr, align 8
  store ptr %this, ptr %this.addr, align 8
  store ptr %__s, ptr %__s.addr, align 8
  store ptr %__a, ptr %__a.addr, align 8
  %this1 = load ptr, ptr %this.addr, align 8
  %_M_dataplus = getelementptr inbounds %"class.std::__cxx11::basic_string", ptr %this1, i32 0, i32 0
  %call = call noundef ptr @_ZNSt7__cxx1112basic_stringIcSt11char_traitsIcESaIcEE13_M_local_dataEv(ptr noundef nonnull align 8 dereferenceable(32) %this1)
  %0 = load ptr, ptr %__a.addr, align 8
  call void @_ZNSt7__cxx1112basic_stringIcSt11char_traitsIcESaIcEE12_Alloc_hiderC1EPcRKS3_(ptr noundef nonnull align 8 dereferenceable(8) %_M_dataplus, ptr noundef %call, ptr noundef nonnull align 1 dereferenceable(1) %0)
  %1 = load ptr, ptr %__s.addr, align 8
  %cmp = icmp eq ptr %1, null
  br i1 %cmp, label %if.then, label %if.end

if.then:                                          ; preds = %entry
  invoke void @_ZSt19__throw_logic_errorPKc(ptr noundef @.str.46) #19
          to label %invoke.cont unwind label %lpad

invoke.cont:                                      ; preds = %if.then
  unreachable

lpad:                                             ; preds = %if.end, %if.then
  %2 = landingpad { ptr, i32 }
          cleanup
  %3 = extractvalue { ptr, i32 } %2, 0
  store ptr %3, ptr %exn.slot, align 8
  %4 = extractvalue { ptr, i32 } %2, 1
  store i32 %4, ptr %ehselector.slot, align 4
  call void @_ZNSt7__cxx1112basic_stringIcSt11char_traitsIcESaIcEE12_Alloc_hiderD2Ev(ptr noundef nonnull align 8 dereferenceable(8) %_M_dataplus) #3
  br label %eh.resume

if.end:                                           ; preds = %entry
  %5 = load ptr, ptr %__s.addr, align 8
  %6 = load ptr, ptr %__s.addr, align 8
  %call2 = call noundef i64 @_ZNSt11char_traitsIcE6lengthEPKc(ptr noundef %6)
  %add.ptr = getelementptr inbounds i8, ptr %5, i64 %call2
  store ptr %add.ptr, ptr %__end, align 8
  %7 = load ptr, ptr %__s.addr, align 8
  %8 = load ptr, ptr %__end, align 8
  invoke void @_ZNSt7__cxx1112basic_stringIcSt11char_traitsIcESaIcEE12_M_constructIPKcEEvT_S8_St20forward_iterator_tag(ptr noundef nonnull align 8 dereferenceable(32) %this1, ptr noundef %7, ptr noundef %8)
          to label %invoke.cont3 unwind label %lpad

invoke.cont3:                                     ; preds = %if.end
  ret void

eh.resume:                                        ; preds = %lpad
  %exn = load ptr, ptr %exn.slot, align 8
  %sel = load i32, ptr %ehselector.slot, align 4
  %lpad.val = insertvalue { ptr, i32 } poison, ptr %exn, 0
  %lpad.val4 = insertvalue { ptr, i32 } %lpad.val, i32 %sel, 1
  resume { ptr, i32 } %lpad.val4
}

declare i32 @__gxx_personality_v0(...)

; Function Attrs: mustprogress uwtable
define linkonce_odr dso_local void @_ZN7testing8internal12CodeLocationC2ERKNSt7__cxx1112basic_stringIcSt11char_traitsIcESaIcEEEi(ptr noundef nonnull align 8 dereferenceable(36) %this, ptr noundef nonnull align 8 dereferenceable(32) %a_file, i32 noundef %a_line) unnamed_addr #4 comdat align 2 {
entry:
  %this.addr = alloca ptr, align 8
  %a_file.addr = alloca ptr, align 8
  %a_line.addr = alloca i32, align 4
  store ptr %this, ptr %this.addr, align 8
  store ptr %a_file, ptr %a_file.addr, align 8
  store i32 %a_line, ptr %a_line.addr, align 4
  %this1 = load ptr, ptr %this.addr, align 8
  %file = getelementptr inbounds %"struct.testing::internal::CodeLocation", ptr %this1, i32 0, i32 0
  %0 = load ptr, ptr %a_file.addr, align 8
  call void @_ZNSt7__cxx1112basic_stringIcSt11char_traitsIcESaIcEEC1ERKS4_(ptr noundef nonnull align 8 dereferenceable(32) %file, ptr noundef nonnull align 8 dereferenceable(32) %0)
  %line = getelementptr inbounds %"struct.testing::internal::CodeLocation", ptr %this1, i32 0, i32 1
  %1 = load i32, ptr %a_line.addr, align 4
  store i32 %1, ptr %line, align 8
  ret void
}

declare noundef ptr @_ZN7testing8internal13GetTestTypeIdEv() #1

; Function Attrs: mustprogress uwtable
define linkonce_odr dso_local noundef ptr @_ZN7testing8internal16SuiteApiResolverINS_4TestEE19GetSetUpCaseOrSuiteEPKci(ptr noundef %filename, i32 noundef %line_num) #4 comdat align 2 personality ptr @__gxx_personality_v0 {
entry:
  %filename.addr = alloca ptr, align 8
  %line_num.addr = alloca i32, align 4
  %test_case_fp = alloca ptr, align 8
  %test_suite_fp = alloca ptr, align 8
  %ref.tmp = alloca %"class.testing::internal::GTestLog", align 4
  %exn.slot = alloca ptr, align 8
  %ehselector.slot = alloca i32, align 4
  store ptr %filename, ptr %filename.addr, align 8
  store i32 %line_num, ptr %line_num.addr, align 4
  %call = call noundef ptr @_ZN7testing8internal19GetNotDefaultOrNullEPFvvES2_(ptr noundef @_ZN7testing4Test13SetUpTestCaseEv, ptr noundef @_ZN7testing4Test13SetUpTestCaseEv)
  store ptr %call, ptr %test_case_fp, align 8
  %call1 = call noundef ptr @_ZN7testing8internal19GetNotDefaultOrNullEPFvvES2_(ptr noundef @_ZN7testing4Test14SetUpTestSuiteEv, ptr noundef @_ZN7testing4Test14SetUpTestSuiteEv)
  store ptr %call1, ptr %test_suite_fp, align 8
  %0 = load ptr, ptr %test_case_fp, align 8
  %tobool = icmp ne ptr %0, null
  br i1 %tobool, label %lor.rhs, label %lor.end

lor.rhs:                                          ; preds = %entry
  %1 = load ptr, ptr %test_suite_fp, align 8
  %tobool2 = icmp ne ptr %1, null
  %lnot = xor i1 %tobool2, true
  br label %lor.end

lor.end:                                          ; preds = %lor.rhs, %entry
  %2 = phi i1 [ true, %entry ], [ %lnot, %lor.rhs ]
  %call3 = call noundef zeroext i1 @_ZN7testing8internal6IsTrueEb(i1 noundef zeroext %2)
  br i1 %call3, label %if.then, label %if.else

if.then:                                          ; preds = %lor.end
  br label %if.end

if.else:                                          ; preds = %lor.end
  call void @_ZN7testing8internal8GTestLogC1ENS0_16GTestLogSeverityEPKci(ptr noundef nonnull align 4 dereferenceable(4) %ref.tmp, i32 noundef 3, ptr noundef @.str.47, i32 noundef 513)
  %call4 = call noundef nonnull align 8 dereferenceable(8) ptr @_ZN7testing8internal8GTestLog9GetStreamEv(ptr noundef nonnull align 4 dereferenceable(4) %ref.tmp)
  %call5 = invoke noundef nonnull align 8 dereferenceable(8) ptr @_ZStlsISt11char_traitsIcEERSt13basic_ostreamIcT_ES5_PKc(ptr noundef nonnull align 8 dereferenceable(8) %call4, ptr noundef @.str.48)
          to label %invoke.cont unwind label %lpad

invoke.cont:                                      ; preds = %if.else
  %call7 = invoke noundef nonnull align 8 dereferenceable(8) ptr @_ZStlsISt11char_traitsIcEERSt13basic_ostreamIcT_ES5_PKc(ptr noundef nonnull align 8 dereferenceable(8) %call5, ptr noundef @.str.49)
          to label %invoke.cont6 unwind label %lpad

invoke.cont6:                                     ; preds = %invoke.cont
  %3 = load ptr, ptr %filename.addr, align 8
  %call9 = invoke noundef nonnull align 8 dereferenceable(8) ptr @_ZStlsISt11char_traitsIcEERSt13basic_ostreamIcT_ES5_PKc(ptr noundef nonnull align 8 dereferenceable(8) %call7, ptr noundef %3)
          to label %invoke.cont8 unwind label %lpad

invoke.cont8:                                     ; preds = %invoke.cont6
  %call11 = invoke noundef nonnull align 8 dereferenceable(8) ptr @_ZStlsISt11char_traitsIcEERSt13basic_ostreamIcT_ES5_PKc(ptr noundef nonnull align 8 dereferenceable(8) %call9, ptr noundef @.str.50)
          to label %invoke.cont10 unwind label %lpad

invoke.cont10:                                    ; preds = %invoke.cont8
  %4 = load i32, ptr %line_num.addr, align 4
  %call13 = invoke noundef nonnull align 8 dereferenceable(8) ptr @_ZNSolsEi(ptr noundef nonnull align 8 dereferenceable(8) %call11, i32 noundef %4)
          to label %invoke.cont12 unwind label %lpad

invoke.cont12:                                    ; preds = %invoke.cont10
  call void @_ZN7testing8internal8GTestLogD1Ev(ptr noundef nonnull align 4 dereferenceable(4) %ref.tmp) #3
  br label %if.end

lpad:                                             ; preds = %invoke.cont10, %invoke.cont8, %invoke.cont6, %invoke.cont, %if.else
  %5 = landingpad { ptr, i32 }
          cleanup
  %6 = extractvalue { ptr, i32 } %5, 0
  store ptr %6, ptr %exn.slot, align 8
  %7 = extractvalue { ptr, i32 } %5, 1
  store i32 %7, ptr %ehselector.slot, align 4
  call void @_ZN7testing8internal8GTestLogD1Ev(ptr noundef nonnull align 4 dereferenceable(4) %ref.tmp) #3
  br label %eh.resume

if.end:                                           ; preds = %invoke.cont12, %if.then
  %8 = load ptr, ptr %test_case_fp, align 8
  %cmp = icmp ne ptr %8, null
  br i1 %cmp, label %cond.true, label %cond.false

cond.true:                                        ; preds = %if.end
  %9 = load ptr, ptr %test_case_fp, align 8
  br label %cond.end

cond.false:                                       ; preds = %if.end
  %10 = load ptr, ptr %test_suite_fp, align 8
  br label %cond.end

cond.end:                                         ; preds = %cond.false, %cond.true
  %cond = phi ptr [ %9, %cond.true ], [ %10, %cond.false ]
  ret ptr %cond

eh.resume:                                        ; preds = %lpad
  %exn = load ptr, ptr %exn.slot, align 8
  %sel = load i32, ptr %ehselector.slot, align 4
  %lpad.val = insertvalue { ptr, i32 } poison, ptr %exn, 0
  %lpad.val14 = insertvalue { ptr, i32 } %lpad.val, i32 %sel, 1
  resume { ptr, i32 } %lpad.val14
}

; Function Attrs: mustprogress uwtable
define linkonce_odr dso_local noundef ptr @_ZN7testing8internal16SuiteApiResolverINS_4TestEE22GetTearDownCaseOrSuiteEPKci(ptr noundef %filename, i32 noundef %line_num) #4 comdat align 2 personality ptr @__gxx_personality_v0 {
entry:
  %filename.addr = alloca ptr, align 8
  %line_num.addr = alloca i32, align 4
  %test_case_fp = alloca ptr, align 8
  %test_suite_fp = alloca ptr, align 8
  %ref.tmp = alloca %"class.testing::internal::GTestLog", align 4
  %exn.slot = alloca ptr, align 8
  %ehselector.slot = alloca i32, align 4
  store ptr %filename, ptr %filename.addr, align 8
  store i32 %line_num, ptr %line_num.addr, align 4
  %call = call noundef ptr @_ZN7testing8internal19GetNotDefaultOrNullEPFvvES2_(ptr noundef @_ZN7testing4Test16TearDownTestCaseEv, ptr noundef @_ZN7testing4Test16TearDownTestCaseEv)
  store ptr %call, ptr %test_case_fp, align 8
  %call1 = call noundef ptr @_ZN7testing8internal19GetNotDefaultOrNullEPFvvES2_(ptr noundef @_ZN7testing4Test17TearDownTestSuiteEv, ptr noundef @_ZN7testing4Test17TearDownTestSuiteEv)
  store ptr %call1, ptr %test_suite_fp, align 8
  %0 = load ptr, ptr %test_case_fp, align 8
  %tobool = icmp ne ptr %0, null
  br i1 %tobool, label %lor.rhs, label %lor.end

lor.rhs:                                          ; preds = %entry
  %1 = load ptr, ptr %test_suite_fp, align 8
  %tobool2 = icmp ne ptr %1, null
  %lnot = xor i1 %tobool2, true
  br label %lor.end

lor.end:                                          ; preds = %lor.rhs, %entry
  %2 = phi i1 [ true, %entry ], [ %lnot, %lor.rhs ]
  %call3 = call noundef zeroext i1 @_ZN7testing8internal6IsTrueEb(i1 noundef zeroext %2)
  br i1 %call3, label %if.then, label %if.else

if.then:                                          ; preds = %lor.end
  br label %if.end

if.else:                                          ; preds = %lor.end
  call void @_ZN7testing8internal8GTestLogC1ENS0_16GTestLogSeverityEPKci(ptr noundef nonnull align 4 dereferenceable(4) %ref.tmp, i32 noundef 3, ptr noundef @.str.47, i32 noundef 534)
  %call4 = call noundef nonnull align 8 dereferenceable(8) ptr @_ZN7testing8internal8GTestLog9GetStreamEv(ptr noundef nonnull align 4 dereferenceable(4) %ref.tmp)
  %call5 = invoke noundef nonnull align 8 dereferenceable(8) ptr @_ZStlsISt11char_traitsIcEERSt13basic_ostreamIcT_ES5_PKc(ptr noundef nonnull align 8 dereferenceable(8) %call4, ptr noundef @.str.48)
          to label %invoke.cont unwind label %lpad

invoke.cont:                                      ; preds = %if.else
  %call7 = invoke noundef nonnull align 8 dereferenceable(8) ptr @_ZStlsISt11char_traitsIcEERSt13basic_ostreamIcT_ES5_PKc(ptr noundef nonnull align 8 dereferenceable(8) %call5, ptr noundef @.str.51)
          to label %invoke.cont6 unwind label %lpad

invoke.cont6:                                     ; preds = %invoke.cont
  %3 = load ptr, ptr %filename.addr, align 8
  %call9 = invoke noundef nonnull align 8 dereferenceable(8) ptr @_ZStlsISt11char_traitsIcEERSt13basic_ostreamIcT_ES5_PKc(ptr noundef nonnull align 8 dereferenceable(8) %call7, ptr noundef %3)
          to label %invoke.cont8 unwind label %lpad

invoke.cont8:                                     ; preds = %invoke.cont6
  %call11 = invoke noundef nonnull align 8 dereferenceable(8) ptr @_ZStlsISt11char_traitsIcEERSt13basic_ostreamIcT_ES5_PKc(ptr noundef nonnull align 8 dereferenceable(8) %call9, ptr noundef @.str.50)
          to label %invoke.cont10 unwind label %lpad

invoke.cont10:                                    ; preds = %invoke.cont8
  %4 = load i32, ptr %line_num.addr, align 4
  %call13 = invoke noundef nonnull align 8 dereferenceable(8) ptr @_ZNSolsEi(ptr noundef nonnull align 8 dereferenceable(8) %call11, i32 noundef %4)
          to label %invoke.cont12 unwind label %lpad

invoke.cont12:                                    ; preds = %invoke.cont10
  call void @_ZN7testing8internal8GTestLogD1Ev(ptr noundef nonnull align 4 dereferenceable(4) %ref.tmp) #3
  br label %if.end

lpad:                                             ; preds = %invoke.cont10, %invoke.cont8, %invoke.cont6, %invoke.cont, %if.else
  %5 = landingpad { ptr, i32 }
          cleanup
  %6 = extractvalue { ptr, i32 } %5, 0
  store ptr %6, ptr %exn.slot, align 8
  %7 = extractvalue { ptr, i32 } %5, 1
  store i32 %7, ptr %ehselector.slot, align 4
  call void @_ZN7testing8internal8GTestLogD1Ev(ptr noundef nonnull align 4 dereferenceable(4) %ref.tmp) #3
  br label %eh.resume

if.end:                                           ; preds = %invoke.cont12, %if.then
  %8 = load ptr, ptr %test_case_fp, align 8
  %cmp = icmp ne ptr %8, null
  br i1 %cmp, label %cond.true, label %cond.false

cond.true:                                        ; preds = %if.end
  %9 = load ptr, ptr %test_case_fp, align 8
  br label %cond.end

cond.false:                                       ; preds = %if.end
  %10 = load ptr, ptr %test_suite_fp, align 8
  br label %cond.end

cond.end:                                         ; preds = %cond.false, %cond.true
  %cond = phi ptr [ %9, %cond.true ], [ %10, %cond.false ]
  ret ptr %cond

eh.resume:                                        ; preds = %lpad
  %exn = load ptr, ptr %exn.slot, align 8
  %sel = load i32, ptr %ehselector.slot, align 4
  %lpad.val = insertvalue { ptr, i32 } poison, ptr %exn, 0
  %lpad.val14 = insertvalue { ptr, i32 } %lpad.val, i32 %sel, 1
  resume { ptr, i32 } %lpad.val14
}

; Function Attrs: mustprogress uwtable
define internal void @_ZN7testing8internal15TestFactoryImplIN12_GLOBAL__N_148StderrLogSinkDeathTest_InfoMessagesInStderr_TestEEC2Ev(ptr noundef nonnull align 8 dereferenceable(8) %this) unnamed_addr #4 align 2 {
entry:
  %this.addr = alloca ptr, align 8
  store ptr %this, ptr %this.addr, align 8
  %this1 = load ptr, ptr %this.addr, align 8
  call void @_ZN7testing8internal15TestFactoryBaseC2Ev(ptr noundef nonnull align 8 dereferenceable(8) %this1)
  store ptr getelementptr inbounds ({ [5 x ptr] }, ptr @_ZTVN7testing8internal15TestFactoryImplIN12_GLOBAL__N_148StderrLogSinkDeathTest_InfoMessagesInStderr_TestEEE, i32 0, inrange i32 0, i32 2), ptr %this1, align 8
  ret void
}

; Function Attrs: nobuiltin nounwind
declare void @_ZdlPv(ptr noundef) #7

; Function Attrs: mustprogress nounwind uwtable
define linkonce_odr dso_local void @_ZN7testing8internal12CodeLocationD2Ev(ptr noundef nonnull align 8 dereferenceable(36) %this) unnamed_addr #6 comdat align 2 {
entry:
  %this.addr = alloca ptr, align 8
  store ptr %this, ptr %this.addr, align 8
  %this1 = load ptr, ptr %this.addr, align 8
  %file = getelementptr inbounds %"struct.testing::internal::CodeLocation", ptr %this1, i32 0, i32 0
  call void @_ZNSt7__cxx1112basic_stringIcSt11char_traitsIcESaIcEED1Ev(ptr noundef nonnull align 8 dereferenceable(32) %file) #3
  ret void
}

; Function Attrs: nounwind
declare void @_ZNSt7__cxx1112basic_stringIcSt11char_traitsIcESaIcEED1Ev(ptr noundef nonnull align 8 dereferenceable(32)) unnamed_addr #2

; Function Attrs: nounwind
declare void @_ZNSaIcED1Ev(ptr noundef nonnull align 1 dereferenceable(1)) unnamed_addr #2

; Function Attrs: uwtable
define internal void @__cxx_global_var_init.5() #0 section ".text.startup" personality ptr @__gxx_personality_v0 {
entry:
  %agg.tmp = alloca %"struct.testing::internal::CodeLocation", align 8
  %ref.tmp = alloca %"class.std::__cxx11::basic_string", align 8
  %ref.tmp1 = alloca %"class.std::allocator", align 1
  %exn.slot = alloca ptr, align 8
  %ehselector.slot = alloca i32, align 4
  call void @_ZNSaIcEC1Ev(ptr noundef nonnull align 1 dereferenceable(1) %ref.tmp1) #3
  invoke void @_ZNSt7__cxx1112basic_stringIcSt11char_traitsIcESaIcEEC2IS3_EEPKcRKS3_(ptr noundef nonnull align 8 dereferenceable(32) %ref.tmp, ptr noundef @.str.4, ptr noundef nonnull align 1 dereferenceable(1) %ref.tmp1)
          to label %invoke.cont unwind label %lpad

invoke.cont:                                      ; preds = %entry
  invoke void @_ZN7testing8internal12CodeLocationC2ERKNSt7__cxx1112basic_stringIcSt11char_traitsIcESaIcEEEi(ptr noundef nonnull align 8 dereferenceable(36) %agg.tmp, ptr noundef nonnull align 8 dereferenceable(32) %ref.tmp, i32 noundef 57)
          to label %invoke.cont3 unwind label %lpad2

invoke.cont3:                                     ; preds = %invoke.cont
  %call = invoke noundef ptr @_ZN7testing8internal13GetTestTypeIdEv()
          to label %invoke.cont5 unwind label %lpad4

invoke.cont5:                                     ; preds = %invoke.cont3
  %call7 = invoke noundef ptr @_ZN7testing8internal16SuiteApiResolverINS_4TestEE19GetSetUpCaseOrSuiteEPKci(ptr noundef @.str.4, i32 noundef 57)
          to label %invoke.cont6 unwind label %lpad4

invoke.cont6:                                     ; preds = %invoke.cont5
  %call9 = invoke noundef ptr @_ZN7testing8internal16SuiteApiResolverINS_4TestEE22GetTearDownCaseOrSuiteEPKci(ptr noundef @.str.4, i32 noundef 57)
          to label %invoke.cont8 unwind label %lpad4

invoke.cont8:                                     ; preds = %invoke.cont6
  %call11 = invoke noalias noundef nonnull ptr @_Znwm(i64 noundef 8) #17
          to label %invoke.cont10 unwind label %lpad4

invoke.cont10:                                    ; preds = %invoke.cont8
  invoke void @_ZN7testing8internal15TestFactoryImplIN12_GLOBAL__N_151StderrLogSinkDeathTest_WarningMessagesInStderr_TestEEC2Ev(ptr noundef nonnull align 8 dereferenceable(8) %call11)
          to label %invoke.cont13 unwind label %lpad12

invoke.cont13:                                    ; preds = %invoke.cont10
  %call15 = invoke noundef ptr @_ZN7testing8internal23MakeAndRegisterTestInfoEPKcS2_S2_S2_NS0_12CodeLocationEPKvPFvvES7_PNS0_15TestFactoryBaseE(ptr noundef @.str, ptr noundef @.str.6, ptr noundef null, ptr noundef null, ptr noundef %agg.tmp, ptr noundef %call, ptr noundef %call7, ptr noundef %call9, ptr noundef %call11)
          to label %invoke.cont14 unwind label %lpad4

invoke.cont14:                                    ; preds = %invoke.cont13
  call void @_ZN7testing8internal12CodeLocationD2Ev(ptr noundef nonnull align 8 dereferenceable(36) %agg.tmp) #3
  call void @_ZNSt7__cxx1112basic_stringIcSt11char_traitsIcESaIcEED1Ev(ptr noundef nonnull align 8 dereferenceable(32) %ref.tmp) #3
  call void @_ZNSaIcED1Ev(ptr noundef nonnull align 1 dereferenceable(1) %ref.tmp1) #3
  store ptr %call15, ptr @_ZN12_GLOBAL__N_151StderrLogSinkDeathTest_WarningMessagesInStderr_Test10test_info_E, align 8
  ret void

lpad:                                             ; preds = %entry
  %0 = landingpad { ptr, i32 }
          cleanup
  %1 = extractvalue { ptr, i32 } %0, 0
  store ptr %1, ptr %exn.slot, align 8
  %2 = extractvalue { ptr, i32 } %0, 1
  store i32 %2, ptr %ehselector.slot, align 4
  br label %ehcleanup17

lpad2:                                            ; preds = %invoke.cont
  %3 = landingpad { ptr, i32 }
          cleanup
  %4 = extractvalue { ptr, i32 } %3, 0
  store ptr %4, ptr %exn.slot, align 8
  %5 = extractvalue { ptr, i32 } %3, 1
  store i32 %5, ptr %ehselector.slot, align 4
  br label %ehcleanup16

lpad4:                                            ; preds = %invoke.cont13, %invoke.cont8, %invoke.cont6, %invoke.cont5, %invoke.cont3
  %6 = landingpad { ptr, i32 }
          cleanup
  %7 = extractvalue { ptr, i32 } %6, 0
  store ptr %7, ptr %exn.slot, align 8
  %8 = extractvalue { ptr, i32 } %6, 1
  store i32 %8, ptr %ehselector.slot, align 4
  br label %ehcleanup

lpad12:                                           ; preds = %invoke.cont10
  %9 = landingpad { ptr, i32 }
          cleanup
  %10 = extractvalue { ptr, i32 } %9, 0
  store ptr %10, ptr %exn.slot, align 8
  %11 = extractvalue { ptr, i32 } %9, 1
  store i32 %11, ptr %ehselector.slot, align 4
  call void @_ZdlPv(ptr noundef %call11) #18
  br label %ehcleanup

ehcleanup:                                        ; preds = %lpad12, %lpad4
  call void @_ZN7testing8internal12CodeLocationD2Ev(ptr noundef nonnull align 8 dereferenceable(36) %agg.tmp) #3
  br label %ehcleanup16

ehcleanup16:                                      ; preds = %ehcleanup, %lpad2
  call void @_ZNSt7__cxx1112basic_stringIcSt11char_traitsIcESaIcEED1Ev(ptr noundef nonnull align 8 dereferenceable(32) %ref.tmp) #3
  br label %ehcleanup17

ehcleanup17:                                      ; preds = %ehcleanup16, %lpad
  call void @_ZNSaIcED1Ev(ptr noundef nonnull align 1 dereferenceable(1) %ref.tmp1) #3
  br label %eh.resume

eh.resume:                                        ; preds = %ehcleanup17
  %exn = load ptr, ptr %exn.slot, align 8
  %sel = load i32, ptr %ehselector.slot, align 4
  %lpad.val = insertvalue { ptr, i32 } poison, ptr %exn, 0
  %lpad.val18 = insertvalue { ptr, i32 } %lpad.val, i32 %sel, 1
  resume { ptr, i32 } %lpad.val18
}

; Function Attrs: mustprogress nounwind uwtable
define internal void @_ZN7testing8internal15TestFactoryImplIN12_GLOBAL__N_151StderrLogSinkDeathTest_WarningMessagesInStderr_TestEEC2Ev(ptr noundef nonnull align 8 dereferenceable(8) %this) unnamed_addr #6 align 2 {
entry:
  %this.addr = alloca ptr, align 8
  store ptr %this, ptr %this.addr, align 8
  %this1 = load ptr, ptr %this.addr, align 8
  call void @_ZN7testing8internal15TestFactoryBaseC2Ev(ptr noundef nonnull align 8 dereferenceable(8) %this1)
  store ptr getelementptr inbounds ({ [5 x ptr] }, ptr @_ZTVN7testing8internal15TestFactoryImplIN12_GLOBAL__N_151StderrLogSinkDeathTest_WarningMessagesInStderr_TestEEE, i32 0, inrange i32 0, i32 2), ptr %this1, align 8
  ret void
}

; Function Attrs: uwtable
define internal void @__cxx_global_var_init.7() #0 section ".text.startup" personality ptr @__gxx_personality_v0 {
entry:
  %agg.tmp = alloca %"struct.testing::internal::CodeLocation", align 8
  %ref.tmp = alloca %"class.std::__cxx11::basic_string", align 8
  %ref.tmp1 = alloca %"class.std::allocator", align 1
  %exn.slot = alloca ptr, align 8
  %ehselector.slot = alloca i32, align 4
  call void @_ZNSaIcEC1Ev(ptr noundef nonnull align 1 dereferenceable(1) %ref.tmp1) #3
  invoke void @_ZNSt7__cxx1112basic_stringIcSt11char_traitsIcESaIcEEC2IS3_EEPKcRKS3_(ptr noundef nonnull align 8 dereferenceable(32) %ref.tmp, ptr noundef @.str.4, ptr noundef nonnull align 1 dereferenceable(1) %ref.tmp1)
          to label %invoke.cont unwind label %lpad

invoke.cont:                                      ; preds = %entry
  invoke void @_ZN7testing8internal12CodeLocationC2ERKNSt7__cxx1112basic_stringIcSt11char_traitsIcESaIcEEEi(ptr noundef nonnull align 8 dereferenceable(36) %agg.tmp, ptr noundef nonnull align 8 dereferenceable(32) %ref.tmp, i32 noundef 67)
          to label %invoke.cont3 unwind label %lpad2

invoke.cont3:                                     ; preds = %invoke.cont
  %call = invoke noundef ptr @_ZN7testing8internal13GetTestTypeIdEv()
          to label %invoke.cont5 unwind label %lpad4

invoke.cont5:                                     ; preds = %invoke.cont3
  %call7 = invoke noundef ptr @_ZN7testing8internal16SuiteApiResolverINS_4TestEE19GetSetUpCaseOrSuiteEPKci(ptr noundef @.str.4, i32 noundef 67)
          to label %invoke.cont6 unwind label %lpad4

invoke.cont6:                                     ; preds = %invoke.cont5
  %call9 = invoke noundef ptr @_ZN7testing8internal16SuiteApiResolverINS_4TestEE22GetTearDownCaseOrSuiteEPKci(ptr noundef @.str.4, i32 noundef 67)
          to label %invoke.cont8 unwind label %lpad4

invoke.cont8:                                     ; preds = %invoke.cont6
  %call11 = invoke noalias noundef nonnull ptr @_Znwm(i64 noundef 8) #17
          to label %invoke.cont10 unwind label %lpad4

invoke.cont10:                                    ; preds = %invoke.cont8
  invoke void @_ZN7testing8internal15TestFactoryImplIN12_GLOBAL__N_149StderrLogSinkDeathTest_ErrorMessagesInStderr_TestEEC2Ev(ptr noundef nonnull align 8 dereferenceable(8) %call11)
          to label %invoke.cont13 unwind label %lpad12

invoke.cont13:                                    ; preds = %invoke.cont10
  %call15 = invoke noundef ptr @_ZN7testing8internal23MakeAndRegisterTestInfoEPKcS2_S2_S2_NS0_12CodeLocationEPKvPFvvES7_PNS0_15TestFactoryBaseE(ptr noundef @.str, ptr noundef @.str.8, ptr noundef null, ptr noundef null, ptr noundef %agg.tmp, ptr noundef %call, ptr noundef %call7, ptr noundef %call9, ptr noundef %call11)
          to label %invoke.cont14 unwind label %lpad4

invoke.cont14:                                    ; preds = %invoke.cont13
  call void @_ZN7testing8internal12CodeLocationD2Ev(ptr noundef nonnull align 8 dereferenceable(36) %agg.tmp) #3
  call void @_ZNSt7__cxx1112basic_stringIcSt11char_traitsIcESaIcEED1Ev(ptr noundef nonnull align 8 dereferenceable(32) %ref.tmp) #3
  call void @_ZNSaIcED1Ev(ptr noundef nonnull align 1 dereferenceable(1) %ref.tmp1) #3
  store ptr %call15, ptr @_ZN12_GLOBAL__N_149StderrLogSinkDeathTest_ErrorMessagesInStderr_Test10test_info_E, align 8
  ret void

lpad:                                             ; preds = %entry
  %0 = landingpad { ptr, i32 }
          cleanup
  %1 = extractvalue { ptr, i32 } %0, 0
  store ptr %1, ptr %exn.slot, align 8
  %2 = extractvalue { ptr, i32 } %0, 1
  store i32 %2, ptr %ehselector.slot, align 4
  br label %ehcleanup17

lpad2:                                            ; preds = %invoke.cont
  %3 = landingpad { ptr, i32 }
          cleanup
  %4 = extractvalue { ptr, i32 } %3, 0
  store ptr %4, ptr %exn.slot, align 8
  %5 = extractvalue { ptr, i32 } %3, 1
  store i32 %5, ptr %ehselector.slot, align 4
  br label %ehcleanup16

lpad4:                                            ; preds = %invoke.cont13, %invoke.cont8, %invoke.cont6, %invoke.cont5, %invoke.cont3
  %6 = landingpad { ptr, i32 }
          cleanup
  %7 = extractvalue { ptr, i32 } %6, 0
  store ptr %7, ptr %exn.slot, align 8
  %8 = extractvalue { ptr, i32 } %6, 1
  store i32 %8, ptr %ehselector.slot, align 4
  br label %ehcleanup

lpad12:                                           ; preds = %invoke.cont10
  %9 = landingpad { ptr, i32 }
          cleanup
  %10 = extractvalue { ptr, i32 } %9, 0
  store ptr %10, ptr %exn.slot, align 8
  %11 = extractvalue { ptr, i32 } %9, 1
  store i32 %11, ptr %ehselector.slot, align 4
  call void @_ZdlPv(ptr noundef %call11) #18
  br label %ehcleanup

ehcleanup:                                        ; preds = %lpad12, %lpad4
  call void @_ZN7testing8internal12CodeLocationD2Ev(ptr noundef nonnull align 8 dereferenceable(36) %agg.tmp) #3
  br label %ehcleanup16

ehcleanup16:                                      ; preds = %ehcleanup, %lpad2
  call void @_ZNSt7__cxx1112basic_stringIcSt11char_traitsIcESaIcEED1Ev(ptr noundef nonnull align 8 dereferenceable(32) %ref.tmp) #3
  br label %ehcleanup17

ehcleanup17:                                      ; preds = %ehcleanup16, %lpad
  call void @_ZNSaIcED1Ev(ptr noundef nonnull align 1 dereferenceable(1) %ref.tmp1) #3
  br label %eh.resume

eh.resume:                                        ; preds = %ehcleanup17
  %exn = load ptr, ptr %exn.slot, align 8
  %sel = load i32, ptr %ehselector.slot, align 4
  %lpad.val = insertvalue { ptr, i32 } poison, ptr %exn, 0
  %lpad.val18 = insertvalue { ptr, i32 } %lpad.val, i32 %sel, 1
  resume { ptr, i32 } %lpad.val18
}

; Function Attrs: mustprogress nounwind uwtable
define internal void @_ZN7testing8internal15TestFactoryImplIN12_GLOBAL__N_149StderrLogSinkDeathTest_ErrorMessagesInStderr_TestEEC2Ev(ptr noundef nonnull align 8 dereferenceable(8) %this) unnamed_addr #6 align 2 {
entry:
  %this.addr = alloca ptr, align 8
  store ptr %this, ptr %this.addr, align 8
  %this1 = load ptr, ptr %this.addr, align 8
  call void @_ZN7testing8internal15TestFactoryBaseC2Ev(ptr noundef nonnull align 8 dereferenceable(8) %this1)
  store ptr getelementptr inbounds ({ [5 x ptr] }, ptr @_ZTVN7testing8internal15TestFactoryImplIN12_GLOBAL__N_149StderrLogSinkDeathTest_ErrorMessagesInStderr_TestEEE, i32 0, inrange i32 0, i32 2), ptr %this1, align 8
  ret void
}

; Function Attrs: uwtable
define internal void @__cxx_global_var_init.9() #0 section ".text.startup" personality ptr @__gxx_personality_v0 {
entry:
  %agg.tmp = alloca %"struct.testing::internal::CodeLocation", align 8
  %ref.tmp = alloca %"class.std::__cxx11::basic_string", align 8
  %ref.tmp1 = alloca %"class.std::allocator", align 1
  %exn.slot = alloca ptr, align 8
  %ehselector.slot = alloca i32, align 4
  call void @_ZNSaIcEC1Ev(ptr noundef nonnull align 1 dereferenceable(1) %ref.tmp1) #3
  invoke void @_ZNSt7__cxx1112basic_stringIcSt11char_traitsIcESaIcEEC2IS3_EEPKcRKS3_(ptr noundef nonnull align 8 dereferenceable(32) %ref.tmp, ptr noundef @.str.4, ptr noundef nonnull align 1 dereferenceable(1) %ref.tmp1)
          to label %invoke.cont unwind label %lpad

invoke.cont:                                      ; preds = %entry
  invoke void @_ZN7testing8internal12CodeLocationC2ERKNSt7__cxx1112basic_stringIcSt11char_traitsIcESaIcEEEi(ptr noundef nonnull align 8 dereferenceable(36) %agg.tmp, ptr noundef nonnull align 8 dereferenceable(32) %ref.tmp, i32 noundef 77)
          to label %invoke.cont3 unwind label %lpad2

invoke.cont3:                                     ; preds = %invoke.cont
  %call = invoke noundef ptr @_ZN7testing8internal13GetTestTypeIdEv()
          to label %invoke.cont5 unwind label %lpad4

invoke.cont5:                                     ; preds = %invoke.cont3
  %call7 = invoke noundef ptr @_ZN7testing8internal16SuiteApiResolverINS_4TestEE19GetSetUpCaseOrSuiteEPKci(ptr noundef @.str.4, i32 noundef 77)
          to label %invoke.cont6 unwind label %lpad4

invoke.cont6:                                     ; preds = %invoke.cont5
  %call9 = invoke noundef ptr @_ZN7testing8internal16SuiteApiResolverINS_4TestEE22GetTearDownCaseOrSuiteEPKci(ptr noundef @.str.4, i32 noundef 77)
          to label %invoke.cont8 unwind label %lpad4

invoke.cont8:                                     ; preds = %invoke.cont6
  %call11 = invoke noalias noundef nonnull ptr @_Znwm(i64 noundef 8) #17
          to label %invoke.cont10 unwind label %lpad4

invoke.cont10:                                    ; preds = %invoke.cont8
  invoke void @_ZN7testing8internal15TestFactoryImplIN12_GLOBAL__N_149StderrLogSinkDeathTest_FatalMessagesInStderr_TestEEC2Ev(ptr noundef nonnull align 8 dereferenceable(8) %call11)
          to label %invoke.cont13 unwind label %lpad12

invoke.cont13:                                    ; preds = %invoke.cont10
  %call15 = invoke noundef ptr @_ZN7testing8internal23MakeAndRegisterTestInfoEPKcS2_S2_S2_NS0_12CodeLocationEPKvPFvvES7_PNS0_15TestFactoryBaseE(ptr noundef @.str, ptr noundef @.str.10, ptr noundef null, ptr noundef null, ptr noundef %agg.tmp, ptr noundef %call, ptr noundef %call7, ptr noundef %call9, ptr noundef %call11)
          to label %invoke.cont14 unwind label %lpad4

invoke.cont14:                                    ; preds = %invoke.cont13
  call void @_ZN7testing8internal12CodeLocationD2Ev(ptr noundef nonnull align 8 dereferenceable(36) %agg.tmp) #3
  call void @_ZNSt7__cxx1112basic_stringIcSt11char_traitsIcESaIcEED1Ev(ptr noundef nonnull align 8 dereferenceable(32) %ref.tmp) #3
  call void @_ZNSaIcED1Ev(ptr noundef nonnull align 1 dereferenceable(1) %ref.tmp1) #3
  store ptr %call15, ptr @_ZN12_GLOBAL__N_149StderrLogSinkDeathTest_FatalMessagesInStderr_Test10test_info_E, align 8
  ret void

lpad:                                             ; preds = %entry
  %0 = landingpad { ptr, i32 }
          cleanup
  %1 = extractvalue { ptr, i32 } %0, 0
  store ptr %1, ptr %exn.slot, align 8
  %2 = extractvalue { ptr, i32 } %0, 1
  store i32 %2, ptr %ehselector.slot, align 4
  br label %ehcleanup17

lpad2:                                            ; preds = %invoke.cont
  %3 = landingpad { ptr, i32 }
          cleanup
  %4 = extractvalue { ptr, i32 } %3, 0
  store ptr %4, ptr %exn.slot, align 8
  %5 = extractvalue { ptr, i32 } %3, 1
  store i32 %5, ptr %ehselector.slot, align 4
  br label %ehcleanup16

lpad4:                                            ; preds = %invoke.cont13, %invoke.cont8, %invoke.cont6, %invoke.cont5, %invoke.cont3
  %6 = landingpad { ptr, i32 }
          cleanup
  %7 = extractvalue { ptr, i32 } %6, 0
  store ptr %7, ptr %exn.slot, align 8
  %8 = extractvalue { ptr, i32 } %6, 1
  store i32 %8, ptr %ehselector.slot, align 4
  br label %ehcleanup

lpad12:                                           ; preds = %invoke.cont10
  %9 = landingpad { ptr, i32 }
          cleanup
  %10 = extractvalue { ptr, i32 } %9, 0
  store ptr %10, ptr %exn.slot, align 8
  %11 = extractvalue { ptr, i32 } %9, 1
  store i32 %11, ptr %ehselector.slot, align 4
  call void @_ZdlPv(ptr noundef %call11) #18
  br label %ehcleanup

ehcleanup:                                        ; preds = %lpad12, %lpad4
  call void @_ZN7testing8internal12CodeLocationD2Ev(ptr noundef nonnull align 8 dereferenceable(36) %agg.tmp) #3
  br label %ehcleanup16

ehcleanup16:                                      ; preds = %ehcleanup, %lpad2
  call void @_ZNSt7__cxx1112basic_stringIcSt11char_traitsIcESaIcEED1Ev(ptr noundef nonnull align 8 dereferenceable(32) %ref.tmp) #3
  br label %ehcleanup17

ehcleanup17:                                      ; preds = %ehcleanup16, %lpad
  call void @_ZNSaIcED1Ev(ptr noundef nonnull align 1 dereferenceable(1) %ref.tmp1) #3
  br label %eh.resume

eh.resume:                                        ; preds = %ehcleanup17
  %exn = load ptr, ptr %exn.slot, align 8
  %sel = load i32, ptr %ehselector.slot, align 4
  %lpad.val = insertvalue { ptr, i32 } poison, ptr %exn, 0
  %lpad.val18 = insertvalue { ptr, i32 } %lpad.val, i32 %sel, 1
  resume { ptr, i32 } %lpad.val18
}

; Function Attrs: mustprogress nounwind uwtable
define internal void @_ZN7testing8internal15TestFactoryImplIN12_GLOBAL__N_149StderrLogSinkDeathTest_FatalMessagesInStderr_TestEEC2Ev(ptr noundef nonnull align 8 dereferenceable(8) %this) unnamed_addr #6 align 2 {
entry:
  %this.addr = alloca ptr, align 8
  store ptr %this, ptr %this.addr, align 8
  %this1 = load ptr, ptr %this.addr, align 8
  call void @_ZN7testing8internal15TestFactoryBaseC2Ev(ptr noundef nonnull align 8 dereferenceable(8) %this1)
  store ptr getelementptr inbounds ({ [5 x ptr] }, ptr @_ZTVN7testing8internal15TestFactoryImplIN12_GLOBAL__N_149StderrLogSinkDeathTest_FatalMessagesInStderr_TestEEE, i32 0, inrange i32 0, i32 2), ptr %this1, align 8
  ret void
}

; Function Attrs: uwtable
define internal void @__cxx_global_var_init.11() #0 section ".text.startup" personality ptr @__gxx_personality_v0 {
entry:
  %agg.tmp = alloca %"struct.testing::internal::CodeLocation", align 8
  %ref.tmp = alloca %"class.std::__cxx11::basic_string", align 8
  %ref.tmp1 = alloca %"class.std::allocator", align 1
  %exn.slot = alloca ptr, align 8
  %ehselector.slot = alloca i32, align 4
  call void @_ZNSaIcEC1Ev(ptr noundef nonnull align 1 dereferenceable(1) %ref.tmp1) #3
  invoke void @_ZNSt7__cxx1112basic_stringIcSt11char_traitsIcESaIcEEC2IS3_EEPKcRKS3_(ptr noundef nonnull align 8 dereferenceable(32) %ref.tmp, ptr noundef @.str.4, ptr noundef nonnull align 1 dereferenceable(1) %ref.tmp1)
          to label %invoke.cont unwind label %lpad

invoke.cont:                                      ; preds = %entry
  invoke void @_ZN7testing8internal12CodeLocationC2ERKNSt7__cxx1112basic_stringIcSt11char_traitsIcESaIcEEEi(ptr noundef nonnull align 8 dereferenceable(36) %agg.tmp, ptr noundef nonnull align 8 dereferenceable(32) %ref.tmp, i32 noundef 91)
          to label %invoke.cont3 unwind label %lpad2

invoke.cont3:                                     ; preds = %invoke.cont
  %call = invoke noundef ptr @_ZN7testing8internal13GetTestTypeIdEv()
          to label %invoke.cont5 unwind label %lpad4

invoke.cont5:                                     ; preds = %invoke.cont3
  %call7 = invoke noundef ptr @_ZN7testing8internal16SuiteApiResolverINS_4TestEE19GetSetUpCaseOrSuiteEPKci(ptr noundef @.str.4, i32 noundef 91)
          to label %invoke.cont6 unwind label %lpad4

invoke.cont6:                                     ; preds = %invoke.cont5
  %call9 = invoke noundef ptr @_ZN7testing8internal16SuiteApiResolverINS_4TestEE22GetTearDownCaseOrSuiteEPKci(ptr noundef @.str.4, i32 noundef 91)
          to label %invoke.cont8 unwind label %lpad4

invoke.cont8:                                     ; preds = %invoke.cont6
  %call11 = invoke noalias noundef nonnull ptr @_Znwm(i64 noundef 8) #17
          to label %invoke.cont10 unwind label %lpad4

invoke.cont10:                                    ; preds = %invoke.cont8
  invoke void @_ZN7testing8internal15TestFactoryImplIN12_GLOBAL__N_158StderrLogSinkDeathTest_SecondaryFatalMessagesInStderr_TestEEC2Ev(ptr noundef nonnull align 8 dereferenceable(8) %call11)
          to label %invoke.cont13 unwind label %lpad12

invoke.cont13:                                    ; preds = %invoke.cont10
  %call15 = invoke noundef ptr @_ZN7testing8internal23MakeAndRegisterTestInfoEPKcS2_S2_S2_NS0_12CodeLocationEPKvPFvvES7_PNS0_15TestFactoryBaseE(ptr noundef @.str, ptr noundef @.str.12, ptr noundef null, ptr noundef null, ptr noundef %agg.tmp, ptr noundef %call, ptr noundef %call7, ptr noundef %call9, ptr noundef %call11)
          to label %invoke.cont14 unwind label %lpad4

invoke.cont14:                                    ; preds = %invoke.cont13
  call void @_ZN7testing8internal12CodeLocationD2Ev(ptr noundef nonnull align 8 dereferenceable(36) %agg.tmp) #3
  call void @_ZNSt7__cxx1112basic_stringIcSt11char_traitsIcESaIcEED1Ev(ptr noundef nonnull align 8 dereferenceable(32) %ref.tmp) #3
  call void @_ZNSaIcED1Ev(ptr noundef nonnull align 1 dereferenceable(1) %ref.tmp1) #3
  store ptr %call15, ptr @_ZN12_GLOBAL__N_158StderrLogSinkDeathTest_SecondaryFatalMessagesInStderr_Test10test_info_E, align 8
  ret void

lpad:                                             ; preds = %entry
  %0 = landingpad { ptr, i32 }
          cleanup
  %1 = extractvalue { ptr, i32 } %0, 0
  store ptr %1, ptr %exn.slot, align 8
  %2 = extractvalue { ptr, i32 } %0, 1
  store i32 %2, ptr %ehselector.slot, align 4
  br label %ehcleanup17

lpad2:                                            ; preds = %invoke.cont
  %3 = landingpad { ptr, i32 }
          cleanup
  %4 = extractvalue { ptr, i32 } %3, 0
  store ptr %4, ptr %exn.slot, align 8
  %5 = extractvalue { ptr, i32 } %3, 1
  store i32 %5, ptr %ehselector.slot, align 4
  br label %ehcleanup16

lpad4:                                            ; preds = %invoke.cont13, %invoke.cont8, %invoke.cont6, %invoke.cont5, %invoke.cont3
  %6 = landingpad { ptr, i32 }
          cleanup
  %7 = extractvalue { ptr, i32 } %6, 0
  store ptr %7, ptr %exn.slot, align 8
  %8 = extractvalue { ptr, i32 } %6, 1
  store i32 %8, ptr %ehselector.slot, align 4
  br label %ehcleanup

lpad12:                                           ; preds = %invoke.cont10
  %9 = landingpad { ptr, i32 }
          cleanup
  %10 = extractvalue { ptr, i32 } %9, 0
  store ptr %10, ptr %exn.slot, align 8
  %11 = extractvalue { ptr, i32 } %9, 1
  store i32 %11, ptr %ehselector.slot, align 4
  call void @_ZdlPv(ptr noundef %call11) #18
  br label %ehcleanup

ehcleanup:                                        ; preds = %lpad12, %lpad4
  call void @_ZN7testing8internal12CodeLocationD2Ev(ptr noundef nonnull align 8 dereferenceable(36) %agg.tmp) #3
  br label %ehcleanup16

ehcleanup16:                                      ; preds = %ehcleanup, %lpad2
  call void @_ZNSt7__cxx1112basic_stringIcSt11char_traitsIcESaIcEED1Ev(ptr noundef nonnull align 8 dereferenceable(32) %ref.tmp) #3
  br label %ehcleanup17

ehcleanup17:                                      ; preds = %ehcleanup16, %lpad
  call void @_ZNSaIcED1Ev(ptr noundef nonnull align 1 dereferenceable(1) %ref.tmp1) #3
  br label %eh.resume

eh.resume:                                        ; preds = %ehcleanup17
  %exn = load ptr, ptr %exn.slot, align 8
  %sel = load i32, ptr %ehselector.slot, align 4
  %lpad.val = insertvalue { ptr, i32 } poison, ptr %exn, 0
  %lpad.val18 = insertvalue { ptr, i32 } %lpad.val, i32 %sel, 1
  resume { ptr, i32 } %lpad.val18
}

; Function Attrs: mustprogress nounwind uwtable
define internal void @_ZN7testing8internal15TestFactoryImplIN12_GLOBAL__N_158StderrLogSinkDeathTest_SecondaryFatalMessagesInStderr_TestEEC2Ev(ptr noundef nonnull align 8 dereferenceable(8) %this) unnamed_addr #6 align 2 {
entry:
  %this.addr = alloca ptr, align 8
  store ptr %this, ptr %this.addr, align 8
  %this1 = load ptr, ptr %this.addr, align 8
  call void @_ZN7testing8internal15TestFactoryBaseC2Ev(ptr noundef nonnull align 8 dereferenceable(8) %this1)
  store ptr getelementptr inbounds ({ [5 x ptr] }, ptr @_ZTVN7testing8internal15TestFactoryImplIN12_GLOBAL__N_158StderrLogSinkDeathTest_SecondaryFatalMessagesInStderr_TestEEE, i32 0, inrange i32 0, i32 2), ptr %this1, align 8
  ret void
}

declare noundef ptr @_ZN7testing8UnitTest11GetInstanceEv() #1

declare noundef ptr @_ZN7testing8UnitTest14AddEnvironmentEPNS_11EnvironmentE(ptr noundef nonnull align 8 dereferenceable(72), ptr noundef) #1

; Function Attrs: mustprogress nounwind uwtable
define linkonce_odr dso_local void @_ZN7testing11EnvironmentC2Ev(ptr noundef nonnull align 8 dereferenceable(8) %this) unnamed_addr #6 comdat align 2 {
entry:
  %this.addr = alloca ptr, align 8
  store ptr %this, ptr %this.addr, align 8
  %this1 = load ptr, ptr %this.addr, align 8
  store ptr getelementptr inbounds ({ [7 x ptr] }, ptr @_ZTVN7testing11EnvironmentE, i32 0, inrange i32 0, i32 2), ptr %this1, align 8
  ret void
}

; Function Attrs: mustprogress nounwind uwtable
define linkonce_odr dso_local void @_ZN7testing11EnvironmentD2Ev(ptr noundef nonnull align 8 dereferenceable(8) %this) unnamed_addr #6 comdat align 2 {
entry:
  %this.addr = alloca ptr, align 8
  store ptr %this, ptr %this.addr, align 8
  ret void
}

; Function Attrs: mustprogress nounwind uwtable
define linkonce_odr dso_local void @_ZN7testing11EnvironmentD0Ev(ptr noundef nonnull align 8 dereferenceable(8) %this) unnamed_addr #6 comdat align 2 {
entry:
  %this.addr = alloca ptr, align 8
  store ptr %this, ptr %this.addr, align 8
  %this1 = load ptr, ptr %this.addr, align 8
  call void @_ZN7testing11EnvironmentD2Ev(ptr noundef nonnull align 8 dereferenceable(8) %this1) #3
  call void @_ZdlPv(ptr noundef %this1) #18
  ret void
}

; Function Attrs: mustprogress nounwind uwtable
define linkonce_odr dso_local void @_ZN7testing11Environment5SetUpEv(ptr noundef nonnull align 8 dereferenceable(8) %this) unnamed_addr #6 comdat align 2 {
entry:
  %this.addr = alloca ptr, align 8
  store ptr %this, ptr %this.addr, align 8
  ret void
}

; Function Attrs: mustprogress nounwind uwtable
define linkonce_odr dso_local void @_ZN7testing11Environment8TearDownEv(ptr noundef nonnull align 8 dereferenceable(8) %this) unnamed_addr #6 comdat align 2 {
entry:
  %this.addr = alloca ptr, align 8
  store ptr %this, ptr %this.addr, align 8
  ret void
}

; Function Attrs: mustprogress nounwind uwtable
define linkonce_odr dso_local noundef ptr @_ZN7testing11Environment5SetupEv(ptr noundef nonnull align 8 dereferenceable(8) %this) unnamed_addr #6 comdat align 2 {
entry:
  %this.addr = alloca ptr, align 8
  store ptr %this, ptr %this.addr, align 8
  ret ptr null
}

declare void @_ZNSt7__cxx1112basic_stringIcSt11char_traitsIcESaIcEEC1ERKS4_(ptr noundef nonnull align 8 dereferenceable(32), ptr noundef nonnull align 8 dereferenceable(32)) unnamed_addr #1

; Function Attrs: mustprogress nounwind uwtable
define linkonce_odr dso_local void @_ZN7testing8internal15TestFactoryBaseC2Ev(ptr noundef nonnull align 8 dereferenceable(8) %this) unnamed_addr #6 comdat align 2 {
entry:
  %this.addr = alloca ptr, align 8
  store ptr %this, ptr %this.addr, align 8
  %this1 = load ptr, ptr %this.addr, align 8
  store ptr getelementptr inbounds ({ [5 x ptr] }, ptr @_ZTVN7testing8internal15TestFactoryBaseE, i32 0, inrange i32 0, i32 2), ptr %this1, align 8
  ret void
}

; Function Attrs: mustprogress nounwind uwtable
define internal void @_ZN7testing8internal15TestFactoryImplIN12_GLOBAL__N_148StderrLogSinkDeathTest_InfoMessagesInStderr_TestEED2Ev(ptr noundef nonnull align 8 dereferenceable(8) %this) unnamed_addr #6 align 2 {
entry:
  %this.addr = alloca ptr, align 8
  store ptr %this, ptr %this.addr, align 8
  %this1 = load ptr, ptr %this.addr, align 8
  call void @_ZN7testing8internal15TestFactoryBaseD2Ev(ptr noundef nonnull align 8 dereferenceable(8) %this1) #3
  ret void
}

; Function Attrs: mustprogress nounwind uwtable
define internal void @_ZN7testing8internal15TestFactoryImplIN12_GLOBAL__N_148StderrLogSinkDeathTest_InfoMessagesInStderr_TestEED0Ev(ptr noundef nonnull align 8 dereferenceable(8) %this) unnamed_addr #6 align 2 {
entry:
  %this.addr = alloca ptr, align 8
  store ptr %this, ptr %this.addr, align 8
  %this1 = load ptr, ptr %this.addr, align 8
  call void @_ZN7testing8internal15TestFactoryImplIN12_GLOBAL__N_148StderrLogSinkDeathTest_InfoMessagesInStderr_TestEED2Ev(ptr noundef nonnull align 8 dereferenceable(8) %this1) #3
  call void @_ZdlPv(ptr noundef %this1) #18
  ret void
}

; Function Attrs: mustprogress uwtable
define internal noundef ptr @_ZN7testing8internal15TestFactoryImplIN12_GLOBAL__N_148StderrLogSinkDeathTest_InfoMessagesInStderr_TestEE10CreateTestEv(ptr noundef nonnull align 8 dereferenceable(8) %this) unnamed_addr #4 align 2 personality ptr @__gxx_personality_v0 {
entry:
  %this.addr = alloca ptr, align 8
  %exn.slot = alloca ptr, align 8
  %ehselector.slot = alloca i32, align 4
  store ptr %this, ptr %this.addr, align 8
  %call = call noalias noundef nonnull ptr @_Znwm(i64 noundef 16) #17
  invoke void @_ZN12_GLOBAL__N_148StderrLogSinkDeathTest_InfoMessagesInStderr_TestC2Ev(ptr noundef nonnull align 8 dereferenceable(16) %call)
          to label %invoke.cont unwind label %lpad

invoke.cont:                                      ; preds = %entry
  ret ptr %call

lpad:                                             ; preds = %entry
  %0 = landingpad { ptr, i32 }
          cleanup
  %1 = extractvalue { ptr, i32 } %0, 0
  store ptr %1, ptr %exn.slot, align 8
  %2 = extractvalue { ptr, i32 } %0, 1
  store i32 %2, ptr %ehselector.slot, align 4
  call void @_ZdlPv(ptr noundef %call) #18
  br label %eh.resume

eh.resume:                                        ; preds = %lpad
  %exn = load ptr, ptr %exn.slot, align 8
  %sel = load i32, ptr %ehselector.slot, align 4
  %lpad.val = insertvalue { ptr, i32 } poison, ptr %exn, 0
  %lpad.val2 = insertvalue { ptr, i32 } %lpad.val, i32 %sel, 1
  resume { ptr, i32 } %lpad.val2
}

; Function Attrs: mustprogress nounwind uwtable
define linkonce_odr dso_local void @_ZN7testing8internal15TestFactoryBaseD2Ev(ptr noundef nonnull align 8 dereferenceable(8) %this) unnamed_addr #6 comdat align 2 {
entry:
  %this.addr = alloca ptr, align 8
  store ptr %this, ptr %this.addr, align 8
  ret void
}

; Function Attrs: mustprogress nounwind uwtable
define linkonce_odr dso_local void @_ZN7testing8internal15TestFactoryBaseD0Ev(ptr noundef nonnull align 8 dereferenceable(8) %this) unnamed_addr #6 comdat align 2 {
entry:
  %this.addr = alloca ptr, align 8
  store ptr %this, ptr %this.addr, align 8
  call void @llvm.trap() #20
  unreachable
}

declare void @__cxa_pure_virtual() unnamed_addr

; Function Attrs: cold noreturn nounwind memory(inaccessiblemem: write)
declare void @llvm.trap() #8

; Function Attrs: mustprogress uwtable
define internal void @_ZN12_GLOBAL__N_148StderrLogSinkDeathTest_InfoMessagesInStderr_TestC2Ev(ptr noundef nonnull align 8 dereferenceable(16) %this) unnamed_addr #4 align 2 {
entry:
  %this.addr = alloca ptr, align 8
  store ptr %this, ptr %this.addr, align 8
  %this1 = load ptr, ptr %this.addr, align 8
  call void @_ZN7testing4TestC2Ev(ptr noundef nonnull align 8 dereferenceable(16) %this1)
  store ptr getelementptr inbounds ({ [8 x ptr] }, ptr @_ZTVN12_GLOBAL__N_148StderrLogSinkDeathTest_InfoMessagesInStderr_TestE, i32 0, inrange i32 0, i32 2), ptr %this1, align 8
  ret void
}

declare void @_ZN7testing4TestC2Ev(ptr noundef nonnull align 8 dereferenceable(16)) unnamed_addr #1

; Function Attrs: mustprogress nounwind uwtable
define internal void @_ZN12_GLOBAL__N_148StderrLogSinkDeathTest_InfoMessagesInStderr_TestD2Ev(ptr noundef nonnull align 8 dereferenceable(16) %this) unnamed_addr #6 align 2 {
entry:
  %this.addr = alloca ptr, align 8
  store ptr %this, ptr %this.addr, align 8
  %this1 = load ptr, ptr %this.addr, align 8
  call void @_ZN7testing4TestD2Ev(ptr noundef nonnull align 8 dereferenceable(16) %this1) #3
  ret void
}

; Function Attrs: mustprogress nounwind uwtable
define internal void @_ZN12_GLOBAL__N_148StderrLogSinkDeathTest_InfoMessagesInStderr_TestD0Ev(ptr noundef nonnull align 8 dereferenceable(16) %this) unnamed_addr #6 align 2 {
entry:
  %this.addr = alloca ptr, align 8
  store ptr %this, ptr %this.addr, align 8
  %this1 = load ptr, ptr %this.addr, align 8
  call void @_ZN12_GLOBAL__N_148StderrLogSinkDeathTest_InfoMessagesInStderr_TestD2Ev(ptr noundef nonnull align 8 dereferenceable(16) %this1) #3
  call void @_ZdlPv(ptr noundef %this1) #18
  ret void
}

declare void @_ZN7testing4Test5SetUpEv(ptr noundef nonnull align 8 dereferenceable(16)) unnamed_addr #1

declare void @_ZN7testing4Test8TearDownEv(ptr noundef nonnull align 8 dereferenceable(16)) unnamed_addr #1

; Function Attrs: mustprogress uwtable
define internal void @_ZN12_GLOBAL__N_148StderrLogSinkDeathTest_InfoMessagesInStderr_Test8TestBodyEv(ptr noundef nonnull align 8 dereferenceable(16) %this) unnamed_addr #4 align 2 personality ptr @__gxx_personality_v0 {
entry:
  %this.addr = alloca ptr, align 8
  %gtest_dt = alloca ptr, align 8
  %agg.tmp = alloca %"class.testing::Matcher", align 8
  %exn.slot = alloca ptr, align 8
  %ehselector.slot = alloca i32, align 4
  %gtest_dt_ptr = alloca %"class.std::unique_ptr.6", align 8
  %gtest_sentinel = alloca %"class.testing::internal::DeathTest::ReturnSentinel", align 8
  %ref.tmp = alloca %"class.absl::log_internal::Voidify", align 1
  %ref.tmp27 = alloca %"class.absl::log_internal::LogMessage", align 8
  %gtest_exception = alloca ptr, align 8
  %ref.tmp46 = alloca %"class.std::__cxx11::basic_string", align 8
  %cleanup.dest.slot = alloca i32, align 4
  %ref.tmp70 = alloca %"class.testing::Message", align 8
  %ref.tmp71 = alloca %"class.testing::internal::AssertHelper", align 8
  store ptr %this, ptr %this.addr, align 8
  %call = call noundef zeroext i1 @_ZN7testing8internal10AlwaysTrueEv()
  br i1 %call, label %if.then, label %if.else69

if.then:                                          ; preds = %entry
  call void @_ZN7testing8internal20MakeDeathTestMatcherB5cxx11EPKc(ptr sret(%"class.testing::Matcher") align 8 %agg.tmp, ptr noundef @.str.14)
  %call2 = invoke noundef zeroext i1 @_ZN7testing8internal9DeathTest6CreateEPKcNS_7MatcherIRKNSt7__cxx1112basic_stringIcSt11char_traitsIcESaIcEEEEES3_iPPS1_(ptr noundef @.str.13, ptr noundef %agg.tmp, ptr noundef @.str.4, i32 noundef 54, ptr noundef %gtest_dt)
          to label %invoke.cont unwind label %lpad

invoke.cont:                                      ; preds = %if.then
  %lnot = xor i1 %call2, true
  call void @_ZN7testing7MatcherIRKNSt7__cxx1112basic_stringIcSt11char_traitsIcESaIcEEEED2Ev(ptr noundef nonnull align 8 dereferenceable(24) %agg.tmp) #3
  br i1 %lnot, label %if.then3, label %if.end

if.then3:                                         ; preds = %invoke.cont
  br label %gtest_label_54

lpad:                                             ; preds = %if.then
  %0 = landingpad { ptr, i32 }
          cleanup
  %1 = extractvalue { ptr, i32 } %0, 0
  store ptr %1, ptr %exn.slot, align 8
  %2 = extractvalue { ptr, i32 } %0, 1
  store i32 %2, ptr %ehselector.slot, align 4
  call void @_ZN7testing7MatcherIRKNSt7__cxx1112basic_stringIcSt11char_traitsIcESaIcEEEED2Ev(ptr noundef nonnull align 8 dereferenceable(24) %agg.tmp) #3
  br label %eh.resume

if.end:                                           ; preds = %invoke.cont
  %3 = load ptr, ptr %gtest_dt, align 8
  %cmp = icmp ne ptr %3, null
  br i1 %cmp, label %if.then4, label %if.end68

if.then4:                                         ; preds = %if.end
  %4 = load ptr, ptr %gtest_dt, align 8
  call void @_ZNSt10unique_ptrIN7testing8internal9DeathTestESt14default_deleteIS2_EEC2IS4_vEEPS2_(ptr noundef nonnull align 8 dereferenceable(8) %gtest_dt_ptr, ptr noundef %4) #3
  %5 = load ptr, ptr %gtest_dt, align 8
  %vtable = load ptr, ptr %5, align 8
  %vfn = getelementptr inbounds ptr, ptr %vtable, i64 2
  %6 = load ptr, ptr %vfn, align 8
  %call7 = invoke noundef i32 %6(ptr noundef nonnull align 8 dereferenceable(8) %5)
          to label %invoke.cont6 unwind label %lpad5

invoke.cont6:                                     ; preds = %if.then4
  switch i32 %call7, label %sw.epilog [
    i32 0, label %sw.bb
    i32 1, label %sw.bb20
  ]

lpad5:                                            ; preds = %sw.bb20, %invoke.cont12, %invoke.cont10, %sw.bb, %if.then4
  %7 = landingpad { ptr, i32 }
          cleanup
  %8 = extractvalue { ptr, i32 } %7, 0
  store ptr %8, ptr %exn.slot, align 8
  %9 = extractvalue { ptr, i32 } %7, 1
  store i32 %9, ptr %ehselector.slot, align 4
  br label %ehcleanup67

sw.bb:                                            ; preds = %invoke.cont6
  %10 = load ptr, ptr %gtest_dt, align 8
  %11 = load ptr, ptr %gtest_dt, align 8
  %vtable8 = load ptr, ptr %11, align 8
  %vfn9 = getelementptr inbounds ptr, ptr %vtable8, i64 3
  %12 = load ptr, ptr %vfn9, align 8
  %call11 = invoke noundef i32 %12(ptr noundef nonnull align 8 dereferenceable(8) %11)
          to label %invoke.cont10 unwind label %lpad5

invoke.cont10:                                    ; preds = %sw.bb
  %call13 = invoke noundef zeroext i1 @_ZN7testing8internal20ExitedUnsuccessfullyEi(i32 noundef %call11)
          to label %invoke.cont12 unwind label %lpad5

invoke.cont12:                                    ; preds = %invoke.cont10
  %vtable14 = load ptr, ptr %10, align 8
  %vfn15 = getelementptr inbounds ptr, ptr %vtable14, i64 4
  %13 = load ptr, ptr %vfn15, align 8
  %call17 = invoke noundef zeroext i1 %13(ptr noundef nonnull align 8 dereferenceable(8) %10, i1 noundef zeroext %call13)
          to label %invoke.cont16 unwind label %lpad5

invoke.cont16:                                    ; preds = %invoke.cont12
  br i1 %call17, label %if.end19, label %if.then18

if.then18:                                        ; preds = %invoke.cont16
  store i32 2, ptr %cleanup.dest.slot, align 4
  br label %cleanup

if.end19:                                         ; preds = %invoke.cont16
  br label %sw.epilog

sw.bb20:                                          ; preds = %invoke.cont6
  %14 = load ptr, ptr %gtest_dt, align 8
  invoke void @_ZN7testing8internal9DeathTest14ReturnSentinelC2EPS1_(ptr noundef nonnull align 8 dereferenceable(8) %gtest_sentinel, ptr noundef %14)
          to label %invoke.cont21 unwind label %lpad5

invoke.cont21:                                    ; preds = %sw.bb20
  %call24 = invoke noundef zeroext i1 @_ZN7testing8internal10AlwaysTrueEv()
          to label %invoke.cont23 unwind label %lpad22

invoke.cont23:                                    ; preds = %invoke.cont21
  br i1 %call24, label %if.then25, label %if.else

if.then25:                                        ; preds = %invoke.cont23
  invoke void @_ZN4absl18SetStderrThresholdENS_18LogSeverityAtLeastE(i32 noundef 0)
          to label %invoke.cont26 unwind label %lpad22

invoke.cont26:                                    ; preds = %if.then25
  invoke void @_ZN4absl12log_internal10LogMessageC1EPKciNS1_7InfoTagE(ptr noundef nonnull align 8 dereferenceable(16) %ref.tmp27, ptr noundef @.str.4, i32 noundef 51) #21
          to label %invoke.cont29 unwind label %lpad22

invoke.cont29:                                    ; preds = %invoke.cont26
  %call32 = invoke noundef nonnull align 8 dereferenceable(16) ptr @_ZN4absl12log_internal10LogMessage14InternalStreamEv(ptr noundef nonnull align 8 dereferenceable(16) %ref.tmp27)
          to label %invoke.cont31 unwind label %lpad30

invoke.cont31:                                    ; preds = %invoke.cont29
  %call34 = invoke noundef nonnull align 8 dereferenceable(16) ptr @_ZN4absl12log_internal10LogMessagelsILi13EEERS1_RAT__Kc(ptr noundef nonnull align 8 dereferenceable(16) %call32, ptr noundef nonnull align 1 dereferenceable(13) @.str.14)
          to label %invoke.cont33 unwind label %lpad30

invoke.cont33:                                    ; preds = %invoke.cont31
  invoke void @_ZNKO4absl12log_internal7VoidifyaaINS0_10LogMessageEEEvRKT_(ptr noundef nonnull align 1 dereferenceable(1) %ref.tmp, ptr noundef nonnull align 8 dereferenceable(16) %call34)
          to label %invoke.cont35 unwind label %lpad30

invoke.cont35:                                    ; preds = %invoke.cont33
  call void @_ZN4absl12log_internal10LogMessageD1Ev(ptr noundef nonnull align 8 dereferenceable(16) %ref.tmp27) #22
  call void @exit(i32 noundef 1) #20
  unreachable

lpad22:                                           ; preds = %invoke.cont26, %if.then25, %invoke.cont21
  %15 = landingpad { ptr, i32 }
          catch ptr @_ZTISt9exception
          catch ptr null
  %16 = extractvalue { ptr, i32 } %15, 0
  store ptr %16, ptr %exn.slot, align 8
  %17 = extractvalue { ptr, i32 } %15, 1
  store i32 %17, ptr %ehselector.slot, align 4
  br label %catch.dispatch

lpad30:                                           ; preds = %invoke.cont33, %invoke.cont31, %invoke.cont29
  %18 = landingpad { ptr, i32 }
          catch ptr @_ZTISt9exception
          catch ptr null
  %19 = extractvalue { ptr, i32 } %18, 0
  store ptr %19, ptr %exn.slot, align 8
  %20 = extractvalue { ptr, i32 } %18, 1
  store i32 %20, ptr %ehselector.slot, align 4
  call void @_ZN4absl12log_internal10LogMessageD1Ev(ptr noundef nonnull align 8 dereferenceable(16) %ref.tmp27) #22
  br label %catch.dispatch

catch.dispatch:                                   ; preds = %lpad30, %lpad22
  %sel = load i32, ptr %ehselector.slot, align 4
  %21 = call i32 @llvm.eh.typeid.for(ptr @_ZTISt9exception) #3
  %matches = icmp eq i32 %sel, %21
  br i1 %matches, label %catch44, label %catch

catch44:                                          ; preds = %catch.dispatch
  %exn45 = load ptr, ptr %exn.slot, align 8
  %22 = call ptr @__cxa_begin_catch(ptr %exn45) #3
  store ptr %22, ptr %gtest_exception, align 8
  %23 = load ptr, ptr @stderr, align 8
  invoke void @_ZN7testing8internal18FormatFileLocationB5cxx11EPKci(ptr sret(%"class.std::__cxx11::basic_string") align 8 %ref.tmp46, ptr noundef @.str.4, i32 noundef 54)
          to label %invoke.cont48 unwind label %lpad47

invoke.cont48:                                    ; preds = %catch44
  %call49 = call noundef ptr @_ZNKSt7__cxx1112basic_stringIcSt11char_traitsIcESaIcEE5c_strEv(ptr noundef nonnull align 8 dereferenceable(32) %ref.tmp46) #3
  %24 = load ptr, ptr %gtest_exception, align 8
  %vtable50 = load ptr, ptr %24, align 8
  %vfn51 = getelementptr inbounds ptr, ptr %vtable50, i64 2
  %25 = load ptr, ptr %vfn51, align 8
  %call52 = call noundef ptr %25(ptr noundef nonnull align 8 dereferenceable(8) %24) #3
  %call55 = invoke i32 (ptr, ptr, ...) @fprintf(ptr noundef %23, ptr noundef @.str.15, ptr noundef %call49, ptr noundef %call52)
          to label %invoke.cont54 unwind label %lpad53

invoke.cont54:                                    ; preds = %invoke.cont48
  call void @_ZNSt7__cxx1112basic_stringIcSt11char_traitsIcESaIcEED1Ev(ptr noundef nonnull align 8 dereferenceable(32) %ref.tmp46) #3
  %26 = load ptr, ptr @stderr, align 8
  %call57 = invoke i32 @fflush(ptr noundef %26)
          to label %invoke.cont56 unwind label %lpad47

invoke.cont56:                                    ; preds = %invoke.cont54
  %27 = load ptr, ptr %gtest_dt, align 8
  %vtable58 = load ptr, ptr %27, align 8
  %vfn59 = getelementptr inbounds ptr, ptr %vtable58, i64 5
  %28 = load ptr, ptr %vfn59, align 8
  invoke void %28(ptr noundef nonnull align 8 dereferenceable(8) %27, i32 noundef 1)
          to label %invoke.cont60 unwind label %lpad47

invoke.cont60:                                    ; preds = %invoke.cont56
  invoke void @__cxa_end_catch()
          to label %invoke.cont61 unwind label %lpad41

invoke.cont61:                                    ; preds = %invoke.cont60
  br label %try.cont

try.cont:                                         ; preds = %if.end36, %invoke.cont42, %invoke.cont61
  %29 = load ptr, ptr %gtest_dt, align 8
  %vtable63 = load ptr, ptr %29, align 8
  %vfn64 = getelementptr inbounds ptr, ptr %vtable63, i64 5
  %30 = load ptr, ptr %vfn64, align 8
  invoke void %30(ptr noundef nonnull align 8 dereferenceable(8) %29, i32 noundef 2)
          to label %invoke.cont65 unwind label %lpad41

invoke.cont65:                                    ; preds = %try.cont
  call void @_ZN7testing8internal9DeathTest14ReturnSentinelD2Ev(ptr noundef nonnull align 8 dereferenceable(8) %gtest_sentinel) #3
  br label %sw.epilog

catch:                                            ; preds = %catch.dispatch
  %exn = load ptr, ptr %exn.slot, align 8
  %31 = call ptr @__cxa_begin_catch(ptr %exn) #3
  %32 = load ptr, ptr %gtest_dt, align 8
  %vtable37 = load ptr, ptr %32, align 8
  %vfn38 = getelementptr inbounds ptr, ptr %vtable37, i64 5
  %33 = load ptr, ptr %vfn38, align 8
  invoke void %33(ptr noundef nonnull align 8 dereferenceable(8) %32, i32 noundef 1)
          to label %invoke.cont40 unwind label %lpad39

invoke.cont40:                                    ; preds = %catch
  invoke void @__cxa_end_catch()
          to label %invoke.cont42 unwind label %lpad41

invoke.cont42:                                    ; preds = %invoke.cont40
  br label %try.cont

if.else:                                          ; preds = %invoke.cont23
  br label %if.end36

if.end36:                                         ; preds = %if.else
  br label %try.cont

lpad39:                                           ; preds = %catch
  %34 = landingpad { ptr, i32 }
          cleanup
  %35 = extractvalue { ptr, i32 } %34, 0
  store ptr %35, ptr %exn.slot, align 8
  %36 = extractvalue { ptr, i32 } %34, 1
  store i32 %36, ptr %ehselector.slot, align 4
  invoke void @__cxa_end_catch()
          to label %invoke.cont43 unwind label %terminate.lpad

lpad41:                                           ; preds = %invoke.cont40, %try.cont, %invoke.cont60
  %37 = landingpad { ptr, i32 }
          cleanup
  %38 = extractvalue { ptr, i32 } %37, 0
  store ptr %38, ptr %exn.slot, align 8
  %39 = extractvalue { ptr, i32 } %37, 1
  store i32 %39, ptr %ehselector.slot, align 4
  br label %ehcleanup66

invoke.cont43:                                    ; preds = %lpad39
  br label %ehcleanup66

lpad47:                                           ; preds = %invoke.cont56, %invoke.cont54, %catch44
  %40 = landingpad { ptr, i32 }
          cleanup
  %41 = extractvalue { ptr, i32 } %40, 0
  store ptr %41, ptr %exn.slot, align 8
  %42 = extractvalue { ptr, i32 } %40, 1
  store i32 %42, ptr %ehselector.slot, align 4
  br label %ehcleanup

lpad53:                                           ; preds = %invoke.cont48
  %43 = landingpad { ptr, i32 }
          cleanup
  %44 = extractvalue { ptr, i32 } %43, 0
  store ptr %44, ptr %exn.slot, align 8
  %45 = extractvalue { ptr, i32 } %43, 1
  store i32 %45, ptr %ehselector.slot, align 4
  call void @_ZNSt7__cxx1112basic_stringIcSt11char_traitsIcESaIcEED1Ev(ptr noundef nonnull align 8 dereferenceable(32) %ref.tmp46) #3
  br label %ehcleanup

ehcleanup:                                        ; preds = %lpad53, %lpad47
  invoke void @__cxa_end_catch()
          to label %invoke.cont62 unwind label %terminate.lpad

invoke.cont62:                                    ; preds = %ehcleanup
  br label %ehcleanup66

ehcleanup66:                                      ; preds = %invoke.cont62, %invoke.cont43, %lpad41
  call void @_ZN7testing8internal9DeathTest14ReturnSentinelD2Ev(ptr noundef nonnull align 8 dereferenceable(8) %gtest_sentinel) #3
  br label %ehcleanup67

sw.epilog:                                        ; preds = %invoke.cont65, %if.end19, %invoke.cont6
  store i32 0, ptr %cleanup.dest.slot, align 4
  br label %cleanup

cleanup:                                          ; preds = %sw.epilog, %if.then18
  call void @_ZNSt10unique_ptrIN7testing8internal9DeathTestESt14default_deleteIS2_EED2Ev(ptr noundef nonnull align 8 dereferenceable(8) %gtest_dt_ptr) #3
  %cleanup.dest = load i32, ptr %cleanup.dest.slot, align 4
  switch i32 %cleanup.dest, label %unreachable [
    i32 0, label %cleanup.cont
    i32 2, label %gtest_label_54
  ]

cleanup.cont:                                     ; preds = %cleanup
  br label %if.end68

ehcleanup67:                                      ; preds = %ehcleanup66, %lpad5
  call void @_ZNSt10unique_ptrIN7testing8internal9DeathTestESt14default_deleteIS2_EED2Ev(ptr noundef nonnull align 8 dereferenceable(8) %gtest_dt_ptr) #3
  br label %eh.resume

if.end68:                                         ; preds = %cleanup.cont, %if.end
  br label %if.end80

if.else69:                                        ; preds = %entry
  br label %gtest_label_54

gtest_label_54:                                   ; preds = %if.else69, %cleanup, %if.then3
  call void @_ZN7testing7MessageC1Ev(ptr noundef nonnull align 8 dereferenceable(8) %ref.tmp70)
  %call74 = invoke noundef ptr @_ZN7testing8internal9DeathTest11LastMessageEv()
          to label %invoke.cont73 unwind label %lpad72

invoke.cont73:                                    ; preds = %gtest_label_54
  invoke void @_ZN7testing8internal12AssertHelperC1ENS_14TestPartResult4TypeEPKciS5_(ptr noundef nonnull align 8 dereferenceable(8) %ref.tmp71, i32 noundef 1, ptr noundef @.str.4, i32 noundef 54, ptr noundef %call74)
          to label %invoke.cont75 unwind label %lpad72

invoke.cont75:                                    ; preds = %invoke.cont73
  invoke void @_ZNK7testing8internal12AssertHelperaSERKNS_7MessageE(ptr noundef nonnull align 8 dereferenceable(8) %ref.tmp71, ptr noundef nonnull align 8 dereferenceable(8) %ref.tmp70)
          to label %invoke.cont77 unwind label %lpad76

invoke.cont77:                                    ; preds = %invoke.cont75
  call void @_ZN7testing8internal12AssertHelperD1Ev(ptr noundef nonnull align 8 dereferenceable(8) %ref.tmp71) #3
  call void @_ZN7testing7MessageD2Ev(ptr noundef nonnull align 8 dereferenceable(8) %ref.tmp70) #3
  br label %if.end80

lpad72:                                           ; preds = %invoke.cont73, %gtest_label_54
  %46 = landingpad { ptr, i32 }
          cleanup
  %47 = extractvalue { ptr, i32 } %46, 0
  store ptr %47, ptr %exn.slot, align 8
  %48 = extractvalue { ptr, i32 } %46, 1
  store i32 %48, ptr %ehselector.slot, align 4
  br label %ehcleanup79

lpad76:                                           ; preds = %invoke.cont75
  %49 = landingpad { ptr, i32 }
          cleanup
  %50 = extractvalue { ptr, i32 } %49, 0
  store ptr %50, ptr %exn.slot, align 8
  %51 = extractvalue { ptr, i32 } %49, 1
  store i32 %51, ptr %ehselector.slot, align 4
  call void @_ZN7testing8internal12AssertHelperD1Ev(ptr noundef nonnull align 8 dereferenceable(8) %ref.tmp71) #3
  br label %ehcleanup79

ehcleanup79:                                      ; preds = %lpad76, %lpad72
  call void @_ZN7testing7MessageD2Ev(ptr noundef nonnull align 8 dereferenceable(8) %ref.tmp70) #3
  br label %eh.resume

if.end80:                                         ; preds = %invoke.cont77, %if.end68
  ret void

eh.resume:                                        ; preds = %ehcleanup79, %ehcleanup67, %lpad
  %exn81 = load ptr, ptr %exn.slot, align 8
  %sel82 = load i32, ptr %ehselector.slot, align 4
  %lpad.val = insertvalue { ptr, i32 } poison, ptr %exn81, 0
  %lpad.val83 = insertvalue { ptr, i32 } %lpad.val, i32 %sel82, 1
  resume { ptr, i32 } %lpad.val83

terminate.lpad:                                   ; preds = %ehcleanup, %lpad39
  %52 = landingpad { ptr, i32 }
          catch ptr null
  %53 = extractvalue { ptr, i32 } %52, 0
  call void @__clang_call_terminate(ptr %53) #20
  unreachable

unreachable:                                      ; preds = %cleanup
  unreachable
}

; Function Attrs: mustprogress nounwind uwtable
define linkonce_odr dso_local noundef ptr @_ZN7testing4Test5SetupEv(ptr noundef nonnull align 8 dereferenceable(16) %this) unnamed_addr #6 comdat align 2 {
entry:
  %this.addr = alloca ptr, align 8
  store ptr %this, ptr %this.addr, align 8
  ret ptr null
}

; Function Attrs: nounwind
declare void @_ZN7testing4TestD2Ev(ptr noundef nonnull align 8 dereferenceable(16)) unnamed_addr #2

declare noundef zeroext i1 @_ZN7testing8internal10AlwaysTrueEv() #1

declare noundef zeroext i1 @_ZN7testing8internal9DeathTest6CreateEPKcNS_7MatcherIRKNSt7__cxx1112basic_stringIcSt11char_traitsIcESaIcEEEEES3_iPPS1_(ptr noundef, ptr noundef, ptr noundef, i32 noundef, ptr noundef) #1

; Function Attrs: mustprogress uwtable
define linkonce_odr dso_local void @_ZN7testing8internal20MakeDeathTestMatcherB5cxx11EPKc(ptr noalias sret(%"class.testing::Matcher") align 8 %agg.result, ptr noundef %regex) #4 comdat personality ptr @__gxx_personality_v0 {
entry:
  %result.ptr = alloca ptr, align 8
  %regex.addr = alloca ptr, align 8
  %ref.tmp = alloca %"class.testing::PolymorphicMatcher", align 8
  %exn.slot = alloca ptr, align 8
  %ehselector.slot = alloca i32, align 4
  store ptr %agg.result, ptr %result.ptr, align 8
  store ptr %regex, ptr %regex.addr, align 8
  call void @_ZN7testing13ContainsRegexIPKcEENS_18PolymorphicMatcherINS_8internal19MatchesRegexMatcherEEERKT_(ptr sret(%"class.testing::PolymorphicMatcher") align 8 %ref.tmp, ptr noundef nonnull align 8 dereferenceable(8) %regex.addr)
  invoke void @_ZNK7testing18PolymorphicMatcherINS_8internal19MatchesRegexMatcherEEcvNS_7MatcherIT_EEIRKNSt7__cxx1112basic_stringIcSt11char_traitsIcESaIcEEEEEv(ptr sret(%"class.testing::Matcher") align 8 %agg.result, ptr noundef nonnull align 8 dereferenceable(24) %ref.tmp)
          to label %invoke.cont unwind label %lpad

invoke.cont:                                      ; preds = %entry
  call void @_ZN7testing18PolymorphicMatcherINS_8internal19MatchesRegexMatcherEED2Ev(ptr noundef nonnull align 8 dereferenceable(24) %ref.tmp) #3
  ret void

lpad:                                             ; preds = %entry
  %0 = landingpad { ptr, i32 }
          cleanup
  %1 = extractvalue { ptr, i32 } %0, 0
  store ptr %1, ptr %exn.slot, align 8
  %2 = extractvalue { ptr, i32 } %0, 1
  store i32 %2, ptr %ehselector.slot, align 4
  call void @_ZN7testing18PolymorphicMatcherINS_8internal19MatchesRegexMatcherEED2Ev(ptr noundef nonnull align 8 dereferenceable(24) %ref.tmp) #3
  br label %eh.resume

eh.resume:                                        ; preds = %lpad
  %exn = load ptr, ptr %exn.slot, align 8
  %sel = load i32, ptr %ehselector.slot, align 4
  %lpad.val = insertvalue { ptr, i32 } poison, ptr %exn, 0
  %lpad.val1 = insertvalue { ptr, i32 } %lpad.val, i32 %sel, 1
  resume { ptr, i32 } %lpad.val1
}

; Function Attrs: mustprogress nounwind uwtable
define linkonce_odr dso_local void @_ZN7testing7MatcherIRKNSt7__cxx1112basic_stringIcSt11char_traitsIcESaIcEEEED2Ev(ptr noundef nonnull align 8 dereferenceable(24) %this) unnamed_addr #6 comdat align 2 {
entry:
  %this.addr = alloca ptr, align 8
  store ptr %this, ptr %this.addr, align 8
  %this1 = load ptr, ptr %this.addr, align 8
  call void @_ZN7testing8internal11MatcherBaseIRKNSt7__cxx1112basic_stringIcSt11char_traitsIcESaIcEEEED2Ev(ptr noundef nonnull align 8 dereferenceable(24) %this1) #3
  ret void
}

; Function Attrs: mustprogress nounwind uwtable
define linkonce_odr dso_local void @_ZNSt10unique_ptrIN7testing8internal9DeathTestESt14default_deleteIS2_EEC2IS4_vEEPS2_(ptr noundef nonnull align 8 dereferenceable(8) %this, ptr noundef %__p) unnamed_addr #6 comdat align 2 personality ptr @__gxx_personality_v0 {
entry:
  %this.addr = alloca ptr, align 8
  %__p.addr = alloca ptr, align 8
  store ptr %this, ptr %this.addr, align 8
  store ptr %__p, ptr %__p.addr, align 8
  %this1 = load ptr, ptr %this.addr, align 8
  %_M_t = getelementptr inbounds %"class.std::unique_ptr.6", ptr %this1, i32 0, i32 0
  %0 = load ptr, ptr %__p.addr, align 8
  invoke void @_ZNSt15__uniq_ptr_dataIN7testing8internal9DeathTestESt14default_deleteIS2_ELb1ELb1EECI2St15__uniq_ptr_implIS2_S4_EEPS2_(ptr noundef nonnull align 8 dereferenceable(8) %_M_t, ptr noundef %0)
          to label %invoke.cont unwind label %terminate.lpad

invoke.cont:                                      ; preds = %entry
  ret void

terminate.lpad:                                   ; preds = %entry
  %1 = landingpad { ptr, i32 }
          catch ptr null
  %2 = extractvalue { ptr, i32 } %1, 0
  call void @__clang_call_terminate(ptr %2) #20
  unreachable
}

declare noundef zeroext i1 @_ZN7testing8internal20ExitedUnsuccessfullyEi(i32 noundef) #1

; Function Attrs: mustprogress nounwind uwtable
define linkonce_odr dso_local void @_ZN7testing8internal9DeathTest14ReturnSentinelC2EPS1_(ptr noundef nonnull align 8 dereferenceable(8) %this, ptr noundef %test) unnamed_addr #6 comdat align 2 {
entry:
  %this.addr = alloca ptr, align 8
  %test.addr = alloca ptr, align 8
  store ptr %this, ptr %this.addr, align 8
  store ptr %test, ptr %test.addr, align 8
  %this1 = load ptr, ptr %this.addr, align 8
  %test_ = getelementptr inbounds %"class.testing::internal::DeathTest::ReturnSentinel", ptr %this1, i32 0, i32 0
  %0 = load ptr, ptr %test.addr, align 8
  store ptr %0, ptr %test_, align 8
  ret void
}

declare void @_ZN4absl18SetStderrThresholdENS_18LogSeverityAtLeastE(i32 noundef) #1

; Function Attrs: mustprogress nounwind uwtable
define linkonce_odr dso_local void @_ZNKO4absl12log_internal7VoidifyaaINS0_10LogMessageEEEvRKT_(ptr noundef nonnull align 1 dereferenceable(1) %this, ptr noundef nonnull align 8 dereferenceable(16) %0) #6 comdat align 2 {
entry:
  %this.addr = alloca ptr, align 8
  %.addr = alloca ptr, align 8
  store ptr %this, ptr %this.addr, align 8
  store ptr %0, ptr %.addr, align 8
  ret void
}

; Function Attrs: cold
declare void @_ZN4absl12log_internal10LogMessageC1EPKciNS1_7InfoTagE(ptr noundef nonnull align 8 dereferenceable(16), ptr noundef, i32 noundef) unnamed_addr #9

; Function Attrs: mustprogress nounwind uwtable
define linkonce_odr dso_local noundef nonnull align 8 dereferenceable(16) ptr @_ZN4absl12log_internal10LogMessage14InternalStreamEv(ptr noundef nonnull align 8 dereferenceable(16) %this) #6 comdat align 2 {
entry:
  %this.addr = alloca ptr, align 8
  store ptr %this, ptr %this.addr, align 8
  %this1 = load ptr, ptr %this.addr, align 8
  ret ptr %this1
}

; Function Attrs: mustprogress uwtable
define linkonce_odr dso_local noundef nonnull align 8 dereferenceable(16) ptr @_ZN4absl12log_internal10LogMessagelsILi13EEERS1_RAT__Kc(ptr noundef nonnull align 8 dereferenceable(16) %this, ptr noundef nonnull align 1 dereferenceable(13) %buf) #4 comdat align 2 {
entry:
  %this.addr = alloca ptr, align 8
  %buf.addr = alloca ptr, align 8
  %agg.tmp = alloca %"class.std::basic_string_view", align 8
  store ptr %this, ptr %this.addr, align 8
  store ptr %buf, ptr %buf.addr, align 8
  %this1 = load ptr, ptr %this.addr, align 8
  %0 = load ptr, ptr %buf.addr, align 8
  %arraydecay = getelementptr inbounds [13 x i8], ptr %0, i64 0, i64 0
  call void @_ZNSt17basic_string_viewIcSt11char_traitsIcEEC2EPKc(ptr noundef nonnull align 8 dereferenceable(16) %agg.tmp, ptr noundef %arraydecay) #3
  %1 = getelementptr inbounds { i64, ptr }, ptr %agg.tmp, i32 0, i32 0
  %2 = load i64, ptr %1, align 8
  %3 = getelementptr inbounds { i64, ptr }, ptr %agg.tmp, i32 0, i32 1
  %4 = load ptr, ptr %3, align 8
  call void @_ZN4absl12log_internal10LogMessage19CopyToEncodedBufferILNS1_10StringTypeE0EEEvSt17basic_string_viewIcSt11char_traitsIcEE(ptr noundef nonnull align 8 dereferenceable(16) %this1, i64 %2, ptr %4)
  ret ptr %this1
}

; Function Attrs: cold nounwind
declare void @_ZN4absl12log_internal10LogMessageD1Ev(ptr noundef nonnull align 8 dereferenceable(16)) unnamed_addr #10

; Function Attrs: noreturn nounwind
declare void @exit(i32 noundef) #11

; Function Attrs: nounwind memory(none)
declare i32 @llvm.eh.typeid.for(ptr) #12

declare ptr @__cxa_begin_catch(ptr)

declare void @__cxa_end_catch()

; Function Attrs: noreturn nounwind uwtable
define linkonce_odr hidden void @__clang_call_terminate(ptr noundef %0) #13 comdat {
  %2 = call ptr @__cxa_begin_catch(ptr %0) #3
  call void @_ZSt9terminatev() #20
  unreachable
}

declare void @_ZSt9terminatev()

declare i32 @fprintf(ptr noundef, ptr noundef, ...) #1

declare void @_ZN7testing8internal18FormatFileLocationB5cxx11EPKci(ptr sret(%"class.std::__cxx11::basic_string") align 8, ptr noundef, i32 noundef) #1

; Function Attrs: nounwind
declare noundef ptr @_ZNKSt7__cxx1112basic_stringIcSt11char_traitsIcESaIcEE5c_strEv(ptr noundef nonnull align 8 dereferenceable(32)) #2

declare i32 @fflush(ptr noundef) #1

; Function Attrs: mustprogress nounwind uwtable
define linkonce_odr dso_local void @_ZN7testing8internal9DeathTest14ReturnSentinelD2Ev(ptr noundef nonnull align 8 dereferenceable(8) %this) unnamed_addr #6 comdat align 2 personality ptr @__gxx_personality_v0 {
entry:
  %this.addr = alloca ptr, align 8
  store ptr %this, ptr %this.addr, align 8
  %this1 = load ptr, ptr %this.addr, align 8
  %test_ = getelementptr inbounds %"class.testing::internal::DeathTest::ReturnSentinel", ptr %this1, i32 0, i32 0
  %0 = load ptr, ptr %test_, align 8
  %vtable = load ptr, ptr %0, align 8
  %vfn = getelementptr inbounds ptr, ptr %vtable, i64 5
  %1 = load ptr, ptr %vfn, align 8
  invoke void %1(ptr noundef nonnull align 8 dereferenceable(8) %0, i32 noundef 0)
          to label %invoke.cont unwind label %terminate.lpad

invoke.cont:                                      ; preds = %entry
  ret void

terminate.lpad:                                   ; preds = %entry
  %2 = landingpad { ptr, i32 }
          catch ptr null
  %3 = extractvalue { ptr, i32 } %2, 0
  call void @__clang_call_terminate(ptr %3) #20
  unreachable
}

; Function Attrs: mustprogress nounwind uwtable
define linkonce_odr dso_local void @_ZNSt10unique_ptrIN7testing8internal9DeathTestESt14default_deleteIS2_EED2Ev(ptr noundef nonnull align 8 dereferenceable(8) %this) unnamed_addr #6 comdat align 2 personality ptr @__gxx_personality_v0 {
entry:
  %this.addr = alloca ptr, align 8
  %__ptr = alloca ptr, align 8
  store ptr %this, ptr %this.addr, align 8
  %this1 = load ptr, ptr %this.addr, align 8
  %_M_t = getelementptr inbounds %"class.std::unique_ptr.6", ptr %this1, i32 0, i32 0
  %call = call noundef nonnull align 8 dereferenceable(8) ptr @_ZNSt15__uniq_ptr_implIN7testing8internal9DeathTestESt14default_deleteIS2_EE6_M_ptrEv(ptr noundef nonnull align 8 dereferenceable(8) %_M_t) #3
  store ptr %call, ptr %__ptr, align 8
  %0 = load ptr, ptr %__ptr, align 8
  %1 = load ptr, ptr %0, align 8
  %cmp = icmp ne ptr %1, null
  br i1 %cmp, label %if.then, label %if.end

if.then:                                          ; preds = %entry
  %call2 = call noundef nonnull align 1 dereferenceable(1) ptr @_ZNSt10unique_ptrIN7testing8internal9DeathTestESt14default_deleteIS2_EE11get_deleterEv(ptr noundef nonnull align 8 dereferenceable(8) %this1) #3
  %2 = load ptr, ptr %__ptr, align 8
  %3 = load ptr, ptr %2, align 8
  invoke void @_ZNKSt14default_deleteIN7testing8internal9DeathTestEEclEPS2_(ptr noundef nonnull align 1 dereferenceable(1) %call2, ptr noundef %3)
          to label %invoke.cont unwind label %terminate.lpad

invoke.cont:                                      ; preds = %if.then
  br label %if.end

if.end:                                           ; preds = %invoke.cont, %entry
  %4 = load ptr, ptr %__ptr, align 8
  store ptr null, ptr %4, align 8
  ret void

terminate.lpad:                                   ; preds = %if.then
  %5 = landingpad { ptr, i32 }
          catch ptr null
  %6 = extractvalue { ptr, i32 } %5, 0
  call void @__clang_call_terminate(ptr %6) #20
  unreachable
}

declare void @_ZN7testing7MessageC1Ev(ptr noundef nonnull align 8 dereferenceable(8)) unnamed_addr #1

declare noundef ptr @_ZN7testing8internal9DeathTest11LastMessageEv() #1

declare void @_ZN7testing8internal12AssertHelperC1ENS_14TestPartResult4TypeEPKciS5_(ptr noundef nonnull align 8 dereferenceable(8), i32 noundef, ptr noundef, i32 noundef, ptr noundef) unnamed_addr #1

declare void @_ZNK7testing8internal12AssertHelperaSERKNS_7MessageE(ptr noundef nonnull align 8 dereferenceable(8), ptr noundef nonnull align 8 dereferenceable(8)) #1

; Function Attrs: nounwind
declare void @_ZN7testing8internal12AssertHelperD1Ev(ptr noundef nonnull align 8 dereferenceable(8)) unnamed_addr #2

; Function Attrs: mustprogress nounwind uwtable
define linkonce_odr dso_local void @_ZN7testing7MessageD2Ev(ptr noundef nonnull align 8 dereferenceable(8) %this) unnamed_addr #6 comdat align 2 {
entry:
  %this.addr = alloca ptr, align 8
  store ptr %this, ptr %this.addr, align 8
  %this1 = load ptr, ptr %this.addr, align 8
  %ss_ = getelementptr inbounds %"class.testing::Message", ptr %this1, i32 0, i32 0
  call void @_ZNSt10unique_ptrINSt7__cxx1118basic_stringstreamIcSt11char_traitsIcESaIcEEESt14default_deleteIS5_EED2Ev(ptr noundef nonnull align 8 dereferenceable(8) %ss_) #3
  ret void
}

; Function Attrs: mustprogress uwtable
define linkonce_odr dso_local void @_ZN7testing13ContainsRegexIPKcEENS_18PolymorphicMatcherINS_8internal19MatchesRegexMatcherEEERKT_(ptr noalias sret(%"class.testing::PolymorphicMatcher") align 8 %agg.result, ptr noundef nonnull align 8 dereferenceable(8) %regex) #4 comdat personality ptr @__gxx_personality_v0 {
entry:
  %result.ptr = alloca ptr, align 8
  %regex.addr = alloca ptr, align 8
  %ref.tmp = alloca %"class.std::__cxx11::basic_string", align 8
  %ref.tmp1 = alloca %"class.std::allocator", align 1
  %exn.slot = alloca ptr, align 8
  %ehselector.slot = alloca i32, align 4
  %cleanup.isactive = alloca i1, align 1
  store ptr %agg.result, ptr %result.ptr, align 8
  store ptr %regex, ptr %regex.addr, align 8
  %call = call noalias noundef nonnull ptr @_Znwm(i64 noundef 168) #17
  store i1 true, ptr %cleanup.isactive, align 1
  %0 = load ptr, ptr %regex.addr, align 8
  %1 = load ptr, ptr %0, align 8
  call void @_ZNSaIcEC1Ev(ptr noundef nonnull align 1 dereferenceable(1) %ref.tmp1) #3
  invoke void @_ZNSt7__cxx1112basic_stringIcSt11char_traitsIcESaIcEEC2IS3_EEPKcRKS3_(ptr noundef nonnull align 8 dereferenceable(32) %ref.tmp, ptr noundef %1, ptr noundef nonnull align 1 dereferenceable(1) %ref.tmp1)
          to label %invoke.cont unwind label %lpad

invoke.cont:                                      ; preds = %entry
  invoke void @_ZN7testing8internal2REC2ERKNSt7__cxx1112basic_stringIcSt11char_traitsIcESaIcEEE(ptr noundef nonnull align 8 dereferenceable(168) %call, ptr noundef nonnull align 8 dereferenceable(32) %ref.tmp)
          to label %invoke.cont3 unwind label %lpad2

invoke.cont3:                                     ; preds = %invoke.cont
  store i1 false, ptr %cleanup.isactive, align 1
  invoke void @_ZN7testing13ContainsRegexEPKNS_8internal2REE(ptr sret(%"class.testing::PolymorphicMatcher") align 8 %agg.result, ptr noundef %call)
          to label %invoke.cont4 unwind label %lpad2

invoke.cont4:                                     ; preds = %invoke.cont3
  call void @_ZNSt7__cxx1112basic_stringIcSt11char_traitsIcESaIcEED1Ev(ptr noundef nonnull align 8 dereferenceable(32) %ref.tmp) #3
  call void @_ZNSaIcED1Ev(ptr noundef nonnull align 1 dereferenceable(1) %ref.tmp1) #3
  ret void

lpad:                                             ; preds = %entry
  %2 = landingpad { ptr, i32 }
          cleanup
  %3 = extractvalue { ptr, i32 } %2, 0
  store ptr %3, ptr %exn.slot, align 8
  %4 = extractvalue { ptr, i32 } %2, 1
  store i32 %4, ptr %ehselector.slot, align 4
  br label %ehcleanup

lpad2:                                            ; preds = %invoke.cont3, %invoke.cont
  %5 = landingpad { ptr, i32 }
          cleanup
  %6 = extractvalue { ptr, i32 } %5, 0
  store ptr %6, ptr %exn.slot, align 8
  %7 = extractvalue { ptr, i32 } %5, 1
  store i32 %7, ptr %ehselector.slot, align 4
  call void @_ZNSt7__cxx1112basic_stringIcSt11char_traitsIcESaIcEED1Ev(ptr noundef nonnull align 8 dereferenceable(32) %ref.tmp) #3
  br label %ehcleanup

ehcleanup:                                        ; preds = %lpad2, %lpad
  call void @_ZNSaIcED1Ev(ptr noundef nonnull align 1 dereferenceable(1) %ref.tmp1) #3
  %cleanup.is_active = load i1, ptr %cleanup.isactive, align 1
  br i1 %cleanup.is_active, label %cleanup.action, label %cleanup.done

cleanup.action:                                   ; preds = %ehcleanup
  call void @_ZdlPv(ptr noundef %call) #18
  br label %cleanup.done

cleanup.done:                                     ; preds = %cleanup.action, %ehcleanup
  br label %eh.resume

eh.resume:                                        ; preds = %cleanup.done
  %exn = load ptr, ptr %exn.slot, align 8
  %sel = load i32, ptr %ehselector.slot, align 4
  %lpad.val = insertvalue { ptr, i32 } poison, ptr %exn, 0
  %lpad.val6 = insertvalue { ptr, i32 } %lpad.val, i32 %sel, 1
  resume { ptr, i32 } %lpad.val6
}

; Function Attrs: mustprogress uwtable
define linkonce_odr dso_local void @_ZNK7testing18PolymorphicMatcherINS_8internal19MatchesRegexMatcherEEcvNS_7MatcherIT_EEIRKNSt7__cxx1112basic_stringIcSt11char_traitsIcESaIcEEEEEv(ptr noalias sret(%"class.testing::Matcher") align 8 %agg.result, ptr noundef nonnull align 8 dereferenceable(24) %this) #4 comdat align 2 personality ptr @__gxx_personality_v0 {
entry:
  %result.ptr = alloca ptr, align 8
  %this.addr = alloca ptr, align 8
  %exn.slot = alloca ptr, align 8
  %ehselector.slot = alloca i32, align 4
  store ptr %agg.result, ptr %result.ptr, align 8
  store ptr %this, ptr %this.addr, align 8
  %this1 = load ptr, ptr %this.addr, align 8
  %call = call noalias noundef nonnull ptr @_Znwm(i64 noundef 32) #17
  %impl_ = getelementptr inbounds %"class.testing::PolymorphicMatcher", ptr %this1, i32 0, i32 0
  invoke void @_ZN7testing18PolymorphicMatcherINS_8internal19MatchesRegexMatcherEE15MonomorphicImplIRKNSt7__cxx1112basic_stringIcSt11char_traitsIcESaIcEEEEC2ERKS2_(ptr noundef nonnull align 8 dereferenceable(32) %call, ptr noundef nonnull align 8 dereferenceable(17) %impl_)
          to label %invoke.cont unwind label %lpad

invoke.cont:                                      ; preds = %entry
  call void @_ZN7testing7MatcherIRKNSt7__cxx1112basic_stringIcSt11char_traitsIcESaIcEEEEC2EPKNS_16MatcherInterfaceIS8_EE(ptr noundef nonnull align 8 dereferenceable(24) %agg.result, ptr noundef %call)
  ret void

lpad:                                             ; preds = %entry
  %0 = landingpad { ptr, i32 }
          cleanup
  %1 = extractvalue { ptr, i32 } %0, 0
  store ptr %1, ptr %exn.slot, align 8
  %2 = extractvalue { ptr, i32 } %0, 1
  store i32 %2, ptr %ehselector.slot, align 4
  call void @_ZdlPv(ptr noundef %call) #18
  br label %eh.resume

eh.resume:                                        ; preds = %lpad
  %exn = load ptr, ptr %exn.slot, align 8
  %sel = load i32, ptr %ehselector.slot, align 4
  %lpad.val = insertvalue { ptr, i32 } poison, ptr %exn, 0
  %lpad.val2 = insertvalue { ptr, i32 } %lpad.val, i32 %sel, 1
  resume { ptr, i32 } %lpad.val2
}

; Function Attrs: mustprogress nounwind uwtable
define linkonce_odr dso_local void @_ZN7testing18PolymorphicMatcherINS_8internal19MatchesRegexMatcherEED2Ev(ptr noundef nonnull align 8 dereferenceable(24) %this) unnamed_addr #6 comdat align 2 {
entry:
  %this.addr = alloca ptr, align 8
  store ptr %this, ptr %this.addr, align 8
  %this1 = load ptr, ptr %this.addr, align 8
  %impl_ = getelementptr inbounds %"class.testing::PolymorphicMatcher", ptr %this1, i32 0, i32 0
  call void @_ZN7testing8internal19MatchesRegexMatcherD2Ev(ptr noundef nonnull align 8 dereferenceable(17) %impl_) #3
  ret void
}

; Function Attrs: mustprogress uwtable
define linkonce_odr dso_local void @_ZN7testing13ContainsRegexEPKNS_8internal2REE(ptr noalias sret(%"class.testing::PolymorphicMatcher") align 8 %agg.result, ptr noundef %regex) #4 comdat personality ptr @__gxx_personality_v0 {
entry:
  %result.ptr = alloca ptr, align 8
  %regex.addr = alloca ptr, align 8
  %ref.tmp = alloca %"class.testing::internal::MatchesRegexMatcher", align 8
  %exn.slot = alloca ptr, align 8
  %ehselector.slot = alloca i32, align 4
  store ptr %agg.result, ptr %result.ptr, align 8
  store ptr %regex, ptr %regex.addr, align 8
  %0 = load ptr, ptr %regex.addr, align 8
  call void @_ZN7testing8internal19MatchesRegexMatcherC2EPKNS0_2REEb(ptr noundef nonnull align 8 dereferenceable(17) %ref.tmp, ptr noundef %0, i1 noundef zeroext false)
  invoke void @_ZN7testing22MakePolymorphicMatcherINS_8internal19MatchesRegexMatcherEEENS_18PolymorphicMatcherIT_EERKS4_(ptr sret(%"class.testing::PolymorphicMatcher") align 8 %agg.result, ptr noundef nonnull align 8 dereferenceable(17) %ref.tmp)
          to label %invoke.cont unwind label %lpad

invoke.cont:                                      ; preds = %entry
  call void @_ZN7testing8internal19MatchesRegexMatcherD2Ev(ptr noundef nonnull align 8 dereferenceable(17) %ref.tmp) #3
  ret void

lpad:                                             ; preds = %entry
  %1 = landingpad { ptr, i32 }
          cleanup
  %2 = extractvalue { ptr, i32 } %1, 0
  store ptr %2, ptr %exn.slot, align 8
  %3 = extractvalue { ptr, i32 } %1, 1
  store i32 %3, ptr %ehselector.slot, align 4
  call void @_ZN7testing8internal19MatchesRegexMatcherD2Ev(ptr noundef nonnull align 8 dereferenceable(17) %ref.tmp) #3
  br label %eh.resume

eh.resume:                                        ; preds = %lpad
  %exn = load ptr, ptr %exn.slot, align 8
  %sel = load i32, ptr %ehselector.slot, align 4
  %lpad.val = insertvalue { ptr, i32 } poison, ptr %exn, 0
  %lpad.val1 = insertvalue { ptr, i32 } %lpad.val, i32 %sel, 1
  resume { ptr, i32 } %lpad.val1
}

; Function Attrs: mustprogress uwtable
define linkonce_odr dso_local void @_ZN7testing8internal2REC2ERKNSt7__cxx1112basic_stringIcSt11char_traitsIcESaIcEEE(ptr noundef nonnull align 8 dereferenceable(168) %this, ptr noundef nonnull align 8 dereferenceable(32) %regex) unnamed_addr #4 comdat align 2 personality ptr @__gxx_personality_v0 {
entry:
  %this.addr = alloca ptr, align 8
  %regex.addr = alloca ptr, align 8
  %exn.slot = alloca ptr, align 8
  %ehselector.slot = alloca i32, align 4
  store ptr %this, ptr %this.addr, align 8
  store ptr %regex, ptr %regex.addr, align 8
  %this1 = load ptr, ptr %this.addr, align 8
  %pattern_ = getelementptr inbounds %"class.testing::internal::RE", ptr %this1, i32 0, i32 0
  call void @_ZNSt7__cxx1112basic_stringIcSt11char_traitsIcESaIcEEC1Ev(ptr noundef nonnull align 8 dereferenceable(32) %pattern_) #3
  %0 = load ptr, ptr %regex.addr, align 8
  %call = call noundef ptr @_ZNKSt7__cxx1112basic_stringIcSt11char_traitsIcESaIcEE5c_strEv(ptr noundef nonnull align 8 dereferenceable(32) %0) #3
  invoke void @_ZN7testing8internal2RE4InitEPKc(ptr noundef nonnull align 8 dereferenceable(168) %this1, ptr noundef %call)
          to label %invoke.cont unwind label %lpad

invoke.cont:                                      ; preds = %entry
  ret void

lpad:                                             ; preds = %entry
  %1 = landingpad { ptr, i32 }
          cleanup
  %2 = extractvalue { ptr, i32 } %1, 0
  store ptr %2, ptr %exn.slot, align 8
  %3 = extractvalue { ptr, i32 } %1, 1
  store i32 %3, ptr %ehselector.slot, align 4
  call void @_ZNSt7__cxx1112basic_stringIcSt11char_traitsIcESaIcEED1Ev(ptr noundef nonnull align 8 dereferenceable(32) %pattern_) #3
  br label %eh.resume

eh.resume:                                        ; preds = %lpad
  %exn = load ptr, ptr %exn.slot, align 8
  %sel = load i32, ptr %ehselector.slot, align 4
  %lpad.val = insertvalue { ptr, i32 } poison, ptr %exn, 0
  %lpad.val2 = insertvalue { ptr, i32 } %lpad.val, i32 %sel, 1
  resume { ptr, i32 } %lpad.val2
}

; Function Attrs: mustprogress uwtable
define linkonce_odr dso_local void @_ZN7testing22MakePolymorphicMatcherINS_8internal19MatchesRegexMatcherEEENS_18PolymorphicMatcherIT_EERKS4_(ptr noalias sret(%"class.testing::PolymorphicMatcher") align 8 %agg.result, ptr noundef nonnull align 8 dereferenceable(17) %impl) #4 comdat {
entry:
  %result.ptr = alloca ptr, align 8
  %impl.addr = alloca ptr, align 8
  store ptr %agg.result, ptr %result.ptr, align 8
  store ptr %impl, ptr %impl.addr, align 8
  %0 = load ptr, ptr %impl.addr, align 8
  call void @_ZN7testing18PolymorphicMatcherINS_8internal19MatchesRegexMatcherEEC2ERKS2_(ptr noundef nonnull align 8 dereferenceable(24) %agg.result, ptr noundef nonnull align 8 dereferenceable(17) %0)
  ret void
}

; Function Attrs: mustprogress uwtable
define linkonce_odr dso_local void @_ZN7testing8internal19MatchesRegexMatcherC2EPKNS0_2REEb(ptr noundef nonnull align 8 dereferenceable(17) %this, ptr noundef %regex, i1 noundef zeroext %full_match) unnamed_addr #4 comdat align 2 {
entry:
  %this.addr = alloca ptr, align 8
  %regex.addr = alloca ptr, align 8
  %full_match.addr = alloca i8, align 1
  store ptr %this, ptr %this.addr, align 8
  store ptr %regex, ptr %regex.addr, align 8
  %frombool = zext i1 %full_match to i8
  store i8 %frombool, ptr %full_match.addr, align 1
  %this1 = load ptr, ptr %this.addr, align 8
  %regex_ = getelementptr inbounds %"class.testing::internal::MatchesRegexMatcher", ptr %this1, i32 0, i32 0
  %0 = load ptr, ptr %regex.addr, align 8
  call void @_ZNSt10shared_ptrIKN7testing8internal2REEEC2IS3_vEEPT_(ptr noundef nonnull align 8 dereferenceable(16) %regex_, ptr noundef %0)
  %full_match_ = getelementptr inbounds %"class.testing::internal::MatchesRegexMatcher", ptr %this1, i32 0, i32 1
  %1 = load i8, ptr %full_match.addr, align 1
  %tobool = trunc i8 %1 to i1
  %frombool2 = zext i1 %tobool to i8
  store i8 %frombool2, ptr %full_match_, align 8
  ret void
}

; Function Attrs: mustprogress nounwind uwtable
define linkonce_odr dso_local void @_ZN7testing8internal19MatchesRegexMatcherD2Ev(ptr noundef nonnull align 8 dereferenceable(17) %this) unnamed_addr #6 comdat align 2 {
entry:
  %this.addr = alloca ptr, align 8
  store ptr %this, ptr %this.addr, align 8
  %this1 = load ptr, ptr %this.addr, align 8
  %regex_ = getelementptr inbounds %"class.testing::internal::MatchesRegexMatcher", ptr %this1, i32 0, i32 0
  call void @_ZNSt10shared_ptrIKN7testing8internal2REEED2Ev(ptr noundef nonnull align 8 dereferenceable(16) %regex_) #3
  ret void
}

; Function Attrs: mustprogress nounwind uwtable
define linkonce_odr dso_local void @_ZN7testing18PolymorphicMatcherINS_8internal19MatchesRegexMatcherEEC2ERKS2_(ptr noundef nonnull align 8 dereferenceable(24) %this, ptr noundef nonnull align 8 dereferenceable(17) %an_impl) unnamed_addr #6 comdat align 2 {
entry:
  %this.addr = alloca ptr, align 8
  %an_impl.addr = alloca ptr, align 8
  store ptr %this, ptr %this.addr, align 8
  store ptr %an_impl, ptr %an_impl.addr, align 8
  %this1 = load ptr, ptr %this.addr, align 8
  %impl_ = getelementptr inbounds %"class.testing::PolymorphicMatcher", ptr %this1, i32 0, i32 0
  %0 = load ptr, ptr %an_impl.addr, align 8
  call void @_ZN7testing8internal19MatchesRegexMatcherC2ERKS1_(ptr noundef nonnull align 8 dereferenceable(17) %impl_, ptr noundef nonnull align 8 dereferenceable(17) %0) #3
  ret void
}

; Function Attrs: mustprogress nounwind uwtable
define linkonce_odr dso_local void @_ZN7testing8internal19MatchesRegexMatcherC2ERKS1_(ptr noundef nonnull align 8 dereferenceable(17) %this, ptr noundef nonnull align 8 dereferenceable(17) %0) unnamed_addr #6 comdat align 2 {
entry:
  %this.addr = alloca ptr, align 8
  %.addr = alloca ptr, align 8
  store ptr %this, ptr %this.addr, align 8
  store ptr %0, ptr %.addr, align 8
  %this1 = load ptr, ptr %this.addr, align 8
  %regex_ = getelementptr inbounds %"class.testing::internal::MatchesRegexMatcher", ptr %this1, i32 0, i32 0
  %1 = load ptr, ptr %.addr, align 8
  %regex_2 = getelementptr inbounds %"class.testing::internal::MatchesRegexMatcher", ptr %1, i32 0, i32 0
  call void @_ZNSt10shared_ptrIKN7testing8internal2REEEC2ERKS4_(ptr noundef nonnull align 8 dereferenceable(16) %regex_, ptr noundef nonnull align 8 dereferenceable(16) %regex_2) #3
  %full_match_ = getelementptr inbounds %"class.testing::internal::MatchesRegexMatcher", ptr %this1, i32 0, i32 1
  %2 = load ptr, ptr %.addr, align 8
  %full_match_3 = getelementptr inbounds %"class.testing::internal::MatchesRegexMatcher", ptr %2, i32 0, i32 1
  %3 = load i8, ptr %full_match_3, align 8
  %tobool = trunc i8 %3 to i1
  %frombool = zext i1 %tobool to i8
  store i8 %frombool, ptr %full_match_, align 8
  ret void
}

; Function Attrs: mustprogress nounwind uwtable
define linkonce_odr dso_local void @_ZNSt10shared_ptrIKN7testing8internal2REEEC2ERKS4_(ptr noundef nonnull align 8 dereferenceable(16) %this, ptr noundef nonnull align 8 dereferenceable(16) %0) unnamed_addr #6 comdat align 2 {
entry:
  %this.addr = alloca ptr, align 8
  %.addr = alloca ptr, align 8
  store ptr %this, ptr %this.addr, align 8
  store ptr %0, ptr %.addr, align 8
  %this1 = load ptr, ptr %this.addr, align 8
  %1 = load ptr, ptr %.addr, align 8
  call void @_ZNSt12__shared_ptrIKN7testing8internal2REELN9__gnu_cxx12_Lock_policyE2EEC2ERKS6_(ptr noundef nonnull align 8 dereferenceable(16) %this1, ptr noundef nonnull align 8 dereferenceable(16) %1) #3
  ret void
}

; Function Attrs: mustprogress nounwind uwtable
define linkonce_odr dso_local void @_ZNSt12__shared_ptrIKN7testing8internal2REELN9__gnu_cxx12_Lock_policyE2EEC2ERKS6_(ptr noundef nonnull align 8 dereferenceable(16) %this, ptr noundef nonnull align 8 dereferenceable(16) %0) unnamed_addr #6 comdat align 2 {
entry:
  %this.addr = alloca ptr, align 8
  %.addr = alloca ptr, align 8
  store ptr %this, ptr %this.addr, align 8
  store ptr %0, ptr %.addr, align 8
  %this1 = load ptr, ptr %this.addr, align 8
  %_M_ptr = getelementptr inbounds %"class.std::__shared_ptr", ptr %this1, i32 0, i32 0
  %1 = load ptr, ptr %.addr, align 8
  %_M_ptr2 = getelementptr inbounds %"class.std::__shared_ptr", ptr %1, i32 0, i32 0
  %2 = load ptr, ptr %_M_ptr2, align 8
  store ptr %2, ptr %_M_ptr, align 8
  %_M_refcount = getelementptr inbounds %"class.std::__shared_ptr", ptr %this1, i32 0, i32 1
  %3 = load ptr, ptr %.addr, align 8
  %_M_refcount3 = getelementptr inbounds %"class.std::__shared_ptr", ptr %3, i32 0, i32 1
  call void @_ZNSt14__shared_countILN9__gnu_cxx12_Lock_policyE2EEC2ERKS2_(ptr noundef nonnull align 8 dereferenceable(8) %_M_refcount, ptr noundef nonnull align 8 dereferenceable(8) %_M_refcount3) #3
  ret void
}

; Function Attrs: mustprogress nounwind uwtable
define linkonce_odr dso_local void @_ZNSt14__shared_countILN9__gnu_cxx12_Lock_policyE2EEC2ERKS2_(ptr noundef nonnull align 8 dereferenceable(8) %this, ptr noundef nonnull align 8 dereferenceable(8) %__r) unnamed_addr #6 comdat align 2 personality ptr @__gxx_personality_v0 {
entry:
  %this.addr = alloca ptr, align 8
  %__r.addr = alloca ptr, align 8
  store ptr %this, ptr %this.addr, align 8
  store ptr %__r, ptr %__r.addr, align 8
  %this1 = load ptr, ptr %this.addr, align 8
  %_M_pi = getelementptr inbounds %"class.std::__shared_count", ptr %this1, i32 0, i32 0
  %0 = load ptr, ptr %__r.addr, align 8
  %_M_pi2 = getelementptr inbounds %"class.std::__shared_count", ptr %0, i32 0, i32 0
  %1 = load ptr, ptr %_M_pi2, align 8
  store ptr %1, ptr %_M_pi, align 8
  %_M_pi3 = getelementptr inbounds %"class.std::__shared_count", ptr %this1, i32 0, i32 0
  %2 = load ptr, ptr %_M_pi3, align 8
  %cmp = icmp ne ptr %2, null
  br i1 %cmp, label %if.then, label %if.end

if.then:                                          ; preds = %entry
  %_M_pi4 = getelementptr inbounds %"class.std::__shared_count", ptr %this1, i32 0, i32 0
  %3 = load ptr, ptr %_M_pi4, align 8
  invoke void @_ZNSt16_Sp_counted_baseILN9__gnu_cxx12_Lock_policyE2EE15_M_add_ref_copyEv(ptr noundef nonnull align 8 dereferenceable(16) %3)
          to label %invoke.cont unwind label %terminate.lpad

invoke.cont:                                      ; preds = %if.then
  br label %if.end

if.end:                                           ; preds = %invoke.cont, %entry
  ret void

terminate.lpad:                                   ; preds = %if.then
  %4 = landingpad { ptr, i32 }
          catch ptr null
  %5 = extractvalue { ptr, i32 } %4, 0
  call void @__clang_call_terminate(ptr %5) #20
  unreachable
}

; Function Attrs: mustprogress uwtable
define linkonce_odr dso_local void @_ZNSt16_Sp_counted_baseILN9__gnu_cxx12_Lock_policyE2EE15_M_add_ref_copyEv(ptr noundef nonnull align 8 dereferenceable(16) %this) #4 comdat align 2 {
entry:
  %__mem.addr.i4 = alloca ptr, align 8
  %__val.addr.i5 = alloca i32, align 4
  %.atomictmp.i = alloca i32, align 4
  %atomic-temp.i = alloca i32, align 4
  %__mem.addr.i2 = alloca ptr, align 8
  %__val.addr.i3 = alloca i32, align 4
  %__mem.addr.i = alloca ptr, align 8
  %__val.addr.i = alloca i32, align 4
  %this.addr = alloca ptr, align 8
  store ptr %this, ptr %this.addr, align 8
  %this1 = load ptr, ptr %this.addr, align 8
  %_M_use_count = getelementptr inbounds %"class.std::_Sp_counted_base", ptr %this1, i32 0, i32 1
  store ptr %_M_use_count, ptr %__mem.addr.i, align 8
  store i32 1, ptr %__val.addr.i, align 4
  %0 = load i8, ptr @__libc_single_threaded, align 1
  %tobool.i = icmp ne i8 %0, 0
  br i1 %tobool.i, label %if.then.i, label %if.else.i

if.then.i:                                        ; preds = %entry
  %1 = load ptr, ptr %__mem.addr.i, align 8
  %2 = load i32, ptr %__val.addr.i, align 4
  store ptr %1, ptr %__mem.addr.i2, align 8
  store i32 %2, ptr %__val.addr.i3, align 4
  %3 = load i32, ptr %__val.addr.i3, align 4
  %4 = load ptr, ptr %__mem.addr.i2, align 8
  %5 = load i32, ptr %4, align 4
  %add.i = add nsw i32 %5, %3
  store i32 %add.i, ptr %4, align 4
  br label %_ZN9__gnu_cxx21__atomic_add_dispatchEPii.exit

if.else.i:                                        ; preds = %entry
  %6 = load ptr, ptr %__mem.addr.i, align 8
  %7 = load i32, ptr %__val.addr.i, align 4
  store ptr %6, ptr %__mem.addr.i4, align 8
  store i32 %7, ptr %__val.addr.i5, align 4
  %8 = load ptr, ptr %__mem.addr.i4, align 8
  %9 = load i32, ptr %__val.addr.i5, align 4
  store i32 %9, ptr %.atomictmp.i, align 4
  %10 = load i32, ptr %.atomictmp.i, align 4
  %11 = atomicrmw volatile add ptr %8, i32 %10 acq_rel, align 4
  store i32 %11, ptr %atomic-temp.i, align 4
  br label %_ZN9__gnu_cxx21__atomic_add_dispatchEPii.exit

_ZN9__gnu_cxx21__atomic_add_dispatchEPii.exit:    ; preds = %if.else.i, %if.then.i
  ret void
}

; Function Attrs: mustprogress uwtable
define linkonce_odr dso_local void @_ZNSt10shared_ptrIKN7testing8internal2REEEC2IS3_vEEPT_(ptr noundef nonnull align 8 dereferenceable(16) %this, ptr noundef %__p) unnamed_addr #4 comdat align 2 {
entry:
  %this.addr = alloca ptr, align 8
  %__p.addr = alloca ptr, align 8
  store ptr %this, ptr %this.addr, align 8
  store ptr %__p, ptr %__p.addr, align 8
  %this1 = load ptr, ptr %this.addr, align 8
  %0 = load ptr, ptr %__p.addr, align 8
  call void @_ZNSt12__shared_ptrIKN7testing8internal2REELN9__gnu_cxx12_Lock_policyE2EEC2IS3_vEEPT_(ptr noundef nonnull align 8 dereferenceable(16) %this1, ptr noundef %0)
  ret void
}

; Function Attrs: mustprogress uwtable
define linkonce_odr dso_local void @_ZNSt12__shared_ptrIKN7testing8internal2REELN9__gnu_cxx12_Lock_policyE2EEC2IS3_vEEPT_(ptr noundef nonnull align 8 dereferenceable(16) %this, ptr noundef %__p) unnamed_addr #4 comdat align 2 {
entry:
  %this.addr = alloca ptr, align 8
  %__p.addr = alloca ptr, align 8
  store ptr %this, ptr %this.addr, align 8
  store ptr %__p, ptr %__p.addr, align 8
  %this1 = load ptr, ptr %this.addr, align 8
  %_M_ptr = getelementptr inbounds %"class.std::__shared_ptr", ptr %this1, i32 0, i32 0
  %0 = load ptr, ptr %__p.addr, align 8
  store ptr %0, ptr %_M_ptr, align 8
  %_M_refcount = getelementptr inbounds %"class.std::__shared_ptr", ptr %this1, i32 0, i32 1
  %1 = load ptr, ptr %__p.addr, align 8
  call void @_ZNSt14__shared_countILN9__gnu_cxx12_Lock_policyE2EEC2IPKN7testing8internal2REEEET_St17integral_constantIbLb0EE(ptr noundef nonnull align 8 dereferenceable(8) %_M_refcount, ptr noundef %1)
  %2 = load ptr, ptr %__p.addr, align 8
  call void @_ZNSt12__shared_ptrIKN7testing8internal2REELN9__gnu_cxx12_Lock_policyE2EE31_M_enable_shared_from_this_withIS3_S2_EENSt9enable_ifIXntsr15__has_esft_baseIT0_EE5valueEvE4typeEPT_(ptr noundef nonnull align 8 dereferenceable(16) %this1, ptr noundef %2) #3
  ret void
}

; Function Attrs: mustprogress uwtable
define linkonce_odr dso_local void @_ZNSt14__shared_countILN9__gnu_cxx12_Lock_policyE2EEC2IPKN7testing8internal2REEEET_St17integral_constantIbLb0EE(ptr noundef nonnull align 8 dereferenceable(8) %this, ptr noundef %__p) unnamed_addr #4 comdat align 2 {
entry:
  %this.addr = alloca ptr, align 8
  %__p.addr = alloca ptr, align 8
  store ptr %this, ptr %this.addr, align 8
  store ptr %__p, ptr %__p.addr, align 8
  %this1 = load ptr, ptr %this.addr, align 8
  %0 = load ptr, ptr %__p.addr, align 8
  call void @_ZNSt14__shared_countILN9__gnu_cxx12_Lock_policyE2EEC2IPKN7testing8internal2REEEET_(ptr noundef nonnull align 8 dereferenceable(8) %this1, ptr noundef %0)
  ret void
}

; Function Attrs: mustprogress nounwind uwtable
define linkonce_odr dso_local void @_ZNSt12__shared_ptrIKN7testing8internal2REELN9__gnu_cxx12_Lock_policyE2EE31_M_enable_shared_from_this_withIS3_S2_EENSt9enable_ifIXntsr15__has_esft_baseIT0_EE5valueEvE4typeEPT_(ptr noundef nonnull align 8 dereferenceable(16) %this, ptr noundef %0) #6 comdat align 2 {
entry:
  %this.addr = alloca ptr, align 8
  %.addr = alloca ptr, align 8
  store ptr %this, ptr %this.addr, align 8
  store ptr %0, ptr %.addr, align 8
  ret void
}

; Function Attrs: mustprogress uwtable
define linkonce_odr dso_local void @_ZNSt14__shared_countILN9__gnu_cxx12_Lock_policyE2EEC2IPKN7testing8internal2REEEET_(ptr noundef nonnull align 8 dereferenceable(8) %this, ptr noundef %__p) unnamed_addr #4 comdat align 2 personality ptr @__gxx_personality_v0 {
entry:
  %this.addr = alloca ptr, align 8
  %__p.addr = alloca ptr, align 8
  %exn.slot = alloca ptr, align 8
  %ehselector.slot = alloca i32, align 4
  store ptr %this, ptr %this.addr, align 8
  store ptr %__p, ptr %__p.addr, align 8
  %this1 = load ptr, ptr %this.addr, align 8
  %_M_pi = getelementptr inbounds %"class.std::__shared_count", ptr %this1, i32 0, i32 0
  store ptr null, ptr %_M_pi, align 8
  %call = invoke noalias noundef nonnull ptr @_Znwm(i64 noundef 24) #17
          to label %invoke.cont unwind label %lpad

invoke.cont:                                      ; preds = %entry
  %0 = load ptr, ptr %__p.addr, align 8
  call void @_ZNSt15_Sp_counted_ptrIPKN7testing8internal2REELN9__gnu_cxx12_Lock_policyE2EEC2ES4_(ptr noundef nonnull align 8 dereferenceable(24) %call, ptr noundef %0) #3
  %_M_pi2 = getelementptr inbounds %"class.std::__shared_count", ptr %this1, i32 0, i32 0
  store ptr %call, ptr %_M_pi2, align 8
  br label %try.cont

lpad:                                             ; preds = %entry
  %1 = landingpad { ptr, i32 }
          catch ptr null
  %2 = extractvalue { ptr, i32 } %1, 0
  store ptr %2, ptr %exn.slot, align 8
  %3 = extractvalue { ptr, i32 } %1, 1
  store i32 %3, ptr %ehselector.slot, align 4
  br label %catch

catch:                                            ; preds = %lpad
  %exn = load ptr, ptr %exn.slot, align 8
  %4 = call ptr @__cxa_begin_catch(ptr %exn) #3
  %5 = load ptr, ptr %__p.addr, align 8
  %isnull = icmp eq ptr %5, null
  br i1 %isnull, label %delete.end, label %delete.notnull

delete.notnull:                                   ; preds = %catch
  call void @_ZN7testing8internal2RED1Ev(ptr noundef nonnull align 8 dereferenceable(168) %5) #3
  call void @_ZdlPv(ptr noundef %5) #18
  br label %delete.end

delete.end:                                       ; preds = %delete.notnull, %catch
  invoke void @__cxa_rethrow() #19
          to label %unreachable unwind label %lpad3

lpad3:                                            ; preds = %delete.end
  %6 = landingpad { ptr, i32 }
          cleanup
  %7 = extractvalue { ptr, i32 } %6, 0
  store ptr %7, ptr %exn.slot, align 8
  %8 = extractvalue { ptr, i32 } %6, 1
  store i32 %8, ptr %ehselector.slot, align 4
  invoke void @__cxa_end_catch()
          to label %invoke.cont4 unwind label %terminate.lpad

invoke.cont4:                                     ; preds = %lpad3
  br label %eh.resume

try.cont:                                         ; preds = %invoke.cont
  ret void

eh.resume:                                        ; preds = %invoke.cont4
  %exn5 = load ptr, ptr %exn.slot, align 8
  %sel = load i32, ptr %ehselector.slot, align 4
  %lpad.val = insertvalue { ptr, i32 } poison, ptr %exn5, 0
  %lpad.val6 = insertvalue { ptr, i32 } %lpad.val, i32 %sel, 1
  resume { ptr, i32 } %lpad.val6

terminate.lpad:                                   ; preds = %lpad3
  %9 = landingpad { ptr, i32 }
          catch ptr null
  %10 = extractvalue { ptr, i32 } %9, 0
  call void @__clang_call_terminate(ptr %10) #20
  unreachable

unreachable:                                      ; preds = %delete.end
  unreachable
}

; Function Attrs: mustprogress nounwind uwtable
define linkonce_odr dso_local void @_ZNSt15_Sp_counted_ptrIPKN7testing8internal2REELN9__gnu_cxx12_Lock_policyE2EEC2ES4_(ptr noundef nonnull align 8 dereferenceable(24) %this, ptr noundef %__p) unnamed_addr #6 comdat align 2 {
entry:
  %this.addr = alloca ptr, align 8
  %__p.addr = alloca ptr, align 8
  store ptr %this, ptr %this.addr, align 8
  store ptr %__p, ptr %__p.addr, align 8
  %this1 = load ptr, ptr %this.addr, align 8
  call void @_ZNSt16_Sp_counted_baseILN9__gnu_cxx12_Lock_policyE2EEC2Ev(ptr noundef nonnull align 8 dereferenceable(16) %this1) #3
  store ptr getelementptr inbounds ({ [7 x ptr] }, ptr @_ZTVSt15_Sp_counted_ptrIPKN7testing8internal2REELN9__gnu_cxx12_Lock_policyE2EE, i32 0, inrange i32 0, i32 2), ptr %this1, align 8
  %_M_ptr = getelementptr inbounds %"class.std::_Sp_counted_ptr", ptr %this1, i32 0, i32 1
  %0 = load ptr, ptr %__p.addr, align 8
  store ptr %0, ptr %_M_ptr, align 8
  ret void
}

; Function Attrs: nounwind
declare void @_ZN7testing8internal2RED1Ev(ptr noundef nonnull align 8 dereferenceable(168)) unnamed_addr #2

declare void @__cxa_rethrow()

; Function Attrs: mustprogress nounwind uwtable
define linkonce_odr dso_local void @_ZNSt16_Sp_counted_baseILN9__gnu_cxx12_Lock_policyE2EEC2Ev(ptr noundef nonnull align 8 dereferenceable(16) %this) unnamed_addr #6 comdat align 2 {
entry:
  %this.addr = alloca ptr, align 8
  store ptr %this, ptr %this.addr, align 8
  %this1 = load ptr, ptr %this.addr, align 8
  store ptr getelementptr inbounds ({ [7 x ptr] }, ptr @_ZTVSt16_Sp_counted_baseILN9__gnu_cxx12_Lock_policyE2EE, i32 0, inrange i32 0, i32 2), ptr %this1, align 8
  %_M_use_count = getelementptr inbounds %"class.std::_Sp_counted_base", ptr %this1, i32 0, i32 1
  store i32 1, ptr %_M_use_count, align 8
  %_M_weak_count = getelementptr inbounds %"class.std::_Sp_counted_base", ptr %this1, i32 0, i32 2
  store i32 1, ptr %_M_weak_count, align 4
  ret void
}

; Function Attrs: mustprogress nounwind uwtable
define linkonce_odr dso_local void @_ZNSt15_Sp_counted_ptrIPKN7testing8internal2REELN9__gnu_cxx12_Lock_policyE2EED2Ev(ptr noundef nonnull align 8 dereferenceable(24) %this) unnamed_addr #6 comdat align 2 {
entry:
  %this.addr = alloca ptr, align 8
  store ptr %this, ptr %this.addr, align 8
  %this1 = load ptr, ptr %this.addr, align 8
  call void @_ZNSt16_Sp_counted_baseILN9__gnu_cxx12_Lock_policyE2EED2Ev(ptr noundef nonnull align 8 dereferenceable(16) %this1) #3
  ret void
}

; Function Attrs: mustprogress nounwind uwtable
define linkonce_odr dso_local void @_ZNSt15_Sp_counted_ptrIPKN7testing8internal2REELN9__gnu_cxx12_Lock_policyE2EED0Ev(ptr noundef nonnull align 8 dereferenceable(24) %this) unnamed_addr #6 comdat align 2 {
entry:
  %this.addr = alloca ptr, align 8
  store ptr %this, ptr %this.addr, align 8
  %this1 = load ptr, ptr %this.addr, align 8
  call void @_ZNSt15_Sp_counted_ptrIPKN7testing8internal2REELN9__gnu_cxx12_Lock_policyE2EED2Ev(ptr noundef nonnull align 8 dereferenceable(24) %this1) #3
  call void @_ZdlPv(ptr noundef %this1) #18
  ret void
}

; Function Attrs: mustprogress nounwind uwtable
define linkonce_odr dso_local void @_ZNSt15_Sp_counted_ptrIPKN7testing8internal2REELN9__gnu_cxx12_Lock_policyE2EE10_M_disposeEv(ptr noundef nonnull align 8 dereferenceable(24) %this) unnamed_addr #6 comdat align 2 {
entry:
  %this.addr = alloca ptr, align 8
  store ptr %this, ptr %this.addr, align 8
  %this1 = load ptr, ptr %this.addr, align 8
  %_M_ptr = getelementptr inbounds %"class.std::_Sp_counted_ptr", ptr %this1, i32 0, i32 1
  %0 = load ptr, ptr %_M_ptr, align 8
  %isnull = icmp eq ptr %0, null
  br i1 %isnull, label %delete.end, label %delete.notnull

delete.notnull:                                   ; preds = %entry
  call void @_ZN7testing8internal2RED1Ev(ptr noundef nonnull align 8 dereferenceable(168) %0) #3
  call void @_ZdlPv(ptr noundef %0) #18
  br label %delete.end

delete.end:                                       ; preds = %delete.notnull, %entry
  ret void
}

; Function Attrs: mustprogress nounwind uwtable
define linkonce_odr dso_local void @_ZNSt15_Sp_counted_ptrIPKN7testing8internal2REELN9__gnu_cxx12_Lock_policyE2EE10_M_destroyEv(ptr noundef nonnull align 8 dereferenceable(24) %this) unnamed_addr #6 comdat align 2 {
entry:
  %this.addr = alloca ptr, align 8
  store ptr %this, ptr %this.addr, align 8
  %this1 = load ptr, ptr %this.addr, align 8
  %isnull = icmp eq ptr %this1, null
  br i1 %isnull, label %delete.end, label %delete.notnull

delete.notnull:                                   ; preds = %entry
  call void @_ZNSt15_Sp_counted_ptrIPKN7testing8internal2REELN9__gnu_cxx12_Lock_policyE2EED2Ev(ptr noundef nonnull align 8 dereferenceable(24) %this1) #3
  call void @_ZdlPv(ptr noundef %this1) #18
  br label %delete.end

delete.end:                                       ; preds = %delete.notnull, %entry
  ret void
}

; Function Attrs: mustprogress nounwind uwtable
define linkonce_odr dso_local noundef ptr @_ZNSt15_Sp_counted_ptrIPKN7testing8internal2REELN9__gnu_cxx12_Lock_policyE2EE14_M_get_deleterERKSt9type_info(ptr noundef nonnull align 8 dereferenceable(24) %this, ptr noundef nonnull align 8 dereferenceable(16) %0) unnamed_addr #6 comdat align 2 {
entry:
  %this.addr = alloca ptr, align 8
  %.addr = alloca ptr, align 8
  store ptr %this, ptr %this.addr, align 8
  store ptr %0, ptr %.addr, align 8
  ret ptr null
}

; Function Attrs: mustprogress nounwind uwtable
define linkonce_odr dso_local void @_ZNSt16_Sp_counted_baseILN9__gnu_cxx12_Lock_policyE2EED2Ev(ptr noundef nonnull align 8 dereferenceable(16) %this) unnamed_addr #6 comdat align 2 {
entry:
  %this.addr = alloca ptr, align 8
  store ptr %this, ptr %this.addr, align 8
  ret void
}

; Function Attrs: mustprogress nounwind uwtable
define linkonce_odr dso_local void @_ZNSt16_Sp_counted_baseILN9__gnu_cxx12_Lock_policyE2EED0Ev(ptr noundef nonnull align 8 dereferenceable(16) %this) unnamed_addr #6 comdat align 2 {
entry:
  %this.addr = alloca ptr, align 8
  store ptr %this, ptr %this.addr, align 8
  call void @llvm.trap() #20
  unreachable
}

; Function Attrs: mustprogress nounwind uwtable
define linkonce_odr dso_local void @_ZNSt16_Sp_counted_baseILN9__gnu_cxx12_Lock_policyE2EE10_M_destroyEv(ptr noundef nonnull align 8 dereferenceable(16) %this) unnamed_addr #6 comdat align 2 {
entry:
  %this.addr = alloca ptr, align 8
  store ptr %this, ptr %this.addr, align 8
  %this1 = load ptr, ptr %this.addr, align 8
  %isnull = icmp eq ptr %this1, null
  br i1 %isnull, label %delete.end, label %delete.notnull

delete.notnull:                                   ; preds = %entry
  %vtable = load ptr, ptr %this1, align 8
  %vfn = getelementptr inbounds ptr, ptr %vtable, i64 1
  %0 = load ptr, ptr %vfn, align 8
  call void %0(ptr noundef nonnull align 8 dereferenceable(16) %this1) #3
  br label %delete.end

delete.end:                                       ; preds = %delete.notnull, %entry
  ret void
}

; Function Attrs: mustprogress nounwind uwtable
define linkonce_odr dso_local void @_ZNSt10shared_ptrIKN7testing8internal2REEED2Ev(ptr noundef nonnull align 8 dereferenceable(16) %this) unnamed_addr #6 comdat align 2 {
entry:
  %this.addr = alloca ptr, align 8
  store ptr %this, ptr %this.addr, align 8
  %this1 = load ptr, ptr %this.addr, align 8
  call void @_ZNSt12__shared_ptrIKN7testing8internal2REELN9__gnu_cxx12_Lock_policyE2EED2Ev(ptr noundef nonnull align 8 dereferenceable(16) %this1) #3
  ret void
}

; Function Attrs: mustprogress nounwind uwtable
define linkonce_odr dso_local void @_ZNSt12__shared_ptrIKN7testing8internal2REELN9__gnu_cxx12_Lock_policyE2EED2Ev(ptr noundef nonnull align 8 dereferenceable(16) %this) unnamed_addr #6 comdat align 2 {
entry:
  %this.addr = alloca ptr, align 8
  store ptr %this, ptr %this.addr, align 8
  %this1 = load ptr, ptr %this.addr, align 8
  %_M_refcount = getelementptr inbounds %"class.std::__shared_ptr", ptr %this1, i32 0, i32 1
  call void @_ZNSt14__shared_countILN9__gnu_cxx12_Lock_policyE2EED2Ev(ptr noundef nonnull align 8 dereferenceable(8) %_M_refcount) #3
  ret void
}

; Function Attrs: mustprogress nounwind uwtable
define linkonce_odr dso_local void @_ZNSt14__shared_countILN9__gnu_cxx12_Lock_policyE2EED2Ev(ptr noundef nonnull align 8 dereferenceable(8) %this) unnamed_addr #6 comdat align 2 {
entry:
  %this.addr = alloca ptr, align 8
  store ptr %this, ptr %this.addr, align 8
  %this1 = load ptr, ptr %this.addr, align 8
  %_M_pi = getelementptr inbounds %"class.std::__shared_count", ptr %this1, i32 0, i32 0
  %0 = load ptr, ptr %_M_pi, align 8
  %cmp = icmp ne ptr %0, null
  br i1 %cmp, label %if.then, label %if.end

if.then:                                          ; preds = %entry
  %_M_pi2 = getelementptr inbounds %"class.std::__shared_count", ptr %this1, i32 0, i32 0
  %1 = load ptr, ptr %_M_pi2, align 8
  call void @_ZNSt16_Sp_counted_baseILN9__gnu_cxx12_Lock_policyE2EE10_M_releaseEv(ptr noundef nonnull align 8 dereferenceable(16) %1) #3
  br label %if.end

if.end:                                           ; preds = %if.then, %entry
  ret void
}

; Function Attrs: mustprogress nounwind uwtable
define linkonce_odr dso_local void @_ZNSt16_Sp_counted_baseILN9__gnu_cxx12_Lock_policyE2EE10_M_releaseEv(ptr noundef nonnull align 8 dereferenceable(16) %this) #6 comdat align 2 personality ptr @__gxx_personality_v0 {
entry:
  %__mem.addr.i11 = alloca ptr, align 8
  %__val.addr.i12 = alloca i32, align 4
  %.atomictmp.i = alloca i32, align 4
  %atomic-temp.i = alloca i32, align 4
  %__mem.addr.i9 = alloca ptr, align 8
  %__val.addr.i10 = alloca i32, align 4
  %__result.i = alloca i32, align 4
  %retval.i = alloca i32, align 4
  %__mem.addr.i = alloca ptr, align 8
  %__val.addr.i = alloca i32, align 4
  %this.addr = alloca ptr, align 8
  %__lock_free = alloca i8, align 1
  %__double_word = alloca i8, align 1
  %__aligned = alloca i8, align 1
  %__wordbits = alloca i32, align 4
  %__shiftbits = alloca i32, align 4
  %__unique_ref = alloca i64, align 8
  %__both_counts = alloca ptr, align 8
  %atomic-temp = alloca i64, align 8
  store ptr %this, ptr %this.addr, align 8
  %this1 = load ptr, ptr %this.addr, align 8
  store i8 1, ptr %__lock_free, align 1
  store i8 1, ptr %__double_word, align 1
  store i8 1, ptr %__aligned, align 1
  store i32 32, ptr %__wordbits, align 4
  store i32 32, ptr %__shiftbits, align 4
  store i64 4294967297, ptr %__unique_ref, align 8
  %_M_use_count = getelementptr inbounds %"class.std::_Sp_counted_base", ptr %this1, i32 0, i32 1
  store ptr %_M_use_count, ptr %__both_counts, align 8
  %0 = load ptr, ptr %__both_counts, align 8
  %1 = load atomic i64, ptr %0 acquire, align 8
  store i64 %1, ptr %atomic-temp, align 8
  %2 = load i64, ptr %atomic-temp, align 8
  %cmp = icmp eq i64 %2, 4294967297
  br i1 %cmp, label %if.then, label %if.end

if.then:                                          ; preds = %entry
  %_M_use_count2 = getelementptr inbounds %"class.std::_Sp_counted_base", ptr %this1, i32 0, i32 1
  store i32 0, ptr %_M_use_count2, align 8
  %_M_weak_count = getelementptr inbounds %"class.std::_Sp_counted_base", ptr %this1, i32 0, i32 2
  store i32 0, ptr %_M_weak_count, align 4
  %vtable = load ptr, ptr %this1, align 8
  %vfn = getelementptr inbounds ptr, ptr %vtable, i64 2
  %3 = load ptr, ptr %vfn, align 8
  call void %3(ptr noundef nonnull align 8 dereferenceable(16) %this1) #3
  %vtable3 = load ptr, ptr %this1, align 8
  %vfn4 = getelementptr inbounds ptr, ptr %vtable3, i64 3
  %4 = load ptr, ptr %vfn4, align 8
  call void %4(ptr noundef nonnull align 8 dereferenceable(16) %this1) #3
  br label %if.end8

if.end:                                           ; preds = %entry
  %_M_use_count5 = getelementptr inbounds %"class.std::_Sp_counted_base", ptr %this1, i32 0, i32 1
  store ptr %_M_use_count5, ptr %__mem.addr.i, align 8
  store i32 -1, ptr %__val.addr.i, align 4
  %5 = load i8, ptr @__libc_single_threaded, align 1
  %tobool.i.i = icmp ne i8 %5, 0
  br i1 %tobool.i.i, label %if.then.i, label %if.else.i

if.then.i:                                        ; preds = %if.end
  %6 = load ptr, ptr %__mem.addr.i, align 8
  %7 = load i32, ptr %__val.addr.i, align 4
  store ptr %6, ptr %__mem.addr.i9, align 8
  store i32 %7, ptr %__val.addr.i10, align 4
  %8 = load ptr, ptr %__mem.addr.i9, align 8
  %9 = load i32, ptr %8, align 4
  store i32 %9, ptr %__result.i, align 4
  %10 = load i32, ptr %__val.addr.i10, align 4
  %11 = load ptr, ptr %__mem.addr.i9, align 8
  %12 = load i32, ptr %11, align 4
  %add.i = add nsw i32 %12, %10
  store i32 %add.i, ptr %11, align 4
  %13 = load i32, ptr %__result.i, align 4
  store i32 %13, ptr %retval.i, align 4
  br label %_ZN9__gnu_cxx27__exchange_and_add_dispatchEPii.exit

if.else.i:                                        ; preds = %if.end
  %14 = load ptr, ptr %__mem.addr.i, align 8
  %15 = load i32, ptr %__val.addr.i, align 4
  store ptr %14, ptr %__mem.addr.i11, align 8
  store i32 %15, ptr %__val.addr.i12, align 4
  %16 = load ptr, ptr %__mem.addr.i11, align 8
  %17 = load i32, ptr %__val.addr.i12, align 4
  store i32 %17, ptr %.atomictmp.i, align 4
  %18 = load i32, ptr %.atomictmp.i, align 4
  %19 = atomicrmw volatile add ptr %16, i32 %18 acq_rel, align 4
  store i32 %19, ptr %atomic-temp.i, align 4
  %20 = load i32, ptr %atomic-temp.i, align 4
  store i32 %20, ptr %retval.i, align 4
  br label %_ZN9__gnu_cxx27__exchange_and_add_dispatchEPii.exit

_ZN9__gnu_cxx27__exchange_and_add_dispatchEPii.exit: ; preds = %if.else.i, %if.then.i
  %21 = load i32, ptr %retval.i, align 4
  br label %invoke.cont

invoke.cont:                                      ; preds = %_ZN9__gnu_cxx27__exchange_and_add_dispatchEPii.exit
  %cmp6 = icmp eq i32 %21, 1
  br i1 %cmp6, label %if.then7, label %if.end8

if.then7:                                         ; preds = %invoke.cont
  call void @_ZNSt16_Sp_counted_baseILN9__gnu_cxx12_Lock_policyE2EE24_M_release_last_use_coldEv(ptr noundef nonnull align 8 dereferenceable(16) %this1) #3
  br label %if.end8

if.end8:                                          ; preds = %if.then7, %invoke.cont, %if.then
  ret void

terminate.lpad:                                   ; No predecessors!
  %22 = landingpad { ptr, i32 }
          catch ptr null
  %23 = extractvalue { ptr, i32 } %22, 0
  call void @__clang_call_terminate(ptr %23) #20
  unreachable
}

; Function Attrs: mustprogress nounwind uwtable
define linkonce_odr dso_local void @_ZNSt16_Sp_counted_baseILN9__gnu_cxx12_Lock_policyE2EE24_M_release_last_use_coldEv(ptr noundef nonnull align 8 dereferenceable(16) %this) #6 comdat align 2 {
entry:
  %this.addr = alloca ptr, align 8
  store ptr %this, ptr %this.addr, align 8
  %this1 = load ptr, ptr %this.addr, align 8
  call void @_ZNSt16_Sp_counted_baseILN9__gnu_cxx12_Lock_policyE2EE19_M_release_last_useEv(ptr noundef nonnull align 8 dereferenceable(16) %this1) #3
  ret void
}

; Function Attrs: mustprogress nounwind uwtable
define linkonce_odr dso_local void @_ZNSt16_Sp_counted_baseILN9__gnu_cxx12_Lock_policyE2EE19_M_release_last_useEv(ptr noundef nonnull align 8 dereferenceable(16) %this) #6 comdat align 2 personality ptr @__gxx_personality_v0 {
entry:
  %__mem.addr.i6 = alloca ptr, align 8
  %__val.addr.i7 = alloca i32, align 4
  %.atomictmp.i = alloca i32, align 4
  %atomic-temp.i = alloca i32, align 4
  %__mem.addr.i4 = alloca ptr, align 8
  %__val.addr.i5 = alloca i32, align 4
  %__result.i = alloca i32, align 4
  %retval.i = alloca i32, align 4
  %__mem.addr.i = alloca ptr, align 8
  %__val.addr.i = alloca i32, align 4
  %this.addr = alloca ptr, align 8
  store ptr %this, ptr %this.addr, align 8
  %this1 = load ptr, ptr %this.addr, align 8
  %vtable = load ptr, ptr %this1, align 8
  %vfn = getelementptr inbounds ptr, ptr %vtable, i64 2
  %0 = load ptr, ptr %vfn, align 8
  call void %0(ptr noundef nonnull align 8 dereferenceable(16) %this1) #3
  %_M_weak_count = getelementptr inbounds %"class.std::_Sp_counted_base", ptr %this1, i32 0, i32 2
  store ptr %_M_weak_count, ptr %__mem.addr.i, align 8
  store i32 -1, ptr %__val.addr.i, align 4
  %1 = load i8, ptr @__libc_single_threaded, align 1
  %tobool.i.i = icmp ne i8 %1, 0
  br i1 %tobool.i.i, label %if.then.i, label %if.else.i

if.then.i:                                        ; preds = %entry
  %2 = load ptr, ptr %__mem.addr.i, align 8
  %3 = load i32, ptr %__val.addr.i, align 4
  store ptr %2, ptr %__mem.addr.i4, align 8
  store i32 %3, ptr %__val.addr.i5, align 4
  %4 = load ptr, ptr %__mem.addr.i4, align 8
  %5 = load i32, ptr %4, align 4
  store i32 %5, ptr %__result.i, align 4
  %6 = load i32, ptr %__val.addr.i5, align 4
  %7 = load ptr, ptr %__mem.addr.i4, align 8
  %8 = load i32, ptr %7, align 4
  %add.i = add nsw i32 %8, %6
  store i32 %add.i, ptr %7, align 4
  %9 = load i32, ptr %__result.i, align 4
  store i32 %9, ptr %retval.i, align 4
  br label %_ZN9__gnu_cxx27__exchange_and_add_dispatchEPii.exit

if.else.i:                                        ; preds = %entry
  %10 = load ptr, ptr %__mem.addr.i, align 8
  %11 = load i32, ptr %__val.addr.i, align 4
  store ptr %10, ptr %__mem.addr.i6, align 8
  store i32 %11, ptr %__val.addr.i7, align 4
  %12 = load ptr, ptr %__mem.addr.i6, align 8
  %13 = load i32, ptr %__val.addr.i7, align 4
  store i32 %13, ptr %.atomictmp.i, align 4
  %14 = load i32, ptr %.atomictmp.i, align 4
  %15 = atomicrmw volatile add ptr %12, i32 %14 acq_rel, align 4
  store i32 %15, ptr %atomic-temp.i, align 4
  %16 = load i32, ptr %atomic-temp.i, align 4
  store i32 %16, ptr %retval.i, align 4
  br label %_ZN9__gnu_cxx27__exchange_and_add_dispatchEPii.exit

_ZN9__gnu_cxx27__exchange_and_add_dispatchEPii.exit: ; preds = %if.else.i, %if.then.i
  %17 = load i32, ptr %retval.i, align 4
  br label %invoke.cont

invoke.cont:                                      ; preds = %_ZN9__gnu_cxx27__exchange_and_add_dispatchEPii.exit
  %cmp = icmp eq i32 %17, 1
  br i1 %cmp, label %if.then, label %if.end

if.then:                                          ; preds = %invoke.cont
  %vtable2 = load ptr, ptr %this1, align 8
  %vfn3 = getelementptr inbounds ptr, ptr %vtable2, i64 3
  %18 = load ptr, ptr %vfn3, align 8
  call void %18(ptr noundef nonnull align 8 dereferenceable(16) %this1) #3
  br label %if.end

if.end:                                           ; preds = %if.then, %invoke.cont
  ret void

terminate.lpad:                                   ; No predecessors!
  %19 = landingpad { ptr, i32 }
          catch ptr null
  %20 = extractvalue { ptr, i32 } %19, 0
  call void @__clang_call_terminate(ptr %20) #20
  unreachable
}

; Function Attrs: nounwind
declare void @_ZNSt7__cxx1112basic_stringIcSt11char_traitsIcESaIcEEC1Ev(ptr noundef nonnull align 8 dereferenceable(32)) unnamed_addr #2

declare void @_ZN7testing8internal2RE4InitEPKc(ptr noundef nonnull align 8 dereferenceable(168), ptr noundef) #1

; Function Attrs: mustprogress nounwind uwtable
define linkonce_odr dso_local void @_ZN7testing18PolymorphicMatcherINS_8internal19MatchesRegexMatcherEE15MonomorphicImplIRKNSt7__cxx1112basic_stringIcSt11char_traitsIcESaIcEEEEC2ERKS2_(ptr noundef nonnull align 8 dereferenceable(32) %this, ptr noundef nonnull align 8 dereferenceable(17) %impl) unnamed_addr #6 comdat align 2 {
entry:
  %this.addr = alloca ptr, align 8
  %impl.addr = alloca ptr, align 8
  store ptr %this, ptr %this.addr, align 8
  store ptr %impl, ptr %impl.addr, align 8
  %this1 = load ptr, ptr %this.addr, align 8
  call void @_ZN7testing16MatcherInterfaceIRKNSt7__cxx1112basic_stringIcSt11char_traitsIcESaIcEEEEC2Ev(ptr noundef nonnull align 8 dereferenceable(8) %this1) #3
  store ptr getelementptr inbounds ({ [7 x ptr] }, ptr @_ZTVN7testing18PolymorphicMatcherINS_8internal19MatchesRegexMatcherEE15MonomorphicImplIRKNSt7__cxx1112basic_stringIcSt11char_traitsIcESaIcEEEEE, i32 0, inrange i32 0, i32 2), ptr %this1, align 8
  %impl_ = getelementptr inbounds %"class.testing::PolymorphicMatcher<testing::internal::MatchesRegexMatcher>::MonomorphicImpl", ptr %this1, i32 0, i32 1
  %0 = load ptr, ptr %impl.addr, align 8
  call void @_ZN7testing8internal19MatchesRegexMatcherC2ERKS1_(ptr noundef nonnull align 8 dereferenceable(17) %impl_, ptr noundef nonnull align 8 dereferenceable(17) %0) #3
  ret void
}

; Function Attrs: mustprogress uwtable
define linkonce_odr dso_local void @_ZN7testing7MatcherIRKNSt7__cxx1112basic_stringIcSt11char_traitsIcESaIcEEEEC2EPKNS_16MatcherInterfaceIS8_EE(ptr noundef nonnull align 8 dereferenceable(24) %this, ptr noundef %impl) unnamed_addr #4 comdat align 2 {
entry:
  %this.addr = alloca ptr, align 8
  %impl.addr = alloca ptr, align 8
  store ptr %this, ptr %this.addr, align 8
  store ptr %impl, ptr %impl.addr, align 8
  %this1 = load ptr, ptr %this.addr, align 8
  %0 = load ptr, ptr %impl.addr, align 8
  call void @_ZN7testing8internal11MatcherBaseIRKNSt7__cxx1112basic_stringIcSt11char_traitsIcESaIcEEEEC2IS9_EEPKNS_16MatcherInterfaceIT_EE(ptr noundef nonnull align 8 dereferenceable(24) %this1, ptr noundef %0)
  store ptr getelementptr inbounds ({ [6 x ptr] }, ptr @_ZTVN7testing7MatcherIRKNSt7__cxx1112basic_stringIcSt11char_traitsIcESaIcEEEEE, i32 0, inrange i32 0, i32 2), ptr %this1, align 8
  ret void
}

; Function Attrs: mustprogress nounwind uwtable
define linkonce_odr dso_local void @_ZN7testing16MatcherInterfaceIRKNSt7__cxx1112basic_stringIcSt11char_traitsIcESaIcEEEEC2Ev(ptr noundef nonnull align 8 dereferenceable(8) %this) unnamed_addr #6 comdat align 2 {
entry:
  %this.addr = alloca ptr, align 8
  store ptr %this, ptr %this.addr, align 8
  %this1 = load ptr, ptr %this.addr, align 8
  call void @_ZN7testing25MatcherDescriberInterfaceC2Ev(ptr noundef nonnull align 8 dereferenceable(8) %this1) #3
  store ptr getelementptr inbounds ({ [7 x ptr] }, ptr @_ZTVN7testing16MatcherInterfaceIRKNSt7__cxx1112basic_stringIcSt11char_traitsIcESaIcEEEEE, i32 0, inrange i32 0, i32 2), ptr %this1, align 8
  ret void
}

; Function Attrs: mustprogress nounwind uwtable
define linkonce_odr dso_local void @_ZN7testing18PolymorphicMatcherINS_8internal19MatchesRegexMatcherEE15MonomorphicImplIRKNSt7__cxx1112basic_stringIcSt11char_traitsIcESaIcEEEED2Ev(ptr noundef nonnull align 8 dereferenceable(32) %this) unnamed_addr #6 comdat align 2 {
entry:
  %this.addr = alloca ptr, align 8
  store ptr %this, ptr %this.addr, align 8
  %this1 = load ptr, ptr %this.addr, align 8
  store ptr getelementptr inbounds ({ [7 x ptr] }, ptr @_ZTVN7testing18PolymorphicMatcherINS_8internal19MatchesRegexMatcherEE15MonomorphicImplIRKNSt7__cxx1112basic_stringIcSt11char_traitsIcESaIcEEEEE, i32 0, inrange i32 0, i32 2), ptr %this1, align 8
  %impl_ = getelementptr inbounds %"class.testing::PolymorphicMatcher<testing::internal::MatchesRegexMatcher>::MonomorphicImpl", ptr %this1, i32 0, i32 1
  call void @_ZN7testing8internal19MatchesRegexMatcherD2Ev(ptr noundef nonnull align 8 dereferenceable(17) %impl_) #3
  call void @_ZN7testing16MatcherInterfaceIRKNSt7__cxx1112basic_stringIcSt11char_traitsIcESaIcEEEED2Ev(ptr noundef nonnull align 8 dereferenceable(8) %this1) #3
  ret void
}

; Function Attrs: mustprogress nounwind uwtable
define linkonce_odr dso_local void @_ZN7testing18PolymorphicMatcherINS_8internal19MatchesRegexMatcherEE15MonomorphicImplIRKNSt7__cxx1112basic_stringIcSt11char_traitsIcESaIcEEEED0Ev(ptr noundef nonnull align 8 dereferenceable(32) %this) unnamed_addr #6 comdat align 2 {
entry:
  %this.addr = alloca ptr, align 8
  store ptr %this, ptr %this.addr, align 8
  %this1 = load ptr, ptr %this.addr, align 8
  call void @_ZN7testing18PolymorphicMatcherINS_8internal19MatchesRegexMatcherEE15MonomorphicImplIRKNSt7__cxx1112basic_stringIcSt11char_traitsIcESaIcEEEED2Ev(ptr noundef nonnull align 8 dereferenceable(32) %this1) #3
  call void @_ZdlPv(ptr noundef %this1) #18
  ret void
}

; Function Attrs: mustprogress uwtable
define linkonce_odr dso_local void @_ZNK7testing18PolymorphicMatcherINS_8internal19MatchesRegexMatcherEE15MonomorphicImplIRKNSt7__cxx1112basic_stringIcSt11char_traitsIcESaIcEEEE10DescribeToEPSo(ptr noundef nonnull align 8 dereferenceable(32) %this, ptr noundef %os) unnamed_addr #4 comdat align 2 {
entry:
  %this.addr = alloca ptr, align 8
  %os.addr = alloca ptr, align 8
  store ptr %this, ptr %this.addr, align 8
  store ptr %os, ptr %os.addr, align 8
  %this1 = load ptr, ptr %this.addr, align 8
  %impl_ = getelementptr inbounds %"class.testing::PolymorphicMatcher<testing::internal::MatchesRegexMatcher>::MonomorphicImpl", ptr %this1, i32 0, i32 1
  %0 = load ptr, ptr %os.addr, align 8
  call void @_ZNK7testing8internal19MatchesRegexMatcher10DescribeToEPSo(ptr noundef nonnull align 8 dereferenceable(17) %impl_, ptr noundef %0)
  ret void
}

; Function Attrs: mustprogress uwtable
define linkonce_odr dso_local void @_ZNK7testing18PolymorphicMatcherINS_8internal19MatchesRegexMatcherEE15MonomorphicImplIRKNSt7__cxx1112basic_stringIcSt11char_traitsIcESaIcEEEE18DescribeNegationToEPSo(ptr noundef nonnull align 8 dereferenceable(32) %this, ptr noundef %os) unnamed_addr #4 comdat align 2 {
entry:
  %this.addr = alloca ptr, align 8
  %os.addr = alloca ptr, align 8
  store ptr %this, ptr %this.addr, align 8
  store ptr %os, ptr %os.addr, align 8
  %this1 = load ptr, ptr %this.addr, align 8
  %impl_ = getelementptr inbounds %"class.testing::PolymorphicMatcher<testing::internal::MatchesRegexMatcher>::MonomorphicImpl", ptr %this1, i32 0, i32 1
  %0 = load ptr, ptr %os.addr, align 8
  call void @_ZNK7testing8internal19MatchesRegexMatcher18DescribeNegationToEPSo(ptr noundef nonnull align 8 dereferenceable(17) %impl_, ptr noundef %0)
  ret void
}

; Function Attrs: mustprogress uwtable
define linkonce_odr dso_local noundef zeroext i1 @_ZNK7testing18PolymorphicMatcherINS_8internal19MatchesRegexMatcherEE15MonomorphicImplIRKNSt7__cxx1112basic_stringIcSt11char_traitsIcESaIcEEEE15MatchAndExplainESC_PNS_19MatchResultListenerE(ptr noundef nonnull align 8 dereferenceable(32) %this, ptr noundef nonnull align 8 dereferenceable(32) %x, ptr noundef %listener) unnamed_addr #4 comdat align 2 {
entry:
  %this.addr = alloca ptr, align 8
  %x.addr = alloca ptr, align 8
  %listener.addr = alloca ptr, align 8
  store ptr %this, ptr %this.addr, align 8
  store ptr %x, ptr %x.addr, align 8
  store ptr %listener, ptr %listener.addr, align 8
  %this1 = load ptr, ptr %this.addr, align 8
  %impl_ = getelementptr inbounds %"class.testing::PolymorphicMatcher<testing::internal::MatchesRegexMatcher>::MonomorphicImpl", ptr %this1, i32 0, i32 1
  %0 = load ptr, ptr %x.addr, align 8
  %1 = load ptr, ptr %listener.addr, align 8
  %call = call noundef zeroext i1 @_ZNK7testing8internal19MatchesRegexMatcher15MatchAndExplainINSt7__cxx1112basic_stringIcSt11char_traitsIcESaIcEEEEEbRKT_PNS_19MatchResultListenerE(ptr noundef nonnull align 8 dereferenceable(17) %impl_, ptr noundef nonnull align 8 dereferenceable(32) %0, ptr noundef %1)
  ret i1 %call
}

; Function Attrs: mustprogress nounwind uwtable
define linkonce_odr dso_local void @_ZN7testing25MatcherDescriberInterfaceC2Ev(ptr noundef nonnull align 8 dereferenceable(8) %this) unnamed_addr #6 comdat align 2 {
entry:
  %this.addr = alloca ptr, align 8
  store ptr %this, ptr %this.addr, align 8
  %this1 = load ptr, ptr %this.addr, align 8
  store ptr getelementptr inbounds ({ [6 x ptr] }, ptr @_ZTVN7testing25MatcherDescriberInterfaceE, i32 0, inrange i32 0, i32 2), ptr %this1, align 8
  ret void
}

; Function Attrs: mustprogress nounwind uwtable
define linkonce_odr dso_local void @_ZN7testing16MatcherInterfaceIRKNSt7__cxx1112basic_stringIcSt11char_traitsIcESaIcEEEED2Ev(ptr noundef nonnull align 8 dereferenceable(8) %this) unnamed_addr #6 comdat align 2 {
entry:
  %this.addr = alloca ptr, align 8
  store ptr %this, ptr %this.addr, align 8
  %this1 = load ptr, ptr %this.addr, align 8
  call void @_ZN7testing25MatcherDescriberInterfaceD2Ev(ptr noundef nonnull align 8 dereferenceable(8) %this1) #3
  ret void
}

; Function Attrs: mustprogress nounwind uwtable
define linkonce_odr dso_local void @_ZN7testing16MatcherInterfaceIRKNSt7__cxx1112basic_stringIcSt11char_traitsIcESaIcEEEED0Ev(ptr noundef nonnull align 8 dereferenceable(8) %this) unnamed_addr #6 comdat align 2 {
entry:
  %this.addr = alloca ptr, align 8
  store ptr %this, ptr %this.addr, align 8
  call void @llvm.trap() #20
  unreachable
}

; Function Attrs: mustprogress uwtable
define linkonce_odr dso_local void @_ZNK7testing25MatcherDescriberInterface18DescribeNegationToEPSo(ptr noundef nonnull align 8 dereferenceable(8) %this, ptr noundef %os) unnamed_addr #4 comdat align 2 {
entry:
  %this.addr = alloca ptr, align 8
  %os.addr = alloca ptr, align 8
  store ptr %this, ptr %this.addr, align 8
  store ptr %os, ptr %os.addr, align 8
  %this1 = load ptr, ptr %this.addr, align 8
  %0 = load ptr, ptr %os.addr, align 8
  %call = call noundef nonnull align 8 dereferenceable(8) ptr @_ZStlsISt11char_traitsIcEERSt13basic_ostreamIcT_ES5_PKc(ptr noundef nonnull align 8 dereferenceable(8) %0, ptr noundef @.str.16)
  %1 = load ptr, ptr %os.addr, align 8
  %vtable = load ptr, ptr %this1, align 8
  %vfn = getelementptr inbounds ptr, ptr %vtable, i64 2
  %2 = load ptr, ptr %vfn, align 8
  call void %2(ptr noundef nonnull align 8 dereferenceable(8) %this1, ptr noundef %1)
  %3 = load ptr, ptr %os.addr, align 8
  %call2 = call noundef nonnull align 8 dereferenceable(8) ptr @_ZStlsISt11char_traitsIcEERSt13basic_ostreamIcT_ES5_PKc(ptr noundef nonnull align 8 dereferenceable(8) %3, ptr noundef @.str.17)
  ret void
}

; Function Attrs: mustprogress nounwind uwtable
define linkonce_odr dso_local void @_ZN7testing25MatcherDescriberInterfaceD2Ev(ptr noundef nonnull align 8 dereferenceable(8) %this) unnamed_addr #6 comdat align 2 {
entry:
  %this.addr = alloca ptr, align 8
  store ptr %this, ptr %this.addr, align 8
  ret void
}

; Function Attrs: mustprogress nounwind uwtable
define linkonce_odr dso_local void @_ZN7testing25MatcherDescriberInterfaceD0Ev(ptr noundef nonnull align 8 dereferenceable(8) %this) unnamed_addr #6 comdat align 2 {
entry:
  %this.addr = alloca ptr, align 8
  store ptr %this, ptr %this.addr, align 8
  call void @llvm.trap() #20
  unreachable
}

declare noundef nonnull align 8 dereferenceable(8) ptr @_ZStlsISt11char_traitsIcEERSt13basic_ostreamIcT_ES5_PKc(ptr noundef nonnull align 8 dereferenceable(8), ptr noundef) #1

; Function Attrs: mustprogress uwtable
define linkonce_odr dso_local void @_ZNK7testing8internal19MatchesRegexMatcher10DescribeToEPSo(ptr noundef nonnull align 8 dereferenceable(17) %this, ptr noundef %os) #4 comdat align 2 personality ptr @__gxx_personality_v0 {
entry:
  %this.addr = alloca ptr, align 8
  %os.addr = alloca ptr, align 8
  %ref.tmp = alloca %"class.std::__cxx11::basic_string", align 8
  %ref.tmp5 = alloca %"class.std::allocator", align 1
  %exn.slot = alloca ptr, align 8
  %ehselector.slot = alloca i32, align 4
  store ptr %this, ptr %this.addr, align 8
  store ptr %os, ptr %os.addr, align 8
  %this1 = load ptr, ptr %this.addr, align 8
  %0 = load ptr, ptr %os.addr, align 8
  %full_match_ = getelementptr inbounds %"class.testing::internal::MatchesRegexMatcher", ptr %this1, i32 0, i32 1
  %1 = load i8, ptr %full_match_, align 8
  %tobool = trunc i8 %1 to i1
  %cond = select i1 %tobool, ptr @.str.18, ptr @.str.19
  %call = call noundef nonnull align 8 dereferenceable(8) ptr @_ZStlsISt11char_traitsIcEERSt13basic_ostreamIcT_ES5_PKc(ptr noundef nonnull align 8 dereferenceable(8) %0, ptr noundef %cond)
  %call2 = call noundef nonnull align 8 dereferenceable(8) ptr @_ZStlsISt11char_traitsIcEERSt13basic_ostreamIcT_ES5_PKc(ptr noundef nonnull align 8 dereferenceable(8) %call, ptr noundef @.str.20)
  %regex_ = getelementptr inbounds %"class.testing::internal::MatchesRegexMatcher", ptr %this1, i32 0, i32 0
  %call3 = call noundef ptr @_ZNKSt19__shared_ptr_accessIKN7testing8internal2REELN9__gnu_cxx12_Lock_policyE2ELb0ELb0EEptEv(ptr noundef nonnull align 1 dereferenceable(1) %regex_) #3
  %call4 = call noundef ptr @_ZNK7testing8internal2RE7patternEv(ptr noundef nonnull align 8 dereferenceable(168) %call3)
  call void @_ZNSaIcEC1Ev(ptr noundef nonnull align 1 dereferenceable(1) %ref.tmp5) #3
  invoke void @_ZNSt7__cxx1112basic_stringIcSt11char_traitsIcESaIcEEC2IS3_EEPKcRKS3_(ptr noundef nonnull align 8 dereferenceable(32) %ref.tmp, ptr noundef %call4, ptr noundef nonnull align 1 dereferenceable(1) %ref.tmp5)
          to label %invoke.cont unwind label %lpad

invoke.cont:                                      ; preds = %entry
  %2 = load ptr, ptr %os.addr, align 8
  invoke void @_ZN7testing8internal16UniversalPrinterINSt7__cxx1112basic_stringIcSt11char_traitsIcESaIcEEEE5PrintERKS7_PSo(ptr noundef nonnull align 8 dereferenceable(32) %ref.tmp, ptr noundef %2)
          to label %invoke.cont7 unwind label %lpad6

invoke.cont7:                                     ; preds = %invoke.cont
  call void @_ZNSt7__cxx1112basic_stringIcSt11char_traitsIcESaIcEED1Ev(ptr noundef nonnull align 8 dereferenceable(32) %ref.tmp) #3
  call void @_ZNSaIcED1Ev(ptr noundef nonnull align 1 dereferenceable(1) %ref.tmp5) #3
  ret void

lpad:                                             ; preds = %entry
  %3 = landingpad { ptr, i32 }
          cleanup
  %4 = extractvalue { ptr, i32 } %3, 0
  store ptr %4, ptr %exn.slot, align 8
  %5 = extractvalue { ptr, i32 } %3, 1
  store i32 %5, ptr %ehselector.slot, align 4
  br label %ehcleanup

lpad6:                                            ; preds = %invoke.cont
  %6 = landingpad { ptr, i32 }
          cleanup
  %7 = extractvalue { ptr, i32 } %6, 0
  store ptr %7, ptr %exn.slot, align 8
  %8 = extractvalue { ptr, i32 } %6, 1
  store i32 %8, ptr %ehselector.slot, align 4
  call void @_ZNSt7__cxx1112basic_stringIcSt11char_traitsIcESaIcEED1Ev(ptr noundef nonnull align 8 dereferenceable(32) %ref.tmp) #3
  br label %ehcleanup

ehcleanup:                                        ; preds = %lpad6, %lpad
  call void @_ZNSaIcED1Ev(ptr noundef nonnull align 1 dereferenceable(1) %ref.tmp5) #3
  br label %eh.resume

eh.resume:                                        ; preds = %ehcleanup
  %exn = load ptr, ptr %exn.slot, align 8
  %sel = load i32, ptr %ehselector.slot, align 4
  %lpad.val = insertvalue { ptr, i32 } poison, ptr %exn, 0
  %lpad.val8 = insertvalue { ptr, i32 } %lpad.val, i32 %sel, 1
  resume { ptr, i32 } %lpad.val8
}

; Function Attrs: mustprogress uwtable
define linkonce_odr dso_local void @_ZN7testing8internal16UniversalPrinterINSt7__cxx1112basic_stringIcSt11char_traitsIcESaIcEEEE5PrintERKS7_PSo(ptr noundef nonnull align 8 dereferenceable(32) %value, ptr noundef %os) #4 comdat align 2 {
entry:
  %value.addr = alloca ptr, align 8
  %os.addr = alloca ptr, align 8
  store ptr %value, ptr %value.addr, align 8
  store ptr %os, ptr %os.addr, align 8
  %0 = load ptr, ptr %value.addr, align 8
  %1 = load ptr, ptr %os.addr, align 8
  call void @_ZN7testing8internal7PrintToERKNSt7__cxx1112basic_stringIcSt11char_traitsIcESaIcEEEPSo(ptr noundef nonnull align 8 dereferenceable(32) %0, ptr noundef %1)
  ret void
}

; Function Attrs: mustprogress nounwind uwtable
define linkonce_odr dso_local noundef ptr @_ZNKSt19__shared_ptr_accessIKN7testing8internal2REELN9__gnu_cxx12_Lock_policyE2ELb0ELb0EEptEv(ptr noundef nonnull align 1 dereferenceable(1) %this) #6 comdat align 2 {
entry:
  %this.addr = alloca ptr, align 8
  store ptr %this, ptr %this.addr, align 8
  %this1 = load ptr, ptr %this.addr, align 8
  %call = call noundef ptr @_ZNKSt19__shared_ptr_accessIKN7testing8internal2REELN9__gnu_cxx12_Lock_policyE2ELb0ELb0EE6_M_getEv(ptr noundef nonnull align 1 dereferenceable(1) %this1) #3
  ret ptr %call
}

; Function Attrs: mustprogress nounwind uwtable
define linkonce_odr dso_local noundef ptr @_ZNK7testing8internal2RE7patternEv(ptr noundef nonnull align 8 dereferenceable(168) %this) #6 comdat align 2 {
entry:
  %this.addr = alloca ptr, align 8
  store ptr %this, ptr %this.addr, align 8
  %this1 = load ptr, ptr %this.addr, align 8
  %pattern_ = getelementptr inbounds %"class.testing::internal::RE", ptr %this1, i32 0, i32 0
  %call = call noundef ptr @_ZNKSt7__cxx1112basic_stringIcSt11char_traitsIcESaIcEE5c_strEv(ptr noundef nonnull align 8 dereferenceable(32) %pattern_) #3
  ret ptr %call
}

; Function Attrs: mustprogress uwtable
define linkonce_odr dso_local void @_ZN7testing8internal7PrintToERKNSt7__cxx1112basic_stringIcSt11char_traitsIcESaIcEEEPSo(ptr noundef nonnull align 8 dereferenceable(32) %s, ptr noundef %os) #4 comdat {
entry:
  %s.addr = alloca ptr, align 8
  %os.addr = alloca ptr, align 8
  store ptr %s, ptr %s.addr, align 8
  store ptr %os, ptr %os.addr, align 8
  %0 = load ptr, ptr %s.addr, align 8
  %1 = load ptr, ptr %os.addr, align 8
  call void @_ZN7testing8internal13PrintStringToERKNSt7__cxx1112basic_stringIcSt11char_traitsIcESaIcEEEPSo(ptr noundef nonnull align 8 dereferenceable(32) %0, ptr noundef %1)
  ret void
}

declare void @_ZN7testing8internal13PrintStringToERKNSt7__cxx1112basic_stringIcSt11char_traitsIcESaIcEEEPSo(ptr noundef nonnull align 8 dereferenceable(32), ptr noundef) #1

; Function Attrs: mustprogress nounwind uwtable
define linkonce_odr dso_local noundef ptr @_ZNKSt19__shared_ptr_accessIKN7testing8internal2REELN9__gnu_cxx12_Lock_policyE2ELb0ELb0EE6_M_getEv(ptr noundef nonnull align 1 dereferenceable(1) %this) #6 comdat align 2 {
entry:
  %this.addr = alloca ptr, align 8
  store ptr %this, ptr %this.addr, align 8
  %this1 = load ptr, ptr %this.addr, align 8
  %call = call noundef ptr @_ZNKSt12__shared_ptrIKN7testing8internal2REELN9__gnu_cxx12_Lock_policyE2EE3getEv(ptr noundef nonnull align 8 dereferenceable(16) %this1) #3
  ret ptr %call
}

; Function Attrs: mustprogress nounwind uwtable
define linkonce_odr dso_local noundef ptr @_ZNKSt12__shared_ptrIKN7testing8internal2REELN9__gnu_cxx12_Lock_policyE2EE3getEv(ptr noundef nonnull align 8 dereferenceable(16) %this) #6 comdat align 2 {
entry:
  %this.addr = alloca ptr, align 8
  store ptr %this, ptr %this.addr, align 8
  %this1 = load ptr, ptr %this.addr, align 8
  %_M_ptr = getelementptr inbounds %"class.std::__shared_ptr", ptr %this1, i32 0, i32 0
  %0 = load ptr, ptr %_M_ptr, align 8
  ret ptr %0
}

; Function Attrs: mustprogress uwtable
define linkonce_odr dso_local void @_ZNK7testing8internal19MatchesRegexMatcher18DescribeNegationToEPSo(ptr noundef nonnull align 8 dereferenceable(17) %this, ptr noundef %os) #4 comdat align 2 personality ptr @__gxx_personality_v0 {
entry:
  %this.addr = alloca ptr, align 8
  %os.addr = alloca ptr, align 8
  %ref.tmp = alloca %"class.std::__cxx11::basic_string", align 8
  %ref.tmp6 = alloca %"class.std::allocator", align 1
  %exn.slot = alloca ptr, align 8
  %ehselector.slot = alloca i32, align 4
  store ptr %this, ptr %this.addr, align 8
  store ptr %os, ptr %os.addr, align 8
  %this1 = load ptr, ptr %this.addr, align 8
  %0 = load ptr, ptr %os.addr, align 8
  %call = call noundef nonnull align 8 dereferenceable(8) ptr @_ZStlsISt11char_traitsIcEERSt13basic_ostreamIcT_ES5_PKc(ptr noundef nonnull align 8 dereferenceable(8) %0, ptr noundef @.str.21)
  %full_match_ = getelementptr inbounds %"class.testing::internal::MatchesRegexMatcher", ptr %this1, i32 0, i32 1
  %1 = load i8, ptr %full_match_, align 8
  %tobool = trunc i8 %1 to i1
  %cond = select i1 %tobool, ptr @.str.22, ptr @.str.23
  %call2 = call noundef nonnull align 8 dereferenceable(8) ptr @_ZStlsISt11char_traitsIcEERSt13basic_ostreamIcT_ES5_PKc(ptr noundef nonnull align 8 dereferenceable(8) %call, ptr noundef %cond)
  %call3 = call noundef nonnull align 8 dereferenceable(8) ptr @_ZStlsISt11char_traitsIcEERSt13basic_ostreamIcT_ES5_PKc(ptr noundef nonnull align 8 dereferenceable(8) %call2, ptr noundef @.str.20)
  %regex_ = getelementptr inbounds %"class.testing::internal::MatchesRegexMatcher", ptr %this1, i32 0, i32 0
  %call4 = call noundef ptr @_ZNKSt19__shared_ptr_accessIKN7testing8internal2REELN9__gnu_cxx12_Lock_policyE2ELb0ELb0EEptEv(ptr noundef nonnull align 1 dereferenceable(1) %regex_) #3
  %call5 = call noundef ptr @_ZNK7testing8internal2RE7patternEv(ptr noundef nonnull align 8 dereferenceable(168) %call4)
  call void @_ZNSaIcEC1Ev(ptr noundef nonnull align 1 dereferenceable(1) %ref.tmp6) #3
  invoke void @_ZNSt7__cxx1112basic_stringIcSt11char_traitsIcESaIcEEC2IS3_EEPKcRKS3_(ptr noundef nonnull align 8 dereferenceable(32) %ref.tmp, ptr noundef %call5, ptr noundef nonnull align 1 dereferenceable(1) %ref.tmp6)
          to label %invoke.cont unwind label %lpad

invoke.cont:                                      ; preds = %entry
  %2 = load ptr, ptr %os.addr, align 8
  invoke void @_ZN7testing8internal16UniversalPrinterINSt7__cxx1112basic_stringIcSt11char_traitsIcESaIcEEEE5PrintERKS7_PSo(ptr noundef nonnull align 8 dereferenceable(32) %ref.tmp, ptr noundef %2)
          to label %invoke.cont8 unwind label %lpad7

invoke.cont8:                                     ; preds = %invoke.cont
  call void @_ZNSt7__cxx1112basic_stringIcSt11char_traitsIcESaIcEED1Ev(ptr noundef nonnull align 8 dereferenceable(32) %ref.tmp) #3
  call void @_ZNSaIcED1Ev(ptr noundef nonnull align 1 dereferenceable(1) %ref.tmp6) #3
  ret void

lpad:                                             ; preds = %entry
  %3 = landingpad { ptr, i32 }
          cleanup
  %4 = extractvalue { ptr, i32 } %3, 0
  store ptr %4, ptr %exn.slot, align 8
  %5 = extractvalue { ptr, i32 } %3, 1
  store i32 %5, ptr %ehselector.slot, align 4
  br label %ehcleanup

lpad7:                                            ; preds = %invoke.cont
  %6 = landingpad { ptr, i32 }
          cleanup
  %7 = extractvalue { ptr, i32 } %6, 0
  store ptr %7, ptr %exn.slot, align 8
  %8 = extractvalue { ptr, i32 } %6, 1
  store i32 %8, ptr %ehselector.slot, align 4
  call void @_ZNSt7__cxx1112basic_stringIcSt11char_traitsIcESaIcEED1Ev(ptr noundef nonnull align 8 dereferenceable(32) %ref.tmp) #3
  br label %ehcleanup

ehcleanup:                                        ; preds = %lpad7, %lpad
  call void @_ZNSaIcED1Ev(ptr noundef nonnull align 1 dereferenceable(1) %ref.tmp6) #3
  br label %eh.resume

eh.resume:                                        ; preds = %ehcleanup
  %exn = load ptr, ptr %exn.slot, align 8
  %sel = load i32, ptr %ehselector.slot, align 4
  %lpad.val = insertvalue { ptr, i32 } poison, ptr %exn, 0
  %lpad.val9 = insertvalue { ptr, i32 } %lpad.val, i32 %sel, 1
  resume { ptr, i32 } %lpad.val9
}

; Function Attrs: mustprogress uwtable
define linkonce_odr dso_local noundef zeroext i1 @_ZNK7testing8internal19MatchesRegexMatcher15MatchAndExplainINSt7__cxx1112basic_stringIcSt11char_traitsIcESaIcEEEEEbRKT_PNS_19MatchResultListenerE(ptr noundef nonnull align 8 dereferenceable(17) %this, ptr noundef nonnull align 8 dereferenceable(32) %s, ptr noundef %0) #4 comdat align 2 personality ptr @__gxx_personality_v0 {
entry:
  %this.addr = alloca ptr, align 8
  %s.addr = alloca ptr, align 8
  %.addr = alloca ptr, align 8
  %s2 = alloca %"class.std::__cxx11::basic_string", align 8
  %exn.slot = alloca ptr, align 8
  %ehselector.slot = alloca i32, align 4
  store ptr %this, ptr %this.addr, align 8
  store ptr %s, ptr %s.addr, align 8
  store ptr %0, ptr %.addr, align 8
  %this1 = load ptr, ptr %this.addr, align 8
  %1 = load ptr, ptr %s.addr, align 8
  call void @_ZNSt7__cxx1112basic_stringIcSt11char_traitsIcESaIcEEC1ERKS4_(ptr noundef nonnull align 8 dereferenceable(32) %s2, ptr noundef nonnull align 8 dereferenceable(32) %1)
  %full_match_ = getelementptr inbounds %"class.testing::internal::MatchesRegexMatcher", ptr %this1, i32 0, i32 1
  %2 = load i8, ptr %full_match_, align 8
  %tobool = trunc i8 %2 to i1
  br i1 %tobool, label %cond.true, label %cond.false

cond.true:                                        ; preds = %entry
  %regex_ = getelementptr inbounds %"class.testing::internal::MatchesRegexMatcher", ptr %this1, i32 0, i32 0
  %call = call noundef nonnull align 8 dereferenceable(168) ptr @_ZNKSt19__shared_ptr_accessIKN7testing8internal2REELN9__gnu_cxx12_Lock_policyE2ELb0ELb0EEdeEv(ptr noundef nonnull align 1 dereferenceable(1) %regex_) #3
  %call2 = invoke noundef zeroext i1 @_ZN7testing8internal2RE9FullMatchERKNSt7__cxx1112basic_stringIcSt11char_traitsIcESaIcEEERKS1_(ptr noundef nonnull align 8 dereferenceable(32) %s2, ptr noundef nonnull align 8 dereferenceable(168) %call)
          to label %invoke.cont unwind label %lpad

invoke.cont:                                      ; preds = %cond.true
  br label %cond.end

cond.false:                                       ; preds = %entry
  %regex_3 = getelementptr inbounds %"class.testing::internal::MatchesRegexMatcher", ptr %this1, i32 0, i32 0
  %call4 = call noundef nonnull align 8 dereferenceable(168) ptr @_ZNKSt19__shared_ptr_accessIKN7testing8internal2REELN9__gnu_cxx12_Lock_policyE2ELb0ELb0EEdeEv(ptr noundef nonnull align 1 dereferenceable(1) %regex_3) #3
  %call6 = invoke noundef zeroext i1 @_ZN7testing8internal2RE12PartialMatchERKNSt7__cxx1112basic_stringIcSt11char_traitsIcESaIcEEERKS1_(ptr noundef nonnull align 8 dereferenceable(32) %s2, ptr noundef nonnull align 8 dereferenceable(168) %call4)
          to label %invoke.cont5 unwind label %lpad

invoke.cont5:                                     ; preds = %cond.false
  br label %cond.end

cond.end:                                         ; preds = %invoke.cont5, %invoke.cont
  %cond = phi i1 [ %call2, %invoke.cont ], [ %call6, %invoke.cont5 ]
  call void @_ZNSt7__cxx1112basic_stringIcSt11char_traitsIcESaIcEED1Ev(ptr noundef nonnull align 8 dereferenceable(32) %s2) #3
  ret i1 %cond

lpad:                                             ; preds = %cond.false, %cond.true
  %3 = landingpad { ptr, i32 }
          cleanup
  %4 = extractvalue { ptr, i32 } %3, 0
  store ptr %4, ptr %exn.slot, align 8
  %5 = extractvalue { ptr, i32 } %3, 1
  store i32 %5, ptr %ehselector.slot, align 4
  call void @_ZNSt7__cxx1112basic_stringIcSt11char_traitsIcESaIcEED1Ev(ptr noundef nonnull align 8 dereferenceable(32) %s2) #3
  br label %eh.resume

eh.resume:                                        ; preds = %lpad
  %exn = load ptr, ptr %exn.slot, align 8
  %sel = load i32, ptr %ehselector.slot, align 4
  %lpad.val = insertvalue { ptr, i32 } poison, ptr %exn, 0
  %lpad.val7 = insertvalue { ptr, i32 } %lpad.val, i32 %sel, 1
  resume { ptr, i32 } %lpad.val7
}

; Function Attrs: mustprogress uwtable
define linkonce_odr dso_local noundef zeroext i1 @_ZN7testing8internal2RE9FullMatchERKNSt7__cxx1112basic_stringIcSt11char_traitsIcESaIcEEERKS1_(ptr noundef nonnull align 8 dereferenceable(32) %str, ptr noundef nonnull align 8 dereferenceable(168) %re) #4 comdat align 2 {
entry:
  %str.addr = alloca ptr, align 8
  %re.addr = alloca ptr, align 8
  store ptr %str, ptr %str.addr, align 8
  store ptr %re, ptr %re.addr, align 8
  %0 = load ptr, ptr %str.addr, align 8
  %call = call noundef ptr @_ZNKSt7__cxx1112basic_stringIcSt11char_traitsIcESaIcEE5c_strEv(ptr noundef nonnull align 8 dereferenceable(32) %0) #3
  %1 = load ptr, ptr %re.addr, align 8
  %call1 = call noundef zeroext i1 @_ZN7testing8internal2RE9FullMatchEPKcRKS1_(ptr noundef %call, ptr noundef nonnull align 8 dereferenceable(168) %1)
  ret i1 %call1
}

; Function Attrs: mustprogress nounwind uwtable
define linkonce_odr dso_local noundef nonnull align 8 dereferenceable(168) ptr @_ZNKSt19__shared_ptr_accessIKN7testing8internal2REELN9__gnu_cxx12_Lock_policyE2ELb0ELb0EEdeEv(ptr noundef nonnull align 1 dereferenceable(1) %this) #6 comdat align 2 {
entry:
  %this.addr = alloca ptr, align 8
  store ptr %this, ptr %this.addr, align 8
  %this1 = load ptr, ptr %this.addr, align 8
  br label %do.body

do.body:                                          ; preds = %entry
  br label %do.cond

do.cond:                                          ; preds = %do.body
  br label %do.end

do.end:                                           ; preds = %do.cond
  %call = call noundef ptr @_ZNKSt19__shared_ptr_accessIKN7testing8internal2REELN9__gnu_cxx12_Lock_policyE2ELb0ELb0EE6_M_getEv(ptr noundef nonnull align 1 dereferenceable(1) %this1) #3
  ret ptr %call
}

; Function Attrs: mustprogress uwtable
define linkonce_odr dso_local noundef zeroext i1 @_ZN7testing8internal2RE12PartialMatchERKNSt7__cxx1112basic_stringIcSt11char_traitsIcESaIcEEERKS1_(ptr noundef nonnull align 8 dereferenceable(32) %str, ptr noundef nonnull align 8 dereferenceable(168) %re) #4 comdat align 2 {
entry:
  %str.addr = alloca ptr, align 8
  %re.addr = alloca ptr, align 8
  store ptr %str, ptr %str.addr, align 8
  store ptr %re, ptr %re.addr, align 8
  %0 = load ptr, ptr %str.addr, align 8
  %call = call noundef ptr @_ZNKSt7__cxx1112basic_stringIcSt11char_traitsIcESaIcEE5c_strEv(ptr noundef nonnull align 8 dereferenceable(32) %0) #3
  %1 = load ptr, ptr %re.addr, align 8
  %call1 = call noundef zeroext i1 @_ZN7testing8internal2RE12PartialMatchEPKcRKS1_(ptr noundef %call, ptr noundef nonnull align 8 dereferenceable(168) %1)
  ret i1 %call1
}

declare noundef zeroext i1 @_ZN7testing8internal2RE9FullMatchEPKcRKS1_(ptr noundef, ptr noundef nonnull align 8 dereferenceable(168)) #1

declare noundef zeroext i1 @_ZN7testing8internal2RE12PartialMatchEPKcRKS1_(ptr noundef, ptr noundef nonnull align 8 dereferenceable(168)) #1

; Function Attrs: mustprogress uwtable
define linkonce_odr dso_local void @_ZN7testing8internal11MatcherBaseIRKNSt7__cxx1112basic_stringIcSt11char_traitsIcESaIcEEEEC2IS9_EEPKNS_16MatcherInterfaceIT_EE(ptr noundef nonnull align 8 dereferenceable(24) %this, ptr noundef %impl) unnamed_addr #4 comdat align 2 personality ptr @__gxx_personality_v0 {
entry:
  %this.addr = alloca ptr, align 8
  %impl.addr = alloca ptr, align 8
  %exn.slot = alloca ptr, align 8
  %ehselector.slot = alloca i32, align 4
  store ptr %this, ptr %this.addr, align 8
  store ptr %impl, ptr %impl.addr, align 8
  %this1 = load ptr, ptr %this.addr, align 8
  call void @_ZN7testing25MatcherDescriberInterfaceC2Ev(ptr noundef nonnull align 8 dereferenceable(8) %this1) #3
  store ptr getelementptr inbounds ({ [6 x ptr] }, ptr @_ZTVN7testing8internal11MatcherBaseIRKNSt7__cxx1112basic_stringIcSt11char_traitsIcESaIcEEEEE, i32 0, inrange i32 0, i32 2), ptr %this1, align 8
  %vtable_ = getelementptr inbounds %"class.testing::internal::MatcherBase", ptr %this1, i32 0, i32 1
  store ptr null, ptr %vtable_, align 8
  %buffer_ = getelementptr inbounds %"class.testing::internal::MatcherBase", ptr %this1, i32 0, i32 2
  call void @llvm.memset.p0.i64(ptr align 8 %buffer_, i8 0, i64 8, i1 false)
  invoke void @_ZN7testing8internal11MatcherBaseIRKNSt7__cxx1112basic_stringIcSt11char_traitsIcESaIcEEEE4InitIRPKNS_16MatcherInterfaceIS9_EEEEvOT_(ptr noundef nonnull align 8 dereferenceable(24) %this1, ptr noundef nonnull align 8 dereferenceable(8) %impl.addr)
          to label %invoke.cont unwind label %lpad

invoke.cont:                                      ; preds = %entry
  ret void

lpad:                                             ; preds = %entry
  %0 = landingpad { ptr, i32 }
          cleanup
  %1 = extractvalue { ptr, i32 } %0, 0
  store ptr %1, ptr %exn.slot, align 8
  %2 = extractvalue { ptr, i32 } %0, 1
  store i32 %2, ptr %ehselector.slot, align 4
  call void @_ZN7testing25MatcherDescriberInterfaceD2Ev(ptr noundef nonnull align 8 dereferenceable(8) %this1) #3
  br label %eh.resume

eh.resume:                                        ; preds = %lpad
  %exn = load ptr, ptr %exn.slot, align 8
  %sel = load i32, ptr %ehselector.slot, align 4
  %lpad.val = insertvalue { ptr, i32 } poison, ptr %exn, 0
  %lpad.val2 = insertvalue { ptr, i32 } %lpad.val, i32 %sel, 1
  resume { ptr, i32 } %lpad.val2
}

; Function Attrs: mustprogress nounwind uwtable
define linkonce_odr dso_local void @_ZN7testing7MatcherIRKNSt7__cxx1112basic_stringIcSt11char_traitsIcESaIcEEEED0Ev(ptr noundef nonnull align 8 dereferenceable(24) %this) unnamed_addr #6 comdat align 2 {
entry:
  %this.addr = alloca ptr, align 8
  store ptr %this, ptr %this.addr, align 8
  %this1 = load ptr, ptr %this.addr, align 8
  call void @_ZN7testing7MatcherIRKNSt7__cxx1112basic_stringIcSt11char_traitsIcESaIcEEEED2Ev(ptr noundef nonnull align 8 dereferenceable(24) %this1) #3
  call void @_ZdlPv(ptr noundef %this1) #18
  ret void
}

; Function Attrs: mustprogress uwtable
define linkonce_odr dso_local void @_ZNK7testing8internal11MatcherBaseIRKNSt7__cxx1112basic_stringIcSt11char_traitsIcESaIcEEEE10DescribeToEPSo(ptr noundef nonnull align 8 dereferenceable(24) %this, ptr noundef %os) unnamed_addr #4 comdat align 2 personality ptr @__gxx_personality_v0 {
entry:
  %this.addr = alloca ptr, align 8
  %os.addr = alloca ptr, align 8
  %ref.tmp = alloca %"class.testing::internal::GTestLog", align 4
  %exn.slot = alloca ptr, align 8
  %ehselector.slot = alloca i32, align 4
  store ptr %this, ptr %this.addr, align 8
  store ptr %os, ptr %os.addr, align 8
  %this1 = load ptr, ptr %this.addr, align 8
  %vtable_ = getelementptr inbounds %"class.testing::internal::MatcherBase", ptr %this1, i32 0, i32 1
  %0 = load ptr, ptr %vtable_, align 8
  %cmp = icmp ne ptr %0, null
  %call = call noundef zeroext i1 @_ZN7testing8internal6IsTrueEb(i1 noundef zeroext %cmp)
  br i1 %call, label %if.then, label %if.else

if.then:                                          ; preds = %entry
  br label %if.end

if.else:                                          ; preds = %entry
  call void @_ZN7testing8internal8GTestLogC1ENS0_16GTestLogSeverityEPKci(ptr noundef nonnull align 4 dereferenceable(4) %ref.tmp, i32 noundef 3, ptr noundef @.str.24, i32 noundef 245)
  %call2 = invoke noundef nonnull align 8 dereferenceable(8) ptr @_ZN7testing8internal8GTestLog9GetStreamEv(ptr noundef nonnull align 4 dereferenceable(4) %ref.tmp)
          to label %invoke.cont unwind label %lpad

invoke.cont:                                      ; preds = %if.else
  %call4 = invoke noundef nonnull align 8 dereferenceable(8) ptr @_ZStlsISt11char_traitsIcEERSt13basic_ostreamIcT_ES5_PKc(ptr noundef nonnull align 8 dereferenceable(8) %call2, ptr noundef @.str.25)
          to label %invoke.cont3 unwind label %lpad

invoke.cont3:                                     ; preds = %invoke.cont
  call void @_ZN7testing8internal8GTestLogD1Ev(ptr noundef nonnull align 4 dereferenceable(4) %ref.tmp) #3
  br label %if.end

lpad:                                             ; preds = %invoke.cont, %if.else
  %1 = landingpad { ptr, i32 }
          cleanup
  %2 = extractvalue { ptr, i32 } %1, 0
  store ptr %2, ptr %exn.slot, align 8
  %3 = extractvalue { ptr, i32 } %1, 1
  store i32 %3, ptr %ehselector.slot, align 4
  call void @_ZN7testing8internal8GTestLogD1Ev(ptr noundef nonnull align 4 dereferenceable(4) %ref.tmp) #3
  br label %eh.resume

if.end:                                           ; preds = %invoke.cont3, %if.then
  %vtable_5 = getelementptr inbounds %"class.testing::internal::MatcherBase", ptr %this1, i32 0, i32 1
  %4 = load ptr, ptr %vtable_5, align 8
  %describe = getelementptr inbounds %"struct.testing::internal::MatcherBase<const std::__cxx11::basic_string<char> &>::VTable", ptr %4, i32 0, i32 1
  %5 = load ptr, ptr %describe, align 8
  %6 = load ptr, ptr %os.addr, align 8
  call void %5(ptr noundef nonnull align 8 dereferenceable(24) %this1, ptr noundef %6, i1 noundef zeroext false)
  ret void

eh.resume:                                        ; preds = %lpad
  %exn = load ptr, ptr %exn.slot, align 8
  %sel = load i32, ptr %ehselector.slot, align 4
  %lpad.val = insertvalue { ptr, i32 } poison, ptr %exn, 0
  %lpad.val6 = insertvalue { ptr, i32 } %lpad.val, i32 %sel, 1
  resume { ptr, i32 } %lpad.val6
}

; Function Attrs: mustprogress uwtable
define linkonce_odr dso_local void @_ZNK7testing8internal11MatcherBaseIRKNSt7__cxx1112basic_stringIcSt11char_traitsIcESaIcEEEE18DescribeNegationToEPSo(ptr noundef nonnull align 8 dereferenceable(24) %this, ptr noundef %os) unnamed_addr #4 comdat align 2 personality ptr @__gxx_personality_v0 {
entry:
  %this.addr = alloca ptr, align 8
  %os.addr = alloca ptr, align 8
  %ref.tmp = alloca %"class.testing::internal::GTestLog", align 4
  %exn.slot = alloca ptr, align 8
  %ehselector.slot = alloca i32, align 4
  store ptr %this, ptr %this.addr, align 8
  store ptr %os, ptr %os.addr, align 8
  %this1 = load ptr, ptr %this.addr, align 8
  %vtable_ = getelementptr inbounds %"class.testing::internal::MatcherBase", ptr %this1, i32 0, i32 1
  %0 = load ptr, ptr %vtable_, align 8
  %cmp = icmp ne ptr %0, null
  %call = call noundef zeroext i1 @_ZN7testing8internal6IsTrueEb(i1 noundef zeroext %cmp)
  br i1 %call, label %if.then, label %if.else

if.then:                                          ; preds = %entry
  br label %if.end

if.else:                                          ; preds = %entry
  call void @_ZN7testing8internal8GTestLogC1ENS0_16GTestLogSeverityEPKci(ptr noundef nonnull align 4 dereferenceable(4) %ref.tmp, i32 noundef 3, ptr noundef @.str.24, i32 noundef 251)
  %call2 = call noundef nonnull align 8 dereferenceable(8) ptr @_ZN7testing8internal8GTestLog9GetStreamEv(ptr noundef nonnull align 4 dereferenceable(4) %ref.tmp)
  %call3 = invoke noundef nonnull align 8 dereferenceable(8) ptr @_ZStlsISt11char_traitsIcEERSt13basic_ostreamIcT_ES5_PKc(ptr noundef nonnull align 8 dereferenceable(8) %call2, ptr noundef @.str.25)
          to label %invoke.cont unwind label %lpad

invoke.cont:                                      ; preds = %if.else
  call void @_ZN7testing8internal8GTestLogD1Ev(ptr noundef nonnull align 4 dereferenceable(4) %ref.tmp) #3
  br label %if.end

lpad:                                             ; preds = %if.else
  %1 = landingpad { ptr, i32 }
          cleanup
  %2 = extractvalue { ptr, i32 } %1, 0
  store ptr %2, ptr %exn.slot, align 8
  %3 = extractvalue { ptr, i32 } %1, 1
  store i32 %3, ptr %ehselector.slot, align 4
  call void @_ZN7testing8internal8GTestLogD1Ev(ptr noundef nonnull align 4 dereferenceable(4) %ref.tmp) #3
  br label %eh.resume

if.end:                                           ; preds = %invoke.cont, %if.then
  %vtable_4 = getelementptr inbounds %"class.testing::internal::MatcherBase", ptr %this1, i32 0, i32 1
  %4 = load ptr, ptr %vtable_4, align 8
  %describe = getelementptr inbounds %"struct.testing::internal::MatcherBase<const std::__cxx11::basic_string<char> &>::VTable", ptr %4, i32 0, i32 1
  %5 = load ptr, ptr %describe, align 8
  %6 = load ptr, ptr %os.addr, align 8
  call void %5(ptr noundef nonnull align 8 dereferenceable(24) %this1, ptr noundef %6, i1 noundef zeroext true)
  ret void

eh.resume:                                        ; preds = %lpad
  %exn = load ptr, ptr %exn.slot, align 8
  %sel = load i32, ptr %ehselector.slot, align 4
  %lpad.val = insertvalue { ptr, i32 } poison, ptr %exn, 0
  %lpad.val5 = insertvalue { ptr, i32 } %lpad.val, i32 %sel, 1
  resume { ptr, i32 } %lpad.val5
}

; Function Attrs: nocallback nofree nounwind willreturn memory(argmem: write)
declare void @llvm.memset.p0.i64(ptr nocapture writeonly, i8, i64, i1 immarg) #14

; Function Attrs: mustprogress uwtable
define linkonce_odr dso_local void @_ZN7testing8internal11MatcherBaseIRKNSt7__cxx1112basic_stringIcSt11char_traitsIcESaIcEEEE4InitIRPKNS_16MatcherInterfaceIS9_EEEEvOT_(ptr noundef nonnull align 8 dereferenceable(24) %this, ptr noundef nonnull align 8 dereferenceable(8) %m) #4 comdat align 2 {
entry:
  %this.addr = alloca ptr, align 8
  %m.addr = alloca ptr, align 8
  store ptr %this, ptr %this.addr, align 8
  store ptr %m, ptr %m.addr, align 8
  %this1 = load ptr, ptr %this.addr, align 8
  %call = call noundef ptr @_ZN7testing8internal11MatcherBaseIRKNSt7__cxx1112basic_stringIcSt11char_traitsIcESaIcEEEE9GetVTableINSA_11ValuePolicyIPKNS_16MatcherInterfaceIS9_EELb1EEEEEPKNSA_6VTableEv(ptr noundef nonnull align 8 dereferenceable(24) %this1)
  %vtable_ = getelementptr inbounds %"class.testing::internal::MatcherBase", ptr %this1, i32 0, i32 1
  store ptr %call, ptr %vtable_, align 8
  %0 = load ptr, ptr %m.addr, align 8
  %1 = load ptr, ptr %0, align 8
  call void @_ZN7testing8internal11MatcherBaseIRKNSt7__cxx1112basic_stringIcSt11char_traitsIcESaIcEEEE11ValuePolicyIPKNS_16MatcherInterfaceIS9_EELb1EE4InitERSA_SF_(ptr noundef nonnull align 8 dereferenceable(24) %this1, ptr noundef %1)
  ret void
}

; Function Attrs: mustprogress nounwind uwtable
define linkonce_odr dso_local void @_ZN7testing8internal11MatcherBaseIRKNSt7__cxx1112basic_stringIcSt11char_traitsIcESaIcEEEED2Ev(ptr noundef nonnull align 8 dereferenceable(24) %this) unnamed_addr #6 comdat align 2 personality ptr @__gxx_personality_v0 {
entry:
  %this.addr = alloca ptr, align 8
  store ptr %this, ptr %this.addr, align 8
  %this1 = load ptr, ptr %this.addr, align 8
  store ptr getelementptr inbounds ({ [6 x ptr] }, ptr @_ZTVN7testing8internal11MatcherBaseIRKNSt7__cxx1112basic_stringIcSt11char_traitsIcESaIcEEEEE, i32 0, inrange i32 0, i32 2), ptr %this1, align 8
  invoke void @_ZN7testing8internal11MatcherBaseIRKNSt7__cxx1112basic_stringIcSt11char_traitsIcESaIcEEEE7DestroyEv(ptr noundef nonnull align 8 dereferenceable(24) %this1)
          to label %invoke.cont unwind label %terminate.lpad

invoke.cont:                                      ; preds = %entry
  call void @_ZN7testing25MatcherDescriberInterfaceD2Ev(ptr noundef nonnull align 8 dereferenceable(8) %this1) #3
  ret void

terminate.lpad:                                   ; preds = %entry
  %0 = landingpad { ptr, i32 }
          catch ptr null
  %1 = extractvalue { ptr, i32 } %0, 0
  call void @__clang_call_terminate(ptr %1) #20
  unreachable
}

; Function Attrs: mustprogress nounwind uwtable
define linkonce_odr dso_local void @_ZN7testing8internal11MatcherBaseIRKNSt7__cxx1112basic_stringIcSt11char_traitsIcESaIcEEEED0Ev(ptr noundef nonnull align 8 dereferenceable(24) %this) unnamed_addr #6 comdat align 2 {
entry:
  %this.addr = alloca ptr, align 8
  store ptr %this, ptr %this.addr, align 8
  %this1 = load ptr, ptr %this.addr, align 8
  call void @_ZN7testing8internal11MatcherBaseIRKNSt7__cxx1112basic_stringIcSt11char_traitsIcESaIcEEEED2Ev(ptr noundef nonnull align 8 dereferenceable(24) %this1) #3
  call void @_ZdlPv(ptr noundef %this1) #18
  ret void
}

; Function Attrs: mustprogress nounwind uwtable
define linkonce_odr dso_local noundef ptr @_ZN7testing8internal11MatcherBaseIRKNSt7__cxx1112basic_stringIcSt11char_traitsIcESaIcEEEE9GetVTableINSA_11ValuePolicyIPKNS_16MatcherInterfaceIS9_EELb1EEEEEPKNSA_6VTableEv(ptr noundef nonnull align 8 dereferenceable(24) %this) #6 comdat align 2 {
entry:
  %this.addr = alloca ptr, align 8
  store ptr %this, ptr %this.addr, align 8
  ret ptr @_ZZN7testing8internal11MatcherBaseIRKNSt7__cxx1112basic_stringIcSt11char_traitsIcESaIcEEEE9GetVTableINSA_11ValuePolicyIPKNS_16MatcherInterfaceIS9_EELb1EEEEEPKNSA_6VTableEvE7kVTableB5cxx11
}

; Function Attrs: mustprogress uwtable
define linkonce_odr dso_local void @_ZN7testing8internal11MatcherBaseIRKNSt7__cxx1112basic_stringIcSt11char_traitsIcESaIcEEEE11ValuePolicyIPKNS_16MatcherInterfaceIS9_EELb1EE4InitERSA_SF_(ptr noundef nonnull align 8 dereferenceable(24) %m, ptr noundef %impl) #4 comdat align 2 personality ptr @__gxx_personality_v0 {
entry:
  %m.addr = alloca ptr, align 8
  %impl.addr = alloca ptr, align 8
  %ref.tmp = alloca %"class.std::unique_ptr.30", align 8
  %exn.slot = alloca ptr, align 8
  %ehselector.slot = alloca i32, align 4
  %cleanup.isactive = alloca i1, align 1
  store ptr %m, ptr %m.addr, align 8
  store ptr %impl, ptr %impl.addr, align 8
  %call = call noalias noundef nonnull ptr @_Znwm(i64 noundef 16) #17
  store i1 true, ptr %cleanup.isactive, align 1
  %0 = load ptr, ptr %impl.addr, align 8
  call void @_ZNSt10unique_ptrIKN7testing16MatcherInterfaceIRKNSt7__cxx1112basic_stringIcSt11char_traitsIcESaIcEEEEESt14default_deleteISB_EEC2ISD_vEEPSB_(ptr noundef nonnull align 8 dereferenceable(8) %ref.tmp, ptr noundef %0) #3
  invoke void @_ZN7testing8internal13SharedPayloadISt10unique_ptrIKNS_16MatcherInterfaceIRKNSt7__cxx1112basic_stringIcSt11char_traitsIcESaIcEEEEESt14default_deleteISD_EEEC2EOSG_(ptr noundef nonnull align 8 dereferenceable(16) %call, ptr noundef nonnull align 8 dereferenceable(8) %ref.tmp)
          to label %invoke.cont unwind label %lpad

invoke.cont:                                      ; preds = %entry
  store i1 false, ptr %cleanup.isactive, align 1
  %1 = load ptr, ptr %m.addr, align 8
  %buffer_ = getelementptr inbounds %"class.testing::internal::MatcherBase", ptr %1, i32 0, i32 2
  store ptr %call, ptr %buffer_, align 8
  call void @_ZNSt10unique_ptrIKN7testing16MatcherInterfaceIRKNSt7__cxx1112basic_stringIcSt11char_traitsIcESaIcEEEEESt14default_deleteISB_EED2Ev(ptr noundef nonnull align 8 dereferenceable(8) %ref.tmp) #3
  ret void

lpad:                                             ; preds = %entry
  %2 = landingpad { ptr, i32 }
          cleanup
  %3 = extractvalue { ptr, i32 } %2, 0
  store ptr %3, ptr %exn.slot, align 8
  %4 = extractvalue { ptr, i32 } %2, 1
  store i32 %4, ptr %ehselector.slot, align 4
  call void @_ZNSt10unique_ptrIKN7testing16MatcherInterfaceIRKNSt7__cxx1112basic_stringIcSt11char_traitsIcESaIcEEEEESt14default_deleteISB_EED2Ev(ptr noundef nonnull align 8 dereferenceable(8) %ref.tmp) #3
  %cleanup.is_active = load i1, ptr %cleanup.isactive, align 1
  br i1 %cleanup.is_active, label %cleanup.action, label %cleanup.done

cleanup.action:                                   ; preds = %lpad
  call void @_ZdlPv(ptr noundef %call) #18
  br label %cleanup.done

cleanup.done:                                     ; preds = %cleanup.action, %lpad
  br label %eh.resume

eh.resume:                                        ; preds = %cleanup.done
  %exn = load ptr, ptr %exn.slot, align 8
  %sel = load i32, ptr %ehselector.slot, align 4
  %lpad.val = insertvalue { ptr, i32 } poison, ptr %exn, 0
  %lpad.val1 = insertvalue { ptr, i32 } %lpad.val, i32 %sel, 1
  resume { ptr, i32 } %lpad.val1
}

; Function Attrs: mustprogress uwtable
define linkonce_odr dso_local noundef zeroext i1 @_ZN7testing8internal11MatcherBaseIRKNSt7__cxx1112basic_stringIcSt11char_traitsIcESaIcEEEE19MatchAndExplainImplINSA_11ValuePolicyIPKNS_16MatcherInterfaceIS9_EELb1EEEEEDTcldtclsrT_3Getfp_E15MatchAndExplainfp0_fp1_EERKSA_S9_PNS_19MatchResultListenerE(ptr noundef nonnull align 8 dereferenceable(24) %m, ptr noundef nonnull align 8 dereferenceable(32) %value, ptr noundef %listener) #4 comdat align 2 {
entry:
  %m.addr = alloca ptr, align 8
  %value.addr = alloca ptr, align 8
  %listener.addr = alloca ptr, align 8
  store ptr %m, ptr %m.addr, align 8
  store ptr %value, ptr %value.addr, align 8
  store ptr %listener, ptr %listener.addr, align 8
  %0 = load ptr, ptr %m.addr, align 8
  %call = call noundef nonnull align 8 dereferenceable(8) ptr @_ZN7testing8internal11MatcherBaseIRKNSt7__cxx1112basic_stringIcSt11char_traitsIcESaIcEEEE11ValuePolicyIPKNS_16MatcherInterfaceIS9_EELb1EE3GetERKSA_(ptr noundef nonnull align 8 dereferenceable(24) %0)
  %1 = load ptr, ptr %value.addr, align 8
  %2 = load ptr, ptr %listener.addr, align 8
  %vtable = load ptr, ptr %call, align 8
  %vfn = getelementptr inbounds ptr, ptr %vtable, i64 4
  %3 = load ptr, ptr %vfn, align 8
  %call1 = call noundef zeroext i1 %3(ptr noundef nonnull align 8 dereferenceable(8) %call, ptr noundef nonnull align 8 dereferenceable(32) %1, ptr noundef %2)
  ret i1 %call1
}

; Function Attrs: mustprogress uwtable
define linkonce_odr dso_local void @_ZN7testing8internal11MatcherBaseIRKNSt7__cxx1112basic_stringIcSt11char_traitsIcESaIcEEEE12DescribeImplINSA_11ValuePolicyIPKNS_16MatcherInterfaceIS9_EELb1EEEEEvRKSA_PSob(ptr noundef nonnull align 8 dereferenceable(24) %m, ptr noundef %os, i1 noundef zeroext %negation) #4 comdat align 2 {
entry:
  %m.addr = alloca ptr, align 8
  %os.addr = alloca ptr, align 8
  %negation.addr = alloca i8, align 1
  store ptr %m, ptr %m.addr, align 8
  store ptr %os, ptr %os.addr, align 8
  %frombool = zext i1 %negation to i8
  store i8 %frombool, ptr %negation.addr, align 1
  %0 = load i8, ptr %negation.addr, align 1
  %tobool = trunc i8 %0 to i1
  br i1 %tobool, label %if.then, label %if.else

if.then:                                          ; preds = %entry
  %1 = load ptr, ptr %m.addr, align 8
  %call = call noundef nonnull align 8 dereferenceable(8) ptr @_ZN7testing8internal11MatcherBaseIRKNSt7__cxx1112basic_stringIcSt11char_traitsIcESaIcEEEE11ValuePolicyIPKNS_16MatcherInterfaceIS9_EELb1EE3GetERKSA_(ptr noundef nonnull align 8 dereferenceable(24) %1)
  %2 = load ptr, ptr %os.addr, align 8
  %vtable = load ptr, ptr %call, align 8
  %vfn = getelementptr inbounds ptr, ptr %vtable, i64 3
  %3 = load ptr, ptr %vfn, align 8
  call void %3(ptr noundef nonnull align 8 dereferenceable(8) %call, ptr noundef %2)
  br label %if.end

if.else:                                          ; preds = %entry
  %4 = load ptr, ptr %m.addr, align 8
  %call1 = call noundef nonnull align 8 dereferenceable(8) ptr @_ZN7testing8internal11MatcherBaseIRKNSt7__cxx1112basic_stringIcSt11char_traitsIcESaIcEEEE11ValuePolicyIPKNS_16MatcherInterfaceIS9_EELb1EE3GetERKSA_(ptr noundef nonnull align 8 dereferenceable(24) %4)
  %5 = load ptr, ptr %os.addr, align 8
  %vtable2 = load ptr, ptr %call1, align 8
  %vfn3 = getelementptr inbounds ptr, ptr %vtable2, i64 2
  %6 = load ptr, ptr %vfn3, align 8
  call void %6(ptr noundef nonnull align 8 dereferenceable(8) %call1, ptr noundef %5)
  br label %if.end

if.end:                                           ; preds = %if.else, %if.then
  ret void
}

; Function Attrs: mustprogress uwtable
define linkonce_odr dso_local noundef ptr @_ZN7testing8internal11MatcherBaseIRKNSt7__cxx1112basic_stringIcSt11char_traitsIcESaIcEEEE16GetDescriberImplINSA_11ValuePolicyIPKNS_16MatcherInterfaceIS9_EELb1EEEEEPKNS_25MatcherDescriberInterfaceERKSA_(ptr noundef nonnull align 8 dereferenceable(24) %m) #4 comdat align 2 {
entry:
  %m.addr = alloca ptr, align 8
  %ref.tmp = alloca %"class.std::tuple.38", align 8
  %ref.tmp1 = alloca ptr, align 8
  %ref.tmp2 = alloca ptr, align 8
  store ptr %m, ptr %m.addr, align 8
  %0 = load ptr, ptr %m.addr, align 8
  store ptr %0, ptr %ref.tmp1, align 8
  %1 = load ptr, ptr %m.addr, align 8
  %call = call noundef nonnull align 8 dereferenceable(8) ptr @_ZN7testing8internal11MatcherBaseIRKNSt7__cxx1112basic_stringIcSt11char_traitsIcESaIcEEEE11ValuePolicyIPKNS_16MatcherInterfaceIS9_EELb1EE3GetERKSA_(ptr noundef nonnull align 8 dereferenceable(24) %1)
  store ptr %call, ptr %ref.tmp2, align 8
  call void @_ZSt10make_tupleIJPKN7testing8internal11MatcherBaseIRKNSt7__cxx1112basic_stringIcSt11char_traitsIcESaIcEEEEEPKNS0_16MatcherInterfaceISA_EEEESt5tupleIJDpNSt25__strip_reference_wrapperINSt5decayIT_E4typeEE6__typeEEEDpOSL_(ptr sret(%"class.std::tuple.38") align 8 %ref.tmp, ptr noundef nonnull align 8 dereferenceable(8) %ref.tmp1, ptr noundef nonnull align 8 dereferenceable(8) %ref.tmp2)
  %call3 = call noundef nonnull align 8 dereferenceable(8) ptr @_ZSt3getILm1EJPKN7testing8internal11MatcherBaseIRKNSt7__cxx1112basic_stringIcSt11char_traitsIcESaIcEEEEEPKNS0_16MatcherInterfaceISA_EEEEONSt13tuple_elementIXT_ESt5tupleIJDpT0_EEE4typeEOSM_(ptr noundef nonnull align 8 dereferenceable(16) %ref.tmp) #3
  %2 = load ptr, ptr %call3, align 8
  ret ptr %2
}

; Function Attrs: mustprogress nounwind uwtable
define linkonce_odr dso_local void @_ZN7testing8internal13SharedPayloadISt10unique_ptrIKNS_16MatcherInterfaceIRKNSt7__cxx1112basic_stringIcSt11char_traitsIcESaIcEEEEESt14default_deleteISD_EEE7DestroyEPNS0_17SharedPayloadBaseE(ptr noundef %shared) #6 comdat align 2 {
entry:
  %shared.addr = alloca ptr, align 8
  store ptr %shared, ptr %shared.addr, align 8
  %0 = load ptr, ptr %shared.addr, align 8
  %isnull = icmp eq ptr %0, null
  br i1 %isnull, label %delete.end, label %delete.notnull

delete.notnull:                                   ; preds = %entry
  call void @_ZN7testing8internal13SharedPayloadISt10unique_ptrIKNS_16MatcherInterfaceIRKNSt7__cxx1112basic_stringIcSt11char_traitsIcESaIcEEEEESt14default_deleteISD_EEED2Ev(ptr noundef nonnull align 8 dereferenceable(16) %0) #3
  call void @_ZdlPv(ptr noundef %0) #18
  br label %delete.end

delete.end:                                       ; preds = %delete.notnull, %entry
  ret void
}

; Function Attrs: mustprogress nounwind uwtable
define linkonce_odr dso_local noundef nonnull align 8 dereferenceable(8) ptr @_ZN7testing8internal11MatcherBaseIRKNSt7__cxx1112basic_stringIcSt11char_traitsIcESaIcEEEE11ValuePolicyIPKNS_16MatcherInterfaceIS9_EELb1EE3GetERKSA_(ptr noundef nonnull align 8 dereferenceable(24) %m) #6 comdat align 2 {
entry:
  %m.addr = alloca ptr, align 8
  store ptr %m, ptr %m.addr, align 8
  %0 = load ptr, ptr %m.addr, align 8
  %buffer_ = getelementptr inbounds %"class.testing::internal::MatcherBase", ptr %0, i32 0, i32 2
  %1 = load ptr, ptr %buffer_, align 8
  %value = getelementptr inbounds %"struct.testing::internal::SharedPayload", ptr %1, i32 0, i32 1
  %call = call noundef nonnull align 8 dereferenceable(8) ptr @_ZNKSt10unique_ptrIKN7testing16MatcherInterfaceIRKNSt7__cxx1112basic_stringIcSt11char_traitsIcESaIcEEEEESt14default_deleteISB_EEdeEv(ptr noundef nonnull align 8 dereferenceable(8) %value) #3
  ret ptr %call
}

; Function Attrs: mustprogress nounwind uwtable
define linkonce_odr dso_local noundef nonnull align 8 dereferenceable(8) ptr @_ZNKSt10unique_ptrIKN7testing16MatcherInterfaceIRKNSt7__cxx1112basic_stringIcSt11char_traitsIcESaIcEEEEESt14default_deleteISB_EEdeEv(ptr noundef nonnull align 8 dereferenceable(8) %this) #6 comdat align 2 {
entry:
  %this.addr = alloca ptr, align 8
  store ptr %this, ptr %this.addr, align 8
  %this1 = load ptr, ptr %this.addr, align 8
  br label %do.body

do.body:                                          ; preds = %entry
  br label %do.cond

do.cond:                                          ; preds = %do.body
  br label %do.end

do.end:                                           ; preds = %do.cond
  %call = call noundef ptr @_ZNKSt10unique_ptrIKN7testing16MatcherInterfaceIRKNSt7__cxx1112basic_stringIcSt11char_traitsIcESaIcEEEEESt14default_deleteISB_EE3getEv(ptr noundef nonnull align 8 dereferenceable(8) %this1) #3
  ret ptr %call
}

; Function Attrs: mustprogress nounwind uwtable
define linkonce_odr dso_local noundef ptr @_ZNKSt10unique_ptrIKN7testing16MatcherInterfaceIRKNSt7__cxx1112basic_stringIcSt11char_traitsIcESaIcEEEEESt14default_deleteISB_EE3getEv(ptr noundef nonnull align 8 dereferenceable(8) %this) #6 comdat align 2 {
entry:
  %this.addr = alloca ptr, align 8
  store ptr %this, ptr %this.addr, align 8
  %this1 = load ptr, ptr %this.addr, align 8
  %_M_t = getelementptr inbounds %"class.std::unique_ptr.30", ptr %this1, i32 0, i32 0
  %call = call noundef ptr @_ZNKSt15__uniq_ptr_implIKN7testing16MatcherInterfaceIRKNSt7__cxx1112basic_stringIcSt11char_traitsIcESaIcEEEEESt14default_deleteISB_EE6_M_ptrEv(ptr noundef nonnull align 8 dereferenceable(8) %_M_t) #3
  ret ptr %call
}

; Function Attrs: mustprogress nounwind uwtable
define linkonce_odr dso_local noundef ptr @_ZNKSt15__uniq_ptr_implIKN7testing16MatcherInterfaceIRKNSt7__cxx1112basic_stringIcSt11char_traitsIcESaIcEEEEESt14default_deleteISB_EE6_M_ptrEv(ptr noundef nonnull align 8 dereferenceable(8) %this) #6 comdat align 2 {
entry:
  %this.addr = alloca ptr, align 8
  store ptr %this, ptr %this.addr, align 8
  %this1 = load ptr, ptr %this.addr, align 8
  %_M_t = getelementptr inbounds %"class.std::__uniq_ptr_impl.32", ptr %this1, i32 0, i32 0
  %call = call noundef nonnull align 8 dereferenceable(8) ptr @_ZSt3getILm0EJPKN7testing16MatcherInterfaceIRKNSt7__cxx1112basic_stringIcSt11char_traitsIcESaIcEEEEESt14default_deleteISB_EEERKNSt13tuple_elementIXT_ESt5tupleIJDpT0_EEE4typeERKSJ_(ptr noundef nonnull align 8 dereferenceable(8) %_M_t) #3
  %0 = load ptr, ptr %call, align 8
  ret ptr %0
}

; Function Attrs: mustprogress nounwind uwtable
define linkonce_odr dso_local noundef nonnull align 8 dereferenceable(8) ptr @_ZSt3getILm0EJPKN7testing16MatcherInterfaceIRKNSt7__cxx1112basic_stringIcSt11char_traitsIcESaIcEEEEESt14default_deleteISB_EEERKNSt13tuple_elementIXT_ESt5tupleIJDpT0_EEE4typeERKSJ_(ptr noundef nonnull align 8 dereferenceable(8) %__t) #6 comdat {
entry:
  %__t.addr = alloca ptr, align 8
  store ptr %__t, ptr %__t.addr, align 8
  %0 = load ptr, ptr %__t.addr, align 8
  %call = call noundef nonnull align 8 dereferenceable(8) ptr @_ZSt12__get_helperILm0EPKN7testing16MatcherInterfaceIRKNSt7__cxx1112basic_stringIcSt11char_traitsIcESaIcEEEEEJSt14default_deleteISB_EEERKT0_RKSt11_Tuple_implIXT_EJSF_DpT1_EE(ptr noundef nonnull align 8 dereferenceable(8) %0) #3
  ret ptr %call
}

; Function Attrs: mustprogress nounwind uwtable
define linkonce_odr dso_local noundef nonnull align 8 dereferenceable(8) ptr @_ZSt12__get_helperILm0EPKN7testing16MatcherInterfaceIRKNSt7__cxx1112basic_stringIcSt11char_traitsIcESaIcEEEEEJSt14default_deleteISB_EEERKT0_RKSt11_Tuple_implIXT_EJSF_DpT1_EE(ptr noundef nonnull align 8 dereferenceable(8) %__t) #6 comdat {
entry:
  %__t.addr = alloca ptr, align 8
  store ptr %__t, ptr %__t.addr, align 8
  %0 = load ptr, ptr %__t.addr, align 8
  %call = call noundef nonnull align 8 dereferenceable(8) ptr @_ZNSt11_Tuple_implILm0EJPKN7testing16MatcherInterfaceIRKNSt7__cxx1112basic_stringIcSt11char_traitsIcESaIcEEEEESt14default_deleteISB_EEE7_M_headERKSF_(ptr noundef nonnull align 8 dereferenceable(8) %0) #3
  ret ptr %call
}

; Function Attrs: mustprogress nounwind uwtable
define linkonce_odr dso_local noundef nonnull align 8 dereferenceable(8) ptr @_ZNSt11_Tuple_implILm0EJPKN7testing16MatcherInterfaceIRKNSt7__cxx1112basic_stringIcSt11char_traitsIcESaIcEEEEESt14default_deleteISB_EEE7_M_headERKSF_(ptr noundef nonnull align 8 dereferenceable(8) %__t) #6 comdat align 2 {
entry:
  %__t.addr = alloca ptr, align 8
  store ptr %__t, ptr %__t.addr, align 8
  %0 = load ptr, ptr %__t.addr, align 8
  %call = call noundef nonnull align 8 dereferenceable(8) ptr @_ZNSt10_Head_baseILm0EPKN7testing16MatcherInterfaceIRKNSt7__cxx1112basic_stringIcSt11char_traitsIcESaIcEEEEELb0EE7_M_headERKSD_(ptr noundef nonnull align 8 dereferenceable(8) %0) #3
  ret ptr %call
}

; Function Attrs: mustprogress nounwind uwtable
define linkonce_odr dso_local noundef nonnull align 8 dereferenceable(8) ptr @_ZNSt10_Head_baseILm0EPKN7testing16MatcherInterfaceIRKNSt7__cxx1112basic_stringIcSt11char_traitsIcESaIcEEEEELb0EE7_M_headERKSD_(ptr noundef nonnull align 8 dereferenceable(8) %__b) #6 comdat align 2 {
entry:
  %__b.addr = alloca ptr, align 8
  store ptr %__b, ptr %__b.addr, align 8
  %0 = load ptr, ptr %__b.addr, align 8
  %_M_head_impl = getelementptr inbounds %"struct.std::_Head_base.37", ptr %0, i32 0, i32 0
  ret ptr %_M_head_impl
}

; Function Attrs: mustprogress nounwind uwtable
define linkonce_odr dso_local noundef nonnull align 8 dereferenceable(8) ptr @_ZSt3getILm1EJPKN7testing8internal11MatcherBaseIRKNSt7__cxx1112basic_stringIcSt11char_traitsIcESaIcEEEEEPKNS0_16MatcherInterfaceISA_EEEEONSt13tuple_elementIXT_ESt5tupleIJDpT0_EEE4typeEOSM_(ptr noundef nonnull align 8 dereferenceable(16) %__t) #6 comdat {
entry:
  %__t.addr = alloca ptr, align 8
  store ptr %__t, ptr %__t.addr, align 8
  %0 = load ptr, ptr %__t.addr, align 8
  %call = call noundef nonnull align 8 dereferenceable(8) ptr @_ZSt12__get_helperILm1EPKN7testing16MatcherInterfaceIRKNSt7__cxx1112basic_stringIcSt11char_traitsIcESaIcEEEEEJEERT0_RSt11_Tuple_implIXT_EJSD_DpT1_EE(ptr noundef nonnull align 8 dereferenceable(8) %0) #3
  ret ptr %call
}

; Function Attrs: mustprogress nounwind uwtable
define linkonce_odr dso_local void @_ZSt10make_tupleIJPKN7testing8internal11MatcherBaseIRKNSt7__cxx1112basic_stringIcSt11char_traitsIcESaIcEEEEEPKNS0_16MatcherInterfaceISA_EEEESt5tupleIJDpNSt25__strip_reference_wrapperINSt5decayIT_E4typeEE6__typeEEEDpOSL_(ptr noalias sret(%"class.std::tuple.38") align 8 %agg.result, ptr noundef nonnull align 8 dereferenceable(8) %__args, ptr noundef nonnull align 8 dereferenceable(8) %__args1) #6 comdat {
entry:
  %result.ptr = alloca ptr, align 8
  %__args.addr = alloca ptr, align 8
  %__args.addr2 = alloca ptr, align 8
  store ptr %agg.result, ptr %result.ptr, align 8
  store ptr %__args, ptr %__args.addr, align 8
  store ptr %__args1, ptr %__args.addr2, align 8
  %0 = load ptr, ptr %__args.addr, align 8
  %1 = load ptr, ptr %__args.addr2, align 8
  call void @_ZNSt5tupleIJPKN7testing8internal11MatcherBaseIRKNSt7__cxx1112basic_stringIcSt11char_traitsIcESaIcEEEEEPKNS0_16MatcherInterfaceISA_EEEEC2ISD_SH_TnNSt9enable_ifIXclsr4_TCCIXntcl14__is_alloc_argIT_EEEEE29__is_implicitly_constructibleISL_T0_EEEbE4typeELb1EEEOSL_OSM_(ptr noundef nonnull align 8 dereferenceable(16) %agg.result, ptr noundef nonnull align 8 dereferenceable(8) %0, ptr noundef nonnull align 8 dereferenceable(8) %1) #3
  ret void
}

; Function Attrs: mustprogress nounwind uwtable
define linkonce_odr dso_local noundef nonnull align 8 dereferenceable(8) ptr @_ZSt12__get_helperILm1EPKN7testing16MatcherInterfaceIRKNSt7__cxx1112basic_stringIcSt11char_traitsIcESaIcEEEEEJEERT0_RSt11_Tuple_implIXT_EJSD_DpT1_EE(ptr noundef nonnull align 8 dereferenceable(8) %__t) #6 comdat {
entry:
  %__t.addr = alloca ptr, align 8
  store ptr %__t, ptr %__t.addr, align 8
  %0 = load ptr, ptr %__t.addr, align 8
  %call = call noundef nonnull align 8 dereferenceable(8) ptr @_ZNSt11_Tuple_implILm1EJPKN7testing16MatcherInterfaceIRKNSt7__cxx1112basic_stringIcSt11char_traitsIcESaIcEEEEEEE7_M_headERSD_(ptr noundef nonnull align 8 dereferenceable(8) %0) #3
  ret ptr %call
}

; Function Attrs: mustprogress nounwind uwtable
define linkonce_odr dso_local noundef nonnull align 8 dereferenceable(8) ptr @_ZNSt11_Tuple_implILm1EJPKN7testing16MatcherInterfaceIRKNSt7__cxx1112basic_stringIcSt11char_traitsIcESaIcEEEEEEE7_M_headERSD_(ptr noundef nonnull align 8 dereferenceable(8) %__t) #6 comdat align 2 {
entry:
  %__t.addr = alloca ptr, align 8
  store ptr %__t, ptr %__t.addr, align 8
  %0 = load ptr, ptr %__t.addr, align 8
  %call = call noundef nonnull align 8 dereferenceable(8) ptr @_ZNSt10_Head_baseILm1EPKN7testing16MatcherInterfaceIRKNSt7__cxx1112basic_stringIcSt11char_traitsIcESaIcEEEEELb0EE7_M_headERSD_(ptr noundef nonnull align 8 dereferenceable(8) %0) #3
  ret ptr %call
}

; Function Attrs: mustprogress nounwind uwtable
define linkonce_odr dso_local noundef nonnull align 8 dereferenceable(8) ptr @_ZNSt10_Head_baseILm1EPKN7testing16MatcherInterfaceIRKNSt7__cxx1112basic_stringIcSt11char_traitsIcESaIcEEEEELb0EE7_M_headERSD_(ptr noundef nonnull align 8 dereferenceable(8) %__b) #6 comdat align 2 {
entry:
  %__b.addr = alloca ptr, align 8
  store ptr %__b, ptr %__b.addr, align 8
  %0 = load ptr, ptr %__b.addr, align 8
  %_M_head_impl = getelementptr inbounds %"struct.std::_Head_base.41", ptr %0, i32 0, i32 0
  ret ptr %_M_head_impl
}

; Function Attrs: mustprogress nounwind uwtable
define linkonce_odr dso_local void @_ZNSt5tupleIJPKN7testing8internal11MatcherBaseIRKNSt7__cxx1112basic_stringIcSt11char_traitsIcESaIcEEEEEPKNS0_16MatcherInterfaceISA_EEEEC2ISD_SH_TnNSt9enable_ifIXclsr4_TCCIXntcl14__is_alloc_argIT_EEEEE29__is_implicitly_constructibleISL_T0_EEEbE4typeELb1EEEOSL_OSM_(ptr noundef nonnull align 8 dereferenceable(16) %this, ptr noundef nonnull align 8 dereferenceable(8) %__a1, ptr noundef nonnull align 8 dereferenceable(8) %__a2) unnamed_addr #6 comdat align 2 personality ptr @__gxx_personality_v0 {
entry:
  %this.addr = alloca ptr, align 8
  %__a1.addr = alloca ptr, align 8
  %__a2.addr = alloca ptr, align 8
  store ptr %this, ptr %this.addr, align 8
  store ptr %__a1, ptr %__a1.addr, align 8
  store ptr %__a2, ptr %__a2.addr, align 8
  %this1 = load ptr, ptr %this.addr, align 8
  %0 = load ptr, ptr %__a1.addr, align 8
  %1 = load ptr, ptr %__a2.addr, align 8
  invoke void @_ZNSt11_Tuple_implILm0EJPKN7testing8internal11MatcherBaseIRKNSt7__cxx1112basic_stringIcSt11char_traitsIcESaIcEEEEEPKNS0_16MatcherInterfaceISA_EEEEC2ISD_JSH_EvEEOT_DpOT0_(ptr noundef nonnull align 8 dereferenceable(16) %this1, ptr noundef nonnull align 8 dereferenceable(8) %0, ptr noundef nonnull align 8 dereferenceable(8) %1)
          to label %invoke.cont unwind label %terminate.lpad

invoke.cont:                                      ; preds = %entry
  ret void

terminate.lpad:                                   ; preds = %entry
  %2 = landingpad { ptr, i32 }
          catch ptr null
  %3 = extractvalue { ptr, i32 } %2, 0
  call void @__clang_call_terminate(ptr %3) #20
  unreachable
}

; Function Attrs: mustprogress uwtable
define linkonce_odr dso_local void @_ZNSt11_Tuple_implILm0EJPKN7testing8internal11MatcherBaseIRKNSt7__cxx1112basic_stringIcSt11char_traitsIcESaIcEEEEEPKNS0_16MatcherInterfaceISA_EEEEC2ISD_JSH_EvEEOT_DpOT0_(ptr noundef nonnull align 8 dereferenceable(16) %this, ptr noundef nonnull align 8 dereferenceable(8) %__head, ptr noundef nonnull align 8 dereferenceable(8) %__tail) unnamed_addr #4 comdat align 2 {
entry:
  %this.addr = alloca ptr, align 8
  %__head.addr = alloca ptr, align 8
  %__tail.addr = alloca ptr, align 8
  store ptr %this, ptr %this.addr, align 8
  store ptr %__head, ptr %__head.addr, align 8
  store ptr %__tail, ptr %__tail.addr, align 8
  %this1 = load ptr, ptr %this.addr, align 8
  %0 = load ptr, ptr %__tail.addr, align 8
  call void @_ZNSt11_Tuple_implILm1EJPKN7testing16MatcherInterfaceIRKNSt7__cxx1112basic_stringIcSt11char_traitsIcESaIcEEEEEEEC2ISC_EEOT_(ptr noundef nonnull align 8 dereferenceable(8) %this1, ptr noundef nonnull align 8 dereferenceable(8) %0)
  %1 = getelementptr inbounds i8, ptr %this1, i64 8
  %2 = load ptr, ptr %__head.addr, align 8
  call void @_ZNSt10_Head_baseILm0EPKN7testing8internal11MatcherBaseIRKNSt7__cxx1112basic_stringIcSt11char_traitsIcESaIcEEEEELb0EEC2ISD_EEOT_(ptr noundef nonnull align 8 dereferenceable(8) %1, ptr noundef nonnull align 8 dereferenceable(8) %2)
  ret void
}

; Function Attrs: mustprogress uwtable
define linkonce_odr dso_local void @_ZNSt11_Tuple_implILm1EJPKN7testing16MatcherInterfaceIRKNSt7__cxx1112basic_stringIcSt11char_traitsIcESaIcEEEEEEEC2ISC_EEOT_(ptr noundef nonnull align 8 dereferenceable(8) %this, ptr noundef nonnull align 8 dereferenceable(8) %__head) unnamed_addr #4 comdat align 2 {
entry:
  %this.addr = alloca ptr, align 8
  %__head.addr = alloca ptr, align 8
  store ptr %this, ptr %this.addr, align 8
  store ptr %__head, ptr %__head.addr, align 8
  %this1 = load ptr, ptr %this.addr, align 8
  %0 = load ptr, ptr %__head.addr, align 8
  call void @_ZNSt10_Head_baseILm1EPKN7testing16MatcherInterfaceIRKNSt7__cxx1112basic_stringIcSt11char_traitsIcESaIcEEEEELb0EEC2ISC_EEOT_(ptr noundef nonnull align 8 dereferenceable(8) %this1, ptr noundef nonnull align 8 dereferenceable(8) %0)
  ret void
}

; Function Attrs: mustprogress nounwind uwtable
define linkonce_odr dso_local void @_ZNSt10_Head_baseILm0EPKN7testing8internal11MatcherBaseIRKNSt7__cxx1112basic_stringIcSt11char_traitsIcESaIcEEEEELb0EEC2ISD_EEOT_(ptr noundef nonnull align 8 dereferenceable(8) %this, ptr noundef nonnull align 8 dereferenceable(8) %__h) unnamed_addr #6 comdat align 2 {
entry:
  %this.addr = alloca ptr, align 8
  %__h.addr = alloca ptr, align 8
  store ptr %this, ptr %this.addr, align 8
  store ptr %__h, ptr %__h.addr, align 8
  %this1 = load ptr, ptr %this.addr, align 8
  %_M_head_impl = getelementptr inbounds %"struct.std::_Head_base.42", ptr %this1, i32 0, i32 0
  %0 = load ptr, ptr %__h.addr, align 8
  %1 = load ptr, ptr %0, align 8
  store ptr %1, ptr %_M_head_impl, align 8
  ret void
}

; Function Attrs: mustprogress nounwind uwtable
define linkonce_odr dso_local void @_ZNSt10_Head_baseILm1EPKN7testing16MatcherInterfaceIRKNSt7__cxx1112basic_stringIcSt11char_traitsIcESaIcEEEEELb0EEC2ISC_EEOT_(ptr noundef nonnull align 8 dereferenceable(8) %this, ptr noundef nonnull align 8 dereferenceable(8) %__h) unnamed_addr #6 comdat align 2 {
entry:
  %this.addr = alloca ptr, align 8
  %__h.addr = alloca ptr, align 8
  store ptr %this, ptr %this.addr, align 8
  store ptr %__h, ptr %__h.addr, align 8
  %this1 = load ptr, ptr %this.addr, align 8
  %_M_head_impl = getelementptr inbounds %"struct.std::_Head_base.41", ptr %this1, i32 0, i32 0
  %0 = load ptr, ptr %__h.addr, align 8
  %1 = load ptr, ptr %0, align 8
  store ptr %1, ptr %_M_head_impl, align 8
  ret void
}

; Function Attrs: mustprogress nounwind uwtable
define linkonce_odr dso_local void @_ZN7testing8internal13SharedPayloadISt10unique_ptrIKNS_16MatcherInterfaceIRKNSt7__cxx1112basic_stringIcSt11char_traitsIcESaIcEEEEESt14default_deleteISD_EEED2Ev(ptr noundef nonnull align 8 dereferenceable(16) %this) unnamed_addr #6 comdat align 2 {
entry:
  %this.addr = alloca ptr, align 8
  store ptr %this, ptr %this.addr, align 8
  %this1 = load ptr, ptr %this.addr, align 8
  %value = getelementptr inbounds %"struct.testing::internal::SharedPayload", ptr %this1, i32 0, i32 1
  call void @_ZNSt10unique_ptrIKN7testing16MatcherInterfaceIRKNSt7__cxx1112basic_stringIcSt11char_traitsIcESaIcEEEEESt14default_deleteISB_EED2Ev(ptr noundef nonnull align 8 dereferenceable(8) %value) #3
  ret void
}

; Function Attrs: mustprogress nounwind uwtable
define linkonce_odr dso_local void @_ZNSt10unique_ptrIKN7testing16MatcherInterfaceIRKNSt7__cxx1112basic_stringIcSt11char_traitsIcESaIcEEEEESt14default_deleteISB_EED2Ev(ptr noundef nonnull align 8 dereferenceable(8) %this) unnamed_addr #6 comdat align 2 personality ptr @__gxx_personality_v0 {
entry:
  %this.addr = alloca ptr, align 8
  %__ptr = alloca ptr, align 8
  store ptr %this, ptr %this.addr, align 8
  %this1 = load ptr, ptr %this.addr, align 8
  %_M_t = getelementptr inbounds %"class.std::unique_ptr.30", ptr %this1, i32 0, i32 0
  %call = call noundef nonnull align 8 dereferenceable(8) ptr @_ZNSt15__uniq_ptr_implIKN7testing16MatcherInterfaceIRKNSt7__cxx1112basic_stringIcSt11char_traitsIcESaIcEEEEESt14default_deleteISB_EE6_M_ptrEv(ptr noundef nonnull align 8 dereferenceable(8) %_M_t) #3
  store ptr %call, ptr %__ptr, align 8
  %0 = load ptr, ptr %__ptr, align 8
  %1 = load ptr, ptr %0, align 8
  %cmp = icmp ne ptr %1, null
  br i1 %cmp, label %if.then, label %if.end

if.then:                                          ; preds = %entry
  %call2 = call noundef nonnull align 1 dereferenceable(1) ptr @_ZNSt10unique_ptrIKN7testing16MatcherInterfaceIRKNSt7__cxx1112basic_stringIcSt11char_traitsIcESaIcEEEEESt14default_deleteISB_EE11get_deleterEv(ptr noundef nonnull align 8 dereferenceable(8) %this1) #3
  %2 = load ptr, ptr %__ptr, align 8
  %3 = load ptr, ptr %2, align 8
  invoke void @_ZNKSt14default_deleteIKN7testing16MatcherInterfaceIRKNSt7__cxx1112basic_stringIcSt11char_traitsIcESaIcEEEEEEclEPSB_(ptr noundef nonnull align 1 dereferenceable(1) %call2, ptr noundef %3)
          to label %invoke.cont unwind label %terminate.lpad

invoke.cont:                                      ; preds = %if.then
  br label %if.end

if.end:                                           ; preds = %invoke.cont, %entry
  %4 = load ptr, ptr %__ptr, align 8
  store ptr null, ptr %4, align 8
  ret void

terminate.lpad:                                   ; preds = %if.then
  %5 = landingpad { ptr, i32 }
          catch ptr null
  %6 = extractvalue { ptr, i32 } %5, 0
  call void @__clang_call_terminate(ptr %6) #20
  unreachable
}

; Function Attrs: mustprogress nounwind uwtable
define linkonce_odr dso_local noundef nonnull align 8 dereferenceable(8) ptr @_ZNSt15__uniq_ptr_implIKN7testing16MatcherInterfaceIRKNSt7__cxx1112basic_stringIcSt11char_traitsIcESaIcEEEEESt14default_deleteISB_EE6_M_ptrEv(ptr noundef nonnull align 8 dereferenceable(8) %this) #6 comdat align 2 {
entry:
  %this.addr = alloca ptr, align 8
  store ptr %this, ptr %this.addr, align 8
  %this1 = load ptr, ptr %this.addr, align 8
  %_M_t = getelementptr inbounds %"class.std::__uniq_ptr_impl.32", ptr %this1, i32 0, i32 0
  %call = call noundef nonnull align 8 dereferenceable(8) ptr @_ZSt3getILm0EJPKN7testing16MatcherInterfaceIRKNSt7__cxx1112basic_stringIcSt11char_traitsIcESaIcEEEEESt14default_deleteISB_EEERNSt13tuple_elementIXT_ESt5tupleIJDpT0_EEE4typeERSJ_(ptr noundef nonnull align 8 dereferenceable(8) %_M_t) #3
  ret ptr %call
}

; Function Attrs: mustprogress nounwind uwtable
define linkonce_odr dso_local noundef nonnull align 1 dereferenceable(1) ptr @_ZNSt10unique_ptrIKN7testing16MatcherInterfaceIRKNSt7__cxx1112basic_stringIcSt11char_traitsIcESaIcEEEEESt14default_deleteISB_EE11get_deleterEv(ptr noundef nonnull align 8 dereferenceable(8) %this) #6 comdat align 2 {
entry:
  %this.addr = alloca ptr, align 8
  store ptr %this, ptr %this.addr, align 8
  %this1 = load ptr, ptr %this.addr, align 8
  %_M_t = getelementptr inbounds %"class.std::unique_ptr.30", ptr %this1, i32 0, i32 0
  %call = call noundef nonnull align 1 dereferenceable(1) ptr @_ZNSt15__uniq_ptr_implIKN7testing16MatcherInterfaceIRKNSt7__cxx1112basic_stringIcSt11char_traitsIcESaIcEEEEESt14default_deleteISB_EE10_M_deleterEv(ptr noundef nonnull align 8 dereferenceable(8) %_M_t) #3
  ret ptr %call
}

; Function Attrs: mustprogress nounwind uwtable
define linkonce_odr dso_local void @_ZNKSt14default_deleteIKN7testing16MatcherInterfaceIRKNSt7__cxx1112basic_stringIcSt11char_traitsIcESaIcEEEEEEclEPSB_(ptr noundef nonnull align 1 dereferenceable(1) %this, ptr noundef %__ptr) #6 comdat align 2 {
entry:
  %this.addr = alloca ptr, align 8
  %__ptr.addr = alloca ptr, align 8
  store ptr %this, ptr %this.addr, align 8
  store ptr %__ptr, ptr %__ptr.addr, align 8
  %0 = load ptr, ptr %__ptr.addr, align 8
  %isnull = icmp eq ptr %0, null
  br i1 %isnull, label %delete.end, label %delete.notnull

delete.notnull:                                   ; preds = %entry
  %vtable = load ptr, ptr %0, align 8
  %vfn = getelementptr inbounds ptr, ptr %vtable, i64 1
  %1 = load ptr, ptr %vfn, align 8
  call void %1(ptr noundef nonnull align 8 dereferenceable(8) %0) #3
  br label %delete.end

delete.end:                                       ; preds = %delete.notnull, %entry
  ret void
}

; Function Attrs: mustprogress nounwind uwtable
define linkonce_odr dso_local noundef nonnull align 8 dereferenceable(8) ptr @_ZSt3getILm0EJPKN7testing16MatcherInterfaceIRKNSt7__cxx1112basic_stringIcSt11char_traitsIcESaIcEEEEESt14default_deleteISB_EEERNSt13tuple_elementIXT_ESt5tupleIJDpT0_EEE4typeERSJ_(ptr noundef nonnull align 8 dereferenceable(8) %__t) #6 comdat {
entry:
  %__t.addr = alloca ptr, align 8
  store ptr %__t, ptr %__t.addr, align 8
  %0 = load ptr, ptr %__t.addr, align 8
  %call = call noundef nonnull align 8 dereferenceable(8) ptr @_ZSt12__get_helperILm0EPKN7testing16MatcherInterfaceIRKNSt7__cxx1112basic_stringIcSt11char_traitsIcESaIcEEEEEJSt14default_deleteISB_EEERT0_RSt11_Tuple_implIXT_EJSF_DpT1_EE(ptr noundef nonnull align 8 dereferenceable(8) %0) #3
  ret ptr %call
}

; Function Attrs: mustprogress nounwind uwtable
define linkonce_odr dso_local noundef nonnull align 8 dereferenceable(8) ptr @_ZSt12__get_helperILm0EPKN7testing16MatcherInterfaceIRKNSt7__cxx1112basic_stringIcSt11char_traitsIcESaIcEEEEEJSt14default_deleteISB_EEERT0_RSt11_Tuple_implIXT_EJSF_DpT1_EE(ptr noundef nonnull align 8 dereferenceable(8) %__t) #6 comdat {
entry:
  %__t.addr = alloca ptr, align 8
  store ptr %__t, ptr %__t.addr, align 8
  %0 = load ptr, ptr %__t.addr, align 8
  %call = call noundef nonnull align 8 dereferenceable(8) ptr @_ZNSt11_Tuple_implILm0EJPKN7testing16MatcherInterfaceIRKNSt7__cxx1112basic_stringIcSt11char_traitsIcESaIcEEEEESt14default_deleteISB_EEE7_M_headERSF_(ptr noundef nonnull align 8 dereferenceable(8) %0) #3
  ret ptr %call
}

; Function Attrs: mustprogress nounwind uwtable
define linkonce_odr dso_local noundef nonnull align 8 dereferenceable(8) ptr @_ZNSt11_Tuple_implILm0EJPKN7testing16MatcherInterfaceIRKNSt7__cxx1112basic_stringIcSt11char_traitsIcESaIcEEEEESt14default_deleteISB_EEE7_M_headERSF_(ptr noundef nonnull align 8 dereferenceable(8) %__t) #6 comdat align 2 {
entry:
  %__t.addr = alloca ptr, align 8
  store ptr %__t, ptr %__t.addr, align 8
  %0 = load ptr, ptr %__t.addr, align 8
  %call = call noundef nonnull align 8 dereferenceable(8) ptr @_ZNSt10_Head_baseILm0EPKN7testing16MatcherInterfaceIRKNSt7__cxx1112basic_stringIcSt11char_traitsIcESaIcEEEEELb0EE7_M_headERSD_(ptr noundef nonnull align 8 dereferenceable(8) %0) #3
  ret ptr %call
}

; Function Attrs: mustprogress nounwind uwtable
define linkonce_odr dso_local noundef nonnull align 8 dereferenceable(8) ptr @_ZNSt10_Head_baseILm0EPKN7testing16MatcherInterfaceIRKNSt7__cxx1112basic_stringIcSt11char_traitsIcESaIcEEEEELb0EE7_M_headERSD_(ptr noundef nonnull align 8 dereferenceable(8) %__b) #6 comdat align 2 {
entry:
  %__b.addr = alloca ptr, align 8
  store ptr %__b, ptr %__b.addr, align 8
  %0 = load ptr, ptr %__b.addr, align 8
  %_M_head_impl = getelementptr inbounds %"struct.std::_Head_base.37", ptr %0, i32 0, i32 0
  ret ptr %_M_head_impl
}

; Function Attrs: mustprogress nounwind uwtable
define linkonce_odr dso_local noundef nonnull align 1 dereferenceable(1) ptr @_ZNSt15__uniq_ptr_implIKN7testing16MatcherInterfaceIRKNSt7__cxx1112basic_stringIcSt11char_traitsIcESaIcEEEEESt14default_deleteISB_EE10_M_deleterEv(ptr noundef nonnull align 8 dereferenceable(8) %this) #6 comdat align 2 {
entry:
  %this.addr = alloca ptr, align 8
  store ptr %this, ptr %this.addr, align 8
  %this1 = load ptr, ptr %this.addr, align 8
  %_M_t = getelementptr inbounds %"class.std::__uniq_ptr_impl.32", ptr %this1, i32 0, i32 0
  %call = call noundef nonnull align 1 dereferenceable(1) ptr @_ZSt3getILm1EJPKN7testing16MatcherInterfaceIRKNSt7__cxx1112basic_stringIcSt11char_traitsIcESaIcEEEEESt14default_deleteISB_EEERNSt13tuple_elementIXT_ESt5tupleIJDpT0_EEE4typeERSJ_(ptr noundef nonnull align 8 dereferenceable(8) %_M_t) #3
  ret ptr %call
}

; Function Attrs: mustprogress nounwind uwtable
define linkonce_odr dso_local noundef nonnull align 1 dereferenceable(1) ptr @_ZSt3getILm1EJPKN7testing16MatcherInterfaceIRKNSt7__cxx1112basic_stringIcSt11char_traitsIcESaIcEEEEESt14default_deleteISB_EEERNSt13tuple_elementIXT_ESt5tupleIJDpT0_EEE4typeERSJ_(ptr noundef nonnull align 8 dereferenceable(8) %__t) #6 comdat {
entry:
  %__t.addr = alloca ptr, align 8
  store ptr %__t, ptr %__t.addr, align 8
  %0 = load ptr, ptr %__t.addr, align 8
  %call = call noundef nonnull align 1 dereferenceable(1) ptr @_ZSt12__get_helperILm1ESt14default_deleteIKN7testing16MatcherInterfaceIRKNSt7__cxx1112basic_stringIcSt11char_traitsIcESaIcEEEEEEJEERT0_RSt11_Tuple_implIXT_EJSE_DpT1_EE(ptr noundef nonnull align 1 dereferenceable(1) %0) #3
  ret ptr %call
}

; Function Attrs: mustprogress nounwind uwtable
define linkonce_odr dso_local noundef nonnull align 1 dereferenceable(1) ptr @_ZSt12__get_helperILm1ESt14default_deleteIKN7testing16MatcherInterfaceIRKNSt7__cxx1112basic_stringIcSt11char_traitsIcESaIcEEEEEEJEERT0_RSt11_Tuple_implIXT_EJSE_DpT1_EE(ptr noundef nonnull align 1 dereferenceable(1) %__t) #6 comdat {
entry:
  %__t.addr = alloca ptr, align 8
  store ptr %__t, ptr %__t.addr, align 8
  %0 = load ptr, ptr %__t.addr, align 8
  %call = call noundef nonnull align 1 dereferenceable(1) ptr @_ZNSt11_Tuple_implILm1EJSt14default_deleteIKN7testing16MatcherInterfaceIRKNSt7__cxx1112basic_stringIcSt11char_traitsIcESaIcEEEEEEEE7_M_headERSE_(ptr noundef nonnull align 1 dereferenceable(1) %0) #3
  ret ptr %call
}

; Function Attrs: mustprogress nounwind uwtable
define linkonce_odr dso_local noundef nonnull align 1 dereferenceable(1) ptr @_ZNSt11_Tuple_implILm1EJSt14default_deleteIKN7testing16MatcherInterfaceIRKNSt7__cxx1112basic_stringIcSt11char_traitsIcESaIcEEEEEEEE7_M_headERSE_(ptr noundef nonnull align 1 dereferenceable(1) %__t) #6 comdat align 2 {
entry:
  %__t.addr = alloca ptr, align 8
  store ptr %__t, ptr %__t.addr, align 8
  %0 = load ptr, ptr %__t.addr, align 8
  %call = call noundef nonnull align 1 dereferenceable(1) ptr @_ZNSt10_Head_baseILm1ESt14default_deleteIKN7testing16MatcherInterfaceIRKNSt7__cxx1112basic_stringIcSt11char_traitsIcESaIcEEEEEELb1EE7_M_headERSE_(ptr noundef nonnull align 1 dereferenceable(1) %0) #3
  ret ptr %call
}

; Function Attrs: mustprogress nounwind uwtable
define linkonce_odr dso_local noundef nonnull align 1 dereferenceable(1) ptr @_ZNSt10_Head_baseILm1ESt14default_deleteIKN7testing16MatcherInterfaceIRKNSt7__cxx1112basic_stringIcSt11char_traitsIcESaIcEEEEEELb1EE7_M_headERSE_(ptr noundef nonnull align 1 dereferenceable(1) %__b) #6 comdat align 2 {
entry:
  %__b.addr = alloca ptr, align 8
  store ptr %__b, ptr %__b.addr, align 8
  %0 = load ptr, ptr %__b.addr, align 8
  ret ptr %0
}

; Function Attrs: mustprogress nounwind uwtable
define linkonce_odr dso_local void @_ZNSt10unique_ptrIKN7testing16MatcherInterfaceIRKNSt7__cxx1112basic_stringIcSt11char_traitsIcESaIcEEEEESt14default_deleteISB_EEC2ISD_vEEPSB_(ptr noundef nonnull align 8 dereferenceable(8) %this, ptr noundef %__p) unnamed_addr #6 comdat align 2 personality ptr @__gxx_personality_v0 {
entry:
  %this.addr = alloca ptr, align 8
  %__p.addr = alloca ptr, align 8
  store ptr %this, ptr %this.addr, align 8
  store ptr %__p, ptr %__p.addr, align 8
  %this1 = load ptr, ptr %this.addr, align 8
  %_M_t = getelementptr inbounds %"class.std::unique_ptr.30", ptr %this1, i32 0, i32 0
  %0 = load ptr, ptr %__p.addr, align 8
  invoke void @_ZNSt15__uniq_ptr_dataIKN7testing16MatcherInterfaceIRKNSt7__cxx1112basic_stringIcSt11char_traitsIcESaIcEEEEESt14default_deleteISB_ELb1ELb1EECI2St15__uniq_ptr_implISB_SD_EEPSB_(ptr noundef nonnull align 8 dereferenceable(8) %_M_t, ptr noundef %0)
          to label %invoke.cont unwind label %terminate.lpad

invoke.cont:                                      ; preds = %entry
  ret void

terminate.lpad:                                   ; preds = %entry
  %1 = landingpad { ptr, i32 }
          catch ptr null
  %2 = extractvalue { ptr, i32 } %1, 0
  call void @__clang_call_terminate(ptr %2) #20
  unreachable
}

; Function Attrs: mustprogress nounwind uwtable
define linkonce_odr dso_local void @_ZN7testing8internal13SharedPayloadISt10unique_ptrIKNS_16MatcherInterfaceIRKNSt7__cxx1112basic_stringIcSt11char_traitsIcESaIcEEEEESt14default_deleteISD_EEEC2EOSG_(ptr noundef nonnull align 8 dereferenceable(16) %this, ptr noundef nonnull align 8 dereferenceable(8) %v) unnamed_addr #6 comdat align 2 {
entry:
  %this.addr = alloca ptr, align 8
  %v.addr = alloca ptr, align 8
  store ptr %this, ptr %this.addr, align 8
  store ptr %v, ptr %v.addr, align 8
  %this1 = load ptr, ptr %this.addr, align 8
  call void @_ZN7testing8internal17SharedPayloadBaseC2Ev(ptr noundef nonnull align 4 dereferenceable(4) %this1) #3
  %value = getelementptr inbounds %"struct.testing::internal::SharedPayload", ptr %this1, i32 0, i32 1
  %0 = load ptr, ptr %v.addr, align 8
  call void @_ZNSt10unique_ptrIKN7testing16MatcherInterfaceIRKNSt7__cxx1112basic_stringIcSt11char_traitsIcESaIcEEEEESt14default_deleteISB_EEC2EOSE_(ptr noundef nonnull align 8 dereferenceable(8) %value, ptr noundef nonnull align 8 dereferenceable(8) %0) #3
  ret void
}

; Function Attrs: mustprogress uwtable
define linkonce_odr dso_local void @_ZNSt15__uniq_ptr_dataIKN7testing16MatcherInterfaceIRKNSt7__cxx1112basic_stringIcSt11char_traitsIcESaIcEEEEESt14default_deleteISB_ELb1ELb1EECI2St15__uniq_ptr_implISB_SD_EEPSB_(ptr noundef nonnull align 8 dereferenceable(8) %this, ptr noundef %0) unnamed_addr #4 comdat align 2 {
entry:
  %this.addr = alloca ptr, align 8
  %.addr = alloca ptr, align 8
  store ptr %this, ptr %this.addr, align 8
  store ptr %0, ptr %.addr, align 8
  %this1 = load ptr, ptr %this.addr, align 8
  %1 = load ptr, ptr %.addr, align 8
  call void @_ZNSt15__uniq_ptr_implIKN7testing16MatcherInterfaceIRKNSt7__cxx1112basic_stringIcSt11char_traitsIcESaIcEEEEESt14default_deleteISB_EEC2EPSB_(ptr noundef nonnull align 8 dereferenceable(8) %this1, ptr noundef %1)
  ret void
}

; Function Attrs: mustprogress nounwind uwtable
define linkonce_odr dso_local void @_ZNSt15__uniq_ptr_implIKN7testing16MatcherInterfaceIRKNSt7__cxx1112basic_stringIcSt11char_traitsIcESaIcEEEEESt14default_deleteISB_EEC2EPSB_(ptr noundef nonnull align 8 dereferenceable(8) %this, ptr noundef %__p) unnamed_addr #6 comdat align 2 {
entry:
  %this.addr = alloca ptr, align 8
  %__p.addr = alloca ptr, align 8
  store ptr %this, ptr %this.addr, align 8
  store ptr %__p, ptr %__p.addr, align 8
  %this1 = load ptr, ptr %this.addr, align 8
  %_M_t = getelementptr inbounds %"class.std::__uniq_ptr_impl.32", ptr %this1, i32 0, i32 0
  call void @_ZNSt5tupleIJPKN7testing16MatcherInterfaceIRKNSt7__cxx1112basic_stringIcSt11char_traitsIcESaIcEEEEESt14default_deleteISB_EEEC2ILb1ETnNSt9enable_ifIXclsr17_TupleConstraintsIXT_ESC_SE_EE37__is_implicitly_default_constructibleEEbE4typeELb1EEEv(ptr noundef nonnull align 8 dereferenceable(8) %_M_t) #3
  %0 = load ptr, ptr %__p.addr, align 8
  %call = call noundef nonnull align 8 dereferenceable(8) ptr @_ZNSt15__uniq_ptr_implIKN7testing16MatcherInterfaceIRKNSt7__cxx1112basic_stringIcSt11char_traitsIcESaIcEEEEESt14default_deleteISB_EE6_M_ptrEv(ptr noundef nonnull align 8 dereferenceable(8) %this1) #3
  store ptr %0, ptr %call, align 8
  ret void
}

; Function Attrs: mustprogress nounwind uwtable
define linkonce_odr dso_local void @_ZNSt5tupleIJPKN7testing16MatcherInterfaceIRKNSt7__cxx1112basic_stringIcSt11char_traitsIcESaIcEEEEESt14default_deleteISB_EEEC2ILb1ETnNSt9enable_ifIXclsr17_TupleConstraintsIXT_ESC_SE_EE37__is_implicitly_default_constructibleEEbE4typeELb1EEEv(ptr noundef nonnull align 8 dereferenceable(8) %this) unnamed_addr #6 comdat align 2 personality ptr @__gxx_personality_v0 {
entry:
  %this.addr = alloca ptr, align 8
  store ptr %this, ptr %this.addr, align 8
  %this1 = load ptr, ptr %this.addr, align 8
  invoke void @_ZNSt11_Tuple_implILm0EJPKN7testing16MatcherInterfaceIRKNSt7__cxx1112basic_stringIcSt11char_traitsIcESaIcEEEEESt14default_deleteISB_EEEC2Ev(ptr noundef nonnull align 8 dereferenceable(8) %this1)
          to label %invoke.cont unwind label %terminate.lpad

invoke.cont:                                      ; preds = %entry
  ret void

terminate.lpad:                                   ; preds = %entry
  %0 = landingpad { ptr, i32 }
          catch ptr null
  %1 = extractvalue { ptr, i32 } %0, 0
  call void @__clang_call_terminate(ptr %1) #20
  unreachable
}

; Function Attrs: mustprogress uwtable
define linkonce_odr dso_local void @_ZNSt11_Tuple_implILm0EJPKN7testing16MatcherInterfaceIRKNSt7__cxx1112basic_stringIcSt11char_traitsIcESaIcEEEEESt14default_deleteISB_EEEC2Ev(ptr noundef nonnull align 8 dereferenceable(8) %this) unnamed_addr #4 comdat align 2 {
entry:
  %this.addr = alloca ptr, align 8
  store ptr %this, ptr %this.addr, align 8
  %this1 = load ptr, ptr %this.addr, align 8
  call void @_ZNSt11_Tuple_implILm1EJSt14default_deleteIKN7testing16MatcherInterfaceIRKNSt7__cxx1112basic_stringIcSt11char_traitsIcESaIcEEEEEEEEC2Ev(ptr noundef nonnull align 1 dereferenceable(1) %this1)
  call void @_ZNSt10_Head_baseILm0EPKN7testing16MatcherInterfaceIRKNSt7__cxx1112basic_stringIcSt11char_traitsIcESaIcEEEEELb0EEC2Ev(ptr noundef nonnull align 8 dereferenceable(8) %this1)
  ret void
}

; Function Attrs: mustprogress uwtable
define linkonce_odr dso_local void @_ZNSt11_Tuple_implILm1EJSt14default_deleteIKN7testing16MatcherInterfaceIRKNSt7__cxx1112basic_stringIcSt11char_traitsIcESaIcEEEEEEEEC2Ev(ptr noundef nonnull align 1 dereferenceable(1) %this) unnamed_addr #4 comdat align 2 {
entry:
  %this.addr = alloca ptr, align 8
  store ptr %this, ptr %this.addr, align 8
  %this1 = load ptr, ptr %this.addr, align 8
  call void @_ZNSt10_Head_baseILm1ESt14default_deleteIKN7testing16MatcherInterfaceIRKNSt7__cxx1112basic_stringIcSt11char_traitsIcESaIcEEEEEELb1EEC2Ev(ptr noundef nonnull align 1 dereferenceable(1) %this1)
  ret void
}

; Function Attrs: mustprogress nounwind uwtable
define linkonce_odr dso_local void @_ZNSt10_Head_baseILm0EPKN7testing16MatcherInterfaceIRKNSt7__cxx1112basic_stringIcSt11char_traitsIcESaIcEEEEELb0EEC2Ev(ptr noundef nonnull align 8 dereferenceable(8) %this) unnamed_addr #6 comdat align 2 {
entry:
  %this.addr = alloca ptr, align 8
  store ptr %this, ptr %this.addr, align 8
  %this1 = load ptr, ptr %this.addr, align 8
  %_M_head_impl = getelementptr inbounds %"struct.std::_Head_base.37", ptr %this1, i32 0, i32 0
  store ptr null, ptr %_M_head_impl, align 8
  ret void
}

; Function Attrs: mustprogress nounwind uwtable
define linkonce_odr dso_local void @_ZNSt10_Head_baseILm1ESt14default_deleteIKN7testing16MatcherInterfaceIRKNSt7__cxx1112basic_stringIcSt11char_traitsIcESaIcEEEEEELb1EEC2Ev(ptr noundef nonnull align 1 dereferenceable(1) %this) unnamed_addr #6 comdat align 2 {
entry:
  %this.addr = alloca ptr, align 8
  store ptr %this, ptr %this.addr, align 8
  ret void
}

; Function Attrs: mustprogress nounwind uwtable
define linkonce_odr dso_local void @_ZN7testing8internal17SharedPayloadBaseC2Ev(ptr noundef nonnull align 4 dereferenceable(4) %this) unnamed_addr #6 comdat align 2 {
entry:
  %this.addr = alloca ptr, align 8
  store ptr %this, ptr %this.addr, align 8
  %this1 = load ptr, ptr %this.addr, align 8
  %ref = getelementptr inbounds %"struct.testing::internal::SharedPayloadBase", ptr %this1, i32 0, i32 0
  call void @_ZNSt6atomicIiEC2Ei(ptr noundef nonnull align 4 dereferenceable(4) %ref, i32 noundef 1) #3
  ret void
}

; Function Attrs: mustprogress nounwind uwtable
define linkonce_odr dso_local void @_ZNSt10unique_ptrIKN7testing16MatcherInterfaceIRKNSt7__cxx1112basic_stringIcSt11char_traitsIcESaIcEEEEESt14default_deleteISB_EEC2EOSE_(ptr noundef nonnull align 8 dereferenceable(8) %this, ptr noundef nonnull align 8 dereferenceable(8) %0) unnamed_addr #6 comdat align 2 {
entry:
  %this.addr = alloca ptr, align 8
  %.addr = alloca ptr, align 8
  store ptr %this, ptr %this.addr, align 8
  store ptr %0, ptr %.addr, align 8
  %this1 = load ptr, ptr %this.addr, align 8
  %_M_t = getelementptr inbounds %"class.std::unique_ptr.30", ptr %this1, i32 0, i32 0
  %1 = load ptr, ptr %.addr, align 8
  %_M_t2 = getelementptr inbounds %"class.std::unique_ptr.30", ptr %1, i32 0, i32 0
  call void @_ZNSt15__uniq_ptr_dataIKN7testing16MatcherInterfaceIRKNSt7__cxx1112basic_stringIcSt11char_traitsIcESaIcEEEEESt14default_deleteISB_ELb1ELb1EEC2EOSE_(ptr noundef nonnull align 8 dereferenceable(8) %_M_t, ptr noundef nonnull align 8 dereferenceable(8) %_M_t2) #3
  ret void
}

; Function Attrs: mustprogress nounwind uwtable
define linkonce_odr dso_local void @_ZNSt6atomicIiEC2Ei(ptr noundef nonnull align 4 dereferenceable(4) %this, i32 noundef %__i) unnamed_addr #6 comdat align 2 {
entry:
  %this.addr = alloca ptr, align 8
  %__i.addr = alloca i32, align 4
  store ptr %this, ptr %this.addr, align 8
  store i32 %__i, ptr %__i.addr, align 4
  %this1 = load ptr, ptr %this.addr, align 8
  %0 = load i32, ptr %__i.addr, align 4
  call void @_ZNSt13__atomic_baseIiEC2Ei(ptr noundef nonnull align 4 dereferenceable(4) %this1, i32 noundef %0) #3
  ret void
}

; Function Attrs: mustprogress nounwind uwtable
define linkonce_odr dso_local void @_ZNSt13__atomic_baseIiEC2Ei(ptr noundef nonnull align 4 dereferenceable(4) %this, i32 noundef %__i) unnamed_addr #6 comdat align 2 {
entry:
  %this.addr = alloca ptr, align 8
  %__i.addr = alloca i32, align 4
  store ptr %this, ptr %this.addr, align 8
  store i32 %__i, ptr %__i.addr, align 4
  %this1 = load ptr, ptr %this.addr, align 8
  %_M_i = getelementptr inbounds %"struct.std::__atomic_base", ptr %this1, i32 0, i32 0
  %0 = load i32, ptr %__i.addr, align 4
  store i32 %0, ptr %_M_i, align 4
  ret void
}

; Function Attrs: mustprogress nounwind uwtable
define linkonce_odr dso_local void @_ZNSt15__uniq_ptr_dataIKN7testing16MatcherInterfaceIRKNSt7__cxx1112basic_stringIcSt11char_traitsIcESaIcEEEEESt14default_deleteISB_ELb1ELb1EEC2EOSE_(ptr noundef nonnull align 8 dereferenceable(8) %this, ptr noundef nonnull align 8 dereferenceable(8) %0) unnamed_addr #6 comdat align 2 {
entry:
  %this.addr = alloca ptr, align 8
  %.addr = alloca ptr, align 8
  store ptr %this, ptr %this.addr, align 8
  store ptr %0, ptr %.addr, align 8
  %this1 = load ptr, ptr %this.addr, align 8
  %1 = load ptr, ptr %.addr, align 8
  call void @_ZNSt15__uniq_ptr_implIKN7testing16MatcherInterfaceIRKNSt7__cxx1112basic_stringIcSt11char_traitsIcESaIcEEEEESt14default_deleteISB_EEC2EOSE_(ptr noundef nonnull align 8 dereferenceable(8) %this1, ptr noundef nonnull align 8 dereferenceable(8) %1) #3
  ret void
}

; Function Attrs: mustprogress nounwind uwtable
define linkonce_odr dso_local void @_ZNSt15__uniq_ptr_implIKN7testing16MatcherInterfaceIRKNSt7__cxx1112basic_stringIcSt11char_traitsIcESaIcEEEEESt14default_deleteISB_EEC2EOSE_(ptr noundef nonnull align 8 dereferenceable(8) %this, ptr noundef nonnull align 8 dereferenceable(8) %__u) unnamed_addr #6 comdat align 2 {
entry:
  %this.addr = alloca ptr, align 8
  %__u.addr = alloca ptr, align 8
  store ptr %this, ptr %this.addr, align 8
  store ptr %__u, ptr %__u.addr, align 8
  %this1 = load ptr, ptr %this.addr, align 8
  %_M_t = getelementptr inbounds %"class.std::__uniq_ptr_impl.32", ptr %this1, i32 0, i32 0
  %0 = load ptr, ptr %__u.addr, align 8
  %_M_t2 = getelementptr inbounds %"class.std::__uniq_ptr_impl.32", ptr %0, i32 0, i32 0
  call void @_ZNSt5tupleIJPKN7testing16MatcherInterfaceIRKNSt7__cxx1112basic_stringIcSt11char_traitsIcESaIcEEEEESt14default_deleteISB_EEEC2EOSF_(ptr noundef nonnull align 8 dereferenceable(8) %_M_t, ptr noundef nonnull align 8 dereferenceable(8) %_M_t2) #3
  %1 = load ptr, ptr %__u.addr, align 8
  %call = call noundef nonnull align 8 dereferenceable(8) ptr @_ZNSt15__uniq_ptr_implIKN7testing16MatcherInterfaceIRKNSt7__cxx1112basic_stringIcSt11char_traitsIcESaIcEEEEESt14default_deleteISB_EE6_M_ptrEv(ptr noundef nonnull align 8 dereferenceable(8) %1) #3
  store ptr null, ptr %call, align 8
  ret void
}

; Function Attrs: mustprogress nounwind uwtable
define linkonce_odr dso_local void @_ZNSt5tupleIJPKN7testing16MatcherInterfaceIRKNSt7__cxx1112basic_stringIcSt11char_traitsIcESaIcEEEEESt14default_deleteISB_EEEC2EOSF_(ptr noundef nonnull align 8 dereferenceable(8) %this, ptr noundef nonnull align 8 dereferenceable(8) %0) unnamed_addr #6 comdat align 2 {
entry:
  %this.addr = alloca ptr, align 8
  %.addr = alloca ptr, align 8
  store ptr %this, ptr %this.addr, align 8
  store ptr %0, ptr %.addr, align 8
  %this1 = load ptr, ptr %this.addr, align 8
  %1 = load ptr, ptr %.addr, align 8
  call void @_ZNSt11_Tuple_implILm0EJPKN7testing16MatcherInterfaceIRKNSt7__cxx1112basic_stringIcSt11char_traitsIcESaIcEEEEESt14default_deleteISB_EEEC2EOSF_(ptr noundef nonnull align 8 dereferenceable(8) %this1, ptr noundef nonnull align 8 dereferenceable(8) %1) #3
  ret void
}

; Function Attrs: mustprogress nounwind uwtable
define linkonce_odr dso_local void @_ZNSt11_Tuple_implILm0EJPKN7testing16MatcherInterfaceIRKNSt7__cxx1112basic_stringIcSt11char_traitsIcESaIcEEEEESt14default_deleteISB_EEEC2EOSF_(ptr noundef nonnull align 8 dereferenceable(8) %this, ptr noundef nonnull align 8 dereferenceable(8) %0) unnamed_addr #6 comdat align 2 {
entry:
  %this.addr = alloca ptr, align 8
  %.addr = alloca ptr, align 8
  store ptr %this, ptr %this.addr, align 8
  store ptr %0, ptr %.addr, align 8
  %this1 = load ptr, ptr %this.addr, align 8
  %1 = load ptr, ptr %.addr, align 8
  call void @_ZNSt11_Tuple_implILm1EJSt14default_deleteIKN7testing16MatcherInterfaceIRKNSt7__cxx1112basic_stringIcSt11char_traitsIcESaIcEEEEEEEEC2EOSE_(ptr noundef nonnull align 1 dereferenceable(1) %this1, ptr noundef nonnull align 1 dereferenceable(1) %1) #3
  %2 = load ptr, ptr %.addr, align 8
  call void @llvm.memcpy.p0.p0.i64(ptr align 8 %this1, ptr align 8 %2, i64 8, i1 false)
  ret void
}

; Function Attrs: mustprogress nounwind uwtable
define linkonce_odr dso_local void @_ZNSt11_Tuple_implILm1EJSt14default_deleteIKN7testing16MatcherInterfaceIRKNSt7__cxx1112basic_stringIcSt11char_traitsIcESaIcEEEEEEEEC2EOSE_(ptr noundef nonnull align 1 dereferenceable(1) %this, ptr noundef nonnull align 1 dereferenceable(1) %__in) unnamed_addr #6 comdat align 2 {
entry:
  %this.addr = alloca ptr, align 8
  %__in.addr = alloca ptr, align 8
  store ptr %this, ptr %this.addr, align 8
  store ptr %__in, ptr %__in.addr, align 8
  ret void
}

; Function Attrs: nocallback nofree nounwind willreturn memory(argmem: readwrite)
declare void @llvm.memcpy.p0.p0.i64(ptr noalias nocapture writeonly, ptr noalias nocapture readonly, i64, i1 immarg) #15

; Function Attrs: mustprogress uwtable
define linkonce_odr dso_local void @_ZN7testing8internal11MatcherBaseIRKNSt7__cxx1112basic_stringIcSt11char_traitsIcESaIcEEEE7DestroyEv(ptr noundef nonnull align 8 dereferenceable(24) %this) #4 comdat align 2 {
entry:
  %this.addr = alloca ptr, align 8
  store ptr %this, ptr %this.addr, align 8
  %this1 = load ptr, ptr %this.addr, align 8
  %call = call noundef zeroext i1 @_ZNK7testing8internal11MatcherBaseIRKNSt7__cxx1112basic_stringIcSt11char_traitsIcESaIcEEEE8IsSharedEv(ptr noundef nonnull align 8 dereferenceable(24) %this1)
  br i1 %call, label %land.lhs.true, label %if.end

land.lhs.true:                                    ; preds = %entry
  %buffer_ = getelementptr inbounds %"class.testing::internal::MatcherBase", ptr %this1, i32 0, i32 2
  %0 = load ptr, ptr %buffer_, align 8
  %call2 = call noundef zeroext i1 @_ZN7testing8internal17SharedPayloadBase5UnrefEv(ptr noundef nonnull align 4 dereferenceable(4) %0)
  br i1 %call2, label %if.then, label %if.end

if.then:                                          ; preds = %land.lhs.true
  %vtable_ = getelementptr inbounds %"class.testing::internal::MatcherBase", ptr %this1, i32 0, i32 1
  %1 = load ptr, ptr %vtable_, align 8
  %shared_destroy = getelementptr inbounds %"struct.testing::internal::MatcherBase<const std::__cxx11::basic_string<char> &>::VTable", ptr %1, i32 0, i32 3
  %2 = load ptr, ptr %shared_destroy, align 8
  %buffer_3 = getelementptr inbounds %"class.testing::internal::MatcherBase", ptr %this1, i32 0, i32 2
  %3 = load ptr, ptr %buffer_3, align 8
  call void %2(ptr noundef %3)
  br label %if.end

if.end:                                           ; preds = %if.then, %land.lhs.true, %entry
  ret void
}

; Function Attrs: mustprogress nounwind uwtable
define linkonce_odr dso_local noundef zeroext i1 @_ZNK7testing8internal11MatcherBaseIRKNSt7__cxx1112basic_stringIcSt11char_traitsIcESaIcEEEE8IsSharedEv(ptr noundef nonnull align 8 dereferenceable(24) %this) #6 comdat align 2 {
entry:
  %this.addr = alloca ptr, align 8
  store ptr %this, ptr %this.addr, align 8
  %this1 = load ptr, ptr %this.addr, align 8
  %vtable_ = getelementptr inbounds %"class.testing::internal::MatcherBase", ptr %this1, i32 0, i32 1
  %0 = load ptr, ptr %vtable_, align 8
  %cmp = icmp ne ptr %0, null
  br i1 %cmp, label %land.rhs, label %land.end

land.rhs:                                         ; preds = %entry
  %vtable_2 = getelementptr inbounds %"class.testing::internal::MatcherBase", ptr %this1, i32 0, i32 1
  %1 = load ptr, ptr %vtable_2, align 8
  %shared_destroy = getelementptr inbounds %"struct.testing::internal::MatcherBase<const std::__cxx11::basic_string<char> &>::VTable", ptr %1, i32 0, i32 3
  %2 = load ptr, ptr %shared_destroy, align 8
  %cmp3 = icmp ne ptr %2, null
  br label %land.end

land.end:                                         ; preds = %land.rhs, %entry
  %3 = phi i1 [ false, %entry ], [ %cmp3, %land.rhs ]
  ret i1 %3
}

; Function Attrs: mustprogress nounwind uwtable
define linkonce_odr dso_local noundef zeroext i1 @_ZN7testing8internal17SharedPayloadBase5UnrefEv(ptr noundef nonnull align 4 dereferenceable(4) %this) #6 comdat align 2 {
entry:
  %this.addr.i = alloca ptr, align 8
  %__i.addr.i = alloca i32, align 4
  %__m.addr.i = alloca i32, align 4
  %.atomictmp.i = alloca i32, align 4
  %atomic-temp.i = alloca i32, align 4
  %this.addr = alloca ptr, align 8
  store ptr %this, ptr %this.addr, align 8
  %this1 = load ptr, ptr %this.addr, align 8
  %ref = getelementptr inbounds %"struct.testing::internal::SharedPayloadBase", ptr %this1, i32 0, i32 0
  store ptr %ref, ptr %this.addr.i, align 8
  store i32 1, ptr %__i.addr.i, align 4
  store i32 4, ptr %__m.addr.i, align 4
  %this1.i = load ptr, ptr %this.addr.i, align 8
  %0 = load i32, ptr %__m.addr.i, align 4
  %1 = load i32, ptr %__i.addr.i, align 4
  store i32 %1, ptr %.atomictmp.i, align 4
  switch i32 %0, label %monotonic.i [
    i32 1, label %acquire.i
    i32 2, label %acquire.i
    i32 3, label %release.i
    i32 4, label %acqrel.i
    i32 5, label %seqcst.i
  ]

monotonic.i:                                      ; preds = %entry
  %2 = load i32, ptr %.atomictmp.i, align 4
  %3 = atomicrmw sub ptr %this1.i, i32 %2 monotonic, align 4
  store i32 %3, ptr %atomic-temp.i, align 4
  br label %_ZNSt13__atomic_baseIiE9fetch_subEiSt12memory_order.exit

acquire.i:                                        ; preds = %entry, %entry
  %4 = load i32, ptr %.atomictmp.i, align 4
  %5 = atomicrmw sub ptr %this1.i, i32 %4 acquire, align 4
  store i32 %5, ptr %atomic-temp.i, align 4
  br label %_ZNSt13__atomic_baseIiE9fetch_subEiSt12memory_order.exit

release.i:                                        ; preds = %entry
  %6 = load i32, ptr %.atomictmp.i, align 4
  %7 = atomicrmw sub ptr %this1.i, i32 %6 release, align 4
  store i32 %7, ptr %atomic-temp.i, align 4
  br label %_ZNSt13__atomic_baseIiE9fetch_subEiSt12memory_order.exit

acqrel.i:                                         ; preds = %entry
  %8 = load i32, ptr %.atomictmp.i, align 4
  %9 = atomicrmw sub ptr %this1.i, i32 %8 acq_rel, align 4
  store i32 %9, ptr %atomic-temp.i, align 4
  br label %_ZNSt13__atomic_baseIiE9fetch_subEiSt12memory_order.exit

seqcst.i:                                         ; preds = %entry
  %10 = load i32, ptr %.atomictmp.i, align 4
  %11 = atomicrmw sub ptr %this1.i, i32 %10 seq_cst, align 4
  store i32 %11, ptr %atomic-temp.i, align 4
  br label %_ZNSt13__atomic_baseIiE9fetch_subEiSt12memory_order.exit

_ZNSt13__atomic_baseIiE9fetch_subEiSt12memory_order.exit: ; preds = %seqcst.i, %acqrel.i, %release.i, %acquire.i, %monotonic.i
  %12 = load i32, ptr %atomic-temp.i, align 4
  %cmp = icmp eq i32 %12, 1
  ret i1 %cmp
}

declare noundef zeroext i1 @_ZN7testing8internal6IsTrueEb(i1 noundef zeroext) #1

declare void @_ZN7testing8internal8GTestLogC1ENS0_16GTestLogSeverityEPKci(ptr noundef nonnull align 4 dereferenceable(4), i32 noundef, ptr noundef, i32 noundef) unnamed_addr #1

; Function Attrs: mustprogress nounwind uwtable
define linkonce_odr dso_local noundef nonnull align 8 dereferenceable(8) ptr @_ZN7testing8internal8GTestLog9GetStreamEv(ptr noundef nonnull align 4 dereferenceable(4) %this) #6 comdat align 2 {
entry:
  %this.addr = alloca ptr, align 8
  store ptr %this, ptr %this.addr, align 8
  ret ptr @_ZSt4cerr
}

; Function Attrs: nounwind
declare void @_ZN7testing8internal8GTestLogD1Ev(ptr noundef nonnull align 4 dereferenceable(4)) unnamed_addr #2

; Function Attrs: mustprogress uwtable
define linkonce_odr dso_local void @_ZNSt15__uniq_ptr_dataIN7testing8internal9DeathTestESt14default_deleteIS2_ELb1ELb1EECI2St15__uniq_ptr_implIS2_S4_EEPS2_(ptr noundef nonnull align 8 dereferenceable(8) %this, ptr noundef %0) unnamed_addr #4 comdat align 2 {
entry:
  %this.addr = alloca ptr, align 8
  %.addr = alloca ptr, align 8
  store ptr %this, ptr %this.addr, align 8
  store ptr %0, ptr %.addr, align 8
  %this1 = load ptr, ptr %this.addr, align 8
  %1 = load ptr, ptr %.addr, align 8
  call void @_ZNSt15__uniq_ptr_implIN7testing8internal9DeathTestESt14default_deleteIS2_EEC2EPS2_(ptr noundef nonnull align 8 dereferenceable(8) %this1, ptr noundef %1)
  ret void
}

; Function Attrs: mustprogress nounwind uwtable
define linkonce_odr dso_local void @_ZNSt15__uniq_ptr_implIN7testing8internal9DeathTestESt14default_deleteIS2_EEC2EPS2_(ptr noundef nonnull align 8 dereferenceable(8) %this, ptr noundef %__p) unnamed_addr #6 comdat align 2 {
entry:
  %this.addr = alloca ptr, align 8
  %__p.addr = alloca ptr, align 8
  store ptr %this, ptr %this.addr, align 8
  store ptr %__p, ptr %__p.addr, align 8
  %this1 = load ptr, ptr %this.addr, align 8
  %_M_t = getelementptr inbounds %"class.std::__uniq_ptr_impl.8", ptr %this1, i32 0, i32 0
  call void @_ZNSt5tupleIJPN7testing8internal9DeathTestESt14default_deleteIS2_EEEC2ILb1ETnNSt9enable_ifIXclsr17_TupleConstraintsIXT_ES3_S5_EE37__is_implicitly_default_constructibleEEbE4typeELb1EEEv(ptr noundef nonnull align 8 dereferenceable(8) %_M_t) #3
  %0 = load ptr, ptr %__p.addr, align 8
  %call = call noundef nonnull align 8 dereferenceable(8) ptr @_ZNSt15__uniq_ptr_implIN7testing8internal9DeathTestESt14default_deleteIS2_EE6_M_ptrEv(ptr noundef nonnull align 8 dereferenceable(8) %this1) #3
  store ptr %0, ptr %call, align 8
  ret void
}

; Function Attrs: mustprogress nounwind uwtable
define linkonce_odr dso_local void @_ZNSt5tupleIJPN7testing8internal9DeathTestESt14default_deleteIS2_EEEC2ILb1ETnNSt9enable_ifIXclsr17_TupleConstraintsIXT_ES3_S5_EE37__is_implicitly_default_constructibleEEbE4typeELb1EEEv(ptr noundef nonnull align 8 dereferenceable(8) %this) unnamed_addr #6 comdat align 2 personality ptr @__gxx_personality_v0 {
entry:
  %this.addr = alloca ptr, align 8
  store ptr %this, ptr %this.addr, align 8
  %this1 = load ptr, ptr %this.addr, align 8
  invoke void @_ZNSt11_Tuple_implILm0EJPN7testing8internal9DeathTestESt14default_deleteIS2_EEEC2Ev(ptr noundef nonnull align 8 dereferenceable(8) %this1)
          to label %invoke.cont unwind label %terminate.lpad

invoke.cont:                                      ; preds = %entry
  ret void

terminate.lpad:                                   ; preds = %entry
  %0 = landingpad { ptr, i32 }
          catch ptr null
  %1 = extractvalue { ptr, i32 } %0, 0
  call void @__clang_call_terminate(ptr %1) #20
  unreachable
}

; Function Attrs: mustprogress nounwind uwtable
define linkonce_odr dso_local noundef nonnull align 8 dereferenceable(8) ptr @_ZNSt15__uniq_ptr_implIN7testing8internal9DeathTestESt14default_deleteIS2_EE6_M_ptrEv(ptr noundef nonnull align 8 dereferenceable(8) %this) #6 comdat align 2 {
entry:
  %this.addr = alloca ptr, align 8
  store ptr %this, ptr %this.addr, align 8
  %this1 = load ptr, ptr %this.addr, align 8
  %_M_t = getelementptr inbounds %"class.std::__uniq_ptr_impl.8", ptr %this1, i32 0, i32 0
  %call = call noundef nonnull align 8 dereferenceable(8) ptr @_ZSt3getILm0EJPN7testing8internal9DeathTestESt14default_deleteIS2_EEERNSt13tuple_elementIXT_ESt5tupleIJDpT0_EEE4typeERSA_(ptr noundef nonnull align 8 dereferenceable(8) %_M_t) #3
  ret ptr %call
}

; Function Attrs: mustprogress uwtable
define linkonce_odr dso_local void @_ZNSt11_Tuple_implILm0EJPN7testing8internal9DeathTestESt14default_deleteIS2_EEEC2Ev(ptr noundef nonnull align 8 dereferenceable(8) %this) unnamed_addr #4 comdat align 2 {
entry:
  %this.addr = alloca ptr, align 8
  store ptr %this, ptr %this.addr, align 8
  %this1 = load ptr, ptr %this.addr, align 8
  call void @_ZNSt11_Tuple_implILm1EJSt14default_deleteIN7testing8internal9DeathTestEEEEC2Ev(ptr noundef nonnull align 1 dereferenceable(1) %this1)
  call void @_ZNSt10_Head_baseILm0EPN7testing8internal9DeathTestELb0EEC2Ev(ptr noundef nonnull align 8 dereferenceable(8) %this1)
  ret void
}

; Function Attrs: mustprogress uwtable
define linkonce_odr dso_local void @_ZNSt11_Tuple_implILm1EJSt14default_deleteIN7testing8internal9DeathTestEEEEC2Ev(ptr noundef nonnull align 1 dereferenceable(1) %this) unnamed_addr #4 comdat align 2 {
entry:
  %this.addr = alloca ptr, align 8
  store ptr %this, ptr %this.addr, align 8
  %this1 = load ptr, ptr %this.addr, align 8
  call void @_ZNSt10_Head_baseILm1ESt14default_deleteIN7testing8internal9DeathTestEELb1EEC2Ev(ptr noundef nonnull align 1 dereferenceable(1) %this1)
  ret void
}

; Function Attrs: mustprogress nounwind uwtable
define linkonce_odr dso_local void @_ZNSt10_Head_baseILm0EPN7testing8internal9DeathTestELb0EEC2Ev(ptr noundef nonnull align 8 dereferenceable(8) %this) unnamed_addr #6 comdat align 2 {
entry:
  %this.addr = alloca ptr, align 8
  store ptr %this, ptr %this.addr, align 8
  %this1 = load ptr, ptr %this.addr, align 8
  %_M_head_impl = getelementptr inbounds %"struct.std::_Head_base.13", ptr %this1, i32 0, i32 0
  store ptr null, ptr %_M_head_impl, align 8
  ret void
}

; Function Attrs: mustprogress nounwind uwtable
define linkonce_odr dso_local void @_ZNSt10_Head_baseILm1ESt14default_deleteIN7testing8internal9DeathTestEELb1EEC2Ev(ptr noundef nonnull align 1 dereferenceable(1) %this) unnamed_addr #6 comdat align 2 {
entry:
  %this.addr = alloca ptr, align 8
  store ptr %this, ptr %this.addr, align 8
  ret void
}

; Function Attrs: mustprogress nounwind uwtable
define linkonce_odr dso_local noundef nonnull align 8 dereferenceable(8) ptr @_ZSt3getILm0EJPN7testing8internal9DeathTestESt14default_deleteIS2_EEERNSt13tuple_elementIXT_ESt5tupleIJDpT0_EEE4typeERSA_(ptr noundef nonnull align 8 dereferenceable(8) %__t) #6 comdat {
entry:
  %__t.addr = alloca ptr, align 8
  store ptr %__t, ptr %__t.addr, align 8
  %0 = load ptr, ptr %__t.addr, align 8
  %call = call noundef nonnull align 8 dereferenceable(8) ptr @_ZSt12__get_helperILm0EPN7testing8internal9DeathTestEJSt14default_deleteIS2_EEERT0_RSt11_Tuple_implIXT_EJS6_DpT1_EE(ptr noundef nonnull align 8 dereferenceable(8) %0) #3
  ret ptr %call
}

; Function Attrs: mustprogress nounwind uwtable
define linkonce_odr dso_local noundef nonnull align 8 dereferenceable(8) ptr @_ZSt12__get_helperILm0EPN7testing8internal9DeathTestEJSt14default_deleteIS2_EEERT0_RSt11_Tuple_implIXT_EJS6_DpT1_EE(ptr noundef nonnull align 8 dereferenceable(8) %__t) #6 comdat {
entry:
  %__t.addr = alloca ptr, align 8
  store ptr %__t, ptr %__t.addr, align 8
  %0 = load ptr, ptr %__t.addr, align 8
  %call = call noundef nonnull align 8 dereferenceable(8) ptr @_ZNSt11_Tuple_implILm0EJPN7testing8internal9DeathTestESt14default_deleteIS2_EEE7_M_headERS6_(ptr noundef nonnull align 8 dereferenceable(8) %0) #3
  ret ptr %call
}

; Function Attrs: mustprogress nounwind uwtable
define linkonce_odr dso_local noundef nonnull align 8 dereferenceable(8) ptr @_ZNSt11_Tuple_implILm0EJPN7testing8internal9DeathTestESt14default_deleteIS2_EEE7_M_headERS6_(ptr noundef nonnull align 8 dereferenceable(8) %__t) #6 comdat align 2 {
entry:
  %__t.addr = alloca ptr, align 8
  store ptr %__t, ptr %__t.addr, align 8
  %0 = load ptr, ptr %__t.addr, align 8
  %call = call noundef nonnull align 8 dereferenceable(8) ptr @_ZNSt10_Head_baseILm0EPN7testing8internal9DeathTestELb0EE7_M_headERS4_(ptr noundef nonnull align 8 dereferenceable(8) %0) #3
  ret ptr %call
}

; Function Attrs: mustprogress nounwind uwtable
define linkonce_odr dso_local noundef nonnull align 8 dereferenceable(8) ptr @_ZNSt10_Head_baseILm0EPN7testing8internal9DeathTestELb0EE7_M_headERS4_(ptr noundef nonnull align 8 dereferenceable(8) %__b) #6 comdat align 2 {
entry:
  %__b.addr = alloca ptr, align 8
  store ptr %__b, ptr %__b.addr, align 8
  %0 = load ptr, ptr %__b.addr, align 8
  %_M_head_impl = getelementptr inbounds %"struct.std::_Head_base.13", ptr %0, i32 0, i32 0
  ret ptr %_M_head_impl
}

declare void @_ZN4absl12log_internal10LogMessage19CopyToEncodedBufferILNS1_10StringTypeE0EEEvSt17basic_string_viewIcSt11char_traitsIcEE(ptr noundef nonnull align 8 dereferenceable(16), i64, ptr) #1

; Function Attrs: mustprogress nounwind uwtable
define linkonce_odr dso_local void @_ZNSt17basic_string_viewIcSt11char_traitsIcEEC2EPKc(ptr noundef nonnull align 8 dereferenceable(16) %this, ptr noundef nonnull %__str) unnamed_addr #6 comdat align 2 personality ptr @__gxx_personality_v0 {
entry:
  %this.addr = alloca ptr, align 8
  %__str.addr = alloca ptr, align 8
  store ptr %this, ptr %this.addr, align 8
  store ptr %__str, ptr %__str.addr, align 8
  %this1 = load ptr, ptr %this.addr, align 8
  %_M_len = getelementptr inbounds %"class.std::basic_string_view", ptr %this1, i32 0, i32 0
  %0 = load ptr, ptr %__str.addr, align 8
  %call = invoke noundef i64 @_ZNSt11char_traitsIcE6lengthEPKc(ptr noundef %0)
          to label %invoke.cont unwind label %terminate.lpad

invoke.cont:                                      ; preds = %entry
  store i64 %call, ptr %_M_len, align 8
  %_M_str = getelementptr inbounds %"class.std::basic_string_view", ptr %this1, i32 0, i32 1
  %1 = load ptr, ptr %__str.addr, align 8
  store ptr %1, ptr %_M_str, align 8
  ret void

terminate.lpad:                                   ; preds = %entry
  %2 = landingpad { ptr, i32 }
          catch ptr null
  %3 = extractvalue { ptr, i32 } %2, 0
  call void @__clang_call_terminate(ptr %3) #20
  unreachable
}

; Function Attrs: mustprogress nounwind uwtable
define linkonce_odr dso_local noundef i64 @_ZNSt11char_traitsIcE6lengthEPKc(ptr noundef %__s) #6 comdat align 2 {
entry:
  %__s.addr = alloca ptr, align 8
  store ptr %__s, ptr %__s.addr, align 8
  %0 = load ptr, ptr %__s.addr, align 8
  %call = call i64 @strlen(ptr noundef %0) #3
  ret i64 %call
}

; Function Attrs: nounwind
declare i64 @strlen(ptr noundef) #2

; Function Attrs: mustprogress nounwind uwtable
define linkonce_odr dso_local noundef nonnull align 1 dereferenceable(1) ptr @_ZNSt10unique_ptrIN7testing8internal9DeathTestESt14default_deleteIS2_EE11get_deleterEv(ptr noundef nonnull align 8 dereferenceable(8) %this) #6 comdat align 2 {
entry:
  %this.addr = alloca ptr, align 8
  store ptr %this, ptr %this.addr, align 8
  %this1 = load ptr, ptr %this.addr, align 8
  %_M_t = getelementptr inbounds %"class.std::unique_ptr.6", ptr %this1, i32 0, i32 0
  %call = call noundef nonnull align 1 dereferenceable(1) ptr @_ZNSt15__uniq_ptr_implIN7testing8internal9DeathTestESt14default_deleteIS2_EE10_M_deleterEv(ptr noundef nonnull align 8 dereferenceable(8) %_M_t) #3
  ret ptr %call
}

; Function Attrs: mustprogress nounwind uwtable
define linkonce_odr dso_local void @_ZNKSt14default_deleteIN7testing8internal9DeathTestEEclEPS2_(ptr noundef nonnull align 1 dereferenceable(1) %this, ptr noundef %__ptr) #6 comdat align 2 {
entry:
  %this.addr = alloca ptr, align 8
  %__ptr.addr = alloca ptr, align 8
  store ptr %this, ptr %this.addr, align 8
  store ptr %__ptr, ptr %__ptr.addr, align 8
  %0 = load ptr, ptr %__ptr.addr, align 8
  %isnull = icmp eq ptr %0, null
  br i1 %isnull, label %delete.end, label %delete.notnull

delete.notnull:                                   ; preds = %entry
  %vtable = load ptr, ptr %0, align 8
  %vfn = getelementptr inbounds ptr, ptr %vtable, i64 1
  %1 = load ptr, ptr %vfn, align 8
  call void %1(ptr noundef nonnull align 8 dereferenceable(8) %0) #3
  br label %delete.end

delete.end:                                       ; preds = %delete.notnull, %entry
  ret void
}

; Function Attrs: mustprogress nounwind uwtable
define linkonce_odr dso_local noundef nonnull align 1 dereferenceable(1) ptr @_ZNSt15__uniq_ptr_implIN7testing8internal9DeathTestESt14default_deleteIS2_EE10_M_deleterEv(ptr noundef nonnull align 8 dereferenceable(8) %this) #6 comdat align 2 {
entry:
  %this.addr = alloca ptr, align 8
  store ptr %this, ptr %this.addr, align 8
  %this1 = load ptr, ptr %this.addr, align 8
  %_M_t = getelementptr inbounds %"class.std::__uniq_ptr_impl.8", ptr %this1, i32 0, i32 0
  %call = call noundef nonnull align 1 dereferenceable(1) ptr @_ZSt3getILm1EJPN7testing8internal9DeathTestESt14default_deleteIS2_EEERNSt13tuple_elementIXT_ESt5tupleIJDpT0_EEE4typeERSA_(ptr noundef nonnull align 8 dereferenceable(8) %_M_t) #3
  ret ptr %call
}

; Function Attrs: mustprogress nounwind uwtable
define linkonce_odr dso_local noundef nonnull align 1 dereferenceable(1) ptr @_ZSt3getILm1EJPN7testing8internal9DeathTestESt14default_deleteIS2_EEERNSt13tuple_elementIXT_ESt5tupleIJDpT0_EEE4typeERSA_(ptr noundef nonnull align 8 dereferenceable(8) %__t) #6 comdat {
entry:
  %__t.addr = alloca ptr, align 8
  store ptr %__t, ptr %__t.addr, align 8
  %0 = load ptr, ptr %__t.addr, align 8
  %call = call noundef nonnull align 1 dereferenceable(1) ptr @_ZSt12__get_helperILm1ESt14default_deleteIN7testing8internal9DeathTestEEJEERT0_RSt11_Tuple_implIXT_EJS5_DpT1_EE(ptr noundef nonnull align 1 dereferenceable(1) %0) #3
  ret ptr %call
}

; Function Attrs: mustprogress nounwind uwtable
define linkonce_odr dso_local noundef nonnull align 1 dereferenceable(1) ptr @_ZSt12__get_helperILm1ESt14default_deleteIN7testing8internal9DeathTestEEJEERT0_RSt11_Tuple_implIXT_EJS5_DpT1_EE(ptr noundef nonnull align 1 dereferenceable(1) %__t) #6 comdat {
entry:
  %__t.addr = alloca ptr, align 8
  store ptr %__t, ptr %__t.addr, align 8
  %0 = load ptr, ptr %__t.addr, align 8
  %call = call noundef nonnull align 1 dereferenceable(1) ptr @_ZNSt11_Tuple_implILm1EJSt14default_deleteIN7testing8internal9DeathTestEEEE7_M_headERS5_(ptr noundef nonnull align 1 dereferenceable(1) %0) #3
  ret ptr %call
}

; Function Attrs: mustprogress nounwind uwtable
define linkonce_odr dso_local noundef nonnull align 1 dereferenceable(1) ptr @_ZNSt11_Tuple_implILm1EJSt14default_deleteIN7testing8internal9DeathTestEEEE7_M_headERS5_(ptr noundef nonnull align 1 dereferenceable(1) %__t) #6 comdat align 2 {
entry:
  %__t.addr = alloca ptr, align 8
  store ptr %__t, ptr %__t.addr, align 8
  %0 = load ptr, ptr %__t.addr, align 8
  %call = call noundef nonnull align 1 dereferenceable(1) ptr @_ZNSt10_Head_baseILm1ESt14default_deleteIN7testing8internal9DeathTestEELb1EE7_M_headERS5_(ptr noundef nonnull align 1 dereferenceable(1) %0) #3
  ret ptr %call
}

; Function Attrs: mustprogress nounwind uwtable
define linkonce_odr dso_local noundef nonnull align 1 dereferenceable(1) ptr @_ZNSt10_Head_baseILm1ESt14default_deleteIN7testing8internal9DeathTestEELb1EE7_M_headERS5_(ptr noundef nonnull align 1 dereferenceable(1) %__b) #6 comdat align 2 {
entry:
  %__b.addr = alloca ptr, align 8
  store ptr %__b, ptr %__b.addr, align 8
  %0 = load ptr, ptr %__b.addr, align 8
  ret ptr %0
}

; Function Attrs: mustprogress nounwind uwtable
define linkonce_odr dso_local void @_ZNSt10unique_ptrINSt7__cxx1118basic_stringstreamIcSt11char_traitsIcESaIcEEESt14default_deleteIS5_EED2Ev(ptr noundef nonnull align 8 dereferenceable(8) %this) unnamed_addr #6 comdat align 2 personality ptr @__gxx_personality_v0 {
entry:
  %this.addr = alloca ptr, align 8
  %__ptr = alloca ptr, align 8
  store ptr %this, ptr %this.addr, align 8
  %this1 = load ptr, ptr %this.addr, align 8
  %_M_t = getelementptr inbounds %"class.std::unique_ptr.22", ptr %this1, i32 0, i32 0
  %call = call noundef nonnull align 8 dereferenceable(8) ptr @_ZNSt15__uniq_ptr_implINSt7__cxx1118basic_stringstreamIcSt11char_traitsIcESaIcEEESt14default_deleteIS5_EE6_M_ptrEv(ptr noundef nonnull align 8 dereferenceable(8) %_M_t) #3
  store ptr %call, ptr %__ptr, align 8
  %0 = load ptr, ptr %__ptr, align 8
  %1 = load ptr, ptr %0, align 8
  %cmp = icmp ne ptr %1, null
  br i1 %cmp, label %if.then, label %if.end

if.then:                                          ; preds = %entry
  %call2 = call noundef nonnull align 1 dereferenceable(1) ptr @_ZNSt10unique_ptrINSt7__cxx1118basic_stringstreamIcSt11char_traitsIcESaIcEEESt14default_deleteIS5_EE11get_deleterEv(ptr noundef nonnull align 8 dereferenceable(8) %this1) #3
  %2 = load ptr, ptr %__ptr, align 8
  %3 = load ptr, ptr %2, align 8
  invoke void @_ZNKSt14default_deleteINSt7__cxx1118basic_stringstreamIcSt11char_traitsIcESaIcEEEEclEPS5_(ptr noundef nonnull align 1 dereferenceable(1) %call2, ptr noundef %3)
          to label %invoke.cont unwind label %terminate.lpad

invoke.cont:                                      ; preds = %if.then
  br label %if.end

if.end:                                           ; preds = %invoke.cont, %entry
  %4 = load ptr, ptr %__ptr, align 8
  store ptr null, ptr %4, align 8
  ret void

terminate.lpad:                                   ; preds = %if.then
  %5 = landingpad { ptr, i32 }
          catch ptr null
  %6 = extractvalue { ptr, i32 } %5, 0
  call void @__clang_call_terminate(ptr %6) #20
  unreachable
}

; Function Attrs: mustprogress nounwind uwtable
define linkonce_odr dso_local noundef nonnull align 8 dereferenceable(8) ptr @_ZNSt15__uniq_ptr_implINSt7__cxx1118basic_stringstreamIcSt11char_traitsIcESaIcEEESt14default_deleteIS5_EE6_M_ptrEv(ptr noundef nonnull align 8 dereferenceable(8) %this) #6 comdat align 2 {
entry:
  %this.addr = alloca ptr, align 8
  store ptr %this, ptr %this.addr, align 8
  %this1 = load ptr, ptr %this.addr, align 8
  %_M_t = getelementptr inbounds %"class.std::__uniq_ptr_impl.24", ptr %this1, i32 0, i32 0
  %call = call noundef nonnull align 8 dereferenceable(8) ptr @_ZSt3getILm0EJPNSt7__cxx1118basic_stringstreamIcSt11char_traitsIcESaIcEEESt14default_deleteIS5_EEERNSt13tuple_elementIXT_ESt5tupleIJDpT0_EEE4typeERSD_(ptr noundef nonnull align 8 dereferenceable(8) %_M_t) #3
  ret ptr %call
}

; Function Attrs: mustprogress nounwind uwtable
define linkonce_odr dso_local noundef nonnull align 1 dereferenceable(1) ptr @_ZNSt10unique_ptrINSt7__cxx1118basic_stringstreamIcSt11char_traitsIcESaIcEEESt14default_deleteIS5_EE11get_deleterEv(ptr noundef nonnull align 8 dereferenceable(8) %this) #6 comdat align 2 {
entry:
  %this.addr = alloca ptr, align 8
  store ptr %this, ptr %this.addr, align 8
  %this1 = load ptr, ptr %this.addr, align 8
  %_M_t = getelementptr inbounds %"class.std::unique_ptr.22", ptr %this1, i32 0, i32 0
  %call = call noundef nonnull align 1 dereferenceable(1) ptr @_ZNSt15__uniq_ptr_implINSt7__cxx1118basic_stringstreamIcSt11char_traitsIcESaIcEEESt14default_deleteIS5_EE10_M_deleterEv(ptr noundef nonnull align 8 dereferenceable(8) %_M_t) #3
  ret ptr %call
}

; Function Attrs: mustprogress nounwind uwtable
define linkonce_odr dso_local void @_ZNKSt14default_deleteINSt7__cxx1118basic_stringstreamIcSt11char_traitsIcESaIcEEEEclEPS5_(ptr noundef nonnull align 1 dereferenceable(1) %this, ptr noundef %__ptr) #6 comdat align 2 {
entry:
  %this.addr = alloca ptr, align 8
  %__ptr.addr = alloca ptr, align 8
  store ptr %this, ptr %this.addr, align 8
  store ptr %__ptr, ptr %__ptr.addr, align 8
  %0 = load ptr, ptr %__ptr.addr, align 8
  %isnull = icmp eq ptr %0, null
  br i1 %isnull, label %delete.end, label %delete.notnull

delete.notnull:                                   ; preds = %entry
  %vtable = load ptr, ptr %0, align 8
  %vfn = getelementptr inbounds ptr, ptr %vtable, i64 1
  %1 = load ptr, ptr %vfn, align 8
  call void %1(ptr noundef nonnull align 8 dereferenceable(128) %0) #3
  br label %delete.end

delete.end:                                       ; preds = %delete.notnull, %entry
  ret void
}

; Function Attrs: mustprogress nounwind uwtable
define linkonce_odr dso_local noundef nonnull align 8 dereferenceable(8) ptr @_ZSt3getILm0EJPNSt7__cxx1118basic_stringstreamIcSt11char_traitsIcESaIcEEESt14default_deleteIS5_EEERNSt13tuple_elementIXT_ESt5tupleIJDpT0_EEE4typeERSD_(ptr noundef nonnull align 8 dereferenceable(8) %__t) #6 comdat {
entry:
  %__t.addr = alloca ptr, align 8
  store ptr %__t, ptr %__t.addr, align 8
  %0 = load ptr, ptr %__t.addr, align 8
  %call = call noundef nonnull align 8 dereferenceable(8) ptr @_ZSt12__get_helperILm0EPNSt7__cxx1118basic_stringstreamIcSt11char_traitsIcESaIcEEEJSt14default_deleteIS5_EEERT0_RSt11_Tuple_implIXT_EJS9_DpT1_EE(ptr noundef nonnull align 8 dereferenceable(8) %0) #3
  ret ptr %call
}

; Function Attrs: mustprogress nounwind uwtable
define linkonce_odr dso_local noundef nonnull align 8 dereferenceable(8) ptr @_ZSt12__get_helperILm0EPNSt7__cxx1118basic_stringstreamIcSt11char_traitsIcESaIcEEEJSt14default_deleteIS5_EEERT0_RSt11_Tuple_implIXT_EJS9_DpT1_EE(ptr noundef nonnull align 8 dereferenceable(8) %__t) #6 comdat {
entry:
  %__t.addr = alloca ptr, align 8
  store ptr %__t, ptr %__t.addr, align 8
  %0 = load ptr, ptr %__t.addr, align 8
  %call = call noundef nonnull align 8 dereferenceable(8) ptr @_ZNSt11_Tuple_implILm0EJPNSt7__cxx1118basic_stringstreamIcSt11char_traitsIcESaIcEEESt14default_deleteIS5_EEE7_M_headERS9_(ptr noundef nonnull align 8 dereferenceable(8) %0) #3
  ret ptr %call
}

; Function Attrs: mustprogress nounwind uwtable
define linkonce_odr dso_local noundef nonnull align 8 dereferenceable(8) ptr @_ZNSt11_Tuple_implILm0EJPNSt7__cxx1118basic_stringstreamIcSt11char_traitsIcESaIcEEESt14default_deleteIS5_EEE7_M_headERS9_(ptr noundef nonnull align 8 dereferenceable(8) %__t) #6 comdat align 2 {
entry:
  %__t.addr = alloca ptr, align 8
  store ptr %__t, ptr %__t.addr, align 8
  %0 = load ptr, ptr %__t.addr, align 8
  %call = call noundef nonnull align 8 dereferenceable(8) ptr @_ZNSt10_Head_baseILm0EPNSt7__cxx1118basic_stringstreamIcSt11char_traitsIcESaIcEEELb0EE7_M_headERS7_(ptr noundef nonnull align 8 dereferenceable(8) %0) #3
  ret ptr %call
}

; Function Attrs: mustprogress nounwind uwtable
define linkonce_odr dso_local noundef nonnull align 8 dereferenceable(8) ptr @_ZNSt10_Head_baseILm0EPNSt7__cxx1118basic_stringstreamIcSt11char_traitsIcESaIcEEELb0EE7_M_headERS7_(ptr noundef nonnull align 8 dereferenceable(8) %__b) #6 comdat align 2 {
entry:
  %__b.addr = alloca ptr, align 8
  store ptr %__b, ptr %__b.addr, align 8
  %0 = load ptr, ptr %__b.addr, align 8
  %_M_head_impl = getelementptr inbounds %"struct.std::_Head_base.29", ptr %0, i32 0, i32 0
  ret ptr %_M_head_impl
}

; Function Attrs: mustprogress nounwind uwtable
define linkonce_odr dso_local noundef nonnull align 1 dereferenceable(1) ptr @_ZNSt15__uniq_ptr_implINSt7__cxx1118basic_stringstreamIcSt11char_traitsIcESaIcEEESt14default_deleteIS5_EE10_M_deleterEv(ptr noundef nonnull align 8 dereferenceable(8) %this) #6 comdat align 2 {
entry:
  %this.addr = alloca ptr, align 8
  store ptr %this, ptr %this.addr, align 8
  %this1 = load ptr, ptr %this.addr, align 8
  %_M_t = getelementptr inbounds %"class.std::__uniq_ptr_impl.24", ptr %this1, i32 0, i32 0
  %call = call noundef nonnull align 1 dereferenceable(1) ptr @_ZSt3getILm1EJPNSt7__cxx1118basic_stringstreamIcSt11char_traitsIcESaIcEEESt14default_deleteIS5_EEERNSt13tuple_elementIXT_ESt5tupleIJDpT0_EEE4typeERSD_(ptr noundef nonnull align 8 dereferenceable(8) %_M_t) #3
  ret ptr %call
}

; Function Attrs: mustprogress nounwind uwtable
define linkonce_odr dso_local noundef nonnull align 1 dereferenceable(1) ptr @_ZSt3getILm1EJPNSt7__cxx1118basic_stringstreamIcSt11char_traitsIcESaIcEEESt14default_deleteIS5_EEERNSt13tuple_elementIXT_ESt5tupleIJDpT0_EEE4typeERSD_(ptr noundef nonnull align 8 dereferenceable(8) %__t) #6 comdat {
entry:
  %__t.addr = alloca ptr, align 8
  store ptr %__t, ptr %__t.addr, align 8
  %0 = load ptr, ptr %__t.addr, align 8
  %call = call noundef nonnull align 1 dereferenceable(1) ptr @_ZSt12__get_helperILm1ESt14default_deleteINSt7__cxx1118basic_stringstreamIcSt11char_traitsIcESaIcEEEEJEERT0_RSt11_Tuple_implIXT_EJS8_DpT1_EE(ptr noundef nonnull align 1 dereferenceable(1) %0) #3
  ret ptr %call
}

; Function Attrs: mustprogress nounwind uwtable
define linkonce_odr dso_local noundef nonnull align 1 dereferenceable(1) ptr @_ZSt12__get_helperILm1ESt14default_deleteINSt7__cxx1118basic_stringstreamIcSt11char_traitsIcESaIcEEEEJEERT0_RSt11_Tuple_implIXT_EJS8_DpT1_EE(ptr noundef nonnull align 1 dereferenceable(1) %__t) #6 comdat {
entry:
  %__t.addr = alloca ptr, align 8
  store ptr %__t, ptr %__t.addr, align 8
  %0 = load ptr, ptr %__t.addr, align 8
  %call = call noundef nonnull align 1 dereferenceable(1) ptr @_ZNSt11_Tuple_implILm1EJSt14default_deleteINSt7__cxx1118basic_stringstreamIcSt11char_traitsIcESaIcEEEEEE7_M_headERS8_(ptr noundef nonnull align 1 dereferenceable(1) %0) #3
  ret ptr %call
}

; Function Attrs: mustprogress nounwind uwtable
define linkonce_odr dso_local noundef nonnull align 1 dereferenceable(1) ptr @_ZNSt11_Tuple_implILm1EJSt14default_deleteINSt7__cxx1118basic_stringstreamIcSt11char_traitsIcESaIcEEEEEE7_M_headERS8_(ptr noundef nonnull align 1 dereferenceable(1) %__t) #6 comdat align 2 {
entry:
  %__t.addr = alloca ptr, align 8
  store ptr %__t, ptr %__t.addr, align 8
  %0 = load ptr, ptr %__t.addr, align 8
  %call = call noundef nonnull align 1 dereferenceable(1) ptr @_ZNSt10_Head_baseILm1ESt14default_deleteINSt7__cxx1118basic_stringstreamIcSt11char_traitsIcESaIcEEEELb1EE7_M_headERS8_(ptr noundef nonnull align 1 dereferenceable(1) %0) #3
  ret ptr %call
}

; Function Attrs: mustprogress nounwind uwtable
define linkonce_odr dso_local noundef nonnull align 1 dereferenceable(1) ptr @_ZNSt10_Head_baseILm1ESt14default_deleteINSt7__cxx1118basic_stringstreamIcSt11char_traitsIcESaIcEEEELb1EE7_M_headERS8_(ptr noundef nonnull align 1 dereferenceable(1) %__b) #6 comdat align 2 {
entry:
  %__b.addr = alloca ptr, align 8
  store ptr %__b, ptr %__b.addr, align 8
  %0 = load ptr, ptr %__b.addr, align 8
  ret ptr %0
}

; Function Attrs: mustprogress nounwind uwtable
define internal void @_ZN7testing8internal15TestFactoryImplIN12_GLOBAL__N_151StderrLogSinkDeathTest_WarningMessagesInStderr_TestEED2Ev(ptr noundef nonnull align 8 dereferenceable(8) %this) unnamed_addr #6 align 2 {
entry:
  %this.addr = alloca ptr, align 8
  store ptr %this, ptr %this.addr, align 8
  %this1 = load ptr, ptr %this.addr, align 8
  call void @_ZN7testing8internal15TestFactoryBaseD2Ev(ptr noundef nonnull align 8 dereferenceable(8) %this1) #3
  ret void
}

; Function Attrs: mustprogress nounwind uwtable
define internal void @_ZN7testing8internal15TestFactoryImplIN12_GLOBAL__N_151StderrLogSinkDeathTest_WarningMessagesInStderr_TestEED0Ev(ptr noundef nonnull align 8 dereferenceable(8) %this) unnamed_addr #6 align 2 {
entry:
  %this.addr = alloca ptr, align 8
  store ptr %this, ptr %this.addr, align 8
  %this1 = load ptr, ptr %this.addr, align 8
  call void @_ZN7testing8internal15TestFactoryImplIN12_GLOBAL__N_151StderrLogSinkDeathTest_WarningMessagesInStderr_TestEED2Ev(ptr noundef nonnull align 8 dereferenceable(8) %this1) #3
  call void @_ZdlPv(ptr noundef %this1) #18
  ret void
}

; Function Attrs: mustprogress uwtable
define internal noundef ptr @_ZN7testing8internal15TestFactoryImplIN12_GLOBAL__N_151StderrLogSinkDeathTest_WarningMessagesInStderr_TestEE10CreateTestEv(ptr noundef nonnull align 8 dereferenceable(8) %this) unnamed_addr #4 align 2 personality ptr @__gxx_personality_v0 {
entry:
  %this.addr = alloca ptr, align 8
  %exn.slot = alloca ptr, align 8
  %ehselector.slot = alloca i32, align 4
  store ptr %this, ptr %this.addr, align 8
  %call = call noalias noundef nonnull ptr @_Znwm(i64 noundef 16) #17
  invoke void @_ZN12_GLOBAL__N_151StderrLogSinkDeathTest_WarningMessagesInStderr_TestC2Ev(ptr noundef nonnull align 8 dereferenceable(16) %call)
          to label %invoke.cont unwind label %lpad

invoke.cont:                                      ; preds = %entry
  ret ptr %call

lpad:                                             ; preds = %entry
  %0 = landingpad { ptr, i32 }
          cleanup
  %1 = extractvalue { ptr, i32 } %0, 0
  store ptr %1, ptr %exn.slot, align 8
  %2 = extractvalue { ptr, i32 } %0, 1
  store i32 %2, ptr %ehselector.slot, align 4
  call void @_ZdlPv(ptr noundef %call) #18
  br label %eh.resume

eh.resume:                                        ; preds = %lpad
  %exn = load ptr, ptr %exn.slot, align 8
  %sel = load i32, ptr %ehselector.slot, align 4
  %lpad.val = insertvalue { ptr, i32 } poison, ptr %exn, 0
  %lpad.val2 = insertvalue { ptr, i32 } %lpad.val, i32 %sel, 1
  resume { ptr, i32 } %lpad.val2
}

; Function Attrs: mustprogress uwtable
define internal void @_ZN12_GLOBAL__N_151StderrLogSinkDeathTest_WarningMessagesInStderr_TestC2Ev(ptr noundef nonnull align 8 dereferenceable(16) %this) unnamed_addr #4 align 2 {
entry:
  %this.addr = alloca ptr, align 8
  store ptr %this, ptr %this.addr, align 8
  %this1 = load ptr, ptr %this.addr, align 8
  call void @_ZN7testing4TestC2Ev(ptr noundef nonnull align 8 dereferenceable(16) %this1)
  store ptr getelementptr inbounds ({ [8 x ptr] }, ptr @_ZTVN12_GLOBAL__N_151StderrLogSinkDeathTest_WarningMessagesInStderr_TestE, i32 0, inrange i32 0, i32 2), ptr %this1, align 8
  ret void
}

; Function Attrs: mustprogress nounwind uwtable
define internal void @_ZN12_GLOBAL__N_151StderrLogSinkDeathTest_WarningMessagesInStderr_TestD2Ev(ptr noundef nonnull align 8 dereferenceable(16) %this) unnamed_addr #6 align 2 {
entry:
  %this.addr = alloca ptr, align 8
  store ptr %this, ptr %this.addr, align 8
  %this1 = load ptr, ptr %this.addr, align 8
  call void @_ZN7testing4TestD2Ev(ptr noundef nonnull align 8 dereferenceable(16) %this1) #3
  ret void
}

; Function Attrs: mustprogress nounwind uwtable
define internal void @_ZN12_GLOBAL__N_151StderrLogSinkDeathTest_WarningMessagesInStderr_TestD0Ev(ptr noundef nonnull align 8 dereferenceable(16) %this) unnamed_addr #6 align 2 {
entry:
  %this.addr = alloca ptr, align 8
  store ptr %this, ptr %this.addr, align 8
  %this1 = load ptr, ptr %this.addr, align 8
  call void @_ZN12_GLOBAL__N_151StderrLogSinkDeathTest_WarningMessagesInStderr_TestD2Ev(ptr noundef nonnull align 8 dereferenceable(16) %this1) #3
  call void @_ZdlPv(ptr noundef %this1) #18
  ret void
}

; Function Attrs: mustprogress uwtable
define internal void @_ZN12_GLOBAL__N_151StderrLogSinkDeathTest_WarningMessagesInStderr_Test8TestBodyEv(ptr noundef nonnull align 8 dereferenceable(16) %this) unnamed_addr #4 align 2 personality ptr @__gxx_personality_v0 {
entry:
  %this.addr = alloca ptr, align 8
  %gtest_dt = alloca ptr, align 8
  %agg.tmp = alloca %"class.testing::Matcher", align 8
  %exn.slot = alloca ptr, align 8
  %ehselector.slot = alloca i32, align 4
  %gtest_dt_ptr = alloca %"class.std::unique_ptr.6", align 8
  %gtest_sentinel = alloca %"class.testing::internal::DeathTest::ReturnSentinel", align 8
  %ref.tmp = alloca %"class.absl::log_internal::Voidify", align 1
  %ref.tmp27 = alloca %"class.absl::log_internal::LogMessage", align 8
  %gtest_exception = alloca ptr, align 8
  %ref.tmp44 = alloca %"class.std::__cxx11::basic_string", align 8
  %cleanup.dest.slot = alloca i32, align 4
  %ref.tmp68 = alloca %"class.testing::Message", align 8
  %ref.tmp69 = alloca %"class.testing::internal::AssertHelper", align 8
  store ptr %this, ptr %this.addr, align 8
  %call = call noundef zeroext i1 @_ZN7testing8internal10AlwaysTrueEv()
  br i1 %call, label %if.then, label %if.else67

if.then:                                          ; preds = %entry
  call void @_ZN7testing8internal20MakeDeathTestMatcherB5cxx11EPKc(ptr sret(%"class.testing::Matcher") align 8 %agg.tmp, ptr noundef @.str.27)
  %call2 = invoke noundef zeroext i1 @_ZN7testing8internal9DeathTest6CreateEPKcNS_7MatcherIRKNSt7__cxx1112basic_stringIcSt11char_traitsIcESaIcEEEEES3_iPPS1_(ptr noundef @.str.26, ptr noundef %agg.tmp, ptr noundef @.str.4, i32 noundef 64, ptr noundef %gtest_dt)
          to label %invoke.cont unwind label %lpad

invoke.cont:                                      ; preds = %if.then
  %lnot = xor i1 %call2, true
  call void @_ZN7testing7MatcherIRKNSt7__cxx1112basic_stringIcSt11char_traitsIcESaIcEEEED2Ev(ptr noundef nonnull align 8 dereferenceable(24) %agg.tmp) #3
  br i1 %lnot, label %if.then3, label %if.end

if.then3:                                         ; preds = %invoke.cont
  br label %gtest_label_64

lpad:                                             ; preds = %if.then
  %0 = landingpad { ptr, i32 }
          cleanup
  %1 = extractvalue { ptr, i32 } %0, 0
  store ptr %1, ptr %exn.slot, align 8
  %2 = extractvalue { ptr, i32 } %0, 1
  store i32 %2, ptr %ehselector.slot, align 4
  call void @_ZN7testing7MatcherIRKNSt7__cxx1112basic_stringIcSt11char_traitsIcESaIcEEEED2Ev(ptr noundef nonnull align 8 dereferenceable(24) %agg.tmp) #3
  br label %eh.resume

if.end:                                           ; preds = %invoke.cont
  %3 = load ptr, ptr %gtest_dt, align 8
  %cmp = icmp ne ptr %3, null
  br i1 %cmp, label %if.then4, label %if.end66

if.then4:                                         ; preds = %if.end
  %4 = load ptr, ptr %gtest_dt, align 8
  call void @_ZNSt10unique_ptrIN7testing8internal9DeathTestESt14default_deleteIS2_EEC2IS4_vEEPS2_(ptr noundef nonnull align 8 dereferenceable(8) %gtest_dt_ptr, ptr noundef %4) #3
  %5 = load ptr, ptr %gtest_dt, align 8
  %vtable = load ptr, ptr %5, align 8
  %vfn = getelementptr inbounds ptr, ptr %vtable, i64 2
  %6 = load ptr, ptr %vfn, align 8
  %call7 = invoke noundef i32 %6(ptr noundef nonnull align 8 dereferenceable(8) %5)
          to label %invoke.cont6 unwind label %lpad5

invoke.cont6:                                     ; preds = %if.then4
  switch i32 %call7, label %sw.epilog [
    i32 0, label %sw.bb
    i32 1, label %sw.bb20
  ]

lpad5:                                            ; preds = %sw.bb20, %invoke.cont12, %invoke.cont10, %sw.bb, %if.then4
  %7 = landingpad { ptr, i32 }
          cleanup
  %8 = extractvalue { ptr, i32 } %7, 0
  store ptr %8, ptr %exn.slot, align 8
  %9 = extractvalue { ptr, i32 } %7, 1
  store i32 %9, ptr %ehselector.slot, align 4
  br label %ehcleanup65

sw.bb:                                            ; preds = %invoke.cont6
  %10 = load ptr, ptr %gtest_dt, align 8
  %11 = load ptr, ptr %gtest_dt, align 8
  %vtable8 = load ptr, ptr %11, align 8
  %vfn9 = getelementptr inbounds ptr, ptr %vtable8, i64 3
  %12 = load ptr, ptr %vfn9, align 8
  %call11 = invoke noundef i32 %12(ptr noundef nonnull align 8 dereferenceable(8) %11)
          to label %invoke.cont10 unwind label %lpad5

invoke.cont10:                                    ; preds = %sw.bb
  %call13 = invoke noundef zeroext i1 @_ZN7testing8internal20ExitedUnsuccessfullyEi(i32 noundef %call11)
          to label %invoke.cont12 unwind label %lpad5

invoke.cont12:                                    ; preds = %invoke.cont10
  %vtable14 = load ptr, ptr %10, align 8
  %vfn15 = getelementptr inbounds ptr, ptr %vtable14, i64 4
  %13 = load ptr, ptr %vfn15, align 8
  %call17 = invoke noundef zeroext i1 %13(ptr noundef nonnull align 8 dereferenceable(8) %10, i1 noundef zeroext %call13)
          to label %invoke.cont16 unwind label %lpad5

invoke.cont16:                                    ; preds = %invoke.cont12
  br i1 %call17, label %if.end19, label %if.then18

if.then18:                                        ; preds = %invoke.cont16
  store i32 2, ptr %cleanup.dest.slot, align 4
  br label %cleanup

if.end19:                                         ; preds = %invoke.cont16
  br label %sw.epilog

sw.bb20:                                          ; preds = %invoke.cont6
  %14 = load ptr, ptr %gtest_dt, align 8
  invoke void @_ZN7testing8internal9DeathTest14ReturnSentinelC2EPS1_(ptr noundef nonnull align 8 dereferenceable(8) %gtest_sentinel, ptr noundef %14)
          to label %invoke.cont21 unwind label %lpad5

invoke.cont21:                                    ; preds = %sw.bb20
  %call24 = invoke noundef zeroext i1 @_ZN7testing8internal10AlwaysTrueEv()
          to label %invoke.cont23 unwind label %lpad22

invoke.cont23:                                    ; preds = %invoke.cont21
  br i1 %call24, label %if.then25, label %if.else

if.then25:                                        ; preds = %invoke.cont23
  invoke void @_ZN4absl18SetStderrThresholdENS_18LogSeverityAtLeastE(i32 noundef 0)
          to label %invoke.cont26 unwind label %lpad22

invoke.cont26:                                    ; preds = %if.then25
  invoke void @_ZN4absl12log_internal10LogMessageC1EPKciNS1_10WarningTagE(ptr noundef nonnull align 8 dereferenceable(16) %ref.tmp27, ptr noundef @.str.4, i32 noundef 61) #21
          to label %invoke.cont29 unwind label %lpad22

invoke.cont29:                                    ; preds = %invoke.cont26
  %call30 = call noundef nonnull align 8 dereferenceable(16) ptr @_ZN4absl12log_internal10LogMessage14InternalStreamEv(ptr noundef nonnull align 8 dereferenceable(16) %ref.tmp27)
  %call33 = invoke noundef nonnull align 8 dereferenceable(16) ptr @_ZN4absl12log_internal10LogMessagelsILi16EEERS1_RAT__Kc(ptr noundef nonnull align 8 dereferenceable(16) %call30, ptr noundef nonnull align 1 dereferenceable(16) @.str.27)
          to label %invoke.cont32 unwind label %lpad31

invoke.cont32:                                    ; preds = %invoke.cont29
  call void @_ZNKO4absl12log_internal7VoidifyaaINS0_10LogMessageEEEvRKT_(ptr noundef nonnull align 1 dereferenceable(1) %ref.tmp, ptr noundef nonnull align 8 dereferenceable(16) %call33)
  call void @_ZN4absl12log_internal10LogMessageD1Ev(ptr noundef nonnull align 8 dereferenceable(16) %ref.tmp27) #22
  call void @exit(i32 noundef 1) #20
  unreachable

lpad22:                                           ; preds = %invoke.cont26, %if.then25, %invoke.cont21
  %15 = landingpad { ptr, i32 }
          catch ptr @_ZTISt9exception
          catch ptr null
  %16 = extractvalue { ptr, i32 } %15, 0
  store ptr %16, ptr %exn.slot, align 8
  %17 = extractvalue { ptr, i32 } %15, 1
  store i32 %17, ptr %ehselector.slot, align 4
  br label %catch.dispatch

lpad31:                                           ; preds = %invoke.cont29
  %18 = landingpad { ptr, i32 }
          catch ptr @_ZTISt9exception
          catch ptr null
  %19 = extractvalue { ptr, i32 } %18, 0
  store ptr %19, ptr %exn.slot, align 8
  %20 = extractvalue { ptr, i32 } %18, 1
  store i32 %20, ptr %ehselector.slot, align 4
  call void @_ZN4absl12log_internal10LogMessageD1Ev(ptr noundef nonnull align 8 dereferenceable(16) %ref.tmp27) #22
  br label %catch.dispatch

catch.dispatch:                                   ; preds = %lpad31, %lpad22
  %sel = load i32, ptr %ehselector.slot, align 4
  %21 = call i32 @llvm.eh.typeid.for(ptr @_ZTISt9exception) #3
  %matches = icmp eq i32 %sel, %21
  br i1 %matches, label %catch42, label %catch

catch42:                                          ; preds = %catch.dispatch
  %exn43 = load ptr, ptr %exn.slot, align 8
  %22 = call ptr @__cxa_begin_catch(ptr %exn43) #3
  store ptr %22, ptr %gtest_exception, align 8
  %23 = load ptr, ptr @stderr, align 8
  invoke void @_ZN7testing8internal18FormatFileLocationB5cxx11EPKci(ptr sret(%"class.std::__cxx11::basic_string") align 8 %ref.tmp44, ptr noundef @.str.4, i32 noundef 64)
          to label %invoke.cont46 unwind label %lpad45

invoke.cont46:                                    ; preds = %catch42
  %call47 = call noundef ptr @_ZNKSt7__cxx1112basic_stringIcSt11char_traitsIcESaIcEE5c_strEv(ptr noundef nonnull align 8 dereferenceable(32) %ref.tmp44) #3
  %24 = load ptr, ptr %gtest_exception, align 8
  %vtable48 = load ptr, ptr %24, align 8
  %vfn49 = getelementptr inbounds ptr, ptr %vtable48, i64 2
  %25 = load ptr, ptr %vfn49, align 8
  %call50 = call noundef ptr %25(ptr noundef nonnull align 8 dereferenceable(8) %24) #3
  %call53 = invoke i32 (ptr, ptr, ...) @fprintf(ptr noundef %23, ptr noundef @.str.15, ptr noundef %call47, ptr noundef %call50)
          to label %invoke.cont52 unwind label %lpad51

invoke.cont52:                                    ; preds = %invoke.cont46
  call void @_ZNSt7__cxx1112basic_stringIcSt11char_traitsIcESaIcEED1Ev(ptr noundef nonnull align 8 dereferenceable(32) %ref.tmp44) #3
  %26 = load ptr, ptr @stderr, align 8
  %call55 = invoke i32 @fflush(ptr noundef %26)
          to label %invoke.cont54 unwind label %lpad45

invoke.cont54:                                    ; preds = %invoke.cont52
  %27 = load ptr, ptr %gtest_dt, align 8
  %vtable56 = load ptr, ptr %27, align 8
  %vfn57 = getelementptr inbounds ptr, ptr %vtable56, i64 5
  %28 = load ptr, ptr %vfn57, align 8
  invoke void %28(ptr noundef nonnull align 8 dereferenceable(8) %27, i32 noundef 1)
          to label %invoke.cont58 unwind label %lpad45

invoke.cont58:                                    ; preds = %invoke.cont54
  invoke void @__cxa_end_catch()
          to label %invoke.cont59 unwind label %lpad39

invoke.cont59:                                    ; preds = %invoke.cont58
  br label %try.cont

try.cont:                                         ; preds = %if.end34, %invoke.cont40, %invoke.cont59
  %29 = load ptr, ptr %gtest_dt, align 8
  %vtable61 = load ptr, ptr %29, align 8
  %vfn62 = getelementptr inbounds ptr, ptr %vtable61, i64 5
  %30 = load ptr, ptr %vfn62, align 8
  invoke void %30(ptr noundef nonnull align 8 dereferenceable(8) %29, i32 noundef 2)
          to label %invoke.cont63 unwind label %lpad39

invoke.cont63:                                    ; preds = %try.cont
  call void @_ZN7testing8internal9DeathTest14ReturnSentinelD2Ev(ptr noundef nonnull align 8 dereferenceable(8) %gtest_sentinel) #3
  br label %sw.epilog

catch:                                            ; preds = %catch.dispatch
  %exn = load ptr, ptr %exn.slot, align 8
  %31 = call ptr @__cxa_begin_catch(ptr %exn) #3
  %32 = load ptr, ptr %gtest_dt, align 8
  %vtable35 = load ptr, ptr %32, align 8
  %vfn36 = getelementptr inbounds ptr, ptr %vtable35, i64 5
  %33 = load ptr, ptr %vfn36, align 8
  invoke void %33(ptr noundef nonnull align 8 dereferenceable(8) %32, i32 noundef 1)
          to label %invoke.cont38 unwind label %lpad37

invoke.cont38:                                    ; preds = %catch
  invoke void @__cxa_end_catch()
          to label %invoke.cont40 unwind label %lpad39

invoke.cont40:                                    ; preds = %invoke.cont38
  br label %try.cont

if.else:                                          ; preds = %invoke.cont23
  br label %if.end34

if.end34:                                         ; preds = %if.else
  br label %try.cont

lpad37:                                           ; preds = %catch
  %34 = landingpad { ptr, i32 }
          cleanup
  %35 = extractvalue { ptr, i32 } %34, 0
  store ptr %35, ptr %exn.slot, align 8
  %36 = extractvalue { ptr, i32 } %34, 1
  store i32 %36, ptr %ehselector.slot, align 4
  invoke void @__cxa_end_catch()
          to label %invoke.cont41 unwind label %terminate.lpad

lpad39:                                           ; preds = %invoke.cont38, %try.cont, %invoke.cont58
  %37 = landingpad { ptr, i32 }
          cleanup
  %38 = extractvalue { ptr, i32 } %37, 0
  store ptr %38, ptr %exn.slot, align 8
  %39 = extractvalue { ptr, i32 } %37, 1
  store i32 %39, ptr %ehselector.slot, align 4
  br label %ehcleanup64

invoke.cont41:                                    ; preds = %lpad37
  br label %ehcleanup64

lpad45:                                           ; preds = %invoke.cont54, %invoke.cont52, %catch42
  %40 = landingpad { ptr, i32 }
          cleanup
  %41 = extractvalue { ptr, i32 } %40, 0
  store ptr %41, ptr %exn.slot, align 8
  %42 = extractvalue { ptr, i32 } %40, 1
  store i32 %42, ptr %ehselector.slot, align 4
  br label %ehcleanup

lpad51:                                           ; preds = %invoke.cont46
  %43 = landingpad { ptr, i32 }
          cleanup
  %44 = extractvalue { ptr, i32 } %43, 0
  store ptr %44, ptr %exn.slot, align 8
  %45 = extractvalue { ptr, i32 } %43, 1
  store i32 %45, ptr %ehselector.slot, align 4
  call void @_ZNSt7__cxx1112basic_stringIcSt11char_traitsIcESaIcEED1Ev(ptr noundef nonnull align 8 dereferenceable(32) %ref.tmp44) #3
  br label %ehcleanup

ehcleanup:                                        ; preds = %lpad51, %lpad45
  invoke void @__cxa_end_catch()
          to label %invoke.cont60 unwind label %terminate.lpad

invoke.cont60:                                    ; preds = %ehcleanup
  br label %ehcleanup64

ehcleanup64:                                      ; preds = %invoke.cont60, %invoke.cont41, %lpad39
  call void @_ZN7testing8internal9DeathTest14ReturnSentinelD2Ev(ptr noundef nonnull align 8 dereferenceable(8) %gtest_sentinel) #3
  br label %ehcleanup65

sw.epilog:                                        ; preds = %invoke.cont63, %if.end19, %invoke.cont6
  store i32 0, ptr %cleanup.dest.slot, align 4
  br label %cleanup

cleanup:                                          ; preds = %sw.epilog, %if.then18
  call void @_ZNSt10unique_ptrIN7testing8internal9DeathTestESt14default_deleteIS2_EED2Ev(ptr noundef nonnull align 8 dereferenceable(8) %gtest_dt_ptr) #3
  %cleanup.dest = load i32, ptr %cleanup.dest.slot, align 4
  switch i32 %cleanup.dest, label %unreachable [
    i32 0, label %cleanup.cont
    i32 2, label %gtest_label_64
  ]

cleanup.cont:                                     ; preds = %cleanup
  br label %if.end66

ehcleanup65:                                      ; preds = %ehcleanup64, %lpad5
  call void @_ZNSt10unique_ptrIN7testing8internal9DeathTestESt14default_deleteIS2_EED2Ev(ptr noundef nonnull align 8 dereferenceable(8) %gtest_dt_ptr) #3
  br label %eh.resume

if.end66:                                         ; preds = %cleanup.cont, %if.end
  br label %if.end78

if.else67:                                        ; preds = %entry
  br label %gtest_label_64

gtest_label_64:                                   ; preds = %if.else67, %cleanup, %if.then3
  call void @_ZN7testing7MessageC1Ev(ptr noundef nonnull align 8 dereferenceable(8) %ref.tmp68)
  %call72 = invoke noundef ptr @_ZN7testing8internal9DeathTest11LastMessageEv()
          to label %invoke.cont71 unwind label %lpad70

invoke.cont71:                                    ; preds = %gtest_label_64
  invoke void @_ZN7testing8internal12AssertHelperC1ENS_14TestPartResult4TypeEPKciS5_(ptr noundef nonnull align 8 dereferenceable(8) %ref.tmp69, i32 noundef 1, ptr noundef @.str.4, i32 noundef 64, ptr noundef %call72)
          to label %invoke.cont73 unwind label %lpad70

invoke.cont73:                                    ; preds = %invoke.cont71
  invoke void @_ZNK7testing8internal12AssertHelperaSERKNS_7MessageE(ptr noundef nonnull align 8 dereferenceable(8) %ref.tmp69, ptr noundef nonnull align 8 dereferenceable(8) %ref.tmp68)
          to label %invoke.cont75 unwind label %lpad74

invoke.cont75:                                    ; preds = %invoke.cont73
  call void @_ZN7testing8internal12AssertHelperD1Ev(ptr noundef nonnull align 8 dereferenceable(8) %ref.tmp69) #3
  call void @_ZN7testing7MessageD2Ev(ptr noundef nonnull align 8 dereferenceable(8) %ref.tmp68) #3
  br label %if.end78

lpad70:                                           ; preds = %invoke.cont71, %gtest_label_64
  %46 = landingpad { ptr, i32 }
          cleanup
  %47 = extractvalue { ptr, i32 } %46, 0
  store ptr %47, ptr %exn.slot, align 8
  %48 = extractvalue { ptr, i32 } %46, 1
  store i32 %48, ptr %ehselector.slot, align 4
  br label %ehcleanup77

lpad74:                                           ; preds = %invoke.cont73
  %49 = landingpad { ptr, i32 }
          cleanup
  %50 = extractvalue { ptr, i32 } %49, 0
  store ptr %50, ptr %exn.slot, align 8
  %51 = extractvalue { ptr, i32 } %49, 1
  store i32 %51, ptr %ehselector.slot, align 4
  call void @_ZN7testing8internal12AssertHelperD1Ev(ptr noundef nonnull align 8 dereferenceable(8) %ref.tmp69) #3
  br label %ehcleanup77

ehcleanup77:                                      ; preds = %lpad74, %lpad70
  call void @_ZN7testing7MessageD2Ev(ptr noundef nonnull align 8 dereferenceable(8) %ref.tmp68) #3
  br label %eh.resume

if.end78:                                         ; preds = %invoke.cont75, %if.end66
  ret void

eh.resume:                                        ; preds = %ehcleanup77, %ehcleanup65, %lpad
  %exn79 = load ptr, ptr %exn.slot, align 8
  %sel80 = load i32, ptr %ehselector.slot, align 4
  %lpad.val = insertvalue { ptr, i32 } poison, ptr %exn79, 0
  %lpad.val81 = insertvalue { ptr, i32 } %lpad.val, i32 %sel80, 1
  resume { ptr, i32 } %lpad.val81

terminate.lpad:                                   ; preds = %ehcleanup, %lpad37
  %52 = landingpad { ptr, i32 }
          catch ptr null
  %53 = extractvalue { ptr, i32 } %52, 0
  call void @__clang_call_terminate(ptr %53) #20
  unreachable

unreachable:                                      ; preds = %cleanup
  unreachable
}

; Function Attrs: cold
declare void @_ZN4absl12log_internal10LogMessageC1EPKciNS1_10WarningTagE(ptr noundef nonnull align 8 dereferenceable(16), ptr noundef, i32 noundef) unnamed_addr #9

; Function Attrs: mustprogress uwtable
define linkonce_odr dso_local noundef nonnull align 8 dereferenceable(16) ptr @_ZN4absl12log_internal10LogMessagelsILi16EEERS1_RAT__Kc(ptr noundef nonnull align 8 dereferenceable(16) %this, ptr noundef nonnull align 1 dereferenceable(16) %buf) #4 comdat align 2 {
entry:
  %this.addr = alloca ptr, align 8
  %buf.addr = alloca ptr, align 8
  %agg.tmp = alloca %"class.std::basic_string_view", align 8
  store ptr %this, ptr %this.addr, align 8
  store ptr %buf, ptr %buf.addr, align 8
  %this1 = load ptr, ptr %this.addr, align 8
  %0 = load ptr, ptr %buf.addr, align 8
  %arraydecay = getelementptr inbounds [16 x i8], ptr %0, i64 0, i64 0
  call void @_ZNSt17basic_string_viewIcSt11char_traitsIcEEC2EPKc(ptr noundef nonnull align 8 dereferenceable(16) %agg.tmp, ptr noundef %arraydecay) #3
  %1 = getelementptr inbounds { i64, ptr }, ptr %agg.tmp, i32 0, i32 0
  %2 = load i64, ptr %1, align 8
  %3 = getelementptr inbounds { i64, ptr }, ptr %agg.tmp, i32 0, i32 1
  %4 = load ptr, ptr %3, align 8
  call void @_ZN4absl12log_internal10LogMessage19CopyToEncodedBufferILNS1_10StringTypeE0EEEvSt17basic_string_viewIcSt11char_traitsIcEE(ptr noundef nonnull align 8 dereferenceable(16) %this1, i64 %2, ptr %4)
  ret ptr %this1
}

; Function Attrs: mustprogress nounwind uwtable
define internal void @_ZN7testing8internal15TestFactoryImplIN12_GLOBAL__N_149StderrLogSinkDeathTest_ErrorMessagesInStderr_TestEED2Ev(ptr noundef nonnull align 8 dereferenceable(8) %this) unnamed_addr #6 align 2 {
entry:
  %this.addr = alloca ptr, align 8
  store ptr %this, ptr %this.addr, align 8
  %this1 = load ptr, ptr %this.addr, align 8
  call void @_ZN7testing8internal15TestFactoryBaseD2Ev(ptr noundef nonnull align 8 dereferenceable(8) %this1) #3
  ret void
}

; Function Attrs: mustprogress nounwind uwtable
define internal void @_ZN7testing8internal15TestFactoryImplIN12_GLOBAL__N_149StderrLogSinkDeathTest_ErrorMessagesInStderr_TestEED0Ev(ptr noundef nonnull align 8 dereferenceable(8) %this) unnamed_addr #6 align 2 {
entry:
  %this.addr = alloca ptr, align 8
  store ptr %this, ptr %this.addr, align 8
  %this1 = load ptr, ptr %this.addr, align 8
  call void @_ZN7testing8internal15TestFactoryImplIN12_GLOBAL__N_149StderrLogSinkDeathTest_ErrorMessagesInStderr_TestEED2Ev(ptr noundef nonnull align 8 dereferenceable(8) %this1) #3
  call void @_ZdlPv(ptr noundef %this1) #18
  ret void
}

; Function Attrs: mustprogress uwtable
define internal noundef ptr @_ZN7testing8internal15TestFactoryImplIN12_GLOBAL__N_149StderrLogSinkDeathTest_ErrorMessagesInStderr_TestEE10CreateTestEv(ptr noundef nonnull align 8 dereferenceable(8) %this) unnamed_addr #4 align 2 personality ptr @__gxx_personality_v0 {
entry:
  %this.addr = alloca ptr, align 8
  %exn.slot = alloca ptr, align 8
  %ehselector.slot = alloca i32, align 4
  store ptr %this, ptr %this.addr, align 8
  %call = call noalias noundef nonnull ptr @_Znwm(i64 noundef 16) #17
  invoke void @_ZN12_GLOBAL__N_149StderrLogSinkDeathTest_ErrorMessagesInStderr_TestC2Ev(ptr noundef nonnull align 8 dereferenceable(16) %call)
          to label %invoke.cont unwind label %lpad

invoke.cont:                                      ; preds = %entry
  ret ptr %call

lpad:                                             ; preds = %entry
  %0 = landingpad { ptr, i32 }
          cleanup
  %1 = extractvalue { ptr, i32 } %0, 0
  store ptr %1, ptr %exn.slot, align 8
  %2 = extractvalue { ptr, i32 } %0, 1
  store i32 %2, ptr %ehselector.slot, align 4
  call void @_ZdlPv(ptr noundef %call) #18
  br label %eh.resume

eh.resume:                                        ; preds = %lpad
  %exn = load ptr, ptr %exn.slot, align 8
  %sel = load i32, ptr %ehselector.slot, align 4
  %lpad.val = insertvalue { ptr, i32 } poison, ptr %exn, 0
  %lpad.val2 = insertvalue { ptr, i32 } %lpad.val, i32 %sel, 1
  resume { ptr, i32 } %lpad.val2
}

; Function Attrs: mustprogress uwtable
define internal void @_ZN12_GLOBAL__N_149StderrLogSinkDeathTest_ErrorMessagesInStderr_TestC2Ev(ptr noundef nonnull align 8 dereferenceable(16) %this) unnamed_addr #4 align 2 {
entry:
  %this.addr = alloca ptr, align 8
  store ptr %this, ptr %this.addr, align 8
  %this1 = load ptr, ptr %this.addr, align 8
  call void @_ZN7testing4TestC2Ev(ptr noundef nonnull align 8 dereferenceable(16) %this1)
  store ptr getelementptr inbounds ({ [8 x ptr] }, ptr @_ZTVN12_GLOBAL__N_149StderrLogSinkDeathTest_ErrorMessagesInStderr_TestE, i32 0, inrange i32 0, i32 2), ptr %this1, align 8
  ret void
}

; Function Attrs: mustprogress nounwind uwtable
define internal void @_ZN12_GLOBAL__N_149StderrLogSinkDeathTest_ErrorMessagesInStderr_TestD2Ev(ptr noundef nonnull align 8 dereferenceable(16) %this) unnamed_addr #6 align 2 {
entry:
  %this.addr = alloca ptr, align 8
  store ptr %this, ptr %this.addr, align 8
  %this1 = load ptr, ptr %this.addr, align 8
  call void @_ZN7testing4TestD2Ev(ptr noundef nonnull align 8 dereferenceable(16) %this1) #3
  ret void
}

; Function Attrs: mustprogress nounwind uwtable
define internal void @_ZN12_GLOBAL__N_149StderrLogSinkDeathTest_ErrorMessagesInStderr_TestD0Ev(ptr noundef nonnull align 8 dereferenceable(16) %this) unnamed_addr #6 align 2 {
entry:
  %this.addr = alloca ptr, align 8
  store ptr %this, ptr %this.addr, align 8
  %this1 = load ptr, ptr %this.addr, align 8
  call void @_ZN12_GLOBAL__N_149StderrLogSinkDeathTest_ErrorMessagesInStderr_TestD2Ev(ptr noundef nonnull align 8 dereferenceable(16) %this1) #3
  call void @_ZdlPv(ptr noundef %this1) #18
  ret void
}

; Function Attrs: mustprogress uwtable
define internal void @_ZN12_GLOBAL__N_149StderrLogSinkDeathTest_ErrorMessagesInStderr_Test8TestBodyEv(ptr noundef nonnull align 8 dereferenceable(16) %this) unnamed_addr #4 align 2 personality ptr @__gxx_personality_v0 {
entry:
  %this.addr = alloca ptr, align 8
  %gtest_dt = alloca ptr, align 8
  %agg.tmp = alloca %"class.testing::Matcher", align 8
  %exn.slot = alloca ptr, align 8
  %ehselector.slot = alloca i32, align 4
  %gtest_dt_ptr = alloca %"class.std::unique_ptr.6", align 8
  %gtest_sentinel = alloca %"class.testing::internal::DeathTest::ReturnSentinel", align 8
  %ref.tmp = alloca %"class.absl::log_internal::Voidify", align 1
  %ref.tmp27 = alloca %"class.absl::log_internal::LogMessage", align 8
  %gtest_exception = alloca ptr, align 8
  %ref.tmp44 = alloca %"class.std::__cxx11::basic_string", align 8
  %cleanup.dest.slot = alloca i32, align 4
  %ref.tmp68 = alloca %"class.testing::Message", align 8
  %ref.tmp69 = alloca %"class.testing::internal::AssertHelper", align 8
  store ptr %this, ptr %this.addr, align 8
  %call = call noundef zeroext i1 @_ZN7testing8internal10AlwaysTrueEv()
  br i1 %call, label %if.then, label %if.else67

if.then:                                          ; preds = %entry
  call void @_ZN7testing8internal20MakeDeathTestMatcherB5cxx11EPKc(ptr sret(%"class.testing::Matcher") align 8 %agg.tmp, ptr noundef @.str.29)
  %call2 = invoke noundef zeroext i1 @_ZN7testing8internal9DeathTest6CreateEPKcNS_7MatcherIRKNSt7__cxx1112basic_stringIcSt11char_traitsIcESaIcEEEEES3_iPPS1_(ptr noundef @.str.28, ptr noundef %agg.tmp, ptr noundef @.str.4, i32 noundef 74, ptr noundef %gtest_dt)
          to label %invoke.cont unwind label %lpad

invoke.cont:                                      ; preds = %if.then
  %lnot = xor i1 %call2, true
  call void @_ZN7testing7MatcherIRKNSt7__cxx1112basic_stringIcSt11char_traitsIcESaIcEEEED2Ev(ptr noundef nonnull align 8 dereferenceable(24) %agg.tmp) #3
  br i1 %lnot, label %if.then3, label %if.end

if.then3:                                         ; preds = %invoke.cont
  br label %gtest_label_74

lpad:                                             ; preds = %if.then
  %0 = landingpad { ptr, i32 }
          cleanup
  %1 = extractvalue { ptr, i32 } %0, 0
  store ptr %1, ptr %exn.slot, align 8
  %2 = extractvalue { ptr, i32 } %0, 1
  store i32 %2, ptr %ehselector.slot, align 4
  call void @_ZN7testing7MatcherIRKNSt7__cxx1112basic_stringIcSt11char_traitsIcESaIcEEEED2Ev(ptr noundef nonnull align 8 dereferenceable(24) %agg.tmp) #3
  br label %eh.resume

if.end:                                           ; preds = %invoke.cont
  %3 = load ptr, ptr %gtest_dt, align 8
  %cmp = icmp ne ptr %3, null
  br i1 %cmp, label %if.then4, label %if.end66

if.then4:                                         ; preds = %if.end
  %4 = load ptr, ptr %gtest_dt, align 8
  call void @_ZNSt10unique_ptrIN7testing8internal9DeathTestESt14default_deleteIS2_EEC2IS4_vEEPS2_(ptr noundef nonnull align 8 dereferenceable(8) %gtest_dt_ptr, ptr noundef %4) #3
  %5 = load ptr, ptr %gtest_dt, align 8
  %vtable = load ptr, ptr %5, align 8
  %vfn = getelementptr inbounds ptr, ptr %vtable, i64 2
  %6 = load ptr, ptr %vfn, align 8
  %call7 = invoke noundef i32 %6(ptr noundef nonnull align 8 dereferenceable(8) %5)
          to label %invoke.cont6 unwind label %lpad5

invoke.cont6:                                     ; preds = %if.then4
  switch i32 %call7, label %sw.epilog [
    i32 0, label %sw.bb
    i32 1, label %sw.bb20
  ]

lpad5:                                            ; preds = %sw.bb20, %invoke.cont12, %invoke.cont10, %sw.bb, %if.then4
  %7 = landingpad { ptr, i32 }
          cleanup
  %8 = extractvalue { ptr, i32 } %7, 0
  store ptr %8, ptr %exn.slot, align 8
  %9 = extractvalue { ptr, i32 } %7, 1
  store i32 %9, ptr %ehselector.slot, align 4
  br label %ehcleanup65

sw.bb:                                            ; preds = %invoke.cont6
  %10 = load ptr, ptr %gtest_dt, align 8
  %11 = load ptr, ptr %gtest_dt, align 8
  %vtable8 = load ptr, ptr %11, align 8
  %vfn9 = getelementptr inbounds ptr, ptr %vtable8, i64 3
  %12 = load ptr, ptr %vfn9, align 8
  %call11 = invoke noundef i32 %12(ptr noundef nonnull align 8 dereferenceable(8) %11)
          to label %invoke.cont10 unwind label %lpad5

invoke.cont10:                                    ; preds = %sw.bb
  %call13 = invoke noundef zeroext i1 @_ZN7testing8internal20ExitedUnsuccessfullyEi(i32 noundef %call11)
          to label %invoke.cont12 unwind label %lpad5

invoke.cont12:                                    ; preds = %invoke.cont10
  %vtable14 = load ptr, ptr %10, align 8
  %vfn15 = getelementptr inbounds ptr, ptr %vtable14, i64 4
  %13 = load ptr, ptr %vfn15, align 8
  %call17 = invoke noundef zeroext i1 %13(ptr noundef nonnull align 8 dereferenceable(8) %10, i1 noundef zeroext %call13)
          to label %invoke.cont16 unwind label %lpad5

invoke.cont16:                                    ; preds = %invoke.cont12
  br i1 %call17, label %if.end19, label %if.then18

if.then18:                                        ; preds = %invoke.cont16
  store i32 2, ptr %cleanup.dest.slot, align 4
  br label %cleanup

if.end19:                                         ; preds = %invoke.cont16
  br label %sw.epilog

sw.bb20:                                          ; preds = %invoke.cont6
  %14 = load ptr, ptr %gtest_dt, align 8
  invoke void @_ZN7testing8internal9DeathTest14ReturnSentinelC2EPS1_(ptr noundef nonnull align 8 dereferenceable(8) %gtest_sentinel, ptr noundef %14)
          to label %invoke.cont21 unwind label %lpad5

invoke.cont21:                                    ; preds = %sw.bb20
  %call24 = invoke noundef zeroext i1 @_ZN7testing8internal10AlwaysTrueEv()
          to label %invoke.cont23 unwind label %lpad22

invoke.cont23:                                    ; preds = %invoke.cont21
  br i1 %call24, label %if.then25, label %if.else

if.then25:                                        ; preds = %invoke.cont23
  invoke void @_ZN4absl18SetStderrThresholdENS_18LogSeverityAtLeastE(i32 noundef 0)
          to label %invoke.cont26 unwind label %lpad22

invoke.cont26:                                    ; preds = %if.then25
  invoke void @_ZN4absl12log_internal10LogMessageC1EPKciNS1_8ErrorTagE(ptr noundef nonnull align 8 dereferenceable(16) %ref.tmp27, ptr noundef @.str.4, i32 noundef 71) #21
          to label %invoke.cont29 unwind label %lpad22

invoke.cont29:                                    ; preds = %invoke.cont26
  %call30 = call noundef nonnull align 8 dereferenceable(16) ptr @_ZN4absl12log_internal10LogMessage14InternalStreamEv(ptr noundef nonnull align 8 dereferenceable(16) %ref.tmp27)
  %call33 = invoke noundef nonnull align 8 dereferenceable(16) ptr @_ZN4absl12log_internal10LogMessagelsILi14EEERS1_RAT__Kc(ptr noundef nonnull align 8 dereferenceable(16) %call30, ptr noundef nonnull align 1 dereferenceable(14) @.str.29)
          to label %invoke.cont32 unwind label %lpad31

invoke.cont32:                                    ; preds = %invoke.cont29
  call void @_ZNKO4absl12log_internal7VoidifyaaINS0_10LogMessageEEEvRKT_(ptr noundef nonnull align 1 dereferenceable(1) %ref.tmp, ptr noundef nonnull align 8 dereferenceable(16) %call33)
  call void @_ZN4absl12log_internal10LogMessageD1Ev(ptr noundef nonnull align 8 dereferenceable(16) %ref.tmp27) #22
  call void @exit(i32 noundef 1) #20
  unreachable

lpad22:                                           ; preds = %invoke.cont26, %if.then25, %invoke.cont21
  %15 = landingpad { ptr, i32 }
          catch ptr @_ZTISt9exception
          catch ptr null
  %16 = extractvalue { ptr, i32 } %15, 0
  store ptr %16, ptr %exn.slot, align 8
  %17 = extractvalue { ptr, i32 } %15, 1
  store i32 %17, ptr %ehselector.slot, align 4
  br label %catch.dispatch

lpad31:                                           ; preds = %invoke.cont29
  %18 = landingpad { ptr, i32 }
          catch ptr @_ZTISt9exception
          catch ptr null
  %19 = extractvalue { ptr, i32 } %18, 0
  store ptr %19, ptr %exn.slot, align 8
  %20 = extractvalue { ptr, i32 } %18, 1
  store i32 %20, ptr %ehselector.slot, align 4
  call void @_ZN4absl12log_internal10LogMessageD1Ev(ptr noundef nonnull align 8 dereferenceable(16) %ref.tmp27) #22
  br label %catch.dispatch

catch.dispatch:                                   ; preds = %lpad31, %lpad22
  %sel = load i32, ptr %ehselector.slot, align 4
  %21 = call i32 @llvm.eh.typeid.for(ptr @_ZTISt9exception) #3
  %matches = icmp eq i32 %sel, %21
  br i1 %matches, label %catch42, label %catch

catch42:                                          ; preds = %catch.dispatch
  %exn43 = load ptr, ptr %exn.slot, align 8
  %22 = call ptr @__cxa_begin_catch(ptr %exn43) #3
  store ptr %22, ptr %gtest_exception, align 8
  %23 = load ptr, ptr @stderr, align 8
  invoke void @_ZN7testing8internal18FormatFileLocationB5cxx11EPKci(ptr sret(%"class.std::__cxx11::basic_string") align 8 %ref.tmp44, ptr noundef @.str.4, i32 noundef 74)
          to label %invoke.cont46 unwind label %lpad45

invoke.cont46:                                    ; preds = %catch42
  %call47 = call noundef ptr @_ZNKSt7__cxx1112basic_stringIcSt11char_traitsIcESaIcEE5c_strEv(ptr noundef nonnull align 8 dereferenceable(32) %ref.tmp44) #3
  %24 = load ptr, ptr %gtest_exception, align 8
  %vtable48 = load ptr, ptr %24, align 8
  %vfn49 = getelementptr inbounds ptr, ptr %vtable48, i64 2
  %25 = load ptr, ptr %vfn49, align 8
  %call50 = call noundef ptr %25(ptr noundef nonnull align 8 dereferenceable(8) %24) #3
  %call53 = invoke i32 (ptr, ptr, ...) @fprintf(ptr noundef %23, ptr noundef @.str.15, ptr noundef %call47, ptr noundef %call50)
          to label %invoke.cont52 unwind label %lpad51

invoke.cont52:                                    ; preds = %invoke.cont46
  call void @_ZNSt7__cxx1112basic_stringIcSt11char_traitsIcESaIcEED1Ev(ptr noundef nonnull align 8 dereferenceable(32) %ref.tmp44) #3
  %26 = load ptr, ptr @stderr, align 8
  %call55 = invoke i32 @fflush(ptr noundef %26)
          to label %invoke.cont54 unwind label %lpad45

invoke.cont54:                                    ; preds = %invoke.cont52
  %27 = load ptr, ptr %gtest_dt, align 8
  %vtable56 = load ptr, ptr %27, align 8
  %vfn57 = getelementptr inbounds ptr, ptr %vtable56, i64 5
  %28 = load ptr, ptr %vfn57, align 8
  invoke void %28(ptr noundef nonnull align 8 dereferenceable(8) %27, i32 noundef 1)
          to label %invoke.cont58 unwind label %lpad45

invoke.cont58:                                    ; preds = %invoke.cont54
  invoke void @__cxa_end_catch()
          to label %invoke.cont59 unwind label %lpad39

invoke.cont59:                                    ; preds = %invoke.cont58
  br label %try.cont

try.cont:                                         ; preds = %if.end34, %invoke.cont40, %invoke.cont59
  %29 = load ptr, ptr %gtest_dt, align 8
  %vtable61 = load ptr, ptr %29, align 8
  %vfn62 = getelementptr inbounds ptr, ptr %vtable61, i64 5
  %30 = load ptr, ptr %vfn62, align 8
  invoke void %30(ptr noundef nonnull align 8 dereferenceable(8) %29, i32 noundef 2)
          to label %invoke.cont63 unwind label %lpad39

invoke.cont63:                                    ; preds = %try.cont
  call void @_ZN7testing8internal9DeathTest14ReturnSentinelD2Ev(ptr noundef nonnull align 8 dereferenceable(8) %gtest_sentinel) #3
  br label %sw.epilog

catch:                                            ; preds = %catch.dispatch
  %exn = load ptr, ptr %exn.slot, align 8
  %31 = call ptr @__cxa_begin_catch(ptr %exn) #3
  %32 = load ptr, ptr %gtest_dt, align 8
  %vtable35 = load ptr, ptr %32, align 8
  %vfn36 = getelementptr inbounds ptr, ptr %vtable35, i64 5
  %33 = load ptr, ptr %vfn36, align 8
  invoke void %33(ptr noundef nonnull align 8 dereferenceable(8) %32, i32 noundef 1)
          to label %invoke.cont38 unwind label %lpad37

invoke.cont38:                                    ; preds = %catch
  invoke void @__cxa_end_catch()
          to label %invoke.cont40 unwind label %lpad39

invoke.cont40:                                    ; preds = %invoke.cont38
  br label %try.cont

if.else:                                          ; preds = %invoke.cont23
  br label %if.end34

if.end34:                                         ; preds = %if.else
  br label %try.cont

lpad37:                                           ; preds = %catch
  %34 = landingpad { ptr, i32 }
          cleanup
  %35 = extractvalue { ptr, i32 } %34, 0
  store ptr %35, ptr %exn.slot, align 8
  %36 = extractvalue { ptr, i32 } %34, 1
  store i32 %36, ptr %ehselector.slot, align 4
  invoke void @__cxa_end_catch()
          to label %invoke.cont41 unwind label %terminate.lpad

lpad39:                                           ; preds = %invoke.cont38, %try.cont, %invoke.cont58
  %37 = landingpad { ptr, i32 }
          cleanup
  %38 = extractvalue { ptr, i32 } %37, 0
  store ptr %38, ptr %exn.slot, align 8
  %39 = extractvalue { ptr, i32 } %37, 1
  store i32 %39, ptr %ehselector.slot, align 4
  br label %ehcleanup64

invoke.cont41:                                    ; preds = %lpad37
  br label %ehcleanup64

lpad45:                                           ; preds = %invoke.cont54, %invoke.cont52, %catch42
  %40 = landingpad { ptr, i32 }
          cleanup
  %41 = extractvalue { ptr, i32 } %40, 0
  store ptr %41, ptr %exn.slot, align 8
  %42 = extractvalue { ptr, i32 } %40, 1
  store i32 %42, ptr %ehselector.slot, align 4
  br label %ehcleanup

lpad51:                                           ; preds = %invoke.cont46
  %43 = landingpad { ptr, i32 }
          cleanup
  %44 = extractvalue { ptr, i32 } %43, 0
  store ptr %44, ptr %exn.slot, align 8
  %45 = extractvalue { ptr, i32 } %43, 1
  store i32 %45, ptr %ehselector.slot, align 4
  call void @_ZNSt7__cxx1112basic_stringIcSt11char_traitsIcESaIcEED1Ev(ptr noundef nonnull align 8 dereferenceable(32) %ref.tmp44) #3
  br label %ehcleanup

ehcleanup:                                        ; preds = %lpad51, %lpad45
  invoke void @__cxa_end_catch()
          to label %invoke.cont60 unwind label %terminate.lpad

invoke.cont60:                                    ; preds = %ehcleanup
  br label %ehcleanup64

ehcleanup64:                                      ; preds = %invoke.cont60, %invoke.cont41, %lpad39
  call void @_ZN7testing8internal9DeathTest14ReturnSentinelD2Ev(ptr noundef nonnull align 8 dereferenceable(8) %gtest_sentinel) #3
  br label %ehcleanup65

sw.epilog:                                        ; preds = %invoke.cont63, %if.end19, %invoke.cont6
  store i32 0, ptr %cleanup.dest.slot, align 4
  br label %cleanup

cleanup:                                          ; preds = %sw.epilog, %if.then18
  call void @_ZNSt10unique_ptrIN7testing8internal9DeathTestESt14default_deleteIS2_EED2Ev(ptr noundef nonnull align 8 dereferenceable(8) %gtest_dt_ptr) #3
  %cleanup.dest = load i32, ptr %cleanup.dest.slot, align 4
  switch i32 %cleanup.dest, label %unreachable [
    i32 0, label %cleanup.cont
    i32 2, label %gtest_label_74
  ]

cleanup.cont:                                     ; preds = %cleanup
  br label %if.end66

ehcleanup65:                                      ; preds = %ehcleanup64, %lpad5
  call void @_ZNSt10unique_ptrIN7testing8internal9DeathTestESt14default_deleteIS2_EED2Ev(ptr noundef nonnull align 8 dereferenceable(8) %gtest_dt_ptr) #3
  br label %eh.resume

if.end66:                                         ; preds = %cleanup.cont, %if.end
  br label %if.end78

if.else67:                                        ; preds = %entry
  br label %gtest_label_74

gtest_label_74:                                   ; preds = %if.else67, %cleanup, %if.then3
  call void @_ZN7testing7MessageC1Ev(ptr noundef nonnull align 8 dereferenceable(8) %ref.tmp68)
  %call72 = invoke noundef ptr @_ZN7testing8internal9DeathTest11LastMessageEv()
          to label %invoke.cont71 unwind label %lpad70

invoke.cont71:                                    ; preds = %gtest_label_74
  invoke void @_ZN7testing8internal12AssertHelperC1ENS_14TestPartResult4TypeEPKciS5_(ptr noundef nonnull align 8 dereferenceable(8) %ref.tmp69, i32 noundef 1, ptr noundef @.str.4, i32 noundef 74, ptr noundef %call72)
          to label %invoke.cont73 unwind label %lpad70

invoke.cont73:                                    ; preds = %invoke.cont71
  invoke void @_ZNK7testing8internal12AssertHelperaSERKNS_7MessageE(ptr noundef nonnull align 8 dereferenceable(8) %ref.tmp69, ptr noundef nonnull align 8 dereferenceable(8) %ref.tmp68)
          to label %invoke.cont75 unwind label %lpad74

invoke.cont75:                                    ; preds = %invoke.cont73
  call void @_ZN7testing8internal12AssertHelperD1Ev(ptr noundef nonnull align 8 dereferenceable(8) %ref.tmp69) #3
  call void @_ZN7testing7MessageD2Ev(ptr noundef nonnull align 8 dereferenceable(8) %ref.tmp68) #3
  br label %if.end78

lpad70:                                           ; preds = %invoke.cont71, %gtest_label_74
  %46 = landingpad { ptr, i32 }
          cleanup
  %47 = extractvalue { ptr, i32 } %46, 0
  store ptr %47, ptr %exn.slot, align 8
  %48 = extractvalue { ptr, i32 } %46, 1
  store i32 %48, ptr %ehselector.slot, align 4
  br label %ehcleanup77

lpad74:                                           ; preds = %invoke.cont73
  %49 = landingpad { ptr, i32 }
          cleanup
  %50 = extractvalue { ptr, i32 } %49, 0
  store ptr %50, ptr %exn.slot, align 8
  %51 = extractvalue { ptr, i32 } %49, 1
  store i32 %51, ptr %ehselector.slot, align 4
  call void @_ZN7testing8internal12AssertHelperD1Ev(ptr noundef nonnull align 8 dereferenceable(8) %ref.tmp69) #3
  br label %ehcleanup77

ehcleanup77:                                      ; preds = %lpad74, %lpad70
  call void @_ZN7testing7MessageD2Ev(ptr noundef nonnull align 8 dereferenceable(8) %ref.tmp68) #3
  br label %eh.resume

if.end78:                                         ; preds = %invoke.cont75, %if.end66
  ret void

eh.resume:                                        ; preds = %ehcleanup77, %ehcleanup65, %lpad
  %exn79 = load ptr, ptr %exn.slot, align 8
  %sel80 = load i32, ptr %ehselector.slot, align 4
  %lpad.val = insertvalue { ptr, i32 } poison, ptr %exn79, 0
  %lpad.val81 = insertvalue { ptr, i32 } %lpad.val, i32 %sel80, 1
  resume { ptr, i32 } %lpad.val81

terminate.lpad:                                   ; preds = %ehcleanup, %lpad37
  %52 = landingpad { ptr, i32 }
          catch ptr null
  %53 = extractvalue { ptr, i32 } %52, 0
  call void @__clang_call_terminate(ptr %53) #20
  unreachable

unreachable:                                      ; preds = %cleanup
  unreachable
}

; Function Attrs: cold
declare void @_ZN4absl12log_internal10LogMessageC1EPKciNS1_8ErrorTagE(ptr noundef nonnull align 8 dereferenceable(16), ptr noundef, i32 noundef) unnamed_addr #9

; Function Attrs: mustprogress uwtable
define linkonce_odr dso_local noundef nonnull align 8 dereferenceable(16) ptr @_ZN4absl12log_internal10LogMessagelsILi14EEERS1_RAT__Kc(ptr noundef nonnull align 8 dereferenceable(16) %this, ptr noundef nonnull align 1 dereferenceable(14) %buf) #4 comdat align 2 {
entry:
  %this.addr = alloca ptr, align 8
  %buf.addr = alloca ptr, align 8
  %agg.tmp = alloca %"class.std::basic_string_view", align 8
  store ptr %this, ptr %this.addr, align 8
  store ptr %buf, ptr %buf.addr, align 8
  %this1 = load ptr, ptr %this.addr, align 8
  %0 = load ptr, ptr %buf.addr, align 8
  %arraydecay = getelementptr inbounds [14 x i8], ptr %0, i64 0, i64 0
  call void @_ZNSt17basic_string_viewIcSt11char_traitsIcEEC2EPKc(ptr noundef nonnull align 8 dereferenceable(16) %agg.tmp, ptr noundef %arraydecay) #3
  %1 = getelementptr inbounds { i64, ptr }, ptr %agg.tmp, i32 0, i32 0
  %2 = load i64, ptr %1, align 8
  %3 = getelementptr inbounds { i64, ptr }, ptr %agg.tmp, i32 0, i32 1
  %4 = load ptr, ptr %3, align 8
  call void @_ZN4absl12log_internal10LogMessage19CopyToEncodedBufferILNS1_10StringTypeE0EEEvSt17basic_string_viewIcSt11char_traitsIcEE(ptr noundef nonnull align 8 dereferenceable(16) %this1, i64 %2, ptr %4)
  ret ptr %this1
}

; Function Attrs: mustprogress nounwind uwtable
define internal void @_ZN7testing8internal15TestFactoryImplIN12_GLOBAL__N_149StderrLogSinkDeathTest_FatalMessagesInStderr_TestEED2Ev(ptr noundef nonnull align 8 dereferenceable(8) %this) unnamed_addr #6 align 2 {
entry:
  %this.addr = alloca ptr, align 8
  store ptr %this, ptr %this.addr, align 8
  %this1 = load ptr, ptr %this.addr, align 8
  call void @_ZN7testing8internal15TestFactoryBaseD2Ev(ptr noundef nonnull align 8 dereferenceable(8) %this1) #3
  ret void
}

; Function Attrs: mustprogress nounwind uwtable
define internal void @_ZN7testing8internal15TestFactoryImplIN12_GLOBAL__N_149StderrLogSinkDeathTest_FatalMessagesInStderr_TestEED0Ev(ptr noundef nonnull align 8 dereferenceable(8) %this) unnamed_addr #6 align 2 {
entry:
  %this.addr = alloca ptr, align 8
  store ptr %this, ptr %this.addr, align 8
  %this1 = load ptr, ptr %this.addr, align 8
  call void @_ZN7testing8internal15TestFactoryImplIN12_GLOBAL__N_149StderrLogSinkDeathTest_FatalMessagesInStderr_TestEED2Ev(ptr noundef nonnull align 8 dereferenceable(8) %this1) #3
  call void @_ZdlPv(ptr noundef %this1) #18
  ret void
}

; Function Attrs: mustprogress uwtable
define internal noundef ptr @_ZN7testing8internal15TestFactoryImplIN12_GLOBAL__N_149StderrLogSinkDeathTest_FatalMessagesInStderr_TestEE10CreateTestEv(ptr noundef nonnull align 8 dereferenceable(8) %this) unnamed_addr #4 align 2 personality ptr @__gxx_personality_v0 {
entry:
  %this.addr = alloca ptr, align 8
  %exn.slot = alloca ptr, align 8
  %ehselector.slot = alloca i32, align 4
  store ptr %this, ptr %this.addr, align 8
  %call = call noalias noundef nonnull ptr @_Znwm(i64 noundef 16) #17
  invoke void @_ZN12_GLOBAL__N_149StderrLogSinkDeathTest_FatalMessagesInStderr_TestC2Ev(ptr noundef nonnull align 8 dereferenceable(16) %call)
          to label %invoke.cont unwind label %lpad

invoke.cont:                                      ; preds = %entry
  ret ptr %call

lpad:                                             ; preds = %entry
  %0 = landingpad { ptr, i32 }
          cleanup
  %1 = extractvalue { ptr, i32 } %0, 0
  store ptr %1, ptr %exn.slot, align 8
  %2 = extractvalue { ptr, i32 } %0, 1
  store i32 %2, ptr %ehselector.slot, align 4
  call void @_ZdlPv(ptr noundef %call) #18
  br label %eh.resume

eh.resume:                                        ; preds = %lpad
  %exn = load ptr, ptr %exn.slot, align 8
  %sel = load i32, ptr %ehselector.slot, align 4
  %lpad.val = insertvalue { ptr, i32 } poison, ptr %exn, 0
  %lpad.val2 = insertvalue { ptr, i32 } %lpad.val, i32 %sel, 1
  resume { ptr, i32 } %lpad.val2
}

; Function Attrs: mustprogress uwtable
define internal void @_ZN12_GLOBAL__N_149StderrLogSinkDeathTest_FatalMessagesInStderr_TestC2Ev(ptr noundef nonnull align 8 dereferenceable(16) %this) unnamed_addr #4 align 2 {
entry:
  %this.addr = alloca ptr, align 8
  store ptr %this, ptr %this.addr, align 8
  %this1 = load ptr, ptr %this.addr, align 8
  call void @_ZN7testing4TestC2Ev(ptr noundef nonnull align 8 dereferenceable(16) %this1)
  store ptr getelementptr inbounds ({ [8 x ptr] }, ptr @_ZTVN12_GLOBAL__N_149StderrLogSinkDeathTest_FatalMessagesInStderr_TestE, i32 0, inrange i32 0, i32 2), ptr %this1, align 8
  ret void
}

; Function Attrs: mustprogress nounwind uwtable
define internal void @_ZN12_GLOBAL__N_149StderrLogSinkDeathTest_FatalMessagesInStderr_TestD2Ev(ptr noundef nonnull align 8 dereferenceable(16) %this) unnamed_addr #6 align 2 {
entry:
  %this.addr = alloca ptr, align 8
  store ptr %this, ptr %this.addr, align 8
  %this1 = load ptr, ptr %this.addr, align 8
  call void @_ZN7testing4TestD2Ev(ptr noundef nonnull align 8 dereferenceable(16) %this1) #3
  ret void
}

; Function Attrs: mustprogress nounwind uwtable
define internal void @_ZN12_GLOBAL__N_149StderrLogSinkDeathTest_FatalMessagesInStderr_TestD0Ev(ptr noundef nonnull align 8 dereferenceable(16) %this) unnamed_addr #6 align 2 {
entry:
  %this.addr = alloca ptr, align 8
  store ptr %this, ptr %this.addr, align 8
  %this1 = load ptr, ptr %this.addr, align 8
  call void @_ZN12_GLOBAL__N_149StderrLogSinkDeathTest_FatalMessagesInStderr_TestD2Ev(ptr noundef nonnull align 8 dereferenceable(16) %this1) #3
  call void @_ZdlPv(ptr noundef %this1) #18
  ret void
}

; Function Attrs: mustprogress uwtable
define internal void @_ZN12_GLOBAL__N_149StderrLogSinkDeathTest_FatalMessagesInStderr_Test8TestBodyEv(ptr noundef nonnull align 8 dereferenceable(16) %this) unnamed_addr #4 align 2 personality ptr @__gxx_personality_v0 {
entry:
  %this.addr = alloca ptr, align 8
  %message = alloca [14 x i8], align 1
  %stacktrace = alloca [35 x i8], align 16
  %expected_count = alloca i32, align 4
  %gtest_dt = alloca ptr, align 8
  %agg.tmp = alloca %"class.testing::Matcher", align 8
  %agg.tmp2 = alloca %"class.testing::Matcher", align 8
  %ref.tmp = alloca %"class.testing::internal::VariadicMatcher", align 8
  %ref.tmp3 = alloca %"class.(anonymous namespace)::HasSubstrTimesMatcherP2", align 8
  %ref.tmp4 = alloca %"class.testing::PolymorphicMatcher.51", align 8
  %exn.slot = alloca ptr, align 8
  %ehselector.slot = alloca i32, align 4
  %gtest_dt_ptr = alloca %"class.std::unique_ptr.6", align 8
  %gtest_sentinel = alloca %"class.testing::internal::DeathTest::ReturnSentinel", align 8
  %ref.tmp38 = alloca %"class.absl::log_internal::Voidify", align 1
  %ref.tmp39 = alloca %"class.absl::log_internal::LogMessageFatal", align 8
  %gtest_exception = alloca ptr, align 8
  %ref.tmp57 = alloca %"class.std::__cxx11::basic_string", align 8
  %cleanup.dest.slot = alloca i32, align 4
  %ref.tmp83 = alloca %"class.testing::Message", align 8
  %ref.tmp84 = alloca %"class.testing::internal::AssertHelper", align 8
  store ptr %this, ptr %this.addr, align 8
  call void @llvm.memcpy.p0.p0.i64(ptr align 1 %message, ptr align 1 @__const._ZN12_GLOBAL__N_149StderrLogSinkDeathTest_FatalMessagesInStderr_Test8TestBodyEv.message, i64 14, i1 false)
  call void @llvm.memcpy.p0.p0.i64(ptr align 16 %stacktrace, ptr align 16 @__const._ZN12_GLOBAL__N_149StderrLogSinkDeathTest_FatalMessagesInStderr_Test8TestBodyEv.stacktrace, i64 35, i1 false)
  store i32 1, ptr %expected_count, align 4
  %call = call noundef zeroext i1 @_ZN7testing8internal10AlwaysTrueEv()
  br i1 %call, label %if.then, label %if.else82

if.then:                                          ; preds = %entry
  %arraydecay = getelementptr inbounds [14 x i8], ptr %message, i64 0, i64 0
  %0 = load i32, ptr %expected_count, align 4
  call void @_ZN12_GLOBAL__N_114HasSubstrTimesIPciEENS_23HasSubstrTimesMatcherP2IT_T0_EES3_S4_(ptr sret(%"class.(anonymous namespace)::HasSubstrTimesMatcherP2") align 8 %ref.tmp3, ptr noundef %arraydecay, i32 noundef %0)
  call void @_ZN7testing9HasSubstrIA35_cEENS_18PolymorphicMatcherINS_8internal16HasSubstrMatcherINSt7__cxx1112basic_stringIcSt11char_traitsIcESaIcEEEEEEERKT_(ptr sret(%"class.testing::PolymorphicMatcher.51") align 8 %ref.tmp4, ptr noundef nonnull align 1 dereferenceable(35) %stacktrace)
  invoke void @_ZN7testing5AllOfIJN12_GLOBAL__N_123HasSubstrTimesMatcherP2IPciEENS_18PolymorphicMatcherINS_8internal16HasSubstrMatcherINSt7__cxx1112basic_stringIcSt11char_traitsIcESaIcEEEEEEEEEENS6_15VariadicMatcherINS6_16AllOfMatcherImplEJDpNSt5decayIRKT_E4typeEEEEDpSL_(ptr sret(%"class.testing::internal::VariadicMatcher") align 8 %ref.tmp, ptr noundef nonnull align 8 dereferenceable(16) %ref.tmp3, ptr noundef nonnull align 8 dereferenceable(32) %ref.tmp4)
          to label %invoke.cont unwind label %lpad

invoke.cont:                                      ; preds = %if.then
  invoke void @_ZNK7testing8internal15VariadicMatcherINS0_16AllOfMatcherImplEJN12_GLOBAL__N_123HasSubstrTimesMatcherP2IPciEENS_18PolymorphicMatcherINS0_16HasSubstrMatcherINSt7__cxx1112basic_stringIcSt11char_traitsIcESaIcEEEEEEEEEcvNS_7MatcherIT_EEIRKSE_EEv(ptr sret(%"class.testing::Matcher") align 8 %agg.tmp2, ptr noundef nonnull align 8 dereferenceable(48) %ref.tmp)
          to label %invoke.cont6 unwind label %lpad5

invoke.cont6:                                     ; preds = %invoke.cont
  invoke void @_ZN7testing8internal20MakeDeathTestMatcherENS_7MatcherIRKNSt7__cxx1112basic_stringIcSt11char_traitsIcESaIcEEEEE(ptr sret(%"class.testing::Matcher") align 8 %agg.tmp, ptr noundef %agg.tmp2)
          to label %invoke.cont8 unwind label %lpad7

invoke.cont8:                                     ; preds = %invoke.cont6
  %call11 = invoke noundef zeroext i1 @_ZN7testing8internal9DeathTest6CreateEPKcNS_7MatcherIRKNSt7__cxx1112basic_stringIcSt11char_traitsIcESaIcEEEEES3_iPPS1_(ptr noundef @.str.30, ptr noundef %agg.tmp, ptr noundef @.str.4, i32 noundef 88, ptr noundef %gtest_dt)
          to label %invoke.cont10 unwind label %lpad9

invoke.cont10:                                    ; preds = %invoke.cont8
  %lnot = xor i1 %call11, true
  call void @_ZN7testing7MatcherIRKNSt7__cxx1112basic_stringIcSt11char_traitsIcESaIcEEEED2Ev(ptr noundef nonnull align 8 dereferenceable(24) %agg.tmp) #3
  call void @_ZN7testing7MatcherIRKNSt7__cxx1112basic_stringIcSt11char_traitsIcESaIcEEEED2Ev(ptr noundef nonnull align 8 dereferenceable(24) %agg.tmp2) #3
  call void @_ZN7testing8internal15VariadicMatcherINS0_16AllOfMatcherImplEJN12_GLOBAL__N_123HasSubstrTimesMatcherP2IPciEENS_18PolymorphicMatcherINS0_16HasSubstrMatcherINSt7__cxx1112basic_stringIcSt11char_traitsIcESaIcEEEEEEEEED2Ev(ptr noundef nonnull align 8 dereferenceable(48) %ref.tmp) #3
  call void @_ZN7testing18PolymorphicMatcherINS_8internal16HasSubstrMatcherINSt7__cxx1112basic_stringIcSt11char_traitsIcESaIcEEEEEED2Ev(ptr noundef nonnull align 8 dereferenceable(32) %ref.tmp4) #3
  br i1 %lnot, label %if.then14, label %if.end

if.then14:                                        ; preds = %invoke.cont10
  br label %gtest_label_88

lpad:                                             ; preds = %if.then
  %1 = landingpad { ptr, i32 }
          cleanup
  %2 = extractvalue { ptr, i32 } %1, 0
  store ptr %2, ptr %exn.slot, align 8
  %3 = extractvalue { ptr, i32 } %1, 1
  store i32 %3, ptr %ehselector.slot, align 4
  br label %ehcleanup13

lpad5:                                            ; preds = %invoke.cont
  %4 = landingpad { ptr, i32 }
          cleanup
  %5 = extractvalue { ptr, i32 } %4, 0
  store ptr %5, ptr %exn.slot, align 8
  %6 = extractvalue { ptr, i32 } %4, 1
  store i32 %6, ptr %ehselector.slot, align 4
  br label %ehcleanup12

lpad7:                                            ; preds = %invoke.cont6
  %7 = landingpad { ptr, i32 }
          cleanup
  %8 = extractvalue { ptr, i32 } %7, 0
  store ptr %8, ptr %exn.slot, align 8
  %9 = extractvalue { ptr, i32 } %7, 1
  store i32 %9, ptr %ehselector.slot, align 4
  br label %ehcleanup

lpad9:                                            ; preds = %invoke.cont8
  %10 = landingpad { ptr, i32 }
          cleanup
  %11 = extractvalue { ptr, i32 } %10, 0
  store ptr %11, ptr %exn.slot, align 8
  %12 = extractvalue { ptr, i32 } %10, 1
  store i32 %12, ptr %ehselector.slot, align 4
  call void @_ZN7testing7MatcherIRKNSt7__cxx1112basic_stringIcSt11char_traitsIcESaIcEEEED2Ev(ptr noundef nonnull align 8 dereferenceable(24) %agg.tmp) #3
  br label %ehcleanup

ehcleanup:                                        ; preds = %lpad9, %lpad7
  call void @_ZN7testing7MatcherIRKNSt7__cxx1112basic_stringIcSt11char_traitsIcESaIcEEEED2Ev(ptr noundef nonnull align 8 dereferenceable(24) %agg.tmp2) #3
  br label %ehcleanup12

ehcleanup12:                                      ; preds = %ehcleanup, %lpad5
  call void @_ZN7testing8internal15VariadicMatcherINS0_16AllOfMatcherImplEJN12_GLOBAL__N_123HasSubstrTimesMatcherP2IPciEENS_18PolymorphicMatcherINS0_16HasSubstrMatcherINSt7__cxx1112basic_stringIcSt11char_traitsIcESaIcEEEEEEEEED2Ev(ptr noundef nonnull align 8 dereferenceable(48) %ref.tmp) #3
  br label %ehcleanup13

ehcleanup13:                                      ; preds = %ehcleanup12, %lpad
  call void @_ZN7testing18PolymorphicMatcherINS_8internal16HasSubstrMatcherINSt7__cxx1112basic_stringIcSt11char_traitsIcESaIcEEEEEED2Ev(ptr noundef nonnull align 8 dereferenceable(32) %ref.tmp4) #3
  br label %eh.resume

if.end:                                           ; preds = %invoke.cont10
  %13 = load ptr, ptr %gtest_dt, align 8
  %cmp = icmp ne ptr %13, null
  br i1 %cmp, label %if.then15, label %if.end81

if.then15:                                        ; preds = %if.end
  %14 = load ptr, ptr %gtest_dt, align 8
  call void @_ZNSt10unique_ptrIN7testing8internal9DeathTestESt14default_deleteIS2_EEC2IS4_vEEPS2_(ptr noundef nonnull align 8 dereferenceable(8) %gtest_dt_ptr, ptr noundef %14) #3
  %15 = load ptr, ptr %gtest_dt, align 8
  %vtable = load ptr, ptr %15, align 8
  %vfn = getelementptr inbounds ptr, ptr %vtable, i64 2
  %16 = load ptr, ptr %vfn, align 8
  %call18 = invoke noundef i32 %16(ptr noundef nonnull align 8 dereferenceable(8) %15)
          to label %invoke.cont17 unwind label %lpad16

invoke.cont17:                                    ; preds = %if.then15
  switch i32 %call18, label %sw.epilog [
    i32 0, label %sw.bb
    i32 1, label %sw.bb31
  ]

lpad16:                                           ; preds = %sw.bb31, %invoke.cont23, %invoke.cont21, %sw.bb, %if.then15
  %17 = landingpad { ptr, i32 }
          cleanup
  %18 = extractvalue { ptr, i32 } %17, 0
  store ptr %18, ptr %exn.slot, align 8
  %19 = extractvalue { ptr, i32 } %17, 1
  store i32 %19, ptr %ehselector.slot, align 4
  br label %ehcleanup80

sw.bb:                                            ; preds = %invoke.cont17
  %20 = load ptr, ptr %gtest_dt, align 8
  %21 = load ptr, ptr %gtest_dt, align 8
  %vtable19 = load ptr, ptr %21, align 8
  %vfn20 = getelementptr inbounds ptr, ptr %vtable19, i64 3
  %22 = load ptr, ptr %vfn20, align 8
  %call22 = invoke noundef i32 %22(ptr noundef nonnull align 8 dereferenceable(8) %21)
          to label %invoke.cont21 unwind label %lpad16

invoke.cont21:                                    ; preds = %sw.bb
  %call24 = invoke noundef zeroext i1 @_ZN7testing8internal20ExitedUnsuccessfullyEi(i32 noundef %call22)
          to label %invoke.cont23 unwind label %lpad16

invoke.cont23:                                    ; preds = %invoke.cont21
  %vtable25 = load ptr, ptr %20, align 8
  %vfn26 = getelementptr inbounds ptr, ptr %vtable25, i64 4
  %23 = load ptr, ptr %vfn26, align 8
  %call28 = invoke noundef zeroext i1 %23(ptr noundef nonnull align 8 dereferenceable(8) %20, i1 noundef zeroext %call24)
          to label %invoke.cont27 unwind label %lpad16

invoke.cont27:                                    ; preds = %invoke.cont23
  br i1 %call28, label %if.end30, label %if.then29

if.then29:                                        ; preds = %invoke.cont27
  store i32 2, ptr %cleanup.dest.slot, align 4
  br label %cleanup

if.end30:                                         ; preds = %invoke.cont27
  br label %sw.epilog

sw.bb31:                                          ; preds = %invoke.cont17
  %24 = load ptr, ptr %gtest_dt, align 8
  invoke void @_ZN7testing8internal9DeathTest14ReturnSentinelC2EPS1_(ptr noundef nonnull align 8 dereferenceable(8) %gtest_sentinel, ptr noundef %24)
          to label %invoke.cont32 unwind label %lpad16

invoke.cont32:                                    ; preds = %sw.bb31
  %call35 = invoke noundef zeroext i1 @_ZN7testing8internal10AlwaysTrueEv()
          to label %invoke.cont34 unwind label %lpad33

invoke.cont34:                                    ; preds = %invoke.cont32
  br i1 %call35, label %if.then36, label %if.else

if.then36:                                        ; preds = %invoke.cont34
  invoke void @_ZN4absl18SetStderrThresholdENS_18LogSeverityAtLeastE(i32 noundef 0)
          to label %invoke.cont37 unwind label %lpad33

invoke.cont37:                                    ; preds = %if.then36
  invoke void @_ZN4absl12log_internal15LogMessageFatalC1EPKci(ptr noundef nonnull align 8 dereferenceable(16) %ref.tmp39, ptr noundef @.str.4, i32 noundef 86) #21
          to label %invoke.cont40 unwind label %lpad33

invoke.cont40:                                    ; preds = %invoke.cont37
  %call41 = call noundef nonnull align 8 dereferenceable(16) ptr @_ZN4absl12log_internal10LogMessage14InternalStreamEv(ptr noundef nonnull align 8 dereferenceable(16) %ref.tmp39)
  %call44 = invoke noundef nonnull align 8 dereferenceable(16) ptr @_ZN4absl12log_internal10LogMessagelsILi14EEERS1_RAT__c(ptr noundef nonnull align 8 dereferenceable(16) %call41, ptr noundef nonnull align 1 dereferenceable(14) %message)
          to label %invoke.cont43 unwind label %lpad42

invoke.cont43:                                    ; preds = %invoke.cont40
  call void @_ZNKO4absl12log_internal7VoidifyaaINS0_10LogMessageEEEvRKT_(ptr noundef nonnull align 1 dereferenceable(1) %ref.tmp38, ptr noundef nonnull align 8 dereferenceable(16) %call44)
  call void @_ZN4absl12log_internal15LogMessageFatalD1Ev(ptr noundef nonnull align 8 dereferenceable(16) %ref.tmp39) #20
  unreachable

lpad33:                                           ; preds = %invoke.cont37, %if.then36, %invoke.cont32
  %25 = landingpad { ptr, i32 }
          catch ptr @_ZTISt9exception
          catch ptr null
  %26 = extractvalue { ptr, i32 } %25, 0
  store ptr %26, ptr %exn.slot, align 8
  %27 = extractvalue { ptr, i32 } %25, 1
  store i32 %27, ptr %ehselector.slot, align 4
  br label %catch.dispatch

lpad42:                                           ; preds = %invoke.cont40
  %28 = landingpad { ptr, i32 }
          catch ptr @_ZTISt9exception
          catch ptr null
  %29 = extractvalue { ptr, i32 } %28, 0
  store ptr %29, ptr %exn.slot, align 8
  %30 = extractvalue { ptr, i32 } %28, 1
  store i32 %30, ptr %ehselector.slot, align 4
  call void @_ZN4absl12log_internal15LogMessageFatalD1Ev(ptr noundef nonnull align 8 dereferenceable(16) %ref.tmp39) #20
  unreachable

31:                                               ; No predecessors!
  br label %catch.dispatch

catch.dispatch:                                   ; preds = %31, %lpad33
  %sel = load i32, ptr %ehselector.slot, align 4
  %32 = call i32 @llvm.eh.typeid.for(ptr @_ZTISt9exception) #3
  %matches = icmp eq i32 %sel, %32
  br i1 %matches, label %catch55, label %catch

catch55:                                          ; preds = %catch.dispatch
  %exn56 = load ptr, ptr %exn.slot, align 8
  %33 = call ptr @__cxa_begin_catch(ptr %exn56) #3
  store ptr %33, ptr %gtest_exception, align 8
  %34 = load ptr, ptr @stderr, align 8
  invoke void @_ZN7testing8internal18FormatFileLocationB5cxx11EPKci(ptr sret(%"class.std::__cxx11::basic_string") align 8 %ref.tmp57, ptr noundef @.str.4, i32 noundef 88)
          to label %invoke.cont59 unwind label %lpad58

invoke.cont59:                                    ; preds = %catch55
  %call60 = call noundef ptr @_ZNKSt7__cxx1112basic_stringIcSt11char_traitsIcESaIcEE5c_strEv(ptr noundef nonnull align 8 dereferenceable(32) %ref.tmp57) #3
  %35 = load ptr, ptr %gtest_exception, align 8
  %vtable61 = load ptr, ptr %35, align 8
  %vfn62 = getelementptr inbounds ptr, ptr %vtable61, i64 2
  %36 = load ptr, ptr %vfn62, align 8
  %call63 = call noundef ptr %36(ptr noundef nonnull align 8 dereferenceable(8) %35) #3
  %call66 = invoke i32 (ptr, ptr, ...) @fprintf(ptr noundef %34, ptr noundef @.str.15, ptr noundef %call60, ptr noundef %call63)
          to label %invoke.cont65 unwind label %lpad64

invoke.cont65:                                    ; preds = %invoke.cont59
  call void @_ZNSt7__cxx1112basic_stringIcSt11char_traitsIcESaIcEED1Ev(ptr noundef nonnull align 8 dereferenceable(32) %ref.tmp57) #3
  %37 = load ptr, ptr @stderr, align 8
  %call69 = invoke i32 @fflush(ptr noundef %37)
          to label %invoke.cont68 unwind label %lpad58

invoke.cont68:                                    ; preds = %invoke.cont65
  %38 = load ptr, ptr %gtest_dt, align 8
  %vtable70 = load ptr, ptr %38, align 8
  %vfn71 = getelementptr inbounds ptr, ptr %vtable70, i64 5
  %39 = load ptr, ptr %vfn71, align 8
  invoke void %39(ptr noundef nonnull align 8 dereferenceable(8) %38, i32 noundef 1)
          to label %invoke.cont72 unwind label %lpad58

invoke.cont72:                                    ; preds = %invoke.cont68
  invoke void @__cxa_end_catch()
          to label %invoke.cont73 unwind label %lpad51

invoke.cont73:                                    ; preds = %invoke.cont72
  br label %try.cont

try.cont:                                         ; preds = %if.end46, %invoke.cont52, %invoke.cont73
  %40 = load ptr, ptr %gtest_dt, align 8
  %vtable76 = load ptr, ptr %40, align 8
  %vfn77 = getelementptr inbounds ptr, ptr %vtable76, i64 5
  %41 = load ptr, ptr %vfn77, align 8
  invoke void %41(ptr noundef nonnull align 8 dereferenceable(8) %40, i32 noundef 2)
          to label %invoke.cont78 unwind label %lpad51

invoke.cont78:                                    ; preds = %try.cont
  call void @_ZN7testing8internal9DeathTest14ReturnSentinelD2Ev(ptr noundef nonnull align 8 dereferenceable(8) %gtest_sentinel) #3
  br label %sw.epilog

catch:                                            ; preds = %catch.dispatch
  %exn = load ptr, ptr %exn.slot, align 8
  %42 = call ptr @__cxa_begin_catch(ptr %exn) #3
  %43 = load ptr, ptr %gtest_dt, align 8
  %vtable47 = load ptr, ptr %43, align 8
  %vfn48 = getelementptr inbounds ptr, ptr %vtable47, i64 5
  %44 = load ptr, ptr %vfn48, align 8
  invoke void %44(ptr noundef nonnull align 8 dereferenceable(8) %43, i32 noundef 1)
          to label %invoke.cont50 unwind label %lpad49

invoke.cont50:                                    ; preds = %catch
  invoke void @__cxa_end_catch()
          to label %invoke.cont52 unwind label %lpad51

invoke.cont52:                                    ; preds = %invoke.cont50
  br label %try.cont

if.else:                                          ; preds = %invoke.cont34
  br label %if.end46

if.end46:                                         ; preds = %if.else
  br label %try.cont

lpad49:                                           ; preds = %catch
  %45 = landingpad { ptr, i32 }
          cleanup
  %46 = extractvalue { ptr, i32 } %45, 0
  store ptr %46, ptr %exn.slot, align 8
  %47 = extractvalue { ptr, i32 } %45, 1
  store i32 %47, ptr %ehselector.slot, align 4
  invoke void @__cxa_end_catch()
          to label %invoke.cont54 unwind label %terminate.lpad

lpad51:                                           ; preds = %invoke.cont50, %try.cont, %invoke.cont72
  %48 = landingpad { ptr, i32 }
          cleanup
  %49 = extractvalue { ptr, i32 } %48, 0
  store ptr %49, ptr %exn.slot, align 8
  %50 = extractvalue { ptr, i32 } %48, 1
  store i32 %50, ptr %ehselector.slot, align 4
  br label %ehcleanup79

invoke.cont54:                                    ; preds = %lpad49
  br label %ehcleanup79

lpad58:                                           ; preds = %invoke.cont68, %invoke.cont65, %catch55
  %51 = landingpad { ptr, i32 }
          cleanup
  %52 = extractvalue { ptr, i32 } %51, 0
  store ptr %52, ptr %exn.slot, align 8
  %53 = extractvalue { ptr, i32 } %51, 1
  store i32 %53, ptr %ehselector.slot, align 4
  br label %ehcleanup74

lpad64:                                           ; preds = %invoke.cont59
  %54 = landingpad { ptr, i32 }
          cleanup
  %55 = extractvalue { ptr, i32 } %54, 0
  store ptr %55, ptr %exn.slot, align 8
  %56 = extractvalue { ptr, i32 } %54, 1
  store i32 %56, ptr %ehselector.slot, align 4
  call void @_ZNSt7__cxx1112basic_stringIcSt11char_traitsIcESaIcEED1Ev(ptr noundef nonnull align 8 dereferenceable(32) %ref.tmp57) #3
  br label %ehcleanup74

ehcleanup74:                                      ; preds = %lpad64, %lpad58
  invoke void @__cxa_end_catch()
          to label %invoke.cont75 unwind label %terminate.lpad

invoke.cont75:                                    ; preds = %ehcleanup74
  br label %ehcleanup79

ehcleanup79:                                      ; preds = %invoke.cont75, %invoke.cont54, %lpad51
  call void @_ZN7testing8internal9DeathTest14ReturnSentinelD2Ev(ptr noundef nonnull align 8 dereferenceable(8) %gtest_sentinel) #3
  br label %ehcleanup80

sw.epilog:                                        ; preds = %invoke.cont78, %if.end30, %invoke.cont17
  store i32 0, ptr %cleanup.dest.slot, align 4
  br label %cleanup

cleanup:                                          ; preds = %sw.epilog, %if.then29
  call void @_ZNSt10unique_ptrIN7testing8internal9DeathTestESt14default_deleteIS2_EED2Ev(ptr noundef nonnull align 8 dereferenceable(8) %gtest_dt_ptr) #3
  %cleanup.dest = load i32, ptr %cleanup.dest.slot, align 4
  switch i32 %cleanup.dest, label %unreachable [
    i32 0, label %cleanup.cont
    i32 2, label %gtest_label_88
  ]

cleanup.cont:                                     ; preds = %cleanup
  br label %if.end81

ehcleanup80:                                      ; preds = %ehcleanup79, %lpad16
  call void @_ZNSt10unique_ptrIN7testing8internal9DeathTestESt14default_deleteIS2_EED2Ev(ptr noundef nonnull align 8 dereferenceable(8) %gtest_dt_ptr) #3
  br label %eh.resume

if.end81:                                         ; preds = %cleanup.cont, %if.end
  br label %if.end93

if.else82:                                        ; preds = %entry
  br label %gtest_label_88

gtest_label_88:                                   ; preds = %if.else82, %cleanup, %if.then14
  call void @_ZN7testing7MessageC1Ev(ptr noundef nonnull align 8 dereferenceable(8) %ref.tmp83)
  %call87 = invoke noundef ptr @_ZN7testing8internal9DeathTest11LastMessageEv()
          to label %invoke.cont86 unwind label %lpad85

invoke.cont86:                                    ; preds = %gtest_label_88
  invoke void @_ZN7testing8internal12AssertHelperC1ENS_14TestPartResult4TypeEPKciS5_(ptr noundef nonnull align 8 dereferenceable(8) %ref.tmp84, i32 noundef 1, ptr noundef @.str.4, i32 noundef 88, ptr noundef %call87)
          to label %invoke.cont88 unwind label %lpad85

invoke.cont88:                                    ; preds = %invoke.cont86
  invoke void @_ZNK7testing8internal12AssertHelperaSERKNS_7MessageE(ptr noundef nonnull align 8 dereferenceable(8) %ref.tmp84, ptr noundef nonnull align 8 dereferenceable(8) %ref.tmp83)
          to label %invoke.cont90 unwind label %lpad89

invoke.cont90:                                    ; preds = %invoke.cont88
  call void @_ZN7testing8internal12AssertHelperD1Ev(ptr noundef nonnull align 8 dereferenceable(8) %ref.tmp84) #3
  call void @_ZN7testing7MessageD2Ev(ptr noundef nonnull align 8 dereferenceable(8) %ref.tmp83) #3
  br label %if.end93

lpad85:                                           ; preds = %invoke.cont86, %gtest_label_88
  %57 = landingpad { ptr, i32 }
          cleanup
  %58 = extractvalue { ptr, i32 } %57, 0
  store ptr %58, ptr %exn.slot, align 8
  %59 = extractvalue { ptr, i32 } %57, 1
  store i32 %59, ptr %ehselector.slot, align 4
  br label %ehcleanup92

lpad89:                                           ; preds = %invoke.cont88
  %60 = landingpad { ptr, i32 }
          cleanup
  %61 = extractvalue { ptr, i32 } %60, 0
  store ptr %61, ptr %exn.slot, align 8
  %62 = extractvalue { ptr, i32 } %60, 1
  store i32 %62, ptr %ehselector.slot, align 4
  call void @_ZN7testing8internal12AssertHelperD1Ev(ptr noundef nonnull align 8 dereferenceable(8) %ref.tmp84) #3
  br label %ehcleanup92

ehcleanup92:                                      ; preds = %lpad89, %lpad85
  call void @_ZN7testing7MessageD2Ev(ptr noundef nonnull align 8 dereferenceable(8) %ref.tmp83) #3
  br label %eh.resume

if.end93:                                         ; preds = %invoke.cont90, %if.end81
  ret void

eh.resume:                                        ; preds = %ehcleanup92, %ehcleanup80, %ehcleanup13
  %exn94 = load ptr, ptr %exn.slot, align 8
  %sel95 = load i32, ptr %ehselector.slot, align 4
  %lpad.val = insertvalue { ptr, i32 } poison, ptr %exn94, 0
  %lpad.val96 = insertvalue { ptr, i32 } %lpad.val, i32 %sel95, 1
  resume { ptr, i32 } %lpad.val96

terminate.lpad:                                   ; preds = %ehcleanup74, %lpad49
  %63 = landingpad { ptr, i32 }
          catch ptr null
  %64 = extractvalue { ptr, i32 } %63, 0
  call void @__clang_call_terminate(ptr %64) #20
  unreachable

unreachable:                                      ; preds = %cleanup
  unreachable
}

; Function Attrs: mustprogress uwtable
define linkonce_odr dso_local void @_ZN7testing8internal20MakeDeathTestMatcherENS_7MatcherIRKNSt7__cxx1112basic_stringIcSt11char_traitsIcESaIcEEEEE(ptr noalias sret(%"class.testing::Matcher") align 8 %agg.result, ptr noundef %matcher) #4 comdat {
entry:
  %result.ptr = alloca ptr, align 8
  %matcher.indirect_addr = alloca ptr, align 8
  store ptr %agg.result, ptr %result.ptr, align 8
  store ptr %matcher, ptr %matcher.indirect_addr, align 8
  call void @_ZN7testing7MatcherIRKNSt7__cxx1112basic_stringIcSt11char_traitsIcESaIcEEEEC2EOS9_(ptr noundef nonnull align 8 dereferenceable(24) %agg.result, ptr noundef nonnull align 8 dereferenceable(24) %matcher)
  ret void
}

; Function Attrs: mustprogress uwtable
define internal void @_ZN7testing5AllOfIJN12_GLOBAL__N_123HasSubstrTimesMatcherP2IPciEENS_18PolymorphicMatcherINS_8internal16HasSubstrMatcherINSt7__cxx1112basic_stringIcSt11char_traitsIcESaIcEEEEEEEEEENS6_15VariadicMatcherINS6_16AllOfMatcherImplEJDpNSt5decayIRKT_E4typeEEEEDpSL_(ptr noalias sret(%"class.testing::internal::VariadicMatcher") align 8 %agg.result, ptr noundef nonnull align 8 dereferenceable(16) %matchers, ptr noundef nonnull align 8 dereferenceable(32) %matchers1) #4 {
entry:
  %result.ptr = alloca ptr, align 8
  %matchers.addr = alloca ptr, align 8
  %matchers.addr2 = alloca ptr, align 8
  store ptr %agg.result, ptr %result.ptr, align 8
  store ptr %matchers, ptr %matchers.addr, align 8
  store ptr %matchers1, ptr %matchers.addr2, align 8
  %0 = load ptr, ptr %matchers.addr, align 8
  %1 = load ptr, ptr %matchers.addr2, align 8
  call void @_ZN7testing8internal15VariadicMatcherINS0_16AllOfMatcherImplEJN12_GLOBAL__N_123HasSubstrTimesMatcherP2IPciEENS_18PolymorphicMatcherINS0_16HasSubstrMatcherINSt7__cxx1112basic_stringIcSt11char_traitsIcESaIcEEEEEEEEEC2ERKS6_RKSG_(ptr noundef nonnull align 8 dereferenceable(48) %agg.result, ptr noundef nonnull align 8 dereferenceable(16) %0, ptr noundef nonnull align 8 dereferenceable(32) %1)
  ret void
}

; Function Attrs: mustprogress uwtable
define internal void @_ZN12_GLOBAL__N_114HasSubstrTimesIPciEENS_23HasSubstrTimesMatcherP2IT_T0_EES3_S4_(ptr noalias sret(%"class.(anonymous namespace)::HasSubstrTimesMatcherP2") align 8 %agg.result, ptr noundef %gmock_p0, i32 noundef %gmock_p1) #4 {
entry:
  %gmock_p0.addr = alloca ptr, align 8
  %gmock_p1.addr = alloca i32, align 4
  store ptr %gmock_p0, ptr %gmock_p0.addr, align 8
  store i32 %gmock_p1, ptr %gmock_p1.addr, align 4
  %0 = load ptr, ptr %gmock_p0.addr, align 8
  %1 = load i32, ptr %gmock_p1.addr, align 4
  call void @_ZN12_GLOBAL__N_123HasSubstrTimesMatcherP2IPciECI2N7testing8internal15MatcherBaseImplIS2_EEISt9enable_ifILb1EvEvEES1_i(ptr noundef nonnull align 8 dereferenceable(16) %agg.result, ptr noundef %0, i32 noundef %1)
  ret void
}

; Function Attrs: mustprogress uwtable
define linkonce_odr dso_local void @_ZN7testing9HasSubstrIA35_cEENS_18PolymorphicMatcherINS_8internal16HasSubstrMatcherINSt7__cxx1112basic_stringIcSt11char_traitsIcESaIcEEEEEEERKT_(ptr noalias sret(%"class.testing::PolymorphicMatcher.51") align 8 %agg.result, ptr noundef nonnull align 1 dereferenceable(35) %substring) #4 comdat personality ptr @__gxx_personality_v0 {
entry:
  %result.ptr = alloca ptr, align 8
  %substring.addr = alloca ptr, align 8
  %ref.tmp = alloca %"class.testing::internal::HasSubstrMatcher", align 8
  %ref.tmp1 = alloca %"class.std::__cxx11::basic_string", align 8
  %ref.tmp2 = alloca %"class.std::allocator", align 1
  %exn.slot = alloca ptr, align 8
  %ehselector.slot = alloca i32, align 4
  store ptr %agg.result, ptr %result.ptr, align 8
  store ptr %substring, ptr %substring.addr, align 8
  %0 = load ptr, ptr %substring.addr, align 8
  %arraydecay = getelementptr inbounds [35 x i8], ptr %0, i64 0, i64 0
  call void @_ZNSaIcEC1Ev(ptr noundef nonnull align 1 dereferenceable(1) %ref.tmp2) #3
  invoke void @_ZNSt7__cxx1112basic_stringIcSt11char_traitsIcESaIcEEC2IS3_EEPKcRKS3_(ptr noundef nonnull align 8 dereferenceable(32) %ref.tmp1, ptr noundef %arraydecay, ptr noundef nonnull align 1 dereferenceable(1) %ref.tmp2)
          to label %invoke.cont unwind label %lpad

invoke.cont:                                      ; preds = %entry
  invoke void @_ZN7testing8internal16HasSubstrMatcherINSt7__cxx1112basic_stringIcSt11char_traitsIcESaIcEEEEC2ERKS7_(ptr noundef nonnull align 8 dereferenceable(32) %ref.tmp, ptr noundef nonnull align 8 dereferenceable(32) %ref.tmp1)
          to label %invoke.cont4 unwind label %lpad3

invoke.cont4:                                     ; preds = %invoke.cont
  invoke void @_ZN7testing22MakePolymorphicMatcherINS_8internal16HasSubstrMatcherINSt7__cxx1112basic_stringIcSt11char_traitsIcESaIcEEEEEEENS_18PolymorphicMatcherIT_EERKSB_(ptr sret(%"class.testing::PolymorphicMatcher.51") align 8 %agg.result, ptr noundef nonnull align 8 dereferenceable(32) %ref.tmp)
          to label %invoke.cont6 unwind label %lpad5

invoke.cont6:                                     ; preds = %invoke.cont4
  call void @_ZN7testing8internal16HasSubstrMatcherINSt7__cxx1112basic_stringIcSt11char_traitsIcESaIcEEEED2Ev(ptr noundef nonnull align 8 dereferenceable(32) %ref.tmp) #3
  call void @_ZNSt7__cxx1112basic_stringIcSt11char_traitsIcESaIcEED1Ev(ptr noundef nonnull align 8 dereferenceable(32) %ref.tmp1) #3
  call void @_ZNSaIcED1Ev(ptr noundef nonnull align 1 dereferenceable(1) %ref.tmp2) #3
  ret void

lpad:                                             ; preds = %entry
  %1 = landingpad { ptr, i32 }
          cleanup
  %2 = extractvalue { ptr, i32 } %1, 0
  store ptr %2, ptr %exn.slot, align 8
  %3 = extractvalue { ptr, i32 } %1, 1
  store i32 %3, ptr %ehselector.slot, align 4
  br label %ehcleanup7

lpad3:                                            ; preds = %invoke.cont
  %4 = landingpad { ptr, i32 }
          cleanup
  %5 = extractvalue { ptr, i32 } %4, 0
  store ptr %5, ptr %exn.slot, align 8
  %6 = extractvalue { ptr, i32 } %4, 1
  store i32 %6, ptr %ehselector.slot, align 4
  br label %ehcleanup

lpad5:                                            ; preds = %invoke.cont4
  %7 = landingpad { ptr, i32 }
          cleanup
  %8 = extractvalue { ptr, i32 } %7, 0
  store ptr %8, ptr %exn.slot, align 8
  %9 = extractvalue { ptr, i32 } %7, 1
  store i32 %9, ptr %ehselector.slot, align 4
  call void @_ZN7testing8internal16HasSubstrMatcherINSt7__cxx1112basic_stringIcSt11char_traitsIcESaIcEEEED2Ev(ptr noundef nonnull align 8 dereferenceable(32) %ref.tmp) #3
  br label %ehcleanup

ehcleanup:                                        ; preds = %lpad5, %lpad3
  call void @_ZNSt7__cxx1112basic_stringIcSt11char_traitsIcESaIcEED1Ev(ptr noundef nonnull align 8 dereferenceable(32) %ref.tmp1) #3
  br label %ehcleanup7

ehcleanup7:                                       ; preds = %ehcleanup, %lpad
  call void @_ZNSaIcED1Ev(ptr noundef nonnull align 1 dereferenceable(1) %ref.tmp2) #3
  br label %eh.resume

eh.resume:                                        ; preds = %ehcleanup7
  %exn = load ptr, ptr %exn.slot, align 8
  %sel = load i32, ptr %ehselector.slot, align 4
  %lpad.val = insertvalue { ptr, i32 } poison, ptr %exn, 0
  %lpad.val8 = insertvalue { ptr, i32 } %lpad.val, i32 %sel, 1
  resume { ptr, i32 } %lpad.val8
}

; Function Attrs: mustprogress uwtable
define internal void @_ZNK7testing8internal15VariadicMatcherINS0_16AllOfMatcherImplEJN12_GLOBAL__N_123HasSubstrTimesMatcherP2IPciEENS_18PolymorphicMatcherINS0_16HasSubstrMatcherINSt7__cxx1112basic_stringIcSt11char_traitsIcESaIcEEEEEEEEEcvNS_7MatcherIT_EEIRKSE_EEv(ptr noalias sret(%"class.testing::Matcher") align 8 %agg.result, ptr noundef nonnull align 8 dereferenceable(48) %this) #4 align 2 personality ptr @__gxx_personality_v0 {
entry:
  %result.ptr = alloca ptr, align 8
  %this.addr = alloca ptr, align 8
  %values = alloca %"class.std::vector", align 8
  %exn.slot = alloca ptr, align 8
  %ehselector.slot = alloca i32, align 4
  %agg.tmp3 = alloca %"class.std::vector", align 8
  %cleanup.isactive = alloca i1, align 1
  store ptr %agg.result, ptr %result.ptr, align 8
  store ptr %this, ptr %this.addr, align 8
  %this1 = load ptr, ptr %this.addr, align 8
  call void @_ZNSt6vectorIN7testing7MatcherIRKNSt7__cxx1112basic_stringIcSt11char_traitsIcESaIcEEEEESaISA_EEC2Ev(ptr noundef nonnull align 8 dereferenceable(24) %values) #3
  invoke void @_ZNK7testing8internal15VariadicMatcherINS0_16AllOfMatcherImplEJN12_GLOBAL__N_123HasSubstrTimesMatcherP2IPciEENS_18PolymorphicMatcherINS0_16HasSubstrMatcherINSt7__cxx1112basic_stringIcSt11char_traitsIcESaIcEEEEEEEEE21CreateVariadicMatcherIRKSE_Lm0EEEvPSt6vectorINS_7MatcherIT_EESaISO_EESt17integral_constantImXT0_EE(ptr noundef nonnull align 8 dereferenceable(48) %this1, ptr noundef %values)
          to label %invoke.cont unwind label %lpad

invoke.cont:                                      ; preds = %entry
  %call = invoke noalias noundef nonnull ptr @_Znwm(i64 noundef 32) #17
          to label %invoke.cont2 unwind label %lpad

invoke.cont2:                                     ; preds = %invoke.cont
  store i1 true, ptr %cleanup.isactive, align 1
  call void @_ZNSt6vectorIN7testing7MatcherIRKNSt7__cxx1112basic_stringIcSt11char_traitsIcESaIcEEEEESaISA_EEC2EOSC_(ptr noundef nonnull align 8 dereferenceable(24) %agg.tmp3, ptr noundef nonnull align 8 dereferenceable(24) %values) #3
  invoke void @_ZN7testing8internal16AllOfMatcherImplIRKNSt7__cxx1112basic_stringIcSt11char_traitsIcESaIcEEEEC2ESt6vectorINS_7MatcherIS9_EESaISD_EE(ptr noundef nonnull align 8 dereferenceable(32) %call, ptr noundef %agg.tmp3)
          to label %invoke.cont5 unwind label %lpad4

invoke.cont5:                                     ; preds = %invoke.cont2
  store i1 false, ptr %cleanup.isactive, align 1
  invoke void @_ZN7testing7MatcherIRKNSt7__cxx1112basic_stringIcSt11char_traitsIcESaIcEEEEC2EPKNS_16MatcherInterfaceIS8_EE(ptr noundef nonnull align 8 dereferenceable(24) %agg.result, ptr noundef %call)
          to label %invoke.cont6 unwind label %lpad4

invoke.cont6:                                     ; preds = %invoke.cont5
  call void @_ZNSt6vectorIN7testing7MatcherIRKNSt7__cxx1112basic_stringIcSt11char_traitsIcESaIcEEEEESaISA_EED2Ev(ptr noundef nonnull align 8 dereferenceable(24) %agg.tmp3) #3
  call void @_ZNSt6vectorIN7testing7MatcherIRKNSt7__cxx1112basic_stringIcSt11char_traitsIcESaIcEEEEESaISA_EED2Ev(ptr noundef nonnull align 8 dereferenceable(24) %values) #3
  ret void

lpad:                                             ; preds = %invoke.cont, %entry
  %0 = landingpad { ptr, i32 }
          cleanup
  %1 = extractvalue { ptr, i32 } %0, 0
  store ptr %1, ptr %exn.slot, align 8
  %2 = extractvalue { ptr, i32 } %0, 1
  store i32 %2, ptr %ehselector.slot, align 4
  br label %ehcleanup

lpad4:                                            ; preds = %invoke.cont5, %invoke.cont2
  %3 = landingpad { ptr, i32 }
          cleanup
  %4 = extractvalue { ptr, i32 } %3, 0
  store ptr %4, ptr %exn.slot, align 8
  %5 = extractvalue { ptr, i32 } %3, 1
  store i32 %5, ptr %ehselector.slot, align 4
  call void @_ZNSt6vectorIN7testing7MatcherIRKNSt7__cxx1112basic_stringIcSt11char_traitsIcESaIcEEEEESaISA_EED2Ev(ptr noundef nonnull align 8 dereferenceable(24) %agg.tmp3) #3
  %cleanup.is_active = load i1, ptr %cleanup.isactive, align 1
  br i1 %cleanup.is_active, label %cleanup.action, label %cleanup.done

cleanup.action:                                   ; preds = %lpad4
  call void @_ZdlPv(ptr noundef %call) #18
  br label %cleanup.done

cleanup.done:                                     ; preds = %cleanup.action, %lpad4
  br label %ehcleanup

ehcleanup:                                        ; preds = %cleanup.done, %lpad
  call void @_ZNSt6vectorIN7testing7MatcherIRKNSt7__cxx1112basic_stringIcSt11char_traitsIcESaIcEEEEESaISA_EED2Ev(ptr noundef nonnull align 8 dereferenceable(24) %values) #3
  br label %eh.resume

eh.resume:                                        ; preds = %ehcleanup
  %exn = load ptr, ptr %exn.slot, align 8
  %sel = load i32, ptr %ehselector.slot, align 4
  %lpad.val = insertvalue { ptr, i32 } poison, ptr %exn, 0
  %lpad.val7 = insertvalue { ptr, i32 } %lpad.val, i32 %sel, 1
  resume { ptr, i32 } %lpad.val7
}

; Function Attrs: mustprogress nounwind uwtable
define internal void @_ZN7testing8internal15VariadicMatcherINS0_16AllOfMatcherImplEJN12_GLOBAL__N_123HasSubstrTimesMatcherP2IPciEENS_18PolymorphicMatcherINS0_16HasSubstrMatcherINSt7__cxx1112basic_stringIcSt11char_traitsIcESaIcEEEEEEEEED2Ev(ptr noundef nonnull align 8 dereferenceable(48) %this) unnamed_addr #6 align 2 {
entry:
  %this.addr = alloca ptr, align 8
  store ptr %this, ptr %this.addr, align 8
  %this1 = load ptr, ptr %this.addr, align 8
  %matchers_ = getelementptr inbounds %"class.testing::internal::VariadicMatcher", ptr %this1, i32 0, i32 0
  call void @_ZNSt5tupleIJN12_GLOBAL__N_123HasSubstrTimesMatcherP2IPciEEN7testing18PolymorphicMatcherINS4_8internal16HasSubstrMatcherINSt7__cxx1112basic_stringIcSt11char_traitsIcESaIcEEEEEEEEED2Ev(ptr noundef nonnull align 8 dereferenceable(48) %matchers_) #3
  ret void
}

; Function Attrs: mustprogress nounwind uwtable
define linkonce_odr dso_local void @_ZN7testing18PolymorphicMatcherINS_8internal16HasSubstrMatcherINSt7__cxx1112basic_stringIcSt11char_traitsIcESaIcEEEEEED2Ev(ptr noundef nonnull align 8 dereferenceable(32) %this) unnamed_addr #6 comdat align 2 {
entry:
  %this.addr = alloca ptr, align 8
  store ptr %this, ptr %this.addr, align 8
  %this1 = load ptr, ptr %this.addr, align 8
  %impl_ = getelementptr inbounds %"class.testing::PolymorphicMatcher.51", ptr %this1, i32 0, i32 0
  call void @_ZN7testing8internal16HasSubstrMatcherINSt7__cxx1112basic_stringIcSt11char_traitsIcESaIcEEEED2Ev(ptr noundef nonnull align 8 dereferenceable(32) %impl_) #3
  ret void
}

; Function Attrs: cold
declare void @_ZN4absl12log_internal15LogMessageFatalC1EPKci(ptr noundef nonnull align 8 dereferenceable(16), ptr noundef, i32 noundef) unnamed_addr #9

; Function Attrs: mustprogress uwtable
define linkonce_odr dso_local noundef nonnull align 8 dereferenceable(16) ptr @_ZN4absl12log_internal10LogMessagelsILi14EEERS1_RAT__c(ptr noundef nonnull align 8 dereferenceable(16) %this, ptr noundef nonnull align 1 dereferenceable(14) %buf) #4 comdat align 2 {
entry:
  %this.addr = alloca ptr, align 8
  %buf.addr = alloca ptr, align 8
  %agg.tmp = alloca %"class.std::basic_string_view", align 8
  store ptr %this, ptr %this.addr, align 8
  store ptr %buf, ptr %buf.addr, align 8
  %this1 = load ptr, ptr %this.addr, align 8
  %0 = load ptr, ptr %buf.addr, align 8
  %arraydecay = getelementptr inbounds [14 x i8], ptr %0, i64 0, i64 0
  call void @_ZNSt17basic_string_viewIcSt11char_traitsIcEEC2EPKc(ptr noundef nonnull align 8 dereferenceable(16) %agg.tmp, ptr noundef %arraydecay) #3
  %1 = getelementptr inbounds { i64, ptr }, ptr %agg.tmp, i32 0, i32 0
  %2 = load i64, ptr %1, align 8
  %3 = getelementptr inbounds { i64, ptr }, ptr %agg.tmp, i32 0, i32 1
  %4 = load ptr, ptr %3, align 8
  call void @_ZN4absl12log_internal10LogMessage19CopyToEncodedBufferILNS1_10StringTypeE1EEEvSt17basic_string_viewIcSt11char_traitsIcEE(ptr noundef nonnull align 8 dereferenceable(16) %this1, i64 %2, ptr %4)
  ret ptr %this1
}

; Function Attrs: noreturn nounwind
declare void @_ZN4absl12log_internal15LogMessageFatalD1Ev(ptr noundef nonnull align 8 dereferenceable(16)) unnamed_addr #11

; Function Attrs: mustprogress uwtable
define linkonce_odr dso_local void @_ZN7testing7MatcherIRKNSt7__cxx1112basic_stringIcSt11char_traitsIcESaIcEEEEC2EOS9_(ptr noundef nonnull align 8 dereferenceable(24) %this, ptr noundef nonnull align 8 dereferenceable(24) %0) unnamed_addr #4 comdat align 2 {
entry:
  %this.addr = alloca ptr, align 8
  %.addr = alloca ptr, align 8
  store ptr %this, ptr %this.addr, align 8
  store ptr %0, ptr %.addr, align 8
  %this1 = load ptr, ptr %this.addr, align 8
  %1 = load ptr, ptr %.addr, align 8
  call void @_ZN7testing8internal11MatcherBaseIRKNSt7__cxx1112basic_stringIcSt11char_traitsIcESaIcEEEEC2EOSA_(ptr noundef nonnull align 8 dereferenceable(24) %this1, ptr noundef nonnull align 8 dereferenceable(24) %1)
  store ptr getelementptr inbounds ({ [6 x ptr] }, ptr @_ZTVN7testing7MatcherIRKNSt7__cxx1112basic_stringIcSt11char_traitsIcESaIcEEEEE, i32 0, inrange i32 0, i32 2), ptr %this1, align 8
  ret void
}

; Function Attrs: mustprogress nounwind uwtable
define linkonce_odr dso_local void @_ZN7testing8internal11MatcherBaseIRKNSt7__cxx1112basic_stringIcSt11char_traitsIcESaIcEEEEC2EOSA_(ptr noundef nonnull align 8 dereferenceable(24) %this, ptr noundef nonnull align 8 dereferenceable(24) %other) unnamed_addr #6 comdat align 2 {
entry:
  %this.addr = alloca ptr, align 8
  %other.addr = alloca ptr, align 8
  store ptr %this, ptr %this.addr, align 8
  store ptr %other, ptr %other.addr, align 8
  %this1 = load ptr, ptr %this.addr, align 8
  call void @_ZN7testing25MatcherDescriberInterfaceC2Ev(ptr noundef nonnull align 8 dereferenceable(8) %this1) #3
  store ptr getelementptr inbounds ({ [6 x ptr] }, ptr @_ZTVN7testing8internal11MatcherBaseIRKNSt7__cxx1112basic_stringIcSt11char_traitsIcESaIcEEEEE, i32 0, inrange i32 0, i32 2), ptr %this1, align 8
  %vtable_ = getelementptr inbounds %"class.testing::internal::MatcherBase", ptr %this1, i32 0, i32 1
  %0 = load ptr, ptr %other.addr, align 8
  %vtable_2 = getelementptr inbounds %"class.testing::internal::MatcherBase", ptr %0, i32 0, i32 1
  %1 = load ptr, ptr %vtable_2, align 8
  store ptr %1, ptr %vtable_, align 8
  %buffer_ = getelementptr inbounds %"class.testing::internal::MatcherBase", ptr %this1, i32 0, i32 2
  %2 = load ptr, ptr %other.addr, align 8
  %buffer_3 = getelementptr inbounds %"class.testing::internal::MatcherBase", ptr %2, i32 0, i32 2
  call void @llvm.memcpy.p0.p0.i64(ptr align 8 %buffer_, ptr align 8 %buffer_3, i64 8, i1 false)
  %3 = load ptr, ptr %other.addr, align 8
  %vtable_4 = getelementptr inbounds %"class.testing::internal::MatcherBase", ptr %3, i32 0, i32 1
  store ptr null, ptr %vtable_4, align 8
  ret void
}

; Function Attrs: mustprogress uwtable
define internal void @_ZN7testing8internal15VariadicMatcherINS0_16AllOfMatcherImplEJN12_GLOBAL__N_123HasSubstrTimesMatcherP2IPciEENS_18PolymorphicMatcherINS0_16HasSubstrMatcherINSt7__cxx1112basic_stringIcSt11char_traitsIcESaIcEEEEEEEEEC2ERKS6_RKSG_(ptr noundef nonnull align 8 dereferenceable(48) %this, ptr noundef nonnull align 8 dereferenceable(16) %matchers, ptr noundef nonnull align 8 dereferenceable(32) %matchers1) unnamed_addr #4 align 2 {
entry:
  %this.addr = alloca ptr, align 8
  %matchers.addr = alloca ptr, align 8
  %matchers.addr2 = alloca ptr, align 8
  store ptr %this, ptr %this.addr, align 8
  store ptr %matchers, ptr %matchers.addr, align 8
  store ptr %matchers1, ptr %matchers.addr2, align 8
  %this3 = load ptr, ptr %this.addr, align 8
  %matchers_ = getelementptr inbounds %"class.testing::internal::VariadicMatcher", ptr %this3, i32 0, i32 0
  %0 = load ptr, ptr %matchers.addr, align 8
  %1 = load ptr, ptr %matchers.addr2, align 8
  call void @_ZNSt5tupleIJN12_GLOBAL__N_123HasSubstrTimesMatcherP2IPciEEN7testing18PolymorphicMatcherINS4_8internal16HasSubstrMatcherINSt7__cxx1112basic_stringIcSt11char_traitsIcESaIcEEEEEEEEEC2ILb1ETnNSt9enable_ifIXclsr4_TCCIXT_EEE29__is_implicitly_constructibleIRKS3_RKSF_EEEbE4typeELb1EEESK_SM_(ptr noundef nonnull align 8 dereferenceable(48) %matchers_, ptr noundef nonnull align 8 dereferenceable(16) %0, ptr noundef nonnull align 8 dereferenceable(32) %1)
  ret void
}

; Function Attrs: mustprogress uwtable
define internal void @_ZNSt5tupleIJN12_GLOBAL__N_123HasSubstrTimesMatcherP2IPciEEN7testing18PolymorphicMatcherINS4_8internal16HasSubstrMatcherINSt7__cxx1112basic_stringIcSt11char_traitsIcESaIcEEEEEEEEEC2ILb1ETnNSt9enable_ifIXclsr4_TCCIXT_EEE29__is_implicitly_constructibleIRKS3_RKSF_EEEbE4typeELb1EEESK_SM_(ptr noundef nonnull align 8 dereferenceable(48) %this, ptr noundef nonnull align 8 dereferenceable(16) %__a1, ptr noundef nonnull align 8 dereferenceable(32) %__a2) unnamed_addr #4 align 2 {
entry:
  %this.addr = alloca ptr, align 8
  %__a1.addr = alloca ptr, align 8
  %__a2.addr = alloca ptr, align 8
  store ptr %this, ptr %this.addr, align 8
  store ptr %__a1, ptr %__a1.addr, align 8
  store ptr %__a2, ptr %__a2.addr, align 8
  %this1 = load ptr, ptr %this.addr, align 8
  %0 = load ptr, ptr %__a1.addr, align 8
  %1 = load ptr, ptr %__a2.addr, align 8
  call void @_ZNSt11_Tuple_implILm0EJN12_GLOBAL__N_123HasSubstrTimesMatcherP2IPciEEN7testing18PolymorphicMatcherINS4_8internal16HasSubstrMatcherINSt7__cxx1112basic_stringIcSt11char_traitsIcESaIcEEEEEEEEEC2ERKS3_RKSF_(ptr noundef nonnull align 8 dereferenceable(48) %this1, ptr noundef nonnull align 8 dereferenceable(16) %0, ptr noundef nonnull align 8 dereferenceable(32) %1)
  ret void
}

; Function Attrs: mustprogress uwtable
define internal void @_ZNSt11_Tuple_implILm0EJN12_GLOBAL__N_123HasSubstrTimesMatcherP2IPciEEN7testing18PolymorphicMatcherINS4_8internal16HasSubstrMatcherINSt7__cxx1112basic_stringIcSt11char_traitsIcESaIcEEEEEEEEEC2ERKS3_RKSF_(ptr noundef nonnull align 8 dereferenceable(48) %this, ptr noundef nonnull align 8 dereferenceable(16) %__head, ptr noundef nonnull align 8 dereferenceable(32) %__tail) unnamed_addr #4 align 2 personality ptr @__gxx_personality_v0 {
entry:
  %this.addr = alloca ptr, align 8
  %__head.addr = alloca ptr, align 8
  %__tail.addr = alloca ptr, align 8
  %exn.slot = alloca ptr, align 8
  %ehselector.slot = alloca i32, align 4
  store ptr %this, ptr %this.addr, align 8
  store ptr %__head, ptr %__head.addr, align 8
  store ptr %__tail, ptr %__tail.addr, align 8
  %this1 = load ptr, ptr %this.addr, align 8
  %0 = load ptr, ptr %__tail.addr, align 8
  call void @_ZNSt11_Tuple_implILm1EJN7testing18PolymorphicMatcherINS0_8internal16HasSubstrMatcherINSt7__cxx1112basic_stringIcSt11char_traitsIcESaIcEEEEEEEEEC2ERKSB_(ptr noundef nonnull align 8 dereferenceable(32) %this1, ptr noundef nonnull align 8 dereferenceable(32) %0)
  %1 = getelementptr inbounds i8, ptr %this1, i64 32
  %2 = load ptr, ptr %__head.addr, align 8
  invoke void @_ZNSt10_Head_baseILm0EN12_GLOBAL__N_123HasSubstrTimesMatcherP2IPciEELb0EEC2ERKS3_(ptr noundef nonnull align 8 dereferenceable(16) %1, ptr noundef nonnull align 8 dereferenceable(16) %2)
          to label %invoke.cont unwind label %lpad

invoke.cont:                                      ; preds = %entry
  ret void

lpad:                                             ; preds = %entry
  %3 = landingpad { ptr, i32 }
          cleanup
  %4 = extractvalue { ptr, i32 } %3, 0
  store ptr %4, ptr %exn.slot, align 8
  %5 = extractvalue { ptr, i32 } %3, 1
  store i32 %5, ptr %ehselector.slot, align 4
  call void @_ZNSt11_Tuple_implILm1EJN7testing18PolymorphicMatcherINS0_8internal16HasSubstrMatcherINSt7__cxx1112basic_stringIcSt11char_traitsIcESaIcEEEEEEEEED2Ev(ptr noundef nonnull align 8 dereferenceable(32) %this1) #3
  br label %eh.resume

eh.resume:                                        ; preds = %lpad
  %exn = load ptr, ptr %exn.slot, align 8
  %sel = load i32, ptr %ehselector.slot, align 4
  %lpad.val = insertvalue { ptr, i32 } poison, ptr %exn, 0
  %lpad.val2 = insertvalue { ptr, i32 } %lpad.val, i32 %sel, 1
  resume { ptr, i32 } %lpad.val2
}

; Function Attrs: mustprogress uwtable
define linkonce_odr dso_local void @_ZNSt11_Tuple_implILm1EJN7testing18PolymorphicMatcherINS0_8internal16HasSubstrMatcherINSt7__cxx1112basic_stringIcSt11char_traitsIcESaIcEEEEEEEEEC2ERKSB_(ptr noundef nonnull align 8 dereferenceable(32) %this, ptr noundef nonnull align 8 dereferenceable(32) %__head) unnamed_addr #4 comdat align 2 {
entry:
  %this.addr = alloca ptr, align 8
  %__head.addr = alloca ptr, align 8
  store ptr %this, ptr %this.addr, align 8
  store ptr %__head, ptr %__head.addr, align 8
  %this1 = load ptr, ptr %this.addr, align 8
  %0 = load ptr, ptr %__head.addr, align 8
  call void @_ZNSt10_Head_baseILm1EN7testing18PolymorphicMatcherINS0_8internal16HasSubstrMatcherINSt7__cxx1112basic_stringIcSt11char_traitsIcESaIcEEEEEEELb0EEC2ERKSB_(ptr noundef nonnull align 8 dereferenceable(32) %this1, ptr noundef nonnull align 8 dereferenceable(32) %0)
  ret void
}

; Function Attrs: mustprogress nounwind uwtable
define internal void @_ZNSt10_Head_baseILm0EN12_GLOBAL__N_123HasSubstrTimesMatcherP2IPciEELb0EEC2ERKS3_(ptr noundef nonnull align 8 dereferenceable(16) %this, ptr noundef nonnull align 8 dereferenceable(16) %__h) unnamed_addr #6 align 2 {
entry:
  %this.addr = alloca ptr, align 8
  %__h.addr = alloca ptr, align 8
  store ptr %this, ptr %this.addr, align 8
  store ptr %__h, ptr %__h.addr, align 8
  %this1 = load ptr, ptr %this.addr, align 8
  %_M_head_impl = getelementptr inbounds %"struct.std::_Head_base.52", ptr %this1, i32 0, i32 0
  %0 = load ptr, ptr %__h.addr, align 8
  call void @llvm.memcpy.p0.p0.i64(ptr align 8 %_M_head_impl, ptr align 8 %0, i64 16, i1 false)
  ret void
}

; Function Attrs: mustprogress nounwind uwtable
define linkonce_odr dso_local void @_ZNSt11_Tuple_implILm1EJN7testing18PolymorphicMatcherINS0_8internal16HasSubstrMatcherINSt7__cxx1112basic_stringIcSt11char_traitsIcESaIcEEEEEEEEED2Ev(ptr noundef nonnull align 8 dereferenceable(32) %this) unnamed_addr #6 comdat align 2 {
entry:
  %this.addr = alloca ptr, align 8
  store ptr %this, ptr %this.addr, align 8
  %this1 = load ptr, ptr %this.addr, align 8
  call void @_ZNSt10_Head_baseILm1EN7testing18PolymorphicMatcherINS0_8internal16HasSubstrMatcherINSt7__cxx1112basic_stringIcSt11char_traitsIcESaIcEEEEEEELb0EED2Ev(ptr noundef nonnull align 8 dereferenceable(32) %this1) #3
  ret void
}

; Function Attrs: mustprogress uwtable
define linkonce_odr dso_local void @_ZNSt10_Head_baseILm1EN7testing18PolymorphicMatcherINS0_8internal16HasSubstrMatcherINSt7__cxx1112basic_stringIcSt11char_traitsIcESaIcEEEEEEELb0EEC2ERKSB_(ptr noundef nonnull align 8 dereferenceable(32) %this, ptr noundef nonnull align 8 dereferenceable(32) %__h) unnamed_addr #4 comdat align 2 {
entry:
  %this.addr = alloca ptr, align 8
  %__h.addr = alloca ptr, align 8
  store ptr %this, ptr %this.addr, align 8
  store ptr %__h, ptr %__h.addr, align 8
  %this1 = load ptr, ptr %this.addr, align 8
  %_M_head_impl = getelementptr inbounds %"struct.std::_Head_base.50", ptr %this1, i32 0, i32 0
  %0 = load ptr, ptr %__h.addr, align 8
  call void @_ZN7testing18PolymorphicMatcherINS_8internal16HasSubstrMatcherINSt7__cxx1112basic_stringIcSt11char_traitsIcESaIcEEEEEEC2ERKSA_(ptr noundef nonnull align 8 dereferenceable(32) %_M_head_impl, ptr noundef nonnull align 8 dereferenceable(32) %0)
  ret void
}

; Function Attrs: mustprogress uwtable
define linkonce_odr dso_local void @_ZN7testing18PolymorphicMatcherINS_8internal16HasSubstrMatcherINSt7__cxx1112basic_stringIcSt11char_traitsIcESaIcEEEEEEC2ERKSA_(ptr noundef nonnull align 8 dereferenceable(32) %this, ptr noundef nonnull align 8 dereferenceable(32) %0) unnamed_addr #4 comdat align 2 {
entry:
  %this.addr = alloca ptr, align 8
  %.addr = alloca ptr, align 8
  store ptr %this, ptr %this.addr, align 8
  store ptr %0, ptr %.addr, align 8
  %this1 = load ptr, ptr %this.addr, align 8
  %impl_ = getelementptr inbounds %"class.testing::PolymorphicMatcher.51", ptr %this1, i32 0, i32 0
  %1 = load ptr, ptr %.addr, align 8
  %impl_2 = getelementptr inbounds %"class.testing::PolymorphicMatcher.51", ptr %1, i32 0, i32 0
  call void @_ZN7testing8internal16HasSubstrMatcherINSt7__cxx1112basic_stringIcSt11char_traitsIcESaIcEEEEC2ERKS8_(ptr noundef nonnull align 8 dereferenceable(32) %impl_, ptr noundef nonnull align 8 dereferenceable(32) %impl_2)
  ret void
}

; Function Attrs: mustprogress uwtable
define linkonce_odr dso_local void @_ZN7testing8internal16HasSubstrMatcherINSt7__cxx1112basic_stringIcSt11char_traitsIcESaIcEEEEC2ERKS8_(ptr noundef nonnull align 8 dereferenceable(32) %this, ptr noundef nonnull align 8 dereferenceable(32) %0) unnamed_addr #4 comdat align 2 {
entry:
  %this.addr = alloca ptr, align 8
  %.addr = alloca ptr, align 8
  store ptr %this, ptr %this.addr, align 8
  store ptr %0, ptr %.addr, align 8
  %this1 = load ptr, ptr %this.addr, align 8
  %substring_ = getelementptr inbounds %"class.testing::internal::HasSubstrMatcher", ptr %this1, i32 0, i32 0
  %1 = load ptr, ptr %.addr, align 8
  %substring_2 = getelementptr inbounds %"class.testing::internal::HasSubstrMatcher", ptr %1, i32 0, i32 0
  call void @_ZNSt7__cxx1112basic_stringIcSt11char_traitsIcESaIcEEC1ERKS4_(ptr noundef nonnull align 8 dereferenceable(32) %substring_, ptr noundef nonnull align 8 dereferenceable(32) %substring_2)
  ret void
}

; Function Attrs: mustprogress nounwind uwtable
define linkonce_odr dso_local void @_ZNSt10_Head_baseILm1EN7testing18PolymorphicMatcherINS0_8internal16HasSubstrMatcherINSt7__cxx1112basic_stringIcSt11char_traitsIcESaIcEEEEEEELb0EED2Ev(ptr noundef nonnull align 8 dereferenceable(32) %this) unnamed_addr #6 comdat align 2 {
entry:
  %this.addr = alloca ptr, align 8
  store ptr %this, ptr %this.addr, align 8
  %this1 = load ptr, ptr %this.addr, align 8
  %_M_head_impl = getelementptr inbounds %"struct.std::_Head_base.50", ptr %this1, i32 0, i32 0
  call void @_ZN7testing18PolymorphicMatcherINS_8internal16HasSubstrMatcherINSt7__cxx1112basic_stringIcSt11char_traitsIcESaIcEEEEEED2Ev(ptr noundef nonnull align 8 dereferenceable(32) %_M_head_impl) #3
  ret void
}

; Function Attrs: mustprogress uwtable
define internal void @_ZN12_GLOBAL__N_123HasSubstrTimesMatcherP2IPciECI2N7testing8internal15MatcherBaseImplIS2_EEISt9enable_ifILb1EvEvEES1_i(ptr noundef nonnull align 8 dereferenceable(16) %this, ptr noundef %0, i32 noundef %1) unnamed_addr #4 align 2 {
entry:
  %this.addr = alloca ptr, align 8
  %.addr = alloca ptr, align 8
  %.addr1 = alloca i32, align 4
  store ptr %this, ptr %this.addr, align 8
  store ptr %0, ptr %.addr, align 8
  store i32 %1, ptr %.addr1, align 4
  %this2 = load ptr, ptr %this.addr, align 8
  %2 = load ptr, ptr %.addr, align 8
  %3 = load i32, ptr %.addr1, align 4
  call void @_ZN7testing8internal15MatcherBaseImplIN12_GLOBAL__N_123HasSubstrTimesMatcherP2IPciEEEC2ISt9enable_ifILb1EvEvEES4_i(ptr noundef nonnull align 8 dereferenceable(16) %this2, ptr noundef %2, i32 noundef %3)
  ret void
}

; Function Attrs: mustprogress nounwind uwtable
define internal void @_ZN7testing8internal15MatcherBaseImplIN12_GLOBAL__N_123HasSubstrTimesMatcherP2IPciEEEC2ISt9enable_ifILb1EvEvEES4_i(ptr noundef nonnull align 8 dereferenceable(16) %this, ptr noundef %params, i32 noundef %params1) unnamed_addr #6 align 2 {
entry:
  %this.addr = alloca ptr, align 8
  %params.addr = alloca ptr, align 8
  %params.addr2 = alloca i32, align 4
  store ptr %this, ptr %this.addr, align 8
  store ptr %params, ptr %params.addr, align 8
  store i32 %params1, ptr %params.addr2, align 4
  %this3 = load ptr, ptr %this.addr, align 8
  %params_ = getelementptr inbounds %"class.testing::internal::MatcherBaseImpl", ptr %this3, i32 0, i32 0
  call void @_ZNSt5tupleIJPciEEC2IS0_iTnNSt9enable_ifIXclsr4_TCCIXntcl14__is_alloc_argIT_EEEEE29__is_implicitly_constructibleIS4_T0_EEEbE4typeELb1EEEOS4_OS5_(ptr noundef nonnull align 8 dereferenceable(16) %params_, ptr noundef nonnull align 8 dereferenceable(8) %params.addr, ptr noundef nonnull align 4 dereferenceable(4) %params.addr2) #3
  ret void
}

; Function Attrs: mustprogress nounwind uwtable
define linkonce_odr dso_local void @_ZNSt5tupleIJPciEEC2IS0_iTnNSt9enable_ifIXclsr4_TCCIXntcl14__is_alloc_argIT_EEEEE29__is_implicitly_constructibleIS4_T0_EEEbE4typeELb1EEEOS4_OS5_(ptr noundef nonnull align 8 dereferenceable(16) %this, ptr noundef nonnull align 8 dereferenceable(8) %__a1, ptr noundef nonnull align 4 dereferenceable(4) %__a2) unnamed_addr #6 comdat align 2 personality ptr @__gxx_personality_v0 {
entry:
  %this.addr = alloca ptr, align 8
  %__a1.addr = alloca ptr, align 8
  %__a2.addr = alloca ptr, align 8
  store ptr %this, ptr %this.addr, align 8
  store ptr %__a1, ptr %__a1.addr, align 8
  store ptr %__a2, ptr %__a2.addr, align 8
  %this1 = load ptr, ptr %this.addr, align 8
  %0 = load ptr, ptr %__a1.addr, align 8
  %1 = load ptr, ptr %__a2.addr, align 8
  invoke void @_ZNSt11_Tuple_implILm0EJPciEEC2IS0_JiEvEEOT_DpOT0_(ptr noundef nonnull align 8 dereferenceable(16) %this1, ptr noundef nonnull align 8 dereferenceable(8) %0, ptr noundef nonnull align 4 dereferenceable(4) %1)
          to label %invoke.cont unwind label %terminate.lpad

invoke.cont:                                      ; preds = %entry
  ret void

terminate.lpad:                                   ; preds = %entry
  %2 = landingpad { ptr, i32 }
          catch ptr null
  %3 = extractvalue { ptr, i32 } %2, 0
  call void @__clang_call_terminate(ptr %3) #20
  unreachable
}

; Function Attrs: mustprogress uwtable
define linkonce_odr dso_local void @_ZNSt11_Tuple_implILm0EJPciEEC2IS0_JiEvEEOT_DpOT0_(ptr noundef nonnull align 8 dereferenceable(16) %this, ptr noundef nonnull align 8 dereferenceable(8) %__head, ptr noundef nonnull align 4 dereferenceable(4) %__tail) unnamed_addr #4 comdat align 2 {
entry:
  %this.addr = alloca ptr, align 8
  %__head.addr = alloca ptr, align 8
  %__tail.addr = alloca ptr, align 8
  store ptr %this, ptr %this.addr, align 8
  store ptr %__head, ptr %__head.addr, align 8
  store ptr %__tail, ptr %__tail.addr, align 8
  %this1 = load ptr, ptr %this.addr, align 8
  %0 = load ptr, ptr %__tail.addr, align 8
  call void @_ZNSt11_Tuple_implILm1EJiEEC2IiEEOT_(ptr noundef nonnull align 4 dereferenceable(4) %this1, ptr noundef nonnull align 4 dereferenceable(4) %0)
  %1 = getelementptr inbounds i8, ptr %this1, i64 8
  %2 = load ptr, ptr %__head.addr, align 8
  call void @_ZNSt10_Head_baseILm0EPcLb0EEC2IS0_EEOT_(ptr noundef nonnull align 8 dereferenceable(8) %1, ptr noundef nonnull align 8 dereferenceable(8) %2)
  ret void
}

; Function Attrs: mustprogress uwtable
define linkonce_odr dso_local void @_ZNSt11_Tuple_implILm1EJiEEC2IiEEOT_(ptr noundef nonnull align 4 dereferenceable(4) %this, ptr noundef nonnull align 4 dereferenceable(4) %__head) unnamed_addr #4 comdat align 2 {
entry:
  %this.addr = alloca ptr, align 8
  %__head.addr = alloca ptr, align 8
  store ptr %this, ptr %this.addr, align 8
  store ptr %__head, ptr %__head.addr, align 8
  %this1 = load ptr, ptr %this.addr, align 8
  %0 = load ptr, ptr %__head.addr, align 8
  call void @_ZNSt10_Head_baseILm1EiLb0EEC2IiEEOT_(ptr noundef nonnull align 4 dereferenceable(4) %this1, ptr noundef nonnull align 4 dereferenceable(4) %0)
  ret void
}

; Function Attrs: mustprogress nounwind uwtable
define linkonce_odr dso_local void @_ZNSt10_Head_baseILm0EPcLb0EEC2IS0_EEOT_(ptr noundef nonnull align 8 dereferenceable(8) %this, ptr noundef nonnull align 8 dereferenceable(8) %__h) unnamed_addr #6 comdat align 2 {
entry:
  %this.addr = alloca ptr, align 8
  %__h.addr = alloca ptr, align 8
  store ptr %this, ptr %this.addr, align 8
  store ptr %__h, ptr %__h.addr, align 8
  %this1 = load ptr, ptr %this.addr, align 8
  %_M_head_impl = getelementptr inbounds %"struct.std::_Head_base.57", ptr %this1, i32 0, i32 0
  %0 = load ptr, ptr %__h.addr, align 8
  %1 = load ptr, ptr %0, align 8
  store ptr %1, ptr %_M_head_impl, align 8
  ret void
}

; Function Attrs: mustprogress nounwind uwtable
define linkonce_odr dso_local void @_ZNSt10_Head_baseILm1EiLb0EEC2IiEEOT_(ptr noundef nonnull align 4 dereferenceable(4) %this, ptr noundef nonnull align 4 dereferenceable(4) %__h) unnamed_addr #6 comdat align 2 {
entry:
  %this.addr = alloca ptr, align 8
  %__h.addr = alloca ptr, align 8
  store ptr %this, ptr %this.addr, align 8
  store ptr %__h, ptr %__h.addr, align 8
  %this1 = load ptr, ptr %this.addr, align 8
  %_M_head_impl = getelementptr inbounds %"struct.std::_Head_base.56", ptr %this1, i32 0, i32 0
  %0 = load ptr, ptr %__h.addr, align 8
  %1 = load i32, ptr %0, align 4
  store i32 %1, ptr %_M_head_impl, align 4
  ret void
}

; Function Attrs: mustprogress uwtable
define linkonce_odr dso_local void @_ZN7testing22MakePolymorphicMatcherINS_8internal16HasSubstrMatcherINSt7__cxx1112basic_stringIcSt11char_traitsIcESaIcEEEEEEENS_18PolymorphicMatcherIT_EERKSB_(ptr noalias sret(%"class.testing::PolymorphicMatcher.51") align 8 %agg.result, ptr noundef nonnull align 8 dereferenceable(32) %impl) #4 comdat {
entry:
  %result.ptr = alloca ptr, align 8
  %impl.addr = alloca ptr, align 8
  store ptr %agg.result, ptr %result.ptr, align 8
  store ptr %impl, ptr %impl.addr, align 8
  %0 = load ptr, ptr %impl.addr, align 8
  call void @_ZN7testing18PolymorphicMatcherINS_8internal16HasSubstrMatcherINSt7__cxx1112basic_stringIcSt11char_traitsIcESaIcEEEEEEC2ERKS9_(ptr noundef nonnull align 8 dereferenceable(32) %agg.result, ptr noundef nonnull align 8 dereferenceable(32) %0)
  ret void
}

; Function Attrs: mustprogress uwtable
define linkonce_odr dso_local void @_ZN7testing8internal16HasSubstrMatcherINSt7__cxx1112basic_stringIcSt11char_traitsIcESaIcEEEEC2ERKS7_(ptr noundef nonnull align 8 dereferenceable(32) %this, ptr noundef nonnull align 8 dereferenceable(32) %substring) unnamed_addr #4 comdat align 2 {
entry:
  %this.addr = alloca ptr, align 8
  %substring.addr = alloca ptr, align 8
  store ptr %this, ptr %this.addr, align 8
  store ptr %substring, ptr %substring.addr, align 8
  %this1 = load ptr, ptr %this.addr, align 8
  %substring_ = getelementptr inbounds %"class.testing::internal::HasSubstrMatcher", ptr %this1, i32 0, i32 0
  %0 = load ptr, ptr %substring.addr, align 8
  call void @_ZNSt7__cxx1112basic_stringIcSt11char_traitsIcESaIcEEC1ERKS4_(ptr noundef nonnull align 8 dereferenceable(32) %substring_, ptr noundef nonnull align 8 dereferenceable(32) %0)
  ret void
}

; Function Attrs: mustprogress nounwind uwtable
define linkonce_odr dso_local void @_ZN7testing8internal16HasSubstrMatcherINSt7__cxx1112basic_stringIcSt11char_traitsIcESaIcEEEED2Ev(ptr noundef nonnull align 8 dereferenceable(32) %this) unnamed_addr #6 comdat align 2 {
entry:
  %this.addr = alloca ptr, align 8
  store ptr %this, ptr %this.addr, align 8
  %this1 = load ptr, ptr %this.addr, align 8
  %substring_ = getelementptr inbounds %"class.testing::internal::HasSubstrMatcher", ptr %this1, i32 0, i32 0
  call void @_ZNSt7__cxx1112basic_stringIcSt11char_traitsIcESaIcEED1Ev(ptr noundef nonnull align 8 dereferenceable(32) %substring_) #3
  ret void
}

; Function Attrs: mustprogress uwtable
define linkonce_odr dso_local void @_ZN7testing18PolymorphicMatcherINS_8internal16HasSubstrMatcherINSt7__cxx1112basic_stringIcSt11char_traitsIcESaIcEEEEEEC2ERKS9_(ptr noundef nonnull align 8 dereferenceable(32) %this, ptr noundef nonnull align 8 dereferenceable(32) %an_impl) unnamed_addr #4 comdat align 2 {
entry:
  %this.addr = alloca ptr, align 8
  %an_impl.addr = alloca ptr, align 8
  store ptr %this, ptr %this.addr, align 8
  store ptr %an_impl, ptr %an_impl.addr, align 8
  %this1 = load ptr, ptr %this.addr, align 8
  %impl_ = getelementptr inbounds %"class.testing::PolymorphicMatcher.51", ptr %this1, i32 0, i32 0
  %0 = load ptr, ptr %an_impl.addr, align 8
  call void @_ZN7testing8internal16HasSubstrMatcherINSt7__cxx1112basic_stringIcSt11char_traitsIcESaIcEEEEC2ERKS8_(ptr noundef nonnull align 8 dereferenceable(32) %impl_, ptr noundef nonnull align 8 dereferenceable(32) %0)
  ret void
}

; Function Attrs: mustprogress nounwind uwtable
define linkonce_odr dso_local void @_ZNSt6vectorIN7testing7MatcherIRKNSt7__cxx1112basic_stringIcSt11char_traitsIcESaIcEEEEESaISA_EEC2Ev(ptr noundef nonnull align 8 dereferenceable(24) %this) unnamed_addr #6 comdat align 2 {
entry:
  %this.addr = alloca ptr, align 8
  store ptr %this, ptr %this.addr, align 8
  %this1 = load ptr, ptr %this.addr, align 8
  call void @_ZNSt12_Vector_baseIN7testing7MatcherIRKNSt7__cxx1112basic_stringIcSt11char_traitsIcESaIcEEEEESaISA_EEC2Ev(ptr noundef nonnull align 8 dereferenceable(24) %this1) #3
  ret void
}

; Function Attrs: mustprogress uwtable
define internal void @_ZNK7testing8internal15VariadicMatcherINS0_16AllOfMatcherImplEJN12_GLOBAL__N_123HasSubstrTimesMatcherP2IPciEENS_18PolymorphicMatcherINS0_16HasSubstrMatcherINSt7__cxx1112basic_stringIcSt11char_traitsIcESaIcEEEEEEEEE21CreateVariadicMatcherIRKSE_Lm0EEEvPSt6vectorINS_7MatcherIT_EESaISO_EESt17integral_constantImXT0_EE(ptr noundef nonnull align 8 dereferenceable(48) %this, ptr noundef %values) #4 align 2 personality ptr @__gxx_personality_v0 {
entry:
  %this.addr = alloca ptr, align 8
  %values.addr = alloca ptr, align 8
  %ref.tmp = alloca %"class.testing::Matcher", align 8
  %exn.slot = alloca ptr, align 8
  %ehselector.slot = alloca i32, align 4
  store ptr %this, ptr %this.addr, align 8
  store ptr %values, ptr %values.addr, align 8
  %this1 = load ptr, ptr %this.addr, align 8
  %0 = load ptr, ptr %values.addr, align 8
  %matchers_ = getelementptr inbounds %"class.testing::internal::VariadicMatcher", ptr %this1, i32 0, i32 0
  %call = call noundef nonnull align 8 dereferenceable(16) ptr @_ZSt3getILm0EJN12_GLOBAL__N_123HasSubstrTimesMatcherP2IPciEEN7testing18PolymorphicMatcherINS4_8internal16HasSubstrMatcherINSt7__cxx1112basic_stringIcSt11char_traitsIcESaIcEEEEEEEEERKNSt13tuple_elementIXT_ESt5tupleIJDpT0_EEE4typeERKSK_(ptr noundef nonnull align 8 dereferenceable(48) %matchers_) #3
  call void @_ZN7testing15SafeMatcherCastIRKNSt7__cxx1112basic_stringIcSt11char_traitsIcESaIcEEEN12_GLOBAL__N_123HasSubstrTimesMatcherP2IPciEEEENS_7MatcherIT_EERKT0_(ptr sret(%"class.testing::Matcher") align 8 %ref.tmp, ptr noundef nonnull align 8 dereferenceable(16) %call)
  invoke void @_ZNSt6vectorIN7testing7MatcherIRKNSt7__cxx1112basic_stringIcSt11char_traitsIcESaIcEEEEESaISA_EE9push_backEOSA_(ptr noundef nonnull align 8 dereferenceable(24) %0, ptr noundef nonnull align 8 dereferenceable(24) %ref.tmp)
          to label %invoke.cont unwind label %lpad

invoke.cont:                                      ; preds = %entry
  call void @_ZN7testing7MatcherIRKNSt7__cxx1112basic_stringIcSt11char_traitsIcESaIcEEEED2Ev(ptr noundef nonnull align 8 dereferenceable(24) %ref.tmp) #3
  %1 = load ptr, ptr %values.addr, align 8
  call void @_ZNK7testing8internal15VariadicMatcherINS0_16AllOfMatcherImplEJN12_GLOBAL__N_123HasSubstrTimesMatcherP2IPciEENS_18PolymorphicMatcherINS0_16HasSubstrMatcherINSt7__cxx1112basic_stringIcSt11char_traitsIcESaIcEEEEEEEEE21CreateVariadicMatcherIRKSE_Lm1EEEvPSt6vectorINS_7MatcherIT_EESaISO_EESt17integral_constantImXT0_EE(ptr noundef nonnull align 8 dereferenceable(48) %this1, ptr noundef %1)
  ret void

lpad:                                             ; preds = %entry
  %2 = landingpad { ptr, i32 }
          cleanup
  %3 = extractvalue { ptr, i32 } %2, 0
  store ptr %3, ptr %exn.slot, align 8
  %4 = extractvalue { ptr, i32 } %2, 1
  store i32 %4, ptr %ehselector.slot, align 4
  call void @_ZN7testing7MatcherIRKNSt7__cxx1112basic_stringIcSt11char_traitsIcESaIcEEEED2Ev(ptr noundef nonnull align 8 dereferenceable(24) %ref.tmp) #3
  br label %eh.resume

eh.resume:                                        ; preds = %lpad
  %exn = load ptr, ptr %exn.slot, align 8
  %sel = load i32, ptr %ehselector.slot, align 4
  %lpad.val = insertvalue { ptr, i32 } poison, ptr %exn, 0
  %lpad.val2 = insertvalue { ptr, i32 } %lpad.val, i32 %sel, 1
  resume { ptr, i32 } %lpad.val2
}

; Function Attrs: mustprogress nounwind uwtable
define linkonce_odr dso_local void @_ZNSt6vectorIN7testing7MatcherIRKNSt7__cxx1112basic_stringIcSt11char_traitsIcESaIcEEEEESaISA_EEC2EOSC_(ptr noundef nonnull align 8 dereferenceable(24) %this, ptr noundef nonnull align 8 dereferenceable(24) %0) unnamed_addr #6 comdat align 2 {
entry:
  %this.addr = alloca ptr, align 8
  %.addr = alloca ptr, align 8
  store ptr %this, ptr %this.addr, align 8
  store ptr %0, ptr %.addr, align 8
  %this1 = load ptr, ptr %this.addr, align 8
  %1 = load ptr, ptr %.addr, align 8
  call void @_ZNSt12_Vector_baseIN7testing7MatcherIRKNSt7__cxx1112basic_stringIcSt11char_traitsIcESaIcEEEEESaISA_EEC2EOSC_(ptr noundef nonnull align 8 dereferenceable(24) %this1, ptr noundef nonnull align 8 dereferenceable(24) %1) #3
  ret void
}

; Function Attrs: mustprogress nounwind uwtable
define linkonce_odr dso_local void @_ZN7testing8internal16AllOfMatcherImplIRKNSt7__cxx1112basic_stringIcSt11char_traitsIcESaIcEEEEC2ESt6vectorINS_7MatcherIS9_EESaISD_EE(ptr noundef nonnull align 8 dereferenceable(32) %this, ptr noundef %matchers) unnamed_addr #6 comdat align 2 {
entry:
  %this.addr = alloca ptr, align 8
  %matchers.indirect_addr = alloca ptr, align 8
  store ptr %this, ptr %this.addr, align 8
  store ptr %matchers, ptr %matchers.indirect_addr, align 8
  %this1 = load ptr, ptr %this.addr, align 8
  call void @_ZN7testing16MatcherInterfaceIRKNSt7__cxx1112basic_stringIcSt11char_traitsIcESaIcEEEEC2Ev(ptr noundef nonnull align 8 dereferenceable(8) %this1) #3
  store ptr getelementptr inbounds ({ [7 x ptr] }, ptr @_ZTVN7testing8internal16AllOfMatcherImplIRKNSt7__cxx1112basic_stringIcSt11char_traitsIcESaIcEEEEE, i32 0, inrange i32 0, i32 2), ptr %this1, align 8
  %matchers_ = getelementptr inbounds %"class.testing::internal::AllOfMatcherImpl", ptr %this1, i32 0, i32 1
  call void @_ZNSt6vectorIN7testing7MatcherIRKNSt7__cxx1112basic_stringIcSt11char_traitsIcESaIcEEEEESaISA_EEC2EOSC_(ptr noundef nonnull align 8 dereferenceable(24) %matchers_, ptr noundef nonnull align 8 dereferenceable(24) %matchers) #3
  ret void
}

; Function Attrs: mustprogress nounwind uwtable
define linkonce_odr dso_local void @_ZNSt6vectorIN7testing7MatcherIRKNSt7__cxx1112basic_stringIcSt11char_traitsIcESaIcEEEEESaISA_EED2Ev(ptr noundef nonnull align 8 dereferenceable(24) %this) unnamed_addr #6 comdat align 2 personality ptr @__gxx_personality_v0 {
entry:
  %this.addr = alloca ptr, align 8
  store ptr %this, ptr %this.addr, align 8
  %this1 = load ptr, ptr %this.addr, align 8
  %_M_impl = getelementptr inbounds %"struct.std::_Vector_base", ptr %this1, i32 0, i32 0
  %_M_start = getelementptr inbounds %"struct.std::_Vector_base<testing::Matcher<const std::string &>, std::allocator<testing::Matcher<const std::string &>>>::_Vector_impl_data", ptr %_M_impl, i32 0, i32 0
  %0 = load ptr, ptr %_M_start, align 8
  %_M_impl2 = getelementptr inbounds %"struct.std::_Vector_base", ptr %this1, i32 0, i32 0
  %_M_finish = getelementptr inbounds %"struct.std::_Vector_base<testing::Matcher<const std::string &>, std::allocator<testing::Matcher<const std::string &>>>::_Vector_impl_data", ptr %_M_impl2, i32 0, i32 1
  %1 = load ptr, ptr %_M_finish, align 8
  %call = call noundef nonnull align 1 dereferenceable(1) ptr @_ZNSt12_Vector_baseIN7testing7MatcherIRKNSt7__cxx1112basic_stringIcSt11char_traitsIcESaIcEEEEESaISA_EE19_M_get_Tp_allocatorEv(ptr noundef nonnull align 8 dereferenceable(24) %this1) #3
  invoke void @_ZSt8_DestroyIPN7testing7MatcherIRKNSt7__cxx1112basic_stringIcSt11char_traitsIcESaIcEEEEESA_EvT_SC_RSaIT0_E(ptr noundef %0, ptr noundef %1, ptr noundef nonnull align 1 dereferenceable(1) %call)
          to label %invoke.cont unwind label %terminate.lpad

invoke.cont:                                      ; preds = %entry
  call void @_ZNSt12_Vector_baseIN7testing7MatcherIRKNSt7__cxx1112basic_stringIcSt11char_traitsIcESaIcEEEEESaISA_EED2Ev(ptr noundef nonnull align 8 dereferenceable(24) %this1) #3
  ret void

terminate.lpad:                                   ; preds = %entry
  %2 = landingpad { ptr, i32 }
          catch ptr null
  %3 = extractvalue { ptr, i32 } %2, 0
  call void @__clang_call_terminate(ptr %3) #20
  unreachable
}

; Function Attrs: mustprogress nounwind uwtable
define linkonce_odr dso_local void @_ZNSt12_Vector_baseIN7testing7MatcherIRKNSt7__cxx1112basic_stringIcSt11char_traitsIcESaIcEEEEESaISA_EEC2Ev(ptr noundef nonnull align 8 dereferenceable(24) %this) unnamed_addr #6 comdat align 2 {
entry:
  %this.addr = alloca ptr, align 8
  store ptr %this, ptr %this.addr, align 8
  %this1 = load ptr, ptr %this.addr, align 8
  %_M_impl = getelementptr inbounds %"struct.std::_Vector_base", ptr %this1, i32 0, i32 0
  call void @_ZNSt12_Vector_baseIN7testing7MatcherIRKNSt7__cxx1112basic_stringIcSt11char_traitsIcESaIcEEEEESaISA_EE12_Vector_implC2Ev(ptr noundef nonnull align 8 dereferenceable(24) %_M_impl) #3
  ret void
}

; Function Attrs: mustprogress nounwind uwtable
define linkonce_odr dso_local void @_ZNSt12_Vector_baseIN7testing7MatcherIRKNSt7__cxx1112basic_stringIcSt11char_traitsIcESaIcEEEEESaISA_EE12_Vector_implC2Ev(ptr noundef nonnull align 8 dereferenceable(24) %this) unnamed_addr #6 comdat align 2 {
entry:
  %this.addr = alloca ptr, align 8
  store ptr %this, ptr %this.addr, align 8
  %this1 = load ptr, ptr %this.addr, align 8
  call void @_ZNSaIN7testing7MatcherIRKNSt7__cxx1112basic_stringIcSt11char_traitsIcESaIcEEEEEEC2Ev(ptr noundef nonnull align 1 dereferenceable(1) %this1) #3
  call void @_ZNSt12_Vector_baseIN7testing7MatcherIRKNSt7__cxx1112basic_stringIcSt11char_traitsIcESaIcEEEEESaISA_EE17_Vector_impl_dataC2Ev(ptr noundef nonnull align 8 dereferenceable(24) %this1) #3
  ret void
}

; Function Attrs: mustprogress nounwind uwtable
define linkonce_odr dso_local void @_ZNSaIN7testing7MatcherIRKNSt7__cxx1112basic_stringIcSt11char_traitsIcESaIcEEEEEEC2Ev(ptr noundef nonnull align 1 dereferenceable(1) %this) unnamed_addr #6 comdat align 2 {
entry:
  %this.addr = alloca ptr, align 8
  store ptr %this, ptr %this.addr, align 8
  %this1 = load ptr, ptr %this.addr, align 8
  call void @_ZNSt15__new_allocatorIN7testing7MatcherIRKNSt7__cxx1112basic_stringIcSt11char_traitsIcESaIcEEEEEEC2Ev(ptr noundef nonnull align 1 dereferenceable(1) %this1) #3
  ret void
}

; Function Attrs: mustprogress nounwind uwtable
define linkonce_odr dso_local void @_ZNSt12_Vector_baseIN7testing7MatcherIRKNSt7__cxx1112basic_stringIcSt11char_traitsIcESaIcEEEEESaISA_EE17_Vector_impl_dataC2Ev(ptr noundef nonnull align 8 dereferenceable(24) %this) unnamed_addr #6 comdat align 2 {
entry:
  %this.addr = alloca ptr, align 8
  store ptr %this, ptr %this.addr, align 8
  %this1 = load ptr, ptr %this.addr, align 8
  %_M_start = getelementptr inbounds %"struct.std::_Vector_base<testing::Matcher<const std::string &>, std::allocator<testing::Matcher<const std::string &>>>::_Vector_impl_data", ptr %this1, i32 0, i32 0
  store ptr null, ptr %_M_start, align 8
  %_M_finish = getelementptr inbounds %"struct.std::_Vector_base<testing::Matcher<const std::string &>, std::allocator<testing::Matcher<const std::string &>>>::_Vector_impl_data", ptr %this1, i32 0, i32 1
  store ptr null, ptr %_M_finish, align 8
  %_M_end_of_storage = getelementptr inbounds %"struct.std::_Vector_base<testing::Matcher<const std::string &>, std::allocator<testing::Matcher<const std::string &>>>::_Vector_impl_data", ptr %this1, i32 0, i32 2
  store ptr null, ptr %_M_end_of_storage, align 8
  ret void
}

; Function Attrs: mustprogress nounwind uwtable
define linkonce_odr dso_local void @_ZNSt15__new_allocatorIN7testing7MatcherIRKNSt7__cxx1112basic_stringIcSt11char_traitsIcESaIcEEEEEEC2Ev(ptr noundef nonnull align 1 dereferenceable(1) %this) unnamed_addr #6 comdat align 2 {
entry:
  %this.addr = alloca ptr, align 8
  store ptr %this, ptr %this.addr, align 8
  ret void
}

; Function Attrs: mustprogress uwtable
define linkonce_odr dso_local void @_ZNSt6vectorIN7testing7MatcherIRKNSt7__cxx1112basic_stringIcSt11char_traitsIcESaIcEEEEESaISA_EE9push_backEOSA_(ptr noundef nonnull align 8 dereferenceable(24) %this, ptr noundef nonnull align 8 dereferenceable(24) %__x) #4 comdat align 2 {
entry:
  %this.addr = alloca ptr, align 8
  %__x.addr = alloca ptr, align 8
  store ptr %this, ptr %this.addr, align 8
