; ModuleID = 'bench/cvc5/original/conversions_solver.cpp.ll'
source_filename = "bench/cvc5/original/conversions_solver.cpp.ll"
target datalayout = "e-m:e-p270:32:32-p271:32:32-p272:64:64-i64:64-i128:128-f80:128-n8:16:32:64-S128"
target triple = "x86_64-unknown-linux-gnu"

%"class.std::ios_base::Init" = type { i8 }
%"class.cvc5::internal::NodeTemplate.294" = type { ptr }
%"class.cvc5::internal::NodeTemplate" = type { ptr }
%"class.cvc5::internal::NodeBuilder" = type <{ %"class.cvc5::internal::expr::NodeValue", [10 x ptr], ptr, ptr, i32, [4 x i8] }>
%"class.cvc5::internal::expr::NodeValue" = type { i64, i16, i32, [0 x ptr] }
%"struct.std::_Deque_iterator" = type { ptr, ptr, ptr, ptr }
%"class.cvc5::internal::FatalStream" = type { i8 }
%"struct.std::pair.496" = type <{ %"class.cvc5::internal::NodeTemplate.294", i8, [7 x i8] }>
%"struct.std::_Hashtable<const cvc5::internal::NodeTemplate<true>, std::pair<const cvc5::internal::NodeTemplate<true>, const bool>, std::allocator<std::pair<const cvc5::internal::NodeTemplate<true>, const bool>>, std::__detail::_Select1st, std::equal_to<const cvc5::internal::NodeTemplate<true>>, std::hash<cvc5::internal::Node>, std::__detail::_Mod_range_hashing, std::__detail::_Default_ranged_hash, std::__detail::_Prime_rehash_policy, std::__detail::_Hashtable_traits<true, false, true>>::_Scoped_node" = type { ptr, ptr }

$_ZN4cvc57context6CDListINS_8internal12NodeTemplateILb1EEENS0_14DefaultCleanUpIS4_EESaIS4_EED2Ev = comdat any

$_ZN4cvc57context9CDHashSetINS_8internal12NodeTemplateILb1EEESt4hashIS4_EED2Ev = comdat any

$_ZN4cvc58internal12NodeTemplateILb1EED2Ev = comdat any

$_ZNK4cvc58internal12NodeTemplateILb1EE6eqNodeILb1EEES2_RKNS1_IXT_EEE = comdat any

$_ZN4cvc58internal12NodeTemplateILb1EE6s_nullE = comdat any

$__clang_call_terminate = comdat any

$_ZN4cvc57context13InsertHashMapINS_8internal12NodeTemplateILb1EEEbSt4hashIS4_EED2Ev = comdat any

$_ZN4cvc57context15CDInsertHashMapINS_8internal12NodeTemplateILb1EEEbSt4hashIS4_EE4saveEPNS0_20ContextMemoryManagerE = comdat any

$_ZN4cvc57context15CDInsertHashMapINS_8internal12NodeTemplateILb1EEEbSt4hashIS4_EE7restoreEPNS0_10ContextObjE = comdat any

$_ZN4cvc57context15CDInsertHashMapINS_8internal12NodeTemplateILb1EEEbSt4hashIS4_EED2Ev = comdat any

$_ZN4cvc57context15CDInsertHashMapINS_8internal12NodeTemplateILb1EEEbSt4hashIS4_EED0Ev = comdat any

$_ZNSt5dequeIN4cvc58internal12NodeTemplateILb1EEESaIS3_EED2Ev = comdat any

$_ZNSt5dequeIN4cvc58internal12NodeTemplateILb1EEESaIS3_EE19_M_destroy_data_auxESt15_Deque_iteratorIS3_RS3_PS3_ES9_ = comdat any

$_ZSt8_DestroyIPN4cvc58internal12NodeTemplateILb1EEES3_EvT_S5_RSaIT0_E = comdat any

$_ZSt8_DestroyIPN4cvc58internal12NodeTemplateILb1EEEEvT_S5_ = comdat any

$_ZN4cvc57context10ContextObjD2Ev = comdat any

$_ZN4cvc57context10ContextObjD0Ev = comdat any

$_ZNSt5dequeIN4cvc58internal12NodeTemplateILb1EEESaIS3_EE8pop_backEv = comdat any

$_ZNSt10_HashtableIKN4cvc58internal12NodeTemplateILb1EEESt4pairIS4_KbESaIS7_ENSt8__detail10_Select1stESt8equal_toIS4_ESt4hashIS3_ENS9_18_Mod_range_hashingENS9_20_Default_ranged_hashENS9_20_Prime_rehash_policyENS9_17_Hashtable_traitsILb1ELb0ELb1EEEE8_M_eraseESt17integral_constantIbLb1EERS4_ = comdat any

$_ZNSt10_HashtableIKN4cvc58internal12NodeTemplateILb1EEESt4pairIS4_KbESaIS7_ENSt8__detail10_Select1stESt8equal_toIS4_ESt4hashIS3_ENS9_18_Mod_range_hashingENS9_20_Default_ranged_hashENS9_20_Prime_rehash_policyENS9_17_Hashtable_traitsILb1ELb0ELb1EEEE8_M_eraseEmPNS9_15_Hash_node_baseEPNS9_10_Hash_nodeIS7_Lb1EEE = comdat any

$_ZNSt16allocator_traitsISaIN4cvc58internal12NodeTemplateILb1EEEEE7destroyIS3_EEvRS4_PT_ = comdat any

$_ZN4cvc57context10ContextObjdlEPv = comdat any

$_ZN4cvc57context6CDListINS_8internal12NodeTemplateILb1EEENS0_14DefaultCleanUpIS4_EESaIS4_EE4saveEPNS0_20ContextMemoryManagerE = comdat any

$_ZN4cvc57context6CDListINS_8internal12NodeTemplateILb1EEENS0_14DefaultCleanUpIS4_EESaIS4_EE7restoreEPNS0_10ContextObjE = comdat any

$_ZN4cvc57context6CDListINS_8internal12NodeTemplateILb1EEENS0_14DefaultCleanUpIS4_EESaIS4_EED0Ev = comdat any

$_ZNSt6vectorIN4cvc58internal12NodeTemplateILb1EEESaIS3_EE8_M_eraseEN9__gnu_cxx17__normal_iteratorIPS3_S5_EES9_ = comdat any

$_ZN4cvc57context9CDHashSetINS_8internal12NodeTemplateILb1EEESt4hashIS4_EED0Ev = comdat any

$_ZNSt11_Deque_baseIN4cvc58internal12NodeTemplateILb1EEESaIS3_EE17_M_initialize_mapEm = comdat any

$_ZN4cvc57context9CDHashSetINS_8internal12NodeTemplateILb1EEESt4hashIS4_EEdlEPv = comdat any

$_ZNSt6vectorIN4cvc58internal12NodeTemplateILb1EEESaIS3_EE17_M_realloc_insertIJRKS3_EEEvN9__gnu_cxx17__normal_iteratorIPS3_S5_EEDpOT_ = comdat any

$_ZSt16__do_uninit_copyIPKN4cvc58internal12NodeTemplateILb1EEEPS3_ET0_T_S8_S7_ = comdat any

$_ZN4cvc57context15CDInsertHashMapINS_8internal12NodeTemplateILb1EEEbSt4hashIS4_EE11insert_safeERKS4_RKb = comdat any

$_ZN4cvc57context13InsertHashMapINS_8internal12NodeTemplateILb1EEEbSt4hashIS4_EE9push_backERKS4_RKb = comdat any

$_ZNSt4pairIN4cvc58internal12NodeTemplateILb1EEEbED2Ev = comdat any

$_ZNSt10_HashtableIKN4cvc58internal12NodeTemplateILb1EEESt4pairIS4_KbESaIS7_ENSt8__detail10_Select1stESt8equal_toIS4_ESt4hashIS3_ENS9_18_Mod_range_hashingENS9_20_Default_ranged_hashENS9_20_Prime_rehash_policyENS9_17_Hashtable_traitsILb1ELb0ELb1EEEE10_M_emplaceIJS5_IS3_bEEEES5_INS9_14_Node_iteratorIS7_Lb0ELb1EEEbESt17integral_constantIbLb1EEDpOT_ = comdat any

$_ZNSt10_HashtableIKN4cvc58internal12NodeTemplateILb1EEESt4pairIS4_KbESaIS7_ENSt8__detail10_Select1stESt8equal_toIS4_ESt4hashIS3_ENS9_18_Mod_range_hashingENS9_20_Default_ranged_hashENS9_20_Prime_rehash_policyENS9_17_Hashtable_traitsILb1ELb0ELb1EEEE21_M_insert_unique_nodeEmmPNS9_10_Hash_nodeIS7_Lb1EEEm = comdat any

$_ZNSt10_HashtableIKN4cvc58internal12NodeTemplateILb1EEESt4pairIS4_KbESaIS7_ENSt8__detail10_Select1stESt8equal_toIS4_ESt4hashIS3_ENS9_18_Mod_range_hashingENS9_20_Default_ranged_hashENS9_20_Prime_rehash_policyENS9_17_Hashtable_traitsILb1ELb0ELb1EEEE12_Scoped_nodeD2Ev = comdat any

$_ZNSt8__detail16_Hashtable_allocISaINS_10_Hash_nodeISt4pairIKN4cvc58internal12NodeTemplateILb1EEEKbELb1EEEEE16_M_allocate_nodeIJS2_IS6_bEEEEPSA_DpOT_ = comdat any

$_ZNSt10_HashtableIKN4cvc58internal12NodeTemplateILb1EEESt4pairIS4_KbESaIS7_ENSt8__detail10_Select1stESt8equal_toIS4_ESt4hashIS3_ENS9_18_Mod_range_hashingENS9_20_Default_ranged_hashENS9_20_Prime_rehash_policyENS9_17_Hashtable_traitsILb1ELb0ELb1EEEE13_M_rehash_auxEmSt17integral_constantIbLb1EE = comdat any

$_ZNSt5dequeIN4cvc58internal12NodeTemplateILb1EEESaIS3_EE16_M_push_back_auxIJRKS3_EEEvDpOT_ = comdat any

$_ZNSt5dequeIN4cvc58internal12NodeTemplateILb1EEESaIS3_EE17_M_reallocate_mapEmb = comdat any

$_ZTSN4cvc58internal6EnvObjE = comdat any

$_ZTIN4cvc58internal6EnvObjE = comdat any

$_ZTVN4cvc57context15CDInsertHashMapINS_8internal12NodeTemplateILb1EEEbSt4hashIS4_EEE = comdat any

$_ZTSN4cvc57context15CDInsertHashMapINS_8internal12NodeTemplateILb1EEEbSt4hashIS4_EEE = comdat any

$_ZTSN4cvc57context10ContextObjE = comdat any

$_ZTIN4cvc57context10ContextObjE = comdat any

$_ZTIN4cvc57context15CDInsertHashMapINS_8internal12NodeTemplateILb1EEEbSt4hashIS4_EEE = comdat any

$_ZTVN4cvc57context10ContextObjE = comdat any

$_ZZN4cvc58internal4expr9NodeValue4nullEvE6s_null = comdat any

$_ZGVZN4cvc58internal4expr9NodeValue4nullEvE6s_null = comdat any

$_ZTVN4cvc57context6CDListINS_8internal12NodeTemplateILb1EEENS0_14DefaultCleanUpIS4_EESaIS4_EEE = comdat any

$_ZTSN4cvc57context6CDListINS_8internal12NodeTemplateILb1EEENS0_14DefaultCleanUpIS4_EESaIS4_EEE = comdat any

$_ZTIN4cvc57context6CDListINS_8internal12NodeTemplateILb1EEENS0_14DefaultCleanUpIS4_EESaIS4_EEE = comdat any

$_ZTVN4cvc57context9CDHashSetINS_8internal12NodeTemplateILb1EEESt4hashIS4_EEE = comdat any

$_ZTSN4cvc57context9CDHashSetINS_8internal12NodeTemplateILb1EEESt4hashIS4_EEE = comdat any

$_ZTIN4cvc57context9CDHashSetINS_8internal12NodeTemplateILb1EEESt4hashIS4_EEE = comdat any

@_ZStL8__ioinit = internal global %"class.std::ios_base::Init" zeroinitializer, align 1
@__dso_handle = external hidden global i8
@_ZTVN4cvc58internal6theory2uf17ConversionsSolverE = hidden unnamed_addr constant { [4 x ptr] } { [4 x ptr] [ptr null, ptr @_ZTIN4cvc58internal6theory2uf17ConversionsSolverE, ptr @_ZN4cvc58internal6theory2uf17ConversionsSolverD2Ev, ptr @_ZN4cvc58internal6theory2uf17ConversionsSolverD0Ev] }, align 8
@_ZTVN10__cxxabiv121__vmi_class_type_infoE = external global [0 x ptr]
@_ZTSN4cvc58internal6theory2uf17ConversionsSolverE = hidden constant [46 x i8] c"N4cvc58internal6theory2uf17ConversionsSolverE\00", align 1
@_ZTVN10__cxxabiv117__class_type_infoE = external global [0 x ptr]
@_ZTSN4cvc58internal6EnvObjE = linkonce_odr hidden constant [24 x i8] c"N4cvc58internal6EnvObjE\00", comdat, align 1
@_ZTIN4cvc58internal6EnvObjE = linkonce_odr hidden constant { ptr, ptr } { ptr getelementptr inbounds (ptr, ptr @_ZTVN10__cxxabiv117__class_type_infoE, i64 2), ptr @_ZTSN4cvc58internal6EnvObjE }, comdat, align 8
@_ZTIN4cvc58internal6theory2uf17ConversionsSolverE = hidden constant { ptr, ptr, i32, i32, ptr, i64 } { ptr getelementptr inbounds (ptr, ptr @_ZTVN10__cxxabiv121__vmi_class_type_infoE, i64 2), ptr @_ZTSN4cvc58internal6theory2uf17ConversionsSolverE, i32 0, i32 1, ptr @_ZTIN4cvc58internal6EnvObjE, i64 0 }, align 8
@_ZN4cvc58internal12NodeTemplateILb1EE6s_nullE = linkonce_odr hidden global %"class.cvc5::internal::NodeTemplate.294" zeroinitializer, comdat, align 8
@_ZGVN4cvc58internal12NodeTemplateILb1EE6s_nullE = linkonce_odr hidden local_unnamed_addr global i64 0, comdat($_ZN4cvc58internal12NodeTemplateILb1EE6s_nullE), align 8
@_ZTVN4cvc57context15CDInsertHashMapINS_8internal12NodeTemplateILb1EEEbSt4hashIS4_EEE = linkonce_odr hidden unnamed_addr constant { [6 x ptr] } { [6 x ptr] [ptr null, ptr @_ZTIN4cvc57context15CDInsertHashMapINS_8internal12NodeTemplateILb1EEEbSt4hashIS4_EEE, ptr @_ZN4cvc57context15CDInsertHashMapINS_8internal12NodeTemplateILb1EEEbSt4hashIS4_EE4saveEPNS0_20ContextMemoryManagerE, ptr @_ZN4cvc57context15CDInsertHashMapINS_8internal12NodeTemplateILb1EEEbSt4hashIS4_EE7restoreEPNS0_10ContextObjE, ptr @_ZN4cvc57context15CDInsertHashMapINS_8internal12NodeTemplateILb1EEEbSt4hashIS4_EED2Ev, ptr @_ZN4cvc57context15CDInsertHashMapINS_8internal12NodeTemplateILb1EEEbSt4hashIS4_EED0Ev] }, comdat, align 8
@_ZTVN10__cxxabiv120__si_class_type_infoE = external global [0 x ptr]
@_ZTSN4cvc57context15CDInsertHashMapINS_8internal12NodeTemplateILb1EEEbSt4hashIS4_EEE = linkonce_odr hidden constant [81 x i8] c"N4cvc57context15CDInsertHashMapINS_8internal12NodeTemplateILb1EEEbSt4hashIS4_EEE\00", comdat, align 1
@_ZTSN4cvc57context10ContextObjE = linkonce_odr constant [28 x i8] c"N4cvc57context10ContextObjE\00", comdat, align 1
@_ZTIN4cvc57context10ContextObjE = linkonce_odr constant { ptr, ptr } { ptr getelementptr inbounds (ptr, ptr @_ZTVN10__cxxabiv117__class_type_infoE, i64 2), ptr @_ZTSN4cvc57context10ContextObjE }, comdat, align 8
@_ZTIN4cvc57context15CDInsertHashMapINS_8internal12NodeTemplateILb1EEEbSt4hashIS4_EEE = linkonce_odr hidden constant { ptr, ptr, ptr } { ptr getelementptr inbounds (ptr, ptr @_ZTVN10__cxxabiv120__si_class_type_infoE, i64 2), ptr @_ZTSN4cvc57context15CDInsertHashMapINS_8internal12NodeTemplateILb1EEEbSt4hashIS4_EEE, ptr @_ZTIN4cvc57context10ContextObjE }, comdat, align 8
@_ZTVN4cvc57context10ContextObjE = linkonce_odr unnamed_addr constant { [6 x ptr] } { [6 x ptr] [ptr null, ptr @_ZTIN4cvc57context10ContextObjE, ptr @__cxa_pure_virtual, ptr @__cxa_pure_virtual, ptr @_ZN4cvc57context10ContextObjD2Ev, ptr @_ZN4cvc57context10ContextObjD0Ev] }, comdat, align 8
@__PRETTY_FUNCTION__._ZN4cvc57context10ContextObjdlEPv = private unnamed_addr constant [63 x i8] c"static void cvc5::context::ContextObj::operator delete(void *)\00", align 1
@.str.14 = private unnamed_addr constant [109 x i8] c"generated/home/dtcxzyw/WorkSpace/Projects/compilers/llvm-opt-benchmark/bench/cvc5/cvc5/src/context/context.h\00", align 1
@.str.15 = private unnamed_addr constant [17 x i8] c"Check failure\0A\0A \00", align 1
@.str.16 = private unnamed_addr constant [6 x i8] c"false\00", align 1
@.str.17 = private unnamed_addr constant [2 x i8] c"\0A\00", align 1
@.str.18 = private unnamed_addr constant [51 x i8] c"It is not allowed to delete a ContextObj this way!\00", align 1
@_ZZN4cvc58internal4expr9NodeValue4nullEvE6s_null = linkonce_odr local_unnamed_addr global ptr null, comdat, align 8
@_ZGVZN4cvc58internal4expr9NodeValue4nullEvE6s_null = linkonce_odr global i64 0, comdat, align 8
@_ZTVN4cvc57context6CDListINS_8internal12NodeTemplateILb1EEENS0_14DefaultCleanUpIS4_EESaIS4_EEE = linkonce_odr hidden unnamed_addr constant { [6 x ptr] } { [6 x ptr] [ptr null, ptr @_ZTIN4cvc57context6CDListINS_8internal12NodeTemplateILb1EEENS0_14DefaultCleanUpIS4_EESaIS4_EEE, ptr @_ZN4cvc57context6CDListINS_8internal12NodeTemplateILb1EEENS0_14DefaultCleanUpIS4_EESaIS4_EE4saveEPNS0_20ContextMemoryManagerE, ptr @_ZN4cvc57context6CDListINS_8internal12NodeTemplateILb1EEENS0_14DefaultCleanUpIS4_EESaIS4_EE7restoreEPNS0_10ContextObjE, ptr @_ZN4cvc57context6CDListINS_8internal12NodeTemplateILb1EEENS0_14DefaultCleanUpIS4_EESaIS4_EED2Ev, ptr @_ZN4cvc57context6CDListINS_8internal12NodeTemplateILb1EEENS0_14DefaultCleanUpIS4_EESaIS4_EED0Ev] }, comdat, align 8
@_ZTSN4cvc57context6CDListINS_8internal12NodeTemplateILb1EEENS0_14DefaultCleanUpIS4_EESaIS4_EEE = linkonce_odr hidden constant [91 x i8] c"N4cvc57context6CDListINS_8internal12NodeTemplateILb1EEENS0_14DefaultCleanUpIS4_EESaIS4_EEE\00", comdat, align 1
@_ZTIN4cvc57context6CDListINS_8internal12NodeTemplateILb1EEENS0_14DefaultCleanUpIS4_EESaIS4_EEE = linkonce_odr hidden constant { ptr, ptr, ptr } { ptr getelementptr inbounds (ptr, ptr @_ZTVN10__cxxabiv120__si_class_type_infoE, i64 2), ptr @_ZTSN4cvc57context6CDListINS_8internal12NodeTemplateILb1EEENS0_14DefaultCleanUpIS4_EESaIS4_EEE, ptr @_ZTIN4cvc57context10ContextObjE }, comdat, align 8
@_ZTVN4cvc57context9CDHashSetINS_8internal12NodeTemplateILb1EEESt4hashIS4_EEE = linkonce_odr hidden unnamed_addr constant { [6 x ptr] } { [6 x ptr] [ptr null, ptr @_ZTIN4cvc57context9CDHashSetINS_8internal12NodeTemplateILb1EEESt4hashIS4_EEE, ptr @_ZN4cvc57context15CDInsertHashMapINS_8internal12NodeTemplateILb1EEEbSt4hashIS4_EE4saveEPNS0_20ContextMemoryManagerE, ptr @_ZN4cvc57context15CDInsertHashMapINS_8internal12NodeTemplateILb1EEEbSt4hashIS4_EE7restoreEPNS0_10ContextObjE, ptr @_ZN4cvc57context9CDHashSetINS_8internal12NodeTemplateILb1EEESt4hashIS4_EED2Ev, ptr @_ZN4cvc57context9CDHashSetINS_8internal12NodeTemplateILb1EEESt4hashIS4_EED0Ev] }, comdat, align 8
@_ZTSN4cvc57context9CDHashSetINS_8internal12NodeTemplateILb1EEESt4hashIS4_EEE = linkonce_odr hidden constant [73 x i8] c"N4cvc57context9CDHashSetINS_8internal12NodeTemplateILb1EEESt4hashIS4_EEE\00", comdat, align 1
@_ZTIN4cvc57context9CDHashSetINS_8internal12NodeTemplateILb1EEESt4hashIS4_EEE = linkonce_odr hidden constant { ptr, ptr, i32, i32, ptr, i64 } { ptr getelementptr inbounds (ptr, ptr @_ZTVN10__cxxabiv121__vmi_class_type_infoE, i64 2), ptr @_ZTSN4cvc57context9CDHashSetINS_8internal12NodeTemplateILb1EEESt4hashIS4_EEE, i32 0, i32 1, ptr @_ZTIN4cvc57context15CDInsertHashMapINS_8internal12NodeTemplateILb1EEEbSt4hashIS4_EEE, i64 0 }, comdat, align 8
@__PRETTY_FUNCTION__._ZN4cvc57context9CDHashSetINS_8internal12NodeTemplateILb1EEESt4hashIS4_EEdlEPv = private unnamed_addr constant [182 x i8] c"static void cvc5::context::CDHashSet<cvc5::internal::NodeTemplate<true>>::operator delete(void *) [V = cvc5::internal::NodeTemplate<true>, HashFcn = std::hash<cvc5::internal::Node>]\00", align 1
@.str.19 = private unnamed_addr constant [111 x i8] c"generated/home/dtcxzyw/WorkSpace/Projects/compilers/llvm-opt-benchmark/bench/cvc5/cvc5/src/context/cdhashset.h\00", align 1
@.str.23 = private unnamed_addr constant [26 x i8] c"vector::_M_realloc_insert\00", align 1
@.str.24 = private unnamed_addr constant [48 x i8] c"cannot create std::deque larger than max_size()\00", align 1
@llvm.global_ctors = appending global [2 x { i32, ptr, ptr }] [{ i32, ptr, ptr } { i32 65535, ptr @__cxx_global_var_init.9, ptr @_ZN4cvc58internal12NodeTemplateILb1EE6s_nullE }, { i32, ptr, ptr } { i32 65535, ptr @_GLOBAL__sub_I_conversions_solver.cpp, ptr null }]
@llvm.used = appending global [1 x ptr] [ptr @_ZN4cvc58internal12NodeTemplateILb1EE6s_nullE], section "llvm.metadata"

@_ZN4cvc58internal6theory2uf17ConversionsSolverC1ERNS0_3EnvERNS1_11TheoryStateERNS1_22TheoryInferenceManagerE = hidden unnamed_addr alias void (ptr, ptr, ptr, ptr), ptr @_ZN4cvc58internal6theory2uf17ConversionsSolverC2ERNS0_3EnvERNS1_11TheoryStateERNS1_22TheoryInferenceManagerE
@_ZN4cvc58internal6theory2uf17ConversionsSolverD1Ev = hidden unnamed_addr alias void (ptr), ptr @_ZN4cvc58internal6theory2uf17ConversionsSolverD2Ev

declare void @_ZNSt8ios_base4InitC1Ev(ptr noundef nonnull align 1 dereferenceable(1)) unnamed_addr #0

; Function Attrs: nounwind
declare void @_ZNSt8ios_base4InitD1Ev(ptr noundef nonnull align 1 dereferenceable(1)) unnamed_addr #1

; Function Attrs: nofree nounwind
declare i32 @__cxa_atexit(ptr, ptr, ptr) local_unnamed_addr #2

; Function Attrs: mustprogress uwtable
define hidden void @_ZN4cvc58internal6theory2uf17ConversionsSolverC2ERNS0_3EnvERNS1_11TheoryStateERNS1_22TheoryInferenceManagerE(ptr noundef nonnull align 8 dereferenceable(168) %this, ptr noundef nonnull align 8 dereferenceable(576) %env, ptr noundef nonnull align 8 dereferenceable(80) %state, ptr noundef nonnull align 8 dereferenceable(256) %im) unnamed_addr #3 align 2 personality ptr @__gxx_personality_v0 {
entry:
  tail call void @_ZN4cvc58internal6EnvObjC2ERNS0_3EnvE(ptr noundef nonnull align 8 dereferenceable(16) %this, ptr noundef nonnull align 8 dereferenceable(576) %env)
  store ptr getelementptr inbounds ({ [4 x ptr] }, ptr @_ZTVN4cvc58internal6theory2uf17ConversionsSolverE, i64 0, inrange i32 0, i64 2), ptr %this, align 8
  %d_state = getelementptr inbounds i8, ptr %this, i64 16
  store ptr %state, ptr %d_state, align 8
  %d_im = getelementptr inbounds i8, ptr %this, i64 24
  store ptr %im, ptr %d_im, align 8
  %d_preRegistered = getelementptr inbounds i8, ptr %this, i64 32
  %call = tail call noundef ptr @_ZNK4cvc58internal6EnvObj11userContextEv(ptr noundef nonnull align 8 dereferenceable(16) %this)
  tail call void @_ZN4cvc57context10ContextObjC2EPNS0_7ContextE(ptr noundef nonnull align 8 dereferenceable(40) %d_preRegistered, ptr noundef %call)
  store ptr getelementptr inbounds ({ [6 x ptr] }, ptr @_ZTVN4cvc57context6CDListINS_8internal12NodeTemplateILb1EEENS0_14DefaultCleanUpIS4_EESaIS4_EEE, i64 0, inrange i32 0, i64 2), ptr %d_preRegistered, align 8
  %d_list.i = getelementptr inbounds i8, ptr %this, i64 72
  %d_callCleanup.i = getelementptr inbounds i8, ptr %this, i64 104
  tail call void @llvm.memset.p0.i64(ptr noundef nonnull align 8 dereferenceable(32) %d_list.i, i8 0, i64 32, i1 false)
  store i8 1, ptr %d_callCleanup.i, align 8
  %call5 = invoke noundef ptr @_ZNK4cvc58internal6EnvObj11userContextEv(ptr noundef nonnull align 8 dereferenceable(16) %this)
          to label %invoke.cont4 unwind label %lpad3

invoke.cont4:                                     ; preds = %entry
  %d_reduced = getelementptr inbounds i8, ptr %this, i64 112
  invoke void @_ZN4cvc57context10ContextObjC2EPNS0_7ContextE(ptr noundef nonnull align 8 dereferenceable(40) %d_reduced, ptr noundef %call5)
          to label %.noexc unwind label %lpad3

.noexc:                                           ; preds = %invoke.cont4
  store ptr getelementptr inbounds ({ [6 x ptr] }, ptr @_ZTVN4cvc57context15CDInsertHashMapINS_8internal12NodeTemplateILb1EEEbSt4hashIS4_EEE, i64 0, inrange i32 0, i64 2), ptr %d_reduced, align 8
  %call.i.i2 = invoke noalias noundef nonnull dereferenceable(136) ptr @_Znwm(i64 noundef 136) #17
          to label %call.i.i.noexc unwind label %lpad3

call.i.i.noexc:                                   ; preds = %.noexc
  tail call void @llvm.memset.p0.i64(ptr noundef nonnull align 8 dereferenceable(136) %call.i.i2, i8 0, i64 136, i1 false)
  invoke void @_ZNSt11_Deque_baseIN4cvc58internal12NodeTemplateILb1EEESaIS3_EE17_M_initialize_mapEm(ptr noundef nonnull align 8 dereferenceable(80) %call.i.i2, i64 noundef 0)
          to label %invoke.cont6 unwind label %lpad2.i.i

lpad2.i.i:                                        ; preds = %call.i.i.noexc
  %0 = landingpad { ptr, i32 }
          cleanup
  tail call void @_ZdlPv(ptr noundef nonnull %call.i.i2) #18
  br label %lpad3.body

invoke.cont6:                                     ; preds = %call.i.i.noexc
  %d_hashMap.i.i.i = getelementptr inbounds i8, ptr %call.i.i2, i64 80
  %_M_single_bucket.i.i.i.i.i = getelementptr inbounds i8, ptr %call.i.i2, i64 128
  store ptr %_M_single_bucket.i.i.i.i.i, ptr %d_hashMap.i.i.i, align 8
  %_M_bucket_count.i.i.i.i.i = getelementptr inbounds i8, ptr %call.i.i2, i64 88
  store i64 1, ptr %_M_bucket_count.i.i.i.i.i, align 8
  %_M_before_begin.i.i.i.i.i = getelementptr inbounds i8, ptr %call.i.i2, i64 96
  %_M_rehash_policy.i.i.i.i.i = getelementptr inbounds i8, ptr %call.i.i2, i64 112
  tail call void @llvm.memset.p0.i64(ptr noundef nonnull align 8 dereferenceable(16) %_M_before_begin.i.i.i.i.i, i8 0, i64 16, i1 false)
  store float 1.000000e+00, ptr %_M_rehash_policy.i.i.i.i.i, align 8
  %_M_next_resize.i.i.i.i.i.i = getelementptr inbounds i8, ptr %call.i.i2, i64 120
  tail call void @llvm.memset.p0.i64(ptr noundef nonnull align 8 dereferenceable(16) %_M_next_resize.i.i.i.i.i.i, i8 0, i64 16, i1 false)
  %d_insertMap.i.i = getelementptr inbounds i8, ptr %this, i64 152
  store ptr %call.i.i2, ptr %d_insertMap.i.i, align 8
  %d_size.i.i = getelementptr inbounds i8, ptr %this, i64 160
  store i64 0, ptr %d_size.i.i, align 8
  store ptr getelementptr inbounds ({ [6 x ptr] }, ptr @_ZTVN4cvc57context9CDHashSetINS_8internal12NodeTemplateILb1EEESt4hashIS4_EEE, i64 0, inrange i32 0, i64 2), ptr %d_reduced, align 8
  ret void

lpad3:                                            ; preds = %.noexc, %invoke.cont4, %entry
  %1 = landingpad { ptr, i32 }
          cleanup
  br label %lpad3.body

lpad3.body:                                       ; preds = %lpad2.i.i, %lpad3
  %eh.lpad-body = phi { ptr, i32 } [ %1, %lpad3 ], [ %0, %lpad2.i.i ]
  tail call void @_ZN4cvc57context6CDListINS_8internal12NodeTemplateILb1EEENS0_14DefaultCleanUpIS4_EESaIS4_EED2Ev(ptr noundef nonnull align 8 dereferenceable(74) %d_preRegistered) #19
  resume { ptr, i32 } %eh.lpad-body
}

declare void @_ZN4cvc58internal6EnvObjC2ERNS0_3EnvE(ptr noundef nonnull align 8 dereferenceable(16), ptr noundef nonnull align 8 dereferenceable(576)) unnamed_addr #0

declare noundef ptr @_ZNK4cvc58internal6EnvObj11userContextEv(ptr noundef nonnull align 8 dereferenceable(16)) local_unnamed_addr #0

declare i32 @__gxx_personality_v0(...)

; Function Attrs: mustprogress nounwind uwtable
define linkonce_odr hidden void @_ZN4cvc57context6CDListINS_8internal12NodeTemplateILb1EEENS0_14DefaultCleanUpIS4_EESaIS4_EED2Ev(ptr noundef nonnull align 8 dereferenceable(74) %this) unnamed_addr #4 comdat align 2 personality ptr @__gxx_personality_v0 {
entry:
  store ptr getelementptr inbounds ({ [6 x ptr] }, ptr @_ZTVN4cvc57context6CDListINS_8internal12NodeTemplateILb1EEENS0_14DefaultCleanUpIS4_EESaIS4_EEE, i64 0, inrange i32 0, i64 2), ptr %this, align 8
  invoke void @_ZN4cvc57context10ContextObj7destroyEv(ptr noundef nonnull align 8 dereferenceable(40) %this)
          to label %invoke.cont unwind label %terminate.lpad

invoke.cont:                                      ; preds = %entry
  %d_callCleanup = getelementptr inbounds i8, ptr %this, i64 72
  %0 = load i8, ptr %d_callCleanup, align 8
  %1 = and i8 %0, 1
  %tobool.not = icmp eq i8 %1, 0
  br i1 %tobool.not, label %if.end, label %if.then

if.then:                                          ; preds = %invoke.cont
  %d_size4.i = getelementptr inbounds i8, ptr %this, i64 64
  %d_size.promoted.i = load i64, ptr %d_size4.i, align 8
  %cmp.not3.i = icmp eq i64 %d_size.promoted.i, 0
  br i1 %cmp.not3.i, label %if.end.i, label %if.end.sink.split.i

if.end.sink.split.i:                              ; preds = %if.then
  store i64 0, ptr %d_size4.i, align 8
  br label %if.end.i

if.end.i:                                         ; preds = %if.end.sink.split.i, %if.then
  %d_list5.i = getelementptr inbounds i8, ptr %this, i64 40
  %2 = load ptr, ptr %d_list5.i, align 8
  %_M_finish.i.i = getelementptr inbounds i8, ptr %this, i64 48
  %3 = load ptr, ptr %_M_finish.i.i, align 8
  %sub.ptr.rhs.cast.i.i.i = ptrtoint ptr %2 to i64
  %sub.ptr.lhs.cast.i1.i.i = ptrtoint ptr %3 to i64
  %sub.ptr.sub.i3.i.i = sub i64 %sub.ptr.lhs.cast.i1.i.i, %sub.ptr.rhs.cast.i.i.i
  %sub.ptr.div.i4.i.i = ashr exact i64 %sub.ptr.sub.i3.i.i, 3
  %add.ptr.i5.i.i = getelementptr inbounds %"class.cvc5::internal::NodeTemplate.294", ptr %2, i64 %sub.ptr.div.i4.i.i
  %call15.i.i1 = invoke ptr @_ZNSt6vectorIN4cvc58internal12NodeTemplateILb1EEESaIS3_EE8_M_eraseEN9__gnu_cxx17__normal_iteratorIPS3_S5_EES9_(ptr noundef nonnull align 8 dereferenceable(24) %d_list5.i, ptr %2, ptr %add.ptr.i5.i.i)
          to label %if.end unwind label %terminate.lpad

if.end:                                           ; preds = %if.end.i, %invoke.cont
  %d_list = getelementptr inbounds i8, ptr %this, i64 40
  %4 = load ptr, ptr %d_list, align 8
  %_M_finish.i = getelementptr inbounds i8, ptr %this, i64 48
  %5 = load ptr, ptr %_M_finish.i, align 8
  %cmp.not3.i.i.i.i = icmp eq ptr %4, %5
  br i1 %cmp.not3.i.i.i.i, label %invoke.cont.i, label %for.body.i.i.i.i

for.body.i.i.i.i:                                 ; preds = %if.end, %_ZSt8_DestroyIN4cvc58internal12NodeTemplateILb1EEEEvPT_.exit.i.i.i.i
  %__first.addr.04.i.i.i.i = phi ptr [ %incdec.ptr.i.i.i.i, %_ZSt8_DestroyIN4cvc58internal12NodeTemplateILb1EEEEvPT_.exit.i.i.i.i ], [ %4, %if.end ]
  %6 = load ptr, ptr %__first.addr.04.i.i.i.i, align 8
  %bf.load.i.i.i.i.i.i.i = load i64, ptr %6, align 8
  %7 = and i64 %bf.load.i.i.i.i.i.i.i, 1152920405095219200
  %cmp.not.i.i.i.i.i.i.i = icmp eq i64 %7, 1152920405095219200
  br i1 %cmp.not.i.i.i.i.i.i.i, label %_ZSt8_DestroyIN4cvc58internal12NodeTemplateILb1EEEEvPT_.exit.i.i.i.i, label %if.then.i.i.i.i.i.i.i

if.then.i.i.i.i.i.i.i:                            ; preds = %for.body.i.i.i.i
  %bf.value.i.i.i.i.i.i.i = add i64 %bf.load.i.i.i.i.i.i.i, 1152920405095219200
  %bf.shl.i.i.i.i.i.i.i = and i64 %bf.value.i.i.i.i.i.i.i, 1152920405095219200
  %bf.clear7.i.i.i.i.i.i.i = and i64 %bf.load.i.i.i.i.i.i.i, -1152920405095219201
  %bf.set.i.i.i.i.i.i.i = or disjoint i64 %bf.shl.i.i.i.i.i.i.i, %bf.clear7.i.i.i.i.i.i.i
  store i64 %bf.set.i.i.i.i.i.i.i, ptr %6, align 8
  %cmp12.i.i.i.i.i.i.i = icmp eq i64 %bf.shl.i.i.i.i.i.i.i, 0
  br i1 %cmp12.i.i.i.i.i.i.i, label %if.then13.i.i.i.i.i.i.i, label %_ZSt8_DestroyIN4cvc58internal12NodeTemplateILb1EEEEvPT_.exit.i.i.i.i

if.then13.i.i.i.i.i.i.i:                          ; preds = %if.then.i.i.i.i.i.i.i
  invoke void @_ZN4cvc58internal4expr9NodeValue15markForDeletionEv(ptr noundef nonnull align 8 dereferenceable(16) %6)
          to label %_ZSt8_DestroyIN4cvc58internal12NodeTemplateILb1EEEEvPT_.exit.i.i.i.i unwind label %terminate.lpad.i.i.i.i.i.i

terminate.lpad.i.i.i.i.i.i:                       ; preds = %if.then13.i.i.i.i.i.i.i
  %8 = landingpad { ptr, i32 }
          catch ptr null
  %9 = extractvalue { ptr, i32 } %8, 0
  tail call void @__clang_call_terminate(ptr %9) #20
  unreachable

_ZSt8_DestroyIN4cvc58internal12NodeTemplateILb1EEEEvPT_.exit.i.i.i.i: ; preds = %if.then13.i.i.i.i.i.i.i, %if.then.i.i.i.i.i.i.i, %for.body.i.i.i.i
  %incdec.ptr.i.i.i.i = getelementptr inbounds i8, ptr %__first.addr.04.i.i.i.i, i64 8
  %cmp.not.i.i.i.i = icmp eq ptr %incdec.ptr.i.i.i.i, %5
  br i1 %cmp.not.i.i.i.i, label %invoke.contthread-pre-split.i, label %for.body.i.i.i.i, !llvm.loop !4

invoke.contthread-pre-split.i:                    ; preds = %_ZSt8_DestroyIN4cvc58internal12NodeTemplateILb1EEEEvPT_.exit.i.i.i.i
  %.pr.i = load ptr, ptr %d_list, align 8
  br label %invoke.cont.i

invoke.cont.i:                                    ; preds = %invoke.contthread-pre-split.i, %if.end
  %10 = phi ptr [ %.pr.i, %invoke.contthread-pre-split.i ], [ %4, %if.end ]
  %tobool.not.i.i.i = icmp eq ptr %10, null
  br i1 %tobool.not.i.i.i, label %_ZNSt6vectorIN4cvc58internal12NodeTemplateILb1EEESaIS3_EED2Ev.exit, label %if.then.i.i.i

if.then.i.i.i:                                    ; preds = %invoke.cont.i
  tail call void @_ZdlPv(ptr noundef nonnull %10) #18
  br label %_ZNSt6vectorIN4cvc58internal12NodeTemplateILb1EEESaIS3_EED2Ev.exit

_ZNSt6vectorIN4cvc58internal12NodeTemplateILb1EEESaIS3_EED2Ev.exit: ; preds = %invoke.cont.i, %if.then.i.i.i
  ret void

terminate.lpad:                                   ; preds = %if.end.i, %entry
  %11 = landingpad { ptr, i32 }
          catch ptr null
  %12 = extractvalue { ptr, i32 } %11, 0
  tail call void @__clang_call_terminate(ptr %12) #20
  unreachable
}

; Function Attrs: mustprogress nounwind uwtable
define hidden void @_ZN4cvc58internal6theory2uf17ConversionsSolverD2Ev(ptr noundef nonnull align 8 dereferenceable(168) %this) unnamed_addr #4 align 2 personality ptr @__gxx_personality_v0 {
entry:
  store ptr getelementptr inbounds ({ [4 x ptr] }, ptr @_ZTVN4cvc58internal6theory2uf17ConversionsSolverE, i64 0, inrange i32 0, i64 2), ptr %this, align 8
  %d_reduced = getelementptr inbounds i8, ptr %this, i64 112
  store ptr getelementptr inbounds ({ [6 x ptr] }, ptr @_ZTVN4cvc57context15CDInsertHashMapINS_8internal12NodeTemplateILb1EEEbSt4hashIS4_EEE, i64 0, inrange i32 0, i64 2), ptr %d_reduced, align 8
  invoke void @_ZN4cvc57context10ContextObj7destroyEv(ptr noundef nonnull align 8 dereferenceable(40) %d_reduced)
          to label %invoke.cont.i.i unwind label %terminate.lpad.i.i

invoke.cont.i.i:                                  ; preds = %entry
  %d_insertMap.i.i = getelementptr inbounds i8, ptr %this, i64 152
  %0 = load ptr, ptr %d_insertMap.i.i, align 8
  %isnull.i.i = icmp eq ptr %0, null
  br i1 %isnull.i.i, label %_ZN4cvc57context9CDHashSetINS_8internal12NodeTemplateILb1EEESt4hashIS4_EED2Ev.exit, label %delete.notnull.i.i

delete.notnull.i.i:                               ; preds = %invoke.cont.i.i
  tail call void @_ZN4cvc57context13InsertHashMapINS_8internal12NodeTemplateILb1EEEbSt4hashIS4_EED2Ev(ptr noundef nonnull align 8 dereferenceable(136) %0) #19
  tail call void @_ZdlPv(ptr noundef nonnull %0) #18
  br label %_ZN4cvc57context9CDHashSetINS_8internal12NodeTemplateILb1EEESt4hashIS4_EED2Ev.exit

terminate.lpad.i.i:                               ; preds = %entry
  %1 = landingpad { ptr, i32 }
          catch ptr null
  %2 = extractvalue { ptr, i32 } %1, 0
  tail call void @__clang_call_terminate(ptr %2) #20
  unreachable

_ZN4cvc57context9CDHashSetINS_8internal12NodeTemplateILb1EEESt4hashIS4_EED2Ev.exit: ; preds = %invoke.cont.i.i, %delete.notnull.i.i
  %d_preRegistered = getelementptr inbounds i8, ptr %this, i64 32
  tail call void @_ZN4cvc57context6CDListINS_8internal12NodeTemplateILb1EEENS0_14DefaultCleanUpIS4_EESaIS4_EED2Ev(ptr noundef nonnull align 8 dereferenceable(74) %d_preRegistered) #19
  ret void
}

; Function Attrs: mustprogress nounwind uwtable
define linkonce_odr hidden void @_ZN4cvc57context9CDHashSetINS_8internal12NodeTemplateILb1EEESt4hashIS4_EED2Ev(ptr noundef nonnull align 8 dereferenceable(56) %this) unnamed_addr #4 comdat align 2 personality ptr @__gxx_personality_v0 {
entry:
  store ptr getelementptr inbounds ({ [6 x ptr] }, ptr @_ZTVN4cvc57context15CDInsertHashMapINS_8internal12NodeTemplateILb1EEEbSt4hashIS4_EEE, i64 0, inrange i32 0, i64 2), ptr %this, align 8
  invoke void @_ZN4cvc57context10ContextObj7destroyEv(ptr noundef nonnull align 8 dereferenceable(40) %this)
          to label %invoke.cont.i unwind label %terminate.lpad.i

invoke.cont.i:                                    ; preds = %entry
  %d_insertMap.i = getelementptr inbounds i8, ptr %this, i64 40
  %0 = load ptr, ptr %d_insertMap.i, align 8
  %isnull.i = icmp eq ptr %0, null
  br i1 %isnull.i, label %_ZN4cvc57context15CDInsertHashMapINS_8internal12NodeTemplateILb1EEEbSt4hashIS4_EED2Ev.exit, label %delete.notnull.i

delete.notnull.i:                                 ; preds = %invoke.cont.i
  tail call void @_ZN4cvc57context13InsertHashMapINS_8internal12NodeTemplateILb1EEEbSt4hashIS4_EED2Ev(ptr noundef nonnull align 8 dereferenceable(136) %0) #19
  tail call void @_ZdlPv(ptr noundef nonnull %0) #18
  br label %_ZN4cvc57context15CDInsertHashMapINS_8internal12NodeTemplateILb1EEEbSt4hashIS4_EED2Ev.exit

terminate.lpad.i:                                 ; preds = %entry
  %1 = landingpad { ptr, i32 }
          catch ptr null
  %2 = extractvalue { ptr, i32 } %1, 0
  tail call void @__clang_call_terminate(ptr %2) #20
  unreachable

_ZN4cvc57context15CDInsertHashMapINS_8internal12NodeTemplateILb1EEEbSt4hashIS4_EED2Ev.exit: ; preds = %invoke.cont.i, %delete.notnull.i
  ret void
}

; Function Attrs: mustprogress nounwind uwtable
define hidden void @_ZN4cvc58internal6theory2uf17ConversionsSolverD0Ev(ptr noundef nonnull align 8 dereferenceable(168) %this) unnamed_addr #4 align 2 personality ptr @__gxx_personality_v0 {
entry:
  store ptr getelementptr inbounds ({ [4 x ptr] }, ptr @_ZTVN4cvc58internal6theory2uf17ConversionsSolverE, i64 0, inrange i32 0, i64 2), ptr %this, align 8
  %d_reduced.i = getelementptr inbounds i8, ptr %this, i64 112
  store ptr getelementptr inbounds ({ [6 x ptr] }, ptr @_ZTVN4cvc57context15CDInsertHashMapINS_8internal12NodeTemplateILb1EEEbSt4hashIS4_EEE, i64 0, inrange i32 0, i64 2), ptr %d_reduced.i, align 8
  invoke void @_ZN4cvc57context10ContextObj7destroyEv(ptr noundef nonnull align 8 dereferenceable(40) %d_reduced.i)
          to label %invoke.cont.i.i.i unwind label %terminate.lpad.i.i.i

invoke.cont.i.i.i:                                ; preds = %entry
  %d_insertMap.i.i.i = getelementptr inbounds i8, ptr %this, i64 152
  %0 = load ptr, ptr %d_insertMap.i.i.i, align 8
  %isnull.i.i.i = icmp eq ptr %0, null
  br i1 %isnull.i.i.i, label %_ZN4cvc58internal6theory2uf17ConversionsSolverD2Ev.exit, label %delete.notnull.i.i.i

delete.notnull.i.i.i:                             ; preds = %invoke.cont.i.i.i
  tail call void @_ZN4cvc57context13InsertHashMapINS_8internal12NodeTemplateILb1EEEbSt4hashIS4_EED2Ev(ptr noundef nonnull align 8 dereferenceable(136) %0) #19
  tail call void @_ZdlPv(ptr noundef nonnull %0) #18
  br label %_ZN4cvc58internal6theory2uf17ConversionsSolverD2Ev.exit

terminate.lpad.i.i.i:                             ; preds = %entry
  %1 = landingpad { ptr, i32 }
          catch ptr null
  %2 = extractvalue { ptr, i32 } %1, 0
  tail call void @__clang_call_terminate(ptr %2) #20
  unreachable

_ZN4cvc58internal6theory2uf17ConversionsSolverD2Ev.exit: ; preds = %invoke.cont.i.i.i, %delete.notnull.i.i.i
  %d_preRegistered.i = getelementptr inbounds i8, ptr %this, i64 32
  tail call void @_ZN4cvc57context6CDListINS_8internal12NodeTemplateILb1EEENS0_14DefaultCleanUpIS4_EESaIS4_EED2Ev(ptr noundef nonnull align 8 dereferenceable(74) %d_preRegistered.i) #19
  tail call void @_ZdlPv(ptr noundef nonnull %this) #18
  ret void
}

; Function Attrs: nobuiltin nounwind
declare void @_ZdlPv(ptr noundef) local_unnamed_addr #5

; Function Attrs: mustprogress uwtable
define hidden void @_ZN4cvc58internal6theory2uf17ConversionsSolver15preRegisterTermENS0_12NodeTemplateILb0EEE(ptr noundef nonnull align 8 dereferenceable(168) %this, ptr nocapture noundef readonly %term) local_unnamed_addr #3 align 2 personality ptr @__gxx_personality_v0 {
entry:
  %ref.tmp = alloca %"class.cvc5::internal::NodeTemplate.294", align 8
  %d_preRegistered = getelementptr inbounds i8, ptr %this, i64 32
  %0 = load ptr, ptr %term, align 8
  store ptr %0, ptr %ref.tmp, align 8
  %bf.load.i.i = load i64, ptr %0, align 8
  %bf.lshr.i.i = lshr i64 %bf.load.i.i, 40
  %1 = trunc i64 %bf.lshr.i.i to i32
  %bf.cast.i.i = and i32 %1, 1048575
  %cmp.i.i = icmp ult i32 %bf.cast.i.i, 1048574
  br i1 %cmp.i.i, label %if.then.i.i, label %if.else.i.i

if.then.i.i:                                      ; preds = %entry
  %bf.value.i.i = add i64 %bf.load.i.i, 1099511627776
  %bf.shl.i.i = and i64 %bf.value.i.i, 1152920405095219200
  %bf.clear7.i.i = and i64 %bf.load.i.i, -1152920405095219201
  %bf.set.i.i = or disjoint i64 %bf.shl.i.i, %bf.clear7.i.i
  store i64 %bf.set.i.i, ptr %0, align 8
  br label %_ZN4cvc58internal12NodeTemplateILb1EEC2ERKNS1_ILb0EEE.exit

if.else.i.i:                                      ; preds = %entry
  %cmp12.i.i = icmp eq i32 %bf.cast.i.i, 1048574
  br i1 %cmp12.i.i, label %if.then13.i.i, label %_ZN4cvc58internal12NodeTemplateILb1EEC2ERKNS1_ILb0EEE.exit

if.then13.i.i:                                    ; preds = %if.else.i.i
  %bf.set23.i.i = or i64 %bf.load.i.i, 1152920405095219200
  store i64 %bf.set23.i.i, ptr %0, align 8
  tail call void @_ZN4cvc58internal4expr9NodeValue20markRefCountMaxedOutEv(ptr noundef nonnull align 8 dereferenceable(16) %0)
  br label %_ZN4cvc58internal12NodeTemplateILb1EEC2ERKNS1_ILb0EEE.exit

_ZN4cvc58internal12NodeTemplateILb1EEC2ERKNS1_ILb0EEE.exit: ; preds = %if.then.i.i, %if.else.i.i, %if.then13.i.i
  %d_pScope.i126.i = getelementptr inbounds i8, ptr %this, i64 40
  %2 = load ptr, ptr %d_pScope.i126.i, align 8
  %3 = load ptr, ptr %2, align 8
  %_M_finish.i.i.i.i.i.i = getelementptr inbounds i8, ptr %3, i64 16
  %4 = load ptr, ptr %_M_finish.i.i.i.i.i.i, align 8
  %add.ptr.i.i.i.i.i.i = getelementptr inbounds i8, ptr %4, i64 -8
  %5 = load ptr, ptr %add.ptr.i.i.i.i.i.i, align 8
  %cmp.i.i127.i = icmp eq ptr %5, %2
  br i1 %cmp.i.i127.i, label %_ZN4cvc57context10ContextObj11makeCurrentEv.exit.i, label %if.then.i128.i

if.then.i128.i:                                   ; preds = %_ZN4cvc58internal12NodeTemplateILb1EEC2ERKNS1_ILb0EEE.exit
  invoke void @_ZN4cvc57context10ContextObj6updateEv(ptr noundef nonnull align 8 dereferenceable(40) %d_preRegistered)
          to label %_ZN4cvc57context10ContextObj11makeCurrentEv.exit.i unwind label %lpad

_ZN4cvc57context10ContextObj11makeCurrentEv.exit.i: ; preds = %if.then.i128.i, %_ZN4cvc58internal12NodeTemplateILb1EEC2ERKNS1_ILb0EEE.exit
  %_M_finish.i.i = getelementptr inbounds i8, ptr %this, i64 80
  %6 = load ptr, ptr %_M_finish.i.i, align 8
  %_M_end_of_storage.i.i = getelementptr inbounds i8, ptr %this, i64 88
  %7 = load ptr, ptr %_M_end_of_storage.i.i, align 8
  %cmp.not.i130.i = icmp eq ptr %6, %7
  br i1 %cmp.not.i130.i, label %if.else.i.i1, label %if.then.i131.i

if.then.i131.i:                                   ; preds = %_ZN4cvc57context10ContextObj11makeCurrentEv.exit.i
  %8 = load ptr, ptr %ref.tmp, align 8
  store ptr %8, ptr %6, align 8
  %bf.load.i.i.i.i.i.i = load i64, ptr %8, align 8
  %bf.lshr.i.i.i.i.i.i = lshr i64 %bf.load.i.i.i.i.i.i, 40
  %9 = trunc i64 %bf.lshr.i.i.i.i.i.i to i32
  %bf.cast.i.i.i.i.i.i = and i32 %9, 1048575
  %cmp.i.i.i.i.i.i = icmp ult i32 %bf.cast.i.i.i.i.i.i, 1048574
  br i1 %cmp.i.i.i.i.i.i, label %if.then.i.i.i.i.i.i, label %if.else.i.i.i.i.i.i

if.then.i.i.i.i.i.i:                              ; preds = %if.then.i131.i
  %bf.value.i.i.i.i.i.i = add i64 %bf.load.i.i.i.i.i.i, 1099511627776
  %bf.shl.i.i.i.i.i.i = and i64 %bf.value.i.i.i.i.i.i, 1152920405095219200
  %bf.clear7.i.i.i.i.i.i = and i64 %bf.load.i.i.i.i.i.i, -1152920405095219201
  %bf.set.i.i.i.i.i.i = or disjoint i64 %bf.shl.i.i.i.i.i.i, %bf.clear7.i.i.i.i.i.i
  store i64 %bf.set.i.i.i.i.i.i, ptr %8, align 8
  br label %_ZNSt16allocator_traitsISaIN4cvc58internal12NodeTemplateILb1EEEEE9constructIS3_JRKS3_EEEvRS4_PT_DpOT0_.exit.i.i

if.else.i.i.i.i.i.i:                              ; preds = %if.then.i131.i
  %cmp12.i.i.i.i.i.i = icmp eq i32 %bf.cast.i.i.i.i.i.i, 1048574
  br i1 %cmp12.i.i.i.i.i.i, label %if.then13.i.i.i.i.i.i, label %_ZNSt16allocator_traitsISaIN4cvc58internal12NodeTemplateILb1EEEEE9constructIS3_JRKS3_EEEvRS4_PT_DpOT0_.exit.i.i

if.then13.i.i.i.i.i.i:                            ; preds = %if.else.i.i.i.i.i.i
  %bf.set23.i.i.i.i.i.i = or i64 %bf.load.i.i.i.i.i.i, 1152920405095219200
  store i64 %bf.set23.i.i.i.i.i.i, ptr %8, align 8
  invoke void @_ZN4cvc58internal4expr9NodeValue20markRefCountMaxedOutEv(ptr noundef nonnull align 8 dereferenceable(16) %8)
          to label %_ZNSt16allocator_traitsISaIN4cvc58internal12NodeTemplateILb1EEEEE9constructIS3_JRKS3_EEEvRS4_PT_DpOT0_.exit.i.i unwind label %lpad

_ZNSt16allocator_traitsISaIN4cvc58internal12NodeTemplateILb1EEEEE9constructIS3_JRKS3_EEEvRS4_PT_DpOT0_.exit.i.i: ; preds = %if.then13.i.i.i.i.i.i, %if.else.i.i.i.i.i.i, %if.then.i.i.i.i.i.i
  %10 = load ptr, ptr %_M_finish.i.i, align 8
  %incdec.ptr.i.i = getelementptr inbounds i8, ptr %10, i64 8
  store ptr %incdec.ptr.i.i, ptr %_M_finish.i.i, align 8
  br label %invoke.cont

if.else.i.i1:                                     ; preds = %_ZN4cvc57context10ContextObj11makeCurrentEv.exit.i
  %d_list.i = getelementptr inbounds i8, ptr %this, i64 72
  invoke void @_ZNSt6vectorIN4cvc58internal12NodeTemplateILb1EEESaIS3_EE17_M_realloc_insertIJRKS3_EEEvN9__gnu_cxx17__normal_iteratorIPS3_S5_EEDpOT_(ptr noundef nonnull align 8 dereferenceable(24) %d_list.i, ptr %6, ptr noundef nonnull align 8 dereferenceable(8) %ref.tmp)
          to label %invoke.cont unwind label %lpad

invoke.cont:                                      ; preds = %_ZNSt16allocator_traitsISaIN4cvc58internal12NodeTemplateILb1EEEEE9constructIS3_JRKS3_EEEvRS4_PT_DpOT0_.exit.i.i, %if.else.i.i1
  %d_size.i = getelementptr inbounds i8, ptr %this, i64 96
  %11 = load i64, ptr %d_size.i, align 8
  %inc.i = add i64 %11, 1
  store i64 %inc.i, ptr %d_size.i, align 8
  %12 = load ptr, ptr %ref.tmp, align 8
  %bf.load.i.i4 = load i64, ptr %12, align 8
  %13 = and i64 %bf.load.i.i4, 1152920405095219200
  %cmp.not.i.i = icmp eq i64 %13, 1152920405095219200
  br i1 %cmp.not.i.i, label %_ZN4cvc58internal12NodeTemplateILb1EED2Ev.exit, label %if.then.i.i5

if.then.i.i5:                                     ; preds = %invoke.cont
  %bf.value.i.i6 = add i64 %bf.load.i.i4, 1152920405095219200
  %bf.shl.i.i7 = and i64 %bf.value.i.i6, 1152920405095219200
  %bf.clear7.i.i8 = and i64 %bf.load.i.i4, -1152920405095219201
  %bf.set.i.i9 = or disjoint i64 %bf.shl.i.i7, %bf.clear7.i.i8
  store i64 %bf.set.i.i9, ptr %12, align 8
  %cmp12.i.i10 = icmp eq i64 %bf.shl.i.i7, 0
  br i1 %cmp12.i.i10, label %if.then13.i.i11, label %_ZN4cvc58internal12NodeTemplateILb1EED2Ev.exit

if.then13.i.i11:                                  ; preds = %if.then.i.i5
  invoke void @_ZN4cvc58internal4expr9NodeValue15markForDeletionEv(ptr noundef nonnull align 8 dereferenceable(16) %12)
          to label %_ZN4cvc58internal12NodeTemplateILb1EED2Ev.exit unwind label %terminate.lpad.i

terminate.lpad.i:                                 ; preds = %if.then13.i.i11
  %14 = landingpad { ptr, i32 }
          catch ptr null
  %15 = extractvalue { ptr, i32 } %14, 0
  call void @__clang_call_terminate(ptr %15) #20
  unreachable

_ZN4cvc58internal12NodeTemplateILb1EED2Ev.exit:   ; preds = %invoke.cont, %if.then.i.i5, %if.then13.i.i11
  ret void

lpad:                                             ; preds = %if.else.i.i1, %if.then13.i.i.i.i.i.i, %if.then.i128.i
  %16 = landingpad { ptr, i32 }
          cleanup
  call void @_ZN4cvc58internal12NodeTemplateILb1EED2Ev(ptr noundef nonnull align 8 dereferenceable(8) %ref.tmp) #19
  resume { ptr, i32 } %16
}

; Function Attrs: mustprogress nounwind uwtable
define linkonce_odr hidden void @_ZN4cvc58internal12NodeTemplateILb1EED2Ev(ptr noundef nonnull align 8 dereferenceable(8) %this) unnamed_addr #4 comdat align 2 personality ptr @__gxx_personality_v0 {
entry:
  %0 = load ptr, ptr %this, align 8
  %bf.load.i = load i64, ptr %0, align 8
  %1 = and i64 %bf.load.i, 1152920405095219200
  %cmp.not.i = icmp eq i64 %1, 1152920405095219200
  br i1 %cmp.not.i, label %invoke.cont, label %if.then.i

if.then.i:                                        ; preds = %entry
  %bf.value.i = add i64 %bf.load.i, 1152920405095219200
  %bf.shl.i = and i64 %bf.value.i, 1152920405095219200
  %bf.clear7.i = and i64 %bf.load.i, -1152920405095219201
  %bf.set.i = or disjoint i64 %bf.shl.i, %bf.clear7.i
  store i64 %bf.set.i, ptr %0, align 8
  %cmp12.i = icmp eq i64 %bf.shl.i, 0
  br i1 %cmp12.i, label %if.then13.i, label %invoke.cont

if.then13.i:                                      ; preds = %if.then.i
  invoke void @_ZN4cvc58internal4expr9NodeValue15markForDeletionEv(ptr noundef nonnull align 8 dereferenceable(16) %0)
          to label %invoke.cont unwind label %terminate.lpad

invoke.cont:                                      ; preds = %if.then.i, %entry, %if.then13.i
  ret void

terminate.lpad:                                   ; preds = %if.then13.i
  %2 = landingpad { ptr, i32 }
          catch ptr null
  %3 = extractvalue { ptr, i32 } %2, 0
  tail call void @__clang_call_terminate(ptr %3) #20
  unreachable
}

; Function Attrs: mustprogress uwtable
define hidden void @_ZN4cvc58internal6theory2uf17ConversionsSolver5checkEv(ptr noundef nonnull align 8 dereferenceable(168) %this) local_unnamed_addr #3 align 2 personality ptr @__gxx_personality_v0 {
cond.end18:
  %agg.tmp = alloca %"class.cvc5::internal::NodeTemplate.294", align 8
  %d_list.i109 = getelementptr inbounds i8, ptr %this, i64 72
  %0 = load ptr, ptr %d_list.i109, align 8
  %_M_finish.i.i110 = getelementptr inbounds i8, ptr %this, i64 80
  %1 = load ptr, ptr %_M_finish.i.i110, align 8
  %cmp.i.not128 = icmp eq ptr %0, %1
  br i1 %cmp.i.not128, label %for.end, label %for.body

for.body:                                         ; preds = %cond.end18, %_ZN4cvc58internal12NodeTemplateILb1EED2Ev.exit
  %__begin3.sroa.0.0129 = phi ptr [ %incdec.ptr.i, %_ZN4cvc58internal12NodeTemplateILb1EED2Ev.exit ], [ %0, %cond.end18 ]
  %2 = load ptr, ptr %__begin3.sroa.0.0129, align 8
  store ptr %2, ptr %agg.tmp, align 8
  %bf.load.i.i = load i64, ptr %2, align 8
  %bf.lshr.i.i = lshr i64 %bf.load.i.i, 40
  %3 = trunc i64 %bf.lshr.i.i to i32
  %bf.cast.i.i = and i32 %3, 1048575
  %cmp.i.i111 = icmp ult i32 %bf.cast.i.i, 1048574
  br i1 %cmp.i.i111, label %if.then.i.i, label %if.else.i.i

if.then.i.i:                                      ; preds = %for.body
  %bf.value.i.i = add i64 %bf.load.i.i, 1099511627776
  %bf.shl.i.i = and i64 %bf.value.i.i, 1152920405095219200
  %bf.clear7.i.i = and i64 %bf.load.i.i, -1152920405095219201
  %bf.set.i.i = or disjoint i64 %bf.shl.i.i, %bf.clear7.i.i
  store i64 %bf.set.i.i, ptr %2, align 8
  br label %_ZN4cvc58internal12NodeTemplateILb1EEC2ERKS2_.exit

if.else.i.i:                                      ; preds = %for.body
  %cmp12.i.i = icmp eq i32 %bf.cast.i.i, 1048574
  br i1 %cmp12.i.i, label %if.then13.i.i, label %_ZN4cvc58internal12NodeTemplateILb1EEC2ERKS2_.exit

if.then13.i.i:                                    ; preds = %if.else.i.i
  %bf.set23.i.i = or i64 %bf.load.i.i, 1152920405095219200
  store i64 %bf.set23.i.i, ptr %2, align 8
  call void @_ZN4cvc58internal4expr9NodeValue20markRefCountMaxedOutEv(ptr noundef nonnull align 8 dereferenceable(16) %2)
  br label %_ZN4cvc58internal12NodeTemplateILb1EEC2ERKS2_.exit

_ZN4cvc58internal12NodeTemplateILb1EEC2ERKS2_.exit: ; preds = %if.then.i.i, %if.else.i.i, %if.then13.i.i
  invoke void @_ZN4cvc58internal6theory2uf17ConversionsSolver14checkReductionENS0_12NodeTemplateILb1EEE(ptr noundef nonnull align 8 dereferenceable(168) %this, ptr noundef nonnull %agg.tmp)
          to label %invoke.cont unwind label %lpad

invoke.cont:                                      ; preds = %_ZN4cvc58internal12NodeTemplateILb1EEC2ERKS2_.exit
  %4 = load ptr, ptr %agg.tmp, align 8
  %bf.load.i.i112 = load i64, ptr %4, align 8
  %5 = and i64 %bf.load.i.i112, 1152920405095219200
  %cmp.not.i.i = icmp eq i64 %5, 1152920405095219200
  br i1 %cmp.not.i.i, label %_ZN4cvc58internal12NodeTemplateILb1EED2Ev.exit, label %if.then.i.i113

if.then.i.i113:                                   ; preds = %invoke.cont
  %bf.value.i.i114 = add i64 %bf.load.i.i112, 1152920405095219200
  %bf.shl.i.i115 = and i64 %bf.value.i.i114, 1152920405095219200
  %bf.clear7.i.i116 = and i64 %bf.load.i.i112, -1152920405095219201
  %bf.set.i.i117 = or disjoint i64 %bf.shl.i.i115, %bf.clear7.i.i116
  store i64 %bf.set.i.i117, ptr %4, align 8
  %cmp12.i.i118 = icmp eq i64 %bf.shl.i.i115, 0
  br i1 %cmp12.i.i118, label %if.then13.i.i119, label %_ZN4cvc58internal12NodeTemplateILb1EED2Ev.exit

if.then13.i.i119:                                 ; preds = %if.then.i.i113
  invoke void @_ZN4cvc58internal4expr9NodeValue15markForDeletionEv(ptr noundef nonnull align 8 dereferenceable(16) %4)
          to label %_ZN4cvc58internal12NodeTemplateILb1EED2Ev.exit unwind label %terminate.lpad.i

terminate.lpad.i:                                 ; preds = %if.then13.i.i119
  %6 = landingpad { ptr, i32 }
          catch ptr null
  %7 = extractvalue { ptr, i32 } %6, 0
  call void @__clang_call_terminate(ptr %7) #20
  unreachable

_ZN4cvc58internal12NodeTemplateILb1EED2Ev.exit:   ; preds = %invoke.cont, %if.then.i.i113, %if.then13.i.i119
  %incdec.ptr.i = getelementptr inbounds i8, ptr %__begin3.sroa.0.0129, i64 8
  %cmp.i.not = icmp eq ptr %incdec.ptr.i, %1
  br i1 %cmp.i.not, label %for.end, label %for.body

lpad:                                             ; preds = %_ZN4cvc58internal12NodeTemplateILb1EEC2ERKS2_.exit
  %8 = landingpad { ptr, i32 }
          cleanup
  call void @_ZN4cvc58internal12NodeTemplateILb1EED2Ev(ptr noundef nonnull align 8 dereferenceable(8) %agg.tmp) #19
  resume { ptr, i32 } %8

for.end:                                          ; preds = %_ZN4cvc58internal12NodeTemplateILb1EED2Ev.exit, %cond.end18
  ret void
}

; Function Attrs: mustprogress nocallback nofree nounwind willreturn memory(argmem: readwrite)
declare void @llvm.memcpy.p0.p0.i64(ptr noalias nocapture writeonly, ptr noalias nocapture readonly, i64, i1 immarg) #6

; Function Attrs: mustprogress uwtable
define hidden void @_ZN4cvc58internal6theory2uf17ConversionsSolver14checkReductionENS0_12NodeTemplateILb1EEE(ptr noundef nonnull align 8 dereferenceable(168) %this, ptr noundef %n) local_unnamed_addr #3 align 2 personality ptr @__gxx_personality_v0 {
cond.end:
  %ref.tmp.i = alloca i8, align 1
  %val = alloca %"class.cvc5::internal::NodeTemplate.294", align 8
  %agg.tmp = alloca %"class.cvc5::internal::NodeTemplate", align 8
  %uval = alloca %"class.cvc5::internal::NodeTemplate.294", align 8
  %ref.tmp21 = alloca %"class.cvc5::internal::NodeTemplate", align 8
  %agg.tmp23 = alloca %"class.cvc5::internal::NodeTemplate", align 8
  %lem = alloca %"class.cvc5::internal::NodeTemplate.294", align 8
  %ref.tmp89 = alloca %"class.cvc5::internal::NodeTemplate.294", align 8
  %agg.tmp90 = alloca %"class.cvc5::internal::NodeTemplate", align 8
  %ref.tmp101 = alloca %"class.cvc5::internal::NodeTemplate.294", align 8
  %agg.tmp102 = alloca %"class.cvc5::internal::NodeTemplate", align 8
  %ref.tmp113 = alloca %"class.cvc5::internal::NodeTemplate.294", align 8
  %agg.tmp119 = alloca %"class.cvc5::internal::NodeTemplate", align 8
  %d_reduced = getelementptr inbounds i8, ptr %this, i64 112
  %d_insertMap.i.i = getelementptr inbounds i8, ptr %this, i64 152
  %0 = load ptr, ptr %d_insertMap.i.i, align 8, !noalias !6
  %_M_element_count.i.i.i.i.i.i = getelementptr inbounds i8, ptr %0, i64 104
  %1 = load i64, ptr %_M_element_count.i.i.i.i.i.i, align 8, !noalias !6
  %cmp.not.not.i.i.i.i.i = icmp eq i64 %1, 0
  br i1 %cmp.not.not.i.i.i.i.i, label %if.then.i.i.i.i.i, label %if.end15.i.i.i.i.i

if.then.i.i.i.i.i:                                ; preds = %cond.end
  %_M_before_begin.i.i.i.i.i.i.i = getelementptr inbounds i8, ptr %0, i64 96
  %2 = load ptr, ptr %n, align 8, !noalias !6
  br label %for.cond.i.i.i.i.i

for.cond.i.i.i.i.i:                               ; preds = %for.body.i.i.i.i.i, %if.then.i.i.i.i.i
  %retval.sroa.0.0.in.i.i.i.i.i = phi ptr [ %_M_before_begin.i.i.i.i.i.i.i, %if.then.i.i.i.i.i ], [ %retval.sroa.0.0.i.i.i.i.i, %for.body.i.i.i.i.i ]
  %retval.sroa.0.0.i.i.i.i.i = load ptr, ptr %retval.sroa.0.0.in.i.i.i.i.i, align 8, !noalias !6
  %cmp.i.not.i.i.i.i.i = icmp eq ptr %retval.sroa.0.0.i.i.i.i.i, null
  br i1 %cmp.i.not.i.i.i.i.i, label %if.end, label %for.body.i.i.i.i.i

for.body.i.i.i.i.i:                               ; preds = %for.cond.i.i.i.i.i
  %add.ptr.i.i.i.i.i = getelementptr inbounds i8, ptr %retval.sroa.0.0.i.i.i.i.i, i64 8
  %3 = load ptr, ptr %add.ptr.i.i.i.i.i, align 8, !noalias !6
  %cmp.i.i.i.i.i.i.i.i = icmp eq ptr %2, %3
  br i1 %cmp.i.i.i.i.i.i.i.i, label %cleanup.cont, label %for.cond.i.i.i.i.i, !llvm.loop !9

if.end15.i.i.i.i.i:                               ; preds = %cond.end
  %d_hashMap.i.i.i = getelementptr inbounds i8, ptr %0, i64 80
  %call2.i.i.i.i.i.i = tail call noundef i64 @_ZNKSt4hashIN4cvc58internal12NodeTemplateILb1EEEEclERKS3_(ptr noundef nonnull align 1 dereferenceable(1) %d_hashMap.i.i.i, ptr noundef nonnull align 8 dereferenceable(8) %n), !noalias !6
  %_M_bucket_count.i.i.i.i.i.i = getelementptr inbounds i8, ptr %0, i64 88
  %4 = load i64, ptr %_M_bucket_count.i.i.i.i.i.i, align 8, !noalias !6
  %rem.i.i.i.i.i.i.i.i = urem i64 %call2.i.i.i.i.i.i, %4
  %5 = load ptr, ptr %d_hashMap.i.i.i, align 8, !noalias !6
  %arrayidx.i.i.i.i.i.i.i = getelementptr inbounds ptr, ptr %5, i64 %rem.i.i.i.i.i.i.i.i
  %6 = load ptr, ptr %arrayidx.i.i.i.i.i.i.i, align 8, !noalias !6
  %tobool.not.i.i.i.i.i.i.i = icmp eq ptr %6, null
  br i1 %tobool.not.i.i.i.i.i.i.i, label %if.end, label %if.end.i.i.i.i.i.i.i

if.end.i.i.i.i.i.i.i:                             ; preds = %if.end15.i.i.i.i.i
  %7 = load ptr, ptr %6, align 8, !noalias !6
  %8 = load ptr, ptr %n, align 8, !noalias !6
  %add.ptr8.i.i.i.i.i.i.i = getelementptr inbounds i8, ptr %7, i64 8
  %add.ptr.i9.i.i.i.i.i.i.i = getelementptr inbounds i8, ptr %7, i64 24
  %9 = load i64, ptr %add.ptr.i9.i.i.i.i.i.i.i, align 8, !noalias !6
  %cmp.i.i10.i.i.i.i.i.i.i = icmp eq i64 %9, %call2.i.i.i.i.i.i
  %10 = load ptr, ptr %add.ptr8.i.i.i.i.i.i.i, align 8, !noalias !6
  %cmp.i.i.i.i11.i.i.i.i.i.i.i = icmp eq ptr %8, %10
  %11 = select i1 %cmp.i.i10.i.i.i.i.i.i.i, i1 %cmp.i.i.i.i11.i.i.i.i.i.i.i, i1 false
  br i1 %11, label %cleanup.cont, label %if.end3.i.i.i.i.i.i.i

for.cond.i.i.i.i.i.i.i:                           ; preds = %lor.lhs.false.i.i.i.i.i.i.i
  %add.ptr.i.i.i.i.i.i.i = getelementptr inbounds i8, ptr %14, i64 8
  %cmp.i.i.i.i.i.i.i.i.i = icmp eq i64 %15, %call2.i.i.i.i.i.i
  %12 = load ptr, ptr %add.ptr.i.i.i.i.i.i.i, align 8, !noalias !6
  %cmp.i.i.i.i.i.i.i.i.i.i.i = icmp eq ptr %8, %12
  %13 = select i1 %cmp.i.i.i.i.i.i.i.i.i, i1 %cmp.i.i.i.i.i.i.i.i.i.i.i, i1 false
  br i1 %13, label %cleanup.cont, label %if.end3.i.i.i.i.i.i.i, !llvm.loop !10

if.end3.i.i.i.i.i.i.i:                            ; preds = %if.end.i.i.i.i.i.i.i, %for.cond.i.i.i.i.i.i.i
  %__p.012.i.i.i.i.i.i.i = phi ptr [ %14, %for.cond.i.i.i.i.i.i.i ], [ %7, %if.end.i.i.i.i.i.i.i ]
  %14 = load ptr, ptr %__p.012.i.i.i.i.i.i.i, align 8, !noalias !6
  %tobool5.not.i.i.i.i.i.i.i = icmp eq ptr %14, null
  br i1 %tobool5.not.i.i.i.i.i.i.i, label %if.end, label %lor.lhs.false.i.i.i.i.i.i.i

lor.lhs.false.i.i.i.i.i.i.i:                      ; preds = %if.end3.i.i.i.i.i.i.i
  %add.ptr.i.i.i.i.i.i.i.i.i = getelementptr inbounds i8, ptr %14, i64 24
  %15 = load i64, ptr %add.ptr.i.i.i.i.i.i.i.i.i, align 8, !noalias !6
  %rem.i.i.i.i.i.i.i.i.i.i = urem i64 %15, %4
  %cmp.not.i.i.i.i.i.i.i = icmp eq i64 %rem.i.i.i.i.i.i.i.i.i.i, %rem.i.i.i.i.i.i.i.i
  br i1 %cmp.not.i.i.i.i.i.i.i, label %for.cond.i.i.i.i.i.i.i, label %if.end, !llvm.loop !10

if.end:                                           ; preds = %if.end3.i.i.i.i.i.i.i, %lor.lhs.false.i.i.i.i.i.i.i, %for.cond.i.i.i.i.i, %if.end15.i.i.i.i.i
  %d_state = getelementptr inbounds i8, ptr %this, i64 16
  %16 = load ptr, ptr %d_state, align 8
  %call20 = tail call noundef ptr @_ZN4cvc58internal6theory11TheoryState8getModelEv(ptr noundef nonnull align 8 dereferenceable(80) %16)
  %17 = load ptr, ptr %n, align 8
  store ptr %17, ptr %agg.tmp, align 8
  call void @_ZNK4cvc58internal6theory11TheoryModel8getValueENS0_12NodeTemplateILb0EEE(ptr nonnull sret(%"class.cvc5::internal::NodeTemplate.294") align 8 %val, ptr noundef nonnull align 8 dereferenceable(904) %call20, ptr noundef nonnull %agg.tmp)
  %18 = load ptr, ptr %d_state, align 8
  %19 = load ptr, ptr %n, align 8
  store ptr %19, ptr %agg.tmp23, align 8
  %vtable = load ptr, ptr %18, align 8
  %vfn = getelementptr inbounds i8, ptr %vtable, i64 32
  %20 = load ptr, ptr %vfn, align 8
  invoke void %20(ptr nonnull sret(%"class.cvc5::internal::NodeTemplate") align 8 %ref.tmp21, ptr noundef nonnull align 8 dereferenceable(80) %18, ptr noundef nonnull %agg.tmp23)
          to label %invoke.cont27 unwind label %lpad26

invoke.cont27:                                    ; preds = %if.end
  %21 = load ptr, ptr %ref.tmp21, align 8
  store ptr %21, ptr %uval, align 8
  %bf.load.i.i = load i64, ptr %21, align 8
  %bf.lshr.i.i = lshr i64 %bf.load.i.i, 40
  %22 = trunc i64 %bf.lshr.i.i to i32
  %bf.cast.i.i = and i32 %22, 1048575
  %cmp.i.i90 = icmp ult i32 %bf.cast.i.i, 1048574
  br i1 %cmp.i.i90, label %if.then.i.i, label %if.else.i.i

if.then.i.i:                                      ; preds = %invoke.cont27
  %bf.value.i.i = add i64 %bf.load.i.i, 1099511627776
  %bf.shl.i.i = and i64 %bf.value.i.i, 1152920405095219200
  %bf.clear7.i.i = and i64 %bf.load.i.i, -1152920405095219201
  %bf.set.i.i = or disjoint i64 %bf.shl.i.i, %bf.clear7.i.i
  store i64 %bf.set.i.i, ptr %21, align 8
  br label %cond.true34

if.else.i.i:                                      ; preds = %invoke.cont27
  %cmp12.i.i = icmp eq i32 %bf.cast.i.i, 1048574
  br i1 %cmp12.i.i, label %if.then13.i.i, label %cond.true34

if.then13.i.i:                                    ; preds = %if.else.i.i
  %bf.set23.i.i = or i64 %bf.load.i.i, 1152920405095219200
  store i64 %bf.set23.i.i, ptr %21, align 8
  invoke void @_ZN4cvc58internal4expr9NodeValue20markRefCountMaxedOutEv(ptr noundef nonnull align 8 dereferenceable(16) %21)
          to label %cond.true34 unwind label %lpad28

cond.true34:                                      ; preds = %if.then13.i.i, %if.then.i.i, %if.else.i.i
  %23 = load ptr, ptr %val, align 8
  %cmp.i = icmp eq ptr %23, %21
  br i1 %cmp.i, label %cleanup, label %if.end83

lpad26:                                           ; preds = %if.end
  %24 = landingpad { ptr, i32 }
          cleanup
  br label %ehcleanup146

lpad28:                                           ; preds = %if.then13.i.i
  %25 = landingpad { ptr, i32 }
          cleanup
  br label %ehcleanup146

if.end83:                                         ; preds = %cond.true34
  %26 = load atomic i8, ptr @_ZGVZN4cvc58internal4expr9NodeValue4nullEvE6s_null acquire, align 8
  %guard.uninitialized.i.i = icmp eq i8 %26, 0
  br i1 %guard.uninitialized.i.i, label %init.check.i.i, label %invoke.cont86, !prof !11

init.check.i.i:                                   ; preds = %if.end83
  %27 = call i32 @__cxa_guard_acquire(ptr nonnull @_ZGVZN4cvc58internal4expr9NodeValue4nullEvE6s_null) #19
  %tobool.not.i.i = icmp eq i32 %27, 0
  br i1 %tobool.not.i.i, label %invoke.cont86, label %init.i.i

init.i.i:                                         ; preds = %init.check.i.i
  %call.i.i297 = invoke noalias noundef nonnull dereferenceable(16) ptr @_Znwm(i64 noundef 16) #17
          to label %invoke.cont.i.i unwind label %lpad.i.i

invoke.cont.i.i:                                  ; preds = %init.i.i
  store i64 1152920405095219200, ptr %call.i.i297, align 8
  %d_kind.i.i.i = getelementptr inbounds i8, ptr %call.i.i297, i64 8
  store i16 0, ptr %d_kind.i.i.i, align 8
  %d_nchildren.i.i.i = getelementptr inbounds i8, ptr %call.i.i297, i64 12
  store i32 0, ptr %d_nchildren.i.i.i, align 4
  store ptr %call.i.i297, ptr @_ZZN4cvc58internal4expr9NodeValue4nullEvE6s_null, align 8
  call void @__cxa_guard_release(ptr nonnull @_ZGVZN4cvc58internal4expr9NodeValue4nullEvE6s_null) #19
  br label %invoke.cont86

lpad.i.i:                                         ; preds = %init.i.i
  %28 = landingpad { ptr, i32 }
          cleanup
  call void @__cxa_guard_abort(ptr nonnull @_ZGVZN4cvc58internal4expr9NodeValue4nullEvE6s_null) #19
  br label %ehcleanup144

invoke.cont86:                                    ; preds = %if.end83, %init.check.i.i, %invoke.cont.i.i
  %29 = load ptr, ptr @_ZZN4cvc58internal4expr9NodeValue4nullEvE6s_null, align 8
  store ptr %29, ptr %lem, align 8
  %30 = load ptr, ptr %n, align 8
  %d_kind.i = getelementptr inbounds i8, ptr %30, i64 8
  %bf.load.i = load i16, ptr %d_kind.i, align 8
  %bf.clear.i = and i16 %bf.load.i, 1023
  %bf.cast.i = zext nneg i16 %bf.clear.i to i32
  switch i32 %bf.cast.i, label %if.end112 [
    i32 33, label %if.then88
    i32 35, label %if.then100
  ]

if.then88:                                        ; preds = %invoke.cont86
  store ptr %30, ptr %agg.tmp90, align 8
  invoke void @_ZN4cvc58internal6theory5arith15eliminateBv2NatENS0_12NodeTemplateILb0EEE(ptr nonnull sret(%"class.cvc5::internal::NodeTemplate.294") align 8 %ref.tmp89, ptr noundef nonnull %agg.tmp90)
          to label %invoke.cont93 unwind label %lpad92

invoke.cont93:                                    ; preds = %if.then88
  %31 = load ptr, ptr %lem, align 8
  %32 = load ptr, ptr %ref.tmp89, align 8
  %cmp.not.i298 = icmp eq ptr %31, %32
  br i1 %cmp.not.i298, label %invoke.cont95, label %if.then.i299

if.then.i299:                                     ; preds = %invoke.cont93
  %bf.load.i.i300 = load i64, ptr %31, align 8
  %33 = and i64 %bf.load.i.i300, 1152920405095219200
  %cmp.not.i.i = icmp eq i64 %33, 1152920405095219200
  br i1 %cmp.not.i.i, label %_ZN4cvc58internal4expr9NodeValue3decEv.exit.i, label %if.then.i.i301

if.then.i.i301:                                   ; preds = %if.then.i299
  %bf.value.i.i302 = add i64 %bf.load.i.i300, 1152920405095219200
  %bf.shl.i.i303 = and i64 %bf.value.i.i302, 1152920405095219200
  %bf.clear7.i.i304 = and i64 %bf.load.i.i300, -1152920405095219201
  %bf.set.i.i305 = or disjoint i64 %bf.shl.i.i303, %bf.clear7.i.i304
  store i64 %bf.set.i.i305, ptr %31, align 8
  %cmp12.i.i306 = icmp eq i64 %bf.shl.i.i303, 0
  br i1 %cmp12.i.i306, label %if.then13.i.i313, label %_ZN4cvc58internal4expr9NodeValue3decEv.exit.i

if.then13.i.i313:                                 ; preds = %if.then.i.i301
  invoke void @_ZN4cvc58internal4expr9NodeValue15markForDeletionEv(ptr noundef nonnull align 8 dereferenceable(16) %31)
          to label %_ZN4cvc58internal4expr9NodeValue3decEv.exit.i unwind label %lpad94

_ZN4cvc58internal4expr9NodeValue3decEv.exit.i:    ; preds = %if.then13.i.i313, %if.then.i.i301, %if.then.i299
  %34 = load ptr, ptr %ref.tmp89, align 8
  store ptr %34, ptr %lem, align 8
  %bf.load.i2.i = load i64, ptr %34, align 8
  %bf.lshr.i.i307 = lshr i64 %bf.load.i2.i, 40
  %35 = trunc i64 %bf.lshr.i.i307 to i32
  %bf.cast.i.i308 = and i32 %35, 1048575
  %cmp.i.i309 = icmp ult i32 %bf.cast.i.i308, 1048574
  br i1 %cmp.i.i309, label %if.then.i5.i, label %if.else.i.i310

if.then.i5.i:                                     ; preds = %_ZN4cvc58internal4expr9NodeValue3decEv.exit.i
  %bf.value.i6.i = add i64 %bf.load.i2.i, 1099511627776
  %bf.shl.i7.i = and i64 %bf.value.i6.i, 1152920405095219200
  %bf.clear7.i8.i = and i64 %bf.load.i2.i, -1152920405095219201
  %bf.set.i9.i = or disjoint i64 %bf.shl.i7.i, %bf.clear7.i8.i
  store i64 %bf.set.i9.i, ptr %34, align 8
  br label %invoke.cont95

if.else.i.i310:                                   ; preds = %_ZN4cvc58internal4expr9NodeValue3decEv.exit.i
  %cmp12.i3.i = icmp eq i32 %bf.cast.i.i308, 1048574
  br i1 %cmp12.i3.i, label %if.then13.i4.i, label %invoke.cont95

if.then13.i4.i:                                   ; preds = %if.else.i.i310
  %bf.set23.i.i312 = or i64 %bf.load.i2.i, 1152920405095219200
  store i64 %bf.set23.i.i312, ptr %34, align 8
  invoke void @_ZN4cvc58internal4expr9NodeValue20markRefCountMaxedOutEv(ptr noundef nonnull align 8 dereferenceable(16) %34)
          to label %invoke.cont95 unwind label %lpad94

invoke.cont95:                                    ; preds = %if.else.i.i310, %if.then.i5.i, %invoke.cont93, %if.then13.i4.i
  %36 = load ptr, ptr %ref.tmp89, align 8
  %bf.load.i.i316 = load i64, ptr %36, align 8
  %37 = and i64 %bf.load.i.i316, 1152920405095219200
  %cmp.not.i.i317 = icmp eq i64 %37, 1152920405095219200
  br i1 %cmp.not.i.i317, label %if.end112, label %if.then.i.i318

if.then.i.i318:                                   ; preds = %invoke.cont95
  %bf.value.i.i319 = add i64 %bf.load.i.i316, 1152920405095219200
  %bf.shl.i.i320 = and i64 %bf.value.i.i319, 1152920405095219200
  %bf.clear7.i.i321 = and i64 %bf.load.i.i316, -1152920405095219201
  %bf.set.i.i322 = or disjoint i64 %bf.shl.i.i320, %bf.clear7.i.i321
  store i64 %bf.set.i.i322, ptr %36, align 8
  %cmp12.i.i323 = icmp eq i64 %bf.shl.i.i320, 0
  br i1 %cmp12.i.i323, label %if.then13.i.i324, label %if.end112

if.then13.i.i324:                                 ; preds = %if.then.i.i318
  invoke void @_ZN4cvc58internal4expr9NodeValue15markForDeletionEv(ptr noundef nonnull align 8 dereferenceable(16) %36)
          to label %if.end112 unwind label %terminate.lpad.i

terminate.lpad.i:                                 ; preds = %if.then13.i.i324
  %38 = landingpad { ptr, i32 }
          catch ptr null
  %39 = extractvalue { ptr, i32 } %38, 0
  call void @__clang_call_terminate(ptr %39) #20
  unreachable

lpad85:                                           ; preds = %invoke.cont122, %if.end112
  %40 = landingpad { ptr, i32 }
          cleanup
  br label %ehcleanup143

lpad92:                                           ; preds = %if.then88
  %41 = landingpad { ptr, i32 }
          cleanup
  br label %ehcleanup143

lpad94:                                           ; preds = %if.then13.i4.i, %if.then13.i.i313
  %42 = landingpad { ptr, i32 }
          cleanup
  call void @_ZN4cvc58internal12NodeTemplateILb1EED2Ev(ptr noundef nonnull align 8 dereferenceable(8) %ref.tmp89) #19
  br label %ehcleanup143

if.then100:                                       ; preds = %invoke.cont86
  store ptr %30, ptr %agg.tmp102, align 8
  invoke void @_ZN4cvc58internal6theory5arith15eliminateInt2BvENS0_12NodeTemplateILb0EEE(ptr nonnull sret(%"class.cvc5::internal::NodeTemplate.294") align 8 %ref.tmp101, ptr noundef nonnull %agg.tmp102)
          to label %invoke.cont105 unwind label %lpad104

invoke.cont105:                                   ; preds = %if.then100
  %43 = load ptr, ptr %lem, align 8
  %44 = load ptr, ptr %ref.tmp101, align 8
  %cmp.not.i325 = icmp eq ptr %43, %44
  br i1 %cmp.not.i325, label %invoke.cont107, label %if.then.i326

if.then.i326:                                     ; preds = %invoke.cont105
  %bf.load.i.i327 = load i64, ptr %43, align 8
  %45 = and i64 %bf.load.i.i327, 1152920405095219200
  %cmp.not.i.i328 = icmp eq i64 %45, 1152920405095219200
  br i1 %cmp.not.i.i328, label %_ZN4cvc58internal4expr9NodeValue3decEv.exit.i335, label %if.then.i.i329

if.then.i.i329:                                   ; preds = %if.then.i326
  %bf.value.i.i330 = add i64 %bf.load.i.i327, 1152920405095219200
  %bf.shl.i.i331 = and i64 %bf.value.i.i330, 1152920405095219200
  %bf.clear7.i.i332 = and i64 %bf.load.i.i327, -1152920405095219201
  %bf.set.i.i333 = or disjoint i64 %bf.shl.i.i331, %bf.clear7.i.i332
  store i64 %bf.set.i.i333, ptr %43, align 8
  %cmp12.i.i334 = icmp eq i64 %bf.shl.i.i331, 0
  br i1 %cmp12.i.i334, label %if.then13.i.i350, label %_ZN4cvc58internal4expr9NodeValue3decEv.exit.i335

if.then13.i.i350:                                 ; preds = %if.then.i.i329
  invoke void @_ZN4cvc58internal4expr9NodeValue15markForDeletionEv(ptr noundef nonnull align 8 dereferenceable(16) %43)
          to label %_ZN4cvc58internal4expr9NodeValue3decEv.exit.i335 unwind label %lpad106

_ZN4cvc58internal4expr9NodeValue3decEv.exit.i335: ; preds = %if.then13.i.i350, %if.then.i.i329, %if.then.i326
  %46 = load ptr, ptr %ref.tmp101, align 8
  store ptr %46, ptr %lem, align 8
  %bf.load.i2.i336 = load i64, ptr %46, align 8
  %bf.lshr.i.i337 = lshr i64 %bf.load.i2.i336, 40
  %47 = trunc i64 %bf.lshr.i.i337 to i32
  %bf.cast.i.i338 = and i32 %47, 1048575
  %cmp.i.i339 = icmp ult i32 %bf.cast.i.i338, 1048574
  br i1 %cmp.i.i339, label %if.then.i5.i345, label %if.else.i.i340

if.then.i5.i345:                                  ; preds = %_ZN4cvc58internal4expr9NodeValue3decEv.exit.i335
  %bf.value.i6.i346 = add i64 %bf.load.i2.i336, 1099511627776
  %bf.shl.i7.i347 = and i64 %bf.value.i6.i346, 1152920405095219200
  %bf.clear7.i8.i348 = and i64 %bf.load.i2.i336, -1152920405095219201
  %bf.set.i9.i349 = or disjoint i64 %bf.shl.i7.i347, %bf.clear7.i8.i348
  store i64 %bf.set.i9.i349, ptr %46, align 8
  br label %invoke.cont107

if.else.i.i340:                                   ; preds = %_ZN4cvc58internal4expr9NodeValue3decEv.exit.i335
  %cmp12.i3.i341 = icmp eq i32 %bf.cast.i.i338, 1048574
  br i1 %cmp12.i3.i341, label %if.then13.i4.i343, label %invoke.cont107

if.then13.i4.i343:                                ; preds = %if.else.i.i340
  %bf.set23.i.i344 = or i64 %bf.load.i2.i336, 1152920405095219200
  store i64 %bf.set23.i.i344, ptr %46, align 8
  invoke void @_ZN4cvc58internal4expr9NodeValue20markRefCountMaxedOutEv(ptr noundef nonnull align 8 dereferenceable(16) %46)
          to label %invoke.cont107 unwind label %lpad106

invoke.cont107:                                   ; preds = %if.else.i.i340, %if.then.i5.i345, %invoke.cont105, %if.then13.i4.i343
  %48 = load ptr, ptr %ref.tmp101, align 8
  %bf.load.i.i354 = load i64, ptr %48, align 8
  %49 = and i64 %bf.load.i.i354, 1152920405095219200
  %cmp.not.i.i355 = icmp eq i64 %49, 1152920405095219200
  br i1 %cmp.not.i.i355, label %if.end112, label %if.then.i.i356

if.then.i.i356:                                   ; preds = %invoke.cont107
  %bf.value.i.i357 = add i64 %bf.load.i.i354, 1152920405095219200
  %bf.shl.i.i358 = and i64 %bf.value.i.i357, 1152920405095219200
  %bf.clear7.i.i359 = and i64 %bf.load.i.i354, -1152920405095219201
  %bf.set.i.i360 = or disjoint i64 %bf.shl.i.i358, %bf.clear7.i.i359
  store i64 %bf.set.i.i360, ptr %48, align 8
  %cmp12.i.i361 = icmp eq i64 %bf.shl.i.i358, 0
  br i1 %cmp12.i.i361, label %if.then13.i.i362, label %if.end112

if.then13.i.i362:                                 ; preds = %if.then.i.i356
  invoke void @_ZN4cvc58internal4expr9NodeValue15markForDeletionEv(ptr noundef nonnull align 8 dereferenceable(16) %48)
          to label %if.end112 unwind label %terminate.lpad.i363

terminate.lpad.i363:                              ; preds = %if.then13.i.i362
  %50 = landingpad { ptr, i32 }
          catch ptr null
  %51 = extractvalue { ptr, i32 } %50, 0
  call void @__clang_call_terminate(ptr %51) #20
  unreachable

lpad104:                                          ; preds = %if.then100
  %52 = landingpad { ptr, i32 }
          cleanup
  br label %ehcleanup143

lpad106:                                          ; preds = %if.then13.i4.i343, %if.then13.i.i350
  %53 = landingpad { ptr, i32 }
          cleanup
  call void @_ZN4cvc58internal12NodeTemplateILb1EED2Ev(ptr noundef nonnull align 8 dereferenceable(8) %ref.tmp101) #19
  br label %ehcleanup143

if.end112:                                        ; preds = %if.then13.i.i362, %if.then.i.i356, %invoke.cont107, %if.then13.i.i324, %if.then.i.i318, %invoke.cont95, %invoke.cont86
  invoke void @_ZNK4cvc58internal12NodeTemplateILb1EE6eqNodeILb1EEES2_RKNS1_IXT_EEE(ptr nonnull sret(%"class.cvc5::internal::NodeTemplate.294") align 8 %ref.tmp113, ptr noundef nonnull align 8 dereferenceable(8) %n, ptr noundef nonnull align 8 dereferenceable(8) %lem)
          to label %invoke.cont114 unwind label %lpad85

invoke.cont114:                                   ; preds = %if.end112
  %54 = load ptr, ptr %lem, align 8
  %55 = load ptr, ptr %ref.tmp113, align 8
  %cmp.not.i365 = icmp eq ptr %54, %55
  br i1 %cmp.not.i365, label %invoke.cont116, label %if.then.i366

if.then.i366:                                     ; preds = %invoke.cont114
  %bf.load.i.i367 = load i64, ptr %54, align 8
  %56 = and i64 %bf.load.i.i367, 1152920405095219200
  %cmp.not.i.i368 = icmp eq i64 %56, 1152920405095219200
  br i1 %cmp.not.i.i368, label %_ZN4cvc58internal4expr9NodeValue3decEv.exit.i375, label %if.then.i.i369

if.then.i.i369:                                   ; preds = %if.then.i366
  %bf.value.i.i370 = add i64 %bf.load.i.i367, 1152920405095219200
  %bf.shl.i.i371 = and i64 %bf.value.i.i370, 1152920405095219200
  %bf.clear7.i.i372 = and i64 %bf.load.i.i367, -1152920405095219201
  %bf.set.i.i373 = or disjoint i64 %bf.shl.i.i371, %bf.clear7.i.i372
  store i64 %bf.set.i.i373, ptr %54, align 8
  %cmp12.i.i374 = icmp eq i64 %bf.shl.i.i371, 0
  br i1 %cmp12.i.i374, label %if.then13.i.i390, label %_ZN4cvc58internal4expr9NodeValue3decEv.exit.i375

if.then13.i.i390:                                 ; preds = %if.then.i.i369
  invoke void @_ZN4cvc58internal4expr9NodeValue15markForDeletionEv(ptr noundef nonnull align 8 dereferenceable(16) %54)
          to label %_ZN4cvc58internal4expr9NodeValue3decEv.exit.i375 unwind label %lpad115

_ZN4cvc58internal4expr9NodeValue3decEv.exit.i375: ; preds = %if.then13.i.i390, %if.then.i.i369, %if.then.i366
  %57 = load ptr, ptr %ref.tmp113, align 8
  store ptr %57, ptr %lem, align 8
  %bf.load.i2.i376 = load i64, ptr %57, align 8
  %bf.lshr.i.i377 = lshr i64 %bf.load.i2.i376, 40
  %58 = trunc i64 %bf.lshr.i.i377 to i32
  %bf.cast.i.i378 = and i32 %58, 1048575
  %cmp.i.i379 = icmp ult i32 %bf.cast.i.i378, 1048574
  br i1 %cmp.i.i379, label %if.then.i5.i385, label %if.else.i.i380

if.then.i5.i385:                                  ; preds = %_ZN4cvc58internal4expr9NodeValue3decEv.exit.i375
  %bf.value.i6.i386 = add i64 %bf.load.i2.i376, 1099511627776
  %bf.shl.i7.i387 = and i64 %bf.value.i6.i386, 1152920405095219200
  %bf.clear7.i8.i388 = and i64 %bf.load.i2.i376, -1152920405095219201
  %bf.set.i9.i389 = or disjoint i64 %bf.shl.i7.i387, %bf.clear7.i8.i388
  store i64 %bf.set.i9.i389, ptr %57, align 8
  br label %invoke.cont116

if.else.i.i380:                                   ; preds = %_ZN4cvc58internal4expr9NodeValue3decEv.exit.i375
  %cmp12.i3.i381 = icmp eq i32 %bf.cast.i.i378, 1048574
  br i1 %cmp12.i3.i381, label %if.then13.i4.i383, label %invoke.cont116

if.then13.i4.i383:                                ; preds = %if.else.i.i380
  %bf.set23.i.i384 = or i64 %bf.load.i2.i376, 1152920405095219200
  store i64 %bf.set23.i.i384, ptr %57, align 8
  invoke void @_ZN4cvc58internal4expr9NodeValue20markRefCountMaxedOutEv(ptr noundef nonnull align 8 dereferenceable(16) %57)
          to label %invoke.cont116 unwind label %lpad115

invoke.cont116:                                   ; preds = %if.else.i.i380, %if.then.i5.i385, %invoke.cont114, %if.then13.i4.i383
  %59 = load ptr, ptr %ref.tmp113, align 8
  %bf.load.i.i394 = load i64, ptr %59, align 8
  %60 = and i64 %bf.load.i.i394, 1152920405095219200
  %cmp.not.i.i395 = icmp eq i64 %60, 1152920405095219200
  br i1 %cmp.not.i.i395, label %_ZN4cvc58internal12NodeTemplateILb1EED2Ev.exit404, label %if.then.i.i396

if.then.i.i396:                                   ; preds = %invoke.cont116
  %bf.value.i.i397 = add i64 %bf.load.i.i394, 1152920405095219200
  %bf.shl.i.i398 = and i64 %bf.value.i.i397, 1152920405095219200
  %bf.clear7.i.i399 = and i64 %bf.load.i.i394, -1152920405095219201
  %bf.set.i.i400 = or disjoint i64 %bf.shl.i.i398, %bf.clear7.i.i399
  store i64 %bf.set.i.i400, ptr %59, align 8
  %cmp12.i.i401 = icmp eq i64 %bf.shl.i.i398, 0
  br i1 %cmp12.i.i401, label %if.then13.i.i402, label %_ZN4cvc58internal12NodeTemplateILb1EED2Ev.exit404

if.then13.i.i402:                                 ; preds = %if.then.i.i396
  invoke void @_ZN4cvc58internal4expr9NodeValue15markForDeletionEv(ptr noundef nonnull align 8 dereferenceable(16) %59)
          to label %_ZN4cvc58internal12NodeTemplateILb1EED2Ev.exit404 unwind label %terminate.lpad.i403

terminate.lpad.i403:                              ; preds = %if.then13.i.i402
  %61 = landingpad { ptr, i32 }
          catch ptr null
  %62 = extractvalue { ptr, i32 } %61, 0
  call void @__clang_call_terminate(ptr %62) #20
  unreachable

_ZN4cvc58internal12NodeTemplateILb1EED2Ev.exit404: ; preds = %invoke.cont116, %if.then.i.i396, %if.then13.i.i402
  %d_im = getelementptr inbounds i8, ptr %this, i64 24
  %63 = load ptr, ptr %d_im, align 8
  %64 = load ptr, ptr %lem, align 8
  store ptr %64, ptr %agg.tmp119, align 8
  %call123 = invoke noundef zeroext i1 @_ZN4cvc58internal6theory22TheoryInferenceManager5lemmaENS0_12NodeTemplateILb0EEENS1_11InferenceIdENS1_13LemmaPropertyE(ptr noundef nonnull align 8 dereferenceable(256) %63, ptr noundef nonnull %agg.tmp119, i32 noundef 377, i32 noundef 0)
          to label %invoke.cont122 unwind label %lpad121

invoke.cont122:                                   ; preds = %_ZN4cvc58internal12NodeTemplateILb1EED2Ev.exit404
  call void @llvm.lifetime.start.p0(i64 1, ptr nonnull %ref.tmp.i)
  store i8 1, ptr %ref.tmp.i, align 1
  %call.i405406 = invoke noundef zeroext i1 @_ZN4cvc57context15CDInsertHashMapINS_8internal12NodeTemplateILb1EEEbSt4hashIS4_EE11insert_safeERKS4_RKb(ptr noundef nonnull align 8 dereferenceable(56) %d_reduced, ptr noundef nonnull align 8 dereferenceable(8) %n, ptr noundef nonnull align 1 dereferenceable(1) %ref.tmp.i)
          to label %cond.true131 unwind label %lpad85

cond.true131:                                     ; preds = %invoke.cont122
  call void @llvm.lifetime.end.p0(i64 1, ptr nonnull %ref.tmp.i)
  %65 = load ptr, ptr %lem, align 8
  %bf.load.i.i453 = load i64, ptr %65, align 8
  %66 = and i64 %bf.load.i.i453, 1152920405095219200
  %cmp.not.i.i454 = icmp eq i64 %66, 1152920405095219200
  br i1 %cmp.not.i.i454, label %cleanup, label %if.then.i.i455

if.then.i.i455:                                   ; preds = %cond.true131
  %bf.value.i.i456 = add i64 %bf.load.i.i453, 1152920405095219200
  %bf.shl.i.i457 = and i64 %bf.value.i.i456, 1152920405095219200
  %bf.clear7.i.i458 = and i64 %bf.load.i.i453, -1152920405095219201
  %bf.set.i.i459 = or disjoint i64 %bf.shl.i.i457, %bf.clear7.i.i458
  store i64 %bf.set.i.i459, ptr %65, align 8
  %cmp12.i.i460 = icmp eq i64 %bf.shl.i.i457, 0
  br i1 %cmp12.i.i460, label %if.then13.i.i461, label %cleanup

if.then13.i.i461:                                 ; preds = %if.then.i.i455
  invoke void @_ZN4cvc58internal4expr9NodeValue15markForDeletionEv(ptr noundef nonnull align 8 dereferenceable(16) %65)
          to label %cleanup unwind label %terminate.lpad.i462

terminate.lpad.i462:                              ; preds = %if.then13.i.i461
  %67 = landingpad { ptr, i32 }
          catch ptr null
  %68 = extractvalue { ptr, i32 } %67, 0
  call void @__clang_call_terminate(ptr %68) #20
  unreachable

cleanup:                                          ; preds = %cond.true34, %if.then13.i.i461, %if.then.i.i455, %cond.true131
  %69 = load ptr, ptr %uval, align 8
  %bf.load.i.i464 = load i64, ptr %69, align 8
  %70 = and i64 %bf.load.i.i464, 1152920405095219200
  %cmp.not.i.i465 = icmp eq i64 %70, 1152920405095219200
  br i1 %cmp.not.i.i465, label %_ZN4cvc58internal12NodeTemplateILb1EED2Ev.exit474, label %if.then.i.i466

if.then.i.i466:                                   ; preds = %cleanup
  %bf.value.i.i467 = add i64 %bf.load.i.i464, 1152920405095219200
  %bf.shl.i.i468 = and i64 %bf.value.i.i467, 1152920405095219200
  %bf.clear7.i.i469 = and i64 %bf.load.i.i464, -1152920405095219201
  %bf.set.i.i470 = or disjoint i64 %bf.shl.i.i468, %bf.clear7.i.i469
  store i64 %bf.set.i.i470, ptr %69, align 8
  %cmp12.i.i471 = icmp eq i64 %bf.shl.i.i468, 0
  br i1 %cmp12.i.i471, label %if.then13.i.i472, label %_ZN4cvc58internal12NodeTemplateILb1EED2Ev.exit474

if.then13.i.i472:                                 ; preds = %if.then.i.i466
  invoke void @_ZN4cvc58internal4expr9NodeValue15markForDeletionEv(ptr noundef nonnull align 8 dereferenceable(16) %69)
          to label %_ZN4cvc58internal12NodeTemplateILb1EED2Ev.exit474 unwind label %terminate.lpad.i473

terminate.lpad.i473:                              ; preds = %if.then13.i.i472
  %71 = landingpad { ptr, i32 }
          catch ptr null
  %72 = extractvalue { ptr, i32 } %71, 0
  call void @__clang_call_terminate(ptr %72) #20
  unreachable

_ZN4cvc58internal12NodeTemplateILb1EED2Ev.exit474: ; preds = %cleanup, %if.then.i.i466, %if.then13.i.i472
  %73 = load ptr, ptr %val, align 8
  %bf.load.i.i475 = load i64, ptr %73, align 8
  %74 = and i64 %bf.load.i.i475, 1152920405095219200
  %cmp.not.i.i476 = icmp eq i64 %74, 1152920405095219200
  br i1 %cmp.not.i.i476, label %cleanup.cont, label %if.then.i.i477

if.then.i.i477:                                   ; preds = %_ZN4cvc58internal12NodeTemplateILb1EED2Ev.exit474
  %bf.value.i.i478 = add i64 %bf.load.i.i475, 1152920405095219200
  %bf.shl.i.i479 = and i64 %bf.value.i.i478, 1152920405095219200
  %bf.clear7.i.i480 = and i64 %bf.load.i.i475, -1152920405095219201
  %bf.set.i.i481 = or disjoint i64 %bf.shl.i.i479, %bf.clear7.i.i480
  store i64 %bf.set.i.i481, ptr %73, align 8
  %cmp12.i.i482 = icmp eq i64 %bf.shl.i.i479, 0
  br i1 %cmp12.i.i482, label %if.then13.i.i483, label %cleanup.cont

if.then13.i.i483:                                 ; preds = %if.then.i.i477
  invoke void @_ZN4cvc58internal4expr9NodeValue15markForDeletionEv(ptr noundef nonnull align 8 dereferenceable(16) %73)
          to label %cleanup.cont unwind label %terminate.lpad.i484

terminate.lpad.i484:                              ; preds = %if.then13.i.i483
  %75 = landingpad { ptr, i32 }
          catch ptr null
  %76 = extractvalue { ptr, i32 } %75, 0
  call void @__clang_call_terminate(ptr %76) #20
  unreachable

cleanup.cont:                                     ; preds = %for.cond.i.i.i.i.i.i.i, %for.body.i.i.i.i.i, %if.end.i.i.i.i.i.i.i, %if.then13.i.i483, %if.then.i.i477, %_ZN4cvc58internal12NodeTemplateILb1EED2Ev.exit474
  ret void

lpad115:                                          ; preds = %if.then13.i4.i383, %if.then13.i.i390
  %77 = landingpad { ptr, i32 }
          cleanup
  call void @_ZN4cvc58internal12NodeTemplateILb1EED2Ev(ptr noundef nonnull align 8 dereferenceable(8) %ref.tmp113) #19
  br label %ehcleanup143

lpad121:                                          ; preds = %_ZN4cvc58internal12NodeTemplateILb1EED2Ev.exit404
  %78 = landingpad { ptr, i32 }
          cleanup
  br label %ehcleanup143

ehcleanup143:                                     ; preds = %lpad104, %lpad106, %lpad92, %lpad94, %lpad121, %lpad115, %lpad85
  %.pn7 = phi { ptr, i32 } [ %40, %lpad85 ], [ %78, %lpad121 ], [ %77, %lpad115 ], [ %42, %lpad94 ], [ %41, %lpad92 ], [ %53, %lpad106 ], [ %52, %lpad104 ]
  call void @_ZN4cvc58internal12NodeTemplateILb1EED2Ev(ptr noundef nonnull align 8 dereferenceable(8) %lem) #19
  br label %ehcleanup144

ehcleanup144:                                     ; preds = %lpad.i.i, %ehcleanup143
  %.pn9 = phi { ptr, i32 } [ %.pn7, %ehcleanup143 ], [ %28, %lpad.i.i ]
  call void @_ZN4cvc58internal12NodeTemplateILb1EED2Ev(ptr noundef nonnull align 8 dereferenceable(8) %uval) #19
  br label %ehcleanup146

ehcleanup146:                                     ; preds = %lpad26, %lpad28, %ehcleanup144
  %.pn9.pn = phi { ptr, i32 } [ %.pn9, %ehcleanup144 ], [ %25, %lpad28 ], [ %24, %lpad26 ]
  call void @_ZN4cvc58internal12NodeTemplateILb1EED2Ev(ptr noundef nonnull align 8 dereferenceable(8) %val) #19
  resume { ptr, i32 } %.pn9.pn
}

declare noundef ptr @_ZN4cvc58internal6theory11TheoryState8getModelEv(ptr noundef nonnull align 8 dereferenceable(80)) local_unnamed_addr #0

declare void @_ZNK4cvc58internal6theory11TheoryModel8getValueENS0_12NodeTemplateILb0EEE(ptr sret(%"class.cvc5::internal::NodeTemplate.294") align 8, ptr noundef nonnull align 8 dereferenceable(904), ptr noundef) local_unnamed_addr #0

declare void @_ZN4cvc58internal6theory5arith15eliminateBv2NatENS0_12NodeTemplateILb0EEE(ptr sret(%"class.cvc5::internal::NodeTemplate.294") align 8, ptr noundef) local_unnamed_addr #0

declare void @_ZN4cvc58internal6theory5arith15eliminateInt2BvENS0_12NodeTemplateILb0EEE(ptr sret(%"class.cvc5::internal::NodeTemplate.294") align 8, ptr noundef) local_unnamed_addr #0

; Function Attrs: mustprogress uwtable
define linkonce_odr hidden void @_ZNK4cvc58internal12NodeTemplateILb1EE6eqNodeILb1EEES2_RKNS1_IXT_EEE(ptr noalias sret(%"class.cvc5::internal::NodeTemplate.294") align 8 %agg.result, ptr noundef nonnull align 8 dereferenceable(8) %this, ptr noundef nonnull align 8 dereferenceable(8) %right) local_unnamed_addr #3 comdat align 2 personality ptr @__gxx_personality_v0 {
entry:
  %nb.i = alloca %"class.cvc5::internal::NodeBuilder", align 8
  %agg.tmp.i = alloca %"class.cvc5::internal::NodeTemplate", align 8
  %agg.tmp4.i = alloca %"class.cvc5::internal::NodeTemplate", align 8
  %call = tail call noundef ptr @_ZN4cvc58internal11NodeManager9currentNMEv()
  %0 = load ptr, ptr %this, align 8
  %1 = load ptr, ptr %right, align 8
  call void @llvm.lifetime.start.p0(i64 120, ptr nonnull %nb.i)
  call void @llvm.lifetime.start.p0(i64 8, ptr nonnull %agg.tmp.i)
  call void @llvm.lifetime.start.p0(i64 8, ptr nonnull %agg.tmp4.i)
  call void @_ZN4cvc58internal11NodeBuilderC1EPNS0_11NodeManagerENS0_4kind6Kind_tE(ptr noundef nonnull align 8 dereferenceable(116) %nb.i, ptr noundef nonnull %call, i32 noundef 5)
  store ptr %0, ptr %agg.tmp.i, align 8, !noalias !12
  %call.i = invoke noundef nonnull align 8 dereferenceable(116) ptr @_ZN4cvc58internal11NodeBuilderlsENS0_12NodeTemplateILb0EEE(ptr noundef nonnull align 8 dereferenceable(116) %nb.i, ptr noundef nonnull %agg.tmp.i)
          to label %invoke.cont3.i unwind label %lpad2.i, !noalias !12

invoke.cont3.i:                                   ; preds = %entry
  store ptr %1, ptr %agg.tmp4.i, align 8, !noalias !12
  %call8.i = invoke noundef nonnull align 8 dereferenceable(116) ptr @_ZN4cvc58internal11NodeBuilderlsENS0_12NodeTemplateILb0EEE(ptr noundef nonnull align 8 dereferenceable(116) %call.i, ptr noundef nonnull %agg.tmp4.i)
          to label %invoke.cont7.i unwind label %lpad6.i, !noalias !12

invoke.cont7.i:                                   ; preds = %invoke.cont3.i
  invoke void @_ZN4cvc58internal11NodeBuilder13constructNodeEv(ptr sret(%"class.cvc5::internal::NodeTemplate.294") align 8 %agg.result, ptr noundef nonnull align 8 dereferenceable(116) %nb.i)
          to label %invoke.cont4 unwind label %lpad.i

lpad.i:                                           ; preds = %invoke.cont7.i
  %2 = landingpad { ptr, i32 }
          cleanup
  br label %ehcleanup10.i

lpad2.i:                                          ; preds = %entry
  %3 = landingpad { ptr, i32 }
          cleanup
  br label %ehcleanup10.i

lpad6.i:                                          ; preds = %invoke.cont3.i
  %4 = landingpad { ptr, i32 }
          cleanup
  br label %ehcleanup10.i

ehcleanup10.i:                                    ; preds = %lpad6.i, %lpad2.i, %lpad.i
  %.pn2.i = phi { ptr, i32 } [ %2, %lpad.i ], [ %4, %lpad6.i ], [ %3, %lpad2.i ]
  call void @_ZN4cvc58internal11NodeBuilderD1Ev(ptr noundef nonnull align 8 dereferenceable(116) %nb.i) #19
  resume { ptr, i32 } %.pn2.i

invoke.cont4:                                     ; preds = %invoke.cont7.i
  call void @_ZN4cvc58internal11NodeBuilderD1Ev(ptr noundef nonnull align 8 dereferenceable(116) %nb.i) #19
  call void @llvm.lifetime.end.p0(i64 120, ptr nonnull %nb.i)
  call void @llvm.lifetime.end.p0(i64 8, ptr nonnull %agg.tmp.i)
  call void @llvm.lifetime.end.p0(i64 8, ptr nonnull %agg.tmp4.i)
  ret void
}

declare noundef zeroext i1 @_ZN4cvc58internal6theory22TheoryInferenceManager5lemmaENS0_12NodeTemplateILb0EEENS1_11InferenceIdENS1_13LemmaPropertyE(ptr noundef nonnull align 8 dereferenceable(256), ptr noundef, i32 noundef, i32 noundef) local_unnamed_addr #0

; Function Attrs: uwtable
define internal void @__cxx_global_var_init.9() #7 section ".text.startup" comdat($_ZN4cvc58internal12NodeTemplateILb1EE6s_nullE) personality ptr @__gxx_personality_v0 {
entry:
  %0 = load i8, ptr @_ZGVN4cvc58internal12NodeTemplateILb1EE6s_nullE, align 8
  %guard.uninitialized = icmp eq i8 %0, 0
  br i1 %guard.uninitialized, label %init.check, label %init.end

init.check:                                       ; preds = %entry
  store i8 1, ptr @_ZGVN4cvc58internal12NodeTemplateILb1EE6s_nullE, align 8
  %1 = load atomic i8, ptr @_ZGVZN4cvc58internal4expr9NodeValue4nullEvE6s_null acquire, align 8
  %guard.uninitialized.i = icmp eq i8 %1, 0
  br i1 %guard.uninitialized.i, label %init.check.i, label %_ZN4cvc58internal4expr9NodeValue4nullEv.exit, !prof !11

init.check.i:                                     ; preds = %init.check
  %2 = tail call i32 @__cxa_guard_acquire(ptr nonnull @_ZGVZN4cvc58internal4expr9NodeValue4nullEvE6s_null) #19
  %tobool.not.i = icmp eq i32 %2, 0
  br i1 %tobool.not.i, label %_ZN4cvc58internal4expr9NodeValue4nullEv.exit, label %init.i

init.i:                                           ; preds = %init.check.i
  %call.i = invoke noalias noundef nonnull dereferenceable(16) ptr @_Znwm(i64 noundef 16) #17
          to label %invoke.cont.i unwind label %lpad.i

invoke.cont.i:                                    ; preds = %init.i
  store i64 1152920405095219200, ptr %call.i, align 8
  %d_kind.i.i = getelementptr inbounds i8, ptr %call.i, i64 8
  store i16 0, ptr %d_kind.i.i, align 8
  %d_nchildren.i.i = getelementptr inbounds i8, ptr %call.i, i64 12
  store i32 0, ptr %d_nchildren.i.i, align 4
  store ptr %call.i, ptr @_ZZN4cvc58internal4expr9NodeValue4nullEvE6s_null, align 8
  tail call void @__cxa_guard_release(ptr nonnull @_ZGVZN4cvc58internal4expr9NodeValue4nullEvE6s_null) #19
  br label %_ZN4cvc58internal4expr9NodeValue4nullEv.exit

lpad.i:                                           ; preds = %init.i
  %3 = landingpad { ptr, i32 }
          cleanup
  tail call void @__cxa_guard_abort(ptr nonnull @_ZGVZN4cvc58internal4expr9NodeValue4nullEvE6s_null) #19
  resume { ptr, i32 } %3

_ZN4cvc58internal4expr9NodeValue4nullEv.exit:     ; preds = %init.check, %init.check.i, %invoke.cont.i
  %4 = load ptr, ptr @_ZZN4cvc58internal4expr9NodeValue4nullEvE6s_null, align 8
  store ptr %4, ptr @_ZN4cvc58internal12NodeTemplateILb1EE6s_nullE, align 8
  %bf.load.i.i = load i64, ptr %4, align 8
  %bf.lshr.i.i = lshr i64 %bf.load.i.i, 40
  %5 = trunc i64 %bf.lshr.i.i to i32
  %bf.cast.i.i = and i32 %5, 1048575
  %cmp.i.i = icmp ult i32 %bf.cast.i.i, 1048574
  br i1 %cmp.i.i, label %if.then.i.i, label %if.else.i.i

if.then.i.i:                                      ; preds = %_ZN4cvc58internal4expr9NodeValue4nullEv.exit
  %bf.value.i.i = add i64 %bf.load.i.i, 1099511627776
  %bf.shl.i.i = and i64 %bf.value.i.i, 1152920405095219200
  %bf.clear7.i.i = and i64 %bf.load.i.i, -1152920405095219201
  %bf.set.i.i = or disjoint i64 %bf.shl.i.i, %bf.clear7.i.i
  store i64 %bf.set.i.i, ptr %4, align 8
  br label %_ZN4cvc58internal12NodeTemplateILb1EEC2EPKNS0_4expr9NodeValueE.exit

if.else.i.i:                                      ; preds = %_ZN4cvc58internal4expr9NodeValue4nullEv.exit
  %cmp12.i.i = icmp eq i32 %bf.cast.i.i, 1048574
  br i1 %cmp12.i.i, label %if.then13.i.i, label %_ZN4cvc58internal12NodeTemplateILb1EEC2EPKNS0_4expr9NodeValueE.exit

if.then13.i.i:                                    ; preds = %if.else.i.i
  %bf.set23.i.i = or i64 %bf.load.i.i, 1152920405095219200
  store i64 %bf.set23.i.i, ptr %4, align 8
  tail call void @_ZN4cvc58internal4expr9NodeValue20markRefCountMaxedOutEv(ptr noundef nonnull align 8 dereferenceable(16) %4)
  br label %_ZN4cvc58internal12NodeTemplateILb1EEC2EPKNS0_4expr9NodeValueE.exit

_ZN4cvc58internal12NodeTemplateILb1EEC2EPKNS0_4expr9NodeValueE.exit: ; preds = %if.then.i.i, %if.else.i.i, %if.then13.i.i
  %6 = tail call i32 @__cxa_atexit(ptr nonnull @_ZN4cvc58internal12NodeTemplateILb1EED2Ev, ptr nonnull @_ZN4cvc58internal12NodeTemplateILb1EE6s_nullE, ptr nonnull @__dso_handle) #19
  br label %init.end

init.end:                                         ; preds = %_ZN4cvc58internal12NodeTemplateILb1EEC2EPKNS0_4expr9NodeValueE.exit, %entry
  ret void
}

declare void @_ZN4cvc57context10ContextObj7destroyEv(ptr noundef nonnull align 8 dereferenceable(40)) local_unnamed_addr #0

; Function Attrs: noreturn nounwind uwtable
define linkonce_odr hidden void @__clang_call_terminate(ptr noundef %0) local_unnamed_addr #8 comdat {
  %2 = tail call ptr @__cxa_begin_catch(ptr %0) #19
  tail call void @_ZSt9terminatev() #20
  unreachable
}

declare ptr @__cxa_begin_catch(ptr) local_unnamed_addr

declare void @_ZSt9terminatev() local_unnamed_addr

; Function Attrs: mustprogress nounwind uwtable
define linkonce_odr hidden void @_ZN4cvc57context13InsertHashMapINS_8internal12NodeTemplateILb1EEEbSt4hashIS4_EED2Ev(ptr noundef nonnull align 8 dereferenceable(136) %this) unnamed_addr #4 comdat align 2 personality ptr @__gxx_personality_v0 {
entry:
  %d_hashMap = getelementptr inbounds i8, ptr %this, i64 80
  %_M_before_begin.i.i.i.i = getelementptr inbounds i8, ptr %this, i64 96
  %0 = load ptr, ptr %_M_before_begin.i.i.i.i, align 8
  %tobool.not3.i.i.i.i = icmp eq ptr %0, null
  br i1 %tobool.not3.i.i.i.i, label %_ZNSt10_HashtableIKN4cvc58internal12NodeTemplateILb1EEESt4pairIS4_KbESaIS7_ENSt8__detail10_Select1stESt8equal_toIS4_ESt4hashIS3_ENS9_18_Mod_range_hashingENS9_20_Default_ranged_hashENS9_20_Prime_rehash_policyENS9_17_Hashtable_traitsILb1ELb0ELb1EEEE5clearEv.exit.i.i, label %while.body.i.i.i.i

while.body.i.i.i.i:                               ; preds = %entry, %_ZNSt8__detail16_Hashtable_allocISaINS_10_Hash_nodeISt4pairIKN4cvc58internal12NodeTemplateILb1EEEKbELb1EEEEE18_M_deallocate_nodeEPSA_.exit.i.i.i.i
  %__n.addr.04.i.i.i.i = phi ptr [ %1, %_ZNSt8__detail16_Hashtable_allocISaINS_10_Hash_nodeISt4pairIKN4cvc58internal12NodeTemplateILb1EEEKbELb1EEEEE18_M_deallocate_nodeEPSA_.exit.i.i.i.i ], [ %0, %entry ]
  %1 = load ptr, ptr %__n.addr.04.i.i.i.i, align 8
  %add.ptr.i.i.i.i.i = getelementptr inbounds i8, ptr %__n.addr.04.i.i.i.i, i64 8
  %2 = load ptr, ptr %add.ptr.i.i.i.i.i, align 8
  %bf.load.i.i.i.i.i.i.i.i.i.i = load i64, ptr %2, align 8
  %3 = and i64 %bf.load.i.i.i.i.i.i.i.i.i.i, 1152920405095219200
  %cmp.not.i.i.i.i.i.i.i.i.i.i = icmp eq i64 %3, 1152920405095219200
  br i1 %cmp.not.i.i.i.i.i.i.i.i.i.i, label %_ZNSt8__detail16_Hashtable_allocISaINS_10_Hash_nodeISt4pairIKN4cvc58internal12NodeTemplateILb1EEEKbELb1EEEEE18_M_deallocate_nodeEPSA_.exit.i.i.i.i, label %if.then.i.i.i.i.i.i.i.i.i.i

if.then.i.i.i.i.i.i.i.i.i.i:                      ; preds = %while.body.i.i.i.i
  %bf.value.i.i.i.i.i.i.i.i.i.i = add i64 %bf.load.i.i.i.i.i.i.i.i.i.i, 1152920405095219200
  %bf.shl.i.i.i.i.i.i.i.i.i.i = and i64 %bf.value.i.i.i.i.i.i.i.i.i.i, 1152920405095219200
  %bf.clear7.i.i.i.i.i.i.i.i.i.i = and i64 %bf.load.i.i.i.i.i.i.i.i.i.i, -1152920405095219201
  %bf.set.i.i.i.i.i.i.i.i.i.i = or disjoint i64 %bf.shl.i.i.i.i.i.i.i.i.i.i, %bf.clear7.i.i.i.i.i.i.i.i.i.i
  store i64 %bf.set.i.i.i.i.i.i.i.i.i.i, ptr %2, align 8
  %cmp12.i.i.i.i.i.i.i.i.i.i = icmp eq i64 %bf.shl.i.i.i.i.i.i.i.i.i.i, 0
  br i1 %cmp12.i.i.i.i.i.i.i.i.i.i, label %if.then13.i.i.i.i.i.i.i.i.i.i, label %_ZNSt8__detail16_Hashtable_allocISaINS_10_Hash_nodeISt4pairIKN4cvc58internal12NodeTemplateILb1EEEKbELb1EEEEE18_M_deallocate_nodeEPSA_.exit.i.i.i.i

if.then13.i.i.i.i.i.i.i.i.i.i:                    ; preds = %if.then.i.i.i.i.i.i.i.i.i.i
  invoke void @_ZN4cvc58internal4expr9NodeValue15markForDeletionEv(ptr noundef nonnull align 8 dereferenceable(16) %2)
          to label %_ZNSt8__detail16_Hashtable_allocISaINS_10_Hash_nodeISt4pairIKN4cvc58internal12NodeTemplateILb1EEEKbELb1EEEEE18_M_deallocate_nodeEPSA_.exit.i.i.i.i unwind label %terminate.lpad.i.i.i.i.i.i.i.i.i

terminate.lpad.i.i.i.i.i.i.i.i.i:                 ; preds = %if.then13.i.i.i.i.i.i.i.i.i.i
  %4 = landingpad { ptr, i32 }
          catch ptr null
  %5 = extractvalue { ptr, i32 } %4, 0
  tail call void @__clang_call_terminate(ptr %5) #20
  unreachable

_ZNSt8__detail16_Hashtable_allocISaINS_10_Hash_nodeISt4pairIKN4cvc58internal12NodeTemplateILb1EEEKbELb1EEEEE18_M_deallocate_nodeEPSA_.exit.i.i.i.i: ; preds = %if.then13.i.i.i.i.i.i.i.i.i.i, %if.then.i.i.i.i.i.i.i.i.i.i, %while.body.i.i.i.i
  tail call void @_ZdlPv(ptr noundef nonnull %__n.addr.04.i.i.i.i) #18
  %tobool.not.i.i.i.i = icmp eq ptr %1, null
  br i1 %tobool.not.i.i.i.i, label %_ZNSt10_HashtableIKN4cvc58internal12NodeTemplateILb1EEESt4pairIS4_KbESaIS7_ENSt8__detail10_Select1stESt8equal_toIS4_ESt4hashIS3_ENS9_18_Mod_range_hashingENS9_20_Default_ranged_hashENS9_20_Prime_rehash_policyENS9_17_Hashtable_traitsILb1ELb0ELb1EEEE5clearEv.exit.i.i, label %while.body.i.i.i.i, !llvm.loop !15

_ZNSt10_HashtableIKN4cvc58internal12NodeTemplateILb1EEESt4pairIS4_KbESaIS7_ENSt8__detail10_Select1stESt8equal_toIS4_ESt4hashIS3_ENS9_18_Mod_range_hashingENS9_20_Default_ranged_hashENS9_20_Prime_rehash_policyENS9_17_Hashtable_traitsILb1ELb0ELb1EEEE5clearEv.exit.i.i: ; preds = %_ZNSt8__detail16_Hashtable_allocISaINS_10_Hash_nodeISt4pairIKN4cvc58internal12NodeTemplateILb1EEEKbELb1EEEEE18_M_deallocate_nodeEPSA_.exit.i.i.i.i, %entry
  %6 = load ptr, ptr %d_hashMap, align 8
  %_M_bucket_count.i.i.i = getelementptr inbounds i8, ptr %this, i64 88
  %7 = load i64, ptr %_M_bucket_count.i.i.i, align 8
  %mul.i.i.i = shl i64 %7, 3
  tail call void @llvm.memset.p0.i64(ptr align 8 %6, i8 0, i64 %mul.i.i.i, i1 false)
  tail call void @llvm.memset.p0.i64(ptr noundef nonnull align 8 dereferenceable(16) %_M_before_begin.i.i.i.i, i8 0, i64 16, i1 false)
  %8 = load ptr, ptr %d_hashMap, align 8
  %_M_single_bucket.i.i.i.i.i = getelementptr inbounds i8, ptr %this, i64 128
  %cmp.i.i.i.i.i = icmp eq ptr %_M_single_bucket.i.i.i.i.i, %8
  br i1 %cmp.i.i.i.i.i, label %_ZNSt13unordered_mapIKN4cvc58internal12NodeTemplateILb1EEEKbSt4hashIS3_ESt8equal_toIS4_ESaISt4pairIS4_S5_EEED2Ev.exit, label %if.end.i.i.i.i

if.end.i.i.i.i:                                   ; preds = %_ZNSt10_HashtableIKN4cvc58internal12NodeTemplateILb1EEESt4pairIS4_KbESaIS7_ENSt8__detail10_Select1stESt8equal_toIS4_ESt4hashIS3_ENS9_18_Mod_range_hashingENS9_20_Default_ranged_hashENS9_20_Prime_rehash_policyENS9_17_Hashtable_traitsILb1ELb0ELb1EEEE5clearEv.exit.i.i
  tail call void @_ZdlPv(ptr noundef %8) #18
  br label %_ZNSt13unordered_mapIKN4cvc58internal12NodeTemplateILb1EEEKbSt4hashIS3_ESt8equal_toIS4_ESaISt4pairIS4_S5_EEED2Ev.exit

_ZNSt13unordered_mapIKN4cvc58internal12NodeTemplateILb1EEEKbSt4hashIS3_ESt8equal_toIS4_ESaISt4pairIS4_S5_EEED2Ev.exit: ; preds = %_ZNSt10_HashtableIKN4cvc58internal12NodeTemplateILb1EEESt4pairIS4_KbESaIS7_ENSt8__detail10_Select1stESt8equal_toIS4_ESt4hashIS3_ENS9_18_Mod_range_hashingENS9_20_Default_ranged_hashENS9_20_Prime_rehash_policyENS9_17_Hashtable_traitsILb1ELb0ELb1EEEE5clearEv.exit.i.i, %if.end.i.i.i.i
  tail call void @_ZNSt5dequeIN4cvc58internal12NodeTemplateILb1EEESaIS3_EED2Ev(ptr noundef nonnull align 8 dereferenceable(80) %this) #19
  ret void
}

; Function Attrs: mustprogress uwtable
define linkonce_odr hidden noundef ptr @_ZN4cvc57context15CDInsertHashMapINS_8internal12NodeTemplateILb1EEEbSt4hashIS4_EE4saveEPNS0_20ContextMemoryManagerE(ptr noundef nonnull align 8 dereferenceable(56) %this, ptr noundef %pCMM) unnamed_addr #3 comdat align 2 personality ptr @__gxx_personality_v0 {
invoke.cont:
  %call.i = tail call noundef ptr @_ZN4cvc57context20ContextMemoryManager7newDataEm(ptr noundef nonnull align 8 dereferenceable(200) %pCMM, i64 noundef 56)
  store ptr getelementptr inbounds ({ [6 x ptr] }, ptr @_ZTVN4cvc57context10ContextObjE, i64 0, inrange i32 0, i64 2), ptr %call.i, align 8
  %d_pScope.i.i = getelementptr inbounds i8, ptr %call.i, i64 8
  %d_pScope2.i.i = getelementptr inbounds i8, ptr %this, i64 8
  tail call void @llvm.memcpy.p0.p0.i64(ptr noundef nonnull align 8 dereferenceable(32) %d_pScope.i.i, ptr noundef nonnull align 8 dereferenceable(32) %d_pScope2.i.i, i64 32, i1 false)
  store ptr getelementptr inbounds ({ [6 x ptr] }, ptr @_ZTVN4cvc57context15CDInsertHashMapINS_8internal12NodeTemplateILb1EEEbSt4hashIS4_EEE, i64 0, inrange i32 0, i64 2), ptr %call.i, align 8
  %d_insertMap.i = getelementptr inbounds i8, ptr %call.i, i64 40
  store ptr null, ptr %d_insertMap.i, align 8
  %d_size.i = getelementptr inbounds i8, ptr %call.i, i64 48
  %d_size2.i = getelementptr inbounds i8, ptr %this, i64 48
  %0 = load i64, ptr %d_size2.i, align 8
  store i64 %0, ptr %d_size.i, align 8
  ret ptr %call.i
}

; Function Attrs: mustprogress uwtable
define linkonce_odr hidden void @_ZN4cvc57context15CDInsertHashMapINS_8internal12NodeTemplateILb1EEEbSt4hashIS4_EE7restoreEPNS0_10ContextObjE(ptr noundef nonnull align 8 dereferenceable(56) %this, ptr noundef %data) unnamed_addr #3 comdat align 2 {
entry:
  %d_size = getelementptr inbounds i8, ptr %data, i64 48
  %0 = load i64, ptr %d_size, align 8
  %d_insertMap = getelementptr inbounds i8, ptr %this, i64 40
  %1 = load ptr, ptr %d_insertMap, align 8
  %_M_finish.i.i.i = getelementptr inbounds i8, ptr %1, i64 48
  %_M_start.i.i.i = getelementptr inbounds i8, ptr %1, i64 16
  %_M_node.i.i.i.i = getelementptr inbounds i8, ptr %1, i64 72
  %_M_node1.i.i.i.i = getelementptr inbounds i8, ptr %1, i64 40
  %_M_first.i.i.i.i = getelementptr inbounds i8, ptr %1, i64 56
  %_M_last.i.i.i.i = getelementptr inbounds i8, ptr %1, i64 32
  %d_hashMap.i.i = getelementptr inbounds i8, ptr %1, i64 80
  br label %while.cond.i

while.cond.i:                                     ; preds = %_ZN4cvc57context13InsertHashMapINS_8internal12NodeTemplateILb1EEEbSt4hashIS4_EE8pop_backEv.exit.i, %entry
  %2 = load ptr, ptr %_M_node.i.i.i.i, align 8
  %3 = load ptr, ptr %_M_node1.i.i.i.i, align 8
  %sub.ptr.lhs.cast.i.i.i.i = ptrtoint ptr %2 to i64
  %sub.ptr.rhs.cast.i.i.i.i = ptrtoint ptr %3 to i64
  %sub.ptr.sub.i.i.i.i = sub i64 %sub.ptr.lhs.cast.i.i.i.i, %sub.ptr.rhs.cast.i.i.i.i
  %sub.ptr.div.i.i.i.i = ashr exact i64 %sub.ptr.sub.i.i.i.i, 3
  %tobool.i.i.i.i = icmp ne ptr %2, null
  %conv.neg.i.i.i.i = sext i1 %tobool.i.i.i.i to i64
  %sub.i.i.i.i = add nsw i64 %sub.ptr.div.i.i.i.i, %conv.neg.i.i.i.i
  %mul.i.i.i.i = shl nsw i64 %sub.i.i.i.i, 6
  %4 = load ptr, ptr %_M_finish.i.i.i, align 8
  %5 = load ptr, ptr %_M_first.i.i.i.i, align 8
  %sub.ptr.lhs.cast3.i.i.i.i = ptrtoint ptr %4 to i64
  %sub.ptr.rhs.cast4.i.i.i.i = ptrtoint ptr %5 to i64
  %sub.ptr.sub5.i.i.i.i = sub i64 %sub.ptr.lhs.cast3.i.i.i.i, %sub.ptr.rhs.cast4.i.i.i.i
  %sub.ptr.div6.i.i.i.i = ashr exact i64 %sub.ptr.sub5.i.i.i.i, 3
  %add.i.i.i.i = add nsw i64 %mul.i.i.i.i, %sub.ptr.div6.i.i.i.i
  %6 = load ptr, ptr %_M_last.i.i.i.i, align 8
  %7 = load ptr, ptr %_M_start.i.i.i, align 8
  %sub.ptr.lhs.cast8.i.i.i.i = ptrtoint ptr %6 to i64
  %sub.ptr.rhs.cast9.i.i.i.i = ptrtoint ptr %7 to i64
  %sub.ptr.sub10.i.i.i.i = sub i64 %sub.ptr.lhs.cast8.i.i.i.i, %sub.ptr.rhs.cast9.i.i.i.i
  %sub.ptr.div11.i.i.i.i = ashr exact i64 %sub.ptr.sub10.i.i.i.i, 3
  %add12.i.i.i.i = add nsw i64 %add.i.i.i.i, %sub.ptr.div11.i.i.i.i
  %cmp.i = icmp ugt i64 %add12.i.i.i.i, %0
  br i1 %cmp.i, label %while.body.i, label %_ZN4cvc57context13InsertHashMapINS_8internal12NodeTemplateILb1EEEbSt4hashIS4_EE11pop_to_sizeEm.exit

while.body.i:                                     ; preds = %while.cond.i
  %cmp.i.i.i.i = icmp eq ptr %4, %5
  br i1 %cmp.i.i.i.i, label %if.then.i.i.i.i, label %_ZN4cvc57context13InsertHashMapINS_8internal12NodeTemplateILb1EEEbSt4hashIS4_EE8pop_backEv.exit.i

if.then.i.i.i.i:                                  ; preds = %while.body.i
  %add.ptr.i.i.i.i = getelementptr inbounds i8, ptr %2, i64 -8
  %8 = load ptr, ptr %add.ptr.i.i.i.i, align 8
  %add.ptr.i.i.i.i.i = getelementptr inbounds i8, ptr %8, i64 512
  br label %_ZN4cvc57context13InsertHashMapINS_8internal12NodeTemplateILb1EEEbSt4hashIS4_EE8pop_backEv.exit.i

_ZN4cvc57context13InsertHashMapINS_8internal12NodeTemplateILb1EEEbSt4hashIS4_EE8pop_backEv.exit.i: ; preds = %if.then.i.i.i.i, %while.body.i
  %9 = phi ptr [ %add.ptr.i.i.i.i.i, %if.then.i.i.i.i ], [ %4, %while.body.i ]
  %incdec.ptr.i.i.i.i = getelementptr inbounds i8, ptr %9, i64 -8
  %call.i.i.i.i = tail call noundef i64 @_ZNSt10_HashtableIKN4cvc58internal12NodeTemplateILb1EEESt4pairIS4_KbESaIS7_ENSt8__detail10_Select1stESt8equal_toIS4_ESt4hashIS3_ENS9_18_Mod_range_hashingENS9_20_Default_ranged_hashENS9_20_Prime_rehash_policyENS9_17_Hashtable_traitsILb1ELb0ELb1EEEE8_M_eraseESt17integral_constantIbLb1EERS4_(ptr noundef nonnull align 8 dereferenceable(56) %d_hashMap.i.i, ptr noundef nonnull align 8 dereferenceable(8) %incdec.ptr.i.i.i.i)
  tail call void @_ZNSt5dequeIN4cvc58internal12NodeTemplateILb1EEESaIS3_EE8pop_backEv(ptr noundef nonnull align 8 dereferenceable(80) %1) #19
  br label %while.cond.i, !llvm.loop !16

_ZN4cvc57context13InsertHashMapINS_8internal12NodeTemplateILb1EEEbSt4hashIS4_EE11pop_to_sizeEm.exit: ; preds = %while.cond.i
  %d_size2 = getelementptr inbounds i8, ptr %this, i64 48
  store i64 %0, ptr %d_size2, align 8
  ret void
}

; Function Attrs: mustprogress nounwind uwtable
define linkonce_odr hidden void @_ZN4cvc57context15CDInsertHashMapINS_8internal12NodeTemplateILb1EEEbSt4hashIS4_EED2Ev(ptr noundef nonnull align 8 dereferenceable(56) %this) unnamed_addr #4 comdat align 2 personality ptr @__gxx_personality_v0 {
entry:
  store ptr getelementptr inbounds ({ [6 x ptr] }, ptr @_ZTVN4cvc57context15CDInsertHashMapINS_8internal12NodeTemplateILb1EEEbSt4hashIS4_EEE, i64 0, inrange i32 0, i64 2), ptr %this, align 8
  invoke void @_ZN4cvc57context10ContextObj7destroyEv(ptr noundef nonnull align 8 dereferenceable(40) %this)
          to label %invoke.cont unwind label %terminate.lpad

invoke.cont:                                      ; preds = %entry
  %d_insertMap = getelementptr inbounds i8, ptr %this, i64 40
  %0 = load ptr, ptr %d_insertMap, align 8
  %isnull = icmp eq ptr %0, null
  br i1 %isnull, label %delete.end, label %delete.notnull

delete.notnull:                                   ; preds = %invoke.cont
  tail call void @_ZN4cvc57context13InsertHashMapINS_8internal12NodeTemplateILb1EEEbSt4hashIS4_EED2Ev(ptr noundef nonnull align 8 dereferenceable(136) %0) #19
  tail call void @_ZdlPv(ptr noundef nonnull %0) #18
  br label %delete.end

delete.end:                                       ; preds = %delete.notnull, %invoke.cont
  ret void

terminate.lpad:                                   ; preds = %entry
  %1 = landingpad { ptr, i32 }
          catch ptr null
  %2 = extractvalue { ptr, i32 } %1, 0
  tail call void @__clang_call_terminate(ptr %2) #20
  unreachable
}

; Function Attrs: mustprogress nounwind uwtable
define linkonce_odr hidden void @_ZN4cvc57context15CDInsertHashMapINS_8internal12NodeTemplateILb1EEEbSt4hashIS4_EED0Ev(ptr noundef nonnull align 8 dereferenceable(56) %this) unnamed_addr #4 comdat align 2 personality ptr @__gxx_personality_v0 {
entry:
  store ptr getelementptr inbounds ({ [6 x ptr] }, ptr @_ZTVN4cvc57context15CDInsertHashMapINS_8internal12NodeTemplateILb1EEEbSt4hashIS4_EEE, i64 0, inrange i32 0, i64 2), ptr %this, align 8
  invoke void @_ZN4cvc57context10ContextObj7destroyEv(ptr noundef nonnull align 8 dereferenceable(40) %this)
          to label %invoke.cont.i unwind label %terminate.lpad.i

invoke.cont.i:                                    ; preds = %entry
  %d_insertMap.i = getelementptr inbounds i8, ptr %this, i64 40
  %0 = load ptr, ptr %d_insertMap.i, align 8
  %isnull.i = icmp eq ptr %0, null
  br i1 %isnull.i, label %_ZN4cvc57context15CDInsertHashMapINS_8internal12NodeTemplateILb1EEEbSt4hashIS4_EED2Ev.exit, label %delete.notnull.i

delete.notnull.i:                                 ; preds = %invoke.cont.i
  tail call void @_ZN4cvc57context13InsertHashMapINS_8internal12NodeTemplateILb1EEEbSt4hashIS4_EED2Ev(ptr noundef nonnull align 8 dereferenceable(136) %0) #19
  tail call void @_ZdlPv(ptr noundef nonnull %0) #18
  br label %_ZN4cvc57context15CDInsertHashMapINS_8internal12NodeTemplateILb1EEEbSt4hashIS4_EED2Ev.exit

terminate.lpad.i:                                 ; preds = %entry
  %1 = landingpad { ptr, i32 }
          catch ptr null
  %2 = extractvalue { ptr, i32 } %1, 0
  tail call void @__clang_call_terminate(ptr %2) #20
  unreachable

_ZN4cvc57context15CDInsertHashMapINS_8internal12NodeTemplateILb1EEEbSt4hashIS4_EED2Ev.exit: ; preds = %invoke.cont.i, %delete.notnull.i
  tail call void @_ZN4cvc57context10ContextObjdlEPv(ptr noundef nonnull %this) #19
  ret void
}

; Function Attrs: mustprogress nounwind uwtable
define linkonce_odr hidden void @_ZNSt5dequeIN4cvc58internal12NodeTemplateILb1EEESaIS3_EED2Ev(ptr noundef nonnull align 8 dereferenceable(80) %this) unnamed_addr #4 comdat align 2 personality ptr @__gxx_personality_v0 {
entry:
  %agg.tmp.i = alloca %"struct.std::_Deque_iterator", align 16
  %agg.tmp2.i = alloca %"struct.std::_Deque_iterator", align 16
  %_M_start.i = getelementptr inbounds i8, ptr %this, i64 16
  %_M_last4.i.i = getelementptr inbounds i8, ptr %this, i64 32
  %_M_node5.i.i = getelementptr inbounds i8, ptr %this, i64 40
  %_M_finish.i = getelementptr inbounds i8, ptr %this, i64 48
  %_M_last4.i.i4 = getelementptr inbounds i8, ptr %this, i64 64
  %_M_node5.i.i6 = getelementptr inbounds i8, ptr %this, i64 72
  call void @llvm.lifetime.start.p0(i64 32, ptr nonnull %agg.tmp.i)
  call void @llvm.lifetime.start.p0(i64 32, ptr nonnull %agg.tmp2.i)
  %0 = load <2 x ptr>, ptr %_M_start.i, align 8, !noalias !17
  store <2 x ptr> %0, ptr %agg.tmp.i, align 16
  %_M_last.i.i9 = getelementptr inbounds i8, ptr %agg.tmp.i, i64 16
  %1 = load <2 x ptr>, ptr %_M_last4.i.i, align 8, !noalias !17
  store <2 x ptr> %1, ptr %_M_last.i.i9, align 16
  %2 = load <2 x ptr>, ptr %_M_finish.i, align 8, !noalias !20
  store <2 x ptr> %2, ptr %agg.tmp2.i, align 16
  %_M_last.i3.i = getelementptr inbounds i8, ptr %agg.tmp2.i, i64 16
  %3 = load <2 x ptr>, ptr %_M_last4.i.i4, align 8, !noalias !20
  store <2 x ptr> %3, ptr %_M_last.i3.i, align 16
  invoke void @_ZNSt5dequeIN4cvc58internal12NodeTemplateILb1EEESaIS3_EE19_M_destroy_data_auxESt15_Deque_iteratorIS3_RS3_PS3_ES9_(ptr noundef nonnull align 8 dereferenceable(80) %this, ptr noundef nonnull %agg.tmp.i, ptr noundef nonnull %agg.tmp2.i)
          to label %invoke.cont unwind label %terminate.lpad

invoke.cont:                                      ; preds = %entry
  call void @llvm.lifetime.end.p0(i64 32, ptr nonnull %agg.tmp.i)
  call void @llvm.lifetime.end.p0(i64 32, ptr nonnull %agg.tmp2.i)
  %4 = load ptr, ptr %this, align 8
  %tobool.not.i = icmp eq ptr %4, null
  br i1 %tobool.not.i, label %_ZNSt11_Deque_baseIN4cvc58internal12NodeTemplateILb1EEESaIS3_EED2Ev.exit, label %if.then.i

if.then.i:                                        ; preds = %invoke.cont
  %5 = load ptr, ptr %_M_node5.i.i, align 8
  %6 = load ptr, ptr %_M_node5.i.i6, align 8
  %add.ptr.i = getelementptr inbounds i8, ptr %6, i64 8
  %cmp3.i.i = icmp ult ptr %5, %add.ptr.i
  br i1 %cmp3.i.i, label %for.body.i.i, label %_ZNSt11_Deque_baseIN4cvc58internal12NodeTemplateILb1EEESaIS3_EE16_M_destroy_nodesEPPS3_S7_.exit.i

for.body.i.i:                                     ; preds = %if.then.i, %for.body.i.i
  %__n.04.i.i = phi ptr [ %incdec.ptr.i.i, %for.body.i.i ], [ %5, %if.then.i ]
  %7 = load ptr, ptr %__n.04.i.i, align 8
  call void @_ZdlPv(ptr noundef %7) #18
  %incdec.ptr.i.i = getelementptr inbounds i8, ptr %__n.04.i.i, i64 8
  %cmp.i.i = icmp ult ptr %__n.04.i.i, %6
  br i1 %cmp.i.i, label %for.body.i.i, label %_ZNSt11_Deque_baseIN4cvc58internal12NodeTemplateILb1EEESaIS3_EE16_M_destroy_nodesEPPS3_S7_.exit.loopexit.i, !llvm.loop !23

_ZNSt11_Deque_baseIN4cvc58internal12NodeTemplateILb1EEESaIS3_EE16_M_destroy_nodesEPPS3_S7_.exit.loopexit.i: ; preds = %for.body.i.i
  %.pre.i = load ptr, ptr %this, align 8
  br label %_ZNSt11_Deque_baseIN4cvc58internal12NodeTemplateILb1EEESaIS3_EE16_M_destroy_nodesEPPS3_S7_.exit.i

_ZNSt11_Deque_baseIN4cvc58internal12NodeTemplateILb1EEESaIS3_EE16_M_destroy_nodesEPPS3_S7_.exit.i: ; preds = %_ZNSt11_Deque_baseIN4cvc58internal12NodeTemplateILb1EEESaIS3_EE16_M_destroy_nodesEPPS3_S7_.exit.loopexit.i, %if.then.i
  %8 = phi ptr [ %.pre.i, %_ZNSt11_Deque_baseIN4cvc58internal12NodeTemplateILb1EEESaIS3_EE16_M_destroy_nodesEPPS3_S7_.exit.loopexit.i ], [ %4, %if.then.i ]
  call void @_ZdlPv(ptr noundef %8) #18
  br label %_ZNSt11_Deque_baseIN4cvc58internal12NodeTemplateILb1EEESaIS3_EED2Ev.exit

_ZNSt11_Deque_baseIN4cvc58internal12NodeTemplateILb1EEESaIS3_EED2Ev.exit: ; preds = %invoke.cont, %_ZNSt11_Deque_baseIN4cvc58internal12NodeTemplateILb1EEESaIS3_EE16_M_destroy_nodesEPPS3_S7_.exit.i
  ret void

terminate.lpad:                                   ; preds = %entry
  %9 = landingpad { ptr, i32 }
          catch ptr null
  %10 = extractvalue { ptr, i32 } %9, 0
  call void @__clang_call_terminate(ptr %10) #20
  unreachable
}

; Function Attrs: mustprogress nocallback nofree nounwind willreturn memory(argmem: write)
declare void @llvm.memset.p0.i64(ptr nocapture writeonly, i8, i64, i1 immarg) #9

; Function Attrs: mustprogress uwtable
define linkonce_odr hidden void @_ZNSt5dequeIN4cvc58internal12NodeTemplateILb1EEESaIS3_EE19_M_destroy_data_auxESt15_Deque_iteratorIS3_RS3_PS3_ES9_(ptr noundef nonnull align 8 dereferenceable(80) %this, ptr noundef %__first, ptr noundef %__last) local_unnamed_addr #3 comdat align 2 personality ptr @__gxx_personality_v0 {
entry:
  %_M_node = getelementptr inbounds i8, ptr %__first, i64 24
  %0 = load ptr, ptr %_M_node, align 8
  %_M_node2 = getelementptr inbounds i8, ptr %__last, i64 24
  %__node.056 = getelementptr inbounds i8, ptr %0, i64 8
  %1 = load ptr, ptr %_M_node2, align 8
  %cmp57 = icmp ult ptr %__node.056, %1
  br i1 %cmp57, label %for.body, label %for.end

for.body:                                         ; preds = %entry, %_ZSt8_DestroyIPN4cvc58internal12NodeTemplateILb1EEES3_EvT_S5_RSaIT0_E.exit
  %__node.058 = phi ptr [ %__node.0, %_ZSt8_DestroyIPN4cvc58internal12NodeTemplateILb1EEES3_EvT_S5_RSaIT0_E.exit ], [ %__node.056, %entry ]
  %2 = load ptr, ptr %__node.058, align 8
  br label %for.body.i.i.i

for.body.i.i.i:                                   ; preds = %_ZSt8_DestroyIN4cvc58internal12NodeTemplateILb1EEEEvPT_.exit.i.i.i, %for.body
  %__first.addr.04.i.i.i.idx = phi i64 [ %__first.addr.04.i.i.i.add, %_ZSt8_DestroyIN4cvc58internal12NodeTemplateILb1EEEEvPT_.exit.i.i.i ], [ 0, %for.body ]
  %__first.addr.04.i.i.i.ptr = getelementptr inbounds i8, ptr %2, i64 %__first.addr.04.i.i.i.idx
  %3 = load ptr, ptr %__first.addr.04.i.i.i.ptr, align 8
  %bf.load.i.i.i.i.i.i = load i64, ptr %3, align 8
  %4 = and i64 %bf.load.i.i.i.i.i.i, 1152920405095219200
  %cmp.not.i.i.i.i.i.i = icmp eq i64 %4, 1152920405095219200
  br i1 %cmp.not.i.i.i.i.i.i, label %_ZSt8_DestroyIN4cvc58internal12NodeTemplateILb1EEEEvPT_.exit.i.i.i, label %if.then.i.i.i.i.i.i

if.then.i.i.i.i.i.i:                              ; preds = %for.body.i.i.i
  %bf.value.i.i.i.i.i.i = add i64 %bf.load.i.i.i.i.i.i, 1152920405095219200
  %bf.shl.i.i.i.i.i.i = and i64 %bf.value.i.i.i.i.i.i, 1152920405095219200
  %bf.clear7.i.i.i.i.i.i = and i64 %bf.load.i.i.i.i.i.i, -1152920405095219201
  %bf.set.i.i.i.i.i.i = or disjoint i64 %bf.shl.i.i.i.i.i.i, %bf.clear7.i.i.i.i.i.i
  store i64 %bf.set.i.i.i.i.i.i, ptr %3, align 8
  %cmp12.i.i.i.i.i.i = icmp eq i64 %bf.shl.i.i.i.i.i.i, 0
  br i1 %cmp12.i.i.i.i.i.i, label %if.then13.i.i.i.i.i.i, label %_ZSt8_DestroyIN4cvc58internal12NodeTemplateILb1EEEEvPT_.exit.i.i.i

if.then13.i.i.i.i.i.i:                            ; preds = %if.then.i.i.i.i.i.i
  invoke void @_ZN4cvc58internal4expr9NodeValue15markForDeletionEv(ptr noundef nonnull align 8 dereferenceable(16) %3)
          to label %_ZSt8_DestroyIN4cvc58internal12NodeTemplateILb1EEEEvPT_.exit.i.i.i unwind label %terminate.lpad.i.i.i.i.i

terminate.lpad.i.i.i.i.i:                         ; preds = %if.then13.i.i.i.i.i.i
  %5 = landingpad { ptr, i32 }
          catch ptr null
  %6 = extractvalue { ptr, i32 } %5, 0
  tail call void @__clang_call_terminate(ptr %6) #20
  unreachable

_ZSt8_DestroyIN4cvc58internal12NodeTemplateILb1EEEEvPT_.exit.i.i.i: ; preds = %if.then13.i.i.i.i.i.i, %if.then.i.i.i.i.i.i, %for.body.i.i.i
  %__first.addr.04.i.i.i.add = add nuw nsw i64 %__first.addr.04.i.i.i.idx, 8
  %cmp.not.i.i.i = icmp eq i64 %__first.addr.04.i.i.i.add, 512
  br i1 %cmp.not.i.i.i, label %_ZSt8_DestroyIPN4cvc58internal12NodeTemplateILb1EEES3_EvT_S5_RSaIT0_E.exit, label %for.body.i.i.i, !llvm.loop !4

_ZSt8_DestroyIPN4cvc58internal12NodeTemplateILb1EEES3_EvT_S5_RSaIT0_E.exit: ; preds = %_ZSt8_DestroyIN4cvc58internal12NodeTemplateILb1EEEEvPT_.exit.i.i.i
  %__node.0 = getelementptr inbounds i8, ptr %__node.058, i64 8
  %7 = load ptr, ptr %_M_node2, align 8
  %cmp = icmp ult ptr %__node.0, %7
  br i1 %cmp, label %for.body, label %for.end.loopexit, !llvm.loop !24

for.end.loopexit:                                 ; preds = %_ZSt8_DestroyIPN4cvc58internal12NodeTemplateILb1EEES3_EvT_S5_RSaIT0_E.exit
  %.pre = load ptr, ptr %_M_node, align 8
  br label %for.end

for.end:                                          ; preds = %for.end.loopexit, %entry
  %8 = phi ptr [ %0, %entry ], [ %.pre, %for.end.loopexit ]
  %.lcssa = phi ptr [ %1, %entry ], [ %7, %for.end.loopexit ]
  %cmp7.not = icmp eq ptr %8, %.lcssa
  %9 = load ptr, ptr %__first, align 8
  br i1 %cmp7.not, label %if.else, label %if.then

if.then:                                          ; preds = %for.end
  %_M_last = getelementptr inbounds i8, ptr %__first, i64 16
  %10 = load ptr, ptr %_M_last, align 8
  %cmp.not3.i.i.i = icmp eq ptr %9, %10
  br i1 %cmp.not3.i.i.i, label %_ZSt8_DestroyIPN4cvc58internal12NodeTemplateILb1EEES3_EvT_S5_RSaIT0_E.exit19, label %for.body.i.i.i4

for.body.i.i.i4:                                  ; preds = %if.then, %_ZSt8_DestroyIN4cvc58internal12NodeTemplateILb1EEEEvPT_.exit.i.i.i14
  %__first.addr.04.i.i.i5 = phi ptr [ %incdec.ptr.i.i.i15, %_ZSt8_DestroyIN4cvc58internal12NodeTemplateILb1EEEEvPT_.exit.i.i.i14 ], [ %9, %if.then ]
  %11 = load ptr, ptr %__first.addr.04.i.i.i5, align 8
  %bf.load.i.i.i.i.i.i6 = load i64, ptr %11, align 8
  %12 = and i64 %bf.load.i.i.i.i.i.i6, 1152920405095219200
  %cmp.not.i.i.i.i.i.i7 = icmp eq i64 %12, 1152920405095219200
  br i1 %cmp.not.i.i.i.i.i.i7, label %_ZSt8_DestroyIN4cvc58internal12NodeTemplateILb1EEEEvPT_.exit.i.i.i14, label %if.then.i.i.i.i.i.i8

if.then.i.i.i.i.i.i8:                             ; preds = %for.body.i.i.i4
  %bf.value.i.i.i.i.i.i9 = add i64 %bf.load.i.i.i.i.i.i6, 1152920405095219200
  %bf.shl.i.i.i.i.i.i10 = and i64 %bf.value.i.i.i.i.i.i9, 1152920405095219200
  %bf.clear7.i.i.i.i.i.i11 = and i64 %bf.load.i.i.i.i.i.i6, -1152920405095219201
  %bf.set.i.i.i.i.i.i12 = or disjoint i64 %bf.shl.i.i.i.i.i.i10, %bf.clear7.i.i.i.i.i.i11
  store i64 %bf.set.i.i.i.i.i.i12, ptr %11, align 8
  %cmp12.i.i.i.i.i.i13 = icmp eq i64 %bf.shl.i.i.i.i.i.i10, 0
  br i1 %cmp12.i.i.i.i.i.i13, label %if.then13.i.i.i.i.i.i17, label %_ZSt8_DestroyIN4cvc58internal12NodeTemplateILb1EEEEvPT_.exit.i.i.i14

if.then13.i.i.i.i.i.i17:                          ; preds = %if.then.i.i.i.i.i.i8
  invoke void @_ZN4cvc58internal4expr9NodeValue15markForDeletionEv(ptr noundef nonnull align 8 dereferenceable(16) %11)
          to label %_ZSt8_DestroyIN4cvc58internal12NodeTemplateILb1EEEEvPT_.exit.i.i.i14 unwind label %terminate.lpad.i.i.i.i.i18

terminate.lpad.i.i.i.i.i18:                       ; preds = %if.then13.i.i.i.i.i.i17
  %13 = landingpad { ptr, i32 }
          catch ptr null
  %14 = extractvalue { ptr, i32 } %13, 0
  tail call void @__clang_call_terminate(ptr %14) #20
  unreachable

_ZSt8_DestroyIN4cvc58internal12NodeTemplateILb1EEEEvPT_.exit.i.i.i14: ; preds = %if.then13.i.i.i.i.i.i17, %if.then.i.i.i.i.i.i8, %for.body.i.i.i4
  %incdec.ptr.i.i.i15 = getelementptr inbounds i8, ptr %__first.addr.04.i.i.i5, i64 8
  %cmp.not.i.i.i16 = icmp eq ptr %incdec.ptr.i.i.i15, %10
  br i1 %cmp.not.i.i.i16, label %_ZSt8_DestroyIPN4cvc58internal12NodeTemplateILb1EEES3_EvT_S5_RSaIT0_E.exit19, label %for.body.i.i.i4, !llvm.loop !4

_ZSt8_DestroyIPN4cvc58internal12NodeTemplateILb1EEES3_EvT_S5_RSaIT0_E.exit19: ; preds = %_ZSt8_DestroyIN4cvc58internal12NodeTemplateILb1EEEEvPT_.exit.i.i.i14, %if.then
  %_M_first = getelementptr inbounds i8, ptr %__last, i64 8
  %15 = load ptr, ptr %_M_first, align 8
  %16 = load ptr, ptr %__last, align 8
  %cmp.not3.i.i.i20 = icmp eq ptr %15, %16
  br i1 %cmp.not3.i.i.i20, label %if.end, label %for.body.i.i.i21

for.body.i.i.i21:                                 ; preds = %_ZSt8_DestroyIPN4cvc58internal12NodeTemplateILb1EEES3_EvT_S5_RSaIT0_E.exit19, %_ZSt8_DestroyIN4cvc58internal12NodeTemplateILb1EEEEvPT_.exit.i.i.i31
  %__first.addr.04.i.i.i22 = phi ptr [ %incdec.ptr.i.i.i32, %_ZSt8_DestroyIN4cvc58internal12NodeTemplateILb1EEEEvPT_.exit.i.i.i31 ], [ %15, %_ZSt8_DestroyIPN4cvc58internal12NodeTemplateILb1EEES3_EvT_S5_RSaIT0_E.exit19 ]
  %17 = load ptr, ptr %__first.addr.04.i.i.i22, align 8
  %bf.load.i.i.i.i.i.i23 = load i64, ptr %17, align 8
  %18 = and i64 %bf.load.i.i.i.i.i.i23, 1152920405095219200
  %cmp.not.i.i.i.i.i.i24 = icmp eq i64 %18, 1152920405095219200
  br i1 %cmp.not.i.i.i.i.i.i24, label %_ZSt8_DestroyIN4cvc58internal12NodeTemplateILb1EEEEvPT_.exit.i.i.i31, label %if.then.i.i.i.i.i.i25

if.then.i.i.i.i.i.i25:                            ; preds = %for.body.i.i.i21
  %bf.value.i.i.i.i.i.i26 = add i64 %bf.load.i.i.i.i.i.i23, 1152920405095219200
  %bf.shl.i.i.i.i.i.i27 = and i64 %bf.value.i.i.i.i.i.i26, 1152920405095219200
  %bf.clear7.i.i.i.i.i.i28 = and i64 %bf.load.i.i.i.i.i.i23, -1152920405095219201
  %bf.set.i.i.i.i.i.i29 = or disjoint i64 %bf.shl.i.i.i.i.i.i27, %bf.clear7.i.i.i.i.i.i28
  store i64 %bf.set.i.i.i.i.i.i29, ptr %17, align 8
  %cmp12.i.i.i.i.i.i30 = icmp eq i64 %bf.shl.i.i.i.i.i.i27, 0
  br i1 %cmp12.i.i.i.i.i.i30, label %if.then13.i.i.i.i.i.i34, label %_ZSt8_DestroyIN4cvc58internal12NodeTemplateILb1EEEEvPT_.exit.i.i.i31

if.then13.i.i.i.i.i.i34:                          ; preds = %if.then.i.i.i.i.i.i25
  invoke void @_ZN4cvc58internal4expr9NodeValue15markForDeletionEv(ptr noundef nonnull align 8 dereferenceable(16) %17)
          to label %_ZSt8_DestroyIN4cvc58internal12NodeTemplateILb1EEEEvPT_.exit.i.i.i31 unwind label %terminate.lpad.i.i.i.i.i35

terminate.lpad.i.i.i.i.i35:                       ; preds = %if.then13.i.i.i.i.i.i34
  %19 = landingpad { ptr, i32 }
          catch ptr null
  %20 = extractvalue { ptr, i32 } %19, 0
  tail call void @__clang_call_terminate(ptr %20) #20
  unreachable

_ZSt8_DestroyIN4cvc58internal12NodeTemplateILb1EEEEvPT_.exit.i.i.i31: ; preds = %if.then13.i.i.i.i.i.i34, %if.then.i.i.i.i.i.i25, %for.body.i.i.i21
  %incdec.ptr.i.i.i32 = getelementptr inbounds i8, ptr %__first.addr.04.i.i.i22, i64 8
  %cmp.not.i.i.i33 = icmp eq ptr %incdec.ptr.i.i.i32, %16
  br i1 %cmp.not.i.i.i33, label %if.end, label %for.body.i.i.i21, !llvm.loop !4

if.else:                                          ; preds = %for.end
  %21 = load ptr, ptr %__last, align 8
  %cmp.not3.i.i.i37 = icmp eq ptr %9, %21
  br i1 %cmp.not3.i.i.i37, label %if.end, label %for.body.i.i.i38

for.body.i.i.i38:                                 ; preds = %if.else, %_ZSt8_DestroyIN4cvc58internal12NodeTemplateILb1EEEEvPT_.exit.i.i.i48
  %__first.addr.04.i.i.i39 = phi ptr [ %incdec.ptr.i.i.i49, %_ZSt8_DestroyIN4cvc58internal12NodeTemplateILb1EEEEvPT_.exit.i.i.i48 ], [ %9, %if.else ]
  %22 = load ptr, ptr %__first.addr.04.i.i.i39, align 8
  %bf.load.i.i.i.i.i.i40 = load i64, ptr %22, align 8
  %23 = and i64 %bf.load.i.i.i.i.i.i40, 1152920405095219200
  %cmp.not.i.i.i.i.i.i41 = icmp eq i64 %23, 1152920405095219200
  br i1 %cmp.not.i.i.i.i.i.i41, label %_ZSt8_DestroyIN4cvc58internal12NodeTemplateILb1EEEEvPT_.exit.i.i.i48, label %if.then.i.i.i.i.i.i42

if.then.i.i.i.i.i.i42:                            ; preds = %for.body.i.i.i38
  %bf.value.i.i.i.i.i.i43 = add i64 %bf.load.i.i.i.i.i.i40, 1152920405095219200
  %bf.shl.i.i.i.i.i.i44 = and i64 %bf.value.i.i.i.i.i.i43, 1152920405095219200
  %bf.clear7.i.i.i.i.i.i45 = and i64 %bf.load.i.i.i.i.i.i40, -1152920405095219201
  %bf.set.i.i.i.i.i.i46 = or disjoint i64 %bf.shl.i.i.i.i.i.i44, %bf.clear7.i.i.i.i.i.i45
  store i64 %bf.set.i.i.i.i.i.i46, ptr %22, align 8
  %cmp12.i.i.i.i.i.i47 = icmp eq i64 %bf.shl.i.i.i.i.i.i44, 0
  br i1 %cmp12.i.i.i.i.i.i47, label %if.then13.i.i.i.i.i.i51, label %_ZSt8_DestroyIN4cvc58internal12NodeTemplateILb1EEEEvPT_.exit.i.i.i48

if.then13.i.i.i.i.i.i51:                          ; preds = %if.then.i.i.i.i.i.i42
  invoke void @_ZN4cvc58internal4expr9NodeValue15markForDeletionEv(ptr noundef nonnull align 8 dereferenceable(16) %22)
          to label %_ZSt8_DestroyIN4cvc58internal12NodeTemplateILb1EEEEvPT_.exit.i.i.i48 unwind label %terminate.lpad.i.i.i.i.i52

terminate.lpad.i.i.i.i.i52:                       ; preds = %if.then13.i.i.i.i.i.i51
  %24 = landingpad { ptr, i32 }
          catch ptr null
  %25 = extractvalue { ptr, i32 } %24, 0
  tail call void @__clang_call_terminate(ptr %25) #20
  unreachable

_ZSt8_DestroyIN4cvc58internal12NodeTemplateILb1EEEEvPT_.exit.i.i.i48: ; preds = %if.then13.i.i.i.i.i.i51, %if.then.i.i.i.i.i.i42, %for.body.i.i.i38
  %incdec.ptr.i.i.i49 = getelementptr inbounds i8, ptr %__first.addr.04.i.i.i39, i64 8
  %cmp.not.i.i.i50 = icmp eq ptr %incdec.ptr.i.i.i49, %21
  br i1 %cmp.not.i.i.i50, label %if.end, label %for.body.i.i.i38, !llvm.loop !4

if.end:                                           ; preds = %_ZSt8_DestroyIN4cvc58internal12NodeTemplateILb1EEEEvPT_.exit.i.i.i31, %_ZSt8_DestroyIN4cvc58internal12NodeTemplateILb1EEEEvPT_.exit.i.i.i48, %if.else, %_ZSt8_DestroyIPN4cvc58internal12NodeTemplateILb1EEES3_EvT_S5_RSaIT0_E.exit19
  ret void
}

; Function Attrs: mustprogress uwtable
define linkonce_odr hidden void @_ZSt8_DestroyIPN4cvc58internal12NodeTemplateILb1EEES3_EvT_S5_RSaIT0_E(ptr noundef %__first, ptr noundef %__last, ptr noundef nonnull align 1 dereferenceable(1) %0) local_unnamed_addr #3 comdat personality ptr @__gxx_personality_v0 {
entry:
  %cmp.not3.i.i = icmp eq ptr %__first, %__last
  br i1 %cmp.not3.i.i, label %_ZSt8_DestroyIPN4cvc58internal12NodeTemplateILb1EEEEvT_S5_.exit, label %for.body.i.i

for.body.i.i:                                     ; preds = %entry, %_ZSt8_DestroyIN4cvc58internal12NodeTemplateILb1EEEEvPT_.exit.i.i
  %__first.addr.04.i.i = phi ptr [ %incdec.ptr.i.i, %_ZSt8_DestroyIN4cvc58internal12NodeTemplateILb1EEEEvPT_.exit.i.i ], [ %__first, %entry ]
  %1 = load ptr, ptr %__first.addr.04.i.i, align 8
  %bf.load.i.i.i.i.i = load i64, ptr %1, align 8
  %2 = and i64 %bf.load.i.i.i.i.i, 1152920405095219200
  %cmp.not.i.i.i.i.i = icmp eq i64 %2, 1152920405095219200
  br i1 %cmp.not.i.i.i.i.i, label %_ZSt8_DestroyIN4cvc58internal12NodeTemplateILb1EEEEvPT_.exit.i.i, label %if.then.i.i.i.i.i

if.then.i.i.i.i.i:                                ; preds = %for.body.i.i
  %bf.value.i.i.i.i.i = add i64 %bf.load.i.i.i.i.i, 1152920405095219200
  %bf.shl.i.i.i.i.i = and i64 %bf.value.i.i.i.i.i, 1152920405095219200
  %bf.clear7.i.i.i.i.i = and i64 %bf.load.i.i.i.i.i, -1152920405095219201
  %bf.set.i.i.i.i.i = or disjoint i64 %bf.shl.i.i.i.i.i, %bf.clear7.i.i.i.i.i
  store i64 %bf.set.i.i.i.i.i, ptr %1, align 8
  %cmp12.i.i.i.i.i = icmp eq i64 %bf.shl.i.i.i.i.i, 0
  br i1 %cmp12.i.i.i.i.i, label %if.then13.i.i.i.i.i, label %_ZSt8_DestroyIN4cvc58internal12NodeTemplateILb1EEEEvPT_.exit.i.i

if.then13.i.i.i.i.i:                              ; preds = %if.then.i.i.i.i.i
  invoke void @_ZN4cvc58internal4expr9NodeValue15markForDeletionEv(ptr noundef nonnull align 8 dereferenceable(16) %1)
          to label %_ZSt8_DestroyIN4cvc58internal12NodeTemplateILb1EEEEvPT_.exit.i.i unwind label %terminate.lpad.i.i.i.i

terminate.lpad.i.i.i.i:                           ; preds = %if.then13.i.i.i.i.i
  %3 = landingpad { ptr, i32 }
          catch ptr null
  %4 = extractvalue { ptr, i32 } %3, 0
  tail call void @__clang_call_terminate(ptr %4) #20
  unreachable

_ZSt8_DestroyIN4cvc58internal12NodeTemplateILb1EEEEvPT_.exit.i.i: ; preds = %if.then13.i.i.i.i.i, %if.then.i.i.i.i.i, %for.body.i.i
  %incdec.ptr.i.i = getelementptr inbounds i8, ptr %__first.addr.04.i.i, i64 8
  %cmp.not.i.i = icmp eq ptr %incdec.ptr.i.i, %__last
  br i1 %cmp.not.i.i, label %_ZSt8_DestroyIPN4cvc58internal12NodeTemplateILb1EEEEvT_S5_.exit, label %for.body.i.i, !llvm.loop !4

_ZSt8_DestroyIPN4cvc58internal12NodeTemplateILb1EEEEvT_S5_.exit: ; preds = %_ZSt8_DestroyIN4cvc58internal12NodeTemplateILb1EEEEvPT_.exit.i.i, %entry
  ret void
}

; Function Attrs: mustprogress uwtable
define linkonce_odr hidden void @_ZSt8_DestroyIPN4cvc58internal12NodeTemplateILb1EEEEvT_S5_(ptr noundef %__first, ptr noundef %__last) local_unnamed_addr #3 comdat personality ptr @__gxx_personality_v0 {
entry:
  %cmp.not3.i = icmp eq ptr %__first, %__last
  br i1 %cmp.not3.i, label %_ZNSt12_Destroy_auxILb0EE9__destroyIPN4cvc58internal12NodeTemplateILb1EEEEEvT_S7_.exit, label %for.body.i

for.body.i:                                       ; preds = %entry, %_ZSt8_DestroyIN4cvc58internal12NodeTemplateILb1EEEEvPT_.exit.i
  %__first.addr.04.i = phi ptr [ %incdec.ptr.i, %_ZSt8_DestroyIN4cvc58internal12NodeTemplateILb1EEEEvPT_.exit.i ], [ %__first, %entry ]
  %0 = load ptr, ptr %__first.addr.04.i, align 8
  %bf.load.i.i.i.i = load i64, ptr %0, align 8
  %1 = and i64 %bf.load.i.i.i.i, 1152920405095219200
  %cmp.not.i.i.i.i = icmp eq i64 %1, 1152920405095219200
  br i1 %cmp.not.i.i.i.i, label %_ZSt8_DestroyIN4cvc58internal12NodeTemplateILb1EEEEvPT_.exit.i, label %if.then.i.i.i.i

if.then.i.i.i.i:                                  ; preds = %for.body.i
  %bf.value.i.i.i.i = add i64 %bf.load.i.i.i.i, 1152920405095219200
  %bf.shl.i.i.i.i = and i64 %bf.value.i.i.i.i, 1152920405095219200
  %bf.clear7.i.i.i.i = and i64 %bf.load.i.i.i.i, -1152920405095219201
  %bf.set.i.i.i.i = or disjoint i64 %bf.shl.i.i.i.i, %bf.clear7.i.i.i.i
  store i64 %bf.set.i.i.i.i, ptr %0, align 8
  %cmp12.i.i.i.i = icmp eq i64 %bf.shl.i.i.i.i, 0
  br i1 %cmp12.i.i.i.i, label %if.then13.i.i.i.i, label %_ZSt8_DestroyIN4cvc58internal12NodeTemplateILb1EEEEvPT_.exit.i

if.then13.i.i.i.i:                                ; preds = %if.then.i.i.i.i
  invoke void @_ZN4cvc58internal4expr9NodeValue15markForDeletionEv(ptr noundef nonnull align 8 dereferenceable(16) %0)
          to label %_ZSt8_DestroyIN4cvc58internal12NodeTemplateILb1EEEEvPT_.exit.i unwind label %terminate.lpad.i.i.i

terminate.lpad.i.i.i:                             ; preds = %if.then13.i.i.i.i
  %2 = landingpad { ptr, i32 }
          catch ptr null
  %3 = extractvalue { ptr, i32 } %2, 0
  tail call void @__clang_call_terminate(ptr %3) #20
  unreachable

_ZSt8_DestroyIN4cvc58internal12NodeTemplateILb1EEEEvPT_.exit.i: ; preds = %if.then13.i.i.i.i, %if.then.i.i.i.i, %for.body.i
  %incdec.ptr.i = getelementptr inbounds i8, ptr %__first.addr.04.i, i64 8
  %cmp.not.i = icmp eq ptr %incdec.ptr.i, %__last
  br i1 %cmp.not.i, label %_ZNSt12_Destroy_auxILb0EE9__destroyIPN4cvc58internal12NodeTemplateILb1EEEEEvT_S7_.exit, label %for.body.i, !llvm.loop !4

_ZNSt12_Destroy_auxILb0EE9__destroyIPN4cvc58internal12NodeTemplateILb1EEEEEvT_S7_.exit: ; preds = %_ZSt8_DestroyIN4cvc58internal12NodeTemplateILb1EEEEvPT_.exit.i, %entry
  ret void
}

declare noundef ptr @_ZN4cvc57context20ContextMemoryManager7newDataEm(ptr noundef nonnull align 8 dereferenceable(200), i64 noundef) local_unnamed_addr #0

declare void @__cxa_pure_virtual() unnamed_addr

; Function Attrs: mustprogress nounwind uwtable
define linkonce_odr hidden void @_ZN4cvc57context10ContextObjD2Ev(ptr noundef nonnull align 8 dereferenceable(40) %this) unnamed_addr #4 comdat align 2 {
entry:
  ret void
}

; Function Attrs: mustprogress nounwind uwtable
define linkonce_odr hidden void @_ZN4cvc57context10ContextObjD0Ev(ptr noundef nonnull align 8 dereferenceable(40) %this) unnamed_addr #4 comdat align 2 {
entry:
  tail call void @llvm.trap() #20
  unreachable
}

; Function Attrs: cold noreturn nounwind memory(inaccessiblemem: write)
declare void @llvm.trap() #10

declare noundef nonnull align 8 dereferenceable(8) ptr @_ZStlsISt11char_traitsIcEERSt13basic_ostreamIcT_ES5_PKc(ptr noundef nonnull align 8 dereferenceable(8), ptr noundef) local_unnamed_addr #0

; Function Attrs: mustprogress nounwind uwtable
define linkonce_odr hidden void @_ZNSt5dequeIN4cvc58internal12NodeTemplateILb1EEESaIS3_EE8pop_backEv(ptr noundef nonnull align 8 dereferenceable(80) %this) local_unnamed_addr #4 comdat align 2 personality ptr @__gxx_personality_v0 {
entry:
  %_M_finish = getelementptr inbounds i8, ptr %this, i64 48
  %0 = load ptr, ptr %_M_finish, align 8
  %_M_first = getelementptr inbounds i8, ptr %this, i64 56
  %1 = load ptr, ptr %_M_first, align 8
  %cmp.not = icmp eq ptr %0, %1
  br i1 %cmp.not, label %if.else, label %if.then

if.then:                                          ; preds = %entry
  %incdec.ptr = getelementptr inbounds i8, ptr %0, i64 -8
  store ptr %incdec.ptr, ptr %_M_finish, align 8
  %2 = load ptr, ptr %incdec.ptr, align 8
  %bf.load.i.i.i.i = load i64, ptr %2, align 8
  %3 = and i64 %bf.load.i.i.i.i, 1152920405095219200
  %cmp.not.i.i.i.i = icmp eq i64 %3, 1152920405095219200
  br i1 %cmp.not.i.i.i.i, label %if.end, label %if.then.i.i.i.i

if.then.i.i.i.i:                                  ; preds = %if.then
  %bf.value.i.i.i.i = add i64 %bf.load.i.i.i.i, 1152920405095219200
  %bf.shl.i.i.i.i = and i64 %bf.value.i.i.i.i, 1152920405095219200
  %bf.clear7.i.i.i.i = and i64 %bf.load.i.i.i.i, -1152920405095219201
  %bf.set.i.i.i.i = or disjoint i64 %bf.shl.i.i.i.i, %bf.clear7.i.i.i.i
  store i64 %bf.set.i.i.i.i, ptr %2, align 8
  %cmp12.i.i.i.i = icmp eq i64 %bf.shl.i.i.i.i, 0
  br i1 %cmp12.i.i.i.i, label %if.then13.i.i.i.i, label %if.end

if.then13.i.i.i.i:                                ; preds = %if.then.i.i.i.i
  invoke void @_ZN4cvc58internal4expr9NodeValue15markForDeletionEv(ptr noundef nonnull align 8 dereferenceable(16) %2)
          to label %if.end unwind label %terminate.lpad.i.i.i

terminate.lpad.i.i.i:                             ; preds = %if.then13.i.i.i.i
  %4 = landingpad { ptr, i32 }
          catch ptr null
  %5 = extractvalue { ptr, i32 } %4, 0
  tail call void @__clang_call_terminate(ptr %5) #20
  unreachable

if.else:                                          ; preds = %entry
  tail call void @_ZdlPv(ptr noundef %0) #18
  %_M_node.i = getelementptr inbounds i8, ptr %this, i64 72
  %6 = load ptr, ptr %_M_node.i, align 8
  %add.ptr.i = getelementptr inbounds i8, ptr %6, i64 -8
  store ptr %add.ptr.i, ptr %_M_node.i, align 8
  %7 = load ptr, ptr %add.ptr.i, align 8
  store ptr %7, ptr %_M_first, align 8
  %add.ptr.i.i = getelementptr inbounds i8, ptr %7, i64 512
  %_M_last.i.i = getelementptr inbounds i8, ptr %this, i64 64
  store ptr %add.ptr.i.i, ptr %_M_last.i.i, align 8
  %add.ptr8.i = getelementptr inbounds i8, ptr %7, i64 504
  store ptr %add.ptr8.i, ptr %_M_finish, align 8
  %8 = load ptr, ptr %add.ptr8.i, align 8
  %bf.load.i.i.i.i.i = load i64, ptr %8, align 8
  %9 = and i64 %bf.load.i.i.i.i.i, 1152920405095219200
  %cmp.not.i.i.i.i.i = icmp eq i64 %9, 1152920405095219200
  br i1 %cmp.not.i.i.i.i.i, label %if.end, label %if.then.i.i.i.i.i

if.then.i.i.i.i.i:                                ; preds = %if.else
  %bf.value.i.i.i.i.i = add i64 %bf.load.i.i.i.i.i, 1152920405095219200
  %bf.shl.i.i.i.i.i = and i64 %bf.value.i.i.i.i.i, 1152920405095219200
  %bf.clear7.i.i.i.i.i = and i64 %bf.load.i.i.i.i.i, -1152920405095219201
  %bf.set.i.i.i.i.i = or disjoint i64 %bf.shl.i.i.i.i.i, %bf.clear7.i.i.i.i.i
  store i64 %bf.set.i.i.i.i.i, ptr %8, align 8
  %cmp12.i.i.i.i.i = icmp eq i64 %bf.shl.i.i.i.i.i, 0
  br i1 %cmp12.i.i.i.i.i, label %if.then13.i.i.i.i.i, label %if.end

if.then13.i.i.i.i.i:                              ; preds = %if.then.i.i.i.i.i
  invoke void @_ZN4cvc58internal4expr9NodeValue15markForDeletionEv(ptr noundef nonnull align 8 dereferenceable(16) %8)
          to label %if.end unwind label %terminate.lpad.i.i.i.i

terminate.lpad.i.i.i.i:                           ; preds = %if.then13.i.i.i.i.i
  %10 = landingpad { ptr, i32 }
          catch ptr null
  %11 = extractvalue { ptr, i32 } %10, 0
  tail call void @__clang_call_terminate(ptr %11) #20
  unreachable

if.end:                                           ; preds = %if.then13.i.i.i.i.i, %if.then.i.i.i.i.i, %if.else, %if.then13.i.i.i.i, %if.then.i.i.i.i, %if.then
  ret void
}

; Function Attrs: mustprogress uwtable
define linkonce_odr hidden noundef i64 @_ZNSt10_HashtableIKN4cvc58internal12NodeTemplateILb1EEESt4pairIS4_KbESaIS7_ENSt8__detail10_Select1stESt8equal_toIS4_ESt4hashIS3_ENS9_18_Mod_range_hashingENS9_20_Default_ranged_hashENS9_20_Prime_rehash_policyENS9_17_Hashtable_traitsILb1ELb0ELb1EEEE8_M_eraseESt17integral_constantIbLb1EERS4_(ptr noundef nonnull align 8 dereferenceable(56) %this, ptr noundef nonnull align 8 dereferenceable(8) %__k) local_unnamed_addr #3 comdat align 2 {
entry:
  %_M_element_count.i = getelementptr inbounds i8, ptr %this, i64 24
  %0 = load i64, ptr %_M_element_count.i, align 8
  %cmp.not.not = icmp eq i64 %0, 0
  br i1 %cmp.not.not, label %if.then, label %if.else

if.then:                                          ; preds = %entry
  %_M_before_begin.i = getelementptr inbounds i8, ptr %this, i64 16
  %1 = load ptr, ptr %_M_before_begin.i, align 8
  %tobool.not.i = icmp eq ptr %1, null
  br i1 %tobool.not.i, label %return, label %for.cond.preheader.i

for.cond.preheader.i:                             ; preds = %if.then
  %2 = load ptr, ptr %__k, align 8
  %add.ptr.i23 = getelementptr inbounds i8, ptr %1, i64 8
  %3 = load ptr, ptr %add.ptr.i23, align 8
  %cmp.i.i.i.i24 = icmp eq ptr %2, %3
  br i1 %cmp.i.i.i.i24, label %if.end, label %if.end4.i

for.body.i:                                       ; preds = %if.end4.i
  %add.ptr.i = getelementptr inbounds i8, ptr %5, i64 8
  %4 = load ptr, ptr %add.ptr.i, align 8
  %cmp.i.i.i.i = icmp eq ptr %2, %4
  br i1 %cmp.i.i.i.i, label %if.end, label %if.end4.i, !llvm.loop !25

if.end4.i:                                        ; preds = %for.cond.preheader.i, %for.body.i
  %__p.07.i25 = phi ptr [ %5, %for.body.i ], [ %1, %for.cond.preheader.i ]
  %5 = load ptr, ptr %__p.07.i25, align 8
  %cmp.not.i = icmp eq ptr %5, null
  br i1 %cmp.not.i, label %return, label %for.body.i, !llvm.loop !25

if.end:                                           ; preds = %for.body.i, %for.cond.preheader.i
  %6 = phi ptr [ %1, %for.cond.preheader.i ], [ %5, %for.body.i ]
  %__prev_p.06.i.lcssa = phi ptr [ %_M_before_begin.i, %for.cond.preheader.i ], [ %__p.07.i25, %for.body.i ]
  %_M_bucket_count.i = getelementptr inbounds i8, ptr %this, i64 8
  %7 = load i64, ptr %_M_bucket_count.i, align 8
  %add.ptr.i.i = getelementptr inbounds i8, ptr %6, i64 24
  %8 = load i64, ptr %add.ptr.i.i, align 8
  %rem.i.i.i = urem i64 %8, %7
  br label %if.end13

if.else:                                          ; preds = %entry
  %call2.i = tail call noundef i64 @_ZNKSt4hashIN4cvc58internal12NodeTemplateILb1EEEEclERKS3_(ptr noundef nonnull align 1 dereferenceable(1) %this, ptr noundef nonnull align 8 dereferenceable(8) %__k)
  %_M_bucket_count.i10 = getelementptr inbounds i8, ptr %this, i64 8
  %9 = load i64, ptr %_M_bucket_count.i10, align 8
  %rem.i.i.i11 = urem i64 %call2.i, %9
  %10 = load ptr, ptr %this, align 8
  %arrayidx.i = getelementptr inbounds ptr, ptr %10, i64 %rem.i.i.i11
  %11 = load ptr, ptr %arrayidx.i, align 8
  %tobool.not.i12 = icmp eq ptr %11, null
  br i1 %tobool.not.i12, label %return, label %if.end.i

if.end.i:                                         ; preds = %if.else
  %12 = load ptr, ptr %11, align 8
  %13 = load ptr, ptr %__k, align 8
  %add.ptr8.i = getelementptr inbounds i8, ptr %12, i64 8
  %add.ptr.i9.i = getelementptr inbounds i8, ptr %12, i64 24
  %14 = load i64, ptr %add.ptr.i9.i, align 8
  %cmp.i.i10.i = icmp eq i64 %14, %call2.i
  %15 = load ptr, ptr %add.ptr8.i, align 8
  %cmp.i.i.i.i11.i = icmp eq ptr %13, %15
  %16 = select i1 %cmp.i.i10.i, i1 %cmp.i.i.i.i11.i, i1 false
  br i1 %16, label %if.end13, label %if.end3.i

for.cond.i:                                       ; preds = %lor.lhs.false.i
  %add.ptr.i15 = getelementptr inbounds i8, ptr %19, i64 8
  %cmp.i.i.i = icmp eq i64 %20, %call2.i
  %17 = load ptr, ptr %add.ptr.i15, align 8
  %cmp.i.i.i.i.i = icmp eq ptr %13, %17
  %18 = select i1 %cmp.i.i.i, i1 %cmp.i.i.i.i.i, i1 false
  br i1 %18, label %if.end13, label %if.end3.i, !llvm.loop !10

if.end3.i:                                        ; preds = %if.end.i, %for.cond.i
  %__p.012.i = phi ptr [ %19, %for.cond.i ], [ %12, %if.end.i ]
  %19 = load ptr, ptr %__p.012.i, align 8
  %tobool5.not.i = icmp eq ptr %19, null
  br i1 %tobool5.not.i, label %return, label %lor.lhs.false.i

lor.lhs.false.i:                                  ; preds = %if.end3.i
  %add.ptr.i.i.i = getelementptr inbounds i8, ptr %19, i64 24
  %20 = load i64, ptr %add.ptr.i.i.i, align 8
  %rem.i.i.i.i = urem i64 %20, %9
  %cmp.not.i13 = icmp eq i64 %rem.i.i.i.i, %rem.i.i.i11
  br i1 %cmp.not.i13, label %for.cond.i, label %return, !llvm.loop !10

if.end13:                                         ; preds = %for.cond.i, %if.end.i, %if.end
  %__n.0 = phi ptr [ %6, %if.end ], [ %12, %if.end.i ], [ %19, %for.cond.i ]
  %__bkt.0 = phi i64 [ %rem.i.i.i, %if.end ], [ %rem.i.i.i11, %if.end.i ], [ %rem.i.i.i11, %for.cond.i ]
  %__prev_n.0 = phi ptr [ %__prev_p.06.i.lcssa, %if.end ], [ %11, %if.end.i ], [ %__p.012.i, %for.cond.i ]
  %call14 = tail call ptr @_ZNSt10_HashtableIKN4cvc58internal12NodeTemplateILb1EEESt4pairIS4_KbESaIS7_ENSt8__detail10_Select1stESt8equal_toIS4_ESt4hashIS3_ENS9_18_Mod_range_hashingENS9_20_Default_ranged_hashENS9_20_Prime_rehash_policyENS9_17_Hashtable_traitsILb1ELb0ELb1EEEE8_M_eraseEmPNS9_15_Hash_node_baseEPNS9_10_Hash_nodeIS7_Lb1EEE(ptr noundef nonnull align 8 dereferenceable(56) %this, i64 noundef %__bkt.0, ptr noundef nonnull %__prev_n.0, ptr noundef nonnull %__n.0)
  br label %return

return:                                           ; preds = %lor.lhs.false.i, %if.end3.i, %if.end4.i, %if.else, %if.then, %if.end13
  %retval.0 = phi i64 [ 1, %if.end13 ], [ 0, %if.then ], [ 0, %if.else ], [ 0, %if.end4.i ], [ 0, %if.end3.i ], [ 0, %lor.lhs.false.i ]
  ret i64 %retval.0
}

; Function Attrs: mustprogress uwtable
define linkonce_odr hidden ptr @_ZNSt10_HashtableIKN4cvc58internal12NodeTemplateILb1EEESt4pairIS4_KbESaIS7_ENSt8__detail10_Select1stESt8equal_toIS4_ESt4hashIS3_ENS9_18_Mod_range_hashingENS9_20_Default_ranged_hashENS9_20_Prime_rehash_policyENS9_17_Hashtable_traitsILb1ELb0ELb1EEEE8_M_eraseEmPNS9_15_Hash_node_baseEPNS9_10_Hash_nodeIS7_Lb1EEE(ptr noundef nonnull align 8 dereferenceable(56) %this, i64 noundef %__bkt, ptr noundef %__prev_n, ptr noundef %__n) local_unnamed_addr #3 comdat align 2 personality ptr @__gxx_personality_v0 {
entry:
  %0 = load ptr, ptr %this, align 8
  %arrayidx = getelementptr inbounds ptr, ptr %0, i64 %__bkt
  %1 = load ptr, ptr %arrayidx, align 8
  %cmp = icmp eq ptr %1, %__prev_n
  %2 = load ptr, ptr %__n, align 8
  %tobool.not = icmp eq ptr %2, null
  br i1 %cmp, label %if.then, label %if.else

if.then:                                          ; preds = %entry
  br i1 %tobool.not, label %if.end.i, label %cond.end

cond.end:                                         ; preds = %if.then
  %_M_bucket_count.i = getelementptr inbounds i8, ptr %this, i64 8
  %3 = load i64, ptr %_M_bucket_count.i, align 8
  %add.ptr.i.i = getelementptr inbounds i8, ptr %2, i64 24
  %4 = load i64, ptr %add.ptr.i.i, align 8
  %rem.i.i.i = urem i64 %4, %3
  %cmp.not.i = icmp eq i64 %rem.i.i.i, %__bkt
  br i1 %cmp.not.i, label %if.end15, label %if.then3.i

if.then3.i:                                       ; preds = %cond.end
  %arrayidx5.i = getelementptr inbounds ptr, ptr %0, i64 %rem.i.i.i
  store ptr %__prev_n, ptr %arrayidx5.i, align 8
  %.pre = load ptr, ptr %this, align 8
  %arrayidx7.i.phi.trans.insert = getelementptr inbounds ptr, ptr %.pre, i64 %__bkt
  %.pre24 = load ptr, ptr %arrayidx7.i.phi.trans.insert, align 8
  br label %if.end.i

if.end.i:                                         ; preds = %if.then, %if.then3.i
  %5 = phi ptr [ %__prev_n, %if.then ], [ %.pre24, %if.then3.i ]
  %6 = phi ptr [ %0, %if.then ], [ %.pre, %if.then3.i ]
  %_M_before_begin.i = getelementptr inbounds i8, ptr %this, i64 16
  %arrayidx7.i = getelementptr inbounds ptr, ptr %6, i64 %__bkt
  %cmp8.i = icmp eq ptr %_M_before_begin.i, %5
  br i1 %cmp8.i, label %if.then9.i, label %if.end11.i

if.then9.i:                                       ; preds = %if.end.i
  store ptr %2, ptr %5, align 8
  br label %if.end11.i

if.end11.i:                                       ; preds = %if.then9.i, %if.end.i
  store ptr null, ptr %arrayidx7.i, align 8
  br label %if.end15

if.else:                                          ; preds = %entry
  br i1 %tobool.not, label %if.end15, label %if.then6

if.then6:                                         ; preds = %if.else
  %_M_bucket_count.i13 = getelementptr inbounds i8, ptr %this, i64 8
  %7 = load i64, ptr %_M_bucket_count.i13, align 8
  %add.ptr.i.i14 = getelementptr inbounds i8, ptr %2, i64 24
  %8 = load i64, ptr %add.ptr.i.i14, align 8
  %rem.i.i.i15 = urem i64 %8, %7
  %cmp10.not = icmp eq i64 %rem.i.i.i15, %__bkt
  br i1 %cmp10.not, label %if.end15, label %if.then11

if.then11:                                        ; preds = %if.then6
  %arrayidx13 = getelementptr inbounds ptr, ptr %0, i64 %rem.i.i.i15
  store ptr %__prev_n, ptr %arrayidx13, align 8
  br label %if.end15

if.end15:                                         ; preds = %if.end11.i, %cond.end, %if.else, %if.then11, %if.then6
  %9 = load ptr, ptr %__n, align 8
  store ptr %9, ptr %__prev_n, align 8
  %add.ptr.i = getelementptr inbounds i8, ptr %__n, i64 8
  %10 = load ptr, ptr %add.ptr.i, align 8
  %bf.load.i.i.i.i.i.i = load i64, ptr %10, align 8
  %11 = and i64 %bf.load.i.i.i.i.i.i, 1152920405095219200
  %cmp.not.i.i.i.i.i.i = icmp eq i64 %11, 1152920405095219200
  br i1 %cmp.not.i.i.i.i.i.i, label %_ZNSt8__detail16_Hashtable_allocISaINS_10_Hash_nodeISt4pairIKN4cvc58internal12NodeTemplateILb1EEEKbELb1EEEEE18_M_deallocate_nodeEPSA_.exit, label %if.then.i.i.i.i.i.i

if.then.i.i.i.i.i.i:                              ; preds = %if.end15
  %bf.value.i.i.i.i.i.i = add i64 %bf.load.i.i.i.i.i.i, 1152920405095219200
  %bf.shl.i.i.i.i.i.i = and i64 %bf.value.i.i.i.i.i.i, 1152920405095219200
  %bf.clear7.i.i.i.i.i.i = and i64 %bf.load.i.i.i.i.i.i, -1152920405095219201
  %bf.set.i.i.i.i.i.i = or disjoint i64 %bf.shl.i.i.i.i.i.i, %bf.clear7.i.i.i.i.i.i
  store i64 %bf.set.i.i.i.i.i.i, ptr %10, align 8
  %cmp12.i.i.i.i.i.i = icmp eq i64 %bf.shl.i.i.i.i.i.i, 0
  br i1 %cmp12.i.i.i.i.i.i, label %if.then13.i.i.i.i.i.i, label %_ZNSt8__detail16_Hashtable_allocISaINS_10_Hash_nodeISt4pairIKN4cvc58internal12NodeTemplateILb1EEEKbELb1EEEEE18_M_deallocate_nodeEPSA_.exit

if.then13.i.i.i.i.i.i:                            ; preds = %if.then.i.i.i.i.i.i
  invoke void @_ZN4cvc58internal4expr9NodeValue15markForDeletionEv(ptr noundef nonnull align 8 dereferenceable(16) %10)
          to label %_ZNSt8__detail16_Hashtable_allocISaINS_10_Hash_nodeISt4pairIKN4cvc58internal12NodeTemplateILb1EEEKbELb1EEEEE18_M_deallocate_nodeEPSA_.exit unwind label %terminate.lpad.i.i.i.i.i

terminate.lpad.i.i.i.i.i:                         ; preds = %if.then13.i.i.i.i.i.i
  %12 = landingpad { ptr, i32 }
          catch ptr null
  %13 = extractvalue { ptr, i32 } %12, 0
  tail call void @__clang_call_terminate(ptr %13) #20
  unreachable

_ZNSt8__detail16_Hashtable_allocISaINS_10_Hash_nodeISt4pairIKN4cvc58internal12NodeTemplateILb1EEEKbELb1EEEEE18_M_deallocate_nodeEPSA_.exit: ; preds = %if.end15, %if.then.i.i.i.i.i.i, %if.then13.i.i.i.i.i.i
  tail call void @_ZdlPv(ptr noundef nonnull %__n) #18
  %_M_element_count = getelementptr inbounds i8, ptr %this, i64 24
  %14 = load i64, ptr %_M_element_count, align 8
  %dec = add i64 %14, -1
  store i64 %dec, ptr %_M_element_count, align 8
  ret ptr %9
}

declare noundef i64 @_ZNKSt4hashIN4cvc58internal12NodeTemplateILb1EEEEclERKS3_(ptr noundef nonnull align 1 dereferenceable(1), ptr noundef nonnull align 8 dereferenceable(8)) local_unnamed_addr #0

; Function Attrs: mustprogress nounwind uwtable
define linkonce_odr hidden void @_ZNSt16allocator_traitsISaIN4cvc58internal12NodeTemplateILb1EEEEE7destroyIS3_EEvRS4_PT_(ptr noundef nonnull align 1 dereferenceable(1) %__a, ptr noundef %__p) local_unnamed_addr #4 comdat align 2 personality ptr @__gxx_personality_v0 {
entry:
  %0 = load ptr, ptr %__p, align 8
  %bf.load.i.i.i = load i64, ptr %0, align 8
  %1 = and i64 %bf.load.i.i.i, 1152920405095219200
  %cmp.not.i.i.i = icmp eq i64 %1, 1152920405095219200
  br i1 %cmp.not.i.i.i, label %_ZNSt15__new_allocatorIN4cvc58internal12NodeTemplateILb1EEEE7destroyIS3_EEvPT_.exit, label %if.then.i.i.i

if.then.i.i.i:                                    ; preds = %entry
  %bf.value.i.i.i = add i64 %bf.load.i.i.i, 1152920405095219200
  %bf.shl.i.i.i = and i64 %bf.value.i.i.i, 1152920405095219200
  %bf.clear7.i.i.i = and i64 %bf.load.i.i.i, -1152920405095219201
  %bf.set.i.i.i = or disjoint i64 %bf.shl.i.i.i, %bf.clear7.i.i.i
  store i64 %bf.set.i.i.i, ptr %0, align 8
  %cmp12.i.i.i = icmp eq i64 %bf.shl.i.i.i, 0
  br i1 %cmp12.i.i.i, label %if.then13.i.i.i, label %_ZNSt15__new_allocatorIN4cvc58internal12NodeTemplateILb1EEEE7destroyIS3_EEvPT_.exit

if.then13.i.i.i:                                  ; preds = %if.then.i.i.i
  invoke void @_ZN4cvc58internal4expr9NodeValue15markForDeletionEv(ptr noundef nonnull align 8 dereferenceable(16) %0)
          to label %_ZNSt15__new_allocatorIN4cvc58internal12NodeTemplateILb1EEEE7destroyIS3_EEvPT_.exit unwind label %terminate.lpad.i.i

terminate.lpad.i.i:                               ; preds = %if.then13.i.i.i
  %2 = landingpad { ptr, i32 }
          catch ptr null
  %3 = extractvalue { ptr, i32 } %2, 0
  tail call void @__clang_call_terminate(ptr %3) #20
  unreachable

_ZNSt15__new_allocatorIN4cvc58internal12NodeTemplateILb1EEEE7destroyIS3_EEvPT_.exit: ; preds = %entry, %if.then.i.i.i, %if.then13.i.i.i
  ret void
}

; Function Attrs: mustprogress nounwind uwtable
define linkonce_odr hidden void @_ZN4cvc57context10ContextObjdlEPv(ptr noundef %pMem) local_unnamed_addr #4 comdat align 2 personality ptr @__gxx_personality_v0 {
entry:
  %ref.tmp1 = alloca %"class.cvc5::internal::FatalStream", align 1
  invoke void @_ZN4cvc58internal11FatalStreamC1EPKcS3_i(ptr noundef nonnull align 1 dereferenceable(1) %ref.tmp1, ptr noundef nonnull @__PRETTY_FUNCTION__._ZN4cvc57context10ContextObjdlEPv, ptr noundef nonnull @.str.14, i32 noundef 566)
          to label %invoke.cont2 unwind label %terminate.lpad

invoke.cont2:                                     ; preds = %entry
  %call = invoke noundef nonnull align 8 dereferenceable(8) ptr @_ZN4cvc58internal11FatalStream6streamEv(ptr noundef nonnull align 1 dereferenceable(1) %ref.tmp1)
          to label %invoke.cont3 unwind label %terminate.lpad

invoke.cont3:                                     ; preds = %invoke.cont2
  %call5 = invoke noundef nonnull align 8 dereferenceable(8) ptr @_ZStlsISt11char_traitsIcEERSt13basic_ostreamIcT_ES5_PKc(ptr noundef nonnull align 8 dereferenceable(8) %call, ptr noundef nonnull @.str.15)
          to label %invoke.cont4 unwind label %terminate.lpad

invoke.cont4:                                     ; preds = %invoke.cont3
  %call7 = invoke noundef nonnull align 8 dereferenceable(8) ptr @_ZStlsISt11char_traitsIcEERSt13basic_ostreamIcT_ES5_PKc(ptr noundef nonnull align 8 dereferenceable(8) %call5, ptr noundef nonnull @.str.16)
          to label %invoke.cont6 unwind label %terminate.lpad

invoke.cont6:                                     ; preds = %invoke.cont4
  %call9 = invoke noundef nonnull align 8 dereferenceable(8) ptr @_ZStlsISt11char_traitsIcEERSt13basic_ostreamIcT_ES5_PKc(ptr noundef nonnull align 8 dereferenceable(8) %call7, ptr noundef nonnull @.str.17)
          to label %invoke.cont8 unwind label %terminate.lpad

invoke.cont8:                                     ; preds = %invoke.cont6
  %call11 = invoke noundef nonnull align 8 dereferenceable(8) ptr @_ZStlsISt11char_traitsIcEERSt13basic_ostreamIcT_ES5_PKc(ptr noundef nonnull align 8 dereferenceable(8) %call9, ptr noundef nonnull @.str.18)
          to label %invoke.cont10 unwind label %terminate.lpad

invoke.cont10:                                    ; preds = %invoke.cont8
  call void @_ZN4cvc58internal11FatalStreamD1Ev(ptr noundef nonnull align 1 dereferenceable(1) %ref.tmp1) #20
  unreachable

terminate.lpad:                                   ; preds = %invoke.cont8, %invoke.cont6, %invoke.cont4, %invoke.cont3, %invoke.cont2, %entry
  %0 = landingpad { ptr, i32 }
          catch ptr null
  %1 = extractvalue { ptr, i32 } %0, 0
  call void @__clang_call_terminate(ptr %1) #20
  unreachable
}

declare void @_ZN4cvc58internal11FatalStreamC1EPKcS3_i(ptr noundef nonnull align 1 dereferenceable(1), ptr noundef, ptr noundef, i32 noundef) unnamed_addr #0

declare noundef nonnull align 8 dereferenceable(8) ptr @_ZN4cvc58internal11FatalStream6streamEv(ptr noundef nonnull align 1 dereferenceable(1)) local_unnamed_addr #0

; Function Attrs: noreturn nounwind
declare void @_ZN4cvc58internal11FatalStreamD1Ev(ptr noundef nonnull align 1 dereferenceable(1)) unnamed_addr #11

declare void @_ZN4cvc58internal4expr9NodeValue15markForDeletionEv(ptr noundef nonnull align 8 dereferenceable(16)) local_unnamed_addr #0

declare void @_ZN4cvc58internal4expr9NodeValue20markRefCountMaxedOutEv(ptr noundef nonnull align 8 dereferenceable(16)) local_unnamed_addr #0

; Function Attrs: nofree nounwind
declare i32 @__cxa_guard_acquire(ptr) local_unnamed_addr #2

; Function Attrs: nobuiltin allocsize(0)
declare noundef nonnull ptr @_Znwm(i64 noundef) local_unnamed_addr #12

; Function Attrs: nofree nounwind
declare void @__cxa_guard_abort(ptr) local_unnamed_addr #2

; Function Attrs: nofree nounwind
declare void @__cxa_guard_release(ptr) local_unnamed_addr #2

declare noundef ptr @_ZN4cvc58internal11NodeManager9currentNMEv() local_unnamed_addr #0

declare void @_ZN4cvc58internal11NodeBuilderC1EPNS0_11NodeManagerENS0_4kind6Kind_tE(ptr noundef nonnull align 8 dereferenceable(116), ptr noundef, i32 noundef) unnamed_addr #0

declare noundef nonnull align 8 dereferenceable(116) ptr @_ZN4cvc58internal11NodeBuilderlsENS0_12NodeTemplateILb0EEE(ptr noundef nonnull align 8 dereferenceable(116), ptr noundef) local_unnamed_addr #0

declare void @_ZN4cvc58internal11NodeBuilder13constructNodeEv(ptr sret(%"class.cvc5::internal::NodeTemplate.294") align 8, ptr noundef nonnull align 8 dereferenceable(116)) local_unnamed_addr #0

; Function Attrs: nounwind
declare void @_ZN4cvc58internal11NodeBuilderD1Ev(ptr noundef nonnull align 8 dereferenceable(116)) unnamed_addr #1

declare void @_ZN4cvc57context10ContextObjC2EPNS0_7ContextE(ptr noundef nonnull align 8 dereferenceable(40), ptr noundef) unnamed_addr #0

; Function Attrs: mustprogress uwtable
define linkonce_odr hidden noundef ptr @_ZN4cvc57context6CDListINS_8internal12NodeTemplateILb1EEENS0_14DefaultCleanUpIS4_EESaIS4_EE4saveEPNS0_20ContextMemoryManagerE(ptr noundef nonnull align 8 dereferenceable(74) %this, ptr noundef %pCMM) unnamed_addr #3 comdat align 2 personality ptr @__gxx_personality_v0 {
invoke.cont:
  %call.i = tail call noundef ptr @_ZN4cvc57context20ContextMemoryManager7newDataEm(ptr noundef nonnull align 8 dereferenceable(200) %pCMM, i64 noundef 80)
  store ptr getelementptr inbounds ({ [6 x ptr] }, ptr @_ZTVN4cvc57context10ContextObjE, i64 0, inrange i32 0, i64 2), ptr %call.i, align 8
  %d_pScope.i.i = getelementptr inbounds i8, ptr %call.i, i64 8
  %d_pScope2.i.i = getelementptr inbounds i8, ptr %this, i64 8
  tail call void @llvm.memcpy.p0.p0.i64(ptr noundef nonnull align 8 dereferenceable(32) %d_pScope.i.i, ptr noundef nonnull align 8 dereferenceable(32) %d_pScope2.i.i, i64 32, i1 false)
  store ptr getelementptr inbounds ({ [6 x ptr] }, ptr @_ZTVN4cvc57context6CDListINS_8internal12NodeTemplateILb1EEENS0_14DefaultCleanUpIS4_EESaIS4_EEE, i64 0, inrange i32 0, i64 2), ptr %call.i, align 8
  %d_list.i = getelementptr inbounds i8, ptr %call.i, i64 40
  tail call void @llvm.memset.p0.i64(ptr noundef nonnull align 8 dereferenceable(24) %d_list.i, i8 0, i64 24, i1 false)
  %d_size.i = getelementptr inbounds i8, ptr %call.i, i64 64
  %d_size2.i = getelementptr inbounds i8, ptr %this, i64 64
  %0 = load i64, ptr %d_size2.i, align 8
  store i64 %0, ptr %d_size.i, align 8
  %d_callCleanup.i = getelementptr inbounds i8, ptr %call.i, i64 72
  store i8 0, ptr %d_callCleanup.i, align 8
  ret ptr %call.i
}

; Function Attrs: mustprogress uwtable
define linkonce_odr hidden void @_ZN4cvc57context6CDListINS_8internal12NodeTemplateILb1EEENS0_14DefaultCleanUpIS4_EESaIS4_EE7restoreEPNS0_10ContextObjE(ptr noundef nonnull align 8 dereferenceable(74) %this, ptr noundef %data) unnamed_addr #3 comdat align 2 {
entry:
  %d_size = getelementptr inbounds i8, ptr %data, i64 64
  %0 = load i64, ptr %d_size, align 8
  %d_callCleanup.i = getelementptr inbounds i8, ptr %this, i64 72
  %1 = load i8, ptr %d_callCleanup.i, align 8
  %2 = and i8 %1, 1
  %tobool.not.i = icmp ne i8 %2, 0
  %d_size4.i = getelementptr inbounds i8, ptr %this, i64 64
  %d_size.promoted.i = load i64, ptr %d_size4.i, align 8
  %cmp.not3.i = icmp eq i64 %d_size.promoted.i, %0
  %or.cond.i = select i1 %tobool.not.i, i1 %cmp.not3.i, i1 false
  br i1 %or.cond.i, label %_ZN4cvc57context6CDListINS_8internal12NodeTemplateILb1EEENS0_14DefaultCleanUpIS4_EESaIS4_EE12truncateListEm.exit, label %if.end.sink.split.i

if.end.sink.split.i:                              ; preds = %entry
  store i64 %0, ptr %d_size4.i, align 8
  br label %_ZN4cvc57context6CDListINS_8internal12NodeTemplateILb1EEENS0_14DefaultCleanUpIS4_EESaIS4_EE12truncateListEm.exit

_ZN4cvc57context6CDListINS_8internal12NodeTemplateILb1EEENS0_14DefaultCleanUpIS4_EESaIS4_EE12truncateListEm.exit: ; preds = %entry, %if.end.sink.split.i
  %d_list5.i = getelementptr inbounds i8, ptr %this, i64 40
  %3 = load ptr, ptr %d_list5.i, align 8
  %add.ptr.i2.i = getelementptr inbounds %"class.cvc5::internal::NodeTemplate.294", ptr %3, i64 %0
  %_M_finish.i.i = getelementptr inbounds i8, ptr %this, i64 48
  %4 = load ptr, ptr %_M_finish.i.i, align 8
  %sub.ptr.rhs.cast.i.i.i = ptrtoint ptr %3 to i64
  %sub.ptr.lhs.cast.i1.i.i = ptrtoint ptr %4 to i64
  %sub.ptr.sub.i3.i.i = sub i64 %sub.ptr.lhs.cast.i1.i.i, %sub.ptr.rhs.cast.i.i.i
  %sub.ptr.div.i4.i.i = ashr exact i64 %sub.ptr.sub.i3.i.i, 3
  %add.ptr.i5.i.i = getelementptr inbounds %"class.cvc5::internal::NodeTemplate.294", ptr %3, i64 %sub.ptr.div.i4.i.i
  %call15.i.i = tail call ptr @_ZNSt6vectorIN4cvc58internal12NodeTemplateILb1EEESaIS3_EE8_M_eraseEN9__gnu_cxx17__normal_iteratorIPS3_S5_EES9_(ptr noundef nonnull align 8 dereferenceable(24) %d_list5.i, ptr %add.ptr.i2.i, ptr %add.ptr.i5.i.i)
  ret void
}

; Function Attrs: mustprogress nounwind uwtable
define linkonce_odr hidden void @_ZN4cvc57context6CDListINS_8internal12NodeTemplateILb1EEENS0_14DefaultCleanUpIS4_EESaIS4_EED0Ev(ptr noundef nonnull align 8 dereferenceable(74) %this) unnamed_addr #4 comdat align 2 {
entry:
  tail call void @_ZN4cvc57context6CDListINS_8internal12NodeTemplateILb1EEENS0_14DefaultCleanUpIS4_EESaIS4_EED2Ev(ptr noundef nonnull align 8 dereferenceable(74) %this) #19
  tail call void @_ZN4cvc57context10ContextObjdlEPv(ptr noundef nonnull %this) #19
  ret void
}

; Function Attrs: mustprogress uwtable
define linkonce_odr hidden ptr @_ZNSt6vectorIN4cvc58internal12NodeTemplateILb1EEESaIS3_EE8_M_eraseEN9__gnu_cxx17__normal_iteratorIPS3_S5_EES9_(ptr noundef nonnull align 8 dereferenceable(24) %this, ptr %__first.coerce, ptr %__last.coerce) local_unnamed_addr #3 comdat align 2 personality ptr @__gxx_personality_v0 {
entry:
  %cmp.i.not = icmp eq ptr %__first.coerce, %__last.coerce
  br i1 %cmp.i.not, label %if.end21, label %if.then

if.then:                                          ; preds = %entry
  %_M_finish.i = getelementptr inbounds i8, ptr %this, i64 8
  %0 = load ptr, ptr %_M_finish.i, align 8
  %cmp.i1.not = icmp eq ptr %0, %__last.coerce
  br i1 %cmp.i1.not, label %if.then.if.end_crit_edge, label %if.then6

if.then.if.end_crit_edge:                         ; preds = %if.then
  %.pre17 = ptrtoint ptr %__last.coerce to i64
  br label %if.end

if.then6:                                         ; preds = %if.then
  %sub.ptr.lhs.cast.i.i.i.i.i = ptrtoint ptr %0 to i64
  %sub.ptr.rhs.cast.i.i.i.i.i = ptrtoint ptr %__last.coerce to i64
  %sub.ptr.sub.i.i.i.i.i = sub i64 %sub.ptr.lhs.cast.i.i.i.i.i, %sub.ptr.rhs.cast.i.i.i.i.i
  %sub.ptr.div.i.i.i.i.i = ashr exact i64 %sub.ptr.sub.i.i.i.i.i, 3
  %cmp6.i.i.i.i.i = icmp sgt i64 %sub.ptr.div.i.i.i.i.i, 0
  br i1 %cmp6.i.i.i.i.i, label %for.body.i.i.i.i.i, label %if.end

for.body.i.i.i.i.i:                               ; preds = %if.then6, %_ZN4cvc58internal12NodeTemplateILb1EEaSERKS2_.exit.i.i.i.i.i
  %__n.09.i.i.i.i.i = phi i64 [ %dec.i.i.i.i.i, %_ZN4cvc58internal12NodeTemplateILb1EEaSERKS2_.exit.i.i.i.i.i ], [ %sub.ptr.div.i.i.i.i.i, %if.then6 ]
  %__result.addr.08.i.i.i.i.i = phi ptr [ %incdec.ptr1.i.i.i.i.i, %_ZN4cvc58internal12NodeTemplateILb1EEaSERKS2_.exit.i.i.i.i.i ], [ %__first.coerce, %if.then6 ]
  %__first.addr.07.i.i.i.i.i = phi ptr [ %incdec.ptr.i.i.i.i.i, %_ZN4cvc58internal12NodeTemplateILb1EEaSERKS2_.exit.i.i.i.i.i ], [ %__last.coerce, %if.then6 ]
  %1 = load ptr, ptr %__result.addr.08.i.i.i.i.i, align 8
  %2 = load ptr, ptr %__first.addr.07.i.i.i.i.i, align 8
  %cmp.not.i.i.i.i.i.i = icmp eq ptr %1, %2
  br i1 %cmp.not.i.i.i.i.i.i, label %_ZN4cvc58internal12NodeTemplateILb1EEaSERKS2_.exit.i.i.i.i.i, label %if.then.i.i.i.i.i.i

if.then.i.i.i.i.i.i:                              ; preds = %for.body.i.i.i.i.i
  %bf.load.i.i.i.i.i.i.i = load i64, ptr %1, align 8
  %3 = and i64 %bf.load.i.i.i.i.i.i.i, 1152920405095219200
  %cmp.not.i.i.i.i.i.i.i = icmp eq i64 %3, 1152920405095219200
  br i1 %cmp.not.i.i.i.i.i.i.i, label %_ZN4cvc58internal4expr9NodeValue3decEv.exit.i.i.i.i.i.i, label %if.then.i.i.i.i.i.i.i

if.then.i.i.i.i.i.i.i:                            ; preds = %if.then.i.i.i.i.i.i
  %bf.value.i.i.i.i.i.i.i = add i64 %bf.load.i.i.i.i.i.i.i, 1152920405095219200
  %bf.shl.i.i.i.i.i.i.i = and i64 %bf.value.i.i.i.i.i.i.i, 1152920405095219200
  %bf.clear7.i.i.i.i.i.i.i = and i64 %bf.load.i.i.i.i.i.i.i, -1152920405095219201
  %bf.set.i.i.i.i.i.i.i = or disjoint i64 %bf.shl.i.i.i.i.i.i.i, %bf.clear7.i.i.i.i.i.i.i
  store i64 %bf.set.i.i.i.i.i.i.i, ptr %1, align 8
  %cmp12.i.i.i.i.i.i.i = icmp eq i64 %bf.shl.i.i.i.i.i.i.i, 0
  br i1 %cmp12.i.i.i.i.i.i.i, label %if.then13.i.i.i.i.i.i.i, label %_ZN4cvc58internal4expr9NodeValue3decEv.exit.i.i.i.i.i.i

if.then13.i.i.i.i.i.i.i:                          ; preds = %if.then.i.i.i.i.i.i.i
  tail call void @_ZN4cvc58internal4expr9NodeValue15markForDeletionEv(ptr noundef nonnull align 8 dereferenceable(16) %1)
  br label %_ZN4cvc58internal4expr9NodeValue3decEv.exit.i.i.i.i.i.i

_ZN4cvc58internal4expr9NodeValue3decEv.exit.i.i.i.i.i.i: ; preds = %if.then13.i.i.i.i.i.i.i, %if.then.i.i.i.i.i.i.i, %if.then.i.i.i.i.i.i
  %4 = load ptr, ptr %__first.addr.07.i.i.i.i.i, align 8
  store ptr %4, ptr %__result.addr.08.i.i.i.i.i, align 8
  %bf.load.i2.i.i.i.i.i.i = load i64, ptr %4, align 8
  %bf.lshr.i.i.i.i.i.i.i = lshr i64 %bf.load.i2.i.i.i.i.i.i, 40
  %5 = trunc i64 %bf.lshr.i.i.i.i.i.i.i to i32
  %bf.cast.i.i.i.i.i.i.i = and i32 %5, 1048575
  %cmp.i.i.i.i.i.i.i = icmp ult i32 %bf.cast.i.i.i.i.i.i.i, 1048574
  br i1 %cmp.i.i.i.i.i.i.i, label %if.then.i5.i.i.i.i.i.i, label %if.else.i.i.i.i.i.i.i

if.then.i5.i.i.i.i.i.i:                           ; preds = %_ZN4cvc58internal4expr9NodeValue3decEv.exit.i.i.i.i.i.i
  %bf.value.i6.i.i.i.i.i.i = add i64 %bf.load.i2.i.i.i.i.i.i, 1099511627776
  %bf.shl.i7.i.i.i.i.i.i = and i64 %bf.value.i6.i.i.i.i.i.i, 1152920405095219200
  %bf.clear7.i8.i.i.i.i.i.i = and i64 %bf.load.i2.i.i.i.i.i.i, -1152920405095219201
  %bf.set.i9.i.i.i.i.i.i = or disjoint i64 %bf.shl.i7.i.i.i.i.i.i, %bf.clear7.i8.i.i.i.i.i.i
  store i64 %bf.set.i9.i.i.i.i.i.i, ptr %4, align 8
  br label %_ZN4cvc58internal12NodeTemplateILb1EEaSERKS2_.exit.i.i.i.i.i

if.else.i.i.i.i.i.i.i:                            ; preds = %_ZN4cvc58internal4expr9NodeValue3decEv.exit.i.i.i.i.i.i
  %cmp12.i3.i.i.i.i.i.i = icmp eq i32 %bf.cast.i.i.i.i.i.i.i, 1048574
  br i1 %cmp12.i3.i.i.i.i.i.i, label %if.then13.i4.i.i.i.i.i.i, label %_ZN4cvc58internal12NodeTemplateILb1EEaSERKS2_.exit.i.i.i.i.i

if.then13.i4.i.i.i.i.i.i:                         ; preds = %if.else.i.i.i.i.i.i.i
  %bf.set23.i.i.i.i.i.i.i = or i64 %bf.load.i2.i.i.i.i.i.i, 1152920405095219200
  store i64 %bf.set23.i.i.i.i.i.i.i, ptr %4, align 8
  tail call void @_ZN4cvc58internal4expr9NodeValue20markRefCountMaxedOutEv(ptr noundef nonnull align 8 dereferenceable(16) %4)
  br label %_ZN4cvc58internal12NodeTemplateILb1EEaSERKS2_.exit.i.i.i.i.i

_ZN4cvc58internal12NodeTemplateILb1EEaSERKS2_.exit.i.i.i.i.i: ; preds = %if.then13.i4.i.i.i.i.i.i, %if.else.i.i.i.i.i.i.i, %if.then.i5.i.i.i.i.i.i, %for.body.i.i.i.i.i
  %incdec.ptr.i.i.i.i.i = getelementptr inbounds i8, ptr %__first.addr.07.i.i.i.i.i, i64 8
  %incdec.ptr1.i.i.i.i.i = getelementptr inbounds i8, ptr %__result.addr.08.i.i.i.i.i, i64 8
  %dec.i.i.i.i.i = add nsw i64 %__n.09.i.i.i.i.i, -1
  %cmp.i.i.i.i.i = icmp sgt i64 %__n.09.i.i.i.i.i, 1
  br i1 %cmp.i.i.i.i.i, label %for.body.i.i.i.i.i, label %if.end.loopexit, !llvm.loop !26

if.end.loopexit:                                  ; preds = %_ZN4cvc58internal12NodeTemplateILb1EEaSERKS2_.exit.i.i.i.i.i
  %.pre = load ptr, ptr %_M_finish.i, align 8
  %.pre18 = ptrtoint ptr %.pre to i64
  br label %if.end

if.end:                                           ; preds = %if.then.if.end_crit_edge, %if.end.loopexit, %if.then6
  %sub.ptr.lhs.cast.i.pre-phi = phi i64 [ %.pre17, %if.then.if.end_crit_edge ], [ %.pre18, %if.end.loopexit ], [ %sub.ptr.lhs.cast.i.i.i.i.i, %if.then6 ]
  %sub.ptr.rhs.cast.i.pre-phi = phi i64 [ %.pre17, %if.then.if.end_crit_edge ], [ %sub.ptr.rhs.cast.i.i.i.i.i, %if.end.loopexit ], [ %sub.ptr.rhs.cast.i.i.i.i.i, %if.then6 ]
  %6 = phi ptr [ %__last.coerce, %if.then.if.end_crit_edge ], [ %.pre, %if.end.loopexit ], [ %0, %if.then6 ]
  %sub.ptr.sub.i = sub i64 %sub.ptr.lhs.cast.i.pre-phi, %sub.ptr.rhs.cast.i.pre-phi
  %sub.ptr.div.i = ashr exact i64 %sub.ptr.sub.i, 3
  %add.ptr = getelementptr inbounds %"class.cvc5::internal::NodeTemplate.294", ptr %__first.coerce, i64 %sub.ptr.div.i
  %tobool.not.i = icmp eq ptr %6, %add.ptr
  br i1 %tobool.not.i, label %if.end21, label %for.body.i.i.i.i

for.body.i.i.i.i:                                 ; preds = %if.end, %_ZSt8_DestroyIN4cvc58internal12NodeTemplateILb1EEEEvPT_.exit.i.i.i.i
  %__first.addr.04.i.i.i.i = phi ptr [ %incdec.ptr.i.i.i.i, %_ZSt8_DestroyIN4cvc58internal12NodeTemplateILb1EEEEvPT_.exit.i.i.i.i ], [ %add.ptr, %if.end ]
  %7 = load ptr, ptr %__first.addr.04.i.i.i.i, align 8
  %bf.load.i.i.i.i.i.i.i5 = load i64, ptr %7, align 8
  %8 = and i64 %bf.load.i.i.i.i.i.i.i5, 1152920405095219200
  %cmp.not.i.i.i.i.i.i.i6 = icmp eq i64 %8, 1152920405095219200
  br i1 %cmp.not.i.i.i.i.i.i.i6, label %_ZSt8_DestroyIN4cvc58internal12NodeTemplateILb1EEEEvPT_.exit.i.i.i.i, label %if.then.i.i.i.i.i.i.i7

if.then.i.i.i.i.i.i.i7:                           ; preds = %for.body.i.i.i.i
  %bf.value.i.i.i.i.i.i.i8 = add i64 %bf.load.i.i.i.i.i.i.i5, 1152920405095219200
  %bf.shl.i.i.i.i.i.i.i9 = and i64 %bf.value.i.i.i.i.i.i.i8, 1152920405095219200
  %bf.clear7.i.i.i.i.i.i.i10 = and i64 %bf.load.i.i.i.i.i.i.i5, -1152920405095219201
  %bf.set.i.i.i.i.i.i.i11 = or disjoint i64 %bf.shl.i.i.i.i.i.i.i9, %bf.clear7.i.i.i.i.i.i.i10
  store i64 %bf.set.i.i.i.i.i.i.i11, ptr %7, align 8
  %cmp12.i.i.i.i.i.i.i12 = icmp eq i64 %bf.shl.i.i.i.i.i.i.i9, 0
  br i1 %cmp12.i.i.i.i.i.i.i12, label %if.then13.i.i.i.i.i.i.i13, label %_ZSt8_DestroyIN4cvc58internal12NodeTemplateILb1EEEEvPT_.exit.i.i.i.i

if.then13.i.i.i.i.i.i.i13:                        ; preds = %if.then.i.i.i.i.i.i.i7
  invoke void @_ZN4cvc58internal4expr9NodeValue15markForDeletionEv(ptr noundef nonnull align 8 dereferenceable(16) %7)
          to label %_ZSt8_DestroyIN4cvc58internal12NodeTemplateILb1EEEEvPT_.exit.i.i.i.i unwind label %terminate.lpad.i.i.i.i.i.i

terminate.lpad.i.i.i.i.i.i:                       ; preds = %if.then13.i.i.i.i.i.i.i13
  %9 = landingpad { ptr, i32 }
          catch ptr null
  %10 = extractvalue { ptr, i32 } %9, 0
  tail call void @__clang_call_terminate(ptr %10) #20
  unreachable

_ZSt8_DestroyIN4cvc58internal12NodeTemplateILb1EEEEvPT_.exit.i.i.i.i: ; preds = %if.then13.i.i.i.i.i.i.i13, %if.then.i.i.i.i.i.i.i7, %for.body.i.i.i.i
  %incdec.ptr.i.i.i.i = getelementptr inbounds i8, ptr %__first.addr.04.i.i.i.i, i64 8
  %cmp.not.i.i.i.i = icmp eq ptr %incdec.ptr.i.i.i.i, %6
  br i1 %cmp.not.i.i.i.i, label %invoke.cont.i, label %for.body.i.i.i.i, !llvm.loop !4

invoke.cont.i:                                    ; preds = %_ZSt8_DestroyIN4cvc58internal12NodeTemplateILb1EEEEvPT_.exit.i.i.i.i
  store ptr %add.ptr, ptr %_M_finish.i, align 8
  br label %if.end21

if.end21:                                         ; preds = %invoke.cont.i, %if.end, %entry
  ret ptr %__first.coerce
}

; Function Attrs: mustprogress nounwind uwtable
define linkonce_odr hidden void @_ZN4cvc57context9CDHashSetINS_8internal12NodeTemplateILb1EEESt4hashIS4_EED0Ev(ptr noundef nonnull align 8 dereferenceable(56) %this) unnamed_addr #4 comdat align 2 personality ptr @__gxx_personality_v0 {
entry:
  store ptr getelementptr inbounds ({ [6 x ptr] }, ptr @_ZTVN4cvc57context15CDInsertHashMapINS_8internal12NodeTemplateILb1EEEbSt4hashIS4_EEE, i64 0, inrange i32 0, i64 2), ptr %this, align 8
  invoke void @_ZN4cvc57context10ContextObj7destroyEv(ptr noundef nonnull align 8 dereferenceable(40) %this)
          to label %invoke.cont.i.i unwind label %terminate.lpad.i.i

invoke.cont.i.i:                                  ; preds = %entry
  %d_insertMap.i.i = getelementptr inbounds i8, ptr %this, i64 40
  %0 = load ptr, ptr %d_insertMap.i.i, align 8
  %isnull.i.i = icmp eq ptr %0, null
  br i1 %isnull.i.i, label %_ZN4cvc57context9CDHashSetINS_8internal12NodeTemplateILb1EEESt4hashIS4_EED2Ev.exit, label %delete.notnull.i.i

delete.notnull.i.i:                               ; preds = %invoke.cont.i.i
  tail call void @_ZN4cvc57context13InsertHashMapINS_8internal12NodeTemplateILb1EEEbSt4hashIS4_EED2Ev(ptr noundef nonnull align 8 dereferenceable(136) %0) #19
  tail call void @_ZdlPv(ptr noundef nonnull %0) #18
  br label %_ZN4cvc57context9CDHashSetINS_8internal12NodeTemplateILb1EEESt4hashIS4_EED2Ev.exit

terminate.lpad.i.i:                               ; preds = %entry
  %1 = landingpad { ptr, i32 }
          catch ptr null
  %2 = extractvalue { ptr, i32 } %1, 0
  tail call void @__clang_call_terminate(ptr %2) #20
  unreachable

_ZN4cvc57context9CDHashSetINS_8internal12NodeTemplateILb1EEESt4hashIS4_EED2Ev.exit: ; preds = %invoke.cont.i.i, %delete.notnull.i.i
  tail call void @_ZN4cvc57context9CDHashSetINS_8internal12NodeTemplateILb1EEESt4hashIS4_EEdlEPv(ptr noundef nonnull %this) #19
  ret void
}

; Function Attrs: mustprogress uwtable
define linkonce_odr hidden void @_ZNSt11_Deque_baseIN4cvc58internal12NodeTemplateILb1EEESaIS3_EE17_M_initialize_mapEm(ptr noundef nonnull align 8 dereferenceable(80) %this, i64 noundef %__num_elements) local_unnamed_addr #3 comdat align 2 personality ptr @__gxx_personality_v0 {
entry:
  %div16 = lshr i64 %__num_elements, 6
  %add = add nuw nsw i64 %div16, 1
  %0 = tail call i64 @llvm.umax.i64(i64 %div16, i64 5)
  %.sroa.speculated = add nuw nsw i64 %0, 3
  %_M_map_size = getelementptr inbounds i8, ptr %this, i64 8
  store i64 %.sroa.speculated, ptr %_M_map_size, align 8
  %mul.i.i.i = shl nuw nsw i64 %.sroa.speculated, 3
  %call5.i.i2.i = tail call noalias noundef nonnull ptr @_Znwm(i64 noundef %mul.i.i.i) #17
  store ptr %call5.i.i2.i, ptr %this, align 8
  %sub = sub nsw i64 %.sroa.speculated, %add
  %div137 = lshr i64 %sub, 1
  %add.ptr = getelementptr inbounds ptr, ptr %call5.i.i2.i, i64 %div137
  %add.ptr14 = getelementptr inbounds ptr, ptr %add.ptr, i64 %add
  br label %for.body.i

for.body.i:                                       ; preds = %entry, %invoke.cont.i
  %__cur.08.i = phi ptr [ %incdec.ptr.i, %invoke.cont.i ], [ %add.ptr, %entry ]
  %call5.i.i.i5.i = invoke noalias noundef nonnull dereferenceable(512) ptr @_Znwm(i64 noundef 512) #17
          to label %invoke.cont.i unwind label %lpad.i

invoke.cont.i:                                    ; preds = %for.body.i
  store ptr %call5.i.i.i5.i, ptr %__cur.08.i, align 8
  %incdec.ptr.i = getelementptr inbounds i8, ptr %__cur.08.i, i64 8
  %cmp.i8 = icmp ult ptr %incdec.ptr.i, %add.ptr14
  br i1 %cmp.i8, label %for.body.i, label %try.cont, !llvm.loop !27

lpad.i:                                           ; preds = %for.body.i
  %1 = landingpad { ptr, i32 }
          catch ptr null
  %2 = extractvalue { ptr, i32 } %1, 0
  %3 = tail call ptr @__cxa_begin_catch(ptr %2) #19
  %cmp3.i.i = icmp ugt ptr %__cur.08.i, %add.ptr
  br i1 %cmp3.i.i, label %for.body.i.i, label %_ZNSt11_Deque_baseIN4cvc58internal12NodeTemplateILb1EEESaIS3_EE16_M_destroy_nodesEPPS3_S7_.exit.i

for.body.i.i:                                     ; preds = %lpad.i, %for.body.i.i
  %__n.04.i.i = phi ptr [ %incdec.ptr.i.i, %for.body.i.i ], [ %add.ptr, %lpad.i ]
  %4 = load ptr, ptr %__n.04.i.i, align 8
  tail call void @_ZdlPv(ptr noundef %4) #18
  %incdec.ptr.i.i = getelementptr inbounds i8, ptr %__n.04.i.i, i64 8
  %cmp.i.i = icmp ult ptr %incdec.ptr.i.i, %__cur.08.i
  br i1 %cmp.i.i, label %for.body.i.i, label %_ZNSt11_Deque_baseIN4cvc58internal12NodeTemplateILb1EEESaIS3_EE16_M_destroy_nodesEPPS3_S7_.exit.i, !llvm.loop !23

_ZNSt11_Deque_baseIN4cvc58internal12NodeTemplateILb1EEESaIS3_EE16_M_destroy_nodesEPPS3_S7_.exit.i: ; preds = %for.body.i.i, %lpad.i
  invoke void @__cxa_rethrow() #21
          to label %unreachable.i unwind label %lpad2.i

lpad2.i:                                          ; preds = %_ZNSt11_Deque_baseIN4cvc58internal12NodeTemplateILb1EEESaIS3_EE16_M_destroy_nodesEPPS3_S7_.exit.i
  %5 = landingpad { ptr, i32 }
          catch ptr null
  invoke void @__cxa_end_catch()
          to label %lpad.body unwind label %terminate.lpad.i

terminate.lpad.i:                                 ; preds = %lpad2.i
  %6 = landingpad { ptr, i32 }
          catch ptr null
  %7 = extractvalue { ptr, i32 } %6, 0
  tail call void @__clang_call_terminate(ptr %7) #20
  unreachable

unreachable.i:                                    ; preds = %_ZNSt11_Deque_baseIN4cvc58internal12NodeTemplateILb1EEESaIS3_EE16_M_destroy_nodesEPPS3_S7_.exit.i
  unreachable

lpad.body:                                        ; preds = %lpad2.i
  %8 = extractvalue { ptr, i32 } %5, 0
  %9 = tail call ptr @__cxa_begin_catch(ptr %8) #19
  %10 = load ptr, ptr %this, align 8
  tail call void @_ZdlPv(ptr noundef %10) #18
  tail call void @llvm.memset.p0.i64(ptr noundef nonnull align 8 dereferenceable(16) %this, i8 0, i64 16, i1 false)
  invoke void @__cxa_rethrow() #21
          to label %unreachable unwind label %lpad23

lpad23:                                           ; preds = %lpad.body
  %11 = landingpad { ptr, i32 }
          cleanup
  invoke void @__cxa_end_catch()
          to label %eh.resume unwind label %terminate.lpad

try.cont:                                         ; preds = %invoke.cont.i
  %_M_start = getelementptr inbounds i8, ptr %this, i64 16
  %_M_node.i = getelementptr inbounds i8, ptr %this, i64 40
  store ptr %add.ptr, ptr %_M_node.i, align 8
  %12 = load ptr, ptr %add.ptr, align 8
  %_M_first.i = getelementptr inbounds i8, ptr %this, i64 24
  store ptr %12, ptr %_M_first.i, align 8
  %add.ptr.i = getelementptr inbounds i8, ptr %12, i64 512
  %_M_last.i = getelementptr inbounds i8, ptr %this, i64 32
  store ptr %add.ptr.i, ptr %_M_last.i, align 8
  %_M_finish = getelementptr inbounds i8, ptr %this, i64 48
  %add.ptr27 = getelementptr inbounds i8, ptr %add.ptr14, i64 -8
  %_M_node.i10 = getelementptr inbounds i8, ptr %this, i64 72
  store ptr %add.ptr27, ptr %_M_node.i10, align 8
  %13 = load ptr, ptr %add.ptr27, align 8
  %_M_first.i11 = getelementptr inbounds i8, ptr %this, i64 56
  store ptr %13, ptr %_M_first.i11, align 8
  %add.ptr.i12 = getelementptr inbounds i8, ptr %13, i64 512
  %_M_last.i13 = getelementptr inbounds i8, ptr %this, i64 64
  store ptr %add.ptr.i12, ptr %_M_last.i13, align 8
  store ptr %12, ptr %_M_start, align 8
  %rem = and i64 %__num_elements, 63
  %add.ptr36 = getelementptr inbounds %"class.cvc5::internal::NodeTemplate.294", ptr %13, i64 %rem
  store ptr %add.ptr36, ptr %_M_finish, align 8
  ret void

eh.resume:                                        ; preds = %lpad23
  resume { ptr, i32 } %11

terminate.lpad:                                   ; preds = %lpad23
  %14 = landingpad { ptr, i32 }
          catch ptr null
  %15 = extractvalue { ptr, i32 } %14, 0
  tail call void @__clang_call_terminate(ptr %15) #20
  unreachable

unreachable:                                      ; preds = %lpad.body
  unreachable
}

declare void @__cxa_rethrow() local_unnamed_addr

declare void @__cxa_end_catch() local_unnamed_addr

; Function Attrs: noreturn
declare void @_ZSt28__throw_bad_array_new_lengthv() local_unnamed_addr #13

; Function Attrs: noreturn
declare void @_ZSt17__throw_bad_allocv() local_unnamed_addr #13

; Function Attrs: mustprogress nounwind uwtable
define linkonce_odr hidden void @_ZN4cvc57context9CDHashSetINS_8internal12NodeTemplateILb1EEESt4hashIS4_EEdlEPv(ptr noundef %pMem) local_unnamed_addr #4 comdat align 2 personality ptr @__gxx_personality_v0 {
entry:
  %ref.tmp1 = alloca %"class.cvc5::internal::FatalStream", align 1
  invoke void @_ZN4cvc58internal11FatalStreamC1EPKcS3_i(ptr noundef nonnull align 1 dereferenceable(1) %ref.tmp1, ptr noundef nonnull @__PRETTY_FUNCTION__._ZN4cvc57context9CDHashSetINS_8internal12NodeTemplateILb1EEESt4hashIS4_EEdlEPv, ptr noundef nonnull @.str.19, i32 noundef 52)
          to label %invoke.cont2 unwind label %terminate.lpad

invoke.cont2:                                     ; preds = %entry
  %call = invoke noundef nonnull align 8 dereferenceable(8) ptr @_ZN4cvc58internal11FatalStream6streamEv(ptr noundef nonnull align 1 dereferenceable(1) %ref.tmp1)
          to label %invoke.cont3 unwind label %terminate.lpad

invoke.cont3:                                     ; preds = %invoke.cont2
  %call5 = invoke noundef nonnull align 8 dereferenceable(8) ptr @_ZStlsISt11char_traitsIcEERSt13basic_ostreamIcT_ES5_PKc(ptr noundef nonnull align 8 dereferenceable(8) %call, ptr noundef nonnull @.str.15)
          to label %invoke.cont4 unwind label %terminate.lpad

invoke.cont4:                                     ; preds = %invoke.cont3
  %call7 = invoke noundef nonnull align 8 dereferenceable(8) ptr @_ZStlsISt11char_traitsIcEERSt13basic_ostreamIcT_ES5_PKc(ptr noundef nonnull align 8 dereferenceable(8) %call5, ptr noundef nonnull @.str.16)
          to label %invoke.cont6 unwind label %terminate.lpad

invoke.cont6:                                     ; preds = %invoke.cont4
  %call9 = invoke noundef nonnull align 8 dereferenceable(8) ptr @_ZStlsISt11char_traitsIcEERSt13basic_ostreamIcT_ES5_PKc(ptr noundef nonnull align 8 dereferenceable(8) %call7, ptr noundef nonnull @.str.17)
          to label %invoke.cont8 unwind label %terminate.lpad

invoke.cont8:                                     ; preds = %invoke.cont6
  %call11 = invoke noundef nonnull align 8 dereferenceable(8) ptr @_ZStlsISt11char_traitsIcEERSt13basic_ostreamIcT_ES5_PKc(ptr noundef nonnull align 8 dereferenceable(8) %call9, ptr noundef nonnull @.str.18)
          to label %invoke.cont10 unwind label %terminate.lpad

invoke.cont10:                                    ; preds = %invoke.cont8
  call void @_ZN4cvc58internal11FatalStreamD1Ev(ptr noundef nonnull align 1 dereferenceable(1) %ref.tmp1) #20
  unreachable

terminate.lpad:                                   ; preds = %invoke.cont8, %invoke.cont6, %invoke.cont4, %invoke.cont3, %invoke.cont2, %entry
  %0 = landingpad { ptr, i32 }
          catch ptr null
  %1 = extractvalue { ptr, i32 } %0, 0
  call void @__clang_call_terminate(ptr %1) #20
  unreachable
}

declare void @_ZN4cvc57context10ContextObj6updateEv(ptr noundef nonnull align 8 dereferenceable(40)) local_unnamed_addr #0

; Function Attrs: mustprogress uwtable
define linkonce_odr hidden void @_ZNSt6vectorIN4cvc58internal12NodeTemplateILb1EEESaIS3_EE17_M_realloc_insertIJRKS3_EEEvN9__gnu_cxx17__normal_iteratorIPS3_S5_EEDpOT_(ptr noundef nonnull align 8 dereferenceable(24) %this, ptr %__position.coerce, ptr noundef nonnull align 8 dereferenceable(8) %__args) local_unnamed_addr #3 comdat align 2 personality ptr @__gxx_personality_v0 {
entry:
  %_M_finish.i.i = getelementptr inbounds i8, ptr %this, i64 8
  %0 = load ptr, ptr %_M_finish.i.i, align 8
  %1 = load ptr, ptr %this, align 8
  %sub.ptr.lhs.cast.i.i = ptrtoint ptr %0 to i64
  %sub.ptr.rhs.cast.i.i = ptrtoint ptr %1 to i64
  %sub.ptr.sub.i.i = sub i64 %sub.ptr.lhs.cast.i.i, %sub.ptr.rhs.cast.i.i
  %cmp.i = icmp eq i64 %sub.ptr.sub.i.i, 9223372036854775800
  br i1 %cmp.i, label %if.then.i, label %_ZNKSt6vectorIN4cvc58internal12NodeTemplateILb1EEESaIS3_EE12_M_check_lenEmPKc.exit

if.then.i:                                        ; preds = %entry
  tail call void @_ZSt20__throw_length_errorPKc(ptr noundef nonnull @.str.23) #21
  unreachable

_ZNKSt6vectorIN4cvc58internal12NodeTemplateILb1EEESaIS3_EE12_M_check_lenEmPKc.exit: ; preds = %entry
  %sub.ptr.div.i.i = ashr exact i64 %sub.ptr.sub.i.i, 3
  %.sroa.speculated.i = tail call i64 @llvm.umax.i64(i64 %sub.ptr.div.i.i, i64 1)
  %add.i = add i64 %.sroa.speculated.i, %sub.ptr.div.i.i
  %cmp7.i = icmp ult i64 %add.i, %sub.ptr.div.i.i
  %cmp9.i = icmp ugt i64 %add.i, 1152921504606846975
  %or.cond.i = or i1 %cmp7.i, %cmp9.i
  %cond.i = select i1 %or.cond.i, i64 1152921504606846975, i64 %add.i
  %sub.ptr.lhs.cast.i = ptrtoint ptr %__position.coerce to i64
  %sub.ptr.sub.i = sub i64 %sub.ptr.lhs.cast.i, %sub.ptr.rhs.cast.i.i
  %sub.ptr.div.i = ashr exact i64 %sub.ptr.sub.i, 3
  %cmp.not.i = icmp eq i64 %cond.i, 0
  br i1 %cmp.not.i, label %_ZNSt12_Vector_baseIN4cvc58internal12NodeTemplateILb1EEESaIS3_EE11_M_allocateEm.exit, label %_ZNSt16allocator_traitsISaIN4cvc58internal12NodeTemplateILb1EEEEE8allocateERS4_m.exit.i

_ZNSt16allocator_traitsISaIN4cvc58internal12NodeTemplateILb1EEEEE8allocateERS4_m.exit.i: ; preds = %_ZNKSt6vectorIN4cvc58internal12NodeTemplateILb1EEESaIS3_EE12_M_check_lenEmPKc.exit
  %mul.i.i.i = shl nuw nsw i64 %cond.i, 3
  %call5.i.i.i = tail call noalias noundef nonnull ptr @_Znwm(i64 noundef %mul.i.i.i) #17
  br label %_ZNSt12_Vector_baseIN4cvc58internal12NodeTemplateILb1EEESaIS3_EE11_M_allocateEm.exit

_ZNSt12_Vector_baseIN4cvc58internal12NodeTemplateILb1EEESaIS3_EE11_M_allocateEm.exit: ; preds = %_ZNKSt6vectorIN4cvc58internal12NodeTemplateILb1EEESaIS3_EE12_M_check_lenEmPKc.exit, %_ZNSt16allocator_traitsISaIN4cvc58internal12NodeTemplateILb1EEEEE8allocateERS4_m.exit.i
  %cond.i19 = phi ptr [ %call5.i.i.i, %_ZNSt16allocator_traitsISaIN4cvc58internal12NodeTemplateILb1EEEEE8allocateERS4_m.exit.i ], [ null, %_ZNKSt6vectorIN4cvc58internal12NodeTemplateILb1EEESaIS3_EE12_M_check_lenEmPKc.exit ]
  %add.ptr = getelementptr inbounds %"class.cvc5::internal::NodeTemplate.294", ptr %cond.i19, i64 %sub.ptr.div.i
  %2 = load ptr, ptr %__args, align 8
  store ptr %2, ptr %add.ptr, align 8
  %bf.load.i.i.i.i = load i64, ptr %2, align 8
  %bf.lshr.i.i.i.i = lshr i64 %bf.load.i.i.i.i, 40
  %3 = trunc i64 %bf.lshr.i.i.i.i to i32
  %bf.cast.i.i.i.i = and i32 %3, 1048575
  %cmp.i.i.i.i = icmp ult i32 %bf.cast.i.i.i.i, 1048574
  br i1 %cmp.i.i.i.i, label %if.then.i.i.i.i, label %if.else.i.i.i.i

if.then.i.i.i.i:                                  ; preds = %_ZNSt12_Vector_baseIN4cvc58internal12NodeTemplateILb1EEESaIS3_EE11_M_allocateEm.exit
  %bf.value.i.i.i.i = add i64 %bf.load.i.i.i.i, 1099511627776
  %bf.shl.i.i.i.i = and i64 %bf.value.i.i.i.i, 1152920405095219200
  %bf.clear7.i.i.i.i = and i64 %bf.load.i.i.i.i, -1152920405095219201
  %bf.set.i.i.i.i = or disjoint i64 %bf.shl.i.i.i.i, %bf.clear7.i.i.i.i
  store i64 %bf.set.i.i.i.i, ptr %2, align 8
  br label %invoke.cont

if.else.i.i.i.i:                                  ; preds = %_ZNSt12_Vector_baseIN4cvc58internal12NodeTemplateILb1EEESaIS3_EE11_M_allocateEm.exit
  %cmp12.i.i.i.i = icmp eq i32 %bf.cast.i.i.i.i, 1048574
  br i1 %cmp12.i.i.i.i, label %if.then13.i.i.i.i, label %invoke.cont

if.then13.i.i.i.i:                                ; preds = %if.else.i.i.i.i
  %bf.set23.i.i.i.i = or i64 %bf.load.i.i.i.i, 1152920405095219200
  store i64 %bf.set23.i.i.i.i, ptr %2, align 8
  invoke void @_ZN4cvc58internal4expr9NodeValue20markRefCountMaxedOutEv(ptr noundef nonnull align 8 dereferenceable(16) %2)
          to label %invoke.cont unwind label %if.else

invoke.cont:                                      ; preds = %if.else.i.i.i.i, %if.then.i.i.i.i, %if.then13.i.i.i.i
  %call.i.i.i.i20 = invoke noundef ptr @_ZSt16__do_uninit_copyIPKN4cvc58internal12NodeTemplateILb1EEEPS3_ET0_T_S8_S7_(ptr noundef %1, ptr noundef %__position.coerce, ptr noundef nonnull %cond.i19)
          to label %invoke.cont10 unwind label %if.then

invoke.cont10:                                    ; preds = %invoke.cont
  %incdec.ptr = getelementptr inbounds i8, ptr %call.i.i.i.i20, i64 8
  %call.i.i.i.i21 = invoke noundef ptr @_ZSt16__do_uninit_copyIPKN4cvc58internal12NodeTemplateILb1EEEPS3_ET0_T_S8_S7_(ptr noundef %__position.coerce, ptr noundef %0, ptr noundef nonnull %incdec.ptr)
          to label %invoke.cont14 unwind label %if.else

invoke.cont14:                                    ; preds = %invoke.cont10
  %cmp.not3.i.i.i = icmp eq ptr %1, %0
  br i1 %cmp.not3.i.i.i, label %_ZSt8_DestroyIPN4cvc58internal12NodeTemplateILb1EEES3_EvT_S5_RSaIT0_E.exit, label %for.body.i.i.i

for.body.i.i.i:                                   ; preds = %invoke.cont14, %_ZSt8_DestroyIN4cvc58internal12NodeTemplateILb1EEEEvPT_.exit.i.i.i
  %__first.addr.04.i.i.i = phi ptr [ %incdec.ptr.i.i.i, %_ZSt8_DestroyIN4cvc58internal12NodeTemplateILb1EEEEvPT_.exit.i.i.i ], [ %1, %invoke.cont14 ]
  %4 = load ptr, ptr %__first.addr.04.i.i.i, align 8
  %bf.load.i.i.i.i.i.i = load i64, ptr %4, align 8
  %5 = and i64 %bf.load.i.i.i.i.i.i, 1152920405095219200
  %cmp.not.i.i.i.i.i.i = icmp eq i64 %5, 1152920405095219200
  br i1 %cmp.not.i.i.i.i.i.i, label %_ZSt8_DestroyIN4cvc58internal12NodeTemplateILb1EEEEvPT_.exit.i.i.i, label %if.then.i.i.i.i.i.i

if.then.i.i.i.i.i.i:                              ; preds = %for.body.i.i.i
  %bf.value.i.i.i.i.i.i = add i64 %bf.load.i.i.i.i.i.i, 1152920405095219200
  %bf.shl.i.i.i.i.i.i = and i64 %bf.value.i.i.i.i.i.i, 1152920405095219200
  %bf.clear7.i.i.i.i.i.i = and i64 %bf.load.i.i.i.i.i.i, -1152920405095219201
  %bf.set.i.i.i.i.i.i = or disjoint i64 %bf.shl.i.i.i.i.i.i, %bf.clear7.i.i.i.i.i.i
  store i64 %bf.set.i.i.i.i.i.i, ptr %4, align 8
  %cmp12.i.i.i.i.i.i = icmp eq i64 %bf.shl.i.i.i.i.i.i, 0
  br i1 %cmp12.i.i.i.i.i.i, label %if.then13.i.i.i.i.i.i, label %_ZSt8_DestroyIN4cvc58internal12NodeTemplateILb1EEEEvPT_.exit.i.i.i

if.then13.i.i.i.i.i.i:                            ; preds = %if.then.i.i.i.i.i.i
  invoke void @_ZN4cvc58internal4expr9NodeValue15markForDeletionEv(ptr noundef nonnull align 8 dereferenceable(16) %4)
          to label %_ZSt8_DestroyIN4cvc58internal12NodeTemplateILb1EEEEvPT_.exit.i.i.i unwind label %terminate.lpad.i.i.i.i.i

terminate.lpad.i.i.i.i.i:                         ; preds = %if.then13.i.i.i.i.i.i
  %6 = landingpad { ptr, i32 }
          catch ptr null
  %7 = extractvalue { ptr, i32 } %6, 0
  tail call void @__clang_call_terminate(ptr %7) #20
  unreachable

_ZSt8_DestroyIN4cvc58internal12NodeTemplateILb1EEEEvPT_.exit.i.i.i: ; preds = %if.then13.i.i.i.i.i.i, %if.then.i.i.i.i.i.i, %for.body.i.i.i
  %incdec.ptr.i.i.i = getelementptr inbounds i8, ptr %__first.addr.04.i.i.i, i64 8
  %cmp.not.i.i.i = icmp eq ptr %incdec.ptr.i.i.i, %0
  br i1 %cmp.not.i.i.i, label %_ZSt8_DestroyIPN4cvc58internal12NodeTemplateILb1EEES3_EvT_S5_RSaIT0_E.exit, label %for.body.i.i.i, !llvm.loop !4

_ZSt8_DestroyIPN4cvc58internal12NodeTemplateILb1EEES3_EvT_S5_RSaIT0_E.exit: ; preds = %_ZSt8_DestroyIN4cvc58internal12NodeTemplateILb1EEEEvPT_.exit.i.i.i, %invoke.cont14
  %tobool.not.i = icmp eq ptr %1, null
  br i1 %tobool.not.i, label %_ZNSt12_Vector_baseIN4cvc58internal12NodeTemplateILb1EEESaIS3_EE13_M_deallocateEPS3_m.exit, label %if.then.i23

if.then.i23:                                      ; preds = %_ZSt8_DestroyIPN4cvc58internal12NodeTemplateILb1EEES3_EvT_S5_RSaIT0_E.exit
  tail call void @_ZdlPv(ptr noundef nonnull %1) #18
  br label %_ZNSt12_Vector_baseIN4cvc58internal12NodeTemplateILb1EEESaIS3_EE13_M_deallocateEPS3_m.exit

_ZNSt12_Vector_baseIN4cvc58internal12NodeTemplateILb1EEESaIS3_EE13_M_deallocateEPS3_m.exit: ; preds = %_ZSt8_DestroyIPN4cvc58internal12NodeTemplateILb1EEES3_EvT_S5_RSaIT0_E.exit, %if.then.i23
  %_M_end_of_storage = getelementptr inbounds i8, ptr %this, i64 16
  store ptr %cond.i19, ptr %this, align 8
  store ptr %call.i.i.i.i21, ptr %_M_finish.i.i, align 8
  %add.ptr29 = getelementptr inbounds %"class.cvc5::internal::NodeTemplate.294", ptr %cond.i19, i64 %cond.i
  store ptr %add.ptr29, ptr %_M_end_of_storage, align 8
  ret void

if.then:                                          ; preds = %invoke.cont
  %lpad.thr_comm.split-lp30 = landingpad { ptr, i32 }
          catch ptr null
  %8 = extractvalue { ptr, i32 } %lpad.thr_comm.split-lp30, 0
  %9 = tail call ptr @__cxa_begin_catch(ptr %8) #19
  tail call void @_ZNSt16allocator_traitsISaIN4cvc58internal12NodeTemplateILb1EEEEE7destroyIS3_EEvRS4_PT_(ptr noundef nonnull align 1 dereferenceable(1) %this, ptr noundef nonnull %add.ptr) #19
  br label %invoke.cont21

if.else:                                          ; preds = %if.then13.i.i.i.i, %invoke.cont10
  %__new_finish.0.ph = phi ptr [ %incdec.ptr, %invoke.cont10 ], [ %cond.i19, %if.then13.i.i.i.i ]
  %lpad.thr_comm29 = landingpad { ptr, i32 }
          catch ptr null
  %10 = extractvalue { ptr, i32 } %lpad.thr_comm29, 0
  %11 = tail call ptr @__cxa_begin_catch(ptr %10) #19
  invoke void @_ZSt8_DestroyIPN4cvc58internal12NodeTemplateILb1EEES3_EvT_S5_RSaIT0_E(ptr noundef nonnull %cond.i19, ptr noundef nonnull %__new_finish.0.ph, ptr noundef nonnull align 1 dereferenceable(1) %this)
          to label %invoke.cont21 unwind label %lpad19

lpad19:                                           ; preds = %invoke.cont21, %if.else
  %12 = landingpad { ptr, i32 }
          cleanup
  invoke void @__cxa_end_catch()
          to label %eh.resume unwind label %terminate.lpad

invoke.cont21:                                    ; preds = %if.then, %if.else
  tail call void @_ZdlPv(ptr noundef nonnull %cond.i19) #18
  invoke void @__cxa_rethrow() #21
          to label %unreachable unwind label %lpad19

eh.resume:                                        ; preds = %lpad19
  resume { ptr, i32 } %12

terminate.lpad:                                   ; preds = %lpad19
  %13 = landingpad { ptr, i32 }
          catch ptr null
  %14 = extractvalue { ptr, i32 } %13, 0
  tail call void @__clang_call_terminate(ptr %14) #20
  unreachable

unreachable:                                      ; preds = %invoke.cont21
  unreachable
}

; Function Attrs: noreturn
declare void @_ZSt20__throw_length_errorPKc(ptr noundef) local_unnamed_addr #13

; Function Attrs: mustprogress uwtable
define linkonce_odr hidden noundef ptr @_ZSt16__do_uninit_copyIPKN4cvc58internal12NodeTemplateILb1EEEPS3_ET0_T_S8_S7_(ptr noundef %__first, ptr noundef %__last, ptr noundef %__result) local_unnamed_addr #3 comdat personality ptr @__gxx_personality_v0 {
entry:
  %cmp.not8 = icmp eq ptr %__first, %__last
  br i1 %cmp.not8, label %for.end, label %for.body

for.body:                                         ; preds = %entry, %for.inc
  %__cur.010 = phi ptr [ %incdec.ptr1, %for.inc ], [ %__result, %entry ]
  %__first.addr.09 = phi ptr [ %incdec.ptr, %for.inc ], [ %__first, %entry ]
  %0 = load ptr, ptr %__first.addr.09, align 8
  store ptr %0, ptr %__cur.010, align 8
  %bf.load.i.i.i = load i64, ptr %0, align 8
  %bf.lshr.i.i.i = lshr i64 %bf.load.i.i.i, 40
  %1 = trunc i64 %bf.lshr.i.i.i to i32
  %bf.cast.i.i.i = and i32 %1, 1048575
  %cmp.i.i.i = icmp ult i32 %bf.cast.i.i.i, 1048574
  br i1 %cmp.i.i.i, label %if.then.i.i.i, label %if.else.i.i.i

if.then.i.i.i:                                    ; preds = %for.body
  %bf.value.i.i.i = add i64 %bf.load.i.i.i, 1099511627776
  %bf.shl.i.i.i = and i64 %bf.value.i.i.i, 1152920405095219200
  %bf.clear7.i.i.i = and i64 %bf.load.i.i.i, -1152920405095219201
  %bf.set.i.i.i = or disjoint i64 %bf.shl.i.i.i, %bf.clear7.i.i.i
  store i64 %bf.set.i.i.i, ptr %0, align 8
  br label %for.inc

if.else.i.i.i:                                    ; preds = %for.body
  %cmp12.i.i.i = icmp eq i32 %bf.cast.i.i.i, 1048574
  br i1 %cmp12.i.i.i, label %if.then13.i.i.i, label %for.inc

if.then13.i.i.i:                                  ; preds = %if.else.i.i.i
  %bf.set23.i.i.i = or i64 %bf.load.i.i.i, 1152920405095219200
  store i64 %bf.set23.i.i.i, ptr %0, align 8
  invoke void @_ZN4cvc58internal4expr9NodeValue20markRefCountMaxedOutEv(ptr noundef nonnull align 8 dereferenceable(16) %0)
          to label %for.inc unwind label %lpad

for.inc:                                          ; preds = %if.else.i.i.i, %if.then.i.i.i, %if.then13.i.i.i
  %incdec.ptr = getelementptr inbounds i8, ptr %__first.addr.09, i64 8
  %incdec.ptr1 = getelementptr inbounds i8, ptr %__cur.010, i64 8
  %cmp.not = icmp eq ptr %incdec.ptr, %__last
  br i1 %cmp.not, label %for.end, label %for.body, !llvm.loop !28

lpad:                                             ; preds = %if.then13.i.i.i
  %2 = landingpad { ptr, i32 }
          catch ptr null
  %3 = extractvalue { ptr, i32 } %2, 0
  %4 = tail call ptr @__cxa_begin_catch(ptr %3) #19
  invoke void @_ZSt8_DestroyIPN4cvc58internal12NodeTemplateILb1EEEEvT_S5_(ptr noundef %__result, ptr noundef nonnull %__cur.010)
          to label %invoke.cont3 unwind label %lpad2

invoke.cont3:                                     ; preds = %lpad
  invoke void @__cxa_rethrow() #21
          to label %unreachable unwind label %lpad2

for.end:                                          ; preds = %for.inc, %entry
  %__cur.0.lcssa = phi ptr [ %__result, %entry ], [ %incdec.ptr1, %for.inc ]
  ret ptr %__cur.0.lcssa

lpad2:                                            ; preds = %invoke.cont3, %lpad
  %5 = landingpad { ptr, i32 }
          cleanup
  invoke void @__cxa_end_catch()
          to label %eh.resume unwind label %terminate.lpad

eh.resume:                                        ; preds = %lpad2
  resume { ptr, i32 } %5

terminate.lpad:                                   ; preds = %lpad2
  %6 = landingpad { ptr, i32 }
          catch ptr null
  %7 = extractvalue { ptr, i32 } %6, 0
  tail call void @__clang_call_terminate(ptr %7) #20
  unreachable

unreachable:                                      ; preds = %invoke.cont3
  unreachable
}

; Function Attrs: mustprogress uwtable
define linkonce_odr hidden noundef zeroext i1 @_ZN4cvc57context15CDInsertHashMapINS_8internal12NodeTemplateILb1EEEbSt4hashIS4_EE11insert_safeERKS4_RKb(ptr noundef nonnull align 8 dereferenceable(56) %this, ptr noundef nonnull align 8 dereferenceable(8) %k, ptr noundef nonnull align 1 dereferenceable(1) %d) local_unnamed_addr #3 comdat align 2 {
entry:
  %d_insertMap.i = getelementptr inbounds i8, ptr %this, i64 40
  %0 = load ptr, ptr %d_insertMap.i, align 8
  %_M_element_count.i.i.i.i.i.i = getelementptr inbounds i8, ptr %0, i64 104
  %1 = load i64, ptr %_M_element_count.i.i.i.i.i.i, align 8
  %cmp.not.not.i.i.i.i.i = icmp eq i64 %1, 0
  br i1 %cmp.not.not.i.i.i.i.i, label %if.then.i.i.i.i.i, label %if.end15.i.i.i.i.i

if.then.i.i.i.i.i:                                ; preds = %entry
  %_M_before_begin.i.i.i.i.i.i.i = getelementptr inbounds i8, ptr %0, i64 96
  %2 = load ptr, ptr %k, align 8
  br label %for.cond.i.i.i.i.i

for.cond.i.i.i.i.i:                               ; preds = %for.body.i.i.i.i.i, %if.then.i.i.i.i.i
  %retval.sroa.0.0.in.i.i.i.i.i = phi ptr [ %_M_before_begin.i.i.i.i.i.i.i, %if.then.i.i.i.i.i ], [ %retval.sroa.0.0.i.i.i.i.i, %for.body.i.i.i.i.i ]
  %retval.sroa.0.0.i.i.i.i.i = load ptr, ptr %retval.sroa.0.0.in.i.i.i.i.i, align 8
  %cmp.i.not.i.i.i.i.i = icmp eq ptr %retval.sroa.0.0.i.i.i.i.i, null
  br i1 %cmp.i.not.i.i.i.i.i, label %if.else, label %for.body.i.i.i.i.i

for.body.i.i.i.i.i:                               ; preds = %for.cond.i.i.i.i.i
  %add.ptr.i.i.i.i.i = getelementptr inbounds i8, ptr %retval.sroa.0.0.i.i.i.i.i, i64 8
  %3 = load ptr, ptr %add.ptr.i.i.i.i.i, align 8
  %cmp.i.i.i.i.i.i.i.i = icmp eq ptr %2, %3
  br i1 %cmp.i.i.i.i.i.i.i.i, label %return, label %for.cond.i.i.i.i.i, !llvm.loop !9

if.end15.i.i.i.i.i:                               ; preds = %entry
  %d_hashMap.i.i.i = getelementptr inbounds i8, ptr %0, i64 80
  %call2.i.i.i.i.i.i = tail call noundef i64 @_ZNKSt4hashIN4cvc58internal12NodeTemplateILb1EEEEclERKS3_(ptr noundef nonnull align 1 dereferenceable(1) %d_hashMap.i.i.i, ptr noundef nonnull align 8 dereferenceable(8) %k)
  %_M_bucket_count.i.i.i.i.i.i = getelementptr inbounds i8, ptr %0, i64 88
  %4 = load i64, ptr %_M_bucket_count.i.i.i.i.i.i, align 8
  %rem.i.i.i.i.i.i.i.i = urem i64 %call2.i.i.i.i.i.i, %4
  %5 = load ptr, ptr %d_hashMap.i.i.i, align 8
  %arrayidx.i.i.i.i.i.i.i = getelementptr inbounds ptr, ptr %5, i64 %rem.i.i.i.i.i.i.i.i
  %6 = load ptr, ptr %arrayidx.i.i.i.i.i.i.i, align 8
  %tobool.not.i.i.i.i.i.i.i = icmp eq ptr %6, null
  br i1 %tobool.not.i.i.i.i.i.i.i, label %if.else, label %if.end.i.i.i.i.i.i.i

if.end.i.i.i.i.i.i.i:                             ; preds = %if.end15.i.i.i.i.i
  %7 = load ptr, ptr %6, align 8
  %8 = load ptr, ptr %k, align 8
  %add.ptr8.i.i.i.i.i.i.i = getelementptr inbounds i8, ptr %7, i64 8
  %add.ptr.i9.i.i.i.i.i.i.i = getelementptr inbounds i8, ptr %7, i64 24
  %9 = load i64, ptr %add.ptr.i9.i.i.i.i.i.i.i, align 8
  %cmp.i.i10.i.i.i.i.i.i.i = icmp eq i64 %9, %call2.i.i.i.i.i.i
  %10 = load ptr, ptr %add.ptr8.i.i.i.i.i.i.i, align 8
  %cmp.i.i.i.i11.i.i.i.i.i.i.i = icmp eq ptr %8, %10
  %11 = select i1 %cmp.i.i10.i.i.i.i.i.i.i, i1 %cmp.i.i.i.i11.i.i.i.i.i.i.i, i1 false
  br i1 %11, label %return, label %if.end3.i.i.i.i.i.i.i

for.cond.i.i.i.i.i.i.i:                           ; preds = %lor.lhs.false.i.i.i.i.i.i.i
  %add.ptr.i.i.i.i.i.i.i = getelementptr inbounds i8, ptr %14, i64 8
  %cmp.i.i.i.i.i.i.i.i.i = icmp eq i64 %15, %call2.i.i.i.i.i.i
  %12 = load ptr, ptr %add.ptr.i.i.i.i.i.i.i, align 8
  %cmp.i.i.i.i.i.i.i.i.i.i.i = icmp eq ptr %8, %12
  %13 = select i1 %cmp.i.i.i.i.i.i.i.i.i, i1 %cmp.i.i.i.i.i.i.i.i.i.i.i, i1 false
  br i1 %13, label %return, label %if.end3.i.i.i.i.i.i.i, !llvm.loop !10

if.end3.i.i.i.i.i.i.i:                            ; preds = %if.end.i.i.i.i.i.i.i, %for.cond.i.i.i.i.i.i.i
  %__p.012.i.i.i.i.i.i.i = phi ptr [ %14, %for.cond.i.i.i.i.i.i.i ], [ %7, %if.end.i.i.i.i.i.i.i ]
  %14 = load ptr, ptr %__p.012.i.i.i.i.i.i.i, align 8
  %tobool5.not.i.i.i.i.i.i.i = icmp eq ptr %14, null
  br i1 %tobool5.not.i.i.i.i.i.i.i, label %if.else, label %lor.lhs.false.i.i.i.i.i.i.i

lor.lhs.false.i.i.i.i.i.i.i:                      ; preds = %if.end3.i.i.i.i.i.i.i
  %add.ptr.i.i.i.i.i.i.i.i.i = getelementptr inbounds i8, ptr %14, i64 24
  %15 = load i64, ptr %add.ptr.i.i.i.i.i.i.i.i.i, align 8
  %rem.i.i.i.i.i.i.i.i.i.i = urem i64 %15, %4
  %cmp.not.i.i.i.i.i.i.i = icmp eq i64 %rem.i.i.i.i.i.i.i.i.i.i, %rem.i.i.i.i.i.i.i.i
  br i1 %cmp.not.i.i.i.i.i.i.i, label %for.cond.i.i.i.i.i.i.i, label %if.else, !llvm.loop !10

if.else:                                          ; preds = %if.end3.i.i.i.i.i.i.i, %lor.lhs.false.i.i.i.i.i.i.i, %for.cond.i.i.i.i.i, %if.end15.i.i.i.i.i
  %d_pScope.i.i = getelementptr inbounds i8, ptr %this, i64 8
  %16 = load ptr, ptr %d_pScope.i.i, align 8
  %17 = load ptr, ptr %16, align 8
  %_M_finish.i.i.i.i.i.i = getelementptr inbounds i8, ptr %17, i64 16
  %18 = load ptr, ptr %_M_finish.i.i.i.i.i.i, align 8
  %add.ptr.i.i.i.i.i.i = getelementptr inbounds i8, ptr %18, i64 -8
  %19 = load ptr, ptr %add.ptr.i.i.i.i.i.i, align 8
  %cmp.i.i.i2 = icmp eq ptr %19, %16
  br i1 %cmp.i.i.i2, label %_ZN4cvc57context15CDInsertHashMapINS_8internal12NodeTemplateILb1EEEbSt4hashIS4_EE6insertERKS4_RKb.exit, label %if.then.i.i

if.then.i.i:                                      ; preds = %if.else
  tail call void @_ZN4cvc57context10ContextObj6updateEv(ptr noundef nonnull align 8 dereferenceable(40) %this)
  br label %_ZN4cvc57context15CDInsertHashMapINS_8internal12NodeTemplateILb1EEEbSt4hashIS4_EE6insertERKS4_RKb.exit

_ZN4cvc57context15CDInsertHashMapINS_8internal12NodeTemplateILb1EEEbSt4hashIS4_EE6insertERKS4_RKb.exit: ; preds = %if.else, %if.then.i.i
  %d_size.i = getelementptr inbounds i8, ptr %this, i64 48
  %20 = load i64, ptr %d_size.i, align 8
  %inc.i = add i64 %20, 1
  store i64 %inc.i, ptr %d_size.i, align 8
  %21 = load ptr, ptr %d_insertMap.i, align 8
  tail call void @_ZN4cvc57context13InsertHashMapINS_8internal12NodeTemplateILb1EEEbSt4hashIS4_EE9push_backERKS4_RKb(ptr noundef nonnull align 8 dereferenceable(136) %21, ptr noundef nonnull align 8 dereferenceable(8) %k, ptr noundef nonnull align 1 dereferenceable(1) %d)
  br label %return

return:                                           ; preds = %for.cond.i.i.i.i.i.i.i, %for.body.i.i.i.i.i, %if.end.i.i.i.i.i.i.i, %_ZN4cvc57context15CDInsertHashMapINS_8internal12NodeTemplateILb1EEEbSt4hashIS4_EE6insertERKS4_RKb.exit
  %cmp.i.i.i7 = phi i1 [ true, %_ZN4cvc57context15CDInsertHashMapINS_8internal12NodeTemplateILb1EEEbSt4hashIS4_EE6insertERKS4_RKb.exit ], [ false, %if.end.i.i.i.i.i.i.i ], [ false, %for.body.i.i.i.i.i ], [ false, %for.cond.i.i.i.i.i.i.i ]
  ret i1 %cmp.i.i.i7
}

; Function Attrs: mustprogress uwtable
define linkonce_odr hidden void @_ZN4cvc57context13InsertHashMapINS_8internal12NodeTemplateILb1EEEbSt4hashIS4_EE9push_backERKS4_RKb(ptr noundef nonnull align 8 dereferenceable(136) %this, ptr noundef nonnull align 8 dereferenceable(8) %k, ptr noundef nonnull align 1 dereferenceable(1) %d) local_unnamed_addr #3 comdat align 2 personality ptr @__gxx_personality_v0 {
entry:
  %ref.tmp = alloca %"struct.std::pair.496", align 8
  %d_hashMap = getelementptr inbounds i8, ptr %this, i64 80
  tail call void @llvm.experimental.noalias.scope.decl(metadata !29)
  %0 = load ptr, ptr %k, align 8, !noalias !29
  store ptr %0, ptr %ref.tmp, align 8, !alias.scope !29
  %bf.load.i.i.i.i = load i64, ptr %0, align 8, !noalias !29
  %bf.lshr.i.i.i.i = lshr i64 %bf.load.i.i.i.i, 40
  %1 = trunc i64 %bf.lshr.i.i.i.i to i32
  %bf.cast.i.i.i.i = and i32 %1, 1048575
  %cmp.i.i.i.i = icmp ult i32 %bf.cast.i.i.i.i, 1048574
  br i1 %cmp.i.i.i.i, label %if.then.i.i.i.i, label %if.else.i.i.i.i

if.then.i.i.i.i:                                  ; preds = %entry
  %bf.value.i.i.i.i = add i64 %bf.load.i.i.i.i, 1099511627776
  %bf.shl.i.i.i.i = and i64 %bf.value.i.i.i.i, 1152920405095219200
  %bf.clear7.i.i.i.i = and i64 %bf.load.i.i.i.i, -1152920405095219201
  %bf.set.i.i.i.i = or disjoint i64 %bf.shl.i.i.i.i, %bf.clear7.i.i.i.i
  store i64 %bf.set.i.i.i.i, ptr %0, align 8, !noalias !29
  br label %_ZSt9make_pairIRKN4cvc58internal12NodeTemplateILb1EEERKbESt4pairINSt25__strip_reference_wrapperINSt5decayIT_E4typeEE6__typeENS9_INSA_IT0_E4typeEE6__typeEEOSB_OSG_.exit

if.else.i.i.i.i:                                  ; preds = %entry
  %cmp12.i.i.i.i = icmp eq i32 %bf.cast.i.i.i.i, 1048574
  br i1 %cmp12.i.i.i.i, label %if.then13.i.i.i.i, label %_ZSt9make_pairIRKN4cvc58internal12NodeTemplateILb1EEERKbESt4pairINSt25__strip_reference_wrapperINSt5decayIT_E4typeEE6__typeENS9_INSA_IT0_E4typeEE6__typeEEOSB_OSG_.exit

if.then13.i.i.i.i:                                ; preds = %if.else.i.i.i.i
  %bf.set23.i.i.i.i = or i64 %bf.load.i.i.i.i, 1152920405095219200
  store i64 %bf.set23.i.i.i.i, ptr %0, align 8, !noalias !29
  tail call void @_ZN4cvc58internal4expr9NodeValue20markRefCountMaxedOutEv(ptr noundef nonnull align 8 dereferenceable(16) %0), !noalias !29
  br label %_ZSt9make_pairIRKN4cvc58internal12NodeTemplateILb1EEERKbESt4pairINSt25__strip_reference_wrapperINSt5decayIT_E4typeEE6__typeENS9_INSA_IT0_E4typeEE6__typeEEOSB_OSG_.exit

_ZSt9make_pairIRKN4cvc58internal12NodeTemplateILb1EEERKbESt4pairINSt25__strip_reference_wrapperINSt5decayIT_E4typeEE6__typeENS9_INSA_IT0_E4typeEE6__typeEEOSB_OSG_.exit: ; preds = %if.then.i.i.i.i, %if.else.i.i.i.i, %if.then13.i.i.i.i
  %second.i.i = getelementptr inbounds i8, ptr %ref.tmp, i64 8
  %2 = load i8, ptr %d, align 1, !noalias !29
  %3 = and i8 %2, 1
  store i8 %3, ptr %second.i.i, align 8, !alias.scope !29
  %call.i.i2 = invoke { ptr, i8 } @_ZNSt10_HashtableIKN4cvc58internal12NodeTemplateILb1EEESt4pairIS4_KbESaIS7_ENSt8__detail10_Select1stESt8equal_toIS4_ESt4hashIS3_ENS9_18_Mod_range_hashingENS9_20_Default_ranged_hashENS9_20_Prime_rehash_policyENS9_17_Hashtable_traitsILb1ELb0ELb1EEEE10_M_emplaceIJS5_IS3_bEEEES5_INS9_14_Node_iteratorIS7_Lb0ELb1EEEbESt17integral_constantIbLb1EEDpOT_(ptr noundef nonnull align 8 dereferenceable(56) %d_hashMap, ptr noundef nonnull align 8 dereferenceable(9) %ref.tmp)
          to label %invoke.cont unwind label %lpad

invoke.cont:                                      ; preds = %_ZSt9make_pairIRKN4cvc58internal12NodeTemplateILb1EEERKbESt4pairINSt25__strip_reference_wrapperINSt5decayIT_E4typeEE6__typeENS9_INSA_IT0_E4typeEE6__typeEEOSB_OSG_.exit
  %4 = load ptr, ptr %ref.tmp, align 8
  %bf.load.i.i.i = load i64, ptr %4, align 8
  %5 = and i64 %bf.load.i.i.i, 1152920405095219200
  %cmp.not.i.i.i = icmp eq i64 %5, 1152920405095219200
  br i1 %cmp.not.i.i.i, label %_ZNSt4pairIN4cvc58internal12NodeTemplateILb1EEEbED2Ev.exit, label %if.then.i.i.i

if.then.i.i.i:                                    ; preds = %invoke.cont
  %bf.value.i.i.i = add i64 %bf.load.i.i.i, 1152920405095219200
  %bf.shl.i.i.i = and i64 %bf.value.i.i.i, 1152920405095219200
  %bf.clear7.i.i.i = and i64 %bf.load.i.i.i, -1152920405095219201
  %bf.set.i.i.i = or disjoint i64 %bf.shl.i.i.i, %bf.clear7.i.i.i
  store i64 %bf.set.i.i.i, ptr %4, align 8
  %cmp12.i.i.i = icmp eq i64 %bf.shl.i.i.i, 0
  br i1 %cmp12.i.i.i, label %if.then13.i.i.i, label %_ZNSt4pairIN4cvc58internal12NodeTemplateILb1EEEbED2Ev.exit

if.then13.i.i.i:                                  ; preds = %if.then.i.i.i
  invoke void @_ZN4cvc58internal4expr9NodeValue15markForDeletionEv(ptr noundef nonnull align 8 dereferenceable(16) %4)
          to label %_ZNSt4pairIN4cvc58internal12NodeTemplateILb1EEEbED2Ev.exit unwind label %terminate.lpad.i.i

terminate.lpad.i.i:                               ; preds = %if.then13.i.i.i
  %6 = landingpad { ptr, i32 }
          catch ptr null
  %7 = extractvalue { ptr, i32 } %6, 0
  call void @__clang_call_terminate(ptr %7) #20
  unreachable

_ZNSt4pairIN4cvc58internal12NodeTemplateILb1EEEbED2Ev.exit: ; preds = %invoke.cont, %if.then.i.i.i, %if.then13.i.i.i
  %_M_finish.i = getelementptr inbounds i8, ptr %this, i64 48
  %8 = load ptr, ptr %_M_finish.i, align 8
  %_M_last.i = getelementptr inbounds i8, ptr %this, i64 64
  %9 = load ptr, ptr %_M_last.i, align 8
  %add.ptr.i = getelementptr inbounds i8, ptr %9, i64 -8
  %cmp.not.i = icmp eq ptr %8, %add.ptr.i
  br i1 %cmp.not.i, label %if.else.i, label %if.then.i

if.then.i:                                        ; preds = %_ZNSt4pairIN4cvc58internal12NodeTemplateILb1EEEbED2Ev.exit
  %10 = load ptr, ptr %k, align 8
  store ptr %10, ptr %8, align 8
  %bf.load.i.i.i.i.i = load i64, ptr %10, align 8
  %bf.lshr.i.i.i.i.i = lshr i64 %bf.load.i.i.i.i.i, 40
  %11 = trunc i64 %bf.lshr.i.i.i.i.i to i32
  %bf.cast.i.i.i.i.i = and i32 %11, 1048575
  %cmp.i.i.i.i.i = icmp ult i32 %bf.cast.i.i.i.i.i, 1048574
  br i1 %cmp.i.i.i.i.i, label %if.then.i.i.i.i.i, label %if.else.i.i.i.i.i

if.then.i.i.i.i.i:                                ; preds = %if.then.i
  %bf.value.i.i.i.i.i = add i64 %bf.load.i.i.i.i.i, 1099511627776
  %bf.shl.i.i.i.i.i = and i64 %bf.value.i.i.i.i.i, 1152920405095219200
  %bf.clear7.i.i.i.i.i = and i64 %bf.load.i.i.i.i.i, -1152920405095219201
  %bf.set.i.i.i.i.i = or disjoint i64 %bf.shl.i.i.i.i.i, %bf.clear7.i.i.i.i.i
  store i64 %bf.set.i.i.i.i.i, ptr %10, align 8
  br label %_ZNSt16allocator_traitsISaIN4cvc58internal12NodeTemplateILb1EEEEE9constructIS3_JRKS3_EEEvRS4_PT_DpOT0_.exit.i

if.else.i.i.i.i.i:                                ; preds = %if.then.i
  %cmp12.i.i.i.i.i = icmp eq i32 %bf.cast.i.i.i.i.i, 1048574
  br i1 %cmp12.i.i.i.i.i, label %if.then13.i.i.i.i.i, label %_ZNSt16allocator_traitsISaIN4cvc58internal12NodeTemplateILb1EEEEE9constructIS3_JRKS3_EEEvRS4_PT_DpOT0_.exit.i

if.then13.i.i.i.i.i:                              ; preds = %if.else.i.i.i.i.i
  %bf.set23.i.i.i.i.i = or i64 %bf.load.i.i.i.i.i, 1152920405095219200
  store i64 %bf.set23.i.i.i.i.i, ptr %10, align 8
  call void @_ZN4cvc58internal4expr9NodeValue20markRefCountMaxedOutEv(ptr noundef nonnull align 8 dereferenceable(16) %10)
  br label %_ZNSt16allocator_traitsISaIN4cvc58internal12NodeTemplateILb1EEEEE9constructIS3_JRKS3_EEEvRS4_PT_DpOT0_.exit.i

_ZNSt16allocator_traitsISaIN4cvc58internal12NodeTemplateILb1EEEEE9constructIS3_JRKS3_EEEvRS4_PT_DpOT0_.exit.i: ; preds = %if.then13.i.i.i.i.i, %if.else.i.i.i.i.i, %if.then.i.i.i.i.i
  %12 = load ptr, ptr %_M_finish.i, align 8
  %incdec.ptr.i = getelementptr inbounds i8, ptr %12, i64 8
  store ptr %incdec.ptr.i, ptr %_M_finish.i, align 8
  br label %_ZNSt5dequeIN4cvc58internal12NodeTemplateILb1EEESaIS3_EE9push_backERKS3_.exit

if.else.i:                                        ; preds = %_ZNSt4pairIN4cvc58internal12NodeTemplateILb1EEEbED2Ev.exit
  call void @_ZNSt5dequeIN4cvc58internal12NodeTemplateILb1EEESaIS3_EE16_M_push_back_auxIJRKS3_EEEvDpOT_(ptr noundef nonnull align 8 dereferenceable(80) %this, ptr noundef nonnull align 8 dereferenceable(8) %k)
  br label %_ZNSt5dequeIN4cvc58internal12NodeTemplateILb1EEESaIS3_EE9push_backERKS3_.exit

_ZNSt5dequeIN4cvc58internal12NodeTemplateILb1EEESaIS3_EE9push_backERKS3_.exit: ; preds = %_ZNSt16allocator_traitsISaIN4cvc58internal12NodeTemplateILb1EEEEE9constructIS3_JRKS3_EEEvRS4_PT_DpOT0_.exit.i, %if.else.i
  ret void

lpad:                                             ; preds = %_ZSt9make_pairIRKN4cvc58internal12NodeTemplateILb1EEERKbESt4pairINSt25__strip_reference_wrapperINSt5decayIT_E4typeEE6__typeENS9_INSA_IT0_E4typeEE6__typeEEOSB_OSG_.exit
  %13 = landingpad { ptr, i32 }
          cleanup
  call void @_ZNSt4pairIN4cvc58internal12NodeTemplateILb1EEEbED2Ev(ptr noundef nonnull align 8 dereferenceable(9) %ref.tmp) #19
  resume { ptr, i32 } %13
}

; Function Attrs: mustprogress nounwind uwtable
define linkonce_odr hidden void @_ZNSt4pairIN4cvc58internal12NodeTemplateILb1EEEbED2Ev(ptr noundef nonnull align 8 dereferenceable(9) %this) unnamed_addr #4 comdat align 2 personality ptr @__gxx_personality_v0 {
entry:
  %0 = load ptr, ptr %this, align 8
  %bf.load.i.i = load i64, ptr %0, align 8
  %1 = and i64 %bf.load.i.i, 1152920405095219200
  %cmp.not.i.i = icmp eq i64 %1, 1152920405095219200
  br i1 %cmp.not.i.i, label %_ZN4cvc58internal12NodeTemplateILb1EED2Ev.exit, label %if.then.i.i

if.then.i.i:                                      ; preds = %entry
  %bf.value.i.i = add i64 %bf.load.i.i, 1152920405095219200
  %bf.shl.i.i = and i64 %bf.value.i.i, 1152920405095219200
  %bf.clear7.i.i = and i64 %bf.load.i.i, -1152920405095219201
  %bf.set.i.i = or disjoint i64 %bf.shl.i.i, %bf.clear7.i.i
  store i64 %bf.set.i.i, ptr %0, align 8
  %cmp12.i.i = icmp eq i64 %bf.shl.i.i, 0
  br i1 %cmp12.i.i, label %if.then13.i.i, label %_ZN4cvc58internal12NodeTemplateILb1EED2Ev.exit

if.then13.i.i:                                    ; preds = %if.then.i.i
  invoke void @_ZN4cvc58internal4expr9NodeValue15markForDeletionEv(ptr noundef nonnull align 8 dereferenceable(16) %0)
          to label %_ZN4cvc58internal12NodeTemplateILb1EED2Ev.exit unwind label %terminate.lpad.i

terminate.lpad.i:                                 ; preds = %if.then13.i.i
  %2 = landingpad { ptr, i32 }
          catch ptr null
  %3 = extractvalue { ptr, i32 } %2, 0
  tail call void @__clang_call_terminate(ptr %3) #20
  unreachable

_ZN4cvc58internal12NodeTemplateILb1EED2Ev.exit:   ; preds = %entry, %if.then.i.i, %if.then13.i.i
  ret void
}

; Function Attrs: mustprogress uwtable
define linkonce_odr hidden { ptr, i8 } @_ZNSt10_HashtableIKN4cvc58internal12NodeTemplateILb1EEESt4pairIS4_KbESaIS7_ENSt8__detail10_Select1stESt8equal_toIS4_ESt4hashIS3_ENS9_18_Mod_range_hashingENS9_20_Default_ranged_hashENS9_20_Prime_rehash_policyENS9_17_Hashtable_traitsILb1ELb0ELb1EEEE10_M_emplaceIJS5_IS3_bEEEES5_INS9_14_Node_iteratorIS7_Lb0ELb1EEEbESt17integral_constantIbLb1EEDpOT_(ptr noundef nonnull align 8 dereferenceable(56) %this, ptr noundef nonnull align 8 dereferenceable(9) %__args) local_unnamed_addr #3 comdat align 2 personality ptr @__gxx_personality_v0 {
entry:
  %__node = alloca %"struct.std::_Hashtable<const cvc5::internal::NodeTemplate<true>, std::pair<const cvc5::internal::NodeTemplate<true>, const bool>, std::allocator<std::pair<const cvc5::internal::NodeTemplate<true>, const bool>>, std::__detail::_Select1st, std::equal_to<const cvc5::internal::NodeTemplate<true>>, std::hash<cvc5::internal::Node>, std::__detail::_Mod_range_hashing, std::__detail::_Default_ranged_hash, std::__detail::_Prime_rehash_policy, std::__detail::_Hashtable_traits<true, false, true>>::_Scoped_node", align 8
  store ptr %this, ptr %__node, align 8
  %_M_node.i = getelementptr inbounds i8, ptr %__node, i64 8
  %call.i = tail call noundef ptr @_ZNSt8__detail16_Hashtable_allocISaINS_10_Hash_nodeISt4pairIKN4cvc58internal12NodeTemplateILb1EEEKbELb1EEEEE16_M_allocate_nodeIJS2_IS6_bEEEEPSA_DpOT_(ptr noundef nonnull align 1 dereferenceable(1) %this, ptr noundef nonnull align 8 dereferenceable(9) %__args)
  store ptr %call.i, ptr %_M_node.i, align 8
  %add.ptr = getelementptr inbounds i8, ptr %call.i, i64 8
  %_M_element_count.i = getelementptr inbounds i8, ptr %this, i64 24
  %0 = load i64, ptr %_M_element_count.i, align 8
  %cmp.not.not = icmp eq i64 %0, 0
  br i1 %cmp.not.not, label %if.then, label %if.end18

if.then:                                          ; preds = %entry
  %_M_before_begin.i.i = getelementptr inbounds i8, ptr %this, i64 16
  br label %for.cond

for.cond:                                         ; preds = %invoke.cont, %if.then
  %__it.sroa.0.0.in = phi ptr [ %_M_before_begin.i.i, %if.then ], [ %__it.sroa.0.0, %invoke.cont ]
  %__it.sroa.0.0 = load ptr, ptr %__it.sroa.0.0.in, align 8
  %cmp.i.not = icmp eq ptr %__it.sroa.0.0, null
  br i1 %cmp.i.not, label %if.end18, label %invoke.cont

invoke.cont:                                      ; preds = %for.cond
  %add.ptr12 = getelementptr inbounds i8, ptr %__it.sroa.0.0, i64 8
  %1 = load ptr, ptr %add.ptr, align 8
  %2 = load ptr, ptr %add.ptr12, align 8
  %cmp.i.i.i = icmp eq ptr %1, %2
  br i1 %cmp.i.i.i, label %if.then.i, label %for.cond, !llvm.loop !32

lpad:                                             ; preds = %if.end18, %if.end34
  %3 = landingpad { ptr, i32 }
          cleanup
  call void @_ZNSt10_HashtableIKN4cvc58internal12NodeTemplateILb1EEESt4pairIS4_KbESaIS7_ENSt8__detail10_Select1stESt8equal_toIS4_ESt4hashIS3_ENS9_18_Mod_range_hashingENS9_20_Default_ranged_hashENS9_20_Prime_rehash_policyENS9_17_Hashtable_traitsILb1ELb0ELb1EEEE12_Scoped_nodeD2Ev(ptr noundef nonnull align 8 dereferenceable(16) %__node) #19
  resume { ptr, i32 } %3

if.end18:                                         ; preds = %for.cond, %entry
  %call2.i7 = invoke noundef i64 @_ZNKSt4hashIN4cvc58internal12NodeTemplateILb1EEEEclERKS3_(ptr noundef nonnull align 1 dereferenceable(1) %this, ptr noundef nonnull align 8 dereferenceable(8) %add.ptr)
          to label %invoke.cont21 unwind label %lpad

invoke.cont21:                                    ; preds = %if.end18
  %_M_bucket_count.i = getelementptr inbounds i8, ptr %this, i64 8
  %4 = load i64, ptr %_M_bucket_count.i, align 8
  %rem.i.i.i = urem i64 %call2.i7, %4
  %5 = load i64, ptr %_M_element_count.i, align 8
  %cmp25.not = icmp eq i64 %5, 0
  br i1 %cmp25.not, label %if.end34, label %if.then26

if.then26:                                        ; preds = %invoke.cont21
  %6 = load ptr, ptr %this, align 8
  %arrayidx.i.i = getelementptr inbounds ptr, ptr %6, i64 %rem.i.i.i
  %7 = load ptr, ptr %arrayidx.i.i, align 8
  %tobool.not.i.i = icmp eq ptr %7, null
  br i1 %tobool.not.i.i, label %if.end34, label %if.end.i.i

if.end.i.i:                                       ; preds = %if.then26
  %8 = load ptr, ptr %7, align 8
  %9 = load ptr, ptr %add.ptr, align 8
  %add.ptr8.i.i = getelementptr inbounds i8, ptr %8, i64 8
  %add.ptr.i9.i.i = getelementptr inbounds i8, ptr %8, i64 24
  %10 = load i64, ptr %add.ptr.i9.i.i, align 8
  %cmp.i.i10.i.i = icmp eq i64 %10, %call2.i7
  %11 = load ptr, ptr %add.ptr8.i.i, align 8
  %cmp.i.i.i.i11.i.i = icmp eq ptr %9, %11
  %12 = select i1 %cmp.i.i10.i.i, i1 %cmp.i.i.i.i11.i.i, i1 false
  br i1 %12, label %if.then.i, label %if.end3.i.i

for.cond.i.i:                                     ; preds = %lor.lhs.false.i.i
  %add.ptr.i.i = getelementptr inbounds i8, ptr %15, i64 8
  %cmp.i.i.i.i = icmp eq i64 %16, %call2.i7
  %13 = load ptr, ptr %add.ptr.i.i, align 8
  %cmp.i.i.i.i.i.i = icmp eq ptr %9, %13
  %14 = select i1 %cmp.i.i.i.i, i1 %cmp.i.i.i.i.i.i, i1 false
  br i1 %14, label %cleanup, label %if.end3.i.i, !llvm.loop !10

if.end3.i.i:                                      ; preds = %if.end.i.i, %for.cond.i.i
  %__p.012.i.i = phi ptr [ %15, %for.cond.i.i ], [ %8, %if.end.i.i ]
  %15 = load ptr, ptr %__p.012.i.i, align 8
  %tobool5.not.i.i = icmp eq ptr %15, null
  br i1 %tobool5.not.i.i, label %if.end34, label %lor.lhs.false.i.i

lor.lhs.false.i.i:                                ; preds = %if.end3.i.i
  %add.ptr.i.i.i.i = getelementptr inbounds i8, ptr %15, i64 24
  %16 = load i64, ptr %add.ptr.i.i.i.i, align 8
  %rem.i.i.i.i.i = urem i64 %16, %4
  %cmp.not.i.i = icmp eq i64 %rem.i.i.i.i.i, %rem.i.i.i
  br i1 %cmp.not.i.i, label %for.cond.i.i, label %if.end34, !llvm.loop !10

if.end34:                                         ; preds = %if.end3.i.i, %lor.lhs.false.i.i, %if.then26, %invoke.cont21
  %call37 = invoke ptr @_ZNSt10_HashtableIKN4cvc58internal12NodeTemplateILb1EEESt4pairIS4_KbESaIS7_ENSt8__detail10_Select1stESt8equal_toIS4_ESt4hashIS3_ENS9_18_Mod_range_hashingENS9_20_Default_ranged_hashENS9_20_Prime_rehash_policyENS9_17_Hashtable_traitsILb1ELb0ELb1EEEE21_M_insert_unique_nodeEmmPNS9_10_Hash_nodeIS7_Lb1EEEm(ptr noundef nonnull align 8 dereferenceable(56) %this, i64 noundef %rem.i.i.i, i64 noundef %call2.i7, ptr noundef %call.i, i64 noundef 1)
          to label %_ZNSt10_HashtableIKN4cvc58internal12NodeTemplateILb1EEESt4pairIS4_KbESaIS7_ENSt8__detail10_Select1stESt8equal_toIS4_ESt4hashIS3_ENS9_18_Mod_range_hashingENS9_20_Default_ranged_hashENS9_20_Prime_rehash_policyENS9_17_Hashtable_traitsILb1ELb0ELb1EEEE12_Scoped_nodeD2Ev.exit unwind label %lpad

cleanup:                                          ; preds = %for.cond.i.i
  %tobool.not.i = icmp eq ptr %call.i, null
  br i1 %tobool.not.i, label %_ZNSt10_HashtableIKN4cvc58internal12NodeTemplateILb1EEESt4pairIS4_KbESaIS7_ENSt8__detail10_Select1stESt8equal_toIS4_ESt4hashIS3_ENS9_18_Mod_range_hashingENS9_20_Default_ranged_hashENS9_20_Prime_rehash_policyENS9_17_Hashtable_traitsILb1ELb0ELb1EEEE12_Scoped_nodeD2Ev.exit, label %if.then.i

if.then.i:                                        ; preds = %invoke.cont, %if.end.i.i, %cleanup
  %retval.sroa.0.0.ph31 = phi ptr [ %15, %cleanup ], [ %8, %if.end.i.i ], [ %__it.sroa.0.0, %invoke.cont ]
  %17 = phi ptr [ %9, %cleanup ], [ %9, %if.end.i.i ], [ %1, %invoke.cont ]
  %bf.load.i.i.i.i.i.i.i = load i64, ptr %17, align 8
  %18 = and i64 %bf.load.i.i.i.i.i.i.i, 1152920405095219200
  %cmp.not.i.i.i.i.i.i.i = icmp eq i64 %18, 1152920405095219200
  br i1 %cmp.not.i.i.i.i.i.i.i, label %_ZNSt8__detail16_Hashtable_allocISaINS_10_Hash_nodeISt4pairIKN4cvc58internal12NodeTemplateILb1EEEKbELb1EEEEE18_M_deallocate_nodeEPSA_.exit.i, label %if.then.i.i.i.i.i.i.i

if.then.i.i.i.i.i.i.i:                            ; preds = %if.then.i
  %bf.value.i.i.i.i.i.i.i = add i64 %bf.load.i.i.i.i.i.i.i, 1152920405095219200
  %bf.shl.i.i.i.i.i.i.i = and i64 %bf.value.i.i.i.i.i.i.i, 1152920405095219200
  %bf.clear7.i.i.i.i.i.i.i = and i64 %bf.load.i.i.i.i.i.i.i, -1152920405095219201
  %bf.set.i.i.i.i.i.i.i = or disjoint i64 %bf.shl.i.i.i.i.i.i.i, %bf.clear7.i.i.i.i.i.i.i
  store i64 %bf.set.i.i.i.i.i.i.i, ptr %17, align 8
  %cmp12.i.i.i.i.i.i.i = icmp eq i64 %bf.shl.i.i.i.i.i.i.i, 0
  br i1 %cmp12.i.i.i.i.i.i.i, label %if.then13.i.i.i.i.i.i.i, label %_ZNSt8__detail16_Hashtable_allocISaINS_10_Hash_nodeISt4pairIKN4cvc58internal12NodeTemplateILb1EEEKbELb1EEEEE18_M_deallocate_nodeEPSA_.exit.i

if.then13.i.i.i.i.i.i.i:                          ; preds = %if.then.i.i.i.i.i.i.i
  invoke void @_ZN4cvc58internal4expr9NodeValue15markForDeletionEv(ptr noundef nonnull align 8 dereferenceable(16) %17)
          to label %_ZNSt8__detail16_Hashtable_allocISaINS_10_Hash_nodeISt4pairIKN4cvc58internal12NodeTemplateILb1EEEKbELb1EEEEE18_M_deallocate_nodeEPSA_.exit.i unwind label %terminate.lpad.i.i.i.i.i.i

terminate.lpad.i.i.i.i.i.i:                       ; preds = %if.then13.i.i.i.i.i.i.i
  %19 = landingpad { ptr, i32 }
          catch ptr null
  %20 = extractvalue { ptr, i32 } %19, 0
  tail call void @__clang_call_terminate(ptr %20) #20
  unreachable

_ZNSt8__detail16_Hashtable_allocISaINS_10_Hash_nodeISt4pairIKN4cvc58internal12NodeTemplateILb1EEEKbELb1EEEEE18_M_deallocate_nodeEPSA_.exit.i: ; preds = %if.then13.i.i.i.i.i.i.i, %if.then.i.i.i.i.i.i.i, %if.then.i
  tail call void @_ZdlPv(ptr noundef nonnull %call.i) #18
  br label %_ZNSt10_HashtableIKN4cvc58internal12NodeTemplateILb1EEESt4pairIS4_KbESaIS7_ENSt8__detail10_Select1stESt8equal_toIS4_ESt4hashIS3_ENS9_18_Mod_range_hashingENS9_20_Default_ranged_hashENS9_20_Prime_rehash_policyENS9_17_Hashtable_traitsILb1ELb0ELb1EEEE12_Scoped_nodeD2Ev.exit

_ZNSt10_HashtableIKN4cvc58internal12NodeTemplateILb1EEESt4pairIS4_KbESaIS7_ENSt8__detail10_Select1stESt8equal_toIS4_ESt4hashIS3_ENS9_18_Mod_range_hashingENS9_20_Default_ranged_hashENS9_20_Prime_rehash_policyENS9_17_Hashtable_traitsILb1ELb0ELb1EEEE12_Scoped_nodeD2Ev.exit: ; preds = %if.end34, %cleanup, %_ZNSt8__detail16_Hashtable_allocISaINS_10_Hash_nodeISt4pairIKN4cvc58internal12NodeTemplateILb1EEEKbELb1EEEEE18_M_deallocate_nodeEPSA_.exit.i
  %retval.sroa.4.021 = phi i8 [ 0, %cleanup ], [ 0, %_ZNSt8__detail16_Hashtable_allocISaINS_10_Hash_nodeISt4pairIKN4cvc58internal12NodeTemplateILb1EEEKbELb1EEEEE18_M_deallocate_nodeEPSA_.exit.i ], [ 1, %if.end34 ]
  %retval.sroa.0.020 = phi ptr [ %15, %cleanup ], [ %retval.sroa.0.0.ph31, %_ZNSt8__detail16_Hashtable_allocISaINS_10_Hash_nodeISt4pairIKN4cvc58internal12NodeTemplateILb1EEEKbELb1EEEEE18_M_deallocate_nodeEPSA_.exit.i ], [ %call37, %if.end34 ]
  %.fca.0.insert = insertvalue { ptr, i8 } poison, ptr %retval.sroa.0.020, 0
  %.fca.1.insert = insertvalue { ptr, i8 } %.fca.0.insert, i8 %retval.sroa.4.021, 1
  ret { ptr, i8 } %.fca.1.insert
}

; Function Attrs: mustprogress uwtable
define linkonce_odr hidden ptr @_ZNSt10_HashtableIKN4cvc58internal12NodeTemplateILb1EEESt4pairIS4_KbESaIS7_ENSt8__detail10_Select1stESt8equal_toIS4_ESt4hashIS3_ENS9_18_Mod_range_hashingENS9_20_Default_ranged_hashENS9_20_Prime_rehash_policyENS9_17_Hashtable_traitsILb1ELb0ELb1EEEE21_M_insert_unique_nodeEmmPNS9_10_Hash_nodeIS7_Lb1EEEm(ptr noundef nonnull align 8 dereferenceable(56) %this, i64 noundef %__bkt, i64 noundef %__code, ptr noundef %__node, i64 noundef %__n_elt) local_unnamed_addr #3 comdat align 2 personality ptr @__gxx_personality_v0 {
entry:
  %_M_rehash_policy = getelementptr inbounds i8, ptr %this, i64 32
  %_M_next_resize.i = getelementptr inbounds i8, ptr %this, i64 40
  %0 = load i64, ptr %_M_next_resize.i, align 8
  %_M_bucket_count = getelementptr inbounds i8, ptr %this, i64 8
  %1 = load i64, ptr %_M_bucket_count, align 8
  %_M_element_count = getelementptr inbounds i8, ptr %this, i64 24
  %2 = load i64, ptr %_M_element_count, align 8
  %call3 = tail call { i8, i64 } @_ZNKSt8__detail20_Prime_rehash_policy14_M_need_rehashEmmm(ptr noundef nonnull align 8 dereferenceable(16) %_M_rehash_policy, i64 noundef %1, i64 noundef %2, i64 noundef %__n_elt)
  %3 = extractvalue { i8, i64 } %call3, 0
  %4 = and i8 %3, 1
  %tobool.not = icmp eq i8 %4, 0
  br i1 %tobool.not, label %if.end, label %if.then

if.then:                                          ; preds = %entry
  %5 = extractvalue { i8, i64 } %call3, 1
  invoke void @_ZNSt10_HashtableIKN4cvc58internal12NodeTemplateILb1EEESt4pairIS4_KbESaIS7_ENSt8__detail10_Select1stESt8equal_toIS4_ESt4hashIS3_ENS9_18_Mod_range_hashingENS9_20_Default_ranged_hashENS9_20_Prime_rehash_policyENS9_17_Hashtable_traitsILb1ELb0ELb1EEEE13_M_rehash_auxEmSt17integral_constantIbLb1EE(ptr noundef nonnull align 8 dereferenceable(56) %this, i64 noundef %5)
          to label %_ZNSt10_HashtableIKN4cvc58internal12NodeTemplateILb1EEESt4pairIS4_KbESaIS7_ENSt8__detail10_Select1stESt8equal_toIS4_ESt4hashIS3_ENS9_18_Mod_range_hashingENS9_20_Default_ranged_hashENS9_20_Prime_rehash_policyENS9_17_Hashtable_traitsILb1ELb0ELb1EEEE9_M_rehashEmRKm.exit unwind label %lpad.i

lpad.i:                                           ; preds = %if.then
  %6 = landingpad { ptr, i32 }
          catch ptr null
  %7 = extractvalue { ptr, i32 } %6, 0
  %8 = tail call ptr @__cxa_begin_catch(ptr %7) #19
  store i64 %0, ptr %_M_next_resize.i, align 8
  invoke void @__cxa_rethrow() #21
          to label %unreachable.i unwind label %lpad2.i

lpad2.i:                                          ; preds = %lpad.i
  %9 = landingpad { ptr, i32 }
          cleanup
  invoke void @__cxa_end_catch()
          to label %eh.resume.i unwind label %terminate.lpad.i

eh.resume.i:                                      ; preds = %lpad2.i
  resume { ptr, i32 } %9

terminate.lpad.i:                                 ; preds = %lpad2.i
  %10 = landingpad { ptr, i32 }
          catch ptr null
  %11 = extractvalue { ptr, i32 } %10, 0
  tail call void @__clang_call_terminate(ptr %11) #20
  unreachable

unreachable.i:                                    ; preds = %lpad.i
  unreachable

_ZNSt10_HashtableIKN4cvc58internal12NodeTemplateILb1EEESt4pairIS4_KbESaIS7_ENSt8__detail10_Select1stESt8equal_toIS4_ESt4hashIS3_ENS9_18_Mod_range_hashingENS9_20_Default_ranged_hashENS9_20_Prime_rehash_policyENS9_17_Hashtable_traitsILb1ELb0ELb1EEEE9_M_rehashEmRKm.exit: ; preds = %if.then
  %12 = load i64, ptr %_M_bucket_count, align 8
  %rem.i.i.i = urem i64 %__code, %12
  br label %if.end

if.end:                                           ; preds = %_ZNSt10_HashtableIKN4cvc58internal12NodeTemplateILb1EEESt4pairIS4_KbESaIS7_ENSt8__detail10_Select1stESt8equal_toIS4_ESt4hashIS3_ENS9_18_Mod_range_hashingENS9_20_Default_ranged_hashENS9_20_Prime_rehash_policyENS9_17_Hashtable_traitsILb1ELb0ELb1EEEE9_M_rehashEmRKm.exit, %entry
  %__bkt.addr.0 = phi i64 [ %rem.i.i.i, %_ZNSt10_HashtableIKN4cvc58internal12NodeTemplateILb1EEESt4pairIS4_KbESaIS7_ENSt8__detail10_Select1stESt8equal_toIS4_ESt4hashIS3_ENS9_18_Mod_range_hashingENS9_20_Default_ranged_hashENS9_20_Prime_rehash_policyENS9_17_Hashtable_traitsILb1ELb0ELb1EEEE9_M_rehashEmRKm.exit ], [ %__bkt, %entry ]
  %add.ptr = getelementptr inbounds i8, ptr %__node, i64 24
  store i64 %__code, ptr %add.ptr, align 8
  %13 = load ptr, ptr %this, align 8
  %arrayidx.i = getelementptr inbounds ptr, ptr %13, i64 %__bkt.addr.0
  %14 = load ptr, ptr %arrayidx.i, align 8
  %tobool.not.i = icmp eq ptr %14, null
  br i1 %tobool.not.i, label %if.else.i, label %if.then.i

if.then.i:                                        ; preds = %if.end
  %15 = load ptr, ptr %14, align 8
  store ptr %15, ptr %__node, align 8
  %16 = load ptr, ptr %this, align 8
  %arrayidx6.i = getelementptr inbounds ptr, ptr %16, i64 %__bkt.addr.0
  %17 = load ptr, ptr %arrayidx6.i, align 8
  store ptr %__node, ptr %17, align 8
  br label %_ZNSt10_HashtableIKN4cvc58internal12NodeTemplateILb1EEESt4pairIS4_KbESaIS7_ENSt8__detail10_Select1stESt8equal_toIS4_ESt4hashIS3_ENS9_18_Mod_range_hashingENS9_20_Default_ranged_hashENS9_20_Prime_rehash_policyENS9_17_Hashtable_traitsILb1ELb0ELb1EEEE22_M_insert_bucket_beginEmPNS9_10_Hash_nodeIS7_Lb1EEE.exit

if.else.i:                                        ; preds = %if.end
  %_M_before_begin.i = getelementptr inbounds i8, ptr %this, i64 16
  %18 = load ptr, ptr %_M_before_begin.i, align 8
  store ptr %18, ptr %__node, align 8
  store ptr %__node, ptr %_M_before_begin.i, align 8
  %19 = load ptr, ptr %__node, align 8
  %tobool13.not.i = icmp eq ptr %19, null
  br i1 %tobool13.not.i, label %if.end.i, label %if.then14.i

if.then14.i:                                      ; preds = %if.else.i
  %20 = load ptr, ptr %this, align 8
  %21 = load i64, ptr %_M_bucket_count, align 8
  %add.ptr.i.i.i = getelementptr inbounds i8, ptr %19, i64 24
  %22 = load i64, ptr %add.ptr.i.i.i, align 8
  %rem.i.i.i.i = urem i64 %22, %21
  %arrayidx17.i = getelementptr inbounds ptr, ptr %20, i64 %rem.i.i.i.i
  store ptr %__node, ptr %arrayidx17.i, align 8
  br label %if.end.i

if.end.i:                                         ; preds = %if.then14.i, %if.else.i
  %23 = load ptr, ptr %this, align 8
  %arrayidx20.i = getelementptr inbounds ptr, ptr %23, i64 %__bkt.addr.0
  store ptr %_M_before_begin.i, ptr %arrayidx20.i, align 8
  br label %_ZNSt10_HashtableIKN4cvc58internal12NodeTemplateILb1EEESt4pairIS4_KbESaIS7_ENSt8__detail10_Select1stESt8equal_toIS4_ESt4hashIS3_ENS9_18_Mod_range_hashingENS9_20_Default_ranged_hashENS9_20_Prime_rehash_policyENS9_17_Hashtable_traitsILb1ELb0ELb1EEEE22_M_insert_bucket_beginEmPNS9_10_Hash_nodeIS7_Lb1EEE.exit

_ZNSt10_HashtableIKN4cvc58internal12NodeTemplateILb1EEESt4pairIS4_KbESaIS7_ENSt8__detail10_Select1stESt8equal_toIS4_ESt4hashIS3_ENS9_18_Mod_range_hashingENS9_20_Default_ranged_hashENS9_20_Prime_rehash_policyENS9_17_Hashtable_traitsILb1ELb0ELb1EEEE22_M_insert_bucket_beginEmPNS9_10_Hash_nodeIS7_Lb1EEE.exit: ; preds = %if.then.i, %if.end.i
  %24 = load i64, ptr %_M_element_count, align 8
  %inc = add i64 %24, 1
  store i64 %inc, ptr %_M_element_count, align 8
  ret ptr %__node
}

; Function Attrs: mustprogress nounwind uwtable
define linkonce_odr hidden void @_ZNSt10_HashtableIKN4cvc58internal12NodeTemplateILb1EEESt4pairIS4_KbESaIS7_ENSt8__detail10_Select1stESt8equal_toIS4_ESt4hashIS3_ENS9_18_Mod_range_hashingENS9_20_Default_ranged_hashENS9_20_Prime_rehash_policyENS9_17_Hashtable_traitsILb1ELb0ELb1EEEE12_Scoped_nodeD2Ev(ptr noundef nonnull align 8 dereferenceable(16) %this) unnamed_addr #4 comdat align 2 personality ptr @__gxx_personality_v0 {
entry:
  %_M_node = getelementptr inbounds i8, ptr %this, i64 8
  %0 = load ptr, ptr %_M_node, align 8
  %tobool.not = icmp eq ptr %0, null
  br i1 %tobool.not, label %if.end, label %if.then

if.then:                                          ; preds = %entry
  %add.ptr.i = getelementptr inbounds i8, ptr %0, i64 8
  %1 = load ptr, ptr %add.ptr.i, align 8
  %bf.load.i.i.i.i.i.i = load i64, ptr %1, align 8
  %2 = and i64 %bf.load.i.i.i.i.i.i, 1152920405095219200
  %cmp.not.i.i.i.i.i.i = icmp eq i64 %2, 1152920405095219200
  br i1 %cmp.not.i.i.i.i.i.i, label %_ZNSt8__detail16_Hashtable_allocISaINS_10_Hash_nodeISt4pairIKN4cvc58internal12NodeTemplateILb1EEEKbELb1EEEEE18_M_deallocate_nodeEPSA_.exit, label %if.then.i.i.i.i.i.i

if.then.i.i.i.i.i.i:                              ; preds = %if.then
  %bf.value.i.i.i.i.i.i = add i64 %bf.load.i.i.i.i.i.i, 1152920405095219200
  %bf.shl.i.i.i.i.i.i = and i64 %bf.value.i.i.i.i.i.i, 1152920405095219200
  %bf.clear7.i.i.i.i.i.i = and i64 %bf.load.i.i.i.i.i.i, -1152920405095219201
  %bf.set.i.i.i.i.i.i = or disjoint i64 %bf.shl.i.i.i.i.i.i, %bf.clear7.i.i.i.i.i.i
  store i64 %bf.set.i.i.i.i.i.i, ptr %1, align 8
  %cmp12.i.i.i.i.i.i = icmp eq i64 %bf.shl.i.i.i.i.i.i, 0
  br i1 %cmp12.i.i.i.i.i.i, label %if.then13.i.i.i.i.i.i, label %_ZNSt8__detail16_Hashtable_allocISaINS_10_Hash_nodeISt4pairIKN4cvc58internal12NodeTemplateILb1EEEKbELb1EEEEE18_M_deallocate_nodeEPSA_.exit

if.then13.i.i.i.i.i.i:                            ; preds = %if.then.i.i.i.i.i.i
  invoke void @_ZN4cvc58internal4expr9NodeValue15markForDeletionEv(ptr noundef nonnull align 8 dereferenceable(16) %1)
          to label %_ZNSt8__detail16_Hashtable_allocISaINS_10_Hash_nodeISt4pairIKN4cvc58internal12NodeTemplateILb1EEEKbELb1EEEEE18_M_deallocate_nodeEPSA_.exit unwind label %terminate.lpad.i.i.i.i.i

terminate.lpad.i.i.i.i.i:                         ; preds = %if.then13.i.i.i.i.i.i
  %3 = landingpad { ptr, i32 }
          catch ptr null
  %4 = extractvalue { ptr, i32 } %3, 0
  tail call void @__clang_call_terminate(ptr %4) #20
  unreachable

_ZNSt8__detail16_Hashtable_allocISaINS_10_Hash_nodeISt4pairIKN4cvc58internal12NodeTemplateILb1EEEKbELb1EEEEE18_M_deallocate_nodeEPSA_.exit: ; preds = %if.then, %if.then.i.i.i.i.i.i, %if.then13.i.i.i.i.i.i
  tail call void @_ZdlPv(ptr noundef nonnull %0) #18
  br label %if.end

if.end:                                           ; preds = %_ZNSt8__detail16_Hashtable_allocISaINS_10_Hash_nodeISt4pairIKN4cvc58internal12NodeTemplateILb1EEEKbELb1EEEEE18_M_deallocate_nodeEPSA_.exit, %entry
  ret void
}

; Function Attrs: mustprogress uwtable
define linkonce_odr hidden noundef ptr @_ZNSt8__detail16_Hashtable_allocISaINS_10_Hash_nodeISt4pairIKN4cvc58internal12NodeTemplateILb1EEEKbELb1EEEEE16_M_allocate_nodeIJS2_IS6_bEEEEPSA_DpOT_(ptr noundef nonnull align 1 dereferenceable(1) %this, ptr noundef nonnull align 8 dereferenceable(9) %__args) local_unnamed_addr #3 comdat align 2 personality ptr @__gxx_personality_v0 {
invoke.cont:
  %call5.i.i = tail call noalias noundef nonnull dereferenceable(32) ptr @_Znwm(i64 noundef 32) #17
  store ptr null, ptr %call5.i.i, align 8
  %add.ptr = getelementptr inbounds i8, ptr %call5.i.i, i64 8
  %0 = load ptr, ptr %__args, align 8
  store ptr %0, ptr %add.ptr, align 8
  %bf.load.i.i.i.i.i = load i64, ptr %0, align 8
  %bf.lshr.i.i.i.i.i = lshr i64 %bf.load.i.i.i.i.i, 40
  %1 = trunc i64 %bf.lshr.i.i.i.i.i to i32
  %bf.cast.i.i.i.i.i = and i32 %1, 1048575
  %cmp.i.i.i.i.i = icmp ult i32 %bf.cast.i.i.i.i.i, 1048574
  br i1 %cmp.i.i.i.i.i, label %if.then.i.i.i.i.i, label %if.else.i.i.i.i.i

if.then.i.i.i.i.i:                                ; preds = %invoke.cont
  %bf.value.i.i.i.i.i = add i64 %bf.load.i.i.i.i.i, 1099511627776
  %bf.shl.i.i.i.i.i = and i64 %bf.value.i.i.i.i.i, 1152920405095219200
  %bf.clear7.i.i.i.i.i = and i64 %bf.load.i.i.i.i.i, -1152920405095219201
  %bf.set.i.i.i.i.i = or disjoint i64 %bf.shl.i.i.i.i.i, %bf.clear7.i.i.i.i.i
  store i64 %bf.set.i.i.i.i.i, ptr %0, align 8
  br label %invoke.cont6

if.else.i.i.i.i.i:                                ; preds = %invoke.cont
  %cmp12.i.i.i.i.i = icmp eq i32 %bf.cast.i.i.i.i.i, 1048574
  br i1 %cmp12.i.i.i.i.i, label %if.then13.i.i.i.i.i, label %invoke.cont6

if.then13.i.i.i.i.i:                              ; preds = %if.else.i.i.i.i.i
  %bf.set23.i.i.i.i.i = or i64 %bf.load.i.i.i.i.i, 1152920405095219200
  store i64 %bf.set23.i.i.i.i.i, ptr %0, align 8
  invoke void @_ZN4cvc58internal4expr9NodeValue20markRefCountMaxedOutEv(ptr noundef nonnull align 8 dereferenceable(16) %0)
          to label %invoke.cont6 unwind label %invoke.cont10

invoke.cont6:                                     ; preds = %if.else.i.i.i.i.i, %if.then.i.i.i.i.i, %if.then13.i.i.i.i.i
  %second.i.i.i = getelementptr inbounds i8, ptr %call5.i.i, i64 16
  %second3.i.i.i = getelementptr inbounds i8, ptr %__args, i64 8
  %2 = load i8, ptr %second3.i.i.i, align 8
  %3 = and i8 %2, 1
  store i8 %3, ptr %second.i.i.i, align 8
  ret ptr %call5.i.i

invoke.cont10:                                    ; preds = %if.then13.i.i.i.i.i
  %4 = landingpad { ptr, i32 }
          catch ptr null
  %5 = extractvalue { ptr, i32 } %4, 0
  %6 = tail call ptr @__cxa_begin_catch(ptr %5) #19
  tail call void @_ZdlPv(ptr noundef nonnull %call5.i.i) #18
  invoke void @__cxa_rethrow() #21
          to label %unreachable unwind label %lpad7

lpad7:                                            ; preds = %invoke.cont10
  %7 = landingpad { ptr, i32 }
          cleanup
  invoke void @__cxa_end_catch()
          to label %eh.resume unwind label %terminate.lpad

eh.resume:                                        ; preds = %lpad7
  resume { ptr, i32 } %7

terminate.lpad:                                   ; preds = %lpad7
  %8 = landingpad { ptr, i32 }
          catch ptr null
  %9 = extractvalue { ptr, i32 } %8, 0
  tail call void @__clang_call_terminate(ptr %9) #20
  unreachable

unreachable:                                      ; preds = %invoke.cont10
  unreachable
}

declare { i8, i64 } @_ZNKSt8__detail20_Prime_rehash_policy14_M_need_rehashEmmm(ptr noundef nonnull align 8 dereferenceable(16), i64 noundef, i64 noundef, i64 noundef) local_unnamed_addr #0

; Function Attrs: mustprogress uwtable
define linkonce_odr hidden void @_ZNSt10_HashtableIKN4cvc58internal12NodeTemplateILb1EEESt4pairIS4_KbESaIS7_ENSt8__detail10_Select1stESt8equal_toIS4_ESt4hashIS3_ENS9_18_Mod_range_hashingENS9_20_Default_ranged_hashENS9_20_Prime_rehash_policyENS9_17_Hashtable_traitsILb1ELb0ELb1EEEE13_M_rehash_auxEmSt17integral_constantIbLb1EE(ptr noundef nonnull align 8 dereferenceable(56) %this, i64 noundef %__bkt_count) local_unnamed_addr #3 comdat align 2 personality ptr @__gxx_personality_v0 {
entry:
  %cmp.i = icmp eq i64 %__bkt_count, 1
  br i1 %cmp.i, label %if.then.i, label %if.end.i

if.then.i:                                        ; preds = %entry
  %_M_single_bucket.i = getelementptr inbounds i8, ptr %this, i64 48
  store ptr null, ptr %_M_single_bucket.i, align 8
  br label %_ZNSt10_HashtableIKN4cvc58internal12NodeTemplateILb1EEESt4pairIS4_KbESaIS7_ENSt8__detail10_Select1stESt8equal_toIS4_ESt4hashIS3_ENS9_18_Mod_range_hashingENS9_20_Default_ranged_hashENS9_20_Prime_rehash_policyENS9_17_Hashtable_traitsILb1ELb0ELb1EEEE19_M_allocate_bucketsEm.exit

if.end.i:                                         ; preds = %entry
  %cmp.i.i.i.i = icmp ugt i64 %__bkt_count, 1152921504606846975
  br i1 %cmp.i.i.i.i, label %if.then.i.i.i.i, label %_ZNSt8__detail16_Hashtable_allocISaINS_10_Hash_nodeISt4pairIKN4cvc58internal12NodeTemplateILb1EEEKbELb1EEEEE19_M_allocate_bucketsEm.exit.i

if.then.i.i.i.i:                                  ; preds = %if.end.i
  %cmp2.i.i.i.i = icmp ugt i64 %__bkt_count, 2305843009213693951
  br i1 %cmp2.i.i.i.i, label %if.then3.i.i.i.i, label %if.end.i.i.i.i

if.then3.i.i.i.i:                                 ; preds = %if.then.i.i.i.i
  tail call void @_ZSt28__throw_bad_array_new_lengthv() #21
  unreachable

if.end.i.i.i.i:                                   ; preds = %if.then.i.i.i.i
  tail call void @_ZSt17__throw_bad_allocv() #21
  unreachable

_ZNSt8__detail16_Hashtable_allocISaINS_10_Hash_nodeISt4pairIKN4cvc58internal12NodeTemplateILb1EEEKbELb1EEEEE19_M_allocate_bucketsEm.exit.i: ; preds = %if.end.i
  %mul.i.i.i.i = shl nuw nsw i64 %__bkt_count, 3
  %call5.i.i4.i.i = tail call noalias noundef nonnull ptr @_Znwm(i64 noundef %mul.i.i.i.i) #17
  tail call void @llvm.memset.p0.i64(ptr nonnull align 8 %call5.i.i4.i.i, i8 0, i64 %mul.i.i.i.i, i1 false)
  br label %_ZNSt10_HashtableIKN4cvc58internal12NodeTemplateILb1EEESt4pairIS4_KbESaIS7_ENSt8__detail10_Select1stESt8equal_toIS4_ESt4hashIS3_ENS9_18_Mod_range_hashingENS9_20_Default_ranged_hashENS9_20_Prime_rehash_policyENS9_17_Hashtable_traitsILb1ELb0ELb1EEEE19_M_allocate_bucketsEm.exit

_ZNSt10_HashtableIKN4cvc58internal12NodeTemplateILb1EEESt4pairIS4_KbESaIS7_ENSt8__detail10_Select1stESt8equal_toIS4_ESt4hashIS3_ENS9_18_Mod_range_hashingENS9_20_Default_ranged_hashENS9_20_Prime_rehash_policyENS9_17_Hashtable_traitsILb1ELb0ELb1EEEE19_M_allocate_bucketsEm.exit: ; preds = %if.then.i, %_ZNSt8__detail16_Hashtable_allocISaINS_10_Hash_nodeISt4pairIKN4cvc58internal12NodeTemplateILb1EEEKbELb1EEEEE19_M_allocate_bucketsEm.exit.i
  %retval.0.i = phi ptr [ %_M_single_bucket.i, %if.then.i ], [ %call5.i.i4.i.i, %_ZNSt8__detail16_Hashtable_allocISaINS_10_Hash_nodeISt4pairIKN4cvc58internal12NodeTemplateILb1EEEKbELb1EEEEE19_M_allocate_bucketsEm.exit.i ]
  %_M_before_begin.i = getelementptr inbounds i8, ptr %this, i64 16
  %0 = load ptr, ptr %_M_before_begin.i, align 8
  store ptr null, ptr %_M_before_begin.i, align 8
  %tobool.not20 = icmp eq ptr %0, null
  br i1 %tobool.not20, label %while.end, label %while.body

while.body:                                       ; preds = %_ZNSt10_HashtableIKN4cvc58internal12NodeTemplateILb1EEESt4pairIS4_KbESaIS7_ENSt8__detail10_Select1stESt8equal_toIS4_ESt4hashIS3_ENS9_18_Mod_range_hashingENS9_20_Default_ranged_hashENS9_20_Prime_rehash_policyENS9_17_Hashtable_traitsILb1ELb0ELb1EEEE19_M_allocate_bucketsEm.exit, %if.end22
  %__p.022 = phi ptr [ %1, %if.end22 ], [ %0, %_ZNSt10_HashtableIKN4cvc58internal12NodeTemplateILb1EEESt4pairIS4_KbESaIS7_ENSt8__detail10_Select1stESt8equal_toIS4_ESt4hashIS3_ENS9_18_Mod_range_hashingENS9_20_Default_ranged_hashENS9_20_Prime_rehash_policyENS9_17_Hashtable_traitsILb1ELb0ELb1EEEE19_M_allocate_bucketsEm.exit ]
  %__bbegin_bkt.021 = phi i64 [ %__bbegin_bkt.1, %if.end22 ], [ 0, %_ZNSt10_HashtableIKN4cvc58internal12NodeTemplateILb1EEESt4pairIS4_KbESaIS7_ENSt8__detail10_Select1stESt8equal_toIS4_ESt4hashIS3_ENS9_18_Mod_range_hashingENS9_20_Default_ranged_hashENS9_20_Prime_rehash_policyENS9_17_Hashtable_traitsILb1ELb0ELb1EEEE19_M_allocate_bucketsEm.exit ]
  %1 = load ptr, ptr %__p.022, align 8
  %add.ptr.i = getelementptr inbounds i8, ptr %__p.022, i64 24
  %2 = load i64, ptr %add.ptr.i, align 8
  %rem.i.i = urem i64 %2, %__bkt_count
  %arrayidx = getelementptr inbounds ptr, ptr %retval.0.i, i64 %rem.i.i
  %3 = load ptr, ptr %arrayidx, align 8
  %tobool5.not = icmp eq ptr %3, null
  br i1 %tobool5.not, label %if.then, label %if.else

if.then:                                          ; preds = %while.body
  %4 = load ptr, ptr %_M_before_begin.i, align 8
  store ptr %4, ptr %__p.022, align 8
  store ptr %__p.022, ptr %_M_before_begin.i, align 8
  store ptr %_M_before_begin.i, ptr %arrayidx, align 8
  %5 = load ptr, ptr %__p.022, align 8
  %tobool14.not = icmp eq ptr %5, null
  br i1 %tobool14.not, label %if.end22, label %if.then15

if.then15:                                        ; preds = %if.then
  %arrayidx16 = getelementptr inbounds ptr, ptr %retval.0.i, i64 %__bbegin_bkt.021
  br label %if.end22.sink.split

if.else:                                          ; preds = %while.body
  %6 = load ptr, ptr %3, align 8
  store ptr %6, ptr %__p.022, align 8
  %7 = load ptr, ptr %arrayidx, align 8
  br label %if.end22.sink.split

if.end22.sink.split:                              ; preds = %if.else, %if.then15
  %arrayidx16.sink = phi ptr [ %arrayidx16, %if.then15 ], [ %7, %if.else ]
  %__bbegin_bkt.1.ph = phi i64 [ %rem.i.i, %if.then15 ], [ %__bbegin_bkt.021, %if.else ]
  store ptr %__p.022, ptr %arrayidx16.sink, align 8
  br label %if.end22

if.end22:                                         ; preds = %if.end22.sink.split, %if.then
  %__bbegin_bkt.1 = phi i64 [ %rem.i.i, %if.then ], [ %__bbegin_bkt.1.ph, %if.end22.sink.split ]
  %tobool.not = icmp eq ptr %1, null
  br i1 %tobool.not, label %while.end, label %while.body, !llvm.loop !33

while.end:                                        ; preds = %if.end22, %_ZNSt10_HashtableIKN4cvc58internal12NodeTemplateILb1EEESt4pairIS4_KbESaIS7_ENSt8__detail10_Select1stESt8equal_toIS4_ESt4hashIS3_ENS9_18_Mod_range_hashingENS9_20_Default_ranged_hashENS9_20_Prime_rehash_policyENS9_17_Hashtable_traitsILb1ELb0ELb1EEEE19_M_allocate_bucketsEm.exit
  %8 = load ptr, ptr %this, align 8
  %_M_single_bucket.i.i.i = getelementptr inbounds i8, ptr %this, i64 48
  %cmp.i.i.i = icmp eq ptr %_M_single_bucket.i.i.i, %8
  br i1 %cmp.i.i.i, label %_ZNSt10_HashtableIKN4cvc58internal12NodeTemplateILb1EEESt4pairIS4_KbESaIS7_ENSt8__detail10_Select1stESt8equal_toIS4_ESt4hashIS3_ENS9_18_Mod_range_hashingENS9_20_Default_ranged_hashENS9_20_Prime_rehash_policyENS9_17_Hashtable_traitsILb1ELb0ELb1EEEE21_M_deallocate_bucketsEv.exit, label %if.end.i.i

if.end.i.i:                                       ; preds = %while.end
  tail call void @_ZdlPv(ptr noundef %8) #18
  br label %_ZNSt10_HashtableIKN4cvc58internal12NodeTemplateILb1EEESt4pairIS4_KbESaIS7_ENSt8__detail10_Select1stESt8equal_toIS4_ESt4hashIS3_ENS9_18_Mod_range_hashingENS9_20_Default_ranged_hashENS9_20_Prime_rehash_policyENS9_17_Hashtable_traitsILb1ELb0ELb1EEEE21_M_deallocate_bucketsEv.exit

_ZNSt10_HashtableIKN4cvc58internal12NodeTemplateILb1EEESt4pairIS4_KbESaIS7_ENSt8__detail10_Select1stESt8equal_toIS4_ESt4hashIS3_ENS9_18_Mod_range_hashingENS9_20_Default_ranged_hashENS9_20_Prime_rehash_policyENS9_17_Hashtable_traitsILb1ELb0ELb1EEEE21_M_deallocate_bucketsEv.exit: ; preds = %while.end, %if.end.i.i
  %_M_bucket_count = getelementptr inbounds i8, ptr %this, i64 8
  store i64 %__bkt_count, ptr %_M_bucket_count, align 8
  store ptr %retval.0.i, ptr %this, align 8
  ret void
}

; Function Attrs: mustprogress uwtable
define linkonce_odr hidden void @_ZNSt5dequeIN4cvc58internal12NodeTemplateILb1EEESaIS3_EE16_M_push_back_auxIJRKS3_EEEvDpOT_(ptr noundef nonnull align 8 dereferenceable(80) %this, ptr noundef nonnull align 8 dereferenceable(8) %__args) local_unnamed_addr #3 comdat align 2 personality ptr @__gxx_personality_v0 {
entry:
  %_M_finish.i = getelementptr inbounds i8, ptr %this, i64 48
  %_M_start.i = getelementptr inbounds i8, ptr %this, i64 16
  %_M_node.i.i = getelementptr inbounds i8, ptr %this, i64 72
  %0 = load ptr, ptr %_M_node.i.i, align 8
  %_M_node1.i.i = getelementptr inbounds i8, ptr %this, i64 40
  %1 = load ptr, ptr %_M_node1.i.i, align 8
  %sub.ptr.lhs.cast.i.i = ptrtoint ptr %0 to i64
  %sub.ptr.rhs.cast.i.i = ptrtoint ptr %1 to i64
  %sub.ptr.sub.i.i = sub i64 %sub.ptr.lhs.cast.i.i, %sub.ptr.rhs.cast.i.i
  %sub.ptr.div.i.i = ashr exact i64 %sub.ptr.sub.i.i, 3
  %tobool.i.i = icmp ne ptr %0, null
  %conv.neg.i.i = sext i1 %tobool.i.i to i64
  %sub.i.i = add nsw i64 %sub.ptr.div.i.i, %conv.neg.i.i
  %mul.i.i = shl nsw i64 %sub.i.i, 6
  %2 = load ptr, ptr %_M_finish.i, align 8
  %_M_first.i.i = getelementptr inbounds i8, ptr %this, i64 56
  %3 = load ptr, ptr %_M_first.i.i, align 8
  %sub.ptr.lhs.cast3.i.i = ptrtoint ptr %2 to i64
  %sub.ptr.rhs.cast4.i.i = ptrtoint ptr %3 to i64
  %sub.ptr.sub5.i.i = sub i64 %sub.ptr.lhs.cast3.i.i, %sub.ptr.rhs.cast4.i.i
  %sub.ptr.div6.i.i = ashr exact i64 %sub.ptr.sub5.i.i, 3
  %add.i.i = add nsw i64 %mul.i.i, %sub.ptr.div6.i.i
  %_M_last.i.i = getelementptr inbounds i8, ptr %this, i64 32
  %4 = load ptr, ptr %_M_last.i.i, align 8
  %5 = load ptr, ptr %_M_start.i, align 8
  %sub.ptr.lhs.cast8.i.i = ptrtoint ptr %4 to i64
  %sub.ptr.rhs.cast9.i.i = ptrtoint ptr %5 to i64
  %sub.ptr.sub10.i.i = sub i64 %sub.ptr.lhs.cast8.i.i, %sub.ptr.rhs.cast9.i.i
  %sub.ptr.div11.i.i = ashr exact i64 %sub.ptr.sub10.i.i, 3
  %add12.i.i = add nsw i64 %add.i.i, %sub.ptr.div11.i.i
  %cmp = icmp eq i64 %add12.i.i, 1152921504606846975
  br i1 %cmp, label %if.then, label %if.end

if.then:                                          ; preds = %entry
  tail call void @_ZSt20__throw_length_errorPKc(ptr noundef nonnull @.str.24) #21
  unreachable

if.end:                                           ; preds = %entry
  %_M_map_size.i = getelementptr inbounds i8, ptr %this, i64 8
  %6 = load i64, ptr %_M_map_size.i, align 8
  %7 = load ptr, ptr %this, align 8
  %sub.ptr.rhs.cast.i = ptrtoint ptr %7 to i64
  %sub.ptr.sub.i = sub i64 %sub.ptr.lhs.cast.i.i, %sub.ptr.rhs.cast.i
  %sub.ptr.div.i = ashr exact i64 %sub.ptr.sub.i, 3
  %sub.i = sub i64 %6, %sub.ptr.div.i
  %cmp.i = icmp ult i64 %sub.i, 2
  br i1 %cmp.i, label %if.then.i, label %_ZNSt5dequeIN4cvc58internal12NodeTemplateILb1EEESaIS3_EE22_M_reserve_map_at_backEm.exit

if.then.i:                                        ; preds = %if.end
  tail call void @_ZNSt5dequeIN4cvc58internal12NodeTemplateILb1EEESaIS3_EE17_M_reallocate_mapEmb(ptr noundef nonnull align 8 dereferenceable(80) %this, i64 noundef 1, i1 noundef zeroext false)
  %.pre = load ptr, ptr %_M_node.i.i, align 8
  br label %_ZNSt5dequeIN4cvc58internal12NodeTemplateILb1EEESaIS3_EE22_M_reserve_map_at_backEm.exit

_ZNSt5dequeIN4cvc58internal12NodeTemplateILb1EEESaIS3_EE22_M_reserve_map_at_backEm.exit: ; preds = %if.end, %if.then.i
  %8 = phi ptr [ %0, %if.end ], [ %.pre, %if.then.i ]
  %call5.i.i.i = tail call noalias noundef nonnull dereferenceable(512) ptr @_Znwm(i64 noundef 512) #17
  %add.ptr = getelementptr inbounds i8, ptr %8, i64 8
  store ptr %call5.i.i.i, ptr %add.ptr, align 8
  %9 = load ptr, ptr %_M_finish.i, align 8
  %10 = load ptr, ptr %__args, align 8
  store ptr %10, ptr %9, align 8
  %bf.load.i.i.i.i = load i64, ptr %10, align 8
  %bf.lshr.i.i.i.i = lshr i64 %bf.load.i.i.i.i, 40
  %11 = trunc i64 %bf.lshr.i.i.i.i to i32
  %bf.cast.i.i.i.i = and i32 %11, 1048575
  %cmp.i.i.i.i = icmp ult i32 %bf.cast.i.i.i.i, 1048574
  br i1 %cmp.i.i.i.i, label %if.then.i.i.i.i, label %if.else.i.i.i.i

if.then.i.i.i.i:                                  ; preds = %_ZNSt5dequeIN4cvc58internal12NodeTemplateILb1EEESaIS3_EE22_M_reserve_map_at_backEm.exit
  %bf.value.i.i.i.i = add i64 %bf.load.i.i.i.i, 1099511627776
  %bf.shl.i.i.i.i = and i64 %bf.value.i.i.i.i, 1152920405095219200
  %bf.clear7.i.i.i.i = and i64 %bf.load.i.i.i.i, -1152920405095219201
