; ModuleID = 'bench/cvc5/original/lfsc_node_converter.cpp.ll'
source_filename = "bench/cvc5/original/lfsc_node_converter.cpp.ll"
target datalayout = "e-m:e-p270:32:32-p271:32:32-p272:64:64-i64:64-i128:128-f80:128-n8:16:32:64-S128"
target triple = "x86_64-unknown-linux-gnu"

%"class.std::ios_base::Init" = type { i8 }
%"class.cvc5::internal::NodeTemplate" = type { ptr }
%"struct.std::piecewise_construct_t" = type { i8 }
%"class.std::tuple.354" = type { %"struct.std::_Tuple_impl.355" }
%"struct.std::_Tuple_impl.355" = type { %"struct.std::_Head_base.356" }
%"struct.std::_Head_base.356" = type { ptr }
%"class.std::tuple.348" = type { i8 }
%"class.std::tuple.345" = type { %"struct.std::_Tuple_impl.346" }
%"struct.std::_Tuple_impl.346" = type { %"struct.std::_Head_base.347" }
%"struct.std::_Head_base.347" = type { ptr }
%"class.cvc5::internal::TypeNode" = type { ptr }
%"class.std::__cxx11::basic_string" = type { %"struct.std::__cxx11::basic_string<char>::_Alloc_hider", i64, %union.anon }
%"struct.std::__cxx11::basic_string<char>::_Alloc_hider" = type { ptr }
%union.anon = type { i64, [8 x i8] }
%"class.std::allocator.160" = type { i8 }
%"class.std::vector.163" = type { %"struct.std::_Vector_base.164" }
%"struct.std::_Vector_base.164" = type { %"struct.std::_Vector_base<cvc5::internal::TypeNode, std::allocator<cvc5::internal::TypeNode>>::_Vector_impl" }
%"struct.std::_Vector_base<cvc5::internal::TypeNode, std::allocator<cvc5::internal::TypeNode>>::_Vector_impl" = type { %"struct.std::_Vector_base<cvc5::internal::TypeNode, std::allocator<cvc5::internal::TypeNode>>::_Vector_impl_data" }
%"struct.std::_Vector_base<cvc5::internal::TypeNode, std::allocator<cvc5::internal::TypeNode>>::_Vector_impl_data" = type { ptr, ptr, ptr }
%"class.cvc5::internal::proof::LfscNodeConverter" = type { %"class.cvc5::internal::NodeConverter.base", %"class.std::map", %"class.std::unordered_set", %"class.std::map.38", %"class.std::map.46", %"class.cvc5::internal::TypeNode", %"class.cvc5::internal::TypeNode", %"class.std::map.53", %"class.std::map.53", %"class.std::map.58", %"class.std::map.65", %"class.std::unordered_set", %"class.std::unordered_set.73" }
%"class.cvc5::internal::NodeConverter.base" = type <{ ptr, %"class.std::unordered_map", %"class.std::unordered_map", %"class.std::unordered_map.2", %"class.std::unordered_map.2", i8 }>
%"class.std::unordered_map" = type { %"class.std::_Hashtable" }
%"class.std::_Hashtable" = type { ptr, i64, %"struct.std::__detail::_Hash_node_base", i64, %"struct.std::__detail::_Prime_rehash_policy", ptr }
%"struct.std::__detail::_Hash_node_base" = type { ptr }
%"struct.std::__detail::_Prime_rehash_policy" = type { float, i64 }
%"class.std::unordered_map.2" = type { %"class.std::_Hashtable.3" }
%"class.std::_Hashtable.3" = type { ptr, i64, %"struct.std::__detail::_Hash_node_base", i64, %"struct.std::__detail::_Prime_rehash_policy", ptr }
%"class.std::map" = type { %"class.std::_Rb_tree" }
%"class.std::_Rb_tree" = type { %"struct.std::_Rb_tree<std::tuple<cvc5::internal::kind::Kind_t, cvc5::internal::TypeNode, std::__cxx11::basic_string<char>>, std::pair<const std::tuple<cvc5::internal::kind::Kind_t, cvc5::internal::TypeNode, std::__cxx11::basic_string<char>>, cvc5::internal::NodeTemplate<true>>, std::_Select1st<std::pair<const std::tuple<cvc5::internal::kind::Kind_t, cvc5::internal::TypeNode, std::__cxx11::basic_string<char>>, cvc5::internal::NodeTemplate<true>>>, std::less<std::tuple<cvc5::internal::kind::Kind_t, cvc5::internal::TypeNode, std::__cxx11::basic_string<char>>>>::_Rb_tree_impl" }
%"struct.std::_Rb_tree<std::tuple<cvc5::internal::kind::Kind_t, cvc5::internal::TypeNode, std::__cxx11::basic_string<char>>, std::pair<const std::tuple<cvc5::internal::kind::Kind_t, cvc5::internal::TypeNode, std::__cxx11::basic_string<char>>, cvc5::internal::NodeTemplate<true>>, std::_Select1st<std::pair<const std::tuple<cvc5::internal::kind::Kind_t, cvc5::internal::TypeNode, std::__cxx11::basic_string<char>>, cvc5::internal::NodeTemplate<true>>>, std::less<std::tuple<cvc5::internal::kind::Kind_t, cvc5::internal::TypeNode, std::__cxx11::basic_string<char>>>>::_Rb_tree_impl" = type { %"struct.std::_Rb_tree_key_compare", %"struct.std::_Rb_tree_header" }
%"struct.std::_Rb_tree_key_compare" = type { %"struct.std::less" }
%"struct.std::less" = type { i8 }
%"struct.std::_Rb_tree_header" = type { %"struct.std::_Rb_tree_node_base", i64 }
%"struct.std::_Rb_tree_node_base" = type { i32, ptr, ptr, ptr }
%"class.std::map.38" = type { %"class.std::_Rb_tree.39" }
%"class.std::_Rb_tree.39" = type { %"struct.std::_Rb_tree<std::__cxx11::basic_string<char>, std::pair<const std::__cxx11::basic_string<char>, std::vector<unsigned long>>, std::_Select1st<std::pair<const std::__cxx11::basic_string<char>, std::vector<unsigned long>>>, std::less<std::__cxx11::basic_string<char>>>::_Rb_tree_impl" }
%"struct.std::_Rb_tree<std::__cxx11::basic_string<char>, std::pair<const std::__cxx11::basic_string<char>, std::vector<unsigned long>>, std::_Select1st<std::pair<const std::__cxx11::basic_string<char>, std::vector<unsigned long>>>, std::less<std::__cxx11::basic_string<char>>>::_Rb_tree_impl" = type { %"struct.std::_Rb_tree_key_compare.43", %"struct.std::_Rb_tree_header" }
%"struct.std::_Rb_tree_key_compare.43" = type { %"struct.std::less.44" }
%"struct.std::less.44" = type { i8 }
%"class.std::map.46" = type { %"class.std::_Rb_tree.47" }
%"class.std::_Rb_tree.47" = type { %"struct.std::_Rb_tree<cvc5::internal::NodeTemplate<true>, std::pair<const cvc5::internal::NodeTemplate<true>, cvc5::internal::kind::Kind_t>, std::_Select1st<std::pair<const cvc5::internal::NodeTemplate<true>, cvc5::internal::kind::Kind_t>>, std::less<cvc5::internal::NodeTemplate<true>>>::_Rb_tree_impl" }
%"struct.std::_Rb_tree<cvc5::internal::NodeTemplate<true>, std::pair<const cvc5::internal::NodeTemplate<true>, cvc5::internal::kind::Kind_t>, std::_Select1st<std::pair<const cvc5::internal::NodeTemplate<true>, cvc5::internal::kind::Kind_t>>, std::less<cvc5::internal::NodeTemplate<true>>>::_Rb_tree_impl" = type { %"struct.std::_Rb_tree_key_compare.51", %"struct.std::_Rb_tree_header" }
%"struct.std::_Rb_tree_key_compare.51" = type { %"struct.std::less.52" }
%"struct.std::less.52" = type { i8 }
%"class.std::map.53" = type { %"class.std::_Rb_tree.54" }
%"class.std::_Rb_tree.54" = type { %"struct.std::_Rb_tree<cvc5::internal::NodeTemplate<true>, std::pair<const cvc5::internal::NodeTemplate<true>, unsigned long>, std::_Select1st<std::pair<const cvc5::internal::NodeTemplate<true>, unsigned long>>, std::less<cvc5::internal::NodeTemplate<true>>>::_Rb_tree_impl" }
%"struct.std::_Rb_tree<cvc5::internal::NodeTemplate<true>, std::pair<const cvc5::internal::NodeTemplate<true>, unsigned long>, std::_Select1st<std::pair<const cvc5::internal::NodeTemplate<true>, unsigned long>>, std::less<cvc5::internal::NodeTemplate<true>>>::_Rb_tree_impl" = type { %"struct.std::_Rb_tree_key_compare.51", %"struct.std::_Rb_tree_header" }
%"class.std::map.58" = type { %"class.std::_Rb_tree.59" }
%"class.std::_Rb_tree.59" = type { %"struct.std::_Rb_tree<cvc5::internal::TypeNode, std::pair<const cvc5::internal::TypeNode, cvc5::internal::NodeTemplate<true>>, std::_Select1st<std::pair<const cvc5::internal::TypeNode, cvc5::internal::NodeTemplate<true>>>, std::less<cvc5::internal::TypeNode>>::_Rb_tree_impl" }
%"struct.std::_Rb_tree<cvc5::internal::TypeNode, std::pair<const cvc5::internal::TypeNode, cvc5::internal::NodeTemplate<true>>, std::_Select1st<std::pair<const cvc5::internal::TypeNode, cvc5::internal::NodeTemplate<true>>>, std::less<cvc5::internal::TypeNode>>::_Rb_tree_impl" = type { %"struct.std::_Rb_tree_key_compare.63", %"struct.std::_Rb_tree_header" }
%"struct.std::_Rb_tree_key_compare.63" = type { %"struct.std::less.64" }
%"struct.std::less.64" = type { i8 }
%"class.std::map.65" = type { %"class.std::_Rb_tree.66" }
%"class.std::_Rb_tree.66" = type { %"struct.std::_Rb_tree<cvc5::internal::kind::Kind_t, std::pair<const cvc5::internal::kind::Kind_t, cvc5::internal::NodeTemplate<true>>, std::_Select1st<std::pair<const cvc5::internal::kind::Kind_t, cvc5::internal::NodeTemplate<true>>>, std::less<cvc5::internal::kind::Kind_t>>::_Rb_tree_impl" }
%"struct.std::_Rb_tree<cvc5::internal::kind::Kind_t, std::pair<const cvc5::internal::kind::Kind_t, cvc5::internal::NodeTemplate<true>>, std::_Select1st<std::pair<const cvc5::internal::kind::Kind_t, cvc5::internal::NodeTemplate<true>>>, std::less<cvc5::internal::kind::Kind_t>>::_Rb_tree_impl" = type { %"struct.std::_Rb_tree_key_compare.70", %"struct.std::_Rb_tree_header" }
%"struct.std::_Rb_tree_key_compare.70" = type { %"struct.std::less.71" }
%"struct.std::less.71" = type { i8 }
%"class.std::unordered_set" = type { %"class.std::_Hashtable.25" }
%"class.std::_Hashtable.25" = type { ptr, i64, %"struct.std::__detail::_Hash_node_base", i64, %"struct.std::__detail::_Prime_rehash_policy", ptr }
%"class.std::unordered_set.73" = type { %"class.std::_Hashtable.74" }
%"class.std::_Hashtable.74" = type { ptr, i64, %"struct.std::__detail::_Hash_node_base", i64, %"struct.std::__detail::_Prime_rehash_policy", ptr }
%"class.cvc5::internal::expr::NodeValue" = type { i64, i16, i32, [0 x ptr] }
%"struct.std::_Rb_tree_node.317" = type { %"struct.std::_Rb_tree_node_base", %"struct.__gnu_cxx::__aligned_membuf.318" }
%"struct.__gnu_cxx::__aligned_membuf.318" = type { [16 x i8] }
%"struct.std::_Rb_tree_node" = type { %"struct.std::_Rb_tree_node_base", %"struct.__gnu_cxx::__aligned_membuf" }
%"struct.__gnu_cxx::__aligned_membuf" = type { [16 x i8] }
%"class.std::tuple.375" = type { %"struct.std::_Tuple_impl.376" }
%"struct.std::_Tuple_impl.376" = type { %"struct.std::_Head_base.377" }
%"struct.std::_Head_base.377" = type { ptr }
%"struct.std::__detail::_AllocNode" = type { ptr }
%"class.std::tuple.268" = type { %"struct.std::_Tuple_impl.base", [4 x i8] }
%"struct.std::_Tuple_impl.base" = type <{ %"struct.std::_Tuple_impl.270", %"struct.std::_Head_base.274" }>
%"struct.std::_Tuple_impl.270" = type { %"struct.std::_Tuple_impl.271", %"struct.std::_Head_base.273" }
%"struct.std::_Tuple_impl.271" = type { %"struct.std::_Head_base.272" }
%"struct.std::_Head_base.272" = type { %"class.std::__cxx11::basic_string" }
%"struct.std::_Head_base.273" = type { %"class.cvc5::internal::TypeNode" }
%"struct.std::_Head_base.274" = type { i32 }
%"struct.std::_Rb_tree_node.327" = type { %"struct.std::_Rb_tree_node_base", %"struct.__gnu_cxx::__aligned_membuf.328" }
%"struct.__gnu_cxx::__aligned_membuf.328" = type { [56 x i8] }
%"struct.std::_Rb_tree_node.321" = type { %"struct.std::_Rb_tree_node_base", %"struct.__gnu_cxx::__aligned_membuf.322" }
%"struct.__gnu_cxx::__aligned_membuf.322" = type { [16 x i8] }
%"class.cvc5::internal::NodeConverter" = type <{ ptr, %"class.std::unordered_map", %"class.std::unordered_map", %"class.std::unordered_map.2", %"class.std::unordered_map.2", i8, [7 x i8] }>
%"struct.std::__detail::_AllocNode.361" = type { ptr }
%"class.cvc5::internal::Rational" = type { %class.__gmp_expr }
%class.__gmp_expr = type { [1 x %struct.__mpq_struct] }
%struct.__mpq_struct = type { %struct.__mpz_struct, %struct.__mpz_struct }
%struct.__mpz_struct = type { i32, i32, ptr }
%"class.std::vector.173" = type { %"struct.std::_Vector_base.174" }
%"struct.std::_Vector_base.174" = type { %"struct.std::_Vector_base<cvc5::internal::NodeTemplate<true>, std::allocator<cvc5::internal::NodeTemplate<true>>>::_Vector_impl" }
%"struct.std::_Vector_base<cvc5::internal::NodeTemplate<true>, std::allocator<cvc5::internal::NodeTemplate<true>>>::_Vector_impl" = type { %"struct.std::_Vector_base<cvc5::internal::NodeTemplate<true>, std::allocator<cvc5::internal::NodeTemplate<true>>>::_Vector_impl_data" }
%"struct.std::_Vector_base<cvc5::internal::NodeTemplate<true>, std::allocator<cvc5::internal::NodeTemplate<true>>>::_Vector_impl_data" = type { ptr, ptr, ptr }
%"class.std::allocator.175" = type { i8 }
%"class.std::allocator.165" = type { i8 }
%"class.cvc5::internal::NodeTemplate.188" = type { ptr }
%"class.std::__cxx11::basic_stringstream" = type { %"class.std::basic_iostream.base", %"class.std::__cxx11::basic_stringbuf", %"class.std::basic_ios" }
%"class.std::basic_iostream.base" = type { %"class.std::basic_istream.base", %"class.std::basic_ostream.base" }
%"class.std::basic_istream.base" = type { ptr, i64 }
%"class.std::basic_ostream.base" = type { ptr }
%"class.std::__cxx11::basic_stringbuf" = type { %"class.std::basic_streambuf", i32, %"class.std::__cxx11::basic_string" }
%"class.std::basic_streambuf" = type { ptr, ptr, ptr, ptr, ptr, ptr, ptr, %"class.std::locale" }
%"class.std::locale" = type { ptr }
%"class.std::basic_ios" = type { %"class.std::ios_base", ptr, i8, i8, ptr, ptr, ptr, ptr }
%"class.std::ios_base" = type { ptr, i64, i64, i32, i32, i32, ptr, %"struct.std::ios_base::_Words", [8 x %"struct.std::ios_base::_Words"], i32, ptr, %"class.std::locale" }
%"struct.std::ios_base::_Words" = type { ptr, i64 }
%"class.cvc5::internal::Integer" = type { %class.__gmp_expr.187 }
%class.__gmp_expr.187 = type { [1 x %struct.__mpz_struct] }
%"class.cvc5::internal::BitVector" = type { i32, %"class.cvc5::internal::Integer" }
%"class.cvc5::internal::ArrayStoreAll" = type { %"class.std::unique_ptr.179", %"class.std::unique_ptr.227" }
%"class.std::unique_ptr.179" = type { %"struct.std::__uniq_ptr_data.180" }
%"struct.std::__uniq_ptr_data.180" = type { %"class.std::__uniq_ptr_impl.181" }
%"class.std::__uniq_ptr_impl.181" = type { %"class.std::tuple.182" }
%"class.std::tuple.182" = type { %"struct.std::_Tuple_impl.183" }
%"struct.std::_Tuple_impl.183" = type { %"struct.std::_Head_base.186" }
%"struct.std::_Head_base.186" = type { ptr }
%"class.std::unique_ptr.227" = type { %"struct.std::__uniq_ptr_data.228" }
%"struct.std::__uniq_ptr_data.228" = type { %"class.std::__uniq_ptr_impl.229" }
%"class.std::__uniq_ptr_impl.229" = type { %"class.std::tuple.230" }
%"class.std::tuple.230" = type { %"struct.std::_Tuple_impl.231" }
%"struct.std::_Tuple_impl.231" = type { %"struct.std::_Head_base.234" }
%"struct.std::_Head_base.234" = type { ptr }
%"struct.std::_Rb_tree_node.319" = type { %"struct.std::_Rb_tree_node_base", %"struct.__gnu_cxx::__aligned_membuf.320" }
%"struct.__gnu_cxx::__aligned_membuf.320" = type { [16 x i8] }
%"class.cvc5::internal::options::ioutils::Scope" = type <{ ptr, i8, [7 x i8], i64, i64, i8, [3 x i8], i32, i32, [4 x i8] }>
%"class.cvc5::internal::FatalStream" = type { i8 }
%"class.cvc5::internal::NodeBuilder" = type <{ %"class.cvc5::internal::expr::NodeValue", [10 x ptr], ptr, ptr, i32, [4 x i8] }>
%"struct.std::_Vector_base<unsigned int, std::allocator<unsigned int>>::_Vector_impl_data" = type { ptr, ptr, ptr }
%"class.std::tuple.362" = type { %"struct.std::_Tuple_impl.363" }
%"struct.std::_Tuple_impl.363" = type { %"struct.std::_Head_base.364" }
%"struct.std::_Head_base.364" = type { ptr }
%"struct.std::_Vector_base<unsigned long, std::allocator<unsigned long>>::_Vector_impl_data" = type { ptr, ptr, ptr }
%"class.std::tuple.367" = type { %"struct.std::_Tuple_impl.368" }
%"struct.std::_Tuple_impl.368" = type { %"struct.std::_Head_base.369" }
%"struct.std::_Head_base.369" = type { ptr }
%"struct.std::_Rb_tree_node.323" = type { %"struct.std::_Rb_tree_node_base", %"struct.__gnu_cxx::__aligned_membuf.324" }
%"struct.__gnu_cxx::__aligned_membuf.324" = type { [56 x i8] }
%"class.std::tuple.381" = type { %"struct.std::_Tuple_impl.382" }
%"struct.std::_Tuple_impl.382" = type { %"struct.std::_Head_base.383" }
%"struct.std::_Head_base.383" = type { ptr }
%"struct.std::pair.276" = type { %"class.std::tuple.268", %"class.cvc5::internal::NodeTemplate" }
%struct._Guard = type { ptr }
%"struct.std::pair.266" = type { %"class.cvc5::internal::TypeNode", %"class.cvc5::internal::NodeTemplate" }
%"struct.std::_Rb_tree<cvc5::internal::kind::Kind_t, std::pair<const cvc5::internal::kind::Kind_t, cvc5::internal::NodeTemplate<true>>, std::_Select1st<std::pair<const cvc5::internal::kind::Kind_t, cvc5::internal::NodeTemplate<true>>>, std::less<cvc5::internal::kind::Kind_t>>::_Auto_node" = type { ptr, ptr }
%"struct.std::_Hashtable<cvc5::internal::NodeTemplate<true>, cvc5::internal::NodeTemplate<true>, std::allocator<cvc5::internal::NodeTemplate<true>>, std::__detail::_Identity, std::equal_to<cvc5::internal::NodeTemplate<true>>, std::hash<cvc5::internal::Node>, std::__detail::_Mod_range_hashing, std::__detail::_Default_ranged_hash, std::__detail::_Prime_rehash_policy, std::__detail::_Hashtable_traits<true, true, true>>::_Scoped_node" = type { ptr, ptr }
%"struct.std::_Hashtable<cvc5::internal::TypeNode, cvc5::internal::TypeNode, std::allocator<cvc5::internal::TypeNode>, std::__detail::_Identity, std::equal_to<cvc5::internal::TypeNode>, std::hash<cvc5::internal::TypeNode>, std::__detail::_Mod_range_hashing, std::__detail::_Default_ranged_hash, std::__detail::_Prime_rehash_policy, std::__detail::_Hashtable_traits<true, true, true>>::_Scoped_node" = type { ptr, ptr }
%"struct.std::_Rb_tree<std::__cxx11::basic_string<char>, std::pair<const std::__cxx11::basic_string<char>, std::vector<unsigned long>>, std::_Select1st<std::pair<const std::__cxx11::basic_string<char>, std::vector<unsigned long>>>, std::less<std::__cxx11::basic_string<char>>>::_Auto_node" = type { ptr, ptr }
%"struct.std::_Rb_tree<cvc5::internal::NodeTemplate<true>, std::pair<const cvc5::internal::NodeTemplate<true>, cvc5::internal::kind::Kind_t>, std::_Select1st<std::pair<const cvc5::internal::NodeTemplate<true>, cvc5::internal::kind::Kind_t>>, std::less<cvc5::internal::NodeTemplate<true>>>::_Auto_node" = type { ptr, ptr }
%"struct.std::_Rb_tree<std::tuple<cvc5::internal::kind::Kind_t, cvc5::internal::TypeNode, std::__cxx11::basic_string<char>>, std::pair<const std::tuple<cvc5::internal::kind::Kind_t, cvc5::internal::TypeNode, std::__cxx11::basic_string<char>>, cvc5::internal::NodeTemplate<true>>, std::_Select1st<std::pair<const std::tuple<cvc5::internal::kind::Kind_t, cvc5::internal::TypeNode, std::__cxx11::basic_string<char>>, cvc5::internal::NodeTemplate<true>>>, std::less<std::tuple<cvc5::internal::kind::Kind_t, cvc5::internal::TypeNode, std::__cxx11::basic_string<char>>>>::_Auto_node" = type { ptr, ptr }
%"struct.std::_Rb_tree<cvc5::internal::NodeTemplate<true>, std::pair<const cvc5::internal::NodeTemplate<true>, unsigned long>, std::_Select1st<std::pair<const cvc5::internal::NodeTemplate<true>, unsigned long>>, std::less<cvc5::internal::NodeTemplate<true>>>::_Auto_node" = type { ptr, ptr }

$_ZNSt7__cxx1112basic_stringIcSt11char_traitsIcESaIcEEC2IS3_EEPKcRKS3_ = comdat any

$_ZN4cvc58internal8TypeNodeaSERKS1_ = comdat any

$_ZN4cvc58internal8TypeNodeD2Ev = comdat any

$_ZN4cvc58internal8TypeNodeC2ERKS1_ = comdat any

$_ZNSt6vectorIN4cvc58internal8TypeNodeESaIS2_EEC2ESt16initializer_listIS2_ERKS3_ = comdat any

$_ZNSt6vectorIN4cvc58internal8TypeNodeESaIS2_EED2Ev = comdat any

$_ZN4cvc58internal12NodeTemplateILb1EEaSERKS2_ = comdat any

$_ZN4cvc58internal12NodeTemplateILb1EED2Ev = comdat any

$_ZNSt13unordered_setIN4cvc58internal8TypeNodeESt4hashIS2_ESt8equal_toIS2_ESaIS2_EED2Ev = comdat any

$_ZNSt13unordered_setIN4cvc58internal12NodeTemplateILb1EEESt4hashIS3_ESt8equal_toIS3_ESaIS3_EED2Ev = comdat any

$_ZNSt3mapIN4cvc58internal4kind6Kind_tENS1_12NodeTemplateILb1EEESt4lessIS3_ESaISt4pairIKS3_S5_EEED2Ev = comdat any

$_ZNSt3mapIN4cvc58internal8TypeNodeENS1_12NodeTemplateILb1EEESt4lessIS2_ESaISt4pairIKS2_S4_EEED2Ev = comdat any

$_ZNSt3mapIN4cvc58internal12NodeTemplateILb1EEEmSt4lessIS3_ESaISt4pairIKS3_mEEED2Ev = comdat any

$_ZNSt3mapIN4cvc58internal12NodeTemplateILb1EEENS1_4kind6Kind_tESt4lessIS3_ESaISt4pairIKS3_S5_EEED2Ev = comdat any

$_ZNSt3mapINSt7__cxx1112basic_stringIcSt11char_traitsIcESaIcEEESt6vectorImSaImEESt4lessIS5_ESaISt4pairIKS5_S8_EEED2Ev = comdat any

$_ZNSt3mapISt5tupleIJN4cvc58internal4kind6Kind_tENS2_8TypeNodeENSt7__cxx1112basic_stringIcSt11char_traitsIcESaIcEEEEENS2_12NodeTemplateILb1EEESt4lessISC_ESaISt4pairIKSC_SE_EEED2Ev = comdat any

$_ZN4cvc58internal13NodeConverterD2Ev = comdat any

$_ZN4cvc58internal12NodeTemplateILb1EEC2ERKS2_ = comdat any

$_ZNK4cvc58internal12NodeTemplateILb1EE7getTypeEb = comdat any

$_ZN4cvc58internal8RationalC2Em = comdat any

$_ZNSt6vectorIN4cvc58internal12NodeTemplateILb1EEESaIS3_EEC2ESt16initializer_listIS3_ERKS4_ = comdat any

$_ZNSt6vectorIN4cvc58internal12NodeTemplateILb1EEESaIS3_EED2Ev = comdat any

$_ZNK4cvc58internal12NodeTemplateILb1EE6isNullEv = comdat any

$_ZNK4cvc58internal12NodeTemplateILb1EE11getOperatorEv = comdat any

$_ZN4cvc58internal8RationalC2ERKNS0_7IntegerE = comdat any

$_ZNK4cvc58internal12NodeTemplateILb1EE14getNumChildrenEv = comdat any

$_ZNSt6vectorIN4cvc58internal12NodeTemplateILb1EEESaIS3_EEC2INS1_4expr9NodeValue8iteratorIS3_EEvEET_SB_RKS4_ = comdat any

$_ZNSt6vectorIN4cvc58internal8TypeNodeESaIS2_EE9push_backEOS2_ = comdat any

$_ZNK4cvc58internal12NodeTemplateILb1EEixEi = comdat any

$_ZN4cvc58internal12NodeTemplateILb1EEC2Ev = comdat any

$_ZN4cvc58internal8RationalC2ERKS1_ = comdat any

$_ZNK4cvc58internal8Rational3absEv = comdat any

$_ZN4cvc58internallsERSoRKNS0_7IntegerE = comdat any

$_ZN4cvc58internal11NodeManager6mkNodeENS0_4kind6Kind_tENS0_12NodeTemplateILb0EEES5_ = comdat any

$_ZN4cvc58internal11NodeManager6mkNodeENS0_4kind6Kind_tENS0_12NodeTemplateILb0EEE = comdat any

$_ZNK4cvc58internal8TypeNode23getArrayConstituentTypeEv = comdat any

$_ZNK4cvc58internal12NodeTemplateILb1EE9isClosureEv = comdat any

$_ZN4cvc58internal8RationalC2Ej = comdat any

$_ZNSt3mapINSt7__cxx1112basic_stringIcSt11char_traitsIcESaIcEEESt6vectorImSaImEESt4lessIS5_ESaISt4pairIKS5_S8_EEEixERSC_ = comdat any

$_ZNSt3mapISt5tupleIJN4cvc58internal4kind6Kind_tENS2_8TypeNodeENSt7__cxx1112basic_stringIcSt11char_traitsIcESaIcEEEEENS2_12NodeTemplateILb1EEESt4lessISC_ESaISt4pairIKSC_SE_EEEixERSI_ = comdat any

$_ZNSt5tupleIJN4cvc58internal4kind6Kind_tENS1_8TypeNodeENSt7__cxx1112basic_stringIcSt11char_traitsIcESaIcEEEEED2Ev = comdat any

$_ZN4cvc58internal5proof17LfscNodeConverterD2Ev = comdat any

$_ZN4cvc58internal5proof17LfscNodeConverterD0Ev = comdat any

$_ZN4cvc58internal12NodeTemplateILb1EE6s_nullE = comdat any

$__clang_call_terminate = comdat any

$_ZNSt8_Rb_treeIN4cvc58internal4kind6Kind_tESt4pairIKS3_NS1_12NodeTemplateILb1EEEESt10_Select1stIS8_ESt4lessIS3_ESaIS8_EE8_M_eraseEPSt13_Rb_tree_nodeIS8_E = comdat any

$_ZNSt8_Rb_treeIN4cvc58internal8TypeNodeESt4pairIKS2_NS1_12NodeTemplateILb1EEEESt10_Select1stIS7_ESt4lessIS2_ESaIS7_EE8_M_eraseEPSt13_Rb_tree_nodeIS7_E = comdat any

$_ZNSt8_Rb_treeIN4cvc58internal8TypeNodeESt4pairIKS2_NS1_12NodeTemplateILb1EEEESt10_Select1stIS7_ESt4lessIS2_ESaIS7_EE12_M_drop_nodeEPSt13_Rb_tree_nodeIS7_E = comdat any

$_ZNSt8_Rb_treeIN4cvc58internal12NodeTemplateILb1EEESt4pairIKS3_mESt10_Select1stIS6_ESt4lessIS3_ESaIS6_EE8_M_eraseEPSt13_Rb_tree_nodeIS6_E = comdat any

$_ZNSt8_Rb_treeIN4cvc58internal12NodeTemplateILb1EEESt4pairIKS3_NS1_4kind6Kind_tEESt10_Select1stIS8_ESt4lessIS3_ESaIS8_EE8_M_eraseEPSt13_Rb_tree_nodeIS8_E = comdat any

$_ZNSt8_Rb_treeINSt7__cxx1112basic_stringIcSt11char_traitsIcESaIcEEESt4pairIKS5_St6vectorImSaImEEESt10_Select1stISB_ESt4lessIS5_ESaISB_EE8_M_eraseEPSt13_Rb_tree_nodeISB_E = comdat any

$_ZNSt8_Rb_treeISt5tupleIJN4cvc58internal4kind6Kind_tENS2_8TypeNodeENSt7__cxx1112basic_stringIcSt11char_traitsIcESaIcEEEEESt4pairIKSC_NS2_12NodeTemplateILb1EEEESt10_Select1stISH_ESt4lessISC_ESaISH_EE8_M_eraseEPSt13_Rb_tree_nodeISH_E = comdat any

$_ZNSt4pairIKSt5tupleIJN4cvc58internal4kind6Kind_tENS2_8TypeNodeENSt7__cxx1112basic_stringIcSt11char_traitsIcESaIcEEEEENS2_12NodeTemplateILb1EEEED2Ev = comdat any

$_ZNSt8__detail16_Hashtable_allocISaINS_10_Hash_nodeISt4pairIKN4cvc58internal8TypeNodeES5_ELb1EEEEE18_M_deallocate_nodeEPS8_ = comdat any

$_ZNSt8__detail16_Hashtable_allocISaINS_10_Hash_nodeISt4pairIKN4cvc58internal12NodeTemplateILb1EEES6_ELb1EEEEE18_M_deallocate_nodeEPS9_ = comdat any

$_ZNK4cvc58internal8RationalngEv = comdat any

$_ZNSt7__cxx1112basic_stringIcSt11char_traitsIcESaIcEE12_M_constructIPKcEEvT_S8_St20forward_iterator_tag = comdat any

$_ZZNSt7__cxx1112basic_stringIcSt11char_traitsIcESaIcEE12_M_constructIPKcEEvT_S8_St20forward_iterator_tagEN6_GuardD2Ev = comdat any

$_ZSt16__do_uninit_copyIPKN4cvc58internal8TypeNodeEPS2_ET0_T_S7_S6_ = comdat any

$_ZSt8_DestroyIPN4cvc58internal8TypeNodeEEvT_S4_ = comdat any

$_ZSt8_DestroyIPN4cvc58internal8TypeNodeES2_EvT_S4_RSaIT0_E = comdat any

$_ZNSt8_Rb_treeIN4cvc58internal8TypeNodeESt4pairIKS2_NS1_12NodeTemplateILb1EEEESt10_Select1stIS7_ESt4lessIS2_ESaIS7_EE22_M_emplace_hint_uniqueIJRKSt21piecewise_construct_tSt5tupleIJRS4_EESI_IJEEEEESt17_Rb_tree_iteratorIS7_ESt23_Rb_tree_const_iteratorIS7_EDpOT_ = comdat any

$_ZNSt8_Rb_treeIN4cvc58internal8TypeNodeESt4pairIKS2_NS1_12NodeTemplateILb1EEEESt10_Select1stIS7_ESt4lessIS2_ESaIS7_EE29_M_get_insert_hint_unique_posESt23_Rb_tree_const_iteratorIS7_ERS4_ = comdat any

$_ZNSt4pairIKN4cvc58internal8TypeNodeENS1_12NodeTemplateILb1EEEEC2IJRS3_EJLm0EEJETpTnmJEEERSt5tupleIJDpT_EERS9_IJDpT1_EESt12_Index_tupleIJXspT0_EEESI_IJXspT2_EEE = comdat any

$_ZNSt8_Rb_treeIN4cvc58internal4kind6Kind_tESt4pairIKS3_NS1_12NodeTemplateILb1EEEESt10_Select1stIS8_ESt4lessIS3_ESaIS8_EE22_M_emplace_hint_uniqueIJRKSt21piecewise_construct_tSt5tupleIJOS3_EESJ_IJEEEEESt17_Rb_tree_iteratorIS8_ESt23_Rb_tree_const_iteratorIS8_EDpOT_ = comdat any

$_ZNSt8_Rb_treeIN4cvc58internal4kind6Kind_tESt4pairIKS3_NS1_12NodeTemplateILb1EEEESt10_Select1stIS8_ESt4lessIS3_ESaIS8_EE29_M_get_insert_hint_unique_posESt23_Rb_tree_const_iteratorIS8_ERS5_ = comdat any

$_ZNSt8_Rb_treeIN4cvc58internal4kind6Kind_tESt4pairIKS3_NS1_12NodeTemplateILb1EEEESt10_Select1stIS8_ESt4lessIS3_ESaIS8_EE10_Auto_nodeD2Ev = comdat any

$_ZNSt8_Rb_treeIN4cvc58internal4kind6Kind_tESt4pairIKS3_NS1_12NodeTemplateILb1EEEESt10_Select1stIS8_ESt4lessIS3_ESaIS8_EE17_M_construct_nodeIJRKSt21piecewise_construct_tSt5tupleIJOS3_EESJ_IJEEEEEvPSt13_Rb_tree_nodeIS8_EDpOT_ = comdat any

$_ZSt16__do_uninit_copyIPKN4cvc58internal12NodeTemplateILb1EEEPS3_ET0_T_S8_S7_ = comdat any

$_ZSt8_DestroyIPN4cvc58internal12NodeTemplateILb1EEEEvT_S5_ = comdat any

$_ZSt8_DestroyIPN4cvc58internal12NodeTemplateILb1EEES3_EvT_S5_RSaIT0_E = comdat any

$_ZNSt10_HashtableIN4cvc58internal12NodeTemplateILb1EEES3_SaIS3_ENSt8__detail9_IdentityESt8equal_toIS3_ESt4hashIS3_ENS5_18_Mod_range_hashingENS5_20_Default_ranged_hashENS5_20_Prime_rehash_policyENS5_17_Hashtable_traitsILb1ELb1ELb1EEEE16_M_insert_uniqueIRKS3_SJ_NS5_10_AllocNodeISaINS5_10_Hash_nodeIS3_Lb1EEEEEEEESt4pairINS5_14_Node_iteratorIS3_Lb1ELb1EEEbEOT_OT0_RKT1_ = comdat any

$_ZNSt10_HashtableIN4cvc58internal12NodeTemplateILb1EEES3_SaIS3_ENSt8__detail9_IdentityESt8equal_toIS3_ESt4hashIS3_ENS5_18_Mod_range_hashingENS5_20_Default_ranged_hashENS5_20_Prime_rehash_policyENS5_17_Hashtable_traitsILb1ELb1ELb1EEEE21_M_insert_unique_nodeEmmPNS5_10_Hash_nodeIS3_Lb1EEEm = comdat any

$_ZNSt10_HashtableIN4cvc58internal12NodeTemplateILb1EEES3_SaIS3_ENSt8__detail9_IdentityESt8equal_toIS3_ESt4hashIS3_ENS5_18_Mod_range_hashingENS5_20_Default_ranged_hashENS5_20_Prime_rehash_policyENS5_17_Hashtable_traitsILb1ELb1ELb1EEEE12_Scoped_nodeD2Ev = comdat any

$_ZNSt8__detail16_Hashtable_allocISaINS_10_Hash_nodeIN4cvc58internal12NodeTemplateILb1EEELb1EEEEE16_M_allocate_nodeIJRKS5_EEEPS6_DpOT_ = comdat any

$_ZNSt10_HashtableIN4cvc58internal12NodeTemplateILb1EEES3_SaIS3_ENSt8__detail9_IdentityESt8equal_toIS3_ESt4hashIS3_ENS5_18_Mod_range_hashingENS5_20_Default_ranged_hashENS5_20_Prime_rehash_policyENS5_17_Hashtable_traitsILb1ELb1ELb1EEEE13_M_rehash_auxEmSt17integral_constantIbLb1EE = comdat any

$_ZNSt10_HashtableIN4cvc58internal8TypeNodeES2_SaIS2_ENSt8__detail9_IdentityESt8equal_toIS2_ESt4hashIS2_ENS4_18_Mod_range_hashingENS4_20_Default_ranged_hashENS4_20_Prime_rehash_policyENS4_17_Hashtable_traitsILb1ELb1ELb1EEEE16_M_insert_uniqueIS2_S2_NS4_10_AllocNodeISaINS4_10_Hash_nodeIS2_Lb1EEEEEEEESt4pairINS4_14_Node_iteratorIS2_Lb1ELb1EEEbEOT_OT0_RKT1_ = comdat any

$_ZNSt10_HashtableIN4cvc58internal8TypeNodeES2_SaIS2_ENSt8__detail9_IdentityESt8equal_toIS2_ESt4hashIS2_ENS4_18_Mod_range_hashingENS4_20_Default_ranged_hashENS4_20_Prime_rehash_policyENS4_17_Hashtable_traitsILb1ELb1ELb1EEEE21_M_insert_unique_nodeEmmPNS4_10_Hash_nodeIS2_Lb1EEEm = comdat any

$_ZNSt10_HashtableIN4cvc58internal8TypeNodeES2_SaIS2_ENSt8__detail9_IdentityESt8equal_toIS2_ESt4hashIS2_ENS4_18_Mod_range_hashingENS4_20_Default_ranged_hashENS4_20_Prime_rehash_policyENS4_17_Hashtable_traitsILb1ELb1ELb1EEEE12_Scoped_nodeD2Ev = comdat any

$_ZNSt8__detail16_Hashtable_allocISaINS_10_Hash_nodeIN4cvc58internal8TypeNodeELb1EEEEE16_M_allocate_nodeIJS4_EEEPS5_DpOT_ = comdat any

$_ZNSt10_HashtableIN4cvc58internal8TypeNodeES2_SaIS2_ENSt8__detail9_IdentityESt8equal_toIS2_ESt4hashIS2_ENS4_18_Mod_range_hashingENS4_20_Default_ranged_hashENS4_20_Prime_rehash_policyENS4_17_Hashtable_traitsILb1ELb1ELb1EEEE13_M_rehash_auxEmSt17integral_constantIbLb1EE = comdat any

$_ZSt16__do_uninit_copyIN4cvc58internal4expr9NodeValue8iteratorINS1_12NodeTemplateILb1EEEEEPS6_ET0_T_SA_S9_ = comdat any

$_ZNSt6vectorIN4cvc58internal8TypeNodeESaIS2_EE17_M_realloc_insertIJS2_EEEvN9__gnu_cxx17__normal_iteratorIPS2_S4_EEDpOT_ = comdat any

$_ZNSt16allocator_traitsISaIN4cvc58internal8TypeNodeEEE7destroyIS2_EEvRS3_PT_ = comdat any

$_ZSt4swapIN4cvc58internal12NodeTemplateILb1EEEENSt9enable_ifIXsr6__and_ISt6__not_ISt15__is_tuple_likeIT_EESt21is_move_constructibleIS7_ESt18is_move_assignableIS7_EEE5valueEvE4typeERS7_SG_ = comdat any

$_ZNSt6vectorIN4cvc58internal12NodeTemplateILb1EEESaIS3_EE17_M_realloc_insertIJRKS3_EEEvN9__gnu_cxx17__normal_iteratorIPS3_S5_EEDpOT_ = comdat any

$_ZNSt16allocator_traitsISaIN4cvc58internal12NodeTemplateILb1EEEEE7destroyIS3_EEvRS4_PT_ = comdat any

$_ZNSt6vectorIN4cvc58internal12NodeTemplateILb1EEESaIS3_EE15_M_range_insertIN9__gnu_cxx17__normal_iteratorIPKS3_S5_EEEEvNS8_IPS3_S5_EET_SE_St20forward_iterator_tag = comdat any

$_ZSt16__do_uninit_copyISt13move_iteratorIPN4cvc58internal12NodeTemplateILb1EEEES5_ET0_T_S8_S7_ = comdat any

$_ZSt16__do_uninit_copyIN9__gnu_cxx17__normal_iteratorIPKN4cvc58internal12NodeTemplateILb1EEESt6vectorIS5_SaIS5_EEEEPS5_ET0_T_SE_SD_ = comdat any

$_ZNSt10_HashtableIN4cvc58internal8TypeNodeES2_SaIS2_ENSt8__detail9_IdentityESt8equal_toIS2_ESt4hashIS2_ENS4_18_Mod_range_hashingENS4_20_Default_ranged_hashENS4_20_Prime_rehash_policyENS4_17_Hashtable_traitsILb1ELb1ELb1EEEE16_M_insert_uniqueIRKS2_SI_NS4_10_AllocNodeISaINS4_10_Hash_nodeIS2_Lb1EEEEEEEESt4pairINS4_14_Node_iteratorIS2_Lb1ELb1EEEbEOT_OT0_RKT1_ = comdat any

$_ZNSt8__detail16_Hashtable_allocISaINS_10_Hash_nodeIN4cvc58internal8TypeNodeELb1EEEEE16_M_allocate_nodeIJRKS4_EEEPS5_DpOT_ = comdat any

$_ZNSt6vectorIN4cvc58internal8TypeNodeESaIS2_EE17_M_realloc_insertIJRKS2_EEEvN9__gnu_cxx17__normal_iteratorIPS2_S4_EEDpOT_ = comdat any

$_ZNSt8_Rb_treeIN4cvc58internal4kind6Kind_tESt4pairIKS3_NS1_12NodeTemplateILb1EEEESt10_Select1stIS8_ESt4lessIS3_ESaIS8_EE22_M_emplace_hint_uniqueIJRKSt21piecewise_construct_tSt5tupleIJRS5_EESJ_IJEEEEESt17_Rb_tree_iteratorIS8_ESt23_Rb_tree_const_iteratorIS8_EDpOT_ = comdat any

$_ZNSt8_Rb_treeIN4cvc58internal4kind6Kind_tESt4pairIKS3_NS1_12NodeTemplateILb1EEEESt10_Select1stIS8_ESt4lessIS3_ESaIS8_EE17_M_construct_nodeIJRKSt21piecewise_construct_tSt5tupleIJRS5_EESJ_IJEEEEEvPSt13_Rb_tree_nodeIS8_EDpOT_ = comdat any

$_ZNSt6vectorIN4cvc58internal12NodeTemplateILb1EEESaIS3_EE17_M_realloc_insertIJS3_EEEvN9__gnu_cxx17__normal_iteratorIPS3_S5_EEDpOT_ = comdat any

$_ZNSt6vectorIN4cvc58internal12NodeTemplateILb1EEESaIS3_EE8_M_eraseEN9__gnu_cxx17__normal_iteratorIPS3_S5_EES9_ = comdat any

$_ZNSt6vectorIN4cvc58internal8TypeNodeESaIS2_EE8_M_eraseEN9__gnu_cxx17__normal_iteratorIPS2_S4_EES8_ = comdat any

$_ZNSt8_Rb_treeINSt7__cxx1112basic_stringIcSt11char_traitsIcESaIcEEESt4pairIKS5_St6vectorImSaImEEESt10_Select1stISB_ESt4lessIS5_ESaISB_EE22_M_emplace_hint_uniqueIJRKSt21piecewise_construct_tSt5tupleIJRS7_EESM_IJEEEEESt17_Rb_tree_iteratorISB_ESt23_Rb_tree_const_iteratorISB_EDpOT_ = comdat any

$_ZNSt8_Rb_treeINSt7__cxx1112basic_stringIcSt11char_traitsIcESaIcEEESt4pairIKS5_St6vectorImSaImEEESt10_Select1stISB_ESt4lessIS5_ESaISB_EE29_M_get_insert_hint_unique_posESt23_Rb_tree_const_iteratorISB_ERS7_ = comdat any

$_ZNSt8_Rb_treeINSt7__cxx1112basic_stringIcSt11char_traitsIcESaIcEEESt4pairIKS5_St6vectorImSaImEEESt10_Select1stISB_ESt4lessIS5_ESaISB_EE10_Auto_nodeD2Ev = comdat any

$_ZNSt8_Rb_treeISt5tupleIJN4cvc58internal4kind6Kind_tENS2_8TypeNodeENSt7__cxx1112basic_stringIcSt11char_traitsIcESaIcEEEEESt4pairIKSC_NS2_12NodeTemplateILb1EEEESt10_Select1stISH_ESt4lessISC_ESaISH_EE4findERSE_ = comdat any

$_ZNSt8_Rb_treeIN4cvc58internal12NodeTemplateILb1EEESt4pairIKS3_NS1_4kind6Kind_tEESt10_Select1stIS8_ESt4lessIS3_ESaIS8_EE22_M_emplace_hint_uniqueIJRKSt21piecewise_construct_tSt5tupleIJRS5_EESJ_IJEEEEESt17_Rb_tree_iteratorIS8_ESt23_Rb_tree_const_iteratorIS8_EDpOT_ = comdat any

$_ZNSt8_Rb_treeIN4cvc58internal12NodeTemplateILb1EEESt4pairIKS3_NS1_4kind6Kind_tEESt10_Select1stIS8_ESt4lessIS3_ESaIS8_EE29_M_get_insert_hint_unique_posESt23_Rb_tree_const_iteratorIS8_ERS5_ = comdat any

$_ZNSt8_Rb_treeIN4cvc58internal12NodeTemplateILb1EEESt4pairIKS3_NS1_4kind6Kind_tEESt10_Select1stIS8_ESt4lessIS3_ESaIS8_EE10_Auto_nodeD2Ev = comdat any

$_ZNSt8_Rb_treeIN4cvc58internal12NodeTemplateILb1EEESt4pairIKS3_NS1_4kind6Kind_tEESt10_Select1stIS8_ESt4lessIS3_ESaIS8_EE17_M_construct_nodeIJRKSt21piecewise_construct_tSt5tupleIJRS5_EESJ_IJEEEEEvPSt13_Rb_tree_nodeIS8_EDpOT_ = comdat any

$_ZNSt8_Rb_treeISt5tupleIJN4cvc58internal4kind6Kind_tENS2_8TypeNodeENSt7__cxx1112basic_stringIcSt11char_traitsIcESaIcEEEEESt4pairIKSC_NS2_12NodeTemplateILb1EEEESt10_Select1stISH_ESt4lessISC_ESaISH_EE22_M_emplace_hint_uniqueIJRKSt21piecewise_construct_tS0_IJRSE_EES0_IJEEEEESt17_Rb_tree_iteratorISH_ESt23_Rb_tree_const_iteratorISH_EDpOT_ = comdat any

$_ZNSt8_Rb_treeISt5tupleIJN4cvc58internal4kind6Kind_tENS2_8TypeNodeENSt7__cxx1112basic_stringIcSt11char_traitsIcESaIcEEEEESt4pairIKSC_NS2_12NodeTemplateILb1EEEESt10_Select1stISH_ESt4lessISC_ESaISH_EE29_M_get_insert_hint_unique_posESt23_Rb_tree_const_iteratorISH_ERSE_ = comdat any

$_ZNSt8_Rb_treeISt5tupleIJN4cvc58internal4kind6Kind_tENS2_8TypeNodeENSt7__cxx1112basic_stringIcSt11char_traitsIcESaIcEEEEESt4pairIKSC_NS2_12NodeTemplateILb1EEEESt10_Select1stISH_ESt4lessISC_ESaISH_EE10_Auto_nodeD2Ev = comdat any

$_ZNSt4pairIKSt5tupleIJN4cvc58internal4kind6Kind_tENS2_8TypeNodeENSt7__cxx1112basic_stringIcSt11char_traitsIcESaIcEEEEENS2_12NodeTemplateILb1EEEEC2IJRSD_EJLm0EEJETpTnmJEEERS0_IJDpT_EERS0_IJDpT1_EESt12_Index_tupleIJXspT0_EEESR_IJXspT2_EEE = comdat any

$_ZNSt8_Rb_treeISt5tupleIJN4cvc58internal4kind6Kind_tENS2_8TypeNodeENSt7__cxx1112basic_stringIcSt11char_traitsIcESaIcEEEEESt4pairIKSC_NS2_12NodeTemplateILb1EEEESt10_Select1stISH_ESt4lessISC_ESaISH_EE24_M_get_insert_unique_posERSE_ = comdat any

$_ZNSt8_Rb_treeISt5tupleIJN4cvc58internal4kind6Kind_tENS2_8TypeNodeENSt7__cxx1112basic_stringIcSt11char_traitsIcESaIcEEEEESt4pairIKSC_NS2_12NodeTemplateILb1EEEESt10_Select1stISH_ESt4lessISC_ESaISH_EE14_M_insert_nodeEPSt18_Rb_tree_node_baseSP_PSt13_Rb_tree_nodeISH_E = comdat any

$_ZNSt6vectorIN4cvc58internal8TypeNodeESaIS2_EE17_M_default_appendEm = comdat any

$_ZNSt27__uninitialized_default_n_1ILb0EE18__uninit_default_nIPN4cvc58internal8TypeNodeEmEET_S6_T0_ = comdat any

$_ZNSt8_Rb_treeIN4cvc58internal12NodeTemplateILb1EEESt4pairIKS3_mESt10_Select1stIS6_ESt4lessIS3_ESaIS6_EE22_M_emplace_hint_uniqueIJRKSt21piecewise_construct_tSt5tupleIJRS5_EESH_IJEEEEESt17_Rb_tree_iteratorIS6_ESt23_Rb_tree_const_iteratorIS6_EDpOT_ = comdat any

$_ZNSt8_Rb_treeIN4cvc58internal12NodeTemplateILb1EEESt4pairIKS3_mESt10_Select1stIS6_ESt4lessIS3_ESaIS6_EE29_M_get_insert_hint_unique_posESt23_Rb_tree_const_iteratorIS6_ERS5_ = comdat any

$_ZNSt8_Rb_treeIN4cvc58internal12NodeTemplateILb1EEESt4pairIKS3_mESt10_Select1stIS6_ESt4lessIS3_ESaIS6_EE10_Auto_nodeD2Ev = comdat any

$_ZNSt8_Rb_treeIN4cvc58internal12NodeTemplateILb1EEESt4pairIKS3_mESt10_Select1stIS6_ESt4lessIS3_ESaIS6_EE17_M_construct_nodeIJRKSt21piecewise_construct_tSt5tupleIJRS5_EESH_IJEEEEEvPSt13_Rb_tree_nodeIS6_EDpOT_ = comdat any

$_ZSt19piecewise_construct = comdat any

$_ZZN4cvc58internal4expr9NodeValue4nullEvE6s_null = comdat any

$_ZGVZN4cvc58internal4expr9NodeValue4nullEvE6s_null = comdat any

@_ZStL8__ioinit = internal global %"class.std::ios_base::Init" zeroinitializer, align 1
@__dso_handle = external hidden global i8
@_ZTVN4cvc58internal5proof17LfscNodeConverterE = hidden unnamed_addr constant { [10 x ptr] } { [10 x ptr] [ptr null, ptr @_ZTIN4cvc58internal5proof17LfscNodeConverterE, ptr @_ZN4cvc58internal5proof17LfscNodeConverterD2Ev, ptr @_ZN4cvc58internal5proof17LfscNodeConverterD0Ev, ptr @_ZN4cvc58internal5proof17LfscNodeConverter14shouldTraverseENS0_12NodeTemplateILb1EEE, ptr @_ZN4cvc58internal5proof17LfscNodeConverter10preConvertENS0_12NodeTemplateILb1EEE, ptr @_ZN4cvc58internal5proof17LfscNodeConverter11postConvertENS0_12NodeTemplateILb1EEE, ptr @_ZN4cvc58internal13NodeConverter18postConvertUntypedENS0_12NodeTemplateILb1EEERKSt6vectorIS3_SaIS3_EEb, ptr @_ZN4cvc58internal5proof17LfscNodeConverter14preConvertTypeENS0_8TypeNodeE, ptr @_ZN4cvc58internal5proof17LfscNodeConverter15postConvertTypeENS0_8TypeNodeE] }, align 8
@.str = private unnamed_addr constant [6 x i8] c"arrow\00", align 1
@.str.1 = private unnamed_addr constant [9 x i8] c"sortType\00", align 1
@.str.2 = private unnamed_addr constant [6 x i8] c"Array\00", align 1
@.str.3 = private unnamed_addr constant [7 x i8] c"BitVec\00", align 1
@.str.4 = private unnamed_addr constant [14 x i8] c"FloatingPoint\00", align 1
@.str.5 = private unnamed_addr constant [4 x i8] c"Set\00", align 1
@.str.6 = private unnamed_addr constant [4 x i8] c"Bag\00", align 1
@.str.7 = private unnamed_addr constant [4 x i8] c"Seq\00", align 1
@.str.10 = private unnamed_addr constant [5 x i8] c"bvar\00", align 1
@.str.13 = private unnamed_addr constant [7 x i8] c"skolem\00", align 1
@.str.14 = private unnamed_addr constant [4 x i8] c"var\00", align 1
@.str.16 = private unnamed_addr constant [9 x i8] c"fmf.card\00", align 1
@.str.17 = private unnamed_addr constant [6 x i8] c"apply\00", align 1
@.str.18 = private unnamed_addr constant [4 x i8] c"int\00", align 1
@.str.19 = private unnamed_addr constant [2 x i8] c"~\00", align 1
@.str.20 = private unnamed_addr constant [5 x i8] c"real\00", align 1
@.str.21 = private unnamed_addr constant [11 x i8] c"__LFSC_TMP\00", align 1
@.str.22 = private unnamed_addr constant [2 x i8] c"/\00", align 1
@.str.23 = private unnamed_addr constant [3 x i8] c"bv\00", align 1
@.str.24 = private unnamed_addr constant [3 x i8] c"fp\00", align 1
@.str.25 = private unnamed_addr constant [9 x i8] c"ff.value\00", align 1
@.str.26 = private unnamed_addr constant [10 x i8] c"seq.empty\00", align 1
@.str.27 = private unnamed_addr constant [12 x i8] c"array_const\00", align 1
@.str.28 = private unnamed_addr constant [10 x i8] c"set.empty\00", align 1
@.str.29 = private unnamed_addr constant [13 x i8] c"set.universe\00", align 1
@.str.30 = private unnamed_addr constant [10 x i8] c"bag.empty\00", align 1
@.str.31 = private unnamed_addr constant [4 x i8] c"bbT\00", align 1
@.str.32 = private unnamed_addr constant [8 x i8] c"sep.nil\00", align 1
@.str.35 = private unnamed_addr constant [3 x i8] c"a.\00", align 1
@.str.38 = private unnamed_addr constant [7 x i8] c"Tuple_\00", align 1
@.str.39 = private unnamed_addr constant [10 x i8] c"UnitTuple\00", align 1
@__PRETTY_FUNCTION__._ZN4cvc58internal5proof17LfscNodeConverter15postConvertTypeENS0_8TypeNodeE = private unnamed_addr constant [85 x i8] c"virtual TypeNode cvc5::internal::proof::LfscNodeConverter::postConvertType(TypeNode)\00", align 1
@.str.40 = private unnamed_addr constant [126 x i8] c"generated/home/dtcxzyw/WorkSpace/Projects/compilers/llvm-opt-benchmark/bench/cvc5/cvc5/src/proof/lfsc/lfsc_node_converter.cpp\00", align 1
@.str.41 = private unnamed_addr constant [17 x i8] c"Check failure\0A\0A \00", align 1
@.str.42 = private unnamed_addr constant [6 x i8] c"false\00", align 1
@.str.43 = private unnamed_addr constant [2 x i8] c"\0A\00", align 1
@.str.45 = private unnamed_addr constant [4 x i8] c"cvc\00", align 1
@.str.46 = private unnamed_addr constant [2 x i8] c".\00", align 1
@.str.47 = private unnamed_addr constant [9 x i8] c"() \09\0A\0C\\;\00", align 1
@.str.48 = private unnamed_addr constant [3 x i8] c"\\x\00", align 1
@.str.49 = private unnamed_addr constant [4 x i8] c"sel\00", align 1
@.str.50 = private unnamed_addr constant [21 x i8] c"skolem_re_unfold_pos\00", align 1
@__PRETTY_FUNCTION__._ZNK4cvc58internal5proof17LfscNodeConverter10typeAsNodeENS0_8TypeNodeE = private unnamed_addr constant [74 x i8] c"Node cvc5::internal::proof::LfscNodeConverter::typeAsNode(TypeNode) const\00", align 1
@.str.51 = private unnamed_addr constant [25 x i8] c"it != d_typeAsNode.end()\00", align 1
@.str.52 = private unnamed_addr constant [20 x i8] c"Missing typeAsNode \00", align 1
@.str.53 = private unnamed_addr constant [9 x i8] c"emptystr\00", align 1
@.str.54 = private unnamed_addr constant [5 x i8] c"char\00", align 1
@.str.55 = private unnamed_addr constant [4 x i8] c"bvn\00", align 1
@.str.56 = private unnamed_addr constant [3 x i8] c"b0\00", align 1
@.str.57 = private unnamed_addr constant [3 x i8] c"b1\00", align 1
@.str.58 = private unnamed_addr constant [4 x i8] c"bvc\00", align 1
@.str.59 = private unnamed_addr constant [9 x i8] c"re.empty\00", align 1
@.str.60 = private unnamed_addr constant [8 x i8] c"emptybv\00", align 1
@.str.62 = private unnamed_addr constant [3 x i8] c"f_\00", align 1
@.str.63 = private unnamed_addr constant [9 x i8] c"to_fp_fp\00", align 1
@.str.64 = private unnamed_addr constant [14 x i8] c"to_fp_ieee_bv\00", align 1
@.str.65 = private unnamed_addr constant [10 x i8] c"to_fp_sbv\00", align 1
@.str.66 = private unnamed_addr constant [11 x i8] c"to_fp_real\00", align 1
@.str.69 = private unnamed_addr constant [2 x i8] c"u\00", align 1
@.str.70 = private unnamed_addr constant [7 x i8] c"_total\00", align 1
@_ZTVN10__cxxabiv120__si_class_type_infoE = external global [0 x ptr]
@_ZTSN4cvc58internal5proof17LfscNodeConverterE = hidden constant [42 x i8] c"N4cvc58internal5proof17LfscNodeConverterE\00", align 1
@_ZTIN4cvc58internal13NodeConverterE = external constant ptr
@_ZTIN4cvc58internal5proof17LfscNodeConverterE = hidden constant { ptr, ptr, ptr } { ptr getelementptr inbounds (ptr, ptr @_ZTVN10__cxxabiv120__si_class_type_infoE, i64 2), ptr @_ZTSN4cvc58internal5proof17LfscNodeConverterE, ptr @_ZTIN4cvc58internal13NodeConverterE }, align 8
@_ZN4cvc58internal12NodeTemplateILb1EE6s_nullE = linkonce_odr hidden global %"class.cvc5::internal::NodeTemplate" zeroinitializer, comdat, align 8
@_ZGVN4cvc58internal12NodeTemplateILb1EE6s_nullE = linkonce_odr hidden local_unnamed_addr global i64 0, comdat($_ZN4cvc58internal12NodeTemplateILb1EE6s_nullE), align 8
@_ZTVN4cvc58internal13NodeConverterE = external unnamed_addr constant { [10 x ptr] }, align 8
@.str.72 = private unnamed_addr constant [50 x i8] c"basic_string: construction from null is not valid\00", align 1
@.str.73 = private unnamed_addr constant [49 x i8] c"cannot create std::vector larger than max_size()\00", align 1
@_ZSt19piecewise_construct = linkonce_odr constant %"struct.std::piecewise_construct_t" zeroinitializer, comdat, align 1
@_ZTIN4cvc58internal28TypeCheckingExceptionPrivateE = external constant ptr
@.str.74 = private unnamed_addr constant [26 x i8] c"vector::_M_realloc_insert\00", align 1
@.str.75 = private unnamed_addr constant [24 x i8] c"vector::_M_range_insert\00", align 1
@_ZZN4cvc58internal4expr9NodeValue4nullEvE6s_null = linkonce_odr local_unnamed_addr global ptr null, comdat, align 8
@_ZGVZN4cvc58internal4expr9NodeValue4nullEvE6s_null = linkonce_odr global i64 0, comdat, align 8
@.str.76 = private unnamed_addr constant [26 x i8] c"vector::_M_default_append\00", align 1
@llvm.global_ctors = appending global [2 x { i32, ptr, ptr }] [{ i32, ptr, ptr } { i32 65535, ptr @__cxx_global_var_init.71, ptr @_ZN4cvc58internal12NodeTemplateILb1EE6s_nullE }, { i32, ptr, ptr } { i32 65535, ptr @_GLOBAL__sub_I_lfsc_node_converter.cpp, ptr null }]
@llvm.used = appending global [1 x ptr] [ptr @_ZN4cvc58internal12NodeTemplateILb1EE6s_nullE], section "llvm.metadata"
@switch.table._ZN4cvc58internal5proof17LfscNodeConverter17getOperatorOfTermENS0_12NodeTemplateILb1EEEb = private unnamed_addr constant [7 x ptr] [ptr @.str.64, ptr @.str.63, ptr @.str.63, ptr @.str.63, ptr @.str.66, ptr @.str.63, ptr @.str.65], align 8

@_ZN4cvc58internal5proof17LfscNodeConverterC1Ev = hidden unnamed_addr alias void (ptr), ptr @_ZN4cvc58internal5proof17LfscNodeConverterC2Ev

declare void @_ZNSt8ios_base4InitC1Ev(ptr noundef nonnull align 1 dereferenceable(1)) unnamed_addr #0

; Function Attrs: nounwind
declare void @_ZNSt8ios_base4InitD1Ev(ptr noundef nonnull align 1 dereferenceable(1)) unnamed_addr #1

; Function Attrs: nofree nounwind
declare i32 @__cxa_atexit(ptr, ptr, ptr) local_unnamed_addr #2

; Function Attrs: mustprogress uwtable
define hidden void @_ZN4cvc58internal5proof17LfscNodeConverterC2Ev(ptr noundef nonnull align 8 dereferenceable(760) %this) unnamed_addr #3 align 2 personality ptr @__gxx_personality_v0 {
entry:
  %ref.tmp9.i978 = alloca %"class.std::tuple.354", align 8
  %ref.tmp10.i979 = alloca %"class.std::tuple.348", align 1
  %ref.tmp9.i874 = alloca %"class.std::tuple.354", align 8
  %ref.tmp10.i875 = alloca %"class.std::tuple.348", align 1
  %ref.tmp9.i770 = alloca %"class.std::tuple.354", align 8
  %ref.tmp10.i771 = alloca %"class.std::tuple.348", align 1
  %ref.tmp9.i666 = alloca %"class.std::tuple.354", align 8
  %ref.tmp10.i667 = alloca %"class.std::tuple.348", align 1
  %ref.tmp9.i482 = alloca %"class.std::tuple.354", align 8
  %ref.tmp10.i483 = alloca %"class.std::tuple.348", align 1
  %ref.tmp9.i383 = alloca %"class.std::tuple.354", align 8
  %ref.tmp10.i384 = alloca %"class.std::tuple.348", align 1
  %ref.tmp9.i = alloca %"class.std::tuple.345", align 8
  %ref.tmp10.i = alloca %"class.std::tuple.348", align 1
  %ref.tmp = alloca %"class.cvc5::internal::TypeNode", align 8
  %ref.tmp6 = alloca %"class.std::__cxx11::basic_string", align 8
  %ref.tmp7 = alloca %"class.std::allocator.160", align 1
  %ref.tmp17 = alloca %"class.cvc5::internal::TypeNode", align 8
  %ref.tmp18 = alloca %"class.std::__cxx11::basic_string", align 8
  %ref.tmp19 = alloca %"class.std::allocator.160", align 1
  %anfType = alloca %"class.cvc5::internal::TypeNode", align 8
  %ref.tmp31 = alloca %"class.std::vector.163", align 8
  %ref.tmp32 = alloca [2 x %"class.cvc5::internal::TypeNode"], align 8
  %ref.tmp60 = alloca %"class.cvc5::internal::NodeTemplate", align 8
  %agg.tmp61 = alloca %"class.cvc5::internal::TypeNode", align 8
  %ref.tmp64 = alloca %"class.std::__cxx11::basic_string", align 8
  %ref.tmp65 = alloca %"class.std::allocator.160", align 1
  %intType = alloca %"class.cvc5::internal::TypeNode", align 8
  %arrType = alloca %"class.cvc5::internal::TypeNode", align 8
  %ref.tmp82 = alloca %"class.std::vector.163", align 8
  %ref.tmp84 = alloca [2 x %"class.cvc5::internal::TypeNode"], align 8
  %ref.tmp124 = alloca %"class.cvc5::internal::NodeTemplate", align 8
  %agg.tmp125 = alloca %"class.cvc5::internal::TypeNode", align 8
  %ref.tmp128 = alloca %"class.std::__cxx11::basic_string", align 8
  %ref.tmp129 = alloca %"class.std::allocator.160", align 1
  %ref.tmp135 = alloca i32, align 4
  %bvType = alloca %"class.cvc5::internal::TypeNode", align 8
  %ref.tmp147 = alloca %"class.cvc5::internal::NodeTemplate", align 8
  %agg.tmp148 = alloca %"class.cvc5::internal::TypeNode", align 8
  %ref.tmp151 = alloca %"class.std::__cxx11::basic_string", align 8
  %ref.tmp152 = alloca %"class.std::allocator.160", align 1
  %ref.tmp158 = alloca i32, align 4
  %fpType = alloca %"class.cvc5::internal::TypeNode", align 8
  %ref.tmp168 = alloca %"class.std::vector.163", align 8
  %ref.tmp170 = alloca [2 x %"class.cvc5::internal::TypeNode"], align 8
  %ref.tmp208 = alloca %"class.cvc5::internal::NodeTemplate", align 8
  %agg.tmp209 = alloca %"class.cvc5::internal::TypeNode", align 8
  %ref.tmp212 = alloca %"class.std::__cxx11::basic_string", align 8
  %ref.tmp213 = alloca %"class.std::allocator.160", align 1
  %ref.tmp219 = alloca i32, align 4
  %setType = alloca %"class.cvc5::internal::TypeNode", align 8
  %ref.tmp232 = alloca %"class.cvc5::internal::NodeTemplate", align 8
  %agg.tmp233 = alloca %"class.cvc5::internal::TypeNode", align 8
  %ref.tmp236 = alloca %"class.std::__cxx11::basic_string", align 8
  %ref.tmp237 = alloca %"class.std::allocator.160", align 1
  %ref.tmp243 = alloca i32, align 4
  %ref.tmp253 = alloca %"class.cvc5::internal::NodeTemplate", align 8
  %agg.tmp254 = alloca %"class.cvc5::internal::TypeNode", align 8
  %ref.tmp256 = alloca %"class.std::__cxx11::basic_string", align 8
  %ref.tmp257 = alloca %"class.std::allocator.160", align 1
  %ref.tmp263 = alloca i32, align 4
  %ref.tmp273 = alloca %"class.cvc5::internal::NodeTemplate", align 8
  %agg.tmp274 = alloca %"class.cvc5::internal::TypeNode", align 8
  %ref.tmp276 = alloca %"class.std::__cxx11::basic_string", align 8
  %ref.tmp277 = alloca %"class.std::allocator.160", align 1
  %ref.tmp283 = alloca i32, align 4
  tail call void @_ZN4cvc58internal13NodeConverterC2Eb(ptr noundef nonnull align 8 dereferenceable(233) %this, i1 noundef zeroext true)
  store ptr getelementptr inbounds ({ [10 x ptr] }, ptr @_ZTVN4cvc58internal5proof17LfscNodeConverterE, i64 0, inrange i32 0, i64 2), ptr %this, align 8
  %0 = getelementptr inbounds %"class.cvc5::internal::proof::LfscNodeConverter", ptr %this, i64 0, i32 1, i32 0, i32 0, i32 1
  store i32 0, ptr %0, align 8
  %_M_parent.i.i.i.i.i = getelementptr inbounds %"class.cvc5::internal::proof::LfscNodeConverter", ptr %this, i64 0, i32 1, i32 0, i32 0, i32 1, i32 0, i32 1
  store ptr null, ptr %_M_parent.i.i.i.i.i, align 8
  %_M_left.i.i.i.i.i = getelementptr inbounds %"class.cvc5::internal::proof::LfscNodeConverter", ptr %this, i64 0, i32 1, i32 0, i32 0, i32 1, i32 0, i32 2
  store ptr %0, ptr %_M_left.i.i.i.i.i, align 8
  %_M_right.i.i.i.i.i = getelementptr inbounds %"class.cvc5::internal::proof::LfscNodeConverter", ptr %this, i64 0, i32 1, i32 0, i32 0, i32 1, i32 0, i32 3
  store ptr %0, ptr %_M_right.i.i.i.i.i, align 8
  %_M_node_count.i.i.i.i.i = getelementptr inbounds %"class.cvc5::internal::proof::LfscNodeConverter", ptr %this, i64 0, i32 1, i32 0, i32 0, i32 1, i32 1
  store i64 0, ptr %_M_node_count.i.i.i.i.i, align 8
  %d_symbols = getelementptr inbounds %"class.cvc5::internal::proof::LfscNodeConverter", ptr %this, i64 0, i32 2
  %_M_single_bucket.i.i = getelementptr inbounds %"class.cvc5::internal::proof::LfscNodeConverter", ptr %this, i64 0, i32 2, i32 0, i32 5
  store ptr %_M_single_bucket.i.i, ptr %d_symbols, align 8
  %_M_bucket_count.i.i = getelementptr inbounds %"class.cvc5::internal::proof::LfscNodeConverter", ptr %this, i64 0, i32 2, i32 0, i32 1
  store i64 1, ptr %_M_bucket_count.i.i, align 8
  %_M_before_begin.i.i = getelementptr inbounds %"class.cvc5::internal::proof::LfscNodeConverter", ptr %this, i64 0, i32 2, i32 0, i32 2
  %_M_rehash_policy.i.i = getelementptr inbounds %"class.cvc5::internal::proof::LfscNodeConverter", ptr %this, i64 0, i32 2, i32 0, i32 4
  tail call void @llvm.memset.p0.i64(ptr noundef nonnull align 8 dereferenceable(16) %_M_before_begin.i.i, i8 0, i64 16, i1 false)
  store float 1.000000e+00, ptr %_M_rehash_policy.i.i, align 8
  %_M_next_resize.i.i.i = getelementptr inbounds %"class.cvc5::internal::proof::LfscNodeConverter", ptr %this, i64 0, i32 2, i32 0, i32 4, i32 1
  tail call void @llvm.memset.p0.i64(ptr noundef nonnull align 8 dereferenceable(16) %_M_next_resize.i.i.i, i8 0, i64 16, i1 false)
  %1 = getelementptr inbounds %"class.cvc5::internal::proof::LfscNodeConverter", ptr %this, i64 0, i32 3, i32 0, i32 0, i32 1
  store i32 0, ptr %1, align 8
  %_M_parent.i.i.i.i.i49 = getelementptr inbounds %"class.cvc5::internal::proof::LfscNodeConverter", ptr %this, i64 0, i32 3, i32 0, i32 0, i32 1, i32 0, i32 1
  store ptr null, ptr %_M_parent.i.i.i.i.i49, align 8
  %_M_left.i.i.i.i.i50 = getelementptr inbounds %"class.cvc5::internal::proof::LfscNodeConverter", ptr %this, i64 0, i32 3, i32 0, i32 0, i32 1, i32 0, i32 2
  store ptr %1, ptr %_M_left.i.i.i.i.i50, align 8
  %_M_right.i.i.i.i.i51 = getelementptr inbounds %"class.cvc5::internal::proof::LfscNodeConverter", ptr %this, i64 0, i32 3, i32 0, i32 0, i32 1, i32 0, i32 3
  store ptr %1, ptr %_M_right.i.i.i.i.i51, align 8
  %_M_node_count.i.i.i.i.i52 = getelementptr inbounds %"class.cvc5::internal::proof::LfscNodeConverter", ptr %this, i64 0, i32 3, i32 0, i32 0, i32 1, i32 1
  store i64 0, ptr %_M_node_count.i.i.i.i.i52, align 8
  %2 = getelementptr inbounds %"class.cvc5::internal::proof::LfscNodeConverter", ptr %this, i64 0, i32 4, i32 0, i32 0, i32 1
  store i32 0, ptr %2, align 8
  %_M_parent.i.i.i.i.i53 = getelementptr inbounds %"class.cvc5::internal::proof::LfscNodeConverter", ptr %this, i64 0, i32 4, i32 0, i32 0, i32 1, i32 0, i32 1
  store ptr null, ptr %_M_parent.i.i.i.i.i53, align 8
  %_M_left.i.i.i.i.i54 = getelementptr inbounds %"class.cvc5::internal::proof::LfscNodeConverter", ptr %this, i64 0, i32 4, i32 0, i32 0, i32 1, i32 0, i32 2
  store ptr %2, ptr %_M_left.i.i.i.i.i54, align 8
  %_M_right.i.i.i.i.i55 = getelementptr inbounds %"class.cvc5::internal::proof::LfscNodeConverter", ptr %this, i64 0, i32 4, i32 0, i32 0, i32 1, i32 0, i32 3
  store ptr %2, ptr %_M_right.i.i.i.i.i55, align 8
  %_M_node_count.i.i.i.i.i56 = getelementptr inbounds %"class.cvc5::internal::proof::LfscNodeConverter", ptr %this, i64 0, i32 4, i32 0, i32 0, i32 1, i32 1
  store i64 0, ptr %_M_node_count.i.i.i.i.i56, align 8
  %d_arrow = getelementptr inbounds %"class.cvc5::internal::proof::LfscNodeConverter", ptr %this, i64 0, i32 5
  %3 = load atomic i8, ptr @_ZGVZN4cvc58internal4expr9NodeValue4nullEvE6s_null acquire, align 8
  %guard.uninitialized.i.i = icmp eq i8 %3, 0
  br i1 %guard.uninitialized.i.i, label %init.check.i.i, label %invoke.cont, !prof !4

init.check.i.i:                                   ; preds = %entry
  %4 = tail call i32 @__cxa_guard_acquire(ptr nonnull @_ZGVZN4cvc58internal4expr9NodeValue4nullEvE6s_null) #21
  %tobool.not.i.i = icmp eq i32 %4, 0
  br i1 %tobool.not.i.i, label %invoke.cont, label %init.i.i

init.i.i:                                         ; preds = %init.check.i.i
  %call.i.i = invoke noalias noundef nonnull dereferenceable(16) ptr @_Znwm(i64 noundef 16) #22
          to label %invoke.cont.i.i unwind label %lpad.i.i

invoke.cont.i.i:                                  ; preds = %init.i.i
  store i64 1152920405095219200, ptr %call.i.i, align 8
  %d_kind.i.i.i = getelementptr inbounds %"class.cvc5::internal::expr::NodeValue", ptr %call.i.i, i64 0, i32 1
  store i16 0, ptr %d_kind.i.i.i, align 8
  %d_nchildren.i.i.i = getelementptr inbounds %"class.cvc5::internal::expr::NodeValue", ptr %call.i.i, i64 0, i32 2
  store i32 0, ptr %d_nchildren.i.i.i, align 4
  store ptr %call.i.i, ptr @_ZZN4cvc58internal4expr9NodeValue4nullEvE6s_null, align 8
  tail call void @__cxa_guard_release(ptr nonnull @_ZGVZN4cvc58internal4expr9NodeValue4nullEvE6s_null) #21
  br label %invoke.cont

lpad.i.i:                                         ; preds = %init.i.i
  %5 = landingpad { ptr, i32 }
          cleanup
  tail call void @__cxa_guard_abort(ptr nonnull @_ZGVZN4cvc58internal4expr9NodeValue4nullEvE6s_null) #21
  br label %ehcleanup307

invoke.cont:                                      ; preds = %invoke.cont.i.i, %init.check.i.i, %entry
  %6 = load ptr, ptr @_ZZN4cvc58internal4expr9NodeValue4nullEvE6s_null, align 8
  store ptr %6, ptr %d_arrow, align 8
  %d_sortType = getelementptr inbounds %"class.cvc5::internal::proof::LfscNodeConverter", ptr %this, i64 0, i32 6
  %7 = load atomic i8, ptr @_ZGVZN4cvc58internal4expr9NodeValue4nullEvE6s_null acquire, align 8
  %guard.uninitialized.i.i57 = icmp eq i8 %7, 0
  br i1 %guard.uninitialized.i.i57, label %init.check.i.i58, label %invoke.cont3, !prof !4

init.check.i.i58:                                 ; preds = %invoke.cont
  %8 = tail call i32 @__cxa_guard_acquire(ptr nonnull @_ZGVZN4cvc58internal4expr9NodeValue4nullEvE6s_null) #21
  %tobool.not.i.i59 = icmp eq i32 %8, 0
  br i1 %tobool.not.i.i59, label %invoke.cont3, label %init.i.i60

init.i.i60:                                       ; preds = %init.check.i.i58
  %call.i.i61 = invoke noalias noundef nonnull dereferenceable(16) ptr @_Znwm(i64 noundef 16) #22
          to label %invoke.cont.i.i63 unwind label %lpad.i.i62

invoke.cont.i.i63:                                ; preds = %init.i.i60
  store i64 1152920405095219200, ptr %call.i.i61, align 8
  %d_kind.i.i.i64 = getelementptr inbounds %"class.cvc5::internal::expr::NodeValue", ptr %call.i.i61, i64 0, i32 1
  store i16 0, ptr %d_kind.i.i.i64, align 8
  %d_nchildren.i.i.i65 = getelementptr inbounds %"class.cvc5::internal::expr::NodeValue", ptr %call.i.i61, i64 0, i32 2
  store i32 0, ptr %d_nchildren.i.i.i65, align 4
  store ptr %call.i.i61, ptr @_ZZN4cvc58internal4expr9NodeValue4nullEvE6s_null, align 8
  tail call void @__cxa_guard_release(ptr nonnull @_ZGVZN4cvc58internal4expr9NodeValue4nullEvE6s_null) #21
  br label %invoke.cont3

lpad.i.i62:                                       ; preds = %init.i.i60
  %9 = landingpad { ptr, i32 }
          cleanup
  tail call void @__cxa_guard_abort(ptr nonnull @_ZGVZN4cvc58internal4expr9NodeValue4nullEvE6s_null) #21
  br label %ehcleanup306

invoke.cont3:                                     ; preds = %invoke.cont.i.i63, %init.check.i.i58, %invoke.cont
  %10 = load ptr, ptr @_ZZN4cvc58internal4expr9NodeValue4nullEvE6s_null, align 8
  store ptr %10, ptr %d_sortType, align 8
  %d_fvarIndex = getelementptr inbounds %"class.cvc5::internal::proof::LfscNodeConverter", ptr %this, i64 0, i32 7
  %11 = getelementptr inbounds %"class.cvc5::internal::proof::LfscNodeConverter", ptr %this, i64 0, i32 7, i32 0, i32 0, i32 1
  store i32 0, ptr %11, align 8
  %_M_parent.i.i.i.i.i68 = getelementptr inbounds %"class.cvc5::internal::proof::LfscNodeConverter", ptr %this, i64 0, i32 7, i32 0, i32 0, i32 1, i32 0, i32 1
  store ptr null, ptr %_M_parent.i.i.i.i.i68, align 8
  %_M_left.i.i.i.i.i69 = getelementptr inbounds %"class.cvc5::internal::proof::LfscNodeConverter", ptr %this, i64 0, i32 7, i32 0, i32 0, i32 1, i32 0, i32 2
  store ptr %11, ptr %_M_left.i.i.i.i.i69, align 8
  %_M_right.i.i.i.i.i70 = getelementptr inbounds %"class.cvc5::internal::proof::LfscNodeConverter", ptr %this, i64 0, i32 7, i32 0, i32 0, i32 1, i32 0, i32 3
  store ptr %11, ptr %_M_right.i.i.i.i.i70, align 8
  %_M_node_count.i.i.i.i.i71 = getelementptr inbounds %"class.cvc5::internal::proof::LfscNodeConverter", ptr %this, i64 0, i32 7, i32 0, i32 0, i32 1, i32 1
  store i64 0, ptr %_M_node_count.i.i.i.i.i71, align 8
  %d_bvarIndex = getelementptr inbounds %"class.cvc5::internal::proof::LfscNodeConverter", ptr %this, i64 0, i32 8
  %12 = getelementptr inbounds %"class.cvc5::internal::proof::LfscNodeConverter", ptr %this, i64 0, i32 8, i32 0, i32 0, i32 1
  store i32 0, ptr %12, align 8
  %_M_parent.i.i.i.i.i72 = getelementptr inbounds %"class.cvc5::internal::proof::LfscNodeConverter", ptr %this, i64 0, i32 8, i32 0, i32 0, i32 1, i32 0, i32 1
  store ptr null, ptr %_M_parent.i.i.i.i.i72, align 8
  %_M_left.i.i.i.i.i73 = getelementptr inbounds %"class.cvc5::internal::proof::LfscNodeConverter", ptr %this, i64 0, i32 8, i32 0, i32 0, i32 1, i32 0, i32 2
  store ptr %12, ptr %_M_left.i.i.i.i.i73, align 8
  %_M_right.i.i.i.i.i74 = getelementptr inbounds %"class.cvc5::internal::proof::LfscNodeConverter", ptr %this, i64 0, i32 8, i32 0, i32 0, i32 1, i32 0, i32 3
  store ptr %12, ptr %_M_right.i.i.i.i.i74, align 8
  %_M_node_count.i.i.i.i.i75 = getelementptr inbounds %"class.cvc5::internal::proof::LfscNodeConverter", ptr %this, i64 0, i32 8, i32 0, i32 0, i32 1, i32 1
  store i64 0, ptr %_M_node_count.i.i.i.i.i75, align 8
  %d_typeAsNode = getelementptr inbounds %"class.cvc5::internal::proof::LfscNodeConverter", ptr %this, i64 0, i32 9
  %13 = getelementptr inbounds %"class.cvc5::internal::proof::LfscNodeConverter", ptr %this, i64 0, i32 9, i32 0, i32 0, i32 1
  store i32 0, ptr %13, align 8
  %_M_parent.i.i.i.i.i76 = getelementptr inbounds %"class.cvc5::internal::proof::LfscNodeConverter", ptr %this, i64 0, i32 9, i32 0, i32 0, i32 1, i32 0, i32 1
  store ptr null, ptr %_M_parent.i.i.i.i.i76, align 8
  %_M_left.i.i.i.i.i77 = getelementptr inbounds %"class.cvc5::internal::proof::LfscNodeConverter", ptr %this, i64 0, i32 9, i32 0, i32 0, i32 1, i32 0, i32 2
  store ptr %13, ptr %_M_left.i.i.i.i.i77, align 8
  %_M_right.i.i.i.i.i78 = getelementptr inbounds %"class.cvc5::internal::proof::LfscNodeConverter", ptr %this, i64 0, i32 9, i32 0, i32 0, i32 1, i32 0, i32 3
  store ptr %13, ptr %_M_right.i.i.i.i.i78, align 8
  %_M_node_count.i.i.i.i.i79 = getelementptr inbounds %"class.cvc5::internal::proof::LfscNodeConverter", ptr %this, i64 0, i32 9, i32 0, i32 0, i32 1, i32 1
  store i64 0, ptr %_M_node_count.i.i.i.i.i79, align 8
  %d_typeKindToNodeCons = getelementptr inbounds %"class.cvc5::internal::proof::LfscNodeConverter", ptr %this, i64 0, i32 10
  %14 = getelementptr inbounds %"class.cvc5::internal::proof::LfscNodeConverter", ptr %this, i64 0, i32 10, i32 0, i32 0, i32 1
  store i32 0, ptr %14, align 8
  %_M_parent.i.i.i.i.i80 = getelementptr inbounds %"class.cvc5::internal::proof::LfscNodeConverter", ptr %this, i64 0, i32 10, i32 0, i32 0, i32 1, i32 0, i32 1
  store ptr null, ptr %_M_parent.i.i.i.i.i80, align 8
  %_M_left.i.i.i.i.i81 = getelementptr inbounds %"class.cvc5::internal::proof::LfscNodeConverter", ptr %this, i64 0, i32 10, i32 0, i32 0, i32 1, i32 0, i32 2
  store ptr %14, ptr %_M_left.i.i.i.i.i81, align 8
  %_M_right.i.i.i.i.i82 = getelementptr inbounds %"class.cvc5::internal::proof::LfscNodeConverter", ptr %this, i64 0, i32 10, i32 0, i32 0, i32 1, i32 0, i32 3
  store ptr %14, ptr %_M_right.i.i.i.i.i82, align 8
  %_M_node_count.i.i.i.i.i83 = getelementptr inbounds %"class.cvc5::internal::proof::LfscNodeConverter", ptr %this, i64 0, i32 10, i32 0, i32 0, i32 1, i32 1
  store i64 0, ptr %_M_node_count.i.i.i.i.i83, align 8
  %d_declVars = getelementptr inbounds %"class.cvc5::internal::proof::LfscNodeConverter", ptr %this, i64 0, i32 11
  %_M_single_bucket.i.i84 = getelementptr inbounds %"class.cvc5::internal::proof::LfscNodeConverter", ptr %this, i64 0, i32 11, i32 0, i32 5
  store ptr %_M_single_bucket.i.i84, ptr %d_declVars, align 8
  %_M_bucket_count.i.i85 = getelementptr inbounds %"class.cvc5::internal::proof::LfscNodeConverter", ptr %this, i64 0, i32 11, i32 0, i32 1
  store i64 1, ptr %_M_bucket_count.i.i85, align 8
  %_M_before_begin.i.i86 = getelementptr inbounds %"class.cvc5::internal::proof::LfscNodeConverter", ptr %this, i64 0, i32 11, i32 0, i32 2
  %_M_rehash_policy.i.i87 = getelementptr inbounds %"class.cvc5::internal::proof::LfscNodeConverter", ptr %this, i64 0, i32 11, i32 0, i32 4
  tail call void @llvm.memset.p0.i64(ptr noundef nonnull align 8 dereferenceable(16) %_M_before_begin.i.i86, i8 0, i64 16, i1 false)
  store float 1.000000e+00, ptr %_M_rehash_policy.i.i87, align 8
  %_M_next_resize.i.i.i88 = getelementptr inbounds %"class.cvc5::internal::proof::LfscNodeConverter", ptr %this, i64 0, i32 11, i32 0, i32 4, i32 1
  tail call void @llvm.memset.p0.i64(ptr noundef nonnull align 8 dereferenceable(16) %_M_next_resize.i.i.i88, i8 0, i64 16, i1 false)
  %d_declTypes = getelementptr inbounds %"class.cvc5::internal::proof::LfscNodeConverter", ptr %this, i64 0, i32 12
  %_M_single_bucket.i.i89 = getelementptr inbounds %"class.cvc5::internal::proof::LfscNodeConverter", ptr %this, i64 0, i32 12, i32 0, i32 5
  store ptr %_M_single_bucket.i.i89, ptr %d_declTypes, align 8
  %_M_bucket_count.i.i90 = getelementptr inbounds %"class.cvc5::internal::proof::LfscNodeConverter", ptr %this, i64 0, i32 12, i32 0, i32 1
  store i64 1, ptr %_M_bucket_count.i.i90, align 8
  %_M_before_begin.i.i91 = getelementptr inbounds %"class.cvc5::internal::proof::LfscNodeConverter", ptr %this, i64 0, i32 12, i32 0, i32 2
  %_M_rehash_policy.i.i92 = getelementptr inbounds %"class.cvc5::internal::proof::LfscNodeConverter", ptr %this, i64 0, i32 12, i32 0, i32 4
  tail call void @llvm.memset.p0.i64(ptr noundef nonnull align 8 dereferenceable(16) %_M_before_begin.i.i91, i8 0, i64 16, i1 false)
  store float 1.000000e+00, ptr %_M_rehash_policy.i.i92, align 8
  %_M_next_resize.i.i.i93 = getelementptr inbounds %"class.cvc5::internal::proof::LfscNodeConverter", ptr %this, i64 0, i32 12, i32 0, i32 4, i32 1
  tail call void @llvm.memset.p0.i64(ptr noundef nonnull align 8 dereferenceable(16) %_M_next_resize.i.i.i93, i8 0, i64 16, i1 false)
  %call = invoke noundef ptr @_ZN4cvc58internal11NodeManager9currentNMEv()
          to label %invoke.cont5 unwind label %lpad4

invoke.cont5:                                     ; preds = %invoke.cont3
  call void @_ZNSaIcEC1Ev(ptr noundef nonnull align 1 dereferenceable(1) %ref.tmp7) #21
  %call.i95 = invoke noundef ptr @_ZNSt7__cxx1112basic_stringIcSt11char_traitsIcESaIcEE13_M_local_dataEv(ptr noundef nonnull align 8 dereferenceable(32) %ref.tmp6)
          to label %call.i.noexc unwind label %lpad8

call.i.noexc:                                     ; preds = %invoke.cont5
  invoke void @_ZNSt7__cxx1112basic_stringIcSt11char_traitsIcESaIcEE12_Alloc_hiderC1EPcRKS3_(ptr noundef nonnull align 8 dereferenceable(8) %ref.tmp6, ptr noundef %call.i95, ptr noundef nonnull align 1 dereferenceable(1) %ref.tmp7)
          to label %.noexc unwind label %lpad8

.noexc:                                           ; preds = %call.i.noexc
  invoke void @_ZNSt7__cxx1112basic_stringIcSt11char_traitsIcESaIcEE12_M_constructIPKcEEvT_S8_St20forward_iterator_tag(ptr noundef nonnull align 8 dereferenceable(32) %ref.tmp6, ptr noundef nonnull @.str, ptr noundef nonnull getelementptr inbounds ([6 x i8], ptr @.str, i64 0, i64 5))
          to label %invoke.cont9 unwind label %lpad.i

lpad.i:                                           ; preds = %.noexc
  %15 = landingpad { ptr, i32 }
          cleanup
  call void @_ZNSaIcED2Ev(ptr noundef nonnull align 1 dereferenceable(1) %ref.tmp6) #21
  br label %ehcleanup16

invoke.cont9:                                     ; preds = %.noexc
  invoke void @_ZN4cvc58internal11NodeManager17mkSortConstructorERKNSt7__cxx1112basic_stringIcSt11char_traitsIcESaIcEEEmb(ptr nonnull sret(%"class.cvc5::internal::TypeNode") align 8 %ref.tmp, ptr noundef nonnull align 8 dereferenceable(3360) %call, ptr noundef nonnull align 8 dereferenceable(32) %ref.tmp6, i64 noundef 2, i1 noundef zeroext true)
          to label %invoke.cont11 unwind label %lpad10

invoke.cont11:                                    ; preds = %invoke.cont9
  %16 = load ptr, ptr %d_arrow, align 8
  %17 = load ptr, ptr %ref.tmp, align 8
  %cmp.not.i = icmp eq ptr %16, %17
  br i1 %cmp.not.i, label %invoke.cont14, label %if.then.i

if.then.i:                                        ; preds = %invoke.cont11
  %bf.load.i.i = load i64, ptr %16, align 8
  %18 = and i64 %bf.load.i.i, 1152920405095219200
  %cmp.not.i.i = icmp eq i64 %18, 1152920405095219200
  br i1 %cmp.not.i.i, label %_ZN4cvc58internal4expr9NodeValue3decEv.exit.i, label %if.then.i.i

if.then.i.i:                                      ; preds = %if.then.i
  %bf.value.i.i = add i64 %bf.load.i.i, 1152920405095219200
  %bf.shl.i.i = and i64 %bf.value.i.i, 1152920405095219200
  %bf.clear7.i.i = and i64 %bf.load.i.i, -1152920405095219201
  %bf.set.i.i = or disjoint i64 %bf.shl.i.i, %bf.clear7.i.i
  store i64 %bf.set.i.i, ptr %16, align 8
  %cmp12.i.i = icmp eq i64 %bf.shl.i.i, 0
  br i1 %cmp12.i.i, label %if.then13.i.i, label %_ZN4cvc58internal4expr9NodeValue3decEv.exit.i

if.then13.i.i:                                    ; preds = %if.then.i.i
  invoke void @_ZN4cvc58internal4expr9NodeValue15markForDeletionEv(ptr noundef nonnull align 8 dereferenceable(16) %16)
          to label %_ZN4cvc58internal4expr9NodeValue3decEv.exit.i unwind label %lpad13

_ZN4cvc58internal4expr9NodeValue3decEv.exit.i:    ; preds = %if.then13.i.i, %if.then.i.i, %if.then.i
  %19 = load ptr, ptr %ref.tmp, align 8
  store ptr %19, ptr %d_arrow, align 8
  %bf.load.i2.i = load i64, ptr %19, align 8
  %bf.lshr.i.i = lshr i64 %bf.load.i2.i, 40
  %20 = trunc i64 %bf.lshr.i.i to i32
  %bf.cast.i.i = and i32 %20, 1048575
  %cmp.i.i = icmp ult i32 %bf.cast.i.i, 1048574
  br i1 %cmp.i.i, label %if.then.i5.i, label %if.else.i.i

if.then.i5.i:                                     ; preds = %_ZN4cvc58internal4expr9NodeValue3decEv.exit.i
  %bf.value.i6.i = add i64 %bf.load.i2.i, 1099511627776
  %bf.shl.i7.i = and i64 %bf.value.i6.i, 1152920405095219200
  %bf.clear7.i8.i = and i64 %bf.load.i2.i, -1152920405095219201
  %bf.set.i9.i = or disjoint i64 %bf.shl.i7.i, %bf.clear7.i8.i
  store i64 %bf.set.i9.i, ptr %19, align 8
  br label %invoke.cont14

if.else.i.i:                                      ; preds = %_ZN4cvc58internal4expr9NodeValue3decEv.exit.i
  %cmp12.i3.i = icmp eq i32 %bf.cast.i.i, 1048574
  br i1 %cmp12.i3.i, label %if.then13.i4.i, label %invoke.cont14

if.then13.i4.i:                                   ; preds = %if.else.i.i
  %bf.set23.i.i = or i64 %bf.load.i2.i, 1152920405095219200
  store i64 %bf.set23.i.i, ptr %19, align 8
  invoke void @_ZN4cvc58internal4expr9NodeValue20markRefCountMaxedOutEv(ptr noundef nonnull align 8 dereferenceable(16) %19)
          to label %invoke.cont14 unwind label %lpad13

invoke.cont14:                                    ; preds = %if.else.i.i, %if.then.i5.i, %invoke.cont11, %if.then13.i4.i
  %21 = load ptr, ptr %ref.tmp, align 8
  %bf.load.i.i99 = load i64, ptr %21, align 8
  %22 = and i64 %bf.load.i.i99, 1152920405095219200
  %cmp.not.i.i100 = icmp eq i64 %22, 1152920405095219200
  br i1 %cmp.not.i.i100, label %_ZN4cvc58internal8TypeNodeD2Ev.exit, label %if.then.i.i101

if.then.i.i101:                                   ; preds = %invoke.cont14
  %bf.value.i.i102 = add i64 %bf.load.i.i99, 1152920405095219200
  %bf.shl.i.i103 = and i64 %bf.value.i.i102, 1152920405095219200
  %bf.clear7.i.i104 = and i64 %bf.load.i.i99, -1152920405095219201
  %bf.set.i.i105 = or disjoint i64 %bf.shl.i.i103, %bf.clear7.i.i104
  store i64 %bf.set.i.i105, ptr %21, align 8
  %cmp12.i.i106 = icmp eq i64 %bf.shl.i.i103, 0
  br i1 %cmp12.i.i106, label %if.then13.i.i107, label %_ZN4cvc58internal8TypeNodeD2Ev.exit

if.then13.i.i107:                                 ; preds = %if.then.i.i101
  invoke void @_ZN4cvc58internal4expr9NodeValue15markForDeletionEv(ptr noundef nonnull align 8 dereferenceable(16) %21)
          to label %_ZN4cvc58internal8TypeNodeD2Ev.exit unwind label %terminate.lpad.i

terminate.lpad.i:                                 ; preds = %if.then13.i.i107
  %23 = landingpad { ptr, i32 }
          catch ptr null
  %24 = extractvalue { ptr, i32 } %23, 0
  call void @__clang_call_terminate(ptr %24) #23
  unreachable

_ZN4cvc58internal8TypeNodeD2Ev.exit:              ; preds = %invoke.cont14, %if.then.i.i101, %if.then13.i.i107
  call void @_ZNSt7__cxx1112basic_stringIcSt11char_traitsIcESaIcEED1Ev(ptr noundef nonnull align 8 dereferenceable(32) %ref.tmp6) #21
  call void @_ZNSaIcED1Ev(ptr noundef nonnull align 1 dereferenceable(1) %ref.tmp7) #21
  call void @_ZNSaIcEC1Ev(ptr noundef nonnull align 1 dereferenceable(1) %ref.tmp19) #21
  %call.i112 = invoke noundef ptr @_ZNSt7__cxx1112basic_stringIcSt11char_traitsIcESaIcEE13_M_local_dataEv(ptr noundef nonnull align 8 dereferenceable(32) %ref.tmp18)
          to label %call.i.noexc111 unwind label %lpad20

call.i.noexc111:                                  ; preds = %_ZN4cvc58internal8TypeNodeD2Ev.exit
  invoke void @_ZNSt7__cxx1112basic_stringIcSt11char_traitsIcESaIcEE12_Alloc_hiderC1EPcRKS3_(ptr noundef nonnull align 8 dereferenceable(8) %ref.tmp18, ptr noundef %call.i112, ptr noundef nonnull align 1 dereferenceable(1) %ref.tmp19)
          to label %.noexc113 unwind label %lpad20

.noexc113:                                        ; preds = %call.i.noexc111
  invoke void @_ZNSt7__cxx1112basic_stringIcSt11char_traitsIcESaIcEE12_M_constructIPKcEEvT_S8_St20forward_iterator_tag(ptr noundef nonnull align 8 dereferenceable(32) %ref.tmp18, ptr noundef nonnull @.str.1, ptr noundef nonnull getelementptr inbounds ([9 x i8], ptr @.str.1, i64 0, i64 8))
          to label %invoke.cont21 unwind label %lpad.i110

lpad.i110:                                        ; preds = %.noexc113
  %25 = landingpad { ptr, i32 }
          cleanup
  call void @_ZNSaIcED2Ev(ptr noundef nonnull align 1 dereferenceable(1) %ref.tmp18) #21
  br label %ehcleanup30

invoke.cont21:                                    ; preds = %.noexc113
  invoke void @_ZN4cvc58internal11NodeManager6mkSortERKNSt7__cxx1112basic_stringIcSt11char_traitsIcESaIcEEEb(ptr nonnull sret(%"class.cvc5::internal::TypeNode") align 8 %ref.tmp17, ptr noundef nonnull align 8 dereferenceable(3360) %call, ptr noundef nonnull align 8 dereferenceable(32) %ref.tmp18, i1 noundef zeroext true)
          to label %invoke.cont23 unwind label %lpad22

invoke.cont23:                                    ; preds = %invoke.cont21
  %26 = load ptr, ptr %d_sortType, align 8
  %27 = load ptr, ptr %ref.tmp17, align 8
  %cmp.not.i116 = icmp eq ptr %26, %27
  br i1 %cmp.not.i116, label %invoke.cont26, label %if.then.i117

if.then.i117:                                     ; preds = %invoke.cont23
  %bf.load.i.i118 = load i64, ptr %26, align 8
  %28 = and i64 %bf.load.i.i118, 1152920405095219200
  %cmp.not.i.i119 = icmp eq i64 %28, 1152920405095219200
  br i1 %cmp.not.i.i119, label %_ZN4cvc58internal4expr9NodeValue3decEv.exit.i126, label %if.then.i.i120

if.then.i.i120:                                   ; preds = %if.then.i117
  %bf.value.i.i121 = add i64 %bf.load.i.i118, 1152920405095219200
  %bf.shl.i.i122 = and i64 %bf.value.i.i121, 1152920405095219200
  %bf.clear7.i.i123 = and i64 %bf.load.i.i118, -1152920405095219201
  %bf.set.i.i124 = or disjoint i64 %bf.shl.i.i122, %bf.clear7.i.i123
  store i64 %bf.set.i.i124, ptr %26, align 8
  %cmp12.i.i125 = icmp eq i64 %bf.shl.i.i122, 0
  br i1 %cmp12.i.i125, label %if.then13.i.i140, label %_ZN4cvc58internal4expr9NodeValue3decEv.exit.i126

if.then13.i.i140:                                 ; preds = %if.then.i.i120
  invoke void @_ZN4cvc58internal4expr9NodeValue15markForDeletionEv(ptr noundef nonnull align 8 dereferenceable(16) %26)
          to label %_ZN4cvc58internal4expr9NodeValue3decEv.exit.i126 unwind label %lpad25

_ZN4cvc58internal4expr9NodeValue3decEv.exit.i126: ; preds = %if.then13.i.i140, %if.then.i.i120, %if.then.i117
  %29 = load ptr, ptr %ref.tmp17, align 8
  store ptr %29, ptr %d_sortType, align 8
  %bf.load.i2.i127 = load i64, ptr %29, align 8
  %bf.lshr.i.i128 = lshr i64 %bf.load.i2.i127, 40
  %30 = trunc i64 %bf.lshr.i.i128 to i32
  %bf.cast.i.i129 = and i32 %30, 1048575
  %cmp.i.i130 = icmp ult i32 %bf.cast.i.i129, 1048574
  br i1 %cmp.i.i130, label %if.then.i5.i135, label %if.else.i.i131

if.then.i5.i135:                                  ; preds = %_ZN4cvc58internal4expr9NodeValue3decEv.exit.i126
  %bf.value.i6.i136 = add i64 %bf.load.i2.i127, 1099511627776
  %bf.shl.i7.i137 = and i64 %bf.value.i6.i136, 1152920405095219200
  %bf.clear7.i8.i138 = and i64 %bf.load.i2.i127, -1152920405095219201
  %bf.set.i9.i139 = or disjoint i64 %bf.shl.i7.i137, %bf.clear7.i8.i138
  store i64 %bf.set.i9.i139, ptr %29, align 8
  br label %invoke.cont26

if.else.i.i131:                                   ; preds = %_ZN4cvc58internal4expr9NodeValue3decEv.exit.i126
  %cmp12.i3.i132 = icmp eq i32 %bf.cast.i.i129, 1048574
  br i1 %cmp12.i3.i132, label %if.then13.i4.i133, label %invoke.cont26

if.then13.i4.i133:                                ; preds = %if.else.i.i131
  %bf.set23.i.i134 = or i64 %bf.load.i2.i127, 1152920405095219200
  store i64 %bf.set23.i.i134, ptr %29, align 8
  invoke void @_ZN4cvc58internal4expr9NodeValue20markRefCountMaxedOutEv(ptr noundef nonnull align 8 dereferenceable(16) %29)
          to label %invoke.cont26 unwind label %lpad25

invoke.cont26:                                    ; preds = %if.else.i.i131, %if.then.i5.i135, %invoke.cont23, %if.then13.i4.i133
  %31 = load ptr, ptr %ref.tmp17, align 8
  %bf.load.i.i144 = load i64, ptr %31, align 8
  %32 = and i64 %bf.load.i.i144, 1152920405095219200
  %cmp.not.i.i145 = icmp eq i64 %32, 1152920405095219200
  br i1 %cmp.not.i.i145, label %_ZN4cvc58internal8TypeNodeD2Ev.exit154, label %if.then.i.i146

if.then.i.i146:                                   ; preds = %invoke.cont26
  %bf.value.i.i147 = add i64 %bf.load.i.i144, 1152920405095219200
  %bf.shl.i.i148 = and i64 %bf.value.i.i147, 1152920405095219200
  %bf.clear7.i.i149 = and i64 %bf.load.i.i144, -1152920405095219201
  %bf.set.i.i150 = or disjoint i64 %bf.shl.i.i148, %bf.clear7.i.i149
  store i64 %bf.set.i.i150, ptr %31, align 8
  %cmp12.i.i151 = icmp eq i64 %bf.shl.i.i148, 0
  br i1 %cmp12.i.i151, label %if.then13.i.i152, label %_ZN4cvc58internal8TypeNodeD2Ev.exit154

if.then13.i.i152:                                 ; preds = %if.then.i.i146
  invoke void @_ZN4cvc58internal4expr9NodeValue15markForDeletionEv(ptr noundef nonnull align 8 dereferenceable(16) %31)
          to label %_ZN4cvc58internal8TypeNodeD2Ev.exit154 unwind label %terminate.lpad.i153

terminate.lpad.i153:                              ; preds = %if.then13.i.i152
  %33 = landingpad { ptr, i32 }
          catch ptr null
  %34 = extractvalue { ptr, i32 } %33, 0
  call void @__clang_call_terminate(ptr %34) #23
  unreachable

_ZN4cvc58internal8TypeNodeD2Ev.exit154:           ; preds = %invoke.cont26, %if.then.i.i146, %if.then13.i.i152
  call void @_ZNSt7__cxx1112basic_stringIcSt11char_traitsIcESaIcEED1Ev(ptr noundef nonnull align 8 dereferenceable(32) %ref.tmp18) #21
  call void @_ZNSaIcED1Ev(ptr noundef nonnull align 1 dereferenceable(1) %ref.tmp19) #21
  %35 = load ptr, ptr %d_sortType, align 8
  store ptr %35, ptr %ref.tmp32, align 8
  %bf.load.i.i155 = load i64, ptr %35, align 8
  %bf.lshr.i.i156 = lshr i64 %bf.load.i.i155, 40
  %36 = trunc i64 %bf.lshr.i.i156 to i32
  %bf.cast.i.i157 = and i32 %36, 1048575
  %cmp.i.i158 = icmp ult i32 %bf.cast.i.i157, 1048574
  br i1 %cmp.i.i158, label %if.then.i.i163, label %if.else.i.i159

if.then.i.i163:                                   ; preds = %_ZN4cvc58internal8TypeNodeD2Ev.exit154
  %bf.value.i.i164 = add i64 %bf.load.i.i155, 1099511627776
  %bf.shl.i.i165 = and i64 %bf.value.i.i164, 1152920405095219200
  %bf.clear7.i.i166 = and i64 %bf.load.i.i155, -1152920405095219201
  %bf.set.i.i167 = or disjoint i64 %bf.shl.i.i165, %bf.clear7.i.i166
  store i64 %bf.set.i.i167, ptr %35, align 8
  br label %invoke.cont35

if.else.i.i159:                                   ; preds = %_ZN4cvc58internal8TypeNodeD2Ev.exit154
  %cmp12.i.i160 = icmp eq i32 %bf.cast.i.i157, 1048574
  br i1 %cmp12.i.i160, label %if.then13.i.i161, label %invoke.cont35

if.then13.i.i161:                                 ; preds = %if.else.i.i159
  %bf.set23.i.i162 = or i64 %bf.load.i.i155, 1152920405095219200
  store i64 %bf.set23.i.i162, ptr %35, align 8
  invoke void @_ZN4cvc58internal4expr9NodeValue20markRefCountMaxedOutEv(ptr noundef nonnull align 8 dereferenceable(16) %35)
          to label %invoke.cont35 unwind label %lpad34.thread

lpad34.thread:                                    ; preds = %if.then13.i.i161
  %37 = landingpad { ptr, i32 }
          cleanup
  br label %ehcleanup299

invoke.cont35:                                    ; preds = %if.else.i.i159, %if.then.i.i163, %if.then13.i.i161
  %arrayinit.element = getelementptr inbounds %"class.cvc5::internal::TypeNode", ptr %ref.tmp32, i64 1
  %38 = load ptr, ptr %d_sortType, align 8
  store ptr %38, ptr %arrayinit.element, align 8
  %bf.load.i.i169 = load i64, ptr %38, align 8
  %bf.lshr.i.i170 = lshr i64 %bf.load.i.i169, 40
  %39 = trunc i64 %bf.lshr.i.i170 to i32
  %bf.cast.i.i171 = and i32 %39, 1048575
  %cmp.i.i172 = icmp ult i32 %bf.cast.i.i171, 1048574
  br i1 %cmp.i.i172, label %if.then.i.i177, label %if.else.i.i173

if.then.i.i177:                                   ; preds = %invoke.cont35
  %bf.value.i.i178 = add i64 %bf.load.i.i169, 1099511627776
  %bf.shl.i.i179 = and i64 %bf.value.i.i178, 1152920405095219200
  %bf.clear7.i.i180 = and i64 %bf.load.i.i169, -1152920405095219201
  %bf.set.i.i181 = or disjoint i64 %bf.shl.i.i179, %bf.clear7.i.i180
  store i64 %bf.set.i.i181, ptr %38, align 8
  br label %invoke.cont37

if.else.i.i173:                                   ; preds = %invoke.cont35
  %cmp12.i.i174 = icmp eq i32 %bf.cast.i.i171, 1048574
  br i1 %cmp12.i.i174, label %if.then13.i.i175, label %invoke.cont37

if.then13.i.i175:                                 ; preds = %if.else.i.i173
  %bf.set23.i.i176 = or i64 %bf.load.i.i169, 1152920405095219200
  store i64 %bf.set23.i.i176, ptr %38, align 8
  invoke void @_ZN4cvc58internal4expr9NodeValue20markRefCountMaxedOutEv(ptr noundef nonnull align 8 dereferenceable(16) %38)
          to label %invoke.cont37 unwind label %lpad34

invoke.cont37:                                    ; preds = %if.else.i.i173, %if.then.i.i177, %if.then13.i.i175
  call void @llvm.memset.p0.i64(ptr noundef nonnull align 8 dereferenceable(24) %ref.tmp31, i8 0, i64 24, i1 false)
  %add.ptr.i.i = getelementptr inbounds %"class.cvc5::internal::TypeNode", ptr %ref.tmp32, i64 2
  %call5.i.i.i.i2.i = invoke noalias noundef nonnull dereferenceable(16) ptr @_Znwm(i64 noundef 16) #22
          to label %_ZNSt12_Vector_baseIN4cvc58internal8TypeNodeESaIS2_EE11_M_allocateEm.exit.i.i unwind label %lpad.i184

_ZNSt12_Vector_baseIN4cvc58internal8TypeNodeESaIS2_EE11_M_allocateEm.exit.i.i: ; preds = %invoke.cont37
  store ptr %call5.i.i.i.i2.i, ptr %ref.tmp31, align 8
  %add.ptr.i1.i = getelementptr inbounds %"class.cvc5::internal::TypeNode", ptr %call5.i.i.i.i2.i, i64 2
  %_M_end_of_storage.i.i = getelementptr inbounds %"struct.std::_Vector_base<cvc5::internal::TypeNode, std::allocator<cvc5::internal::TypeNode>>::_Vector_impl_data", ptr %ref.tmp31, i64 0, i32 2
  store ptr %add.ptr.i1.i, ptr %_M_end_of_storage.i.i, align 8
  %call.i.i.i.i3.i = invoke noundef ptr @_ZSt16__do_uninit_copyIPKN4cvc58internal8TypeNodeEPS2_ET0_T_S7_S6_(ptr noundef nonnull %ref.tmp32, ptr noundef nonnull %add.ptr.i.i, ptr noundef nonnull %call5.i.i.i.i2.i)
          to label %invoke.cont42 unwind label %lpad.i184

lpad.i184:                                        ; preds = %_ZNSt12_Vector_baseIN4cvc58internal8TypeNodeESaIS2_EE11_M_allocateEm.exit.i.i, %invoke.cont37
  %40 = landingpad { ptr, i32 }
          cleanup
  %41 = load ptr, ptr %ref.tmp31, align 8
  %tobool.not.i.i.i = icmp eq ptr %41, null
  br i1 %tobool.not.i.i.i, label %ehcleanup47, label %if.then.i.i4.i

if.then.i.i4.i:                                   ; preds = %lpad.i184
  call void @_ZdlPv(ptr noundef nonnull %41) #24
  br label %ehcleanup47

invoke.cont42:                                    ; preds = %_ZNSt12_Vector_baseIN4cvc58internal8TypeNodeESaIS2_EE11_M_allocateEm.exit.i.i
  %_M_finish.i.i = getelementptr inbounds %"struct.std::_Vector_base<cvc5::internal::TypeNode, std::allocator<cvc5::internal::TypeNode>>::_Vector_impl_data", ptr %ref.tmp31, i64 0, i32 1
  store ptr %call.i.i.i.i3.i, ptr %_M_finish.i.i, align 8
  invoke void @_ZN4cvc58internal11NodeManager14mkFunctionTypeERKSt6vectorINS0_8TypeNodeESaIS3_EERKS3_(ptr nonnull sret(%"class.cvc5::internal::TypeNode") align 8 %anfType, ptr noundef nonnull align 8 dereferenceable(3360) %call, ptr noundef nonnull align 8 dereferenceable(24) %ref.tmp31, ptr noundef nonnull align 8 dereferenceable(8) %d_sortType)
          to label %invoke.cont45 unwind label %lpad44

invoke.cont45:                                    ; preds = %invoke.cont42
  %42 = load ptr, ptr %ref.tmp31, align 8
  %43 = load ptr, ptr %_M_finish.i.i, align 8
  %cmp.not3.i.i.i.i = icmp eq ptr %42, %43
  br i1 %cmp.not3.i.i.i.i, label %invoke.cont.i, label %for.body.i.i.i.i

for.body.i.i.i.i:                                 ; preds = %invoke.cont45, %_ZSt8_DestroyIN4cvc58internal8TypeNodeEEvPT_.exit.i.i.i.i
  %__first.addr.04.i.i.i.i = phi ptr [ %incdec.ptr.i.i.i.i, %_ZSt8_DestroyIN4cvc58internal8TypeNodeEEvPT_.exit.i.i.i.i ], [ %42, %invoke.cont45 ]
  %44 = load ptr, ptr %__first.addr.04.i.i.i.i, align 8
  %bf.load.i.i.i.i.i.i.i = load i64, ptr %44, align 8
  %45 = and i64 %bf.load.i.i.i.i.i.i.i, 1152920405095219200
  %cmp.not.i.i.i.i.i.i.i = icmp eq i64 %45, 1152920405095219200
  br i1 %cmp.not.i.i.i.i.i.i.i, label %_ZSt8_DestroyIN4cvc58internal8TypeNodeEEvPT_.exit.i.i.i.i, label %if.then.i.i.i.i.i.i.i

if.then.i.i.i.i.i.i.i:                            ; preds = %for.body.i.i.i.i
  %bf.value.i.i.i.i.i.i.i = add i64 %bf.load.i.i.i.i.i.i.i, 1152920405095219200
  %bf.shl.i.i.i.i.i.i.i = and i64 %bf.value.i.i.i.i.i.i.i, 1152920405095219200
  %bf.clear7.i.i.i.i.i.i.i = and i64 %bf.load.i.i.i.i.i.i.i, -1152920405095219201
  %bf.set.i.i.i.i.i.i.i = or disjoint i64 %bf.shl.i.i.i.i.i.i.i, %bf.clear7.i.i.i.i.i.i.i
  store i64 %bf.set.i.i.i.i.i.i.i, ptr %44, align 8
  %cmp12.i.i.i.i.i.i.i = icmp eq i64 %bf.shl.i.i.i.i.i.i.i, 0
  br i1 %cmp12.i.i.i.i.i.i.i, label %if.then13.i.i.i.i.i.i.i, label %_ZSt8_DestroyIN4cvc58internal8TypeNodeEEvPT_.exit.i.i.i.i

if.then13.i.i.i.i.i.i.i:                          ; preds = %if.then.i.i.i.i.i.i.i
  invoke void @_ZN4cvc58internal4expr9NodeValue15markForDeletionEv(ptr noundef nonnull align 8 dereferenceable(16) %44)
          to label %_ZSt8_DestroyIN4cvc58internal8TypeNodeEEvPT_.exit.i.i.i.i unwind label %terminate.lpad.i.i.i.i.i.i

terminate.lpad.i.i.i.i.i.i:                       ; preds = %if.then13.i.i.i.i.i.i.i
  %46 = landingpad { ptr, i32 }
          catch ptr null
  %47 = extractvalue { ptr, i32 } %46, 0
  call void @__clang_call_terminate(ptr %47) #23
  unreachable

_ZSt8_DestroyIN4cvc58internal8TypeNodeEEvPT_.exit.i.i.i.i: ; preds = %if.then13.i.i.i.i.i.i.i, %if.then.i.i.i.i.i.i.i, %for.body.i.i.i.i
  %incdec.ptr.i.i.i.i = getelementptr inbounds %"class.cvc5::internal::TypeNode", ptr %__first.addr.04.i.i.i.i, i64 1
  %cmp.not.i.i.i.i = icmp eq ptr %incdec.ptr.i.i.i.i, %43
  br i1 %cmp.not.i.i.i.i, label %invoke.contthread-pre-split.i, label %for.body.i.i.i.i, !llvm.loop !5

invoke.contthread-pre-split.i:                    ; preds = %_ZSt8_DestroyIN4cvc58internal8TypeNodeEEvPT_.exit.i.i.i.i
  %.pr.i = load ptr, ptr %ref.tmp31, align 8
  br label %invoke.cont.i

invoke.cont.i:                                    ; preds = %invoke.contthread-pre-split.i, %invoke.cont45
  %48 = phi ptr [ %.pr.i, %invoke.contthread-pre-split.i ], [ %42, %invoke.cont45 ]
  %tobool.not.i.i.i186 = icmp eq ptr %48, null
  br i1 %tobool.not.i.i.i186, label %arraydestroy.body48.preheader, label %if.then.i.i.i

if.then.i.i.i:                                    ; preds = %invoke.cont.i
  call void @_ZdlPv(ptr noundef nonnull %48) #24
  br label %arraydestroy.body48.preheader

arraydestroy.body48.preheader:                    ; preds = %invoke.cont.i, %if.then.i.i.i
  br label %arraydestroy.body48

arraydestroy.body48:                              ; preds = %arraydestroy.body48.preheader, %_ZN4cvc58internal8TypeNodeD2Ev.exit199
  %arraydestroy.elementPast49 = phi ptr [ %arraydestroy.element50, %_ZN4cvc58internal8TypeNodeD2Ev.exit199 ], [ %add.ptr.i.i, %arraydestroy.body48.preheader ]
  %arraydestroy.element50 = getelementptr inbounds %"class.cvc5::internal::TypeNode", ptr %arraydestroy.elementPast49, i64 -1
  %49 = load ptr, ptr %arraydestroy.element50, align 8
  %bf.load.i.i188 = load i64, ptr %49, align 8
  %50 = and i64 %bf.load.i.i188, 1152920405095219200
  %cmp.not.i.i189 = icmp eq i64 %50, 1152920405095219200
  br i1 %cmp.not.i.i189, label %_ZN4cvc58internal8TypeNodeD2Ev.exit199, label %if.then.i.i190

if.then.i.i190:                                   ; preds = %arraydestroy.body48
  %bf.value.i.i191 = add i64 %bf.load.i.i188, 1152920405095219200
  %bf.shl.i.i192 = and i64 %bf.value.i.i191, 1152920405095219200
  %bf.clear7.i.i193 = and i64 %bf.load.i.i188, -1152920405095219201
  %bf.set.i.i194 = or disjoint i64 %bf.shl.i.i192, %bf.clear7.i.i193
  store i64 %bf.set.i.i194, ptr %49, align 8
  %cmp12.i.i195 = icmp eq i64 %bf.shl.i.i192, 0
  br i1 %cmp12.i.i195, label %if.then13.i.i197, label %_ZN4cvc58internal8TypeNodeD2Ev.exit199

if.then13.i.i197:                                 ; preds = %if.then.i.i190
  invoke void @_ZN4cvc58internal4expr9NodeValue15markForDeletionEv(ptr noundef nonnull align 8 dereferenceable(16) %49)
          to label %_ZN4cvc58internal8TypeNodeD2Ev.exit199 unwind label %terminate.lpad.i198

terminate.lpad.i198:                              ; preds = %if.then13.i.i197
  %51 = landingpad { ptr, i32 }
          catch ptr null
  %52 = extractvalue { ptr, i32 } %51, 0
  call void @__clang_call_terminate(ptr %52) #23
  unreachable

_ZN4cvc58internal8TypeNodeD2Ev.exit199:           ; preds = %arraydestroy.body48, %if.then.i.i190, %if.then13.i.i197
  %arraydestroy.done51 = icmp eq ptr %arraydestroy.element50, %ref.tmp32
  br i1 %arraydestroy.done51, label %arraydestroy.done52, label %arraydestroy.body48

arraydestroy.done52:                              ; preds = %_ZN4cvc58internal8TypeNodeD2Ev.exit199
  %53 = load ptr, ptr %anfType, align 8
  store ptr %53, ptr %agg.tmp61, align 8
  %bf.load.i.i200 = load i64, ptr %53, align 8
  %bf.lshr.i.i201 = lshr i64 %bf.load.i.i200, 40
  %54 = trunc i64 %bf.lshr.i.i201 to i32
  %bf.cast.i.i202 = and i32 %54, 1048575
  %cmp.i.i203 = icmp ult i32 %bf.cast.i.i202, 1048574
  br i1 %cmp.i.i203, label %if.then.i.i208, label %if.else.i.i204

if.then.i.i208:                                   ; preds = %arraydestroy.done52
  %bf.value.i.i209 = add i64 %bf.load.i.i200, 1099511627776
  %bf.shl.i.i210 = and i64 %bf.value.i.i209, 1152920405095219200
  %bf.clear7.i.i211 = and i64 %bf.load.i.i200, -1152920405095219201
  %bf.set.i.i212 = or disjoint i64 %bf.shl.i.i210, %bf.clear7.i.i211
  store i64 %bf.set.i.i212, ptr %53, align 8
  br label %invoke.cont63

if.else.i.i204:                                   ; preds = %arraydestroy.done52
  %cmp12.i.i205 = icmp eq i32 %bf.cast.i.i202, 1048574
  br i1 %cmp12.i.i205, label %if.then13.i.i206, label %invoke.cont63

if.then13.i.i206:                                 ; preds = %if.else.i.i204
  %bf.set23.i.i207 = or i64 %bf.load.i.i200, 1152920405095219200
  store i64 %bf.set23.i.i207, ptr %53, align 8
  invoke void @_ZN4cvc58internal4expr9NodeValue20markRefCountMaxedOutEv(ptr noundef nonnull align 8 dereferenceable(16) %53)
          to label %invoke.cont63 unwind label %lpad62

invoke.cont63:                                    ; preds = %if.else.i.i204, %if.then.i.i208, %if.then13.i.i206
  call void @_ZNSaIcEC1Ev(ptr noundef nonnull align 1 dereferenceable(1) %ref.tmp65) #21
  %call.i219 = invoke noundef ptr @_ZNSt7__cxx1112basic_stringIcSt11char_traitsIcESaIcEE13_M_local_dataEv(ptr noundef nonnull align 8 dereferenceable(32) %ref.tmp64)
          to label %call.i.noexc218 unwind label %lpad66

call.i.noexc218:                                  ; preds = %invoke.cont63
  invoke void @_ZNSt7__cxx1112basic_stringIcSt11char_traitsIcESaIcEE12_Alloc_hiderC1EPcRKS3_(ptr noundef nonnull align 8 dereferenceable(8) %ref.tmp64, ptr noundef %call.i219, ptr noundef nonnull align 1 dereferenceable(1) %ref.tmp65)
          to label %.noexc220 unwind label %lpad66

.noexc220:                                        ; preds = %call.i.noexc218
  invoke void @_ZNSt7__cxx1112basic_stringIcSt11char_traitsIcESaIcEE12_M_constructIPKcEEvT_S8_St20forward_iterator_tag(ptr noundef nonnull align 8 dereferenceable(32) %ref.tmp64, ptr noundef nonnull @.str, ptr noundef nonnull getelementptr inbounds ([6 x i8], ptr @.str, i64 0, i64 5))
          to label %invoke.cont67 unwind label %lpad.i217

lpad.i217:                                        ; preds = %.noexc220
  %55 = landingpad { ptr, i32 }
          cleanup
  call void @_ZNSaIcED2Ev(ptr noundef nonnull align 1 dereferenceable(1) %ref.tmp64) #21
  br label %ehcleanup79

invoke.cont67:                                    ; preds = %.noexc220
  invoke void @_ZN4cvc58internal5proof17LfscNodeConverter17getSymbolInternalENS0_4kind6Kind_tENS0_8TypeNodeERKNSt7__cxx1112basic_stringIcSt11char_traitsIcESaIcEEEb(ptr nonnull sret(%"class.cvc5::internal::NodeTemplate") align 8 %ref.tmp60, ptr noundef nonnull align 8 dereferenceable(760) %this, i32 noundef 25, ptr noundef nonnull %agg.tmp61, ptr noundef nonnull align 8 dereferenceable(32) %ref.tmp64, i1 noundef zeroext true)
          to label %invoke.cont69 unwind label %lpad68

invoke.cont69:                                    ; preds = %invoke.cont67
  call void @llvm.lifetime.start.p0(i64 8, ptr nonnull %ref.tmp9.i)
  call void @llvm.lifetime.start.p0(i64 1, ptr nonnull %ref.tmp10.i)
  %56 = load ptr, ptr %_M_parent.i.i.i.i.i76, align 8
  %cmp.not5.i.i.i.i = icmp eq ptr %56, null
  br i1 %cmp.not5.i.i.i.i, label %if.then.i228, label %while.body.lr.ph.i.i.i.i

while.body.lr.ph.i.i.i.i:                         ; preds = %invoke.cont69
  %57 = load ptr, ptr %d_arrow, align 8
  %bf.load3.i.i.i.i.i.i = load i64, ptr %57, align 8
  %bf.clear4.i.i.i.i.i.i = and i64 %bf.load3.i.i.i.i.i.i, 1099511627775
  br label %while.body.i.i.i.i

while.body.i.i.i.i:                               ; preds = %while.body.i.i.i.i, %while.body.lr.ph.i.i.i.i
  %__x.addr.07.i.i.i.i = phi ptr [ %56, %while.body.lr.ph.i.i.i.i ], [ %__x.addr.1.i.i.i.i, %while.body.i.i.i.i ]
  %__y.addr.06.i.i.i.i = phi ptr [ %13, %while.body.lr.ph.i.i.i.i ], [ %__y.addr.1.i.i.i.i, %while.body.i.i.i.i ]
  %_M_storage.i.i.i.i.i.i = getelementptr inbounds %"struct.std::_Rb_tree_node.317", ptr %__x.addr.07.i.i.i.i, i64 0, i32 1
  %58 = load ptr, ptr %_M_storage.i.i.i.i.i.i, align 8
  %bf.load.i.i.i.i.i.i = load i64, ptr %58, align 8
  %bf.clear.i.i.i.i.i.i = and i64 %bf.load.i.i.i.i.i.i, 1099511627775
  %cmp.i.i.i.i.i.i = icmp ult i64 %bf.clear.i.i.i.i.i.i, %bf.clear4.i.i.i.i.i.i
  %_M_right.i.i.i.i.i224 = getelementptr inbounds %"struct.std::_Rb_tree_node_base", ptr %__x.addr.07.i.i.i.i, i64 0, i32 3
  %_M_left.i.i.i.i.i225 = getelementptr inbounds %"struct.std::_Rb_tree_node_base", ptr %__x.addr.07.i.i.i.i, i64 0, i32 2
  %__y.addr.1.i.i.i.i = select i1 %cmp.i.i.i.i.i.i, ptr %__y.addr.06.i.i.i.i, ptr %__x.addr.07.i.i.i.i
  %__x.addr.1.in.i.i.i.i = select i1 %cmp.i.i.i.i.i.i, ptr %_M_right.i.i.i.i.i224, ptr %_M_left.i.i.i.i.i225
  %__x.addr.1.i.i.i.i = load ptr, ptr %__x.addr.1.in.i.i.i.i, align 8
  %cmp.not.i.i.i.i226 = icmp eq ptr %__x.addr.1.i.i.i.i, null
  br i1 %cmp.not.i.i.i.i226, label %_ZNSt3mapIN4cvc58internal8TypeNodeENS1_12NodeTemplateILb1EEESt4lessIS2_ESaISt4pairIKS2_S4_EEE11lower_boundERS8_.exit.i, label %while.body.i.i.i.i, !llvm.loop !7

_ZNSt3mapIN4cvc58internal8TypeNodeENS1_12NodeTemplateILb1EEESt4lessIS2_ESaISt4pairIKS2_S4_EEE11lower_boundERS8_.exit.i: ; preds = %while.body.i.i.i.i
  %cmp.i.i227 = icmp eq ptr %__y.addr.1.i.i.i.i, %13
  br i1 %cmp.i.i227, label %if.then.i228, label %lor.rhs.i

lor.rhs.i:                                        ; preds = %_ZNSt3mapIN4cvc58internal8TypeNodeENS1_12NodeTemplateILb1EEESt4lessIS2_ESaISt4pairIKS2_S4_EEE11lower_boundERS8_.exit.i
  %_M_storage.i.i.i = getelementptr inbounds %"struct.std::_Rb_tree_node.317", ptr %__y.addr.1.i.i.i.i, i64 0, i32 1
  %59 = load ptr, ptr %_M_storage.i.i.i, align 8
  %bf.load3.i.i.i = load i64, ptr %59, align 8
  %bf.clear4.i.i.i = and i64 %bf.load3.i.i.i, 1099511627775
  %cmp.i.i.i = icmp ult i64 %bf.clear4.i.i.i.i.i.i, %bf.clear4.i.i.i
  br i1 %cmp.i.i.i, label %if.then.i228, label %invoke.cont73

if.then.i228:                                     ; preds = %lor.rhs.i, %_ZNSt3mapIN4cvc58internal8TypeNodeENS1_12NodeTemplateILb1EEESt4lessIS2_ESaISt4pairIKS2_S4_EEE11lower_boundERS8_.exit.i, %invoke.cont69
  %__y.addr.0.lcssa.i.i.i9.i = phi ptr [ %13, %_ZNSt3mapIN4cvc58internal8TypeNodeENS1_12NodeTemplateILb1EEESt4lessIS2_ESaISt4pairIKS2_S4_EEE11lower_boundERS8_.exit.i ], [ %__y.addr.1.i.i.i.i, %lor.rhs.i ], [ %13, %invoke.cont69 ]
  store ptr %d_arrow, ptr %ref.tmp9.i, align 8
  %call12.i229 = invoke ptr @_ZNSt8_Rb_treeIN4cvc58internal8TypeNodeESt4pairIKS2_NS1_12NodeTemplateILb1EEEESt10_Select1stIS7_ESt4lessIS2_ESaIS7_EE22_M_emplace_hint_uniqueIJRKSt21piecewise_construct_tSt5tupleIJRS4_EESI_IJEEEEESt17_Rb_tree_iteratorIS7_ESt23_Rb_tree_const_iteratorIS7_EDpOT_(ptr noundef nonnull align 8 dereferenceable(48) %d_typeAsNode, ptr %__y.addr.0.lcssa.i.i.i9.i, ptr noundef nonnull align 1 dereferenceable(1) @_ZSt19piecewise_construct, ptr noundef nonnull align 8 dereferenceable(8) %ref.tmp9.i, ptr noundef nonnull align 1 dereferenceable(1) %ref.tmp10.i)
          to label %invoke.cont73 unwind label %lpad72

invoke.cont73:                                    ; preds = %lor.rhs.i, %if.then.i228
  %__i.sroa.0.0.i = phi ptr [ %__y.addr.1.i.i.i.i, %lor.rhs.i ], [ %call12.i229, %if.then.i228 ]
  %second.i = getelementptr inbounds %"struct.std::_Rb_tree_node.317", ptr %__i.sroa.0.0.i, i64 0, i32 1, i32 0, i64 8
  call void @llvm.lifetime.end.p0(i64 8, ptr nonnull %ref.tmp9.i)
  call void @llvm.lifetime.end.p0(i64 1, ptr nonnull %ref.tmp10.i)
  %60 = load ptr, ptr %second.i, align 8
  %61 = load ptr, ptr %ref.tmp60, align 8
  %cmp.not.i230 = icmp eq ptr %60, %61
  br i1 %cmp.not.i230, label %invoke.cont75, label %if.then.i231

if.then.i231:                                     ; preds = %invoke.cont73
  %bf.load.i.i232 = load i64, ptr %60, align 8
  %62 = and i64 %bf.load.i.i232, 1152920405095219200
  %cmp.not.i.i233 = icmp eq i64 %62, 1152920405095219200
  br i1 %cmp.not.i.i233, label %_ZN4cvc58internal4expr9NodeValue3decEv.exit.i240, label %if.then.i.i234

if.then.i.i234:                                   ; preds = %if.then.i231
  %bf.value.i.i235 = add i64 %bf.load.i.i232, 1152920405095219200
  %bf.shl.i.i236 = and i64 %bf.value.i.i235, 1152920405095219200
  %bf.clear7.i.i237 = and i64 %bf.load.i.i232, -1152920405095219201
  %bf.set.i.i238 = or disjoint i64 %bf.shl.i.i236, %bf.clear7.i.i237
  store i64 %bf.set.i.i238, ptr %60, align 8
  %cmp12.i.i239 = icmp eq i64 %bf.shl.i.i236, 0
  br i1 %cmp12.i.i239, label %if.then13.i.i254, label %_ZN4cvc58internal4expr9NodeValue3decEv.exit.i240

if.then13.i.i254:                                 ; preds = %if.then.i.i234
  invoke void @_ZN4cvc58internal4expr9NodeValue15markForDeletionEv(ptr noundef nonnull align 8 dereferenceable(16) %60)
          to label %_ZN4cvc58internal4expr9NodeValue3decEv.exit.i240 unwind label %lpad72

_ZN4cvc58internal4expr9NodeValue3decEv.exit.i240: ; preds = %if.then13.i.i254, %if.then.i.i234, %if.then.i231
  %63 = load ptr, ptr %ref.tmp60, align 8
  store ptr %63, ptr %second.i, align 8
  %bf.load.i2.i241 = load i64, ptr %63, align 8
  %bf.lshr.i.i242 = lshr i64 %bf.load.i2.i241, 40
  %64 = trunc i64 %bf.lshr.i.i242 to i32
  %bf.cast.i.i243 = and i32 %64, 1048575
  %cmp.i.i244 = icmp ult i32 %bf.cast.i.i243, 1048574
  br i1 %cmp.i.i244, label %if.then.i5.i249, label %if.else.i.i245

if.then.i5.i249:                                  ; preds = %_ZN4cvc58internal4expr9NodeValue3decEv.exit.i240
  %bf.value.i6.i250 = add i64 %bf.load.i2.i241, 1099511627776
  %bf.shl.i7.i251 = and i64 %bf.value.i6.i250, 1152920405095219200
  %bf.clear7.i8.i252 = and i64 %bf.load.i2.i241, -1152920405095219201
  %bf.set.i9.i253 = or disjoint i64 %bf.shl.i7.i251, %bf.clear7.i8.i252
  store i64 %bf.set.i9.i253, ptr %63, align 8
  br label %invoke.cont75

if.else.i.i245:                                   ; preds = %_ZN4cvc58internal4expr9NodeValue3decEv.exit.i240
  %cmp12.i3.i246 = icmp eq i32 %bf.cast.i.i243, 1048574
  br i1 %cmp12.i3.i246, label %if.then13.i4.i247, label %invoke.cont75

if.then13.i4.i247:                                ; preds = %if.else.i.i245
  %bf.set23.i.i248 = or i64 %bf.load.i2.i241, 1152920405095219200
  store i64 %bf.set23.i.i248, ptr %63, align 8
  invoke void @_ZN4cvc58internal4expr9NodeValue20markRefCountMaxedOutEv(ptr noundef nonnull align 8 dereferenceable(16) %63)
          to label %invoke.cont75 unwind label %lpad72

invoke.cont75:                                    ; preds = %if.else.i.i245, %if.then.i5.i249, %invoke.cont73, %if.then13.i4.i247
  %65 = load ptr, ptr %ref.tmp60, align 8
  %bf.load.i.i257 = load i64, ptr %65, align 8
  %66 = and i64 %bf.load.i.i257, 1152920405095219200
  %cmp.not.i.i258 = icmp eq i64 %66, 1152920405095219200
  br i1 %cmp.not.i.i258, label %_ZN4cvc58internal12NodeTemplateILb1EED2Ev.exit, label %if.then.i.i259

if.then.i.i259:                                   ; preds = %invoke.cont75
  %bf.value.i.i260 = add i64 %bf.load.i.i257, 1152920405095219200
  %bf.shl.i.i261 = and i64 %bf.value.i.i260, 1152920405095219200
  %bf.clear7.i.i262 = and i64 %bf.load.i.i257, -1152920405095219201
  %bf.set.i.i263 = or disjoint i64 %bf.shl.i.i261, %bf.clear7.i.i262
  store i64 %bf.set.i.i263, ptr %65, align 8
  %cmp12.i.i264 = icmp eq i64 %bf.shl.i.i261, 0
  br i1 %cmp12.i.i264, label %if.then13.i.i266, label %_ZN4cvc58internal12NodeTemplateILb1EED2Ev.exit

if.then13.i.i266:                                 ; preds = %if.then.i.i259
  invoke void @_ZN4cvc58internal4expr9NodeValue15markForDeletionEv(ptr noundef nonnull align 8 dereferenceable(16) %65)
          to label %_ZN4cvc58internal12NodeTemplateILb1EED2Ev.exit unwind label %terminate.lpad.i267

terminate.lpad.i267:                              ; preds = %if.then13.i.i266
  %67 = landingpad { ptr, i32 }
          catch ptr null
  %68 = extractvalue { ptr, i32 } %67, 0
  call void @__clang_call_terminate(ptr %68) #23
  unreachable

_ZN4cvc58internal12NodeTemplateILb1EED2Ev.exit:   ; preds = %invoke.cont75, %if.then.i.i259, %if.then13.i.i266
  call void @_ZNSt7__cxx1112basic_stringIcSt11char_traitsIcESaIcEED1Ev(ptr noundef nonnull align 8 dereferenceable(32) %ref.tmp64) #21
  call void @_ZNSaIcED1Ev(ptr noundef nonnull align 1 dereferenceable(1) %ref.tmp65) #21
  %bf.load.i.i268 = load i64, ptr %53, align 8
  %69 = and i64 %bf.load.i.i268, 1152920405095219200
  %cmp.not.i.i269 = icmp eq i64 %69, 1152920405095219200
  br i1 %cmp.not.i.i269, label %_ZN4cvc58internal8TypeNodeD2Ev.exit279, label %if.then.i.i270

if.then.i.i270:                                   ; preds = %_ZN4cvc58internal12NodeTemplateILb1EED2Ev.exit
  %bf.value.i.i271 = add i64 %bf.load.i.i268, 1152920405095219200
  %bf.shl.i.i272 = and i64 %bf.value.i.i271, 1152920405095219200
  %bf.clear7.i.i273 = and i64 %bf.load.i.i268, -1152920405095219201
  %bf.set.i.i274 = or disjoint i64 %bf.shl.i.i272, %bf.clear7.i.i273
  store i64 %bf.set.i.i274, ptr %53, align 8
  %cmp12.i.i275 = icmp eq i64 %bf.shl.i.i272, 0
  br i1 %cmp12.i.i275, label %if.then13.i.i277, label %_ZN4cvc58internal8TypeNodeD2Ev.exit279

if.then13.i.i277:                                 ; preds = %if.then.i.i270
  invoke void @_ZN4cvc58internal4expr9NodeValue15markForDeletionEv(ptr noundef nonnull align 8 dereferenceable(16) %53)
          to label %_ZN4cvc58internal8TypeNodeD2Ev.exit279 unwind label %terminate.lpad.i278

terminate.lpad.i278:                              ; preds = %if.then13.i.i277
  %70 = landingpad { ptr, i32 }
          catch ptr null
  %71 = extractvalue { ptr, i32 } %70, 0
  call void @__clang_call_terminate(ptr %71) #23
  unreachable

_ZN4cvc58internal8TypeNodeD2Ev.exit279:           ; preds = %_ZN4cvc58internal12NodeTemplateILb1EED2Ev.exit, %if.then.i.i270, %if.then13.i.i277
  invoke void @_ZN4cvc58internal11NodeManager11integerTypeEv(ptr nonnull sret(%"class.cvc5::internal::TypeNode") align 8 %intType, ptr noundef nonnull align 8 dereferenceable(3360) %call)
          to label %invoke.cont81 unwind label %lpad62

invoke.cont81:                                    ; preds = %_ZN4cvc58internal8TypeNodeD2Ev.exit279
  %72 = load ptr, ptr %d_sortType, align 8
  store ptr %72, ptr %ref.tmp84, align 8
  %bf.load.i.i280 = load i64, ptr %72, align 8
  %bf.lshr.i.i281 = lshr i64 %bf.load.i.i280, 40
  %73 = trunc i64 %bf.lshr.i.i281 to i32
  %bf.cast.i.i282 = and i32 %73, 1048575
  %cmp.i.i283 = icmp ult i32 %bf.cast.i.i282, 1048574
  br i1 %cmp.i.i283, label %if.then.i.i288, label %if.else.i.i284

if.then.i.i288:                                   ; preds = %invoke.cont81
  %bf.value.i.i289 = add i64 %bf.load.i.i280, 1099511627776
  %bf.shl.i.i290 = and i64 %bf.value.i.i289, 1152920405095219200
  %bf.clear7.i.i291 = and i64 %bf.load.i.i280, -1152920405095219201
  %bf.set.i.i292 = or disjoint i64 %bf.shl.i.i290, %bf.clear7.i.i291
  store i64 %bf.set.i.i292, ptr %72, align 8
  br label %invoke.cont89

if.else.i.i284:                                   ; preds = %invoke.cont81
  %cmp12.i.i285 = icmp eq i32 %bf.cast.i.i282, 1048574
  br i1 %cmp12.i.i285, label %if.then13.i.i286, label %invoke.cont89

if.then13.i.i286:                                 ; preds = %if.else.i.i284
  %bf.set23.i.i287 = or i64 %bf.load.i.i280, 1152920405095219200
  store i64 %bf.set23.i.i287, ptr %72, align 8
  invoke void @_ZN4cvc58internal4expr9NodeValue20markRefCountMaxedOutEv(ptr noundef nonnull align 8 dereferenceable(16) %72)
          to label %invoke.cont89 unwind label %lpad88.thread

lpad88.thread:                                    ; preds = %if.then13.i.i286
  %74 = landingpad { ptr, i32 }
          cleanup
  br label %ehcleanup297

invoke.cont89:                                    ; preds = %if.else.i.i284, %if.then.i.i288, %if.then13.i.i286
  %arrayinit.element90 = getelementptr inbounds %"class.cvc5::internal::TypeNode", ptr %ref.tmp84, i64 1
  %75 = load ptr, ptr %d_sortType, align 8
  store ptr %75, ptr %arrayinit.element90, align 8
  %bf.load.i.i295 = load i64, ptr %75, align 8
  %bf.lshr.i.i296 = lshr i64 %bf.load.i.i295, 40
  %76 = trunc i64 %bf.lshr.i.i296 to i32
  %bf.cast.i.i297 = and i32 %76, 1048575
  %cmp.i.i298 = icmp ult i32 %bf.cast.i.i297, 1048574
  br i1 %cmp.i.i298, label %if.then.i.i303, label %if.else.i.i299

if.then.i.i303:                                   ; preds = %invoke.cont89
  %bf.value.i.i304 = add i64 %bf.load.i.i295, 1099511627776
  %bf.shl.i.i305 = and i64 %bf.value.i.i304, 1152920405095219200
  %bf.clear7.i.i306 = and i64 %bf.load.i.i295, -1152920405095219201
  %bf.set.i.i307 = or disjoint i64 %bf.shl.i.i305, %bf.clear7.i.i306
  store i64 %bf.set.i.i307, ptr %75, align 8
  br label %invoke.cont92

if.else.i.i299:                                   ; preds = %invoke.cont89
  %cmp12.i.i300 = icmp eq i32 %bf.cast.i.i297, 1048574
  br i1 %cmp12.i.i300, label %if.then13.i.i301, label %invoke.cont92

if.then13.i.i301:                                 ; preds = %if.else.i.i299
  %bf.set23.i.i302 = or i64 %bf.load.i.i295, 1152920405095219200
  store i64 %bf.set23.i.i302, ptr %75, align 8
  invoke void @_ZN4cvc58internal4expr9NodeValue20markRefCountMaxedOutEv(ptr noundef nonnull align 8 dereferenceable(16) %75)
          to label %invoke.cont92 unwind label %lpad88

invoke.cont92:                                    ; preds = %if.else.i.i299, %if.then.i.i303, %if.then13.i.i301
  call void @llvm.memset.p0.i64(ptr noundef nonnull align 8 dereferenceable(24) %ref.tmp82, i8 0, i64 24, i1 false)
  %add.ptr.i.i310 = getelementptr inbounds %"class.cvc5::internal::TypeNode", ptr %ref.tmp84, i64 2
  %call5.i.i.i.i2.i311 = invoke noalias noundef nonnull dereferenceable(16) ptr @_Znwm(i64 noundef 16) #22
          to label %_ZNSt12_Vector_baseIN4cvc58internal8TypeNodeESaIS2_EE11_M_allocateEm.exit.i.i316 unwind label %lpad.i312

_ZNSt12_Vector_baseIN4cvc58internal8TypeNodeESaIS2_EE11_M_allocateEm.exit.i.i316: ; preds = %invoke.cont92
  store ptr %call5.i.i.i.i2.i311, ptr %ref.tmp82, align 8
  %add.ptr.i1.i317 = getelementptr inbounds %"class.cvc5::internal::TypeNode", ptr %call5.i.i.i.i2.i311, i64 2
  %_M_end_of_storage.i.i318 = getelementptr inbounds %"struct.std::_Vector_base<cvc5::internal::TypeNode, std::allocator<cvc5::internal::TypeNode>>::_Vector_impl_data", ptr %ref.tmp82, i64 0, i32 2
  store ptr %add.ptr.i1.i317, ptr %_M_end_of_storage.i.i318, align 8
  %call.i.i.i.i3.i319 = invoke noundef ptr @_ZSt16__do_uninit_copyIPKN4cvc58internal8TypeNodeEPS2_ET0_T_S7_S6_(ptr noundef nonnull %ref.tmp84, ptr noundef nonnull %add.ptr.i.i310, ptr noundef nonnull %call5.i.i.i.i2.i311)
          to label %invoke.cont105 unwind label %lpad.i312

lpad.i312:                                        ; preds = %_ZNSt12_Vector_baseIN4cvc58internal8TypeNodeESaIS2_EE11_M_allocateEm.exit.i.i316, %invoke.cont92
  %77 = landingpad { ptr, i32 }
          cleanup
  %78 = load ptr, ptr %ref.tmp82, align 8
  %tobool.not.i.i.i313 = icmp eq ptr %78, null
  br i1 %tobool.not.i.i.i313, label %ehcleanup110, label %if.then.i.i4.i314

if.then.i.i4.i314:                                ; preds = %lpad.i312
  call void @_ZdlPv(ptr noundef nonnull %78) #24
  br label %ehcleanup110

invoke.cont105:                                   ; preds = %_ZNSt12_Vector_baseIN4cvc58internal8TypeNodeESaIS2_EE11_M_allocateEm.exit.i.i316
  %_M_finish.i.i321 = getelementptr inbounds %"struct.std::_Vector_base<cvc5::internal::TypeNode, std::allocator<cvc5::internal::TypeNode>>::_Vector_impl_data", ptr %ref.tmp82, i64 0, i32 1
  store ptr %call.i.i.i.i3.i319, ptr %_M_finish.i.i321, align 8
  invoke void @_ZN4cvc58internal11NodeManager14mkFunctionTypeERKSt6vectorINS0_8TypeNodeESaIS3_EERKS3_(ptr nonnull sret(%"class.cvc5::internal::TypeNode") align 8 %arrType, ptr noundef nonnull align 8 dereferenceable(3360) %call, ptr noundef nonnull align 8 dereferenceable(24) %ref.tmp82, ptr noundef nonnull align 8 dereferenceable(8) %d_sortType)
          to label %invoke.cont108 unwind label %lpad107

invoke.cont108:                                   ; preds = %invoke.cont105
  %79 = load ptr, ptr %ref.tmp82, align 8
  %80 = load ptr, ptr %_M_finish.i.i321, align 8
  %cmp.not3.i.i.i.i325 = icmp eq ptr %79, %80
  br i1 %cmp.not3.i.i.i.i325, label %invoke.cont.i341, label %for.body.i.i.i.i326

for.body.i.i.i.i326:                              ; preds = %invoke.cont108, %_ZSt8_DestroyIN4cvc58internal8TypeNodeEEvPT_.exit.i.i.i.i336
  %__first.addr.04.i.i.i.i327 = phi ptr [ %incdec.ptr.i.i.i.i337, %_ZSt8_DestroyIN4cvc58internal8TypeNodeEEvPT_.exit.i.i.i.i336 ], [ %79, %invoke.cont108 ]
  %81 = load ptr, ptr %__first.addr.04.i.i.i.i327, align 8
  %bf.load.i.i.i.i.i.i.i328 = load i64, ptr %81, align 8
  %82 = and i64 %bf.load.i.i.i.i.i.i.i328, 1152920405095219200
  %cmp.not.i.i.i.i.i.i.i329 = icmp eq i64 %82, 1152920405095219200
  br i1 %cmp.not.i.i.i.i.i.i.i329, label %_ZSt8_DestroyIN4cvc58internal8TypeNodeEEvPT_.exit.i.i.i.i336, label %if.then.i.i.i.i.i.i.i330

if.then.i.i.i.i.i.i.i330:                         ; preds = %for.body.i.i.i.i326
  %bf.value.i.i.i.i.i.i.i331 = add i64 %bf.load.i.i.i.i.i.i.i328, 1152920405095219200
  %bf.shl.i.i.i.i.i.i.i332 = and i64 %bf.value.i.i.i.i.i.i.i331, 1152920405095219200
  %bf.clear7.i.i.i.i.i.i.i333 = and i64 %bf.load.i.i.i.i.i.i.i328, -1152920405095219201
  %bf.set.i.i.i.i.i.i.i334 = or disjoint i64 %bf.shl.i.i.i.i.i.i.i332, %bf.clear7.i.i.i.i.i.i.i333
  store i64 %bf.set.i.i.i.i.i.i.i334, ptr %81, align 8
  %cmp12.i.i.i.i.i.i.i335 = icmp eq i64 %bf.shl.i.i.i.i.i.i.i332, 0
  br i1 %cmp12.i.i.i.i.i.i.i335, label %if.then13.i.i.i.i.i.i.i345, label %_ZSt8_DestroyIN4cvc58internal8TypeNodeEEvPT_.exit.i.i.i.i336

if.then13.i.i.i.i.i.i.i345:                       ; preds = %if.then.i.i.i.i.i.i.i330
  invoke void @_ZN4cvc58internal4expr9NodeValue15markForDeletionEv(ptr noundef nonnull align 8 dereferenceable(16) %81)
          to label %_ZSt8_DestroyIN4cvc58internal8TypeNodeEEvPT_.exit.i.i.i.i336 unwind label %terminate.lpad.i.i.i.i.i.i346

terminate.lpad.i.i.i.i.i.i346:                    ; preds = %if.then13.i.i.i.i.i.i.i345
  %83 = landingpad { ptr, i32 }
          catch ptr null
  %84 = extractvalue { ptr, i32 } %83, 0
  call void @__clang_call_terminate(ptr %84) #23
  unreachable

_ZSt8_DestroyIN4cvc58internal8TypeNodeEEvPT_.exit.i.i.i.i336: ; preds = %if.then13.i.i.i.i.i.i.i345, %if.then.i.i.i.i.i.i.i330, %for.body.i.i.i.i326
  %incdec.ptr.i.i.i.i337 = getelementptr inbounds %"class.cvc5::internal::TypeNode", ptr %__first.addr.04.i.i.i.i327, i64 1
  %cmp.not.i.i.i.i338 = icmp eq ptr %incdec.ptr.i.i.i.i337, %80
  br i1 %cmp.not.i.i.i.i338, label %invoke.contthread-pre-split.i339, label %for.body.i.i.i.i326, !llvm.loop !5

invoke.contthread-pre-split.i339:                 ; preds = %_ZSt8_DestroyIN4cvc58internal8TypeNodeEEvPT_.exit.i.i.i.i336
  %.pr.i340 = load ptr, ptr %ref.tmp82, align 8
  br label %invoke.cont.i341

invoke.cont.i341:                                 ; preds = %invoke.contthread-pre-split.i339, %invoke.cont108
  %85 = phi ptr [ %.pr.i340, %invoke.contthread-pre-split.i339 ], [ %79, %invoke.cont108 ]
  %tobool.not.i.i.i342 = icmp eq ptr %85, null
  br i1 %tobool.not.i.i.i342, label %arraydestroy.body112.preheader, label %if.then.i.i.i343

if.then.i.i.i343:                                 ; preds = %invoke.cont.i341
  call void @_ZdlPv(ptr noundef nonnull %85) #24
  br label %arraydestroy.body112.preheader

arraydestroy.body112.preheader:                   ; preds = %invoke.cont.i341, %if.then.i.i.i343
  br label %arraydestroy.body112

arraydestroy.body112:                             ; preds = %arraydestroy.body112.preheader, %_ZN4cvc58internal8TypeNodeD2Ev.exit359
  %arraydestroy.elementPast113 = phi ptr [ %arraydestroy.element114, %_ZN4cvc58internal8TypeNodeD2Ev.exit359 ], [ %add.ptr.i.i310, %arraydestroy.body112.preheader ]
  %arraydestroy.element114 = getelementptr inbounds %"class.cvc5::internal::TypeNode", ptr %arraydestroy.elementPast113, i64 -1
  %86 = load ptr, ptr %arraydestroy.element114, align 8
  %bf.load.i.i348 = load i64, ptr %86, align 8
  %87 = and i64 %bf.load.i.i348, 1152920405095219200
  %cmp.not.i.i349 = icmp eq i64 %87, 1152920405095219200
  br i1 %cmp.not.i.i349, label %_ZN4cvc58internal8TypeNodeD2Ev.exit359, label %if.then.i.i350

if.then.i.i350:                                   ; preds = %arraydestroy.body112
  %bf.value.i.i351 = add i64 %bf.load.i.i348, 1152920405095219200
  %bf.shl.i.i352 = and i64 %bf.value.i.i351, 1152920405095219200
  %bf.clear7.i.i353 = and i64 %bf.load.i.i348, -1152920405095219201
  %bf.set.i.i354 = or disjoint i64 %bf.shl.i.i352, %bf.clear7.i.i353
  store i64 %bf.set.i.i354, ptr %86, align 8
  %cmp12.i.i355 = icmp eq i64 %bf.shl.i.i352, 0
  br i1 %cmp12.i.i355, label %if.then13.i.i357, label %_ZN4cvc58internal8TypeNodeD2Ev.exit359

if.then13.i.i357:                                 ; preds = %if.then.i.i350
  invoke void @_ZN4cvc58internal4expr9NodeValue15markForDeletionEv(ptr noundef nonnull align 8 dereferenceable(16) %86)
          to label %_ZN4cvc58internal8TypeNodeD2Ev.exit359 unwind label %terminate.lpad.i358

terminate.lpad.i358:                              ; preds = %if.then13.i.i357
  %88 = landingpad { ptr, i32 }
          catch ptr null
  %89 = extractvalue { ptr, i32 } %88, 0
  call void @__clang_call_terminate(ptr %89) #23
  unreachable

_ZN4cvc58internal8TypeNodeD2Ev.exit359:           ; preds = %arraydestroy.body112, %if.then.i.i350, %if.then13.i.i357
  %arraydestroy.done115 = icmp eq ptr %arraydestroy.element114, %ref.tmp84
  br i1 %arraydestroy.done115, label %arraydestroy.done116, label %arraydestroy.body112

arraydestroy.done116:                             ; preds = %_ZN4cvc58internal8TypeNodeD2Ev.exit359
  %90 = load ptr, ptr %arrType, align 8
  store ptr %90, ptr %agg.tmp125, align 8
  %bf.load.i.i360 = load i64, ptr %90, align 8
  %bf.lshr.i.i361 = lshr i64 %bf.load.i.i360, 40
  %91 = trunc i64 %bf.lshr.i.i361 to i32
  %bf.cast.i.i362 = and i32 %91, 1048575
  %cmp.i.i363 = icmp ult i32 %bf.cast.i.i362, 1048574
  br i1 %cmp.i.i363, label %if.then.i.i368, label %if.else.i.i364

if.then.i.i368:                                   ; preds = %arraydestroy.done116
  %bf.value.i.i369 = add i64 %bf.load.i.i360, 1099511627776
  %bf.shl.i.i370 = and i64 %bf.value.i.i369, 1152920405095219200
  %bf.clear7.i.i371 = and i64 %bf.load.i.i360, -1152920405095219201
  %bf.set.i.i372 = or disjoint i64 %bf.shl.i.i370, %bf.clear7.i.i371
  store i64 %bf.set.i.i372, ptr %90, align 8
  br label %invoke.cont127

if.else.i.i364:                                   ; preds = %arraydestroy.done116
  %cmp12.i.i365 = icmp eq i32 %bf.cast.i.i362, 1048574
  br i1 %cmp12.i.i365, label %if.then13.i.i366, label %invoke.cont127

if.then13.i.i366:                                 ; preds = %if.else.i.i364
  %bf.set23.i.i367 = or i64 %bf.load.i.i360, 1152920405095219200
  store i64 %bf.set23.i.i367, ptr %90, align 8
  invoke void @_ZN4cvc58internal4expr9NodeValue20markRefCountMaxedOutEv(ptr noundef nonnull align 8 dereferenceable(16) %90)
          to label %invoke.cont127 unwind label %lpad126

invoke.cont127:                                   ; preds = %if.else.i.i364, %if.then.i.i368, %if.then13.i.i366
  call void @_ZNSaIcEC1Ev(ptr noundef nonnull align 1 dereferenceable(1) %ref.tmp129) #21
  %call.i379 = invoke noundef ptr @_ZNSt7__cxx1112basic_stringIcSt11char_traitsIcESaIcEE13_M_local_dataEv(ptr noundef nonnull align 8 dereferenceable(32) %ref.tmp128)
          to label %call.i.noexc378 unwind label %lpad130

call.i.noexc378:                                  ; preds = %invoke.cont127
  invoke void @_ZNSt7__cxx1112basic_stringIcSt11char_traitsIcESaIcEE12_Alloc_hiderC1EPcRKS3_(ptr noundef nonnull align 8 dereferenceable(8) %ref.tmp128, ptr noundef %call.i379, ptr noundef nonnull align 1 dereferenceable(1) %ref.tmp129)
          to label %.noexc380 unwind label %lpad130

.noexc380:                                        ; preds = %call.i.noexc378
  invoke void @_ZNSt7__cxx1112basic_stringIcSt11char_traitsIcESaIcEE12_M_constructIPKcEEvT_S8_St20forward_iterator_tag(ptr noundef nonnull align 8 dereferenceable(32) %ref.tmp128, ptr noundef nonnull @.str.2, ptr noundef nonnull getelementptr inbounds ([6 x i8], ptr @.str.2, i64 0, i64 5))
          to label %invoke.cont131 unwind label %lpad.i377

lpad.i377:                                        ; preds = %.noexc380
  %92 = landingpad { ptr, i32 }
          cleanup
  call void @_ZNSaIcED2Ev(ptr noundef nonnull align 1 dereferenceable(1) %ref.tmp128) #21
  br label %ehcleanup143

invoke.cont131:                                   ; preds = %.noexc380
  invoke void @_ZN4cvc58internal5proof17LfscNodeConverter17getSymbolInternalENS0_4kind6Kind_tENS0_8TypeNodeERKNSt7__cxx1112basic_stringIcSt11char_traitsIcESaIcEEEb(ptr nonnull sret(%"class.cvc5::internal::NodeTemplate") align 8 %ref.tmp124, ptr noundef nonnull align 8 dereferenceable(760) %this, i32 noundef 25, ptr noundef nonnull %agg.tmp125, ptr noundef nonnull align 8 dereferenceable(32) %ref.tmp128, i1 noundef zeroext true)
          to label %invoke.cont133 unwind label %lpad132

invoke.cont133:                                   ; preds = %invoke.cont131
  store i32 207, ptr %ref.tmp135, align 4
  call void @llvm.lifetime.start.p0(i64 8, ptr nonnull %ref.tmp9.i383)
  call void @llvm.lifetime.start.p0(i64 1, ptr nonnull %ref.tmp10.i384)
  %93 = load ptr, ptr %_M_parent.i.i.i.i.i80, align 8
  %cmp.not5.i.i.i.i387 = icmp eq ptr %93, null
  br i1 %cmp.not5.i.i.i.i387, label %if.then.i404, label %while.body.i.i.i.i389

while.body.i.i.i.i389:                            ; preds = %invoke.cont133, %while.body.i.i.i.i389
  %__x.addr.07.i.i.i.i390 = phi ptr [ %__x.addr.1.i.i.i.i397, %while.body.i.i.i.i389 ], [ %93, %invoke.cont133 ]
  %__y.addr.06.i.i.i.i391 = phi ptr [ %__y.addr.1.i.i.i.i395, %while.body.i.i.i.i389 ], [ %14, %invoke.cont133 ]
  %_M_storage.i.i.i.i.i.i392 = getelementptr inbounds %"struct.std::_Rb_tree_node", ptr %__x.addr.07.i.i.i.i390, i64 0, i32 1
  %94 = load i32, ptr %_M_storage.i.i.i.i.i.i392, align 4
  %cmp.i.i.i.i.i = icmp slt i32 %94, 207
  %_M_right.i.i.i.i.i393 = getelementptr inbounds %"struct.std::_Rb_tree_node_base", ptr %__x.addr.07.i.i.i.i390, i64 0, i32 3
  %_M_left.i.i.i.i.i394 = getelementptr inbounds %"struct.std::_Rb_tree_node_base", ptr %__x.addr.07.i.i.i.i390, i64 0, i32 2
  %__y.addr.1.i.i.i.i395 = select i1 %cmp.i.i.i.i.i, ptr %__y.addr.06.i.i.i.i391, ptr %__x.addr.07.i.i.i.i390
  %__x.addr.1.in.i.i.i.i396 = select i1 %cmp.i.i.i.i.i, ptr %_M_right.i.i.i.i.i393, ptr %_M_left.i.i.i.i.i394
  %__x.addr.1.i.i.i.i397 = load ptr, ptr %__x.addr.1.in.i.i.i.i396, align 8
  %cmp.not.i.i.i.i398 = icmp eq ptr %__x.addr.1.i.i.i.i397, null
  br i1 %cmp.not.i.i.i.i398, label %_ZNSt3mapIN4cvc58internal4kind6Kind_tENS1_12NodeTemplateILb1EEESt4lessIS3_ESaISt4pairIKS3_S5_EEE11lower_boundERS9_.exit.i, label %while.body.i.i.i.i389, !llvm.loop !8

_ZNSt3mapIN4cvc58internal4kind6Kind_tENS1_12NodeTemplateILb1EEESt4lessIS3_ESaISt4pairIKS3_S5_EEE11lower_boundERS9_.exit.i: ; preds = %while.body.i.i.i.i389
  %cmp.i.i399 = icmp eq ptr %__y.addr.1.i.i.i.i395, %14
  br i1 %cmp.i.i399, label %if.then.i404, label %lor.rhs.i400

lor.rhs.i400:                                     ; preds = %_ZNSt3mapIN4cvc58internal4kind6Kind_tENS1_12NodeTemplateILb1EEESt4lessIS3_ESaISt4pairIKS3_S5_EEE11lower_boundERS9_.exit.i
  %_M_storage.i.i.i401 = getelementptr inbounds %"struct.std::_Rb_tree_node", ptr %__y.addr.1.i.i.i.i395, i64 0, i32 1
  %95 = load i32, ptr %_M_storage.i.i.i401, align 4
  %cmp.i3.i = icmp sgt i32 %95, 207
  br i1 %cmp.i3.i, label %if.then.i404, label %invoke.cont137

if.then.i404:                                     ; preds = %lor.rhs.i400, %_ZNSt3mapIN4cvc58internal4kind6Kind_tENS1_12NodeTemplateILb1EEESt4lessIS3_ESaISt4pairIKS3_S5_EEE11lower_boundERS9_.exit.i, %invoke.cont133
  %__y.addr.0.lcssa.i.i.i10.i = phi ptr [ %14, %_ZNSt3mapIN4cvc58internal4kind6Kind_tENS1_12NodeTemplateILb1EEESt4lessIS3_ESaISt4pairIKS3_S5_EEE11lower_boundERS9_.exit.i ], [ %__y.addr.1.i.i.i.i395, %lor.rhs.i400 ], [ %14, %invoke.cont133 ]
  store ptr %ref.tmp135, ptr %ref.tmp9.i383, align 8, !alias.scope !9
  %call12.i406 = invoke ptr @_ZNSt8_Rb_treeIN4cvc58internal4kind6Kind_tESt4pairIKS3_NS1_12NodeTemplateILb1EEEESt10_Select1stIS8_ESt4lessIS3_ESaIS8_EE22_M_emplace_hint_uniqueIJRKSt21piecewise_construct_tSt5tupleIJOS3_EESJ_IJEEEEESt17_Rb_tree_iteratorIS8_ESt23_Rb_tree_const_iteratorIS8_EDpOT_(ptr noundef nonnull align 8 dereferenceable(48) %d_typeKindToNodeCons, ptr %__y.addr.0.lcssa.i.i.i10.i, ptr noundef nonnull align 1 dereferenceable(1) @_ZSt19piecewise_construct, ptr noundef nonnull align 8 dereferenceable(8) %ref.tmp9.i383, ptr noundef nonnull align 1 dereferenceable(1) %ref.tmp10.i384)
          to label %invoke.cont137 unwind label %lpad136

invoke.cont137:                                   ; preds = %lor.rhs.i400, %if.then.i404
  %__i.sroa.0.0.i402 = phi ptr [ %__y.addr.1.i.i.i.i395, %lor.rhs.i400 ], [ %call12.i406, %if.then.i404 ]
  %second.i403 = getelementptr inbounds %"struct.std::_Rb_tree_node", ptr %__i.sroa.0.0.i402, i64 0, i32 1, i32 0, i64 8
  call void @llvm.lifetime.end.p0(i64 8, ptr nonnull %ref.tmp9.i383)
  call void @llvm.lifetime.end.p0(i64 1, ptr nonnull %ref.tmp10.i384)
  %96 = load ptr, ptr %second.i403, align 8
  %97 = load ptr, ptr %ref.tmp124, align 8
  %cmp.not.i407 = icmp eq ptr %96, %97
  br i1 %cmp.not.i407, label %invoke.cont139, label %if.then.i408

if.then.i408:                                     ; preds = %invoke.cont137
  %bf.load.i.i409 = load i64, ptr %96, align 8
  %98 = and i64 %bf.load.i.i409, 1152920405095219200
  %cmp.not.i.i410 = icmp eq i64 %98, 1152920405095219200
  br i1 %cmp.not.i.i410, label %_ZN4cvc58internal4expr9NodeValue3decEv.exit.i417, label %if.then.i.i411

if.then.i.i411:                                   ; preds = %if.then.i408
  %bf.value.i.i412 = add i64 %bf.load.i.i409, 1152920405095219200
  %bf.shl.i.i413 = and i64 %bf.value.i.i412, 1152920405095219200
  %bf.clear7.i.i414 = and i64 %bf.load.i.i409, -1152920405095219201
  %bf.set.i.i415 = or disjoint i64 %bf.shl.i.i413, %bf.clear7.i.i414
  store i64 %bf.set.i.i415, ptr %96, align 8
  %cmp12.i.i416 = icmp eq i64 %bf.shl.i.i413, 0
  br i1 %cmp12.i.i416, label %if.then13.i.i431, label %_ZN4cvc58internal4expr9NodeValue3decEv.exit.i417

if.then13.i.i431:                                 ; preds = %if.then.i.i411
  invoke void @_ZN4cvc58internal4expr9NodeValue15markForDeletionEv(ptr noundef nonnull align 8 dereferenceable(16) %96)
          to label %_ZN4cvc58internal4expr9NodeValue3decEv.exit.i417 unwind label %lpad136

_ZN4cvc58internal4expr9NodeValue3decEv.exit.i417: ; preds = %if.then13.i.i431, %if.then.i.i411, %if.then.i408
  %99 = load ptr, ptr %ref.tmp124, align 8
  store ptr %99, ptr %second.i403, align 8
  %bf.load.i2.i418 = load i64, ptr %99, align 8
  %bf.lshr.i.i419 = lshr i64 %bf.load.i2.i418, 40
  %100 = trunc i64 %bf.lshr.i.i419 to i32
  %bf.cast.i.i420 = and i32 %100, 1048575
  %cmp.i.i421 = icmp ult i32 %bf.cast.i.i420, 1048574
  br i1 %cmp.i.i421, label %if.then.i5.i426, label %if.else.i.i422

if.then.i5.i426:                                  ; preds = %_ZN4cvc58internal4expr9NodeValue3decEv.exit.i417
  %bf.value.i6.i427 = add i64 %bf.load.i2.i418, 1099511627776
  %bf.shl.i7.i428 = and i64 %bf.value.i6.i427, 1152920405095219200
  %bf.clear7.i8.i429 = and i64 %bf.load.i2.i418, -1152920405095219201
  %bf.set.i9.i430 = or disjoint i64 %bf.shl.i7.i428, %bf.clear7.i8.i429
  store i64 %bf.set.i9.i430, ptr %99, align 8
  br label %invoke.cont139

if.else.i.i422:                                   ; preds = %_ZN4cvc58internal4expr9NodeValue3decEv.exit.i417
  %cmp12.i3.i423 = icmp eq i32 %bf.cast.i.i420, 1048574
  br i1 %cmp12.i3.i423, label %if.then13.i4.i424, label %invoke.cont139

if.then13.i4.i424:                                ; preds = %if.else.i.i422
  %bf.set23.i.i425 = or i64 %bf.load.i2.i418, 1152920405095219200
  store i64 %bf.set23.i.i425, ptr %99, align 8
  invoke void @_ZN4cvc58internal4expr9NodeValue20markRefCountMaxedOutEv(ptr noundef nonnull align 8 dereferenceable(16) %99)
          to label %invoke.cont139 unwind label %lpad136

invoke.cont139:                                   ; preds = %if.else.i.i422, %if.then.i5.i426, %invoke.cont137, %if.then13.i4.i424
  %101 = load ptr, ptr %ref.tmp124, align 8
  %bf.load.i.i435 = load i64, ptr %101, align 8
  %102 = and i64 %bf.load.i.i435, 1152920405095219200
  %cmp.not.i.i436 = icmp eq i64 %102, 1152920405095219200
  br i1 %cmp.not.i.i436, label %_ZN4cvc58internal12NodeTemplateILb1EED2Ev.exit446, label %if.then.i.i437

if.then.i.i437:                                   ; preds = %invoke.cont139
  %bf.value.i.i438 = add i64 %bf.load.i.i435, 1152920405095219200
  %bf.shl.i.i439 = and i64 %bf.value.i.i438, 1152920405095219200
  %bf.clear7.i.i440 = and i64 %bf.load.i.i435, -1152920405095219201
  %bf.set.i.i441 = or disjoint i64 %bf.shl.i.i439, %bf.clear7.i.i440
  store i64 %bf.set.i.i441, ptr %101, align 8
  %cmp12.i.i442 = icmp eq i64 %bf.shl.i.i439, 0
  br i1 %cmp12.i.i442, label %if.then13.i.i444, label %_ZN4cvc58internal12NodeTemplateILb1EED2Ev.exit446

if.then13.i.i444:                                 ; preds = %if.then.i.i437
  invoke void @_ZN4cvc58internal4expr9NodeValue15markForDeletionEv(ptr noundef nonnull align 8 dereferenceable(16) %101)
          to label %_ZN4cvc58internal12NodeTemplateILb1EED2Ev.exit446 unwind label %terminate.lpad.i445

terminate.lpad.i445:                              ; preds = %if.then13.i.i444
  %103 = landingpad { ptr, i32 }
          catch ptr null
  %104 = extractvalue { ptr, i32 } %103, 0
  call void @__clang_call_terminate(ptr %104) #23
  unreachable

_ZN4cvc58internal12NodeTemplateILb1EED2Ev.exit446: ; preds = %invoke.cont139, %if.then.i.i437, %if.then13.i.i444
  call void @_ZNSt7__cxx1112basic_stringIcSt11char_traitsIcESaIcEED1Ev(ptr noundef nonnull align 8 dereferenceable(32) %ref.tmp128) #21
  call void @_ZNSaIcED1Ev(ptr noundef nonnull align 1 dereferenceable(1) %ref.tmp129) #21
  %bf.load.i.i447 = load i64, ptr %90, align 8
  %105 = and i64 %bf.load.i.i447, 1152920405095219200
  %cmp.not.i.i448 = icmp eq i64 %105, 1152920405095219200
  br i1 %cmp.not.i.i448, label %_ZN4cvc58internal8TypeNodeD2Ev.exit458, label %if.then.i.i449

if.then.i.i449:                                   ; preds = %_ZN4cvc58internal12NodeTemplateILb1EED2Ev.exit446
  %bf.value.i.i450 = add i64 %bf.load.i.i447, 1152920405095219200
  %bf.shl.i.i451 = and i64 %bf.value.i.i450, 1152920405095219200
  %bf.clear7.i.i452 = and i64 %bf.load.i.i447, -1152920405095219201
  %bf.set.i.i453 = or disjoint i64 %bf.shl.i.i451, %bf.clear7.i.i452
  store i64 %bf.set.i.i453, ptr %90, align 8
  %cmp12.i.i454 = icmp eq i64 %bf.shl.i.i451, 0
  br i1 %cmp12.i.i454, label %if.then13.i.i456, label %_ZN4cvc58internal8TypeNodeD2Ev.exit458

if.then13.i.i456:                                 ; preds = %if.then.i.i449
  invoke void @_ZN4cvc58internal4expr9NodeValue15markForDeletionEv(ptr noundef nonnull align 8 dereferenceable(16) %90)
          to label %_ZN4cvc58internal8TypeNodeD2Ev.exit458 unwind label %terminate.lpad.i457

terminate.lpad.i457:                              ; preds = %if.then13.i.i456
  %106 = landingpad { ptr, i32 }
          catch ptr null
  %107 = extractvalue { ptr, i32 } %106, 0
  call void @__clang_call_terminate(ptr %107) #23
  unreachable

_ZN4cvc58internal8TypeNodeD2Ev.exit458:           ; preds = %_ZN4cvc58internal12NodeTemplateILb1EED2Ev.exit446, %if.then.i.i449, %if.then13.i.i456
  invoke void @_ZN4cvc58internal11NodeManager14mkFunctionTypeERKNS0_8TypeNodeES4_(ptr nonnull sret(%"class.cvc5::internal::TypeNode") align 8 %bvType, ptr noundef nonnull align 8 dereferenceable(3360) %call, ptr noundef nonnull align 8 dereferenceable(8) %intType, ptr noundef nonnull align 8 dereferenceable(8) %d_sortType)
          to label %invoke.cont146 unwind label %lpad126

invoke.cont146:                                   ; preds = %_ZN4cvc58internal8TypeNodeD2Ev.exit458
  %108 = load ptr, ptr %bvType, align 8
  store ptr %108, ptr %agg.tmp148, align 8
  %bf.load.i.i459 = load i64, ptr %108, align 8
  %bf.lshr.i.i460 = lshr i64 %bf.load.i.i459, 40
  %109 = trunc i64 %bf.lshr.i.i460 to i32
  %bf.cast.i.i461 = and i32 %109, 1048575
  %cmp.i.i462 = icmp ult i32 %bf.cast.i.i461, 1048574
  br i1 %cmp.i.i462, label %if.then.i.i467, label %if.else.i.i463

if.then.i.i467:                                   ; preds = %invoke.cont146
  %bf.value.i.i468 = add i64 %bf.load.i.i459, 1099511627776
  %bf.shl.i.i469 = and i64 %bf.value.i.i468, 1152920405095219200
  %bf.clear7.i.i470 = and i64 %bf.load.i.i459, -1152920405095219201
  %bf.set.i.i471 = or disjoint i64 %bf.shl.i.i469, %bf.clear7.i.i470
  store i64 %bf.set.i.i471, ptr %108, align 8
  br label %invoke.cont150

if.else.i.i463:                                   ; preds = %invoke.cont146
  %cmp12.i.i464 = icmp eq i32 %bf.cast.i.i461, 1048574
  br i1 %cmp12.i.i464, label %if.then13.i.i465, label %invoke.cont150

if.then13.i.i465:                                 ; preds = %if.else.i.i463
  %bf.set23.i.i466 = or i64 %bf.load.i.i459, 1152920405095219200
  store i64 %bf.set23.i.i466, ptr %108, align 8
  invoke void @_ZN4cvc58internal4expr9NodeValue20markRefCountMaxedOutEv(ptr noundef nonnull align 8 dereferenceable(16) %108)
          to label %invoke.cont150 unwind label %lpad149

invoke.cont150:                                   ; preds = %if.else.i.i463, %if.then.i.i467, %if.then13.i.i465
  call void @_ZNSaIcEC1Ev(ptr noundef nonnull align 1 dereferenceable(1) %ref.tmp152) #21
  %call.i478 = invoke noundef ptr @_ZNSt7__cxx1112basic_stringIcSt11char_traitsIcESaIcEE13_M_local_dataEv(ptr noundef nonnull align 8 dereferenceable(32) %ref.tmp151)
          to label %call.i.noexc477 unwind label %lpad153

call.i.noexc477:                                  ; preds = %invoke.cont150
  invoke void @_ZNSt7__cxx1112basic_stringIcSt11char_traitsIcESaIcEE12_Alloc_hiderC1EPcRKS3_(ptr noundef nonnull align 8 dereferenceable(8) %ref.tmp151, ptr noundef %call.i478, ptr noundef nonnull align 1 dereferenceable(1) %ref.tmp152)
          to label %.noexc479 unwind label %lpad153

.noexc479:                                        ; preds = %call.i.noexc477
  invoke void @_ZNSt7__cxx1112basic_stringIcSt11char_traitsIcESaIcEE12_M_constructIPKcEEvT_S8_St20forward_iterator_tag(ptr noundef nonnull align 8 dereferenceable(32) %ref.tmp151, ptr noundef nonnull @.str.3, ptr noundef nonnull getelementptr inbounds ([7 x i8], ptr @.str.3, i64 0, i64 6))
          to label %invoke.cont154 unwind label %lpad.i476

lpad.i476:                                        ; preds = %.noexc479
  %110 = landingpad { ptr, i32 }
          cleanup
  call void @_ZNSaIcED2Ev(ptr noundef nonnull align 1 dereferenceable(1) %ref.tmp151) #21
  br label %ehcleanup166

invoke.cont154:                                   ; preds = %.noexc479
  invoke void @_ZN4cvc58internal5proof17LfscNodeConverter17getSymbolInternalENS0_4kind6Kind_tENS0_8TypeNodeERKNSt7__cxx1112basic_stringIcSt11char_traitsIcESaIcEEEb(ptr nonnull sret(%"class.cvc5::internal::NodeTemplate") align 8 %ref.tmp147, ptr noundef nonnull align 8 dereferenceable(760) %this, i32 noundef 25, ptr noundef nonnull %agg.tmp148, ptr noundef nonnull align 8 dereferenceable(32) %ref.tmp151, i1 noundef zeroext true)
          to label %invoke.cont156 unwind label %lpad155

invoke.cont156:                                   ; preds = %invoke.cont154
  store i32 82, ptr %ref.tmp158, align 4
  call void @llvm.lifetime.start.p0(i64 8, ptr nonnull %ref.tmp9.i482)
  call void @llvm.lifetime.start.p0(i64 1, ptr nonnull %ref.tmp10.i483)
  %111 = load ptr, ptr %_M_parent.i.i.i.i.i80, align 8
  %cmp.not5.i.i.i.i486 = icmp eq ptr %111, null
  br i1 %cmp.not5.i.i.i.i486, label %if.then.i506, label %while.body.i.i.i.i488

while.body.i.i.i.i488:                            ; preds = %invoke.cont156, %while.body.i.i.i.i488
  %__x.addr.07.i.i.i.i489 = phi ptr [ %__x.addr.1.i.i.i.i497, %while.body.i.i.i.i488 ], [ %111, %invoke.cont156 ]
  %__y.addr.06.i.i.i.i490 = phi ptr [ %__y.addr.1.i.i.i.i495, %while.body.i.i.i.i488 ], [ %14, %invoke.cont156 ]
  %_M_storage.i.i.i.i.i.i491 = getelementptr inbounds %"struct.std::_Rb_tree_node", ptr %__x.addr.07.i.i.i.i489, i64 0, i32 1
  %112 = load i32, ptr %_M_storage.i.i.i.i.i.i491, align 4
  %cmp.i.i.i.i.i492 = icmp slt i32 %112, 82
  %_M_right.i.i.i.i.i493 = getelementptr inbounds %"struct.std::_Rb_tree_node_base", ptr %__x.addr.07.i.i.i.i489, i64 0, i32 3
  %_M_left.i.i.i.i.i494 = getelementptr inbounds %"struct.std::_Rb_tree_node_base", ptr %__x.addr.07.i.i.i.i489, i64 0, i32 2
  %__y.addr.1.i.i.i.i495 = select i1 %cmp.i.i.i.i.i492, ptr %__y.addr.06.i.i.i.i490, ptr %__x.addr.07.i.i.i.i489
  %__x.addr.1.in.i.i.i.i496 = select i1 %cmp.i.i.i.i.i492, ptr %_M_right.i.i.i.i.i493, ptr %_M_left.i.i.i.i.i494
  %__x.addr.1.i.i.i.i497 = load ptr, ptr %__x.addr.1.in.i.i.i.i496, align 8
  %cmp.not.i.i.i.i498 = icmp eq ptr %__x.addr.1.i.i.i.i497, null
  br i1 %cmp.not.i.i.i.i498, label %_ZNSt3mapIN4cvc58internal4kind6Kind_tENS1_12NodeTemplateILb1EEESt4lessIS3_ESaISt4pairIKS3_S5_EEE11lower_boundERS9_.exit.i499, label %while.body.i.i.i.i488, !llvm.loop !8

_ZNSt3mapIN4cvc58internal4kind6Kind_tENS1_12NodeTemplateILb1EEESt4lessIS3_ESaISt4pairIKS3_S5_EEE11lower_boundERS9_.exit.i499: ; preds = %while.body.i.i.i.i488
  %cmp.i.i500 = icmp eq ptr %__y.addr.1.i.i.i.i495, %14
  br i1 %cmp.i.i500, label %if.then.i506, label %lor.rhs.i501

lor.rhs.i501:                                     ; preds = %_ZNSt3mapIN4cvc58internal4kind6Kind_tENS1_12NodeTemplateILb1EEESt4lessIS3_ESaISt4pairIKS3_S5_EEE11lower_boundERS9_.exit.i499
  %_M_storage.i.i.i502 = getelementptr inbounds %"struct.std::_Rb_tree_node", ptr %__y.addr.1.i.i.i.i495, i64 0, i32 1
  %113 = load i32, ptr %_M_storage.i.i.i502, align 4
  %cmp.i3.i503 = icmp sgt i32 %113, 82
  br i1 %cmp.i3.i503, label %if.then.i506, label %invoke.cont160

if.then.i506:                                     ; preds = %lor.rhs.i501, %_ZNSt3mapIN4cvc58internal4kind6Kind_tENS1_12NodeTemplateILb1EEESt4lessIS3_ESaISt4pairIKS3_S5_EEE11lower_boundERS9_.exit.i499, %invoke.cont156
  %__y.addr.0.lcssa.i.i.i10.i507 = phi ptr [ %14, %_ZNSt3mapIN4cvc58internal4kind6Kind_tENS1_12NodeTemplateILb1EEESt4lessIS3_ESaISt4pairIKS3_S5_EEE11lower_boundERS9_.exit.i499 ], [ %__y.addr.1.i.i.i.i495, %lor.rhs.i501 ], [ %14, %invoke.cont156 ]
  store ptr %ref.tmp158, ptr %ref.tmp9.i482, align 8, !alias.scope !12
  %call12.i509 = invoke ptr @_ZNSt8_Rb_treeIN4cvc58internal4kind6Kind_tESt4pairIKS3_NS1_12NodeTemplateILb1EEEESt10_Select1stIS8_ESt4lessIS3_ESaIS8_EE22_M_emplace_hint_uniqueIJRKSt21piecewise_construct_tSt5tupleIJOS3_EESJ_IJEEEEESt17_Rb_tree_iteratorIS8_ESt23_Rb_tree_const_iteratorIS8_EDpOT_(ptr noundef nonnull align 8 dereferenceable(48) %d_typeKindToNodeCons, ptr %__y.addr.0.lcssa.i.i.i10.i507, ptr noundef nonnull align 1 dereferenceable(1) @_ZSt19piecewise_construct, ptr noundef nonnull align 8 dereferenceable(8) %ref.tmp9.i482, ptr noundef nonnull align 1 dereferenceable(1) %ref.tmp10.i483)
          to label %invoke.cont160 unwind label %lpad159

invoke.cont160:                                   ; preds = %lor.rhs.i501, %if.then.i506
  %__i.sroa.0.0.i504 = phi ptr [ %__y.addr.1.i.i.i.i495, %lor.rhs.i501 ], [ %call12.i509, %if.then.i506 ]
  %second.i505 = getelementptr inbounds %"struct.std::_Rb_tree_node", ptr %__i.sroa.0.0.i504, i64 0, i32 1, i32 0, i64 8
  call void @llvm.lifetime.end.p0(i64 8, ptr nonnull %ref.tmp9.i482)
  call void @llvm.lifetime.end.p0(i64 1, ptr nonnull %ref.tmp10.i483)
  %114 = load ptr, ptr %second.i505, align 8
  %115 = load ptr, ptr %ref.tmp147, align 8
  %cmp.not.i511 = icmp eq ptr %114, %115
  br i1 %cmp.not.i511, label %invoke.cont162, label %if.then.i512

if.then.i512:                                     ; preds = %invoke.cont160
  %bf.load.i.i513 = load i64, ptr %114, align 8
  %116 = and i64 %bf.load.i.i513, 1152920405095219200
  %cmp.not.i.i514 = icmp eq i64 %116, 1152920405095219200
  br i1 %cmp.not.i.i514, label %_ZN4cvc58internal4expr9NodeValue3decEv.exit.i521, label %if.then.i.i515

if.then.i.i515:                                   ; preds = %if.then.i512
  %bf.value.i.i516 = add i64 %bf.load.i.i513, 1152920405095219200
  %bf.shl.i.i517 = and i64 %bf.value.i.i516, 1152920405095219200
  %bf.clear7.i.i518 = and i64 %bf.load.i.i513, -1152920405095219201
  %bf.set.i.i519 = or disjoint i64 %bf.shl.i.i517, %bf.clear7.i.i518
  store i64 %bf.set.i.i519, ptr %114, align 8
  %cmp12.i.i520 = icmp eq i64 %bf.shl.i.i517, 0
  br i1 %cmp12.i.i520, label %if.then13.i.i535, label %_ZN4cvc58internal4expr9NodeValue3decEv.exit.i521

if.then13.i.i535:                                 ; preds = %if.then.i.i515
  invoke void @_ZN4cvc58internal4expr9NodeValue15markForDeletionEv(ptr noundef nonnull align 8 dereferenceable(16) %114)
          to label %_ZN4cvc58internal4expr9NodeValue3decEv.exit.i521 unwind label %lpad159

_ZN4cvc58internal4expr9NodeValue3decEv.exit.i521: ; preds = %if.then13.i.i535, %if.then.i.i515, %if.then.i512
  %117 = load ptr, ptr %ref.tmp147, align 8
  store ptr %117, ptr %second.i505, align 8
  %bf.load.i2.i522 = load i64, ptr %117, align 8
  %bf.lshr.i.i523 = lshr i64 %bf.load.i2.i522, 40
  %118 = trunc i64 %bf.lshr.i.i523 to i32
  %bf.cast.i.i524 = and i32 %118, 1048575
  %cmp.i.i525 = icmp ult i32 %bf.cast.i.i524, 1048574
  br i1 %cmp.i.i525, label %if.then.i5.i530, label %if.else.i.i526

if.then.i5.i530:                                  ; preds = %_ZN4cvc58internal4expr9NodeValue3decEv.exit.i521
  %bf.value.i6.i531 = add i64 %bf.load.i2.i522, 1099511627776
  %bf.shl.i7.i532 = and i64 %bf.value.i6.i531, 1152920405095219200
  %bf.clear7.i8.i533 = and i64 %bf.load.i2.i522, -1152920405095219201
  %bf.set.i9.i534 = or disjoint i64 %bf.shl.i7.i532, %bf.clear7.i8.i533
  store i64 %bf.set.i9.i534, ptr %117, align 8
  br label %invoke.cont162

if.else.i.i526:                                   ; preds = %_ZN4cvc58internal4expr9NodeValue3decEv.exit.i521
  %cmp12.i3.i527 = icmp eq i32 %bf.cast.i.i524, 1048574
  br i1 %cmp12.i3.i527, label %if.then13.i4.i528, label %invoke.cont162

if.then13.i4.i528:                                ; preds = %if.else.i.i526
  %bf.set23.i.i529 = or i64 %bf.load.i2.i522, 1152920405095219200
  store i64 %bf.set23.i.i529, ptr %117, align 8
  invoke void @_ZN4cvc58internal4expr9NodeValue20markRefCountMaxedOutEv(ptr noundef nonnull align 8 dereferenceable(16) %117)
          to label %invoke.cont162 unwind label %lpad159

invoke.cont162:                                   ; preds = %if.else.i.i526, %if.then.i5.i530, %invoke.cont160, %if.then13.i4.i528
  %119 = load ptr, ptr %ref.tmp147, align 8
  %bf.load.i.i539 = load i64, ptr %119, align 8
  %120 = and i64 %bf.load.i.i539, 1152920405095219200
  %cmp.not.i.i540 = icmp eq i64 %120, 1152920405095219200
  br i1 %cmp.not.i.i540, label %_ZN4cvc58internal12NodeTemplateILb1EED2Ev.exit550, label %if.then.i.i541

if.then.i.i541:                                   ; preds = %invoke.cont162
  %bf.value.i.i542 = add i64 %bf.load.i.i539, 1152920405095219200
  %bf.shl.i.i543 = and i64 %bf.value.i.i542, 1152920405095219200
  %bf.clear7.i.i544 = and i64 %bf.load.i.i539, -1152920405095219201
  %bf.set.i.i545 = or disjoint i64 %bf.shl.i.i543, %bf.clear7.i.i544
  store i64 %bf.set.i.i545, ptr %119, align 8
  %cmp12.i.i546 = icmp eq i64 %bf.shl.i.i543, 0
  br i1 %cmp12.i.i546, label %if.then13.i.i548, label %_ZN4cvc58internal12NodeTemplateILb1EED2Ev.exit550

if.then13.i.i548:                                 ; preds = %if.then.i.i541
  invoke void @_ZN4cvc58internal4expr9NodeValue15markForDeletionEv(ptr noundef nonnull align 8 dereferenceable(16) %119)
          to label %_ZN4cvc58internal12NodeTemplateILb1EED2Ev.exit550 unwind label %terminate.lpad.i549

terminate.lpad.i549:                              ; preds = %if.then13.i.i548
  %121 = landingpad { ptr, i32 }
          catch ptr null
  %122 = extractvalue { ptr, i32 } %121, 0
  call void @__clang_call_terminate(ptr %122) #23
  unreachable

_ZN4cvc58internal12NodeTemplateILb1EED2Ev.exit550: ; preds = %invoke.cont162, %if.then.i.i541, %if.then13.i.i548
  call void @_ZNSt7__cxx1112basic_stringIcSt11char_traitsIcESaIcEED1Ev(ptr noundef nonnull align 8 dereferenceable(32) %ref.tmp151) #21
  call void @_ZNSaIcED1Ev(ptr noundef nonnull align 1 dereferenceable(1) %ref.tmp152) #21
  %bf.load.i.i551 = load i64, ptr %108, align 8
  %123 = and i64 %bf.load.i.i551, 1152920405095219200
  %cmp.not.i.i552 = icmp eq i64 %123, 1152920405095219200
  br i1 %cmp.not.i.i552, label %_ZN4cvc58internal8TypeNodeD2Ev.exit562, label %if.then.i.i553

if.then.i.i553:                                   ; preds = %_ZN4cvc58internal12NodeTemplateILb1EED2Ev.exit550
  %bf.value.i.i554 = add i64 %bf.load.i.i551, 1152920405095219200
  %bf.shl.i.i555 = and i64 %bf.value.i.i554, 1152920405095219200
  %bf.clear7.i.i556 = and i64 %bf.load.i.i551, -1152920405095219201
  %bf.set.i.i557 = or disjoint i64 %bf.shl.i.i555, %bf.clear7.i.i556
  store i64 %bf.set.i.i557, ptr %108, align 8
  %cmp12.i.i558 = icmp eq i64 %bf.shl.i.i555, 0
  br i1 %cmp12.i.i558, label %if.then13.i.i560, label %_ZN4cvc58internal8TypeNodeD2Ev.exit562

if.then13.i.i560:                                 ; preds = %if.then.i.i553
  invoke void @_ZN4cvc58internal4expr9NodeValue15markForDeletionEv(ptr noundef nonnull align 8 dereferenceable(16) %108)
          to label %_ZN4cvc58internal8TypeNodeD2Ev.exit562 unwind label %terminate.lpad.i561

terminate.lpad.i561:                              ; preds = %if.then13.i.i560
  %124 = landingpad { ptr, i32 }
          catch ptr null
  %125 = extractvalue { ptr, i32 } %124, 0
  call void @__clang_call_terminate(ptr %125) #23
  unreachable

_ZN4cvc58internal8TypeNodeD2Ev.exit562:           ; preds = %_ZN4cvc58internal12NodeTemplateILb1EED2Ev.exit550, %if.then.i.i553, %if.then13.i.i560
  %126 = load ptr, ptr %intType, align 8
  store ptr %126, ptr %ref.tmp170, align 8
  %bf.load.i.i563 = load i64, ptr %126, align 8
  %bf.lshr.i.i564 = lshr i64 %bf.load.i.i563, 40
  %127 = trunc i64 %bf.lshr.i.i564 to i32
  %bf.cast.i.i565 = and i32 %127, 1048575
  %cmp.i.i566 = icmp ult i32 %bf.cast.i.i565, 1048574
  br i1 %cmp.i.i566, label %if.then.i.i571, label %if.else.i.i567

if.then.i.i571:                                   ; preds = %_ZN4cvc58internal8TypeNodeD2Ev.exit562
  %bf.value.i.i572 = add i64 %bf.load.i.i563, 1099511627776
  %bf.shl.i.i573 = and i64 %bf.value.i.i572, 1152920405095219200
  %bf.clear7.i.i574 = and i64 %bf.load.i.i563, -1152920405095219201
  %bf.set.i.i575 = or disjoint i64 %bf.shl.i.i573, %bf.clear7.i.i574
  store i64 %bf.set.i.i575, ptr %126, align 8
  br label %invoke.cont174

if.else.i.i567:                                   ; preds = %_ZN4cvc58internal8TypeNodeD2Ev.exit562
  %cmp12.i.i568 = icmp eq i32 %bf.cast.i.i565, 1048574
  br i1 %cmp12.i.i568, label %if.then13.i.i569, label %invoke.cont174

if.then13.i.i569:                                 ; preds = %if.else.i.i567
  %bf.set23.i.i570 = or i64 %bf.load.i.i563, 1152920405095219200
  store i64 %bf.set23.i.i570, ptr %126, align 8
  invoke void @_ZN4cvc58internal4expr9NodeValue20markRefCountMaxedOutEv(ptr noundef nonnull align 8 dereferenceable(16) %126)
          to label %invoke.cont174 unwind label %lpad173.thread

lpad173.thread:                                   ; preds = %if.then13.i.i569
  %128 = landingpad { ptr, i32 }
          cleanup
  br label %ehcleanup295

invoke.cont174:                                   ; preds = %if.else.i.i567, %if.then.i.i571, %if.then13.i.i569
  %arrayinit.element175 = getelementptr inbounds %"class.cvc5::internal::TypeNode", ptr %ref.tmp170, i64 1
  %129 = load ptr, ptr %intType, align 8
  store ptr %129, ptr %arrayinit.element175, align 8
  %bf.load.i.i578 = load i64, ptr %129, align 8
  %bf.lshr.i.i579 = lshr i64 %bf.load.i.i578, 40
  %130 = trunc i64 %bf.lshr.i.i579 to i32
  %bf.cast.i.i580 = and i32 %130, 1048575
  %cmp.i.i581 = icmp ult i32 %bf.cast.i.i580, 1048574
  br i1 %cmp.i.i581, label %if.then.i.i586, label %if.else.i.i582

if.then.i.i586:                                   ; preds = %invoke.cont174
  %bf.value.i.i587 = add i64 %bf.load.i.i578, 1099511627776
  %bf.shl.i.i588 = and i64 %bf.value.i.i587, 1152920405095219200
  %bf.clear7.i.i589 = and i64 %bf.load.i.i578, -1152920405095219201
  %bf.set.i.i590 = or disjoint i64 %bf.shl.i.i588, %bf.clear7.i.i589
  store i64 %bf.set.i.i590, ptr %129, align 8
  br label %invoke.cont176

if.else.i.i582:                                   ; preds = %invoke.cont174
  %cmp12.i.i583 = icmp eq i32 %bf.cast.i.i580, 1048574
  br i1 %cmp12.i.i583, label %if.then13.i.i584, label %invoke.cont176

if.then13.i.i584:                                 ; preds = %if.else.i.i582
  %bf.set23.i.i585 = or i64 %bf.load.i.i578, 1152920405095219200
  store i64 %bf.set23.i.i585, ptr %129, align 8
  invoke void @_ZN4cvc58internal4expr9NodeValue20markRefCountMaxedOutEv(ptr noundef nonnull align 8 dereferenceable(16) %129)
          to label %invoke.cont176 unwind label %lpad173

invoke.cont176:                                   ; preds = %if.else.i.i582, %if.then.i.i586, %if.then13.i.i584
  call void @llvm.memset.p0.i64(ptr noundef nonnull align 8 dereferenceable(24) %ref.tmp168, i8 0, i64 24, i1 false)
  %add.ptr.i.i593 = getelementptr inbounds %"class.cvc5::internal::TypeNode", ptr %ref.tmp170, i64 2
  %call5.i.i.i.i2.i594 = invoke noalias noundef nonnull dereferenceable(16) ptr @_Znwm(i64 noundef 16) #22
          to label %_ZNSt12_Vector_baseIN4cvc58internal8TypeNodeESaIS2_EE11_M_allocateEm.exit.i.i599 unwind label %lpad.i595

_ZNSt12_Vector_baseIN4cvc58internal8TypeNodeESaIS2_EE11_M_allocateEm.exit.i.i599: ; preds = %invoke.cont176
  store ptr %call5.i.i.i.i2.i594, ptr %ref.tmp168, align 8
  %add.ptr.i1.i600 = getelementptr inbounds %"class.cvc5::internal::TypeNode", ptr %call5.i.i.i.i2.i594, i64 2
  %_M_end_of_storage.i.i601 = getelementptr inbounds %"struct.std::_Vector_base<cvc5::internal::TypeNode, std::allocator<cvc5::internal::TypeNode>>::_Vector_impl_data", ptr %ref.tmp168, i64 0, i32 2
  store ptr %add.ptr.i1.i600, ptr %_M_end_of_storage.i.i601, align 8
  %call.i.i.i.i3.i602 = invoke noundef ptr @_ZSt16__do_uninit_copyIPKN4cvc58internal8TypeNodeEPS2_ET0_T_S7_S6_(ptr noundef nonnull %ref.tmp170, ptr noundef nonnull %add.ptr.i.i593, ptr noundef nonnull %call5.i.i.i.i2.i594)
          to label %invoke.cont189 unwind label %lpad.i595

lpad.i595:                                        ; preds = %_ZNSt12_Vector_baseIN4cvc58internal8TypeNodeESaIS2_EE11_M_allocateEm.exit.i.i599, %invoke.cont176
  %131 = landingpad { ptr, i32 }
          cleanup
  %132 = load ptr, ptr %ref.tmp168, align 8
  %tobool.not.i.i.i596 = icmp eq ptr %132, null
  br i1 %tobool.not.i.i.i596, label %ehcleanup194, label %if.then.i.i4.i597

if.then.i.i4.i597:                                ; preds = %lpad.i595
  call void @_ZdlPv(ptr noundef nonnull %132) #24
  br label %ehcleanup194

invoke.cont189:                                   ; preds = %_ZNSt12_Vector_baseIN4cvc58internal8TypeNodeESaIS2_EE11_M_allocateEm.exit.i.i599
  %_M_finish.i.i604 = getelementptr inbounds %"struct.std::_Vector_base<cvc5::internal::TypeNode, std::allocator<cvc5::internal::TypeNode>>::_Vector_impl_data", ptr %ref.tmp168, i64 0, i32 1
  store ptr %call.i.i.i.i3.i602, ptr %_M_finish.i.i604, align 8
  invoke void @_ZN4cvc58internal11NodeManager14mkFunctionTypeERKSt6vectorINS0_8TypeNodeESaIS3_EERKS3_(ptr nonnull sret(%"class.cvc5::internal::TypeNode") align 8 %fpType, ptr noundef nonnull align 8 dereferenceable(3360) %call, ptr noundef nonnull align 8 dereferenceable(24) %ref.tmp168, ptr noundef nonnull align 8 dereferenceable(8) %d_sortType)
          to label %invoke.cont192 unwind label %lpad191

invoke.cont192:                                   ; preds = %invoke.cont189
  %133 = load ptr, ptr %ref.tmp168, align 8
  %134 = load ptr, ptr %_M_finish.i.i604, align 8
  %cmp.not3.i.i.i.i608 = icmp eq ptr %133, %134
  br i1 %cmp.not3.i.i.i.i608, label %invoke.cont.i624, label %for.body.i.i.i.i609

for.body.i.i.i.i609:                              ; preds = %invoke.cont192, %_ZSt8_DestroyIN4cvc58internal8TypeNodeEEvPT_.exit.i.i.i.i619
  %__first.addr.04.i.i.i.i610 = phi ptr [ %incdec.ptr.i.i.i.i620, %_ZSt8_DestroyIN4cvc58internal8TypeNodeEEvPT_.exit.i.i.i.i619 ], [ %133, %invoke.cont192 ]
  %135 = load ptr, ptr %__first.addr.04.i.i.i.i610, align 8
  %bf.load.i.i.i.i.i.i.i611 = load i64, ptr %135, align 8
  %136 = and i64 %bf.load.i.i.i.i.i.i.i611, 1152920405095219200
  %cmp.not.i.i.i.i.i.i.i612 = icmp eq i64 %136, 1152920405095219200
  br i1 %cmp.not.i.i.i.i.i.i.i612, label %_ZSt8_DestroyIN4cvc58internal8TypeNodeEEvPT_.exit.i.i.i.i619, label %if.then.i.i.i.i.i.i.i613

if.then.i.i.i.i.i.i.i613:                         ; preds = %for.body.i.i.i.i609
  %bf.value.i.i.i.i.i.i.i614 = add i64 %bf.load.i.i.i.i.i.i.i611, 1152920405095219200
  %bf.shl.i.i.i.i.i.i.i615 = and i64 %bf.value.i.i.i.i.i.i.i614, 1152920405095219200
  %bf.clear7.i.i.i.i.i.i.i616 = and i64 %bf.load.i.i.i.i.i.i.i611, -1152920405095219201
  %bf.set.i.i.i.i.i.i.i617 = or disjoint i64 %bf.shl.i.i.i.i.i.i.i615, %bf.clear7.i.i.i.i.i.i.i616
  store i64 %bf.set.i.i.i.i.i.i.i617, ptr %135, align 8
  %cmp12.i.i.i.i.i.i.i618 = icmp eq i64 %bf.shl.i.i.i.i.i.i.i615, 0
  br i1 %cmp12.i.i.i.i.i.i.i618, label %if.then13.i.i.i.i.i.i.i628, label %_ZSt8_DestroyIN4cvc58internal8TypeNodeEEvPT_.exit.i.i.i.i619

if.then13.i.i.i.i.i.i.i628:                       ; preds = %if.then.i.i.i.i.i.i.i613
  invoke void @_ZN4cvc58internal4expr9NodeValue15markForDeletionEv(ptr noundef nonnull align 8 dereferenceable(16) %135)
          to label %_ZSt8_DestroyIN4cvc58internal8TypeNodeEEvPT_.exit.i.i.i.i619 unwind label %terminate.lpad.i.i.i.i.i.i629

terminate.lpad.i.i.i.i.i.i629:                    ; preds = %if.then13.i.i.i.i.i.i.i628
  %137 = landingpad { ptr, i32 }
          catch ptr null
  %138 = extractvalue { ptr, i32 } %137, 0
  call void @__clang_call_terminate(ptr %138) #23
  unreachable

_ZSt8_DestroyIN4cvc58internal8TypeNodeEEvPT_.exit.i.i.i.i619: ; preds = %if.then13.i.i.i.i.i.i.i628, %if.then.i.i.i.i.i.i.i613, %for.body.i.i.i.i609
  %incdec.ptr.i.i.i.i620 = getelementptr inbounds %"class.cvc5::internal::TypeNode", ptr %__first.addr.04.i.i.i.i610, i64 1
  %cmp.not.i.i.i.i621 = icmp eq ptr %incdec.ptr.i.i.i.i620, %134
  br i1 %cmp.not.i.i.i.i621, label %invoke.contthread-pre-split.i622, label %for.body.i.i.i.i609, !llvm.loop !5

invoke.contthread-pre-split.i622:                 ; preds = %_ZSt8_DestroyIN4cvc58internal8TypeNodeEEvPT_.exit.i.i.i.i619
  %.pr.i623 = load ptr, ptr %ref.tmp168, align 8
  br label %invoke.cont.i624

invoke.cont.i624:                                 ; preds = %invoke.contthread-pre-split.i622, %invoke.cont192
  %139 = phi ptr [ %.pr.i623, %invoke.contthread-pre-split.i622 ], [ %133, %invoke.cont192 ]
  %tobool.not.i.i.i625 = icmp eq ptr %139, null
  br i1 %tobool.not.i.i.i625, label %arraydestroy.body196.preheader, label %if.then.i.i.i626

if.then.i.i.i626:                                 ; preds = %invoke.cont.i624
  call void @_ZdlPv(ptr noundef nonnull %139) #24
  br label %arraydestroy.body196.preheader

arraydestroy.body196.preheader:                   ; preds = %invoke.cont.i624, %if.then.i.i.i626
  br label %arraydestroy.body196

arraydestroy.body196:                             ; preds = %arraydestroy.body196.preheader, %_ZN4cvc58internal8TypeNodeD2Ev.exit642
  %arraydestroy.elementPast197 = phi ptr [ %arraydestroy.element198, %_ZN4cvc58internal8TypeNodeD2Ev.exit642 ], [ %add.ptr.i.i593, %arraydestroy.body196.preheader ]
  %arraydestroy.element198 = getelementptr inbounds %"class.cvc5::internal::TypeNode", ptr %arraydestroy.elementPast197, i64 -1
  %140 = load ptr, ptr %arraydestroy.element198, align 8
  %bf.load.i.i631 = load i64, ptr %140, align 8
  %141 = and i64 %bf.load.i.i631, 1152920405095219200
  %cmp.not.i.i632 = icmp eq i64 %141, 1152920405095219200
  br i1 %cmp.not.i.i632, label %_ZN4cvc58internal8TypeNodeD2Ev.exit642, label %if.then.i.i633

if.then.i.i633:                                   ; preds = %arraydestroy.body196
  %bf.value.i.i634 = add i64 %bf.load.i.i631, 1152920405095219200
  %bf.shl.i.i635 = and i64 %bf.value.i.i634, 1152920405095219200
  %bf.clear7.i.i636 = and i64 %bf.load.i.i631, -1152920405095219201
  %bf.set.i.i637 = or disjoint i64 %bf.shl.i.i635, %bf.clear7.i.i636
  store i64 %bf.set.i.i637, ptr %140, align 8
  %cmp12.i.i638 = icmp eq i64 %bf.shl.i.i635, 0
  br i1 %cmp12.i.i638, label %if.then13.i.i640, label %_ZN4cvc58internal8TypeNodeD2Ev.exit642

if.then13.i.i640:                                 ; preds = %if.then.i.i633
  invoke void @_ZN4cvc58internal4expr9NodeValue15markForDeletionEv(ptr noundef nonnull align 8 dereferenceable(16) %140)
          to label %_ZN4cvc58internal8TypeNodeD2Ev.exit642 unwind label %terminate.lpad.i641

terminate.lpad.i641:                              ; preds = %if.then13.i.i640
  %142 = landingpad { ptr, i32 }
          catch ptr null
  %143 = extractvalue { ptr, i32 } %142, 0
  call void @__clang_call_terminate(ptr %143) #23
  unreachable

_ZN4cvc58internal8TypeNodeD2Ev.exit642:           ; preds = %arraydestroy.body196, %if.then.i.i633, %if.then13.i.i640
  %arraydestroy.done199 = icmp eq ptr %arraydestroy.element198, %ref.tmp170
  br i1 %arraydestroy.done199, label %arraydestroy.done200, label %arraydestroy.body196

arraydestroy.done200:                             ; preds = %_ZN4cvc58internal8TypeNodeD2Ev.exit642
  %144 = load ptr, ptr %fpType, align 8
  store ptr %144, ptr %agg.tmp209, align 8
  %bf.load.i.i643 = load i64, ptr %144, align 8
  %bf.lshr.i.i644 = lshr i64 %bf.load.i.i643, 40
  %145 = trunc i64 %bf.lshr.i.i644 to i32
  %bf.cast.i.i645 = and i32 %145, 1048575
  %cmp.i.i646 = icmp ult i32 %bf.cast.i.i645, 1048574
  br i1 %cmp.i.i646, label %if.then.i.i651, label %if.else.i.i647

if.then.i.i651:                                   ; preds = %arraydestroy.done200
  %bf.value.i.i652 = add i64 %bf.load.i.i643, 1099511627776
  %bf.shl.i.i653 = and i64 %bf.value.i.i652, 1152920405095219200
  %bf.clear7.i.i654 = and i64 %bf.load.i.i643, -1152920405095219201
  %bf.set.i.i655 = or disjoint i64 %bf.shl.i.i653, %bf.clear7.i.i654
  store i64 %bf.set.i.i655, ptr %144, align 8
  br label %invoke.cont211

if.else.i.i647:                                   ; preds = %arraydestroy.done200
  %cmp12.i.i648 = icmp eq i32 %bf.cast.i.i645, 1048574
  br i1 %cmp12.i.i648, label %if.then13.i.i649, label %invoke.cont211

if.then13.i.i649:                                 ; preds = %if.else.i.i647
  %bf.set23.i.i650 = or i64 %bf.load.i.i643, 1152920405095219200
  store i64 %bf.set23.i.i650, ptr %144, align 8
  invoke void @_ZN4cvc58internal4expr9NodeValue20markRefCountMaxedOutEv(ptr noundef nonnull align 8 dereferenceable(16) %144)
          to label %invoke.cont211 unwind label %lpad210

invoke.cont211:                                   ; preds = %if.else.i.i647, %if.then.i.i651, %if.then13.i.i649
  call void @_ZNSaIcEC1Ev(ptr noundef nonnull align 1 dereferenceable(1) %ref.tmp213) #21
  %call.i662 = invoke noundef ptr @_ZNSt7__cxx1112basic_stringIcSt11char_traitsIcESaIcEE13_M_local_dataEv(ptr noundef nonnull align 8 dereferenceable(32) %ref.tmp212)
          to label %call.i.noexc661 unwind label %lpad214

call.i.noexc661:                                  ; preds = %invoke.cont211
  invoke void @_ZNSt7__cxx1112basic_stringIcSt11char_traitsIcESaIcEE12_Alloc_hiderC1EPcRKS3_(ptr noundef nonnull align 8 dereferenceable(8) %ref.tmp212, ptr noundef %call.i662, ptr noundef nonnull align 1 dereferenceable(1) %ref.tmp213)
          to label %.noexc663 unwind label %lpad214

.noexc663:                                        ; preds = %call.i.noexc661
  invoke void @_ZNSt7__cxx1112basic_stringIcSt11char_traitsIcESaIcEE12_M_constructIPKcEEvT_S8_St20forward_iterator_tag(ptr noundef nonnull align 8 dereferenceable(32) %ref.tmp212, ptr noundef nonnull @.str.4, ptr noundef nonnull getelementptr inbounds ([14 x i8], ptr @.str.4, i64 0, i64 13))
          to label %invoke.cont215 unwind label %lpad.i660

lpad.i660:                                        ; preds = %.noexc663
  %146 = landingpad { ptr, i32 }
          cleanup
  call void @_ZNSaIcED2Ev(ptr noundef nonnull align 1 dereferenceable(1) %ref.tmp212) #21
  br label %ehcleanup227

invoke.cont215:                                   ; preds = %.noexc663
  invoke void @_ZN4cvc58internal5proof17LfscNodeConverter17getSymbolInternalENS0_4kind6Kind_tENS0_8TypeNodeERKNSt7__cxx1112basic_stringIcSt11char_traitsIcESaIcEEEb(ptr nonnull sret(%"class.cvc5::internal::NodeTemplate") align 8 %ref.tmp208, ptr noundef nonnull align 8 dereferenceable(760) %this, i32 noundef 25, ptr noundef nonnull %agg.tmp209, ptr noundef nonnull align 8 dereferenceable(32) %ref.tmp212, i1 noundef zeroext true)
          to label %invoke.cont217 unwind label %lpad216

invoke.cont217:                                   ; preds = %invoke.cont215
  store i32 152, ptr %ref.tmp219, align 4
  call void @llvm.lifetime.start.p0(i64 8, ptr nonnull %ref.tmp9.i666)
  call void @llvm.lifetime.start.p0(i64 1, ptr nonnull %ref.tmp10.i667)
  %147 = load ptr, ptr %_M_parent.i.i.i.i.i80, align 8
  %cmp.not5.i.i.i.i670 = icmp eq ptr %147, null
  br i1 %cmp.not5.i.i.i.i670, label %if.then.i690, label %while.body.i.i.i.i672

while.body.i.i.i.i672:                            ; preds = %invoke.cont217, %while.body.i.i.i.i672
  %__x.addr.07.i.i.i.i673 = phi ptr [ %__x.addr.1.i.i.i.i681, %while.body.i.i.i.i672 ], [ %147, %invoke.cont217 ]
  %__y.addr.06.i.i.i.i674 = phi ptr [ %__y.addr.1.i.i.i.i679, %while.body.i.i.i.i672 ], [ %14, %invoke.cont217 ]
  %_M_storage.i.i.i.i.i.i675 = getelementptr inbounds %"struct.std::_Rb_tree_node", ptr %__x.addr.07.i.i.i.i673, i64 0, i32 1
  %148 = load i32, ptr %_M_storage.i.i.i.i.i.i675, align 4
  %cmp.i.i.i.i.i676 = icmp slt i32 %148, 152
  %_M_right.i.i.i.i.i677 = getelementptr inbounds %"struct.std::_Rb_tree_node_base", ptr %__x.addr.07.i.i.i.i673, i64 0, i32 3
  %_M_left.i.i.i.i.i678 = getelementptr inbounds %"struct.std::_Rb_tree_node_base", ptr %__x.addr.07.i.i.i.i673, i64 0, i32 2
  %__y.addr.1.i.i.i.i679 = select i1 %cmp.i.i.i.i.i676, ptr %__y.addr.06.i.i.i.i674, ptr %__x.addr.07.i.i.i.i673
  %__x.addr.1.in.i.i.i.i680 = select i1 %cmp.i.i.i.i.i676, ptr %_M_right.i.i.i.i.i677, ptr %_M_left.i.i.i.i.i678
  %__x.addr.1.i.i.i.i681 = load ptr, ptr %__x.addr.1.in.i.i.i.i680, align 8
  %cmp.not.i.i.i.i682 = icmp eq ptr %__x.addr.1.i.i.i.i681, null
  br i1 %cmp.not.i.i.i.i682, label %_ZNSt3mapIN4cvc58internal4kind6Kind_tENS1_12NodeTemplateILb1EEESt4lessIS3_ESaISt4pairIKS3_S5_EEE11lower_boundERS9_.exit.i683, label %while.body.i.i.i.i672, !llvm.loop !8

_ZNSt3mapIN4cvc58internal4kind6Kind_tENS1_12NodeTemplateILb1EEESt4lessIS3_ESaISt4pairIKS3_S5_EEE11lower_boundERS9_.exit.i683: ; preds = %while.body.i.i.i.i672
  %cmp.i.i684 = icmp eq ptr %__y.addr.1.i.i.i.i679, %14
  br i1 %cmp.i.i684, label %if.then.i690, label %lor.rhs.i685

lor.rhs.i685:                                     ; preds = %_ZNSt3mapIN4cvc58internal4kind6Kind_tENS1_12NodeTemplateILb1EEESt4lessIS3_ESaISt4pairIKS3_S5_EEE11lower_boundERS9_.exit.i683
  %_M_storage.i.i.i686 = getelementptr inbounds %"struct.std::_Rb_tree_node", ptr %__y.addr.1.i.i.i.i679, i64 0, i32 1
  %149 = load i32, ptr %_M_storage.i.i.i686, align 4
  %cmp.i3.i687 = icmp sgt i32 %149, 152
  br i1 %cmp.i3.i687, label %if.then.i690, label %invoke.cont221

if.then.i690:                                     ; preds = %lor.rhs.i685, %_ZNSt3mapIN4cvc58internal4kind6Kind_tENS1_12NodeTemplateILb1EEESt4lessIS3_ESaISt4pairIKS3_S5_EEE11lower_boundERS9_.exit.i683, %invoke.cont217
  %__y.addr.0.lcssa.i.i.i10.i691 = phi ptr [ %14, %_ZNSt3mapIN4cvc58internal4kind6Kind_tENS1_12NodeTemplateILb1EEESt4lessIS3_ESaISt4pairIKS3_S5_EEE11lower_boundERS9_.exit.i683 ], [ %__y.addr.1.i.i.i.i679, %lor.rhs.i685 ], [ %14, %invoke.cont217 ]
  store ptr %ref.tmp219, ptr %ref.tmp9.i666, align 8, !alias.scope !15
  %call12.i693 = invoke ptr @_ZNSt8_Rb_treeIN4cvc58internal4kind6Kind_tESt4pairIKS3_NS1_12NodeTemplateILb1EEEESt10_Select1stIS8_ESt4lessIS3_ESaIS8_EE22_M_emplace_hint_uniqueIJRKSt21piecewise_construct_tSt5tupleIJOS3_EESJ_IJEEEEESt17_Rb_tree_iteratorIS8_ESt23_Rb_tree_const_iteratorIS8_EDpOT_(ptr noundef nonnull align 8 dereferenceable(48) %d_typeKindToNodeCons, ptr %__y.addr.0.lcssa.i.i.i10.i691, ptr noundef nonnull align 1 dereferenceable(1) @_ZSt19piecewise_construct, ptr noundef nonnull align 8 dereferenceable(8) %ref.tmp9.i666, ptr noundef nonnull align 1 dereferenceable(1) %ref.tmp10.i667)
          to label %invoke.cont221 unwind label %lpad220

invoke.cont221:                                   ; preds = %lor.rhs.i685, %if.then.i690
  %__i.sroa.0.0.i688 = phi ptr [ %__y.addr.1.i.i.i.i679, %lor.rhs.i685 ], [ %call12.i693, %if.then.i690 ]
  %second.i689 = getelementptr inbounds %"struct.std::_Rb_tree_node", ptr %__i.sroa.0.0.i688, i64 0, i32 1, i32 0, i64 8
  call void @llvm.lifetime.end.p0(i64 8, ptr nonnull %ref.tmp9.i666)
  call void @llvm.lifetime.end.p0(i64 1, ptr nonnull %ref.tmp10.i667)
  %150 = load ptr, ptr %second.i689, align 8
  %151 = load ptr, ptr %ref.tmp208, align 8
  %cmp.not.i695 = icmp eq ptr %150, %151
  br i1 %cmp.not.i695, label %invoke.cont223, label %if.then.i696

if.then.i696:                                     ; preds = %invoke.cont221
  %bf.load.i.i697 = load i64, ptr %150, align 8
  %152 = and i64 %bf.load.i.i697, 1152920405095219200
  %cmp.not.i.i698 = icmp eq i64 %152, 1152920405095219200
  br i1 %cmp.not.i.i698, label %_ZN4cvc58internal4expr9NodeValue3decEv.exit.i705, label %if.then.i.i699

if.then.i.i699:                                   ; preds = %if.then.i696
  %bf.value.i.i700 = add i64 %bf.load.i.i697, 1152920405095219200
  %bf.shl.i.i701 = and i64 %bf.value.i.i700, 1152920405095219200
  %bf.clear7.i.i702 = and i64 %bf.load.i.i697, -1152920405095219201
  %bf.set.i.i703 = or disjoint i64 %bf.shl.i.i701, %bf.clear7.i.i702
  store i64 %bf.set.i.i703, ptr %150, align 8
  %cmp12.i.i704 = icmp eq i64 %bf.shl.i.i701, 0
  br i1 %cmp12.i.i704, label %if.then13.i.i719, label %_ZN4cvc58internal4expr9NodeValue3decEv.exit.i705

if.then13.i.i719:                                 ; preds = %if.then.i.i699
  invoke void @_ZN4cvc58internal4expr9NodeValue15markForDeletionEv(ptr noundef nonnull align 8 dereferenceable(16) %150)
          to label %_ZN4cvc58internal4expr9NodeValue3decEv.exit.i705 unwind label %lpad220

_ZN4cvc58internal4expr9NodeValue3decEv.exit.i705: ; preds = %if.then13.i.i719, %if.then.i.i699, %if.then.i696
  %153 = load ptr, ptr %ref.tmp208, align 8
  store ptr %153, ptr %second.i689, align 8
  %bf.load.i2.i706 = load i64, ptr %153, align 8
  %bf.lshr.i.i707 = lshr i64 %bf.load.i2.i706, 40
  %154 = trunc i64 %bf.lshr.i.i707 to i32
  %bf.cast.i.i708 = and i32 %154, 1048575
  %cmp.i.i709 = icmp ult i32 %bf.cast.i.i708, 1048574
  br i1 %cmp.i.i709, label %if.then.i5.i714, label %if.else.i.i710

if.then.i5.i714:                                  ; preds = %_ZN4cvc58internal4expr9NodeValue3decEv.exit.i705
  %bf.value.i6.i715 = add i64 %bf.load.i2.i706, 1099511627776
  %bf.shl.i7.i716 = and i64 %bf.value.i6.i715, 1152920405095219200
  %bf.clear7.i8.i717 = and i64 %bf.load.i2.i706, -1152920405095219201
  %bf.set.i9.i718 = or disjoint i64 %bf.shl.i7.i716, %bf.clear7.i8.i717
  store i64 %bf.set.i9.i718, ptr %153, align 8
  br label %invoke.cont223

if.else.i.i710:                                   ; preds = %_ZN4cvc58internal4expr9NodeValue3decEv.exit.i705
  %cmp12.i3.i711 = icmp eq i32 %bf.cast.i.i708, 1048574
  br i1 %cmp12.i3.i711, label %if.then13.i4.i712, label %invoke.cont223

if.then13.i4.i712:                                ; preds = %if.else.i.i710
  %bf.set23.i.i713 = or i64 %bf.load.i2.i706, 1152920405095219200
  store i64 %bf.set23.i.i713, ptr %153, align 8
  invoke void @_ZN4cvc58internal4expr9NodeValue20markRefCountMaxedOutEv(ptr noundef nonnull align 8 dereferenceable(16) %153)
          to label %invoke.cont223 unwind label %lpad220

invoke.cont223:                                   ; preds = %if.else.i.i710, %if.then.i5.i714, %invoke.cont221, %if.then13.i4.i712
  %155 = load ptr, ptr %ref.tmp208, align 8
  %bf.load.i.i723 = load i64, ptr %155, align 8
  %156 = and i64 %bf.load.i.i723, 1152920405095219200
  %cmp.not.i.i724 = icmp eq i64 %156, 1152920405095219200
  br i1 %cmp.not.i.i724, label %_ZN4cvc58internal12NodeTemplateILb1EED2Ev.exit734, label %if.then.i.i725

if.then.i.i725:                                   ; preds = %invoke.cont223
  %bf.value.i.i726 = add i64 %bf.load.i.i723, 1152920405095219200
  %bf.shl.i.i727 = and i64 %bf.value.i.i726, 1152920405095219200
  %bf.clear7.i.i728 = and i64 %bf.load.i.i723, -1152920405095219201
  %bf.set.i.i729 = or disjoint i64 %bf.shl.i.i727, %bf.clear7.i.i728
  store i64 %bf.set.i.i729, ptr %155, align 8
  %cmp12.i.i730 = icmp eq i64 %bf.shl.i.i727, 0
  br i1 %cmp12.i.i730, label %if.then13.i.i732, label %_ZN4cvc58internal12NodeTemplateILb1EED2Ev.exit734

if.then13.i.i732:                                 ; preds = %if.then.i.i725
  invoke void @_ZN4cvc58internal4expr9NodeValue15markForDeletionEv(ptr noundef nonnull align 8 dereferenceable(16) %155)
          to label %_ZN4cvc58internal12NodeTemplateILb1EED2Ev.exit734 unwind label %terminate.lpad.i733

terminate.lpad.i733:                              ; preds = %if.then13.i.i732
  %157 = landingpad { ptr, i32 }
          catch ptr null
  %158 = extractvalue { ptr, i32 } %157, 0
  call void @__clang_call_terminate(ptr %158) #23
  unreachable

_ZN4cvc58internal12NodeTemplateILb1EED2Ev.exit734: ; preds = %invoke.cont223, %if.then.i.i725, %if.then13.i.i732
  call void @_ZNSt7__cxx1112basic_stringIcSt11char_traitsIcESaIcEED1Ev(ptr noundef nonnull align 8 dereferenceable(32) %ref.tmp212) #21
  call void @_ZNSaIcED1Ev(ptr noundef nonnull align 1 dereferenceable(1) %ref.tmp213) #21
  %bf.load.i.i735 = load i64, ptr %144, align 8
  %159 = and i64 %bf.load.i.i735, 1152920405095219200
  %cmp.not.i.i736 = icmp eq i64 %159, 1152920405095219200
  br i1 %cmp.not.i.i736, label %_ZN4cvc58internal8TypeNodeD2Ev.exit746, label %if.then.i.i737

if.then.i.i737:                                   ; preds = %_ZN4cvc58internal12NodeTemplateILb1EED2Ev.exit734
  %bf.value.i.i738 = add i64 %bf.load.i.i735, 1152920405095219200
  %bf.shl.i.i739 = and i64 %bf.value.i.i738, 1152920405095219200
  %bf.clear7.i.i740 = and i64 %bf.load.i.i735, -1152920405095219201
  %bf.set.i.i741 = or disjoint i64 %bf.shl.i.i739, %bf.clear7.i.i740
  store i64 %bf.set.i.i741, ptr %144, align 8
  %cmp12.i.i742 = icmp eq i64 %bf.shl.i.i739, 0
  br i1 %cmp12.i.i742, label %if.then13.i.i744, label %_ZN4cvc58internal8TypeNodeD2Ev.exit746

if.then13.i.i744:                                 ; preds = %if.then.i.i737
  invoke void @_ZN4cvc58internal4expr9NodeValue15markForDeletionEv(ptr noundef nonnull align 8 dereferenceable(16) %144)
          to label %_ZN4cvc58internal8TypeNodeD2Ev.exit746 unwind label %terminate.lpad.i745

terminate.lpad.i745:                              ; preds = %if.then13.i.i744
  %160 = landingpad { ptr, i32 }
          catch ptr null
  %161 = extractvalue { ptr, i32 } %160, 0
  call void @__clang_call_terminate(ptr %161) #23
  unreachable

_ZN4cvc58internal8TypeNodeD2Ev.exit746:           ; preds = %_ZN4cvc58internal12NodeTemplateILb1EED2Ev.exit734, %if.then.i.i737, %if.then13.i.i744
  invoke void @_ZN4cvc58internal11NodeManager14mkFunctionTypeERKNS0_8TypeNodeES4_(ptr nonnull sret(%"class.cvc5::internal::TypeNode") align 8 %setType, ptr noundef nonnull align 8 dereferenceable(3360) %call, ptr noundef nonnull align 8 dereferenceable(8) %d_sortType, ptr noundef nonnull align 8 dereferenceable(8) %d_sortType)
          to label %invoke.cont231 unwind label %lpad210

invoke.cont231:                                   ; preds = %_ZN4cvc58internal8TypeNodeD2Ev.exit746
  %162 = load ptr, ptr %setType, align 8
  store ptr %162, ptr %agg.tmp233, align 8
  %bf.load.i.i747 = load i64, ptr %162, align 8
  %bf.lshr.i.i748 = lshr i64 %bf.load.i.i747, 40
  %163 = trunc i64 %bf.lshr.i.i748 to i32
  %bf.cast.i.i749 = and i32 %163, 1048575
  %cmp.i.i750 = icmp ult i32 %bf.cast.i.i749, 1048574
  br i1 %cmp.i.i750, label %if.then.i.i755, label %if.else.i.i751

if.then.i.i755:                                   ; preds = %invoke.cont231
  %bf.value.i.i756 = add i64 %bf.load.i.i747, 1099511627776
  %bf.shl.i.i757 = and i64 %bf.value.i.i756, 1152920405095219200
  %bf.clear7.i.i758 = and i64 %bf.load.i.i747, -1152920405095219201
  %bf.set.i.i759 = or disjoint i64 %bf.shl.i.i757, %bf.clear7.i.i758
  store i64 %bf.set.i.i759, ptr %162, align 8
  br label %invoke.cont235

if.else.i.i751:                                   ; preds = %invoke.cont231
  %cmp12.i.i752 = icmp eq i32 %bf.cast.i.i749, 1048574
  br i1 %cmp12.i.i752, label %if.then13.i.i753, label %invoke.cont235

if.then13.i.i753:                                 ; preds = %if.else.i.i751
  %bf.set23.i.i754 = or i64 %bf.load.i.i747, 1152920405095219200
  store i64 %bf.set23.i.i754, ptr %162, align 8
  invoke void @_ZN4cvc58internal4expr9NodeValue20markRefCountMaxedOutEv(ptr noundef nonnull align 8 dereferenceable(16) %162)
          to label %invoke.cont235 unwind label %lpad234

invoke.cont235:                                   ; preds = %if.else.i.i751, %if.then.i.i755, %if.then13.i.i753
  call void @_ZNSaIcEC1Ev(ptr noundef nonnull align 1 dereferenceable(1) %ref.tmp237) #21
  %call.i766 = invoke noundef ptr @_ZNSt7__cxx1112basic_stringIcSt11char_traitsIcESaIcEE13_M_local_dataEv(ptr noundef nonnull align 8 dereferenceable(32) %ref.tmp236)
          to label %call.i.noexc765 unwind label %lpad238

call.i.noexc765:                                  ; preds = %invoke.cont235
  invoke void @_ZNSt7__cxx1112basic_stringIcSt11char_traitsIcESaIcEE12_Alloc_hiderC1EPcRKS3_(ptr noundef nonnull align 8 dereferenceable(8) %ref.tmp236, ptr noundef %call.i766, ptr noundef nonnull align 1 dereferenceable(1) %ref.tmp237)
          to label %.noexc767 unwind label %lpad238

.noexc767:                                        ; preds = %call.i.noexc765
  invoke void @_ZNSt7__cxx1112basic_stringIcSt11char_traitsIcESaIcEE12_M_constructIPKcEEvT_S8_St20forward_iterator_tag(ptr noundef nonnull align 8 dereferenceable(32) %ref.tmp236, ptr noundef nonnull @.str.5, ptr noundef nonnull getelementptr inbounds ([4 x i8], ptr @.str.5, i64 0, i64 3))
          to label %invoke.cont239 unwind label %lpad.i764

lpad.i764:                                        ; preds = %.noexc767
  %164 = landingpad { ptr, i32 }
          cleanup
  call void @_ZNSaIcED2Ev(ptr noundef nonnull align 1 dereferenceable(1) %ref.tmp236) #21
  br label %ehcleanup251

invoke.cont239:                                   ; preds = %.noexc767
  invoke void @_ZN4cvc58internal5proof17LfscNodeConverter17getSymbolInternalENS0_4kind6Kind_tENS0_8TypeNodeERKNSt7__cxx1112basic_stringIcSt11char_traitsIcESaIcEEEb(ptr nonnull sret(%"class.cvc5::internal::NodeTemplate") align 8 %ref.tmp232, ptr noundef nonnull align 8 dereferenceable(760) %this, i32 noundef 25, ptr noundef nonnull %agg.tmp233, ptr noundef nonnull align 8 dereferenceable(32) %ref.tmp236, i1 noundef zeroext true)
          to label %invoke.cont241 unwind label %lpad240

invoke.cont241:                                   ; preds = %invoke.cont239
  store i32 244, ptr %ref.tmp243, align 4
  call void @llvm.lifetime.start.p0(i64 8, ptr nonnull %ref.tmp9.i770)
  call void @llvm.lifetime.start.p0(i64 1, ptr nonnull %ref.tmp10.i771)
  %165 = load ptr, ptr %_M_parent.i.i.i.i.i80, align 8
  %cmp.not5.i.i.i.i774 = icmp eq ptr %165, null
  br i1 %cmp.not5.i.i.i.i774, label %if.then.i794, label %while.body.i.i.i.i776

while.body.i.i.i.i776:                            ; preds = %invoke.cont241, %while.body.i.i.i.i776
  %__x.addr.07.i.i.i.i777 = phi ptr [ %__x.addr.1.i.i.i.i785, %while.body.i.i.i.i776 ], [ %165, %invoke.cont241 ]
  %__y.addr.06.i.i.i.i778 = phi ptr [ %__y.addr.1.i.i.i.i783, %while.body.i.i.i.i776 ], [ %14, %invoke.cont241 ]
  %_M_storage.i.i.i.i.i.i779 = getelementptr inbounds %"struct.std::_Rb_tree_node", ptr %__x.addr.07.i.i.i.i777, i64 0, i32 1
  %166 = load i32, ptr %_M_storage.i.i.i.i.i.i779, align 4
  %cmp.i.i.i.i.i780 = icmp slt i32 %166, 244
  %_M_right.i.i.i.i.i781 = getelementptr inbounds %"struct.std::_Rb_tree_node_base", ptr %__x.addr.07.i.i.i.i777, i64 0, i32 3
  %_M_left.i.i.i.i.i782 = getelementptr inbounds %"struct.std::_Rb_tree_node_base", ptr %__x.addr.07.i.i.i.i777, i64 0, i32 2
  %__y.addr.1.i.i.i.i783 = select i1 %cmp.i.i.i.i.i780, ptr %__y.addr.06.i.i.i.i778, ptr %__x.addr.07.i.i.i.i777
  %__x.addr.1.in.i.i.i.i784 = select i1 %cmp.i.i.i.i.i780, ptr %_M_right.i.i.i.i.i781, ptr %_M_left.i.i.i.i.i782
  %__x.addr.1.i.i.i.i785 = load ptr, ptr %__x.addr.1.in.i.i.i.i784, align 8
  %cmp.not.i.i.i.i786 = icmp eq ptr %__x.addr.1.i.i.i.i785, null
  br i1 %cmp.not.i.i.i.i786, label %_ZNSt3mapIN4cvc58internal4kind6Kind_tENS1_12NodeTemplateILb1EEESt4lessIS3_ESaISt4pairIKS3_S5_EEE11lower_boundERS9_.exit.i787, label %while.body.i.i.i.i776, !llvm.loop !8

_ZNSt3mapIN4cvc58internal4kind6Kind_tENS1_12NodeTemplateILb1EEESt4lessIS3_ESaISt4pairIKS3_S5_EEE11lower_boundERS9_.exit.i787: ; preds = %while.body.i.i.i.i776
  %cmp.i.i788 = icmp eq ptr %__y.addr.1.i.i.i.i783, %14
  br i1 %cmp.i.i788, label %if.then.i794, label %lor.rhs.i789

lor.rhs.i789:                                     ; preds = %_ZNSt3mapIN4cvc58internal4kind6Kind_tENS1_12NodeTemplateILb1EEESt4lessIS3_ESaISt4pairIKS3_S5_EEE11lower_boundERS9_.exit.i787
  %_M_storage.i.i.i790 = getelementptr inbounds %"struct.std::_Rb_tree_node", ptr %__y.addr.1.i.i.i.i783, i64 0, i32 1
  %167 = load i32, ptr %_M_storage.i.i.i790, align 4
  %cmp.i3.i791 = icmp sgt i32 %167, 244
  br i1 %cmp.i3.i791, label %if.then.i794, label %invoke.cont245

if.then.i794:                                     ; preds = %lor.rhs.i789, %_ZNSt3mapIN4cvc58internal4kind6Kind_tENS1_12NodeTemplateILb1EEESt4lessIS3_ESaISt4pairIKS3_S5_EEE11lower_boundERS9_.exit.i787, %invoke.cont241
  %__y.addr.0.lcssa.i.i.i10.i795 = phi ptr [ %14, %_ZNSt3mapIN4cvc58internal4kind6Kind_tENS1_12NodeTemplateILb1EEESt4lessIS3_ESaISt4pairIKS3_S5_EEE11lower_boundERS9_.exit.i787 ], [ %__y.addr.1.i.i.i.i783, %lor.rhs.i789 ], [ %14, %invoke.cont241 ]
  store ptr %ref.tmp243, ptr %ref.tmp9.i770, align 8, !alias.scope !18
  %call12.i797 = invoke ptr @_ZNSt8_Rb_treeIN4cvc58internal4kind6Kind_tESt4pairIKS3_NS1_12NodeTemplateILb1EEEESt10_Select1stIS8_ESt4lessIS3_ESaIS8_EE22_M_emplace_hint_uniqueIJRKSt21piecewise_construct_tSt5tupleIJOS3_EESJ_IJEEEEESt17_Rb_tree_iteratorIS8_ESt23_Rb_tree_const_iteratorIS8_EDpOT_(ptr noundef nonnull align 8 dereferenceable(48) %d_typeKindToNodeCons, ptr %__y.addr.0.lcssa.i.i.i10.i795, ptr noundef nonnull align 1 dereferenceable(1) @_ZSt19piecewise_construct, ptr noundef nonnull align 8 dereferenceable(8) %ref.tmp9.i770, ptr noundef nonnull align 1 dereferenceable(1) %ref.tmp10.i771)
          to label %invoke.cont245 unwind label %lpad244

invoke.cont245:                                   ; preds = %lor.rhs.i789, %if.then.i794
  %__i.sroa.0.0.i792 = phi ptr [ %__y.addr.1.i.i.i.i783, %lor.rhs.i789 ], [ %call12.i797, %if.then.i794 ]
  %second.i793 = getelementptr inbounds %"struct.std::_Rb_tree_node", ptr %__i.sroa.0.0.i792, i64 0, i32 1, i32 0, i64 8
  call void @llvm.lifetime.end.p0(i64 8, ptr nonnull %ref.tmp9.i770)
  call void @llvm.lifetime.end.p0(i64 1, ptr nonnull %ref.tmp10.i771)
  %168 = load ptr, ptr %second.i793, align 8
  %169 = load ptr, ptr %ref.tmp232, align 8
  %cmp.not.i799 = icmp eq ptr %168, %169
  br i1 %cmp.not.i799, label %invoke.cont247, label %if.then.i800

if.then.i800:                                     ; preds = %invoke.cont245
  %bf.load.i.i801 = load i64, ptr %168, align 8
  %170 = and i64 %bf.load.i.i801, 1152920405095219200
  %cmp.not.i.i802 = icmp eq i64 %170, 1152920405095219200
  br i1 %cmp.not.i.i802, label %_ZN4cvc58internal4expr9NodeValue3decEv.exit.i809, label %if.then.i.i803

if.then.i.i803:                                   ; preds = %if.then.i800
  %bf.value.i.i804 = add i64 %bf.load.i.i801, 1152920405095219200
  %bf.shl.i.i805 = and i64 %bf.value.i.i804, 1152920405095219200
  %bf.clear7.i.i806 = and i64 %bf.load.i.i801, -1152920405095219201
  %bf.set.i.i807 = or disjoint i64 %bf.shl.i.i805, %bf.clear7.i.i806
  store i64 %bf.set.i.i807, ptr %168, align 8
  %cmp12.i.i808 = icmp eq i64 %bf.shl.i.i805, 0
  br i1 %cmp12.i.i808, label %if.then13.i.i823, label %_ZN4cvc58internal4expr9NodeValue3decEv.exit.i809

if.then13.i.i823:                                 ; preds = %if.then.i.i803
  invoke void @_ZN4cvc58internal4expr9NodeValue15markForDeletionEv(ptr noundef nonnull align 8 dereferenceable(16) %168)
          to label %_ZN4cvc58internal4expr9NodeValue3decEv.exit.i809 unwind label %lpad244

_ZN4cvc58internal4expr9NodeValue3decEv.exit.i809: ; preds = %if.then13.i.i823, %if.then.i.i803, %if.then.i800
  %171 = load ptr, ptr %ref.tmp232, align 8
  store ptr %171, ptr %second.i793, align 8
  %bf.load.i2.i810 = load i64, ptr %171, align 8
  %bf.lshr.i.i811 = lshr i64 %bf.load.i2.i810, 40
  %172 = trunc i64 %bf.lshr.i.i811 to i32
  %bf.cast.i.i812 = and i32 %172, 1048575
  %cmp.i.i813 = icmp ult i32 %bf.cast.i.i812, 1048574
  br i1 %cmp.i.i813, label %if.then.i5.i818, label %if.else.i.i814

if.then.i5.i818:                                  ; preds = %_ZN4cvc58internal4expr9NodeValue3decEv.exit.i809
  %bf.value.i6.i819 = add i64 %bf.load.i2.i810, 1099511627776
  %bf.shl.i7.i820 = and i64 %bf.value.i6.i819, 1152920405095219200
  %bf.clear7.i8.i821 = and i64 %bf.load.i2.i810, -1152920405095219201
  %bf.set.i9.i822 = or disjoint i64 %bf.shl.i7.i820, %bf.clear7.i8.i821
  store i64 %bf.set.i9.i822, ptr %171, align 8
  br label %invoke.cont247

if.else.i.i814:                                   ; preds = %_ZN4cvc58internal4expr9NodeValue3decEv.exit.i809
  %cmp12.i3.i815 = icmp eq i32 %bf.cast.i.i812, 1048574
  br i1 %cmp12.i3.i815, label %if.then13.i4.i816, label %invoke.cont247

if.then13.i4.i816:                                ; preds = %if.else.i.i814
  %bf.set23.i.i817 = or i64 %bf.load.i2.i810, 1152920405095219200
  store i64 %bf.set23.i.i817, ptr %171, align 8
  invoke void @_ZN4cvc58internal4expr9NodeValue20markRefCountMaxedOutEv(ptr noundef nonnull align 8 dereferenceable(16) %171)
          to label %invoke.cont247 unwind label %lpad244

invoke.cont247:                                   ; preds = %if.else.i.i814, %if.then.i5.i818, %invoke.cont245, %if.then13.i4.i816
  %173 = load ptr, ptr %ref.tmp232, align 8
  %bf.load.i.i827 = load i64, ptr %173, align 8
  %174 = and i64 %bf.load.i.i827, 1152920405095219200
  %cmp.not.i.i828 = icmp eq i64 %174, 1152920405095219200
  br i1 %cmp.not.i.i828, label %_ZN4cvc58internal12NodeTemplateILb1EED2Ev.exit838, label %if.then.i.i829

if.then.i.i829:                                   ; preds = %invoke.cont247
  %bf.value.i.i830 = add i64 %bf.load.i.i827, 1152920405095219200
  %bf.shl.i.i831 = and i64 %bf.value.i.i830, 1152920405095219200
  %bf.clear7.i.i832 = and i64 %bf.load.i.i827, -1152920405095219201
  %bf.set.i.i833 = or disjoint i64 %bf.shl.i.i831, %bf.clear7.i.i832
  store i64 %bf.set.i.i833, ptr %173, align 8
  %cmp12.i.i834 = icmp eq i64 %bf.shl.i.i831, 0
  br i1 %cmp12.i.i834, label %if.then13.i.i836, label %_ZN4cvc58internal12NodeTemplateILb1EED2Ev.exit838

if.then13.i.i836:                                 ; preds = %if.then.i.i829
  invoke void @_ZN4cvc58internal4expr9NodeValue15markForDeletionEv(ptr noundef nonnull align 8 dereferenceable(16) %173)
          to label %_ZN4cvc58internal12NodeTemplateILb1EED2Ev.exit838 unwind label %terminate.lpad.i837

terminate.lpad.i837:                              ; preds = %if.then13.i.i836
  %175 = landingpad { ptr, i32 }
          catch ptr null
  %176 = extractvalue { ptr, i32 } %175, 0
  call void @__clang_call_terminate(ptr %176) #23
  unreachable

_ZN4cvc58internal12NodeTemplateILb1EED2Ev.exit838: ; preds = %invoke.cont247, %if.then.i.i829, %if.then13.i.i836
  call void @_ZNSt7__cxx1112basic_stringIcSt11char_traitsIcESaIcEED1Ev(ptr noundef nonnull align 8 dereferenceable(32) %ref.tmp236) #21
  call void @_ZNSaIcED1Ev(ptr noundef nonnull align 1 dereferenceable(1) %ref.tmp237) #21
  %bf.load.i.i839 = load i64, ptr %162, align 8
  %177 = and i64 %bf.load.i.i839, 1152920405095219200
  %cmp.not.i.i840 = icmp eq i64 %177, 1152920405095219200
  br i1 %cmp.not.i.i840, label %_ZN4cvc58internal8TypeNodeD2Ev.exit850, label %if.then.i.i841

if.then.i.i841:                                   ; preds = %_ZN4cvc58internal12NodeTemplateILb1EED2Ev.exit838
  %bf.value.i.i842 = add i64 %bf.load.i.i839, 1152920405095219200
  %bf.shl.i.i843 = and i64 %bf.value.i.i842, 1152920405095219200
  %bf.clear7.i.i844 = and i64 %bf.load.i.i839, -1152920405095219201
  %bf.set.i.i845 = or disjoint i64 %bf.shl.i.i843, %bf.clear7.i.i844
  store i64 %bf.set.i.i845, ptr %162, align 8
  %cmp12.i.i846 = icmp eq i64 %bf.shl.i.i843, 0
  br i1 %cmp12.i.i846, label %if.then13.i.i848, label %_ZN4cvc58internal8TypeNodeD2Ev.exit850

if.then13.i.i848:                                 ; preds = %if.then.i.i841
  invoke void @_ZN4cvc58internal4expr9NodeValue15markForDeletionEv(ptr noundef nonnull align 8 dereferenceable(16) %162)
          to label %_ZN4cvc58internal8TypeNodeD2Ev.exit850 unwind label %terminate.lpad.i849

terminate.lpad.i849:                              ; preds = %if.then13.i.i848
  %178 = landingpad { ptr, i32 }
          catch ptr null
  %179 = extractvalue { ptr, i32 } %178, 0
  call void @__clang_call_terminate(ptr %179) #23
  unreachable

_ZN4cvc58internal8TypeNodeD2Ev.exit850:           ; preds = %_ZN4cvc58internal12NodeTemplateILb1EED2Ev.exit838, %if.then.i.i841, %if.then13.i.i848
  %180 = load ptr, ptr %setType, align 8
  store ptr %180, ptr %agg.tmp254, align 8
  %bf.load.i.i851 = load i64, ptr %180, align 8
  %bf.lshr.i.i852 = lshr i64 %bf.load.i.i851, 40
  %181 = trunc i64 %bf.lshr.i.i852 to i32
  %bf.cast.i.i853 = and i32 %181, 1048575
  %cmp.i.i854 = icmp ult i32 %bf.cast.i.i853, 1048574
  br i1 %cmp.i.i854, label %if.then.i.i859, label %if.else.i.i855

if.then.i.i859:                                   ; preds = %_ZN4cvc58internal8TypeNodeD2Ev.exit850
  %bf.value.i.i860 = add i64 %bf.load.i.i851, 1099511627776
  %bf.shl.i.i861 = and i64 %bf.value.i.i860, 1152920405095219200
  %bf.clear7.i.i862 = and i64 %bf.load.i.i851, -1152920405095219201
  %bf.set.i.i863 = or disjoint i64 %bf.shl.i.i861, %bf.clear7.i.i862
  store i64 %bf.set.i.i863, ptr %180, align 8
  br label %invoke.cont255

if.else.i.i855:                                   ; preds = %_ZN4cvc58internal8TypeNodeD2Ev.exit850
  %cmp12.i.i856 = icmp eq i32 %bf.cast.i.i853, 1048574
  br i1 %cmp12.i.i856, label %if.then13.i.i857, label %invoke.cont255

if.then13.i.i857:                                 ; preds = %if.else.i.i855
  %bf.set23.i.i858 = or i64 %bf.load.i.i851, 1152920405095219200
  store i64 %bf.set23.i.i858, ptr %180, align 8
  invoke void @_ZN4cvc58internal4expr9NodeValue20markRefCountMaxedOutEv(ptr noundef nonnull align 8 dereferenceable(16) %180)
          to label %invoke.cont255 unwind label %lpad234

invoke.cont255:                                   ; preds = %if.else.i.i855, %if.then.i.i859, %if.then13.i.i857
  call void @_ZNSaIcEC1Ev(ptr noundef nonnull align 1 dereferenceable(1) %ref.tmp257) #21
  %call.i870 = invoke noundef ptr @_ZNSt7__cxx1112basic_stringIcSt11char_traitsIcESaIcEE13_M_local_dataEv(ptr noundef nonnull align 8 dereferenceable(32) %ref.tmp256)
          to label %call.i.noexc869 unwind label %lpad258

call.i.noexc869:                                  ; preds = %invoke.cont255
  invoke void @_ZNSt7__cxx1112basic_stringIcSt11char_traitsIcESaIcEE12_Alloc_hiderC1EPcRKS3_(ptr noundef nonnull align 8 dereferenceable(8) %ref.tmp256, ptr noundef %call.i870, ptr noundef nonnull align 1 dereferenceable(1) %ref.tmp257)
          to label %.noexc871 unwind label %lpad258

.noexc871:                                        ; preds = %call.i.noexc869
  invoke void @_ZNSt7__cxx1112basic_stringIcSt11char_traitsIcESaIcEE12_M_constructIPKcEEvT_S8_St20forward_iterator_tag(ptr noundef nonnull align 8 dereferenceable(32) %ref.tmp256, ptr noundef nonnull @.str.6, ptr noundef nonnull getelementptr inbounds ([4 x i8], ptr @.str.6, i64 0, i64 3))
          to label %invoke.cont259 unwind label %lpad.i868

lpad.i868:                                        ; preds = %.noexc871
  %182 = landingpad { ptr, i32 }
          cleanup
  call void @_ZNSaIcED2Ev(ptr noundef nonnull align 1 dereferenceable(1) %ref.tmp256) #21
  br label %ehcleanup271

invoke.cont259:                                   ; preds = %.noexc871
  invoke void @_ZN4cvc58internal5proof17LfscNodeConverter17getSymbolInternalENS0_4kind6Kind_tENS0_8TypeNodeERKNSt7__cxx1112basic_stringIcSt11char_traitsIcESaIcEEEb(ptr nonnull sret(%"class.cvc5::internal::NodeTemplate") align 8 %ref.tmp253, ptr noundef nonnull align 8 dereferenceable(760) %this, i32 noundef 25, ptr noundef nonnull %agg.tmp254, ptr noundef nonnull align 8 dereferenceable(32) %ref.tmp256, i1 noundef zeroext true)
          to label %invoke.cont261 unwind label %lpad260

invoke.cont261:                                   ; preds = %invoke.cont259
  store i32 274, ptr %ref.tmp263, align 4
  call void @llvm.lifetime.start.p0(i64 8, ptr nonnull %ref.tmp9.i874)
  call void @llvm.lifetime.start.p0(i64 1, ptr nonnull %ref.tmp10.i875)
  %183 = load ptr, ptr %_M_parent.i.i.i.i.i80, align 8
  %cmp.not5.i.i.i.i878 = icmp eq ptr %183, null
  br i1 %cmp.not5.i.i.i.i878, label %if.then.i898, label %while.body.i.i.i.i880

while.body.i.i.i.i880:                            ; preds = %invoke.cont261, %while.body.i.i.i.i880
  %__x.addr.07.i.i.i.i881 = phi ptr [ %__x.addr.1.i.i.i.i889, %while.body.i.i.i.i880 ], [ %183, %invoke.cont261 ]
  %__y.addr.06.i.i.i.i882 = phi ptr [ %__y.addr.1.i.i.i.i887, %while.body.i.i.i.i880 ], [ %14, %invoke.cont261 ]
  %_M_storage.i.i.i.i.i.i883 = getelementptr inbounds %"struct.std::_Rb_tree_node", ptr %__x.addr.07.i.i.i.i881, i64 0, i32 1
  %184 = load i32, ptr %_M_storage.i.i.i.i.i.i883, align 4
  %cmp.i.i.i.i.i884 = icmp slt i32 %184, 274
  %_M_right.i.i.i.i.i885 = getelementptr inbounds %"struct.std::_Rb_tree_node_base", ptr %__x.addr.07.i.i.i.i881, i64 0, i32 3
  %_M_left.i.i.i.i.i886 = getelementptr inbounds %"struct.std::_Rb_tree_node_base", ptr %__x.addr.07.i.i.i.i881, i64 0, i32 2
  %__y.addr.1.i.i.i.i887 = select i1 %cmp.i.i.i.i.i884, ptr %__y.addr.06.i.i.i.i882, ptr %__x.addr.07.i.i.i.i881
  %__x.addr.1.in.i.i.i.i888 = select i1 %cmp.i.i.i.i.i884, ptr %_M_right.i.i.i.i.i885, ptr %_M_left.i.i.i.i.i886
  %__x.addr.1.i.i.i.i889 = load ptr, ptr %__x.addr.1.in.i.i.i.i888, align 8
  %cmp.not.i.i.i.i890 = icmp eq ptr %__x.addr.1.i.i.i.i889, null
  br i1 %cmp.not.i.i.i.i890, label %_ZNSt3mapIN4cvc58internal4kind6Kind_tENS1_12NodeTemplateILb1EEESt4lessIS3_ESaISt4pairIKS3_S5_EEE11lower_boundERS9_.exit.i891, label %while.body.i.i.i.i880, !llvm.loop !8

_ZNSt3mapIN4cvc58internal4kind6Kind_tENS1_12NodeTemplateILb1EEESt4lessIS3_ESaISt4pairIKS3_S5_EEE11lower_boundERS9_.exit.i891: ; preds = %while.body.i.i.i.i880
  %cmp.i.i892 = icmp eq ptr %__y.addr.1.i.i.i.i887, %14
  br i1 %cmp.i.i892, label %if.then.i898, label %lor.rhs.i893

lor.rhs.i893:                                     ; preds = %_ZNSt3mapIN4cvc58internal4kind6Kind_tENS1_12NodeTemplateILb1EEESt4lessIS3_ESaISt4pairIKS3_S5_EEE11lower_boundERS9_.exit.i891
  %_M_storage.i.i.i894 = getelementptr inbounds %"struct.std::_Rb_tree_node", ptr %__y.addr.1.i.i.i.i887, i64 0, i32 1
  %185 = load i32, ptr %_M_storage.i.i.i894, align 4
  %cmp.i3.i895 = icmp sgt i32 %185, 274
  br i1 %cmp.i3.i895, label %if.then.i898, label %invoke.cont265

if.then.i898:                                     ; preds = %lor.rhs.i893, %_ZNSt3mapIN4cvc58internal4kind6Kind_tENS1_12NodeTemplateILb1EEESt4lessIS3_ESaISt4pairIKS3_S5_EEE11lower_boundERS9_.exit.i891, %invoke.cont261
  %__y.addr.0.lcssa.i.i.i10.i899 = phi ptr [ %14, %_ZNSt3mapIN4cvc58internal4kind6Kind_tENS1_12NodeTemplateILb1EEESt4lessIS3_ESaISt4pairIKS3_S5_EEE11lower_boundERS9_.exit.i891 ], [ %__y.addr.1.i.i.i.i887, %lor.rhs.i893 ], [ %14, %invoke.cont261 ]
  store ptr %ref.tmp263, ptr %ref.tmp9.i874, align 8, !alias.scope !21
  %call12.i901 = invoke ptr @_ZNSt8_Rb_treeIN4cvc58internal4kind6Kind_tESt4pairIKS3_NS1_12NodeTemplateILb1EEEESt10_Select1stIS8_ESt4lessIS3_ESaIS8_EE22_M_emplace_hint_uniqueIJRKSt21piecewise_construct_tSt5tupleIJOS3_EESJ_IJEEEEESt17_Rb_tree_iteratorIS8_ESt23_Rb_tree_const_iteratorIS8_EDpOT_(ptr noundef nonnull align 8 dereferenceable(48) %d_typeKindToNodeCons, ptr %__y.addr.0.lcssa.i.i.i10.i899, ptr noundef nonnull align 1 dereferenceable(1) @_ZSt19piecewise_construct, ptr noundef nonnull align 8 dereferenceable(8) %ref.tmp9.i874, ptr noundef nonnull align 1 dereferenceable(1) %ref.tmp10.i875)
          to label %invoke.cont265 unwind label %lpad264

invoke.cont265:                                   ; preds = %lor.rhs.i893, %if.then.i898
  %__i.sroa.0.0.i896 = phi ptr [ %__y.addr.1.i.i.i.i887, %lor.rhs.i893 ], [ %call12.i901, %if.then.i898 ]
  %second.i897 = getelementptr inbounds %"struct.std::_Rb_tree_node", ptr %__i.sroa.0.0.i896, i64 0, i32 1, i32 0, i64 8
  call void @llvm.lifetime.end.p0(i64 8, ptr nonnull %ref.tmp9.i874)
  call void @llvm.lifetime.end.p0(i64 1, ptr nonnull %ref.tmp10.i875)
  %186 = load ptr, ptr %second.i897, align 8
  %187 = load ptr, ptr %ref.tmp253, align 8
  %cmp.not.i903 = icmp eq ptr %186, %187
  br i1 %cmp.not.i903, label %invoke.cont267, label %if.then.i904

if.then.i904:                                     ; preds = %invoke.cont265
  %bf.load.i.i905 = load i64, ptr %186, align 8
  %188 = and i64 %bf.load.i.i905, 1152920405095219200
  %cmp.not.i.i906 = icmp eq i64 %188, 1152920405095219200
  br i1 %cmp.not.i.i906, label %_ZN4cvc58internal4expr9NodeValue3decEv.exit.i913, label %if.then.i.i907

if.then.i.i907:                                   ; preds = %if.then.i904
  %bf.value.i.i908 = add i64 %bf.load.i.i905, 1152920405095219200
  %bf.shl.i.i909 = and i64 %bf.value.i.i908, 1152920405095219200
  %bf.clear7.i.i910 = and i64 %bf.load.i.i905, -1152920405095219201
  %bf.set.i.i911 = or disjoint i64 %bf.shl.i.i909, %bf.clear7.i.i910
  store i64 %bf.set.i.i911, ptr %186, align 8
  %cmp12.i.i912 = icmp eq i64 %bf.shl.i.i909, 0
  br i1 %cmp12.i.i912, label %if.then13.i.i927, label %_ZN4cvc58internal4expr9NodeValue3decEv.exit.i913

if.then13.i.i927:                                 ; preds = %if.then.i.i907
  invoke void @_ZN4cvc58internal4expr9NodeValue15markForDeletionEv(ptr noundef nonnull align 8 dereferenceable(16) %186)
          to label %_ZN4cvc58internal4expr9NodeValue3decEv.exit.i913 unwind label %lpad264

_ZN4cvc58internal4expr9NodeValue3decEv.exit.i913: ; preds = %if.then13.i.i927, %if.then.i.i907, %if.then.i904
  %189 = load ptr, ptr %ref.tmp253, align 8
  store ptr %189, ptr %second.i897, align 8
  %bf.load.i2.i914 = load i64, ptr %189, align 8
  %bf.lshr.i.i915 = lshr i64 %bf.load.i2.i914, 40
  %190 = trunc i64 %bf.lshr.i.i915 to i32
  %bf.cast.i.i916 = and i32 %190, 1048575
  %cmp.i.i917 = icmp ult i32 %bf.cast.i.i916, 1048574
  br i1 %cmp.i.i917, label %if.then.i5.i922, label %if.else.i.i918

if.then.i5.i922:                                  ; preds = %_ZN4cvc58internal4expr9NodeValue3decEv.exit.i913
  %bf.value.i6.i923 = add i64 %bf.load.i2.i914, 1099511627776
  %bf.shl.i7.i924 = and i64 %bf.value.i6.i923, 1152920405095219200
  %bf.clear7.i8.i925 = and i64 %bf.load.i2.i914, -1152920405095219201
  %bf.set.i9.i926 = or disjoint i64 %bf.shl.i7.i924, %bf.clear7.i8.i925
  store i64 %bf.set.i9.i926, ptr %189, align 8
  br label %invoke.cont267

if.else.i.i918:                                   ; preds = %_ZN4cvc58internal4expr9NodeValue3decEv.exit.i913
  %cmp12.i3.i919 = icmp eq i32 %bf.cast.i.i916, 1048574
  br i1 %cmp12.i3.i919, label %if.then13.i4.i920, label %invoke.cont267

if.then13.i4.i920:                                ; preds = %if.else.i.i918
  %bf.set23.i.i921 = or i64 %bf.load.i2.i914, 1152920405095219200
  store i64 %bf.set23.i.i921, ptr %189, align 8
  invoke void @_ZN4cvc58internal4expr9NodeValue20markRefCountMaxedOutEv(ptr noundef nonnull align 8 dereferenceable(16) %189)
          to label %invoke.cont267 unwind label %lpad264

invoke.cont267:                                   ; preds = %if.else.i.i918, %if.then.i5.i922, %invoke.cont265, %if.then13.i4.i920
  %191 = load ptr, ptr %ref.tmp253, align 8
  %bf.load.i.i931 = load i64, ptr %191, align 8
  %192 = and i64 %bf.load.i.i931, 1152920405095219200
  %cmp.not.i.i932 = icmp eq i64 %192, 1152920405095219200
  br i1 %cmp.not.i.i932, label %_ZN4cvc58internal12NodeTemplateILb1EED2Ev.exit942, label %if.then.i.i933

if.then.i.i933:                                   ; preds = %invoke.cont267
  %bf.value.i.i934 = add i64 %bf.load.i.i931, 1152920405095219200
  %bf.shl.i.i935 = and i64 %bf.value.i.i934, 1152920405095219200
  %bf.clear7.i.i936 = and i64 %bf.load.i.i931, -1152920405095219201
  %bf.set.i.i937 = or disjoint i64 %bf.shl.i.i935, %bf.clear7.i.i936
  store i64 %bf.set.i.i937, ptr %191, align 8
  %cmp12.i.i938 = icmp eq i64 %bf.shl.i.i935, 0
  br i1 %cmp12.i.i938, label %if.then13.i.i940, label %_ZN4cvc58internal12NodeTemplateILb1EED2Ev.exit942

if.then13.i.i940:                                 ; preds = %if.then.i.i933
  invoke void @_ZN4cvc58internal4expr9NodeValue15markForDeletionEv(ptr noundef nonnull align 8 dereferenceable(16) %191)
          to label %_ZN4cvc58internal12NodeTemplateILb1EED2Ev.exit942 unwind label %terminate.lpad.i941

terminate.lpad.i941:                              ; preds = %if.then13.i.i940
  %193 = landingpad { ptr, i32 }
          catch ptr null
  %194 = extractvalue { ptr, i32 } %193, 0
  call void @__clang_call_terminate(ptr %194) #23
  unreachable

_ZN4cvc58internal12NodeTemplateILb1EED2Ev.exit942: ; preds = %invoke.cont267, %if.then.i.i933, %if.then13.i.i940
  call void @_ZNSt7__cxx1112basic_stringIcSt11char_traitsIcESaIcEED1Ev(ptr noundef nonnull align 8 dereferenceable(32) %ref.tmp256) #21
  call void @_ZNSaIcED1Ev(ptr noundef nonnull align 1 dereferenceable(1) %ref.tmp257) #21
  %bf.load.i.i943 = load i64, ptr %180, align 8
  %195 = and i64 %bf.load.i.i943, 1152920405095219200
  %cmp.not.i.i944 = icmp eq i64 %195, 1152920405095219200
  br i1 %cmp.not.i.i944, label %_ZN4cvc58internal8TypeNodeD2Ev.exit954, label %if.then.i.i945

if.then.i.i945:                                   ; preds = %_ZN4cvc58internal12NodeTemplateILb1EED2Ev.exit942
  %bf.value.i.i946 = add i64 %bf.load.i.i943, 1152920405095219200
  %bf.shl.i.i947 = and i64 %bf.value.i.i946, 1152920405095219200
  %bf.clear7.i.i948 = and i64 %bf.load.i.i943, -1152920405095219201
  %bf.set.i.i949 = or disjoint i64 %bf.shl.i.i947, %bf.clear7.i.i948
  store i64 %bf.set.i.i949, ptr %180, align 8
  %cmp12.i.i950 = icmp eq i64 %bf.shl.i.i947, 0
  br i1 %cmp12.i.i950, label %if.then13.i.i952, label %_ZN4cvc58internal8TypeNodeD2Ev.exit954

if.then13.i.i952:                                 ; preds = %if.then.i.i945
  invoke void @_ZN4cvc58internal4expr9NodeValue15markForDeletionEv(ptr noundef nonnull align 8 dereferenceable(16) %180)
          to label %_ZN4cvc58internal8TypeNodeD2Ev.exit954 unwind label %terminate.lpad.i953

terminate.lpad.i953:                              ; preds = %if.then13.i.i952
  %196 = landingpad { ptr, i32 }
          catch ptr null
  %197 = extractvalue { ptr, i32 } %196, 0
  call void @__clang_call_terminate(ptr %197) #23
  unreachable

_ZN4cvc58internal8TypeNodeD2Ev.exit954:           ; preds = %_ZN4cvc58internal12NodeTemplateILb1EED2Ev.exit942, %if.then.i.i945, %if.then13.i.i952
  %198 = load ptr, ptr %setType, align 8
  store ptr %198, ptr %agg.tmp274, align 8
  %bf.load.i.i955 = load i64, ptr %198, align 8
  %bf.lshr.i.i956 = lshr i64 %bf.load.i.i955, 40
  %199 = trunc i64 %bf.lshr.i.i956 to i32
  %bf.cast.i.i957 = and i32 %199, 1048575
  %cmp.i.i958 = icmp ult i32 %bf.cast.i.i957, 1048574
  br i1 %cmp.i.i958, label %if.then.i.i963, label %if.else.i.i959

if.then.i.i963:                                   ; preds = %_ZN4cvc58internal8TypeNodeD2Ev.exit954
  %bf.value.i.i964 = add i64 %bf.load.i.i955, 1099511627776
  %bf.shl.i.i965 = and i64 %bf.value.i.i964, 1152920405095219200
  %bf.clear7.i.i966 = and i64 %bf.load.i.i955, -1152920405095219201
  %bf.set.i.i967 = or disjoint i64 %bf.shl.i.i965, %bf.clear7.i.i966
  store i64 %bf.set.i.i967, ptr %198, align 8
  br label %invoke.cont275

if.else.i.i959:                                   ; preds = %_ZN4cvc58internal8TypeNodeD2Ev.exit954
  %cmp12.i.i960 = icmp eq i32 %bf.cast.i.i957, 1048574
  br i1 %cmp12.i.i960, label %if.then13.i.i961, label %invoke.cont275

if.then13.i.i961:                                 ; preds = %if.else.i.i959
  %bf.set23.i.i962 = or i64 %bf.load.i.i955, 1152920405095219200
  store i64 %bf.set23.i.i962, ptr %198, align 8
  invoke void @_ZN4cvc58internal4expr9NodeValue20markRefCountMaxedOutEv(ptr noundef nonnull align 8 dereferenceable(16) %198)
          to label %invoke.cont275 unwind label %lpad234

invoke.cont275:                                   ; preds = %if.else.i.i959, %if.then.i.i963, %if.then13.i.i961
  call void @_ZNSaIcEC1Ev(ptr noundef nonnull align 1 dereferenceable(1) %ref.tmp277) #21
  %call.i974 = invoke noundef ptr @_ZNSt7__cxx1112basic_stringIcSt11char_traitsIcESaIcEE13_M_local_dataEv(ptr noundef nonnull align 8 dereferenceable(32) %ref.tmp276)
          to label %call.i.noexc973 unwind label %lpad278

call.i.noexc973:                                  ; preds = %invoke.cont275
  invoke void @_ZNSt7__cxx1112basic_stringIcSt11char_traitsIcESaIcEE12_Alloc_hiderC1EPcRKS3_(ptr noundef nonnull align 8 dereferenceable(8) %ref.tmp276, ptr noundef %call.i974, ptr noundef nonnull align 1 dereferenceable(1) %ref.tmp277)
          to label %.noexc975 unwind label %lpad278

.noexc975:                                        ; preds = %call.i.noexc973
  invoke void @_ZNSt7__cxx1112basic_stringIcSt11char_traitsIcESaIcEE12_M_constructIPKcEEvT_S8_St20forward_iterator_tag(ptr noundef nonnull align 8 dereferenceable(32) %ref.tmp276, ptr noundef nonnull @.str.7, ptr noundef nonnull getelementptr inbounds ([4 x i8], ptr @.str.7, i64 0, i64 3))
          to label %invoke.cont279 unwind label %lpad.i972

lpad.i972:                                        ; preds = %.noexc975
  %200 = landingpad { ptr, i32 }
          cleanup
  call void @_ZNSaIcED2Ev(ptr noundef nonnull align 1 dereferenceable(1) %ref.tmp276) #21
  br label %ehcleanup291

invoke.cont279:                                   ; preds = %.noexc975
  invoke void @_ZN4cvc58internal5proof17LfscNodeConverter17getSymbolInternalENS0_4kind6Kind_tENS0_8TypeNodeERKNSt7__cxx1112basic_stringIcSt11char_traitsIcESaIcEEEb(ptr nonnull sret(%"class.cvc5::internal::NodeTemplate") align 8 %ref.tmp273, ptr noundef nonnull align 8 dereferenceable(760) %this, i32 noundef 25, ptr noundef nonnull %agg.tmp274, ptr noundef nonnull align 8 dereferenceable(32) %ref.tmp276, i1 noundef zeroext true)
          to label %invoke.cont281 unwind label %lpad280

invoke.cont281:                                   ; preds = %invoke.cont279
  store i32 330, ptr %ref.tmp283, align 4
  call void @llvm.lifetime.start.p0(i64 8, ptr nonnull %ref.tmp9.i978)
  call void @llvm.lifetime.start.p0(i64 1, ptr nonnull %ref.tmp10.i979)
  %201 = load ptr, ptr %_M_parent.i.i.i.i.i80, align 8
  %cmp.not5.i.i.i.i982 = icmp eq ptr %201, null
  br i1 %cmp.not5.i.i.i.i982, label %if.then.i1002, label %while.body.i.i.i.i984

while.body.i.i.i.i984:                            ; preds = %invoke.cont281, %while.body.i.i.i.i984
  %__x.addr.07.i.i.i.i985 = phi ptr [ %__x.addr.1.i.i.i.i993, %while.body.i.i.i.i984 ], [ %201, %invoke.cont281 ]
  %__y.addr.06.i.i.i.i986 = phi ptr [ %__y.addr.1.i.i.i.i991, %while.body.i.i.i.i984 ], [ %14, %invoke.cont281 ]
  %_M_storage.i.i.i.i.i.i987 = getelementptr inbounds %"struct.std::_Rb_tree_node", ptr %__x.addr.07.i.i.i.i985, i64 0, i32 1
  %202 = load i32, ptr %_M_storage.i.i.i.i.i.i987, align 4
  %cmp.i.i.i.i.i988 = icmp slt i32 %202, 330
  %_M_right.i.i.i.i.i989 = getelementptr inbounds %"struct.std::_Rb_tree_node_base", ptr %__x.addr.07.i.i.i.i985, i64 0, i32 3
  %_M_left.i.i.i.i.i990 = getelementptr inbounds %"struct.std::_Rb_tree_node_base", ptr %__x.addr.07.i.i.i.i985, i64 0, i32 2
  %__y.addr.1.i.i.i.i991 = select i1 %cmp.i.i.i.i.i988, ptr %__y.addr.06.i.i.i.i986, ptr %__x.addr.07.i.i.i.i985
  %__x.addr.1.in.i.i.i.i992 = select i1 %cmp.i.i.i.i.i988, ptr %_M_right.i.i.i.i.i989, ptr %_M_left.i.i.i.i.i990
  %__x.addr.1.i.i.i.i993 = load ptr, ptr %__x.addr.1.in.i.i.i.i992, align 8
  %cmp.not.i.i.i.i994 = icmp eq ptr %__x.addr.1.i.i.i.i993, null
  br i1 %cmp.not.i.i.i.i994, label %_ZNSt3mapIN4cvc58internal4kind6Kind_tENS1_12NodeTemplateILb1EEESt4lessIS3_ESaISt4pairIKS3_S5_EEE11lower_boundERS9_.exit.i995, label %while.body.i.i.i.i984, !llvm.loop !8

_ZNSt3mapIN4cvc58internal4kind6Kind_tENS1_12NodeTemplateILb1EEESt4lessIS3_ESaISt4pairIKS3_S5_EEE11lower_boundERS9_.exit.i995: ; preds = %while.body.i.i.i.i984
  %cmp.i.i996 = icmp eq ptr %__y.addr.1.i.i.i.i991, %14
  br i1 %cmp.i.i996, label %if.then.i1002, label %lor.rhs.i997

lor.rhs.i997:                                     ; preds = %_ZNSt3mapIN4cvc58internal4kind6Kind_tENS1_12NodeTemplateILb1EEESt4lessIS3_ESaISt4pairIKS3_S5_EEE11lower_boundERS9_.exit.i995
  %_M_storage.i.i.i998 = getelementptr inbounds %"struct.std::_Rb_tree_node", ptr %__y.addr.1.i.i.i.i991, i64 0, i32 1
  %203 = load i32, ptr %_M_storage.i.i.i998, align 4
  %cmp.i3.i999 = icmp sgt i32 %203, 330
  br i1 %cmp.i3.i999, label %if.then.i1002, label %invoke.cont285

if.then.i1002:                                    ; preds = %lor.rhs.i997, %_ZNSt3mapIN4cvc58internal4kind6Kind_tENS1_12NodeTemplateILb1EEESt4lessIS3_ESaISt4pairIKS3_S5_EEE11lower_boundERS9_.exit.i995, %invoke.cont281
  %__y.addr.0.lcssa.i.i.i10.i1003 = phi ptr [ %14, %_ZNSt3mapIN4cvc58internal4kind6Kind_tENS1_12NodeTemplateILb1EEESt4lessIS3_ESaISt4pairIKS3_S5_EEE11lower_boundERS9_.exit.i995 ], [ %__y.addr.1.i.i.i.i991, %lor.rhs.i997 ], [ %14, %invoke.cont281 ]
  store ptr %ref.tmp283, ptr %ref.tmp9.i978, align 8, !alias.scope !24
  %call12.i1005 = invoke ptr @_ZNSt8_Rb_treeIN4cvc58internal4kind6Kind_tESt4pairIKS3_NS1_12NodeTemplateILb1EEEESt10_Select1stIS8_ESt4lessIS3_ESaIS8_EE22_M_emplace_hint_uniqueIJRKSt21piecewise_construct_tSt5tupleIJOS3_EESJ_IJEEEEESt17_Rb_tree_iteratorIS8_ESt23_Rb_tree_const_iteratorIS8_EDpOT_(ptr noundef nonnull align 8 dereferenceable(48) %d_typeKindToNodeCons, ptr %__y.addr.0.lcssa.i.i.i10.i1003, ptr noundef nonnull align 1 dereferenceable(1) @_ZSt19piecewise_construct, ptr noundef nonnull align 8 dereferenceable(8) %ref.tmp9.i978, ptr noundef nonnull align 1 dereferenceable(1) %ref.tmp10.i979)
          to label %invoke.cont285 unwind label %lpad284

invoke.cont285:                                   ; preds = %lor.rhs.i997, %if.then.i1002
  %__i.sroa.0.0.i1000 = phi ptr [ %__y.addr.1.i.i.i.i991, %lor.rhs.i997 ], [ %call12.i1005, %if.then.i1002 ]
  %second.i1001 = getelementptr inbounds %"struct.std::_Rb_tree_node", ptr %__i.sroa.0.0.i1000, i64 0, i32 1, i32 0, i64 8
  call void @llvm.lifetime.end.p0(i64 8, ptr nonnull %ref.tmp9.i978)
  call void @llvm.lifetime.end.p0(i64 1, ptr nonnull %ref.tmp10.i979)
  %204 = load ptr, ptr %second.i1001, align 8
  %205 = load ptr, ptr %ref.tmp273, align 8
  %cmp.not.i1007 = icmp eq ptr %204, %205
  br i1 %cmp.not.i1007, label %invoke.cont287, label %if.then.i1008

if.then.i1008:                                    ; preds = %invoke.cont285
  %bf.load.i.i1009 = load i64, ptr %204, align 8
  %206 = and i64 %bf.load.i.i1009, 1152920405095219200
  %cmp.not.i.i1010 = icmp eq i64 %206, 1152920405095219200
  br i1 %cmp.not.i.i1010, label %_ZN4cvc58internal4expr9NodeValue3decEv.exit.i1017, label %if.then.i.i1011

if.then.i.i1011:                                  ; preds = %if.then.i1008
  %bf.value.i.i1012 = add i64 %bf.load.i.i1009, 1152920405095219200
  %bf.shl.i.i1013 = and i64 %bf.value.i.i1012, 1152920405095219200
  %bf.clear7.i.i1014 = and i64 %bf.load.i.i1009, -1152920405095219201
  %bf.set.i.i1015 = or disjoint i64 %bf.shl.i.i1013, %bf.clear7.i.i1014
  store i64 %bf.set.i.i1015, ptr %204, align 8
  %cmp12.i.i1016 = icmp eq i64 %bf.shl.i.i1013, 0
  br i1 %cmp12.i.i1016, label %if.then13.i.i1031, label %_ZN4cvc58internal4expr9NodeValue3decEv.exit.i1017

if.then13.i.i1031:                                ; preds = %if.then.i.i1011
  invoke void @_ZN4cvc58internal4expr9NodeValue15markForDeletionEv(ptr noundef nonnull align 8 dereferenceable(16) %204)
          to label %_ZN4cvc58internal4expr9NodeValue3decEv.exit.i1017 unwind label %lpad284

_ZN4cvc58internal4expr9NodeValue3decEv.exit.i1017: ; preds = %if.then13.i.i1031, %if.then.i.i1011, %if.then.i1008
  %207 = load ptr, ptr %ref.tmp273, align 8
  store ptr %207, ptr %second.i1001, align 8
  %bf.load.i2.i1018 = load i64, ptr %207, align 8
  %bf.lshr.i.i1019 = lshr i64 %bf.load.i2.i1018, 40
  %208 = trunc i64 %bf.lshr.i.i1019 to i32
  %bf.cast.i.i1020 = and i32 %208, 1048575
  %cmp.i.i1021 = icmp ult i32 %bf.cast.i.i1020, 1048574
  br i1 %cmp.i.i1021, label %if.then.i5.i1026, label %if.else.i.i1022

if.then.i5.i1026:                                 ; preds = %_ZN4cvc58internal4expr9NodeValue3decEv.exit.i1017
  %bf.value.i6.i1027 = add i64 %bf.load.i2.i1018, 1099511627776
  %bf.shl.i7.i1028 = and i64 %bf.value.i6.i1027, 1152920405095219200
  %bf.clear7.i8.i1029 = and i64 %bf.load.i2.i1018, -1152920405095219201
  %bf.set.i9.i1030 = or disjoint i64 %bf.shl.i7.i1028, %bf.clear7.i8.i1029
  store i64 %bf.set.i9.i1030, ptr %207, align 8
  br label %invoke.cont287

if.else.i.i1022:                                  ; preds = %_ZN4cvc58internal4expr9NodeValue3decEv.exit.i1017
  %cmp12.i3.i1023 = icmp eq i32 %bf.cast.i.i1020, 1048574
  br i1 %cmp12.i3.i1023, label %if.then13.i4.i1024, label %invoke.cont287

if.then13.i4.i1024:                               ; preds = %if.else.i.i1022
  %bf.set23.i.i1025 = or i64 %bf.load.i2.i1018, 1152920405095219200
  store i64 %bf.set23.i.i1025, ptr %207, align 8
  invoke void @_ZN4cvc58internal4expr9NodeValue20markRefCountMaxedOutEv(ptr noundef nonnull align 8 dereferenceable(16) %207)
          to label %invoke.cont287 unwind label %lpad284

invoke.cont287:                                   ; preds = %if.else.i.i1022, %if.then.i5.i1026, %invoke.cont285, %if.then13.i4.i1024
  %209 = load ptr, ptr %ref.tmp273, align 8
  %bf.load.i.i1035 = load i64, ptr %209, align 8
  %210 = and i64 %bf.load.i.i1035, 1152920405095219200
  %cmp.not.i.i1036 = icmp eq i64 %210, 1152920405095219200
  br i1 %cmp.not.i.i1036, label %_ZN4cvc58internal12NodeTemplateILb1EED2Ev.exit1046, label %if.then.i.i1037

if.then.i.i1037:                                  ; preds = %invoke.cont287
  %bf.value.i.i1038 = add i64 %bf.load.i.i1035, 1152920405095219200
  %bf.shl.i.i1039 = and i64 %bf.value.i.i1038, 1152920405095219200
  %bf.clear7.i.i1040 = and i64 %bf.load.i.i1035, -1152920405095219201
  %bf.set.i.i1041 = or disjoint i64 %bf.shl.i.i1039, %bf.clear7.i.i1040
  store i64 %bf.set.i.i1041, ptr %209, align 8
  %cmp12.i.i1042 = icmp eq i64 %bf.shl.i.i1039, 0
  br i1 %cmp12.i.i1042, label %if.then13.i.i1044, label %_ZN4cvc58internal12NodeTemplateILb1EED2Ev.exit1046

if.then13.i.i1044:                                ; preds = %if.then.i.i1037
  invoke void @_ZN4cvc58internal4expr9NodeValue15markForDeletionEv(ptr noundef nonnull align 8 dereferenceable(16) %209)
          to label %_ZN4cvc58internal12NodeTemplateILb1EED2Ev.exit1046 unwind label %terminate.lpad.i1045

terminate.lpad.i1045:                             ; preds = %if.then13.i.i1044
  %211 = landingpad { ptr, i32 }
          catch ptr null
  %212 = extractvalue { ptr, i32 } %211, 0
  call void @__clang_call_terminate(ptr %212) #23
  unreachable

_ZN4cvc58internal12NodeTemplateILb1EED2Ev.exit1046: ; preds = %invoke.cont287, %if.then.i.i1037, %if.then13.i.i1044
  call void @_ZNSt7__cxx1112basic_stringIcSt11char_traitsIcESaIcEED1Ev(ptr noundef nonnull align 8 dereferenceable(32) %ref.tmp276) #21
  call void @_ZNSaIcED1Ev(ptr noundef nonnull align 1 dereferenceable(1) %ref.tmp277) #21
  %bf.load.i.i1047 = load i64, ptr %198, align 8
  %213 = and i64 %bf.load.i.i1047, 1152920405095219200
  %cmp.not.i.i1048 = icmp eq i64 %213, 1152920405095219200
  br i1 %cmp.not.i.i1048, label %_ZN4cvc58internal8TypeNodeD2Ev.exit1058, label %if.then.i.i1049

if.then.i.i1049:                                  ; preds = %_ZN4cvc58internal12NodeTemplateILb1EED2Ev.exit1046
  %bf.value.i.i1050 = add i64 %bf.load.i.i1047, 1152920405095219200
  %bf.shl.i.i1051 = and i64 %bf.value.i.i1050, 1152920405095219200
  %bf.clear7.i.i1052 = and i64 %bf.load.i.i1047, -1152920405095219201
  %bf.set.i.i1053 = or disjoint i64 %bf.shl.i.i1051, %bf.clear7.i.i1052
  store i64 %bf.set.i.i1053, ptr %198, align 8
  %cmp12.i.i1054 = icmp eq i64 %bf.shl.i.i1051, 0
  br i1 %cmp12.i.i1054, label %if.then13.i.i1056, label %_ZN4cvc58internal8TypeNodeD2Ev.exit1058

if.then13.i.i1056:                                ; preds = %if.then.i.i1049
  invoke void @_ZN4cvc58internal4expr9NodeValue15markForDeletionEv(ptr noundef nonnull align 8 dereferenceable(16) %198)
          to label %_ZN4cvc58internal8TypeNodeD2Ev.exit1058 unwind label %terminate.lpad.i1057

terminate.lpad.i1057:                             ; preds = %if.then13.i.i1056
  %214 = landingpad { ptr, i32 }
          catch ptr null
  %215 = extractvalue { ptr, i32 } %214, 0
  call void @__clang_call_terminate(ptr %215) #23
  unreachable

_ZN4cvc58internal8TypeNodeD2Ev.exit1058:          ; preds = %_ZN4cvc58internal12NodeTemplateILb1EED2Ev.exit1046, %if.then.i.i1049, %if.then13.i.i1056
  %216 = load ptr, ptr %setType, align 8
  %bf.load.i.i1059 = load i64, ptr %216, align 8
  %217 = and i64 %bf.load.i.i1059, 1152920405095219200
  %cmp.not.i.i1060 = icmp eq i64 %217, 1152920405095219200
  br i1 %cmp.not.i.i1060, label %_ZN4cvc58internal8TypeNodeD2Ev.exit1070, label %if.then.i.i1061

if.then.i.i1061:                                  ; preds = %_ZN4cvc58internal8TypeNodeD2Ev.exit1058
  %bf.value.i.i1062 = add i64 %bf.load.i.i1059, 1152920405095219200
  %bf.shl.i.i1063 = and i64 %bf.value.i.i1062, 1152920405095219200
  %bf.clear7.i.i1064 = and i64 %bf.load.i.i1059, -1152920405095219201
  %bf.set.i.i1065 = or disjoint i64 %bf.shl.i.i1063, %bf.clear7.i.i1064
  store i64 %bf.set.i.i1065, ptr %216, align 8
  %cmp12.i.i1066 = icmp eq i64 %bf.shl.i.i1063, 0
  br i1 %cmp12.i.i1066, label %if.then13.i.i1068, label %_ZN4cvc58internal8TypeNodeD2Ev.exit1070

if.then13.i.i1068:                                ; preds = %if.then.i.i1061
  invoke void @_ZN4cvc58internal4expr9NodeValue15markForDeletionEv(ptr noundef nonnull align 8 dereferenceable(16) %216)
          to label %_ZN4cvc58internal8TypeNodeD2Ev.exit1070 unwind label %terminate.lpad.i1069

terminate.lpad.i1069:                             ; preds = %if.then13.i.i1068
  %218 = landingpad { ptr, i32 }
          catch ptr null
  %219 = extractvalue { ptr, i32 } %218, 0
  call void @__clang_call_terminate(ptr %219) #23
  unreachable

_ZN4cvc58internal8TypeNodeD2Ev.exit1070:          ; preds = %_ZN4cvc58internal8TypeNodeD2Ev.exit1058, %if.then.i.i1061, %if.then13.i.i1068
  %220 = load ptr, ptr %fpType, align 8
  %bf.load.i.i1071 = load i64, ptr %220, align 8
  %221 = and i64 %bf.load.i.i1071, 1152920405095219200
  %cmp.not.i.i1072 = icmp eq i64 %221, 1152920405095219200
  br i1 %cmp.not.i.i1072, label %_ZN4cvc58internal8TypeNodeD2Ev.exit1082, label %if.then.i.i1073

if.then.i.i1073:                                  ; preds = %_ZN4cvc58internal8TypeNodeD2Ev.exit1070
  %bf.value.i.i1074 = add i64 %bf.load.i.i1071, 1152920405095219200
  %bf.shl.i.i1075 = and i64 %bf.value.i.i1074, 1152920405095219200
  %bf.clear7.i.i1076 = and i64 %bf.load.i.i1071, -1152920405095219201
  %bf.set.i.i1077 = or disjoint i64 %bf.shl.i.i1075, %bf.clear7.i.i1076
  store i64 %bf.set.i.i1077, ptr %220, align 8
  %cmp12.i.i1078 = icmp eq i64 %bf.shl.i.i1075, 0
  br i1 %cmp12.i.i1078, label %if.then13.i.i1080, label %_ZN4cvc58internal8TypeNodeD2Ev.exit1082

if.then13.i.i1080:                                ; preds = %if.then.i.i1073
  invoke void @_ZN4cvc58internal4expr9NodeValue15markForDeletionEv(ptr noundef nonnull align 8 dereferenceable(16) %220)
          to label %_ZN4cvc58internal8TypeNodeD2Ev.exit1082 unwind label %terminate.lpad.i1081

terminate.lpad.i1081:                             ; preds = %if.then13.i.i1080
  %222 = landingpad { ptr, i32 }
          catch ptr null
  %223 = extractvalue { ptr, i32 } %222, 0
  call void @__clang_call_terminate(ptr %223) #23
  unreachable

_ZN4cvc58internal8TypeNodeD2Ev.exit1082:          ; preds = %_ZN4cvc58internal8TypeNodeD2Ev.exit1070, %if.then.i.i1073, %if.then13.i.i1080
  %224 = load ptr, ptr %bvType, align 8
  %bf.load.i.i1083 = load i64, ptr %224, align 8
  %225 = and i64 %bf.load.i.i1083, 1152920405095219200
  %cmp.not.i.i1084 = icmp eq i64 %225, 1152920405095219200
  br i1 %cmp.not.i.i1084, label %_ZN4cvc58internal8TypeNodeD2Ev.exit1094, label %if.then.i.i1085

if.then.i.i1085:                                  ; preds = %_ZN4cvc58internal8TypeNodeD2Ev.exit1082
  %bf.value.i.i1086 = add i64 %bf.load.i.i1083, 1152920405095219200
  %bf.shl.i.i1087 = and i64 %bf.value.i.i1086, 1152920405095219200
  %bf.clear7.i.i1088 = and i64 %bf.load.i.i1083, -1152920405095219201
  %bf.set.i.i1089 = or disjoint i64 %bf.shl.i.i1087, %bf.clear7.i.i1088
  store i64 %bf.set.i.i1089, ptr %224, align 8
  %cmp12.i.i1090 = icmp eq i64 %bf.shl.i.i1087, 0
  br i1 %cmp12.i.i1090, label %if.then13.i.i1092, label %_ZN4cvc58internal8TypeNodeD2Ev.exit1094

if.then13.i.i1092:                                ; preds = %if.then.i.i1085
  invoke void @_ZN4cvc58internal4expr9NodeValue15markForDeletionEv(ptr noundef nonnull align 8 dereferenceable(16) %224)
          to label %_ZN4cvc58internal8TypeNodeD2Ev.exit1094 unwind label %terminate.lpad.i1093

terminate.lpad.i1093:                             ; preds = %if.then13.i.i1092
  %226 = landingpad { ptr, i32 }
          catch ptr null
  %227 = extractvalue { ptr, i32 } %226, 0
  call void @__clang_call_terminate(ptr %227) #23
  unreachable

_ZN4cvc58internal8TypeNodeD2Ev.exit1094:          ; preds = %_ZN4cvc58internal8TypeNodeD2Ev.exit1082, %if.then.i.i1085, %if.then13.i.i1092
  %228 = load ptr, ptr %arrType, align 8
  %bf.load.i.i1095 = load i64, ptr %228, align 8
  %229 = and i64 %bf.load.i.i1095, 1152920405095219200
  %cmp.not.i.i1096 = icmp eq i64 %229, 1152920405095219200
  br i1 %cmp.not.i.i1096, label %_ZN4cvc58internal8TypeNodeD2Ev.exit1106, label %if.then.i.i1097

if.then.i.i1097:                                  ; preds = %_ZN4cvc58internal8TypeNodeD2Ev.exit1094
  %bf.value.i.i1098 = add i64 %bf.load.i.i1095, 1152920405095219200
  %bf.shl.i.i1099 = and i64 %bf.value.i.i1098, 1152920405095219200
  %bf.clear7.i.i1100 = and i64 %bf.load.i.i1095, -1152920405095219201
  %bf.set.i.i1101 = or disjoint i64 %bf.shl.i.i1099, %bf.clear7.i.i1100
  store i64 %bf.set.i.i1101, ptr %228, align 8
  %cmp12.i.i1102 = icmp eq i64 %bf.shl.i.i1099, 0
  br i1 %cmp12.i.i1102, label %if.then13.i.i1104, label %_ZN4cvc58internal8TypeNodeD2Ev.exit1106

if.then13.i.i1104:                                ; preds = %if.then.i.i1097
  invoke void @_ZN4cvc58internal4expr9NodeValue15markForDeletionEv(ptr noundef nonnull align 8 dereferenceable(16) %228)
          to label %_ZN4cvc58internal8TypeNodeD2Ev.exit1106 unwind label %terminate.lpad.i1105

terminate.lpad.i1105:                             ; preds = %if.then13.i.i1104
  %230 = landingpad { ptr, i32 }
          catch ptr null
  %231 = extractvalue { ptr, i32 } %230, 0
  call void @__clang_call_terminate(ptr %231) #23
  unreachable

_ZN4cvc58internal8TypeNodeD2Ev.exit1106:          ; preds = %_ZN4cvc58internal8TypeNodeD2Ev.exit1094, %if.then.i.i1097, %if.then13.i.i1104
  %232 = load ptr, ptr %intType, align 8
  %bf.load.i.i1107 = load i64, ptr %232, align 8
  %233 = and i64 %bf.load.i.i1107, 1152920405095219200
  %cmp.not.i.i1108 = icmp eq i64 %233, 1152920405095219200
  br i1 %cmp.not.i.i1108, label %_ZN4cvc58internal8TypeNodeD2Ev.exit1118, label %if.then.i.i1109

if.then.i.i1109:                                  ; preds = %_ZN4cvc58internal8TypeNodeD2Ev.exit1106
  %bf.value.i.i1110 = add i64 %bf.load.i.i1107, 1152920405095219200
  %bf.shl.i.i1111 = and i64 %bf.value.i.i1110, 1152920405095219200
  %bf.clear7.i.i1112 = and i64 %bf.load.i.i1107, -1152920405095219201
  %bf.set.i.i1113 = or disjoint i64 %bf.shl.i.i1111, %bf.clear7.i.i1112
  store i64 %bf.set.i.i1113, ptr %232, align 8
  %cmp12.i.i1114 = icmp eq i64 %bf.shl.i.i1111, 0
  br i1 %cmp12.i.i1114, label %if.then13.i.i1116, label %_ZN4cvc58internal8TypeNodeD2Ev.exit1118

if.then13.i.i1116:                                ; preds = %if.then.i.i1109
  invoke void @_ZN4cvc58internal4expr9NodeValue15markForDeletionEv(ptr noundef nonnull align 8 dereferenceable(16) %232)
          to label %_ZN4cvc58internal8TypeNodeD2Ev.exit1118 unwind label %terminate.lpad.i1117

terminate.lpad.i1117:                             ; preds = %if.then13.i.i1116
  %234 = landingpad { ptr, i32 }
          catch ptr null
  %235 = extractvalue { ptr, i32 } %234, 0
  call void @__clang_call_terminate(ptr %235) #23
  unreachable

_ZN4cvc58internal8TypeNodeD2Ev.exit1118:          ; preds = %_ZN4cvc58internal8TypeNodeD2Ev.exit1106, %if.then.i.i1109, %if.then13.i.i1116
  %236 = load ptr, ptr %anfType, align 8
  %bf.load.i.i1119 = load i64, ptr %236, align 8
  %237 = and i64 %bf.load.i.i1119, 1152920405095219200
  %cmp.not.i.i1120 = icmp eq i64 %237, 1152920405095219200
  br i1 %cmp.not.i.i1120, label %_ZN4cvc58internal8TypeNodeD2Ev.exit1130, label %if.then.i.i1121

if.then.i.i1121:                                  ; preds = %_ZN4cvc58internal8TypeNodeD2Ev.exit1118
  %bf.value.i.i1122 = add i64 %bf.load.i.i1119, 1152920405095219200
  %bf.shl.i.i1123 = and i64 %bf.value.i.i1122, 1152920405095219200
  %bf.clear7.i.i1124 = and i64 %bf.load.i.i1119, -1152920405095219201
  %bf.set.i.i1125 = or disjoint i64 %bf.shl.i.i1123, %bf.clear7.i.i1124
  store i64 %bf.set.i.i1125, ptr %236, align 8
  %cmp12.i.i1126 = icmp eq i64 %bf.shl.i.i1123, 0
  br i1 %cmp12.i.i1126, label %if.then13.i.i1128, label %_ZN4cvc58internal8TypeNodeD2Ev.exit1130

if.then13.i.i1128:                                ; preds = %if.then.i.i1121
  invoke void @_ZN4cvc58internal4expr9NodeValue15markForDeletionEv(ptr noundef nonnull align 8 dereferenceable(16) %236)
          to label %_ZN4cvc58internal8TypeNodeD2Ev.exit1130 unwind label %terminate.lpad.i1129

terminate.lpad.i1129:                             ; preds = %if.then13.i.i1128
  %238 = landingpad { ptr, i32 }
          catch ptr null
  %239 = extractvalue { ptr, i32 } %238, 0
  call void @__clang_call_terminate(ptr %239) #23
  unreachable

_ZN4cvc58internal8TypeNodeD2Ev.exit1130:          ; preds = %_ZN4cvc58internal8TypeNodeD2Ev.exit1118, %if.then.i.i1121, %if.then13.i.i1128
  ret void

lpad4:                                            ; preds = %invoke.cont3
  %240 = landingpad { ptr, i32 }
          cleanup
  br label %ehcleanup299

lpad8:                                            ; preds = %call.i.noexc, %invoke.cont5
  %241 = landingpad { ptr, i32 }
          cleanup
  br label %ehcleanup16

lpad10:                                           ; preds = %invoke.cont9
  %242 = landingpad { ptr, i32 }
          cleanup
  br label %ehcleanup

lpad13:                                           ; preds = %if.then13.i4.i, %if.then13.i.i
  %243 = landingpad { ptr, i32 }
          cleanup
  call void @_ZN4cvc58internal8TypeNodeD2Ev(ptr noundef nonnull align 8 dereferenceable(8) %ref.tmp) #21
  br label %ehcleanup

ehcleanup:                                        ; preds = %lpad13, %lpad10
  %.pn = phi { ptr, i32 } [ %243, %lpad13 ], [ %242, %lpad10 ]
  call void @_ZNSt7__cxx1112basic_stringIcSt11char_traitsIcESaIcEED1Ev(ptr noundef nonnull align 8 dereferenceable(32) %ref.tmp6) #21
  br label %ehcleanup16

ehcleanup16:                                      ; preds = %lpad8, %lpad.i, %ehcleanup
  %.pn.pn = phi { ptr, i32 } [ %.pn, %ehcleanup ], [ %241, %lpad8 ], [ %15, %lpad.i ]
  call void @_ZNSaIcED1Ev(ptr noundef nonnull align 1 dereferenceable(1) %ref.tmp7) #21
  br label %ehcleanup299

lpad20:                                           ; preds = %call.i.noexc111, %_ZN4cvc58internal8TypeNodeD2Ev.exit
  %244 = landingpad { ptr, i32 }
          cleanup
  br label %ehcleanup30

lpad22:                                           ; preds = %invoke.cont21
  %245 = landingpad { ptr, i32 }
          cleanup
  br label %ehcleanup29

lpad25:                                           ; preds = %if.then13.i4.i133, %if.then13.i.i140
  %246 = landingpad { ptr, i32 }
          cleanup
  call void @_ZN4cvc58internal8TypeNodeD2Ev(ptr noundef nonnull align 8 dereferenceable(8) %ref.tmp17) #21
  br label %ehcleanup29

ehcleanup29:                                      ; preds = %lpad25, %lpad22
  %.pn10 = phi { ptr, i32 } [ %246, %lpad25 ], [ %245, %lpad22 ]
  call void @_ZNSt7__cxx1112basic_stringIcSt11char_traitsIcESaIcEED1Ev(ptr noundef nonnull align 8 dereferenceable(32) %ref.tmp18) #21
  br label %ehcleanup30

ehcleanup30:                                      ; preds = %lpad20, %lpad.i110, %ehcleanup29
  %.pn10.pn = phi { ptr, i32 } [ %.pn10, %ehcleanup29 ], [ %244, %lpad20 ], [ %25, %lpad.i110 ]
  call void @_ZNSaIcED1Ev(ptr noundef nonnull align 1 dereferenceable(1) %ref.tmp19) #21
  br label %ehcleanup299

lpad34:                                           ; preds = %if.then13.i.i175
  %247 = landingpad { ptr, i32 }
          cleanup
  call void @_ZN4cvc58internal8TypeNodeD2Ev(ptr noundef nonnull align 8 dereferenceable(8) %ref.tmp32) #21
  br label %ehcleanup299

lpad44:                                           ; preds = %invoke.cont42
  %248 = landingpad { ptr, i32 }
          cleanup
  call void @_ZNSt6vectorIN4cvc58internal8TypeNodeESaIS2_EED2Ev(ptr noundef nonnull align 8 dereferenceable(24) %ref.tmp31) #21
  br label %ehcleanup47

ehcleanup47:                                      ; preds = %if.then.i.i4.i, %lpad.i184, %lpad44
  %.pn13 = phi { ptr, i32 } [ %248, %lpad44 ], [ %40, %if.then.i.i4.i ], [ %40, %lpad.i184 ]
  br label %arraydestroy.body55

arraydestroy.body55:                              ; preds = %arraydestroy.body55, %ehcleanup47
  %arraydestroy.elementPast56 = phi ptr [ %add.ptr.i.i, %ehcleanup47 ], [ %arraydestroy.element57, %arraydestroy.body55 ]
  %arraydestroy.element57 = getelementptr inbounds %"class.cvc5::internal::TypeNode", ptr %arraydestroy.elementPast56, i64 -1
  call void @_ZN4cvc58internal8TypeNodeD2Ev(ptr noundef nonnull align 8 dereferenceable(8) %arraydestroy.element57) #21
  %arraydestroy.done58 = icmp eq ptr %arraydestroy.element57, %ref.tmp32
  br i1 %arraydestroy.done58, label %ehcleanup299, label %arraydestroy.body55

lpad62:                                           ; preds = %if.then13.i.i206, %_ZN4cvc58internal8TypeNodeD2Ev.exit279
  %249 = landingpad { ptr, i32 }
          cleanup
  br label %ehcleanup298

lpad66:                                           ; preds = %call.i.noexc218, %invoke.cont63
  %250 = landingpad { ptr, i32 }
          cleanup
  br label %ehcleanup79

lpad68:                                           ; preds = %invoke.cont67
  %251 = landingpad { ptr, i32 }
          cleanup
  br label %ehcleanup78

lpad72:                                           ; preds = %if.then13.i4.i247, %if.then13.i.i254, %if.then.i228
  %252 = landingpad { ptr, i32 }
          cleanup
  call void @_ZN4cvc58internal12NodeTemplateILb1EED2Ev(ptr noundef nonnull align 8 dereferenceable(8) %ref.tmp60) #21
  br label %ehcleanup78

ehcleanup78:                                      ; preds = %lpad72, %lpad68
  %.pn15 = phi { ptr, i32 } [ %252, %lpad72 ], [ %251, %lpad68 ]
  call void @_ZNSt7__cxx1112basic_stringIcSt11char_traitsIcESaIcEED1Ev(ptr noundef nonnull align 8 dereferenceable(32) %ref.tmp64) #21
  br label %ehcleanup79

ehcleanup79:                                      ; preds = %lpad66, %lpad.i217, %ehcleanup78
  %.pn15.pn = phi { ptr, i32 } [ %.pn15, %ehcleanup78 ], [ %250, %lpad66 ], [ %55, %lpad.i217 ]
  call void @_ZNSaIcED1Ev(ptr noundef nonnull align 1 dereferenceable(1) %ref.tmp65) #21
  call void @_ZN4cvc58internal8TypeNodeD2Ev(ptr noundef nonnull align 8 dereferenceable(8) %agg.tmp61) #21
  br label %ehcleanup298

lpad88:                                           ; preds = %if.then13.i.i301
  %253 = landingpad { ptr, i32 }
          cleanup
  call void @_ZN4cvc58internal8TypeNodeD2Ev(ptr noundef nonnull align 8 dereferenceable(8) %ref.tmp84) #21
  br label %ehcleanup297

lpad107:                                          ; preds = %invoke.cont105
  %254 = landingpad { ptr, i32 }
          cleanup
  call void @_ZNSt6vectorIN4cvc58internal8TypeNodeESaIS2_EED2Ev(ptr noundef nonnull align 8 dereferenceable(24) %ref.tmp82) #21
  br label %ehcleanup110

ehcleanup110:                                     ; preds = %if.then.i.i4.i314, %lpad.i312, %lpad107
  %.pn18 = phi { ptr, i32 } [ %254, %lpad107 ], [ %77, %if.then.i.i4.i314 ], [ %77, %lpad.i312 ]
  br label %arraydestroy.body119

arraydestroy.body119:                             ; preds = %arraydestroy.body119, %ehcleanup110
  %arraydestroy.elementPast120 = phi ptr [ %add.ptr.i.i310, %ehcleanup110 ], [ %arraydestroy.element121, %arraydestroy.body119 ]
  %arraydestroy.element121 = getelementptr inbounds %"class.cvc5::internal::TypeNode", ptr %arraydestroy.elementPast120, i64 -1
  call void @_ZN4cvc58internal8TypeNodeD2Ev(ptr noundef nonnull align 8 dereferenceable(8) %arraydestroy.element121) #21
  %arraydestroy.done122 = icmp eq ptr %arraydestroy.element121, %ref.tmp84
  br i1 %arraydestroy.done122, label %ehcleanup297, label %arraydestroy.body119

lpad126:                                          ; preds = %if.then13.i.i366, %_ZN4cvc58internal8TypeNodeD2Ev.exit458
  %255 = landingpad { ptr, i32 }
          cleanup
  br label %ehcleanup296

lpad130:                                          ; preds = %call.i.noexc378, %invoke.cont127
  %256 = landingpad { ptr, i32 }
          cleanup
  br label %ehcleanup143

lpad132:                                          ; preds = %invoke.cont131
  %257 = landingpad { ptr, i32 }
          cleanup
  br label %ehcleanup142

lpad136:                                          ; preds = %if.then13.i4.i424, %if.then13.i.i431, %if.then.i404
  %258 = landingpad { ptr, i32 }
          cleanup
  call void @_ZN4cvc58internal12NodeTemplateILb1EED2Ev(ptr noundef nonnull align 8 dereferenceable(8) %ref.tmp124) #21
  br label %ehcleanup142

ehcleanup142:                                     ; preds = %lpad136, %lpad132
  %.pn20 = phi { ptr, i32 } [ %258, %lpad136 ], [ %257, %lpad132 ]
  call void @_ZNSt7__cxx1112basic_stringIcSt11char_traitsIcESaIcEED1Ev(ptr noundef nonnull align 8 dereferenceable(32) %ref.tmp128) #21
  br label %ehcleanup143

ehcleanup143:                                     ; preds = %lpad130, %lpad.i377, %ehcleanup142
  %.pn20.pn = phi { ptr, i32 } [ %.pn20, %ehcleanup142 ], [ %256, %lpad130 ], [ %92, %lpad.i377 ]
  call void @_ZNSaIcED1Ev(ptr noundef nonnull align 1 dereferenceable(1) %ref.tmp129) #21
  call void @_ZN4cvc58internal8TypeNodeD2Ev(ptr noundef nonnull align 8 dereferenceable(8) %agg.tmp125) #21
  br label %ehcleanup296

lpad149:                                          ; preds = %if.then13.i.i465
  %259 = landingpad { ptr, i32 }
          cleanup
  br label %ehcleanup295

lpad153:                                          ; preds = %call.i.noexc477, %invoke.cont150
  %260 = landingpad { ptr, i32 }
          cleanup
  br label %ehcleanup166

lpad155:                                          ; preds = %invoke.cont154
  %261 = landingpad { ptr, i32 }
          cleanup
  br label %ehcleanup165

lpad159:                                          ; preds = %if.then13.i4.i528, %if.then13.i.i535, %if.then.i506
  %262 = landingpad { ptr, i32 }
          cleanup
  call void @_ZN4cvc58internal12NodeTemplateILb1EED2Ev(ptr noundef nonnull align 8 dereferenceable(8) %ref.tmp147) #21
  br label %ehcleanup165

ehcleanup165:                                     ; preds = %lpad159, %lpad155
  %.pn23 = phi { ptr, i32 } [ %262, %lpad159 ], [ %261, %lpad155 ]
  call void @_ZNSt7__cxx1112basic_stringIcSt11char_traitsIcESaIcEED1Ev(ptr noundef nonnull align 8 dereferenceable(32) %ref.tmp151) #21
  br label %ehcleanup166

ehcleanup166:                                     ; preds = %lpad153, %lpad.i476, %ehcleanup165
  %.pn23.pn = phi { ptr, i32 } [ %.pn23, %ehcleanup165 ], [ %260, %lpad153 ], [ %110, %lpad.i476 ]
  call void @_ZNSaIcED1Ev(ptr noundef nonnull align 1 dereferenceable(1) %ref.tmp152) #21
  call void @_ZN4cvc58internal8TypeNodeD2Ev(ptr noundef nonnull align 8 dereferenceable(8) %agg.tmp148) #21
  br label %ehcleanup295

lpad173:                                          ; preds = %if.then13.i.i584
  %263 = landingpad { ptr, i32 }
          cleanup
  call void @_ZN4cvc58internal8TypeNodeD2Ev(ptr noundef nonnull align 8 dereferenceable(8) %ref.tmp170) #21
  br label %ehcleanup295

lpad191:                                          ; preds = %invoke.cont189
  %264 = landingpad { ptr, i32 }
          cleanup
  call void @_ZNSt6vectorIN4cvc58internal8TypeNodeESaIS2_EED2Ev(ptr noundef nonnull align 8 dereferenceable(24) %ref.tmp168) #21
  br label %ehcleanup194

ehcleanup194:                                     ; preds = %if.then.i.i4.i597, %lpad.i595, %lpad191
  %.pn26 = phi { ptr, i32 } [ %264, %lpad191 ], [ %131, %if.then.i.i4.i597 ], [ %131, %lpad.i595 ]
  br label %arraydestroy.body203

arraydestroy.body203:                             ; preds = %arraydestroy.body203, %ehcleanup194
  %arraydestroy.elementPast204 = phi ptr [ %add.ptr.i.i593, %ehcleanup194 ], [ %arraydestroy.element205, %arraydestroy.body203 ]
  %arraydestroy.element205 = getelementptr inbounds %"class.cvc5::internal::TypeNode", ptr %arraydestroy.elementPast204, i64 -1
  call void @_ZN4cvc58internal8TypeNodeD2Ev(ptr noundef nonnull align 8 dereferenceable(8) %arraydestroy.element205) #21
  %arraydestroy.done206 = icmp eq ptr %arraydestroy.element205, %ref.tmp170
  br i1 %arraydestroy.done206, label %ehcleanup295, label %arraydestroy.body203

lpad210:                                          ; preds = %if.then13.i.i649, %_ZN4cvc58internal8TypeNodeD2Ev.exit746
  %265 = landingpad { ptr, i32 }
          cleanup
  br label %ehcleanup294

lpad214:                                          ; preds = %call.i.noexc661, %invoke.cont211
  %266 = landingpad { ptr, i32 }
          cleanup
  br label %ehcleanup227

lpad216:                                          ; preds = %invoke.cont215
  %267 = landingpad { ptr, i32 }
          cleanup
  br label %ehcleanup226

lpad220:                                          ; preds = %if.then13.i4.i712, %if.then13.i.i719, %if.then.i690
  %268 = landingpad { ptr, i32 }
          cleanup
  call void @_ZN4cvc58internal12NodeTemplateILb1EED2Ev(ptr noundef nonnull align 8 dereferenceable(8) %ref.tmp208) #21
  br label %ehcleanup226

ehcleanup226:                                     ; preds = %lpad220, %lpad216
  %.pn28 = phi { ptr, i32 } [ %268, %lpad220 ], [ %267, %lpad216 ]
  call void @_ZNSt7__cxx1112basic_stringIcSt11char_traitsIcESaIcEED1Ev(ptr noundef nonnull align 8 dereferenceable(32) %ref.tmp212) #21
  br label %ehcleanup227

ehcleanup227:                                     ; preds = %lpad214, %lpad.i660, %ehcleanup226
  %.pn28.pn = phi { ptr, i32 } [ %.pn28, %ehcleanup226 ], [ %266, %lpad214 ], [ %146, %lpad.i660 ]
  call void @_ZNSaIcED1Ev(ptr noundef nonnull align 1 dereferenceable(1) %ref.tmp213) #21
  call void @_ZN4cvc58internal8TypeNodeD2Ev(ptr noundef nonnull align 8 dereferenceable(8) %agg.tmp209) #21
  br label %ehcleanup294

lpad234:                                          ; preds = %if.then13.i.i961, %if.then13.i.i857, %if.then13.i.i753
  %269 = landingpad { ptr, i32 }
          cleanup
  br label %ehcleanup293

lpad238:                                          ; preds = %call.i.noexc765, %invoke.cont235
  %270 = landingpad { ptr, i32 }
          cleanup
  br label %ehcleanup251

lpad240:                                          ; preds = %invoke.cont239
  %271 = landingpad { ptr, i32 }
          cleanup
  br label %ehcleanup250

lpad244:                                          ; preds = %if.then13.i4.i816, %if.then13.i.i823, %if.then.i794
  %272 = landingpad { ptr, i32 }
          cleanup
  call void @_ZN4cvc58internal12NodeTemplateILb1EED2Ev(ptr noundef nonnull align 8 dereferenceable(8) %ref.tmp232) #21
  br label %ehcleanup250

ehcleanup250:                                     ; preds = %lpad244, %lpad240
  %.pn31 = phi { ptr, i32 } [ %272, %lpad244 ], [ %271, %lpad240 ]
  call void @_ZNSt7__cxx1112basic_stringIcSt11char_traitsIcESaIcEED1Ev(ptr noundef nonnull align 8 dereferenceable(32) %ref.tmp236) #21
  br label %ehcleanup251

ehcleanup251:                                     ; preds = %lpad238, %lpad.i764, %ehcleanup250
  %.pn31.pn = phi { ptr, i32 } [ %.pn31, %ehcleanup250 ], [ %270, %lpad238 ], [ %164, %lpad.i764 ]
  call void @_ZNSaIcED1Ev(ptr noundef nonnull align 1 dereferenceable(1) %ref.tmp237) #21
  call void @_ZN4cvc58internal8TypeNodeD2Ev(ptr noundef nonnull align 8 dereferenceable(8) %agg.tmp233) #21
  br label %ehcleanup293

lpad258:                                          ; preds = %call.i.noexc869, %invoke.cont255
  %273 = landingpad { ptr, i32 }
          cleanup
  br label %ehcleanup271

lpad260:                                          ; preds = %invoke.cont259
  %274 = landingpad { ptr, i32 }
          cleanup
  br label %ehcleanup270

lpad264:                                          ; preds = %if.then13.i4.i920, %if.then13.i.i927, %if.then.i898
  %275 = landingpad { ptr, i32 }
          cleanup
  call void @_ZN4cvc58internal12NodeTemplateILb1EED2Ev(ptr noundef nonnull align 8 dereferenceable(8) %ref.tmp253) #21
  br label %ehcleanup270

ehcleanup270:                                     ; preds = %lpad264, %lpad260
  %.pn34 = phi { ptr, i32 } [ %275, %lpad264 ], [ %274, %lpad260 ]
  call void @_ZNSt7__cxx1112basic_stringIcSt11char_traitsIcESaIcEED1Ev(ptr noundef nonnull align 8 dereferenceable(32) %ref.tmp256) #21
  br label %ehcleanup271

ehcleanup271:                                     ; preds = %lpad258, %lpad.i868, %ehcleanup270
  %.pn34.pn = phi { ptr, i32 } [ %.pn34, %ehcleanup270 ], [ %273, %lpad258 ], [ %182, %lpad.i868 ]
  call void @_ZNSaIcED1Ev(ptr noundef nonnull align 1 dereferenceable(1) %ref.tmp257) #21
  call void @_ZN4cvc58internal8TypeNodeD2Ev(ptr noundef nonnull align 8 dereferenceable(8) %agg.tmp254) #21
  br label %ehcleanup293

lpad278:                                          ; preds = %call.i.noexc973, %invoke.cont275
  %276 = landingpad { ptr, i32 }
          cleanup
  br label %ehcleanup291

lpad280:                                          ; preds = %invoke.cont279
  %277 = landingpad { ptr, i32 }
          cleanup
  br label %ehcleanup290

lpad284:                                          ; preds = %if.then13.i4.i1024, %if.then13.i.i1031, %if.then.i1002
  %278 = landingpad { ptr, i32 }
          cleanup
  call void @_ZN4cvc58internal12NodeTemplateILb1EED2Ev(ptr noundef nonnull align 8 dereferenceable(8) %ref.tmp273) #21
  br label %ehcleanup290

ehcleanup290:                                     ; preds = %lpad284, %lpad280
  %.pn37 = phi { ptr, i32 } [ %278, %lpad284 ], [ %277, %lpad280 ]
  call void @_ZNSt7__cxx1112basic_stringIcSt11char_traitsIcESaIcEED1Ev(ptr noundef nonnull align 8 dereferenceable(32) %ref.tmp276) #21
  br label %ehcleanup291

ehcleanup291:                                     ; preds = %lpad278, %lpad.i972, %ehcleanup290
  %.pn37.pn = phi { ptr, i32 } [ %.pn37, %ehcleanup290 ], [ %276, %lpad278 ], [ %200, %lpad.i972 ]
  call void @_ZNSaIcED1Ev(ptr noundef nonnull align 1 dereferenceable(1) %ref.tmp277) #21
  call void @_ZN4cvc58internal8TypeNodeD2Ev(ptr noundef nonnull align 8 dereferenceable(8) %agg.tmp274) #21
  br label %ehcleanup293

ehcleanup293:                                     ; preds = %ehcleanup291, %ehcleanup271, %ehcleanup251, %lpad234
  %.pn37.pn.pn = phi { ptr, i32 } [ %.pn37.pn, %ehcleanup291 ], [ %269, %lpad234 ], [ %.pn34.pn, %ehcleanup271 ], [ %.pn31.pn, %ehcleanup251 ]
  call void @_ZN4cvc58internal8TypeNodeD2Ev(ptr noundef nonnull align 8 dereferenceable(8) %setType) #21
  br label %ehcleanup294

ehcleanup294:                                     ; preds = %ehcleanup293, %ehcleanup227, %lpad210
  %.pn37.pn.pn.pn = phi { ptr, i32 } [ %.pn37.pn.pn, %ehcleanup293 ], [ %265, %lpad210 ], [ %.pn28.pn, %ehcleanup227 ]
  call void @_ZN4cvc58internal8TypeNodeD2Ev(ptr noundef nonnull align 8 dereferenceable(8) %fpType) #21
  br label %ehcleanup295

ehcleanup295:                                     ; preds = %arraydestroy.body203, %lpad173, %lpad173.thread, %ehcleanup294, %ehcleanup166, %lpad149
  %.pn37.pn.pn.pn.pn = phi { ptr, i32 } [ %.pn37.pn.pn.pn, %ehcleanup294 ], [ %.pn23.pn, %ehcleanup166 ], [ %259, %lpad149 ], [ %128, %lpad173.thread ], [ %263, %lpad173 ], [ %.pn26, %arraydestroy.body203 ]
  call void @_ZN4cvc58internal8TypeNodeD2Ev(ptr noundef nonnull align 8 dereferenceable(8) %bvType) #21
  br label %ehcleanup296

ehcleanup296:                                     ; preds = %ehcleanup295, %ehcleanup143, %lpad126
  %.pn37.pn.pn.pn.pn.pn = phi { ptr, i32 } [ %.pn37.pn.pn.pn.pn, %ehcleanup295 ], [ %255, %lpad126 ], [ %.pn20.pn, %ehcleanup143 ]
  call void @_ZN4cvc58internal8TypeNodeD2Ev(ptr noundef nonnull align 8 dereferenceable(8) %arrType) #21
  br label %ehcleanup297

ehcleanup297:                                     ; preds = %arraydestroy.body119, %lpad88, %lpad88.thread, %ehcleanup296
  %.pn37.pn.pn.pn.pn.pn.pn = phi { ptr, i32 } [ %.pn37.pn.pn.pn.pn.pn, %ehcleanup296 ], [ %74, %lpad88.thread ], [ %253, %lpad88 ], [ %.pn18, %arraydestroy.body119 ]
  call void @_ZN4cvc58internal8TypeNodeD2Ev(ptr noundef nonnull align 8 dereferenceable(8) %intType) #21
  br label %ehcleanup298

ehcleanup298:                                     ; preds = %ehcleanup297, %ehcleanup79, %lpad62
  %.pn37.pn.pn.pn.pn.pn.pn.pn = phi { ptr, i32 } [ %.pn37.pn.pn.pn.pn.pn.pn, %ehcleanup297 ], [ %249, %lpad62 ], [ %.pn15.pn, %ehcleanup79 ]
  call void @_ZN4cvc58internal8TypeNodeD2Ev(ptr noundef nonnull align 8 dereferenceable(8) %anfType) #21
  br label %ehcleanup299

ehcleanup299:                                     ; preds = %arraydestroy.body55, %lpad34, %lpad34.thread, %ehcleanup298, %ehcleanup30, %ehcleanup16, %lpad4
  %.pn37.pn.pn.pn.pn.pn.pn.pn.pn = phi { ptr, i32 } [ %.pn37.pn.pn.pn.pn.pn.pn.pn, %ehcleanup298 ], [ %.pn10.pn, %ehcleanup30 ], [ %.pn.pn, %ehcleanup16 ], [ %240, %lpad4 ], [ %37, %lpad34.thread ], [ %247, %lpad34 ], [ %.pn13, %arraydestroy.body55 ]
  call void @_ZNSt13unordered_setIN4cvc58internal8TypeNodeESt4hashIS2_ESt8equal_toIS2_ESaIS2_EED2Ev(ptr noundef nonnull align 8 dereferenceable(56) %d_declTypes) #21
  call void @_ZNSt13unordered_setIN4cvc58internal12NodeTemplateILb1EEESt4hashIS3_ESt8equal_toIS3_ESaIS3_EED2Ev(ptr noundef nonnull align 8 dereferenceable(56) %d_declVars) #21
  call void @_ZNSt3mapIN4cvc58internal4kind6Kind_tENS1_12NodeTemplateILb1EEESt4lessIS3_ESaISt4pairIKS3_S5_EEED2Ev(ptr noundef nonnull align 8 dereferenceable(48) %d_typeKindToNodeCons) #21
  call void @_ZNSt3mapIN4cvc58internal8TypeNodeENS1_12NodeTemplateILb1EEESt4lessIS2_ESaISt4pairIKS2_S4_EEED2Ev(ptr noundef nonnull align 8 dereferenceable(48) %d_typeAsNode) #21
  call void @_ZNSt3mapIN4cvc58internal12NodeTemplateILb1EEEmSt4lessIS3_ESaISt4pairIKS3_mEEED2Ev(ptr noundef nonnull align 8 dereferenceable(48) %d_bvarIndex) #21
  call void @_ZNSt3mapIN4cvc58internal12NodeTemplateILb1EEEmSt4lessIS3_ESaISt4pairIKS3_mEEED2Ev(ptr noundef nonnull align 8 dereferenceable(48) %d_fvarIndex) #21
  call void @_ZN4cvc58internal8TypeNodeD2Ev(ptr noundef nonnull align 8 dereferenceable(8) %d_sortType) #21
  br label %ehcleanup306

ehcleanup306:                                     ; preds = %lpad.i.i62, %ehcleanup299
  %.pn37.pn.pn.pn.pn.pn.pn.pn.pn.pn = phi { ptr, i32 } [ %.pn37.pn.pn.pn.pn.pn.pn.pn.pn, %ehcleanup299 ], [ %9, %lpad.i.i62 ]
  call void @_ZN4cvc58internal8TypeNodeD2Ev(ptr noundef nonnull align 8 dereferenceable(8) %d_arrow) #21
  br label %ehcleanup307

ehcleanup307:                                     ; preds = %lpad.i.i, %ehcleanup306
  %.pn37.pn.pn.pn.pn.pn.pn.pn.pn.pn.pn = phi { ptr, i32 } [ %.pn37.pn.pn.pn.pn.pn.pn.pn.pn.pn, %ehcleanup306 ], [ %5, %lpad.i.i ]
  %d_symbolToBuiltinKind = getelementptr inbounds %"class.cvc5::internal::proof::LfscNodeConverter", ptr %this, i64 0, i32 4
  %d_userSymbolList = getelementptr inbounds %"class.cvc5::internal::proof::LfscNodeConverter", ptr %this, i64 0, i32 3
  %d_symbolsMap = getelementptr inbounds %"class.cvc5::internal::proof::LfscNodeConverter", ptr %this, i64 0, i32 1
  call void @_ZNSt3mapIN4cvc58internal12NodeTemplateILb1EEENS1_4kind6Kind_tESt4lessIS3_ESaISt4pairIKS3_S5_EEED2Ev(ptr noundef nonnull align 8 dereferenceable(48) %d_symbolToBuiltinKind) #21
  call void @_ZNSt3mapINSt7__cxx1112basic_stringIcSt11char_traitsIcESaIcEEESt6vectorImSaImEESt4lessIS5_ESaISt4pairIKS5_S8_EEED2Ev(ptr noundef nonnull align 8 dereferenceable(48) %d_userSymbolList) #21
  call void @_ZNSt13unordered_setIN4cvc58internal12NodeTemplateILb1EEESt4hashIS3_ESt8equal_toIS3_ESaIS3_EED2Ev(ptr noundef nonnull align 8 dereferenceable(56) %d_symbols) #21
  call void @_ZNSt3mapISt5tupleIJN4cvc58internal4kind6Kind_tENS2_8TypeNodeENSt7__cxx1112basic_stringIcSt11char_traitsIcESaIcEEEEENS2_12NodeTemplateILb1EEESt4lessISC_ESaISt4pairIKSC_SE_EEED2Ev(ptr noundef nonnull align 8 dereferenceable(48) %d_symbolsMap) #21
  call void @_ZN4cvc58internal13NodeConverterD2Ev(ptr noundef nonnull align 8 dereferenceable(233) %this) #21
  resume { ptr, i32 } %.pn37.pn.pn.pn.pn.pn.pn.pn.pn.pn.pn
}

declare void @_ZN4cvc58internal13NodeConverterC2Eb(ptr noundef nonnull align 8 dereferenceable(233), i1 noundef zeroext) unnamed_addr #0

declare i32 @__gxx_personality_v0(...)

declare noundef ptr @_ZN4cvc58internal11NodeManager9currentNMEv() local_unnamed_addr #0

declare void @_ZN4cvc58internal11NodeManager17mkSortConstructorERKNSt7__cxx1112basic_stringIcSt11char_traitsIcESaIcEEEmb(ptr sret(%"class.cvc5::internal::TypeNode") align 8, ptr noundef nonnull align 8 dereferenceable(3360), ptr noundef nonnull align 8 dereferenceable(32), i64 noundef, i1 noundef zeroext) local_unnamed_addr #0

; Function Attrs: nounwind
declare void @_ZNSaIcEC1Ev(ptr noundef nonnull align 1 dereferenceable(1)) unnamed_addr #1

; Function Attrs: mustprogress uwtable
define linkonce_odr hidden void @_ZNSt7__cxx1112basic_stringIcSt11char_traitsIcESaIcEEC2IS3_EEPKcRKS3_(ptr noundef nonnull align 8 dereferenceable(32) %this, ptr noundef %__s, ptr noundef nonnull align 1 dereferenceable(1) %__a) unnamed_addr #3 comdat align 2 personality ptr @__gxx_personality_v0 {
entry:
  %call = tail call noundef ptr @_ZNSt7__cxx1112basic_stringIcSt11char_traitsIcESaIcEE13_M_local_dataEv(ptr noundef nonnull align 8 dereferenceable(32) %this)
  tail call void @_ZNSt7__cxx1112basic_stringIcSt11char_traitsIcESaIcEE12_Alloc_hiderC1EPcRKS3_(ptr noundef nonnull align 8 dereferenceable(8) %this, ptr noundef %call, ptr noundef nonnull align 1 dereferenceable(1) %__a)
  %cmp = icmp eq ptr %__s, null
  br i1 %cmp, label %if.then, label %if.end

if.then:                                          ; preds = %entry
  invoke void @_ZSt19__throw_logic_errorPKc(ptr noundef nonnull @.str.72) #25
          to label %invoke.cont unwind label %lpad

invoke.cont:                                      ; preds = %if.then
  unreachable

lpad:                                             ; preds = %if.end, %if.then
  %0 = landingpad { ptr, i32 }
          cleanup
  tail call void @_ZNSaIcED2Ev(ptr noundef nonnull align 1 dereferenceable(1) %this) #21
  resume { ptr, i32 } %0

if.end:                                           ; preds = %entry
  %call.i = tail call noundef i64 @strlen(ptr noundef nonnull dereferenceable(1) %__s) #21
  %add.ptr = getelementptr inbounds i8, ptr %__s, i64 %call.i
  invoke void @_ZNSt7__cxx1112basic_stringIcSt11char_traitsIcESaIcEE12_M_constructIPKcEEvT_S8_St20forward_iterator_tag(ptr noundef nonnull align 8 dereferenceable(32) %this, ptr noundef nonnull %__s, ptr noundef nonnull %add.ptr)
          to label %invoke.cont4 unwind label %lpad

invoke.cont4:                                     ; preds = %if.end
  ret void
}

; Function Attrs: mustprogress uwtable
define linkonce_odr hidden noundef nonnull align 8 dereferenceable(8) ptr @_ZN4cvc58internal8TypeNodeaSERKS1_(ptr noundef nonnull align 8 dereferenceable(8) %this, ptr noundef nonnull align 8 dereferenceable(8) %typeNode) local_unnamed_addr #3 comdat align 2 {
entry:
  %0 = load ptr, ptr %this, align 8
  %1 = load ptr, ptr %typeNode, align 8
  %cmp.not = icmp eq ptr %0, %1
  br i1 %cmp.not, label %if.end, label %if.then

if.then:                                          ; preds = %entry
  %bf.load.i = load i64, ptr %0, align 8
  %2 = and i64 %bf.load.i, 1152920405095219200
  %cmp.not.i = icmp eq i64 %2, 1152920405095219200
  br i1 %cmp.not.i, label %_ZN4cvc58internal4expr9NodeValue3decEv.exit, label %if.then.i

if.then.i:                                        ; preds = %if.then
  %bf.value.i = add i64 %bf.load.i, 1152920405095219200
  %bf.shl.i = and i64 %bf.value.i, 1152920405095219200
  %bf.clear7.i = and i64 %bf.load.i, -1152920405095219201
  %bf.set.i = or disjoint i64 %bf.shl.i, %bf.clear7.i
  store i64 %bf.set.i, ptr %0, align 8
  %cmp12.i = icmp eq i64 %bf.shl.i, 0
  br i1 %cmp12.i, label %if.then13.i, label %_ZN4cvc58internal4expr9NodeValue3decEv.exit

if.then13.i:                                      ; preds = %if.then.i
  tail call void @_ZN4cvc58internal4expr9NodeValue15markForDeletionEv(ptr noundef nonnull align 8 dereferenceable(16) %0)
  br label %_ZN4cvc58internal4expr9NodeValue3decEv.exit

_ZN4cvc58internal4expr9NodeValue3decEv.exit:      ; preds = %if.then, %if.then.i, %if.then13.i
  %3 = load ptr, ptr %typeNode, align 8
  store ptr %3, ptr %this, align 8
  %bf.load.i2 = load i64, ptr %3, align 8
  %bf.lshr.i = lshr i64 %bf.load.i2, 40
  %4 = trunc i64 %bf.lshr.i to i32
  %bf.cast.i = and i32 %4, 1048575
  %cmp.i = icmp ult i32 %bf.cast.i, 1048574
  br i1 %cmp.i, label %if.then.i5, label %if.else.i

if.then.i5:                                       ; preds = %_ZN4cvc58internal4expr9NodeValue3decEv.exit
  %bf.value.i6 = add i64 %bf.load.i2, 1099511627776
  %bf.shl.i7 = and i64 %bf.value.i6, 1152920405095219200
  %bf.clear7.i8 = and i64 %bf.load.i2, -1152920405095219201
  %bf.set.i9 = or disjoint i64 %bf.shl.i7, %bf.clear7.i8
  store i64 %bf.set.i9, ptr %3, align 8
  br label %if.end

if.else.i:                                        ; preds = %_ZN4cvc58internal4expr9NodeValue3decEv.exit
  %cmp12.i3 = icmp eq i32 %bf.cast.i, 1048574
  br i1 %cmp12.i3, label %if.then13.i4, label %if.end

if.then13.i4:                                     ; preds = %if.else.i
  %bf.set23.i = or i64 %bf.load.i2, 1152920405095219200
  store i64 %bf.set23.i, ptr %3, align 8
  tail call void @_ZN4cvc58internal4expr9NodeValue20markRefCountMaxedOutEv(ptr noundef nonnull align 8 dereferenceable(16) %3)
  br label %if.end

if.end:                                           ; preds = %if.then13.i4, %if.else.i, %if.then.i5, %entry
  ret ptr %this
}

; Function Attrs: mustprogress nounwind uwtable
