; ModuleID = 'bench/cvc5/original/output.cpp.ll'
source_filename = "bench/cvc5/original/output.cpp.ll"
target datalayout = "e-m:e-p270:32:32-p271:32:32-p272:64:64-i64:64-i128:128-f80:128-n8:16:32:64-S128"
target triple = "x86_64-unknown-linux-gnu"

%"class.std::ios_base::Init" = type { i8 }
%"class.cvc5::internal::null_streambuf" = type { %"class.std::basic_streambuf" }
%"class.std::basic_streambuf" = type { ptr, ptr, ptr, ptr, ptr, ptr, ptr, %"class.std::locale" }
%"class.std::locale" = type { ptr }
%"class.std::basic_ostream" = type { ptr, %"class.std::basic_ios" }
%"class.std::basic_ios" = type { %"class.std::ios_base", ptr, i8, i8, ptr, ptr, ptr, ptr }
%"class.std::ios_base" = type { ptr, i64, i64, i32, i32, i32, ptr, %"struct.std::ios_base::_Words", [8 x %"struct.std::ios_base::_Words"], i32, ptr, %"class.std::locale" }
%"struct.std::ios_base::_Words" = type { ptr, i64 }
%"class.cvc5::internal::NullC" = type { i8 }
%"class.std::__cxx11::basic_string" = type { %"struct.std::__cxx11::basic_string<char>::_Alloc_hider", i64, %union.anon }
%"struct.std::__cxx11::basic_string<char>::_Alloc_hider" = type { ptr }
%union.anon = type { i64, [8 x i8] }
%"class.cvc5::internal::WarningC" = type { %"class.std::set", ptr }
%"class.std::set" = type { %"class.std::_Rb_tree" }
%"class.std::_Rb_tree" = type { %"struct.std::_Rb_tree<std::pair<std::__cxx11::basic_string<char>, unsigned long>, std::pair<std::__cxx11::basic_string<char>, unsigned long>, std::_Identity<std::pair<std::__cxx11::basic_string<char>, unsigned long>>, std::less<std::pair<std::__cxx11::basic_string<char>, unsigned long>>>::_Rb_tree_impl" }
%"struct.std::_Rb_tree<std::pair<std::__cxx11::basic_string<char>, unsigned long>, std::pair<std::__cxx11::basic_string<char>, unsigned long>, std::_Identity<std::pair<std::__cxx11::basic_string<char>, unsigned long>>, std::less<std::pair<std::__cxx11::basic_string<char>, unsigned long>>>::_Rb_tree_impl" = type { %"struct.std::_Rb_tree_key_compare", %"struct.std::_Rb_tree_header" }
%"struct.std::_Rb_tree_key_compare" = type { %"struct.std::less" }
%"struct.std::less" = type { i8 }
%"struct.std::_Rb_tree_header" = type { %"struct.std::_Rb_tree_node_base", i64 }
%"struct.std::_Rb_tree_node_base" = type { i32, ptr, ptr, ptr }
%"class.cvc5::internal::TraceC" = type { ptr, %"class.std::vector" }
%"class.std::vector" = type { %"struct.std::_Vector_base" }
%"struct.std::_Vector_base" = type { %"struct.std::_Vector_base<std::__cxx11::basic_string<char>, std::allocator<std::__cxx11::basic_string<char>>>::_Vector_impl" }
%"struct.std::_Vector_base<std::__cxx11::basic_string<char>, std::allocator<std::__cxx11::basic_string<char>>>::_Vector_impl" = type { %"struct.std::_Vector_base<std::__cxx11::basic_string<char>, std::allocator<std::__cxx11::basic_string<char>>>::_Vector_impl_data" }
%"struct.std::_Vector_base<std::__cxx11::basic_string<char>, std::allocator<std::__cxx11::basic_string<char>>>::_Vector_impl_data" = type { ptr, ptr, ptr }
%"struct.std::_Rb_tree_node" = type { %"struct.std::_Rb_tree_node_base", %"struct.__gnu_cxx::__aligned_membuf" }
%"struct.__gnu_cxx::__aligned_membuf" = type { [40 x i8] }
%struct._Guard = type { ptr }
%"class.std::allocator" = type { i8 }

$_ZN4cvc58internal14null_streambufD2Ev = comdat any

$_ZN4cvc58internal8WarningCD2Ev = comdat any

$_ZN4cvc58internal6TraceCD2Ev = comdat any

$_ZN4cvc58internal14null_streambufD0Ev = comdat any

$_ZN4cvc58internal14null_streambuf8overflowEi = comdat any

$__clang_call_terminate = comdat any

$_ZNSt8_Rb_treeISt4pairINSt7__cxx1112basic_stringIcSt11char_traitsIcESaIcEEEmES7_St9_IdentityIS7_ESt4lessIS7_ESaIS7_EE8_M_eraseEPSt13_Rb_tree_nodeIS7_E = comdat any

$_ZZNSt7__cxx1112basic_stringIcSt11char_traitsIcESaIcEE12_M_constructIPKcEEvT_S8_St20forward_iterator_tagEN6_GuardD2Ev = comdat any

$_ZTVN4cvc58internal14null_streambufE = comdat any

$_ZTSN4cvc58internal14null_streambufE = comdat any

$_ZTIN4cvc58internal14null_streambufE = comdat any

@_ZStL8__ioinit = internal global %"class.std::ios_base::Init" zeroinitializer, align 1
@__dso_handle = external hidden global i8
@_ZN4cvc58internal7null_sbE = hidden global %"class.cvc5::internal::null_streambuf" zeroinitializer, align 8
@_ZN4cvc58internal7null_osE = global %"class.std::basic_ostream" zeroinitializer, align 8
@_ZN4cvc58internal10nullStreamE = local_unnamed_addr global %"class.cvc5::internal::NullC" zeroinitializer, align 1
@_ZN4cvc58internal11Cvc5ostream5s_tabB5cxx11E = global %"class.std::__cxx11::basic_string" zeroinitializer, align 8
@.str = private unnamed_addr constant [3 x i8] c"  \00", align 1
@_ZN4cvc58internal11Cvc5ostream16s_indentIosIndexE = local_unnamed_addr global i32 0, align 4
@_ZN4cvc58internal14WarningChannelE = global %"class.cvc5::internal::WarningC" zeroinitializer, align 8
@_ZSt4cerr = external global %"class.std::basic_ostream", align 8
@_ZN4cvc58internal12TraceChannelE = global %"class.cvc5::internal::TraceC" zeroinitializer, align 8
@_ZSt4cout = external global %"class.std::basic_ostream", align 8
@_ZTVN4cvc58internal14null_streambufE = linkonce_odr hidden unnamed_addr constant { [16 x ptr] } { [16 x ptr] [ptr null, ptr @_ZTIN4cvc58internal14null_streambufE, ptr @_ZN4cvc58internal14null_streambufD2Ev, ptr @_ZN4cvc58internal14null_streambufD0Ev, ptr @_ZNSt15basic_streambufIcSt11char_traitsIcEE5imbueERKSt6locale, ptr @_ZNSt15basic_streambufIcSt11char_traitsIcEE6setbufEPcl, ptr @_ZNSt15basic_streambufIcSt11char_traitsIcEE7seekoffElSt12_Ios_SeekdirSt13_Ios_Openmode, ptr @_ZNSt15basic_streambufIcSt11char_traitsIcEE7seekposESt4fposI11__mbstate_tESt13_Ios_Openmode, ptr @_ZNSt15basic_streambufIcSt11char_traitsIcEE4syncEv, ptr @_ZNSt15basic_streambufIcSt11char_traitsIcEE9showmanycEv, ptr @_ZNSt15basic_streambufIcSt11char_traitsIcEE6xsgetnEPcl, ptr @_ZNSt15basic_streambufIcSt11char_traitsIcEE9underflowEv, ptr @_ZNSt15basic_streambufIcSt11char_traitsIcEE5uflowEv, ptr @_ZNSt15basic_streambufIcSt11char_traitsIcEE9pbackfailEi, ptr @_ZNSt15basic_streambufIcSt11char_traitsIcEE6xsputnEPKcl, ptr @_ZN4cvc58internal14null_streambuf8overflowEi] }, comdat, align 8
@_ZTVN10__cxxabiv120__si_class_type_infoE = external global [0 x ptr]
@_ZTSN4cvc58internal14null_streambufE = linkonce_odr hidden constant [33 x i8] c"N4cvc58internal14null_streambufE\00", comdat, align 1
@_ZTISt15basic_streambufIcSt11char_traitsIcEE = external constant ptr
@_ZTIN4cvc58internal14null_streambufE = linkonce_odr hidden constant { ptr, ptr, ptr } { ptr getelementptr inbounds (ptr, ptr @_ZTVN10__cxxabiv120__si_class_type_infoE, i64 2), ptr @_ZTSN4cvc58internal14null_streambufE, ptr @_ZTISt15basic_streambufIcSt11char_traitsIcEE }, comdat, align 8
@llvm.global_ctors = appending global [1 x { i32, ptr, ptr }] [{ i32, ptr, ptr } { i32 65535, ptr @_GLOBAL__sub_I_output.cpp, ptr null }]

declare void @_ZNSt8ios_base4InitC1Ev(ptr noundef nonnull align 1 dereferenceable(1)) unnamed_addr #0

; Function Attrs: nounwind
declare void @_ZNSt8ios_base4InitD1Ev(ptr noundef nonnull align 1 dereferenceable(1)) unnamed_addr #1

; Function Attrs: nofree nounwind
declare i32 @__cxa_atexit(ptr, ptr, ptr) local_unnamed_addr #2

; Function Attrs: mustprogress nounwind uwtable
define linkonce_odr hidden void @_ZN4cvc58internal14null_streambufD2Ev(ptr noundef nonnull align 8 dereferenceable(64) %this) unnamed_addr #3 comdat align 2 {
entry:
  tail call void @_ZNSt15basic_streambufIcSt11char_traitsIcEED2Ev(ptr noundef nonnull align 8 dereferenceable(64) %this) #10
  ret void
}

declare void @_ZNSoC1EPSt15basic_streambufIcSt11char_traitsIcEE(ptr noundef nonnull align 8 dereferenceable(8), ptr noundef) unnamed_addr #0

; Function Attrs: nounwind
declare void @_ZNSoD1Ev(ptr noundef nonnull align 8 dereferenceable(8)) unnamed_addr #1

; Function Attrs: nounwind
declare void @_ZNSaIcEC1Ev(ptr noundef nonnull align 1 dereferenceable(1)) unnamed_addr #1

declare i32 @__gxx_personality_v0(...)

; Function Attrs: nounwind
declare void @_ZNSaIcED1Ev(ptr noundef nonnull align 1 dereferenceable(1)) unnamed_addr #1

; Function Attrs: nounwind
declare void @_ZNSt7__cxx1112basic_stringIcSt11char_traitsIcESaIcEED1Ev(ptr noundef nonnull align 8 dereferenceable(32)) unnamed_addr #1

; Function Attrs: nounwind
declare noundef i32 @_ZNSt8ios_base6xallocEv() local_unnamed_addr #1

; Function Attrs: mustprogress nounwind uwtable
define linkonce_odr hidden void @_ZN4cvc58internal8WarningCD2Ev(ptr noundef nonnull align 8 dereferenceable(56) %this) unnamed_addr #3 comdat align 2 personality ptr @__gxx_personality_v0 {
entry:
  %_M_parent.i.i.i.i = getelementptr inbounds i8, ptr %this, i64 16
  %0 = load ptr, ptr %_M_parent.i.i.i.i, align 8
  invoke void @_ZNSt8_Rb_treeISt4pairINSt7__cxx1112basic_stringIcSt11char_traitsIcESaIcEEEmES7_St9_IdentityIS7_ESt4lessIS7_ESaIS7_EE8_M_eraseEPSt13_Rb_tree_nodeIS7_E(ptr noundef nonnull align 8 dereferenceable(48) %this, ptr noundef %0)
          to label %_ZNSt3setISt4pairINSt7__cxx1112basic_stringIcSt11char_traitsIcESaIcEEEmESt4lessIS7_ESaIS7_EED2Ev.exit unwind label %terminate.lpad.i.i

terminate.lpad.i.i:                               ; preds = %entry
  %1 = landingpad { ptr, i32 }
          catch ptr null
  %2 = extractvalue { ptr, i32 } %1, 0
  tail call void @__clang_call_terminate(ptr %2) #11
  unreachable

_ZNSt3setISt4pairINSt7__cxx1112basic_stringIcSt11char_traitsIcESaIcEEEmESt4lessIS7_ESaIS7_EED2Ev.exit: ; preds = %entry
  ret void
}

; Function Attrs: mustprogress nounwind uwtable
define linkonce_odr hidden void @_ZN4cvc58internal6TraceCD2Ev(ptr noundef nonnull align 8 dereferenceable(32) %this) unnamed_addr #3 comdat align 2 personality ptr @__gxx_personality_v0 {
entry:
  %d_tags = getelementptr inbounds %"class.cvc5::internal::TraceC", ptr %this, i64 0, i32 1
  %0 = load ptr, ptr %d_tags, align 8
  %_M_finish.i = getelementptr inbounds %"class.cvc5::internal::TraceC", ptr %this, i64 0, i32 1, i32 0, i32 0, i32 0, i32 1
  %1 = load ptr, ptr %_M_finish.i, align 8
  %cmp.not3.i.i.i.i = icmp eq ptr %0, %1
  br i1 %cmp.not3.i.i.i.i, label %invoke.cont.i, label %for.body.i.i.i.i

for.body.i.i.i.i:                                 ; preds = %entry, %for.body.i.i.i.i
  %__first.addr.04.i.i.i.i = phi ptr [ %incdec.ptr.i.i.i.i, %for.body.i.i.i.i ], [ %0, %entry ]
  tail call void @_ZNSt7__cxx1112basic_stringIcSt11char_traitsIcESaIcEED1Ev(ptr noundef nonnull align 8 dereferenceable(32) %__first.addr.04.i.i.i.i) #10
  %incdec.ptr.i.i.i.i = getelementptr inbounds %"class.std::__cxx11::basic_string", ptr %__first.addr.04.i.i.i.i, i64 1
  %cmp.not.i.i.i.i = icmp eq ptr %incdec.ptr.i.i.i.i, %1
  br i1 %cmp.not.i.i.i.i, label %invoke.contthread-pre-split.i, label %for.body.i.i.i.i, !llvm.loop !4

invoke.contthread-pre-split.i:                    ; preds = %for.body.i.i.i.i
  %.pr.i = load ptr, ptr %d_tags, align 8
  br label %invoke.cont.i

invoke.cont.i:                                    ; preds = %invoke.contthread-pre-split.i, %entry
  %2 = phi ptr [ %.pr.i, %invoke.contthread-pre-split.i ], [ %0, %entry ]
  %tobool.not.i.i.i = icmp eq ptr %2, null
  br i1 %tobool.not.i.i.i, label %_ZNSt6vectorINSt7__cxx1112basic_stringIcSt11char_traitsIcESaIcEEESaIS5_EED2Ev.exit, label %if.then.i.i.i

if.then.i.i.i:                                    ; preds = %invoke.cont.i
  tail call void @_ZdlPv(ptr noundef nonnull %2) #12
  br label %_ZNSt6vectorINSt7__cxx1112basic_stringIcSt11char_traitsIcESaIcEEESaIS5_EED2Ev.exit

_ZNSt6vectorINSt7__cxx1112basic_stringIcSt11char_traitsIcESaIcEEESaIS5_EED2Ev.exit: ; preds = %invoke.cont.i, %if.then.i.i.i
  ret void
}

declare void @_ZNSt15basic_streambufIcSt11char_traitsIcEEC2Ev(ptr noundef nonnull align 8 dereferenceable(64)) unnamed_addr #0

; Function Attrs: mustprogress nounwind uwtable
define linkonce_odr hidden void @_ZN4cvc58internal14null_streambufD0Ev(ptr noundef nonnull align 8 dereferenceable(64) %this) unnamed_addr #3 comdat align 2 {
entry:
  tail call void @_ZNSt15basic_streambufIcSt11char_traitsIcEED2Ev(ptr noundef nonnull align 8 dereferenceable(64) %this) #10
  tail call void @_ZdlPv(ptr noundef nonnull %this) #12
  ret void
}

declare void @_ZNSt15basic_streambufIcSt11char_traitsIcEE5imbueERKSt6locale(ptr noundef nonnull align 8 dereferenceable(64), ptr noundef nonnull align 8 dereferenceable(8)) unnamed_addr #0

declare noundef ptr @_ZNSt15basic_streambufIcSt11char_traitsIcEE6setbufEPcl(ptr noundef nonnull align 8 dereferenceable(64), ptr noundef, i64 noundef) unnamed_addr #0

declare { i64, i64 } @_ZNSt15basic_streambufIcSt11char_traitsIcEE7seekoffElSt12_Ios_SeekdirSt13_Ios_Openmode(ptr noundef nonnull align 8 dereferenceable(64), i64 noundef, i32 noundef, i32 noundef) unnamed_addr #0

declare { i64, i64 } @_ZNSt15basic_streambufIcSt11char_traitsIcEE7seekposESt4fposI11__mbstate_tESt13_Ios_Openmode(ptr noundef nonnull align 8 dereferenceable(64), i64, i64, i32 noundef) unnamed_addr #0

declare noundef i32 @_ZNSt15basic_streambufIcSt11char_traitsIcEE4syncEv(ptr noundef nonnull align 8 dereferenceable(64)) unnamed_addr #0

declare noundef i64 @_ZNSt15basic_streambufIcSt11char_traitsIcEE9showmanycEv(ptr noundef nonnull align 8 dereferenceable(64)) unnamed_addr #0

declare noundef i64 @_ZNSt15basic_streambufIcSt11char_traitsIcEE6xsgetnEPcl(ptr noundef nonnull align 8 dereferenceable(64), ptr noundef, i64 noundef) unnamed_addr #0

declare noundef i32 @_ZNSt15basic_streambufIcSt11char_traitsIcEE9underflowEv(ptr noundef nonnull align 8 dereferenceable(64)) unnamed_addr #0

declare noundef i32 @_ZNSt15basic_streambufIcSt11char_traitsIcEE5uflowEv(ptr noundef nonnull align 8 dereferenceable(64)) unnamed_addr #0

declare noundef i32 @_ZNSt15basic_streambufIcSt11char_traitsIcEE9pbackfailEi(ptr noundef nonnull align 8 dereferenceable(64), i32 noundef) unnamed_addr #0

declare noundef i64 @_ZNSt15basic_streambufIcSt11char_traitsIcEE6xsputnEPKcl(ptr noundef nonnull align 8 dereferenceable(64), ptr noundef, i64 noundef) unnamed_addr #0

; Function Attrs: mustprogress nounwind uwtable
define linkonce_odr hidden noundef i32 @_ZN4cvc58internal14null_streambuf8overflowEi(ptr noundef nonnull align 8 dereferenceable(64) %this, i32 noundef %c) unnamed_addr #3 comdat align 2 {
entry:
  ret i32 %c
}

; Function Attrs: nobuiltin nounwind
declare void @_ZdlPv(ptr noundef) local_unnamed_addr #4

; Function Attrs: nounwind
declare void @_ZNSt15basic_streambufIcSt11char_traitsIcEED2Ev(ptr noundef nonnull align 8 dereferenceable(64)) unnamed_addr #1

; Function Attrs: noreturn nounwind uwtable
define linkonce_odr hidden void @__clang_call_terminate(ptr noundef %0) local_unnamed_addr #5 comdat {
  %2 = tail call ptr @__cxa_begin_catch(ptr %0) #10
  tail call void @_ZSt9terminatev() #11
  unreachable
}

declare ptr @__cxa_begin_catch(ptr) local_unnamed_addr

declare void @_ZSt9terminatev() local_unnamed_addr

; Function Attrs: mustprogress uwtable
define linkonce_odr void @_ZNSt8_Rb_treeISt4pairINSt7__cxx1112basic_stringIcSt11char_traitsIcESaIcEEEmES7_St9_IdentityIS7_ESt4lessIS7_ESaIS7_EE8_M_eraseEPSt13_Rb_tree_nodeIS7_E(ptr noundef nonnull align 8 dereferenceable(48) %this, ptr noundef %__x) local_unnamed_addr #6 comdat align 2 personality ptr @__gxx_personality_v0 {
entry:
  %cmp.not4 = icmp eq ptr %__x, null
  br i1 %cmp.not4, label %while.end, label %while.body

while.body:                                       ; preds = %entry, %while.body
  %__x.addr.05 = phi ptr [ %1, %while.body ], [ %__x, %entry ]
  %_M_right.i = getelementptr inbounds %"struct.std::_Rb_tree_node_base", ptr %__x.addr.05, i64 0, i32 3
  %0 = load ptr, ptr %_M_right.i, align 8
  tail call void @_ZNSt8_Rb_treeISt4pairINSt7__cxx1112basic_stringIcSt11char_traitsIcESaIcEEEmES7_St9_IdentityIS7_ESt4lessIS7_ESaIS7_EE8_M_eraseEPSt13_Rb_tree_nodeIS7_E(ptr noundef nonnull align 8 dereferenceable(48) %this, ptr noundef %0)
  %_M_left.i = getelementptr inbounds %"struct.std::_Rb_tree_node_base", ptr %__x.addr.05, i64 0, i32 2
  %1 = load ptr, ptr %_M_left.i, align 8
  %_M_storage.i.i.i = getelementptr inbounds %"struct.std::_Rb_tree_node", ptr %__x.addr.05, i64 0, i32 1
  tail call void @_ZNSt7__cxx1112basic_stringIcSt11char_traitsIcESaIcEED1Ev(ptr noundef nonnull align 8 dereferenceable(32) %_M_storage.i.i.i) #10
  tail call void @_ZdlPv(ptr noundef nonnull %__x.addr.05) #12
  %cmp.not = icmp eq ptr %1, null
  br i1 %cmp.not, label %while.end, label %while.body, !llvm.loop !6

while.end:                                        ; preds = %while.body, %entry
  ret void
}

declare noundef ptr @_ZNSt7__cxx1112basic_stringIcSt11char_traitsIcESaIcEE13_M_local_dataEv(ptr noundef nonnull align 8 dereferenceable(32)) local_unnamed_addr #0

declare void @_ZNSt7__cxx1112basic_stringIcSt11char_traitsIcESaIcEE12_Alloc_hiderC1EPcRKS3_(ptr noundef nonnull align 8 dereferenceable(8), ptr noundef, ptr noundef nonnull align 1 dereferenceable(1)) unnamed_addr #0

; Function Attrs: nounwind
declare void @_ZNSt7__cxx1112basic_stringIcSt11char_traitsIcESaIcEE13_S_copy_charsEPcPKcS7_(ptr noundef, ptr noundef, ptr noundef) local_unnamed_addr #1

declare noundef ptr @_ZNKSt7__cxx1112basic_stringIcSt11char_traitsIcESaIcEE7_M_dataEv(ptr noundef nonnull align 8 dereferenceable(32)) local_unnamed_addr #0

declare void @_ZNSt7__cxx1112basic_stringIcSt11char_traitsIcESaIcEE13_M_set_lengthEm(ptr noundef nonnull align 8 dereferenceable(32), i64 noundef) local_unnamed_addr #0

; Function Attrs: mustprogress nounwind uwtable
define linkonce_odr hidden void @_ZZNSt7__cxx1112basic_stringIcSt11char_traitsIcESaIcEE12_M_constructIPKcEEvT_S8_St20forward_iterator_tagEN6_GuardD2Ev(ptr noundef nonnull align 8 dereferenceable(8) %this) unnamed_addr #3 comdat align 2 personality ptr @__gxx_personality_v0 {
entry:
  %0 = load ptr, ptr %this, align 8
  %tobool.not = icmp eq ptr %0, null
  br i1 %tobool.not, label %if.end, label %if.then

if.then:                                          ; preds = %entry
  invoke void @_ZNSt7__cxx1112basic_stringIcSt11char_traitsIcESaIcEE10_M_disposeEv(ptr noundef nonnull align 8 dereferenceable(32) %0)
          to label %if.end unwind label %terminate.lpad

if.end:                                           ; preds = %if.then, %entry
  ret void

terminate.lpad:                                   ; preds = %if.then
  %1 = landingpad { ptr, i32 }
          catch ptr null
  %2 = extractvalue { ptr, i32 } %1, 0
  tail call void @__clang_call_terminate(ptr %2) #11
  unreachable
}

declare void @_ZNSt7__cxx1112basic_stringIcSt11char_traitsIcESaIcEE10_M_disposeEv(ptr noundef nonnull align 8 dereferenceable(32)) local_unnamed_addr #0

; Function Attrs: nounwind
declare void @_ZNSaIcED2Ev(ptr noundef nonnull align 1 dereferenceable(1)) unnamed_addr #1

; Function Attrs: uwtable
define internal void @_GLOBAL__sub_I_output.cpp() #7 section ".text.startup" personality ptr @__gxx_personality_v0 {
entry:
  %__guard.i = alloca %struct._Guard, align 8
  %ref.tmp.i = alloca %"class.std::allocator", align 1
  tail call void @_ZNSt8ios_base4InitC1Ev(ptr noundef nonnull align 1 dereferenceable(1) @_ZStL8__ioinit)
  %0 = tail call i32 @__cxa_atexit(ptr nonnull @_ZNSt8ios_base4InitD1Ev, ptr nonnull @_ZStL8__ioinit, ptr nonnull @__dso_handle) #10
  tail call void @_ZNSt15basic_streambufIcSt11char_traitsIcEEC2Ev(ptr noundef nonnull align 8 dereferenceable(64) @_ZN4cvc58internal7null_sbE)
  store ptr getelementptr inbounds ({ [16 x ptr] }, ptr @_ZTVN4cvc58internal14null_streambufE, i64 0, inrange i32 0, i64 2), ptr @_ZN4cvc58internal7null_sbE, align 8
  %1 = tail call i32 @__cxa_atexit(ptr nonnull @_ZN4cvc58internal14null_streambufD2Ev, ptr nonnull @_ZN4cvc58internal7null_sbE, ptr nonnull @__dso_handle) #10
  tail call void @_ZNSoC1EPSt15basic_streambufIcSt11char_traitsIcEE(ptr noundef nonnull align 8 dereferenceable(8) @_ZN4cvc58internal7null_osE, ptr noundef nonnull @_ZN4cvc58internal7null_sbE)
  %2 = tail call i32 @__cxa_atexit(ptr nonnull @_ZNSoD1Ev, ptr nonnull @_ZN4cvc58internal7null_osE, ptr nonnull @__dso_handle) #10
  call void @llvm.lifetime.start.p0(i64 1, ptr nonnull %ref.tmp.i)
  call void @_ZNSaIcEC1Ev(ptr noundef nonnull align 1 dereferenceable(1) %ref.tmp.i) #10
  %call.i1.i = invoke noundef ptr @_ZNSt7__cxx1112basic_stringIcSt11char_traitsIcESaIcEE13_M_local_dataEv(ptr noundef nonnull align 8 dereferenceable(32) @_ZN4cvc58internal11Cvc5ostream5s_tabB5cxx11E)
          to label %call.i.noexc.i unwind label %lpad.i

call.i.noexc.i:                                   ; preds = %entry
  invoke void @_ZNSt7__cxx1112basic_stringIcSt11char_traitsIcESaIcEE12_Alloc_hiderC1EPcRKS3_(ptr noundef nonnull align 8 dereferenceable(8) @_ZN4cvc58internal11Cvc5ostream5s_tabB5cxx11E, ptr noundef %call.i1.i, ptr noundef nonnull align 1 dereferenceable(1) %ref.tmp.i)
          to label %.noexc.i unwind label %lpad.i

.noexc.i:                                         ; preds = %call.i.noexc.i
  call void @llvm.lifetime.start.p0(i64 8, ptr nonnull %__guard.i)
  %call.i.i = invoke noundef ptr @_ZNSt7__cxx1112basic_stringIcSt11char_traitsIcESaIcEE13_M_local_dataEv(ptr noundef nonnull align 8 dereferenceable(32) @_ZN4cvc58internal11Cvc5ostream5s_tabB5cxx11E)
          to label %if.end.i unwind label %terminate.lpad.i.i

terminate.lpad.i.i:                               ; preds = %.noexc.i
  %3 = landingpad { ptr, i32 }
          catch ptr null
  %4 = extractvalue { ptr, i32 } %3, 0
  call void @__clang_call_terminate(ptr %4) #11
  unreachable

if.end.i:                                         ; preds = %.noexc.i
  store ptr @_ZN4cvc58internal11Cvc5ostream5s_tabB5cxx11E, ptr %__guard.i, align 8
  %call4.i = invoke noundef ptr @_ZNKSt7__cxx1112basic_stringIcSt11char_traitsIcESaIcEE7_M_dataEv(ptr noundef nonnull align 8 dereferenceable(32) @_ZN4cvc58internal11Cvc5ostream5s_tabB5cxx11E)
          to label %invoke.cont.i unwind label %lpad.i1

invoke.cont.i:                                    ; preds = %if.end.i
  call void @_ZNSt7__cxx1112basic_stringIcSt11char_traitsIcESaIcEE13_S_copy_charsEPcPKcS7_(ptr noundef %call4.i, ptr noundef nonnull @.str, ptr noundef nonnull getelementptr inbounds ([3 x i8], ptr @.str, i64 0, i64 2)) #10
  store ptr null, ptr %__guard.i, align 8
  invoke void @_ZNSt7__cxx1112basic_stringIcSt11char_traitsIcESaIcEE13_M_set_lengthEm(ptr noundef nonnull align 8 dereferenceable(32) @_ZN4cvc58internal11Cvc5ostream5s_tabB5cxx11E, i64 noundef 2)
          to label %__cxx_global_var_init.3.exit unwind label %lpad.i1

lpad.i1:                                          ; preds = %invoke.cont.i, %if.end.i
  %5 = landingpad { ptr, i32 }
          cleanup
  call void @_ZZNSt7__cxx1112basic_stringIcSt11char_traitsIcESaIcEE12_M_constructIPKcEEvT_S8_St20forward_iterator_tagEN6_GuardD2Ev(ptr noundef nonnull align 8 dereferenceable(8) %__guard.i) #10
  call void @_ZNSaIcED2Ev(ptr noundef nonnull align 1 dereferenceable(1) @_ZN4cvc58internal11Cvc5ostream5s_tabB5cxx11E) #10
  br label %lpad.body.i

lpad.i:                                           ; preds = %call.i.noexc.i, %entry
  %6 = landingpad { ptr, i32 }
          cleanup
  br label %lpad.body.i

lpad.body.i:                                      ; preds = %lpad.i, %lpad.i1
  %eh.lpad-body.i = phi { ptr, i32 } [ %6, %lpad.i ], [ %5, %lpad.i1 ]
  call void @_ZNSaIcED1Ev(ptr noundef nonnull align 1 dereferenceable(1) %ref.tmp.i) #10
  resume { ptr, i32 } %eh.lpad-body.i

__cxx_global_var_init.3.exit:                     ; preds = %invoke.cont.i
  call void @llvm.lifetime.end.p0(i64 8, ptr nonnull %__guard.i)
  call void @_ZNSaIcED1Ev(ptr noundef nonnull align 1 dereferenceable(1) %ref.tmp.i) #10
  %7 = call i32 @__cxa_atexit(ptr nonnull @_ZNSt7__cxx1112basic_stringIcSt11char_traitsIcESaIcEED1Ev, ptr nonnull @_ZN4cvc58internal11Cvc5ostream5s_tabB5cxx11E, ptr nonnull @__dso_handle) #10
  call void @llvm.lifetime.end.p0(i64 1, ptr nonnull %ref.tmp.i)
  %call.i = call noundef i32 @_ZNSt8ios_base6xallocEv() #10
  store i32 %call.i, ptr @_ZN4cvc58internal11Cvc5ostream16s_indentIosIndexE, align 4
  store i32 0, ptr getelementptr inbounds (%"class.cvc5::internal::WarningC", ptr @_ZN4cvc58internal14WarningChannelE, i64 0, i32 0, i32 0, i32 0, i32 1, i32 0, i32 0), align 8
  store ptr null, ptr getelementptr inbounds (%"class.cvc5::internal::WarningC", ptr @_ZN4cvc58internal14WarningChannelE, i64 0, i32 0, i32 0, i32 0, i32 1, i32 0, i32 1), align 8
  store ptr getelementptr inbounds (%"class.cvc5::internal::WarningC", ptr @_ZN4cvc58internal14WarningChannelE, i64 0, i32 0, i32 0, i32 0, i32 1, i32 0, i32 0), ptr getelementptr inbounds (%"class.cvc5::internal::WarningC", ptr @_ZN4cvc58internal14WarningChannelE, i64 0, i32 0, i32 0, i32 0, i32 1, i32 0, i32 2), align 8
  store ptr getelementptr inbounds (%"class.cvc5::internal::WarningC", ptr @_ZN4cvc58internal14WarningChannelE, i64 0, i32 0, i32 0, i32 0, i32 1, i32 0, i32 0), ptr getelementptr inbounds (%"class.cvc5::internal::WarningC", ptr @_ZN4cvc58internal14WarningChannelE, i64 0, i32 0, i32 0, i32 0, i32 1, i32 0, i32 3), align 8
  store i64 0, ptr getelementptr inbounds (%"class.cvc5::internal::WarningC", ptr @_ZN4cvc58internal14WarningChannelE, i64 0, i32 0, i32 0, i32 0, i32 1, i32 1), align 8
  store ptr @_ZSt4cerr, ptr getelementptr inbounds (%"class.cvc5::internal::WarningC", ptr @_ZN4cvc58internal14WarningChannelE, i64 0, i32 1), align 8
  %8 = call i32 @__cxa_atexit(ptr nonnull @_ZN4cvc58internal8WarningCD2Ev, ptr nonnull @_ZN4cvc58internal14WarningChannelE, ptr nonnull @__dso_handle) #10
  store ptr @_ZSt4cout, ptr @_ZN4cvc58internal12TraceChannelE, align 8
  call void @llvm.memset.p0.i64(ptr noundef nonnull align 8 dereferenceable(24) getelementptr inbounds (%"class.cvc5::internal::TraceC", ptr @_ZN4cvc58internal12TraceChannelE, i64 0, i32 1), i8 0, i64 24, i1 false)
  %9 = call i32 @__cxa_atexit(ptr nonnull @_ZN4cvc58internal6TraceCD2Ev, ptr nonnull @_ZN4cvc58internal12TraceChannelE, ptr nonnull @__dso_handle) #10
  ret void
}

; Function Attrs: nocallback nofree nounwind willreturn memory(argmem: write)
declare void @llvm.memset.p0.i64(ptr nocapture writeonly, i8, i64, i1 immarg) #8

; Function Attrs: nocallback nofree nosync nounwind willreturn memory(argmem: readwrite)
declare void @llvm.lifetime.start.p0(i64 immarg, ptr nocapture) #9

; Function Attrs: nocallback nofree nosync nounwind willreturn memory(argmem: readwrite)
declare void @llvm.lifetime.end.p0(i64 immarg, ptr nocapture) #9

attributes #0 = { "frame-pointer"="all" "no-trapping-math"="true" "stack-protector-buffer-size"="8" "target-cpu"="x86-64" "target-features"="+cmov,+cx8,+fxsr,+mmx,+sse,+sse2,+x87" "tune-cpu"="generic" }
attributes #1 = { nounwind "frame-pointer"="all" "no-trapping-math"="true" "stack-protector-buffer-size"="8" "target-cpu"="x86-64" "target-features"="+cmov,+cx8,+fxsr,+mmx,+sse,+sse2,+x87" "tune-cpu"="generic" }
attributes #2 = { nofree nounwind }
attributes #3 = { mustprogress nounwind uwtable "frame-pointer"="all" "min-legal-vector-width"="0" "no-trapping-math"="true" "stack-protector-buffer-size"="8" "target-cpu"="x86-64" "target-features"="+cmov,+cx8,+fxsr,+mmx,+sse,+sse2,+x87" "tune-cpu"="generic" }
attributes #4 = { nobuiltin nounwind "frame-pointer"="all" "no-trapping-math"="true" "stack-protector-buffer-size"="8" "target-cpu"="x86-64" "target-features"="+cmov,+cx8,+fxsr,+mmx,+sse,+sse2,+x87" "tune-cpu"="generic" }
attributes #5 = { noreturn nounwind uwtable "frame-pointer"="all" "no-trapping-math"="true" "stack-protector-buffer-size"="8" "target-cpu"="x86-64" "target-features"="+cmov,+cx8,+fxsr,+mmx,+sse,+sse2,+x87" "tune-cpu"="generic" }
attributes #6 = { mustprogress uwtable "frame-pointer"="all" "min-legal-vector-width"="0" "no-trapping-math"="true" "stack-protector-buffer-size"="8" "target-cpu"="x86-64" "target-features"="+cmov,+cx8,+fxsr,+mmx,+sse,+sse2,+x87" "tune-cpu"="generic" }
attributes #7 = { uwtable "frame-pointer"="all" "min-legal-vector-width"="0" "no-trapping-math"="true" "stack-protector-buffer-size"="8" "target-cpu"="x86-64" "target-features"="+cmov,+cx8,+fxsr,+mmx,+sse,+sse2,+x87" "tune-cpu"="generic" }
attributes #8 = { nocallback nofree nounwind willreturn memory(argmem: write) }
attributes #9 = { nocallback nofree nosync nounwind willreturn memory(argmem: readwrite) }
attributes #10 = { nounwind }
attributes #11 = { noreturn nounwind }
attributes #12 = { builtin nounwind }

!llvm.module.flags = !{!0, !1, !2, !3}

!0 = !{i32 1, !"wchar_size", i32 4}
!1 = !{i32 8, !"PIC Level", i32 2}
!2 = !{i32 7, !"uwtable", i32 2}
!3 = !{i32 7, !"frame-pointer", i32 2}
!4 = distinct !{!4, !5}
!5 = !{!"llvm.loop.mustprogress"}
!6 = distinct !{!6, !5}
