; ModuleID = 'bench/cvc5/original/quant_split.cpp.ll'
source_filename = "bench/cvc5/original/quant_split.cpp.ll"
target datalayout = "e-m:e-p270:32:32-p271:32:32-p272:64:64-i64:64-i128:128-f80:128-n8:16:32:64-S128"
target triple = "x86_64-unknown-linux-gnu"

%"class.std::ios_base::Init" = type { i8 }
%"class.cvc5::internal::NodeTemplate" = type { ptr }
%"struct.std::piecewise_construct_t" = type { i8 }
%"class.cvc5::internal::theory::quantifiers::QuantDSplit" = type { %"class.cvc5::internal::theory::QuantifiersModule", %"class.std::map", %"class.cvc5::context::CDHashSet" }
%"class.cvc5::internal::theory::QuantifiersModule" = type { %"class.cvc5::internal::EnvObj", ptr, ptr, ptr, ptr }
%"class.cvc5::internal::EnvObj" = type { ptr, ptr }
%"class.std::map" = type { %"class.std::_Rb_tree" }
%"class.std::_Rb_tree" = type { %"struct.std::_Rb_tree<cvc5::internal::NodeTemplate<true>, std::pair<const cvc5::internal::NodeTemplate<true>, int>, std::_Select1st<std::pair<const cvc5::internal::NodeTemplate<true>, int>>, std::less<cvc5::internal::NodeTemplate<true>>>::_Rb_tree_impl" }
%"struct.std::_Rb_tree<cvc5::internal::NodeTemplate<true>, std::pair<const cvc5::internal::NodeTemplate<true>, int>, std::_Select1st<std::pair<const cvc5::internal::NodeTemplate<true>, int>>, std::less<cvc5::internal::NodeTemplate<true>>>::_Rb_tree_impl" = type { %"struct.std::_Rb_tree_key_compare", %"struct.std::_Rb_tree_header" }
%"struct.std::_Rb_tree_key_compare" = type { %"struct.std::less" }
%"struct.std::less" = type { i8 }
%"struct.std::_Rb_tree_header" = type { %"struct.std::_Rb_tree_node_base", i64 }
%"struct.std::_Rb_tree_node_base" = type { i32, ptr, ptr, ptr }
%"class.cvc5::context::CDHashSet" = type { %"class.cvc5::context::CDInsertHashMap" }
%"class.cvc5::context::CDInsertHashMap" = type { %"class.cvc5::context::ContextObj", ptr, i64 }
%"class.cvc5::context::ContextObj" = type { ptr, ptr, ptr, ptr, ptr }
%"class.cvc5::context::InsertHashMap" = type { %"class.std::deque", %"class.std::unordered_map.589" }
%"class.std::deque" = type { %"class.std::_Deque_base" }
%"class.std::_Deque_base" = type { %"struct.std::_Deque_base<cvc5::internal::NodeTemplate<true>, std::allocator<cvc5::internal::NodeTemplate<true>>>::_Deque_impl" }
%"struct.std::_Deque_base<cvc5::internal::NodeTemplate<true>, std::allocator<cvc5::internal::NodeTemplate<true>>>::_Deque_impl" = type { %"struct.std::_Deque_base<cvc5::internal::NodeTemplate<true>, std::allocator<cvc5::internal::NodeTemplate<true>>>::_Deque_impl_data" }
%"struct.std::_Deque_base<cvc5::internal::NodeTemplate<true>, std::allocator<cvc5::internal::NodeTemplate<true>>>::_Deque_impl_data" = type { ptr, i64, %"struct.std::_Deque_iterator", %"struct.std::_Deque_iterator" }
%"struct.std::_Deque_iterator" = type { ptr, ptr, ptr, ptr }
%"class.std::unordered_map.589" = type { %"class.std::_Hashtable.590" }
%"class.std::_Hashtable.590" = type { ptr, i64, %"struct.std::__detail::_Hash_node_base", i64, %"struct.std::__detail::_Prime_rehash_policy", ptr }
%"struct.std::__detail::_Hash_node_base" = type { ptr }
%"struct.std::__detail::_Prime_rehash_policy" = type { float, i64 }
%"class.std::tuple.631" = type { %"struct.std::_Tuple_impl.632" }
%"struct.std::_Tuple_impl.632" = type { %"struct.std::_Head_base.633" }
%"struct.std::_Head_base.633" = type { ptr }
%"class.std::tuple.634" = type { i8 }
%"struct.cvc5::internal::theory::quantifiers::QAttributes" = type { i8, i8, %"class.cvc5::internal::NodeTemplate", i8, %"class.cvc5::internal::NodeTemplate", %"class.cvc5::internal::NodeTemplate", i64, i8, i8, i8, %"class.cvc5::internal::NodeTemplate", %"class.cvc5::internal::NodeTemplate", %"class.cvc5::internal::NodeTemplate" }
%"class.cvc5::internal::TypeNode" = type { ptr }
%"class.cvc5::internal::expr::NodeValue" = type { i64, i16, i32, [0 x ptr] }
%"class.cvc5::internal::Options" = type { %"class.std::unique_ptr.48", %"class.std::unique_ptr.56", %"class.std::unique_ptr.64", %"class.std::unique_ptr.72", %"class.std::unique_ptr.80", %"class.std::unique_ptr.88", %"class.std::unique_ptr.96", %"class.std::unique_ptr.104", %"class.std::unique_ptr.112", %"class.std::unique_ptr.120", %"class.std::unique_ptr.128", %"class.std::unique_ptr.136", %"class.std::unique_ptr.144", %"class.std::unique_ptr.152", %"class.std::unique_ptr.160", %"class.std::unique_ptr.168", %"class.std::unique_ptr.176", %"class.std::unique_ptr.184", %"class.std::unique_ptr.192", %"class.std::unique_ptr.200", %"class.std::unique_ptr.208", %"class.std::unique_ptr.216", %"class.std::unique_ptr.224", %"class.std::unique_ptr.232", ptr, ptr, ptr, ptr, ptr, ptr, ptr, ptr, ptr, ptr, ptr, ptr, ptr, ptr, ptr, ptr, ptr, ptr, ptr, ptr, ptr, ptr, ptr, ptr, %"class.std::unique_ptr.240" }
%"class.std::unique_ptr.48" = type { %"struct.std::__uniq_ptr_data.49" }
%"struct.std::__uniq_ptr_data.49" = type { %"class.std::__uniq_ptr_impl.50" }
%"class.std::__uniq_ptr_impl.50" = type { %"class.std::tuple.51" }
%"class.std::tuple.51" = type { %"struct.std::_Tuple_impl.52" }
%"struct.std::_Tuple_impl.52" = type { %"struct.std::_Head_base.55" }
%"struct.std::_Head_base.55" = type { ptr }
%"class.std::unique_ptr.56" = type { %"struct.std::__uniq_ptr_data.57" }
%"struct.std::__uniq_ptr_data.57" = type { %"class.std::__uniq_ptr_impl.58" }
%"class.std::__uniq_ptr_impl.58" = type { %"class.std::tuple.59" }
%"class.std::tuple.59" = type { %"struct.std::_Tuple_impl.60" }
%"struct.std::_Tuple_impl.60" = type { %"struct.std::_Head_base.63" }
%"struct.std::_Head_base.63" = type { ptr }
%"class.std::unique_ptr.64" = type { %"struct.std::__uniq_ptr_data.65" }
%"struct.std::__uniq_ptr_data.65" = type { %"class.std::__uniq_ptr_impl.66" }
%"class.std::__uniq_ptr_impl.66" = type { %"class.std::tuple.67" }
%"class.std::tuple.67" = type { %"struct.std::_Tuple_impl.68" }
%"struct.std::_Tuple_impl.68" = type { %"struct.std::_Head_base.71" }
%"struct.std::_Head_base.71" = type { ptr }
%"class.std::unique_ptr.72" = type { %"struct.std::__uniq_ptr_data.73" }
%"struct.std::__uniq_ptr_data.73" = type { %"class.std::__uniq_ptr_impl.74" }
%"class.std::__uniq_ptr_impl.74" = type { %"class.std::tuple.75" }
%"class.std::tuple.75" = type { %"struct.std::_Tuple_impl.76" }
%"struct.std::_Tuple_impl.76" = type { %"struct.std::_Head_base.79" }
%"struct.std::_Head_base.79" = type { ptr }
%"class.std::unique_ptr.80" = type { %"struct.std::__uniq_ptr_data.81" }
%"struct.std::__uniq_ptr_data.81" = type { %"class.std::__uniq_ptr_impl.82" }
%"class.std::__uniq_ptr_impl.82" = type { %"class.std::tuple.83" }
%"class.std::tuple.83" = type { %"struct.std::_Tuple_impl.84" }
%"struct.std::_Tuple_impl.84" = type { %"struct.std::_Head_base.87" }
%"struct.std::_Head_base.87" = type { ptr }
%"class.std::unique_ptr.88" = type { %"struct.std::__uniq_ptr_data.89" }
%"struct.std::__uniq_ptr_data.89" = type { %"class.std::__uniq_ptr_impl.90" }
%"class.std::__uniq_ptr_impl.90" = type { %"class.std::tuple.91" }
%"class.std::tuple.91" = type { %"struct.std::_Tuple_impl.92" }
%"struct.std::_Tuple_impl.92" = type { %"struct.std::_Head_base.95" }
%"struct.std::_Head_base.95" = type { ptr }
%"class.std::unique_ptr.96" = type { %"struct.std::__uniq_ptr_data.97" }
%"struct.std::__uniq_ptr_data.97" = type { %"class.std::__uniq_ptr_impl.98" }
%"class.std::__uniq_ptr_impl.98" = type { %"class.std::tuple.99" }
%"class.std::tuple.99" = type { %"struct.std::_Tuple_impl.100" }
%"struct.std::_Tuple_impl.100" = type { %"struct.std::_Head_base.103" }
%"struct.std::_Head_base.103" = type { ptr }
%"class.std::unique_ptr.104" = type { %"struct.std::__uniq_ptr_data.105" }
%"struct.std::__uniq_ptr_data.105" = type { %"class.std::__uniq_ptr_impl.106" }
%"class.std::__uniq_ptr_impl.106" = type { %"class.std::tuple.107" }
%"class.std::tuple.107" = type { %"struct.std::_Tuple_impl.108" }
%"struct.std::_Tuple_impl.108" = type { %"struct.std::_Head_base.111" }
%"struct.std::_Head_base.111" = type { ptr }
%"class.std::unique_ptr.112" = type { %"struct.std::__uniq_ptr_data.113" }
%"struct.std::__uniq_ptr_data.113" = type { %"class.std::__uniq_ptr_impl.114" }
%"class.std::__uniq_ptr_impl.114" = type { %"class.std::tuple.115" }
%"class.std::tuple.115" = type { %"struct.std::_Tuple_impl.116" }
%"struct.std::_Tuple_impl.116" = type { %"struct.std::_Head_base.119" }
%"struct.std::_Head_base.119" = type { ptr }
%"class.std::unique_ptr.120" = type { %"struct.std::__uniq_ptr_data.121" }
%"struct.std::__uniq_ptr_data.121" = type { %"class.std::__uniq_ptr_impl.122" }
%"class.std::__uniq_ptr_impl.122" = type { %"class.std::tuple.123" }
%"class.std::tuple.123" = type { %"struct.std::_Tuple_impl.124" }
%"struct.std::_Tuple_impl.124" = type { %"struct.std::_Head_base.127" }
%"struct.std::_Head_base.127" = type { ptr }
%"class.std::unique_ptr.128" = type { %"struct.std::__uniq_ptr_data.129" }
%"struct.std::__uniq_ptr_data.129" = type { %"class.std::__uniq_ptr_impl.130" }
%"class.std::__uniq_ptr_impl.130" = type { %"class.std::tuple.131" }
%"class.std::tuple.131" = type { %"struct.std::_Tuple_impl.132" }
%"struct.std::_Tuple_impl.132" = type { %"struct.std::_Head_base.135" }
%"struct.std::_Head_base.135" = type { ptr }
%"class.std::unique_ptr.136" = type { %"struct.std::__uniq_ptr_data.137" }
%"struct.std::__uniq_ptr_data.137" = type { %"class.std::__uniq_ptr_impl.138" }
%"class.std::__uniq_ptr_impl.138" = type { %"class.std::tuple.139" }
%"class.std::tuple.139" = type { %"struct.std::_Tuple_impl.140" }
%"struct.std::_Tuple_impl.140" = type { %"struct.std::_Head_base.143" }
%"struct.std::_Head_base.143" = type { ptr }
%"class.std::unique_ptr.144" = type { %"struct.std::__uniq_ptr_data.145" }
%"struct.std::__uniq_ptr_data.145" = type { %"class.std::__uniq_ptr_impl.146" }
%"class.std::__uniq_ptr_impl.146" = type { %"class.std::tuple.147" }
%"class.std::tuple.147" = type { %"struct.std::_Tuple_impl.148" }
%"struct.std::_Tuple_impl.148" = type { %"struct.std::_Head_base.151" }
%"struct.std::_Head_base.151" = type { ptr }
%"class.std::unique_ptr.152" = type { %"struct.std::__uniq_ptr_data.153" }
%"struct.std::__uniq_ptr_data.153" = type { %"class.std::__uniq_ptr_impl.154" }
%"class.std::__uniq_ptr_impl.154" = type { %"class.std::tuple.155" }
%"class.std::tuple.155" = type { %"struct.std::_Tuple_impl.156" }
%"struct.std::_Tuple_impl.156" = type { %"struct.std::_Head_base.159" }
%"struct.std::_Head_base.159" = type { ptr }
%"class.std::unique_ptr.160" = type { %"struct.std::__uniq_ptr_data.161" }
%"struct.std::__uniq_ptr_data.161" = type { %"class.std::__uniq_ptr_impl.162" }
%"class.std::__uniq_ptr_impl.162" = type { %"class.std::tuple.163" }
%"class.std::tuple.163" = type { %"struct.std::_Tuple_impl.164" }
%"struct.std::_Tuple_impl.164" = type { %"struct.std::_Head_base.167" }
%"struct.std::_Head_base.167" = type { ptr }
%"class.std::unique_ptr.168" = type { %"struct.std::__uniq_ptr_data.169" }
%"struct.std::__uniq_ptr_data.169" = type { %"class.std::__uniq_ptr_impl.170" }
%"class.std::__uniq_ptr_impl.170" = type { %"class.std::tuple.171" }
%"class.std::tuple.171" = type { %"struct.std::_Tuple_impl.172" }
%"struct.std::_Tuple_impl.172" = type { %"struct.std::_Head_base.175" }
%"struct.std::_Head_base.175" = type { ptr }
%"class.std::unique_ptr.176" = type { %"struct.std::__uniq_ptr_data.177" }
%"struct.std::__uniq_ptr_data.177" = type { %"class.std::__uniq_ptr_impl.178" }
%"class.std::__uniq_ptr_impl.178" = type { %"class.std::tuple.179" }
%"class.std::tuple.179" = type { %"struct.std::_Tuple_impl.180" }
%"struct.std::_Tuple_impl.180" = type { %"struct.std::_Head_base.183" }
%"struct.std::_Head_base.183" = type { ptr }
%"class.std::unique_ptr.184" = type { %"struct.std::__uniq_ptr_data.185" }
%"struct.std::__uniq_ptr_data.185" = type { %"class.std::__uniq_ptr_impl.186" }
%"class.std::__uniq_ptr_impl.186" = type { %"class.std::tuple.187" }
%"class.std::tuple.187" = type { %"struct.std::_Tuple_impl.188" }
%"struct.std::_Tuple_impl.188" = type { %"struct.std::_Head_base.191" }
%"struct.std::_Head_base.191" = type { ptr }
%"class.std::unique_ptr.192" = type { %"struct.std::__uniq_ptr_data.193" }
%"struct.std::__uniq_ptr_data.193" = type { %"class.std::__uniq_ptr_impl.194" }
%"class.std::__uniq_ptr_impl.194" = type { %"class.std::tuple.195" }
%"class.std::tuple.195" = type { %"struct.std::_Tuple_impl.196" }
%"struct.std::_Tuple_impl.196" = type { %"struct.std::_Head_base.199" }
%"struct.std::_Head_base.199" = type { ptr }
%"class.std::unique_ptr.200" = type { %"struct.std::__uniq_ptr_data.201" }
%"struct.std::__uniq_ptr_data.201" = type { %"class.std::__uniq_ptr_impl.202" }
%"class.std::__uniq_ptr_impl.202" = type { %"class.std::tuple.203" }
%"class.std::tuple.203" = type { %"struct.std::_Tuple_impl.204" }
%"struct.std::_Tuple_impl.204" = type { %"struct.std::_Head_base.207" }
%"struct.std::_Head_base.207" = type { ptr }
%"class.std::unique_ptr.208" = type { %"struct.std::__uniq_ptr_data.209" }
%"struct.std::__uniq_ptr_data.209" = type { %"class.std::__uniq_ptr_impl.210" }
%"class.std::__uniq_ptr_impl.210" = type { %"class.std::tuple.211" }
%"class.std::tuple.211" = type { %"struct.std::_Tuple_impl.212" }
%"struct.std::_Tuple_impl.212" = type { %"struct.std::_Head_base.215" }
%"struct.std::_Head_base.215" = type { ptr }
%"class.std::unique_ptr.216" = type { %"struct.std::__uniq_ptr_data.217" }
%"struct.std::__uniq_ptr_data.217" = type { %"class.std::__uniq_ptr_impl.218" }
%"class.std::__uniq_ptr_impl.218" = type { %"class.std::tuple.219" }
%"class.std::tuple.219" = type { %"struct.std::_Tuple_impl.220" }
%"struct.std::_Tuple_impl.220" = type { %"struct.std::_Head_base.223" }
%"struct.std::_Head_base.223" = type { ptr }
%"class.std::unique_ptr.224" = type { %"struct.std::__uniq_ptr_data.225" }
%"struct.std::__uniq_ptr_data.225" = type { %"class.std::__uniq_ptr_impl.226" }
%"class.std::__uniq_ptr_impl.226" = type { %"class.std::tuple.227" }
%"class.std::tuple.227" = type { %"struct.std::_Tuple_impl.228" }
%"struct.std::_Tuple_impl.228" = type { %"struct.std::_Head_base.231" }
%"struct.std::_Head_base.231" = type { ptr }
%"class.std::unique_ptr.232" = type { %"struct.std::__uniq_ptr_data.233" }
%"struct.std::__uniq_ptr_data.233" = type { %"class.std::__uniq_ptr_impl.234" }
%"class.std::__uniq_ptr_impl.234" = type { %"class.std::tuple.235" }
%"class.std::tuple.235" = type { %"struct.std::_Tuple_impl.236" }
%"struct.std::_Tuple_impl.236" = type { %"struct.std::_Head_base.239" }
%"struct.std::_Head_base.239" = type { ptr }
%"class.std::unique_ptr.240" = type { %"struct.std::__uniq_ptr_data.241" }
%"struct.std::__uniq_ptr_data.241" = type { %"class.std::__uniq_ptr_impl.242" }
%"class.std::__uniq_ptr_impl.242" = type { %"class.std::tuple.243" }
%"class.std::tuple.243" = type { %"struct.std::_Tuple_impl.244" }
%"struct.std::_Tuple_impl.244" = type { %"struct.std::_Head_base.247" }
%"struct.std::_Head_base.247" = type { ptr }
%"struct.cvc5::internal::options::HolderQUANTIFIERS" = type <{ i8, i8, i8, i8, i8, i8, i8, i8, i32, i8, i8, i8, i8, i8, i8, i8, i8, i32, i8, i8, i8, i8, i8, i8, i8, i8, i8, [3 x i8], i32, i8, i8, i8, i8, i8, i8, i8, i8, i8, i8, i8, i8, i8, i8, i8, i8, i8, i8, i8, i8, i8, i8, i8, i8, i8, i8, i8, i8, i8, [3 x i8], i32, i8, i8, i8, i8, i64, i8, [7 x i8], i64, i8, [7 x i8], i64, i8, i8, i8, i8, i8, i8, i8, i8, i8, i8, i8, i8, i8, i8, i8, i8, i64, i8, i8, i8, i8, i8, i8, i8, i8, i8, i8, i8, i8, i8, i8, i8, i8, i8, i8, i8, i8, i8, [3 x i8], i32, i8, [3 x i8], i64, i8, i8, i8, i8, i8, i8, i8, i8, i8, i8, i8, i8, i8, [3 x i8], i32, i8, i8, i8, i8, i64, i8, [7 x i8], i64, i8, i8, i8, i8, i32, i8, [7 x i8], i64, i8, i8, i8, i8, i8, [3 x i8], i32, i8, [3 x i8], i32, i8, i8, i8, i8, i32, i8, i8, i8, i8, i8, i8, i8, i8, i32, i8, i8, i8, i8, i8, i8, i8, i8, i8, i8, i8, i8, i8, i8, i8, i8, i32, i8, i8, i8, i8, i32, i8, i8, i8, i8, i32, i8, i8, i8, i8, i8, i8, i8, i8, i32, i8, i8, i8, i8, i8, [3 x i8], i32, i8, i8, i8, i8, i8, i8, i8, i8, i8, i8, i8, i8, i8, i8, i8, i8, i8, i8, i8, i8, i8, [3 x i8], i32, i8, [7 x i8], i64, i8, [7 x i8], double, i8, [3 x i8], i32, i8, [7 x i8], i64, i8, [3 x i8], i32, i8, i8, i8, i8, i32, i8, i8, i8, i8, i8, i8, i8, i8, i8, [3 x i8], i32, i8, [3 x i8], i32, i8, [3 x i8], i32, i8, [3 x i8], i32, i8, i8, i8, i8, i8, [3 x i8], i32, i8, i8, i8, i8, i8, [7 x i8], i64, i8, i8, i8, i8, i32, i8, [3 x i8], i32, i8, i8, i8, [5 x i8], i64, i8, i8, i8, [5 x i8], i64, i8, i8, i8, [5 x i8], i64, i8, i8, i8, i8, i8, i8, i8, i8, i8, i8, i8, i8, i8, [3 x i8], i64, i8, i8, i8, i8, i8, i8, i8, i8, i64, i8, [3 x i8], i32, i8, i8, i8, i8, i32, i8, [7 x i8], i64, i8, [7 x i8], double, i8, i8, i8, i8, i8, [3 x i8], i32, i8, i8, i8, i8, i64, i8, [7 x i8], i64, i8, i8, i8, i8, i32, i8, [3 x i8], i32, i8, [3 x i8], i32, i8, [3 x i8], i32, i8, [3 x i8], i32, i8, i8, i8, i8, i8, [3 x i8] }>
%"struct.std::_Rb_tree_node" = type { %"struct.std::_Rb_tree_node_base", %"struct.__gnu_cxx::__aligned_membuf" }
%"struct.__gnu_cxx::__aligned_membuf" = type { [16 x i8] }
%"class.cvc5::internal::NodeTemplate.484" = type { ptr }
%"class.std::__cxx11::basic_stringstream" = type { %"class.std::basic_iostream.base", %"class.std::__cxx11::basic_stringbuf", %"class.std::basic_ios" }
%"class.std::basic_iostream.base" = type { %"class.std::basic_istream.base", %"class.std::basic_ostream.base" }
%"class.std::basic_istream.base" = type { ptr, i64 }
%"class.std::basic_ostream.base" = type { ptr }
%"class.std::__cxx11::basic_stringbuf" = type { %"class.std::basic_streambuf", i32, %"class.std::__cxx11::basic_string" }
%"class.std::basic_streambuf" = type { ptr, ptr, ptr, ptr, ptr, ptr, ptr, %"class.std::locale" }
%"class.std::locale" = type { ptr }
%"class.std::__cxx11::basic_string" = type { %"struct.std::__cxx11::basic_string<char>::_Alloc_hider", i64, %union.anon }
%"struct.std::__cxx11::basic_string<char>::_Alloc_hider" = type { ptr }
%union.anon = type { i64, [8 x i8] }
%"class.std::basic_ios" = type { %"class.std::ios_base", ptr, i8, i8, ptr, ptr, ptr, ptr }
%"class.std::ios_base" = type { ptr, i64, i64, i32, i32, i32, ptr, %"struct.std::ios_base::_Words", [8 x %"struct.std::ios_base::_Words"], i32, ptr, %"class.std::locale" }
%"struct.std::ios_base::_Words" = type { ptr, i64 }
%"class.cvc5::internal::NodeBuilder" = type <{ %"class.cvc5::internal::expr::NodeValue", [10 x ptr], ptr, ptr, i32, [4 x i8] }>
%"class.std::unordered_map.652" = type { %"class.std::_Hashtable.653" }
%"class.std::_Hashtable.653" = type { ptr, i64, %"struct.std::__detail::_Hash_node_base", i64, %"struct.std::__detail::_Prime_rehash_policy", ptr }
%"class.std::vector.459" = type { %"struct.std::_Vector_base.460" }
%"struct.std::_Vector_base.460" = type { %"struct.std::_Vector_base<cvc5::internal::NodeTemplate<true>, std::allocator<cvc5::internal::NodeTemplate<true>>>::_Vector_impl" }
%"struct.std::_Vector_base<cvc5::internal::NodeTemplate<true>, std::allocator<cvc5::internal::NodeTemplate<true>>>::_Vector_impl" = type { %"struct.std::_Vector_base<cvc5::internal::NodeTemplate<true>, std::allocator<cvc5::internal::NodeTemplate<true>>>::_Vector_impl_data" }
%"struct.std::_Vector_base<cvc5::internal::NodeTemplate<true>, std::allocator<cvc5::internal::NodeTemplate<true>>>::_Vector_impl_data" = type { ptr, ptr, ptr }
%"class.std::allocator.34" = type { i8 }
%"class.cvc5::internal::FatalStream" = type { i8 }
%struct._Guard = type { ptr }
%"struct.std::_Rb_tree<cvc5::internal::NodeTemplate<true>, std::pair<const cvc5::internal::NodeTemplate<true>, int>, std::_Select1st<std::pair<const cvc5::internal::NodeTemplate<true>, int>>, std::less<cvc5::internal::NodeTemplate<true>>>::_Auto_node" = type { ptr, ptr }
%"class.cvc5::context::Context" = type { ptr, %"class.std::vector.412", ptr, ptr }
%"class.std::vector.412" = type { %"struct.std::_Vector_base.413" }
%"struct.std::_Vector_base.413" = type { %"struct.std::_Vector_base<cvc5::context::Scope *, std::allocator<cvc5::context::Scope *>>::_Vector_impl" }
%"struct.std::_Vector_base<cvc5::context::Scope *, std::allocator<cvc5::context::Scope *>>::_Vector_impl" = type { %"struct.std::_Vector_base<cvc5::context::Scope *, std::allocator<cvc5::context::Scope *>>::_Vector_impl_data" }
%"struct.std::_Vector_base<cvc5::context::Scope *, std::allocator<cvc5::context::Scope *>>::_Vector_impl_data" = type { ptr, ptr, ptr }
%"struct.std::pair.647" = type <{ %"class.cvc5::internal::NodeTemplate", i8, [7 x i8] }>
%"struct.std::_Hashtable<const cvc5::internal::NodeTemplate<true>, std::pair<const cvc5::internal::NodeTemplate<true>, const bool>, std::allocator<std::pair<const cvc5::internal::NodeTemplate<true>, const bool>>, std::__detail::_Select1st, std::equal_to<const cvc5::internal::NodeTemplate<true>>, std::hash<cvc5::internal::Node>, std::__detail::_Mod_range_hashing, std::__detail::_Default_ranged_hash, std::__detail::_Prime_rehash_policy, std::__detail::_Hashtable_traits<true, false, true>>::_Scoped_node" = type { ptr, ptr }
%"class.std::tuple.679" = type { %"struct.std::_Tuple_impl.680" }
%"struct.std::_Tuple_impl.680" = type { %"struct.std::_Head_base.681" }
%"struct.std::_Head_base.681" = type { ptr }

$_ZNSt3mapIN4cvc58internal12NodeTemplateILb1EEEiSt4lessIS3_ESaISt4pairIKS3_iEEED2Ev = comdat any

$_ZN4cvc58internal6theory11quantifiers11QAttributesC2Ev = comdat any

$_ZN4cvc58internal12NodeTemplateILb1EED2Ev = comdat any

$_ZNK4cvc58internal12NodeTemplateILb1EE7getTypeEb = comdat any

$_ZN4cvc58internal8TypeNodeD2Ev = comdat any

$_ZN4cvc58internal6theory11quantifiers11QAttributesD2Ev = comdat any

$_ZNK4cvc58internal12NodeTemplateILb1EE6negateEv = comdat any

$_ZNK4cvc58internal12NodeTemplateILb0EE7getTypeEb = comdat any

$_ZNK4cvc58internal12NodeTemplateILb1EE10substituteENS1_ILb0EEES3_ = comdat any

$_ZNSt6vectorIN4cvc58internal12NodeTemplateILb1EEESaIS3_EED2Ev = comdat any

$_ZN4cvc58internal6theory11quantifiers11QuantDSplitD2Ev = comdat any

$_ZN4cvc58internal6theory11quantifiers11QuantDSplitD0Ev = comdat any

$_ZN4cvc58internal6theory17QuantifiersModule8presolveEv = comdat any

$_ZN4cvc58internal6theory17QuantifiersModule11reset_roundENS1_6Theory6EffortE = comdat any

$_ZN4cvc58internal6theory17QuantifiersModule13checkCompleteERNS1_12IncompleteIdE = comdat any

$_ZN4cvc58internal6theory17QuantifiersModule18registerQuantifierENS0_12NodeTemplateILb1EEE = comdat any

$_ZN4cvc58internal6theory17QuantifiersModule21preRegisterQuantifierENS0_12NodeTemplateILb1EEE = comdat any

$_ZN4cvc58internal6theory17QuantifiersModule10assertNodeENS0_12NodeTemplateILb1EEE = comdat any

$_ZNK4cvc58internal6theory11quantifiers11QuantDSplit8identifyB5cxx11Ev = comdat any

$_ZN4cvc58internal12NodeTemplateILb1EE6s_nullE = comdat any

$__clang_call_terminate = comdat any

$_ZNSt8_Rb_treeIN4cvc58internal12NodeTemplateILb1EEESt4pairIKS3_iESt10_Select1stIS6_ESt4lessIS3_ESaIS6_EE8_M_eraseEPSt13_Rb_tree_nodeIS6_E = comdat any

$_ZN4cvc57context9CDHashSetINS_8internal12NodeTemplateILb1EEESt4hashIS4_EED2Ev = comdat any

$_ZN4cvc57context13InsertHashMapINS_8internal12NodeTemplateILb1EEEbSt4hashIS4_EED2Ev = comdat any

$_ZN4cvc57context15CDInsertHashMapINS_8internal12NodeTemplateILb1EEEbSt4hashIS4_EE4saveEPNS0_20ContextMemoryManagerE = comdat any

$_ZN4cvc57context15CDInsertHashMapINS_8internal12NodeTemplateILb1EEEbSt4hashIS4_EE7restoreEPNS0_10ContextObjE = comdat any

$_ZN4cvc57context15CDInsertHashMapINS_8internal12NodeTemplateILb1EEEbSt4hashIS4_EED2Ev = comdat any

$_ZN4cvc57context15CDInsertHashMapINS_8internal12NodeTemplateILb1EEEbSt4hashIS4_EED0Ev = comdat any

$_ZNSt5dequeIN4cvc58internal12NodeTemplateILb1EEESaIS3_EED2Ev = comdat any

$_ZNSt5dequeIN4cvc58internal12NodeTemplateILb1EEESaIS3_EE19_M_destroy_data_auxESt15_Deque_iteratorIS3_RS3_PS3_ES9_ = comdat any

$_ZSt8_DestroyIPN4cvc58internal12NodeTemplateILb1EEES3_EvT_S5_RSaIT0_E = comdat any

$_ZSt8_DestroyIPN4cvc58internal12NodeTemplateILb1EEEEvT_S5_ = comdat any

$_ZN4cvc57context10ContextObjD2Ev = comdat any

$_ZN4cvc57context10ContextObjD0Ev = comdat any

$_ZNSt5dequeIN4cvc58internal12NodeTemplateILb1EEESaIS3_EE8pop_backEv = comdat any

$_ZNSt10_HashtableIKN4cvc58internal12NodeTemplateILb1EEESt4pairIS4_KbESaIS7_ENSt8__detail10_Select1stESt8equal_toIS4_ESt4hashIS3_ENS9_18_Mod_range_hashingENS9_20_Default_ranged_hashENS9_20_Prime_rehash_policyENS9_17_Hashtable_traitsILb1ELb0ELb1EEEE8_M_eraseESt17integral_constantIbLb1EERS4_ = comdat any

$_ZNSt10_HashtableIKN4cvc58internal12NodeTemplateILb1EEESt4pairIS4_KbESaIS7_ENSt8__detail10_Select1stESt8equal_toIS4_ESt4hashIS3_ENS9_18_Mod_range_hashingENS9_20_Default_ranged_hashENS9_20_Prime_rehash_policyENS9_17_Hashtable_traitsILb1ELb0ELb1EEEE8_M_eraseEmPNS9_15_Hash_node_baseEPNS9_10_Hash_nodeIS7_Lb1EEE = comdat any

$_ZNSt16allocator_traitsISaIN4cvc58internal12NodeTemplateILb1EEEEE7destroyIS3_EEvRS4_PT_ = comdat any

$_ZN4cvc57context10ContextObjdlEPv = comdat any

$_ZNSt7__cxx1112basic_stringIcSt11char_traitsIcESaIcEE12_M_constructIPKcEEvT_S8_St20forward_iterator_tag = comdat any

$_ZZNSt7__cxx1112basic_stringIcSt11char_traitsIcESaIcEE12_M_constructIPKcEEvT_S8_St20forward_iterator_tagEN6_GuardD2Ev = comdat any

$_ZN4cvc58internal8TypeNodeaSERKS1_ = comdat any

$_ZN4cvc57context9CDHashSetINS_8internal12NodeTemplateILb1EEESt4hashIS4_EED0Ev = comdat any

$_ZNSt11_Deque_baseIN4cvc58internal12NodeTemplateILb1EEESaIS3_EE17_M_initialize_mapEm = comdat any

$_ZN4cvc57context9CDHashSetINS_8internal12NodeTemplateILb1EEESt4hashIS4_EEdlEPv = comdat any

$_ZNSt8_Rb_treeIN4cvc58internal12NodeTemplateILb1EEESt4pairIKS3_iESt10_Select1stIS6_ESt4lessIS3_ESaIS6_EE22_M_emplace_hint_uniqueIJRKSt21piecewise_construct_tSt5tupleIJRS5_EESH_IJEEEEESt17_Rb_tree_iteratorIS6_ESt23_Rb_tree_const_iteratorIS6_EDpOT_ = comdat any

$_ZNSt8_Rb_treeIN4cvc58internal12NodeTemplateILb1EEESt4pairIKS3_iESt10_Select1stIS6_ESt4lessIS3_ESaIS6_EE29_M_get_insert_hint_unique_posESt23_Rb_tree_const_iteratorIS6_ERS5_ = comdat any

$_ZNSt8_Rb_treeIN4cvc58internal12NodeTemplateILb1EEESt4pairIKS3_iESt10_Select1stIS6_ESt4lessIS3_ESaIS6_EE10_Auto_nodeD2Ev = comdat any

$_ZNSt8_Rb_treeIN4cvc58internal12NodeTemplateILb1EEESt4pairIKS3_iESt10_Select1stIS6_ESt4lessIS3_ESaIS6_EE17_M_construct_nodeIJRKSt21piecewise_construct_tSt5tupleIJRS5_EESH_IJEEEEEvPSt13_Rb_tree_nodeIS6_EDpOT_ = comdat any

$_ZN4cvc57context15CDInsertHashMapINS_8internal12NodeTemplateILb1EEEbSt4hashIS4_EE11insert_safeERKS4_RKb = comdat any

$_ZN4cvc57context13InsertHashMapINS_8internal12NodeTemplateILb1EEEbSt4hashIS4_EE9push_backERKS4_RKb = comdat any

$_ZNSt4pairIN4cvc58internal12NodeTemplateILb1EEEbED2Ev = comdat any

$_ZNSt10_HashtableIKN4cvc58internal12NodeTemplateILb1EEESt4pairIS4_KbESaIS7_ENSt8__detail10_Select1stESt8equal_toIS4_ESt4hashIS3_ENS9_18_Mod_range_hashingENS9_20_Default_ranged_hashENS9_20_Prime_rehash_policyENS9_17_Hashtable_traitsILb1ELb0ELb1EEEE10_M_emplaceIJS5_IS3_bEEEES5_INS9_14_Node_iteratorIS7_Lb0ELb1EEEbESt17integral_constantIbLb1EEDpOT_ = comdat any

$_ZNSt10_HashtableIKN4cvc58internal12NodeTemplateILb1EEESt4pairIS4_KbESaIS7_ENSt8__detail10_Select1stESt8equal_toIS4_ESt4hashIS3_ENS9_18_Mod_range_hashingENS9_20_Default_ranged_hashENS9_20_Prime_rehash_policyENS9_17_Hashtable_traitsILb1ELb0ELb1EEEE21_M_insert_unique_nodeEmmPNS9_10_Hash_nodeIS7_Lb1EEEm = comdat any

$_ZNSt10_HashtableIKN4cvc58internal12NodeTemplateILb1EEESt4pairIS4_KbESaIS7_ENSt8__detail10_Select1stESt8equal_toIS4_ESt4hashIS3_ENS9_18_Mod_range_hashingENS9_20_Default_ranged_hashENS9_20_Prime_rehash_policyENS9_17_Hashtable_traitsILb1ELb0ELb1EEEE12_Scoped_nodeD2Ev = comdat any

$_ZNSt8__detail16_Hashtable_allocISaINS_10_Hash_nodeISt4pairIKN4cvc58internal12NodeTemplateILb1EEEKbELb1EEEEE16_M_allocate_nodeIJS2_IS6_bEEEEPSA_DpOT_ = comdat any

$_ZNSt10_HashtableIKN4cvc58internal12NodeTemplateILb1EEESt4pairIS4_KbESaIS7_ENSt8__detail10_Select1stESt8equal_toIS4_ESt4hashIS3_ENS9_18_Mod_range_hashingENS9_20_Default_ranged_hashENS9_20_Prime_rehash_policyENS9_17_Hashtable_traitsILb1ELb0ELb1EEEE13_M_rehash_auxEmSt17integral_constantIbLb1EE = comdat any

$_ZNSt5dequeIN4cvc58internal12NodeTemplateILb1EEESaIS3_EE16_M_push_back_auxIJRKS3_EEEvDpOT_ = comdat any

$_ZNSt5dequeIN4cvc58internal12NodeTemplateILb1EEESaIS3_EE17_M_reallocate_mapEmb = comdat any

$_ZNSt6vectorIN4cvc58internal12NodeTemplateILb1EEESaIS3_EE17_M_realloc_insertIJS3_EEEvN9__gnu_cxx17__normal_iteratorIPS3_S5_EEDpOT_ = comdat any

$_ZSt16__do_uninit_copyIPKN4cvc58internal12NodeTemplateILb1EEEPS3_ET0_T_S8_S7_ = comdat any

$_ZNSt6vectorIN4cvc58internal12NodeTemplateILb1EEESaIS3_EE17_M_realloc_insertIJRKS3_EEEvN9__gnu_cxx17__normal_iteratorIPS3_S5_EEDpOT_ = comdat any

$_ZNSt6vectorIN4cvc58internal12NodeTemplateILb1EEESaIS3_EE15_M_range_insertIN9__gnu_cxx17__normal_iteratorIPS3_S5_EEEEvSA_T_SB_St20forward_iterator_tag = comdat any

$_ZSt16__do_uninit_copyISt13move_iteratorIPN4cvc58internal12NodeTemplateILb1EEEES5_ET0_T_S8_S7_ = comdat any

$_ZSt16__do_uninit_copyIN9__gnu_cxx17__normal_iteratorIPN4cvc58internal12NodeTemplateILb1EEESt6vectorIS5_SaIS5_EEEES6_ET0_T_SC_SB_ = comdat any

$_ZNK4cvc58internal12NodeTemplateILb1EE10substituteENS1_ILb0EEES3_RSt13unordered_mapIS3_S3_St4hashIS3_ESt8equal_toIS3_ESaISt4pairIKS3_S3_EEE = comdat any

$_ZNSt13unordered_mapIN4cvc58internal12NodeTemplateILb0EEES3_St4hashIS3_ESt8equal_toIS3_ESaISt4pairIKS3_S3_EEED2Ev = comdat any

$_ZNK4cvc58internal12NodeTemplateILb1EE11getOperatorEv = comdat any

$_ZNSt8__detail9_Map_baseIN4cvc58internal12NodeTemplateILb0EEESt4pairIKS4_S4_ESaIS7_ENS_10_Select1stESt8equal_toIS4_ESt4hashIS4_ENS_18_Mod_range_hashingENS_20_Default_ranged_hashENS_20_Prime_rehash_policyENS_17_Hashtable_traitsILb1ELb0ELb1EEELb1EEixEOS4_ = comdat any

$_ZNSt10_HashtableIN4cvc58internal12NodeTemplateILb0EEESt4pairIKS3_S3_ESaIS6_ENSt8__detail10_Select1stESt8equal_toIS3_ESt4hashIS3_ENS8_18_Mod_range_hashingENS8_20_Default_ranged_hashENS8_20_Prime_rehash_policyENS8_17_Hashtable_traitsILb1ELb0ELb1EEEE21_M_insert_unique_nodeEmmPNS8_10_Hash_nodeIS6_Lb1EEEm = comdat any

$_ZNSt8__detail16_Hashtable_allocISaINS_10_Hash_nodeISt4pairIKN4cvc58internal12NodeTemplateILb0EEES6_ELb1EEEEE16_M_allocate_nodeIJRKSt21piecewise_construct_tSt5tupleIJOS6_EESG_IJEEEEEPS9_DpOT_ = comdat any

$_ZNSt10_HashtableIN4cvc58internal12NodeTemplateILb0EEESt4pairIKS3_S3_ESaIS6_ENSt8__detail10_Select1stESt8equal_toIS3_ESt4hashIS3_ENS8_18_Mod_range_hashingENS8_20_Default_ranged_hashENS8_20_Prime_rehash_policyENS8_17_Hashtable_traitsILb1ELb0ELb1EEEE13_M_rehash_auxEmSt17integral_constantIbLb1EE = comdat any

$_ZTVN4cvc57context15CDInsertHashMapINS_8internal12NodeTemplateILb1EEEbSt4hashIS4_EEE = comdat any

$_ZTSN4cvc57context15CDInsertHashMapINS_8internal12NodeTemplateILb1EEEbSt4hashIS4_EEE = comdat any

$_ZTSN4cvc57context10ContextObjE = comdat any

$_ZTIN4cvc57context10ContextObjE = comdat any

$_ZTIN4cvc57context15CDInsertHashMapINS_8internal12NodeTemplateILb1EEEbSt4hashIS4_EEE = comdat any

$_ZTVN4cvc57context10ContextObjE = comdat any

$_ZZN4cvc58internal4expr9NodeValue4nullEvE6s_null = comdat any

$_ZGVZN4cvc58internal4expr9NodeValue4nullEvE6s_null = comdat any

$_ZTVN4cvc57context9CDHashSetINS_8internal12NodeTemplateILb1EEESt4hashIS4_EEE = comdat any

$_ZTSN4cvc57context9CDHashSetINS_8internal12NodeTemplateILb1EEESt4hashIS4_EEE = comdat any

$_ZTIN4cvc57context9CDHashSetINS_8internal12NodeTemplateILb1EEESt4hashIS4_EEE = comdat any

$_ZSt19piecewise_construct = comdat any

@_ZStL8__ioinit = internal global %"class.std::ios_base::Init" zeroinitializer, align 1
@__dso_handle = external hidden global i8
@_ZTVN4cvc58internal6theory11quantifiers11QuantDSplitE = hidden unnamed_addr constant { [16 x ptr] } { [16 x ptr] [ptr null, ptr @_ZTIN4cvc58internal6theory11quantifiers11QuantDSplitE, ptr @_ZN4cvc58internal6theory11quantifiers11QuantDSplitD2Ev, ptr @_ZN4cvc58internal6theory11quantifiers11QuantDSplitD0Ev, ptr @_ZN4cvc58internal6theory17QuantifiersModule8presolveEv, ptr @_ZN4cvc58internal6theory11quantifiers11QuantDSplit10needsCheckENS1_6Theory6EffortE, ptr @_ZN4cvc58internal6theory17QuantifiersModule10needsModelENS1_6Theory6EffortE, ptr @_ZN4cvc58internal6theory17QuantifiersModule11reset_roundENS1_6Theory6EffortE, ptr @_ZN4cvc58internal6theory11quantifiers11QuantDSplit5checkENS1_6Theory6EffortENS1_17QuantifiersModule7QEffortE, ptr @_ZN4cvc58internal6theory17QuantifiersModule13checkCompleteERNS1_12IncompleteIdE, ptr @_ZN4cvc58internal6theory11quantifiers11QuantDSplit16checkCompleteForENS0_12NodeTemplateILb1EEE, ptr @_ZN4cvc58internal6theory11quantifiers11QuantDSplit14checkOwnershipENS0_12NodeTemplateILb1EEE, ptr @_ZN4cvc58internal6theory17QuantifiersModule18registerQuantifierENS0_12NodeTemplateILb1EEE, ptr @_ZN4cvc58internal6theory17QuantifiersModule21preRegisterQuantifierENS0_12NodeTemplateILb1EEE, ptr @_ZN4cvc58internal6theory17QuantifiersModule10assertNodeENS0_12NodeTemplateILb1EEE, ptr @_ZNK4cvc58internal6theory11quantifiers11QuantDSplit8identifyB5cxx11Ev] }, align 8
@_ZTVN10__cxxabiv120__si_class_type_infoE = external global [0 x ptr]
@_ZTSN4cvc58internal6theory11quantifiers11QuantDSplitE = hidden constant [50 x i8] c"N4cvc58internal6theory11quantifiers11QuantDSplitE\00", align 1
@_ZTIN4cvc58internal6theory17QuantifiersModuleE = external constant ptr
@_ZTIN4cvc58internal6theory11quantifiers11QuantDSplitE = hidden constant { ptr, ptr, ptr } { ptr getelementptr inbounds (ptr, ptr @_ZTVN10__cxxabiv120__si_class_type_infoE, i64 2), ptr @_ZTSN4cvc58internal6theory11quantifiers11QuantDSplitE, ptr @_ZTIN4cvc58internal6theory17QuantifiersModuleE }, align 8
@_ZN4cvc58internal12NodeTemplateILb1EE6s_nullE = linkonce_odr hidden global %"class.cvc5::internal::NodeTemplate" zeroinitializer, comdat, align 8
@_ZGVN4cvc58internal12NodeTemplateILb1EE6s_nullE = linkonce_odr hidden local_unnamed_addr global i64 0, comdat($_ZN4cvc58internal12NodeTemplateILb1EE6s_nullE), align 8
@_ZTVN4cvc57context15CDInsertHashMapINS_8internal12NodeTemplateILb1EEEbSt4hashIS4_EEE = linkonce_odr hidden unnamed_addr constant { [6 x ptr] } { [6 x ptr] [ptr null, ptr @_ZTIN4cvc57context15CDInsertHashMapINS_8internal12NodeTemplateILb1EEEbSt4hashIS4_EEE, ptr @_ZN4cvc57context15CDInsertHashMapINS_8internal12NodeTemplateILb1EEEbSt4hashIS4_EE4saveEPNS0_20ContextMemoryManagerE, ptr @_ZN4cvc57context15CDInsertHashMapINS_8internal12NodeTemplateILb1EEEbSt4hashIS4_EE7restoreEPNS0_10ContextObjE, ptr @_ZN4cvc57context15CDInsertHashMapINS_8internal12NodeTemplateILb1EEEbSt4hashIS4_EED2Ev, ptr @_ZN4cvc57context15CDInsertHashMapINS_8internal12NodeTemplateILb1EEEbSt4hashIS4_EED0Ev] }, comdat, align 8
@_ZTSN4cvc57context15CDInsertHashMapINS_8internal12NodeTemplateILb1EEEbSt4hashIS4_EEE = linkonce_odr hidden constant [81 x i8] c"N4cvc57context15CDInsertHashMapINS_8internal12NodeTemplateILb1EEEbSt4hashIS4_EEE\00", comdat, align 1
@_ZTVN10__cxxabiv117__class_type_infoE = external global [0 x ptr]
@_ZTSN4cvc57context10ContextObjE = linkonce_odr constant [28 x i8] c"N4cvc57context10ContextObjE\00", comdat, align 1
@_ZTIN4cvc57context10ContextObjE = linkonce_odr constant { ptr, ptr } { ptr getelementptr inbounds (ptr, ptr @_ZTVN10__cxxabiv117__class_type_infoE, i64 2), ptr @_ZTSN4cvc57context10ContextObjE }, comdat, align 8
@_ZTIN4cvc57context15CDInsertHashMapINS_8internal12NodeTemplateILb1EEEbSt4hashIS4_EEE = linkonce_odr hidden constant { ptr, ptr, ptr } { ptr getelementptr inbounds (ptr, ptr @_ZTVN10__cxxabiv120__si_class_type_infoE, i64 2), ptr @_ZTSN4cvc57context15CDInsertHashMapINS_8internal12NodeTemplateILb1EEEbSt4hashIS4_EEE, ptr @_ZTIN4cvc57context10ContextObjE }, comdat, align 8
@_ZTVN4cvc57context10ContextObjE = linkonce_odr unnamed_addr constant { [6 x ptr] } { [6 x ptr] [ptr null, ptr @_ZTIN4cvc57context10ContextObjE, ptr @__cxa_pure_virtual, ptr @__cxa_pure_virtual, ptr @_ZN4cvc57context10ContextObjD2Ev, ptr @_ZN4cvc57context10ContextObjD0Ev] }, comdat, align 8
@__PRETTY_FUNCTION__._ZN4cvc57context10ContextObjdlEPv = private unnamed_addr constant [63 x i8] c"static void cvc5::context::ContextObj::operator delete(void *)\00", align 1
@.str.16 = private unnamed_addr constant [109 x i8] c"generated/home/dtcxzyw/WorkSpace/Projects/compilers/llvm-opt-benchmark/bench/cvc5/cvc5/src/context/context.h\00", align 1
@.str.17 = private unnamed_addr constant [17 x i8] c"Check failure\0A\0A \00", align 1
@.str.18 = private unnamed_addr constant [6 x i8] c"false\00", align 1
@.str.19 = private unnamed_addr constant [2 x i8] c"\0A\00", align 1
@.str.20 = private unnamed_addr constant [51 x i8] c"It is not allowed to delete a ContextObj this way!\00", align 1
@.str.21 = private unnamed_addr constant [12 x i8] c"QuantDSplit\00", align 1
@_ZZN4cvc58internal4expr9NodeValue4nullEvE6s_null = linkonce_odr local_unnamed_addr global ptr null, comdat, align 8
@_ZGVZN4cvc58internal4expr9NodeValue4nullEvE6s_null = linkonce_odr global i64 0, comdat, align 8
@_ZTIN4cvc58internal28TypeCheckingExceptionPrivateE = external constant ptr
@_ZTVN4cvc57context9CDHashSetINS_8internal12NodeTemplateILb1EEESt4hashIS4_EEE = linkonce_odr hidden unnamed_addr constant { [6 x ptr] } { [6 x ptr] [ptr null, ptr @_ZTIN4cvc57context9CDHashSetINS_8internal12NodeTemplateILb1EEESt4hashIS4_EEE, ptr @_ZN4cvc57context15CDInsertHashMapINS_8internal12NodeTemplateILb1EEEbSt4hashIS4_EE4saveEPNS0_20ContextMemoryManagerE, ptr @_ZN4cvc57context15CDInsertHashMapINS_8internal12NodeTemplateILb1EEEbSt4hashIS4_EE7restoreEPNS0_10ContextObjE, ptr @_ZN4cvc57context9CDHashSetINS_8internal12NodeTemplateILb1EEESt4hashIS4_EED2Ev, ptr @_ZN4cvc57context9CDHashSetINS_8internal12NodeTemplateILb1EEESt4hashIS4_EED0Ev] }, comdat, align 8
@_ZTVN10__cxxabiv121__vmi_class_type_infoE = external global [0 x ptr]
@_ZTSN4cvc57context9CDHashSetINS_8internal12NodeTemplateILb1EEESt4hashIS4_EEE = linkonce_odr hidden constant [73 x i8] c"N4cvc57context9CDHashSetINS_8internal12NodeTemplateILb1EEESt4hashIS4_EEE\00", comdat, align 1
@_ZTIN4cvc57context9CDHashSetINS_8internal12NodeTemplateILb1EEESt4hashIS4_EEE = linkonce_odr hidden constant { ptr, ptr, i32, i32, ptr, i64 } { ptr getelementptr inbounds (ptr, ptr @_ZTVN10__cxxabiv121__vmi_class_type_infoE, i64 2), ptr @_ZTSN4cvc57context9CDHashSetINS_8internal12NodeTemplateILb1EEESt4hashIS4_EEE, i32 0, i32 1, ptr @_ZTIN4cvc57context15CDInsertHashMapINS_8internal12NodeTemplateILb1EEEbSt4hashIS4_EEE, i64 0 }, comdat, align 8
@__PRETTY_FUNCTION__._ZN4cvc57context9CDHashSetINS_8internal12NodeTemplateILb1EEESt4hashIS4_EEdlEPv = private unnamed_addr constant [182 x i8] c"static void cvc5::context::CDHashSet<cvc5::internal::NodeTemplate<true>>::operator delete(void *) [V = cvc5::internal::NodeTemplate<true>, HashFcn = std::hash<cvc5::internal::Node>]\00", align 1
@.str.23 = private unnamed_addr constant [111 x i8] c"generated/home/dtcxzyw/WorkSpace/Projects/compilers/llvm-opt-benchmark/bench/cvc5/cvc5/src/context/cdhashset.h\00", align 1
@_ZSt19piecewise_construct = linkonce_odr constant %"struct.std::piecewise_construct_t" zeroinitializer, comdat, align 1
@.str.24 = private unnamed_addr constant [48 x i8] c"cannot create std::deque larger than max_size()\00", align 1
@.str.25 = private unnamed_addr constant [26 x i8] c"vector::_M_realloc_insert\00", align 1
@.str.26 = private unnamed_addr constant [24 x i8] c"vector::_M_range_insert\00", align 1
@llvm.global_ctors = appending global [2 x { i32, ptr, ptr }] [{ i32, ptr, ptr } { i32 65535, ptr @__cxx_global_var_init.11, ptr @_ZN4cvc58internal12NodeTemplateILb1EE6s_nullE }, { i32, ptr, ptr } { i32 65535, ptr @_GLOBAL__sub_I_quant_split.cpp, ptr null }]
@llvm.used = appending global [1 x ptr] [ptr @_ZN4cvc58internal12NodeTemplateILb1EE6s_nullE], section "llvm.metadata"

@_ZN4cvc58internal6theory11quantifiers11QuantDSplitC1ERNS0_3EnvERNS2_16QuantifiersStateERNS2_27QuantifiersInferenceManagerERNS2_19QuantifiersRegistryERNS2_12TermRegistryE = hidden unnamed_addr alias void (ptr, ptr, ptr, ptr, ptr, ptr), ptr @_ZN4cvc58internal6theory11quantifiers11QuantDSplitC2ERNS0_3EnvERNS2_16QuantifiersStateERNS2_27QuantifiersInferenceManagerERNS2_19QuantifiersRegistryERNS2_12TermRegistryE

declare void @_ZNSt8ios_base4InitC1Ev(ptr noundef nonnull align 1 dereferenceable(1)) unnamed_addr #0

; Function Attrs: nounwind
declare void @_ZNSt8ios_base4InitD1Ev(ptr noundef nonnull align 1 dereferenceable(1)) unnamed_addr #1

; Function Attrs: nofree nounwind
declare i32 @__cxa_atexit(ptr, ptr, ptr) local_unnamed_addr #2

; Function Attrs: mustprogress uwtable
define hidden void @_ZN4cvc58internal6theory11quantifiers11QuantDSplitC2ERNS0_3EnvERNS2_16QuantifiersStateERNS2_27QuantifiersInferenceManagerERNS2_19QuantifiersRegistryERNS2_12TermRegistryE(ptr noundef nonnull align 8 dereferenceable(152) %this, ptr noundef nonnull align 8 dereferenceable(576) %env, ptr noundef nonnull align 8 dereferenceable(248) %qs, ptr noundef nonnull align 8 dereferenceable(376) %qim, ptr noundef nonnull align 8 dereferenceable(488) %qr, ptr noundef nonnull align 8 dereferenceable(208) %tr) unnamed_addr #3 align 2 personality ptr @__gxx_personality_v0 {
entry:
  tail call void @_ZN4cvc58internal6theory17QuantifiersModuleC2ERNS0_3EnvERNS1_11quantifiers16QuantifiersStateERNS5_27QuantifiersInferenceManagerERNS5_19QuantifiersRegistryERNS5_12TermRegistryE(ptr noundef nonnull align 8 dereferenceable(48) %this, ptr noundef nonnull align 8 dereferenceable(576) %env, ptr noundef nonnull align 8 dereferenceable(248) %qs, ptr noundef nonnull align 8 dereferenceable(376) %qim, ptr noundef nonnull align 8 dereferenceable(488) %qr, ptr noundef nonnull align 8 dereferenceable(208) %tr)
  store ptr getelementptr inbounds ({ [16 x ptr] }, ptr @_ZTVN4cvc58internal6theory11quantifiers11QuantDSplitE, i64 0, inrange i32 0, i64 2), ptr %this, align 8
  %0 = getelementptr inbounds %"class.cvc5::internal::theory::quantifiers::QuantDSplit", ptr %this, i64 0, i32 1, i32 0, i32 0, i32 1
  store i32 0, ptr %0, align 8
  %_M_parent.i.i.i.i.i = getelementptr inbounds %"class.cvc5::internal::theory::quantifiers::QuantDSplit", ptr %this, i64 0, i32 1, i32 0, i32 0, i32 1, i32 0, i32 1
  store ptr null, ptr %_M_parent.i.i.i.i.i, align 8
  %_M_left.i.i.i.i.i = getelementptr inbounds %"class.cvc5::internal::theory::quantifiers::QuantDSplit", ptr %this, i64 0, i32 1, i32 0, i32 0, i32 1, i32 0, i32 2
  store ptr %0, ptr %_M_left.i.i.i.i.i, align 8
  %_M_right.i.i.i.i.i = getelementptr inbounds %"class.cvc5::internal::theory::quantifiers::QuantDSplit", ptr %this, i64 0, i32 1, i32 0, i32 0, i32 1, i32 0, i32 3
  store ptr %0, ptr %_M_right.i.i.i.i.i, align 8
  %_M_node_count.i.i.i.i.i = getelementptr inbounds %"class.cvc5::internal::theory::quantifiers::QuantDSplit", ptr %this, i64 0, i32 1, i32 0, i32 0, i32 1, i32 1
  store i64 0, ptr %_M_node_count.i.i.i.i.i, align 8
  %call = invoke noundef ptr @_ZNK4cvc58internal6EnvObj11userContextEv(ptr noundef nonnull align 8 dereferenceable(16) %this)
          to label %invoke.cont unwind label %lpad

invoke.cont:                                      ; preds = %entry
  %d_added_split = getelementptr inbounds %"class.cvc5::internal::theory::quantifiers::QuantDSplit", ptr %this, i64 0, i32 2
  invoke void @_ZN4cvc57context10ContextObjC2EPNS0_7ContextE(ptr noundef nonnull align 8 dereferenceable(40) %d_added_split, ptr noundef %call)
          to label %.noexc unwind label %lpad

.noexc:                                           ; preds = %invoke.cont
  store ptr getelementptr inbounds ({ [6 x ptr] }, ptr @_ZTVN4cvc57context15CDInsertHashMapINS_8internal12NodeTemplateILb1EEEbSt4hashIS4_EEE, i64 0, inrange i32 0, i64 2), ptr %d_added_split, align 8
  %call.i.i1 = invoke noalias noundef nonnull dereferenceable(136) ptr @_Znwm(i64 noundef 136) #19
          to label %call.i.i.noexc unwind label %lpad

call.i.i.noexc:                                   ; preds = %.noexc
  tail call void @llvm.memset.p0.i64(ptr noundef nonnull align 8 dereferenceable(136) %call.i.i1, i8 0, i64 136, i1 false)
  invoke void @_ZNSt11_Deque_baseIN4cvc58internal12NodeTemplateILb1EEESaIS3_EE17_M_initialize_mapEm(ptr noundef nonnull align 8 dereferenceable(80) %call.i.i1, i64 noundef 0)
          to label %invoke.cont2 unwind label %lpad2.i.i

lpad2.i.i:                                        ; preds = %call.i.i.noexc
  %1 = landingpad { ptr, i32 }
          cleanup
  tail call void @_ZdlPv(ptr noundef nonnull %call.i.i1) #20
  br label %lpad.body

invoke.cont2:                                     ; preds = %call.i.i.noexc
  %d_hashMap.i.i.i = getelementptr inbounds %"class.cvc5::context::InsertHashMap", ptr %call.i.i1, i64 0, i32 1
  %_M_single_bucket.i.i.i.i.i = getelementptr inbounds %"class.cvc5::context::InsertHashMap", ptr %call.i.i1, i64 0, i32 1, i32 0, i32 5
  store ptr %_M_single_bucket.i.i.i.i.i, ptr %d_hashMap.i.i.i, align 8
  %_M_bucket_count.i.i.i.i.i = getelementptr inbounds %"class.cvc5::context::InsertHashMap", ptr %call.i.i1, i64 0, i32 1, i32 0, i32 1
  store i64 1, ptr %_M_bucket_count.i.i.i.i.i, align 8
  %_M_before_begin.i.i.i.i.i = getelementptr inbounds %"class.cvc5::context::InsertHashMap", ptr %call.i.i1, i64 0, i32 1, i32 0, i32 2
  %_M_rehash_policy.i.i.i.i.i = getelementptr inbounds %"class.cvc5::context::InsertHashMap", ptr %call.i.i1, i64 0, i32 1, i32 0, i32 4
  tail call void @llvm.memset.p0.i64(ptr noundef nonnull align 8 dereferenceable(16) %_M_before_begin.i.i.i.i.i, i8 0, i64 16, i1 false)
  store float 1.000000e+00, ptr %_M_rehash_policy.i.i.i.i.i, align 8
  %_M_next_resize.i.i.i.i.i.i = getelementptr inbounds %"class.cvc5::context::InsertHashMap", ptr %call.i.i1, i64 0, i32 1, i32 0, i32 4, i32 1
  tail call void @llvm.memset.p0.i64(ptr noundef nonnull align 8 dereferenceable(16) %_M_next_resize.i.i.i.i.i.i, i8 0, i64 16, i1 false)
  %d_insertMap.i.i = getelementptr inbounds %"class.cvc5::internal::theory::quantifiers::QuantDSplit", ptr %this, i64 0, i32 2, i32 0, i32 1
  store ptr %call.i.i1, ptr %d_insertMap.i.i, align 8
  %d_size.i.i = getelementptr inbounds %"class.cvc5::internal::theory::quantifiers::QuantDSplit", ptr %this, i64 0, i32 2, i32 0, i32 2
  store i64 0, ptr %d_size.i.i, align 8
  store ptr getelementptr inbounds ({ [6 x ptr] }, ptr @_ZTVN4cvc57context9CDHashSetINS_8internal12NodeTemplateILb1EEESt4hashIS4_EEE, i64 0, inrange i32 0, i64 2), ptr %d_added_split, align 8
  ret void

lpad:                                             ; preds = %.noexc, %invoke.cont, %entry
  %2 = landingpad { ptr, i32 }
          cleanup
  br label %lpad.body

lpad.body:                                        ; preds = %lpad2.i.i, %lpad
  %eh.lpad-body = phi { ptr, i32 } [ %2, %lpad ], [ %1, %lpad2.i.i ]
  %d_quant_to_reduce = getelementptr inbounds %"class.cvc5::internal::theory::quantifiers::QuantDSplit", ptr %this, i64 0, i32 1
  tail call void @_ZNSt3mapIN4cvc58internal12NodeTemplateILb1EEEiSt4lessIS3_ESaISt4pairIKS3_iEEED2Ev(ptr noundef nonnull align 8 dereferenceable(48) %d_quant_to_reduce) #21
  resume { ptr, i32 } %eh.lpad-body
}

declare void @_ZN4cvc58internal6theory17QuantifiersModuleC2ERNS0_3EnvERNS1_11quantifiers16QuantifiersStateERNS5_27QuantifiersInferenceManagerERNS5_19QuantifiersRegistryERNS5_12TermRegistryE(ptr noundef nonnull align 8 dereferenceable(48), ptr noundef nonnull align 8 dereferenceable(576), ptr noundef nonnull align 8 dereferenceable(248), ptr noundef nonnull align 8 dereferenceable(376), ptr noundef nonnull align 8 dereferenceable(488), ptr noundef nonnull align 8 dereferenceable(208)) unnamed_addr #0

declare noundef ptr @_ZNK4cvc58internal6EnvObj11userContextEv(ptr noundef nonnull align 8 dereferenceable(16)) local_unnamed_addr #0

declare i32 @__gxx_personality_v0(...)

; Function Attrs: mustprogress nounwind uwtable
define linkonce_odr hidden void @_ZNSt3mapIN4cvc58internal12NodeTemplateILb1EEEiSt4lessIS3_ESaISt4pairIKS3_iEEED2Ev(ptr noundef nonnull align 8 dereferenceable(48) %this) unnamed_addr #4 comdat align 2 personality ptr @__gxx_personality_v0 {
entry:
  %_M_parent.i.i.i = getelementptr inbounds i8, ptr %this, i64 16
  %0 = load ptr, ptr %_M_parent.i.i.i, align 8
  invoke void @_ZNSt8_Rb_treeIN4cvc58internal12NodeTemplateILb1EEESt4pairIKS3_iESt10_Select1stIS6_ESt4lessIS3_ESaIS6_EE8_M_eraseEPSt13_Rb_tree_nodeIS6_E(ptr noundef nonnull align 8 dereferenceable(48) %this, ptr noundef %0)
          to label %_ZNSt8_Rb_treeIN4cvc58internal12NodeTemplateILb1EEESt4pairIKS3_iESt10_Select1stIS6_ESt4lessIS3_ESaIS6_EED2Ev.exit unwind label %terminate.lpad.i

terminate.lpad.i:                                 ; preds = %entry
  %1 = landingpad { ptr, i32 }
          catch ptr null
  %2 = extractvalue { ptr, i32 } %1, 0
  tail call void @__clang_call_terminate(ptr %2) #22
  unreachable

_ZNSt8_Rb_treeIN4cvc58internal12NodeTemplateILb1EEESt4pairIKS3_iESt10_Select1stIS6_ESt4lessIS3_ESaIS6_EED2Ev.exit: ; preds = %entry
  ret void
}

; Function Attrs: mustprogress uwtable
define hidden void @_ZN4cvc58internal6theory11quantifiers11QuantDSplit14checkOwnershipENS0_12NodeTemplateILb1EEE(ptr noundef nonnull align 8 dereferenceable(152) %this, ptr noundef %q) unnamed_addr #3 align 2 personality ptr @__gxx_personality_v0 {
entry:
  %ref.tmp9.i = alloca %"class.std::tuple.631", align 8
  %ref.tmp10.i = alloca %"class.std::tuple.634", align 1
  %qa = alloca %"struct.cvc5::internal::theory::quantifiers::QAttributes", align 8
  %agg.tmp = alloca %"class.cvc5::internal::NodeTemplate", align 8
  %ref.tmp18 = alloca %"class.cvc5::internal::NodeTemplate", align 8
  %tn = alloca %"class.cvc5::internal::TypeNode", align 8
  %ref.tmp23 = alloca %"class.cvc5::internal::NodeTemplate", align 8
  %ref.tmp24 = alloca %"class.cvc5::internal::NodeTemplate", align 8
  %agg.tmp34 = alloca %"class.cvc5::internal::TypeNode", align 8
  %agg.tmp42 = alloca %"class.cvc5::internal::TypeNode", align 8
  %agg.tmp87 = alloca %"class.cvc5::internal::NodeTemplate", align 8
  %agg.tmp89 = alloca %"class.cvc5::internal::NodeTemplate", align 8
  %ref.tmp90 = alloca %"class.cvc5::internal::NodeTemplate", align 8
  %agg.tmp202 = alloca %"class.cvc5::internal::NodeTemplate", align 8
  call void @_ZN4cvc58internal6theory11quantifiers11QAttributesC2Ev(ptr noundef nonnull align 8 dereferenceable(80) %qa)
  %0 = load ptr, ptr %q, align 8
  store ptr %0, ptr %agg.tmp, align 8
  %bf.load.i.i = load i64, ptr %0, align 8
  %bf.lshr.i.i = lshr i64 %bf.load.i.i, 40
  %1 = trunc i64 %bf.lshr.i.i to i32
  %bf.cast.i.i = and i32 %1, 1048575
  %cmp.i.i = icmp ult i32 %bf.cast.i.i, 1048574
  br i1 %cmp.i.i, label %if.then.i.i, label %if.else.i.i

if.then.i.i:                                      ; preds = %entry
  %bf.value.i.i = add i64 %bf.load.i.i, 1099511627776
  %bf.shl.i.i = and i64 %bf.value.i.i, 1152920405095219200
  %bf.clear7.i.i = and i64 %bf.load.i.i, -1152920405095219201
  %bf.set.i.i = or disjoint i64 %bf.shl.i.i, %bf.clear7.i.i
  store i64 %bf.set.i.i, ptr %0, align 8
  br label %invoke.cont

if.else.i.i:                                      ; preds = %entry
  %cmp12.i.i = icmp eq i32 %bf.cast.i.i, 1048574
  br i1 %cmp12.i.i, label %if.then13.i.i, label %invoke.cont

if.then13.i.i:                                    ; preds = %if.else.i.i
  %bf.set23.i.i = or i64 %bf.load.i.i, 1152920405095219200
  store i64 %bf.set23.i.i, ptr %0, align 8
  invoke void @_ZN4cvc58internal4expr9NodeValue20markRefCountMaxedOutEv(ptr noundef nonnull align 8 dereferenceable(16) %0)
          to label %invoke.cont unwind label %lpad.loopexit.split-lp

invoke.cont:                                      ; preds = %if.else.i.i, %if.then.i.i, %if.then13.i.i
  invoke void @_ZN4cvc58internal6theory11quantifiers15QuantAttributes22computeQuantAttributesENS0_12NodeTemplateILb1EEERNS2_11QAttributesE(ptr noundef nonnull %agg.tmp, ptr noundef nonnull align 8 dereferenceable(80) %qa)
          to label %invoke.cont3 unwind label %lpad2

invoke.cont3:                                     ; preds = %invoke.cont
  %2 = load ptr, ptr %agg.tmp, align 8
  %bf.load.i.i15 = load i64, ptr %2, align 8
  %3 = and i64 %bf.load.i.i15, 1152920405095219200
  %cmp.not.i.i = icmp eq i64 %3, 1152920405095219200
  br i1 %cmp.not.i.i, label %_ZN4cvc58internal12NodeTemplateILb1EED2Ev.exit, label %if.then.i.i16

if.then.i.i16:                                    ; preds = %invoke.cont3
  %bf.value.i.i17 = add i64 %bf.load.i.i15, 1152920405095219200
  %bf.shl.i.i18 = and i64 %bf.value.i.i17, 1152920405095219200
  %bf.clear7.i.i19 = and i64 %bf.load.i.i15, -1152920405095219201
  %bf.set.i.i20 = or disjoint i64 %bf.shl.i.i18, %bf.clear7.i.i19
  store i64 %bf.set.i.i20, ptr %2, align 8
  %cmp12.i.i21 = icmp eq i64 %bf.shl.i.i18, 0
  br i1 %cmp12.i.i21, label %if.then13.i.i22, label %_ZN4cvc58internal12NodeTemplateILb1EED2Ev.exit

if.then13.i.i22:                                  ; preds = %if.then.i.i16
  invoke void @_ZN4cvc58internal4expr9NodeValue15markForDeletionEv(ptr noundef nonnull align 8 dereferenceable(16) %2)
          to label %_ZN4cvc58internal12NodeTemplateILb1EED2Ev.exit unwind label %terminate.lpad.i

terminate.lpad.i:                                 ; preds = %if.then13.i.i22
  %4 = landingpad { ptr, i32 }
          catch ptr null
  %5 = extractvalue { ptr, i32 } %4, 0
  call void @__clang_call_terminate(ptr %5) #22
  unreachable

_ZN4cvc58internal12NodeTemplateILb1EED2Ev.exit:   ; preds = %invoke.cont3, %if.then.i.i16, %if.then13.i.i22
  %call = invoke noundef zeroext i1 @_ZNK4cvc58internal6theory11quantifiers11QAttributes10isStandardEv(ptr noundef nonnull align 8 dereferenceable(80) %qa)
          to label %invoke.cont4 unwind label %lpad.loopexit.split-lp

invoke.cont4:                                     ; preds = %_ZN4cvc58internal12NodeTemplateILb1EED2Ev.exit
  br i1 %call, label %if.end, label %cleanup208

lpad.loopexit:                                    ; preds = %for.cond, %if.then13.i.i.i, %for.body, %if.then13.i.i.i107
  %lpad.loopexit769 = landingpad { ptr, i32 }
          cleanup
  br label %ehcleanup211

lpad.loopexit.split-lp:                           ; preds = %_ZN4cvc58internal12NodeTemplateILb1EED2Ev.exit, %if.end, %if.then13.i.i, %if.then13.i.i726
  %lpad.loopexit.split-lp770 = landingpad { ptr, i32 }
          cleanup
  br label %ehcleanup211

lpad2:                                            ; preds = %invoke.cont
  %6 = landingpad { ptr, i32 }
          cleanup
  call void @_ZN4cvc58internal12NodeTemplateILb1EED2Ev(ptr noundef nonnull align 8 dereferenceable(8) %agg.tmp) #21
  br label %ehcleanup211

if.end:                                           ; preds = %invoke.cont4
  %d_qreg = getelementptr inbounds %"class.cvc5::internal::theory::QuantifiersModule", ptr %this, i64 0, i32 3
  %7 = load ptr, ptr %d_qreg, align 8
  %call6 = invoke noundef nonnull align 8 dereferenceable(72) ptr @_ZN4cvc58internal6theory11quantifiers19QuantifiersRegistry28getQuantifiersBoundInferenceEv(ptr noundef nonnull align 8 dereferenceable(488) %7)
          to label %for.cond.preheader unwind label %lpad.loopexit.split-lp

for.cond.preheader:                               ; preds = %if.end
  %d_env = getelementptr inbounds %"class.cvc5::internal::EnvObj", ptr %this, i64 0, i32 1
  %d_quant_to_reduce = getelementptr inbounds %"class.cvc5::internal::theory::quantifiers::QuantDSplit", ptr %this, i64 0, i32 1
  %_M_parent.i.i.i.i.i = getelementptr inbounds %"class.cvc5::internal::theory::quantifiers::QuantDSplit", ptr %this, i64 0, i32 1, i32 0, i32 0, i32 1, i32 0, i32 1
  %add.ptr.i.i.i.i = getelementptr inbounds %"class.cvc5::internal::theory::quantifiers::QuantDSplit", ptr %this, i64 0, i32 1, i32 0, i32 0, i32 1
  br label %for.cond

for.cond:                                         ; preds = %_ZN4cvc58internal8TypeNodeD2Ev.exit673, %for.cond.preheader
  %storemerge = phi i32 [ %inc, %_ZN4cvc58internal8TypeNodeD2Ev.exit673 ], [ 0, %for.cond.preheader ]
  %takeOwnership.0 = phi i8 [ %takeOwnership.3, %_ZN4cvc58internal8TypeNodeD2Ev.exit673 ], [ 0, %for.cond.preheader ]
  %doSplit.0 = phi i8 [ %doSplit.3, %_ZN4cvc58internal8TypeNodeD2Ev.exit673 ], [ 0, %for.cond.preheader ]
  call void @llvm.experimental.noalias.scope.decl(metadata !4)
  %8 = load ptr, ptr %q, align 8, !noalias !4
  %d_kind.i.i.i.i = getelementptr inbounds %"class.cvc5::internal::expr::NodeValue", ptr %8, i64 0, i32 1
  %bf.load.i.i.i.i = load i16, ptr %d_kind.i.i.i.i, align 8, !noalias !4
  %bf.clear.i.i.i.i = and i16 %bf.load.i.i.i.i, 1023
  %bf.cast.i.i.i.i = zext nneg i16 %bf.clear.i.i.i.i to i32
  %cmp.i.i.i.i.i = icmp eq i16 %bf.clear.i.i.i.i, 1023
  %cond.i.i.i.i.i = select i1 %cmp.i.i.i.i.i, i32 -1, i32 %bf.cast.i.i.i.i
  %call2.i.i.i68 = invoke noundef i32 @_ZN4cvc58internal4kind10metaKindOfENS1_6Kind_tE(i32 noundef %cond.i.i.i.i.i)
          to label %call2.i.i.i.noexc unwind label %lpad.loopexit

call2.i.i.i.noexc:                                ; preds = %for.cond
  %cmp.i.i65 = icmp eq i32 %call2.i.i.i68, 2
  %idxprom.i.i66 = zext i1 %cmp.i.i65 to i64
  %arrayidx.i.i67 = getelementptr inbounds %"class.cvc5::internal::expr::NodeValue", ptr %8, i64 0, i32 3, i64 %idxprom.i.i66
  %9 = load ptr, ptr %arrayidx.i.i67, align 8, !noalias !4
  store ptr %9, ptr %ref.tmp18, align 8, !alias.scope !4
  %bf.load.i.i.i = load i64, ptr %9, align 8, !noalias !4
  %bf.lshr.i.i.i = lshr i64 %bf.load.i.i.i, 40
  %10 = trunc i64 %bf.lshr.i.i.i to i32
  %bf.cast.i.i.i = and i32 %10, 1048575
  %cmp.i.i.i = icmp ult i32 %bf.cast.i.i.i, 1048574
  br i1 %cmp.i.i.i, label %if.then.i.i.i, label %if.else.i.i.i

if.then.i.i.i:                                    ; preds = %call2.i.i.i.noexc
  %bf.value.i.i.i = add i64 %bf.load.i.i.i, 1099511627776
  %bf.shl.i.i.i = and i64 %bf.value.i.i.i, 1152920405095219200
  %bf.clear7.i.i.i = and i64 %bf.load.i.i.i, -1152920405095219201
  %bf.set.i.i.i = or disjoint i64 %bf.shl.i.i.i, %bf.clear7.i.i.i
  store i64 %bf.set.i.i.i, ptr %9, align 8, !noalias !4
  br label %invoke.cont19

if.else.i.i.i:                                    ; preds = %call2.i.i.i.noexc
  %cmp12.i.i.i = icmp eq i32 %bf.cast.i.i.i, 1048574
  br i1 %cmp12.i.i.i, label %if.then13.i.i.i, label %invoke.cont19

if.then13.i.i.i:                                  ; preds = %if.else.i.i.i
  %bf.set23.i.i.i = or i64 %bf.load.i.i.i, 1152920405095219200
  store i64 %bf.set23.i.i.i, ptr %9, align 8, !noalias !4
  invoke void @_ZN4cvc58internal4expr9NodeValue20markRefCountMaxedOutEv(ptr noundef nonnull align 8 dereferenceable(16) %9)
          to label %invoke.cont19 unwind label %lpad.loopexit

invoke.cont19:                                    ; preds = %if.else.i.i.i, %if.then.i.i.i, %if.then13.i.i.i
  %d_kind.i.i.i.i70 = getelementptr inbounds %"class.cvc5::internal::expr::NodeValue", ptr %9, i64 0, i32 1
  %bf.load.i.i.i.i71 = load i16, ptr %d_kind.i.i.i.i70, align 8
  %bf.clear.i.i.i.i72 = and i16 %bf.load.i.i.i.i71, 1023
  %bf.cast.i.i.i.i73 = zext nneg i16 %bf.clear.i.i.i.i72 to i32
  %cmp.i.i.i.i.i74 = icmp eq i16 %bf.clear.i.i.i.i72, 1023
  %cond.i.i.i.i.i75 = select i1 %cmp.i.i.i.i.i74, i32 -1, i32 %bf.cast.i.i.i.i73
  %call2.i.i.i79 = invoke noundef i32 @_ZN4cvc58internal4kind10metaKindOfENS1_6Kind_tE(i32 noundef %cond.i.i.i.i.i75)
          to label %invoke.cont21 unwind label %lpad20

invoke.cont21:                                    ; preds = %invoke.cont19
  %cmp.i.i76 = icmp eq i32 %call2.i.i.i79, 2
  %d_nchildren.i.i = getelementptr inbounds %"class.cvc5::internal::expr::NodeValue", ptr %9, i64 0, i32 2
  %bf.load.i.i77 = load i32, ptr %d_nchildren.i.i, align 4
  %bf.clear.i.i = and i32 %bf.load.i.i77, 67108863
  %sub.i.i = sext i1 %cmp.i.i76 to i32
  %cond.i.i = add nsw i32 %bf.clear.i.i, %sub.i.i
  %cmp = icmp ugt i32 %cond.i.i, %storemerge
  %bf.load.i.i80 = load i64, ptr %9, align 8
  %11 = and i64 %bf.load.i.i80, 1152920405095219200
  %cmp.not.i.i81 = icmp eq i64 %11, 1152920405095219200
  br i1 %cmp.not.i.i81, label %_ZN4cvc58internal12NodeTemplateILb1EED2Ev.exit90, label %if.then.i.i82

if.then.i.i82:                                    ; preds = %invoke.cont21
  %bf.value.i.i83 = add i64 %bf.load.i.i80, 1152920405095219200
  %bf.shl.i.i84 = and i64 %bf.value.i.i83, 1152920405095219200
  %bf.clear7.i.i85 = and i64 %bf.load.i.i80, -1152920405095219201
  %bf.set.i.i86 = or disjoint i64 %bf.shl.i.i84, %bf.clear7.i.i85
  store i64 %bf.set.i.i86, ptr %9, align 8
  %cmp12.i.i87 = icmp eq i64 %bf.shl.i.i84, 0
  br i1 %cmp12.i.i87, label %if.then13.i.i88, label %_ZN4cvc58internal12NodeTemplateILb1EED2Ev.exit90

if.then13.i.i88:                                  ; preds = %if.then.i.i82
  invoke void @_ZN4cvc58internal4expr9NodeValue15markForDeletionEv(ptr noundef nonnull align 8 dereferenceable(16) %9)
          to label %_ZN4cvc58internal12NodeTemplateILb1EED2Ev.exit90 unwind label %terminate.lpad.i89

terminate.lpad.i89:                               ; preds = %if.then13.i.i88
  %12 = landingpad { ptr, i32 }
          catch ptr null
  %13 = extractvalue { ptr, i32 } %12, 0
  call void @__clang_call_terminate(ptr %13) #22
  unreachable

_ZN4cvc58internal12NodeTemplateILb1EED2Ev.exit90: ; preds = %invoke.cont21, %if.then.i.i82, %if.then13.i.i88
  br i1 %cmp, label %for.body, label %for.end

for.body:                                         ; preds = %_ZN4cvc58internal12NodeTemplateILb1EED2Ev.exit90
  call void @llvm.experimental.noalias.scope.decl(metadata !7)
  %14 = load ptr, ptr %q, align 8, !noalias !7
  %d_kind.i.i.i.i91 = getelementptr inbounds %"class.cvc5::internal::expr::NodeValue", ptr %14, i64 0, i32 1
  %bf.load.i.i.i.i92 = load i16, ptr %d_kind.i.i.i.i91, align 8, !noalias !7
  %bf.clear.i.i.i.i93 = and i16 %bf.load.i.i.i.i92, 1023
  %bf.cast.i.i.i.i94 = zext nneg i16 %bf.clear.i.i.i.i93 to i32
  %cmp.i.i.i.i.i95 = icmp eq i16 %bf.clear.i.i.i.i93, 1023
  %cond.i.i.i.i.i96 = select i1 %cmp.i.i.i.i.i95, i32 -1, i32 %bf.cast.i.i.i.i94
  %call2.i.i.i115 = invoke noundef i32 @_ZN4cvc58internal4kind10metaKindOfENS1_6Kind_tE(i32 noundef %cond.i.i.i.i.i96)
          to label %call2.i.i.i.noexc114 unwind label %lpad.loopexit

call2.i.i.i.noexc114:                             ; preds = %for.body
  %cmp.i.i97 = icmp eq i32 %call2.i.i.i115, 2
  %idxprom.i.i99 = zext i1 %cmp.i.i97 to i64
  %arrayidx.i.i100 = getelementptr inbounds %"class.cvc5::internal::expr::NodeValue", ptr %14, i64 0, i32 3, i64 %idxprom.i.i99
  %15 = load ptr, ptr %arrayidx.i.i100, align 8, !noalias !7
  store ptr %15, ptr %ref.tmp24, align 8, !alias.scope !7
  %bf.load.i.i.i101 = load i64, ptr %15, align 8, !noalias !7
  %bf.lshr.i.i.i102 = lshr i64 %bf.load.i.i.i101, 40
  %16 = trunc i64 %bf.lshr.i.i.i102 to i32
  %bf.cast.i.i.i103 = and i32 %16, 1048575
  %cmp.i.i.i104 = icmp ult i32 %bf.cast.i.i.i103, 1048574
  br i1 %cmp.i.i.i104, label %if.then.i.i.i109, label %if.else.i.i.i105

if.then.i.i.i109:                                 ; preds = %call2.i.i.i.noexc114
  %bf.value.i.i.i110 = add i64 %bf.load.i.i.i101, 1099511627776
  %bf.shl.i.i.i111 = and i64 %bf.value.i.i.i110, 1152920405095219200
  %bf.clear7.i.i.i112 = and i64 %bf.load.i.i.i101, -1152920405095219201
  %bf.set.i.i.i113 = or disjoint i64 %bf.shl.i.i.i111, %bf.clear7.i.i.i112
  store i64 %bf.set.i.i.i113, ptr %15, align 8, !noalias !7
  br label %invoke.cont25

if.else.i.i.i105:                                 ; preds = %call2.i.i.i.noexc114
  %cmp12.i.i.i106 = icmp eq i32 %bf.cast.i.i.i103, 1048574
  br i1 %cmp12.i.i.i106, label %if.then13.i.i.i107, label %invoke.cont25

if.then13.i.i.i107:                               ; preds = %if.else.i.i.i105
  %bf.set23.i.i.i108 = or i64 %bf.load.i.i.i101, 1152920405095219200
  store i64 %bf.set23.i.i.i108, ptr %15, align 8, !noalias !7
  invoke void @_ZN4cvc58internal4expr9NodeValue20markRefCountMaxedOutEv(ptr noundef nonnull align 8 dereferenceable(16) %15)
          to label %invoke.cont25 unwind label %lpad.loopexit

invoke.cont25:                                    ; preds = %if.else.i.i.i105, %if.then.i.i.i109, %if.then13.i.i.i107
  call void @llvm.experimental.noalias.scope.decl(metadata !10)
  %d_kind.i.i.i.i118 = getelementptr inbounds %"class.cvc5::internal::expr::NodeValue", ptr %15, i64 0, i32 1
  %bf.load.i.i.i.i119 = load i16, ptr %d_kind.i.i.i.i118, align 8, !noalias !10
  %bf.clear.i.i.i.i120 = and i16 %bf.load.i.i.i.i119, 1023
  %bf.cast.i.i.i.i121 = zext nneg i16 %bf.clear.i.i.i.i120 to i32
  %cmp.i.i.i.i.i122 = icmp eq i16 %bf.clear.i.i.i.i120, 1023
  %cond.i.i.i.i.i123 = select i1 %cmp.i.i.i.i.i122, i32 -1, i32 %bf.cast.i.i.i.i121
  %call2.i.i.i142 = invoke noundef i32 @_ZN4cvc58internal4kind10metaKindOfENS1_6Kind_tE(i32 noundef %cond.i.i.i.i.i123)
          to label %call2.i.i.i.noexc141 unwind label %lpad26

call2.i.i.i.noexc141:                             ; preds = %invoke.cont25
  %cmp.i.i124 = icmp eq i32 %call2.i.i.i142, 2
  %inc.i.i125 = zext i1 %cmp.i.i124 to i32
  %spec.select.i.i = add nuw nsw i32 %storemerge, %inc.i.i125
  %idxprom.i.i126 = sext i32 %spec.select.i.i to i64
  %arrayidx.i.i127 = getelementptr inbounds %"class.cvc5::internal::expr::NodeValue", ptr %15, i64 0, i32 3, i64 %idxprom.i.i126
  %17 = load ptr, ptr %arrayidx.i.i127, align 8, !noalias !10
  store ptr %17, ptr %ref.tmp23, align 8, !alias.scope !10
  %bf.load.i.i.i128 = load i64, ptr %17, align 8, !noalias !10
  %bf.lshr.i.i.i129 = lshr i64 %bf.load.i.i.i128, 40
  %18 = trunc i64 %bf.lshr.i.i.i129 to i32
  %bf.cast.i.i.i130 = and i32 %18, 1048575
  %cmp.i.i.i131 = icmp ult i32 %bf.cast.i.i.i130, 1048574
  br i1 %cmp.i.i.i131, label %if.then.i.i.i136, label %if.else.i.i.i132

if.then.i.i.i136:                                 ; preds = %call2.i.i.i.noexc141
  %bf.value.i.i.i137 = add i64 %bf.load.i.i.i128, 1099511627776
  %bf.shl.i.i.i138 = and i64 %bf.value.i.i.i137, 1152920405095219200
  %bf.clear7.i.i.i139 = and i64 %bf.load.i.i.i128, -1152920405095219201
  %bf.set.i.i.i140 = or disjoint i64 %bf.shl.i.i.i138, %bf.clear7.i.i.i139
  store i64 %bf.set.i.i.i140, ptr %17, align 8, !noalias !10
  br label %invoke.cont27

if.else.i.i.i132:                                 ; preds = %call2.i.i.i.noexc141
  %cmp12.i.i.i133 = icmp eq i32 %bf.cast.i.i.i130, 1048574
  br i1 %cmp12.i.i.i133, label %if.then13.i.i.i134, label %invoke.cont27

if.then13.i.i.i134:                               ; preds = %if.else.i.i.i132
  %bf.set23.i.i.i135 = or i64 %bf.load.i.i.i128, 1152920405095219200
  store i64 %bf.set23.i.i.i135, ptr %17, align 8, !noalias !10
  invoke void @_ZN4cvc58internal4expr9NodeValue20markRefCountMaxedOutEv(ptr noundef nonnull align 8 dereferenceable(16) %17)
          to label %invoke.cont27 unwind label %lpad26

invoke.cont27:                                    ; preds = %if.else.i.i.i132, %if.then.i.i.i136, %if.then13.i.i.i134
  invoke void @_ZNK4cvc58internal12NodeTemplateILb1EE7getTypeEb(ptr nonnull sret(%"class.cvc5::internal::TypeNode") align 8 %tn, ptr noundef nonnull align 8 dereferenceable(8) %ref.tmp23, i1 noundef zeroext false)
          to label %invoke.cont29 unwind label %lpad28

invoke.cont29:                                    ; preds = %invoke.cont27
  %19 = load ptr, ptr %ref.tmp23, align 8
  %bf.load.i.i145 = load i64, ptr %19, align 8
  %20 = and i64 %bf.load.i.i145, 1152920405095219200
  %cmp.not.i.i146 = icmp eq i64 %20, 1152920405095219200
  br i1 %cmp.not.i.i146, label %_ZN4cvc58internal12NodeTemplateILb1EED2Ev.exit155, label %if.then.i.i147

if.then.i.i147:                                   ; preds = %invoke.cont29
  %bf.value.i.i148 = add i64 %bf.load.i.i145, 1152920405095219200
  %bf.shl.i.i149 = and i64 %bf.value.i.i148, 1152920405095219200
  %bf.clear7.i.i150 = and i64 %bf.load.i.i145, -1152920405095219201
  %bf.set.i.i151 = or disjoint i64 %bf.shl.i.i149, %bf.clear7.i.i150
  store i64 %bf.set.i.i151, ptr %19, align 8
  %cmp12.i.i152 = icmp eq i64 %bf.shl.i.i149, 0
  br i1 %cmp12.i.i152, label %if.then13.i.i153, label %_ZN4cvc58internal12NodeTemplateILb1EED2Ev.exit155

if.then13.i.i153:                                 ; preds = %if.then.i.i147
  invoke void @_ZN4cvc58internal4expr9NodeValue15markForDeletionEv(ptr noundef nonnull align 8 dereferenceable(16) %19)
          to label %_ZN4cvc58internal12NodeTemplateILb1EED2Ev.exit155 unwind label %terminate.lpad.i154

terminate.lpad.i154:                              ; preds = %if.then13.i.i153
  %21 = landingpad { ptr, i32 }
          catch ptr null
  %22 = extractvalue { ptr, i32 } %21, 0
  call void @__clang_call_terminate(ptr %22) #22
  unreachable

_ZN4cvc58internal12NodeTemplateILb1EED2Ev.exit155: ; preds = %invoke.cont29, %if.then.i.i147, %if.then13.i.i153
  %bf.load.i.i156 = load i64, ptr %15, align 8
  %23 = and i64 %bf.load.i.i156, 1152920405095219200
  %cmp.not.i.i157 = icmp eq i64 %23, 1152920405095219200
  br i1 %cmp.not.i.i157, label %_ZN4cvc58internal12NodeTemplateILb1EED2Ev.exit166, label %if.then.i.i158

if.then.i.i158:                                   ; preds = %_ZN4cvc58internal12NodeTemplateILb1EED2Ev.exit155
  %bf.value.i.i159 = add i64 %bf.load.i.i156, 1152920405095219200
  %bf.shl.i.i160 = and i64 %bf.value.i.i159, 1152920405095219200
  %bf.clear7.i.i161 = and i64 %bf.load.i.i156, -1152920405095219201
  %bf.set.i.i162 = or disjoint i64 %bf.shl.i.i160, %bf.clear7.i.i161
  store i64 %bf.set.i.i162, ptr %15, align 8
  %cmp12.i.i163 = icmp eq i64 %bf.shl.i.i160, 0
  br i1 %cmp12.i.i163, label %if.then13.i.i164, label %_ZN4cvc58internal12NodeTemplateILb1EED2Ev.exit166

if.then13.i.i164:                                 ; preds = %if.then.i.i158
  invoke void @_ZN4cvc58internal4expr9NodeValue15markForDeletionEv(ptr noundef nonnull align 8 dereferenceable(16) %15)
          to label %_ZN4cvc58internal12NodeTemplateILb1EED2Ev.exit166 unwind label %terminate.lpad.i165

terminate.lpad.i165:                              ; preds = %if.then13.i.i164
  %24 = landingpad { ptr, i32 }
          catch ptr null
  %25 = extractvalue { ptr, i32 } %24, 0
  call void @__clang_call_terminate(ptr %25) #22
  unreachable

_ZN4cvc58internal12NodeTemplateILb1EED2Ev.exit166: ; preds = %_ZN4cvc58internal12NodeTemplateILb1EED2Ev.exit155, %if.then.i.i158, %if.then13.i.i164
  %call32 = invoke noundef zeroext i1 @_ZNK4cvc58internal8TypeNode10isDatatypeEv(ptr noundef nonnull align 8 dereferenceable(8) %tn)
          to label %invoke.cont31 unwind label %lpad30

invoke.cont31:                                    ; preds = %_ZN4cvc58internal12NodeTemplateILb1EED2Ev.exit166
  br i1 %call32, label %if.then33, label %cleanup

if.then33:                                        ; preds = %invoke.cont31
  %26 = load ptr, ptr %d_env, align 8
  %27 = load ptr, ptr %tn, align 8
  store ptr %27, ptr %agg.tmp34, align 8
  %bf.load.i.i167 = load i64, ptr %27, align 8
  %bf.lshr.i.i168 = lshr i64 %bf.load.i.i167, 40
  %28 = trunc i64 %bf.lshr.i.i168 to i32
  %bf.cast.i.i169 = and i32 %28, 1048575
  %cmp.i.i170 = icmp ult i32 %bf.cast.i.i169, 1048574
  br i1 %cmp.i.i170, label %if.then.i.i175, label %if.else.i.i171

if.then.i.i175:                                   ; preds = %if.then33
  %bf.value.i.i176 = add i64 %bf.load.i.i167, 1099511627776
  %bf.shl.i.i177 = and i64 %bf.value.i.i176, 1152920405095219200
  %bf.clear7.i.i178 = and i64 %bf.load.i.i167, -1152920405095219201
  %bf.set.i.i179 = or disjoint i64 %bf.shl.i.i177, %bf.clear7.i.i178
  store i64 %bf.set.i.i179, ptr %27, align 8
  br label %invoke.cont35

if.else.i.i171:                                   ; preds = %if.then33
  %cmp12.i.i172 = icmp eq i32 %bf.cast.i.i169, 1048574
  br i1 %cmp12.i.i172, label %if.then13.i.i173, label %invoke.cont35

if.then13.i.i173:                                 ; preds = %if.else.i.i171
  %bf.set23.i.i174 = or i64 %bf.load.i.i167, 1152920405095219200
  store i64 %bf.set23.i.i174, ptr %27, align 8
  invoke void @_ZN4cvc58internal4expr9NodeValue20markRefCountMaxedOutEv(ptr noundef nonnull align 8 dereferenceable(16) %27)
          to label %invoke.cont35 unwind label %lpad30

invoke.cont35:                                    ; preds = %if.else.i.i171, %if.then.i.i175, %if.then13.i.i173
  %call38 = invoke noundef zeroext i1 @_ZNK4cvc58internal3Env12isFiniteTypeENS0_8TypeNodeE(ptr noundef nonnull align 8 dereferenceable(576) %26, ptr noundef nonnull %agg.tmp34)
          to label %invoke.cont37 unwind label %lpad36

invoke.cont37:                                    ; preds = %invoke.cont35
  %29 = load ptr, ptr %agg.tmp34, align 8
  %bf.load.i.i181 = load i64, ptr %29, align 8
  %30 = and i64 %bf.load.i.i181, 1152920405095219200
  %cmp.not.i.i182 = icmp eq i64 %30, 1152920405095219200
  br i1 %cmp.not.i.i182, label %_ZN4cvc58internal8TypeNodeD2Ev.exit, label %if.then.i.i183

if.then.i.i183:                                   ; preds = %invoke.cont37
  %bf.value.i.i184 = add i64 %bf.load.i.i181, 1152920405095219200
  %bf.shl.i.i185 = and i64 %bf.value.i.i184, 1152920405095219200
  %bf.clear7.i.i186 = and i64 %bf.load.i.i181, -1152920405095219201
  %bf.set.i.i187 = or disjoint i64 %bf.shl.i.i185, %bf.clear7.i.i186
  store i64 %bf.set.i.i187, ptr %29, align 8
  %cmp12.i.i188 = icmp eq i64 %bf.shl.i.i185, 0
  br i1 %cmp12.i.i188, label %if.then13.i.i189, label %_ZN4cvc58internal8TypeNodeD2Ev.exit

if.then13.i.i189:                                 ; preds = %if.then.i.i183
  invoke void @_ZN4cvc58internal4expr9NodeValue15markForDeletionEv(ptr noundef nonnull align 8 dereferenceable(16) %29)
          to label %_ZN4cvc58internal8TypeNodeD2Ev.exit unwind label %terminate.lpad.i190

terminate.lpad.i190:                              ; preds = %if.then13.i.i189
  %31 = landingpad { ptr, i32 }
          catch ptr null
  %32 = extractvalue { ptr, i32 } %31, 0
  call void @__clang_call_terminate(ptr %32) #22
  unreachable

_ZN4cvc58internal8TypeNodeD2Ev.exit:              ; preds = %invoke.cont37, %if.then.i.i183, %if.then13.i.i189
  %frombool = zext i1 %call38 to i8
  %call41 = invoke noundef nonnull align 8 dereferenceable(448) ptr @_ZNK4cvc58internal8TypeNode8getDTypeEv(ptr noundef nonnull align 8 dereferenceable(8) %tn)
          to label %invoke.cont40 unwind label %lpad30

invoke.cont40:                                    ; preds = %_ZN4cvc58internal8TypeNodeD2Ev.exit
  %33 = load ptr, ptr %tn, align 8
  store ptr %33, ptr %agg.tmp42, align 8
  %bf.load.i.i191 = load i64, ptr %33, align 8
  %bf.lshr.i.i192 = lshr i64 %bf.load.i.i191, 40
  %34 = trunc i64 %bf.lshr.i.i192 to i32
  %bf.cast.i.i193 = and i32 %34, 1048575
  %cmp.i.i194 = icmp ult i32 %bf.cast.i.i193, 1048574
  br i1 %cmp.i.i194, label %if.then.i.i199, label %if.else.i.i195

if.then.i.i199:                                   ; preds = %invoke.cont40
  %bf.value.i.i200 = add i64 %bf.load.i.i191, 1099511627776
  %bf.shl.i.i201 = and i64 %bf.value.i.i200, 1152920405095219200
  %bf.clear7.i.i202 = and i64 %bf.load.i.i191, -1152920405095219201
  %bf.set.i.i203 = or disjoint i64 %bf.shl.i.i201, %bf.clear7.i.i202
  store i64 %bf.set.i.i203, ptr %33, align 8
  br label %invoke.cont43

if.else.i.i195:                                   ; preds = %invoke.cont40
  %cmp12.i.i196 = icmp eq i32 %bf.cast.i.i193, 1048574
  br i1 %cmp12.i.i196, label %if.then13.i.i197, label %invoke.cont43

if.then13.i.i197:                                 ; preds = %if.else.i.i195
  %bf.set23.i.i198 = or i64 %bf.load.i.i191, 1152920405095219200
  store i64 %bf.set23.i.i198, ptr %33, align 8
  invoke void @_ZN4cvc58internal4expr9NodeValue20markRefCountMaxedOutEv(ptr noundef nonnull align 8 dereferenceable(16) %33)
          to label %invoke.cont43 unwind label %lpad30

invoke.cont43:                                    ; preds = %if.else.i.i195, %if.then.i.i199, %if.then13.i.i197
  %call46 = invoke noundef zeroext i1 @_ZNK4cvc58internal5DType20isRecursiveSingletonENS0_8TypeNodeE(ptr noundef nonnull align 8 dereferenceable(448) %call41, ptr noundef nonnull %agg.tmp42)
          to label %invoke.cont45 unwind label %lpad44

invoke.cont45:                                    ; preds = %invoke.cont43
  %35 = load ptr, ptr %agg.tmp42, align 8
  %bf.load.i.i206 = load i64, ptr %35, align 8
  %36 = and i64 %bf.load.i.i206, 1152920405095219200
  %cmp.not.i.i207 = icmp eq i64 %36, 1152920405095219200
  br i1 %cmp.not.i.i207, label %_ZN4cvc58internal8TypeNodeD2Ev.exit216, label %if.then.i.i208

if.then.i.i208:                                   ; preds = %invoke.cont45
  %bf.value.i.i209 = add i64 %bf.load.i.i206, 1152920405095219200
  %bf.shl.i.i210 = and i64 %bf.value.i.i209, 1152920405095219200
  %bf.clear7.i.i211 = and i64 %bf.load.i.i206, -1152920405095219201
  %bf.set.i.i212 = or disjoint i64 %bf.shl.i.i210, %bf.clear7.i.i211
  store i64 %bf.set.i.i212, ptr %35, align 8
  %cmp12.i.i213 = icmp eq i64 %bf.shl.i.i210, 0
  br i1 %cmp12.i.i213, label %if.then13.i.i214, label %_ZN4cvc58internal8TypeNodeD2Ev.exit216

if.then13.i.i214:                                 ; preds = %if.then.i.i208
  invoke void @_ZN4cvc58internal4expr9NodeValue15markForDeletionEv(ptr noundef nonnull align 8 dereferenceable(16) %35)
          to label %_ZN4cvc58internal8TypeNodeD2Ev.exit216 unwind label %terminate.lpad.i215

terminate.lpad.i215:                              ; preds = %if.then13.i.i214
  %37 = landingpad { ptr, i32 }
          catch ptr null
  %38 = extractvalue { ptr, i32 } %37, 0
  call void @__clang_call_terminate(ptr %38) #22
  unreachable

_ZN4cvc58internal8TypeNodeD2Ev.exit216:           ; preds = %invoke.cont45, %if.then.i.i208, %if.then13.i.i214
  br i1 %call46, label %cleanup, label %if.else

lpad20:                                           ; preds = %invoke.cont19
  %39 = landingpad { ptr, i32 }
          cleanup
  call void @_ZN4cvc58internal12NodeTemplateILb1EED2Ev(ptr noundef nonnull align 8 dereferenceable(8) %ref.tmp18) #21
  br label %ehcleanup211

lpad26:                                           ; preds = %if.then13.i.i.i134, %invoke.cont25
  %40 = landingpad { ptr, i32 }
          cleanup
  br label %ehcleanup

lpad28:                                           ; preds = %invoke.cont27
  %41 = landingpad { ptr, i32 }
          cleanup
  call void @_ZN4cvc58internal12NodeTemplateILb1EED2Ev(ptr noundef nonnull align 8 dereferenceable(8) %ref.tmp23) #21
  br label %ehcleanup

ehcleanup:                                        ; preds = %lpad28, %lpad26
  %.pn = phi { ptr, i32 } [ %41, %lpad28 ], [ %40, %lpad26 ]
  call void @_ZN4cvc58internal12NodeTemplateILb1EED2Ev(ptr noundef nonnull align 8 dereferenceable(8) %ref.tmp24) #21
  br label %ehcleanup211

lpad30:                                           ; preds = %if.then.i435, %if.then13.i.i335, %if.then13.i.i197, %if.then13.i.i173, %land.lhs.true, %if.else104, %if.else80, %if.else, %_ZN4cvc58internal8TypeNodeD2Ev.exit, %_ZN4cvc58internal12NodeTemplateILb1EED2Ev.exit166
  %42 = landingpad { ptr, i32 }
          cleanup
  br label %ehcleanup183

lpad36:                                           ; preds = %invoke.cont35
  %43 = landingpad { ptr, i32 }
          cleanup
  call void @_ZN4cvc58internal8TypeNodeD2Ev(ptr noundef nonnull align 8 dereferenceable(8) %agg.tmp34) #21
  br label %ehcleanup183

lpad44:                                           ; preds = %invoke.cont43
  %44 = landingpad { ptr, i32 }
          cleanup
  call void @_ZN4cvc58internal8TypeNodeD2Ev(ptr noundef nonnull align 8 dereferenceable(8) %agg.tmp42) #21
  br label %ehcleanup183

if.else:                                          ; preds = %_ZN4cvc58internal8TypeNodeD2Ev.exit216
  %call76 = invoke noundef nonnull align 8 dereferenceable(392) ptr @_ZNK4cvc58internal6EnvObj7optionsEv(ptr noundef nonnull align 8 dereferenceable(16) %this)
          to label %invoke.cont75 unwind label %lpad30

invoke.cont75:                                    ; preds = %if.else
  %quantifiers = getelementptr inbounds %"class.cvc5::internal::Options", ptr %call76, i64 0, i32 41
  %45 = load ptr, ptr %quantifiers, align 8
  %quantDynamicSplit = getelementptr inbounds %"struct.cvc5::internal::options::HolderQUANTIFIERS", ptr %45, i64 0, i32 204
  %46 = load i32, ptr %quantDynamicSplit, align 4
  %cmp77 = icmp eq i32 %46, 2
  br i1 %cmp77, label %if.end115, label %if.else80

if.else80:                                        ; preds = %invoke.cont75
  %call82 = invoke noundef nonnull align 8 dereferenceable(392) ptr @_ZNK4cvc58internal6EnvObj7optionsEv(ptr noundef nonnull align 8 dereferenceable(16) %this)
          to label %invoke.cont81 unwind label %lpad30

invoke.cont81:                                    ; preds = %if.else80
  %quantifiers83 = getelementptr inbounds %"class.cvc5::internal::Options", ptr %call82, i64 0, i32 41
  %47 = load ptr, ptr %quantifiers83, align 8
  %quantDynamicSplit84 = getelementptr inbounds %"struct.cvc5::internal::options::HolderQUANTIFIERS", ptr %47, i64 0, i32 204
  %48 = load i32, ptr %quantDynamicSplit84, align 4
  %cmp85 = icmp eq i32 %48, 1
  br i1 %cmp85, label %if.then86, label %if.end115

if.then86:                                        ; preds = %invoke.cont81
  %49 = load ptr, ptr %q, align 8
  store ptr %49, ptr %agg.tmp87, align 8
  %bf.load.i.i329 = load i64, ptr %49, align 8
  %bf.lshr.i.i330 = lshr i64 %bf.load.i.i329, 40
  %50 = trunc i64 %bf.lshr.i.i330 to i32
  %bf.cast.i.i331 = and i32 %50, 1048575
  %cmp.i.i332 = icmp ult i32 %bf.cast.i.i331, 1048574
  br i1 %cmp.i.i332, label %if.then.i.i337, label %if.else.i.i333

if.then.i.i337:                                   ; preds = %if.then86
  %bf.value.i.i338 = add i64 %bf.load.i.i329, 1099511627776
  %bf.shl.i.i339 = and i64 %bf.value.i.i338, 1152920405095219200
  %bf.clear7.i.i340 = and i64 %bf.load.i.i329, -1152920405095219201
  %bf.set.i.i341 = or disjoint i64 %bf.shl.i.i339, %bf.clear7.i.i340
  store i64 %bf.set.i.i341, ptr %49, align 8
  br label %invoke.cont88

if.else.i.i333:                                   ; preds = %if.then86
  %cmp12.i.i334 = icmp eq i32 %bf.cast.i.i331, 1048574
  br i1 %cmp12.i.i334, label %if.then13.i.i335, label %invoke.cont88

if.then13.i.i335:                                 ; preds = %if.else.i.i333
  %bf.set23.i.i336 = or i64 %bf.load.i.i329, 1152920405095219200
  store i64 %bf.set23.i.i336, ptr %49, align 8
  invoke void @_ZN4cvc58internal4expr9NodeValue20markRefCountMaxedOutEv(ptr noundef nonnull align 8 dereferenceable(16) %49)
          to label %invoke.cont88 unwind label %lpad30

invoke.cont88:                                    ; preds = %if.else.i.i333, %if.then.i.i337, %if.then13.i.i335
  call void @llvm.experimental.noalias.scope.decl(metadata !13)
  %51 = load ptr, ptr %q, align 8, !noalias !13
  %d_kind.i.i.i.i344 = getelementptr inbounds %"class.cvc5::internal::expr::NodeValue", ptr %51, i64 0, i32 1
  %bf.load.i.i.i.i345 = load i16, ptr %d_kind.i.i.i.i344, align 8, !noalias !13
  %bf.clear.i.i.i.i346 = and i16 %bf.load.i.i.i.i345, 1023
  %bf.cast.i.i.i.i347 = zext nneg i16 %bf.clear.i.i.i.i346 to i32
  %cmp.i.i.i.i.i348 = icmp eq i16 %bf.clear.i.i.i.i346, 1023
  %cond.i.i.i.i.i349 = select i1 %cmp.i.i.i.i.i348, i32 -1, i32 %bf.cast.i.i.i.i347
  %call2.i.i.i368 = invoke noundef i32 @_ZN4cvc58internal4kind10metaKindOfENS1_6Kind_tE(i32 noundef %cond.i.i.i.i.i349)
          to label %call2.i.i.i.noexc367 unwind label %lpad91

call2.i.i.i.noexc367:                             ; preds = %invoke.cont88
  %cmp.i.i350 = icmp eq i32 %call2.i.i.i368, 2
  %idxprom.i.i352 = zext i1 %cmp.i.i350 to i64
  %arrayidx.i.i353 = getelementptr inbounds %"class.cvc5::internal::expr::NodeValue", ptr %51, i64 0, i32 3, i64 %idxprom.i.i352
  %52 = load ptr, ptr %arrayidx.i.i353, align 8, !noalias !13
  store ptr %52, ptr %ref.tmp90, align 8, !alias.scope !13
  %bf.load.i.i.i354 = load i64, ptr %52, align 8, !noalias !13
  %bf.lshr.i.i.i355 = lshr i64 %bf.load.i.i.i354, 40
  %53 = trunc i64 %bf.lshr.i.i.i355 to i32
  %bf.cast.i.i.i356 = and i32 %53, 1048575
  %cmp.i.i.i357 = icmp ult i32 %bf.cast.i.i.i356, 1048574
  br i1 %cmp.i.i.i357, label %if.then.i.i.i362, label %if.else.i.i.i358

if.then.i.i.i362:                                 ; preds = %call2.i.i.i.noexc367
  %bf.value.i.i.i363 = add i64 %bf.load.i.i.i354, 1099511627776
  %bf.shl.i.i.i364 = and i64 %bf.value.i.i.i363, 1152920405095219200
  %bf.clear7.i.i.i365 = and i64 %bf.load.i.i.i354, -1152920405095219201
  %bf.set.i.i.i366 = or disjoint i64 %bf.shl.i.i.i364, %bf.clear7.i.i.i365
  store i64 %bf.set.i.i.i366, ptr %52, align 8, !noalias !13
  br label %invoke.cont92

if.else.i.i.i358:                                 ; preds = %call2.i.i.i.noexc367
  %cmp12.i.i.i359 = icmp eq i32 %bf.cast.i.i.i356, 1048574
  br i1 %cmp12.i.i.i359, label %if.then13.i.i.i360, label %invoke.cont92

if.then13.i.i.i360:                               ; preds = %if.else.i.i.i358
  %bf.set23.i.i.i361 = or i64 %bf.load.i.i.i354, 1152920405095219200
  store i64 %bf.set23.i.i.i361, ptr %52, align 8, !noalias !13
  invoke void @_ZN4cvc58internal4expr9NodeValue20markRefCountMaxedOutEv(ptr noundef nonnull align 8 dereferenceable(16) %52)
          to label %invoke.cont92 unwind label %lpad91

invoke.cont92:                                    ; preds = %if.else.i.i.i358, %if.then.i.i.i362, %if.then13.i.i.i360
  call void @llvm.experimental.noalias.scope.decl(metadata !16)
  %d_kind.i.i.i.i371 = getelementptr inbounds %"class.cvc5::internal::expr::NodeValue", ptr %52, i64 0, i32 1
  %bf.load.i.i.i.i372 = load i16, ptr %d_kind.i.i.i.i371, align 8, !noalias !16
  %bf.clear.i.i.i.i373 = and i16 %bf.load.i.i.i.i372, 1023
  %bf.cast.i.i.i.i374 = zext nneg i16 %bf.clear.i.i.i.i373 to i32
  %cmp.i.i.i.i.i375 = icmp eq i16 %bf.clear.i.i.i.i373, 1023
  %cond.i.i.i.i.i376 = select i1 %cmp.i.i.i.i.i375, i32 -1, i32 %bf.cast.i.i.i.i374
  %call2.i.i.i396 = invoke noundef i32 @_ZN4cvc58internal4kind10metaKindOfENS1_6Kind_tE(i32 noundef %cond.i.i.i.i.i376)
          to label %call2.i.i.i.noexc395 unwind label %lpad93

call2.i.i.i.noexc395:                             ; preds = %invoke.cont92
  %cmp.i.i377 = icmp eq i32 %call2.i.i.i396, 2
  %inc.i.i378 = zext i1 %cmp.i.i377 to i32
  %spec.select.i.i379 = add nuw nsw i32 %storemerge, %inc.i.i378
  %idxprom.i.i380 = sext i32 %spec.select.i.i379 to i64
  %arrayidx.i.i381 = getelementptr inbounds %"class.cvc5::internal::expr::NodeValue", ptr %52, i64 0, i32 3, i64 %idxprom.i.i380
  %54 = load ptr, ptr %arrayidx.i.i381, align 8, !noalias !16
  store ptr %54, ptr %agg.tmp89, align 8, !alias.scope !16
  %bf.load.i.i.i382 = load i64, ptr %54, align 8, !noalias !16
  %bf.lshr.i.i.i383 = lshr i64 %bf.load.i.i.i382, 40
  %55 = trunc i64 %bf.lshr.i.i.i383 to i32
  %bf.cast.i.i.i384 = and i32 %55, 1048575
  %cmp.i.i.i385 = icmp ult i32 %bf.cast.i.i.i384, 1048574
  br i1 %cmp.i.i.i385, label %if.then.i.i.i390, label %if.else.i.i.i386

if.then.i.i.i390:                                 ; preds = %call2.i.i.i.noexc395
  %bf.value.i.i.i391 = add i64 %bf.load.i.i.i382, 1099511627776
  %bf.shl.i.i.i392 = and i64 %bf.value.i.i.i391, 1152920405095219200
  %bf.clear7.i.i.i393 = and i64 %bf.load.i.i.i382, -1152920405095219201
  %bf.set.i.i.i394 = or disjoint i64 %bf.shl.i.i.i392, %bf.clear7.i.i.i393
  store i64 %bf.set.i.i.i394, ptr %54, align 8, !noalias !16
  br label %invoke.cont94

if.else.i.i.i386:                                 ; preds = %call2.i.i.i.noexc395
  %cmp12.i.i.i387 = icmp eq i32 %bf.cast.i.i.i384, 1048574
  br i1 %cmp12.i.i.i387, label %if.then13.i.i.i388, label %invoke.cont94

if.then13.i.i.i388:                               ; preds = %if.else.i.i.i386
  %bf.set23.i.i.i389 = or i64 %bf.load.i.i.i382, 1152920405095219200
  store i64 %bf.set23.i.i.i389, ptr %54, align 8, !noalias !16
  invoke void @_ZN4cvc58internal4expr9NodeValue20markRefCountMaxedOutEv(ptr noundef nonnull align 8 dereferenceable(16) %54)
          to label %invoke.cont94 unwind label %lpad93

invoke.cont94:                                    ; preds = %if.else.i.i.i386, %if.then.i.i.i390, %if.then13.i.i.i388
  %call97 = invoke noundef zeroext i1 @_ZN4cvc58internal6theory11quantifiers25QuantifiersBoundInference13isFiniteBoundENS0_12NodeTemplateILb1EEES5_(ptr noundef nonnull align 8 dereferenceable(72) %call6, ptr noundef nonnull %agg.tmp87, ptr noundef nonnull %agg.tmp89)
          to label %invoke.cont96 unwind label %lpad95

invoke.cont96:                                    ; preds = %invoke.cont94
  %56 = load ptr, ptr %agg.tmp89, align 8
  %bf.load.i.i399 = load i64, ptr %56, align 8
  %57 = and i64 %bf.load.i.i399, 1152920405095219200
  %cmp.not.i.i400 = icmp eq i64 %57, 1152920405095219200
  br i1 %cmp.not.i.i400, label %_ZN4cvc58internal12NodeTemplateILb1EED2Ev.exit409, label %if.then.i.i401

if.then.i.i401:                                   ; preds = %invoke.cont96
  %bf.value.i.i402 = add i64 %bf.load.i.i399, 1152920405095219200
  %bf.shl.i.i403 = and i64 %bf.value.i.i402, 1152920405095219200
  %bf.clear7.i.i404 = and i64 %bf.load.i.i399, -1152920405095219201
  %bf.set.i.i405 = or disjoint i64 %bf.shl.i.i403, %bf.clear7.i.i404
  store i64 %bf.set.i.i405, ptr %56, align 8
  %cmp12.i.i406 = icmp eq i64 %bf.shl.i.i403, 0
  br i1 %cmp12.i.i406, label %if.then13.i.i407, label %_ZN4cvc58internal12NodeTemplateILb1EED2Ev.exit409

if.then13.i.i407:                                 ; preds = %if.then.i.i401
  invoke void @_ZN4cvc58internal4expr9NodeValue15markForDeletionEv(ptr noundef nonnull align 8 dereferenceable(16) %56)
          to label %_ZN4cvc58internal12NodeTemplateILb1EED2Ev.exit409 unwind label %terminate.lpad.i408

terminate.lpad.i408:                              ; preds = %if.then13.i.i407
  %58 = landingpad { ptr, i32 }
          catch ptr null
  %59 = extractvalue { ptr, i32 } %58, 0
  call void @__clang_call_terminate(ptr %59) #22
  unreachable

_ZN4cvc58internal12NodeTemplateILb1EED2Ev.exit409: ; preds = %invoke.cont96, %if.then.i.i401, %if.then13.i.i407
  %bf.load.i.i410 = load i64, ptr %52, align 8
  %60 = and i64 %bf.load.i.i410, 1152920405095219200
  %cmp.not.i.i411 = icmp eq i64 %60, 1152920405095219200
  br i1 %cmp.not.i.i411, label %_ZN4cvc58internal12NodeTemplateILb1EED2Ev.exit420, label %if.then.i.i412

if.then.i.i412:                                   ; preds = %_ZN4cvc58internal12NodeTemplateILb1EED2Ev.exit409
  %bf.value.i.i413 = add i64 %bf.load.i.i410, 1152920405095219200
  %bf.shl.i.i414 = and i64 %bf.value.i.i413, 1152920405095219200
  %bf.clear7.i.i415 = and i64 %bf.load.i.i410, -1152920405095219201
  %bf.set.i.i416 = or disjoint i64 %bf.shl.i.i414, %bf.clear7.i.i415
  store i64 %bf.set.i.i416, ptr %52, align 8
  %cmp12.i.i417 = icmp eq i64 %bf.shl.i.i414, 0
  br i1 %cmp12.i.i417, label %if.then13.i.i418, label %_ZN4cvc58internal12NodeTemplateILb1EED2Ev.exit420

if.then13.i.i418:                                 ; preds = %if.then.i.i412
  invoke void @_ZN4cvc58internal4expr9NodeValue15markForDeletionEv(ptr noundef nonnull align 8 dereferenceable(16) %52)
          to label %_ZN4cvc58internal12NodeTemplateILb1EED2Ev.exit420 unwind label %terminate.lpad.i419

terminate.lpad.i419:                              ; preds = %if.then13.i.i418
  %61 = landingpad { ptr, i32 }
          catch ptr null
  %62 = extractvalue { ptr, i32 } %61, 0
  call void @__clang_call_terminate(ptr %62) #22
  unreachable

_ZN4cvc58internal12NodeTemplateILb1EED2Ev.exit420: ; preds = %_ZN4cvc58internal12NodeTemplateILb1EED2Ev.exit409, %if.then.i.i412, %if.then13.i.i418
  %63 = load ptr, ptr %agg.tmp87, align 8
  %bf.load.i.i421 = load i64, ptr %63, align 8
  %64 = and i64 %bf.load.i.i421, 1152920405095219200
  %cmp.not.i.i422 = icmp eq i64 %64, 1152920405095219200
  br i1 %cmp.not.i.i422, label %_ZN4cvc58internal12NodeTemplateILb1EED2Ev.exit431, label %if.then.i.i423

if.then.i.i423:                                   ; preds = %_ZN4cvc58internal12NodeTemplateILb1EED2Ev.exit420
  %bf.value.i.i424 = add i64 %bf.load.i.i421, 1152920405095219200
  %bf.shl.i.i425 = and i64 %bf.value.i.i424, 1152920405095219200
  %bf.clear7.i.i426 = and i64 %bf.load.i.i421, -1152920405095219201
  %bf.set.i.i427 = or disjoint i64 %bf.shl.i.i425, %bf.clear7.i.i426
  store i64 %bf.set.i.i427, ptr %63, align 8
  %cmp12.i.i428 = icmp eq i64 %bf.shl.i.i425, 0
  br i1 %cmp12.i.i428, label %if.then13.i.i429, label %_ZN4cvc58internal12NodeTemplateILb1EED2Ev.exit431

if.then13.i.i429:                                 ; preds = %if.then.i.i423
  invoke void @_ZN4cvc58internal4expr9NodeValue15markForDeletionEv(ptr noundef nonnull align 8 dereferenceable(16) %63)
          to label %_ZN4cvc58internal12NodeTemplateILb1EED2Ev.exit431 unwind label %terminate.lpad.i430

terminate.lpad.i430:                              ; preds = %if.then13.i.i429
  %65 = landingpad { ptr, i32 }
          catch ptr null
  %66 = extractvalue { ptr, i32 } %65, 0
  call void @__clang_call_terminate(ptr %66) #22
  unreachable

_ZN4cvc58internal12NodeTemplateILb1EED2Ev.exit431: ; preds = %_ZN4cvc58internal12NodeTemplateILb1EED2Ev.exit420, %if.then.i.i423, %if.then13.i.i429
  %brmerge = or i1 %call38, %call97
  %takeOwnership.0.mux = select i1 %call97, i8 %takeOwnership.0, i8 1
  %doSplit.0.mux = select i1 %call97, i8 %doSplit.0, i8 1
  br i1 %brmerge, label %if.end115, label %if.else104

lpad91:                                           ; preds = %if.then13.i.i.i360, %invoke.cont88
  %67 = landingpad { ptr, i32 }
          cleanup
  br label %ehcleanup100

lpad93:                                           ; preds = %if.then13.i.i.i388, %invoke.cont92
  %68 = landingpad { ptr, i32 }
          cleanup
  br label %ehcleanup99

lpad95:                                           ; preds = %invoke.cont94
  %69 = landingpad { ptr, i32 }
          cleanup
  call void @_ZN4cvc58internal12NodeTemplateILb1EED2Ev(ptr noundef nonnull align 8 dereferenceable(8) %agg.tmp89) #21
  br label %ehcleanup99

ehcleanup99:                                      ; preds = %lpad95, %lpad93
  %.pn8 = phi { ptr, i32 } [ %69, %lpad95 ], [ %68, %lpad93 ]
  call void @_ZN4cvc58internal12NodeTemplateILb1EED2Ev(ptr noundef nonnull align 8 dereferenceable(8) %ref.tmp90) #21
  br label %ehcleanup100

ehcleanup100:                                     ; preds = %ehcleanup99, %lpad91
  %.pn8.pn = phi { ptr, i32 } [ %.pn8, %ehcleanup99 ], [ %67, %lpad91 ]
  call void @_ZN4cvc58internal12NodeTemplateILb1EED2Ev(ptr noundef nonnull align 8 dereferenceable(8) %agg.tmp87) #21
  br label %ehcleanup183

if.else104:                                       ; preds = %_ZN4cvc58internal12NodeTemplateILb1EED2Ev.exit431
  %call106 = invoke noundef i64 @_ZNK4cvc58internal5DType18getNumConstructorsEv(ptr noundef nonnull align 8 dereferenceable(448) %call41)
          to label %invoke.cont105 unwind label %lpad30

invoke.cont105:                                   ; preds = %if.else104
  %cmp107 = icmp eq i64 %call106, 1
  br i1 %cmp107, label %land.lhs.true, label %if.end115

land.lhs.true:                                    ; preds = %invoke.cont105
  %call109 = invoke noundef zeroext i1 @_ZNK4cvc58internal5DType12isCodatatypeEv(ptr noundef nonnull align 8 dereferenceable(448) %call41)
          to label %invoke.cont108 unwind label %lpad30

invoke.cont108:                                   ; preds = %land.lhs.true
  %spec.select = select i1 %call109, i8 %doSplit.0, i8 1
  br label %if.end115

if.end115:                                        ; preds = %invoke.cont108, %_ZN4cvc58internal12NodeTemplateILb1EED2Ev.exit431, %invoke.cont75, %invoke.cont81, %invoke.cont105
  %takeOwnership.1 = phi i8 [ %takeOwnership.0, %invoke.cont105 ], [ %takeOwnership.0.mux, %_ZN4cvc58internal12NodeTemplateILb1EED2Ev.exit431 ], [ %takeOwnership.0, %invoke.cont81 ], [ %takeOwnership.0, %invoke.cont75 ], [ %takeOwnership.0, %invoke.cont108 ]
  %doSplit.1 = phi i8 [ %doSplit.0, %invoke.cont105 ], [ %doSplit.0.mux, %_ZN4cvc58internal12NodeTemplateILb1EED2Ev.exit431 ], [ %doSplit.0, %invoke.cont81 ], [ %frombool, %invoke.cont75 ], [ %spec.select, %invoke.cont108 ]
  %70 = and i8 %doSplit.1, 1
  %tobool116.not = icmp eq i8 %70, 0
  br i1 %tobool116.not, label %cleanup, label %if.then117

if.then117:                                       ; preds = %if.end115
  call void @llvm.lifetime.start.p0(i64 8, ptr nonnull %ref.tmp9.i)
  call void @llvm.lifetime.start.p0(i64 1, ptr nonnull %ref.tmp10.i)
  %71 = load ptr, ptr %_M_parent.i.i.i.i.i, align 8
  %cmp.not5.i.i.i.i = icmp eq ptr %71, null
  br i1 %cmp.not5.i.i.i.i, label %if.then.i435, label %while.body.lr.ph.i.i.i.i

while.body.lr.ph.i.i.i.i:                         ; preds = %if.then117
  %72 = load ptr, ptr %q, align 8
  %bf.load3.i.i.i.i.i.i = load i64, ptr %72, align 8
  %bf.clear4.i.i.i.i.i.i = and i64 %bf.load3.i.i.i.i.i.i, 1099511627775
  br label %while.body.i.i.i.i

while.body.i.i.i.i:                               ; preds = %while.body.i.i.i.i, %while.body.lr.ph.i.i.i.i
  %__x.addr.07.i.i.i.i = phi ptr [ %71, %while.body.lr.ph.i.i.i.i ], [ %__x.addr.1.i.i.i.i, %while.body.i.i.i.i ]
  %__y.addr.06.i.i.i.i = phi ptr [ %add.ptr.i.i.i.i, %while.body.lr.ph.i.i.i.i ], [ %__y.addr.1.i.i.i.i, %while.body.i.i.i.i ]
  %_M_storage.i.i.i.i.i.i = getelementptr inbounds %"struct.std::_Rb_tree_node", ptr %__x.addr.07.i.i.i.i, i64 0, i32 1
  %73 = load ptr, ptr %_M_storage.i.i.i.i.i.i, align 8
  %bf.load.i.i.i.i.i.i = load i64, ptr %73, align 8
  %bf.clear.i.i.i.i.i.i = and i64 %bf.load.i.i.i.i.i.i, 1099511627775
  %cmp.i.i.i.i.i.i = icmp ult i64 %bf.clear.i.i.i.i.i.i, %bf.clear4.i.i.i.i.i.i
  %_M_right.i.i.i.i.i = getelementptr inbounds %"struct.std::_Rb_tree_node_base", ptr %__x.addr.07.i.i.i.i, i64 0, i32 3
  %_M_left.i.i.i.i.i = getelementptr inbounds %"struct.std::_Rb_tree_node_base", ptr %__x.addr.07.i.i.i.i, i64 0, i32 2
  %__y.addr.1.i.i.i.i = select i1 %cmp.i.i.i.i.i.i, ptr %__y.addr.06.i.i.i.i, ptr %__x.addr.07.i.i.i.i
  %__x.addr.1.in.i.i.i.i = select i1 %cmp.i.i.i.i.i.i, ptr %_M_right.i.i.i.i.i, ptr %_M_left.i.i.i.i.i
  %__x.addr.1.i.i.i.i = load ptr, ptr %__x.addr.1.in.i.i.i.i, align 8
  %cmp.not.i.i.i.i = icmp eq ptr %__x.addr.1.i.i.i.i, null
  br i1 %cmp.not.i.i.i.i, label %_ZNSt3mapIN4cvc58internal12NodeTemplateILb1EEEiSt4lessIS3_ESaISt4pairIKS3_iEEE11lower_boundERS7_.exit.i, label %while.body.i.i.i.i, !llvm.loop !19

_ZNSt3mapIN4cvc58internal12NodeTemplateILb1EEEiSt4lessIS3_ESaISt4pairIKS3_iEEE11lower_boundERS7_.exit.i: ; preds = %while.body.i.i.i.i
  %cmp.i.i432 = icmp eq ptr %__y.addr.1.i.i.i.i, %add.ptr.i.i.i.i
  br i1 %cmp.i.i432, label %if.then.i435, label %lor.rhs.i

lor.rhs.i:                                        ; preds = %_ZNSt3mapIN4cvc58internal12NodeTemplateILb1EEEiSt4lessIS3_ESaISt4pairIKS3_iEEE11lower_boundERS7_.exit.i
  %_M_storage.i.i.i = getelementptr inbounds %"struct.std::_Rb_tree_node", ptr %__y.addr.1.i.i.i.i, i64 0, i32 1
  %74 = load ptr, ptr %_M_storage.i.i.i, align 8
  %bf.load3.i.i.i = load i64, ptr %74, align 8
  %bf.clear4.i.i.i = and i64 %bf.load3.i.i.i, 1099511627775
  %cmp.i.i.i433 = icmp ult i64 %bf.clear4.i.i.i.i.i.i, %bf.clear4.i.i.i
  br i1 %cmp.i.i.i433, label %if.then.i435, label %cond.true123

if.then.i435:                                     ; preds = %lor.rhs.i, %_ZNSt3mapIN4cvc58internal12NodeTemplateILb1EEEiSt4lessIS3_ESaISt4pairIKS3_iEEE11lower_boundERS7_.exit.i, %if.then117
  %__y.addr.0.lcssa.i.i.i9.i = phi ptr [ %add.ptr.i.i.i.i, %_ZNSt3mapIN4cvc58internal12NodeTemplateILb1EEEiSt4lessIS3_ESaISt4pairIKS3_iEEE11lower_boundERS7_.exit.i ], [ %__y.addr.1.i.i.i.i, %lor.rhs.i ], [ %add.ptr.i.i.i.i, %if.then117 ]
  store ptr %q, ptr %ref.tmp9.i, align 8
  %call12.i436 = invoke ptr @_ZNSt8_Rb_treeIN4cvc58internal12NodeTemplateILb1EEESt4pairIKS3_iESt10_Select1stIS6_ESt4lessIS3_ESaIS6_EE22_M_emplace_hint_uniqueIJRKSt21piecewise_construct_tSt5tupleIJRS5_EESH_IJEEEEESt17_Rb_tree_iteratorIS6_ESt23_Rb_tree_const_iteratorIS6_EDpOT_(ptr noundef nonnull align 8 dereferenceable(48) %d_quant_to_reduce, ptr %__y.addr.0.lcssa.i.i.i9.i, ptr noundef nonnull align 1 dereferenceable(1) @_ZSt19piecewise_construct, ptr noundef nonnull align 8 dereferenceable(8) %ref.tmp9.i, ptr noundef nonnull align 1 dereferenceable(1) %ref.tmp10.i)
          to label %cond.true123 unwind label %lpad30

cond.true123:                                     ; preds = %if.then.i435, %lor.rhs.i
  %__i.sroa.0.0.i = phi ptr [ %__y.addr.1.i.i.i.i, %lor.rhs.i ], [ %call12.i436, %if.then.i435 ]
  %second.i = getelementptr inbounds %"struct.std::_Rb_tree_node", ptr %__i.sroa.0.0.i, i64 0, i32 1, i32 0, i64 8
  call void @llvm.lifetime.end.p0(i64 8, ptr nonnull %ref.tmp9.i)
  call void @llvm.lifetime.end.p0(i64 1, ptr nonnull %ref.tmp10.i)
  store i32 %storemerge, ptr %second.i, align 4
  br label %cleanup

cleanup:                                          ; preds = %if.end115, %_ZN4cvc58internal8TypeNodeD2Ev.exit216, %cond.true123, %invoke.cont31
  %takeOwnership.3 = phi i8 [ %takeOwnership.0, %invoke.cont31 ], [ %takeOwnership.1, %cond.true123 ], [ %takeOwnership.0, %_ZN4cvc58internal8TypeNodeD2Ev.exit216 ], [ %takeOwnership.1, %if.end115 ]
  %doSplit.3 = phi i8 [ %doSplit.0, %invoke.cont31 ], [ %doSplit.1, %cond.true123 ], [ %doSplit.0, %_ZN4cvc58internal8TypeNodeD2Ev.exit216 ], [ %doSplit.1, %if.end115 ]
  %switch = phi i1 [ true, %invoke.cont31 ], [ false, %cond.true123 ], [ true, %_ZN4cvc58internal8TypeNodeD2Ev.exit216 ], [ true, %if.end115 ]
  %75 = load ptr, ptr %tn, align 8
  %bf.load.i.i663 = load i64, ptr %75, align 8
  %76 = and i64 %bf.load.i.i663, 1152920405095219200
  %cmp.not.i.i664 = icmp eq i64 %76, 1152920405095219200
  br i1 %cmp.not.i.i664, label %_ZN4cvc58internal8TypeNodeD2Ev.exit673, label %if.then.i.i665

if.then.i.i665:                                   ; preds = %cleanup
  %bf.value.i.i666 = add i64 %bf.load.i.i663, 1152920405095219200
  %bf.shl.i.i667 = and i64 %bf.value.i.i666, 1152920405095219200
  %bf.clear7.i.i668 = and i64 %bf.load.i.i663, -1152920405095219201
  %bf.set.i.i669 = or disjoint i64 %bf.shl.i.i667, %bf.clear7.i.i668
  store i64 %bf.set.i.i669, ptr %75, align 8
  %cmp12.i.i670 = icmp eq i64 %bf.shl.i.i667, 0
  br i1 %cmp12.i.i670, label %if.then13.i.i671, label %_ZN4cvc58internal8TypeNodeD2Ev.exit673

if.then13.i.i671:                                 ; preds = %if.then.i.i665
  invoke void @_ZN4cvc58internal4expr9NodeValue15markForDeletionEv(ptr noundef nonnull align 8 dereferenceable(16) %75)
          to label %_ZN4cvc58internal8TypeNodeD2Ev.exit673 unwind label %terminate.lpad.i672

terminate.lpad.i672:                              ; preds = %if.then13.i.i671
  %77 = landingpad { ptr, i32 }
          catch ptr null
  %78 = extractvalue { ptr, i32 } %77, 0
  call void @__clang_call_terminate(ptr %78) #22
  unreachable

_ZN4cvc58internal8TypeNodeD2Ev.exit673:           ; preds = %cleanup, %if.then.i.i665, %if.then13.i.i671
  %inc = add i32 %storemerge, 1
  br i1 %switch, label %for.cond, label %for.end, !llvm.loop !21

ehcleanup183:                                     ; preds = %ehcleanup100, %lpad44, %lpad36, %lpad30
  %.pn11 = phi { ptr, i32 } [ %42, %lpad30 ], [ %.pn8.pn, %ehcleanup100 ], [ %44, %lpad44 ], [ %43, %lpad36 ]
  call void @_ZN4cvc58internal8TypeNodeD2Ev(ptr noundef nonnull align 8 dereferenceable(8) %tn) #21
  br label %ehcleanup211

for.end:                                          ; preds = %_ZN4cvc58internal8TypeNodeD2Ev.exit673, %_ZN4cvc58internal12NodeTemplateILb1EED2Ev.exit90
  %takeOwnership.4 = phi i8 [ %takeOwnership.3, %_ZN4cvc58internal8TypeNodeD2Ev.exit673 ], [ %takeOwnership.0, %_ZN4cvc58internal12NodeTemplateILb1EED2Ev.exit90 ]
  %79 = and i8 %takeOwnership.4, 1
  %tobool184.not = icmp eq i8 %79, 0
  br i1 %tobool184.not, label %cleanup208, label %cond.true189

cond.true189:                                     ; preds = %for.end
  %80 = load ptr, ptr %d_qreg, align 8
  %81 = load ptr, ptr %q, align 8
  store ptr %81, ptr %agg.tmp202, align 8
  %bf.load.i.i720 = load i64, ptr %81, align 8
  %bf.lshr.i.i721 = lshr i64 %bf.load.i.i720, 40
  %82 = trunc i64 %bf.lshr.i.i721 to i32
  %bf.cast.i.i722 = and i32 %82, 1048575
  %cmp.i.i723 = icmp ult i32 %bf.cast.i.i722, 1048574
  br i1 %cmp.i.i723, label %if.then.i.i728, label %if.else.i.i724

if.then.i.i728:                                   ; preds = %cond.true189
  %bf.value.i.i729 = add i64 %bf.load.i.i720, 1099511627776
  %bf.shl.i.i730 = and i64 %bf.value.i.i729, 1152920405095219200
  %bf.clear7.i.i731 = and i64 %bf.load.i.i720, -1152920405095219201
  %bf.set.i.i732 = or disjoint i64 %bf.shl.i.i730, %bf.clear7.i.i731
  store i64 %bf.set.i.i732, ptr %81, align 8
  br label %invoke.cont203

if.else.i.i724:                                   ; preds = %cond.true189
  %cmp12.i.i725 = icmp eq i32 %bf.cast.i.i722, 1048574
  br i1 %cmp12.i.i725, label %if.then13.i.i726, label %invoke.cont203

if.then13.i.i726:                                 ; preds = %if.else.i.i724
  %bf.set23.i.i727 = or i64 %bf.load.i.i720, 1152920405095219200
  store i64 %bf.set23.i.i727, ptr %81, align 8
  invoke void @_ZN4cvc58internal4expr9NodeValue20markRefCountMaxedOutEv(ptr noundef nonnull align 8 dereferenceable(16) %81)
          to label %invoke.cont203 unwind label %lpad.loopexit.split-lp

invoke.cont203:                                   ; preds = %if.else.i.i724, %if.then.i.i728, %if.then13.i.i726
  invoke void @_ZN4cvc58internal6theory11quantifiers19QuantifiersRegistry8setOwnerENS0_12NodeTemplateILb1EEEPNS1_17QuantifiersModuleEi(ptr noundef nonnull align 8 dereferenceable(488) %80, ptr noundef nonnull %agg.tmp202, ptr noundef nonnull %this, i32 noundef 0)
          to label %invoke.cont205 unwind label %lpad204

invoke.cont205:                                   ; preds = %invoke.cont203
  %83 = load ptr, ptr %agg.tmp202, align 8
  %bf.load.i.i735 = load i64, ptr %83, align 8
  %84 = and i64 %bf.load.i.i735, 1152920405095219200
  %cmp.not.i.i736 = icmp eq i64 %84, 1152920405095219200
  br i1 %cmp.not.i.i736, label %cleanup208, label %if.then.i.i737

if.then.i.i737:                                   ; preds = %invoke.cont205
  %bf.value.i.i738 = add i64 %bf.load.i.i735, 1152920405095219200
  %bf.shl.i.i739 = and i64 %bf.value.i.i738, 1152920405095219200
  %bf.clear7.i.i740 = and i64 %bf.load.i.i735, -1152920405095219201
  %bf.set.i.i741 = or disjoint i64 %bf.shl.i.i739, %bf.clear7.i.i740
  store i64 %bf.set.i.i741, ptr %83, align 8
  %cmp12.i.i742 = icmp eq i64 %bf.shl.i.i739, 0
  br i1 %cmp12.i.i742, label %if.then13.i.i743, label %cleanup208

if.then13.i.i743:                                 ; preds = %if.then.i.i737
  invoke void @_ZN4cvc58internal4expr9NodeValue15markForDeletionEv(ptr noundef nonnull align 8 dereferenceable(16) %83)
          to label %cleanup208 unwind label %terminate.lpad.i744

terminate.lpad.i744:                              ; preds = %if.then13.i.i743
  %85 = landingpad { ptr, i32 }
          catch ptr null
  %86 = extractvalue { ptr, i32 } %85, 0
  call void @__clang_call_terminate(ptr %86) #22
  unreachable

lpad204:                                          ; preds = %invoke.cont203
  %87 = landingpad { ptr, i32 }
          cleanup
  call void @_ZN4cvc58internal12NodeTemplateILb1EED2Ev(ptr noundef nonnull align 8 dereferenceable(8) %agg.tmp202) #21
  br label %ehcleanup211

cleanup208:                                       ; preds = %if.then13.i.i743, %if.then.i.i737, %invoke.cont205, %for.end, %invoke.cont4
  call void @_ZN4cvc58internal6theory11quantifiers11QAttributesD2Ev(ptr noundef nonnull align 8 dereferenceable(80) %qa) #21
  ret void

ehcleanup211:                                     ; preds = %lpad.loopexit, %lpad.loopexit.split-lp, %lpad204, %ehcleanup183, %ehcleanup, %lpad20, %lpad2
  %.pn13 = phi { ptr, i32 } [ %87, %lpad204 ], [ %.pn11, %ehcleanup183 ], [ %.pn, %ehcleanup ], [ %39, %lpad20 ], [ %6, %lpad2 ], [ %lpad.loopexit769, %lpad.loopexit ], [ %lpad.loopexit.split-lp770, %lpad.loopexit.split-lp ]
  call void @_ZN4cvc58internal6theory11quantifiers11QAttributesD2Ev(ptr noundef nonnull align 8 dereferenceable(80) %qa) #21
  resume { ptr, i32 } %.pn13
}

; Function Attrs: mustprogress uwtable
define linkonce_odr hidden void @_ZN4cvc58internal6theory11quantifiers11QAttributesC2Ev(ptr noundef nonnull align 8 dereferenceable(80) %this) unnamed_addr #3 comdat align 2 personality ptr @__gxx_personality_v0 {
entry:
  store i8 0, ptr %this, align 8
  %d_hasPool = getelementptr inbounds %"struct.cvc5::internal::theory::quantifiers::QAttributes", ptr %this, i64 0, i32 1
  store i8 0, ptr %d_hasPool, align 1
  %d_fundef_f = getelementptr inbounds %"struct.cvc5::internal::theory::quantifiers::QAttributes", ptr %this, i64 0, i32 2
  %0 = load atomic i8, ptr @_ZGVZN4cvc58internal4expr9NodeValue4nullEvE6s_null acquire, align 8
  %guard.uninitialized.i.i = icmp eq i8 %0, 0
  br i1 %guard.uninitialized.i.i, label %init.check.i.i, label %_ZN4cvc58internal12NodeTemplateILb1EEC2Ev.exit, !prof !22

init.check.i.i:                                   ; preds = %entry
  %1 = tail call i32 @__cxa_guard_acquire(ptr nonnull @_ZGVZN4cvc58internal4expr9NodeValue4nullEvE6s_null) #21
  %tobool.not.i.i = icmp eq i32 %1, 0
  br i1 %tobool.not.i.i, label %_ZN4cvc58internal12NodeTemplateILb1EEC2Ev.exit, label %init.i.i

init.i.i:                                         ; preds = %init.check.i.i
  %call.i.i = invoke noalias noundef nonnull dereferenceable(16) ptr @_Znwm(i64 noundef 16) #19
          to label %invoke.cont.i.i unwind label %lpad.i.i

invoke.cont.i.i:                                  ; preds = %init.i.i
  store i64 1152920405095219200, ptr %call.i.i, align 8
  %d_kind.i.i.i = getelementptr inbounds %"class.cvc5::internal::expr::NodeValue", ptr %call.i.i, i64 0, i32 1
  store i16 0, ptr %d_kind.i.i.i, align 8
  %d_nchildren.i.i.i = getelementptr inbounds %"class.cvc5::internal::expr::NodeValue", ptr %call.i.i, i64 0, i32 2
  store i32 0, ptr %d_nchildren.i.i.i, align 4
  store ptr %call.i.i, ptr @_ZZN4cvc58internal4expr9NodeValue4nullEvE6s_null, align 8
  tail call void @__cxa_guard_release(ptr nonnull @_ZGVZN4cvc58internal4expr9NodeValue4nullEvE6s_null) #21
  br label %_ZN4cvc58internal12NodeTemplateILb1EEC2Ev.exit

common.resume:                                    ; preds = %ehcleanup12, %lpad.i.i
  %common.resume.op = phi { ptr, i32 } [ %2, %lpad.i.i ], [ %.pn.pn.pn.pn, %ehcleanup12 ]
  resume { ptr, i32 } %common.resume.op

lpad.i.i:                                         ; preds = %init.i.i
  %2 = landingpad { ptr, i32 }
          cleanup
  tail call void @__cxa_guard_abort(ptr nonnull @_ZGVZN4cvc58internal4expr9NodeValue4nullEvE6s_null) #21
  br label %common.resume

_ZN4cvc58internal12NodeTemplateILb1EEC2Ev.exit:   ; preds = %entry, %init.check.i.i, %invoke.cont.i.i
  %3 = load ptr, ptr @_ZZN4cvc58internal4expr9NodeValue4nullEvE6s_null, align 8
  store ptr %3, ptr %d_fundef_f, align 8
  %d_sygus = getelementptr inbounds %"struct.cvc5::internal::theory::quantifiers::QAttributes", ptr %this, i64 0, i32 3
  store i8 0, ptr %d_sygus, align 8
  %d_oracle = getelementptr inbounds %"struct.cvc5::internal::theory::quantifiers::QAttributes", ptr %this, i64 0, i32 4
  %4 = load atomic i8, ptr @_ZGVZN4cvc58internal4expr9NodeValue4nullEvE6s_null acquire, align 8
  %guard.uninitialized.i.i5 = icmp eq i8 %4, 0
  br i1 %guard.uninitialized.i.i5, label %init.check.i.i6, label %invoke.cont, !prof !22

init.check.i.i6:                                  ; preds = %_ZN4cvc58internal12NodeTemplateILb1EEC2Ev.exit
  %5 = tail call i32 @__cxa_guard_acquire(ptr nonnull @_ZGVZN4cvc58internal4expr9NodeValue4nullEvE6s_null) #21
  %tobool.not.i.i7 = icmp eq i32 %5, 0
  br i1 %tobool.not.i.i7, label %invoke.cont, label %init.i.i8

init.i.i8:                                        ; preds = %init.check.i.i6
  %call.i.i9 = invoke noalias noundef nonnull dereferenceable(16) ptr @_Znwm(i64 noundef 16) #19
          to label %invoke.cont.i.i11 unwind label %lpad.i.i10

invoke.cont.i.i11:                                ; preds = %init.i.i8
  store i64 1152920405095219200, ptr %call.i.i9, align 8
  %d_kind.i.i.i12 = getelementptr inbounds %"class.cvc5::internal::expr::NodeValue", ptr %call.i.i9, i64 0, i32 1
  store i16 0, ptr %d_kind.i.i.i12, align 8
  %d_nchildren.i.i.i13 = getelementptr inbounds %"class.cvc5::internal::expr::NodeValue", ptr %call.i.i9, i64 0, i32 2
  store i32 0, ptr %d_nchildren.i.i.i13, align 4
  store ptr %call.i.i9, ptr @_ZZN4cvc58internal4expr9NodeValue4nullEvE6s_null, align 8
  tail call void @__cxa_guard_release(ptr nonnull @_ZGVZN4cvc58internal4expr9NodeValue4nullEvE6s_null) #21
  br label %invoke.cont

lpad.i.i10:                                       ; preds = %init.i.i8
  %6 = landingpad { ptr, i32 }
          cleanup
  tail call void @__cxa_guard_abort(ptr nonnull @_ZGVZN4cvc58internal4expr9NodeValue4nullEvE6s_null) #21
  br label %ehcleanup12

invoke.cont:                                      ; preds = %invoke.cont.i.i11, %init.check.i.i6, %_ZN4cvc58internal12NodeTemplateILb1EEC2Ev.exit
  %7 = load ptr, ptr @_ZZN4cvc58internal4expr9NodeValue4nullEvE6s_null, align 8
  store ptr %7, ptr %d_oracle, align 8
  %d_sygusSideCondition = getelementptr inbounds %"struct.cvc5::internal::theory::quantifiers::QAttributes", ptr %this, i64 0, i32 5
  %8 = load atomic i8, ptr @_ZGVZN4cvc58internal4expr9NodeValue4nullEvE6s_null acquire, align 8
  %guard.uninitialized.i.i15 = icmp eq i8 %8, 0
  br i1 %guard.uninitialized.i.i15, label %init.check.i.i16, label %invoke.cont3, !prof !22

init.check.i.i16:                                 ; preds = %invoke.cont
  %9 = tail call i32 @__cxa_guard_acquire(ptr nonnull @_ZGVZN4cvc58internal4expr9NodeValue4nullEvE6s_null) #21
  %tobool.not.i.i17 = icmp eq i32 %9, 0
  br i1 %tobool.not.i.i17, label %invoke.cont3, label %init.i.i18

init.i.i18:                                       ; preds = %init.check.i.i16
  %call.i.i19 = invoke noalias noundef nonnull dereferenceable(16) ptr @_Znwm(i64 noundef 16) #19
          to label %invoke.cont.i.i21 unwind label %lpad.i.i20

invoke.cont.i.i21:                                ; preds = %init.i.i18
  store i64 1152920405095219200, ptr %call.i.i19, align 8
  %d_kind.i.i.i22 = getelementptr inbounds %"class.cvc5::internal::expr::NodeValue", ptr %call.i.i19, i64 0, i32 1
  store i16 0, ptr %d_kind.i.i.i22, align 8
  %d_nchildren.i.i.i23 = getelementptr inbounds %"class.cvc5::internal::expr::NodeValue", ptr %call.i.i19, i64 0, i32 2
  store i32 0, ptr %d_nchildren.i.i.i23, align 4
  store ptr %call.i.i19, ptr @_ZZN4cvc58internal4expr9NodeValue4nullEvE6s_null, align 8
  tail call void @__cxa_guard_release(ptr nonnull @_ZGVZN4cvc58internal4expr9NodeValue4nullEvE6s_null) #21
  br label %invoke.cont3

lpad.i.i20:                                       ; preds = %init.i.i18
  %10 = landingpad { ptr, i32 }
          cleanup
  tail call void @__cxa_guard_abort(ptr nonnull @_ZGVZN4cvc58internal4expr9NodeValue4nullEvE6s_null) #21
  br label %ehcleanup11

invoke.cont3:                                     ; preds = %invoke.cont.i.i21, %init.check.i.i16, %invoke.cont
  %11 = load ptr, ptr @_ZZN4cvc58internal4expr9NodeValue4nullEvE6s_null, align 8
  store ptr %11, ptr %d_sygusSideCondition, align 8
  %d_qinstLevel = getelementptr inbounds %"struct.cvc5::internal::theory::quantifiers::QAttributes", ptr %this, i64 0, i32 6
  store i64 -1, ptr %d_qinstLevel, align 8
  %d_quant_elim = getelementptr inbounds %"struct.cvc5::internal::theory::quantifiers::QAttributes", ptr %this, i64 0, i32 7
  store i8 0, ptr %d_quant_elim, align 8
  %d_quant_elim_partial = getelementptr inbounds %"struct.cvc5::internal::theory::quantifiers::QAttributes", ptr %this, i64 0, i32 8
  store i8 0, ptr %d_quant_elim_partial, align 1
  %d_isQuantBounded = getelementptr inbounds %"struct.cvc5::internal::theory::quantifiers::QAttributes", ptr %this, i64 0, i32 9
  store i8 0, ptr %d_isQuantBounded, align 2
  %d_ipl = getelementptr inbounds %"struct.cvc5::internal::theory::quantifiers::QAttributes", ptr %this, i64 0, i32 10
  %12 = load atomic i8, ptr @_ZGVZN4cvc58internal4expr9NodeValue4nullEvE6s_null acquire, align 8
  %guard.uninitialized.i.i26 = icmp eq i8 %12, 0
  br i1 %guard.uninitialized.i.i26, label %init.check.i.i27, label %invoke.cont5, !prof !22

init.check.i.i27:                                 ; preds = %invoke.cont3
  %13 = tail call i32 @__cxa_guard_acquire(ptr nonnull @_ZGVZN4cvc58internal4expr9NodeValue4nullEvE6s_null) #21
  %tobool.not.i.i28 = icmp eq i32 %13, 0
  br i1 %tobool.not.i.i28, label %invoke.cont5, label %init.i.i29

init.i.i29:                                       ; preds = %init.check.i.i27
  %call.i.i30 = invoke noalias noundef nonnull dereferenceable(16) ptr @_Znwm(i64 noundef 16) #19
          to label %invoke.cont.i.i32 unwind label %lpad.i.i31

invoke.cont.i.i32:                                ; preds = %init.i.i29
  store i64 1152920405095219200, ptr %call.i.i30, align 8
  %d_kind.i.i.i33 = getelementptr inbounds %"class.cvc5::internal::expr::NodeValue", ptr %call.i.i30, i64 0, i32 1
  store i16 0, ptr %d_kind.i.i.i33, align 8
  %d_nchildren.i.i.i34 = getelementptr inbounds %"class.cvc5::internal::expr::NodeValue", ptr %call.i.i30, i64 0, i32 2
  store i32 0, ptr %d_nchildren.i.i.i34, align 4
  store ptr %call.i.i30, ptr @_ZZN4cvc58internal4expr9NodeValue4nullEvE6s_null, align 8
  tail call void @__cxa_guard_release(ptr nonnull @_ZGVZN4cvc58internal4expr9NodeValue4nullEvE6s_null) #21
  br label %invoke.cont5

lpad.i.i31:                                       ; preds = %init.i.i29
  %14 = landingpad { ptr, i32 }
          cleanup
  tail call void @__cxa_guard_abort(ptr nonnull @_ZGVZN4cvc58internal4expr9NodeValue4nullEvE6s_null) #21
  br label %ehcleanup10

invoke.cont5:                                     ; preds = %invoke.cont.i.i32, %init.check.i.i27, %invoke.cont3
  %15 = load ptr, ptr @_ZZN4cvc58internal4expr9NodeValue4nullEvE6s_null, align 8
  store ptr %15, ptr %d_ipl, align 8
  %d_name = getelementptr inbounds %"struct.cvc5::internal::theory::quantifiers::QAttributes", ptr %this, i64 0, i32 11
  %16 = load atomic i8, ptr @_ZGVZN4cvc58internal4expr9NodeValue4nullEvE6s_null acquire, align 8
  %guard.uninitialized.i.i37 = icmp eq i8 %16, 0
  br i1 %guard.uninitialized.i.i37, label %init.check.i.i38, label %invoke.cont7, !prof !22

init.check.i.i38:                                 ; preds = %invoke.cont5
  %17 = tail call i32 @__cxa_guard_acquire(ptr nonnull @_ZGVZN4cvc58internal4expr9NodeValue4nullEvE6s_null) #21
  %tobool.not.i.i39 = icmp eq i32 %17, 0
  br i1 %tobool.not.i.i39, label %invoke.cont7, label %init.i.i40

init.i.i40:                                       ; preds = %init.check.i.i38
  %call.i.i41 = invoke noalias noundef nonnull dereferenceable(16) ptr @_Znwm(i64 noundef 16) #19
          to label %invoke.cont.i.i43 unwind label %lpad.i.i42

invoke.cont.i.i43:                                ; preds = %init.i.i40
  store i64 1152920405095219200, ptr %call.i.i41, align 8
  %d_kind.i.i.i44 = getelementptr inbounds %"class.cvc5::internal::expr::NodeValue", ptr %call.i.i41, i64 0, i32 1
  store i16 0, ptr %d_kind.i.i.i44, align 8
  %d_nchildren.i.i.i45 = getelementptr inbounds %"class.cvc5::internal::expr::NodeValue", ptr %call.i.i41, i64 0, i32 2
  store i32 0, ptr %d_nchildren.i.i.i45, align 4
  store ptr %call.i.i41, ptr @_ZZN4cvc58internal4expr9NodeValue4nullEvE6s_null, align 8
  tail call void @__cxa_guard_release(ptr nonnull @_ZGVZN4cvc58internal4expr9NodeValue4nullEvE6s_null) #21
  br label %invoke.cont7

lpad.i.i42:                                       ; preds = %init.i.i40
  %18 = landingpad { ptr, i32 }
          cleanup
  tail call void @__cxa_guard_abort(ptr nonnull @_ZGVZN4cvc58internal4expr9NodeValue4nullEvE6s_null) #21
  br label %ehcleanup

invoke.cont7:                                     ; preds = %invoke.cont.i.i43, %init.check.i.i38, %invoke.cont5
  %19 = load ptr, ptr @_ZZN4cvc58internal4expr9NodeValue4nullEvE6s_null, align 8
  store ptr %19, ptr %d_name, align 8
  %20 = load atomic i8, ptr @_ZGVZN4cvc58internal4expr9NodeValue4nullEvE6s_null acquire, align 8
  %guard.uninitialized.i.i48 = icmp eq i8 %20, 0
  br i1 %guard.uninitialized.i.i48, label %init.check.i.i49, label %invoke.cont9, !prof !22

init.check.i.i49:                                 ; preds = %invoke.cont7
  %21 = tail call i32 @__cxa_guard_acquire(ptr nonnull @_ZGVZN4cvc58internal4expr9NodeValue4nullEvE6s_null) #21
  %tobool.not.i.i50 = icmp eq i32 %21, 0
  br i1 %tobool.not.i.i50, label %invoke.cont9, label %init.i.i51

init.i.i51:                                       ; preds = %init.check.i.i49
  %call.i.i52 = invoke noalias noundef nonnull dereferenceable(16) ptr @_Znwm(i64 noundef 16) #19
          to label %invoke.cont.i.i54 unwind label %lpad.i.i53

invoke.cont.i.i54:                                ; preds = %init.i.i51
  store i64 1152920405095219200, ptr %call.i.i52, align 8
  %d_kind.i.i.i55 = getelementptr inbounds %"class.cvc5::internal::expr::NodeValue", ptr %call.i.i52, i64 0, i32 1
  store i16 0, ptr %d_kind.i.i.i55, align 8
  %d_nchildren.i.i.i56 = getelementptr inbounds %"class.cvc5::internal::expr::NodeValue", ptr %call.i.i52, i64 0, i32 2
  store i32 0, ptr %d_nchildren.i.i.i56, align 4
  store ptr %call.i.i52, ptr @_ZZN4cvc58internal4expr9NodeValue4nullEvE6s_null, align 8
  tail call void @__cxa_guard_release(ptr nonnull @_ZGVZN4cvc58internal4expr9NodeValue4nullEvE6s_null) #21
  br label %invoke.cont9

lpad.i.i53:                                       ; preds = %init.i.i51
  %22 = landingpad { ptr, i32 }
          cleanup
  tail call void @__cxa_guard_abort(ptr nonnull @_ZGVZN4cvc58internal4expr9NodeValue4nullEvE6s_null) #21
  tail call void @_ZN4cvc58internal12NodeTemplateILb1EED2Ev(ptr noundef nonnull align 8 dereferenceable(8) %d_name) #21
  br label %ehcleanup

invoke.cont9:                                     ; preds = %invoke.cont.i.i54, %init.check.i.i49, %invoke.cont7
  %d_qid_num = getelementptr inbounds %"struct.cvc5::internal::theory::quantifiers::QAttributes", ptr %this, i64 0, i32 12
  %23 = load ptr, ptr @_ZZN4cvc58internal4expr9NodeValue4nullEvE6s_null, align 8
  store ptr %23, ptr %d_qid_num, align 8
  ret void

ehcleanup:                                        ; preds = %lpad.i.i42, %lpad.i.i53
  %.pn = phi { ptr, i32 } [ %22, %lpad.i.i53 ], [ %18, %lpad.i.i42 ]
  tail call void @_ZN4cvc58internal12NodeTemplateILb1EED2Ev(ptr noundef nonnull align 8 dereferenceable(8) %d_ipl) #21
  br label %ehcleanup10

ehcleanup10:                                      ; preds = %lpad.i.i31, %ehcleanup
  %.pn.pn = phi { ptr, i32 } [ %.pn, %ehcleanup ], [ %14, %lpad.i.i31 ]
  tail call void @_ZN4cvc58internal12NodeTemplateILb1EED2Ev(ptr noundef nonnull align 8 dereferenceable(8) %d_sygusSideCondition) #21
  br label %ehcleanup11

ehcleanup11:                                      ; preds = %lpad.i.i20, %ehcleanup10
  %.pn.pn.pn = phi { ptr, i32 } [ %.pn.pn, %ehcleanup10 ], [ %10, %lpad.i.i20 ]
  tail call void @_ZN4cvc58internal12NodeTemplateILb1EED2Ev(ptr noundef nonnull align 8 dereferenceable(8) %d_oracle) #21
  br label %ehcleanup12

ehcleanup12:                                      ; preds = %lpad.i.i10, %ehcleanup11
  %.pn.pn.pn.pn = phi { ptr, i32 } [ %.pn.pn.pn, %ehcleanup11 ], [ %6, %lpad.i.i10 ]
  tail call void @_ZN4cvc58internal12NodeTemplateILb1EED2Ev(ptr noundef nonnull align 8 dereferenceable(8) %d_fundef_f) #21
  br label %common.resume
}

declare void @_ZN4cvc58internal6theory11quantifiers15QuantAttributes22computeQuantAttributesENS0_12NodeTemplateILb1EEERNS2_11QAttributesE(ptr noundef, ptr noundef nonnull align 8 dereferenceable(80)) local_unnamed_addr #0

; Function Attrs: mustprogress nounwind uwtable
define linkonce_odr hidden void @_ZN4cvc58internal12NodeTemplateILb1EED2Ev(ptr noundef nonnull align 8 dereferenceable(8) %this) unnamed_addr #4 comdat align 2 personality ptr @__gxx_personality_v0 {
entry:
  %0 = load ptr, ptr %this, align 8
  %bf.load.i = load i64, ptr %0, align 8
  %1 = and i64 %bf.load.i, 1152920405095219200
  %cmp.not.i = icmp eq i64 %1, 1152920405095219200
  br i1 %cmp.not.i, label %invoke.cont, label %if.then.i

if.then.i:                                        ; preds = %entry
  %bf.value.i = add i64 %bf.load.i, 1152920405095219200
  %bf.shl.i = and i64 %bf.value.i, 1152920405095219200
  %bf.clear7.i = and i64 %bf.load.i, -1152920405095219201
  %bf.set.i = or disjoint i64 %bf.shl.i, %bf.clear7.i
  store i64 %bf.set.i, ptr %0, align 8
  %cmp12.i = icmp eq i64 %bf.shl.i, 0
  br i1 %cmp12.i, label %if.then13.i, label %invoke.cont

if.then13.i:                                      ; preds = %if.then.i
  invoke void @_ZN4cvc58internal4expr9NodeValue15markForDeletionEv(ptr noundef nonnull align 8 dereferenceable(16) %0)
          to label %invoke.cont unwind label %terminate.lpad

invoke.cont:                                      ; preds = %if.then.i, %entry, %if.then13.i
  ret void

terminate.lpad:                                   ; preds = %if.then13.i
  %2 = landingpad { ptr, i32 }
          catch ptr null
  %3 = extractvalue { ptr, i32 } %2, 0
  tail call void @__clang_call_terminate(ptr %3) #22
  unreachable
}

declare noundef zeroext i1 @_ZNK4cvc58internal6theory11quantifiers11QAttributes10isStandardEv(ptr noundef nonnull align 8 dereferenceable(80)) local_unnamed_addr #0

declare noundef nonnull align 8 dereferenceable(72) ptr @_ZN4cvc58internal6theory11quantifiers19QuantifiersRegistry28getQuantifiersBoundInferenceEv(ptr noundef nonnull align 8 dereferenceable(488)) local_unnamed_addr #0

; Function Attrs: mustprogress nocallback nofree nounwind willreturn memory(argmem: readwrite)
declare void @llvm.memcpy.p0.p0.i64(ptr noalias nocapture writeonly, ptr noalias nocapture readonly, i64, i1 immarg) #5

; Function Attrs: mustprogress uwtable
define linkonce_odr hidden void @_ZNK4cvc58internal12NodeTemplateILb1EE7getTypeEb(ptr noalias sret(%"class.cvc5::internal::TypeNode") align 8 %agg.result, ptr noundef nonnull align 8 dereferenceable(8) %this, i1 noundef zeroext %check) local_unnamed_addr #3 comdat align 2 personality ptr @__gxx_personality_v0 {
entry:
  %agg.tmp = alloca %"class.cvc5::internal::NodeTemplate.484", align 8
  %errOutTmp = alloca %"class.std::__cxx11::basic_stringstream", align 8
  %ref.tmp = alloca %"class.cvc5::internal::TypeNode", align 8
  %agg.tmp9 = alloca %"class.cvc5::internal::NodeTemplate.484", align 8
  %agg.tmp17 = alloca %"class.cvc5::internal::NodeTemplate.484", align 8
  %agg.tmp20 = alloca %"class.std::__cxx11::basic_string", align 8
  %call = tail call noundef ptr @_ZN4cvc58internal11NodeManager9currentNMEv()
  %0 = load ptr, ptr %this, align 8
  store ptr %0, ptr %agg.tmp, align 8
  call void @_ZN4cvc58internal11NodeManager7getTypeENS0_12NodeTemplateILb0EEEbPSo(ptr sret(%"class.cvc5::internal::TypeNode") align 8 %agg.result, ptr noundef nonnull align 8 dereferenceable(3360) %call, ptr noundef nonnull %agg.tmp, i1 noundef zeroext %check, ptr noundef null)
  %1 = load ptr, ptr %agg.result, align 8
  %2 = load atomic i8, ptr @_ZGVZN4cvc58internal4expr9NodeValue4nullEvE6s_null acquire, align 8
  %guard.uninitialized.i.i = icmp eq i8 %2, 0
  br i1 %guard.uninitialized.i.i, label %init.check.i.i, label %invoke.cont3, !prof !22

init.check.i.i:                                   ; preds = %entry
  %3 = call i32 @__cxa_guard_acquire(ptr nonnull @_ZGVZN4cvc58internal4expr9NodeValue4nullEvE6s_null) #21
  %tobool.not.i.i = icmp eq i32 %3, 0
  br i1 %tobool.not.i.i, label %invoke.cont3, label %init.i.i

init.i.i:                                         ; preds = %init.check.i.i
  %call.i.i = invoke noalias noundef nonnull dereferenceable(16) ptr @_Znwm(i64 noundef 16) #19
          to label %invoke.cont.i.i unwind label %lpad.i.i

invoke.cont.i.i:                                  ; preds = %init.i.i
  store i64 1152920405095219200, ptr %call.i.i, align 8
  %d_kind.i.i.i = getelementptr inbounds %"class.cvc5::internal::expr::NodeValue", ptr %call.i.i, i64 0, i32 1
  store i16 0, ptr %d_kind.i.i.i, align 8
  %d_nchildren.i.i.i = getelementptr inbounds %"class.cvc5::internal::expr::NodeValue", ptr %call.i.i, i64 0, i32 2
  store i32 0, ptr %d_nchildren.i.i.i, align 4
  store ptr %call.i.i, ptr @_ZZN4cvc58internal4expr9NodeValue4nullEvE6s_null, align 8
  call void @__cxa_guard_release(ptr nonnull @_ZGVZN4cvc58internal4expr9NodeValue4nullEvE6s_null) #21
  br label %invoke.cont3

lpad.i.i:                                         ; preds = %init.i.i
  %4 = landingpad { ptr, i32 }
          cleanup
  call void @__cxa_guard_abort(ptr nonnull @_ZGVZN4cvc58internal4expr9NodeValue4nullEvE6s_null) #21
  br label %ehcleanup29

invoke.cont3:                                     ; preds = %invoke.cont.i.i, %init.check.i.i, %entry
  %5 = load ptr, ptr @_ZZN4cvc58internal4expr9NodeValue4nullEvE6s_null, align 8
  %cmp.i = icmp eq ptr %1, %5
  br i1 %cmp.i, label %if.then, label %nrvo.skipdtor

if.then:                                          ; preds = %invoke.cont3
  invoke void @_ZNSt7__cxx1118basic_stringstreamIcSt11char_traitsIcESaIcEEC1Ev(ptr noundef nonnull align 8 dereferenceable(128) %errOutTmp)
          to label %invoke.cont5 unwind label %lpad2

invoke.cont5:                                     ; preds = %if.then
  %call8 = invoke noundef ptr @_ZN4cvc58internal11NodeManager9currentNMEv()
          to label %invoke.cont7 unwind label %lpad6

invoke.cont7:                                     ; preds = %invoke.cont5
  %6 = load ptr, ptr %this, align 8
  store ptr %6, ptr %agg.tmp9, align 8
  %add.ptr = getelementptr inbounds i8, ptr %errOutTmp, i64 16
  invoke void @_ZN4cvc58internal11NodeManager7getTypeENS0_12NodeTemplateILb0EEEbPSo(ptr nonnull sret(%"class.cvc5::internal::TypeNode") align 8 %ref.tmp, ptr noundef nonnull align 8 dereferenceable(3360) %call8, ptr noundef nonnull %agg.tmp9, i1 noundef zeroext %check, ptr noundef nonnull %add.ptr)
          to label %invoke.cont13 unwind label %lpad12

invoke.cont13:                                    ; preds = %invoke.cont7
  %call16 = invoke noundef nonnull align 8 dereferenceable(8) ptr @_ZN4cvc58internal8TypeNodeaSERKS1_(ptr noundef nonnull align 8 dereferenceable(8) %agg.result, ptr noundef nonnull align 8 dereferenceable(8) %ref.tmp)
          to label %invoke.cont15 unwind label %lpad14

invoke.cont15:                                    ; preds = %invoke.cont13
  call void @_ZN4cvc58internal8TypeNodeD2Ev(ptr noundef nonnull align 8 dereferenceable(8) %ref.tmp) #21
  %exception = call ptr @__cxa_allocate_exception(i64 48) #21
  %7 = load ptr, ptr %this, align 8
  store ptr %7, ptr %agg.tmp17, align 8
  invoke void @_ZNKSt7__cxx1118basic_stringstreamIcSt11char_traitsIcESaIcEE3strEv(ptr nonnull sret(%"class.std::__cxx11::basic_string") align 8 %agg.tmp20, ptr noundef nonnull align 8 dereferenceable(128) %errOutTmp)
          to label %invoke.cont22 unwind label %ehcleanup26.thread

invoke.cont22:                                    ; preds = %invoke.cont15
  invoke void @_ZN4cvc58internal28TypeCheckingExceptionPrivateC1ENS0_12NodeTemplateILb0EEENSt7__cxx1112basic_stringIcSt11char_traitsIcESaIcEEE(ptr noundef nonnull align 8 dereferenceable(48) %exception, ptr noundef nonnull %agg.tmp17, ptr noundef nonnull %agg.tmp20)
          to label %invoke.cont24 unwind label %ehcleanup26.thread11

ehcleanup26.thread11:                             ; preds = %invoke.cont22
  %8 = landingpad { ptr, i32 }
          cleanup
  call void @_ZNSt7__cxx1112basic_stringIcSt11char_traitsIcESaIcEED1Ev(ptr noundef nonnull align 8 dereferenceable(32) %agg.tmp20) #21
  br label %cleanup.action

invoke.cont24:                                    ; preds = %invoke.cont22
  invoke void @__cxa_throw(ptr nonnull %exception, ptr nonnull @_ZTIN4cvc58internal28TypeCheckingExceptionPrivateE, ptr nonnull @_ZN4cvc58internal28TypeCheckingExceptionPrivateD1Ev) #23
          to label %unreachable unwind label %ehcleanup26

lpad2:                                            ; preds = %if.then
  %9 = landingpad { ptr, i32 }
          cleanup
  br label %ehcleanup29

lpad6:                                            ; preds = %invoke.cont5
  %10 = landingpad { ptr, i32 }
          cleanup
  br label %ehcleanup28

lpad12:                                           ; preds = %invoke.cont7
  %11 = landingpad { ptr, i32 }
          cleanup
  br label %ehcleanup28

lpad14:                                           ; preds = %invoke.cont13
  %12 = landingpad { ptr, i32 }
          cleanup
  call void @_ZN4cvc58internal8TypeNodeD2Ev(ptr noundef nonnull align 8 dereferenceable(8) %ref.tmp) #21
  br label %ehcleanup28

ehcleanup26.thread:                               ; preds = %invoke.cont15
  %13 = landingpad { ptr, i32 }
          cleanup
  br label %cleanup.action

ehcleanup26:                                      ; preds = %invoke.cont24
  %14 = landingpad { ptr, i32 }
          cleanup
  call void @_ZNSt7__cxx1112basic_stringIcSt11char_traitsIcESaIcEED1Ev(ptr noundef nonnull align 8 dereferenceable(32) %agg.tmp20) #21
  br label %ehcleanup28

cleanup.action:                                   ; preds = %ehcleanup26.thread11, %ehcleanup26.thread
  %.pn310 = phi { ptr, i32 } [ %13, %ehcleanup26.thread ], [ %8, %ehcleanup26.thread11 ]
  call void @__cxa_free_exception(ptr %exception) #21
  br label %ehcleanup28

ehcleanup28:                                      ; preds = %ehcleanup26, %lpad12, %lpad14, %cleanup.action, %lpad6
  %.pn3.pn = phi { ptr, i32 } [ %.pn310, %cleanup.action ], [ %14, %ehcleanup26 ], [ %10, %lpad6 ], [ %12, %lpad14 ], [ %11, %lpad12 ]
  call void @_ZNSt7__cxx1118basic_stringstreamIcSt11char_traitsIcESaIcEED1Ev(ptr noundef nonnull align 8 dereferenceable(128) %errOutTmp) #21
  br label %ehcleanup29

nrvo.skipdtor:                                    ; preds = %invoke.cont3
  ret void

ehcleanup29:                                      ; preds = %lpad2, %lpad.i.i, %ehcleanup28
  %.pn3.pn.pn = phi { ptr, i32 } [ %.pn3.pn, %ehcleanup28 ], [ %9, %lpad2 ], [ %4, %lpad.i.i ]
  call void @_ZN4cvc58internal8TypeNodeD2Ev(ptr noundef nonnull align 8 dereferenceable(8) %agg.result) #21
  resume { ptr, i32 } %.pn3.pn.pn

unreachable:                                      ; preds = %invoke.cont24
  unreachable
}

declare noundef zeroext i1 @_ZNK4cvc58internal8TypeNode10isDatatypeEv(ptr noundef nonnull align 8 dereferenceable(8)) local_unnamed_addr #0

declare noundef zeroext i1 @_ZNK4cvc58internal3Env12isFiniteTypeENS0_8TypeNodeE(ptr noundef nonnull align 8 dereferenceable(576), ptr noundef) local_unnamed_addr #0

; Function Attrs: mustprogress nounwind uwtable
define linkonce_odr hidden void @_ZN4cvc58internal8TypeNodeD2Ev(ptr noundef nonnull align 8 dereferenceable(8) %this) unnamed_addr #4 comdat align 2 personality ptr @__gxx_personality_v0 {
entry:
  %0 = load ptr, ptr %this, align 8
  %bf.load.i = load i64, ptr %0, align 8
  %1 = and i64 %bf.load.i, 1152920405095219200
  %cmp.not.i = icmp eq i64 %1, 1152920405095219200
  br i1 %cmp.not.i, label %invoke.cont, label %if.then.i

if.then.i:                                        ; preds = %entry
  %bf.value.i = add i64 %bf.load.i, 1152920405095219200
  %bf.shl.i = and i64 %bf.value.i, 1152920405095219200
  %bf.clear7.i = and i64 %bf.load.i, -1152920405095219201
  %bf.set.i = or disjoint i64 %bf.shl.i, %bf.clear7.i
  store i64 %bf.set.i, ptr %0, align 8
  %cmp12.i = icmp eq i64 %bf.shl.i, 0
  br i1 %cmp12.i, label %if.then13.i, label %invoke.cont

if.then13.i:                                      ; preds = %if.then.i
  invoke void @_ZN4cvc58internal4expr9NodeValue15markForDeletionEv(ptr noundef nonnull align 8 dereferenceable(16) %0)
          to label %invoke.cont unwind label %terminate.lpad

invoke.cont:                                      ; preds = %if.then.i, %entry, %if.then13.i
  ret void

terminate.lpad:                                   ; preds = %if.then13.i
  %2 = landingpad { ptr, i32 }
          catch ptr null
  %3 = extractvalue { ptr, i32 } %2, 0
  tail call void @__clang_call_terminate(ptr %3) #22
  unreachable
}

declare noundef nonnull align 8 dereferenceable(448) ptr @_ZNK4cvc58internal8TypeNode8getDTypeEv(ptr noundef nonnull align 8 dereferenceable(8)) local_unnamed_addr #0

declare noundef zeroext i1 @_ZNK4cvc58internal5DType20isRecursiveSingletonENS0_8TypeNodeE(ptr noundef nonnull align 8 dereferenceable(448), ptr noundef) local_unnamed_addr #0

; Function Attrs: nounwind
declare void @_ZNSt7__cxx1112basic_stringIcSt11char_traitsIcESaIcEED1Ev(ptr noundef nonnull align 8 dereferenceable(32)) unnamed_addr #1

declare noundef nonnull align 8 dereferenceable(392) ptr @_ZNK4cvc58internal6EnvObj7optionsEv(ptr noundef nonnull align 8 dereferenceable(16)) local_unnamed_addr #0

declare noundef zeroext i1 @_ZN4cvc58internal6theory11quantifiers25QuantifiersBoundInference13isFiniteBoundENS0_12NodeTemplateILb1EEES5_(ptr noundef nonnull align 8 dereferenceable(72), ptr noundef, ptr noundef) local_unnamed_addr #0

declare noundef i64 @_ZNK4cvc58internal5DType18getNumConstructorsEv(ptr noundef nonnull align 8 dereferenceable(448)) local_unnamed_addr #0

declare noundef zeroext i1 @_ZNK4cvc58internal5DType12isCodatatypeEv(ptr noundef nonnull align 8 dereferenceable(448)) local_unnamed_addr #0

declare void @_ZN4cvc58internal6theory11quantifiers19QuantifiersRegistry8setOwnerENS0_12NodeTemplateILb1EEEPNS1_17QuantifiersModuleEi(ptr noundef nonnull align 8 dereferenceable(488), ptr noundef, ptr noundef, i32 noundef) local_unnamed_addr #0

; Function Attrs: mustprogress nounwind uwtable
define linkonce_odr hidden void @_ZN4cvc58internal6theory11quantifiers11QAttributesD2Ev(ptr noundef nonnull align 8 dereferenceable(80) %this) unnamed_addr #4 comdat align 2 personality ptr @__gxx_personality_v0 {
entry:
  %d_qid_num = getelementptr inbounds %"struct.cvc5::internal::theory::quantifiers::QAttributes", ptr %this, i64 0, i32 12
  %0 = load ptr, ptr %d_qid_num, align 8
  %bf.load.i.i = load i64, ptr %0, align 8
  %1 = and i64 %bf.load.i.i, 1152920405095219200
  %cmp.not.i.i = icmp eq i64 %1, 1152920405095219200
  br i1 %cmp.not.i.i, label %_ZN4cvc58internal12NodeTemplateILb1EED2Ev.exit, label %if.then.i.i

if.then.i.i:                                      ; preds = %entry
  %bf.value.i.i = add i64 %bf.load.i.i, 1152920405095219200
  %bf.shl.i.i = and i64 %bf.value.i.i, 1152920405095219200
  %bf.clear7.i.i = and i64 %bf.load.i.i, -1152920405095219201
  %bf.set.i.i = or disjoint i64 %bf.shl.i.i, %bf.clear7.i.i
  store i64 %bf.set.i.i, ptr %0, align 8
  %cmp12.i.i = icmp eq i64 %bf.shl.i.i, 0
  br i1 %cmp12.i.i, label %if.then13.i.i, label %_ZN4cvc58internal12NodeTemplateILb1EED2Ev.exit

if.then13.i.i:                                    ; preds = %if.then.i.i
  invoke void @_ZN4cvc58internal4expr9NodeValue15markForDeletionEv(ptr noundef nonnull align 8 dereferenceable(16) %0)
          to label %_ZN4cvc58internal12NodeTemplateILb1EED2Ev.exit unwind label %terminate.lpad.i

terminate.lpad.i:                                 ; preds = %if.then13.i.i
  %2 = landingpad { ptr, i32 }
          catch ptr null
  %3 = extractvalue { ptr, i32 } %2, 0
  tail call void @__clang_call_terminate(ptr %3) #22
  unreachable

_ZN4cvc58internal12NodeTemplateILb1EED2Ev.exit:   ; preds = %entry, %if.then.i.i, %if.then13.i.i
  %d_name = getelementptr inbounds %"struct.cvc5::internal::theory::quantifiers::QAttributes", ptr %this, i64 0, i32 11
  %4 = load ptr, ptr %d_name, align 8
  %bf.load.i.i1 = load i64, ptr %4, align 8
  %5 = and i64 %bf.load.i.i1, 1152920405095219200
  %cmp.not.i.i2 = icmp eq i64 %5, 1152920405095219200
  br i1 %cmp.not.i.i2, label %_ZN4cvc58internal12NodeTemplateILb1EED2Ev.exit11, label %if.then.i.i3

if.then.i.i3:                                     ; preds = %_ZN4cvc58internal12NodeTemplateILb1EED2Ev.exit
  %bf.value.i.i4 = add i64 %bf.load.i.i1, 1152920405095219200
  %bf.shl.i.i5 = and i64 %bf.value.i.i4, 1152920405095219200
  %bf.clear7.i.i6 = and i64 %bf.load.i.i1, -1152920405095219201
  %bf.set.i.i7 = or disjoint i64 %bf.shl.i.i5, %bf.clear7.i.i6
  store i64 %bf.set.i.i7, ptr %4, align 8
  %cmp12.i.i8 = icmp eq i64 %bf.shl.i.i5, 0
  br i1 %cmp12.i.i8, label %if.then13.i.i9, label %_ZN4cvc58internal12NodeTemplateILb1EED2Ev.exit11

if.then13.i.i9:                                   ; preds = %if.then.i.i3
  invoke void @_ZN4cvc58internal4expr9NodeValue15markForDeletionEv(ptr noundef nonnull align 8 dereferenceable(16) %4)
          to label %_ZN4cvc58internal12NodeTemplateILb1EED2Ev.exit11 unwind label %terminate.lpad.i10

terminate.lpad.i10:                               ; preds = %if.then13.i.i9
  %6 = landingpad { ptr, i32 }
          catch ptr null
  %7 = extractvalue { ptr, i32 } %6, 0
  tail call void @__clang_call_terminate(ptr %7) #22
  unreachable

_ZN4cvc58internal12NodeTemplateILb1EED2Ev.exit11: ; preds = %_ZN4cvc58internal12NodeTemplateILb1EED2Ev.exit, %if.then.i.i3, %if.then13.i.i9
  %d_ipl = getelementptr inbounds %"struct.cvc5::internal::theory::quantifiers::QAttributes", ptr %this, i64 0, i32 10
  %8 = load ptr, ptr %d_ipl, align 8
  %bf.load.i.i12 = load i64, ptr %8, align 8
  %9 = and i64 %bf.load.i.i12, 1152920405095219200
  %cmp.not.i.i13 = icmp eq i64 %9, 1152920405095219200
  br i1 %cmp.not.i.i13, label %_ZN4cvc58internal12NodeTemplateILb1EED2Ev.exit22, label %if.then.i.i14

if.then.i.i14:                                    ; preds = %_ZN4cvc58internal12NodeTemplateILb1EED2Ev.exit11
  %bf.value.i.i15 = add i64 %bf.load.i.i12, 1152920405095219200
  %bf.shl.i.i16 = and i64 %bf.value.i.i15, 1152920405095219200
  %bf.clear7.i.i17 = and i64 %bf.load.i.i12, -1152920405095219201
  %bf.set.i.i18 = or disjoint i64 %bf.shl.i.i16, %bf.clear7.i.i17
  store i64 %bf.set.i.i18, ptr %8, align 8
  %cmp12.i.i19 = icmp eq i64 %bf.shl.i.i16, 0
  br i1 %cmp12.i.i19, label %if.then13.i.i20, label %_ZN4cvc58internal12NodeTemplateILb1EED2Ev.exit22

if.then13.i.i20:                                  ; preds = %if.then.i.i14
  invoke void @_ZN4cvc58internal4expr9NodeValue15markForDeletionEv(ptr noundef nonnull align 8 dereferenceable(16) %8)
          to label %_ZN4cvc58internal12NodeTemplateILb1EED2Ev.exit22 unwind label %terminate.lpad.i21

terminate.lpad.i21:                               ; preds = %if.then13.i.i20
  %10 = landingpad { ptr, i32 }
          catch ptr null
  %11 = extractvalue { ptr, i32 } %10, 0
  tail call void @__clang_call_terminate(ptr %11) #22
  unreachable

_ZN4cvc58internal12NodeTemplateILb1EED2Ev.exit22: ; preds = %_ZN4cvc58internal12NodeTemplateILb1EED2Ev.exit11, %if.then.i.i14, %if.then13.i.i20
  %d_sygusSideCondition = getelementptr inbounds %"struct.cvc5::internal::theory::quantifiers::QAttributes", ptr %this, i64 0, i32 5
  %12 = load ptr, ptr %d_sygusSideCondition, align 8
  %bf.load.i.i23 = load i64, ptr %12, align 8
  %13 = and i64 %bf.load.i.i23, 1152920405095219200
  %cmp.not.i.i24 = icmp eq i64 %13, 1152920405095219200
  br i1 %cmp.not.i.i24, label %_ZN4cvc58internal12NodeTemplateILb1EED2Ev.exit33, label %if.then.i.i25

if.then.i.i25:                                    ; preds = %_ZN4cvc58internal12NodeTemplateILb1EED2Ev.exit22
  %bf.value.i.i26 = add i64 %bf.load.i.i23, 1152920405095219200
  %bf.shl.i.i27 = and i64 %bf.value.i.i26, 1152920405095219200
  %bf.clear7.i.i28 = and i64 %bf.load.i.i23, -1152920405095219201
  %bf.set.i.i29 = or disjoint i64 %bf.shl.i.i27, %bf.clear7.i.i28
  store i64 %bf.set.i.i29, ptr %12, align 8
  %cmp12.i.i30 = icmp eq i64 %bf.shl.i.i27, 0
  br i1 %cmp12.i.i30, label %if.then13.i.i31, label %_ZN4cvc58internal12NodeTemplateILb1EED2Ev.exit33

if.then13.i.i31:                                  ; preds = %if.then.i.i25
  invoke void @_ZN4cvc58internal4expr9NodeValue15markForDeletionEv(ptr noundef nonnull align 8 dereferenceable(16) %12)
          to label %_ZN4cvc58internal12NodeTemplateILb1EED2Ev.exit33 unwind label %terminate.lpad.i32

terminate.lpad.i32:                               ; preds = %if.then13.i.i31
  %14 = landingpad { ptr, i32 }
          catch ptr null
  %15 = extractvalue { ptr, i32 } %14, 0
  tail call void @__clang_call_terminate(ptr %15) #22
  unreachable

_ZN4cvc58internal12NodeTemplateILb1EED2Ev.exit33: ; preds = %_ZN4cvc58internal12NodeTemplateILb1EED2Ev.exit22, %if.then.i.i25, %if.then13.i.i31
  %d_oracle = getelementptr inbounds %"struct.cvc5::internal::theory::quantifiers::QAttributes", ptr %this, i64 0, i32 4
  %16 = load ptr, ptr %d_oracle, align 8
  %bf.load.i.i34 = load i64, ptr %16, align 8
  %17 = and i64 %bf.load.i.i34, 1152920405095219200
  %cmp.not.i.i35 = icmp eq i64 %17, 1152920405095219200
  br i1 %cmp.not.i.i35, label %_ZN4cvc58internal12NodeTemplateILb1EED2Ev.exit44, label %if.then.i.i36

if.then.i.i36:                                    ; preds = %_ZN4cvc58internal12NodeTemplateILb1EED2Ev.exit33
  %bf.value.i.i37 = add i64 %bf.load.i.i34, 1152920405095219200
  %bf.shl.i.i38 = and i64 %bf.value.i.i37, 1152920405095219200
  %bf.clear7.i.i39 = and i64 %bf.load.i.i34, -1152920405095219201
  %bf.set.i.i40 = or disjoint i64 %bf.shl.i.i38, %bf.clear7.i.i39
  store i64 %bf.set.i.i40, ptr %16, align 8
  %cmp12.i.i41 = icmp eq i64 %bf.shl.i.i38, 0
  br i1 %cmp12.i.i41, label %if.then13.i.i42, label %_ZN4cvc58internal12NodeTemplateILb1EED2Ev.exit44

if.then13.i.i42:                                  ; preds = %if.then.i.i36
  invoke void @_ZN4cvc58internal4expr9NodeValue15markForDeletionEv(ptr noundef nonnull align 8 dereferenceable(16) %16)
          to label %_ZN4cvc58internal12NodeTemplateILb1EED2Ev.exit44 unwind label %terminate.lpad.i43

terminate.lpad.i43:                               ; preds = %if.then13.i.i42
  %18 = landingpad { ptr, i32 }
          catch ptr null
  %19 = extractvalue { ptr, i32 } %18, 0
  tail call void @__clang_call_terminate(ptr %19) #22
  unreachable

_ZN4cvc58internal12NodeTemplateILb1EED2Ev.exit44: ; preds = %_ZN4cvc58internal12NodeTemplateILb1EED2Ev.exit33, %if.then.i.i36, %if.then13.i.i42
  %d_fundef_f = getelementptr inbounds %"struct.cvc5::internal::theory::quantifiers::QAttributes", ptr %this, i64 0, i32 2
  %20 = load ptr, ptr %d_fundef_f, align 8
  %bf.load.i.i45 = load i64, ptr %20, align 8
  %21 = and i64 %bf.load.i.i45, 1152920405095219200
  %cmp.not.i.i46 = icmp eq i64 %21, 1152920405095219200
  br i1 %cmp.not.i.i46, label %_ZN4cvc58internal12NodeTemplateILb1EED2Ev.exit55, label %if.then.i.i47

if.then.i.i47:                                    ; preds = %_ZN4cvc58internal12NodeTemplateILb1EED2Ev.exit44
  %bf.value.i.i48 = add i64 %bf.load.i.i45, 1152920405095219200
  %bf.shl.i.i49 = and i64 %bf.value.i.i48, 1152920405095219200
  %bf.clear7.i.i50 = and i64 %bf.load.i.i45, -1152920405095219201
  %bf.set.i.i51 = or disjoint i64 %bf.shl.i.i49, %bf.clear7.i.i50
  store i64 %bf.set.i.i51, ptr %20, align 8
  %cmp12.i.i52 = icmp eq i64 %bf.shl.i.i49, 0
  br i1 %cmp12.i.i52, label %if.then13.i.i53, label %_ZN4cvc58internal12NodeTemplateILb1EED2Ev.exit55

if.then13.i.i53:                                  ; preds = %if.then.i.i47
  invoke void @_ZN4cvc58internal4expr9NodeValue15markForDeletionEv(ptr noundef nonnull align 8 dereferenceable(16) %20)
          to label %_ZN4cvc58internal12NodeTemplateILb1EED2Ev.exit55 unwind label %terminate.lpad.i54

terminate.lpad.i54:                               ; preds = %if.then13.i.i53
  %22 = landingpad { ptr, i32 }
          catch ptr null
  %23 = extractvalue { ptr, i32 } %22, 0
  tail call void @__clang_call_terminate(ptr %23) #22
  unreachable

_ZN4cvc58internal12NodeTemplateILb1EED2Ev.exit55: ; preds = %_ZN4cvc58internal12NodeTemplateILb1EED2Ev.exit44, %if.then.i.i47, %if.then13.i.i53
  ret void
}

; Function Attrs: mustprogress nofree norecurse nosync nounwind willreturn memory(argmem: read) uwtable
define hidden noundef zeroext i1 @_ZN4cvc58internal6theory11quantifiers11QuantDSplit10needsCheckENS1_6Theory6EffortE(ptr nocapture noundef nonnull readonly align 8 dereferenceable(152) %this, i32 noundef %e) unnamed_addr #6 align 2 {
entry:
  %cmp = icmp sgt i32 %e, 99
  %_M_node_count.i.i = getelementptr inbounds %"class.cvc5::internal::theory::quantifiers::QuantDSplit", ptr %this, i64 0, i32 1, i32 0, i32 0, i32 1, i32 1
  %0 = load i64, ptr %_M_node_count.i.i, align 8
  %cmp.i.i = icmp ne i64 %0, 0
  %1 = select i1 %cmp, i1 %cmp.i.i, i1 false
  ret i1 %1
}

; Function Attrs: mustprogress uwtable
define hidden noundef zeroext i1 @_ZN4cvc58internal6theory11quantifiers11QuantDSplit16checkCompleteForENS0_12NodeTemplateILb1EEE(ptr nocapture noundef nonnull readonly align 8 dereferenceable(152) %this, ptr noundef %q) unnamed_addr #3 align 2 {
entry:
  %d_insertMap.i.i = getelementptr inbounds %"class.cvc5::internal::theory::quantifiers::QuantDSplit", ptr %this, i64 0, i32 2, i32 0, i32 1
  %0 = load ptr, ptr %d_insertMap.i.i, align 8, !noalias !23
  %_M_element_count.i.i.i.i.i.i = getelementptr inbounds %"class.cvc5::context::InsertHashMap", ptr %0, i64 0, i32 1, i32 0, i32 3
  %1 = load i64, ptr %_M_element_count.i.i.i.i.i.i, align 8, !noalias !23
  %cmp.not.not.i.i.i.i.i = icmp eq i64 %1, 0
  br i1 %cmp.not.not.i.i.i.i.i, label %if.then.i.i.i.i.i, label %if.end15.i.i.i.i.i

if.then.i.i.i.i.i:                                ; preds = %entry
  %_M_before_begin.i.i.i.i.i.i.i = getelementptr inbounds %"class.cvc5::context::InsertHashMap", ptr %0, i64 0, i32 1, i32 0, i32 2
  %2 = load ptr, ptr %q, align 8, !noalias !23
  br label %for.cond.i.i.i.i.i

for.cond.i.i.i.i.i:                               ; preds = %for.body.i.i.i.i.i, %if.then.i.i.i.i.i
  %retval.sroa.0.0.in.i.i.i.i.i = phi ptr [ %_M_before_begin.i.i.i.i.i.i.i, %if.then.i.i.i.i.i ], [ %retval.sroa.0.0.i.i.i.i.i, %for.body.i.i.i.i.i ]
  %retval.sroa.0.0.i.i.i.i.i = load ptr, ptr %retval.sroa.0.0.in.i.i.i.i.i, align 8, !noalias !23
  %cmp.i.not.i.i.i.i.i = icmp eq ptr %retval.sroa.0.0.i.i.i.i.i, null
  br i1 %cmp.i.not.i.i.i.i.i, label %_ZNK4cvc57context9CDHashSetINS_8internal12NodeTemplateILb1EEESt4hashIS4_EE4findERKS4_.exit, label %for.body.i.i.i.i.i

for.body.i.i.i.i.i:                               ; preds = %for.cond.i.i.i.i.i
  %add.ptr.i.i.i.i.i = getelementptr inbounds i8, ptr %retval.sroa.0.0.i.i.i.i.i, i64 8
  %3 = load ptr, ptr %add.ptr.i.i.i.i.i, align 8, !noalias !23
  %cmp.i.i.i.i.i.i.i.i = icmp eq ptr %2, %3
  br i1 %cmp.i.i.i.i.i.i.i.i, label %_ZNK4cvc57context9CDHashSetINS_8internal12NodeTemplateILb1EEESt4hashIS4_EE4findERKS4_.exit, label %for.cond.i.i.i.i.i, !llvm.loop !26

if.end15.i.i.i.i.i:                               ; preds = %entry
  %d_hashMap.i.i.i = getelementptr inbounds %"class.cvc5::context::InsertHashMap", ptr %0, i64 0, i32 1
  %call2.i.i.i.i.i.i = tail call noundef i64 @_ZNKSt4hashIN4cvc58internal12NodeTemplateILb1EEEEclERKS3_(ptr noundef nonnull align 1 dereferenceable(1) %d_hashMap.i.i.i, ptr noundef nonnull align 8 dereferenceable(8) %q), !noalias !23
  %_M_bucket_count.i.i.i.i.i.i = getelementptr inbounds %"class.cvc5::context::InsertHashMap", ptr %0, i64 0, i32 1, i32 0, i32 1
  %4 = load i64, ptr %_M_bucket_count.i.i.i.i.i.i, align 8, !noalias !23
  %rem.i.i.i.i.i.i.i.i = urem i64 %call2.i.i.i.i.i.i, %4
  %5 = load ptr, ptr %d_hashMap.i.i.i, align 8, !noalias !23
  %arrayidx.i.i.i.i.i.i.i = getelementptr inbounds ptr, ptr %5, i64 %rem.i.i.i.i.i.i.i.i
  %6 = load ptr, ptr %arrayidx.i.i.i.i.i.i.i, align 8, !noalias !23
  %tobool.not.i.i.i.i.i.i.i = icmp eq ptr %6, null
  br i1 %tobool.not.i.i.i.i.i.i.i, label %_ZNK4cvc57context9CDHashSetINS_8internal12NodeTemplateILb1EEESt4hashIS4_EE4findERKS4_.exit, label %if.end.i.i.i.i.i.i.i

if.end.i.i.i.i.i.i.i:                             ; preds = %if.end15.i.i.i.i.i
  %7 = load ptr, ptr %6, align 8, !noalias !23
  %8 = load ptr, ptr %q, align 8, !noalias !23
  %add.ptr8.i.i.i.i.i.i.i = getelementptr inbounds i8, ptr %7, i64 8
  %add.ptr.i9.i.i.i.i.i.i.i = getelementptr inbounds i8, ptr %7, i64 24
  %9 = load i64, ptr %add.ptr.i9.i.i.i.i.i.i.i, align 8, !noalias !23
  %cmp.i.i10.i.i.i.i.i.i.i = icmp eq i64 %9, %call2.i.i.i.i.i.i
  %10 = load ptr, ptr %add.ptr8.i.i.i.i.i.i.i, align 8, !noalias !23
  %cmp.i.i.i.i11.i.i.i.i.i.i.i = icmp eq ptr %8, %10
  %11 = select i1 %cmp.i.i10.i.i.i.i.i.i.i, i1 %cmp.i.i.i.i11.i.i.i.i.i.i.i, i1 false
  br i1 %11, label %_ZNK4cvc57context9CDHashSetINS_8internal12NodeTemplateILb1EEESt4hashIS4_EE4findERKS4_.exit, label %if.end3.i.i.i.i.i.i.i

for.cond.i.i.i.i.i.i.i:                           ; preds = %lor.lhs.false.i.i.i.i.i.i.i
  %add.ptr.i.i.i.i.i.i.i = getelementptr inbounds i8, ptr %14, i64 8
  %cmp.i.i.i.i.i.i.i.i.i = icmp eq i64 %15, %call2.i.i.i.i.i.i
  %12 = load ptr, ptr %add.ptr.i.i.i.i.i.i.i, align 8, !noalias !23
  %cmp.i.i.i.i.i.i.i.i.i.i.i = icmp eq ptr %8, %12
  %13 = select i1 %cmp.i.i.i.i.i.i.i.i.i, i1 %cmp.i.i.i.i.i.i.i.i.i.i.i, i1 false
  br i1 %13, label %_ZNK4cvc57context9CDHashSetINS_8internal12NodeTemplateILb1EEESt4hashIS4_EE4findERKS4_.exit, label %if.end3.i.i.i.i.i.i.i, !llvm.loop !27

if.end3.i.i.i.i.i.i.i:                            ; preds = %if.end.i.i.i.i.i.i.i, %for.cond.i.i.i.i.i.i.i
  %__p.012.i.i.i.i.i.i.i = phi ptr [ %14, %for.cond.i.i.i.i.i.i.i ], [ %7, %if.end.i.i.i.i.i.i.i ]
  %14 = load ptr, ptr %__p.012.i.i.i.i.i.i.i, align 8, !noalias !23
  %tobool5.not.i.i.i.i.i.i.i = icmp eq ptr %14, null
  br i1 %tobool5.not.i.i.i.i.i.i.i, label %_ZNK4cvc57context9CDHashSetINS_8internal12NodeTemplateILb1EEESt4hashIS4_EE4findERKS4_.exit, label %lor.lhs.false.i.i.i.i.i.i.i

lor.lhs.false.i.i.i.i.i.i.i:                      ; preds = %if.end3.i.i.i.i.i.i.i
  %add.ptr.i.i.i.i.i.i.i.i.i = getelementptr inbounds i8, ptr %14, i64 24
  %15 = load i64, ptr %add.ptr.i.i.i.i.i.i.i.i.i, align 8, !noalias !23
  %rem.i.i.i.i.i.i.i.i.i.i = urem i64 %15, %4
  %cmp.not.i.i.i.i.i.i.i = icmp eq i64 %rem.i.i.i.i.i.i.i.i.i.i, %rem.i.i.i.i.i.i.i.i
  br i1 %cmp.not.i.i.i.i.i.i.i, label %for.cond.i.i.i.i.i.i.i, label %_ZNK4cvc57context9CDHashSetINS_8internal12NodeTemplateILb1EEESt4hashIS4_EE4findERKS4_.exit, !llvm.loop !27

_ZNK4cvc57context9CDHashSetINS_8internal12NodeTemplateILb1EEESt4hashIS4_EE4findERKS4_.exit: ; preds = %for.cond.i.i.i.i.i.i.i, %if.end3.i.i.i.i.i.i.i, %lor.lhs.false.i.i.i.i.i.i.i, %for.cond.i.i.i.i.i, %for.body.i.i.i.i.i, %if.end15.i.i.i.i.i, %if.end.i.i.i.i.i.i.i
  %retval.sroa.0.1.i.i.i.i.i = phi ptr [ null, %if.end15.i.i.i.i.i ], [ %7, %if.end.i.i.i.i.i.i.i ], [ %retval.sroa.0.0.i.i.i.i.i, %for.body.i.i.i.i.i ], [ null, %for.cond.i.i.i.i.i ], [ null, %lor.lhs.false.i.i.i.i.i.i.i ], [ null, %if.end3.i.i.i.i.i.i.i ], [ %14, %for.cond.i.i.i.i.i.i.i ]
  %cmp.i.i = icmp ne ptr %retval.sroa.0.1.i.i.i.i.i, null
  ret i1 %cmp.i.i
}

; Function Attrs: mustprogress uwtable
define hidden void @_ZN4cvc58internal6theory11quantifiers11QuantDSplit5checkENS1_6Theory6EffortENS1_17QuantifiersModule7QEffortE(ptr noundef nonnull align 8 dereferenceable(152) %this, i32 %e, i32 noundef %quant_e) unnamed_addr #3 align 2 personality ptr @__gxx_personality_v0 {
entry:
  %agg.tmp.i.i.i921 = alloca %"class.cvc5::internal::NodeTemplate.484", align 8
  %nb.i922 = alloca %"class.cvc5::internal::NodeBuilder", align 8
  %agg.tmp.i.i.i857 = alloca %"class.cvc5::internal::NodeTemplate.484", align 8
  %nb.i858 = alloca %"class.cvc5::internal::NodeBuilder", align 8
  %agg.tmp.i.i.i667 = alloca %"class.cvc5::internal::NodeTemplate.484", align 8
  %nb.i668 = alloca %"class.cvc5::internal::NodeBuilder", align 8
  %agg.tmp.i.i.i = alloca %"class.cvc5::internal::NodeTemplate.484", align 8
  %nb.i = alloca %"class.cvc5::internal::NodeBuilder", align 8
  %cache.i = alloca %"class.std::unordered_map.652", align 8
  %agg.tmp.i = alloca %"class.cvc5::internal::NodeTemplate.484", align 8
  %agg.tmp2.i = alloca %"class.cvc5::internal::NodeTemplate.484", align 8
  %ref.tmp.i = alloca i8, align 1
  %lemmas = alloca %"class.std::vector.459", align 8
  %q = alloca %"class.cvc5::internal::NodeTemplate", align 8
  %agg.tmp = alloca %"class.cvc5::internal::NodeTemplate.484", align 8
  %agg.tmp36 = alloca %"class.cvc5::internal::NodeTemplate.484", align 8
  %bvs = alloca %"class.std::vector.459", align 8
  %ref.tmp55 = alloca %"class.cvc5::internal::NodeTemplate", align 8
  %ref.tmp68 = alloca %"class.cvc5::internal::NodeTemplate", align 8
  %ref.tmp69 = alloca %"class.cvc5::internal::NodeTemplate", align 8
  %disj = alloca %"class.std::vector.459", align 8
  %ref.tmp78 = alloca %"class.cvc5::internal::NodeTemplate", align 8
  %svar = alloca %"class.cvc5::internal::NodeTemplate.484", align 8
  %ref.tmp85 = alloca %"class.cvc5::internal::NodeTemplate", align 8
  %tn = alloca %"class.cvc5::internal::TypeNode", align 8
  %cons = alloca %"class.std::vector.459", align 8
  %vars = alloca %"class.std::vector.459", align 8
  %dtjtn = alloca %"class.cvc5::internal::TypeNode", align 8
  %agg.tmp110 = alloca %"class.cvc5::internal::TypeNode", align 8
  %tns = alloca %"class.cvc5::internal::TypeNode", align 8
  %v = alloca %"class.cvc5::internal::NodeTemplate", align 8
  %bvs_cmb = alloca %"class.std::vector.459", align 8
  %c = alloca %"class.cvc5::internal::NodeTemplate", align 8
  %agg.tmp169 = alloca %"class.cvc5::internal::TypeNode", align 8
  %body = alloca %"class.cvc5::internal::NodeTemplate", align 8
  %ref.tmp177 = alloca %"class.cvc5::internal::NodeTemplate", align 8
  %bvl = alloca %"class.cvc5::internal::NodeTemplate", align 8
  %children = alloca %"class.std::vector.459", align 8
  %ipls = alloca %"class.cvc5::internal::NodeTemplate", align 8
  %ref.tmp202 = alloca %"class.cvc5::internal::NodeTemplate", align 8
  %agg.tmp204 = alloca %"class.cvc5::internal::NodeTemplate.484", align 8
  %agg.tmp207 = alloca %"class.cvc5::internal::NodeTemplate.484", align 8
  %ref.tmp219 = alloca %"class.cvc5::internal::NodeTemplate", align 8
  %conc = alloca %"class.cvc5::internal::NodeTemplate", align 8
  %ref.tmp248 = alloca %"class.cvc5::internal::NodeTemplate", align 8
  %agg.tmp296 = alloca %"class.cvc5::internal::NodeTemplate", align 8
  %cmp.not = icmp eq i32 %quant_e, 0
  br i1 %cmp.not, label %cond.end, label %return

cond.end:                                         ; preds = %entry
  %call5 = tail call noundef ptr @_ZN4cvc58internal11NodeManager9currentNMEv()
  %d_treg = getelementptr inbounds %"class.cvc5::internal::theory::QuantifiersModule", ptr %this, i64 0, i32 4
  %0 = load ptr, ptr %d_treg, align 8
  %call6 = tail call noundef ptr @_ZNK4cvc58internal6theory11quantifiers12TermRegistry8getModelEv(ptr noundef nonnull align 8 dereferenceable(208) %0)
  call void @llvm.memset.p0.i64(ptr noundef nonnull align 8 dereferenceable(24) %lemmas, i8 0, i64 24, i1 false)
  %_M_left.i.i = getelementptr inbounds %"class.cvc5::internal::theory::quantifiers::QuantDSplit", ptr %this, i64 0, i32 1, i32 0, i32 0, i32 1, i32 0, i32 2
  %1 = load ptr, ptr %_M_left.i.i, align 8
  %add.ptr.i.i = getelementptr inbounds %"class.cvc5::internal::theory::quantifiers::QuantDSplit", ptr %this, i64 0, i32 1, i32 0, i32 0, i32 1
  %cmp.i.not1299 = icmp eq ptr %1, %add.ptr.i.i
  br i1 %cmp.i.not1299, label %for.end270.thread, label %for.body.lr.ph

for.end270.thread:                                ; preds = %cond.end
  %_M_finish.i10821313 = getelementptr inbounds %"struct.std::_Vector_base<cvc5::internal::NodeTemplate<true>, std::allocator<cvc5::internal::NodeTemplate<true>>>::_Vector_impl_data", ptr %lemmas, i64 0, i32 1
  br label %cond.true308

for.body.lr.ph:                                   ; preds = %cond.end
  %d_insertMap.i.i = getelementptr inbounds %"class.cvc5::internal::theory::quantifiers::QuantDSplit", ptr %this, i64 0, i32 2, i32 0, i32 1
  %d_added_split52 = getelementptr inbounds %"class.cvc5::internal::theory::quantifiers::QuantDSplit", ptr %this, i64 0, i32 2
  %_M_finish.i.i = getelementptr inbounds %"struct.std::_Vector_base<cvc5::internal::NodeTemplate<true>, std::allocator<cvc5::internal::NodeTemplate<true>>>::_Vector_impl_data", ptr %bvs, i64 0, i32 1
  %_M_end_of_storage.i.i = getelementptr inbounds %"struct.std::_Vector_base<cvc5::internal::NodeTemplate<true>, std::allocator<cvc5::internal::NodeTemplate<true>>>::_Vector_impl_data", ptr %bvs, i64 0, i32 2
  %_M_finish.i.i234 = getelementptr inbounds %"struct.std::_Vector_base<cvc5::internal::NodeTemplate<true>, std::allocator<cvc5::internal::NodeTemplate<true>>>::_Vector_impl_data", ptr %disj, i64 0, i32 1
  %_M_end_of_storage.i.i235 = getelementptr inbounds %"struct.std::_Vector_base<cvc5::internal::NodeTemplate<true>, std::allocator<cvc5::internal::NodeTemplate<true>>>::_Vector_impl_data", ptr %disj, i64 0, i32 2
  %_M_finish.i = getelementptr inbounds %"struct.std::_Vector_base<cvc5::internal::NodeTemplate<true>, std::allocator<cvc5::internal::NodeTemplate<true>>>::_Vector_impl_data", ptr %vars, i64 0, i32 1
  %_M_end_of_storage.i = getelementptr inbounds %"struct.std::_Vector_base<cvc5::internal::NodeTemplate<true>, std::allocator<cvc5::internal::NodeTemplate<true>>>::_Vector_impl_data", ptr %vars, i64 0, i32 2
  %_M_finish.i426 = getelementptr inbounds %"struct.std::_Vector_base<cvc5::internal::NodeTemplate<true>, std::allocator<cvc5::internal::NodeTemplate<true>>>::_Vector_impl_data", ptr %bvs_cmb, i64 0, i32 1
  %_M_single_bucket.i.i.i = getelementptr inbounds %"class.std::_Hashtable.653", ptr %cache.i, i64 0, i32 5
  %_M_bucket_count.i.i.i = getelementptr inbounds %"class.std::_Hashtable.653", ptr %cache.i, i64 0, i32 1
  %_M_before_begin.i.i.i = getelementptr inbounds %"class.std::_Hashtable.653", ptr %cache.i, i64 0, i32 2
  %_M_rehash_policy.i.i.i = getelementptr inbounds %"class.std::_Hashtable.653", ptr %cache.i, i64 0, i32 4
  %_M_next_resize.i.i.i.i = getelementptr inbounds %"class.std::_Hashtable.653", ptr %cache.i, i64 0, i32 4, i32 1
  %_M_finish.i527 = getelementptr inbounds %"struct.std::_Vector_base<cvc5::internal::NodeTemplate<true>, std::allocator<cvc5::internal::NodeTemplate<true>>>::_Vector_impl_data", ptr %children, i64 0, i32 1
  %_M_end_of_storage.i528 = getelementptr inbounds %"struct.std::_Vector_base<cvc5::internal::NodeTemplate<true>, std::allocator<cvc5::internal::NodeTemplate<true>>>::_Vector_impl_data", ptr %children, i64 0, i32 2
  %_M_finish.i735 = getelementptr inbounds %"struct.std::_Vector_base<cvc5::internal::NodeTemplate<true>, std::allocator<cvc5::internal::NodeTemplate<true>>>::_Vector_impl_data", ptr %cons, i64 0, i32 1
  %_M_end_of_storage.i736 = getelementptr inbounds %"struct.std::_Vector_base<cvc5::internal::NodeTemplate<true>, std::allocator<cvc5::internal::NodeTemplate<true>>>::_Vector_impl_data", ptr %cons, i64 0, i32 2
  %_M_finish.i.i941 = getelementptr inbounds %"struct.std::_Vector_base<cvc5::internal::NodeTemplate<true>, std::allocator<cvc5::internal::NodeTemplate<true>>>::_Vector_impl_data", ptr %lemmas, i64 0, i32 1
  %_M_end_of_storage.i.i942 = getelementptr inbounds %"struct.std::_Vector_base<cvc5::internal::NodeTemplate<true>, std::allocator<cvc5::internal::NodeTemplate<true>>>::_Vector_impl_data", ptr %lemmas, i64 0, i32 2
  br label %for.body

for.body:                                         ; preds = %for.body.lr.ph, %_ZN4cvc58internal12NodeTemplateILb1EED2Ev.exit1080
  %it.sroa.0.01300 = phi ptr [ %1, %for.body.lr.ph ], [ %call.i1081, %_ZN4cvc58internal12NodeTemplateILb1EED2Ev.exit1080 ]
  %_M_storage.i.i = getelementptr inbounds %"struct.std::_Rb_tree_node", ptr %it.sroa.0.01300, i64 0, i32 1
  %2 = load ptr, ptr %_M_storage.i.i, align 8
  store ptr %2, ptr %q, align 8
  %bf.load.i.i = load i64, ptr %2, align 8
  %bf.lshr.i.i = lshr i64 %bf.load.i.i, 40
  %3 = trunc i64 %bf.lshr.i.i to i32
  %bf.cast.i.i = and i32 %3, 1048575
  %cmp.i.i46 = icmp ult i32 %bf.cast.i.i, 1048574
  br i1 %cmp.i.i46, label %if.then.i.i, label %if.else.i.i

if.then.i.i:                                      ; preds = %for.body
  %bf.value.i.i = add i64 %bf.load.i.i, 1099511627776
  %bf.shl.i.i = and i64 %bf.value.i.i, 1152920405095219200
  %bf.clear7.i.i = and i64 %bf.load.i.i, -1152920405095219201
  %bf.set.i.i = or disjoint i64 %bf.shl.i.i, %bf.clear7.i.i
  store i64 %bf.set.i.i, ptr %2, align 8
  br label %cond.true18

if.else.i.i:                                      ; preds = %for.body
  %cmp12.i.i = icmp eq i32 %bf.cast.i.i, 1048574
  br i1 %cmp12.i.i, label %if.then13.i.i, label %cond.true18

if.then13.i.i:                                    ; preds = %if.else.i.i
  %bf.set23.i.i = or i64 %bf.load.i.i, 1152920405095219200
  store i64 %bf.set23.i.i, ptr %2, align 8
  invoke void @_ZN4cvc58internal4expr9NodeValue20markRefCountMaxedOutEv(ptr noundef nonnull align 8 dereferenceable(16) %2)
          to label %cond.true18 unwind label %lpad.loopexit.split-lp

cond.true18:                                      ; preds = %if.then13.i.i, %if.then.i.i, %if.else.i.i
  %4 = load ptr, ptr %q, align 8
  store ptr %4, ptr %agg.tmp, align 8
  %call35 = invoke noundef zeroext i1 @_ZNK4cvc58internal6theory11quantifiers15FirstOrderModel20isQuantifierAssertedENS0_12NodeTemplateILb0EEE(ptr noundef nonnull align 8 dereferenceable(656) %call6, ptr noundef nonnull %agg.tmp)
          to label %invoke.cont34 unwind label %lpad33

invoke.cont34:                                    ; preds = %cond.true18
  br i1 %call35, label %land.lhs.true, label %if.end266

land.lhs.true:                                    ; preds = %invoke.cont34
  %5 = load ptr, ptr %q, align 8
  store ptr %5, ptr %agg.tmp36, align 8
  %call40 = invoke noundef zeroext i1 @_ZNK4cvc58internal6theory11quantifiers15FirstOrderModel18isQuantifierActiveENS0_12NodeTemplateILb0EEE(ptr noundef nonnull align 8 dereferenceable(656) %call6, ptr noundef nonnull %agg.tmp36)
          to label %invoke.cont39 unwind label %lpad38

invoke.cont39:                                    ; preds = %land.lhs.true
  br i1 %call40, label %land.rhs, label %if.end266

land.rhs:                                         ; preds = %invoke.cont39
  %6 = load ptr, ptr %d_insertMap.i.i, align 8, !noalias !28
  %_M_element_count.i.i.i.i.i.i = getelementptr inbounds %"class.cvc5::context::InsertHashMap", ptr %6, i64 0, i32 1, i32 0, i32 3
  %7 = load i64, ptr %_M_element_count.i.i.i.i.i.i, align 8, !noalias !28
  %cmp.not.not.i.i.i.i.i = icmp eq i64 %7, 0
  br i1 %cmp.not.not.i.i.i.i.i, label %if.then.i.i.i.i.i, label %if.end15.i.i.i.i.i

if.then.i.i.i.i.i:                                ; preds = %land.rhs
  %_M_before_begin.i.i.i.i.i.i.i = getelementptr inbounds %"class.cvc5::context::InsertHashMap", ptr %6, i64 0, i32 1, i32 0, i32 2
  %8 = load ptr, ptr %q, align 8, !noalias !28
  br label %for.cond.i.i.i.i.i

for.cond.i.i.i.i.i:                               ; preds = %for.body.i.i.i.i.i, %if.then.i.i.i.i.i
  %retval.sroa.0.0.in.i.i.i.i.i = phi ptr [ %_M_before_begin.i.i.i.i.i.i.i, %if.then.i.i.i.i.i ], [ %retval.sroa.0.0.i.i.i.i.i, %for.body.i.i.i.i.i ]
  %retval.sroa.0.0.i.i.i.i.i = load ptr, ptr %retval.sroa.0.0.in.i.i.i.i.i, align 8, !noalias !28
  %cmp.i.not.i.i.i.i.i = icmp eq ptr %retval.sroa.0.0.i.i.i.i.i, null
  br i1 %cmp.i.not.i.i.i.i.i, label %if.then51, label %for.body.i.i.i.i.i

for.body.i.i.i.i.i:                               ; preds = %for.cond.i.i.i.i.i
  %add.ptr.i.i.i.i.i = getelementptr inbounds i8, ptr %retval.sroa.0.0.i.i.i.i.i, i64 8
  %9 = load ptr, ptr %add.ptr.i.i.i.i.i, align 8, !noalias !28
  %cmp.i.i.i.i.i.i.i.i = icmp eq ptr %8, %9
  br i1 %cmp.i.i.i.i.i.i.i.i, label %if.end266, label %for.cond.i.i.i.i.i, !llvm.loop !26

if.end15.i.i.i.i.i:                               ; preds = %land.rhs
  %d_hashMap.i.i.i = getelementptr inbounds %"class.cvc5::context::InsertHashMap", ptr %6, i64 0, i32 1
  %call2.i.i.i.i.i.i125 = invoke noundef i64 @_ZNKSt4hashIN4cvc58internal12NodeTemplateILb1EEEEclERKS3_(ptr noundef nonnull align 1 dereferenceable(1) %d_hashMap.i.i.i, ptr noundef nonnull align 8 dereferenceable(8) %q)
          to label %call2.i.i.i.i.i.i.noexc unwind label %lpad38

call2.i.i.i.i.i.i.noexc:                          ; preds = %if.end15.i.i.i.i.i
  %_M_bucket_count.i.i.i.i.i.i = getelementptr inbounds %"class.cvc5::context::InsertHashMap", ptr %6, i64 0, i32 1, i32 0, i32 1
  %10 = load i64, ptr %_M_bucket_count.i.i.i.i.i.i, align 8, !noalias !28
  %rem.i.i.i.i.i.i.i.i = urem i64 %call2.i.i.i.i.i.i125, %10
  %11 = load ptr, ptr %d_hashMap.i.i.i, align 8, !noalias !28
  %arrayidx.i.i.i.i.i.i.i = getelementptr inbounds ptr, ptr %11, i64 %rem.i.i.i.i.i.i.i.i
  %12 = load ptr, ptr %arrayidx.i.i.i.i.i.i.i, align 8, !noalias !28
  %tobool.not.i.i.i.i.i.i.i = icmp eq ptr %12, null
  br i1 %tobool.not.i.i.i.i.i.i.i, label %if.then51, label %if.end.i.i.i.i.i.i.i

if.end.i.i.i.i.i.i.i:                             ; preds = %call2.i.i.i.i.i.i.noexc
  %13 = load ptr, ptr %12, align 8, !noalias !28
  %14 = load ptr, ptr %q, align 8, !noalias !28
  %add.ptr8.i.i.i.i.i.i.i = getelementptr inbounds i8, ptr %13, i64 8
  %add.ptr.i9.i.i.i.i.i.i.i = getelementptr inbounds i8, ptr %13, i64 24
  %15 = load i64, ptr %add.ptr.i9.i.i.i.i.i.i.i, align 8, !noalias !28
  %cmp.i.i10.i.i.i.i.i.i.i = icmp eq i64 %15, %call2.i.i.i.i.i.i125
  %16 = load ptr, ptr %add.ptr8.i.i.i.i.i.i.i, align 8, !noalias !28
  %cmp.i.i.i.i11.i.i.i.i.i.i.i = icmp eq ptr %14, %16
  %17 = select i1 %cmp.i.i10.i.i.i.i.i.i.i, i1 %cmp.i.i.i.i11.i.i.i.i.i.i.i, i1 false
  br i1 %17, label %if.end266, label %if.end3.i.i.i.i.i.i.i

for.cond.i.i.i.i.i.i.i:                           ; preds = %lor.lhs.false.i.i.i.i.i.i.i
  %add.ptr.i.i.i.i.i.i.i = getelementptr inbounds i8, ptr %20, i64 8
  %cmp.i.i.i.i.i.i.i.i.i = icmp eq i64 %21, %call2.i.i.i.i.i.i125
  %18 = load ptr, ptr %add.ptr.i.i.i.i.i.i.i, align 8, !noalias !28
  %cmp.i.i.i.i.i.i.i.i.i.i.i = icmp eq ptr %14, %18
  %19 = select i1 %cmp.i.i.i.i.i.i.i.i.i, i1 %cmp.i.i.i.i.i.i.i.i.i.i.i, i1 false
  br i1 %19, label %if.end266, label %if.end3.i.i.i.i.i.i.i, !llvm.loop !27

if.end3.i.i.i.i.i.i.i:                            ; preds = %if.end.i.i.i.i.i.i.i, %for.cond.i.i.i.i.i.i.i
  %__p.012.i.i.i.i.i.i.i = phi ptr [ %20, %for.cond.i.i.i.i.i.i.i ], [ %13, %if.end.i.i.i.i.i.i.i ]
  %20 = load ptr, ptr %__p.012.i.i.i.i.i.i.i, align 8, !noalias !28
  %tobool5.not.i.i.i.i.i.i.i = icmp eq ptr %20, null
  br i1 %tobool5.not.i.i.i.i.i.i.i, label %if.then51, label %lor.lhs.false.i.i.i.i.i.i.i

lor.lhs.false.i.i.i.i.i.i.i:                      ; preds = %if.end3.i.i.i.i.i.i.i
  %add.ptr.i.i.i.i.i.i.i.i.i = getelementptr inbounds i8, ptr %20, i64 24
  %21 = load i64, ptr %add.ptr.i.i.i.i.i.i.i.i.i, align 8, !noalias !28
  %rem.i.i.i.i.i.i.i.i.i.i = urem i64 %21, %10
  %cmp.not.i.i.i.i.i.i.i = icmp eq i64 %rem.i.i.i.i.i.i.i.i.i.i, %rem.i.i.i.i.i.i.i.i
  br i1 %cmp.not.i.i.i.i.i.i.i, label %for.cond.i.i.i.i.i.i.i, label %if.then51, !llvm.loop !27

if.then51:                                        ; preds = %if.end3.i.i.i.i.i.i.i, %lor.lhs.false.i.i.i.i.i.i.i, %for.cond.i.i.i.i.i, %call2.i.i.i.i.i.i.noexc
  call void @llvm.lifetime.start.p0(i64 1, ptr nonnull %ref.tmp.i)
  store i8 1, ptr %ref.tmp.i, align 1
  %call.i127128 = invoke noundef zeroext i1 @_ZN4cvc57context15CDInsertHashMapINS_8internal12NodeTemplateILb1EEEbSt4hashIS4_EE11insert_safeERKS4_RKb(ptr noundef nonnull align 8 dereferenceable(56) %d_added_split52, ptr noundef nonnull align 8 dereferenceable(8) %q, ptr noundef nonnull align 1 dereferenceable(1) %ref.tmp.i)
          to label %invoke.cont53 unwind label %lpad15

invoke.cont53:                                    ; preds = %if.then51
  call void @llvm.lifetime.end.p0(i64 1, ptr nonnull %ref.tmp.i)
  call void @llvm.memset.p0.i64(ptr noundef nonnull align 8 dereferenceable(24) %bvs, i8 0, i64 24, i1 false)
  call void @llvm.experimental.noalias.scope.decl(metadata !31)
  %22 = load ptr, ptr %q, align 8, !noalias !31
  %d_kind.i.i.i.i = getelementptr inbounds %"class.cvc5::internal::expr::NodeValue", ptr %22, i64 0, i32 1
  %bf.load.i.i.i.i = load i16, ptr %d_kind.i.i.i.i, align 8, !noalias !31
  %bf.clear.i.i.i.i = and i16 %bf.load.i.i.i.i, 1023
  %bf.cast.i.i.i.i = zext nneg i16 %bf.clear.i.i.i.i to i32
  %cmp.i.i.i.i.i = icmp eq i16 %bf.clear.i.i.i.i, 1023
  %cond.i.i.i.i.i = select i1 %cmp.i.i.i.i.i, i32 -1, i32 %bf.cast.i.i.i.i
  %call2.i.i.i132 = invoke noundef i32 @_ZN4cvc58internal4kind10metaKindOfENS1_6Kind_tE(i32 noundef %cond.i.i.i.i.i)
          to label %call2.i.i.i.noexc unwind label %lpad56.loopexit.split-lp

call2.i.i.i.noexc:                                ; preds = %invoke.cont53
  %cmp.i.i129 = icmp eq i32 %call2.i.i.i132, 2
  %idxprom.i.i130 = zext i1 %cmp.i.i129 to i64
  %arrayidx.i.i131 = getelementptr inbounds %"class.cvc5::internal::expr::NodeValue", ptr %22, i64 0, i32 3, i64 %idxprom.i.i130
  %23 = load ptr, ptr %arrayidx.i.i131, align 8, !noalias !31
  store ptr %23, ptr %ref.tmp55, align 8, !alias.scope !31
  %bf.load.i.i.i = load i64, ptr %23, align 8, !noalias !31
  %bf.lshr.i.i.i = lshr i64 %bf.load.i.i.i, 40
  %24 = trunc i64 %bf.lshr.i.i.i to i32
  %bf.cast.i.i.i = and i32 %24, 1048575
  %cmp.i.i.i = icmp ult i32 %bf.cast.i.i.i, 1048574
  br i1 %cmp.i.i.i, label %if.then.i.i.i, label %if.else.i.i.i

if.then.i.i.i:                                    ; preds = %call2.i.i.i.noexc
  %bf.value.i.i.i = add i64 %bf.load.i.i.i, 1099511627776
  %bf.shl.i.i.i = and i64 %bf.value.i.i.i, 1152920405095219200
  %bf.clear7.i.i.i = and i64 %bf.load.i.i.i, -1152920405095219201
  %bf.set.i.i.i = or disjoint i64 %bf.shl.i.i.i, %bf.clear7.i.i.i
  store i64 %bf.set.i.i.i, ptr %23, align 8, !noalias !31
  br label %invoke.cont57

if.else.i.i.i:                                    ; preds = %call2.i.i.i.noexc
  %cmp12.i.i.i = icmp eq i32 %bf.cast.i.i.i, 1048574
  br i1 %cmp12.i.i.i, label %if.then13.i.i.i, label %invoke.cont57

if.then13.i.i.i:                                  ; preds = %if.else.i.i.i
  %bf.set23.i.i.i = or i64 %bf.load.i.i.i, 1152920405095219200
  store i64 %bf.set23.i.i.i, ptr %23, align 8, !noalias !31
  invoke void @_ZN4cvc58internal4expr9NodeValue20markRefCountMaxedOutEv(ptr noundef nonnull align 8 dereferenceable(16) %23)
          to label %invoke.cont57 unwind label %lpad56.loopexit.split-lp

invoke.cont57:                                    ; preds = %if.else.i.i.i, %if.then.i.i.i, %if.then13.i.i.i
  %d_kind.i.i.i.i134 = getelementptr inbounds %"class.cvc5::internal::expr::NodeValue", ptr %23, i64 0, i32 1
  %bf.load.i.i.i.i135 = load i16, ptr %d_kind.i.i.i.i134, align 8
  %bf.clear.i.i.i.i136 = and i16 %bf.load.i.i.i.i135, 1023
  %bf.cast.i.i.i.i137 = zext nneg i16 %bf.clear.i.i.i.i136 to i32
  %cmp.i.i.i.i.i138 = icmp eq i16 %bf.clear.i.i.i.i136, 1023
  %cond.i.i.i.i.i139 = select i1 %cmp.i.i.i.i.i138, i32 -1, i32 %bf.cast.i.i.i.i137
  %call2.i.i.i143 = invoke noundef i32 @_ZN4cvc58internal4kind10metaKindOfENS1_6Kind_tE(i32 noundef %cond.i.i.i.i.i139)
          to label %invoke.cont59 unwind label %lpad58

invoke.cont59:                                    ; preds = %invoke.cont57
  %cmp.i.i140 = icmp eq i32 %call2.i.i.i143, 2
  %d_nchildren.i.i = getelementptr inbounds %"class.cvc5::internal::expr::NodeValue", ptr %23, i64 0, i32 2
  %bf.load.i.i141 = load i32, ptr %d_nchildren.i.i, align 4
  %bf.clear.i.i = and i32 %bf.load.i.i141, 67108863
  %sub.i.i = sext i1 %cmp.i.i140 to i32
  %cond.i.i = add nsw i32 %bf.clear.i.i, %sub.i.i
  %bf.load.i.i144 = load i64, ptr %23, align 8
  %25 = and i64 %bf.load.i.i144, 1152920405095219200
  %cmp.not.i.i = icmp eq i64 %25, 1152920405095219200
  br i1 %cmp.not.i.i, label %_ZN4cvc58internal12NodeTemplateILb1EED2Ev.exit, label %if.then.i.i145

if.then.i.i145:                                   ; preds = %invoke.cont59
  %bf.value.i.i146 = add i64 %bf.load.i.i144, 1152920405095219200
  %bf.shl.i.i147 = and i64 %bf.value.i.i146, 1152920405095219200
  %bf.clear7.i.i148 = and i64 %bf.load.i.i144, -1152920405095219201
  %bf.set.i.i149 = or disjoint i64 %bf.shl.i.i147, %bf.clear7.i.i148
  store i64 %bf.set.i.i149, ptr %23, align 8
  %cmp12.i.i150 = icmp eq i64 %bf.shl.i.i147, 0
  br i1 %cmp12.i.i150, label %if.then13.i.i151, label %_ZN4cvc58internal12NodeTemplateILb1EED2Ev.exit

if.then13.i.i151:                                 ; preds = %if.then.i.i145
  invoke void @_ZN4cvc58internal4expr9NodeValue15markForDeletionEv(ptr noundef nonnull align 8 dereferenceable(16) %23)
          to label %_ZN4cvc58internal12NodeTemplateILb1EED2Ev.exit unwind label %terminate.lpad.i

terminate.lpad.i:                                 ; preds = %if.then13.i.i151
  %26 = landingpad { ptr, i32 }
          catch ptr null
  %27 = extractvalue { ptr, i32 } %26, 0
  call void @__clang_call_terminate(ptr %27) #22
  unreachable

_ZN4cvc58internal12NodeTemplateILb1EED2Ev.exit:   ; preds = %invoke.cont59, %if.then.i.i145, %if.then13.i.i151
  %cmp631293.not = icmp eq i32 %cond.i.i, 0
  br i1 %cmp631293.not, label %for.end, label %for.body64.lr.ph

for.body64.lr.ph:                                 ; preds = %_ZN4cvc58internal12NodeTemplateILb1EED2Ev.exit
  %second = getelementptr inbounds %"struct.std::_Rb_tree_node", ptr %it.sroa.0.01300, i64 0, i32 1, i32 0, i64 8
  br label %for.body64

for.body64:                                       ; preds = %for.body64.lr.ph, %for.inc
  %i.01294 = phi i32 [ 0, %for.body64.lr.ph ], [ %inc, %for.inc ]
  %28 = load i32, ptr %second, align 8
  %cmp66.not = icmp eq i32 %i.01294, %28
  br i1 %cmp66.not, label %for.inc, label %if.then67

if.then67:                                        ; preds = %for.body64
  call void @llvm.experimental.noalias.scope.decl(metadata !34)
  %29 = load ptr, ptr %q, align 8, !noalias !34
  %d_kind.i.i.i.i153 = getelementptr inbounds %"class.cvc5::internal::expr::NodeValue", ptr %29, i64 0, i32 1
  %bf.load.i.i.i.i154 = load i16, ptr %d_kind.i.i.i.i153, align 8, !noalias !34
  %bf.clear.i.i.i.i155 = and i16 %bf.load.i.i.i.i154, 1023
  %bf.cast.i.i.i.i156 = zext nneg i16 %bf.clear.i.i.i.i155 to i32
  %cmp.i.i.i.i.i157 = icmp eq i16 %bf.clear.i.i.i.i155, 1023
  %cond.i.i.i.i.i158 = select i1 %cmp.i.i.i.i.i157, i32 -1, i32 %bf.cast.i.i.i.i156
  %call2.i.i.i177 = invoke noundef i32 @_ZN4cvc58internal4kind10metaKindOfENS1_6Kind_tE(i32 noundef %cond.i.i.i.i.i158)
          to label %call2.i.i.i.noexc176 unwind label %lpad56.loopexit

call2.i.i.i.noexc176:                             ; preds = %if.then67
  %cmp.i.i159 = icmp eq i32 %call2.i.i.i177, 2
  %idxprom.i.i161 = zext i1 %cmp.i.i159 to i64
  %arrayidx.i.i162 = getelementptr inbounds %"class.cvc5::internal::expr::NodeValue", ptr %29, i64 0, i32 3, i64 %idxprom.i.i161
  %30 = load ptr, ptr %arrayidx.i.i162, align 8, !noalias !34
  store ptr %30, ptr %ref.tmp69, align 8, !alias.scope !34
  %bf.load.i.i.i163 = load i64, ptr %30, align 8, !noalias !34
  %bf.lshr.i.i.i164 = lshr i64 %bf.load.i.i.i163, 40
  %31 = trunc i64 %bf.lshr.i.i.i164 to i32
  %bf.cast.i.i.i165 = and i32 %31, 1048575
  %cmp.i.i.i166 = icmp ult i32 %bf.cast.i.i.i165, 1048574
  br i1 %cmp.i.i.i166, label %if.then.i.i.i171, label %if.else.i.i.i167

if.then.i.i.i171:                                 ; preds = %call2.i.i.i.noexc176
  %bf.value.i.i.i172 = add i64 %bf.load.i.i.i163, 1099511627776
  %bf.shl.i.i.i173 = and i64 %bf.value.i.i.i172, 1152920405095219200
  %bf.clear7.i.i.i174 = and i64 %bf.load.i.i.i163, -1152920405095219201
  %bf.set.i.i.i175 = or disjoint i64 %bf.shl.i.i.i173, %bf.clear7.i.i.i174
  store i64 %bf.set.i.i.i175, ptr %30, align 8, !noalias !34
  br label %invoke.cont70

if.else.i.i.i167:                                 ; preds = %call2.i.i.i.noexc176
  %cmp12.i.i.i168 = icmp eq i32 %bf.cast.i.i.i165, 1048574
  br i1 %cmp12.i.i.i168, label %if.then13.i.i.i169, label %invoke.cont70

if.then13.i.i.i169:                               ; preds = %if.else.i.i.i167
  %bf.set23.i.i.i170 = or i64 %bf.load.i.i.i163, 1152920405095219200
  store i64 %bf.set23.i.i.i170, ptr %30, align 8, !noalias !34
  invoke void @_ZN4cvc58internal4expr9NodeValue20markRefCountMaxedOutEv(ptr noundef nonnull align 8 dereferenceable(16) %30)
          to label %invoke.cont70 unwind label %lpad56.loopexit

invoke.cont70:                                    ; preds = %if.else.i.i.i167, %if.then.i.i.i171, %if.then13.i.i.i169
  call void @llvm.experimental.noalias.scope.decl(metadata !37)
  %d_kind.i.i.i.i180 = getelementptr inbounds %"class.cvc5::internal::expr::NodeValue", ptr %30, i64 0, i32 1
  %bf.load.i.i.i.i181 = load i16, ptr %d_kind.i.i.i.i180, align 8, !noalias !37
  %bf.clear.i.i.i.i182 = and i16 %bf.load.i.i.i.i181, 1023
  %bf.cast.i.i.i.i183 = zext nneg i16 %bf.clear.i.i.i.i182 to i32
  %cmp.i.i.i.i.i184 = icmp eq i16 %bf.clear.i.i.i.i182, 1023
  %cond.i.i.i.i.i185 = select i1 %cmp.i.i.i.i.i184, i32 -1, i32 %bf.cast.i.i.i.i183
  %call2.i.i.i204 = invoke noundef i32 @_ZN4cvc58internal4kind10metaKindOfENS1_6Kind_tE(i32 noundef %cond.i.i.i.i.i185)
          to label %call2.i.i.i.noexc203 unwind label %lpad71

call2.i.i.i.noexc203:                             ; preds = %invoke.cont70
  %cmp.i.i186 = icmp eq i32 %call2.i.i.i204, 2
  %inc.i.i187 = zext i1 %cmp.i.i186 to i32
  %spec.select.i.i = add nuw nsw i32 %i.01294, %inc.i.i187
  %idxprom.i.i188 = sext i32 %spec.select.i.i to i64
  %arrayidx.i.i189 = getelementptr inbounds %"class.cvc5::internal::expr::NodeValue", ptr %30, i64 0, i32 3, i64 %idxprom.i.i188
  %32 = load ptr, ptr %arrayidx.i.i189, align 8, !noalias !37
  store ptr %32, ptr %ref.tmp68, align 8, !alias.scope !37
  %bf.load.i.i.i190 = load i64, ptr %32, align 8, !noalias !37
  %bf.lshr.i.i.i191 = lshr i64 %bf.load.i.i.i190, 40
  %33 = trunc i64 %bf.lshr.i.i.i191 to i32
  %bf.cast.i.i.i192 = and i32 %33, 1048575
  %cmp.i.i.i193 = icmp ult i32 %bf.cast.i.i.i192, 1048574
  br i1 %cmp.i.i.i193, label %if.then.i.i.i198, label %if.else.i.i.i194

if.then.i.i.i198:                                 ; preds = %call2.i.i.i.noexc203
  %bf.value.i.i.i199 = add i64 %bf.load.i.i.i190, 1099511627776
  %bf.shl.i.i.i200 = and i64 %bf.value.i.i.i199, 1152920405095219200
  %bf.clear7.i.i.i201 = and i64 %bf.load.i.i.i190, -1152920405095219201
  %bf.set.i.i.i202 = or disjoint i64 %bf.shl.i.i.i200, %bf.clear7.i.i.i201
  store i64 %bf.set.i.i.i202, ptr %32, align 8, !noalias !37
  br label %invoke.cont72

if.else.i.i.i194:                                 ; preds = %call2.i.i.i.noexc203
  %cmp12.i.i.i195 = icmp eq i32 %bf.cast.i.i.i192, 1048574
  br i1 %cmp12.i.i.i195, label %if.then13.i.i.i196, label %invoke.cont72

if.then13.i.i.i196:                               ; preds = %if.else.i.i.i194
  %bf.set23.i.i.i197 = or i64 %bf.load.i.i.i190, 1152920405095219200
  store i64 %bf.set23.i.i.i197, ptr %32, align 8, !noalias !37
  invoke void @_ZN4cvc58internal4expr9NodeValue20markRefCountMaxedOutEv(ptr noundef nonnull align 8 dereferenceable(16) %32)
          to label %invoke.cont72 unwind label %lpad71

invoke.cont72:                                    ; preds = %if.else.i.i.i194, %if.then.i.i.i198, %if.then13.i.i.i196
  %34 = load ptr, ptr %_M_finish.i.i, align 8
  %35 = load ptr, ptr %_M_end_of_storage.i.i, align 8
  %cmp.not.i.i207 = icmp eq ptr %34, %35
  br i1 %cmp.not.i.i207, label %if.else.i.i209, label %if.then.i.i208

if.then.i.i208:                                   ; preds = %invoke.cont72
  %36 = load ptr, ptr %ref.tmp68, align 8
  store ptr %36, ptr %34, align 8
  %bf.load.i.i.i.i.i.i = load i64, ptr %36, align 8
  %bf.lshr.i.i.i.i.i.i = lshr i64 %bf.load.i.i.i.i.i.i, 40
  %37 = trunc i64 %bf.lshr.i.i.i.i.i.i to i32
  %bf.cast.i.i.i.i.i.i = and i32 %37, 1048575
  %cmp.i.i.i.i.i.i = icmp ult i32 %bf.cast.i.i.i.i.i.i, 1048574
  br i1 %cmp.i.i.i.i.i.i, label %if.then.i.i.i.i.i.i, label %if.else.i.i.i.i.i.i

if.then.i.i.i.i.i.i:                              ; preds = %if.then.i.i208
  %bf.value.i.i.i.i.i.i = add i64 %bf.load.i.i.i.i.i.i, 1099511627776
  %bf.shl.i.i.i.i.i.i = and i64 %bf.value.i.i.i.i.i.i, 1152920405095219200
  %bf.clear7.i.i.i.i.i.i = and i64 %bf.load.i.i.i.i.i.i, -1152920405095219201
  %bf.set.i.i.i.i.i.i = or disjoint i64 %bf.shl.i.i.i.i.i.i, %bf.clear7.i.i.i.i.i.i
  store i64 %bf.set.i.i.i.i.i.i, ptr %36, align 8
  br label %_ZNSt16allocator_traitsISaIN4cvc58internal12NodeTemplateILb1EEEEE9constructIS3_JS3_EEEvRS4_PT_DpOT0_.exit.i.i

if.else.i.i.i.i.i.i:                              ; preds = %if.then.i.i208
  %cmp12.i.i.i.i.i.i = icmp eq i32 %bf.cast.i.i.i.i.i.i, 1048574
  br i1 %cmp12.i.i.i.i.i.i, label %if.then13.i.i.i.i.i.i, label %_ZNSt16allocator_traitsISaIN4cvc58internal12NodeTemplateILb1EEEEE9constructIS3_JS3_EEEvRS4_PT_DpOT0_.exit.i.i

if.then13.i.i.i.i.i.i:                            ; preds = %if.else.i.i.i.i.i.i
  %bf.set23.i.i.i.i.i.i = or i64 %bf.load.i.i.i.i.i.i, 1152920405095219200
  store i64 %bf.set23.i.i.i.i.i.i, ptr %36, align 8
  invoke void @_ZN4cvc58internal4expr9NodeValue20markRefCountMaxedOutEv(ptr noundef nonnull align 8 dereferenceable(16) %36)
          to label %_ZNSt16allocator_traitsISaIN4cvc58internal12NodeTemplateILb1EEEEE9constructIS3_JS3_EEEvRS4_PT_DpOT0_.exit.i.i unwind label %lpad73

_ZNSt16allocator_traitsISaIN4cvc58internal12NodeTemplateILb1EEEEE9constructIS3_JS3_EEEvRS4_PT_DpOT0_.exit.i.i: ; preds = %if.then13.i.i.i.i.i.i, %if.else.i.i.i.i.i.i, %if.then.i.i.i.i.i.i
  %38 = load ptr, ptr %_M_finish.i.i, align 8
  %incdec.ptr.i.i = getelementptr inbounds %"class.cvc5::internal::NodeTemplate", ptr %38, i64 1
  store ptr %incdec.ptr.i.i, ptr %_M_finish.i.i, align 8
  br label %invoke.cont74

if.else.i.i209:                                   ; preds = %invoke.cont72
  invoke void @_ZNSt6vectorIN4cvc58internal12NodeTemplateILb1EEESaIS3_EE17_M_realloc_insertIJS3_EEEvN9__gnu_cxx17__normal_iteratorIPS3_S5_EEDpOT_(ptr noundef nonnull align 8 dereferenceable(24) %bvs, ptr %34, ptr noundef nonnull align 8 dereferenceable(8) %ref.tmp68)
          to label %invoke.cont74 unwind label %lpad73

invoke.cont74:                                    ; preds = %_ZNSt16allocator_traitsISaIN4cvc58internal12NodeTemplateILb1EEEEE9constructIS3_JS3_EEEvRS4_PT_DpOT0_.exit.i.i, %if.else.i.i209
  %39 = load ptr, ptr %ref.tmp68, align 8
  %bf.load.i.i212 = load i64, ptr %39, align 8
  %40 = and i64 %bf.load.i.i212, 1152920405095219200
  %cmp.not.i.i213 = icmp eq i64 %40, 1152920405095219200
  br i1 %cmp.not.i.i213, label %_ZN4cvc58internal12NodeTemplateILb1EED2Ev.exit222, label %if.then.i.i214

if.then.i.i214:                                   ; preds = %invoke.cont74
  %bf.value.i.i215 = add i64 %bf.load.i.i212, 1152920405095219200
  %bf.shl.i.i216 = and i64 %bf.value.i.i215, 1152920405095219200
  %bf.clear7.i.i217 = and i64 %bf.load.i.i212, -1152920405095219201
  %bf.set.i.i218 = or disjoint i64 %bf.shl.i.i216, %bf.clear7.i.i217
  store i64 %bf.set.i.i218, ptr %39, align 8
  %cmp12.i.i219 = icmp eq i64 %bf.shl.i.i216, 0
  br i1 %cmp12.i.i219, label %if.then13.i.i220, label %_ZN4cvc58internal12NodeTemplateILb1EED2Ev.exit222

if.then13.i.i220:                                 ; preds = %if.then.i.i214
  invoke void @_ZN4cvc58internal4expr9NodeValue15markForDeletionEv(ptr noundef nonnull align 8 dereferenceable(16) %39)
          to label %_ZN4cvc58internal12NodeTemplateILb1EED2Ev.exit222 unwind label %terminate.lpad.i221

terminate.lpad.i221:                              ; preds = %if.then13.i.i220
  %41 = landingpad { ptr, i32 }
          catch ptr null
  %42 = extractvalue { ptr, i32 } %41, 0
  call void @__clang_call_terminate(ptr %42) #22
  unreachable

_ZN4cvc58internal12NodeTemplateILb1EED2Ev.exit222: ; preds = %invoke.cont74, %if.then.i.i214, %if.then13.i.i220
  %bf.load.i.i223 = load i64, ptr %30, align 8
  %43 = and i64 %bf.load.i.i223, 1152920405095219200
  %cmp.not.i.i224 = icmp eq i64 %43, 1152920405095219200
  br i1 %cmp.not.i.i224, label %for.inc, label %if.then.i.i225

if.then.i.i225:                                   ; preds = %_ZN4cvc58internal12NodeTemplateILb1EED2Ev.exit222
  %bf.value.i.i226 = add i64 %bf.load.i.i223, 1152920405095219200
  %bf.shl.i.i227 = and i64 %bf.value.i.i226, 1152920405095219200
  %bf.clear7.i.i228 = and i64 %bf.load.i.i223, -1152920405095219201
  %bf.set.i.i229 = or disjoint i64 %bf.shl.i.i227, %bf.clear7.i.i228
  store i64 %bf.set.i.i229, ptr %30, align 8
  %cmp12.i.i230 = icmp eq i64 %bf.shl.i.i227, 0
  br i1 %cmp12.i.i230, label %if.then13.i.i231, label %for.inc

if.then13.i.i231:                                 ; preds = %if.then.i.i225
  invoke void @_ZN4cvc58internal4expr9NodeValue15markForDeletionEv(ptr noundef nonnull align 8 dereferenceable(16) %30)
          to label %for.inc unwind label %terminate.lpad.i232

terminate.lpad.i232:                              ; preds = %if.then13.i.i231
  %44 = landingpad { ptr, i32 }
          catch ptr null
  %45 = extractvalue { ptr, i32 } %44, 0
  call void @__clang_call_terminate(ptr %45) #22
  unreachable

lpad.loopexit:                                    ; preds = %if.then13.i.i1169
  %lpad.loopexit1283 = landingpad { ptr, i32 }
          cleanup
  br label %ehcleanup320

lpad.loopexit.split-lp:                           ; preds = %if.then13.i.i
  %lpad.loopexit.split-lp1284 = landingpad { ptr, i32 }
          cleanup
  br label %ehcleanup320

lpad15:                                           ; preds = %if.then51
  %46 = landingpad { ptr, i32 }
          cleanup
  br label %ehcleanup267

lpad33:                                           ; preds = %cond.true18
  %47 = landingpad { ptr, i32 }
          cleanup
  br label %ehcleanup267

lpad38:                                           ; preds = %if.end15.i.i.i.i.i, %land.lhs.true
  %48 = landingpad { ptr, i32 }
          cleanup
  br label %ehcleanup267

lpad56.loopexit:                                  ; preds = %if.then67, %if.then13.i.i.i169
  %lpad.loopexit1288 = landingpad { ptr, i32 }
          cleanup
  br label %ehcleanup265

lpad56.loopexit.split-lp:                         ; preds = %invoke.cont53, %if.then13.i.i.i
  %lpad.loopexit.split-lp1289 = landingpad { ptr, i32 }
          cleanup
  br label %ehcleanup265

lpad58:                                           ; preds = %invoke.cont57
  %49 = landingpad { ptr, i32 }
          cleanup
  call void @_ZN4cvc58internal12NodeTemplateILb1EED2Ev(ptr noundef nonnull align 8 dereferenceable(8) %ref.tmp55) #21
  br label %ehcleanup265

lpad71:                                           ; preds = %if.then13.i.i.i196, %invoke.cont70
  %50 = landingpad { ptr, i32 }
          cleanup
  br label %ehcleanup76

lpad73:                                           ; preds = %if.else.i.i209, %if.then13.i.i.i.i.i.i
  %51 = landingpad { ptr, i32 }
          cleanup
  call void @_ZN4cvc58internal12NodeTemplateILb1EED2Ev(ptr noundef nonnull align 8 dereferenceable(8) %ref.tmp68) #21
  br label %ehcleanup76

ehcleanup76:                                      ; preds = %lpad73, %lpad71
  %.pn36 = phi { ptr, i32 } [ %51, %lpad73 ], [ %50, %lpad71 ]
  call void @_ZN4cvc58internal12NodeTemplateILb1EED2Ev(ptr noundef nonnull align 8 dereferenceable(8) %ref.tmp69) #21
  br label %ehcleanup265

for.inc:                                          ; preds = %if.then13.i.i231, %if.then.i.i225, %_ZN4cvc58internal12NodeTemplateILb1EED2Ev.exit222, %for.body64
  %inc = add nuw i32 %i.01294, 1
  %exitcond.not = icmp eq i32 %inc, %cond.i.i
  br i1 %exitcond.not, label %for.end, label %for.body64, !llvm.loop !40

for.end:                                          ; preds = %for.inc, %_ZN4cvc58internal12NodeTemplateILb1EED2Ev.exit
  call void @llvm.memset.p0.i64(ptr noundef nonnull align 8 dereferenceable(24) %disj, i8 0, i64 24, i1 false)
  invoke void @_ZNK4cvc58internal12NodeTemplateILb1EE6negateEv(ptr nonnull sret(%"class.cvc5::internal::NodeTemplate") align 8 %ref.tmp78, ptr noundef nonnull align 8 dereferenceable(8) %q)
          to label %invoke.cont80 unwind label %lpad79

invoke.cont80:                                    ; preds = %for.end
  %52 = load ptr, ptr %_M_finish.i.i234, align 8
  %53 = load ptr, ptr %_M_end_of_storage.i.i235, align 8
  %cmp.not.i.i236 = icmp eq ptr %52, %53
  br i1 %cmp.not.i.i236, label %if.else.i.i253, label %if.then.i.i237

if.then.i.i237:                                   ; preds = %invoke.cont80
  %54 = load ptr, ptr %ref.tmp78, align 8
  store ptr %54, ptr %52, align 8
  %bf.load.i.i.i.i.i.i238 = load i64, ptr %54, align 8
  %bf.lshr.i.i.i.i.i.i239 = lshr i64 %bf.load.i.i.i.i.i.i238, 40
  %55 = trunc i64 %bf.lshr.i.i.i.i.i.i239 to i32
  %bf.cast.i.i.i.i.i.i240 = and i32 %55, 1048575
  %cmp.i.i.i.i.i.i241 = icmp ult i32 %bf.cast.i.i.i.i.i.i240, 1048574
  br i1 %cmp.i.i.i.i.i.i241, label %if.then.i.i.i.i.i.i248, label %if.else.i.i.i.i.i.i242

if.then.i.i.i.i.i.i248:                           ; preds = %if.then.i.i237
  %bf.value.i.i.i.i.i.i249 = add i64 %bf.load.i.i.i.i.i.i238, 1099511627776
  %bf.shl.i.i.i.i.i.i250 = and i64 %bf.value.i.i.i.i.i.i249, 1152920405095219200
  %bf.clear7.i.i.i.i.i.i251 = and i64 %bf.load.i.i.i.i.i.i238, -1152920405095219201
  %bf.set.i.i.i.i.i.i252 = or disjoint i64 %bf.shl.i.i.i.i.i.i250, %bf.clear7.i.i.i.i.i.i251
  store i64 %bf.set.i.i.i.i.i.i252, ptr %54, align 8
  br label %_ZNSt16allocator_traitsISaIN4cvc58internal12NodeTemplateILb1EEEEE9constructIS3_JS3_EEEvRS4_PT_DpOT0_.exit.i.i244

if.else.i.i.i.i.i.i242:                           ; preds = %if.then.i.i237
  %cmp12.i.i.i.i.i.i243 = icmp eq i32 %bf.cast.i.i.i.i.i.i240, 1048574
  br i1 %cmp12.i.i.i.i.i.i243, label %if.then13.i.i.i.i.i.i246, label %_ZNSt16allocator_traitsISaIN4cvc58internal12NodeTemplateILb1EEEEE9constructIS3_JS3_EEEvRS4_PT_DpOT0_.exit.i.i244

if.then13.i.i.i.i.i.i246:                         ; preds = %if.else.i.i.i.i.i.i242
  %bf.set23.i.i.i.i.i.i247 = or i64 %bf.load.i.i.i.i.i.i238, 1152920405095219200
  store i64 %bf.set23.i.i.i.i.i.i247, ptr %54, align 8
  invoke void @_ZN4cvc58internal4expr9NodeValue20markRefCountMaxedOutEv(ptr noundef nonnull align 8 dereferenceable(16) %54)
          to label %_ZNSt16allocator_traitsISaIN4cvc58internal12NodeTemplateILb1EEEEE9constructIS3_JS3_EEEvRS4_PT_DpOT0_.exit.i.i244 unwind label %lpad81

_ZNSt16allocator_traitsISaIN4cvc58internal12NodeTemplateILb1EEEEE9constructIS3_JS3_EEEvRS4_PT_DpOT0_.exit.i.i244: ; preds = %if.then13.i.i.i.i.i.i246, %if.else.i.i.i.i.i.i242, %if.then.i.i.i.i.i.i248
  %56 = load ptr, ptr %_M_finish.i.i234, align 8
  %incdec.ptr.i.i245 = getelementptr inbounds %"class.cvc5::internal::NodeTemplate", ptr %56, i64 1
  store ptr %incdec.ptr.i.i245, ptr %_M_finish.i.i234, align 8
  br label %invoke.cont82

if.else.i.i253:                                   ; preds = %invoke.cont80
  invoke void @_ZNSt6vectorIN4cvc58internal12NodeTemplateILb1EEESaIS3_EE17_M_realloc_insertIJS3_EEEvN9__gnu_cxx17__normal_iteratorIPS3_S5_EEDpOT_(ptr noundef nonnull align 8 dereferenceable(24) %disj, ptr %52, ptr noundef nonnull align 8 dereferenceable(8) %ref.tmp78)
          to label %invoke.cont82 unwind label %lpad81

invoke.cont82:                                    ; preds = %_ZNSt16allocator_traitsISaIN4cvc58internal12NodeTemplateILb1EEEEE9constructIS3_JS3_EEEvRS4_PT_DpOT0_.exit.i.i244, %if.else.i.i253
  %57 = load ptr, ptr %ref.tmp78, align 8
  %bf.load.i.i257 = load i64, ptr %57, align 8
  %58 = and i64 %bf.load.i.i257, 1152920405095219200
  %cmp.not.i.i258 = icmp eq i64 %58, 1152920405095219200
  br i1 %cmp.not.i.i258, label %_ZN4cvc58internal12NodeTemplateILb1EED2Ev.exit267, label %if.then.i.i259

if.then.i.i259:                                   ; preds = %invoke.cont82
  %bf.value.i.i260 = add i64 %bf.load.i.i257, 1152920405095219200
  %bf.shl.i.i261 = and i64 %bf.value.i.i260, 1152920405095219200
  %bf.clear7.i.i262 = and i64 %bf.load.i.i257, -1152920405095219201
  %bf.set.i.i263 = or disjoint i64 %bf.shl.i.i261, %bf.clear7.i.i262
  store i64 %bf.set.i.i263, ptr %57, align 8
  %cmp12.i.i264 = icmp eq i64 %bf.shl.i.i261, 0
  br i1 %cmp12.i.i264, label %if.then13.i.i265, label %_ZN4cvc58internal12NodeTemplateILb1EED2Ev.exit267

if.then13.i.i265:                                 ; preds = %if.then.i.i259
  invoke void @_ZN4cvc58internal4expr9NodeValue15markForDeletionEv(ptr noundef nonnull align 8 dereferenceable(16) %57)
          to label %_ZN4cvc58internal12NodeTemplateILb1EED2Ev.exit267 unwind label %terminate.lpad.i266

terminate.lpad.i266:                              ; preds = %if.then13.i.i265
  %59 = landingpad { ptr, i32 }
          catch ptr null
  %60 = extractvalue { ptr, i32 } %59, 0
  call void @__clang_call_terminate(ptr %60) #22
  unreachable

_ZN4cvc58internal12NodeTemplateILb1EED2Ev.exit267: ; preds = %invoke.cont82, %if.then.i.i259, %if.then13.i.i265
  call void @llvm.experimental.noalias.scope.decl(metadata !41)
  %61 = load ptr, ptr %q, align 8, !noalias !41
  %d_kind.i.i.i.i268 = getelementptr inbounds %"class.cvc5::internal::expr::NodeValue", ptr %61, i64 0, i32 1
  %bf.load.i.i.i.i269 = load i16, ptr %d_kind.i.i.i.i268, align 8, !noalias !41
  %bf.clear.i.i.i.i270 = and i16 %bf.load.i.i.i.i269, 1023
  %bf.cast.i.i.i.i271 = zext nneg i16 %bf.clear.i.i.i.i270 to i32
  %cmp.i.i.i.i.i272 = icmp eq i16 %bf.clear.i.i.i.i270, 1023
  %cond.i.i.i.i.i273 = select i1 %cmp.i.i.i.i.i272, i32 -1, i32 %bf.cast.i.i.i.i271
  %call2.i.i.i292 = invoke noundef i32 @_ZN4cvc58internal4kind10metaKindOfENS1_6Kind_tE(i32 noundef %cond.i.i.i.i.i273)
          to label %call2.i.i.i.noexc291 unwind label %lpad79

call2.i.i.i.noexc291:                             ; preds = %_ZN4cvc58internal12NodeTemplateILb1EED2Ev.exit267
  %cmp.i.i274 = icmp eq i32 %call2.i.i.i292, 2
  %idxprom.i.i276 = zext i1 %cmp.i.i274 to i64
  %arrayidx.i.i277 = getelementptr inbounds %"class.cvc5::internal::expr::NodeValue", ptr %61, i64 0, i32 3, i64 %idxprom.i.i276
  %62 = load ptr, ptr %arrayidx.i.i277, align 8, !noalias !41
  store ptr %62, ptr %ref.tmp85, align 8, !alias.scope !41
  %bf.load.i.i.i278 = load i64, ptr %62, align 8, !noalias !41
  %bf.lshr.i.i.i279 = lshr i64 %bf.load.i.i.i278, 40
  %63 = trunc i64 %bf.lshr.i.i.i279 to i32
  %bf.cast.i.i.i280 = and i32 %63, 1048575
  %cmp.i.i.i281 = icmp ult i32 %bf.cast.i.i.i280, 1048574
  br i1 %cmp.i.i.i281, label %if.then.i.i.i286, label %if.else.i.i.i282

if.then.i.i.i286:                                 ; preds = %call2.i.i.i.noexc291
  %bf.value.i.i.i287 = add i64 %bf.load.i.i.i278, 1099511627776
  %bf.shl.i.i.i288 = and i64 %bf.value.i.i.i287, 1152920405095219200
  %bf.clear7.i.i.i289 = and i64 %bf.load.i.i.i278, -1152920405095219201
  %bf.set.i.i.i290 = or disjoint i64 %bf.shl.i.i.i288, %bf.clear7.i.i.i289
  store i64 %bf.set.i.i.i290, ptr %62, align 8, !noalias !41
  br label %invoke.cont86

if.else.i.i.i282:                                 ; preds = %call2.i.i.i.noexc291
  %cmp12.i.i.i283 = icmp eq i32 %bf.cast.i.i.i280, 1048574
  br i1 %cmp12.i.i.i283, label %if.then13.i.i.i284, label %invoke.cont86

if.then13.i.i.i284:                               ; preds = %if.else.i.i.i282
  %bf.set23.i.i.i285 = or i64 %bf.load.i.i.i278, 1152920405095219200
  store i64 %bf.set23.i.i.i285, ptr %62, align 8, !noalias !41
  invoke void @_ZN4cvc58internal4expr9NodeValue20markRefCountMaxedOutEv(ptr noundef nonnull align 8 dereferenceable(16) %62)
          to label %invoke.cont86 unwind label %lpad79

invoke.cont86:                                    ; preds = %if.else.i.i.i282, %if.then.i.i.i286, %if.then13.i.i.i284
  %second88 = getelementptr inbounds %"struct.std::_Rb_tree_node", ptr %it.sroa.0.01300, i64 0, i32 1, i32 0, i64 8
  %64 = load i32, ptr %second88, align 8
  %d_kind.i.i.i.i296 = getelementptr inbounds %"class.cvc5::internal::expr::NodeValue", ptr %62, i64 0, i32 1
  %bf.load.i.i.i.i297 = load i16, ptr %d_kind.i.i.i.i296, align 8, !noalias !44
  %bf.clear.i.i.i.i298 = and i16 %bf.load.i.i.i.i297, 1023
  %bf.cast.i.i.i.i299 = zext nneg i16 %bf.clear.i.i.i.i298 to i32
  %cmp.i.i.i.i.i300 = icmp eq i16 %bf.clear.i.i.i.i298, 1023
  %cond.i.i.i.i.i301 = select i1 %cmp.i.i.i.i.i300, i32 -1, i32 %bf.cast.i.i.i.i299
  %call2.i.i.i321 = invoke noundef i32 @_ZN4cvc58internal4kind10metaKindOfENS1_6Kind_tE(i32 noundef %cond.i.i.i.i.i301)
          to label %call2.i.i.i.noexc320 unwind label %lpad89

call2.i.i.i.noexc320:                             ; preds = %invoke.cont86
  %cmp.i.i302 = icmp eq i32 %call2.i.i.i321, 2
  %inc.i.i303 = zext i1 %cmp.i.i302 to i32
  %spec.select.i.i304 = add nsw i32 %64, %inc.i.i303
  %idxprom.i.i305 = sext i32 %spec.select.i.i304 to i64
  %arrayidx.i.i306 = getelementptr inbounds %"class.cvc5::internal::expr::NodeValue", ptr %62, i64 0, i32 3, i64 %idxprom.i.i305
  %65 = load ptr, ptr %arrayidx.i.i306, align 8, !noalias !44
  %bf.load.i.i.i307 = load i64, ptr %65, align 8, !noalias !44
  %bf.lshr.i.i.i308 = lshr i64 %bf.load.i.i.i307, 40
  %66 = trunc i64 %bf.lshr.i.i.i308 to i32
  %bf.cast.i.i.i309 = and i32 %66, 1048575
  %cmp.i.i.i310 = icmp ult i32 %bf.cast.i.i.i309, 1048574
  br i1 %cmp.i.i.i310, label %if.then.i.i.i315, label %if.else.i.i.i311

if.then.i.i.i315:                                 ; preds = %call2.i.i.i.noexc320
  %bf.value.i.i.i316 = add i64 %bf.load.i.i.i307, 1099511627776
  %bf.shl.i.i.i317 = and i64 %bf.value.i.i.i316, 1152920405095219200
  %bf.clear7.i.i.i318 = and i64 %bf.load.i.i.i307, -1152920405095219201
  %bf.set.i.i.i319 = or disjoint i64 %bf.shl.i.i.i317, %bf.clear7.i.i.i318
  store i64 %bf.set.i.i.i319, ptr %65, align 8, !noalias !44
  br label %invoke.cont90

if.else.i.i.i311:                                 ; preds = %call2.i.i.i.noexc320
  %cmp12.i.i.i312 = icmp eq i32 %bf.cast.i.i.i309, 1048574
  br i1 %cmp12.i.i.i312, label %if.then13.i.i.i313, label %invoke.cont90

if.then13.i.i.i313:                               ; preds = %if.else.i.i.i311
  %bf.set23.i.i.i314 = or i64 %bf.load.i.i.i307, 1152920405095219200
  store i64 %bf.set23.i.i.i314, ptr %65, align 8, !noalias !44
  invoke void @_ZN4cvc58internal4expr9NodeValue20markRefCountMaxedOutEv(ptr noundef nonnull align 8 dereferenceable(16) %65)
          to label %invoke.cont90 unwind label %lpad89

invoke.cont90:                                    ; preds = %if.else.i.i.i311, %if.then.i.i.i315, %if.then13.i.i.i313
  store ptr %65, ptr %svar, align 8
  %bf.load.i.i324 = load i64, ptr %65, align 8
  %67 = and i64 %bf.load.i.i324, 1152920405095219200
  %cmp.not.i.i325 = icmp eq i64 %67, 1152920405095219200
  br i1 %cmp.not.i.i325, label %_ZN4cvc58internal12NodeTemplateILb1EED2Ev.exit334, label %if.then.i.i326

if.then.i.i326:                                   ; preds = %invoke.cont90
  %bf.value.i.i327 = add i64 %bf.load.i.i324, 1152920405095219200
  %bf.shl.i.i328 = and i64 %bf.value.i.i327, 1152920405095219200
  %bf.clear7.i.i329 = and i64 %bf.load.i.i324, -1152920405095219201
  %bf.set.i.i330 = or disjoint i64 %bf.shl.i.i328, %bf.clear7.i.i329
  store i64 %bf.set.i.i330, ptr %65, align 8
  %cmp12.i.i331 = icmp eq i64 %bf.shl.i.i328, 0
  br i1 %cmp12.i.i331, label %if.then13.i.i332, label %_ZN4cvc58internal12NodeTemplateILb1EED2Ev.exit334

if.then13.i.i332:                                 ; preds = %if.then.i.i326
  invoke void @_ZN4cvc58internal4expr9NodeValue15markForDeletionEv(ptr noundef nonnull align 8 dereferenceable(16) %65)
          to label %_ZN4cvc58internal12NodeTemplateILb1EED2Ev.exit334 unwind label %terminate.lpad.i333

terminate.lpad.i333:                              ; preds = %if.then13.i.i332
  %68 = landingpad { ptr, i32 }
          catch ptr null
  %69 = extractvalue { ptr, i32 } %68, 0
  call void @__clang_call_terminate(ptr %69) #22
  unreachable

_ZN4cvc58internal12NodeTemplateILb1EED2Ev.exit334: ; preds = %invoke.cont90, %if.then.i.i326, %if.then13.i.i332
  %bf.load.i.i335 = load i64, ptr %62, align 8
  %70 = and i64 %bf.load.i.i335, 1152920405095219200
  %cmp.not.i.i336 = icmp eq i64 %70, 1152920405095219200
  br i1 %cmp.not.i.i336, label %_ZN4cvc58internal12NodeTemplateILb1EED2Ev.exit345, label %if.then.i.i337

if.then.i.i337:                                   ; preds = %_ZN4cvc58internal12NodeTemplateILb1EED2Ev.exit334
  %bf.value.i.i338 = add i64 %bf.load.i.i335, 1152920405095219200
  %bf.shl.i.i339 = and i64 %bf.value.i.i338, 1152920405095219200
  %bf.clear7.i.i340 = and i64 %bf.load.i.i335, -1152920405095219201
  %bf.set.i.i341 = or disjoint i64 %bf.shl.i.i339, %bf.clear7.i.i340
  store i64 %bf.set.i.i341, ptr %62, align 8
  %cmp12.i.i342 = icmp eq i64 %bf.shl.i.i339, 0
  br i1 %cmp12.i.i342, label %if.then13.i.i343, label %_ZN4cvc58internal12NodeTemplateILb1EED2Ev.exit345

if.then13.i.i343:                                 ; preds = %if.then.i.i337
  invoke void @_ZN4cvc58internal4expr9NodeValue15markForDeletionEv(ptr noundef nonnull align 8 dereferenceable(16) %62)
          to label %_ZN4cvc58internal12NodeTemplateILb1EED2Ev.exit345 unwind label %terminate.lpad.i344

terminate.lpad.i344:                              ; preds = %if.then13.i.i343
  %71 = landingpad { ptr, i32 }
          catch ptr null
  %72 = extractvalue { ptr, i32 } %71, 0
  call void @__clang_call_terminate(ptr %72) #22
  unreachable

_ZN4cvc58internal12NodeTemplateILb1EED2Ev.exit345: ; preds = %_ZN4cvc58internal12NodeTemplateILb1EED2Ev.exit334, %if.then.i.i337, %if.then13.i.i343
  invoke void @_ZNK4cvc58internal12NodeTemplateILb0EE7getTypeEb(ptr nonnull sret(%"class.cvc5::internal::TypeNode") align 8 %tn, ptr noundef nonnull align 8 dereferenceable(8) %svar, i1 noundef zeroext false)
          to label %invoke.cont96 unwind label %lpad95

invoke.cont96:                                    ; preds = %_ZN4cvc58internal12NodeTemplateILb1EED2Ev.exit345
  call void @llvm.memset.p0.i64(ptr noundef nonnull align 8 dereferenceable(24) %cons, i8 0, i64 24, i1 false)
  %call99 = invoke noundef nonnull align 8 dereferenceable(448) ptr @_ZNK4cvc58internal8TypeNode8getDTypeEv(ptr noundef nonnull align 8 dereferenceable(8) %tn)
          to label %invoke.cont98 unwind label %lpad97

invoke.cont98:                                    ; preds = %invoke.cont96
  %call101 = invoke noundef i64 @_ZNK4cvc58internal5DType18getNumConstructorsEv(ptr noundef nonnull align 8 dereferenceable(448) %call99)
          to label %invoke.cont100 unwind label %lpad97

invoke.cont100:                                   ; preds = %invoke.cont98
  %73 = and i64 %call101, 4294967295
  %cmp1041297.not = icmp eq i64 %73, 0
  br i1 %cmp1041297.not, label %for.end237, label %for.body105.preheader

for.body105.preheader:                            ; preds = %invoke.cont100
  %wide.trip.count = and i64 %call101, 4294967295
  br label %for.body105

for.body105:                                      ; preds = %for.body105.preheader, %_ZNSt6vectorIN4cvc58internal12NodeTemplateILb1EEESaIS3_EED2Ev.exit840
  %indvars.iv = phi i64 [ 0, %for.body105.preheader ], [ %indvars.iv.next, %_ZNSt6vectorIN4cvc58internal12NodeTemplateILb1EEESaIS3_EED2Ev.exit840 ]
  call void @llvm.memset.p0.i64(ptr noundef nonnull align 8 dereferenceable(24) %vars, i8 0, i64 24, i1 false)
  %call109 = invoke noundef nonnull align 8 dereferenceable(264) ptr @_ZNK4cvc58internal5DTypeixEm(ptr noundef nonnull align 8 dereferenceable(448) %call99, i64 noundef %indvars.iv)
          to label %invoke.cont108 unwind label %lpad107

invoke.cont108:                                   ; preds = %for.body105
  %74 = load ptr, ptr %tn, align 8
  store ptr %74, ptr %agg.tmp110, align 8
  %bf.load.i.i346 = load i64, ptr %74, align 8
  %bf.lshr.i.i347 = lshr i64 %bf.load.i.i346, 40
  %75 = trunc i64 %bf.lshr.i.i347 to i32
  %bf.cast.i.i348 = and i32 %75, 1048575
  %cmp.i.i349 = icmp ult i32 %bf.cast.i.i348, 1048574
  br i1 %cmp.i.i349, label %if.then.i.i354, label %if.else.i.i350

if.then.i.i354:                                   ; preds = %invoke.cont108
  %bf.value.i.i355 = add i64 %bf.load.i.i346, 1099511627776
  %bf.shl.i.i356 = and i64 %bf.value.i.i355, 1152920405095219200
  %bf.clear7.i.i357 = and i64 %bf.load.i.i346, -1152920405095219201
  %bf.set.i.i358 = or disjoint i64 %bf.shl.i.i356, %bf.clear7.i.i357
  store i64 %bf.set.i.i358, ptr %74, align 8
  br label %invoke.cont111

if.else.i.i350:                                   ; preds = %invoke.cont108
  %cmp12.i.i351 = icmp eq i32 %bf.cast.i.i348, 1048574
  br i1 %cmp12.i.i351, label %if.then13.i.i352, label %invoke.cont111

if.then13.i.i352:                                 ; preds = %if.else.i.i350
  %bf.set23.i.i353 = or i64 %bf.load.i.i346, 1152920405095219200
  store i64 %bf.set23.i.i353, ptr %74, align 8
  invoke void @_ZN4cvc58internal4expr9NodeValue20markRefCountMaxedOutEv(ptr noundef nonnull align 8 dereferenceable(16) %74)
          to label %invoke.cont111 unwind label %lpad107

invoke.cont111:                                   ; preds = %if.else.i.i350, %if.then.i.i354, %if.then13.i.i352
  invoke void @_ZNK4cvc58internal16DTypeConstructor30getInstantiatedConstructorTypeENS0_8TypeNodeE(ptr nonnull sret(%"class.cvc5::internal::TypeNode") align 8 %dtjtn, ptr noundef nonnull align 8 dereferenceable(264) %call109, ptr noundef nonnull %agg.tmp110)
          to label %invoke.cont113 unwind label %lpad112

invoke.cont113:                                   ; preds = %invoke.cont111
  %76 = load ptr, ptr %agg.tmp110, align 8
  %bf.load.i.i360 = load i64, ptr %76, align 8
  %77 = and i64 %bf.load.i.i360, 1152920405095219200
  %cmp.not.i.i361 = icmp eq i64 %77, 1152920405095219200
  br i1 %cmp.not.i.i361, label %_ZN4cvc58internal8TypeNodeD2Ev.exit, label %if.then.i.i362

if.then.i.i362:                                   ; preds = %invoke.cont113
  %bf.value.i.i363 = add i64 %bf.load.i.i360, 1152920405095219200
  %bf.shl.i.i364 = and i64 %bf.value.i.i363, 1152920405095219200
  %bf.clear7.i.i365 = and i64 %bf.load.i.i360, -1152920405095219201
  %bf.set.i.i366 = or disjoint i64 %bf.shl.i.i364, %bf.clear7.i.i365
  store i64 %bf.set.i.i366, ptr %76, align 8
  %cmp12.i.i367 = icmp eq i64 %bf.shl.i.i364, 0
  br i1 %cmp12.i.i367, label %if.then13.i.i368, label %_ZN4cvc58internal8TypeNodeD2Ev.exit

if.then13.i.i368:                                 ; preds = %if.then.i.i362
  invoke void @_ZN4cvc58internal4expr9NodeValue15markForDeletionEv(ptr noundef nonnull align 8 dereferenceable(16) %76)
          to label %_ZN4cvc58internal8TypeNodeD2Ev.exit unwind label %terminate.lpad.i369

terminate.lpad.i369:                              ; preds = %if.then13.i.i368
  %78 = landingpad { ptr, i32 }
          catch ptr null
  %79 = extractvalue { ptr, i32 } %78, 0
  call void @__clang_call_terminate(ptr %79) #22
  unreachable

_ZN4cvc58internal8TypeNodeD2Ev.exit:              ; preds = %invoke.cont113, %if.then.i.i362, %if.then13.i.i368
  %call118 = invoke noundef nonnull align 8 dereferenceable(264) ptr @_ZNK4cvc58internal5DTypeixEm(ptr noundef nonnull align 8 dereferenceable(448) %call99, i64 noundef %indvars.iv)
          to label %invoke.cont117 unwind label %lpad116.loopexit.split-lp

invoke.cont117:                                   ; preds = %_ZN4cvc58internal8TypeNodeD2Ev.exit
  %call120 = invoke noundef i64 @_ZNK4cvc58internal16DTypeConstructor10getNumArgsEv(ptr noundef nonnull align 8 dereferenceable(264) %call118)
          to label %invoke.cont119 unwind label %lpad116.loopexit.split-lp

invoke.cont119:                                   ; preds = %invoke.cont117
  %conv121 = trunc i64 %call120 to i32
  %cmp1231295.not = icmp eq i32 %conv121, 0
  br i1 %cmp1231295.not, label %for.end134, label %for.body124

for.body124:                                      ; preds = %invoke.cont119, %_ZN4cvc58internal8TypeNodeD2Ev.exit425
  %k.01296 = phi i32 [ %inc133, %_ZN4cvc58internal8TypeNodeD2Ev.exit425 ], [ 0, %invoke.cont119 ]
  call void @llvm.experimental.noalias.scope.decl(metadata !47)
  %80 = load ptr, ptr %dtjtn, align 8, !noalias !47
  %d_kind.i.i.i.i370 = getelementptr inbounds %"class.cvc5::internal::expr::NodeValue", ptr %80, i64 0, i32 1
  %bf.load.i.i.i.i371 = load i16, ptr %d_kind.i.i.i.i370, align 8, !noalias !47
  %bf.clear.i.i.i.i372 = and i16 %bf.load.i.i.i.i371, 1023
  %bf.cast.i.i.i.i373 = zext nneg i16 %bf.clear.i.i.i.i372 to i32
  %cmp.i.i.i.i.i374 = icmp eq i16 %bf.clear.i.i.i.i372, 1023
  %cond.i.i.i.i.i375 = select i1 %cmp.i.i.i.i.i374, i32 -1, i32 %bf.cast.i.i.i.i373
  %call2.i.i.i395 = invoke noundef i32 @_ZN4cvc58internal4kind10metaKindOfENS1_6Kind_tE(i32 noundef %cond.i.i.i.i.i375)
          to label %call2.i.i.i.noexc394 unwind label %lpad116.loopexit

call2.i.i.i.noexc394:                             ; preds = %for.body124
  %cmp.i.i376 = icmp eq i32 %call2.i.i.i395, 2
  %inc.i.i377 = zext i1 %cmp.i.i376 to i32
  %spec.select.i.i378 = add nuw nsw i32 %k.01296, %inc.i.i377
  %idxprom.i.i379 = sext i32 %spec.select.i.i378 to i64
  %arrayidx.i.i380 = getelementptr inbounds %"class.cvc5::internal::expr::NodeValue", ptr %80, i64 0, i32 3, i64 %idxprom.i.i379
  %81 = load ptr, ptr %arrayidx.i.i380, align 8, !noalias !47
  store ptr %81, ptr %tns, align 8, !alias.scope !47
  %bf.load.i.i.i381 = load i64, ptr %81, align 8, !noalias !47
  %bf.lshr.i.i.i382 = lshr i64 %bf.load.i.i.i381, 40
  %82 = trunc i64 %bf.lshr.i.i.i382 to i32
  %bf.cast.i.i.i383 = and i32 %82, 1048575
  %cmp.i.i.i384 = icmp ult i32 %bf.cast.i.i.i383, 1048574
  br i1 %cmp.i.i.i384, label %if.then.i.i.i389, label %if.else.i.i.i385

if.then.i.i.i389:                                 ; preds = %call2.i.i.i.noexc394
  %bf.value.i.i.i390 = add i64 %bf.load.i.i.i381, 1099511627776
  %bf.shl.i.i.i391 = and i64 %bf.value.i.i.i390, 1152920405095219200
  %bf.clear7.i.i.i392 = and i64 %bf.load.i.i.i381, -1152920405095219201
  %bf.set.i.i.i393 = or disjoint i64 %bf.shl.i.i.i391, %bf.clear7.i.i.i392
  store i64 %bf.set.i.i.i393, ptr %81, align 8, !noalias !47
  br label %invoke.cont125

if.else.i.i.i385:                                 ; preds = %call2.i.i.i.noexc394
  %cmp12.i.i.i386 = icmp eq i32 %bf.cast.i.i.i383, 1048574
  br i1 %cmp12.i.i.i386, label %if.then13.i.i.i387, label %invoke.cont125

if.then13.i.i.i387:                               ; preds = %if.else.i.i.i385
  %bf.set23.i.i.i388 = or i64 %bf.load.i.i.i381, 1152920405095219200
  store i64 %bf.set23.i.i.i388, ptr %81, align 8, !noalias !47
  invoke void @_ZN4cvc58internal4expr9NodeValue20markRefCountMaxedOutEv(ptr noundef nonnull align 8 dereferenceable(16) %81)
          to label %invoke.cont125 unwind label %lpad116.loopexit

invoke.cont125:                                   ; preds = %if.else.i.i.i385, %if.then.i.i.i389, %if.then13.i.i.i387
  invoke void @_ZN4cvc58internal11NodeManager10mkBoundVarERKNS0_8TypeNodeE(ptr nonnull sret(%"class.cvc5::internal::NodeTemplate") align 8 %v, ptr noundef nonnull align 8 dereferenceable(3360) %call5, ptr noundef nonnull align 8 dereferenceable(8) %tns)
          to label %invoke.cont127 unwind label %lpad126

invoke.cont127:                                   ; preds = %invoke.cont125
  %83 = load ptr, ptr %_M_finish.i, align 8
  %84 = load ptr, ptr %_M_end_of_storage.i, align 8
  %cmp.not.i397 = icmp eq ptr %83, %84
  br i1 %cmp.not.i397, label %if.else.i, label %if.then.i398

if.then.i398:                                     ; preds = %invoke.cont127
  %85 = load ptr, ptr %v, align 8
  store ptr %85, ptr %83, align 8
  %bf.load.i.i.i.i.i = load i64, ptr %85, align 8
  %bf.lshr.i.i.i.i.i = lshr i64 %bf.load.i.i.i.i.i, 40
  %86 = trunc i64 %bf.lshr.i.i.i.i.i to i32
  %bf.cast.i.i.i.i.i = and i32 %86, 1048575
  %cmp.i.i.i.i.i399 = icmp ult i32 %bf.cast.i.i.i.i.i, 1048574
  br i1 %cmp.i.i.i.i.i399, label %if.then.i.i.i.i.i401, label %if.else.i.i.i.i.i

if.then.i.i.i.i.i401:                             ; preds = %if.then.i398
  %bf.value.i.i.i.i.i = add i64 %bf.load.i.i.i.i.i, 1099511627776
  %bf.shl.i.i.i.i.i = and i64 %bf.value.i.i.i.i.i, 1152920405095219200
  %bf.clear7.i.i.i.i.i = and i64 %bf.load.i.i.i.i.i, -1152920405095219201
  %bf.set.i.i.i.i.i = or disjoint i64 %bf.shl.i.i.i.i.i, %bf.clear7.i.i.i.i.i
  store i64 %bf.set.i.i.i.i.i, ptr %85, align 8
  br label %_ZNSt16allocator_traitsISaIN4cvc58internal12NodeTemplateILb1EEEEE9constructIS3_JRKS3_EEEvRS4_PT_DpOT0_.exit.i

if.else.i.i.i.i.i:                                ; preds = %if.then.i398
  %cmp12.i.i.i.i.i = icmp eq i32 %bf.cast.i.i.i.i.i, 1048574
  br i1 %cmp12.i.i.i.i.i, label %if.then13.i.i.i.i.i, label %_ZNSt16allocator_traitsISaIN4cvc58internal12NodeTemplateILb1EEEEE9constructIS3_JRKS3_EEEvRS4_PT_DpOT0_.exit.i

if.then13.i.i.i.i.i:                              ; preds = %if.else.i.i.i.i.i
  %bf.set23.i.i.i.i.i = or i64 %bf.load.i.i.i.i.i, 1152920405095219200
  store i64 %bf.set23.i.i.i.i.i, ptr %85, align 8
  invoke void @_ZN4cvc58internal4expr9NodeValue20markRefCountMaxedOutEv(ptr noundef nonnull align 8 dereferenceable(16) %85)
          to label %_ZNSt16allocator_traitsISaIN4cvc58internal12NodeTemplateILb1EEEEE9constructIS3_JRKS3_EEEvRS4_PT_DpOT0_.exit.i unwind label %lpad128

_ZNSt16allocator_traitsISaIN4cvc58internal12NodeTemplateILb1EEEEE9constructIS3_JRKS3_EEEvRS4_PT_DpOT0_.exit.i: ; preds = %if.then13.i.i.i.i.i, %if.else.i.i.i.i.i, %if.then.i.i.i.i.i401
  %87 = load ptr, ptr %_M_finish.i, align 8
  %incdec.ptr.i = getelementptr inbounds %"class.cvc5::internal::NodeTemplate", ptr %87, i64 1
  store ptr %incdec.ptr.i, ptr %_M_finish.i, align 8
  br label %invoke.cont129

if.else.i:                                        ; preds = %invoke.cont127
  invoke void @_ZNSt6vectorIN4cvc58internal12NodeTemplateILb1EEESaIS3_EE17_M_realloc_insertIJRKS3_EEEvN9__gnu_cxx17__normal_iteratorIPS3_S5_EEDpOT_(ptr noundef nonnull align 8 dereferenceable(24) %vars, ptr %83, ptr noundef nonnull align 8 dereferenceable(8) %v)
          to label %invoke.cont129 unwind label %lpad128

invoke.cont129:                                   ; preds = %_ZNSt16allocator_traitsISaIN4cvc58internal12NodeTemplateILb1EEEEE9constructIS3_JRKS3_EEEvRS4_PT_DpOT0_.exit.i, %if.else.i
  %88 = load ptr, ptr %v, align 8
  %bf.load.i.i404 = load i64, ptr %88, align 8
  %89 = and i64 %bf.load.i.i404, 1152920405095219200
  %cmp.not.i.i405 = icmp eq i64 %89, 1152920405095219200
  br i1 %cmp.not.i.i405, label %_ZN4cvc58internal12NodeTemplateILb1EED2Ev.exit414, label %if.then.i.i406

if.then.i.i406:                                   ; preds = %invoke.cont129
  %bf.value.i.i407 = add i64 %bf.load.i.i404, 1152920405095219200
  %bf.shl.i.i408 = and i64 %bf.value.i.i407, 1152920405095219200
  %bf.clear7.i.i409 = and i64 %bf.load.i.i404, -1152920405095219201
  %bf.set.i.i410 = or disjoint i64 %bf.shl.i.i408, %bf.clear7.i.i409
  store i64 %bf.set.i.i410, ptr %88, align 8
  %cmp12.i.i411 = icmp eq i64 %bf.shl.i.i408, 0
  br i1 %cmp12.i.i411, label %if.then13.i.i412, label %_ZN4cvc58internal12NodeTemplateILb1EED2Ev.exit414

if.then13.i.i412:                                 ; preds = %if.then.i.i406
  invoke void @_ZN4cvc58internal4expr9NodeValue15markForDeletionEv(ptr noundef nonnull align 8 dereferenceable(16) %88)
          to label %_ZN4cvc58internal12NodeTemplateILb1EED2Ev.exit414 unwind label %terminate.lpad.i413

terminate.lpad.i413:                              ; preds = %if.then13.i.i412
  %90 = landingpad { ptr, i32 }
          catch ptr null
  %91 = extractvalue { ptr, i32 } %90, 0
  call void @__clang_call_terminate(ptr %91) #22
  unreachable

_ZN4cvc58internal12NodeTemplateILb1EED2Ev.exit414: ; preds = %invoke.cont129, %if.then.i.i406, %if.then13.i.i412
  %92 = load ptr, ptr %tns, align 8
  %bf.load.i.i415 = load i64, ptr %92, align 8
  %93 = and i64 %bf.load.i.i415, 1152920405095219200
  %cmp.not.i.i416 = icmp eq i64 %93, 1152920405095219200
  br i1 %cmp.not.i.i416, label %_ZN4cvc58internal8TypeNodeD2Ev.exit425, label %if.then.i.i417

if.then.i.i417:                                   ; preds = %_ZN4cvc58internal12NodeTemplateILb1EED2Ev.exit414
  %bf.value.i.i418 = add i64 %bf.load.i.i415, 1152920405095219200
  %bf.shl.i.i419 = and i64 %bf.value.i.i418, 1152920405095219200
  %bf.clear7.i.i420 = and i64 %bf.load.i.i415, -1152920405095219201
  %bf.set.i.i421 = or disjoint i64 %bf.shl.i.i419, %bf.clear7.i.i420
  store i64 %bf.set.i.i421, ptr %92, align 8
  %cmp12.i.i422 = icmp eq i64 %bf.shl.i.i419, 0
  br i1 %cmp12.i.i422, label %if.then13.i.i423, label %_ZN4cvc58internal8TypeNodeD2Ev.exit425

if.then13.i.i423:                                 ; preds = %if.then.i.i417
  invoke void @_ZN4cvc58internal4expr9NodeValue15markForDeletionEv(ptr noundef nonnull align 8 dereferenceable(16) %92)
          to label %_ZN4cvc58internal8TypeNodeD2Ev.exit425 unwind label %terminate.lpad.i424

terminate.lpad.i424:                              ; preds = %if.then13.i.i423
  %94 = landingpad { ptr, i32 }
          catch ptr null
  %95 = extractvalue { ptr, i32 } %94, 0
  call void @__clang_call_terminate(ptr %95) #22
  unreachable

_ZN4cvc58internal8TypeNodeD2Ev.exit425:           ; preds = %_ZN4cvc58internal12NodeTemplateILb1EED2Ev.exit414, %if.then.i.i417, %if.then13.i.i423
  %inc133 = add nuw i32 %k.01296, 1
  %exitcond1305.not = icmp eq i32 %inc133, %conv121
  br i1 %exitcond1305.not, label %for.end134, label %for.body124, !llvm.loop !50

lpad79:                                           ; preds = %if.then13.i.i.i284, %_ZN4cvc58internal12NodeTemplateILb1EED2Ev.exit267, %for.end
  %96 = landingpad { ptr, i32 }
          cleanup
  br label %ehcleanup264

lpad81:                                           ; preds = %if.else.i.i253, %if.then13.i.i.i.i.i.i246
  %97 = landingpad { ptr, i32 }
          cleanup
  call void @_ZN4cvc58internal12NodeTemplateILb1EED2Ev(ptr noundef nonnull align 8 dereferenceable(8) %ref.tmp78) #21
  br label %ehcleanup264

lpad89:                                           ; preds = %if.then13.i.i.i313, %invoke.cont86
  %98 = landingpad { ptr, i32 }
          cleanup
  call void @_ZN4cvc58internal12NodeTemplateILb1EED2Ev(ptr noundef nonnull align 8 dereferenceable(8) %ref.tmp85) #21
  br label %ehcleanup264

lpad95:                                           ; preds = %_ZN4cvc58internal12NodeTemplateILb1EED2Ev.exit345
  %99 = landingpad { ptr, i32 }
          cleanup
  br label %ehcleanup264

lpad97:                                           ; preds = %cond.false243, %if.then13.i.i848, %invoke.cont98, %invoke.cont96
  %100 = landingpad { ptr, i32 }
          cleanup
  br label %ehcleanup261

lpad107:                                          ; preds = %if.then13.i.i352, %for.body105
  %101 = landingpad { ptr, i32 }
          cleanup
  br label %ehcleanup234

lpad112:                                          ; preds = %invoke.cont111
  %102 = landingpad { ptr, i32 }
          cleanup
  call void @_ZN4cvc58internal8TypeNodeD2Ev(ptr noundef nonnull align 8 dereferenceable(8) %agg.tmp110) #21
  br label %ehcleanup234

lpad116.loopexit:                                 ; preds = %for.body124, %if.then13.i.i.i387
  %lpad.loopexit1285 = landingpad { ptr, i32 }
          cleanup
  br label %ehcleanup233

lpad116.loopexit.split-lp:                        ; preds = %_ZN4cvc58internal8TypeNodeD2Ev.exit, %invoke.cont117
  %lpad.loopexit.split-lp1286 = landingpad { ptr, i32 }
          cleanup
  br label %ehcleanup233

lpad126:                                          ; preds = %invoke.cont125
  %103 = landingpad { ptr, i32 }
          cleanup
  br label %ehcleanup131

lpad128:                                          ; preds = %if.else.i, %if.then13.i.i.i.i.i
  %104 = landingpad { ptr, i32 }
          cleanup
  call void @_ZN4cvc58internal12NodeTemplateILb1EED2Ev(ptr noundef nonnull align 8 dereferenceable(8) %v) #21
  br label %ehcleanup131

ehcleanup131:                                     ; preds = %lpad128, %lpad126
  %.pn29 = phi { ptr, i32 } [ %104, %lpad128 ], [ %103, %lpad126 ]
  call void @_ZN4cvc58internal8TypeNodeD2Ev(ptr noundef nonnull align 8 dereferenceable(8) %tns) #21
  br label %ehcleanup233

for.end134:                                       ; preds = %_ZN4cvc58internal8TypeNodeD2Ev.exit425, %invoke.cont119
  call void @llvm.memset.p0.i64(ptr noundef nonnull align 8 dereferenceable(24) %bvs_cmb, i8 0, i64 24, i1 false)
  %105 = load ptr, ptr %bvs, align 8
  %106 = load ptr, ptr %_M_finish.i.i, align 8
  invoke void @_ZNSt6vectorIN4cvc58internal12NodeTemplateILb1EEESaIS3_EE15_M_range_insertIN9__gnu_cxx17__normal_iteratorIPS3_S5_EEEEvSA_T_SB_St20forward_iterator_tag(ptr noundef nonnull align 8 dereferenceable(24) %bvs_cmb, ptr null, ptr %105, ptr %106)
          to label %invoke.cont149 unwind label %lpad148

invoke.cont149:                                   ; preds = %for.end134
  %107 = load ptr, ptr %bvs_cmb, align 8
  %108 = load ptr, ptr %_M_finish.i426, align 8
  %109 = load ptr, ptr %vars, align 8
  %110 = load ptr, ptr %_M_finish.i, align 8
  %sub.ptr.lhs.cast.i.i432 = ptrtoint ptr %108 to i64
  %sub.ptr.rhs.cast.i.i433 = ptrtoint ptr %107 to i64
  %sub.ptr.sub.i.i434 = sub i64 %sub.ptr.lhs.cast.i.i432, %sub.ptr.rhs.cast.i.i433
  %sub.ptr.div.i.i435 = ashr exact i64 %sub.ptr.sub.i.i434, 3
  %add.ptr.i.i436 = getelementptr inbounds %"class.cvc5::internal::NodeTemplate", ptr %107, i64 %sub.ptr.div.i.i435
  invoke void @_ZNSt6vectorIN4cvc58internal12NodeTemplateILb1EEESaIS3_EE15_M_range_insertIN9__gnu_cxx17__normal_iteratorIPS3_S5_EEEEvSA_T_SB_St20forward_iterator_tag(ptr noundef nonnull align 8 dereferenceable(24) %bvs_cmb, ptr %add.ptr.i.i436, ptr %109, ptr %110)
          to label %invoke.cont165 unwind label %lpad148

invoke.cont165:                                   ; preds = %invoke.cont149
  %111 = load ptr, ptr %tn, align 8
  store ptr %111, ptr %agg.tmp169, align 8
  %bf.load.i.i440 = load i64, ptr %111, align 8
  %bf.lshr.i.i441 = lshr i64 %bf.load.i.i440, 40
  %112 = trunc i64 %bf.lshr.i.i441 to i32
  %bf.cast.i.i442 = and i32 %112, 1048575
  %cmp.i.i443 = icmp ult i32 %bf.cast.i.i442, 1048574
  br i1 %cmp.i.i443, label %if.then.i.i448, label %if.else.i.i444

if.then.i.i448:                                   ; preds = %invoke.cont165
  %bf.value.i.i449 = add i64 %bf.load.i.i440, 1099511627776
  %bf.shl.i.i450 = and i64 %bf.value.i.i449, 1152920405095219200
  %bf.clear7.i.i451 = and i64 %bf.load.i.i440, -1152920405095219201
  %bf.set.i.i452 = or disjoint i64 %bf.shl.i.i450, %bf.clear7.i.i451
  store i64 %bf.set.i.i452, ptr %111, align 8
  br label %invoke.cont170

if.else.i.i444:                                   ; preds = %invoke.cont165
  %cmp12.i.i445 = icmp eq i32 %bf.cast.i.i442, 1048574
  br i1 %cmp12.i.i445, label %if.then13.i.i446, label %invoke.cont170

if.then13.i.i446:                                 ; preds = %if.else.i.i444
  %bf.set23.i.i447 = or i64 %bf.load.i.i440, 1152920405095219200
  store i64 %bf.set23.i.i447, ptr %111, align 8
  invoke void @_ZN4cvc58internal4expr9NodeValue20markRefCountMaxedOutEv(ptr noundef nonnull align 8 dereferenceable(16) %111)
          to label %invoke.cont170 unwind label %lpad148

invoke.cont170:                                   ; preds = %if.else.i.i444, %if.then.i.i448, %if.then13.i.i446
  invoke void @_ZN4cvc58internal6theory9datatypes5utils11mkApplyConsENS0_8TypeNodeERKNS0_5DTypeEmRKSt6vectorINS0_12NodeTemplateILb1EEESaISA_EE(ptr nonnull sret(%"class.cvc5::internal::NodeTemplate") align 8 %c, ptr noundef nonnull %agg.tmp169, ptr noundef nonnull align 8 dereferenceable(448) %call99, i64 noundef %indvars.iv, ptr noundef nonnull align 8 dereferenceable(24) %vars)
          to label %invoke.cont173 unwind label %lpad172

invoke.cont173:                                   ; preds = %invoke.cont170
  %113 = load ptr, ptr %agg.tmp169, align 8
  %bf.load.i.i455 = load i64, ptr %113, align 8
  %114 = and i64 %bf.load.i.i455, 1152920405095219200
  %cmp.not.i.i456 = icmp eq i64 %114, 1152920405095219200
  br i1 %cmp.not.i.i456, label %_ZN4cvc58internal8TypeNodeD2Ev.exit465, label %if.then.i.i457

if.then.i.i457:                                   ; preds = %invoke.cont173
  %bf.value.i.i458 = add i64 %bf.load.i.i455, 1152920405095219200
  %bf.shl.i.i459 = and i64 %bf.value.i.i458, 1152920405095219200
  %bf.clear7.i.i460 = and i64 %bf.load.i.i455, -1152920405095219201
  %bf.set.i.i461 = or disjoint i64 %bf.shl.i.i459, %bf.clear7.i.i460
  store i64 %bf.set.i.i461, ptr %113, align 8
  %cmp12.i.i462 = icmp eq i64 %bf.shl.i.i459, 0
  br i1 %cmp12.i.i462, label %if.then13.i.i463, label %_ZN4cvc58internal8TypeNodeD2Ev.exit465

if.then13.i.i463:                                 ; preds = %if.then.i.i457
  invoke void @_ZN4cvc58internal4expr9NodeValue15markForDeletionEv(ptr noundef nonnull align 8 dereferenceable(16) %113)
          to label %_ZN4cvc58internal8TypeNodeD2Ev.exit465 unwind label %terminate.lpad.i464

terminate.lpad.i464:                              ; preds = %if.then13.i.i463
  %115 = landingpad { ptr, i32 }
          catch ptr null
  %116 = extractvalue { ptr, i32 } %115, 0
  call void @__clang_call_terminate(ptr %116) #22
  unreachable

_ZN4cvc58internal8TypeNodeD2Ev.exit465:           ; preds = %invoke.cont173, %if.then.i.i457, %if.then13.i.i463
  %117 = load ptr, ptr %c, align 8
  call void @llvm.experimental.noalias.scope.decl(metadata !51)
  %118 = load ptr, ptr %q, align 8, !noalias !51
  %d_kind.i.i.i.i466 = getelementptr inbounds %"class.cvc5::internal::expr::NodeValue", ptr %118, i64 0, i32 1
  %bf.load.i.i.i.i467 = load i16, ptr %d_kind.i.i.i.i466, align 8, !noalias !51
  %bf.clear.i.i.i.i468 = and i16 %bf.load.i.i.i.i467, 1023
  %bf.cast.i.i.i.i469 = zext nneg i16 %bf.clear.i.i.i.i468 to i32
  %cmp.i.i.i.i.i470 = icmp eq i16 %bf.clear.i.i.i.i468, 1023
  %cond.i.i.i.i.i471 = select i1 %cmp.i.i.i.i.i470, i32 -1, i32 %bf.cast.i.i.i.i469
  %call2.i.i.i491 = invoke noundef i32 @_ZN4cvc58internal4kind10metaKindOfENS1_6Kind_tE(i32 noundef %cond.i.i.i.i.i471)
          to label %call2.i.i.i.noexc490 unwind label %lpad178

call2.i.i.i.noexc490:                             ; preds = %_ZN4cvc58internal8TypeNodeD2Ev.exit465
  %cmp.i.i472 = icmp eq i32 %call2.i.i.i491, 2
  %spec.select.i.i474 = select i1 %cmp.i.i472, i64 2, i64 1
  %arrayidx.i.i476 = getelementptr inbounds %"class.cvc5::internal::expr::NodeValue", ptr %118, i64 0, i32 3, i64 %spec.select.i.i474
  %119 = load ptr, ptr %arrayidx.i.i476, align 8, !noalias !51
  store ptr %119, ptr %ref.tmp177, align 8, !alias.scope !51
  %bf.load.i.i.i477 = load i64, ptr %119, align 8, !noalias !51
  %bf.lshr.i.i.i478 = lshr i64 %bf.load.i.i.i477, 40
  %120 = trunc i64 %bf.lshr.i.i.i478 to i32
  %bf.cast.i.i.i479 = and i32 %120, 1048575
  %cmp.i.i.i480 = icmp ult i32 %bf.cast.i.i.i479, 1048574
  br i1 %cmp.i.i.i480, label %if.then.i.i.i485, label %if.else.i.i.i481

if.then.i.i.i485:                                 ; preds = %call2.i.i.i.noexc490
  %bf.value.i.i.i486 = add i64 %bf.load.i.i.i477, 1099511627776
  %bf.shl.i.i.i487 = and i64 %bf.value.i.i.i486, 1152920405095219200
  %bf.clear7.i.i.i488 = and i64 %bf.load.i.i.i477, -1152920405095219201
  %bf.set.i.i.i489 = or disjoint i64 %bf.shl.i.i.i487, %bf.clear7.i.i.i488
  store i64 %bf.set.i.i.i489, ptr %119, align 8, !noalias !51
  br label %invoke.cont179

if.else.i.i.i481:                                 ; preds = %call2.i.i.i.noexc490
  %cmp12.i.i.i482 = icmp eq i32 %bf.cast.i.i.i479, 1048574
  br i1 %cmp12.i.i.i482, label %if.then13.i.i.i483, label %invoke.cont179

if.then13.i.i.i483:                               ; preds = %if.else.i.i.i481
  %bf.set23.i.i.i484 = or i64 %bf.load.i.i.i477, 1152920405095219200
  store i64 %bf.set23.i.i.i484, ptr %119, align 8, !noalias !51
  invoke void @_ZN4cvc58internal4expr9NodeValue20markRefCountMaxedOutEv(ptr noundef nonnull align 8 dereferenceable(16) %119)
          to label %invoke.cont179 unwind label %lpad178

invoke.cont179:                                   ; preds = %if.else.i.i.i481, %if.then.i.i.i485, %if.then13.i.i.i483
  %121 = load ptr, ptr %svar, align 8
  call void @llvm.experimental.noalias.scope.decl(metadata !54)
  call void @llvm.lifetime.start.p0(i64 56, ptr nonnull %cache.i)
  call void @llvm.lifetime.start.p0(i64 8, ptr nonnull %agg.tmp.i)
  call void @llvm.lifetime.start.p0(i64 8, ptr nonnull %agg.tmp2.i)
  %122 = load ptr, ptr %ref.tmp177, align 8, !noalias !54
  %cmp.i.i494 = icmp eq ptr %121, %122
  br i1 %cmp.i.i494, label %if.then.i497, label %if.end.i495

if.then.i497:                                     ; preds = %invoke.cont179
  store ptr %117, ptr %body, align 8, !alias.scope !54
  %bf.load.i.i.i498 = load i64, ptr %117, align 8, !noalias !54
  %bf.lshr.i.i.i499 = lshr i64 %bf.load.i.i.i498, 40
  %123 = trunc i64 %bf.lshr.i.i.i499 to i32
  %bf.cast.i.i.i500 = and i32 %123, 1048575
  %cmp.i.i.i501 = icmp ult i32 %bf.cast.i.i.i500, 1048574
  br i1 %cmp.i.i.i501, label %if.then.i.i.i506, label %if.else.i.i.i502

if.then.i.i.i506:                                 ; preds = %if.then.i497
  %bf.value.i.i.i507 = add i64 %bf.load.i.i.i498, 1099511627776
  %bf.shl.i.i.i508 = and i64 %bf.value.i.i.i507, 1152920405095219200
  %bf.clear7.i.i.i509 = and i64 %bf.load.i.i.i498, -1152920405095219201
  %bf.set.i.i.i510 = or disjoint i64 %bf.shl.i.i.i508, %bf.clear7.i.i.i509
  store i64 %bf.set.i.i.i510, ptr %117, align 8, !noalias !54
  br label %invoke.cont187

if.else.i.i.i502:                                 ; preds = %if.then.i497
  %cmp12.i.i.i503 = icmp eq i32 %bf.cast.i.i.i500, 1048574
  br i1 %cmp12.i.i.i503, label %if.then13.i.i.i504, label %invoke.cont187

if.then13.i.i.i504:                               ; preds = %if.else.i.i.i502
  %bf.set23.i.i.i505 = or i64 %bf.load.i.i.i498, 1152920405095219200
  store i64 %bf.set23.i.i.i505, ptr %117, align 8, !noalias !54
  invoke void @_ZN4cvc58internal4expr9NodeValue20markRefCountMaxedOutEv(ptr noundef nonnull align 8 dereferenceable(16) %117)
          to label %invoke.cont187 unwind label %lpad186

if.end.i495:                                      ; preds = %invoke.cont179
  store ptr %_M_single_bucket.i.i.i, ptr %cache.i, align 8, !noalias !54
  store i64 1, ptr %_M_bucket_count.i.i.i, align 8, !noalias !54
  call void @llvm.memset.p0.i64(ptr noundef nonnull align 8 dereferenceable(16) %_M_before_begin.i.i.i, i8 0, i64 16, i1 false), !noalias !54
  store float 1.000000e+00, ptr %_M_rehash_policy.i.i.i, align 8, !noalias !54
  call void @llvm.memset.p0.i64(ptr noundef nonnull align 8 dereferenceable(16) %_M_next_resize.i.i.i.i, i8 0, i64 16, i1 false), !noalias !54
  store ptr %121, ptr %agg.tmp.i, align 8, !noalias !54
  store ptr %117, ptr %agg.tmp2.i, align 8, !noalias !54
  invoke void @_ZNK4cvc58internal12NodeTemplateILb1EE10substituteENS1_ILb0EEES3_RSt13unordered_mapIS3_S3_St4hashIS3_ESt8equal_toIS3_ESaISt4pairIKS3_S3_EEE(ptr nonnull sret(%"class.cvc5::internal::NodeTemplate") align 8 %body, ptr noundef nonnull align 8 dereferenceable(8) %ref.tmp177, ptr noundef nonnull %agg.tmp.i, ptr noundef nonnull %agg.tmp2.i, ptr noundef nonnull align 8 dereferenceable(56) %cache.i)
          to label %invoke.cont6.i unwind label %lpad5.i

invoke.cont6.i:                                   ; preds = %if.end.i495
  %124 = load ptr, ptr %_M_before_begin.i.i.i, align 8, !noalias !54
  %tobool.not3.i.i.i.i.i = icmp eq ptr %124, null
  br i1 %tobool.not3.i.i.i.i.i, label %_ZNSt10_HashtableIN4cvc58internal12NodeTemplateILb0EEESt4pairIKS3_S3_ESaIS6_ENSt8__detail10_Select1stESt8equal_toIS3_ESt4hashIS3_ENS8_18_Mod_range_hashingENS8_20_Default_ranged_hashENS8_20_Prime_rehash_policyENS8_17_Hashtable_traitsILb1ELb0ELb1EEEE5clearEv.exit.i.i.i, label %while.body.i.i.i.i.i

while.body.i.i.i.i.i:                             ; preds = %invoke.cont6.i, %while.body.i.i.i.i.i
  %__n.addr.04.i.i.i.i.i = phi ptr [ %125, %while.body.i.i.i.i.i ], [ %124, %invoke.cont6.i ]
  %125 = load ptr, ptr %__n.addr.04.i.i.i.i.i, align 8
  call void @_ZdlPv(ptr noundef nonnull %__n.addr.04.i.i.i.i.i) #20
  %tobool.not.i.i.i.i.i = icmp eq ptr %125, null
  br i1 %tobool.not.i.i.i.i.i, label %_ZNSt10_HashtableIN4cvc58internal12NodeTemplateILb0EEESt4pairIKS3_S3_ESaIS6_ENSt8__detail10_Select1stESt8equal_toIS3_ESt4hashIS3_ENS8_18_Mod_range_hashingENS8_20_Default_ranged_hashENS8_20_Prime_rehash_policyENS8_17_Hashtable_traitsILb1ELb0ELb1EEEE5clearEv.exit.i.i.i, label %while.body.i.i.i.i.i, !llvm.loop !57

_ZNSt10_HashtableIN4cvc58internal12NodeTemplateILb0EEESt4pairIKS3_S3_ESaIS6_ENSt8__detail10_Select1stESt8equal_toIS3_ESt4hashIS3_ENS8_18_Mod_range_hashingENS8_20_Default_ranged_hashENS8_20_Prime_rehash_policyENS8_17_Hashtable_traitsILb1ELb0ELb1EEEE5clearEv.exit.i.i.i: ; preds = %while.body.i.i.i.i.i, %invoke.cont6.i
  %126 = load ptr, ptr %cache.i, align 8, !noalias !54
  %127 = load i64, ptr %_M_bucket_count.i.i.i, align 8, !noalias !54
  %mul.i.i.i.i = shl i64 %127, 3
  call void @llvm.memset.p0.i64(ptr align 8 %126, i8 0, i64 %mul.i.i.i.i, i1 false)
  call void @llvm.memset.p0.i64(ptr noundef nonnull align 8 dereferenceable(16) %_M_before_begin.i.i.i, i8 0, i64 16, i1 false), !noalias !54
  %128 = load ptr, ptr %cache.i, align 8, !noalias !54
  %cmp.i.i.i.i.i.i496 = icmp eq ptr %_M_single_bucket.i.i.i, %128
  br i1 %cmp.i.i.i.i.i.i496, label %invoke.cont187, label %if.end.i.i.i.i.i

if.end.i.i.i.i.i:                                 ; preds = %_ZNSt10_HashtableIN4cvc58internal12NodeTemplateILb0EEESt4pairIKS3_S3_ESaIS6_ENSt8__detail10_Select1stESt8equal_toIS3_ESt4hashIS3_ENS8_18_Mod_range_hashingENS8_20_Default_ranged_hashENS8_20_Prime_rehash_policyENS8_17_Hashtable_traitsILb1ELb0ELb1EEEE5clearEv.exit.i.i.i
  call void @_ZdlPv(ptr noundef %128) #20
  br label %invoke.cont187

lpad5.i:                                          ; preds = %if.end.i495
  %129 = landingpad { ptr, i32 }
          cleanup
  call void @_ZNSt13unordered_mapIN4cvc58internal12NodeTemplateILb0EEES3_St4hashIS3_ESt8equal_toIS3_ESaISt4pairIKS3_S3_EEED2Ev(ptr noundef nonnull align 8 dereferenceable(56) %cache.i) #21
  br label %lpad186.body

invoke.cont187:                                   ; preds = %if.end.i.i.i.i.i, %_ZNSt10_HashtableIN4cvc58internal12NodeTemplateILb0EEESt4pairIKS3_S3_ESaIS6_ENSt8__detail10_Select1stESt8equal_toIS3_ESt4hashIS3_ENS8_18_Mod_range_hashingENS8_20_Default_ranged_hashENS8_20_Prime_rehash_policyENS8_17_Hashtable_traitsILb1ELb0ELb1EEEE5clearEv.exit.i.i.i, %if.else.i.i.i502, %if.then.i.i.i506, %if.then13.i.i.i504
  call void @llvm.lifetime.end.p0(i64 56, ptr nonnull %cache.i)
  call void @llvm.lifetime.end.p0(i64 8, ptr nonnull %agg.tmp.i)
  call void @llvm.lifetime.end.p0(i64 8, ptr nonnull %agg.tmp2.i)
  %130 = load ptr, ptr %ref.tmp177, align 8
  %bf.load.i.i512 = load i64, ptr %130, align 8
  %131 = and i64 %bf.load.i.i512, 1152920405095219200
  %cmp.not.i.i513 = icmp eq i64 %131, 1152920405095219200
  br i1 %cmp.not.i.i513, label %_ZN4cvc58internal12NodeTemplateILb1EED2Ev.exit522, label %if.then.i.i514

if.then.i.i514:                                   ; preds = %invoke.cont187
  %bf.value.i.i515 = add i64 %bf.load.i.i512, 1152920405095219200
  %bf.shl.i.i516 = and i64 %bf.value.i.i515, 1152920405095219200
  %bf.clear7.i.i517 = and i64 %bf.load.i.i512, -1152920405095219201
  %bf.set.i.i518 = or disjoint i64 %bf.shl.i.i516, %bf.clear7.i.i517
  store i64 %bf.set.i.i518, ptr %130, align 8
  %cmp12.i.i519 = icmp eq i64 %bf.shl.i.i516, 0
  br i1 %cmp12.i.i519, label %if.then13.i.i520, label %_ZN4cvc58internal12NodeTemplateILb1EED2Ev.exit522

if.then13.i.i520:                                 ; preds = %if.then.i.i514
  invoke void @_ZN4cvc58internal4expr9NodeValue15markForDeletionEv(ptr noundef nonnull align 8 dereferenceable(16) %130)
          to label %_ZN4cvc58internal12NodeTemplateILb1EED2Ev.exit522 unwind label %terminate.lpad.i521

terminate.lpad.i521:                              ; preds = %if.then13.i.i520
  %132 = landingpad { ptr, i32 }
          catch ptr null
  %133 = extractvalue { ptr, i32 } %132, 0
  call void @__clang_call_terminate(ptr %133) #22
  unreachable

_ZN4cvc58internal12NodeTemplateILb1EED2Ev.exit522: ; preds = %invoke.cont187, %if.then.i.i514, %if.then13.i.i520
  %134 = load ptr, ptr %bvs_cmb, align 8
  %135 = load ptr, ptr %_M_finish.i426, align 8
  %cmp.i.i524 = icmp eq ptr %134, %135
  br i1 %cmp.i.i524, label %if.end227, label %if.then192

if.then192:                                       ; preds = %_ZN4cvc58internal12NodeTemplateILb1EED2Ev.exit522
  call void @llvm.lifetime.start.p0(i64 120, ptr nonnull %nb.i)
  invoke void @_ZN4cvc58internal11NodeBuilderC1EPNS0_11NodeManagerENS0_4kind6Kind_tE(ptr noundef nonnull align 8 dereferenceable(116) %nb.i, ptr noundef nonnull %call5, i32 noundef 356)
          to label %.noexc525 unwind label %lpad193

.noexc525:                                        ; preds = %if.then192
  %136 = load ptr, ptr %bvs_cmb, align 8, !noalias !58
  %137 = load ptr, ptr %_M_finish.i426, align 8, !noalias !58
  call void @llvm.lifetime.start.p0(i64 8, ptr nonnull %agg.tmp.i.i.i), !noalias !58
  %cmp.i.not3.i.i.i = icmp eq ptr %137, %136
  br i1 %cmp.i.not3.i.i.i, label %invoke.cont.i, label %for.body.i.i.i

for.body.i.i.i:                                   ; preds = %.noexc525, %call3.i.i.noexc.i
  %i.sroa.0.04.i.i.i = phi ptr [ %incdec.ptr.i.i.i.i, %call3.i.i.noexc.i ], [ %136, %.noexc525 ]
  %138 = load ptr, ptr %i.sroa.0.04.i.i.i, align 8, !noalias !58
  store ptr %138, ptr %agg.tmp.i.i.i, align 8, !noalias !58
  %call3.i.i1.i = invoke noundef nonnull align 8 dereferenceable(116) ptr @_ZN4cvc58internal11NodeBuilder6appendENS0_12NodeTemplateILb0EEE(ptr noundef nonnull align 8 dereferenceable(116) %nb.i, ptr noundef nonnull %agg.tmp.i.i.i)
          to label %call3.i.i.noexc.i unwind label %lpad.loopexit.i, !noalias !58

call3.i.i.noexc.i:                                ; preds = %for.body.i.i.i
  %incdec.ptr.i.i.i.i = getelementptr inbounds %"class.cvc5::internal::NodeTemplate", ptr %i.sroa.0.04.i.i.i, i64 1
  %cmp.i.not.i.i.i = icmp eq ptr %incdec.ptr.i.i.i.i, %137
  br i1 %cmp.i.not.i.i.i, label %invoke.cont.i, label %for.body.i.i.i, !llvm.loop !61

invoke.cont.i:                                    ; preds = %call3.i.i.noexc.i, %.noexc525
  call void @llvm.lifetime.end.p0(i64 8, ptr nonnull %agg.tmp.i.i.i), !noalias !58
  invoke void @_ZN4cvc58internal11NodeBuilder13constructNodeEv(ptr nonnull sret(%"class.cvc5::internal::NodeTemplate") align 8 %bvl, ptr noundef nonnull align 8 dereferenceable(116) %nb.i)
          to label %if.else.i547 unwind label %lpad.loopexit.split-lp.i

lpad.loopexit.i:                                  ; preds = %for.body.i.i.i
  %lpad.loopexit2.i = landingpad { ptr, i32 }
          cleanup
  br label %lpad.i

lpad.loopexit.split-lp.i:                         ; preds = %invoke.cont.i
  %lpad.loopexit.split-lp3.i = landingpad { ptr, i32 }
          cleanup
  br label %lpad.i

lpad.i:                                           ; preds = %lpad.loopexit.split-lp.i, %lpad.loopexit.i
  %lpad.phi.i = phi { ptr, i32 } [ %lpad.loopexit2.i, %lpad.loopexit.i ], [ %lpad.loopexit.split-lp3.i, %lpad.loopexit.split-lp.i ]
  call void @_ZN4cvc58internal11NodeBuilderD1Ev(ptr noundef nonnull align 8 dereferenceable(116) %nb.i) #21
  br label %ehcleanup229

if.else.i547:                                     ; preds = %invoke.cont.i
  call void @_ZN4cvc58internal11NodeBuilderD1Ev(ptr noundef nonnull align 8 dereferenceable(116) %nb.i) #21
  call void @llvm.lifetime.end.p0(i64 120, ptr nonnull %nb.i)
  call void @llvm.memset.p0.i64(ptr noundef nonnull align 8 dereferenceable(24) %children, i8 0, i64 24, i1 false)
  invoke void @_ZNSt6vectorIN4cvc58internal12NodeTemplateILb1EEESaIS3_EE17_M_realloc_insertIJRKS3_EEEvN9__gnu_cxx17__normal_iteratorIPS3_S5_EEDpOT_(ptr noundef nonnull align 8 dereferenceable(24) %children, ptr null, ptr noundef nonnull align 8 dereferenceable(8) %bvl)
          to label %invoke.cont196 unwind label %lpad195

invoke.cont196:                                   ; preds = %if.else.i547
  %.pre = load ptr, ptr %_M_finish.i527, align 8
  %.pre1308 = load ptr, ptr %_M_end_of_storage.i528, align 8
  %cmp.not.i553 = icmp eq ptr %.pre, %.pre1308
  br i1 %cmp.not.i553, label %if.else.i571, label %if.then.i554

if.then.i554:                                     ; preds = %invoke.cont196
  %139 = load ptr, ptr %body, align 8
  store ptr %139, ptr %.pre, align 8
  %bf.load.i.i.i.i.i555 = load i64, ptr %139, align 8
  %bf.lshr.i.i.i.i.i556 = lshr i64 %bf.load.i.i.i.i.i555, 40
  %140 = trunc i64 %bf.lshr.i.i.i.i.i556 to i32
  %bf.cast.i.i.i.i.i557 = and i32 %140, 1048575
  %cmp.i.i.i.i.i558 = icmp ult i32 %bf.cast.i.i.i.i.i557, 1048574
  br i1 %cmp.i.i.i.i.i558, label %if.then.i.i.i.i.i566, label %if.else.i.i.i.i.i559

if.then.i.i.i.i.i566:                             ; preds = %if.then.i554
  %bf.value.i.i.i.i.i567 = add i64 %bf.load.i.i.i.i.i555, 1099511627776
  %bf.shl.i.i.i.i.i568 = and i64 %bf.value.i.i.i.i.i567, 1152920405095219200
  %bf.clear7.i.i.i.i.i569 = and i64 %bf.load.i.i.i.i.i555, -1152920405095219201
  %bf.set.i.i.i.i.i570 = or disjoint i64 %bf.shl.i.i.i.i.i568, %bf.clear7.i.i.i.i.i569
  store i64 %bf.set.i.i.i.i.i570, ptr %139, align 8
  br label %_ZNSt16allocator_traitsISaIN4cvc58internal12NodeTemplateILb1EEEEE9constructIS3_JRKS3_EEEvRS4_PT_DpOT0_.exit.i561

if.else.i.i.i.i.i559:                             ; preds = %if.then.i554
  %cmp12.i.i.i.i.i560 = icmp eq i32 %bf.cast.i.i.i.i.i557, 1048574
  br i1 %cmp12.i.i.i.i.i560, label %if.then13.i.i.i.i.i564, label %_ZNSt16allocator_traitsISaIN4cvc58internal12NodeTemplateILb1EEEEE9constructIS3_JRKS3_EEEvRS4_PT_DpOT0_.exit.i561

if.then13.i.i.i.i.i564:                           ; preds = %if.else.i.i.i.i.i559
  %bf.set23.i.i.i.i.i565 = or i64 %bf.load.i.i.i.i.i555, 1152920405095219200
  store i64 %bf.set23.i.i.i.i.i565, ptr %139, align 8
  invoke void @_ZN4cvc58internal4expr9NodeValue20markRefCountMaxedOutEv(ptr noundef nonnull align 8 dereferenceable(16) %139)
          to label %_ZNSt16allocator_traitsISaIN4cvc58internal12NodeTemplateILb1EEEEE9constructIS3_JRKS3_EEEvRS4_PT_DpOT0_.exit.i561 unwind label %lpad195

_ZNSt16allocator_traitsISaIN4cvc58internal12NodeTemplateILb1EEEEE9constructIS3_JRKS3_EEEvRS4_PT_DpOT0_.exit.i561: ; preds = %if.then13.i.i.i.i.i564, %if.else.i.i.i.i.i559, %if.then.i.i.i.i.i566
  %141 = load ptr, ptr %_M_finish.i527, align 8
  %incdec.ptr.i562 = getelementptr inbounds %"class.cvc5::internal::NodeTemplate", ptr %141, i64 1
  store ptr %incdec.ptr.i562, ptr %_M_finish.i527, align 8
  br label %invoke.cont197

if.else.i571:                                     ; preds = %invoke.cont196
  invoke void @_ZNSt6vectorIN4cvc58internal12NodeTemplateILb1EEESaIS3_EE17_M_realloc_insertIJRKS3_EEEvN9__gnu_cxx17__normal_iteratorIPS3_S5_EEDpOT_(ptr noundef nonnull align 8 dereferenceable(24) %children, ptr %.pre1308, ptr noundef nonnull align 8 dereferenceable(8) %body)
          to label %invoke.cont197 unwind label %lpad195

invoke.cont197:                                   ; preds = %_ZNSt16allocator_traitsISaIN4cvc58internal12NodeTemplateILb1EEEEE9constructIS3_JRKS3_EEEvRS4_PT_DpOT0_.exit.i561, %if.else.i571
  %142 = load ptr, ptr %q, align 8
  %d_kind.i.i.i.i575 = getelementptr inbounds %"class.cvc5::internal::expr::NodeValue", ptr %142, i64 0, i32 1
  %bf.load.i.i.i.i576 = load i16, ptr %d_kind.i.i.i.i575, align 8
  %bf.clear.i.i.i.i577 = and i16 %bf.load.i.i.i.i576, 1023
  %bf.cast.i.i.i.i578 = zext nneg i16 %bf.clear.i.i.i.i577 to i32
  %cmp.i.i.i.i.i579 = icmp eq i16 %bf.clear.i.i.i.i577, 1023
  %cond.i.i.i.i.i580 = select i1 %cmp.i.i.i.i.i579, i32 -1, i32 %bf.cast.i.i.i.i578
  %call2.i.i.i589 = invoke noundef i32 @_ZN4cvc58internal4kind10metaKindOfENS1_6Kind_tE(i32 noundef %cond.i.i.i.i.i580)
          to label %invoke.cont198 unwind label %lpad195

invoke.cont198:                                   ; preds = %invoke.cont197
  %cmp.i.i581 = icmp eq i32 %call2.i.i.i589, 2
  %d_nchildren.i.i582 = getelementptr inbounds %"class.cvc5::internal::expr::NodeValue", ptr %142, i64 0, i32 2
  %bf.load.i.i583 = load i32, ptr %d_nchildren.i.i582, align 4
  %bf.clear.i.i584 = and i32 %bf.load.i.i583, 67108863
  %sub.i.i585 = sext i1 %cmp.i.i581 to i32
  %cond.i.i586 = add nsw i32 %bf.clear.i.i584, %sub.i.i585
  %cmp200 = icmp eq i32 %cond.i.i586, 3
  br i1 %cmp200, label %if.then201, label %if.end218

if.then201:                                       ; preds = %invoke.cont198
  call void @llvm.experimental.noalias.scope.decl(metadata !62)
  %143 = load ptr, ptr %q, align 8, !noalias !62
  %d_kind.i.i.i.i591 = getelementptr inbounds %"class.cvc5::internal::expr::NodeValue", ptr %143, i64 0, i32 1
  %bf.load.i.i.i.i592 = load i16, ptr %d_kind.i.i.i.i591, align 8, !noalias !62
  %bf.clear.i.i.i.i593 = and i16 %bf.load.i.i.i.i592, 1023
  %bf.cast.i.i.i.i594 = zext nneg i16 %bf.clear.i.i.i.i593 to i32
  %cmp.i.i.i.i.i595 = icmp eq i16 %bf.clear.i.i.i.i593, 1023
  %cond.i.i.i.i.i596 = select i1 %cmp.i.i.i.i.i595, i32 -1, i32 %bf.cast.i.i.i.i594
  %call2.i.i.i616 = invoke noundef i32 @_ZN4cvc58internal4kind10metaKindOfENS1_6Kind_tE(i32 noundef %cond.i.i.i.i.i596)
          to label %call2.i.i.i.noexc615 unwind label %lpad195

call2.i.i.i.noexc615:                             ; preds = %if.then201
  %cmp.i.i597 = icmp eq i32 %call2.i.i.i616, 2
  %spec.select.i.i599 = select i1 %cmp.i.i597, i64 3, i64 2
  %arrayidx.i.i601 = getelementptr inbounds %"class.cvc5::internal::expr::NodeValue", ptr %143, i64 0, i32 3, i64 %spec.select.i.i599
  %144 = load ptr, ptr %arrayidx.i.i601, align 8, !noalias !62
  store ptr %144, ptr %ref.tmp202, align 8, !alias.scope !62
  %bf.load.i.i.i602 = load i64, ptr %144, align 8, !noalias !62
  %bf.lshr.i.i.i603 = lshr i64 %bf.load.i.i.i602, 40
  %145 = trunc i64 %bf.lshr.i.i.i603 to i32
  %bf.cast.i.i.i604 = and i32 %145, 1048575
  %cmp.i.i.i605 = icmp ult i32 %bf.cast.i.i.i604, 1048574
  br i1 %cmp.i.i.i605, label %if.then.i.i.i610, label %if.else.i.i.i606

if.then.i.i.i610:                                 ; preds = %call2.i.i.i.noexc615
  %bf.value.i.i.i611 = add i64 %bf.load.i.i.i602, 1099511627776
  %bf.shl.i.i.i612 = and i64 %bf.value.i.i.i611, 1152920405095219200
  %bf.clear7.i.i.i613 = and i64 %bf.load.i.i.i602, -1152920405095219201
  %bf.set.i.i.i614 = or disjoint i64 %bf.shl.i.i.i612, %bf.clear7.i.i.i613
  store i64 %bf.set.i.i.i614, ptr %144, align 8, !noalias !62
  br label %invoke.cont203

if.else.i.i.i606:                                 ; preds = %call2.i.i.i.noexc615
  %cmp12.i.i.i607 = icmp eq i32 %bf.cast.i.i.i604, 1048574
  br i1 %cmp12.i.i.i607, label %if.then13.i.i.i608, label %invoke.cont203

if.then13.i.i.i608:                               ; preds = %if.else.i.i.i606
  %bf.set23.i.i.i609 = or i64 %bf.load.i.i.i602, 1152920405095219200
  store i64 %bf.set23.i.i.i609, ptr %144, align 8, !noalias !62
  invoke void @_ZN4cvc58internal4expr9NodeValue20markRefCountMaxedOutEv(ptr noundef nonnull align 8 dereferenceable(16) %144)
          to label %invoke.cont203 unwind label %lpad195

invoke.cont203:                                   ; preds = %if.else.i.i.i606, %if.then.i.i.i610, %if.then13.i.i.i608
  %146 = load ptr, ptr %svar, align 8
  store ptr %146, ptr %agg.tmp204, align 8
  store ptr %117, ptr %agg.tmp207, align 8
