; ModuleID = 'bench/cvc5/original/resolution_proofs_util.cpp.ll'
source_filename = "bench/cvc5/original/resolution_proofs_util.cpp.ll"
target datalayout = "e-m:e-p270:32:32-p271:32:32-p272:64:64-i64:64-i128:128-f80:128-n8:16:32:64-S128"
target triple = "x86_64-unknown-linux-gnu"

%"class.std::ios_base::Init" = type { i8 }
%"class.cvc5::internal::NodeTemplate" = type { ptr }
%"struct.std::piecewise_construct_t" = type { i8 }
%"struct.cvc5::internal::proof::CrowdingLitInfo" = type { i64, i64, i8, i64 }
%"class.std::tuple.158" = type { %"struct.std::_Tuple_impl.159" }
%"struct.std::_Tuple_impl.159" = type { %"struct.std::_Head_base.160" }
%"struct.std::_Head_base.160" = type { ptr }
%"class.std::tuple.161" = type { i8 }
%"class.cvc5::internal::NodeBuilder" = type <{ %"class.cvc5::internal::expr::NodeValue", [10 x ptr], ptr, ptr, i32, [4 x i8] }>
%"class.cvc5::internal::expr::NodeValue" = type { i64, i16, i32, [0 x ptr] }
%"class.cvc5::internal::NodeTemplate.105" = type { ptr }
%"class.std::tuple.165" = type { %"struct.std::_Tuple_impl.166" }
%"struct.std::_Tuple_impl.166" = type { %"struct.std::_Head_base.167" }
%"struct.std::_Head_base.167" = type { ptr }
%"struct.std::__detail::_AllocNode" = type { ptr }
%"class.std::vector.0" = type { %"struct.std::_Vector_base.1" }
%"struct.std::_Vector_base.1" = type { %"struct.std::_Vector_base<cvc5::internal::NodeTemplate<true>, std::allocator<cvc5::internal::NodeTemplate<true>>>::_Vector_impl" }
%"struct.std::_Vector_base<cvc5::internal::NodeTemplate<true>, std::allocator<cvc5::internal::NodeTemplate<true>>>::_Vector_impl" = type { %"struct.std::_Vector_base<cvc5::internal::NodeTemplate<true>, std::allocator<cvc5::internal::NodeTemplate<true>>>::_Vector_impl_data" }
%"struct.std::_Vector_base<cvc5::internal::NodeTemplate<true>, std::allocator<cvc5::internal::NodeTemplate<true>>>::_Vector_impl_data" = type { ptr, ptr, ptr }
%"class.std::unordered_set.70" = type { %"class.std::_Hashtable.71" }
%"class.std::_Hashtable.71" = type { ptr, i64, %"struct.std::__detail::_Hash_node_base", i64, %"struct.std::__detail::_Prime_rehash_policy", ptr }
%"struct.std::__detail::_Hash_node_base" = type { ptr }
%"struct.std::__detail::_Prime_rehash_policy" = type { float, i64 }
%"class.std::vector.87" = type { %"struct.std::_Vector_base.88" }
%"struct.std::_Vector_base.88" = type { %"struct.std::_Vector_base<std::pair<cvc5::internal::NodeTemplate<true>, unsigned long>, std::allocator<std::pair<cvc5::internal::NodeTemplate<true>, unsigned long>>>::_Vector_impl" }
%"struct.std::_Vector_base<std::pair<cvc5::internal::NodeTemplate<true>, unsigned long>, std::allocator<std::pair<cvc5::internal::NodeTemplate<true>, unsigned long>>>::_Vector_impl" = type { %"struct.std::_Vector_base<std::pair<cvc5::internal::NodeTemplate<true>, unsigned long>, std::allocator<std::pair<cvc5::internal::NodeTemplate<true>, unsigned long>>>::_Vector_impl_data" }
%"struct.std::_Vector_base<std::pair<cvc5::internal::NodeTemplate<true>, unsigned long>, std::allocator<std::pair<cvc5::internal::NodeTemplate<true>, unsigned long>>>::_Vector_impl_data" = type { ptr, ptr, ptr }
%"class.std::map.92" = type { %"class.std::_Rb_tree.93" }
%"class.std::_Rb_tree.93" = type { %"struct.std::_Rb_tree<cvc5::internal::NodeTemplate<true>, std::pair<const cvc5::internal::NodeTemplate<true>, cvc5::internal::proof::CrowdingLitInfo>, std::_Select1st<std::pair<const cvc5::internal::NodeTemplate<true>, cvc5::internal::proof::CrowdingLitInfo>>, std::less<cvc5::internal::NodeTemplate<true>>>::_Rb_tree_impl" }
%"struct.std::_Rb_tree<cvc5::internal::NodeTemplate<true>, std::pair<const cvc5::internal::NodeTemplate<true>, cvc5::internal::proof::CrowdingLitInfo>, std::_Select1st<std::pair<const cvc5::internal::NodeTemplate<true>, cvc5::internal::proof::CrowdingLitInfo>>, std::less<cvc5::internal::NodeTemplate<true>>>::_Rb_tree_impl" = type { %"struct.std::_Rb_tree_key_compare.97", %"struct.std::_Rb_tree_header" }
%"struct.std::_Rb_tree_key_compare.97" = type { %"struct.std::less.98" }
%"struct.std::less.98" = type { i8 }
%"struct.std::_Rb_tree_header" = type { %"struct.std::_Rb_tree_node_base", i64 }
%"struct.std::_Rb_tree_node_base" = type { i32, ptr, ptr, ptr }
%"class.cvc5::internal::FatalStream" = type { i8 }
%"struct.std::pair.106" = type { %"class.cvc5::internal::NodeTemplate", i64 }
%"struct.std::_Rb_tree_node" = type { %"struct.std::_Rb_tree_node_base", %"struct.__gnu_cxx::__aligned_membuf" }
%"struct.__gnu_cxx::__aligned_membuf" = type { [40 x i8] }
%"struct.std::_Rb_tree<cvc5::internal::NodeTemplate<true>, std::pair<const cvc5::internal::NodeTemplate<true>, cvc5::internal::proof::CrowdingLitInfo>, std::_Select1st<std::pair<const cvc5::internal::NodeTemplate<true>, cvc5::internal::proof::CrowdingLitInfo>>, std::less<cvc5::internal::NodeTemplate<true>>>::_Auto_node" = type { ptr, ptr }
%"struct.__gnu_cxx::__ops::_Iter_less_iter" = type { i8 }

$_ZNK4cvc58internal12NodeTemplateILb1EE7notNodeEv = comdat any

$_ZN4cvc58internal12NodeTemplateILb1EED2Ev = comdat any

$_ZNSt6vectorIN4cvc58internal12NodeTemplateILb1EEESaIS3_EED2Ev = comdat any

$_ZNSt3mapIN4cvc58internal12NodeTemplateILb1EEENS1_5proof15CrowdingLitInfoESt4lessIS3_ESaISt4pairIKS3_S5_EEED2Ev = comdat any

$_ZNSt6vectorISt4pairIN4cvc58internal12NodeTemplateILb1EEEmESaIS5_EED2Ev = comdat any

$_ZNSt13unordered_setIN4cvc58internal12NodeTemplateILb0EEESt4hashIS3_ESt8equal_toIS3_ESaIS3_EED2Ev = comdat any

$_ZN4cvc58internal12NodeTemplateILb1EE6s_nullE = comdat any

$__clang_call_terminate = comdat any

$_ZNSt8_Rb_treeIN4cvc58internal12NodeTemplateILb1EEESt4pairIKS3_NS1_5proof15CrowdingLitInfoEESt10_Select1stIS8_ESt4lessIS3_ESaIS8_EE8_M_eraseEPSt13_Rb_tree_nodeIS8_E = comdat any

$_ZSt16__do_uninit_copyIN9__gnu_cxx17__normal_iteratorIPKN4cvc58internal12NodeTemplateILb1EEESt6vectorIS5_SaIS5_EEEEPS5_ET0_T_SE_SD_ = comdat any

$_ZSt8_DestroyIPN4cvc58internal12NodeTemplateILb1EEEEvT_S5_ = comdat any

$_ZSt8_DestroyIPN4cvc58internal12NodeTemplateILb1EEES3_EvT_S5_RSaIT0_E = comdat any

$_ZSt8_DestroyIPSt4pairIN4cvc58internal12NodeTemplateILb1EEEmES5_EvT_S7_RSaIT0_E = comdat any

$_ZSt8_DestroyIPSt4pairIN4cvc58internal12NodeTemplateILb1EEEmEEvT_S7_ = comdat any

$_ZNSt4pairIN4cvc58internal12NodeTemplateILb1EEEmED2Ev = comdat any

$_ZNSt10_HashtableIN4cvc58internal12NodeTemplateILb0EEES3_SaIS3_ENSt8__detail9_IdentityESt8equal_toIS3_ESt4hashIS3_ENS5_18_Mod_range_hashingENS5_20_Default_ranged_hashENS5_20_Prime_rehash_policyENS5_17_Hashtable_traitsILb1ELb1ELb1EEEE16_M_insert_uniqueIS3_S3_NS5_10_AllocNodeISaINS5_10_Hash_nodeIS3_Lb1EEEEEEEESt4pairINS5_14_Node_iteratorIS3_Lb1ELb1EEEbEOT_OT0_RKT1_ = comdat any

$_ZNSt10_HashtableIN4cvc58internal12NodeTemplateILb0EEES3_SaIS3_ENSt8__detail9_IdentityESt8equal_toIS3_ESt4hashIS3_ENS5_18_Mod_range_hashingENS5_20_Default_ranged_hashENS5_20_Prime_rehash_policyENS5_17_Hashtable_traitsILb1ELb1ELb1EEEE21_M_insert_unique_nodeEmmPNS5_10_Hash_nodeIS3_Lb1EEEm = comdat any

$_ZNSt10_HashtableIN4cvc58internal12NodeTemplateILb0EEES3_SaIS3_ENSt8__detail9_IdentityESt8equal_toIS3_ESt4hashIS3_ENS5_18_Mod_range_hashingENS5_20_Default_ranged_hashENS5_20_Prime_rehash_policyENS5_17_Hashtable_traitsILb1ELb1ELb1EEEE13_M_rehash_auxEmSt17integral_constantIbLb1EE = comdat any

$_ZSt9__find_ifIN4cvc58internal4expr9NodeValue8iteratorINS1_12NodeTemplateILb1EEEEEN9__gnu_cxx5__ops16_Iter_equals_valIKS6_EEET_SD_SD_T0_St26random_access_iterator_tag = comdat any

$_ZNSt6vectorISt4pairIN4cvc58internal12NodeTemplateILb1EEEmESaIS5_EE17_M_realloc_insertIJRS4_mEEEvN9__gnu_cxx17__normal_iteratorIPS5_S7_EEDpOT_ = comdat any

$_ZNSt16allocator_traitsISaISt4pairIN4cvc58internal12NodeTemplateILb1EEEmEEE7destroyIS5_EEvRS6_PT_ = comdat any

$_ZSt16__do_uninit_copyIPKSt4pairIN4cvc58internal12NodeTemplateILb1EEEmEPS5_ET0_T_SA_S9_ = comdat any

$_ZNSt8_Rb_treeIN4cvc58internal12NodeTemplateILb1EEESt4pairIKS3_NS1_5proof15CrowdingLitInfoEESt10_Select1stIS8_ESt4lessIS3_ESaIS8_EE22_M_emplace_hint_uniqueIJRKSt21piecewise_construct_tSt5tupleIJRS5_EESJ_IJEEEEESt17_Rb_tree_iteratorIS8_ESt23_Rb_tree_const_iteratorIS8_EDpOT_ = comdat any

$_ZNSt8_Rb_treeIN4cvc58internal12NodeTemplateILb1EEESt4pairIKS3_NS1_5proof15CrowdingLitInfoEESt10_Select1stIS8_ESt4lessIS3_ESaIS8_EE29_M_get_insert_hint_unique_posESt23_Rb_tree_const_iteratorIS8_ERS5_ = comdat any

$_ZNSt8_Rb_treeIN4cvc58internal12NodeTemplateILb1EEESt4pairIKS3_NS1_5proof15CrowdingLitInfoEESt10_Select1stIS8_ESt4lessIS3_ESaIS8_EE10_Auto_nodeD2Ev = comdat any

$_ZNSt8_Rb_treeIN4cvc58internal12NodeTemplateILb1EEESt4pairIKS3_NS1_5proof15CrowdingLitInfoEESt10_Select1stIS8_ESt4lessIS3_ESaIS8_EE17_M_construct_nodeIJRKSt21piecewise_construct_tSt5tupleIJRS5_EESJ_IJEEEEEvPSt13_Rb_tree_nodeIS8_EDpOT_ = comdat any

$_ZSt4swapIN4cvc58internal12NodeTemplateILb1EEEENSt9enable_ifIXsr6__and_ISt6__not_ISt15__is_tuple_likeIT_EESt21is_move_constructibleIS7_ESt18is_move_assignableIS7_EEE5valueEvE4typeERS7_SG_ = comdat any

$_ZSt6__sortIN9__gnu_cxx17__normal_iteratorIPmSt6vectorImSaImEEEENS0_5__ops15_Iter_less_iterEEvT_S9_T0_ = comdat any

$_ZSt16__introsort_loopIN9__gnu_cxx17__normal_iteratorIPmSt6vectorImSaImEEEElNS0_5__ops15_Iter_less_iterEEvT_S9_T0_T1_ = comdat any

$_ZSt11__make_heapIN9__gnu_cxx17__normal_iteratorIPmSt6vectorImSaImEEEENS0_5__ops15_Iter_less_iterEEvT_S9_RT0_ = comdat any

$_ZNSt8_Rb_treeIN4cvc58internal12NodeTemplateILb1EEESt4pairIKS3_NS1_5proof15CrowdingLitInfoEESt10_Select1stIS8_ESt4lessIS3_ESaIS8_EE22_M_emplace_hint_uniqueIJRKSt21piecewise_construct_tSt5tupleIJOS3_EESJ_IJEEEEESt17_Rb_tree_iteratorIS8_ESt23_Rb_tree_const_iteratorIS8_EDpOT_ = comdat any

$_ZNSt8_Rb_treeIN4cvc58internal12NodeTemplateILb1EEESt4pairIKS3_NS1_5proof15CrowdingLitInfoEESt10_Select1stIS8_ESt4lessIS3_ESaIS8_EE17_M_construct_nodeIJRKSt21piecewise_construct_tSt5tupleIJOS3_EESJ_IJEEEEEvPSt13_Rb_tree_nodeIS8_EDpOT_ = comdat any

$_ZNSt3_V28__rotateIN9__gnu_cxx17__normal_iteratorIPN4cvc58internal12NodeTemplateILb1EEESt6vectorIS6_SaIS6_EEEEEET_SC_SC_SC_St26random_access_iterator_tag = comdat any

$_ZNSt6vectorIN4cvc58internal12NodeTemplateILb1EEESaIS3_EE17_M_realloc_insertIJRKS3_EEEvN9__gnu_cxx17__normal_iteratorIPS3_S5_EEDpOT_ = comdat any

$_ZNSt16allocator_traitsISaIN4cvc58internal12NodeTemplateILb1EEEEE7destroyIS3_EEvRS4_PT_ = comdat any

$_ZSt16__do_uninit_copyIPKN4cvc58internal12NodeTemplateILb1EEEPS3_ET0_T_S8_S7_ = comdat any

$_ZNSt6vectorIN4cvc58internal12NodeTemplateILb1EEESaIS3_EE15_M_range_insertIN9__gnu_cxx17__normal_iteratorIPS3_S5_EEEEvSA_T_SB_St20forward_iterator_tag = comdat any

$_ZSt16__do_uninit_copyISt13move_iteratorIPN4cvc58internal12NodeTemplateILb1EEEES5_ET0_T_S8_S7_ = comdat any

$_ZSt16__do_uninit_copyIN9__gnu_cxx17__normal_iteratorIPN4cvc58internal12NodeTemplateILb1EEESt6vectorIS5_SaIS5_EEEES6_ET0_T_SC_SB_ = comdat any

$_ZSt9__find_ifIN4cvc58internal4expr9NodeValue8iteratorINS1_12NodeTemplateILb1EEEEEN9__gnu_cxx5__ops16_Iter_equals_valIKNS5_ILb0EEEEEET_SE_SE_T0_St26random_access_iterator_tag = comdat any

$_ZSt19piecewise_construct = comdat any

$_ZZN4cvc58internal4expr9NodeValue4nullEvE6s_null = comdat any

$_ZGVZN4cvc58internal4expr9NodeValue4nullEvE6s_null = comdat any

@_ZStL8__ioinit = internal global %"class.std::ios_base::Init" zeroinitializer, align 1
@__dso_handle = external hidden global i8
@.str = private unnamed_addr constant [2 x i8] c"{\00", align 1
@.str.1 = private unnamed_addr constant [3 x i8] c", \00", align 1
@.str.2 = private unnamed_addr constant [7 x i8] c"true, \00", align 1
@.str.3 = private unnamed_addr constant [6 x i8] c"false\00", align 1
@.str.4 = private unnamed_addr constant [2 x i8] c"}\00", align 1
@.str.6 = private unnamed_addr constant [2 x i8] c"\0A\00", align 1
@__PRETTY_FUNCTION__._ZN4cvc58internal5proof21eliminateCrowdingLitsEbRKSt6vectorINS0_12NodeTemplateILb1EEESaIS4_EES8_S8_S8_PNS0_7CDProofEPNS0_16ProofNodeManagerE = private unnamed_addr constant [195 x i8] c"Node cvc5::internal::proof::eliminateCrowdingLits(bool, const std::vector<Node> &, const std::vector<Node> &, const std::vector<Node> &, const std::vector<Node> &, CDProof *, ProofNodeManager *)\00", align 1
@.str.15 = private unnamed_addr constant [124 x i8] c"generated/home/dtcxzyw/WorkSpace/Projects/compilers/llvm-opt-benchmark/bench/cvc5/cvc5/src/proof/resolution_proofs_util.cpp\00", align 1
@.str.16 = private unnamed_addr constant [17 x i8] c"Check failure\0A\0A \00", align 1
@.str.17 = private unnamed_addr constant [17 x i8] c"j < childrenSize\00", align 1
@.str.47 = private unnamed_addr constant [1 x i8] zeroinitializer, align 1
@_ZN4cvc58internal12NodeTemplateILb1EE6s_nullE = linkonce_odr hidden global %"class.cvc5::internal::NodeTemplate" zeroinitializer, comdat, align 8
@_ZGVN4cvc58internal12NodeTemplateILb1EE6s_nullE = linkonce_odr hidden local_unnamed_addr global i64 0, comdat($_ZN4cvc58internal12NodeTemplateILb1EE6s_nullE), align 8
@.str.59 = private unnamed_addr constant [26 x i8] c"vector::_M_realloc_insert\00", align 1
@_ZSt19piecewise_construct = linkonce_odr constant %"struct.std::piecewise_construct_t" zeroinitializer, comdat, align 1
@.str.60 = private unnamed_addr constant [24 x i8] c"vector::_M_range_insert\00", align 1
@_ZZN4cvc58internal4expr9NodeValue4nullEvE6s_null = linkonce_odr local_unnamed_addr global ptr null, comdat, align 8
@_ZGVZN4cvc58internal4expr9NodeValue4nullEvE6s_null = linkonce_odr global i64 0, comdat, align 8
@llvm.global_ctors = appending global [2 x { i32, ptr, ptr }] [{ i32, ptr, ptr } { i32 65535, ptr @__cxx_global_var_init.55, ptr @_ZN4cvc58internal12NodeTemplateILb1EE6s_nullE }, { i32, ptr, ptr } { i32 65535, ptr @_GLOBAL__sub_I_resolution_proofs_util.cpp, ptr null }]
@llvm.used = appending global [1 x ptr] [ptr @_ZN4cvc58internal12NodeTemplateILb1EE6s_nullE], section "llvm.metadata"

declare void @_ZNSt8ios_base4InitC1Ev(ptr noundef nonnull align 1 dereferenceable(1)) unnamed_addr #0

; Function Attrs: nounwind
declare void @_ZNSt8ios_base4InitD1Ev(ptr noundef nonnull align 1 dereferenceable(1)) unnamed_addr #1

; Function Attrs: nofree nounwind
declare i32 @__cxa_atexit(ptr, ptr, ptr) local_unnamed_addr #2

; Function Attrs: mustprogress uwtable
define hidden noundef nonnull align 8 dereferenceable(8) ptr @_ZN4cvc58internal5prooflsERSoNS1_15CrowdingLitInfoE(ptr noundef nonnull returned align 8 dereferenceable(8) %out, ptr nocapture noundef readonly byval(%"struct.cvc5::internal::proof::CrowdingLitInfo") align 8 %info) local_unnamed_addr #3 {
entry:
  %call = tail call noundef nonnull align 8 dereferenceable(8) ptr @_ZStlsISt11char_traitsIcEERSt13basic_ostreamIcT_ES5_PKc(ptr noundef nonnull align 8 dereferenceable(8) %out, ptr noundef nonnull @.str)
  %0 = load i64, ptr %info, align 8
  %call1 = tail call noundef nonnull align 8 dereferenceable(8) ptr @_ZNSolsEm(ptr noundef nonnull align 8 dereferenceable(8) %call, i64 noundef %0)
  %call2 = tail call noundef nonnull align 8 dereferenceable(8) ptr @_ZStlsISt11char_traitsIcEERSt13basic_ostreamIcT_ES5_PKc(ptr noundef nonnull align 8 dereferenceable(8) %call1, ptr noundef nonnull @.str.1)
  %d_eliminator = getelementptr inbounds %"struct.cvc5::internal::proof::CrowdingLitInfo", ptr %info, i64 0, i32 1
  %1 = load i64, ptr %d_eliminator, align 8
  %call3 = tail call noundef nonnull align 8 dereferenceable(8) ptr @_ZNSolsEm(ptr noundef nonnull align 8 dereferenceable(8) %call2, i64 noundef %1)
  %call4 = tail call noundef nonnull align 8 dereferenceable(8) ptr @_ZStlsISt11char_traitsIcEERSt13basic_ostreamIcT_ES5_PKc(ptr noundef nonnull align 8 dereferenceable(8) %call3, ptr noundef nonnull @.str.1)
  %d_onlyCrowdAndConcLitsInElim = getelementptr inbounds %"struct.cvc5::internal::proof::CrowdingLitInfo", ptr %info, i64 0, i32 2
  %2 = load i8, ptr %d_onlyCrowdAndConcLitsInElim, align 8
  %3 = and i8 %2, 1
  %tobool.not = icmp eq i8 %3, 0
  br i1 %tobool.not, label %if.else, label %if.then

if.then:                                          ; preds = %entry
  %call5 = tail call noundef nonnull align 8 dereferenceable(8) ptr @_ZStlsISt11char_traitsIcEERSt13basic_ostreamIcT_ES5_PKc(ptr noundef nonnull align 8 dereferenceable(8) %out, ptr noundef nonnull @.str.2)
  %d_maxSafeMovePosition = getelementptr inbounds %"struct.cvc5::internal::proof::CrowdingLitInfo", ptr %info, i64 0, i32 3
  %4 = load i64, ptr %d_maxSafeMovePosition, align 8
  %call6 = tail call noundef nonnull align 8 dereferenceable(8) ptr @_ZNSolsEm(ptr noundef nonnull align 8 dereferenceable(8) %call5, i64 noundef %4)
  br label %if.end

if.else:                                          ; preds = %entry
  %call7 = tail call noundef nonnull align 8 dereferenceable(8) ptr @_ZStlsISt11char_traitsIcEERSt13basic_ostreamIcT_ES5_PKc(ptr noundef nonnull align 8 dereferenceable(8) %out, ptr noundef nonnull @.str.3)
  br label %if.end

if.end:                                           ; preds = %if.else, %if.then
  %call8 = tail call noundef nonnull align 8 dereferenceable(8) ptr @_ZStlsISt11char_traitsIcEERSt13basic_ostreamIcT_ES5_PKc(ptr noundef nonnull align 8 dereferenceable(8) %out, ptr noundef nonnull @.str.4)
  ret ptr %out
}

declare noundef nonnull align 8 dereferenceable(8) ptr @_ZStlsISt11char_traitsIcEERSt13basic_ostreamIcT_ES5_PKc(ptr noundef nonnull align 8 dereferenceable(8), ptr noundef) local_unnamed_addr #0

declare noundef nonnull align 8 dereferenceable(8) ptr @_ZNSolsEm(ptr noundef nonnull align 8 dereferenceable(8), i64 noundef) local_unnamed_addr #0

; Function Attrs: mustprogress uwtable
define hidden void @_ZN4cvc58internal5proof21eliminateCrowdingLitsEbRKSt6vectorINS0_12NodeTemplateILb1EEESaIS4_EES8_S8_S8_PNS0_7CDProofEPNS0_16ProofNodeManagerE(ptr noalias sret(%"class.cvc5::internal::NodeTemplate") align 8 %agg.result, i1 noundef zeroext %reorderPremises, ptr nocapture noundef nonnull readonly align 8 dereferenceable(24) %clauseLits, ptr nocapture noundef nonnull readonly align 8 dereferenceable(24) %targetClauseLits, ptr nocapture noundef nonnull readonly align 8 dereferenceable(24) %children, ptr nocapture noundef nonnull readonly align 8 dereferenceable(24) %args, ptr noundef %cdp, ptr noundef %pnm) local_unnamed_addr #3 personality ptr @__gxx_personality_v0 {
cond.end24:
  %ref.tmp9.i3636 = alloca %"class.std::tuple.158", align 8
  %ref.tmp10.i3637 = alloca %"class.std::tuple.161", align 1
  %ref.tmp9.i2893 = alloca %"class.std::tuple.158", align 8
  %ref.tmp10.i2894 = alloca %"class.std::tuple.161", align 1
  %ref.tmp9.i2857 = alloca %"class.std::tuple.158", align 8
  %ref.tmp10.i2858 = alloca %"class.std::tuple.161", align 1
  %ref.tmp9.i2821 = alloca %"class.std::tuple.158", align 8
  %ref.tmp10.i2822 = alloca %"class.std::tuple.161", align 1
  %ref.tmp9.i2148 = alloca %"class.std::tuple.158", align 8
  %ref.tmp10.i2149 = alloca %"class.std::tuple.161", align 1
  %ref.tmp9.i2111 = alloca %"class.std::tuple.158", align 8
  %ref.tmp10.i2112 = alloca %"class.std::tuple.161", align 1
  %nb.i.i1819 = alloca %"class.cvc5::internal::NodeBuilder", align 8
  %agg.tmp.i.i1820 = alloca %"class.cvc5::internal::NodeTemplate.105", align 8
  %ref.tmp9.i1709 = alloca %"class.std::tuple.165", align 8
  %ref.tmp10.i1710 = alloca %"class.std::tuple.161", align 1
  %ref.tmp9.i1465 = alloca %"class.std::tuple.158", align 8
  %ref.tmp10.i1466 = alloca %"class.std::tuple.161", align 1
  %ref.tmp9.i1428 = alloca %"class.std::tuple.158", align 8
  %ref.tmp10.i1429 = alloca %"class.std::tuple.161", align 1
  %ref.tmp9.i1168 = alloca %"class.std::tuple.158", align 8
  %ref.tmp10.i1169 = alloca %"class.std::tuple.161", align 1
  %ref.tmp9.i = alloca %"class.std::tuple.158", align 8
  %ref.tmp10.i = alloca %"class.std::tuple.161", align 1
  %nb.i.i723 = alloca %"class.cvc5::internal::NodeBuilder", align 8
  %agg.tmp.i.i724 = alloca %"class.cvc5::internal::NodeTemplate.105", align 8
  %nb.i.i708 = alloca %"class.cvc5::internal::NodeBuilder", align 8
  %agg.tmp.i.i709 = alloca %"class.cvc5::internal::NodeTemplate.105", align 8
  %nb.i.i = alloca %"class.cvc5::internal::NodeBuilder", align 8
  %agg.tmp.i.i = alloca %"class.cvc5::internal::NodeTemplate.105", align 8
  %__node_gen.i.i = alloca %"struct.std::__detail::_AllocNode", align 8
  %newChildren = alloca %"class.std::vector.0", align 8
  %newArgs = alloca %"class.std::vector.0", align 8
  %trueNode = alloca %"class.cvc5::internal::NodeTemplate", align 8
  %ref.tmp28 = alloca i8, align 1
  %crowding = alloca %"class.std::unordered_set.70", align 8
  %lastInclusion = alloca %"class.std::vector.87", align 8
  %crowdLitsInfo = alloca %"class.std::map.92", align 8
  %ref.tmp32 = alloca %"class.cvc5::internal::NodeTemplate.105", align 8
  %crowdLit = alloca %"class.cvc5::internal::NodeTemplate", align 8
  %ref.tmp56 = alloca %"class.cvc5::internal::NodeTemplate.105", align 8
  %ref.tmp96 = alloca %"class.cvc5::internal::NodeTemplate", align 8
  %ref.tmp138 = alloca i64, align 8
  %pivot = alloca %"class.cvc5::internal::NodeTemplate", align 8
  %ref.tmp200 = alloca %"class.cvc5::internal::NodeTemplate", align 8
  %ref.tmp209 = alloca %"class.cvc5::internal::NodeTemplate", align 8
  %ref.tmp281 = alloca %"class.cvc5::internal::FatalStream", align 1
  %crowdingLit = alloca %"class.cvc5::internal::NodeTemplate", align 8
  %ref.tmp367 = alloca %"class.cvc5::internal::NodeTemplate", align 8
  %ref.tmp429 = alloca %"class.cvc5::internal::NodeTemplate.105", align 8
  %ref.tmp430 = alloca %"class.cvc5::internal::NodeTemplate", align 8
  %ref.tmp479 = alloca %"class.cvc5::internal::NodeTemplate", align 8
  %ref.tmp505 = alloca %"class.cvc5::internal::NodeTemplate", align 8
  %ref.tmp517 = alloca %"class.cvc5::internal::NodeTemplate", align 8
  %ref.tmp522 = alloca %"class.cvc5::internal::NodeTemplate", align 8
  %crowdingLit746 = alloca %"class.cvc5::internal::NodeTemplate", align 8
  %childrenRes = alloca %"class.std::vector.0", align 8
  %childrenResArgs = alloca %"class.std::vector.0", align 8
  %resPlaceHolder = alloca %"class.cvc5::internal::NodeTemplate", align 8
  %ref.tmp1325 = alloca %"class.cvc5::internal::NodeTemplate", align 8
  %agg.tmp1328 = alloca %"class.cvc5::internal::NodeTemplate", align 8
  %agg.tmp1367 = alloca %"class.cvc5::internal::NodeTemplate", align 8
  %ref.tmp1376 = alloca %"class.cvc5::internal::NodeTemplate", align 8
  %ref.tmp1379 = alloca %"class.std::vector.0", align 8
  %ref.tmp1381 = alloca [1 x %"class.cvc5::internal::NodeTemplate"], align 8
  %ref.tmp1389 = alloca %"class.std::vector.0", align 8
  %agg.tmp1390 = alloca %"class.cvc5::internal::NodeTemplate", align 8
  %agg.tmp1418 = alloca %"class.cvc5::internal::NodeTemplate", align 8
  %ref.tmp1420 = alloca %"class.std::vector.0", align 8
  %ref.tmp1422 = alloca [1 x %"class.cvc5::internal::NodeTemplate"], align 8
  %ref.tmp1440 = alloca %"class.std::vector.0", align 8
  %_M_finish.i.i = getelementptr inbounds %"struct.std::_Vector_base<cvc5::internal::NodeTemplate<true>, std::allocator<cvc5::internal::NodeTemplate<true>>>::_Vector_impl_data", ptr %children, i64 0, i32 1
  %0 = load ptr, ptr %_M_finish.i.i, align 8
  %1 = load ptr, ptr %children, align 8
  %sub.ptr.lhs.cast.i.i = ptrtoint ptr %0 to i64
  %sub.ptr.rhs.cast.i.i = ptrtoint ptr %1 to i64
  %sub.ptr.sub.i.i = sub i64 %sub.ptr.lhs.cast.i.i, %sub.ptr.rhs.cast.i.i
  %sub.ptr.div.i.i = ashr exact i64 %sub.ptr.sub.i.i, 3
  %cmp.not.i.i.i.i = icmp eq ptr %0, %1
  br i1 %cmp.not.i.i.i.i, label %invoke.cont.i, label %cond.true.i.i.i.i

cond.true.i.i.i.i:                                ; preds = %cond.end24
  %cmp.i.i.i.i.i.i = icmp ugt i64 %sub.ptr.div.i.i, 1152921504606846975
  br i1 %cmp.i.i.i.i.i.i, label %if.then3.i.i.i.i.i.i, label %_ZNSt16allocator_traitsISaIN4cvc58internal12NodeTemplateILb1EEEEE8allocateERS4_m.exit.i.i.i.i

if.then3.i.i.i.i.i.i:                             ; preds = %cond.true.i.i.i.i
  tail call void @_ZSt28__throw_bad_array_new_lengthv() #18
  unreachable

_ZNSt16allocator_traitsISaIN4cvc58internal12NodeTemplateILb1EEEEE8allocateERS4_m.exit.i.i.i.i: ; preds = %cond.true.i.i.i.i
  %call5.i.i.i.i2.i6.i = tail call noalias noundef nonnull ptr @_Znwm(i64 noundef %sub.ptr.sub.i.i) #19
  br label %invoke.cont.i

invoke.cont.i:                                    ; preds = %_ZNSt16allocator_traitsISaIN4cvc58internal12NodeTemplateILb1EEEEE8allocateERS4_m.exit.i.i.i.i, %cond.end24
  %2 = phi ptr [ null, %cond.end24 ], [ %call5.i.i.i.i2.i6.i, %_ZNSt16allocator_traitsISaIN4cvc58internal12NodeTemplateILb1EEEEE8allocateERS4_m.exit.i.i.i.i ]
  store ptr %2, ptr %newChildren, align 8
  %_M_finish.i.i.i = getelementptr inbounds %"struct.std::_Vector_base<cvc5::internal::NodeTemplate<true>, std::allocator<cvc5::internal::NodeTemplate<true>>>::_Vector_impl_data", ptr %newChildren, i64 0, i32 1
  %add.ptr.i.i.i = getelementptr inbounds %"class.cvc5::internal::NodeTemplate", ptr %2, i64 %sub.ptr.div.i.i
  %_M_end_of_storage.i.i.i = getelementptr inbounds %"struct.std::_Vector_base<cvc5::internal::NodeTemplate<true>, std::allocator<cvc5::internal::NodeTemplate<true>>>::_Vector_impl_data", ptr %newChildren, i64 0, i32 2
  store ptr %add.ptr.i.i.i, ptr %_M_end_of_storage.i.i.i, align 8
  %call.i.i.i8.i = invoke noundef ptr @_ZSt16__do_uninit_copyIN9__gnu_cxx17__normal_iteratorIPKN4cvc58internal12NodeTemplateILb1EEESt6vectorIS5_SaIS5_EEEEPS5_ET0_T_SE_SD_(ptr %1, ptr %0, ptr noundef %2)
          to label %_ZNSt6vectorIN4cvc58internal12NodeTemplateILb1EEESaIS3_EEC2ERKS5_.exit unwind label %lpad10.i

lpad10.i:                                         ; preds = %invoke.cont.i
  %3 = landingpad { ptr, i32 }
          cleanup
  %tobool.not.i.i.i = icmp eq ptr %2, null
  br i1 %tobool.not.i.i.i, label %common.resume, label %if.then.i.i.i

if.then.i.i.i:                                    ; preds = %lpad10.i
  tail call void @_ZdlPv(ptr noundef nonnull %2) #20
  br label %common.resume

common.resume:                                    ; preds = %lpad10.i, %if.then.i.i.i, %ehcleanup1602
  %common.resume.op = phi { ptr, i32 } [ %.pn114.pn.pn.pn, %ehcleanup1602 ], [ %3, %if.then.i.i.i ], [ %3, %lpad10.i ]
  resume { ptr, i32 } %common.resume.op

_ZNSt6vectorIN4cvc58internal12NodeTemplateILb1EEESaIS3_EEC2ERKS5_.exit: ; preds = %invoke.cont.i
  store ptr %call.i.i.i8.i, ptr %_M_finish.i.i.i, align 8
  %_M_finish.i.i224 = getelementptr inbounds %"struct.std::_Vector_base<cvc5::internal::NodeTemplate<true>, std::allocator<cvc5::internal::NodeTemplate<true>>>::_Vector_impl_data", ptr %args, i64 0, i32 1
  %4 = load ptr, ptr %_M_finish.i.i224, align 8
  %5 = load ptr, ptr %args, align 8
  %sub.ptr.lhs.cast.i.i225 = ptrtoint ptr %4 to i64
  %sub.ptr.rhs.cast.i.i226 = ptrtoint ptr %5 to i64
  %sub.ptr.sub.i.i227 = sub i64 %sub.ptr.lhs.cast.i.i225, %sub.ptr.rhs.cast.i.i226
  %sub.ptr.div.i.i228 = ashr exact i64 %sub.ptr.sub.i.i227, 3
  call void @llvm.memset.p0.i64(ptr noundef nonnull align 8 dereferenceable(24) %newArgs, i8 0, i64 24, i1 false)
  %cmp.not.i.i.i.i229 = icmp eq ptr %4, %5
  br i1 %cmp.not.i.i.i.i229, label %invoke.cont.i234, label %cond.true.i.i.i.i230

cond.true.i.i.i.i230:                             ; preds = %_ZNSt6vectorIN4cvc58internal12NodeTemplateILb1EEESaIS3_EEC2ERKS5_.exit
  %cmp.i.i.i.i.i.i231 = icmp ugt i64 %sub.ptr.div.i.i228, 1152921504606846975
  br i1 %cmp.i.i.i.i.i.i231, label %if.then3.i.i.i.i.i.i244, label %_ZNSt16allocator_traitsISaIN4cvc58internal12NodeTemplateILb1EEEEE8allocateERS4_m.exit.i.i.i.i232

if.then3.i.i.i.i.i.i244:                          ; preds = %cond.true.i.i.i.i230
  invoke void @_ZSt28__throw_bad_array_new_lengthv() #18
          to label %.noexc unwind label %lpad

.noexc:                                           ; preds = %if.then3.i.i.i.i.i.i244
  unreachable

_ZNSt16allocator_traitsISaIN4cvc58internal12NodeTemplateILb1EEEEE8allocateERS4_m.exit.i.i.i.i232: ; preds = %cond.true.i.i.i.i230
  %call5.i.i.i.i2.i6.i233245 = invoke noalias noundef nonnull ptr @_Znwm(i64 noundef %sub.ptr.sub.i.i227) #19
          to label %invoke.cont.i234 unwind label %lpad

invoke.cont.i234:                                 ; preds = %_ZNSt16allocator_traitsISaIN4cvc58internal12NodeTemplateILb1EEEEE8allocateERS4_m.exit.i.i.i.i232, %_ZNSt6vectorIN4cvc58internal12NodeTemplateILb1EEESaIS3_EEC2ERKS5_.exit
  %6 = phi ptr [ null, %_ZNSt6vectorIN4cvc58internal12NodeTemplateILb1EEESaIS3_EEC2ERKS5_.exit ], [ %call5.i.i.i.i2.i6.i233245, %_ZNSt16allocator_traitsISaIN4cvc58internal12NodeTemplateILb1EEEEE8allocateERS4_m.exit.i.i.i.i232 ]
  store ptr %6, ptr %newArgs, align 8
  %_M_finish.i.i.i236 = getelementptr inbounds %"struct.std::_Vector_base<cvc5::internal::NodeTemplate<true>, std::allocator<cvc5::internal::NodeTemplate<true>>>::_Vector_impl_data", ptr %newArgs, i64 0, i32 1
  store ptr %6, ptr %_M_finish.i.i.i236, align 8
  %add.ptr.i.i.i237 = getelementptr inbounds %"class.cvc5::internal::NodeTemplate", ptr %6, i64 %sub.ptr.div.i.i228
  %_M_end_of_storage.i.i.i238 = getelementptr inbounds %"struct.std::_Vector_base<cvc5::internal::NodeTemplate<true>, std::allocator<cvc5::internal::NodeTemplate<true>>>::_Vector_impl_data", ptr %newArgs, i64 0, i32 2
  store ptr %add.ptr.i.i.i237, ptr %_M_end_of_storage.i.i.i238, align 8
  %call.i.i.i8.i239 = invoke noundef ptr @_ZSt16__do_uninit_copyIN9__gnu_cxx17__normal_iteratorIPKN4cvc58internal12NodeTemplateILb1EEESt6vectorIS5_SaIS5_EEEEPS5_ET0_T_SE_SD_(ptr %5, ptr %4, ptr noundef %6)
          to label %invoke.cont unwind label %lpad10.i240

lpad10.i240:                                      ; preds = %invoke.cont.i234
  %7 = landingpad { ptr, i32 }
          cleanup
  %tobool.not.i.i.i241 = icmp eq ptr %6, null
  br i1 %tobool.not.i.i.i241, label %ehcleanup1602, label %if.then.i.i.i242

if.then.i.i.i242:                                 ; preds = %lpad10.i240
  tail call void @_ZdlPv(ptr noundef nonnull %6) #20
  br label %ehcleanup1602

invoke.cont:                                      ; preds = %invoke.cont.i234
  store ptr %call.i.i.i8.i239, ptr %_M_finish.i.i.i236, align 8
  %call27 = invoke noundef ptr @_ZN4cvc58internal11NodeManager9currentNMEv()
          to label %invoke.cont26 unwind label %lpad25

invoke.cont26:                                    ; preds = %invoke.cont
  store i8 1, ptr %ref.tmp28, align 1
  invoke void @_ZN4cvc58internal11NodeManager7mkConstIbEENS0_12NodeTemplateILb1EEERKT_(ptr nonnull sret(%"class.cvc5::internal::NodeTemplate") align 8 %trueNode, ptr noundef nonnull align 8 dereferenceable(3360) %call27, ptr noundef nonnull align 1 dereferenceable(1) %ref.tmp28)
          to label %invoke.cont29 unwind label %lpad25

invoke.cont29:                                    ; preds = %invoke.cont26
  %_M_single_bucket.i.i = getelementptr inbounds %"class.std::_Hashtable.71", ptr %crowding, i64 0, i32 5
  store ptr %_M_single_bucket.i.i, ptr %crowding, align 8
  %_M_bucket_count.i.i = getelementptr inbounds %"class.std::_Hashtable.71", ptr %crowding, i64 0, i32 1
  store i64 1, ptr %_M_bucket_count.i.i, align 8
  %_M_before_begin.i.i = getelementptr inbounds %"class.std::_Hashtable.71", ptr %crowding, i64 0, i32 2
  %_M_rehash_policy.i.i = getelementptr inbounds %"class.std::_Hashtable.71", ptr %crowding, i64 0, i32 4
  call void @llvm.memset.p0.i64(ptr noundef nonnull align 8 dereferenceable(16) %_M_before_begin.i.i, i8 0, i64 16, i1 false)
  store float 1.000000e+00, ptr %_M_rehash_policy.i.i, align 8
  %_M_next_resize.i.i.i = getelementptr inbounds %"class.std::_Hashtable.71", ptr %crowding, i64 0, i32 4, i32 1
  call void @llvm.memset.p0.i64(ptr noundef nonnull align 8 dereferenceable(16) %_M_next_resize.i.i.i, i8 0, i64 16, i1 false)
  %8 = load ptr, ptr %_M_finish.i.i, align 8
  %9 = load ptr, ptr %children, align 8
  %sub.ptr.lhs.cast.i = ptrtoint ptr %8 to i64
  %sub.ptr.rhs.cast.i = ptrtoint ptr %9 to i64
  %sub.ptr.sub.i = sub i64 %sub.ptr.lhs.cast.i, %sub.ptr.rhs.cast.i
  %sub.ptr.div.i = ashr exact i64 %sub.ptr.sub.i, 3
  call void @llvm.memset.p0.i64(ptr noundef nonnull align 8 dereferenceable(24) %lastInclusion, i8 0, i64 24, i1 false)
  %10 = getelementptr inbounds i8, ptr %crowdLitsInfo, i64 8
  store i32 0, ptr %10, align 8
  %_M_parent.i.i.i.i.i = getelementptr inbounds i8, ptr %crowdLitsInfo, i64 16
  store ptr null, ptr %_M_parent.i.i.i.i.i, align 8
  %_M_left.i.i.i.i.i = getelementptr inbounds i8, ptr %crowdLitsInfo, i64 24
  store ptr %10, ptr %_M_left.i.i.i.i.i, align 8
  %_M_right.i.i.i.i.i = getelementptr inbounds i8, ptr %crowdLitsInfo, i64 32
  store ptr %10, ptr %_M_right.i.i.i.i.i, align 8
  %_M_node_count.i.i.i.i.i = getelementptr inbounds i8, ptr %crowdLitsInfo, i64 40
  store i64 0, ptr %_M_node_count.i.i.i.i.i, align 8
  %_M_finish.i247 = getelementptr inbounds %"struct.std::_Vector_base<cvc5::internal::NodeTemplate<true>, std::allocator<cvc5::internal::NodeTemplate<true>>>::_Vector_impl_data", ptr %clauseLits, i64 0, i32 1
  %11 = load ptr, ptr %_M_finish.i247, align 8
  %12 = load ptr, ptr %clauseLits, align 8
  %cmp6516.not = icmp eq ptr %11, %12
  br i1 %cmp6516.not, label %cond.true309.thread, label %for.body.lr.ph

cond.true309.thread:                              ; preds = %invoke.cont29
  %_M_finish.i11376680 = getelementptr inbounds %"struct.std::_Vector_base<std::pair<cvc5::internal::NodeTemplate<true>, unsigned long>, std::allocator<std::pair<cvc5::internal::NodeTemplate<true>, unsigned long>>>::_Vector_impl_data", ptr %lastInclusion, i64 0, i32 1
  br label %invoke.cont336

for.body.lr.ph:                                   ; preds = %invoke.cont29
  %sub.ptr.lhs.cast.i248 = ptrtoint ptr %11 to i64
  %sub.ptr.rhs.cast.i249 = ptrtoint ptr %12 to i64
  %sub.ptr.sub.i250 = sub i64 %sub.ptr.lhs.cast.i248, %sub.ptr.rhs.cast.i249
  %sub.ptr.div.i251 = ashr exact i64 %sub.ptr.sub.i250, 3
  %_M_element_count.i.i.i.i = getelementptr inbounds %"class.std::_Hashtable.71", ptr %crowding, i64 0, i32 3
  %_M_finish.i257 = getelementptr inbounds %"struct.std::_Vector_base<cvc5::internal::NodeTemplate<true>, std::allocator<cvc5::internal::NodeTemplate<true>>>::_Vector_impl_data", ptr %targetClauseLits, i64 0, i32 1
  %storemerge1116495 = add nsw i64 %sub.ptr.div.i, -1
  %cmp80.not6496 = icmp eq i64 %storemerge1116495, 0
  %_M_finish.i408 = getelementptr inbounds %"struct.std::_Vector_base<std::pair<cvc5::internal::NodeTemplate<true>, unsigned long>, std::allocator<std::pair<cvc5::internal::NodeTemplate<true>, unsigned long>>>::_Vector_impl_data", ptr %lastInclusion, i64 0, i32 1
  %_M_end_of_storage.i = getelementptr inbounds %"struct.std::_Vector_base<std::pair<cvc5::internal::NodeTemplate<true>, unsigned long>, std::allocator<std::pair<cvc5::internal::NodeTemplate<true>, unsigned long>>>::_Vector_impl_data", ptr %lastInclusion, i64 0, i32 2
  %umax = call i64 @llvm.umax.i64(i64 %sub.ptr.div.i251, i64 1)
  br label %for.body

for.body:                                         ; preds = %for.body.lr.ph, %for.inc303
  %i.06520 = phi i64 [ 0, %for.body.lr.ph ], [ %inc304, %for.inc303 ]
  %eliminators.sroa.0.06519 = phi ptr [ null, %for.body.lr.ph ], [ %eliminators.sroa.0.8, %for.inc303 ]
  %eliminators.sroa.13.06518 = phi ptr [ null, %for.body.lr.ph ], [ %eliminators.sroa.13.5, %for.inc303 ]
  %eliminators.sroa.26.06517 = phi ptr [ null, %for.body.lr.ph ], [ %eliminators.sroa.26.5, %for.inc303 ]
  %13 = load ptr, ptr %clauseLits, align 8
  %add.ptr.i252 = getelementptr inbounds %"class.cvc5::internal::NodeTemplate", ptr %13, i64 %i.06520
  %14 = load ptr, ptr %add.ptr.i252, align 8
  store ptr %14, ptr %ref.tmp32, align 8
  %15 = load i64, ptr %_M_element_count.i.i.i.i, align 8
  %cmp.not.not.i.i.i = icmp eq i64 %15, 0
  br i1 %cmp.not.not.i.i.i, label %for.cond.i.i.i, label %if.end15.i.i.i

for.cond.i.i.i:                                   ; preds = %for.body, %for.body.i.i.i
  %retval.sroa.0.0.in.i.i.i = phi ptr [ %retval.sroa.0.0.i.i.i, %for.body.i.i.i ], [ %_M_before_begin.i.i, %for.body ]
  %retval.sroa.0.0.i.i.i = load ptr, ptr %retval.sroa.0.0.in.i.i.i, align 8
  %cmp.i.not.i.i.i = icmp eq ptr %retval.sroa.0.0.i.i.i, null
  br i1 %cmp.i.not.i.i.i, label %lor.rhs, label %for.body.i.i.i

for.body.i.i.i:                                   ; preds = %for.cond.i.i.i
  %add.ptr.i.i.i254 = getelementptr inbounds i8, ptr %retval.sroa.0.0.i.i.i, i64 8
  %16 = load ptr, ptr %add.ptr.i.i.i254, align 8
  %cmp.i.i.i.i.i.i255 = icmp eq ptr %14, %16
  br i1 %cmp.i.i.i.i.i.i255, label %for.inc303, label %for.cond.i.i.i, !llvm.loop !4

if.end15.i.i.i:                                   ; preds = %for.body
  %call2.i.i.i.i256 = invoke noundef i64 @_ZNKSt4hashIN4cvc58internal12NodeTemplateILb0EEEEclERKS3_(ptr noundef nonnull align 1 dereferenceable(1) %crowding, ptr noundef nonnull align 8 dereferenceable(8) %ref.tmp32)
          to label %call2.i.i.i.i.noexc unwind label %lpad36

call2.i.i.i.i.noexc:                              ; preds = %if.end15.i.i.i
  %17 = load i64, ptr %_M_bucket_count.i.i, align 8
  %rem.i.i.i.i.i.i = urem i64 %call2.i.i.i.i256, %17
  %18 = load ptr, ptr %crowding, align 8
  %arrayidx.i.i.i.i.i = getelementptr inbounds ptr, ptr %18, i64 %rem.i.i.i.i.i.i
  %19 = load ptr, ptr %arrayidx.i.i.i.i.i, align 8
  %tobool.not.i.i.i.i.i = icmp eq ptr %19, null
  br i1 %tobool.not.i.i.i.i.i, label %lor.rhs, label %if.end.i.i.i.i.i

if.end.i.i.i.i.i:                                 ; preds = %call2.i.i.i.i.noexc
  %20 = load ptr, ptr %19, align 8
  %21 = load ptr, ptr %ref.tmp32, align 8
  %add.ptr8.i.i.i.i.i = getelementptr inbounds i8, ptr %20, i64 8
  %add.ptr.i9.i.i.i.i.i = getelementptr inbounds i8, ptr %20, i64 16
  %22 = load i64, ptr %add.ptr.i9.i.i.i.i.i, align 8
  %cmp.i.i10.i.i.i.i.i = icmp eq i64 %22, %call2.i.i.i.i256
  %23 = load ptr, ptr %add.ptr8.i.i.i.i.i, align 8
  %cmp.i.i.i.i11.i.i.i.i.i = icmp eq ptr %21, %23
  %24 = select i1 %cmp.i.i10.i.i.i.i.i, i1 %cmp.i.i.i.i11.i.i.i.i.i, i1 false
  br i1 %24, label %for.inc303, label %if.end3.i.i.i.i.i

for.cond.i.i.i.i.i:                               ; preds = %lor.lhs.false.i.i.i.i.i
  %add.ptr.i.i.i.i.i = getelementptr inbounds i8, ptr %27, i64 8
  %cmp.i.i.i.i.i.i.i = icmp eq i64 %28, %call2.i.i.i.i256
  %25 = load ptr, ptr %add.ptr.i.i.i.i.i, align 8
  %cmp.i.i.i.i.i.i.i.i.i = icmp eq ptr %21, %25
  %26 = select i1 %cmp.i.i.i.i.i.i.i, i1 %cmp.i.i.i.i.i.i.i.i.i, i1 false
  br i1 %26, label %for.inc303, label %if.end3.i.i.i.i.i, !llvm.loop !6

if.end3.i.i.i.i.i:                                ; preds = %if.end.i.i.i.i.i, %for.cond.i.i.i.i.i
  %__p.012.i.i.i.i.i = phi ptr [ %27, %for.cond.i.i.i.i.i ], [ %20, %if.end.i.i.i.i.i ]
  %27 = load ptr, ptr %__p.012.i.i.i.i.i, align 8
  %tobool5.not.i.i.i.i.i = icmp eq ptr %27, null
  br i1 %tobool5.not.i.i.i.i.i, label %lor.rhs, label %lor.lhs.false.i.i.i.i.i

lor.lhs.false.i.i.i.i.i:                          ; preds = %if.end3.i.i.i.i.i
  %add.ptr.i.i.i.i.i.i.i = getelementptr inbounds i8, ptr %27, i64 16
  %28 = load i64, ptr %add.ptr.i.i.i.i.i.i.i, align 8
  %rem.i.i.i.i.i.i.i.i = urem i64 %28, %17
  %cmp.not.i.i.i.i.i = icmp eq i64 %rem.i.i.i.i.i.i.i.i, %rem.i.i.i.i.i.i
  br i1 %cmp.not.i.i.i.i.i, label %for.cond.i.i.i.i.i, label %lor.rhs, !llvm.loop !6

lor.rhs:                                          ; preds = %if.end3.i.i.i.i.i, %lor.lhs.false.i.i.i.i.i, %for.cond.i.i.i, %call2.i.i.i.i.noexc
  %29 = load ptr, ptr %targetClauseLits, align 8
  %30 = load ptr, ptr %_M_finish.i257, align 8
  %31 = load ptr, ptr %clauseLits, align 8
  %add.ptr.i258 = getelementptr inbounds %"class.cvc5::internal::NodeTemplate", ptr %31, i64 %i.06520
  %sub.ptr.lhs.cast.i.i.i.i = ptrtoint ptr %30 to i64
  %sub.ptr.rhs.cast.i.i.i.i = ptrtoint ptr %29 to i64
  %sub.ptr.sub.i.i.i.i = sub i64 %sub.ptr.lhs.cast.i.i.i.i, %sub.ptr.rhs.cast.i.i.i.i
  %shr.i.i.i = ashr i64 %sub.ptr.sub.i.i.i.i, 5
  %cmp50.i.i.i = icmp sgt i64 %shr.i.i.i, 0
  br i1 %cmp50.i.i.i, label %for.body.lr.ph.i.i.i, label %for.end.i.i.i

for.body.lr.ph.i.i.i:                             ; preds = %lor.rhs
  %32 = load ptr, ptr %add.ptr.i258, align 8
  %33 = and i64 %sub.ptr.sub.i.i.i.i, -32
  %scevgep.i.i.i = getelementptr i8, ptr %29, i64 %33
  br label %for.body.i.i.i259

for.body.i.i.i259:                                ; preds = %if.end22.i.i.i, %for.body.lr.ph.i.i.i
  %__trip_count.052.i.i.i = phi i64 [ %shr.i.i.i, %for.body.lr.ph.i.i.i ], [ %dec.i.i.i, %if.end22.i.i.i ]
  %__first.sroa.0.051.i.i.i = phi ptr [ %29, %for.body.lr.ph.i.i.i ], [ %incdec.ptr.i14.i.i.i, %if.end22.i.i.i ]
  %34 = load ptr, ptr %__first.sroa.0.051.i.i.i, align 8
  %cmp.i.i.i.i.i = icmp eq ptr %34, %32
  br i1 %cmp.i.i.i.i.i, label %invoke.cont47, label %if.end.i.i.i

if.end.i.i.i:                                     ; preds = %for.body.i.i.i259
  %incdec.ptr.i.i.i.i = getelementptr inbounds %"class.cvc5::internal::NodeTemplate", ptr %__first.sroa.0.051.i.i.i, i64 1
  %35 = load ptr, ptr %incdec.ptr.i.i.i.i, align 8
  %cmp.i.i9.i.i.i = icmp eq ptr %35, %32
  br i1 %cmp.i.i9.i.i.i, label %invoke.cont47.loopexit.split.loop.exit6781, label %if.end10.i.i.i

if.end10.i.i.i:                                   ; preds = %if.end.i.i.i
  %incdec.ptr.i10.i.i.i = getelementptr inbounds %"class.cvc5::internal::NodeTemplate", ptr %__first.sroa.0.051.i.i.i, i64 2
  %36 = load ptr, ptr %incdec.ptr.i10.i.i.i, align 8
  %cmp.i.i11.i.i.i = icmp eq ptr %36, %32
  br i1 %cmp.i.i11.i.i.i, label %invoke.cont47.loopexit.split.loop.exit6779, label %if.end16.i.i.i

if.end16.i.i.i:                                   ; preds = %if.end10.i.i.i
  %incdec.ptr.i12.i.i.i = getelementptr inbounds %"class.cvc5::internal::NodeTemplate", ptr %__first.sroa.0.051.i.i.i, i64 3
  %37 = load ptr, ptr %incdec.ptr.i12.i.i.i, align 8
  %cmp.i.i13.i.i.i = icmp eq ptr %37, %32
  br i1 %cmp.i.i13.i.i.i, label %invoke.cont47.loopexit.split.loop.exit, label %if.end22.i.i.i

if.end22.i.i.i:                                   ; preds = %if.end16.i.i.i
  %incdec.ptr.i14.i.i.i = getelementptr inbounds %"class.cvc5::internal::NodeTemplate", ptr %__first.sroa.0.051.i.i.i, i64 4
  %dec.i.i.i = add nsw i64 %__trip_count.052.i.i.i, -1
  %cmp.i.i.i = icmp sgt i64 %__trip_count.052.i.i.i, 1
  br i1 %cmp.i.i.i, label %for.body.i.i.i259, label %for.end.loopexit.i.i.i, !llvm.loop !7

for.end.loopexit.i.i.i:                           ; preds = %if.end22.i.i.i
  %.pre58.i.i.i = ptrtoint ptr %scevgep.i.i.i to i64
  %.pre59.i.i.i = sub i64 %sub.ptr.lhs.cast.i.i.i.i, %.pre58.i.i.i
  br label %for.end.i.i.i

for.end.i.i.i:                                    ; preds = %for.end.loopexit.i.i.i, %lor.rhs
  %sub.ptr.sub.i17.pre-phi.i.i.i = phi i64 [ %.pre59.i.i.i, %for.end.loopexit.i.i.i ], [ %sub.ptr.sub.i.i.i.i, %lor.rhs ]
  %__first.sroa.0.0.lcssa.i.i.i = phi ptr [ %scevgep.i.i.i, %for.end.loopexit.i.i.i ], [ %29, %lor.rhs ]
  %sub.ptr.div.i18.i.i.i = ashr exact i64 %sub.ptr.sub.i17.pre-phi.i.i.i, 3
  switch i64 %sub.ptr.div.i18.i.i.i, label %for.end.i.i.i.if.end_crit_edge [
    i64 3, label %sw.bb.i.i.i
    i64 2, label %for.end.sw.bb31_crit_edge.i.i.i
    i64 1, label %for.end.sw.bb38_crit_edge.i.i.i
  ]

for.end.i.i.i.if.end_crit_edge:                   ; preds = %for.end.i.i.i
  %.pre = load ptr, ptr %add.ptr.i258, align 8
  br label %if.end

for.end.sw.bb38_crit_edge.i.i.i:                  ; preds = %for.end.i.i.i
  %.pre57.i.i.i = load ptr, ptr %add.ptr.i258, align 8
  br label %sw.bb38.i.i.i

for.end.sw.bb31_crit_edge.i.i.i:                  ; preds = %for.end.i.i.i
  %.pre.i.i.i = load ptr, ptr %add.ptr.i258, align 8
  br label %sw.bb31.i.i.i

sw.bb.i.i.i:                                      ; preds = %for.end.i.i.i
  %38 = load ptr, ptr %__first.sroa.0.0.lcssa.i.i.i, align 8
  %39 = load ptr, ptr %add.ptr.i258, align 8
  %cmp.i.i19.i.i.i = icmp eq ptr %38, %39
  br i1 %cmp.i.i19.i.i.i, label %invoke.cont47, label %if.end29.i.i.i

if.end29.i.i.i:                                   ; preds = %sw.bb.i.i.i
  %incdec.ptr.i20.i.i.i = getelementptr inbounds %"class.cvc5::internal::NodeTemplate", ptr %__first.sroa.0.0.lcssa.i.i.i, i64 1
  br label %sw.bb31.i.i.i

sw.bb31.i.i.i:                                    ; preds = %if.end29.i.i.i, %for.end.sw.bb31_crit_edge.i.i.i
  %40 = phi ptr [ %.pre.i.i.i, %for.end.sw.bb31_crit_edge.i.i.i ], [ %39, %if.end29.i.i.i ]
  %__first.sroa.0.1.i.i.i = phi ptr [ %__first.sroa.0.0.lcssa.i.i.i, %for.end.sw.bb31_crit_edge.i.i.i ], [ %incdec.ptr.i20.i.i.i, %if.end29.i.i.i ]
  %41 = load ptr, ptr %__first.sroa.0.1.i.i.i, align 8
  %cmp.i.i21.i.i.i = icmp eq ptr %41, %40
  br i1 %cmp.i.i21.i.i.i, label %invoke.cont47, label %if.end36.i.i.i

if.end36.i.i.i:                                   ; preds = %sw.bb31.i.i.i
  %incdec.ptr.i22.i.i.i = getelementptr inbounds %"class.cvc5::internal::NodeTemplate", ptr %__first.sroa.0.1.i.i.i, i64 1
  br label %sw.bb38.i.i.i

sw.bb38.i.i.i:                                    ; preds = %if.end36.i.i.i, %for.end.sw.bb38_crit_edge.i.i.i
  %42 = phi ptr [ %.pre57.i.i.i, %for.end.sw.bb38_crit_edge.i.i.i ], [ %40, %if.end36.i.i.i ]
  %__first.sroa.0.2.i.i.i = phi ptr [ %__first.sroa.0.0.lcssa.i.i.i, %for.end.sw.bb38_crit_edge.i.i.i ], [ %incdec.ptr.i22.i.i.i, %if.end36.i.i.i ]
  %43 = load ptr, ptr %__first.sroa.0.2.i.i.i, align 8
  %cmp.i.i23.i.i.i = icmp eq ptr %43, %42
  %spec.select.i.i.i = select i1 %cmp.i.i23.i.i.i, ptr %__first.sroa.0.2.i.i.i, ptr %30
  br label %invoke.cont47

invoke.cont47.loopexit.split.loop.exit:           ; preds = %if.end16.i.i.i
  %incdec.ptr.i12.i.i.i.le = getelementptr inbounds %"class.cvc5::internal::NodeTemplate", ptr %__first.sroa.0.051.i.i.i, i64 3
  br label %invoke.cont47

invoke.cont47.loopexit.split.loop.exit6779:       ; preds = %if.end10.i.i.i
  %incdec.ptr.i10.i.i.i.le = getelementptr inbounds %"class.cvc5::internal::NodeTemplate", ptr %__first.sroa.0.051.i.i.i, i64 2
  br label %invoke.cont47

invoke.cont47.loopexit.split.loop.exit6781:       ; preds = %if.end.i.i.i
  %incdec.ptr.i.i.i.i.le = getelementptr inbounds %"class.cvc5::internal::NodeTemplate", ptr %__first.sroa.0.051.i.i.i, i64 1
  br label %invoke.cont47

invoke.cont47:                                    ; preds = %for.body.i.i.i259, %invoke.cont47.loopexit.split.loop.exit, %invoke.cont47.loopexit.split.loop.exit6779, %invoke.cont47.loopexit.split.loop.exit6781, %sw.bb38.i.i.i, %sw.bb31.i.i.i, %sw.bb.i.i.i
  %44 = phi ptr [ %38, %sw.bb.i.i.i ], [ %40, %sw.bb31.i.i.i ], [ %42, %sw.bb38.i.i.i ], [ %32, %invoke.cont47.loopexit.split.loop.exit6781 ], [ %32, %invoke.cont47.loopexit.split.loop.exit6779 ], [ %32, %invoke.cont47.loopexit.split.loop.exit ], [ %32, %for.body.i.i.i259 ]
  %retval.sroa.0.0.in.sroa.speculated.i.i.i = phi ptr [ %__first.sroa.0.0.lcssa.i.i.i, %sw.bb.i.i.i ], [ %__first.sroa.0.1.i.i.i, %sw.bb31.i.i.i ], [ %spec.select.i.i.i, %sw.bb38.i.i.i ], [ %incdec.ptr.i.i.i.i.le, %invoke.cont47.loopexit.split.loop.exit6781 ], [ %incdec.ptr.i10.i.i.i.le, %invoke.cont47.loopexit.split.loop.exit6779 ], [ %incdec.ptr.i12.i.i.i.le, %invoke.cont47.loopexit.split.loop.exit ], [ %__first.sroa.0.051.i.i.i, %for.body.i.i.i259 ]
  %cmp.i.not = icmp eq ptr %retval.sroa.0.0.in.sroa.speculated.i.i.i, %30
  br i1 %cmp.i.not, label %if.end, label %for.inc303

lpad:                                             ; preds = %_ZNSt16allocator_traitsISaIN4cvc58internal12NodeTemplateILb1EEEEE8allocateERS4_m.exit.i.i.i.i232, %if.then3.i.i.i.i.i.i244
  %45 = landingpad { ptr, i32 }
          cleanup
  br label %ehcleanup1602

lpad25:                                           ; preds = %invoke.cont26, %invoke.cont
  %46 = landingpad { ptr, i32 }
          cleanup
  br label %ehcleanup1600

lpad34.loopexit:                                  ; preds = %cond.true.i.i.i3697
  %lpad.loopexit6205 = landingpad { ptr, i32 }
          cleanup
  br label %ehcleanup1590

lpad34.loopexit.split-lp.loopexit:                ; preds = %if.then.i3667
  %lpad.loopexit6208 = landingpad { ptr, i32 }
          cleanup
  br label %ehcleanup1590

lpad34.loopexit.split-lp.loopexit.split-lp.loopexit: ; preds = %if.then13.i.i2812
  %lpad.loopexit6211 = landingpad { ptr, i32 }
          cleanup
  br label %ehcleanup1590

lpad34.loopexit.split-lp.loopexit.split-lp.loopexit.split-lp.loopexit: ; preds = %if.then13.i.i1159
  %lpad.loopexit6222 = landingpad { ptr, i32 }
          cleanup
  br label %ehcleanup1590

lpad34.loopexit.split-lp.loopexit.split-lp.loopexit.split-lp.loopexit.split-lp.loopexit: ; preds = %for.body.i.i.i.i
  %lpad.loopexit6225 = landingpad { ptr, i32 }
          cleanup
  br label %ehcleanup1590

lpad34.loopexit.split-lp.loopexit.split-lp.loopexit.split-lp.loopexit.split-lp.loopexit.split-lp.loopexit: ; preds = %if.then13.i.i
  %lpad.loopexit6239 = landingpad { ptr, i32 }
          cleanup
  br label %ehcleanup1590

lpad34.loopexit.split-lp.loopexit.split-lp.loopexit.split-lp.loopexit.split-lp.loopexit.split-lp.loopexit.split-lp: ; preds = %if.then13.i.i4303, %for.end1069, %if.then.i.i.i3711, %invoke.cont336, %if.else.i.i.i, %if.then.i.i.i1144, %if.then.i.i1143
  %eliminators.sroa.0.1.ph.ph.ph.ph.ph.ph = phi ptr [ %eliminators.sroa.0.12, %if.then13.i.i4303 ], [ %eliminators.sroa.0.106558, %if.then.i.i.i3711 ], [ %eliminators.sroa.0.10.lcssa, %for.end1069 ], [ %eliminators.sroa.0.0.lcssa6688, %invoke.cont336 ], [ %eliminators.sroa.0.8, %if.then.i.i.i1144 ], [ %eliminators.sroa.0.8, %if.else.i.i.i ], [ %eliminators.sroa.0.8, %if.then.i.i1143 ]
  %lpad.loopexit.split-lp6240 = landingpad { ptr, i32 }
          cleanup
  br label %ehcleanup1590

lpad36:                                           ; preds = %if.end15.i.i.i
  %47 = landingpad { ptr, i32 }
          cleanup
  br label %ehcleanup1590

if.end:                                           ; preds = %for.end.i.i.i.if.end_crit_edge, %invoke.cont47
  %48 = phi ptr [ %.pre, %for.end.i.i.i.if.end_crit_edge ], [ %44, %invoke.cont47 ]
  store ptr %48, ptr %crowdLit, align 8
  %bf.load.i.i = load i64, ptr %48, align 8
  %bf.lshr.i.i = lshr i64 %bf.load.i.i, 40
  %49 = trunc i64 %bf.lshr.i.i to i32
  %bf.cast.i.i = and i32 %49, 1048575
  %cmp.i.i262 = icmp ult i32 %bf.cast.i.i, 1048574
  br i1 %cmp.i.i262, label %if.then.i.i, label %if.else.i.i

if.then.i.i:                                      ; preds = %if.end
  %bf.value.i.i = add i64 %bf.load.i.i, 1099511627776
  %bf.shl.i.i = and i64 %bf.value.i.i, 1152920405095219200
  %bf.clear7.i.i = and i64 %bf.load.i.i, -1152920405095219201
  %bf.set.i.i = or disjoint i64 %bf.shl.i.i, %bf.clear7.i.i
  store i64 %bf.set.i.i, ptr %48, align 8
  br label %invoke.cont55

if.else.i.i:                                      ; preds = %if.end
  %cmp12.i.i = icmp eq i32 %bf.cast.i.i, 1048574
  br i1 %cmp12.i.i, label %if.then13.i.i, label %invoke.cont55

if.then13.i.i:                                    ; preds = %if.else.i.i
  %bf.set23.i.i = or i64 %bf.load.i.i, 1152920405095219200
  store i64 %bf.set23.i.i, ptr %48, align 8
  invoke void @_ZN4cvc58internal4expr9NodeValue20markRefCountMaxedOutEv(ptr noundef nonnull align 8 dereferenceable(16) %48)
          to label %invoke.cont55 unwind label %lpad34.loopexit.split-lp.loopexit.split-lp.loopexit.split-lp.loopexit.split-lp.loopexit.split-lp.loopexit

invoke.cont55:                                    ; preds = %if.else.i.i, %if.then.i.i, %if.then13.i.i
  %50 = load ptr, ptr %crowdLit, align 8
  store ptr %50, ptr %ref.tmp56, align 8
  call void @llvm.lifetime.start.p0(i64 8, ptr nonnull %__node_gen.i.i)
  store ptr %crowding, ptr %__node_gen.i.i, align 8
  %call3.i.i.i264 = invoke { ptr, i8 } @_ZNSt10_HashtableIN4cvc58internal12NodeTemplateILb0EEES3_SaIS3_ENSt8__detail9_IdentityESt8equal_toIS3_ESt4hashIS3_ENS5_18_Mod_range_hashingENS5_20_Default_ranged_hashENS5_20_Prime_rehash_policyENS5_17_Hashtable_traitsILb1ELb1ELb1EEEE16_M_insert_uniqueIS3_S3_NS5_10_AllocNodeISaINS5_10_Hash_nodeIS3_Lb1EEEEEEEESt4pairINS5_14_Node_iteratorIS3_Lb1ELb1EEEbEOT_OT0_RKT1_(ptr noundef nonnull align 8 dereferenceable(56) %crowding, ptr noundef nonnull align 8 dereferenceable(8) %ref.tmp56, ptr noundef nonnull align 8 dereferenceable(8) %ref.tmp56, ptr noundef nonnull align 8 dereferenceable(8) %__node_gen.i.i)
          to label %cond.true65 unwind label %lpad59

cond.true65:                                      ; preds = %invoke.cont55
  call void @llvm.lifetime.end.p0(i64 8, ptr nonnull %__node_gen.i.i)
  br i1 %cmp80.not6496, label %for.end, label %invoke.cont84.preheader

invoke.cont84.preheader:                          ; preds = %cond.true65
  %.pre6659 = load ptr, ptr %newChildren, align 8
  %invariant.gep = getelementptr %"class.cvc5::internal::NodeTemplate", ptr %.pre6659, i64 -2
  br label %invoke.cont84

invoke.cont84:                                    ; preds = %invoke.cont84.preheader, %for.inc
  %storemerge1116498 = phi i64 [ %storemerge111, %for.inc ], [ %storemerge1116495, %invoke.cont84.preheader ]
  %storemerge111.in6497 = phi i64 [ %storemerge1116498, %for.inc ], [ %sub.ptr.div.i, %invoke.cont84.preheader ]
  %gep = getelementptr %"class.cvc5::internal::NodeTemplate", ptr %invariant.gep, i64 %storemerge111.in6497
  %51 = load ptr, ptr %gep, align 8
  %d_kind.i = getelementptr inbounds %"class.cvc5::internal::expr::NodeValue", ptr %51, i64 0, i32 1
  %bf.load.i = load i16, ptr %d_kind.i, align 8
  %bf.clear.i = and i16 %bf.load.i, 1023
  %cmp86.not = icmp eq i16 %bf.clear.i, 21
  br i1 %cmp86.not, label %if.end88, label %for.inc

lpad57.loopexit:                                  ; preds = %if.then13.i.i529
  %lpad.loopexit6228 = landingpad { ptr, i32 }
          cleanup
  br label %ehcleanup302

lpad57.loopexit.split-lp.loopexit:                ; preds = %invoke.cont120, %if.end109, %call.i374.noexc, %lor.rhs95
  %lpad.loopexit6234 = landingpad { ptr, i32 }
          cleanup
  br label %ehcleanup302

lpad57.loopexit.split-lp.loopexit.split-lp.loopexit: ; preds = %if.then13.i.i.i.i.i.i, %if.else.i, %if.then.i841
  %eliminators.sroa.0.2.ph.ph.ph = phi ptr [ %eliminators.sroa.0.06519, %if.then13.i.i.i.i.i.i ], [ %eliminators.sroa.0.06519, %if.else.i ], [ %eliminators.sroa.0.7, %if.then.i841 ]
  %lpad.loopexit6242 = landingpad { ptr, i32 }
          cleanup
  br label %ehcleanup302

lpad57.loopexit.split-lp.loopexit.split-lp.loopexit.split-lp: ; preds = %cond.false278
  %lpad.loopexit.split-lp6243 = landingpad { ptr, i32 }
          cleanup
  br label %ehcleanup302

lpad59:                                           ; preds = %invoke.cont55
  %52 = landingpad { ptr, i32 }
          cleanup
  br label %ehcleanup302

if.end88:                                         ; preds = %invoke.cont84
  %sub89 = shl i64 %storemerge1116498, 1
  %53 = load ptr, ptr %newArgs, align 8
  %54 = getelementptr %"class.cvc5::internal::NodeTemplate", ptr %53, i64 %sub89
  %add.ptr.i370 = getelementptr %"class.cvc5::internal::NodeTemplate", ptr %54, i64 -2
  %sub91 = add i64 %storemerge111.in6497, -2
  %55 = load ptr, ptr %add.ptr.i370, align 8
  %cmp.i372 = icmp eq ptr %55, %51
  br i1 %cmp.i372, label %for.inc, label %lor.rhs95

lor.rhs95:                                        ; preds = %if.end88
  %call.i374377 = invoke noundef ptr @_ZN4cvc58internal11NodeManager9currentNMEv()
          to label %call.i374.noexc unwind label %lpad57.loopexit.split-lp.loopexit

call.i374.noexc:                                  ; preds = %lor.rhs95
  %56 = load ptr, ptr %add.ptr.i370, align 8, !noalias !8
  call void @llvm.lifetime.start.p0(i64 120, ptr nonnull %nb.i.i), !noalias !8
  call void @llvm.lifetime.start.p0(i64 8, ptr nonnull %agg.tmp.i.i), !noalias !8
  invoke void @_ZN4cvc58internal11NodeBuilderC1EPNS0_11NodeManagerENS0_4kind6Kind_tE(ptr noundef nonnull align 8 dereferenceable(116) %nb.i.i, ptr noundef nonnull %call.i374377, i32 noundef 18)
          to label %.noexc378 unwind label %lpad57.loopexit.split-lp.loopexit

.noexc378:                                        ; preds = %call.i374.noexc
  store ptr %56, ptr %agg.tmp.i.i, align 8, !noalias !11
  %call.i.i375 = invoke noundef nonnull align 8 dereferenceable(116) ptr @_ZN4cvc58internal11NodeBuilderlsENS0_12NodeTemplateILb0EEE(ptr noundef nonnull align 8 dereferenceable(116) %nb.i.i, ptr noundef nonnull %agg.tmp.i.i)
          to label %invoke.cont3.i.i unwind label %lpad2.i.i, !noalias !11

invoke.cont3.i.i:                                 ; preds = %.noexc378
  invoke void @_ZN4cvc58internal11NodeBuilder13constructNodeEv(ptr nonnull sret(%"class.cvc5::internal::NodeTemplate") align 8 %ref.tmp96, ptr noundef nonnull align 8 dereferenceable(116) %nb.i.i)
          to label %cleanup.action unwind label %lpad.i.i

lpad.i.i:                                         ; preds = %invoke.cont3.i.i
  %57 = landingpad { ptr, i32 }
          cleanup
  br label %ehcleanup.i.i

lpad2.i.i:                                        ; preds = %.noexc378
  %58 = landingpad { ptr, i32 }
          cleanup
  br label %ehcleanup.i.i

ehcleanup.i.i:                                    ; preds = %lpad2.i.i, %lpad.i.i
  %.pn.i.i = phi { ptr, i32 } [ %57, %lpad.i.i ], [ %58, %lpad2.i.i ]
  call void @_ZN4cvc58internal11NodeBuilderD1Ev(ptr noundef nonnull align 8 dereferenceable(116) %nb.i.i) #21
  br label %ehcleanup302

cleanup.action:                                   ; preds = %invoke.cont3.i.i
  call void @_ZN4cvc58internal11NodeBuilderD1Ev(ptr noundef nonnull align 8 dereferenceable(116) %nb.i.i) #21
  call void @llvm.lifetime.end.p0(i64 120, ptr nonnull %nb.i.i), !noalias !8
  call void @llvm.lifetime.end.p0(i64 8, ptr nonnull %agg.tmp.i.i), !noalias !8
  %add.ptr.i380 = getelementptr inbounds %"class.cvc5::internal::NodeTemplate", ptr %.pre6659, i64 %sub91
  %59 = load ptr, ptr %ref.tmp96, align 8
  %60 = load ptr, ptr %add.ptr.i380, align 8
  %cmp.i381 = icmp eq ptr %59, %60
  %bf.load.i.i382 = load i64, ptr %59, align 8
  %61 = and i64 %bf.load.i.i382, 1152920405095219200
  %cmp.not.i.i = icmp eq i64 %61, 1152920405095219200
  br i1 %cmp.not.i.i, label %cleanup.done, label %if.then.i.i383

if.then.i.i383:                                   ; preds = %cleanup.action
  %bf.value.i.i384 = add i64 %bf.load.i.i382, 1152920405095219200
  %bf.shl.i.i385 = and i64 %bf.value.i.i384, 1152920405095219200
  %bf.clear7.i.i386 = and i64 %bf.load.i.i382, -1152920405095219201
  %bf.set.i.i387 = or disjoint i64 %bf.shl.i.i385, %bf.clear7.i.i386
  store i64 %bf.set.i.i387, ptr %59, align 8
  %cmp12.i.i388 = icmp eq i64 %bf.shl.i.i385, 0
  br i1 %cmp12.i.i388, label %if.then13.i.i390, label %cleanup.done

if.then13.i.i390:                                 ; preds = %if.then.i.i383
  invoke void @_ZN4cvc58internal4expr9NodeValue15markForDeletionEv(ptr noundef nonnull align 8 dereferenceable(16) %59)
          to label %cleanup.done unwind label %terminate.lpad.i

terminate.lpad.i:                                 ; preds = %if.then13.i.i390
  %62 = landingpad { ptr, i32 }
          catch ptr null
  %63 = extractvalue { ptr, i32 } %62, 0
  call void @__clang_call_terminate(ptr %63) #22
  unreachable

cleanup.done:                                     ; preds = %if.then13.i.i390, %if.then.i.i383, %cleanup.action
  br i1 %cmp.i381, label %for.inc, label %if.end109

if.end109:                                        ; preds = %cleanup.done
  %64 = load ptr, ptr %add.ptr.i380, align 8
  %d_kind.i.i.i.i = getelementptr inbounds %"class.cvc5::internal::expr::NodeValue", ptr %64, i64 0, i32 1
  %bf.load.i.i.i.i = load i16, ptr %d_kind.i.i.i.i, align 8
  %bf.clear.i.i.i.i = and i16 %bf.load.i.i.i.i, 1023
  %bf.cast.i.i.i.i = zext nneg i16 %bf.clear.i.i.i.i to i32
  %cmp.i.i.i.i.i392 = icmp eq i16 %bf.clear.i.i.i.i, 1023
  %cond.i.i.i.i.i = select i1 %cmp.i.i.i.i.i392, i32 -1, i32 %bf.cast.i.i.i.i
  %call2.i.i.i394 = invoke noundef i32 @_ZN4cvc58internal4kind10metaKindOfENS1_6Kind_tE(i32 noundef %cond.i.i.i.i.i)
          to label %invoke.cont120 unwind label %lpad57.loopexit.split-lp.loopexit

invoke.cont120:                                   ; preds = %if.end109
  %d_children.i.i = getelementptr inbounds %"class.cvc5::internal::expr::NodeValue", ptr %64, i64 0, i32 3
  %cmp.i.i393 = icmp eq i32 %call2.i.i.i394, 2
  %incdec.ptr.i.i = getelementptr inbounds %"class.cvc5::internal::expr::NodeValue", ptr %64, i64 1, i32 1
  %spec.select.i.i = select i1 %cmp.i.i393, ptr %incdec.ptr.i.i, ptr %d_children.i.i
  %65 = load ptr, ptr %add.ptr.i380, align 8
  %d_children.i.i396 = getelementptr inbounds %"class.cvc5::internal::expr::NodeValue", ptr %65, i64 0, i32 3
  %d_nchildren.i.i = getelementptr inbounds %"class.cvc5::internal::expr::NodeValue", ptr %65, i64 0, i32 2
  %bf.load.i.i397 = load i32, ptr %d_nchildren.i.i, align 4
  %bf.clear.i.i = and i32 %bf.load.i.i397, 67108863
  %idx.ext.i.i = zext nneg i32 %bf.clear.i.i to i64
  %add.ptr.i.i = getelementptr inbounds ptr, ptr %d_children.i.i396, i64 %idx.ext.i.i
  %call.i.i398399 = invoke ptr @_ZSt9__find_ifIN4cvc58internal4expr9NodeValue8iteratorINS1_12NodeTemplateILb1EEEEEN9__gnu_cxx5__ops16_Iter_equals_valIKS6_EEET_SD_SD_T0_St26random_access_iterator_tag(ptr nonnull %spec.select.i.i, ptr nonnull %add.ptr.i.i, ptr nonnull %crowdLit)
          to label %invoke.cont131 unwind label %lpad57.loopexit.split-lp.loopexit

invoke.cont131:                                   ; preds = %invoke.cont120
  %add.ptr.i400 = getelementptr inbounds %"class.cvc5::internal::NodeTemplate", ptr %.pre6659, i64 %sub91
  %66 = load ptr, ptr %add.ptr.i400, align 8
  %d_children.i.i401 = getelementptr inbounds %"class.cvc5::internal::expr::NodeValue", ptr %66, i64 0, i32 3
  %d_nchildren.i.i402 = getelementptr inbounds %"class.cvc5::internal::expr::NodeValue", ptr %66, i64 0, i32 2
  %bf.load.i.i403 = load i32, ptr %d_nchildren.i.i402, align 4
  %bf.clear.i.i404 = and i32 %bf.load.i.i403, 67108863
  %idx.ext.i.i405 = zext nneg i32 %bf.clear.i.i404 to i64
  %add.ptr.i.i406 = getelementptr inbounds ptr, ptr %d_children.i.i401, i64 %idx.ext.i.i405
  %cmp.i407.not = icmp eq ptr %call.i.i398399, %add.ptr.i.i406
  br i1 %cmp.i407.not, label %for.inc, label %for.end

for.inc:                                          ; preds = %if.end88, %invoke.cont131, %cleanup.done, %invoke.cont84
  %storemerge111 = add i64 %storemerge1116498, -1
  %cmp80.not = icmp eq i64 %storemerge111, 0
  br i1 %cmp80.not, label %for.end, label %invoke.cont84, !llvm.loop !14

for.end:                                          ; preds = %for.inc, %invoke.cont131, %cond.true65
  %storemerge111.in.lcssa = phi i64 [ 1, %cond.true65 ], [ %storemerge111.in6497, %invoke.cont131 ], [ 1, %for.inc ]
  %storemerge111.lcssa = phi i64 [ 0, %cond.true65 ], [ %storemerge1116498, %invoke.cont131 ], [ 0, %for.inc ]
  %sub139 = add i64 %storemerge111.in.lcssa, -2
  store i64 %sub139, ptr %ref.tmp138, align 8
  %67 = load ptr, ptr %_M_finish.i408, align 8
  %68 = load ptr, ptr %_M_end_of_storage.i, align 8
  %cmp.not.i409 = icmp eq ptr %67, %68
  br i1 %cmp.not.i409, label %if.else.i, label %if.then.i410

if.then.i410:                                     ; preds = %for.end
  %69 = load ptr, ptr %crowdLit, align 8
  store ptr %69, ptr %67, align 8
  %bf.load.i.i.i.i.i.i = load i64, ptr %69, align 8
  %bf.lshr.i.i.i.i.i.i = lshr i64 %bf.load.i.i.i.i.i.i, 40
  %70 = trunc i64 %bf.lshr.i.i.i.i.i.i to i32
  %bf.cast.i.i.i.i.i.i = and i32 %70, 1048575
  %cmp.i.i.i.i.i.i411 = icmp ult i32 %bf.cast.i.i.i.i.i.i, 1048574
  br i1 %cmp.i.i.i.i.i.i411, label %if.then.i.i.i.i.i.i, label %if.else.i.i.i.i.i.i

if.then.i.i.i.i.i.i:                              ; preds = %if.then.i410
  %bf.value.i.i.i.i.i.i = add i64 %bf.load.i.i.i.i.i.i, 1099511627776
  %bf.shl.i.i.i.i.i.i = and i64 %bf.value.i.i.i.i.i.i, 1152920405095219200
  %bf.clear7.i.i.i.i.i.i = and i64 %bf.load.i.i.i.i.i.i, -1152920405095219201
  %bf.set.i.i.i.i.i.i = or disjoint i64 %bf.shl.i.i.i.i.i.i, %bf.clear7.i.i.i.i.i.i
  store i64 %bf.set.i.i.i.i.i.i, ptr %69, align 8
  br label %_ZNSt16allocator_traitsISaISt4pairIN4cvc58internal12NodeTemplateILb1EEEmEEE9constructIS5_JRS4_mEEEvRS6_PT_DpOT0_.exit.i

if.else.i.i.i.i.i.i:                              ; preds = %if.then.i410
  %cmp12.i.i.i.i.i.i = icmp eq i32 %bf.cast.i.i.i.i.i.i, 1048574
  br i1 %cmp12.i.i.i.i.i.i, label %if.then13.i.i.i.i.i.i, label %_ZNSt16allocator_traitsISaISt4pairIN4cvc58internal12NodeTemplateILb1EEEmEEE9constructIS5_JRS4_mEEEvRS6_PT_DpOT0_.exit.i

if.then13.i.i.i.i.i.i:                            ; preds = %if.else.i.i.i.i.i.i
  %bf.set23.i.i.i.i.i.i = or i64 %bf.load.i.i.i.i.i.i, 1152920405095219200
  store i64 %bf.set23.i.i.i.i.i.i, ptr %69, align 8
  invoke void @_ZN4cvc58internal4expr9NodeValue20markRefCountMaxedOutEv(ptr noundef nonnull align 8 dereferenceable(16) %69)
          to label %_ZNSt16allocator_traitsISaISt4pairIN4cvc58internal12NodeTemplateILb1EEEmEEE9constructIS5_JRS4_mEEEvRS6_PT_DpOT0_.exit.i unwind label %lpad57.loopexit.split-lp.loopexit.split-lp.loopexit

_ZNSt16allocator_traitsISaISt4pairIN4cvc58internal12NodeTemplateILb1EEEmEEE9constructIS5_JRS4_mEEEvRS6_PT_DpOT0_.exit.i: ; preds = %if.then13.i.i.i.i.i.i, %if.else.i.i.i.i.i.i, %if.then.i.i.i.i.i.i
  %second.i.i.i.i = getelementptr inbounds %"struct.std::pair.106", ptr %67, i64 0, i32 1
  %71 = load i64, ptr %ref.tmp138, align 8
  store i64 %71, ptr %second.i.i.i.i, align 8
  %72 = load ptr, ptr %_M_finish.i408, align 8
  %incdec.ptr.i = getelementptr inbounds %"struct.std::pair.106", ptr %72, i64 1
  store ptr %incdec.ptr.i, ptr %_M_finish.i408, align 8
  br label %cond.true147

if.else.i:                                        ; preds = %for.end
  invoke void @_ZNSt6vectorISt4pairIN4cvc58internal12NodeTemplateILb1EEEmESaIS5_EE17_M_realloc_insertIJRS4_mEEEvN9__gnu_cxx17__normal_iteratorIPS5_S7_EEDpOT_(ptr noundef nonnull align 8 dereferenceable(24) %lastInclusion, ptr %67, ptr noundef nonnull align 8 dereferenceable(8) %crowdLit, ptr noundef nonnull align 8 dereferenceable(8) %ref.tmp138)
          to label %cond.true147 unwind label %lpad57.loopexit.split-lp.loopexit.split-lp.loopexit

cond.true147:                                     ; preds = %if.else.i, %_ZNSt16allocator_traitsISaISt4pairIN4cvc58internal12NodeTemplateILb1EEEmEEE9constructIS5_JRS4_mEEEvRS6_PT_DpOT0_.exit.i
  %cmp1646502 = icmp ult i64 %storemerge111.lcssa, %sub.ptr.div.i
  br i1 %cmp1646502, label %for.body165, label %for.end247

for.cond163:                                      ; preds = %_ZN4cvc58internal12NodeTemplateILb1EED2Ev.exit829
  %inc = add nuw i64 %j.06503, 1
  %cmp164 = icmp ult i64 %inc, %sub.ptr.div.i
  %exitcond.not = icmp eq i64 %inc, %sub.ptr.div.i
  br i1 %exitcond.not, label %for.end247, label %for.body165, !llvm.loop !15

for.body165:                                      ; preds = %cond.true147, %for.cond163
  %cmp1646507 = phi i1 [ %cmp164, %for.cond163 ], [ true, %cond.true147 ]
  %eliminators.sroa.0.46506 = phi ptr [ %eliminators.sroa.0.6, %for.cond163 ], [ %eliminators.sroa.0.06519, %cond.true147 ]
  %eliminators.sroa.13.16505 = phi ptr [ %eliminators.sroa.13.3, %for.cond163 ], [ %eliminators.sroa.13.06518, %cond.true147 ]
  %eliminators.sroa.26.16504 = phi ptr [ %eliminators.sroa.26.3, %for.cond163 ], [ %eliminators.sroa.26.06517, %cond.true147 ]
  %j.06503 = phi i64 [ %inc, %for.cond163 ], [ %storemerge111.lcssa, %cond.true147 ]
  %mul166 = shl i64 %j.06503, 1
  %73 = load ptr, ptr %newArgs, align 8
  %74 = getelementptr %"class.cvc5::internal::NodeTemplate", ptr %73, i64 %mul166
  %add.ptr.i520 = getelementptr %"class.cvc5::internal::NodeTemplate", ptr %74, i64 -1
  %75 = load ptr, ptr %add.ptr.i520, align 8
  %76 = load ptr, ptr %trueNode, align 8
  %cmp.i521 = icmp eq ptr %75, %76
  %77 = load ptr, ptr %74, align 8
  store ptr %77, ptr %pivot, align 8
  %bf.load.i.i523 = load i64, ptr %77, align 8
  %bf.lshr.i.i524 = lshr i64 %bf.load.i.i523, 40
  %78 = trunc i64 %bf.lshr.i.i524 to i32
  %bf.cast.i.i525 = and i32 %78, 1048575
  %cmp.i.i526 = icmp ult i32 %bf.cast.i.i525, 1048574
  br i1 %cmp.i.i526, label %if.then.i.i531, label %if.else.i.i527

if.then.i.i531:                                   ; preds = %for.body165
  %bf.value.i.i532 = add i64 %bf.load.i.i523, 1099511627776
  %bf.shl.i.i533 = and i64 %bf.value.i.i532, 1152920405095219200
  %bf.clear7.i.i534 = and i64 %bf.load.i.i523, -1152920405095219201
  %bf.set.i.i535 = or disjoint i64 %bf.shl.i.i533, %bf.clear7.i.i534
  store i64 %bf.set.i.i535, ptr %77, align 8
  br label %cond.true179

if.else.i.i527:                                   ; preds = %for.body165
  %cmp12.i.i528 = icmp eq i32 %bf.cast.i.i525, 1048574
  br i1 %cmp12.i.i528, label %if.then13.i.i529, label %cond.true179

if.then13.i.i529:                                 ; preds = %if.else.i.i527
  %bf.set23.i.i530 = or i64 %bf.load.i.i523, 1152920405095219200
  store i64 %bf.set23.i.i530, ptr %77, align 8
  invoke void @_ZN4cvc58internal4expr9NodeValue20markRefCountMaxedOutEv(ptr noundef nonnull align 8 dereferenceable(16) %77)
          to label %cond.true179 unwind label %lpad57.loopexit

cond.true179:                                     ; preds = %if.then13.i.i529, %if.then.i.i531, %if.else.i.i527
  %79 = load ptr, ptr %crowdLit, align 8
  %cmp.i707 = icmp eq ptr %79, %77
  %or.cond6197.not = select i1 %cmp.i707, i1 %cmp.i521, i1 false
  br i1 %or.cond6197.not, label %cond.true233, label %lor.lhs.false

lor.lhs.false:                                    ; preds = %cond.true179
  %call.i710718 = invoke noundef ptr @_ZN4cvc58internal11NodeManager9currentNMEv()
          to label %call.i710.noexc unwind label %lpad176.loopexit

call.i710.noexc:                                  ; preds = %lor.lhs.false
  %80 = load ptr, ptr %crowdLit, align 8, !noalias !16
  call void @llvm.lifetime.start.p0(i64 120, ptr nonnull %nb.i.i708), !noalias !16
  call void @llvm.lifetime.start.p0(i64 8, ptr nonnull %agg.tmp.i.i709), !noalias !16
  invoke void @_ZN4cvc58internal11NodeBuilderC1EPNS0_11NodeManagerENS0_4kind6Kind_tE(ptr noundef nonnull align 8 dereferenceable(116) %nb.i.i708, ptr noundef nonnull %call.i710718, i32 noundef 18)
          to label %.noexc719 unwind label %lpad176.loopexit

.noexc719:                                        ; preds = %call.i710.noexc
  store ptr %80, ptr %agg.tmp.i.i709, align 8, !noalias !19
  %call.i.i711 = invoke noundef nonnull align 8 dereferenceable(116) ptr @_ZN4cvc58internal11NodeBuilderlsENS0_12NodeTemplateILb0EEE(ptr noundef nonnull align 8 dereferenceable(116) %nb.i.i708, ptr noundef nonnull %agg.tmp.i.i709)
          to label %invoke.cont3.i.i715 unwind label %lpad2.i.i712, !noalias !19

invoke.cont3.i.i715:                              ; preds = %.noexc719
  invoke void @_ZN4cvc58internal11NodeBuilder13constructNodeEv(ptr nonnull sret(%"class.cvc5::internal::NodeTemplate") align 8 %ref.tmp200, ptr noundef nonnull align 8 dereferenceable(116) %nb.i.i708)
          to label %invoke.cont201 unwind label %lpad.i.i716

lpad.i.i716:                                      ; preds = %invoke.cont3.i.i715
  %81 = landingpad { ptr, i32 }
          cleanup
  br label %ehcleanup.i.i713

lpad2.i.i712:                                     ; preds = %.noexc719
  %82 = landingpad { ptr, i32 }
          cleanup
  br label %ehcleanup.i.i713

ehcleanup.i.i713:                                 ; preds = %lpad2.i.i712, %lpad.i.i716
  %.pn.i.i714 = phi { ptr, i32 } [ %81, %lpad.i.i716 ], [ %82, %lpad2.i.i712 ]
  call void @_ZN4cvc58internal11NodeBuilderD1Ev(ptr noundef nonnull align 8 dereferenceable(116) %nb.i.i708) #21
  br label %ehcleanup245

invoke.cont201:                                   ; preds = %invoke.cont3.i.i715
  call void @_ZN4cvc58internal11NodeBuilderD1Ev(ptr noundef nonnull align 8 dereferenceable(116) %nb.i.i708) #21
  call void @llvm.lifetime.end.p0(i64 120, ptr nonnull %nb.i.i708), !noalias !16
  call void @llvm.lifetime.end.p0(i64 8, ptr nonnull %agg.tmp.i.i709), !noalias !16
  %83 = load ptr, ptr %ref.tmp200, align 8
  %cmp.i722 = icmp ne ptr %83, %77
  %or.cond6198.not = select i1 %cmp.i722, i1 true, i1 %cmp.i521
  br i1 %or.cond6198.not, label %lor.rhs208, label %cleanup.action224

lor.rhs208:                                       ; preds = %invoke.cont201
  %call.i725733 = invoke noundef ptr @_ZN4cvc58internal11NodeManager9currentNMEv()
          to label %call.i725.noexc unwind label %lpad203

call.i725.noexc:                                  ; preds = %lor.rhs208
  call void @llvm.lifetime.start.p0(i64 120, ptr nonnull %nb.i.i723), !noalias !22
  call void @llvm.lifetime.start.p0(i64 8, ptr nonnull %agg.tmp.i.i724), !noalias !22
  invoke void @_ZN4cvc58internal11NodeBuilderC1EPNS0_11NodeManagerENS0_4kind6Kind_tE(ptr noundef nonnull align 8 dereferenceable(116) %nb.i.i723, ptr noundef nonnull %call.i725733, i32 noundef 18)
          to label %.noexc734 unwind label %lpad203

.noexc734:                                        ; preds = %call.i725.noexc
  store ptr %77, ptr %agg.tmp.i.i724, align 8, !noalias !25
  %call.i.i726 = invoke noundef nonnull align 8 dereferenceable(116) ptr @_ZN4cvc58internal11NodeBuilderlsENS0_12NodeTemplateILb0EEE(ptr noundef nonnull align 8 dereferenceable(116) %nb.i.i723, ptr noundef nonnull %agg.tmp.i.i724)
          to label %invoke.cont3.i.i730 unwind label %lpad2.i.i727, !noalias !25

invoke.cont3.i.i730:                              ; preds = %.noexc734
  invoke void @_ZN4cvc58internal11NodeBuilder13constructNodeEv(ptr nonnull sret(%"class.cvc5::internal::NodeTemplate") align 8 %ref.tmp209, ptr noundef nonnull align 8 dereferenceable(116) %nb.i.i723)
          to label %cleanup.action218 unwind label %lpad.i.i731

lpad.i.i731:                                      ; preds = %invoke.cont3.i.i730
  %84 = landingpad { ptr, i32 }
          cleanup
  br label %ehcleanup.i.i728

lpad2.i.i727:                                     ; preds = %.noexc734
  %85 = landingpad { ptr, i32 }
          cleanup
  br label %ehcleanup.i.i728

ehcleanup.i.i728:                                 ; preds = %lpad2.i.i727, %lpad.i.i731
  %.pn.i.i729 = phi { ptr, i32 } [ %84, %lpad.i.i731 ], [ %85, %lpad2.i.i727 ]
  call void @_ZN4cvc58internal11NodeBuilderD1Ev(ptr noundef nonnull align 8 dereferenceable(116) %nb.i.i723) #21
  br label %lpad203.body

cleanup.action218:                                ; preds = %invoke.cont3.i.i730
  call void @_ZN4cvc58internal11NodeBuilderD1Ev(ptr noundef nonnull align 8 dereferenceable(116) %nb.i.i723) #21
  call void @llvm.lifetime.end.p0(i64 120, ptr nonnull %nb.i.i723), !noalias !22
  call void @llvm.lifetime.end.p0(i64 8, ptr nonnull %agg.tmp.i.i724), !noalias !22
  %86 = load ptr, ptr %ref.tmp209, align 8
  %87 = load ptr, ptr %crowdLit, align 8
  %cmp.i737 = icmp eq ptr %86, %87
  %tobool215.not = xor i1 %cmp.i521, true
  %88 = select i1 %cmp.i737, i1 %tobool215.not, i1 false
  %bf.load.i.i738 = load i64, ptr %86, align 8
  %89 = and i64 %bf.load.i.i738, 1152920405095219200
  %cmp.not.i.i739 = icmp eq i64 %89, 1152920405095219200
  br i1 %cmp.not.i.i739, label %cleanup.action224, label %if.then.i.i740

if.then.i.i740:                                   ; preds = %cleanup.action218
  %bf.value.i.i741 = add i64 %bf.load.i.i738, 1152920405095219200
  %bf.shl.i.i742 = and i64 %bf.value.i.i741, 1152920405095219200
  %bf.clear7.i.i743 = and i64 %bf.load.i.i738, -1152920405095219201
  %bf.set.i.i744 = or disjoint i64 %bf.shl.i.i742, %bf.clear7.i.i743
  store i64 %bf.set.i.i744, ptr %86, align 8
  %cmp12.i.i745 = icmp eq i64 %bf.shl.i.i742, 0
  br i1 %cmp12.i.i745, label %if.then13.i.i747, label %cleanup.action224

if.then13.i.i747:                                 ; preds = %if.then.i.i740
  invoke void @_ZN4cvc58internal4expr9NodeValue15markForDeletionEv(ptr noundef nonnull align 8 dereferenceable(16) %86)
          to label %cleanup.action224 unwind label %terminate.lpad.i748

terminate.lpad.i748:                              ; preds = %if.then13.i.i747
  %90 = landingpad { ptr, i32 }
          catch ptr null
  %91 = extractvalue { ptr, i32 } %90, 0
  call void @__clang_call_terminate(ptr %91) #22
  unreachable

cleanup.action224:                                ; preds = %invoke.cont201, %if.then13.i.i747, %if.then.i.i740, %cleanup.action218
  %92 = phi i1 [ %88, %cleanup.action218 ], [ %88, %if.then.i.i740 ], [ %88, %if.then13.i.i747 ], [ true, %invoke.cont201 ]
  %93 = load ptr, ptr %ref.tmp200, align 8
  %bf.load.i.i750 = load i64, ptr %93, align 8
  %94 = and i64 %bf.load.i.i750, 1152920405095219200
  %cmp.not.i.i751 = icmp eq i64 %94, 1152920405095219200
  br i1 %cmp.not.i.i751, label %cleanup.done225, label %if.then.i.i752

if.then.i.i752:                                   ; preds = %cleanup.action224
  %bf.value.i.i753 = add i64 %bf.load.i.i750, 1152920405095219200
  %bf.shl.i.i754 = and i64 %bf.value.i.i753, 1152920405095219200
  %bf.clear7.i.i755 = and i64 %bf.load.i.i750, -1152920405095219201
  %bf.set.i.i756 = or disjoint i64 %bf.shl.i.i754, %bf.clear7.i.i755
  store i64 %bf.set.i.i756, ptr %93, align 8
  %cmp12.i.i757 = icmp eq i64 %bf.shl.i.i754, 0
  br i1 %cmp12.i.i757, label %if.then13.i.i759, label %cleanup.done225

if.then13.i.i759:                                 ; preds = %if.then.i.i752
  invoke void @_ZN4cvc58internal4expr9NodeValue15markForDeletionEv(ptr noundef nonnull align 8 dereferenceable(16) %93)
          to label %cleanup.done225 unwind label %terminate.lpad.i760

terminate.lpad.i760:                              ; preds = %if.then13.i.i759
  %95 = landingpad { ptr, i32 }
          catch ptr null
  %96 = extractvalue { ptr, i32 } %95, 0
  call void @__clang_call_terminate(ptr %96) #22
  unreachable

cleanup.done225:                                  ; preds = %if.then13.i.i759, %if.then.i.i752, %cleanup.action224
  br i1 %92, label %cond.true233, label %cleanup

cond.true233:                                     ; preds = %cond.true179, %cleanup.done225
  %cmp.not.i801 = icmp eq ptr %eliminators.sroa.13.16505, %eliminators.sroa.26.16504
  br i1 %cmp.not.i801, label %if.else.i805, label %if.then.i802

if.then.i802:                                     ; preds = %cond.true233
  store i64 %j.06503, ptr %eliminators.sroa.13.16505, align 8
  %incdec.ptr.i803 = getelementptr inbounds i64, ptr %eliminators.sroa.13.16505, i64 1
  br label %cleanup

if.else.i805:                                     ; preds = %cond.true233
  %sub.ptr.lhs.cast.i.i.i.i806 = ptrtoint ptr %eliminators.sroa.13.16505 to i64
  %sub.ptr.rhs.cast.i.i.i.i807 = ptrtoint ptr %eliminators.sroa.0.46506 to i64
  %sub.ptr.sub.i.i.i.i808 = sub i64 %sub.ptr.lhs.cast.i.i.i.i806, %sub.ptr.rhs.cast.i.i.i.i807
  %cmp.i.i.i809 = icmp eq i64 %sub.ptr.sub.i.i.i.i808, 9223372036854775800
  br i1 %cmp.i.i.i809, label %if.then.i.i.i815, label %_ZNKSt6vectorImSaImEE12_M_check_lenEmPKc.exit.i.i

if.then.i.i.i815:                                 ; preds = %if.else.i805
  invoke void @_ZSt20__throw_length_errorPKc(ptr noundef nonnull @.str.59) #18
          to label %.noexc816 unwind label %lpad176.loopexit.split-lp

.noexc816:                                        ; preds = %if.then.i.i.i815
  unreachable

_ZNKSt6vectorImSaImEE12_M_check_lenEmPKc.exit.i.i: ; preds = %if.else.i805
  %sub.ptr.div.i.i.i.i = ashr exact i64 %sub.ptr.sub.i.i.i.i808, 3
  %.sroa.speculated.i.i.i = call i64 @llvm.umax.i64(i64 %sub.ptr.div.i.i.i.i, i64 1)
  %add.i.i.i = add nsw i64 %.sroa.speculated.i.i.i, %sub.ptr.div.i.i.i.i
  %cmp7.i.i.i = icmp ult i64 %add.i.i.i, %sub.ptr.div.i.i.i.i
  %97 = call i64 @llvm.umin.i64(i64 %add.i.i.i, i64 1152921504606846975)
  %cond.i.i.i = select i1 %cmp7.i.i.i, i64 1152921504606846975, i64 %97
  %cmp.not.i.i.i = icmp eq i64 %cond.i.i.i, 0
  br i1 %cmp.not.i.i.i, label %_ZNSt12_Vector_baseImSaImEE11_M_allocateEm.exit.i.i, label %cond.true.i.i.i

cond.true.i.i.i:                                  ; preds = %_ZNKSt6vectorImSaImEE12_M_check_lenEmPKc.exit.i.i
  %mul.i.i.i.i.i = shl nuw nsw i64 %cond.i.i.i, 3
  %call5.i.i.i.i.i817 = invoke noalias noundef nonnull ptr @_Znwm(i64 noundef %mul.i.i.i.i.i) #19
          to label %_ZNSt12_Vector_baseImSaImEE11_M_allocateEm.exit.i.i unwind label %lpad176.loopexit

_ZNSt12_Vector_baseImSaImEE11_M_allocateEm.exit.i.i: ; preds = %cond.true.i.i.i, %_ZNKSt6vectorImSaImEE12_M_check_lenEmPKc.exit.i.i
  %cond.i10.i.i = phi ptr [ null, %_ZNKSt6vectorImSaImEE12_M_check_lenEmPKc.exit.i.i ], [ %call5.i.i.i.i.i817, %cond.true.i.i.i ]
  %add.ptr.i.i810 = getelementptr inbounds i64, ptr %cond.i10.i.i, i64 %sub.ptr.div.i.i.i.i
  store i64 %j.06503, ptr %add.ptr.i.i810, align 8
  %cmp.i.i.i.i.i811 = icmp sgt i64 %sub.ptr.sub.i.i.i.i808, 0
  br i1 %cmp.i.i.i.i.i811, label %if.then.i.i.i.i.i, label %_ZNSt6vectorImSaImEE11_S_relocateEPmS2_S2_RS0_.exit17.i.i

if.then.i.i.i.i.i:                                ; preds = %_ZNSt12_Vector_baseImSaImEE11_M_allocateEm.exit.i.i
  call void @llvm.memmove.p0.p0.i64(ptr nonnull align 8 %cond.i10.i.i, ptr align 8 %eliminators.sroa.0.46506, i64 %sub.ptr.sub.i.i.i.i808, i1 false)
  br label %_ZNSt6vectorImSaImEE11_S_relocateEPmS2_S2_RS0_.exit17.i.i

_ZNSt6vectorImSaImEE11_S_relocateEPmS2_S2_RS0_.exit17.i.i: ; preds = %if.then.i.i.i.i.i, %_ZNSt12_Vector_baseImSaImEE11_M_allocateEm.exit.i.i
  %add.ptr.i.i.i.i.i812 = getelementptr inbounds i8, ptr %cond.i10.i.i, i64 %sub.ptr.sub.i.i.i.i808
  %incdec.ptr.i.i813 = getelementptr inbounds i64, ptr %add.ptr.i.i.i.i.i812, i64 1
  %tobool.not.i.i.i814 = icmp eq ptr %eliminators.sroa.0.46506, null
  br i1 %tobool.not.i.i.i814, label %_ZNSt6vectorImSaImEE17_M_realloc_insertIJRKmEEEvN9__gnu_cxx17__normal_iteratorIPmS1_EEDpOT_.exit.i, label %if.then.i18.i.i

if.then.i18.i.i:                                  ; preds = %_ZNSt6vectorImSaImEE11_S_relocateEPmS2_S2_RS0_.exit17.i.i
  call void @_ZdlPv(ptr noundef nonnull %eliminators.sroa.0.46506) #20
  br label %_ZNSt6vectorImSaImEE17_M_realloc_insertIJRKmEEEvN9__gnu_cxx17__normal_iteratorIPmS1_EEDpOT_.exit.i

_ZNSt6vectorImSaImEE17_M_realloc_insertIJRKmEEEvN9__gnu_cxx17__normal_iteratorIPmS1_EEDpOT_.exit.i: ; preds = %if.then.i18.i.i, %_ZNSt6vectorImSaImEE11_S_relocateEPmS2_S2_RS0_.exit17.i.i
  %add.ptr19.i.i = getelementptr inbounds i64, ptr %cond.i10.i.i, i64 %cond.i.i.i
  br label %cleanup

lpad176.loopexit:                                 ; preds = %lor.lhs.false, %call.i710.noexc, %cond.true.i.i.i
  %lpad.loopexit6231 = landingpad { ptr, i32 }
          cleanup
  br label %ehcleanup245

lpad176.loopexit.split-lp:                        ; preds = %if.then.i.i.i815
  %lpad.loopexit.split-lp6232 = landingpad { ptr, i32 }
          cleanup
  br label %ehcleanup245

lpad203:                                          ; preds = %call.i725.noexc, %lor.rhs208
  %98 = landingpad { ptr, i32 }
          cleanup
  br label %lpad203.body

lpad203.body:                                     ; preds = %ehcleanup.i.i728, %lpad203
  %eh.lpad-body735 = phi { ptr, i32 } [ %98, %lpad203 ], [ %.pn.i.i729, %ehcleanup.i.i728 ]
  call void @_ZN4cvc58internal12NodeTemplateILb1EED2Ev(ptr noundef nonnull align 8 dereferenceable(8) %ref.tmp200) #21
  br label %ehcleanup245

cleanup:                                          ; preds = %_ZNSt6vectorImSaImEE17_M_realloc_insertIJRKmEEEvN9__gnu_cxx17__normal_iteratorIPmS1_EEDpOT_.exit.i, %if.then.i802, %cleanup.done225
  %eliminators.sroa.26.3 = phi ptr [ %eliminators.sroa.26.16504, %cleanup.done225 ], [ %add.ptr19.i.i, %_ZNSt6vectorImSaImEE17_M_realloc_insertIJRKmEEEvN9__gnu_cxx17__normal_iteratorIPmS1_EEDpOT_.exit.i ], [ %eliminators.sroa.26.16504, %if.then.i802 ]
  %eliminators.sroa.13.3 = phi ptr [ %eliminators.sroa.13.16505, %cleanup.done225 ], [ %incdec.ptr.i.i813, %_ZNSt6vectorImSaImEE17_M_realloc_insertIJRKmEEEvN9__gnu_cxx17__normal_iteratorIPmS1_EEDpOT_.exit.i ], [ %incdec.ptr.i803, %if.then.i802 ]
  %eliminators.sroa.0.6 = phi ptr [ %eliminators.sroa.0.46506, %cleanup.done225 ], [ %cond.i10.i.i, %_ZNSt6vectorImSaImEE17_M_realloc_insertIJRKmEEEvN9__gnu_cxx17__normal_iteratorIPmS1_EEDpOT_.exit.i ], [ %eliminators.sroa.0.46506, %if.then.i802 ]
  %switch = phi i1 [ true, %cleanup.done225 ], [ false, %_ZNSt6vectorImSaImEE17_M_realloc_insertIJRKmEEEvN9__gnu_cxx17__normal_iteratorIPmS1_EEDpOT_.exit.i ], [ false, %if.then.i802 ]
  %99 = load ptr, ptr %pivot, align 8
  %bf.load.i.i818 = load i64, ptr %99, align 8
  %100 = and i64 %bf.load.i.i818, 1152920405095219200
  %cmp.not.i.i819 = icmp eq i64 %100, 1152920405095219200
  br i1 %cmp.not.i.i819, label %_ZN4cvc58internal12NodeTemplateILb1EED2Ev.exit829, label %if.then.i.i820

if.then.i.i820:                                   ; preds = %cleanup
  %bf.value.i.i821 = add i64 %bf.load.i.i818, 1152920405095219200
  %bf.shl.i.i822 = and i64 %bf.value.i.i821, 1152920405095219200
  %bf.clear7.i.i823 = and i64 %bf.load.i.i818, -1152920405095219201
  %bf.set.i.i824 = or disjoint i64 %bf.shl.i.i822, %bf.clear7.i.i823
  store i64 %bf.set.i.i824, ptr %99, align 8
  %cmp12.i.i825 = icmp eq i64 %bf.shl.i.i822, 0
  br i1 %cmp12.i.i825, label %if.then13.i.i827, label %_ZN4cvc58internal12NodeTemplateILb1EED2Ev.exit829

if.then13.i.i827:                                 ; preds = %if.then.i.i820
  invoke void @_ZN4cvc58internal4expr9NodeValue15markForDeletionEv(ptr noundef nonnull align 8 dereferenceable(16) %99)
          to label %_ZN4cvc58internal12NodeTemplateILb1EED2Ev.exit829 unwind label %terminate.lpad.i828

terminate.lpad.i828:                              ; preds = %if.then13.i.i827
  %101 = landingpad { ptr, i32 }
          catch ptr null
  %102 = extractvalue { ptr, i32 } %101, 0
  call void @__clang_call_terminate(ptr %102) #22
  unreachable

_ZN4cvc58internal12NodeTemplateILb1EED2Ev.exit829: ; preds = %cleanup, %if.then.i.i820, %if.then13.i.i827
  br i1 %switch, label %for.cond163, label %for.end247

ehcleanup245:                                     ; preds = %lpad176.loopexit, %lpad176.loopexit.split-lp, %ehcleanup.i.i713, %lpad203.body
  %.pn112 = phi { ptr, i32 } [ %eh.lpad-body735, %lpad203.body ], [ %.pn.i.i714, %ehcleanup.i.i713 ], [ %lpad.loopexit6231, %lpad176.loopexit ], [ %lpad.loopexit.split-lp6232, %lpad176.loopexit.split-lp ]
  call void @_ZN4cvc58internal12NodeTemplateILb1EED2Ev(ptr noundef nonnull align 8 dereferenceable(8) %pivot) #21
  br label %ehcleanup302

for.end247:                                       ; preds = %for.cond163, %_ZN4cvc58internal12NodeTemplateILb1EED2Ev.exit829, %cond.true147
  %cmp164.lcssa = phi i1 [ false, %cond.true147 ], [ %cmp1646507, %_ZN4cvc58internal12NodeTemplateILb1EED2Ev.exit829 ], [ %cmp164, %for.cond163 ]
  %eliminators.sroa.26.4 = phi ptr [ %eliminators.sroa.26.06517, %cond.true147 ], [ %eliminators.sroa.26.3, %_ZN4cvc58internal12NodeTemplateILb1EED2Ev.exit829 ], [ %eliminators.sroa.26.3, %for.cond163 ]
  %eliminators.sroa.13.4 = phi ptr [ %eliminators.sroa.13.06518, %cond.true147 ], [ %eliminators.sroa.13.3, %_ZN4cvc58internal12NodeTemplateILb1EED2Ev.exit829 ], [ %eliminators.sroa.13.3, %for.cond163 ]
  %eliminators.sroa.0.7 = phi ptr [ %eliminators.sroa.0.06519, %cond.true147 ], [ %eliminators.sroa.0.6, %_ZN4cvc58internal12NodeTemplateILb1EED2Ev.exit829 ], [ %eliminators.sroa.0.6, %for.cond163 ]
  %add.ptr.i.i831 = getelementptr inbounds i64, ptr %eliminators.sroa.13.4, i64 -1
  %103 = load i64, ptr %add.ptr.i.i831, align 8
  call void @llvm.lifetime.start.p0(i64 8, ptr nonnull %ref.tmp9.i)
  call void @llvm.lifetime.start.p0(i64 1, ptr nonnull %ref.tmp10.i)
  %104 = load ptr, ptr %_M_parent.i.i.i.i.i, align 8
  %cmp.not5.i.i.i.i = icmp eq ptr %104, null
  br i1 %cmp.not5.i.i.i.i, label %if.then.i841, label %while.body.lr.ph.i.i.i.i

while.body.lr.ph.i.i.i.i:                         ; preds = %for.end247
  %105 = load ptr, ptr %crowdLit, align 8
  %bf.load3.i.i.i.i.i.i = load i64, ptr %105, align 8
  %bf.clear4.i.i.i.i.i.i = and i64 %bf.load3.i.i.i.i.i.i, 1099511627775
  br label %while.body.i.i.i.i

while.body.i.i.i.i:                               ; preds = %while.body.i.i.i.i, %while.body.lr.ph.i.i.i.i
  %__x.addr.07.i.i.i.i = phi ptr [ %104, %while.body.lr.ph.i.i.i.i ], [ %__x.addr.1.i.i.i.i, %while.body.i.i.i.i ]
  %__y.addr.06.i.i.i.i = phi ptr [ %10, %while.body.lr.ph.i.i.i.i ], [ %__y.addr.1.i.i.i.i, %while.body.i.i.i.i ]
  %_M_storage.i.i.i.i.i.i = getelementptr inbounds %"struct.std::_Rb_tree_node", ptr %__x.addr.07.i.i.i.i, i64 0, i32 1
  %106 = load ptr, ptr %_M_storage.i.i.i.i.i.i, align 8
  %bf.load.i.i.i.i.i.i833 = load i64, ptr %106, align 8
  %bf.clear.i.i.i.i.i.i = and i64 %bf.load.i.i.i.i.i.i833, 1099511627775
  %cmp.i.i.i.i.i.i834 = icmp ult i64 %bf.clear.i.i.i.i.i.i, %bf.clear4.i.i.i.i.i.i
  %_M_right.i.i.i.i.i835 = getelementptr inbounds %"struct.std::_Rb_tree_node_base", ptr %__x.addr.07.i.i.i.i, i64 0, i32 3
  %_M_left.i.i.i.i.i836 = getelementptr inbounds %"struct.std::_Rb_tree_node_base", ptr %__x.addr.07.i.i.i.i, i64 0, i32 2
  %__y.addr.1.i.i.i.i = select i1 %cmp.i.i.i.i.i.i834, ptr %__y.addr.06.i.i.i.i, ptr %__x.addr.07.i.i.i.i
  %__x.addr.1.in.i.i.i.i = select i1 %cmp.i.i.i.i.i.i834, ptr %_M_right.i.i.i.i.i835, ptr %_M_left.i.i.i.i.i836
  %__x.addr.1.i.i.i.i = load ptr, ptr %__x.addr.1.in.i.i.i.i, align 8
  %cmp.not.i.i.i.i837 = icmp eq ptr %__x.addr.1.i.i.i.i, null
  br i1 %cmp.not.i.i.i.i837, label %_ZNSt3mapIN4cvc58internal12NodeTemplateILb1EEENS1_5proof15CrowdingLitInfoESt4lessIS3_ESaISt4pairIKS3_S5_EEE11lower_boundERS9_.exit.i, label %while.body.i.i.i.i, !llvm.loop !28

_ZNSt3mapIN4cvc58internal12NodeTemplateILb1EEENS1_5proof15CrowdingLitInfoESt4lessIS3_ESaISt4pairIKS3_S5_EEE11lower_boundERS9_.exit.i: ; preds = %while.body.i.i.i.i
  %cmp.i.i838 = icmp eq ptr %__y.addr.1.i.i.i.i, %10
  br i1 %cmp.i.i838, label %if.then.i841, label %lor.rhs.i

lor.rhs.i:                                        ; preds = %_ZNSt3mapIN4cvc58internal12NodeTemplateILb1EEENS1_5proof15CrowdingLitInfoESt4lessIS3_ESaISt4pairIKS3_S5_EEE11lower_boundERS9_.exit.i
  %_M_storage.i.i.i.i.i.i.le = getelementptr inbounds %"struct.std::_Rb_tree_node", ptr %__x.addr.07.i.i.i.i, i64 0, i32 1
  %__y.addr.06.i.i.i.i.sroa.gep = getelementptr inbounds %"struct.std::_Rb_tree_node", ptr %__y.addr.06.i.i.i.i, i64 0, i32 1
  %__y.addr.1.i.i.i.i.sroa.sel = select i1 %cmp.i.i.i.i.i.i834, ptr %__y.addr.06.i.i.i.i.sroa.gep, ptr %_M_storage.i.i.i.i.i.i.le
  %107 = load ptr, ptr %__y.addr.1.i.i.i.i.sroa.sel, align 8
  %bf.load3.i.i.i = load i64, ptr %107, align 8
  %bf.clear4.i.i.i = and i64 %bf.load3.i.i.i, 1099511627775
  %cmp.i.i.i839 = icmp ult i64 %bf.clear4.i.i.i.i.i.i, %bf.clear4.i.i.i
  br i1 %cmp.i.i.i839, label %if.then.i841, label %cond.true254

if.then.i841:                                     ; preds = %lor.rhs.i, %_ZNSt3mapIN4cvc58internal12NodeTemplateILb1EEENS1_5proof15CrowdingLitInfoESt4lessIS3_ESaISt4pairIKS3_S5_EEE11lower_boundERS9_.exit.i, %for.end247
  %__y.addr.0.lcssa.i.i.i9.i = phi ptr [ %10, %_ZNSt3mapIN4cvc58internal12NodeTemplateILb1EEENS1_5proof15CrowdingLitInfoESt4lessIS3_ESaISt4pairIKS3_S5_EEE11lower_boundERS9_.exit.i ], [ %__y.addr.1.i.i.i.i, %lor.rhs.i ], [ %10, %for.end247 ]
  store ptr %crowdLit, ptr %ref.tmp9.i, align 8
  %call12.i842 = invoke ptr @_ZNSt8_Rb_treeIN4cvc58internal12NodeTemplateILb1EEESt4pairIKS3_NS1_5proof15CrowdingLitInfoEESt10_Select1stIS8_ESt4lessIS3_ESaIS8_EE22_M_emplace_hint_uniqueIJRKSt21piecewise_construct_tSt5tupleIJRS5_EESJ_IJEEEEESt17_Rb_tree_iteratorIS8_ESt23_Rb_tree_const_iteratorIS8_EDpOT_(ptr noundef nonnull align 8 dereferenceable(48) %crowdLitsInfo, ptr %__y.addr.0.lcssa.i.i.i9.i, ptr noundef nonnull align 1 dereferenceable(1) @_ZSt19piecewise_construct, ptr noundef nonnull align 8 dereferenceable(8) %ref.tmp9.i, ptr noundef nonnull align 1 dereferenceable(1) %ref.tmp10.i)
          to label %cond.true254 unwind label %lpad57.loopexit.split-lp.loopexit.split-lp.loopexit

cond.true254:                                     ; preds = %if.then.i841, %lor.rhs.i
  %__i.sroa.0.0.i = phi ptr [ %__y.addr.1.i.i.i.i, %lor.rhs.i ], [ %call12.i842, %if.then.i841 ]
  %second.i = getelementptr inbounds %"struct.std::_Rb_tree_node", ptr %__i.sroa.0.0.i, i64 0, i32 1, i32 0, i64 8
  call void @llvm.lifetime.end.p0(i64 8, ptr nonnull %ref.tmp9.i)
  call void @llvm.lifetime.end.p0(i64 1, ptr nonnull %ref.tmp10.i)
  store i64 %sub139, ptr %second.i, align 8
  %info.sroa.4.0.second.i.sroa_idx = getelementptr inbounds %"struct.std::_Rb_tree_node", ptr %__i.sroa.0.0.i, i64 0, i32 1, i32 0, i64 16
  store i64 %103, ptr %info.sroa.4.0.second.i.sroa_idx, align 8
  %info.sroa.7.0.second.i.sroa_idx = getelementptr inbounds %"struct.std::_Rb_tree_node", ptr %__i.sroa.0.0.i, i64 0, i32 1, i32 0, i64 24
  store i8 0, ptr %info.sroa.7.0.second.i.sroa_idx, align 8
  %info.sroa.86134.0.second.i.sroa_idx = getelementptr inbounds %"struct.std::_Rb_tree_node", ptr %__i.sroa.0.0.i, i64 0, i32 1, i32 0, i64 32
  store i64 -1, ptr %info.sroa.86134.0.second.i.sroa_idx, align 8
  br i1 %cmp164.lcssa, label %cleanup.done297, label %cond.false278

cond.false278:                                    ; preds = %cond.true254
  invoke void @_ZN4cvc58internal11FatalStreamC1EPKcS3_i(ptr noundef nonnull align 1 dereferenceable(1) %ref.tmp281, ptr noundef nonnull @__PRETTY_FUNCTION__._ZN4cvc58internal5proof21eliminateCrowdingLitsEbRKSt6vectorINS0_12NodeTemplateILb1EEESaIS4_EES8_S8_S8_PNS0_7CDProofEPNS0_16ProofNodeManagerE, ptr noundef nonnull @.str.15, i32 noundef 174)
          to label %invoke.cont282 unwind label %lpad57.loopexit.split-lp.loopexit.split-lp.loopexit.split-lp

invoke.cont282:                                   ; preds = %cond.false278
  %call286 = invoke noundef nonnull align 8 dereferenceable(8) ptr @_ZN4cvc58internal11FatalStream6streamEv(ptr noundef nonnull align 1 dereferenceable(1) %ref.tmp281)
          to label %invoke.cont285 unwind label %lpad284

invoke.cont285:                                   ; preds = %invoke.cont282
  %call288 = invoke noundef nonnull align 8 dereferenceable(8) ptr @_ZStlsISt11char_traitsIcEERSt13basic_ostreamIcT_ES5_PKc(ptr noundef nonnull align 8 dereferenceable(8) %call286, ptr noundef nonnull @.str.16)
          to label %invoke.cont287 unwind label %lpad284

invoke.cont287:                                   ; preds = %invoke.cont285
  %call290 = invoke noundef nonnull align 8 dereferenceable(8) ptr @_ZStlsISt11char_traitsIcEERSt13basic_ostreamIcT_ES5_PKc(ptr noundef nonnull align 8 dereferenceable(8) %call288, ptr noundef nonnull @.str.17)
          to label %invoke.cont289 unwind label %lpad284

invoke.cont289:                                   ; preds = %invoke.cont287
  %call292 = invoke noundef nonnull align 8 dereferenceable(8) ptr @_ZStlsISt11char_traitsIcEERSt13basic_ostreamIcT_ES5_PKc(ptr noundef nonnull align 8 dereferenceable(8) %call290, ptr noundef nonnull @.str.6)
          to label %cleanup.action296 unwind label %lpad284

cleanup.action296:                                ; preds = %invoke.cont289
  call void @_ZN4cvc58internal11FatalStreamD1Ev(ptr noundef nonnull align 1 dereferenceable(1) %ref.tmp281) #22
  unreachable

lpad284:                                          ; preds = %invoke.cont289, %invoke.cont287, %invoke.cont285, %invoke.cont282
  %108 = landingpad { ptr, i32 }
          cleanup
  call void @_ZN4cvc58internal11FatalStreamD1Ev(ptr noundef nonnull align 1 dereferenceable(1) %ref.tmp281) #22
  unreachable

cleanup.done297:                                  ; preds = %cond.true254
  %109 = load ptr, ptr %crowdLit, align 8
  %bf.load.i.i1016 = load i64, ptr %109, align 8
  %110 = and i64 %bf.load.i.i1016, 1152920405095219200
  %cmp.not.i.i1017 = icmp eq i64 %110, 1152920405095219200
  br i1 %cmp.not.i.i1017, label %for.inc303, label %if.then.i.i1018

if.then.i.i1018:                                  ; preds = %cleanup.done297
  %bf.value.i.i1019 = add i64 %bf.load.i.i1016, 1152920405095219200
  %bf.shl.i.i1020 = and i64 %bf.value.i.i1019, 1152920405095219200
  %bf.clear7.i.i1021 = and i64 %bf.load.i.i1016, -1152920405095219201
  %bf.set.i.i1022 = or disjoint i64 %bf.shl.i.i1020, %bf.clear7.i.i1021
  store i64 %bf.set.i.i1022, ptr %109, align 8
  %cmp12.i.i1023 = icmp eq i64 %bf.shl.i.i1020, 0
  br i1 %cmp12.i.i1023, label %if.then13.i.i1025, label %for.inc303

if.then13.i.i1025:                                ; preds = %if.then.i.i1018
  invoke void @_ZN4cvc58internal4expr9NodeValue15markForDeletionEv(ptr noundef nonnull align 8 dereferenceable(16) %109)
          to label %for.inc303 unwind label %terminate.lpad.i1026

terminate.lpad.i1026:                             ; preds = %if.then13.i.i1025
  %111 = landingpad { ptr, i32 }
          catch ptr null
  %112 = extractvalue { ptr, i32 } %111, 0
  call void @__clang_call_terminate(ptr %112) #22
  unreachable

for.inc303:                                       ; preds = %for.cond.i.i.i.i.i, %for.body.i.i.i, %if.end.i.i.i.i.i, %if.then13.i.i1025, %if.then.i.i1018, %cleanup.done297, %invoke.cont47
  %eliminators.sroa.26.5 = phi ptr [ %eliminators.sroa.26.06517, %invoke.cont47 ], [ %eliminators.sroa.26.4, %cleanup.done297 ], [ %eliminators.sroa.26.4, %if.then.i.i1018 ], [ %eliminators.sroa.26.4, %if.then13.i.i1025 ], [ %eliminators.sroa.26.06517, %if.end.i.i.i.i.i ], [ %eliminators.sroa.26.06517, %for.body.i.i.i ], [ %eliminators.sroa.26.06517, %for.cond.i.i.i.i.i ]
  %eliminators.sroa.13.5 = phi ptr [ %eliminators.sroa.13.06518, %invoke.cont47 ], [ %eliminators.sroa.13.4, %cleanup.done297 ], [ %eliminators.sroa.13.4, %if.then.i.i1018 ], [ %eliminators.sroa.13.4, %if.then13.i.i1025 ], [ %eliminators.sroa.13.06518, %if.end.i.i.i.i.i ], [ %eliminators.sroa.13.06518, %for.body.i.i.i ], [ %eliminators.sroa.13.06518, %for.cond.i.i.i.i.i ]
  %eliminators.sroa.0.8 = phi ptr [ %eliminators.sroa.0.06519, %invoke.cont47 ], [ %eliminators.sroa.0.7, %cleanup.done297 ], [ %eliminators.sroa.0.7, %if.then.i.i1018 ], [ %eliminators.sroa.0.7, %if.then13.i.i1025 ], [ %eliminators.sroa.0.06519, %if.end.i.i.i.i.i ], [ %eliminators.sroa.0.06519, %for.body.i.i.i ], [ %eliminators.sroa.0.06519, %for.cond.i.i.i.i.i ]
  %inc304 = add nuw i64 %i.06520, 1
  %exitcond6648.not = icmp eq i64 %inc304, %umax
  br i1 %exitcond6648.not, label %cond.true309, label %for.body, !llvm.loop !29

ehcleanup302:                                     ; preds = %lpad57.loopexit, %lpad57.loopexit.split-lp.loopexit.split-lp.loopexit, %lpad57.loopexit.split-lp.loopexit.split-lp.loopexit.split-lp, %lpad57.loopexit.split-lp.loopexit, %ehcleanup.i.i, %ehcleanup245, %lpad59
  %eliminators.sroa.0.9 = phi ptr [ %eliminators.sroa.0.46506, %ehcleanup245 ], [ %eliminators.sroa.0.06519, %lpad59 ], [ %eliminators.sroa.0.06519, %ehcleanup.i.i ], [ %eliminators.sroa.0.46506, %lpad57.loopexit ], [ %eliminators.sroa.0.06519, %lpad57.loopexit.split-lp.loopexit ], [ %eliminators.sroa.0.2.ph.ph.ph, %lpad57.loopexit.split-lp.loopexit.split-lp.loopexit ], [ %eliminators.sroa.0.7, %lpad57.loopexit.split-lp.loopexit.split-lp.loopexit.split-lp ]
  %.pn114 = phi { ptr, i32 } [ %.pn112, %ehcleanup245 ], [ %52, %lpad59 ], [ %.pn.i.i, %ehcleanup.i.i ], [ %lpad.loopexit6228, %lpad57.loopexit ], [ %lpad.loopexit6234, %lpad57.loopexit.split-lp.loopexit ], [ %lpad.loopexit6242, %lpad57.loopexit.split-lp.loopexit.split-lp.loopexit ], [ %lpad.loopexit.split-lp6243, %lpad57.loopexit.split-lp.loopexit.split-lp.loopexit.split-lp ]
  call void @_ZN4cvc58internal12NodeTemplateILb1EED2Ev(ptr noundef nonnull align 8 dereferenceable(8) %crowdLit) #21
  br label %ehcleanup1590

cond.true309:                                     ; preds = %for.inc303
  %.pre6660 = load ptr, ptr %_M_finish.i408, align 8
  %.pre6661 = load ptr, ptr %lastInclusion, align 8
  %_M_finish.i1137 = getelementptr inbounds %"struct.std::_Vector_base<std::pair<cvc5::internal::NodeTemplate<true>, unsigned long>, std::allocator<std::pair<cvc5::internal::NodeTemplate<true>, unsigned long>>>::_Vector_impl_data", ptr %lastInclusion, i64 0, i32 1
  %sub.ptr.lhs.cast.i1138 = ptrtoint ptr %.pre6660 to i64
  %sub.ptr.rhs.cast.i1139 = ptrtoint ptr %.pre6661 to i64
  %sub.ptr.sub.i1140 = sub i64 %sub.ptr.lhs.cast.i1138, %sub.ptr.rhs.cast.i1139
  %sub.ptr.div.i1141 = ashr exact i64 %sub.ptr.sub.i1140, 4
  %cmp.i.not.i.i = icmp eq ptr %.pre6661, %.pre6660
  br i1 %cmp.i.not.i.i, label %invoke.cont336, label %if.then.i.i1143

if.then.i.i1143:                                  ; preds = %cond.true309
  %113 = call i64 @llvm.ctlz.i64(i64 %sub.ptr.div.i1141, i1 true), !range !30
  %sub.i.i.i = shl nuw nsw i64 %113, 1
  %mul.i.i = xor i64 %sub.i.i.i, 126
  invoke fastcc void @"_ZSt16__introsort_loopIN9__gnu_cxx17__normal_iteratorIPSt4pairIN4cvc58internal12NodeTemplateILb1EEEmESt6vectorIS7_SaIS7_EEEElNS0_5__ops15_Iter_comp_iterIZNS4_5proof21eliminateCrowdingLitsEbRKS9_IS6_SaIS6_EESJ_SJ_SJ_PNS4_7CDProofEPNS4_16ProofNodeManagerEE3$_0EEEvT_SQ_T0_T1_"(ptr %.pre6661, ptr %.pre6660, i64 noundef %mul.i.i)
          to label %.noexc1146 unwind label %lpad34.loopexit.split-lp.loopexit.split-lp.loopexit.split-lp.loopexit.split-lp.loopexit.split-lp.loopexit.split-lp

.noexc1146:                                       ; preds = %if.then.i.i1143
  %cmp.i2.i.i = icmp sgt i64 %sub.ptr.sub.i1140, 256
  br i1 %cmp.i2.i.i, label %if.then.i.i.i1144, label %if.else.i.i.i

if.then.i.i.i1144:                                ; preds = %.noexc1146
  %add.ptr.i.i.i.i1145 = getelementptr inbounds %"struct.std::pair.106", ptr %.pre6661, i64 16
  invoke fastcc void @"_ZSt16__insertion_sortIN9__gnu_cxx17__normal_iteratorIPSt4pairIN4cvc58internal12NodeTemplateILb1EEEmESt6vectorIS7_SaIS7_EEEENS0_5__ops15_Iter_comp_iterIZNS4_5proof21eliminateCrowdingLitsEbRKS9_IS6_SaIS6_EESJ_SJ_SJ_PNS4_7CDProofEPNS4_16ProofNodeManagerEE3$_0EEEvT_SQ_T0_"(ptr %.pre6661, ptr nonnull %add.ptr.i.i.i.i1145)
          to label %.noexc1147 unwind label %lpad34.loopexit.split-lp.loopexit.split-lp.loopexit.split-lp.loopexit.split-lp.loopexit.split-lp.loopexit.split-lp

.noexc1147:                                       ; preds = %if.then.i.i.i1144
  %cmp.i.not2.i.i.i.i = icmp eq ptr %add.ptr.i.i.i.i1145, %.pre6660
  br i1 %cmp.i.not2.i.i.i.i, label %invoke.cont336, label %for.body.i.i.i.i

for.body.i.i.i.i:                                 ; preds = %.noexc1147, %.noexc1148
  %__i.sroa.0.03.i.i.i.i = phi ptr [ %incdec.ptr.i.i.i.i.i, %.noexc1148 ], [ %add.ptr.i.i.i.i1145, %.noexc1147 ]
  invoke fastcc void @"_ZSt25__unguarded_linear_insertIN9__gnu_cxx17__normal_iteratorIPSt4pairIN4cvc58internal12NodeTemplateILb1EEEmESt6vectorIS7_SaIS7_EEEENS0_5__ops14_Val_comp_iterIZNS4_5proof21eliminateCrowdingLitsEbRKS9_IS6_SaIS6_EESJ_SJ_SJ_PNS4_7CDProofEPNS4_16ProofNodeManagerEE3$_0EEEvT_T0_"(ptr nonnull %__i.sroa.0.03.i.i.i.i)
          to label %.noexc1148 unwind label %lpad34.loopexit.split-lp.loopexit.split-lp.loopexit.split-lp.loopexit.split-lp.loopexit

.noexc1148:                                       ; preds = %for.body.i.i.i.i
  %incdec.ptr.i.i.i.i.i = getelementptr inbounds %"struct.std::pair.106", ptr %__i.sroa.0.03.i.i.i.i, i64 1
  %cmp.i.not.i.i.i.i = icmp eq ptr %incdec.ptr.i.i.i.i.i, %.pre6660
  br i1 %cmp.i.not.i.i.i.i, label %invoke.cont336, label %for.body.i.i.i.i, !llvm.loop !31

if.else.i.i.i:                                    ; preds = %.noexc1146
  invoke fastcc void @"_ZSt16__insertion_sortIN9__gnu_cxx17__normal_iteratorIPSt4pairIN4cvc58internal12NodeTemplateILb1EEEmESt6vectorIS7_SaIS7_EEEENS0_5__ops15_Iter_comp_iterIZNS4_5proof21eliminateCrowdingLitsEbRKS9_IS6_SaIS6_EESJ_SJ_SJ_PNS4_7CDProofEPNS4_16ProofNodeManagerEE3$_0EEEvT_SQ_T0_"(ptr %.pre6661, ptr %.pre6660)
          to label %invoke.cont336 unwind label %lpad34.loopexit.split-lp.loopexit.split-lp.loopexit.split-lp.loopexit.split-lp.loopexit.split-lp.loopexit.split-lp

invoke.cont336:                                   ; preds = %.noexc1148, %cond.true309.thread, %.noexc1147, %cond.true309, %if.else.i.i.i
  %cmp.i.not.i.i6694 = phi i1 [ true, %cond.true309.thread ], [ false, %.noexc1147 ], [ true, %cond.true309 ], [ false, %if.else.i.i.i ], [ %cmp.i.not.i.i, %.noexc1148 ]
  %sub.ptr.div.i11416693 = phi i64 [ 0, %cond.true309.thread ], [ %sub.ptr.div.i1141, %.noexc1147 ], [ %sub.ptr.div.i1141, %cond.true309 ], [ %sub.ptr.div.i1141, %if.else.i.i.i ], [ %sub.ptr.div.i1141, %.noexc1148 ]
  %_M_finish.i11376692 = phi ptr [ %_M_finish.i11376680, %cond.true309.thread ], [ %_M_finish.i1137, %.noexc1147 ], [ %_M_finish.i1137, %cond.true309 ], [ %_M_finish.i1137, %if.else.i.i.i ], [ %_M_finish.i1137, %.noexc1148 ]
  %eliminators.sroa.0.0.lcssa6688 = phi ptr [ null, %cond.true309.thread ], [ %eliminators.sroa.0.8, %.noexc1147 ], [ %eliminators.sroa.0.8, %cond.true309 ], [ %eliminators.sroa.0.8, %if.else.i.i.i ], [ %eliminators.sroa.0.8, %.noexc1148 ]
  %eliminators.sroa.13.0.lcssa6687 = phi ptr [ null, %cond.true309.thread ], [ %eliminators.sroa.13.5, %.noexc1147 ], [ %eliminators.sroa.13.5, %cond.true309 ], [ %eliminators.sroa.13.5, %if.else.i.i.i ], [ %eliminators.sroa.13.5, %.noexc1148 ]
  %eliminators.sroa.26.0.lcssa6686 = phi ptr [ null, %cond.true309.thread ], [ %eliminators.sroa.26.5, %.noexc1147 ], [ %eliminators.sroa.26.5, %cond.true309 ], [ %eliminators.sroa.26.5, %if.else.i.i.i ], [ %eliminators.sroa.26.5, %.noexc1148 ]
  invoke void @_ZSt6__sortIN9__gnu_cxx17__normal_iteratorIPmSt6vectorImSaImEEEENS0_5__ops15_Iter_less_iterEEvT_S9_T0_(ptr %eliminators.sroa.0.0.lcssa6688, ptr %eliminators.sroa.13.0.lcssa6687)
          to label %invoke.cont345 unwind label %lpad34.loopexit.split-lp.loopexit.split-lp.loopexit.split-lp.loopexit.split-lp.loopexit.split-lp.loopexit.split-lp

invoke.cont345:                                   ; preds = %invoke.cont336
  %reorderPremises.not = xor i1 %reorderPremises, true
  %brmerge6795 = or i1 %cmp.i.not.i.i6694, %reorderPremises.not
  br i1 %brmerge6795, label %if.end1199, label %for.body351.lr.ph

for.body351.lr.ph:                                ; preds = %invoke.cont345
  %_M_element_count.i.i.i.i1530 = getelementptr inbounds %"class.std::_Hashtable.71", ptr %crowding, i64 0, i32 3
  %_M_finish.i1580 = getelementptr inbounds %"struct.std::_Vector_base<cvc5::internal::NodeTemplate<true>, std::allocator<cvc5::internal::NodeTemplate<true>>>::_Vector_impl_data", ptr %targetClauseLits, i64 0, i32 1
  %umax6649 = call i64 @llvm.umax.i64(i64 %sub.ptr.div.i11416693, i64 1)
  br label %for.body351

for.cond743.preheader:                            ; preds = %_ZN4cvc58internal12NodeTemplateILb1EED2Ev.exit2195
  br i1 %cmp.i.not.i.i6694, label %if.end1199, label %for.body745.preheader

for.body745.preheader:                            ; preds = %for.cond743.preheader
  %umax6651 = call i64 @llvm.umax.i64(i64 %sub.ptr.div.i11416693, i64 1)
  br label %for.body745

for.body351:                                      ; preds = %for.body351.lr.ph, %_ZN4cvc58internal12NodeTemplateILb1EED2Ev.exit2195
  %storemerge6545 = phi i64 [ 0, %for.body351.lr.ph ], [ %inc608, %_ZN4cvc58internal12NodeTemplateILb1EED2Ev.exit2195 ]
  %114 = load ptr, ptr %lastInclusion, align 8
  %add.ptr.i1152 = getelementptr inbounds %"struct.std::pair.106", ptr %114, i64 %storemerge6545
  %115 = load ptr, ptr %add.ptr.i1152, align 8
  store ptr %115, ptr %crowdingLit, align 8
  %bf.load.i.i1153 = load i64, ptr %115, align 8
  %bf.lshr.i.i1154 = lshr i64 %bf.load.i.i1153, 40
  %116 = trunc i64 %bf.lshr.i.i1154 to i32
  %bf.cast.i.i1155 = and i32 %116, 1048575
  %cmp.i.i1156 = icmp ult i32 %bf.cast.i.i1155, 1048574
  br i1 %cmp.i.i1156, label %if.then.i.i1161, label %if.else.i.i1157

if.then.i.i1161:                                  ; preds = %for.body351
  %bf.value.i.i1162 = add i64 %bf.load.i.i1153, 1099511627776
  %bf.shl.i.i1163 = and i64 %bf.value.i.i1162, 1152920405095219200
  %bf.clear7.i.i1164 = and i64 %bf.load.i.i1153, -1152920405095219201
  %bf.set.i.i1165 = or disjoint i64 %bf.shl.i.i1163, %bf.clear7.i.i1164
  store i64 %bf.set.i.i1165, ptr %115, align 8
  br label %invoke.cont353

if.else.i.i1157:                                  ; preds = %for.body351
  %cmp12.i.i1158 = icmp eq i32 %bf.cast.i.i1155, 1048574
  br i1 %cmp12.i.i1158, label %if.then13.i.i1159, label %invoke.cont353

if.then13.i.i1159:                                ; preds = %if.else.i.i1157
  %bf.set23.i.i1160 = or i64 %bf.load.i.i1153, 1152920405095219200
  store i64 %bf.set23.i.i1160, ptr %115, align 8
  invoke void @_ZN4cvc58internal4expr9NodeValue20markRefCountMaxedOutEv(ptr noundef nonnull align 8 dereferenceable(16) %115)
          to label %invoke.cont353 unwind label %lpad34.loopexit.split-lp.loopexit.split-lp.loopexit.split-lp.loopexit

invoke.cont353:                                   ; preds = %if.else.i.i1157, %if.then.i.i1161, %if.then13.i.i1159
  call void @llvm.lifetime.start.p0(i64 8, ptr nonnull %ref.tmp9.i1168)
  call void @llvm.lifetime.start.p0(i64 1, ptr nonnull %ref.tmp10.i1169)
  %117 = load ptr, ptr %_M_parent.i.i.i.i.i, align 8
  %cmp.not5.i.i.i.i1172 = icmp eq ptr %117, null
  br i1 %cmp.not5.i.i.i.i1172, label %if.then.i1199, label %while.body.lr.ph.i.i.i.i1173

while.body.lr.ph.i.i.i.i1173:                     ; preds = %invoke.cont353
  %118 = load ptr, ptr %crowdingLit, align 8
  %bf.load3.i.i.i.i.i.i1174 = load i64, ptr %118, align 8
  %bf.clear4.i.i.i.i.i.i1175 = and i64 %bf.load3.i.i.i.i.i.i1174, 1099511627775
  br label %while.body.i.i.i.i1176

while.body.i.i.i.i1176:                           ; preds = %while.body.i.i.i.i1176, %while.body.lr.ph.i.i.i.i1173
  %__x.addr.07.i.i.i.i1177 = phi ptr [ %117, %while.body.lr.ph.i.i.i.i1173 ], [ %__x.addr.1.i.i.i.i1187, %while.body.i.i.i.i1176 ]
  %__y.addr.06.i.i.i.i1178 = phi ptr [ %10, %while.body.lr.ph.i.i.i.i1173 ], [ %__y.addr.1.i.i.i.i1185, %while.body.i.i.i.i1176 ]
  %_M_storage.i.i.i.i.i.i1179 = getelementptr inbounds %"struct.std::_Rb_tree_node", ptr %__x.addr.07.i.i.i.i1177, i64 0, i32 1
  %119 = load ptr, ptr %_M_storage.i.i.i.i.i.i1179, align 8
  %bf.load.i.i.i.i.i.i1180 = load i64, ptr %119, align 8
  %bf.clear.i.i.i.i.i.i1181 = and i64 %bf.load.i.i.i.i.i.i1180, 1099511627775
  %cmp.i.i.i.i.i.i1182 = icmp ult i64 %bf.clear.i.i.i.i.i.i1181, %bf.clear4.i.i.i.i.i.i1175
  %_M_right.i.i.i.i.i1183 = getelementptr inbounds %"struct.std::_Rb_tree_node_base", ptr %__x.addr.07.i.i.i.i1177, i64 0, i32 3
  %_M_left.i.i.i.i.i1184 = getelementptr inbounds %"struct.std::_Rb_tree_node_base", ptr %__x.addr.07.i.i.i.i1177, i64 0, i32 2
  %__y.addr.1.i.i.i.i1185 = select i1 %cmp.i.i.i.i.i.i1182, ptr %__y.addr.06.i.i.i.i1178, ptr %__x.addr.07.i.i.i.i1177
  %__x.addr.1.in.i.i.i.i1186 = select i1 %cmp.i.i.i.i.i.i1182, ptr %_M_right.i.i.i.i.i1183, ptr %_M_left.i.i.i.i.i1184
  %__x.addr.1.i.i.i.i1187 = load ptr, ptr %__x.addr.1.in.i.i.i.i1186, align 8
  %cmp.not.i.i.i.i1188 = icmp eq ptr %__x.addr.1.i.i.i.i1187, null
  br i1 %cmp.not.i.i.i.i1188, label %_ZNSt3mapIN4cvc58internal12NodeTemplateILb1EEENS1_5proof15CrowdingLitInfoESt4lessIS3_ESaISt4pairIKS3_S5_EEE11lower_boundERS9_.exit.i1189, label %while.body.i.i.i.i1176, !llvm.loop !28

_ZNSt3mapIN4cvc58internal12NodeTemplateILb1EEENS1_5proof15CrowdingLitInfoESt4lessIS3_ESaISt4pairIKS3_S5_EEE11lower_boundERS9_.exit.i1189: ; preds = %while.body.i.i.i.i1176
  %cmp.i.i1190 = icmp eq ptr %__y.addr.1.i.i.i.i1185, %10
  br i1 %cmp.i.i1190, label %if.then.i1199, label %lor.rhs.i1191

lor.rhs.i1191:                                    ; preds = %_ZNSt3mapIN4cvc58internal12NodeTemplateILb1EEENS1_5proof15CrowdingLitInfoESt4lessIS3_ESaISt4pairIKS3_S5_EEE11lower_boundERS9_.exit.i1189
  %_M_storage.i.i.i.i.i.i1179.le = getelementptr inbounds %"struct.std::_Rb_tree_node", ptr %__x.addr.07.i.i.i.i1177, i64 0, i32 1
  %__y.addr.06.i.i.i.i1178.sroa.gep = getelementptr inbounds %"struct.std::_Rb_tree_node", ptr %__y.addr.06.i.i.i.i1178, i64 0, i32 1
  %__y.addr.1.i.i.i.i1185.sroa.sel = select i1 %cmp.i.i.i.i.i.i1182, ptr %__y.addr.06.i.i.i.i1178.sroa.gep, ptr %_M_storage.i.i.i.i.i.i1179.le
  %120 = load ptr, ptr %__y.addr.1.i.i.i.i1185.sroa.sel, align 8
  %bf.load3.i.i.i1193 = load i64, ptr %120, align 8
  %bf.clear4.i.i.i1194 = and i64 %bf.load3.i.i.i1193, 1099511627775
  %cmp.i.i.i1195 = icmp ult i64 %bf.clear4.i.i.i.i.i.i1175, %bf.clear4.i.i.i1194
  br i1 %cmp.i.i.i1195, label %if.then.i1199, label %invoke.cont359

if.then.i1199:                                    ; preds = %lor.rhs.i1191, %_ZNSt3mapIN4cvc58internal12NodeTemplateILb1EEENS1_5proof15CrowdingLitInfoESt4lessIS3_ESaISt4pairIKS3_S5_EEE11lower_boundERS9_.exit.i1189, %invoke.cont353
  %__y.addr.0.lcssa.i.i.i9.i1200 = phi ptr [ %10, %_ZNSt3mapIN4cvc58internal12NodeTemplateILb1EEENS1_5proof15CrowdingLitInfoESt4lessIS3_ESaISt4pairIKS3_S5_EEE11lower_boundERS9_.exit.i1189 ], [ %__y.addr.1.i.i.i.i1185, %lor.rhs.i1191 ], [ %10, %invoke.cont353 ]
  store ptr %crowdingLit, ptr %ref.tmp9.i1168, align 8
  %call12.i1202 = invoke ptr @_ZNSt8_Rb_treeIN4cvc58internal12NodeTemplateILb1EEESt4pairIKS3_NS1_5proof15CrowdingLitInfoEESt10_Select1stIS8_ESt4lessIS3_ESaIS8_EE22_M_emplace_hint_uniqueIJRKSt21piecewise_construct_tSt5tupleIJRS5_EESJ_IJEEEEESt17_Rb_tree_iteratorIS8_ESt23_Rb_tree_const_iteratorIS8_EDpOT_(ptr noundef nonnull align 8 dereferenceable(48) %crowdLitsInfo, ptr %__y.addr.0.lcssa.i.i.i9.i1200, ptr noundef nonnull align 1 dereferenceable(1) @_ZSt19piecewise_construct, ptr noundef nonnull align 8 dereferenceable(8) %ref.tmp9.i1168, ptr noundef nonnull align 1 dereferenceable(1) %ref.tmp10.i1169)
          to label %invoke.cont359 unwind label %lpad354.loopexit.split-lp.loopexit.split-lp

invoke.cont359:                                   ; preds = %if.then.i1199, %lor.rhs.i1191
  %__i.sroa.0.0.i1197 = phi ptr [ %__y.addr.1.i.i.i.i1185, %lor.rhs.i1191 ], [ %call12.i1202, %if.then.i1199 ]
  call void @llvm.lifetime.end.p0(i64 8, ptr nonnull %ref.tmp9.i1168)
  call void @llvm.lifetime.end.p0(i64 1, ptr nonnull %ref.tmp10.i1169)
  %d_eliminator357 = getelementptr inbounds %"struct.std::_Rb_tree_node", ptr %__i.sroa.0.0.i1197, i64 0, i32 1, i32 0, i64 16
  %121 = load i64, ptr %d_eliminator357, align 8
  %122 = load ptr, ptr %newChildren, align 8
  %add.ptr.i1204 = getelementptr inbounds %"class.cvc5::internal::NodeTemplate", ptr %122, i64 %121
  %123 = load ptr, ptr %add.ptr.i1204, align 8
  %d_kind.i1205 = getelementptr inbounds %"class.cvc5::internal::expr::NodeValue", ptr %123, i64 0, i32 1
  %bf.load.i1206 = load i16, ptr %d_kind.i1205, align 8
  %bf.clear.i1207 = and i16 %bf.load.i1206, 1023
  %cmp361.not = icmp eq i16 %bf.clear.i1207, 21
  br i1 %cmp361.not, label %invoke.cont363, label %cond.true392

invoke.cont363:                                   ; preds = %invoke.cont359
  %124 = load ptr, ptr %crowdingLit, align 8
  %d_kind.i1209 = getelementptr inbounds %"class.cvc5::internal::expr::NodeValue", ptr %124, i64 0, i32 1
  %bf.load.i1210 = load i16, ptr %d_kind.i1209, align 8
  %bf.clear.i1211 = and i16 %bf.load.i1210, 1023
  %cmp365 = icmp eq i16 %bf.clear.i1211, 18
  br i1 %cmp365, label %land.lhs.true366, label %cond.false375.thread

land.lhs.true366:                                 ; preds = %invoke.cont363
  call void @llvm.experimental.noalias.scope.decl(metadata !32)
  %call2.i.i.i1225 = invoke noundef i32 @_ZN4cvc58internal4kind10metaKindOfENS1_6Kind_tE(i32 noundef 18)
          to label %call2.i.i.i.noexc unwind label %lpad354.loopexit.split-lp.loopexit.split-lp

call2.i.i.i.noexc:                                ; preds = %land.lhs.true366
  %cmp.i.i1219 = icmp eq i32 %call2.i.i.i1225, 2
  %idxprom.i.i1220 = zext i1 %cmp.i.i1219 to i64
  %arrayidx.i.i1221 = getelementptr inbounds %"class.cvc5::internal::expr::NodeValue", ptr %124, i64 0, i32 3, i64 %idxprom.i.i1220
  %125 = load ptr, ptr %arrayidx.i.i1221, align 8, !noalias !32
  store ptr %125, ptr %ref.tmp367, align 8, !alias.scope !32
  %bf.load.i.i.i = load i64, ptr %125, align 8, !noalias !32
  %bf.lshr.i.i.i = lshr i64 %bf.load.i.i.i, 40
  %126 = trunc i64 %bf.lshr.i.i.i to i32
  %bf.cast.i.i.i = and i32 %126, 1048575
  %cmp.i.i.i1222 = icmp ult i32 %bf.cast.i.i.i, 1048574
  br i1 %cmp.i.i.i1222, label %if.then.i.i.i1224, label %if.else.i.i.i1223

if.then.i.i.i1224:                                ; preds = %call2.i.i.i.noexc
  %bf.value.i.i.i = add i64 %bf.load.i.i.i, 1099511627776
  %bf.shl.i.i.i = and i64 %bf.value.i.i.i, 1152920405095219200
  %bf.clear7.i.i.i = and i64 %bf.load.i.i.i, -1152920405095219201
  %bf.set.i.i.i = or disjoint i64 %bf.shl.i.i.i, %bf.clear7.i.i.i
  store i64 %bf.set.i.i.i, ptr %125, align 8, !noalias !32
  br label %invoke.cont368

if.else.i.i.i1223:                                ; preds = %call2.i.i.i.noexc
  %cmp12.i.i.i = icmp eq i32 %bf.cast.i.i.i, 1048574
  br i1 %cmp12.i.i.i, label %if.then13.i.i.i, label %invoke.cont368

if.then13.i.i.i:                                  ; preds = %if.else.i.i.i1223
  %bf.set23.i.i.i = or i64 %bf.load.i.i.i, 1152920405095219200
  store i64 %bf.set23.i.i.i, ptr %125, align 8, !noalias !32
  invoke void @_ZN4cvc58internal4expr9NodeValue20markRefCountMaxedOutEv(ptr noundef nonnull align 8 dereferenceable(16) %125)
          to label %invoke.cont368 unwind label %lpad354.loopexit.split-lp.loopexit.split-lp

invoke.cont368:                                   ; preds = %if.else.i.i.i1223, %if.then.i.i.i1224, %if.then13.i.i.i
  %127 = load ptr, ptr %add.ptr.i1204, align 8
  %cmp.i1228 = icmp eq ptr %125, %127
  br i1 %cmp.i1228, label %cleanup.action381, label %cond.false375

cond.false375:                                    ; preds = %invoke.cont368
  %d_kind.i.i.i.i1230.phi.trans.insert = getelementptr inbounds %"class.cvc5::internal::expr::NodeValue", ptr %127, i64 0, i32 1
  %bf.load.i.i.i.i1231.pre = load i16, ptr %d_kind.i.i.i.i1230.phi.trans.insert, align 8
  %bf.load.i.i.i.i1231.pre.fr = freeze i16 %bf.load.i.i.i.i1231.pre
  %.pre6676 = and i16 %bf.load.i.i.i.i1231.pre.fr, 1023
  %bf.cast.i.i.i.i1233 = zext nneg i16 %.pre6676 to i32
  %cmp.i.i.i.i.i1234 = icmp eq i16 %.pre6676, 1023
  %spec.select = select i1 %cmp.i.i.i.i.i1234, i32 -1, i32 %bf.cast.i.i.i.i1233
  br label %cond.false375.thread

cond.false375.thread:                             ; preds = %cond.false375, %invoke.cont363
  %128 = phi ptr [ %123, %invoke.cont363 ], [ %127, %cond.false375 ]
  %129 = phi i32 [ 21, %invoke.cont363 ], [ %spec.select, %cond.false375 ]
  %call2.i.i.i1241 = invoke noundef i32 @_ZN4cvc58internal4kind10metaKindOfENS1_6Kind_tE(i32 noundef %129)
          to label %cond.end379 unwind label %lpad371

cond.end379:                                      ; preds = %cond.false375.thread
  %cmp.i.i1236 = icmp eq i32 %call2.i.i.i1241, 2
  %d_nchildren.i.i1237 = getelementptr inbounds %"class.cvc5::internal::expr::NodeValue", ptr %128, i64 0, i32 2
  %bf.load.i.i1238 = load i32, ptr %d_nchildren.i.i1237, align 4
  %bf.clear.i.i1239 = and i32 %bf.load.i.i1238, 67108863
  %sub.i.i = sext i1 %cmp.i.i1236 to i32
  %cond.i.i = add nsw i32 %bf.clear.i.i1239, %sub.i.i
  %conv.i = zext i32 %cond.i.i to i64
  br i1 %cmp365, label %cond.end379.cleanup.action381_crit_edge, label %cleanup.done382

cond.end379.cleanup.action381_crit_edge:          ; preds = %cond.end379
  %.pre6663 = load ptr, ptr %ref.tmp367, align 8
  br label %cleanup.action381

cleanup.action381:                                ; preds = %cond.end379.cleanup.action381_crit_edge, %invoke.cont368
  %130 = phi ptr [ %.pre6663, %cond.end379.cleanup.action381_crit_edge ], [ %125, %invoke.cont368 ]
  %cond6186 = phi i64 [ %conv.i, %cond.end379.cleanup.action381_crit_edge ], [ 1, %invoke.cont368 ]
  %bf.load.i.i1242 = load i64, ptr %130, align 8
  %131 = and i64 %bf.load.i.i1242, 1152920405095219200
  %cmp.not.i.i1243 = icmp eq i64 %131, 1152920405095219200
  br i1 %cmp.not.i.i1243, label %cleanup.done382, label %if.then.i.i1244

if.then.i.i1244:                                  ; preds = %cleanup.action381
  %bf.value.i.i1245 = add i64 %bf.load.i.i1242, 1152920405095219200
  %bf.shl.i.i1246 = and i64 %bf.value.i.i1245, 1152920405095219200
  %bf.clear7.i.i1247 = and i64 %bf.load.i.i1242, -1152920405095219201
  %bf.set.i.i1248 = or disjoint i64 %bf.shl.i.i1246, %bf.clear7.i.i1247
  store i64 %bf.set.i.i1248, ptr %130, align 8
  %cmp12.i.i1249 = icmp eq i64 %bf.shl.i.i1246, 0
  br i1 %cmp12.i.i1249, label %if.then13.i.i1251, label %cleanup.done382

if.then13.i.i1251:                                ; preds = %if.then.i.i1244
  invoke void @_ZN4cvc58internal4expr9NodeValue15markForDeletionEv(ptr noundef nonnull align 8 dereferenceable(16) %130)
          to label %cleanup.done382 unwind label %terminate.lpad.i1252

terminate.lpad.i1252:                             ; preds = %if.then13.i.i1251
  %132 = landingpad { ptr, i32 }
          catch ptr null
  %133 = extractvalue { ptr, i32 } %132, 0
  call void @__clang_call_terminate(ptr %133) #22
  unreachable

cleanup.done382:                                  ; preds = %if.then13.i.i1251, %if.then.i.i1244, %cleanup.action381, %cond.end379
  %cond6185 = phi i64 [ %conv.i, %cond.end379 ], [ %cond6186, %cleanup.action381 ], [ %cond6186, %if.then.i.i1244 ], [ %cond6186, %if.then13.i.i1251 ]
  %cmp387 = icmp eq i64 %cond6185, 1
  br i1 %cmp387, label %cond.true392, label %for.cond420.preheader

for.cond420.preheader:                            ; preds = %cleanup.done382
  %cmp4216534 = icmp ne i64 %cond6185, 0
  %sub4256535 = sub i64 %sub.ptr.div.i, %121
  %cmp4266536 = icmp ugt i64 %sub4256535, 1
  %or.cond61996537 = select i1 %cmp4216534, i1 %cmp4266536, i1 false
  br i1 %or.cond61996537, label %for.body428.lr.ph, label %cleanup603

for.body428.lr.ph:                                ; preds = %for.cond420.preheader
  %add = shl i64 %121, 1
  %sub495 = or disjoint i64 %add, 1
  %add.ptr.i1501 = getelementptr inbounds %"class.cvc5::internal::NodeTemplate", ptr %122, i64 %121
  %add.ptr.i1758 = getelementptr inbounds %"class.cvc5::internal::NodeTemplate", ptr %122, i64 %121
  br label %for.body428

cond.true392:                                     ; preds = %invoke.cont359, %cleanup.done382
  %134 = load ptr, ptr %lastInclusion, align 8
  %add.ptr.i1427 = getelementptr inbounds %"struct.std::pair.106", ptr %134, i64 %storemerge6545
  call void @llvm.lifetime.start.p0(i64 8, ptr nonnull %ref.tmp9.i1428)
  call void @llvm.lifetime.start.p0(i64 1, ptr nonnull %ref.tmp10.i1429)
  %135 = load ptr, ptr %_M_parent.i.i.i.i.i, align 8
  %cmp.not5.i.i.i.i1432 = icmp eq ptr %135, null
  br i1 %cmp.not5.i.i.i.i1432, label %if.then.i1459, label %while.body.lr.ph.i.i.i.i1433

while.body.lr.ph.i.i.i.i1433:                     ; preds = %cond.true392
  %136 = load ptr, ptr %add.ptr.i1427, align 8
  %bf.load3.i.i.i.i.i.i1434 = load i64, ptr %136, align 8
  %bf.clear4.i.i.i.i.i.i1435 = and i64 %bf.load3.i.i.i.i.i.i1434, 1099511627775
  br label %while.body.i.i.i.i1436

while.body.i.i.i.i1436:                           ; preds = %while.body.i.i.i.i1436, %while.body.lr.ph.i.i.i.i1433
  %__x.addr.07.i.i.i.i1437 = phi ptr [ %135, %while.body.lr.ph.i.i.i.i1433 ], [ %__x.addr.1.i.i.i.i1447, %while.body.i.i.i.i1436 ]
  %__y.addr.06.i.i.i.i1438 = phi ptr [ %10, %while.body.lr.ph.i.i.i.i1433 ], [ %__y.addr.1.i.i.i.i1445, %while.body.i.i.i.i1436 ]
  %_M_storage.i.i.i.i.i.i1439 = getelementptr inbounds %"struct.std::_Rb_tree_node", ptr %__x.addr.07.i.i.i.i1437, i64 0, i32 1
  %137 = load ptr, ptr %_M_storage.i.i.i.i.i.i1439, align 8
  %bf.load.i.i.i.i.i.i1440 = load i64, ptr %137, align 8
  %bf.clear.i.i.i.i.i.i1441 = and i64 %bf.load.i.i.i.i.i.i1440, 1099511627775
  %cmp.i.i.i.i.i.i1442 = icmp ult i64 %bf.clear.i.i.i.i.i.i1441, %bf.clear4.i.i.i.i.i.i1435
  %_M_right.i.i.i.i.i1443 = getelementptr inbounds %"struct.std::_Rb_tree_node_base", ptr %__x.addr.07.i.i.i.i1437, i64 0, i32 3
  %_M_left.i.i.i.i.i1444 = getelementptr inbounds %"struct.std::_Rb_tree_node_base", ptr %__x.addr.07.i.i.i.i1437, i64 0, i32 2
  %__y.addr.1.i.i.i.i1445 = select i1 %cmp.i.i.i.i.i.i1442, ptr %__y.addr.06.i.i.i.i1438, ptr %__x.addr.07.i.i.i.i1437
  %__x.addr.1.in.i.i.i.i1446 = select i1 %cmp.i.i.i.i.i.i1442, ptr %_M_right.i.i.i.i.i1443, ptr %_M_left.i.i.i.i.i1444
  %__x.addr.1.i.i.i.i1447 = load ptr, ptr %__x.addr.1.in.i.i.i.i1446, align 8
  %cmp.not.i.i.i.i1448 = icmp eq ptr %__x.addr.1.i.i.i.i1447, null
  br i1 %cmp.not.i.i.i.i1448, label %_ZNSt3mapIN4cvc58internal12NodeTemplateILb1EEENS1_5proof15CrowdingLitInfoESt4lessIS3_ESaISt4pairIKS3_S5_EEE11lower_boundERS9_.exit.i1449, label %while.body.i.i.i.i1436, !llvm.loop !28

_ZNSt3mapIN4cvc58internal12NodeTemplateILb1EEENS1_5proof15CrowdingLitInfoESt4lessIS3_ESaISt4pairIKS3_S5_EEE11lower_boundERS9_.exit.i1449: ; preds = %while.body.i.i.i.i1436
  %cmp.i.i1450 = icmp eq ptr %__y.addr.1.i.i.i.i1445, %10
  br i1 %cmp.i.i1450, label %if.then.i1459, label %lor.rhs.i1451

lor.rhs.i1451:                                    ; preds = %_ZNSt3mapIN4cvc58internal12NodeTemplateILb1EEENS1_5proof15CrowdingLitInfoESt4lessIS3_ESaISt4pairIKS3_S5_EEE11lower_boundERS9_.exit.i1449
  %_M_storage.i.i.i.i.i.i1439.le = getelementptr inbounds %"struct.std::_Rb_tree_node", ptr %__x.addr.07.i.i.i.i1437, i64 0, i32 1
  %__y.addr.06.i.i.i.i1438.sroa.gep = getelementptr inbounds %"struct.std::_Rb_tree_node", ptr %__y.addr.06.i.i.i.i1438, i64 0, i32 1
  %__y.addr.1.i.i.i.i1445.sroa.sel = select i1 %cmp.i.i.i.i.i.i1442, ptr %__y.addr.06.i.i.i.i1438.sroa.gep, ptr %_M_storage.i.i.i.i.i.i1439.le
  %138 = load ptr, ptr %__y.addr.1.i.i.i.i1445.sroa.sel, align 8
  %bf.load3.i.i.i1453 = load i64, ptr %138, align 8
  %bf.clear4.i.i.i1454 = and i64 %bf.load3.i.i.i1453, 1099511627775
  %cmp.i.i.i1455 = icmp ult i64 %bf.clear4.i.i.i.i.i.i1435, %bf.clear4.i.i.i1454
  br i1 %cmp.i.i.i1455, label %if.then.i1459, label %invoke.cont412

if.then.i1459:                                    ; preds = %lor.rhs.i1451, %_ZNSt3mapIN4cvc58internal12NodeTemplateILb1EEENS1_5proof15CrowdingLitInfoESt4lessIS3_ESaISt4pairIKS3_S5_EEE11lower_boundERS9_.exit.i1449, %cond.true392
  %__y.addr.0.lcssa.i.i.i9.i1460 = phi ptr [ %10, %_ZNSt3mapIN4cvc58internal12NodeTemplateILb1EEENS1_5proof15CrowdingLitInfoESt4lessIS3_ESaISt4pairIKS3_S5_EEE11lower_boundERS9_.exit.i1449 ], [ %__y.addr.1.i.i.i.i1445, %lor.rhs.i1451 ], [ %10, %cond.true392 ]
  store ptr %add.ptr.i1427, ptr %ref.tmp9.i1428, align 8
  %call12.i1462 = invoke ptr @_ZNSt8_Rb_treeIN4cvc58internal12NodeTemplateILb1EEESt4pairIKS3_NS1_5proof15CrowdingLitInfoEESt10_Select1stIS8_ESt4lessIS3_ESaIS8_EE22_M_emplace_hint_uniqueIJRKSt21piecewise_construct_tSt5tupleIJRS5_EESJ_IJEEEEESt17_Rb_tree_iteratorIS8_ESt23_Rb_tree_const_iteratorIS8_EDpOT_(ptr noundef nonnull align 8 dereferenceable(48) %crowdLitsInfo, ptr %__y.addr.0.lcssa.i.i.i9.i1460, ptr noundef nonnull align 1 dereferenceable(1) @_ZSt19piecewise_construct, ptr noundef nonnull align 8 dereferenceable(8) %ref.tmp9.i1428, ptr noundef nonnull align 1 dereferenceable(1) %ref.tmp10.i1429)
          to label %if.then.i1459.invoke.cont412_crit_edge unwind label %lpad354.loopexit.split-lp.loopexit.split-lp

if.then.i1459.invoke.cont412_crit_edge:           ; preds = %if.then.i1459
  %.pre6669 = load ptr, ptr %lastInclusion, align 8
  %.pre6670 = load ptr, ptr %_M_parent.i.i.i.i.i, align 8
  br label %invoke.cont412

invoke.cont412:                                   ; preds = %if.then.i1459.invoke.cont412_crit_edge, %lor.rhs.i1451
  %139 = phi ptr [ %135, %lor.rhs.i1451 ], [ %.pre6670, %if.then.i1459.invoke.cont412_crit_edge ]
  %140 = phi ptr [ %134, %lor.rhs.i1451 ], [ %.pre6669, %if.then.i1459.invoke.cont412_crit_edge ]
  %__i.sroa.0.0.i1457 = phi ptr [ %__y.addr.1.i.i.i.i1445, %lor.rhs.i1451 ], [ %call12.i1462, %if.then.i1459.invoke.cont412_crit_edge ]
  call void @llvm.lifetime.end.p0(i64 8, ptr nonnull %ref.tmp9.i1428)
  call void @llvm.lifetime.end.p0(i64 1, ptr nonnull %ref.tmp10.i1429)
  %d_onlyCrowdAndConcLitsInElim = getelementptr inbounds %"struct.std::_Rb_tree_node", ptr %__i.sroa.0.0.i1457, i64 0, i32 1, i32 0, i64 24
  store i8 1, ptr %d_onlyCrowdAndConcLitsInElim, align 8
  %add.ptr.i1464 = getelementptr inbounds %"struct.std::pair.106", ptr %140, i64 %storemerge6545
  call void @llvm.lifetime.start.p0(i64 8, ptr nonnull %ref.tmp9.i1465)
  call void @llvm.lifetime.start.p0(i64 1, ptr nonnull %ref.tmp10.i1466)
  %cmp.not5.i.i.i.i1469 = icmp eq ptr %139, null
  br i1 %cmp.not5.i.i.i.i1469, label %if.then.i1496, label %while.body.lr.ph.i.i.i.i1470

while.body.lr.ph.i.i.i.i1470:                     ; preds = %invoke.cont412
  %141 = load ptr, ptr %add.ptr.i1464, align 8
  %bf.load3.i.i.i.i.i.i1471 = load i64, ptr %141, align 8
  %bf.clear4.i.i.i.i.i.i1472 = and i64 %bf.load3.i.i.i.i.i.i1471, 1099511627775
  br label %while.body.i.i.i.i1473

while.body.i.i.i.i1473:                           ; preds = %while.body.i.i.i.i1473, %while.body.lr.ph.i.i.i.i1470
  %__x.addr.07.i.i.i.i1474 = phi ptr [ %139, %while.body.lr.ph.i.i.i.i1470 ], [ %__x.addr.1.i.i.i.i1484, %while.body.i.i.i.i1473 ]
  %__y.addr.06.i.i.i.i1475 = phi ptr [ %10, %while.body.lr.ph.i.i.i.i1470 ], [ %__y.addr.1.i.i.i.i1482, %while.body.i.i.i.i1473 ]
  %_M_storage.i.i.i.i.i.i1476 = getelementptr inbounds %"struct.std::_Rb_tree_node", ptr %__x.addr.07.i.i.i.i1474, i64 0, i32 1
  %142 = load ptr, ptr %_M_storage.i.i.i.i.i.i1476, align 8
  %bf.load.i.i.i.i.i.i1477 = load i64, ptr %142, align 8
  %bf.clear.i.i.i.i.i.i1478 = and i64 %bf.load.i.i.i.i.i.i1477, 1099511627775
  %cmp.i.i.i.i.i.i1479 = icmp ult i64 %bf.clear.i.i.i.i.i.i1478, %bf.clear4.i.i.i.i.i.i1472
  %_M_right.i.i.i.i.i1480 = getelementptr inbounds %"struct.std::_Rb_tree_node_base", ptr %__x.addr.07.i.i.i.i1474, i64 0, i32 3
  %_M_left.i.i.i.i.i1481 = getelementptr inbounds %"struct.std::_Rb_tree_node_base", ptr %__x.addr.07.i.i.i.i1474, i64 0, i32 2
  %__y.addr.1.i.i.i.i1482 = select i1 %cmp.i.i.i.i.i.i1479, ptr %__y.addr.06.i.i.i.i1475, ptr %__x.addr.07.i.i.i.i1474
  %__x.addr.1.in.i.i.i.i1483 = select i1 %cmp.i.i.i.i.i.i1479, ptr %_M_right.i.i.i.i.i1480, ptr %_M_left.i.i.i.i.i1481
  %__x.addr.1.i.i.i.i1484 = load ptr, ptr %__x.addr.1.in.i.i.i.i1483, align 8
  %cmp.not.i.i.i.i1485 = icmp eq ptr %__x.addr.1.i.i.i.i1484, null
  br i1 %cmp.not.i.i.i.i1485, label %_ZNSt3mapIN4cvc58internal12NodeTemplateILb1EEENS1_5proof15CrowdingLitInfoESt4lessIS3_ESaISt4pairIKS3_S5_EEE11lower_boundERS9_.exit.i1486, label %while.body.i.i.i.i1473, !llvm.loop !28

_ZNSt3mapIN4cvc58internal12NodeTemplateILb1EEENS1_5proof15CrowdingLitInfoESt4lessIS3_ESaISt4pairIKS3_S5_EEE11lower_boundERS9_.exit.i1486: ; preds = %while.body.i.i.i.i1473
  %cmp.i.i1487 = icmp eq ptr %__y.addr.1.i.i.i.i1482, %10
  br i1 %cmp.i.i1487, label %if.then.i1496, label %lor.rhs.i1488

lor.rhs.i1488:                                    ; preds = %_ZNSt3mapIN4cvc58internal12NodeTemplateILb1EEENS1_5proof15CrowdingLitInfoESt4lessIS3_ESaISt4pairIKS3_S5_EEE11lower_boundERS9_.exit.i1486
  %_M_storage.i.i.i.i.i.i1476.le = getelementptr inbounds %"struct.std::_Rb_tree_node", ptr %__x.addr.07.i.i.i.i1474, i64 0, i32 1
  %__y.addr.06.i.i.i.i1475.sroa.gep = getelementptr inbounds %"struct.std::_Rb_tree_node", ptr %__y.addr.06.i.i.i.i1475, i64 0, i32 1
  %__y.addr.1.i.i.i.i1482.sroa.sel = select i1 %cmp.i.i.i.i.i.i1479, ptr %__y.addr.06.i.i.i.i1475.sroa.gep, ptr %_M_storage.i.i.i.i.i.i1476.le
  %143 = load ptr, ptr %__y.addr.1.i.i.i.i1482.sroa.sel, align 8
  %bf.load3.i.i.i1490 = load i64, ptr %143, align 8
  %bf.clear4.i.i.i1491 = and i64 %bf.load3.i.i.i1490, 1099511627775
  %cmp.i.i.i1492 = icmp ult i64 %bf.clear4.i.i.i.i.i.i1472, %bf.clear4.i.i.i1491
  br i1 %cmp.i.i.i1492, label %if.then.i1496, label %invoke.cont416

if.then.i1496:                                    ; preds = %lor.rhs.i1488, %_ZNSt3mapIN4cvc58internal12NodeTemplateILb1EEENS1_5proof15CrowdingLitInfoESt4lessIS3_ESaISt4pairIKS3_S5_EEE11lower_boundERS9_.exit.i1486, %invoke.cont412
  %__y.addr.0.lcssa.i.i.i9.i1497 = phi ptr [ %10, %_ZNSt3mapIN4cvc58internal12NodeTemplateILb1EEENS1_5proof15CrowdingLitInfoESt4lessIS3_ESaISt4pairIKS3_S5_EEE11lower_boundERS9_.exit.i1486 ], [ %__y.addr.1.i.i.i.i1482, %lor.rhs.i1488 ], [ %10, %invoke.cont412 ]
  store ptr %add.ptr.i1464, ptr %ref.tmp9.i1465, align 8
  %call12.i1499 = invoke ptr @_ZNSt8_Rb_treeIN4cvc58internal12NodeTemplateILb1EEESt4pairIKS3_NS1_5proof15CrowdingLitInfoEESt10_Select1stIS8_ESt4lessIS3_ESaIS8_EE22_M_emplace_hint_uniqueIJRKSt21piecewise_construct_tSt5tupleIJRS5_EESJ_IJEEEEESt17_Rb_tree_iteratorIS8_ESt23_Rb_tree_const_iteratorIS8_EDpOT_(ptr noundef nonnull align 8 dereferenceable(48) %crowdLitsInfo, ptr %__y.addr.0.lcssa.i.i.i9.i1497, ptr noundef nonnull align 1 dereferenceable(1) @_ZSt19piecewise_construct, ptr noundef nonnull align 8 dereferenceable(8) %ref.tmp9.i1465, ptr noundef nonnull align 1 dereferenceable(1) %ref.tmp10.i1466)
          to label %invoke.cont416 unwind label %lpad354.loopexit.split-lp.loopexit.split-lp

invoke.cont416:                                   ; preds = %lor.rhs.i1488, %if.then.i1496
  %__i.sroa.0.0.i1494 = phi ptr [ %__y.addr.1.i.i.i.i1482, %lor.rhs.i1488 ], [ %call12.i1499, %if.then.i1496 ]
  call void @llvm.lifetime.end.p0(i64 8, ptr nonnull %ref.tmp9.i1465)
  call void @llvm.lifetime.end.p0(i64 1, ptr nonnull %ref.tmp10.i1466)
  br label %cleanup603.sink.split

lpad354.loopexit:                                 ; preds = %for.body500, %if.then13.i.i.i1776
  %lpad.loopexit6214 = landingpad { ptr, i32 }
          cleanup
  br label %ehcleanup606

lpad354.loopexit.split-lp.loopexit:               ; preds = %if.then13.i.i.i1698, %if.then478, %if.then13.i.i.i1599, %land.rhs443, %if.then13.i.i.i1519, %for.body428
  %lpad.loopexit6219 = landingpad { ptr, i32 }
          cleanup
  br label %ehcleanup606

lpad354.loopexit.split-lp.loopexit.split-lp:      ; preds = %if.then.i2179, %if.then.i2142, %if.then.i1496, %if.then.i1459, %if.then13.i.i.i, %land.lhs.true366, %if.then.i1199
  %lpad.loopexit.split-lp6220 = landingpad { ptr, i32 }
          cleanup
  br label %ehcleanup606

lpad371:                                          ; preds = %cond.false375.thread
  %144 = landingpad { ptr, i32 }
          cleanup
  br i1 %cmp365, label %cleanup.action385, label %ehcleanup606

cleanup.action385:                                ; preds = %lpad371
  call void @_ZN4cvc58internal12NodeTemplateILb1EED2Ev(ptr noundef nonnull align 8 dereferenceable(8) %ref.tmp367) #21
  br label %ehcleanup606

for.body428:                                      ; preds = %for.body428.lr.ph, %for.inc557
  %regularLits.06541 = phi i32 [ 0, %for.body428.lr.ph ], [ %regularLits.1, %for.inc557 ]
  %j419.06539 = phi i64 [ 0, %for.body428.lr.ph ], [ %inc558, %for.inc557 ]
  %maxSafeMove.06538 = phi i64 [ %sub.ptr.div.i, %for.body428.lr.ph ], [ %maxSafeMove.2, %for.inc557 ]
  call void @llvm.experimental.noalias.scope.decl(metadata !35)
  %145 = load ptr, ptr %add.ptr.i1501, align 8, !noalias !35
  %d_kind.i.i.i.i1502 = getelementptr inbounds %"class.cvc5::internal::expr::NodeValue", ptr %145, i64 0, i32 1
  %bf.load.i.i.i.i1503 = load i16, ptr %d_kind.i.i.i.i1502, align 8, !noalias !35
  %bf.clear.i.i.i.i1504 = and i16 %bf.load.i.i.i.i1503, 1023
  %bf.cast.i.i.i.i1505 = zext nneg i16 %bf.clear.i.i.i.i1504 to i32
  %cmp.i.i.i.i.i1506 = icmp eq i16 %bf.clear.i.i.i.i1504, 1023
  %cond.i.i.i.i.i1507 = select i1 %cmp.i.i.i.i.i1506, i32 -1, i32 %bf.cast.i.i.i.i1505
  %call2.i.i.i1527 = invoke noundef i32 @_ZN4cvc58internal4kind10metaKindOfENS1_6Kind_tE(i32 noundef %cond.i.i.i.i.i1507)
          to label %call2.i.i.i.noexc1526 unwind label %lpad354.loopexit.split-lp.loopexit

call2.i.i.i.noexc1526:                            ; preds = %for.body428
  %cmp.i.i1508 = icmp eq i32 %call2.i.i.i1527, 2
  %inc.i.i1509 = zext i1 %cmp.i.i1508 to i64
  %spec.select.i.i1510 = add nuw i64 %j419.06539, %inc.i.i1509
  %sext = shl i64 %spec.select.i.i1510, 32
  %idxprom.i.i1511 = ashr exact i64 %sext, 32
  %arrayidx.i.i1512 = getelementptr inbounds %"class.cvc5::internal::expr::NodeValue", ptr %145, i64 0, i32 3, i64 %idxprom.i.i1511
  %146 = load ptr, ptr %arrayidx.i.i1512, align 8, !noalias !35
  store ptr %146, ptr %ref.tmp430, align 8, !alias.scope !35
  %bf.load.i.i.i1513 = load i64, ptr %146, align 8, !noalias !35
  %bf.lshr.i.i.i1514 = lshr i64 %bf.load.i.i.i1513, 40
  %147 = trunc i64 %bf.lshr.i.i.i1514 to i32
  %bf.cast.i.i.i1515 = and i32 %147, 1048575
  %cmp.i.i.i1516 = icmp ult i32 %bf.cast.i.i.i1515, 1048574
  br i1 %cmp.i.i.i1516, label %if.then.i.i.i1521, label %if.else.i.i.i1517

if.then.i.i.i1521:                                ; preds = %call2.i.i.i.noexc1526
  %bf.value.i.i.i1522 = add i64 %bf.load.i.i.i1513, 1099511627776
  %bf.shl.i.i.i1523 = and i64 %bf.value.i.i.i1522, 1152920405095219200
  %bf.clear7.i.i.i1524 = and i64 %bf.load.i.i.i1513, -1152920405095219201
  %bf.set.i.i.i1525 = or disjoint i64 %bf.shl.i.i.i1523, %bf.clear7.i.i.i1524
  store i64 %bf.set.i.i.i1525, ptr %146, align 8, !noalias !35
  br label %invoke.cont432

if.else.i.i.i1517:                                ; preds = %call2.i.i.i.noexc1526
  %cmp12.i.i.i1518 = icmp eq i32 %bf.cast.i.i.i1515, 1048574
  br i1 %cmp12.i.i.i1518, label %if.then13.i.i.i1519, label %invoke.cont432

if.then13.i.i.i1519:                              ; preds = %if.else.i.i.i1517
  %bf.set23.i.i.i1520 = or i64 %bf.load.i.i.i1513, 1152920405095219200
  store i64 %bf.set23.i.i.i1520, ptr %146, align 8, !noalias !35
  invoke void @_ZN4cvc58internal4expr9NodeValue20markRefCountMaxedOutEv(ptr noundef nonnull align 8 dereferenceable(16) %146)
          to label %invoke.cont432 unwind label %lpad354.loopexit.split-lp.loopexit

invoke.cont432:                                   ; preds = %if.else.i.i.i1517, %if.then.i.i.i1521, %if.then13.i.i.i1519
  store ptr %146, ptr %ref.tmp429, align 8
  %148 = load i64, ptr %_M_element_count.i.i.i.i1530, align 8
  %cmp.not.not.i.i.i1531 = icmp eq i64 %148, 0
  br i1 %cmp.not.not.i.i.i1531, label %for.cond.i.i.i1558, label %if.end15.i.i.i1532

for.cond.i.i.i1558:                               ; preds = %invoke.cont432, %for.body.i.i.i1562
  %retval.sroa.0.0.in.i.i.i1559 = phi ptr [ %retval.sroa.0.0.i.i.i1560, %for.body.i.i.i1562 ], [ %_M_before_begin.i.i, %invoke.cont432 ]
  %retval.sroa.0.0.i.i.i1560 = load ptr, ptr %retval.sroa.0.0.in.i.i.i1559, align 8
  %cmp.i.not.i.i.i1561 = icmp eq ptr %retval.sroa.0.0.i.i.i1560, null
  br i1 %cmp.i.not.i.i.i1561, label %invoke.cont436, label %for.body.i.i.i1562

for.body.i.i.i1562:                               ; preds = %for.cond.i.i.i1558
  %add.ptr.i.i.i1563 = getelementptr inbounds i8, ptr %retval.sroa.0.0.i.i.i1560, i64 8
  %149 = load ptr, ptr %add.ptr.i.i.i1563, align 8
  %cmp.i.i.i.i.i.i1564 = icmp eq ptr %146, %149
  br i1 %cmp.i.i.i.i.i.i1564, label %invoke.cont436, label %for.cond.i.i.i1558, !llvm.loop !4

if.end15.i.i.i1532:                               ; preds = %invoke.cont432
  %call2.i.i.i.i1566 = invoke noundef i64 @_ZNKSt4hashIN4cvc58internal12NodeTemplateILb0EEEEclERKS3_(ptr noundef nonnull align 1 dereferenceable(1) %crowding, ptr noundef nonnull align 8 dereferenceable(8) %ref.tmp429)
          to label %call2.i.i.i.i.noexc1565 unwind label %lpad435

call2.i.i.i.i.noexc1565:                          ; preds = %if.end15.i.i.i1532
  %150 = load i64, ptr %_M_bucket_count.i.i, align 8
  %rem.i.i.i.i.i.i1534 = urem i64 %call2.i.i.i.i1566, %150
  %151 = load ptr, ptr %crowding, align 8
  %arrayidx.i.i.i.i.i1535 = getelementptr inbounds ptr, ptr %151, i64 %rem.i.i.i.i.i.i1534
  %152 = load ptr, ptr %arrayidx.i.i.i.i.i1535, align 8
  %tobool.not.i.i.i.i.i1536 = icmp eq ptr %152, null
  br i1 %tobool.not.i.i.i.i.i1536, label %invoke.cont436, label %if.end.i.i.i.i.i1537

if.end.i.i.i.i.i1537:                             ; preds = %call2.i.i.i.i.noexc1565
  %153 = load ptr, ptr %152, align 8
  %154 = load ptr, ptr %ref.tmp429, align 8
  %add.ptr8.i.i.i.i.i1538 = getelementptr inbounds i8, ptr %153, i64 8
  %add.ptr.i9.i.i.i.i.i1539 = getelementptr inbounds i8, ptr %153, i64 16
  %155 = load i64, ptr %add.ptr.i9.i.i.i.i.i1539, align 8
  %cmp.i.i10.i.i.i.i.i1540 = icmp eq i64 %155, %call2.i.i.i.i1566
  %156 = load ptr, ptr %add.ptr8.i.i.i.i.i1538, align 8
  %cmp.i.i.i.i11.i.i.i.i.i1541 = icmp eq ptr %154, %156
  %157 = select i1 %cmp.i.i10.i.i.i.i.i1540, i1 %cmp.i.i.i.i11.i.i.i.i.i1541, i1 false
  br i1 %157, label %invoke.cont436, label %if.end3.i.i.i.i.i1542

for.cond.i.i.i.i.i1552:                           ; preds = %lor.lhs.false.i.i.i.i.i1545
  %add.ptr.i.i.i.i.i1553 = getelementptr inbounds i8, ptr %160, i64 8
  %cmp.i.i.i.i.i.i.i1554 = icmp eq i64 %161, %call2.i.i.i.i1566
  %158 = load ptr, ptr %add.ptr.i.i.i.i.i1553, align 8
  %cmp.i.i.i.i.i.i.i.i.i1555 = icmp eq ptr %154, %158
  %159 = select i1 %cmp.i.i.i.i.i.i.i1554, i1 %cmp.i.i.i.i.i.i.i.i.i1555, i1 false
  br i1 %159, label %invoke.cont436, label %if.end3.i.i.i.i.i1542, !llvm.loop !6

if.end3.i.i.i.i.i1542:                            ; preds = %if.end.i.i.i.i.i1537, %for.cond.i.i.i.i.i1552
  %__p.012.i.i.i.i.i1543 = phi ptr [ %160, %for.cond.i.i.i.i.i1552 ], [ %153, %if.end.i.i.i.i.i1537 ]
  %160 = load ptr, ptr %__p.012.i.i.i.i.i1543, align 8
  %tobool5.not.i.i.i.i.i1544 = icmp eq ptr %160, null
  br i1 %tobool5.not.i.i.i.i.i1544, label %invoke.cont436, label %lor.lhs.false.i.i.i.i.i1545

lor.lhs.false.i.i.i.i.i1545:                      ; preds = %if.end3.i.i.i.i.i1542
  %add.ptr.i.i.i.i.i.i.i1546 = getelementptr inbounds i8, ptr %160, i64 16
  %161 = load i64, ptr %add.ptr.i.i.i.i.i.i.i1546, align 8
  %rem.i.i.i.i.i.i.i.i1547 = urem i64 %161, %150
  %cmp.not.i.i.i.i.i1548 = icmp eq i64 %rem.i.i.i.i.i.i.i.i1547, %rem.i.i.i.i.i.i1534
  br i1 %cmp.not.i.i.i.i.i1548, label %for.cond.i.i.i.i.i1552, label %invoke.cont436, !llvm.loop !6

invoke.cont436:                                   ; preds = %lor.lhs.false.i.i.i.i.i1545, %if.end3.i.i.i.i.i1542, %for.cond.i.i.i.i.i1552, %for.body.i.i.i1562, %for.cond.i.i.i1558, %if.end.i.i.i.i.i1537, %call2.i.i.i.i.noexc1565
  %retval.sroa.0.1.i.i.i1549 = phi ptr [ null, %call2.i.i.i.i.noexc1565 ], [ %153, %if.end.i.i.i.i.i1537 ], [ %retval.sroa.0.0.i.i.i1560, %for.body.i.i.i1562 ], [ null, %for.cond.i.i.i1558 ], [ null, %lor.lhs.false.i.i.i.i.i1545 ], [ null, %if.end3.i.i.i.i.i1542 ], [ %160, %for.cond.i.i.i.i.i1552 ]
  %tobool.not.i.i1550.not = icmp eq ptr %retval.sroa.0.1.i.i.i1549, null
  %bf.load.i.i1568 = load i64, ptr %146, align 8
  %162 = and i64 %bf.load.i.i1568, 1152920405095219200
  %cmp.not.i.i1569 = icmp eq i64 %162, 1152920405095219200
  br i1 %cmp.not.i.i1569, label %_ZN4cvc58internal12NodeTemplateILb1EED2Ev.exit1579, label %if.then.i.i1570

if.then.i.i1570:                                  ; preds = %invoke.cont436
  %bf.value.i.i1571 = add i64 %bf.load.i.i1568, 1152920405095219200
  %bf.shl.i.i1572 = and i64 %bf.value.i.i1571, 1152920405095219200
  %bf.clear7.i.i1573 = and i64 %bf.load.i.i1568, -1152920405095219201
  %bf.set.i.i1574 = or disjoint i64 %bf.shl.i.i1572, %bf.clear7.i.i1573
  store i64 %bf.set.i.i1574, ptr %146, align 8
  %cmp12.i.i1575 = icmp eq i64 %bf.shl.i.i1572, 0
  br i1 %cmp12.i.i1575, label %if.then13.i.i1577, label %_ZN4cvc58internal12NodeTemplateILb1EED2Ev.exit1579

if.then13.i.i1577:                                ; preds = %if.then.i.i1570
  invoke void @_ZN4cvc58internal4expr9NodeValue15markForDeletionEv(ptr noundef nonnull align 8 dereferenceable(16) %146)
          to label %_ZN4cvc58internal12NodeTemplateILb1EED2Ev.exit1579 unwind label %terminate.lpad.i1578

terminate.lpad.i1578:                             ; preds = %if.then13.i.i1577
  %163 = landingpad { ptr, i32 }
          catch ptr null
  %164 = extractvalue { ptr, i32 } %163, 0
  call void @__clang_call_terminate(ptr %164) #22
  unreachable

_ZN4cvc58internal12NodeTemplateILb1EED2Ev.exit1579: ; preds = %invoke.cont436, %if.then.i.i1570, %if.then13.i.i1577
  br i1 %tobool.not.i.i1550.not, label %land.rhs443, label %if.then478

land.rhs443:                                      ; preds = %_ZN4cvc58internal12NodeTemplateILb1EED2Ev.exit1579
  %165 = load ptr, ptr %targetClauseLits, align 8
  %166 = load ptr, ptr %_M_finish.i1580, align 8
  %167 = load ptr, ptr %add.ptr.i1501, align 8, !noalias !38
  %d_kind.i.i.i.i1582 = getelementptr inbounds %"class.cvc5::internal::expr::NodeValue", ptr %167, i64 0, i32 1
  %bf.load.i.i.i.i1583 = load i16, ptr %d_kind.i.i.i.i1582, align 8, !noalias !38
  %bf.clear.i.i.i.i1584 = and i16 %bf.load.i.i.i.i1583, 1023
  %bf.cast.i.i.i.i1585 = zext nneg i16 %bf.clear.i.i.i.i1584 to i32
  %cmp.i.i.i.i.i1586 = icmp eq i16 %bf.clear.i.i.i.i1584, 1023
  %cond.i.i.i.i.i1587 = select i1 %cmp.i.i.i.i.i1586, i32 -1, i32 %bf.cast.i.i.i.i1585
  %call2.i.i.i1607 = invoke noundef i32 @_ZN4cvc58internal4kind10metaKindOfENS1_6Kind_tE(i32 noundef %cond.i.i.i.i.i1587)
          to label %call2.i.i.i.noexc1606 unwind label %lpad354.loopexit.split-lp.loopexit

call2.i.i.i.noexc1606:                            ; preds = %land.rhs443
  %cmp.i.i1588 = icmp eq i32 %call2.i.i.i1607, 2
  %inc.i.i1589 = zext i1 %cmp.i.i1588 to i64
  %spec.select.i.i1590 = add nuw i64 %j419.06539, %inc.i.i1589
  %sext6201 = shl i64 %spec.select.i.i1590, 32
  %idxprom.i.i1591 = ashr exact i64 %sext6201, 32
  %arrayidx.i.i1592 = getelementptr inbounds %"class.cvc5::internal::expr::NodeValue", ptr %167, i64 0, i32 3, i64 %idxprom.i.i1591
  %168 = load ptr, ptr %arrayidx.i.i1592, align 8, !noalias !38
  %bf.load.i.i.i1593 = load i64, ptr %168, align 8, !noalias !38
  %bf.lshr.i.i.i1594 = lshr i64 %bf.load.i.i.i1593, 40
  %169 = trunc i64 %bf.lshr.i.i.i1594 to i32
  %bf.cast.i.i.i1595 = and i32 %169, 1048575
  %cmp.i.i.i1596 = icmp ult i32 %bf.cast.i.i.i1595, 1048574
  br i1 %cmp.i.i.i1596, label %if.then.i.i.i1601, label %if.else.i.i.i1597

if.then.i.i.i1601:                                ; preds = %call2.i.i.i.noexc1606
  %bf.value.i.i.i1602 = add i64 %bf.load.i.i.i1593, 1099511627776
  %bf.shl.i.i.i1603 = and i64 %bf.value.i.i.i1602, 1152920405095219200
  %bf.clear7.i.i.i1604 = and i64 %bf.load.i.i.i1593, -1152920405095219201
  %bf.set.i.i.i1605 = or disjoint i64 %bf.shl.i.i.i1603, %bf.clear7.i.i.i1604
  store i64 %bf.set.i.i.i1605, ptr %168, align 8, !noalias !38
  br label %invoke.cont454

if.else.i.i.i1597:                                ; preds = %call2.i.i.i.noexc1606
  %cmp12.i.i.i1598 = icmp eq i32 %bf.cast.i.i.i1595, 1048574
  br i1 %cmp12.i.i.i1598, label %if.then13.i.i.i1599, label %invoke.cont454

if.then13.i.i.i1599:                              ; preds = %if.else.i.i.i1597
  %bf.set23.i.i.i1600 = or i64 %bf.load.i.i.i1593, 1152920405095219200
  store i64 %bf.set23.i.i.i1600, ptr %168, align 8, !noalias !38
  invoke void @_ZN4cvc58internal4expr9NodeValue20markRefCountMaxedOutEv(ptr noundef nonnull align 8 dereferenceable(16) %168)
          to label %invoke.cont454 unwind label %lpad354.loopexit.split-lp.loopexit

invoke.cont454:                                   ; preds = %if.else.i.i.i1597, %if.then.i.i.i1601, %if.then13.i.i.i1599
  %sub.ptr.lhs.cast.i.i.i.i1610 = ptrtoint ptr %166 to i64
  %sub.ptr.rhs.cast.i.i.i.i1611 = ptrtoint ptr %165 to i64
  %sub.ptr.sub.i.i.i.i1612 = sub i64 %sub.ptr.lhs.cast.i.i.i.i1610, %sub.ptr.rhs.cast.i.i.i.i1611
  %shr.i.i.i1613 = ashr i64 %sub.ptr.sub.i.i.i.i1612, 5
  %cmp50.i.i.i1614 = icmp sgt i64 %shr.i.i.i1613, 0
  br i1 %cmp50.i.i.i1614, label %for.body.lr.ph.i.i.i1637, label %for.end.i.i.i1615

for.body.lr.ph.i.i.i1637:                         ; preds = %invoke.cont454
  %170 = and i64 %sub.ptr.sub.i.i.i.i1612, -32
  %scevgep.i.i.i1638 = getelementptr i8, ptr %165, i64 %170
  br label %for.body.i.i.i1639

for.body.i.i.i1639:                               ; preds = %if.end22.i.i.i1652, %for.body.lr.ph.i.i.i1637
  %__trip_count.052.i.i.i1640 = phi i64 [ %shr.i.i.i1613, %for.body.lr.ph.i.i.i1637 ], [ %dec.i.i.i1654, %if.end22.i.i.i1652 ]
  %__first.sroa.0.051.i.i.i1641 = phi ptr [ %165, %for.body.lr.ph.i.i.i1637 ], [ %incdec.ptr.i14.i.i.i1653, %if.end22.i.i.i1652 ]
  %171 = load ptr, ptr %__first.sroa.0.051.i.i.i1641, align 8
  %cmp.i.i.i.i.i1642 = icmp eq ptr %171, %168
  br i1 %cmp.i.i.i.i.i1642, label %land.end466, label %if.end.i.i.i1643

if.end.i.i.i1643:                                 ; preds = %for.body.i.i.i1639
  %incdec.ptr.i.i.i.i1644 = getelementptr inbounds %"class.cvc5::internal::NodeTemplate", ptr %__first.sroa.0.051.i.i.i1641, i64 1
  %172 = load ptr, ptr %incdec.ptr.i.i.i.i1644, align 8
  %cmp.i.i9.i.i.i1645 = icmp eq ptr %172, %168
  br i1 %cmp.i.i9.i.i.i1645, label %land.end466.loopexit.split.loop.exit, label %if.end10.i.i.i1646

if.end10.i.i.i1646:                               ; preds = %if.end.i.i.i1643
  %incdec.ptr.i10.i.i.i1647 = getelementptr inbounds %"class.cvc5::internal::NodeTemplate", ptr %__first.sroa.0.051.i.i.i1641, i64 2
  %173 = load ptr, ptr %incdec.ptr.i10.i.i.i1647, align 8
  %cmp.i.i11.i.i.i1648 = icmp eq ptr %173, %168
  br i1 %cmp.i.i11.i.i.i1648, label %land.end466.loopexit.split.loop.exit6787, label %if.end16.i.i.i1649

if.end16.i.i.i1649:                               ; preds = %if.end10.i.i.i1646
  %incdec.ptr.i12.i.i.i1650 = getelementptr inbounds %"class.cvc5::internal::NodeTemplate", ptr %__first.sroa.0.051.i.i.i1641, i64 3
  %174 = load ptr, ptr %incdec.ptr.i12.i.i.i1650, align 8
  %cmp.i.i13.i.i.i1651 = icmp eq ptr %174, %168
  br i1 %cmp.i.i13.i.i.i1651, label %land.end466.loopexit.split.loop.exit6789, label %if.end22.i.i.i1652

if.end22.i.i.i1652:                               ; preds = %if.end16.i.i.i1649
  %incdec.ptr.i14.i.i.i1653 = getelementptr inbounds %"class.cvc5::internal::NodeTemplate", ptr %__first.sroa.0.051.i.i.i1641, i64 4
  %dec.i.i.i1654 = add nsw i64 %__trip_count.052.i.i.i1640, -1
  %cmp.i.i.i1655 = icmp sgt i64 %__trip_count.052.i.i.i1640, 1
  br i1 %cmp.i.i.i1655, label %for.body.i.i.i1639, label %for.end.loopexit.i.i.i1656, !llvm.loop !7

for.end.loopexit.i.i.i1656:                       ; preds = %if.end22.i.i.i1652
  %.pre58.i.i.i1657 = ptrtoint ptr %scevgep.i.i.i1638 to i64
  %.pre59.i.i.i1658 = sub i64 %sub.ptr.lhs.cast.i.i.i.i1610, %.pre58.i.i.i1657
  br label %for.end.i.i.i1615

for.end.i.i.i1615:                                ; preds = %for.end.loopexit.i.i.i1656, %invoke.cont454
  %sub.ptr.sub.i17.pre-phi.i.i.i1616 = phi i64 [ %.pre59.i.i.i1658, %for.end.loopexit.i.i.i1656 ], [ %sub.ptr.sub.i.i.i.i1612, %invoke.cont454 ]
  %__first.sroa.0.0.lcssa.i.i.i1617 = phi ptr [ %scevgep.i.i.i1638, %for.end.loopexit.i.i.i1656 ], [ %165, %invoke.cont454 ]
  %sub.ptr.div.i18.i.i.i1618 = ashr exact i64 %sub.ptr.sub.i17.pre-phi.i.i.i1616, 3
  switch i64 %sub.ptr.div.i18.i.i.i1618, label %land.end466 [
    i64 3, label %sw.bb.i.i.i1633
    i64 2, label %sw.bb31.i.i.i1628
    i64 1, label %sw.bb38.i.i.i1621
  ]

sw.bb.i.i.i1633:                                  ; preds = %for.end.i.i.i1615
  %175 = load ptr, ptr %__first.sroa.0.0.lcssa.i.i.i1617, align 8
  %cmp.i.i19.i.i.i1634 = icmp eq ptr %175, %168
  br i1 %cmp.i.i19.i.i.i1634, label %land.end466, label %if.end29.i.i.i1635

if.end29.i.i.i1635:                               ; preds = %sw.bb.i.i.i1633
  %incdec.ptr.i20.i.i.i1636 = getelementptr inbounds %"class.cvc5::internal::NodeTemplate", ptr %__first.sroa.0.0.lcssa.i.i.i1617, i64 1
  br label %sw.bb31.i.i.i1628

sw.bb31.i.i.i1628:                                ; preds = %for.end.i.i.i1615, %if.end29.i.i.i1635
  %__first.sroa.0.1.i.i.i1629 = phi ptr [ %incdec.ptr.i20.i.i.i1636, %if.end29.i.i.i1635 ], [ %__first.sroa.0.0.lcssa.i.i.i1617, %for.end.i.i.i1615 ]
  %176 = load ptr, ptr %__first.sroa.0.1.i.i.i1629, align 8
  %cmp.i.i21.i.i.i1630 = icmp eq ptr %176, %168
  br i1 %cmp.i.i21.i.i.i1630, label %land.end466, label %if.end36.i.i.i1631

if.end36.i.i.i1631:                               ; preds = %sw.bb31.i.i.i1628
  %incdec.ptr.i22.i.i.i1632 = getelementptr inbounds %"class.cvc5::internal::NodeTemplate", ptr %__first.sroa.0.1.i.i.i1629, i64 1
  br label %sw.bb38.i.i.i1621

sw.bb38.i.i.i1621:                                ; preds = %for.end.i.i.i1615, %if.end36.i.i.i1631
  %__first.sroa.0.2.i.i.i1622 = phi ptr [ %incdec.ptr.i22.i.i.i1632, %if.end36.i.i.i1631 ], [ %__first.sroa.0.0.lcssa.i.i.i1617, %for.end.i.i.i1615 ]
  %177 = load ptr, ptr %__first.sroa.0.2.i.i.i1622, align 8
  %cmp.i.i23.i.i.i1623 = icmp eq ptr %177, %168
  %spec.select.i.i.i1624 = select i1 %cmp.i.i23.i.i.i1623, ptr %__first.sroa.0.2.i.i.i1622, ptr %166
  br label %land.end466

land.end466.loopexit.split.loop.exit:             ; preds = %if.end.i.i.i1643
  %incdec.ptr.i.i.i.i1644.le = getelementptr inbounds %"class.cvc5::internal::NodeTemplate", ptr %__first.sroa.0.051.i.i.i1641, i64 1
  br label %land.end466

land.end466.loopexit.split.loop.exit6787:         ; preds = %if.end10.i.i.i1646
  %incdec.ptr.i10.i.i.i1647.le = getelementptr inbounds %"class.cvc5::internal::NodeTemplate", ptr %__first.sroa.0.051.i.i.i1641, i64 2
  br label %land.end466

land.end466.loopexit.split.loop.exit6789:         ; preds = %if.end16.i.i.i1649
  %incdec.ptr.i12.i.i.i1650.le = getelementptr inbounds %"class.cvc5::internal::NodeTemplate", ptr %__first.sroa.0.051.i.i.i1641, i64 3
  br label %land.end466

land.end466:                                      ; preds = %for.body.i.i.i1639, %land.end466.loopexit.split.loop.exit, %land.end466.loopexit.split.loop.exit6787, %land.end466.loopexit.split.loop.exit6789, %for.end.i.i.i1615, %sw.bb.i.i.i1633, %sw.bb31.i.i.i1628, %sw.bb38.i.i.i1621
  %retval.sroa.0.0.in.sroa.speculated.i.i.i1625 = phi ptr [ %__first.sroa.0.0.lcssa.i.i.i1617, %sw.bb.i.i.i1633 ], [ %__first.sroa.0.1.i.i.i1629, %sw.bb31.i.i.i1628 ], [ %166, %for.end.i.i.i1615 ], [ %spec.select.i.i.i1624, %sw.bb38.i.i.i1621 ], [ %incdec.ptr.i.i.i.i1644.le, %land.end466.loopexit.split.loop.exit ], [ %incdec.ptr.i10.i.i.i1647.le, %land.end466.loopexit.split.loop.exit6787 ], [ %incdec.ptr.i12.i.i.i1650.le, %land.end466.loopexit.split.loop.exit6789 ], [ %__first.sroa.0.051.i.i.i1641, %for.body.i.i.i1639 ]
  %178 = load ptr, ptr %_M_finish.i1580, align 8
  %cmp.i1667 = icmp eq ptr %retval.sroa.0.0.in.sroa.speculated.i.i.i1625, %178
  %bf.load.i.i1668 = load i64, ptr %168, align 8
  %179 = and i64 %bf.load.i.i1668, 1152920405095219200
  %cmp.not.i.i1669 = icmp eq i64 %179, 1152920405095219200
  br i1 %cmp.not.i.i1669, label %cleanup.done469, label %if.then.i.i1670

if.then.i.i1670:                                  ; preds = %land.end466
  %bf.value.i.i1671 = add i64 %bf.load.i.i1668, 1152920405095219200
  %bf.shl.i.i1672 = and i64 %bf.value.i.i1671, 1152920405095219200
  %bf.clear7.i.i1673 = and i64 %bf.load.i.i1668, -1152920405095219201
  %bf.set.i.i1674 = or disjoint i64 %bf.shl.i.i1672, %bf.clear7.i.i1673
  store i64 %bf.set.i.i1674, ptr %168, align 8
  %cmp12.i.i1675 = icmp eq i64 %bf.shl.i.i1672, 0
  br i1 %cmp12.i.i1675, label %if.then13.i.i1677, label %cleanup.done469

if.then13.i.i1677:                                ; preds = %if.then.i.i1670
  invoke void @_ZN4cvc58internal4expr9NodeValue15markForDeletionEv(ptr noundef nonnull align 8 dereferenceable(16) %168)
          to label %cleanup.done469 unwind label %terminate.lpad.i1678

terminate.lpad.i1678:                             ; preds = %if.then13.i.i1677
  %180 = landingpad { ptr, i32 }
          catch ptr null
  %181 = extractvalue { ptr, i32 } %180, 0
  call void @__clang_call_terminate(ptr %181) #22
  unreachable

cleanup.done469:                                  ; preds = %if.then13.i.i1677, %if.then.i.i1670, %land.end466
  br i1 %cmp.i1667, label %if.then474, label %if.end493

if.then474:                                       ; preds = %cleanup.done469
  %inc475 = add nuw nsw i32 %regularLits.06541, 1
  br label %for.inc557

lpad435:                                          ; preds = %if.end15.i.i.i1532
  %182 = landingpad { ptr, i32 }
          cleanup
  call void @_ZN4cvc58internal12NodeTemplateILb1EED2Ev(ptr noundef nonnull align 8 dereferenceable(8) %ref.tmp430) #21
  br label %ehcleanup606

if.then478:                                       ; preds = %_ZN4cvc58internal12NodeTemplateILb1EED2Ev.exit1579
  call void @llvm.experimental.noalias.scope.decl(metadata !41)
  %183 = load ptr, ptr %add.ptr.i1501, align 8, !noalias !41
  %d_kind.i.i.i.i1681 = getelementptr inbounds %"class.cvc5::internal::expr::NodeValue", ptr %183, i64 0, i32 1
  %bf.load.i.i.i.i1682 = load i16, ptr %d_kind.i.i.i.i1681, align 8, !noalias !41
  %bf.clear.i.i.i.i1683 = and i16 %bf.load.i.i.i.i1682, 1023
  %bf.cast.i.i.i.i1684 = zext nneg i16 %bf.clear.i.i.i.i1683 to i32
  %cmp.i.i.i.i.i1685 = icmp eq i16 %bf.clear.i.i.i.i1683, 1023
  %cond.i.i.i.i.i1686 = select i1 %cmp.i.i.i.i.i1685, i32 -1, i32 %bf.cast.i.i.i.i1684
  %call2.i.i.i1706 = invoke noundef i32 @_ZN4cvc58internal4kind10metaKindOfENS1_6Kind_tE(i32 noundef %cond.i.i.i.i.i1686)
          to label %call2.i.i.i.noexc1705 unwind label %lpad354.loopexit.split-lp.loopexit

call2.i.i.i.noexc1705:                            ; preds = %if.then478
  %cmp.i.i1687 = icmp eq i32 %call2.i.i.i1706, 2
  %inc.i.i1688 = zext i1 %cmp.i.i1687 to i64
  %spec.select.i.i1689 = add nuw i64 %j419.06539, %inc.i.i1688
  %sext6202 = shl i64 %spec.select.i.i1689, 32
  %idxprom.i.i1690 = ashr exact i64 %sext6202, 32
  %arrayidx.i.i1691 = getelementptr inbounds %"class.cvc5::internal::expr::NodeValue", ptr %183, i64 0, i32 3, i64 %idxprom.i.i1690
  %184 = load ptr, ptr %arrayidx.i.i1691, align 8, !noalias !41
  store ptr %184, ptr %ref.tmp479, align 8, !alias.scope !41
  %bf.load.i.i.i1692 = load i64, ptr %184, align 8, !noalias !41
  %bf.lshr.i.i.i1693 = lshr i64 %bf.load.i.i.i1692, 40
  %185 = trunc i64 %bf.lshr.i.i.i1693 to i32
  %bf.cast.i.i.i1694 = and i32 %185, 1048575
  %cmp.i.i.i1695 = icmp ult i32 %bf.cast.i.i.i1694, 1048574
  br i1 %cmp.i.i.i1695, label %if.then.i.i.i1700, label %if.else.i.i.i1696

if.then.i.i.i1700:                                ; preds = %call2.i.i.i.noexc1705
  %bf.value.i.i.i1701 = add i64 %bf.load.i.i.i1692, 1099511627776
  %bf.shl.i.i.i1702 = and i64 %bf.value.i.i.i1701, 1152920405095219200
  %bf.clear7.i.i.i1703 = and i64 %bf.load.i.i.i1692, -1152920405095219201
  %bf.set.i.i.i1704 = or disjoint i64 %bf.shl.i.i.i1702, %bf.clear7.i.i.i1703
  store i64 %bf.set.i.i.i1704, ptr %184, align 8, !noalias !41
  br label %invoke.cont482

if.else.i.i.i1696:                                ; preds = %call2.i.i.i.noexc1705
  %cmp12.i.i.i1697 = icmp eq i32 %bf.cast.i.i.i1694, 1048574
  br i1 %cmp12.i.i.i1697, label %if.then13.i.i.i1698, label %invoke.cont482

if.then13.i.i.i1698:                              ; preds = %if.else.i.i.i1696
  %bf.set23.i.i.i1699 = or i64 %bf.load.i.i.i1692, 1152920405095219200
  store i64 %bf.set23.i.i.i1699, ptr %184, align 8, !noalias !41
  invoke void @_ZN4cvc58internal4expr9NodeValue20markRefCountMaxedOutEv(ptr noundef nonnull align 8 dereferenceable(16) %184)
          to label %invoke.cont482 unwind label %lpad354.loopexit.split-lp.loopexit

invoke.cont482:                                   ; preds = %if.else.i.i.i1696, %if.then.i.i.i1700, %if.then13.i.i.i1698
  call void @llvm.lifetime.start.p0(i64 8, ptr nonnull %ref.tmp9.i1709)
  call void @llvm.lifetime.start.p0(i64 1, ptr nonnull %ref.tmp10.i1710)
  %186 = load ptr, ptr %_M_parent.i.i.i.i.i, align 8
  %cmp.not5.i.i.i.i1713 = icmp eq ptr %186, null
  br i1 %cmp.not5.i.i.i.i1713, label %if.then.i1740, label %while.body.lr.ph.i.i.i.i1714

while.body.lr.ph.i.i.i.i1714:                     ; preds = %invoke.cont482
  %187 = load ptr, ptr %ref.tmp479, align 8
  %bf.load3.i.i.i.i.i.i1715 = load i64, ptr %187, align 8
  %bf.clear4.i.i.i.i.i.i1716 = and i64 %bf.load3.i.i.i.i.i.i1715, 1099511627775
  br label %while.body.i.i.i.i1717

while.body.i.i.i.i1717:                           ; preds = %while.body.i.i.i.i1717, %while.body.lr.ph.i.i.i.i1714
  %__x.addr.07.i.i.i.i1718 = phi ptr [ %186, %while.body.lr.ph.i.i.i.i1714 ], [ %__x.addr.1.i.i.i.i1728, %while.body.i.i.i.i1717 ]
  %__y.addr.06.i.i.i.i1719 = phi ptr [ %10, %while.body.lr.ph.i.i.i.i1714 ], [ %__y.addr.1.i.i.i.i1726, %while.body.i.i.i.i1717 ]
  %_M_storage.i.i.i.i.i.i1720 = getelementptr inbounds %"struct.std::_Rb_tree_node", ptr %__x.addr.07.i.i.i.i1718, i64 0, i32 1
  %188 = load ptr, ptr %_M_storage.i.i.i.i.i.i1720, align 8
  %bf.load.i.i.i.i.i.i1721 = load i64, ptr %188, align 8
  %bf.clear.i.i.i.i.i.i1722 = and i64 %bf.load.i.i.i.i.i.i1721, 1099511627775
  %cmp.i.i.i.i.i.i1723 = icmp ult i64 %bf.clear.i.i.i.i.i.i1722, %bf.clear4.i.i.i.i.i.i1716
  %_M_right.i.i.i.i.i1724 = getelementptr inbounds %"struct.std::_Rb_tree_node_base", ptr %__x.addr.07.i.i.i.i1718, i64 0, i32 3
  %_M_left.i.i.i.i.i1725 = getelementptr inbounds %"struct.std::_Rb_tree_node_base", ptr %__x.addr.07.i.i.i.i1718, i64 0, i32 2
  %__y.addr.1.i.i.i.i1726 = select i1 %cmp.i.i.i.i.i.i1723, ptr %__y.addr.06.i.i.i.i1719, ptr %__x.addr.07.i.i.i.i1718
  %__x.addr.1.in.i.i.i.i1727 = select i1 %cmp.i.i.i.i.i.i1723, ptr %_M_right.i.i.i.i.i1724, ptr %_M_left.i.i.i.i.i1725
  %__x.addr.1.i.i.i.i1728 = load ptr, ptr %__x.addr.1.in.i.i.i.i1727, align 8
  %cmp.not.i.i.i.i1729 = icmp eq ptr %__x.addr.1.i.i.i.i1728, null
  br i1 %cmp.not.i.i.i.i1729, label %_ZNSt3mapIN4cvc58internal12NodeTemplateILb1EEENS1_5proof15CrowdingLitInfoESt4lessIS3_ESaISt4pairIKS3_S5_EEE11lower_boundERS9_.exit.i1730, label %while.body.i.i.i.i1717, !llvm.loop !28

_ZNSt3mapIN4cvc58internal12NodeTemplateILb1EEENS1_5proof15CrowdingLitInfoESt4lessIS3_ESaISt4pairIKS3_S5_EEE11lower_boundERS9_.exit.i1730: ; preds = %while.body.i.i.i.i1717
  %cmp.i.i1731 = icmp eq ptr %__y.addr.1.i.i.i.i1726, %10
  br i1 %cmp.i.i1731, label %if.then.i1740, label %lor.rhs.i1732

lor.rhs.i1732:                                    ; preds = %_ZNSt3mapIN4cvc58internal12NodeTemplateILb1EEENS1_5proof15CrowdingLitInfoESt4lessIS3_ESaISt4pairIKS3_S5_EEE11lower_boundERS9_.exit.i1730
  %_M_storage.i.i.i.i.i.i1720.le = getelementptr inbounds %"struct.std::_Rb_tree_node", ptr %__x.addr.07.i.i.i.i1718, i64 0, i32 1
  %__y.addr.06.i.i.i.i1719.sroa.gep = getelementptr inbounds %"struct.std::_Rb_tree_node", ptr %__y.addr.06.i.i.i.i1719, i64 0, i32 1
  %__y.addr.1.i.i.i.i1726.sroa.sel = select i1 %cmp.i.i.i.i.i.i1723, ptr %__y.addr.06.i.i.i.i1719.sroa.gep, ptr %_M_storage.i.i.i.i.i.i1720.le
  %189 = load ptr, ptr %__y.addr.1.i.i.i.i1726.sroa.sel, align 8
  %bf.load3.i.i.i1734 = load i64, ptr %189, align 8
  %bf.clear4.i.i.i1735 = and i64 %bf.load3.i.i.i1734, 1099511627775
  %cmp.i.i.i1736 = icmp ult i64 %bf.clear4.i.i.i.i.i.i1716, %bf.clear4.i.i.i1735
  br i1 %cmp.i.i.i1736, label %if.then.i1740, label %invoke.cont484

if.then.i1740:                                    ; preds = %lor.rhs.i1732, %_ZNSt3mapIN4cvc58internal12NodeTemplateILb1EEENS1_5proof15CrowdingLitInfoESt4lessIS3_ESaISt4pairIKS3_S5_EEE11lower_boundERS9_.exit.i1730, %invoke.cont482
  %__y.addr.0.lcssa.i.i.i9.i1741 = phi ptr [ %10, %_ZNSt3mapIN4cvc58internal12NodeTemplateILb1EEENS1_5proof15CrowdingLitInfoESt4lessIS3_ESaISt4pairIKS3_S5_EEE11lower_boundERS9_.exit.i1730 ], [ %__y.addr.1.i.i.i.i1726, %lor.rhs.i1732 ], [ %10, %invoke.cont482 ]
  store ptr %ref.tmp479, ptr %ref.tmp9.i1709, align 8, !alias.scope !44
  %call12.i1743 = invoke ptr @_ZNSt8_Rb_treeIN4cvc58internal12NodeTemplateILb1EEESt4pairIKS3_NS1_5proof15CrowdingLitInfoEESt10_Select1stIS8_ESt4lessIS3_ESaIS8_EE22_M_emplace_hint_uniqueIJRKSt21piecewise_construct_tSt5tupleIJOS3_EESJ_IJEEEEESt17_Rb_tree_iteratorIS8_ESt23_Rb_tree_const_iteratorIS8_EDpOT_(ptr noundef nonnull align 8 dereferenceable(48) %crowdLitsInfo, ptr %__y.addr.0.lcssa.i.i.i9.i1741, ptr noundef nonnull align 1 dereferenceable(1) @_ZSt19piecewise_construct, ptr noundef nonnull align 8 dereferenceable(8) %ref.tmp9.i1709, ptr noundef nonnull align 1 dereferenceable(1) %ref.tmp10.i1710)
          to label %if.then.i1740.invoke.cont484_crit_edge unwind label %lpad483

if.then.i1740.invoke.cont484_crit_edge:           ; preds = %if.then.i1740
  %.pre6664 = load ptr, ptr %ref.tmp479, align 8
  br label %invoke.cont484

invoke.cont484:                                   ; preds = %if.then.i1740.invoke.cont484_crit_edge, %lor.rhs.i1732
  %190 = phi ptr [ %187, %lor.rhs.i1732 ], [ %.pre6664, %if.then.i1740.invoke.cont484_crit_edge ]
  %__i.sroa.0.0.i1738 = phi ptr [ %__y.addr.1.i.i.i.i1726, %lor.rhs.i1732 ], [ %call12.i1743, %if.then.i1740.invoke.cont484_crit_edge ]
  %second.i1739 = getelementptr inbounds %"struct.std::_Rb_tree_node", ptr %__i.sroa.0.0.i1738, i64 0, i32 1, i32 0, i64 8
  call void @llvm.lifetime.end.p0(i64 8, ptr nonnull %ref.tmp9.i1709)
  call void @llvm.lifetime.end.p0(i64 1, ptr nonnull %ref.tmp10.i1710)
  %191 = load i64, ptr %second.i1739, align 8
  %bf.load.i.i1744 = load i64, ptr %190, align 8
  %192 = and i64 %bf.load.i.i1744, 1152920405095219200
  %cmp.not.i.i1745 = icmp eq i64 %192, 1152920405095219200
  br i1 %cmp.not.i.i1745, label %_ZN4cvc58internal12NodeTemplateILb1EED2Ev.exit1755, label %if.then.i.i1746

if.then.i.i1746:                                  ; preds = %invoke.cont484
  %bf.value.i.i1747 = add i64 %bf.load.i.i1744, 1152920405095219200
  %bf.shl.i.i1748 = and i64 %bf.value.i.i1747, 1152920405095219200
  %bf.clear7.i.i1749 = and i64 %bf.load.i.i1744, -1152920405095219201
  %bf.set.i.i1750 = or disjoint i64 %bf.shl.i.i1748, %bf.clear7.i.i1749
  store i64 %bf.set.i.i1750, ptr %190, align 8
  %cmp12.i.i1751 = icmp eq i64 %bf.shl.i.i1748, 0
  br i1 %cmp12.i.i1751, label %if.then13.i.i1753, label %_ZN4cvc58internal12NodeTemplateILb1EED2Ev.exit1755

if.then13.i.i1753:                                ; preds = %if.then.i.i1746
  invoke void @_ZN4cvc58internal4expr9NodeValue15markForDeletionEv(ptr noundef nonnull align 8 dereferenceable(16) %190)
          to label %_ZN4cvc58internal12NodeTemplateILb1EED2Ev.exit1755 unwind label %terminate.lpad.i1754

terminate.lpad.i1754:                             ; preds = %if.then13.i.i1753
  %193 = landingpad { ptr, i32 }
          catch ptr null
  %194 = extractvalue { ptr, i32 } %193, 0
  call void @__clang_call_terminate(ptr %194) #22
  unreachable

_ZN4cvc58internal12NodeTemplateILb1EED2Ev.exit1755: ; preds = %invoke.cont484, %if.then.i.i1746, %if.then13.i.i1753
  %cond492 = call i64 @llvm.umin.i64(i64 %191, i64 %maxSafeMove.06538)
  br label %if.end493

lpad483:                                          ; preds = %if.then.i1740
  %195 = landingpad { ptr, i32 }
          cleanup
  call void @_ZN4cvc58internal12NodeTemplateILb1EED2Ev(ptr noundef nonnull align 8 dereferenceable(8) %ref.tmp479) #21
  br label %ehcleanup606

if.end493:                                        ; preds = %cleanup.done469, %_ZN4cvc58internal12NodeTemplateILb1EED2Ev.exit1755
  %maxSafeMove.1 = phi i64 [ %cond492, %_ZN4cvc58internal12NodeTemplateILb1EED2Ev.exit1755 ], [ %maxSafeMove.06538, %cleanup.done469 ]
  %mul496 = shl i64 %maxSafeMove.1, 1
  %sub497 = add i64 %mul496, -1
  %cmp4996532 = icmp ult i64 %sub495, %sub497
  br i1 %cmp4996532, label %for.body500.preheader, label %for.inc557

for.body500.preheader:                            ; preds = %if.end493
  %.pre6665 = load ptr, ptr %newArgs, align 8
  br label %for.body500

for.cond498:                                      ; preds = %_ZN4cvc58internal12NodeTemplateILb1EED2Ev.exit1869
  %add555 = add i64 %k.06533, 2
  %cmp499 = icmp ult i64 %add555, %sub497
  br i1 %cmp499, label %for.body500, label %for.inc557, !llvm.loop !47

for.body500:                                      ; preds = %for.body500.preheader, %for.cond498
  %k.06533 = phi i64 [ %add555, %for.cond498 ], [ %sub495, %for.body500.preheader ]
  %add.ptr.i1756 = getelementptr inbounds %"class.cvc5::internal::NodeTemplate", ptr %.pre6665, i64 %k.06533
  %196 = load ptr, ptr %add.ptr.i1756, align 8
  %197 = load ptr, ptr %trueNode, align 8
  %cmp.i1757 = icmp ne ptr %196, %197
  call void @llvm.experimental.noalias.scope.decl(metadata !48)
  %198 = load ptr, ptr %add.ptr.i1758, align 8, !noalias !48
  %d_kind.i.i.i.i1759 = getelementptr inbounds %"class.cvc5::internal::expr::NodeValue", ptr %198, i64 0, i32 1
  %bf.load.i.i.i.i1760 = load i16, ptr %d_kind.i.i.i.i1759, align 8, !noalias !48
  %bf.clear.i.i.i.i1761 = and i16 %bf.load.i.i.i.i1760, 1023
  %bf.cast.i.i.i.i1762 = zext nneg i16 %bf.clear.i.i.i.i1761 to i32
  %cmp.i.i.i.i.i1763 = icmp eq i16 %bf.clear.i.i.i.i1761, 1023
  %cond.i.i.i.i.i1764 = select i1 %cmp.i.i.i.i.i1763, i32 -1, i32 %bf.cast.i.i.i.i1762
  %call2.i.i.i1784 = invoke noundef i32 @_ZN4cvc58internal4kind10metaKindOfENS1_6Kind_tE(i32 noundef %cond.i.i.i.i.i1764)
          to label %call2.i.i.i.noexc1783 unwind label %lpad354.loopexit

call2.i.i.i.noexc1783:                            ; preds = %for.body500
  %cmp.i.i1765 = icmp eq i32 %call2.i.i.i1784, 2
  %inc.i.i1766 = zext i1 %cmp.i.i1765 to i64
  %spec.select.i.i1767 = add nuw i64 %j419.06539, %inc.i.i1766
  %sext6203 = shl i64 %spec.select.i.i1767, 32
  %idxprom.i.i1768 = ashr exact i64 %sext6203, 32
  %arrayidx.i.i1769 = getelementptr inbounds %"class.cvc5::internal::expr::NodeValue", ptr %198, i64 0, i32 3, i64 %idxprom.i.i1768
  %199 = load ptr, ptr %arrayidx.i.i1769, align 8, !noalias !48
  store ptr %199, ptr %ref.tmp505, align 8, !alias.scope !48
  %bf.load.i.i.i1770 = load i64, ptr %199, align 8, !noalias !48
  %bf.lshr.i.i.i1771 = lshr i64 %bf.load.i.i.i1770, 40
  %200 = trunc i64 %bf.lshr.i.i.i1771 to i32
  %bf.cast.i.i.i1772 = and i32 %200, 1048575
  %cmp.i.i.i1773 = icmp ult i32 %bf.cast.i.i.i1772, 1048574
  br i1 %cmp.i.i.i1773, label %if.then.i.i.i1778, label %if.else.i.i.i1774

if.then.i.i.i1778:                                ; preds = %call2.i.i.i.noexc1783
  %bf.value.i.i.i1779 = add i64 %bf.load.i.i.i1770, 1099511627776
  %bf.shl.i.i.i1780 = and i64 %bf.value.i.i.i1779, 1152920405095219200
  %bf.clear7.i.i.i1781 = and i64 %bf.load.i.i.i1770, -1152920405095219201
  %bf.set.i.i.i1782 = or disjoint i64 %bf.shl.i.i.i1780, %bf.clear7.i.i.i1781
  store i64 %bf.set.i.i.i1782, ptr %199, align 8, !noalias !48
  br label %invoke.cont508

if.else.i.i.i1774:                                ; preds = %call2.i.i.i.noexc1783
  %cmp12.i.i.i1775 = icmp eq i32 %bf.cast.i.i.i1772, 1048574
  br i1 %cmp12.i.i.i1775, label %if.then13.i.i.i1776, label %invoke.cont508

if.then13.i.i.i1776:                              ; preds = %if.else.i.i.i1774
  %bf.set23.i.i.i1777 = or i64 %bf.load.i.i.i1770, 1152920405095219200
  store i64 %bf.set23.i.i.i1777, ptr %199, align 8, !noalias !48
  invoke void @_ZN4cvc58internal4expr9NodeValue20markRefCountMaxedOutEv(ptr noundef nonnull align 8 dereferenceable(16) %199)
          to label %invoke.cont508 unwind label %lpad354.loopexit

invoke.cont508:                                   ; preds = %if.else.i.i.i1774, %if.then.i.i.i1778, %if.then13.i.i.i1776
  %add509 = add nuw i64 %k.06533, 1
  %add.ptr.i1787 = getelementptr inbounds %"class.cvc5::internal::NodeTemplate", ptr %.pre6665, i64 %add509
  %201 = load ptr, ptr %add.ptr.i1787, align 8
  %cmp.i1788 = icmp ne ptr %199, %201
  %brmerge = or i1 %cmp.i1757, %cmp.i1788
  br i1 %brmerge, label %lor.rhs516, label %cleanup.done545

lor.rhs516:                                       ; preds = %invoke.cont508
  call void @llvm.experimental.noalias.scope.decl(metadata !51)
  %202 = load ptr, ptr %add.ptr.i1204, align 8, !noalias !51
  %d_kind.i.i.i.i1790 = getelementptr inbounds %"class.cvc5::internal::expr::NodeValue", ptr %202, i64 0, i32 1
  %bf.load.i.i.i.i1791 = load i16, ptr %d_kind.i.i.i.i1790, align 8, !noalias !51
  %bf.clear.i.i.i.i1792 = and i16 %bf.load.i.i.i.i1791, 1023
  %bf.cast.i.i.i.i1793 = zext nneg i16 %bf.clear.i.i.i.i1792 to i32
  %cmp.i.i.i.i.i1794 = icmp eq i16 %bf.clear.i.i.i.i1792, 1023
  %cond.i.i.i.i.i1795 = select i1 %cmp.i.i.i.i.i1794, i32 -1, i32 %bf.cast.i.i.i.i1793
  %call2.i.i.i1815 = invoke noundef i32 @_ZN4cvc58internal4kind10metaKindOfENS1_6Kind_tE(i32 noundef %cond.i.i.i.i.i1795)
          to label %call2.i.i.i.noexc1814 unwind label %lpad511

call2.i.i.i.noexc1814:                            ; preds = %lor.rhs516
  %cmp.i.i1796 = icmp eq i32 %call2.i.i.i1815, 2
  %inc.i.i1797 = zext i1 %cmp.i.i1796 to i64
  %spec.select.i.i1798 = add nuw i64 %j419.06539, %inc.i.i1797
  %sext6204 = shl i64 %spec.select.i.i1798, 32
  %idxprom.i.i1799 = ashr exact i64 %sext6204, 32
  %arrayidx.i.i1800 = getelementptr inbounds %"class.cvc5::internal::expr::NodeValue", ptr %202, i64 0, i32 3, i64 %idxprom.i.i1799
  %203 = load ptr, ptr %arrayidx.i.i1800, align 8, !noalias !51
  store ptr %203, ptr %ref.tmp517, align 8, !alias.scope !51
  %bf.load.i.i.i1801 = load i64, ptr %203, align 8, !noalias !51
  %bf.lshr.i.i.i1802 = lshr i64 %bf.load.i.i.i1801, 40
  %204 = trunc i64 %bf.lshr.i.i.i1802 to i32
  %bf.cast.i.i.i1803 = and i32 %204, 1048575
  %cmp.i.i.i1804 = icmp ult i32 %bf.cast.i.i.i1803, 1048574
  br i1 %cmp.i.i.i1804, label %if.then.i.i.i1809, label %if.else.i.i.i1805

if.then.i.i.i1809:                                ; preds = %call2.i.i.i.noexc1814
  %bf.value.i.i.i1810 = add i64 %bf.load.i.i.i1801, 1099511627776
  %bf.shl.i.i.i1811 = and i64 %bf.value.i.i.i1810, 1152920405095219200
  %bf.clear7.i.i.i1812 = and i64 %bf.load.i.i.i1801, -1152920405095219201
  %bf.set.i.i.i1813 = or disjoint i64 %bf.shl.i.i.i1811, %bf.clear7.i.i.i1812
  store i64 %bf.set.i.i.i1813, ptr %203, align 8, !noalias !51
  br label %invoke.cont520

if.else.i.i.i1805:                                ; preds = %call2.i.i.i.noexc1814
  %cmp12.i.i.i1806 = icmp eq i32 %bf.cast.i.i.i1803, 1048574
  br i1 %cmp12.i.i.i1806, label %if.then13.i.i.i1807, label %invoke.cont520

if.then13.i.i.i1807:                              ; preds = %if.else.i.i.i1805
  %bf.set23.i.i.i1808 = or i64 %bf.load.i.i.i1801, 1152920405095219200
  store i64 %bf.set23.i.i.i1808, ptr %203, align 8, !noalias !51
  invoke void @_ZN4cvc58internal4expr9NodeValue20markRefCountMaxedOutEv(ptr noundef nonnull align 8 dereferenceable(16) %203)
          to label %invoke.cont520 unwind label %lpad511

invoke.cont520:                                   ; preds = %if.else.i.i.i1805, %if.then.i.i.i1809, %if.then13.i.i.i1807
  %call.i18211829 = invoke noundef ptr @_ZN4cvc58internal11NodeManager9currentNMEv()
          to label %call.i1821.noexc unwind label %lpad525

call.i1821.noexc:                                 ; preds = %invoke.cont520
  %add.ptr.i1818 = getelementptr inbounds %"class.cvc5::internal::NodeTemplate", ptr %.pre6665, i64 %add509
  %205 = load ptr, ptr %add.ptr.i1818, align 8, !noalias !54
  call void @llvm.lifetime.start.p0(i64 120, ptr nonnull %nb.i.i1819), !noalias !54
  call void @llvm.lifetime.start.p0(i64 8, ptr nonnull %agg.tmp.i.i1820), !noalias !54
  invoke void @_ZN4cvc58internal11NodeBuilderC1EPNS0_11NodeManagerENS0_4kind6Kind_tE(ptr noundef nonnull align 8 dereferenceable(116) %nb.i.i1819, ptr noundef nonnull %call.i18211829, i32 noundef 18)
          to label %.noexc1830 unwind label %lpad525

.noexc1830:                                       ; preds = %call.i1821.noexc
  store ptr %205, ptr %agg.tmp.i.i1820, align 8, !noalias !57
  %call.i.i1822 = invoke noundef nonnull align 8 dereferenceable(116) ptr @_ZN4cvc58internal11NodeBuilderlsENS0_12NodeTemplateILb0EEE(ptr noundef nonnull align 8 dereferenceable(116) %nb.i.i1819, ptr noundef nonnull %agg.tmp.i.i1820)
          to label %invoke.cont3.i.i1826 unwind label %lpad2.i.i1823, !noalias !57

invoke.cont3.i.i1826:                             ; preds = %.noexc1830
  invoke void @_ZN4cvc58internal11NodeBuilder13constructNodeEv(ptr nonnull sret(%"class.cvc5::internal::NodeTemplate") align 8 %ref.tmp522, ptr noundef nonnull align 8 dereferenceable(116) %nb.i.i1819)
          to label %cleanup.action537 unwind label %lpad.i.i1827

lpad.i.i1827:                                     ; preds = %invoke.cont3.i.i1826
  %206 = landingpad { ptr, i32 }
          cleanup
  br label %ehcleanup.i.i1824

lpad2.i.i1823:                                    ; preds = %.noexc1830
  %207 = landingpad { ptr, i32 }
          cleanup
  br label %ehcleanup.i.i1824

ehcleanup.i.i1824:                                ; preds = %lpad2.i.i1823, %lpad.i.i1827
  %.pn.i.i1825 = phi { ptr, i32 } [ %206, %lpad.i.i1827 ], [ %207, %lpad2.i.i1823 ]
  call void @_ZN4cvc58internal11NodeBuilderD1Ev(ptr noundef nonnull align 8 dereferenceable(116) %nb.i.i1819) #21
  br label %lpad525.body

cleanup.action537:                                ; preds = %invoke.cont3.i.i1826
  call void @_ZN4cvc58internal11NodeBuilderD1Ev(ptr noundef nonnull align 8 dereferenceable(116) %nb.i.i1819) #21
  call void @llvm.lifetime.end.p0(i64 120, ptr nonnull %nb.i.i1819), !noalias !54
  call void @llvm.lifetime.end.p0(i64 8, ptr nonnull %agg.tmp.i.i1820), !noalias !54
  %208 = load ptr, ptr %ref.tmp522, align 8
  %cmp.i1833 = icmp eq ptr %203, %208
  %209 = and i1 %cmp.i1757, %cmp.i1833
  %bf.load.i.i1834 = load i64, ptr %208, align 8
  %210 = and i64 %bf.load.i.i1834, 1152920405095219200
  %cmp.not.i.i1835 = icmp eq i64 %210, 1152920405095219200
  br i1 %cmp.not.i.i1835, label %_ZN4cvc58internal12NodeTemplateILb1EED2Ev.exit1845, label %if.then.i.i1836

if.then.i.i1836:                                  ; preds = %cleanup.action537
  %bf.value.i.i1837 = add i64 %bf.load.i.i1834, 1152920405095219200
  %bf.shl.i.i1838 = and i64 %bf.value.i.i1837, 1152920405095219200
  %bf.clear7.i.i1839 = and i64 %bf.load.i.i1834, -1152920405095219201
  %bf.set.i.i1840 = or disjoint i64 %bf.shl.i.i1838, %bf.clear7.i.i1839
  store i64 %bf.set.i.i1840, ptr %208, align 8
  %cmp12.i.i1841 = icmp eq i64 %bf.shl.i.i1838, 0
  br i1 %cmp12.i.i1841, label %if.then13.i.i1843, label %_ZN4cvc58internal12NodeTemplateILb1EED2Ev.exit1845

if.then13.i.i1843:                                ; preds = %if.then.i.i1836
  invoke void @_ZN4cvc58internal4expr9NodeValue15markForDeletionEv(ptr noundef nonnull align 8 dereferenceable(16) %208)
          to label %_ZN4cvc58internal12NodeTemplateILb1EED2Ev.exit1845 unwind label %terminate.lpad.i1844

terminate.lpad.i1844:                             ; preds = %if.then13.i.i1843
  %211 = landingpad { ptr, i32 }
          catch ptr null
  %212 = extractvalue { ptr, i32 } %211, 0
  call void @__clang_call_terminate(ptr %212) #22
  unreachable

_ZN4cvc58internal12NodeTemplateILb1EED2Ev.exit1845: ; preds = %cleanup.action537, %if.then.i.i1836, %if.then13.i.i1843
  %bf.load.i.i1846 = load i64, ptr %203, align 8
  %213 = and i64 %bf.load.i.i1846, 1152920405095219200
  %cmp.not.i.i1847 = icmp eq i64 %213, 1152920405095219200
  br i1 %cmp.not.i.i1847, label %cleanup.done545, label %if.then.i.i1848

if.then.i.i1848:                                  ; preds = %_ZN4cvc58internal12NodeTemplateILb1EED2Ev.exit1845
  %bf.value.i.i1849 = add i64 %bf.load.i.i1846, 1152920405095219200
  %bf.shl.i.i1850 = and i64 %bf.value.i.i1849, 1152920405095219200
  %bf.clear7.i.i1851 = and i64 %bf.load.i.i1846, -1152920405095219201
  %bf.set.i.i1852 = or disjoint i64 %bf.shl.i.i1850, %bf.clear7.i.i1851
  store i64 %bf.set.i.i1852, ptr %203, align 8
  %cmp12.i.i1853 = icmp eq i64 %bf.shl.i.i1850, 0
  br i1 %cmp12.i.i1853, label %if.then13.i.i1855, label %cleanup.done545

if.then13.i.i1855:                                ; preds = %if.then.i.i1848
  invoke void @_ZN4cvc58internal4expr9NodeValue15markForDeletionEv(ptr noundef nonnull align 8 dereferenceable(16) %203)
          to label %cleanup.done545 unwind label %terminate.lpad.i1856

terminate.lpad.i1856:                             ; preds = %if.then13.i.i1855
  %214 = landingpad { ptr, i32 }
          catch ptr null
  %215 = extractvalue { ptr, i32 } %214, 0
  call void @__clang_call_terminate(ptr %215) #22
  unreachable

cleanup.done545:                                  ; preds = %if.then13.i.i1855, %if.then.i.i1848, %_ZN4cvc58internal12NodeTemplateILb1EED2Ev.exit1845, %invoke.cont508
  %216 = phi i1 [ true, %invoke.cont508 ], [ %209, %_ZN4cvc58internal12NodeTemplateILb1EED2Ev.exit1845 ], [ %209, %if.then.i.i1848 ], [ %209, %if.then13.i.i1855 ]
  %bf.load.i.i1858 = load i64, ptr %199, align 8
  %217 = and i64 %bf.load.i.i1858, 1152920405095219200
  %cmp.not.i.i1859 = icmp eq i64 %217, 1152920405095219200
  br i1 %cmp.not.i.i1859, label %_ZN4cvc58internal12NodeTemplateILb1EED2Ev.exit1869, label %if.then.i.i1860

if.then.i.i1860:                                  ; preds = %cleanup.done545
  %bf.value.i.i1861 = add i64 %bf.load.i.i1858, 1152920405095219200
  %bf.shl.i.i1862 = and i64 %bf.value.i.i1861, 1152920405095219200
  %bf.clear7.i.i1863 = and i64 %bf.load.i.i1858, -1152920405095219201
  %bf.set.i.i1864 = or disjoint i64 %bf.shl.i.i1862, %bf.clear7.i.i1863
  store i64 %bf.set.i.i1864, ptr %199, align 8
  %cmp12.i.i1865 = icmp eq i64 %bf.shl.i.i1862, 0
  br i1 %cmp12.i.i1865, label %if.then13.i.i1867, label %_ZN4cvc58internal12NodeTemplateILb1EED2Ev.exit1869

if.then13.i.i1867:                                ; preds = %if.then.i.i1860
  invoke void @_ZN4cvc58internal4expr9NodeValue15markForDeletionEv(ptr noundef nonnull align 8 dereferenceable(16) %199)
          to label %_ZN4cvc58internal12NodeTemplateILb1EED2Ev.exit1869 unwind label %terminate.lpad.i1868

terminate.lpad.i1868:                             ; preds = %if.then13.i.i1867
  %218 = landingpad { ptr, i32 }
          catch ptr null
  %219 = extractvalue { ptr, i32 } %218, 0
  call void @__clang_call_terminate(ptr %219) #22
  unreachable

_ZN4cvc58internal12NodeTemplateILb1EED2Ev.exit1869: ; preds = %cleanup.done545, %if.then.i.i1860, %if.then13.i.i1867
  br i1 %216, label %if.then551, label %for.cond498

if.then551:                                       ; preds = %_ZN4cvc58internal12NodeTemplateILb1EED2Ev.exit1869
  %div108 = lshr i64 %add509, 1
  br label %for.inc557

lpad511:                                          ; preds = %if.then13.i.i.i1807, %lor.rhs516
  %220 = landingpad { ptr, i32 }
          cleanup
  br label %ehcleanup550

lpad525:                                          ; preds = %call.i1821.noexc, %invoke.cont520
  %221 = landingpad { ptr, i32 }
          cleanup
  br label %lpad525.body

lpad525.body:                                     ; preds = %ehcleanup.i.i1824, %lpad525
  %eh.lpad-body1831 = phi { ptr, i32 } [ %221, %lpad525 ], [ %.pn.i.i1825, %ehcleanup.i.i1824 ]
  call void @_ZN4cvc58internal12NodeTemplateILb1EED2Ev(ptr noundef nonnull align 8 dereferenceable(8) %ref.tmp517) #21
  br label %ehcleanup550

ehcleanup550:                                     ; preds = %lpad525.body, %lpad511
  %.pn106 = phi { ptr, i32 } [ %eh.lpad-body1831, %lpad525.body ], [ %220, %lpad511 ]
  call void @_ZN4cvc58internal12NodeTemplateILb1EED2Ev(ptr noundef nonnull align 8 dereferenceable(8) %ref.tmp505) #21
  br label %ehcleanup606

for.inc557:                                       ; preds = %for.cond498, %if.end493, %if.then551, %if.then474
  %maxSafeMove.2 = phi i64 [ %maxSafeMove.06538, %if.then474 ], [ %div108, %if.then551 ], [ %maxSafeMove.1, %if.end493 ], [ %maxSafeMove.1, %for.cond498 ]
  %regularLits.1 = phi i32 [ %inc475, %if.then474 ], [ %regularLits.06541, %if.then551 ], [ %regularLits.06541, %if.end493 ], [ %regularLits.06541, %for.cond498 ]
  %inc558 = add nuw nsw i64 %j419.06539, 1
  %cmp421 = icmp ult i64 %inc558, %cond6185
  %cmp423 = icmp ult i32 %regularLits.1, 2
  %or.cond = select i1 %cmp421, i1 %cmp423, i1 false
  %sub425 = sub i64 %maxSafeMove.2, %121
  %cmp426 = icmp ugt i64 %sub425, 1
  %or.cond6199 = select i1 %or.cond, i1 %cmp426, i1 false
  br i1 %or.cond6199, label %for.body428, label %for.end559, !llvm.loop !60

for.end559:                                       ; preds = %for.inc557
  %cmp560 = icmp eq i32 %regularLits.1, 1
  br i1 %cmp560, label %land.lhs.true561, label %cleanup603

land.lhs.true561:                                 ; preds = %for.end559
  %cmp562 = icmp ugt i64 %maxSafeMove.2, %121
  %sub564 = sub i64 %maxSafeMove.2, %121
  %cmp565 = icmp ugt i64 %sub564, 1
  %or.cond119 = and i1 %cmp562, %cmp565
  br i1 %or.cond119, label %cond.true570, label %cleanup603

cond.true570:                                     ; preds = %land.lhs.true561
  %222 = load ptr, ptr %lastInclusion, align 8
  %add.ptr.i2110 = getelementptr inbounds %"struct.std::pair.106", ptr %222, i64 %storemerge6545
  call void @llvm.lifetime.start.p0(i64 8, ptr nonnull %ref.tmp9.i2111)
  call void @llvm.lifetime.start.p0(i64 1, ptr nonnull %ref.tmp10.i2112)
  %223 = load ptr, ptr %_M_parent.i.i.i.i.i, align 8
  %cmp.not5.i.i.i.i2115 = icmp eq ptr %223, null
  br i1 %cmp.not5.i.i.i.i2115, label %if.then.i2142, label %while.body.lr.ph.i.i.i.i2116

while.body.lr.ph.i.i.i.i2116:                     ; preds = %cond.true570
  %224 = load ptr, ptr %add.ptr.i2110, align 8
  %bf.load3.i.i.i.i.i.i2117 = load i64, ptr %224, align 8
  %bf.clear4.i.i.i.i.i.i2118 = and i64 %bf.load3.i.i.i.i.i.i2117, 1099511627775
  br label %while.body.i.i.i.i2119

while.body.i.i.i.i2119:                           ; preds = %while.body.i.i.i.i2119, %while.body.lr.ph.i.i.i.i2116
  %__x.addr.07.i.i.i.i2120 = phi ptr [ %223, %while.body.lr.ph.i.i.i.i2116 ], [ %__x.addr.1.i.i.i.i2130, %while.body.i.i.i.i2119 ]
  %__y.addr.06.i.i.i.i2121 = phi ptr [ %10, %while.body.lr.ph.i.i.i.i2116 ], [ %__y.addr.1.i.i.i.i2128, %while.body.i.i.i.i2119 ]
  %_M_storage.i.i.i.i.i.i2122 = getelementptr inbounds %"struct.std::_Rb_tree_node", ptr %__x.addr.07.i.i.i.i2120, i64 0, i32 1
  %225 = load ptr, ptr %_M_storage.i.i.i.i.i.i2122, align 8
  %bf.load.i.i.i.i.i.i2123 = load i64, ptr %225, align 8
  %bf.clear.i.i.i.i.i.i2124 = and i64 %bf.load.i.i.i.i.i.i2123, 1099511627775
  %cmp.i.i.i.i.i.i2125 = icmp ult i64 %bf.clear.i.i.i.i.i.i2124, %bf.clear4.i.i.i.i.i.i2118
  %_M_right.i.i.i.i.i2126 = getelementptr inbounds %"struct.std::_Rb_tree_node_base", ptr %__x.addr.07.i.i.i.i2120, i64 0, i32 3
  %_M_left.i.i.i.i.i2127 = getelementptr inbounds %"struct.std::_Rb_tree_node_base", ptr %__x.addr.07.i.i.i.i2120, i64 0, i32 2
  %__y.addr.1.i.i.i.i2128 = select i1 %cmp.i.i.i.i.i.i2125, ptr %__y.addr.06.i.i.i.i2121, ptr %__x.addr.07.i.i.i.i2120
  %__x.addr.1.in.i.i.i.i2129 = select i1 %cmp.i.i.i.i.i.i2125, ptr %_M_right.i.i.i.i.i2126, ptr %_M_left.i.i.i.i.i2127
  %__x.addr.1.i.i.i.i2130 = load ptr, ptr %__x.addr.1.in.i.i.i.i2129, align 8
  %cmp.not.i.i.i.i2131 = icmp eq ptr %__x.addr.1.i.i.i.i2130, null
  br i1 %cmp.not.i.i.i.i2131, label %_ZNSt3mapIN4cvc58internal12NodeTemplateILb1EEENS1_5proof15CrowdingLitInfoESt4lessIS3_ESaISt4pairIKS3_S5_EEE11lower_boundERS9_.exit.i2132, label %while.body.i.i.i.i2119, !llvm.loop !28

_ZNSt3mapIN4cvc58internal12NodeTemplateILb1EEENS1_5proof15CrowdingLitInfoESt4lessIS3_ESaISt4pairIKS3_S5_EEE11lower_boundERS9_.exit.i2132: ; preds = %while.body.i.i.i.i2119
  %cmp.i.i2133 = icmp eq ptr %__y.addr.1.i.i.i.i2128, %10
  br i1 %cmp.i.i2133, label %if.then.i2142, label %lor.rhs.i2134

lor.rhs.i2134:                                    ; preds = %_ZNSt3mapIN4cvc58internal12NodeTemplateILb1EEENS1_5proof15CrowdingLitInfoESt4lessIS3_ESaISt4pairIKS3_S5_EEE11lower_boundERS9_.exit.i2132
  %_M_storage.i.i.i.i.i.i2122.le = getelementptr inbounds %"struct.std::_Rb_tree_node", ptr %__x.addr.07.i.i.i.i2120, i64 0, i32 1
  %__y.addr.06.i.i.i.i2121.sroa.gep = getelementptr inbounds %"struct.std::_Rb_tree_node", ptr %__y.addr.06.i.i.i.i2121, i64 0, i32 1
  %__y.addr.1.i.i.i.i2128.sroa.sel = select i1 %cmp.i.i.i.i.i.i2125, ptr %__y.addr.06.i.i.i.i2121.sroa.gep, ptr %_M_storage.i.i.i.i.i.i2122.le
  %226 = load ptr, ptr %__y.addr.1.i.i.i.i2128.sroa.sel, align 8
  %bf.load3.i.i.i2136 = load i64, ptr %226, align 8
  %bf.clear4.i.i.i2137 = and i64 %bf.load3.i.i.i2136, 1099511627775
  %cmp.i.i.i2138 = icmp ult i64 %bf.clear4.i.i.i.i.i.i2118, %bf.clear4.i.i.i2137
  br i1 %cmp.i.i.i2138, label %if.then.i2142, label %invoke.cont594

if.then.i2142:                                    ; preds = %lor.rhs.i2134, %_ZNSt3mapIN4cvc58internal12NodeTemplateILb1EEENS1_5proof15CrowdingLitInfoESt4lessIS3_ESaISt4pairIKS3_S5_EEE11lower_boundERS9_.exit.i2132, %cond.true570
  %__y.addr.0.lcssa.i.i.i9.i2143 = phi ptr [ %10, %_ZNSt3mapIN4cvc58internal12NodeTemplateILb1EEENS1_5proof15CrowdingLitInfoESt4lessIS3_ESaISt4pairIKS3_S5_EEE11lower_boundERS9_.exit.i2132 ], [ %__y.addr.1.i.i.i.i2128, %lor.rhs.i2134 ], [ %10, %cond.true570 ]
  store ptr %add.ptr.i2110, ptr %ref.tmp9.i2111, align 8
  %call12.i2145 = invoke ptr @_ZNSt8_Rb_treeIN4cvc58internal12NodeTemplateILb1EEESt4pairIKS3_NS1_5proof15CrowdingLitInfoEESt10_Select1stIS8_ESt4lessIS3_ESaIS8_EE22_M_emplace_hint_uniqueIJRKSt21piecewise_construct_tSt5tupleIJRS5_EESJ_IJEEEEESt17_Rb_tree_iteratorIS8_ESt23_Rb_tree_const_iteratorIS8_EDpOT_(ptr noundef nonnull align 8 dereferenceable(48) %crowdLitsInfo, ptr %__y.addr.0.lcssa.i.i.i9.i2143, ptr noundef nonnull align 1 dereferenceable(1) @_ZSt19piecewise_construct, ptr noundef nonnull align 8 dereferenceable(8) %ref.tmp9.i2111, ptr noundef nonnull align 1 dereferenceable(1) %ref.tmp10.i2112)
          to label %if.then.i2142.invoke.cont594_crit_edge unwind label %lpad354.loopexit.split-lp.loopexit.split-lp

if.then.i2142.invoke.cont594_crit_edge:           ; preds = %if.then.i2142
  %.pre6667 = load ptr, ptr %lastInclusion, align 8
  %.pre6668 = load ptr, ptr %_M_parent.i.i.i.i.i, align 8
  br label %invoke.cont594

invoke.cont594:                                   ; preds = %if.then.i2142.invoke.cont594_crit_edge, %lor.rhs.i2134
  %227 = phi ptr [ %223, %lor.rhs.i2134 ], [ %.pre6668, %if.then.i2142.invoke.cont594_crit_edge ]
  %228 = phi ptr [ %222, %lor.rhs.i2134 ], [ %.pre6667, %if.then.i2142.invoke.cont594_crit_edge ]
  %__i.sroa.0.0.i2140 = phi ptr [ %__y.addr.1.i.i.i.i2128, %lor.rhs.i2134 ], [ %call12.i2145, %if.then.i2142.invoke.cont594_crit_edge ]
  call void @llvm.lifetime.end.p0(i64 8, ptr nonnull %ref.tmp9.i2111)
  call void @llvm.lifetime.end.p0(i64 1, ptr nonnull %ref.tmp10.i2112)
  %d_onlyCrowdAndConcLitsInElim596 = getelementptr inbounds %"struct.std::_Rb_tree_node", ptr %__i.sroa.0.0.i2140, i64 0, i32 1, i32 0, i64 24
  store i8 1, ptr %d_onlyCrowdAndConcLitsInElim596, align 8
  %add.ptr.i2147 = getelementptr inbounds %"struct.std::pair.106", ptr %228, i64 %storemerge6545
  call void @llvm.lifetime.start.p0(i64 8, ptr nonnull %ref.tmp9.i2148)
  call void @llvm.lifetime.start.p0(i64 1, ptr nonnull %ref.tmp10.i2149)
  %cmp.not5.i.i.i.i2152 = icmp eq ptr %227, null
  br i1 %cmp.not5.i.i.i.i2152, label %if.then.i2179, label %while.body.lr.ph.i.i.i.i2153

while.body.lr.ph.i.i.i.i2153:                     ; preds = %invoke.cont594
  %229 = load ptr, ptr %add.ptr.i2147, align 8
  %bf.load3.i.i.i.i.i.i2154 = load i64, ptr %229, align 8
  %bf.clear4.i.i.i.i.i.i2155 = and i64 %bf.load3.i.i.i.i.i.i2154, 1099511627775
  br label %while.body.i.i.i.i2156

while.body.i.i.i.i2156:                           ; preds = %while.body.i.i.i.i2156, %while.body.lr.ph.i.i.i.i2153
  %__x.addr.07.i.i.i.i2157 = phi ptr [ %227, %while.body.lr.ph.i.i.i.i2153 ], [ %__x.addr.1.i.i.i.i2167, %while.body.i.i.i.i2156 ]
  %__y.addr.06.i.i.i.i2158 = phi ptr [ %10, %while.body.lr.ph.i.i.i.i2153 ], [ %__y.addr.1.i.i.i.i2165, %while.body.i.i.i.i2156 ]
  %_M_storage.i.i.i.i.i.i2159 = getelementptr inbounds %"struct.std::_Rb_tree_node", ptr %__x.addr.07.i.i.i.i2157, i64 0, i32 1
  %230 = load ptr, ptr %_M_storage.i.i.i.i.i.i2159, align 8
  %bf.load.i.i.i.i.i.i2160 = load i64, ptr %230, align 8
  %bf.clear.i.i.i.i.i.i2161 = and i64 %bf.load.i.i.i.i.i.i2160, 1099511627775
  %cmp.i.i.i.i.i.i2162 = icmp ult i64 %bf.clear.i.i.i.i.i.i2161, %bf.clear4.i.i.i.i.i.i2155
  %_M_right.i.i.i.i.i2163 = getelementptr inbounds %"struct.std::_Rb_tree_node_base", ptr %__x.addr.07.i.i.i.i2157, i64 0, i32 3
  %_M_left.i.i.i.i.i2164 = getelementptr inbounds %"struct.std::_Rb_tree_node_base", ptr %__x.addr.07.i.i.i.i2157, i64 0, i32 2
  %__y.addr.1.i.i.i.i2165 = select i1 %cmp.i.i.i.i.i.i2162, ptr %__y.addr.06.i.i.i.i2158, ptr %__x.addr.07.i.i.i.i2157
  %__x.addr.1.in.i.i.i.i2166 = select i1 %cmp.i.i.i.i.i.i2162, ptr %_M_right.i.i.i.i.i2163, ptr %_M_left.i.i.i.i.i2164
  %__x.addr.1.i.i.i.i2167 = load ptr, ptr %__x.addr.1.in.i.i.i.i2166, align 8
  %cmp.not.i.i.i.i2168 = icmp eq ptr %__x.addr.1.i.i.i.i2167, null
  br i1 %cmp.not.i.i.i.i2168, label %_ZNSt3mapIN4cvc58internal12NodeTemplateILb1EEENS1_5proof15CrowdingLitInfoESt4lessIS3_ESaISt4pairIKS3_S5_EEE11lower_boundERS9_.exit.i2169, label %while.body.i.i.i.i2156, !llvm.loop !28

_ZNSt3mapIN4cvc58internal12NodeTemplateILb1EEENS1_5proof15CrowdingLitInfoESt4lessIS3_ESaISt4pairIKS3_S5_EEE11lower_boundERS9_.exit.i2169: ; preds = %while.body.i.i.i.i2156
  %cmp.i.i2170 = icmp eq ptr %__y.addr.1.i.i.i.i2165, %10
  br i1 %cmp.i.i2170, label %if.then.i2179, label %lor.rhs.i2171

lor.rhs.i2171:                                    ; preds = %_ZNSt3mapIN4cvc58internal12NodeTemplateILb1EEENS1_5proof15CrowdingLitInfoESt4lessIS3_ESaISt4pairIKS3_S5_EEE11lower_boundERS9_.exit.i2169
  %_M_storage.i.i.i.i.i.i2159.le = getelementptr inbounds %"struct.std::_Rb_tree_node", ptr %__x.addr.07.i.i.i.i2157, i64 0, i32 1
  %__y.addr.06.i.i.i.i2158.sroa.gep = getelementptr inbounds %"struct.std::_Rb_tree_node", ptr %__y.addr.06.i.i.i.i2158, i64 0, i32 1
  %__y.addr.1.i.i.i.i2165.sroa.sel = select i1 %cmp.i.i.i.i.i.i2162, ptr %__y.addr.06.i.i.i.i2158.sroa.gep, ptr %_M_storage.i.i.i.i.i.i2159.le
  %231 = load ptr, ptr %__y.addr.1.i.i.i.i2165.sroa.sel, align 8
  %bf.load3.i.i.i2173 = load i64, ptr %231, align 8
  %bf.clear4.i.i.i2174 = and i64 %bf.load3.i.i.i2173, 1099511627775
  %cmp.i.i.i2175 = icmp ult i64 %bf.clear4.i.i.i.i.i.i2155, %bf.clear4.i.i.i2174
  br i1 %cmp.i.i.i2175, label %if.then.i2179, label %invoke.cont599

if.then.i2179:                                    ; preds = %lor.rhs.i2171, %_ZNSt3mapIN4cvc58internal12NodeTemplateILb1EEENS1_5proof15CrowdingLitInfoESt4lessIS3_ESaISt4pairIKS3_S5_EEE11lower_boundERS9_.exit.i2169, %invoke.cont594
  %__y.addr.0.lcssa.i.i.i9.i2180 = phi ptr [ %10, %_ZNSt3mapIN4cvc58internal12NodeTemplateILb1EEENS1_5proof15CrowdingLitInfoESt4lessIS3_ESaISt4pairIKS3_S5_EEE11lower_boundERS9_.exit.i2169 ], [ %__y.addr.1.i.i.i.i2165, %lor.rhs.i2171 ], [ %10, %invoke.cont594 ]
  store ptr %add.ptr.i2147, ptr %ref.tmp9.i2148, align 8
  %call12.i2182 = invoke ptr @_ZNSt8_Rb_treeIN4cvc58internal12NodeTemplateILb1EEESt4pairIKS3_NS1_5proof15CrowdingLitInfoEESt10_Select1stIS8_ESt4lessIS3_ESaIS8_EE22_M_emplace_hint_uniqueIJRKSt21piecewise_construct_tSt5tupleIJRS5_EESJ_IJEEEEESt17_Rb_tree_iteratorIS8_ESt23_Rb_tree_const_iteratorIS8_EDpOT_(ptr noundef nonnull align 8 dereferenceable(48) %crowdLitsInfo, ptr %__y.addr.0.lcssa.i.i.i9.i2180, ptr noundef nonnull align 1 dereferenceable(1) @_ZSt19piecewise_construct, ptr noundef nonnull align 8 dereferenceable(8) %ref.tmp9.i2148, ptr noundef nonnull align 1 dereferenceable(1) %ref.tmp10.i2149)
          to label %invoke.cont599 unwind label %lpad354.loopexit.split-lp.loopexit.split-lp

invoke.cont599:                                   ; preds = %lor.rhs.i2171, %if.then.i2179
  %__i.sroa.0.0.i2177 = phi ptr [ %__y.addr.1.i.i.i.i2165, %lor.rhs.i2171 ], [ %call12.i2182, %if.then.i2179 ]
  call void @llvm.lifetime.end.p0(i64 8, ptr nonnull %ref.tmp9.i2148)
  call void @llvm.lifetime.end.p0(i64 1, ptr nonnull %ref.tmp10.i2149)
  br label %cleanup603.sink.split

cleanup603.sink.split:                            ; preds = %invoke.cont416, %invoke.cont599
  %__i.sroa.0.0.i2177.sink = phi ptr [ %__i.sroa.0.0.i2177, %invoke.cont599 ], [ %__i.sroa.0.0.i1494, %invoke.cont416 ]
  %maxSafeMove.2.lcssa.sink = phi i64 [ %maxSafeMove.2, %invoke.cont599 ], [ %sub.ptr.div.i, %invoke.cont416 ]
  %d_maxSafeMovePosition601 = getelementptr inbounds %"struct.std::_Rb_tree_node", ptr %__i.sroa.0.0.i2177.sink, i64 0, i32 1, i32 0, i64 32
  store i64 %maxSafeMove.2.lcssa.sink, ptr %d_maxSafeMovePosition601, align 8
  br label %cleanup603

cleanup603:                                       ; preds = %cleanup603.sink.split, %for.cond420.preheader, %for.end559, %land.lhs.true561
  %232 = load ptr, ptr %crowdingLit, align 8
  %bf.load.i.i2184 = load i64, ptr %232, align 8
  %233 = and i64 %bf.load.i.i2184, 1152920405095219200
  %cmp.not.i.i2185 = icmp eq i64 %233, 1152920405095219200
  br i1 %cmp.not.i.i2185, label %_ZN4cvc58internal12NodeTemplateILb1EED2Ev.exit2195, label %if.then.i.i2186

if.then.i.i2186:                                  ; preds = %cleanup603
  %bf.value.i.i2187 = add i64 %bf.load.i.i2184, 1152920405095219200
  %bf.shl.i.i2188 = and i64 %bf.value.i.i2187, 1152920405095219200
  %bf.clear7.i.i2189 = and i64 %bf.load.i.i2184, -1152920405095219201
  %bf.set.i.i2190 = or disjoint i64 %bf.shl.i.i2188, %bf.clear7.i.i2189
  store i64 %bf.set.i.i2190, ptr %232, align 8
  %cmp12.i.i2191 = icmp eq i64 %bf.shl.i.i2188, 0
  br i1 %cmp12.i.i2191, label %if.then13.i.i2193, label %_ZN4cvc58internal12NodeTemplateILb1EED2Ev.exit2195

if.then13.i.i2193:                                ; preds = %if.then.i.i2186
  invoke void @_ZN4cvc58internal4expr9NodeValue15markForDeletionEv(ptr noundef nonnull align 8 dereferenceable(16) %232)
          to label %_ZN4cvc58internal12NodeTemplateILb1EED2Ev.exit2195 unwind label %terminate.lpad.i2194

terminate.lpad.i2194:                             ; preds = %if.then13.i.i2193
  %234 = landingpad { ptr, i32 }
          catch ptr null
  %235 = extractvalue { ptr, i32 } %234, 0
  call void @__clang_call_terminate(ptr %235) #22
  unreachable

_ZN4cvc58internal12NodeTemplateILb1EED2Ev.exit2195: ; preds = %cleanup603, %if.then.i.i2186, %if.then13.i.i2193
  %inc608 = add nuw i64 %storemerge6545, 1
  %exitcond6650.not = icmp eq i64 %inc608, %umax6649
  br i1 %exitcond6650.not, label %for.cond743.preheader, label %for.body351, !llvm.loop !61

ehcleanup606:                                     ; preds = %lpad354.loopexit, %lpad354.loopexit.split-lp.loopexit.split-lp, %lpad354.loopexit.split-lp.loopexit, %lpad371, %cleanup.action385, %ehcleanup550, %lpad483, %lpad435
  %.pn109 = phi { ptr, i32 } [ %.pn106, %ehcleanup550 ], [ %195, %lpad483 ], [ %182, %lpad435 ], [ %144, %cleanup.action385 ], [ %144, %lpad371 ], [ %lpad.loopexit6214, %lpad354.loopexit ], [ %lpad.loopexit6219, %lpad354.loopexit.split-lp.loopexit ], [ %lpad.loopexit.split-lp6220, %lpad354.loopexit.split-lp.loopexit.split-lp ]
  call void @_ZN4cvc58internal12NodeTemplateILb1EED2Ev(ptr noundef nonnull align 8 dereferenceable(8) %crowdingLit) #21
  br label %ehcleanup1590

for.body745:                                      ; preds = %for.body745.preheader, %_ZN4cvc58internal12NodeTemplateILb1EED2Ev.exit3340
  %i742.06550 = phi i64 [ %inc951, %_ZN4cvc58internal12NodeTemplateILb1EED2Ev.exit3340 ], [ 0, %for.body745.preheader ]
  %counterMoved.06549 = phi i32 [ %counterMoved.1, %_ZN4cvc58internal12NodeTemplateILb1EED2Ev.exit3340 ], [ 0, %for.body745.preheader ]
  %236 = load ptr, ptr %lastInclusion, align 8
  %add.ptr.i2805 = getelementptr inbounds %"struct.std::pair.106", ptr %236, i64 %i742.06550
  %237 = load ptr, ptr %add.ptr.i2805, align 8
  store ptr %237, ptr %crowdingLit746, align 8
  %bf.load.i.i2806 = load i64, ptr %237, align 8
  %bf.lshr.i.i2807 = lshr i64 %bf.load.i.i2806, 40
  %238 = trunc i64 %bf.lshr.i.i2807 to i32
  %bf.cast.i.i2808 = and i32 %238, 1048575
  %cmp.i.i2809 = icmp ult i32 %bf.cast.i.i2808, 1048574
  br i1 %cmp.i.i2809, label %if.then.i.i2814, label %if.else.i.i2810

if.then.i.i2814:                                  ; preds = %for.body745
  %bf.value.i.i2815 = add i64 %bf.load.i.i2806, 1099511627776
  %bf.shl.i.i2816 = and i64 %bf.value.i.i2815, 1152920405095219200
  %bf.clear7.i.i2817 = and i64 %bf.load.i.i2806, -1152920405095219201
  %bf.set.i.i2818 = or disjoint i64 %bf.shl.i.i2816, %bf.clear7.i.i2817
  store i64 %bf.set.i.i2818, ptr %237, align 8
  br label %invoke.cont749

if.else.i.i2810:                                  ; preds = %for.body745
  %cmp12.i.i2811 = icmp eq i32 %bf.cast.i.i2808, 1048574
  br i1 %cmp12.i.i2811, label %if.then13.i.i2812, label %invoke.cont749

if.then13.i.i2812:                                ; preds = %if.else.i.i2810
  %bf.set23.i.i2813 = or i64 %bf.load.i.i2806, 1152920405095219200
  store i64 %bf.set23.i.i2813, ptr %237, align 8
  invoke void @_ZN4cvc58internal4expr9NodeValue20markRefCountMaxedOutEv(ptr noundef nonnull align 8 dereferenceable(16) %237)
          to label %invoke.cont749 unwind label %lpad34.loopexit.split-lp.loopexit.split-lp.loopexit

invoke.cont749:                                   ; preds = %if.else.i.i2810, %if.then.i.i2814, %if.then13.i.i2812
  call void @llvm.lifetime.start.p0(i64 8, ptr nonnull %ref.tmp9.i2821)
  call void @llvm.lifetime.start.p0(i64 1, ptr nonnull %ref.tmp10.i2822)
  %239 = load ptr, ptr %_M_parent.i.i.i.i.i, align 8
  %cmp.not5.i.i.i.i2825 = icmp eq ptr %239, null
  br i1 %cmp.not5.i.i.i.i2825, label %if.then.i2852, label %while.body.lr.ph.i.i.i.i2826

while.body.lr.ph.i.i.i.i2826:                     ; preds = %invoke.cont749
  %240 = load ptr, ptr %crowdingLit746, align 8
  %bf.load3.i.i.i.i.i.i2827 = load i64, ptr %240, align 8
  %bf.clear4.i.i.i.i.i.i2828 = and i64 %bf.load3.i.i.i.i.i.i2827, 1099511627775
  br label %while.body.i.i.i.i2829

while.body.i.i.i.i2829:                           ; preds = %while.body.i.i.i.i2829, %while.body.lr.ph.i.i.i.i2826
  %__x.addr.07.i.i.i.i2830 = phi ptr [ %239, %while.body.lr.ph.i.i.i.i2826 ], [ %__x.addr.1.i.i.i.i2840, %while.body.i.i.i.i2829 ]
  %__y.addr.06.i.i.i.i2831 = phi ptr [ %10, %while.body.lr.ph.i.i.i.i2826 ], [ %__y.addr.1.i.i.i.i2838, %while.body.i.i.i.i2829 ]
  %_M_storage.i.i.i.i.i.i2832 = getelementptr inbounds %"struct.std::_Rb_tree_node", ptr %__x.addr.07.i.i.i.i2830, i64 0, i32 1
  %241 = load ptr, ptr %_M_storage.i.i.i.i.i.i2832, align 8
  %bf.load.i.i.i.i.i.i2833 = load i64, ptr %241, align 8
  %bf.clear.i.i.i.i.i.i2834 = and i64 %bf.load.i.i.i.i.i.i2833, 1099511627775
  %cmp.i.i.i.i.i.i2835 = icmp ult i64 %bf.clear.i.i.i.i.i.i2834, %bf.clear4.i.i.i.i.i.i2828
  %_M_right.i.i.i.i.i2836 = getelementptr inbounds %"struct.std::_Rb_tree_node_base", ptr %__x.addr.07.i.i.i.i2830, i64 0, i32 3
  %_M_left.i.i.i.i.i2837 = getelementptr inbounds %"struct.std::_Rb_tree_node_base", ptr %__x.addr.07.i.i.i.i2830, i64 0, i32 2
  %__y.addr.1.i.i.i.i2838 = select i1 %cmp.i.i.i.i.i.i2835, ptr %__y.addr.06.i.i.i.i2831, ptr %__x.addr.07.i.i.i.i2830
  %__x.addr.1.in.i.i.i.i2839 = select i1 %cmp.i.i.i.i.i.i2835, ptr %_M_right.i.i.i.i.i2836, ptr %_M_left.i.i.i.i.i2837
  %__x.addr.1.i.i.i.i2840 = load ptr, ptr %__x.addr.1.in.i.i.i.i2839, align 8
  %cmp.not.i.i.i.i2841 = icmp eq ptr %__x.addr.1.i.i.i.i2840, null
  br i1 %cmp.not.i.i.i.i2841, label %_ZNSt3mapIN4cvc58internal12NodeTemplateILb1EEENS1_5proof15CrowdingLitInfoESt4lessIS3_ESaISt4pairIKS3_S5_EEE11lower_boundERS9_.exit.i2842, label %while.body.i.i.i.i2829, !llvm.loop !28

_ZNSt3mapIN4cvc58internal12NodeTemplateILb1EEENS1_5proof15CrowdingLitInfoESt4lessIS3_ESaISt4pairIKS3_S5_EEE11lower_boundERS9_.exit.i2842: ; preds = %while.body.i.i.i.i2829
  %cmp.i.i2843 = icmp eq ptr %__y.addr.1.i.i.i.i2838, %10
  br i1 %cmp.i.i2843, label %if.then.i2852, label %lor.rhs.i2844

lor.rhs.i2844:                                    ; preds = %_ZNSt3mapIN4cvc58internal12NodeTemplateILb1EEENS1_5proof15CrowdingLitInfoESt4lessIS3_ESaISt4pairIKS3_S5_EEE11lower_boundERS9_.exit.i2842
  %_M_storage.i.i.i.i.i.i2832.le = getelementptr inbounds %"struct.std::_Rb_tree_node", ptr %__x.addr.07.i.i.i.i2830, i64 0, i32 1
  %__y.addr.06.i.i.i.i2831.sroa.gep = getelementptr inbounds %"struct.std::_Rb_tree_node", ptr %__y.addr.06.i.i.i.i2831, i64 0, i32 1
  %__y.addr.1.i.i.i.i2838.sroa.sel = select i1 %cmp.i.i.i.i.i.i2835, ptr %__y.addr.06.i.i.i.i2831.sroa.gep, ptr %_M_storage.i.i.i.i.i.i2832.le
  %242 = load ptr, ptr %__y.addr.1.i.i.i.i2838.sroa.sel, align 8
  %bf.load3.i.i.i2846 = load i64, ptr %242, align 8
  %bf.clear4.i.i.i2847 = and i64 %bf.load3.i.i.i2846, 1099511627775
  %cmp.i.i.i2848 = icmp ult i64 %bf.clear4.i.i.i.i.i.i2828, %bf.clear4.i.i.i2847
  br i1 %cmp.i.i.i2848, label %if.then.i2852, label %invoke.cont752

if.then.i2852:                                    ; preds = %lor.rhs.i2844, %_ZNSt3mapIN4cvc58internal12NodeTemplateILb1EEENS1_5proof15CrowdingLitInfoESt4lessIS3_ESaISt4pairIKS3_S5_EEE11lower_boundERS9_.exit.i2842, %invoke.cont749
  %__y.addr.0.lcssa.i.i.i9.i2853 = phi ptr [ %10, %_ZNSt3mapIN4cvc58internal12NodeTemplateILb1EEENS1_5proof15CrowdingLitInfoESt4lessIS3_ESaISt4pairIKS3_S5_EEE11lower_boundERS9_.exit.i2842 ], [ %__y.addr.1.i.i.i.i2838, %lor.rhs.i2844 ], [ %10, %invoke.cont749 ]
  store ptr %crowdingLit746, ptr %ref.tmp9.i2821, align 8
  %call12.i2855 = invoke ptr @_ZNSt8_Rb_treeIN4cvc58internal12NodeTemplateILb1EEESt4pairIKS3_NS1_5proof15CrowdingLitInfoEESt10_Select1stIS8_ESt4lessIS3_ESaIS8_EE22_M_emplace_hint_uniqueIJRKSt21piecewise_construct_tSt5tupleIJRS5_EESJ_IJEEEEESt17_Rb_tree_iteratorIS8_ESt23_Rb_tree_const_iteratorIS8_EDpOT_(ptr noundef nonnull align 8 dereferenceable(48) %crowdLitsInfo, ptr %__y.addr.0.lcssa.i.i.i9.i2853, ptr noundef nonnull align 1 dereferenceable(1) @_ZSt19piecewise_construct, ptr noundef nonnull align 8 dereferenceable(8) %ref.tmp9.i2821, ptr noundef nonnull align 1 dereferenceable(1) %ref.tmp10.i2822)
          to label %if.then.i2852.invoke.cont752_crit_edge unwind label %lpad751

if.then.i2852.invoke.cont752_crit_edge:           ; preds = %if.then.i2852
  %.pre6671 = load ptr, ptr %_M_parent.i.i.i.i.i, align 8
  br label %invoke.cont752

invoke.cont752:                                   ; preds = %if.then.i2852.invoke.cont752_crit_edge, %lor.rhs.i2844
  %243 = phi ptr [ %239, %lor.rhs.i2844 ], [ %.pre6671, %if.then.i2852.invoke.cont752_crit_edge ]
  %__i.sroa.0.0.i2850 = phi ptr [ %__y.addr.1.i.i.i.i2838, %lor.rhs.i2844 ], [ %call12.i2855, %if.then.i2852.invoke.cont752_crit_edge ]
  call void @llvm.lifetime.end.p0(i64 8, ptr nonnull %ref.tmp9.i2821)
  call void @llvm.lifetime.end.p0(i64 1, ptr nonnull %ref.tmp10.i2822)
  %d_eliminator754 = getelementptr inbounds %"struct.std::_Rb_tree_node", ptr %__i.sroa.0.0.i2850, i64 0, i32 1, i32 0, i64 16
  %244 = load i64, ptr %d_eliminator754, align 8
  call void @llvm.lifetime.start.p0(i64 8, ptr nonnull %ref.tmp9.i2857)
  call void @llvm.lifetime.start.p0(i64 1, ptr nonnull %ref.tmp10.i2858)
  %cmp.not5.i.i.i.i2861 = icmp eq ptr %243, null
  br i1 %cmp.not5.i.i.i.i2861, label %if.then.i2888, label %while.body.lr.ph.i.i.i.i2862

while.body.lr.ph.i.i.i.i2862:                     ; preds = %invoke.cont752
  %245 = load ptr, ptr %crowdingLit746, align 8
  %bf.load3.i.i.i.i.i.i2863 = load i64, ptr %245, align 8
  %bf.clear4.i.i.i.i.i.i2864 = and i64 %bf.load3.i.i.i.i.i.i2863, 1099511627775
  br label %while.body.i.i.i.i2865

while.body.i.i.i.i2865:                           ; preds = %while.body.i.i.i.i2865, %while.body.lr.ph.i.i.i.i2862
  %__x.addr.07.i.i.i.i2866 = phi ptr [ %243, %while.body.lr.ph.i.i.i.i2862 ], [ %__x.addr.1.i.i.i.i2876, %while.body.i.i.i.i2865 ]
  %__y.addr.06.i.i.i.i2867 = phi ptr [ %10, %while.body.lr.ph.i.i.i.i2862 ], [ %__y.addr.1.i.i.i.i2874, %while.body.i.i.i.i2865 ]
  %_M_storage.i.i.i.i.i.i2868 = getelementptr inbounds %"struct.std::_Rb_tree_node", ptr %__x.addr.07.i.i.i.i2866, i64 0, i32 1
  %246 = load ptr, ptr %_M_storage.i.i.i.i.i.i2868, align 8
  %bf.load.i.i.i.i.i.i2869 = load i64, ptr %246, align 8
  %bf.clear.i.i.i.i.i.i2870 = and i64 %bf.load.i.i.i.i.i.i2869, 1099511627775
  %cmp.i.i.i.i.i.i2871 = icmp ult i64 %bf.clear.i.i.i.i.i.i2870, %bf.clear4.i.i.i.i.i.i2864
  %_M_right.i.i.i.i.i2872 = getelementptr inbounds %"struct.std::_Rb_tree_node_base", ptr %__x.addr.07.i.i.i.i2866, i64 0, i32 3
  %_M_left.i.i.i.i.i2873 = getelementptr inbounds %"struct.std::_Rb_tree_node_base", ptr %__x.addr.07.i.i.i.i2866, i64 0, i32 2
  %__y.addr.1.i.i.i.i2874 = select i1 %cmp.i.i.i.i.i.i2871, ptr %__y.addr.06.i.i.i.i2867, ptr %__x.addr.07.i.i.i.i2866
  %__x.addr.1.in.i.i.i.i2875 = select i1 %cmp.i.i.i.i.i.i2871, ptr %_M_right.i.i.i.i.i2872, ptr %_M_left.i.i.i.i.i2873
  %__x.addr.1.i.i.i.i2876 = load ptr, ptr %__x.addr.1.in.i.i.i.i2875, align 8
  %cmp.not.i.i.i.i2877 = icmp eq ptr %__x.addr.1.i.i.i.i2876, null
  br i1 %cmp.not.i.i.i.i2877, label %_ZNSt3mapIN4cvc58internal12NodeTemplateILb1EEENS1_5proof15CrowdingLitInfoESt4lessIS3_ESaISt4pairIKS3_S5_EEE11lower_boundERS9_.exit.i2878, label %while.body.i.i.i.i2865, !llvm.loop !28

_ZNSt3mapIN4cvc58internal12NodeTemplateILb1EEENS1_5proof15CrowdingLitInfoESt4lessIS3_ESaISt4pairIKS3_S5_EEE11lower_boundERS9_.exit.i2878: ; preds = %while.body.i.i.i.i2865
  %cmp.i.i2879 = icmp eq ptr %__y.addr.1.i.i.i.i2874, %10
  br i1 %cmp.i.i2879, label %if.then.i2888, label %lor.rhs.i2880

lor.rhs.i2880:                                    ; preds = %_ZNSt3mapIN4cvc58internal12NodeTemplateILb1EEENS1_5proof15CrowdingLitInfoESt4lessIS3_ESaISt4pairIKS3_S5_EEE11lower_boundERS9_.exit.i2878
  %_M_storage.i.i.i.i.i.i2868.le = getelementptr inbounds %"struct.std::_Rb_tree_node", ptr %__x.addr.07.i.i.i.i2866, i64 0, i32 1
  %__y.addr.06.i.i.i.i2867.sroa.gep = getelementptr inbounds %"struct.std::_Rb_tree_node", ptr %__y.addr.06.i.i.i.i2867, i64 0, i32 1
  %__y.addr.1.i.i.i.i2874.sroa.sel = select i1 %cmp.i.i.i.i.i.i2871, ptr %__y.addr.06.i.i.i.i2867.sroa.gep, ptr %_M_storage.i.i.i.i.i.i2868.le
  %247 = load ptr, ptr %__y.addr.1.i.i.i.i2874.sroa.sel, align 8
  %bf.load3.i.i.i2882 = load i64, ptr %247, align 8
  %bf.clear4.i.i.i2883 = and i64 %bf.load3.i.i.i2882, 1099511627775
  %cmp.i.i.i2884 = icmp ult i64 %bf.clear4.i.i.i.i.i.i2864, %bf.clear4.i.i.i2883
  br i1 %cmp.i.i.i2884, label %if.then.i2888, label %invoke.cont756

if.then.i2888:                                    ; preds = %lor.rhs.i2880, %_ZNSt3mapIN4cvc58internal12NodeTemplateILb1EEENS1_5proof15CrowdingLitInfoESt4lessIS3_ESaISt4pairIKS3_S5_EEE11lower_boundERS9_.exit.i2878, %invoke.cont752
  %__y.addr.0.lcssa.i.i.i9.i2889 = phi ptr [ %10, %_ZNSt3mapIN4cvc58internal12NodeTemplateILb1EEENS1_5proof15CrowdingLitInfoESt4lessIS3_ESaISt4pairIKS3_S5_EEE11lower_boundERS9_.exit.i2878 ], [ %__y.addr.1.i.i.i.i2874, %lor.rhs.i2880 ], [ %10, %invoke.cont752 ]
  store ptr %crowdingLit746, ptr %ref.tmp9.i2857, align 8
  %call12.i2891 = invoke ptr @_ZNSt8_Rb_treeIN4cvc58internal12NodeTemplateILb1EEESt4pairIKS3_NS1_5proof15CrowdingLitInfoEESt10_Select1stIS8_ESt4lessIS3_ESaIS8_EE22_M_emplace_hint_uniqueIJRKSt21piecewise_construct_tSt5tupleIJRS5_EESJ_IJEEEEESt17_Rb_tree_iteratorIS8_ESt23_Rb_tree_const_iteratorIS8_EDpOT_(ptr noundef nonnull align 8 dereferenceable(48) %crowdLitsInfo, ptr %__y.addr.0.lcssa.i.i.i9.i2889, ptr noundef nonnull align 1 dereferenceable(1) @_ZSt19piecewise_construct, ptr noundef nonnull align 8 dereferenceable(8) %ref.tmp9.i2857, ptr noundef nonnull align 1 dereferenceable(1) %ref.tmp10.i2858)
          to label %if.then.i2888.invoke.cont756_crit_edge unwind label %lpad751

if.then.i2888.invoke.cont756_crit_edge:           ; preds = %if.then.i2888
  %.pre6672 = load ptr, ptr %_M_parent.i.i.i.i.i, align 8
  br label %invoke.cont756

invoke.cont756:                                   ; preds = %if.then.i2888.invoke.cont756_crit_edge, %lor.rhs.i2880
  %248 = phi ptr [ %243, %lor.rhs.i2880 ], [ %.pre6672, %if.then.i2888.invoke.cont756_crit_edge ]
  %__i.sroa.0.0.i2886 = phi ptr [ %__y.addr.1.i.i.i.i2874, %lor.rhs.i2880 ], [ %call12.i2891, %if.then.i2888.invoke.cont756_crit_edge ]
  call void @llvm.lifetime.end.p0(i64 8, ptr nonnull %ref.tmp9.i2857)
  call void @llvm.lifetime.end.p0(i64 1, ptr nonnull %ref.tmp10.i2858)
  %d_maxSafeMovePosition758 = getelementptr inbounds %"struct.std::_Rb_tree_node", ptr %__i.sroa.0.0.i2886, i64 0, i32 1, i32 0, i64 32
  %249 = load i64, ptr %d_maxSafeMovePosition758, align 8
  call void @llvm.lifetime.start.p0(i64 8, ptr nonnull %ref.tmp9.i2893)
  call void @llvm.lifetime.start.p0(i64 1, ptr nonnull %ref.tmp10.i2894)
  %cmp.not5.i.i.i.i2897 = icmp eq ptr %248, null
  br i1 %cmp.not5.i.i.i.i2897, label %if.then.i2924, label %while.body.lr.ph.i.i.i.i2898

while.body.lr.ph.i.i.i.i2898:                     ; preds = %invoke.cont756
  %250 = load ptr, ptr %crowdingLit746, align 8
  %bf.load3.i.i.i.i.i.i2899 = load i64, ptr %250, align 8
  %bf.clear4.i.i.i.i.i.i2900 = and i64 %bf.load3.i.i.i.i.i.i2899, 1099511627775
  br label %while.body.i.i.i.i2901

while.body.i.i.i.i2901:                           ; preds = %while.body.i.i.i.i2901, %while.body.lr.ph.i.i.i.i2898
  %__x.addr.07.i.i.i.i2902 = phi ptr [ %248, %while.body.lr.ph.i.i.i.i2898 ], [ %__x.addr.1.i.i.i.i2912, %while.body.i.i.i.i2901 ]
  %__y.addr.06.i.i.i.i2903 = phi ptr [ %10, %while.body.lr.ph.i.i.i.i2898 ], [ %__y.addr.1.i.i.i.i2910, %while.body.i.i.i.i2901 ]
  %_M_storage.i.i.i.i.i.i2904 = getelementptr inbounds %"struct.std::_Rb_tree_node", ptr %__x.addr.07.i.i.i.i2902, i64 0, i32 1
  %251 = load ptr, ptr %_M_storage.i.i.i.i.i.i2904, align 8
  %bf.load.i.i.i.i.i.i2905 = load i64, ptr %251, align 8
  %bf.clear.i.i.i.i.i.i2906 = and i64 %bf.load.i.i.i.i.i.i2905, 1099511627775
  %cmp.i.i.i.i.i.i2907 = icmp ult i64 %bf.clear.i.i.i.i.i.i2906, %bf.clear4.i.i.i.i.i.i2900
  %_M_right.i.i.i.i.i2908 = getelementptr inbounds %"struct.std::_Rb_tree_node_base", ptr %__x.addr.07.i.i.i.i2902, i64 0, i32 3
  %_M_left.i.i.i.i.i2909 = getelementptr inbounds %"struct.std::_Rb_tree_node_base", ptr %__x.addr.07.i.i.i.i2902, i64 0, i32 2
  %__y.addr.1.i.i.i.i2910 = select i1 %cmp.i.i.i.i.i.i2907, ptr %__y.addr.06.i.i.i.i2903, ptr %__x.addr.07.i.i.i.i2902
  %__x.addr.1.in.i.i.i.i2911 = select i1 %cmp.i.i.i.i.i.i2907, ptr %_M_right.i.i.i.i.i2908, ptr %_M_left.i.i.i.i.i2909
  %__x.addr.1.i.i.i.i2912 = load ptr, ptr %__x.addr.1.in.i.i.i.i2911, align 8
  %cmp.not.i.i.i.i2913 = icmp eq ptr %__x.addr.1.i.i.i.i2912, null
  br i1 %cmp.not.i.i.i.i2913, label %_ZNSt3mapIN4cvc58internal12NodeTemplateILb1EEENS1_5proof15CrowdingLitInfoESt4lessIS3_ESaISt4pairIKS3_S5_EEE11lower_boundERS9_.exit.i2914, label %while.body.i.i.i.i2901, !llvm.loop !28

_ZNSt3mapIN4cvc58internal12NodeTemplateILb1EEENS1_5proof15CrowdingLitInfoESt4lessIS3_ESaISt4pairIKS3_S5_EEE11lower_boundERS9_.exit.i2914: ; preds = %while.body.i.i.i.i2901
  %cmp.i.i2915 = icmp eq ptr %__y.addr.1.i.i.i.i2910, %10
  br i1 %cmp.i.i2915, label %if.then.i2924, label %lor.rhs.i2916

lor.rhs.i2916:                                    ; preds = %_ZNSt3mapIN4cvc58internal12NodeTemplateILb1EEENS1_5proof15CrowdingLitInfoESt4lessIS3_ESaISt4pairIKS3_S5_EEE11lower_boundERS9_.exit.i2914
  %_M_storage.i.i.i.i.i.i2904.le = getelementptr inbounds %"struct.std::_Rb_tree_node", ptr %__x.addr.07.i.i.i.i2902, i64 0, i32 1
  %__y.addr.06.i.i.i.i2903.sroa.gep = getelementptr inbounds %"struct.std::_Rb_tree_node", ptr %__y.addr.06.i.i.i.i2903, i64 0, i32 1
  %__y.addr.1.i.i.i.i2910.sroa.sel = select i1 %cmp.i.i.i.i.i.i2907, ptr %__y.addr.06.i.i.i.i2903.sroa.gep, ptr %_M_storage.i.i.i.i.i.i2904.le
  %252 = load ptr, ptr %__y.addr.1.i.i.i.i2910.sroa.sel, align 8
  %bf.load3.i.i.i2918 = load i64, ptr %252, align 8
  %bf.clear4.i.i.i2919 = and i64 %bf.load3.i.i.i2918, 1099511627775
  %cmp.i.i.i2920 = icmp ult i64 %bf.clear4.i.i.i.i.i.i2900, %bf.clear4.i.i.i2919
  br i1 %cmp.i.i.i2920, label %if.then.i2924, label %invoke.cont759

if.then.i2924:                                    ; preds = %lor.rhs.i2916, %_ZNSt3mapIN4cvc58internal12NodeTemplateILb1EEENS1_5proof15CrowdingLitInfoESt4lessIS3_ESaISt4pairIKS3_S5_EEE11lower_boundERS9_.exit.i2914, %invoke.cont756
  %__y.addr.0.lcssa.i.i.i9.i2925 = phi ptr [ %10, %_ZNSt3mapIN4cvc58internal12NodeTemplateILb1EEENS1_5proof15CrowdingLitInfoESt4lessIS3_ESaISt4pairIKS3_S5_EEE11lower_boundERS9_.exit.i2914 ], [ %__y.addr.1.i.i.i.i2910, %lor.rhs.i2916 ], [ %10, %invoke.cont756 ]
  store ptr %crowdingLit746, ptr %ref.tmp9.i2893, align 8
  %call12.i2927 = invoke ptr @_ZNSt8_Rb_treeIN4cvc58internal12NodeTemplateILb1EEESt4pairIKS3_NS1_5proof15CrowdingLitInfoEESt10_Select1stIS8_ESt4lessIS3_ESaIS8_EE22_M_emplace_hint_uniqueIJRKSt21piecewise_construct_tSt5tupleIJRS5_EESJ_IJEEEEESt17_Rb_tree_iteratorIS8_ESt23_Rb_tree_const_iteratorIS8_EDpOT_(ptr noundef nonnull align 8 dereferenceable(48) %crowdLitsInfo, ptr %__y.addr.0.lcssa.i.i.i9.i2925, ptr noundef nonnull align 1 dereferenceable(1) @_ZSt19piecewise_construct, ptr noundef nonnull align 8 dereferenceable(8) %ref.tmp9.i2893, ptr noundef nonnull align 1 dereferenceable(1) %ref.tmp10.i2894)
          to label %invoke.cont759 unwind label %lpad751

invoke.cont759:                                   ; preds = %lor.rhs.i2916, %if.then.i2924
  %__i.sroa.0.0.i2922 = phi ptr [ %__y.addr.1.i.i.i.i2910, %lor.rhs.i2916 ], [ %call12.i2927, %if.then.i2924 ]
  call void @llvm.lifetime.end.p0(i64 8, ptr nonnull %ref.tmp9.i2893)
  call void @llvm.lifetime.end.p0(i64 1, ptr nonnull %ref.tmp10.i2894)
  %d_onlyCrowdAndConcLitsInElim761 = getelementptr inbounds %"struct.std::_Rb_tree_node", ptr %__i.sroa.0.0.i2922, i64 0, i32 1, i32 0, i64 24
  %253 = load i8, ptr %d_onlyCrowdAndConcLitsInElim761, align 8
  %254 = and i8 %253, 1
  %tobool762.not = icmp eq i8 %254, 0
  %sub764 = sub i64 %249, %244
  %cmp765 = icmp ult i64 %sub764, 2
  %or.cond6200 = select i1 %tobool762.not, i1 true, i1 %cmp765
  br i1 %or.cond6200, label %invoke.cont759.cleanup946_crit_edge, label %cond.true772

invoke.cont759.cleanup946_crit_edge:              ; preds = %invoke.cont759
  %.pre6673 = load ptr, ptr %crowdingLit746, align 8
  br label %cleanup946

lpad751:                                          ; preds = %invoke.cont816, %cond.true772, %if.then.i2924, %if.then.i2888, %if.then.i2852
  %255 = landingpad { ptr, i32 }
          cleanup
  call void @_ZN4cvc58internal12NodeTemplateILb1EED2Ev(ptr noundef nonnull align 8 dereferenceable(8) %crowdingLit746) #21
  br label %ehcleanup1590

cond.true772:                                     ; preds = %invoke.cont759
  %inc768 = add i32 %counterMoved.06549, 1
  %256 = load ptr, ptr %newChildren, align 8
  %add.ptr.i3103 = getelementptr inbounds %"class.cvc5::internal::NodeTemplate", ptr %256, i64 %244
  %add.ptr.i3105 = getelementptr inbounds %"class.cvc5::internal::NodeTemplate", ptr %add.ptr.i3103, i64 1
  %add.ptr.i3106 = getelementptr inbounds %"class.cvc5::internal::NodeTemplate", ptr %256, i64 %249
  %call.i31073108 = invoke ptr @_ZNSt3_V28__rotateIN9__gnu_cxx17__normal_iteratorIPN4cvc58internal12NodeTemplateILb1EEESt6vectorIS6_SaIS6_EEEEEET_SC_SC_SC_St26random_access_iterator_tag(ptr %add.ptr.i3103, ptr nonnull %add.ptr.i3105, ptr %add.ptr.i3106)
          to label %invoke.cont816 unwind label %lpad751

invoke.cont816:                                   ; preds = %cond.true772
  %257 = load ptr, ptr %newArgs, align 8
  %mul825 = shl i64 %244, 1
  %add.ptr.i3109 = getelementptr inbounds %"class.cvc5::internal::NodeTemplate", ptr %257, i64 %mul825
  %add.ptr.i3110 = getelementptr inbounds %"class.cvc5::internal::NodeTemplate", ptr %add.ptr.i3109, i64 -1
  %add.ptr.i3112 = getelementptr inbounds %"class.cvc5::internal::NodeTemplate", ptr %add.ptr.i3109, i64 1
  %mul845 = shl i64 %249, 1
  %add.ptr.i3113 = getelementptr inbounds %"class.cvc5::internal::NodeTemplate", ptr %257, i64 %mul845
  %add.ptr.i3114 = getelementptr inbounds %"class.cvc5::internal::NodeTemplate", ptr %add.ptr.i3113, i64 -1
  %call.i31153116 = invoke ptr @_ZNSt3_V28__rotateIN9__gnu_cxx17__normal_iteratorIPN4cvc58internal12NodeTemplateILb1EEESt6vectorIS6_SaIS6_EEEEEET_SC_SC_SC_St26random_access_iterator_tag(ptr nonnull %add.ptr.i3110, ptr nonnull %add.ptr.i3112, ptr nonnull %add.ptr.i3114)
          to label %invoke.cont853 unwind label %lpad751

invoke.cont853:                                   ; preds = %invoke.cont816
  %258 = load ptr, ptr %_M_left.i.i.i.i.i, align 8
  %cmp.i3119.not6546 = icmp eq ptr %258, %10
  %.pre6674 = load ptr, ptr %crowdingLit746, align 8
  br i1 %cmp.i3119.not6546, label %cleanup946, label %for.body863.lr.ph

for.body863.lr.ph:                                ; preds = %invoke.cont853
  %add874 = add i64 %244, 1
  %sub869 = add i64 %249, -1
  br label %for.body863

for.body863:                                      ; preds = %for.body863.lr.ph, %for.inc943
  %__begin4.sroa.0.06547 = phi ptr [ %258, %for.body863.lr.ph ], [ %call.i3328, %for.inc943 ]
  %_M_storage.i.i = getelementptr inbounds %"struct.std::_Rb_tree_node", ptr %__begin4.sroa.0.06547, i64 0, i32 1
  %259 = load ptr, ptr %_M_storage.i.i, align 8
  %cmp.i3120 = icmp eq ptr %259, %.pre6674
  br i1 %cmp.i3120, label %if.then868, label %if.end871

if.then868:                                       ; preds = %for.body863
  %d_eliminator870 = getelementptr inbounds %"struct.std::_Rb_tree_node", ptr %__begin4.sroa.0.06547, i64 0, i32 1, i32 0, i64 16
  store i64 %sub869, ptr %d_eliminator870, align 8
  br label %for.inc943

if.end871:                                        ; preds = %for.body863
  %second872 = getelementptr inbounds %"struct.std::_Rb_tree_node", ptr %__begin4.sroa.0.06547, i64 0, i32 1, i32 0, i64 8
  %260 = load i64, ptr %second872, align 8
  %cmp875.not = icmp uge i64 %260, %add874
  %cmp879 = icmp ult i64 %260, %249
  %or.cond120 = select i1 %cmp875.not, i1 %cmp879, i1 false
  br i1 %or.cond120, label %if.then880, label %if.end884

if.then880:                                       ; preds = %if.end871
  %dec883 = add i64 %260, -1
  store i64 %dec883, ptr %second872, align 8
  br label %if.end884

if.end884:                                        ; preds = %if.then880, %if.end871
  %d_eliminator886 = getelementptr inbounds %"struct.std::_Rb_tree_node", ptr %__begin4.sroa.0.06547, i64 0, i32 1, i32 0, i64 16
  %261 = load i64, ptr %d_eliminator886, align 8
  %cmp888.not = icmp uge i64 %261, %add874
  %cmp892 = icmp ult i64 %261, %249
  %or.cond121 = select i1 %cmp888.not, i1 %cmp892, i1 false
  br i1 %or.cond121, label %if.then893, label %if.end897

if.then893:                                       ; preds = %if.end884
  %dec896 = add i64 %261, -1
  store i64 %dec896, ptr %d_eliminator886, align 8
  br label %if.end897

if.end897:                                        ; preds = %if.then893, %if.end884
  %d_onlyCrowdAndConcLitsInElim899 = getelementptr inbounds %"struct.std::_Rb_tree_node", ptr %__begin4.sroa.0.06547, i64 0, i32 1, i32 0, i64 24
  %262 = load i8, ptr %d_onlyCrowdAndConcLitsInElim899, align 8
  %263 = and i8 %262, 1
  %tobool900.not = icmp eq i8 %263, 0
  br i1 %tobool900.not, label %for.inc943, label %land.lhs.true901

land.lhs.true901:                                 ; preds = %if.end897
  %d_maxSafeMovePosition903 = getelementptr inbounds %"struct.std::_Rb_tree_node", ptr %__begin4.sroa.0.06547, i64 0, i32 1, i32 0, i64 32
  %264 = load i64, ptr %d_maxSafeMovePosition903, align 8
  %cmp905.not = icmp uge i64 %264, %add874
  %cmp909 = icmp ult i64 %264, %249
  %or.cond122 = select i1 %cmp905.not, i1 %cmp909, i1 false
  br i1 %or.cond122, label %if.end914.thread, label %for.inc943

if.end914.thread:                                 ; preds = %land.lhs.true901
  %dec913 = add i64 %264, -1
  store i64 %dec913, ptr %d_maxSafeMovePosition903, align 8
  br label %for.inc943

for.inc943:                                       ; preds = %if.end897, %land.lhs.true901, %if.end914.thread, %if.then868
  %call.i3328 = call noundef ptr @_ZSt18_Rb_tree_incrementPSt18_Rb_tree_node_base(ptr noundef nonnull %__begin4.sroa.0.06547) #23
  %cmp.i3119.not = icmp eq ptr %call.i3328, %10
  br i1 %cmp.i3119.not, label %cleanup946, label %for.body863

cleanup946:                                       ; preds = %for.inc943, %invoke.cont759.cleanup946_crit_edge, %invoke.cont853
  %265 = phi ptr [ %.pre6673, %invoke.cont759.cleanup946_crit_edge ], [ %.pre6674, %invoke.cont853 ], [ %.pre6674, %for.inc943 ]
  %counterMoved.1 = phi i32 [ %counterMoved.06549, %invoke.cont759.cleanup946_crit_edge ], [ %inc768, %invoke.cont853 ], [ %inc768, %for.inc943 ]
  %bf.load.i.i3329 = load i64, ptr %265, align 8
  %266 = and i64 %bf.load.i.i3329, 1152920405095219200
  %cmp.not.i.i3330 = icmp eq i64 %266, 1152920405095219200
  br i1 %cmp.not.i.i3330, label %_ZN4cvc58internal12NodeTemplateILb1EED2Ev.exit3340, label %if.then.i.i3331

if.then.i.i3331:                                  ; preds = %cleanup946
  %bf.value.i.i3332 = add i64 %bf.load.i.i3329, 1152920405095219200
  %bf.shl.i.i3333 = and i64 %bf.value.i.i3332, 1152920405095219200
  %bf.clear7.i.i3334 = and i64 %bf.load.i.i3329, -1152920405095219201
  %bf.set.i.i3335 = or disjoint i64 %bf.shl.i.i3333, %bf.clear7.i.i3334
  store i64 %bf.set.i.i3335, ptr %265, align 8
  %cmp12.i.i3336 = icmp eq i64 %bf.shl.i.i3333, 0
  br i1 %cmp12.i.i3336, label %if.then13.i.i3338, label %_ZN4cvc58internal12NodeTemplateILb1EED2Ev.exit3340

if.then13.i.i3338:                                ; preds = %if.then.i.i3331
  invoke void @_ZN4cvc58internal4expr9NodeValue15markForDeletionEv(ptr noundef nonnull align 8 dereferenceable(16) %265)
          to label %_ZN4cvc58internal12NodeTemplateILb1EED2Ev.exit3340 unwind label %terminate.lpad.i3339

terminate.lpad.i3339:                             ; preds = %if.then13.i.i3338
  %267 = landingpad { ptr, i32 }
          catch ptr null
  %268 = extractvalue { ptr, i32 } %267, 0
  call void @__clang_call_terminate(ptr %268) #22
  unreachable

_ZN4cvc58internal12NodeTemplateILb1EED2Ev.exit3340: ; preds = %cleanup946, %if.then.i.i3331, %if.then13.i.i3338
  %inc951 = add nuw i64 %i742.06550, 1
  %exitcond6652.not = icmp eq i64 %inc951, %umax6651
  br i1 %exitcond6652.not, label %cond.end965, label %for.body745, !llvm.loop !62

cond.end965:                                      ; preds = %_ZN4cvc58internal12NodeTemplateILb1EED2Ev.exit3340
  %tobool966.not = icmp eq i32 %counterMoved.1, 0
  br i1 %tobool966.not, label %if.end1199, label %cond.true971

cond.true971:                                     ; preds = %cond.end965
  %269 = load ptr, ptr %lastInclusion, align 8
  %270 = load ptr, ptr %_M_finish.i11376692, align 8
  %cmp.i3635.not6552 = icmp eq ptr %269, %270
  br i1 %cmp.i3635.not6552, label %for.end1051, label %for.body1041

for.body1041:                                     ; preds = %cond.true971, %invoke.cont1045
  %__begin41033.sroa.0.06553 = phi ptr [ %incdec.ptr.i3672, %invoke.cont1045 ], [ %269, %cond.true971 ]
  call void @llvm.lifetime.start.p0(i64 8, ptr nonnull %ref.tmp9.i3636)
  call void @llvm.lifetime.start.p0(i64 1, ptr nonnull %ref.tmp10.i3637)
  %271 = load ptr, ptr %_M_parent.i.i.i.i.i, align 8
  %cmp.not5.i.i.i.i3640 = icmp eq ptr %271, null
  br i1 %cmp.not5.i.i.i.i3640, label %if.then.i3667, label %while.body.lr.ph.i.i.i.i3641

while.body.lr.ph.i.i.i.i3641:                     ; preds = %for.body1041
  %272 = load ptr, ptr %__begin41033.sroa.0.06553, align 8
  %bf.load3.i.i.i.i.i.i3642 = load i64, ptr %272, align 8
  %bf.clear4.i.i.i.i.i.i3643 = and i64 %bf.load3.i.i.i.i.i.i3642, 1099511627775
  br label %while.body.i.i.i.i3644

while.body.i.i.i.i3644:                           ; preds = %while.body.i.i.i.i3644, %while.body.lr.ph.i.i.i.i3641
  %__x.addr.07.i.i.i.i3645 = phi ptr [ %271, %while.body.lr.ph.i.i.i.i3641 ], [ %__x.addr.1.i.i.i.i3655, %while.body.i.i.i.i3644 ]
  %__y.addr.06.i.i.i.i3646 = phi ptr [ %10, %while.body.lr.ph.i.i.i.i3641 ], [ %__y.addr.1.i.i.i.i3653, %while.body.i.i.i.i3644 ]
  %_M_storage.i.i.i.i.i.i3647 = getelementptr inbounds %"struct.std::_Rb_tree_node", ptr %__x.addr.07.i.i.i.i3645, i64 0, i32 1
  %273 = load ptr, ptr %_M_storage.i.i.i.i.i.i3647, align 8
  %bf.load.i.i.i.i.i.i3648 = load i64, ptr %273, align 8
  %bf.clear.i.i.i.i.i.i3649 = and i64 %bf.load.i.i.i.i.i.i3648, 1099511627775
  %cmp.i.i.i.i.i.i3650 = icmp ult i64 %bf.clear.i.i.i.i.i.i3649, %bf.clear4.i.i.i.i.i.i3643
  %_M_right.i.i.i.i.i3651 = getelementptr inbounds %"struct.std::_Rb_tree_node_base", ptr %__x.addr.07.i.i.i.i3645, i64 0, i32 3
  %_M_left.i.i.i.i.i3652 = getelementptr inbounds %"struct.std::_Rb_tree_node_base", ptr %__x.addr.07.i.i.i.i3645, i64 0, i32 2
  %__y.addr.1.i.i.i.i3653 = select i1 %cmp.i.i.i.i.i.i3650, ptr %__y.addr.06.i.i.i.i3646, ptr %__x.addr.07.i.i.i.i3645
  %__x.addr.1.in.i.i.i.i3654 = select i1 %cmp.i.i.i.i.i.i3650, ptr %_M_right.i.i.i.i.i3651, ptr %_M_left.i.i.i.i.i3652
  %__x.addr.1.i.i.i.i3655 = load ptr, ptr %__x.addr.1.in.i.i.i.i3654, align 8
  %cmp.not.i.i.i.i3656 = icmp eq ptr %__x.addr.1.i.i.i.i3655, null
  br i1 %cmp.not.i.i.i.i3656, label %_ZNSt3mapIN4cvc58internal12NodeTemplateILb1EEENS1_5proof15CrowdingLitInfoESt4lessIS3_ESaISt4pairIKS3_S5_EEE11lower_boundERS9_.exit.i3657, label %while.body.i.i.i.i3644, !llvm.loop !28

_ZNSt3mapIN4cvc58internal12NodeTemplateILb1EEENS1_5proof15CrowdingLitInfoESt4lessIS3_ESaISt4pairIKS3_S5_EEE11lower_boundERS9_.exit.i3657: ; preds = %while.body.i.i.i.i3644
  %cmp.i.i3658 = icmp eq ptr %__y.addr.1.i.i.i.i3653, %10
  br i1 %cmp.i.i3658, label %if.then.i3667, label %lor.rhs.i3659

lor.rhs.i3659:                                    ; preds = %_ZNSt3mapIN4cvc58internal12NodeTemplateILb1EEENS1_5proof15CrowdingLitInfoESt4lessIS3_ESaISt4pairIKS3_S5_EEE11lower_boundERS9_.exit.i3657
  %_M_storage.i.i.i.i.i.i3647.le = getelementptr inbounds %"struct.std::_Rb_tree_node", ptr %__x.addr.07.i.i.i.i3645, i64 0, i32 1
  %__y.addr.06.i.i.i.i3646.sroa.gep = getelementptr inbounds %"struct.std::_Rb_tree_node", ptr %__y.addr.06.i.i.i.i3646, i64 0, i32 1
  %__y.addr.1.i.i.i.i3653.sroa.sel = select i1 %cmp.i.i.i.i.i.i3650, ptr %__y.addr.06.i.i.i.i3646.sroa.gep, ptr %_M_storage.i.i.i.i.i.i3647.le
  %274 = load ptr, ptr %__y.addr.1.i.i.i.i3653.sroa.sel, align 8
  %bf.load3.i.i.i3661 = load i64, ptr %274, align 8
  %bf.clear4.i.i.i3662 = and i64 %bf.load3.i.i.i3661, 1099511627775
  %cmp.i.i.i3663 = icmp ult i64 %bf.clear4.i.i.i.i.i.i3643, %bf.clear4.i.i.i3662
  br i1 %cmp.i.i.i3663, label %if.then.i3667, label %invoke.cont1045

if.then.i3667:                                    ; preds = %lor.rhs.i3659, %_ZNSt3mapIN4cvc58internal12NodeTemplateILb1EEENS1_5proof15CrowdingLitInfoESt4lessIS3_ESaISt4pairIKS3_S5_EEE11lower_boundERS9_.exit.i3657, %for.body1041
  %__y.addr.0.lcssa.i.i.i9.i3668 = phi ptr [ %10, %_ZNSt3mapIN4cvc58internal12NodeTemplateILb1EEENS1_5proof15CrowdingLitInfoESt4lessIS3_ESaISt4pairIKS3_S5_EEE11lower_boundERS9_.exit.i3657 ], [ %__y.addr.1.i.i.i.i3653, %lor.rhs.i3659 ], [ %10, %for.body1041 ]
  store ptr %__begin41033.sroa.0.06553, ptr %ref.tmp9.i3636, align 8
  %call12.i3670 = invoke ptr @_ZNSt8_Rb_treeIN4cvc58internal12NodeTemplateILb1EEESt4pairIKS3_NS1_5proof15CrowdingLitInfoEESt10_Select1stIS8_ESt4lessIS3_ESaIS8_EE22_M_emplace_hint_uniqueIJRKSt21piecewise_construct_tSt5tupleIJRS5_EESJ_IJEEEEESt17_Rb_tree_iteratorIS8_ESt23_Rb_tree_const_iteratorIS8_EDpOT_(ptr noundef nonnull align 8 dereferenceable(48) %crowdLitsInfo, ptr %__y.addr.0.lcssa.i.i.i9.i3668, ptr noundef nonnull align 1 dereferenceable(1) @_ZSt19piecewise_construct, ptr noundef nonnull align 8 dereferenceable(8) %ref.tmp9.i3636, ptr noundef nonnull align 1 dereferenceable(1) %ref.tmp10.i3637)
          to label %invoke.cont1045 unwind label %lpad34.loopexit.split-lp.loopexit

invoke.cont1045:                                  ; preds = %lor.rhs.i3659, %if.then.i3667
  %__i.sroa.0.0.i3665 = phi ptr [ %__y.addr.1.i.i.i.i3653, %lor.rhs.i3659 ], [ %call12.i3670, %if.then.i3667 ]
  %second.i3666 = getelementptr inbounds %"struct.std::_Rb_tree_node", ptr %__i.sroa.0.0.i3665, i64 0, i32 1, i32 0, i64 8
  call void @llvm.lifetime.end.p0(i64 8, ptr nonnull %ref.tmp9.i3636)
  call void @llvm.lifetime.end.p0(i64 1, ptr nonnull %ref.tmp10.i3637)
  %275 = load i64, ptr %second.i3666, align 8
  %second1048 = getelementptr inbounds %"struct.std::pair.106", ptr %__begin41033.sroa.0.06553, i64 0, i32 1
  store i64 %275, ptr %second1048, align 8
  %incdec.ptr.i3672 = getelementptr inbounds %"struct.std::pair.106", ptr %__begin41033.sroa.0.06553, i64 1
  %cmp.i3635.not = icmp eq ptr %incdec.ptr.i3672, %270
  br i1 %cmp.i3635.not, label %for.end1051, label %for.body1041

for.end1051:                                      ; preds = %invoke.cont1045, %cond.true971
  %276 = load ptr, ptr %_M_left.i.i.i.i.i, align 8
  %cmp.i3677.not6554 = icmp eq ptr %276, %10
  br i1 %cmp.i3677.not6554, label %for.end1069, label %for.body1061

for.body1061:                                     ; preds = %for.end1051, %for.inc1067
  %eliminators.sroa.0.106558 = phi ptr [ %eliminators.sroa.0.11, %for.inc1067 ], [ %eliminators.sroa.0.0.lcssa6688, %for.end1051 ]
  %eliminators.sroa.13.76557 = phi ptr [ %eliminators.sroa.13.8, %for.inc1067 ], [ %eliminators.sroa.0.0.lcssa6688, %for.end1051 ]
  %eliminators.sroa.26.66556 = phi ptr [ %eliminators.sroa.26.7, %for.inc1067 ], [ %eliminators.sroa.26.0.lcssa6686, %for.end1051 ]
  %__begin41053.sroa.0.06555 = phi ptr [ %call.i3716, %for.inc1067 ], [ %276, %for.end1051 ]
  %d_eliminator1065 = getelementptr inbounds %"struct.std::_Rb_tree_node", ptr %__begin41053.sroa.0.06555, i64 0, i32 1, i32 0, i64 16
  %cmp.not.i3681 = icmp eq ptr %eliminators.sroa.13.76557, %eliminators.sroa.26.66556
  br i1 %cmp.not.i3681, label %if.else.i3685, label %if.then.i3682

if.then.i3682:                                    ; preds = %for.body1061
  %277 = load i64, ptr %d_eliminator1065, align 8
  store i64 %277, ptr %eliminators.sroa.13.76557, align 8
  br label %for.inc1067

if.else.i3685:                                    ; preds = %for.body1061
  %sub.ptr.lhs.cast.i.i.i.i3686 = ptrtoint ptr %eliminators.sroa.13.76557 to i64
  %sub.ptr.rhs.cast.i.i.i.i3687 = ptrtoint ptr %eliminators.sroa.0.106558 to i64
  %sub.ptr.sub.i.i.i.i3688 = sub i64 %sub.ptr.lhs.cast.i.i.i.i3686, %sub.ptr.rhs.cast.i.i.i.i3687
  %cmp.i.i.i3689 = icmp eq i64 %sub.ptr.sub.i.i.i.i3688, 9223372036854775800
  br i1 %cmp.i.i.i3689, label %if.then.i.i.i3711, label %_ZNKSt6vectorImSaImEE12_M_check_lenEmPKc.exit.i.i3690

if.then.i.i.i3711:                                ; preds = %if.else.i3685
  invoke void @_ZSt20__throw_length_errorPKc(ptr noundef nonnull @.str.59) #18
          to label %.noexc3712 unwind label %lpad34.loopexit.split-lp.loopexit.split-lp.loopexit.split-lp.loopexit.split-lp.loopexit.split-lp.loopexit.split-lp

.noexc3712:                                       ; preds = %if.then.i.i.i3711
  unreachable

_ZNKSt6vectorImSaImEE12_M_check_lenEmPKc.exit.i.i3690: ; preds = %if.else.i3685
  %sub.ptr.div.i.i.i.i3691 = ashr exact i64 %sub.ptr.sub.i.i.i.i3688, 3
  %.sroa.speculated.i.i.i3692 = call i64 @llvm.umax.i64(i64 %sub.ptr.div.i.i.i.i3691, i64 1)
  %add.i.i.i3693 = add nsw i64 %.sroa.speculated.i.i.i3692, %sub.ptr.div.i.i.i.i3691
  %cmp7.i.i.i3694 = icmp ult i64 %add.i.i.i3693, %sub.ptr.div.i.i.i.i3691
  %278 = call i64 @llvm.umin.i64(i64 %add.i.i.i3693, i64 1152921504606846975)
  %cond.i.i.i3695 = select i1 %cmp7.i.i.i3694, i64 1152921504606846975, i64 %278
  %cmp.not.i.i.i3696 = icmp eq i64 %cond.i.i.i3695, 0
  br i1 %cmp.not.i.i.i3696, label %_ZNSt12_Vector_baseImSaImEE11_M_allocateEm.exit.i.i3699, label %cond.true.i.i.i3697

cond.true.i.i.i3697:                              ; preds = %_ZNKSt6vectorImSaImEE12_M_check_lenEmPKc.exit.i.i3690
  %mul.i.i.i.i.i3698 = shl nuw nsw i64 %cond.i.i.i3695, 3
  %call5.i.i.i.i.i3714 = invoke noalias noundef nonnull ptr @_Znwm(i64 noundef %mul.i.i.i.i.i3698) #19
          to label %_ZNSt12_Vector_baseImSaImEE11_M_allocateEm.exit.i.i3699 unwind label %lpad34.loopexit

_ZNSt12_Vector_baseImSaImEE11_M_allocateEm.exit.i.i3699: ; preds = %cond.true.i.i.i3697, %_ZNKSt6vectorImSaImEE12_M_check_lenEmPKc.exit.i.i3690
  %cond.i10.i.i3700 = phi ptr [ null, %_ZNKSt6vectorImSaImEE12_M_check_lenEmPKc.exit.i.i3690 ], [ %call5.i.i.i.i.i3714, %cond.true.i.i.i3697 ]
  %add.ptr.i.i3701 = getelementptr inbounds i64, ptr %cond.i10.i.i3700, i64 %sub.ptr.div.i.i.i.i3691
  %279 = load i64, ptr %d_eliminator1065, align 8
  store i64 %279, ptr %add.ptr.i.i3701, align 8
  %cmp.i.i.i.i.i3702 = icmp sgt i64 %sub.ptr.sub.i.i.i.i3688, 0
  br i1 %cmp.i.i.i.i.i3702, label %if.then.i.i.i.i.i3710, label %_ZNSt6vectorImSaImEE11_S_relocateEPmS2_S2_RS0_.exit17.i.i3703

if.then.i.i.i.i.i3710:                            ; preds = %_ZNSt12_Vector_baseImSaImEE11_M_allocateEm.exit.i.i3699
  call void @llvm.memmove.p0.p0.i64(ptr nonnull align 8 %cond.i10.i.i3700, ptr align 8 %eliminators.sroa.0.106558, i64 %sub.ptr.sub.i.i.i.i3688, i1 false)
  br label %_ZNSt6vectorImSaImEE11_S_relocateEPmS2_S2_RS0_.exit17.i.i3703

_ZNSt6vectorImSaImEE11_S_relocateEPmS2_S2_RS0_.exit17.i.i3703: ; preds = %if.then.i.i.i.i.i3710, %_ZNSt12_Vector_baseImSaImEE11_M_allocateEm.exit.i.i3699
  %add.ptr.i.i.i.i.i3704 = getelementptr inbounds i8, ptr %cond.i10.i.i3700, i64 %sub.ptr.sub.i.i.i.i3688
  %tobool.not.i.i.i3706 = icmp eq ptr %eliminators.sroa.0.106558, null
  br i1 %tobool.not.i.i.i3706, label %_ZNSt6vectorImSaImEE17_M_realloc_insertIJRKmEEEvN9__gnu_cxx17__normal_iteratorIPmS1_EEDpOT_.exit.i3708, label %if.then.i18.i.i3707

if.then.i18.i.i3707:                              ; preds = %_ZNSt6vectorImSaImEE11_S_relocateEPmS2_S2_RS0_.exit17.i.i3703
  call void @_ZdlPv(ptr noundef nonnull %eliminators.sroa.0.106558) #20
  br label %_ZNSt6vectorImSaImEE17_M_realloc_insertIJRKmEEEvN9__gnu_cxx17__normal_iteratorIPmS1_EEDpOT_.exit.i3708

_ZNSt6vectorImSaImEE17_M_realloc_insertIJRKmEEEvN9__gnu_cxx17__normal_iteratorIPmS1_EEDpOT_.exit.i3708: ; preds = %if.then.i18.i.i3707, %_ZNSt6vectorImSaImEE11_S_relocateEPmS2_S2_RS0_.exit17.i.i3703
  %add.ptr19.i.i3709 = getelementptr inbounds i64, ptr %cond.i10.i.i3700, i64 %cond.i.i.i3695
  br label %for.inc1067

for.inc1067:                                      ; preds = %_ZNSt6vectorImSaImEE17_M_realloc_insertIJRKmEEEvN9__gnu_cxx17__normal_iteratorIPmS1_EEDpOT_.exit.i3708, %if.then.i3682
  %eliminators.sroa.26.7 = phi ptr [ %add.ptr19.i.i3709, %_ZNSt6vectorImSaImEE17_M_realloc_insertIJRKmEEEvN9__gnu_cxx17__normal_iteratorIPmS1_EEDpOT_.exit.i3708 ], [ %eliminators.sroa.26.66556, %if.then.i3682 ]
  %add.ptr.i.i.i.i.i3704.pn = phi ptr [ %add.ptr.i.i.i.i.i3704, %_ZNSt6vectorImSaImEE17_M_realloc_insertIJRKmEEEvN9__gnu_cxx17__normal_iteratorIPmS1_EEDpOT_.exit.i3708 ], [ %eliminators.sroa.13.76557, %if.then.i3682 ]
  %eliminators.sroa.0.11 = phi ptr [ %cond.i10.i.i3700, %_ZNSt6vectorImSaImEE17_M_realloc_insertIJRKmEEEvN9__gnu_cxx17__normal_iteratorIPmS1_EEDpOT_.exit.i3708 ], [ %eliminators.sroa.0.106558, %if.then.i3682 ]
  %eliminators.sroa.13.8 = getelementptr inbounds i64, ptr %add.ptr.i.i.i.i.i3704.pn, i64 1
  %call.i3716 = call noundef ptr @_ZSt18_Rb_tree_incrementPSt18_Rb_tree_node_base(ptr noundef nonnull %__begin41053.sroa.0.06555) #23
  %cmp.i3677.not = icmp eq ptr %call.i3716, %10
  br i1 %cmp.i3677.not, label %for.end1069, label %for.body1061

for.end1069:                                      ; preds = %for.inc1067, %for.end1051
  %eliminators.sroa.13.7.lcssa = phi ptr [ %eliminators.sroa.0.0.lcssa6688, %for.end1051 ], [ %eliminators.sroa.13.8, %for.inc1067 ]
  %eliminators.sroa.0.10.lcssa = phi ptr [ %eliminators.sroa.0.0.lcssa6688, %for.end1051 ], [ %eliminators.sroa.0.11, %for.inc1067 ]
  invoke void @_ZSt6__sortIN9__gnu_cxx17__normal_iteratorIPmSt6vectorImSaImEEEENS0_5__ops15_Iter_less_iterEEvT_S9_T0_(ptr %eliminators.sroa.0.10.lcssa, ptr %eliminators.sroa.13.7.lcssa)
          to label %if.end1199 unwind label %lpad34.loopexit.split-lp.loopexit.split-lp.loopexit.split-lp.loopexit.split-lp.loopexit.split-lp.loopexit.split-lp

if.end1199:                                       ; preds = %invoke.cont345, %for.cond743.preheader, %cond.end965, %for.end1069
  %eliminators.sroa.0.12 = phi ptr [ %eliminators.sroa.0.0.lcssa6688, %cond.end965 ], [ %eliminators.sroa.0.0.lcssa6688, %invoke.cont345 ], [ %eliminators.sroa.0.10.lcssa, %for.end1069 ], [ %eliminators.sroa.0.0.lcssa6688, %for.cond743.preheader ]
  %280 = load ptr, ptr %newChildren, align 8
  %281 = load ptr, ptr %280, align 8
  store ptr %281, ptr %agg.result, align 8
  %bf.load.i.i4297 = load i64, ptr %281, align 8
  %bf.lshr.i.i4298 = lshr i64 %bf.load.i.i4297, 40
  %282 = trunc i64 %bf.lshr.i.i4298 to i32
  %bf.cast.i.i4299 = and i32 %282, 1048575
  %cmp.i.i4300 = icmp ult i32 %bf.cast.i.i4299, 1048574
  br i1 %cmp.i.i4300, label %if.then.i.i4305, label %if.else.i.i4301

if.then.i.i4305:                                  ; preds = %if.end1199
  %bf.value.i.i4306 = add i64 %bf.load.i.i4297, 1099511627776
  %bf.shl.i.i4307 = and i64 %bf.value.i.i4306, 1152920405095219200
  %bf.clear7.i.i4308 = and i64 %bf.load.i.i4297, -1152920405095219201
  %bf.set.i.i4309 = or disjoint i64 %bf.shl.i.i4307, %bf.clear7.i.i4308
  store i64 %bf.set.i.i4309, ptr %281, align 8
  br label %invoke.cont1201

if.else.i.i4301:                                  ; preds = %if.end1199
  %cmp12.i.i4302 = icmp eq i32 %bf.cast.i.i4299, 1048574
  br i1 %cmp12.i.i4302, label %if.then13.i.i4303, label %invoke.cont1201

if.then13.i.i4303:                                ; preds = %if.else.i.i4301
  %bf.set23.i.i4304 = or i64 %bf.load.i.i4297, 1152920405095219200
  store i64 %bf.set23.i.i4304, ptr %281, align 8
  invoke void @_ZN4cvc58internal4expr9NodeValue20markRefCountMaxedOutEv(ptr noundef nonnull align 8 dereferenceable(16) %281)
          to label %invoke.cont1201 unwind label %lpad34.loopexit.split-lp.loopexit.split-lp.loopexit.split-lp.loopexit.split-lp.loopexit.split-lp.loopexit.split-lp

invoke.cont1201:                                  ; preds = %if.else.i.i4301, %if.then.i.i4305, %if.then13.i.i4303
  call void @llvm.memset.p0.i64(ptr noundef nonnull align 8 dereferenceable(24) %childrenRes, i8 0, i64 24, i1 false)
  call void @llvm.memset.p0.i64(ptr noundef nonnull align 8 dereferenceable(24) %childrenResArgs, i8 0, i64 24, i1 false)
  %283 = load atomic i8, ptr @_ZGVZN4cvc58internal4expr9NodeValue4nullEvE6s_null acquire, align 8
  %guard.uninitialized.i.i = icmp eq i8 %283, 0
  br i1 %guard.uninitialized.i.i, label %init.check.i.i, label %invoke.cont1203, !prof !63

init.check.i.i:                                   ; preds = %invoke.cont1201
  %284 = call i32 @__cxa_guard_acquire(ptr nonnull @_ZGVZN4cvc58internal4expr9NodeValue4nullEvE6s_null) #21
  %tobool.not.i.i4312 = icmp eq i32 %284, 0
  br i1 %tobool.not.i.i4312, label %invoke.cont1203, label %init.i.i

init.i.i:                                         ; preds = %init.check.i.i
  %call.i.i4313 = invoke noalias noundef nonnull dereferenceable(16) ptr @_Znwm(i64 noundef 16) #19
          to label %invoke.cont.i.i4315 unwind label %lpad.i.i4314

invoke.cont.i.i4315:                              ; preds = %init.i.i
  store i64 1152920405095219200, ptr %call.i.i4313, align 8
  %d_kind.i.i.i = getelementptr inbounds %"class.cvc5::internal::expr::NodeValue", ptr %call.i.i4313, i64 0, i32 1
  store i16 0, ptr %d_kind.i.i.i, align 8
  %d_nchildren.i.i.i = getelementptr inbounds %"class.cvc5::internal::expr::NodeValue", ptr %call.i.i4313, i64 0, i32 2
  store i32 0, ptr %d_nchildren.i.i.i, align 4
  store ptr %call.i.i4313, ptr @_ZZN4cvc58internal4expr9NodeValue4nullEvE6s_null, align 8
  call void @__cxa_guard_release(ptr nonnull @_ZGVZN4cvc58internal4expr9NodeValue4nullEvE6s_null) #21
  br label %invoke.cont1203

lpad.i.i4314:                                     ; preds = %init.i.i
  %285 = landingpad { ptr, i32 }
          cleanup
  call void @__cxa_guard_abort(ptr nonnull @_ZGVZN4cvc58internal4expr9NodeValue4nullEvE6s_null) #21
  br label %ehcleanup1584

invoke.cont1203:                                  ; preds = %invoke.cont.i.i4315, %init.check.i.i, %invoke.cont1201
  %286 = load ptr, ptr @_ZZN4cvc58internal4expr9NodeValue4nullEvE6s_null, align 8
  store ptr %286, ptr %resPlaceHolder, align 8
  %287 = load i64, ptr %eliminators.sroa.0.12, align 8
  %_M_finish.i4555 = getelementptr inbounds %"struct.std::_Vector_base<cvc5::internal::NodeTemplate<true>, std::allocator<cvc5::internal::NodeTemplate<true>>>::_Vector_impl_data", ptr %childrenRes, i64 0, i32 1
  %_M_end_of_storage.i4556 = getelementptr inbounds %"struct.std::_Vector_base<cvc5::internal::NodeTemplate<true>, std::allocator<cvc5::internal::NodeTemplate<true>>>::_Vector_impl_data", ptr %childrenRes, i64 0, i32 2
  %_M_finish.i4575 = getelementptr inbounds %"struct.std::_Vector_base<cvc5::internal::NodeTemplate<true>, std::allocator<cvc5::internal::NodeTemplate<true>>>::_Vector_impl_data", ptr %childrenResArgs, i64 0, i32 1
  %sub1373 = add nsw i64 %sub.ptr.div.i, -1
  %add.ptr.i.i4972 = getelementptr inbounds %"class.cvc5::internal::NodeTemplate", ptr %ref.tmp1381, i64 1
  %_M_end_of_storage.i.i = getelementptr inbounds %"struct.std::_Vector_base<cvc5::internal::NodeTemplate<true>, std::allocator<cvc5::internal::NodeTemplate<true>>>::_Vector_impl_data", ptr %ref.tmp1379, i64 0, i32 2
  %_M_finish.i.i4977 = getelementptr inbounds %"struct.std::_Vector_base<cvc5::internal::NodeTemplate<true>, std::allocator<cvc5::internal::NodeTemplate<true>>>::_Vector_impl_data", ptr %ref.tmp1379, i64 0, i32 1
  %_M_finish.i5047 = getelementptr inbounds %"struct.std::_Vector_base<cvc5::internal::NodeTemplate<true>, std::allocator<cvc5::internal::NodeTemplate<true>>>::_Vector_impl_data", ptr %ref.tmp1389, i64 0, i32 1
  %add.ptr.i.i5132 = getelementptr inbounds %"class.cvc5::internal::NodeTemplate", ptr %ref.tmp1422, i64 1
  %_M_end_of_storage.i.i5141 = getelementptr inbounds %"struct.std::_Vector_base<cvc5::internal::NodeTemplate<true>, std::allocator<cvc5::internal::NodeTemplate<true>>>::_Vector_impl_data", ptr %ref.tmp1420, i64 0, i32 2
  %_M_finish.i.i5144 = getelementptr inbounds %"struct.std::_Vector_base<cvc5::internal::NodeTemplate<true>, std::allocator<cvc5::internal::NodeTemplate<true>>>::_Vector_impl_data", ptr %ref.tmp1420, i64 0, i32 1
  %_M_finish.i5147 = getelementptr inbounds %"struct.std::_Vector_base<cvc5::internal::NodeTemplate<true>, std::allocator<cvc5::internal::NodeTemplate<true>>>::_Vector_impl_data", ptr %ref.tmp1440, i64 0, i32 1
  %umax6653 = call i64 @llvm.umax.i64(i64 %sub.ptr.div.i11416693, i64 1)
  br label %cond.true1211

cond.true1211:                                    ; preds = %invoke.cont1203, %cond.true1554
  %288 = phi ptr [ %286, %invoke.cont1203 ], [ %402, %cond.true1554 ]
  %nextGuardedElimPos.0 = phi i64 [ %287, %invoke.cont1203 ], [ %nextGuardedElimPos.1, %cond.true1554 ]
  %lastElim.0 = phi i64 [ 1, %invoke.cont1203 ], [ %nextGuardedElimPos.0, %cond.true1554 ]
  %sub1206 = add i64 %nextGuardedElimPos.0, -1
  %289 = load ptr, ptr %_M_finish.i4555, align 8
  %290 = load ptr, ptr %_M_end_of_storage.i4556, align 8
  %cmp.not.i4557 = icmp eq ptr %289, %290
  br i1 %cmp.not.i4557, label %if.else.i4563, label %if.then.i4558

if.then.i4558:                                    ; preds = %cond.true1211
  %291 = load ptr, ptr %agg.result, align 8
  store ptr %291, ptr %289, align 8
  %bf.load.i.i.i.i.i = load i64, ptr %291, align 8
  %bf.lshr.i.i.i.i.i = lshr i64 %bf.load.i.i.i.i.i, 40
  %292 = trunc i64 %bf.lshr.i.i.i.i.i to i32
  %bf.cast.i.i.i.i.i = and i32 %292, 1048575
  %cmp.i.i.i.i.i4559 = icmp ult i32 %bf.cast.i.i.i.i.i, 1048574
  br i1 %cmp.i.i.i.i.i4559, label %if.then.i.i.i.i.i4562, label %if.else.i.i.i.i.i

if.then.i.i.i.i.i4562:                            ; preds = %if.then.i4558
  %bf.value.i.i.i.i.i = add i64 %bf.load.i.i.i.i.i, 1099511627776
  %bf.shl.i.i.i.i.i = and i64 %bf.value.i.i.i.i.i, 1152920405095219200
  %bf.clear7.i.i.i.i.i = and i64 %bf.load.i.i.i.i.i, -1152920405095219201
  %bf.set.i.i.i.i.i = or disjoint i64 %bf.shl.i.i.i.i.i, %bf.clear7.i.i.i.i.i
  store i64 %bf.set.i.i.i.i.i, ptr %291, align 8
  br label %_ZNSt16allocator_traitsISaIN4cvc58internal12NodeTemplateILb1EEEEE9constructIS3_JRKS3_EEEvRS4_PT_DpOT0_.exit.i

if.else.i.i.i.i.i:                                ; preds = %if.then.i4558
  %cmp12.i.i.i.i.i = icmp eq i32 %bf.cast.i.i.i.i.i, 1048574
  br i1 %cmp12.i.i.i.i.i, label %if.then13.i.i.i.i.i, label %_ZNSt16allocator_traitsISaIN4cvc58internal12NodeTemplateILb1EEEEE9constructIS3_JRKS3_EEEvRS4_PT_DpOT0_.exit.i

if.then13.i.i.i.i.i:                              ; preds = %if.else.i.i.i.i.i
  %bf.set23.i.i.i.i.i = or i64 %bf.load.i.i.i.i.i, 1152920405095219200
  store i64 %bf.set23.i.i.i.i.i, ptr %291, align 8
  invoke void @_ZN4cvc58internal4expr9NodeValue20markRefCountMaxedOutEv(ptr noundef nonnull align 8 dereferenceable(16) %291)
          to label %_ZNSt16allocator_traitsISaIN4cvc58internal12NodeTemplateILb1EEEEE9constructIS3_JRKS3_EEEvRS4_PT_DpOT0_.exit.i unwind label %lpad1208.loopexit

_ZNSt16allocator_traitsISaIN4cvc58internal12NodeTemplateILb1EEEEE9constructIS3_JRKS3_EEEvRS4_PT_DpOT0_.exit.i: ; preds = %if.then13.i.i.i.i.i, %if.else.i.i.i.i.i, %if.then.i.i.i.i.i4562
  %293 = load ptr, ptr %_M_finish.i4555, align 8
  %incdec.ptr.i4560 = getelementptr inbounds %"class.cvc5::internal::NodeTemplate", ptr %293, i64 1
  store ptr %incdec.ptr.i4560, ptr %_M_finish.i4555, align 8
  br label %invoke.cont1233

if.else.i4563:                                    ; preds = %cond.true1211
  invoke void @_ZNSt6vectorIN4cvc58internal12NodeTemplateILb1EEESaIS3_EE17_M_realloc_insertIJRKS3_EEEvN9__gnu_cxx17__normal_iteratorIPS3_S5_EEDpOT_(ptr noundef nonnull align 8 dereferenceable(24) %childrenRes, ptr %289, ptr noundef nonnull align 8 dereferenceable(8) %agg.result)
          to label %if.else.i4563.invoke.cont1233_crit_edge unwind label %lpad1208.loopexit

if.else.i4563.invoke.cont1233_crit_edge:          ; preds = %if.else.i4563
  %.pre6675 = load ptr, ptr %_M_finish.i4555, align 8
  br label %invoke.cont1233

invoke.cont1233:                                  ; preds = %if.else.i4563.invoke.cont1233_crit_edge, %_ZNSt16allocator_traitsISaIN4cvc58internal12NodeTemplateILb1EEEEE9constructIS3_JRKS3_EEEvRS4_PT_DpOT0_.exit.i
  %294 = phi ptr [ %.pre6675, %if.else.i4563.invoke.cont1233_crit_edge ], [ %incdec.ptr.i4560, %_ZNSt16allocator_traitsISaIN4cvc58internal12NodeTemplateILb1EEEEE9constructIS3_JRKS3_EEEvRS4_PT_DpOT0_.exit.i ]
  %295 = load ptr, ptr %newChildren, align 8
  %add.ptr.i4567 = getelementptr inbounds %"class.cvc5::internal::NodeTemplate", ptr %295, i64 %lastElim.0
  %add.ptr.i4568 = getelementptr inbounds %"class.cvc5::internal::NodeTemplate", ptr %295, i64 %sub1206
  %add.ptr.i4569 = getelementptr inbounds %"class.cvc5::internal::NodeTemplate", ptr %add.ptr.i4568, i64 1
  %296 = load ptr, ptr %childrenRes, align 8
  %sub.ptr.lhs.cast.i.i4570 = ptrtoint ptr %294 to i64
  %sub.ptr.rhs.cast.i.i4571 = ptrtoint ptr %296 to i64
  %sub.ptr.sub.i.i4572 = sub i64 %sub.ptr.lhs.cast.i.i4570, %sub.ptr.rhs.cast.i.i4571
  %add.ptr.i.i4573 = getelementptr inbounds i8, ptr %296, i64 %sub.ptr.sub.i.i4572
  invoke void @_ZNSt6vectorIN4cvc58internal12NodeTemplateILb1EEESaIS3_EE15_M_range_insertIN9__gnu_cxx17__normal_iteratorIPS3_S5_EEEEvSA_T_SB_St20forward_iterator_tag(ptr noundef nonnull align 8 dereferenceable(24) %childrenRes, ptr %add.ptr.i.i4573, ptr %add.ptr.i4567, ptr nonnull %add.ptr.i4569)
          to label %invoke.cont1256 unwind label %lpad1208.loopexit

invoke.cont1256:                                  ; preds = %invoke.cont1233
  %297 = load ptr, ptr %_M_finish.i4575, align 8
  %298 = load ptr, ptr %newArgs, align 8
  %mul1269 = shl i64 %lastElim.0, 1
