; ModuleID = 'bench/cvc5/original/theory_uf.cpp.ll'
source_filename = "bench/cvc5/original/theory_uf.cpp.ll"
target datalayout = "e-m:e-p270:32:32-p271:32:32-p272:64:64-i64:64-i128:128-f80:128-n8:16:32:64-S128"
target triple = "x86_64-unknown-linux-gnu"

%"class.std::ios_base::Init" = type { i8 }
%"class.cvc5::internal::NodeTemplate" = type { ptr }
%"struct.std::piecewise_construct_t" = type { i8 }
%"class.std::__cxx11::basic_string" = type { %"struct.std::__cxx11::basic_string<char>::_Alloc_hider", i64, %union.anon }
%"struct.std::__cxx11::basic_string<char>::_Alloc_hider" = type { ptr }
%union.anon = type { i64, [8 x i8] }
%"class.cvc5::internal::theory::uf::TheoryUF" = type { %"class.cvc5::internal::theory::Theory", %"class.std::unique_ptr.13", %"class.std::unique_ptr.21", %"class.std::unique_ptr.29", %"class.std::unique_ptr.37", %"class.cvc5::internal::NodeTemplate", %"class.cvc5::context::CDList", %"class.cvc5::internal::theory::uf::SymmetryBreaker", %"class.cvc5::internal::theory::uf::TheoryUfRewriter", %"class.cvc5::internal::theory::uf::UfProofRuleChecker", %"class.cvc5::internal::theory::TheoryState", %"class.cvc5::internal::theory::TheoryInferenceManager", %"class.cvc5::internal::theory::uf::TheoryUF::NotifyClass", %"class.std::map", %"class.cvc5::internal::theory::CarePairArgumentCallback" }
%"class.cvc5::internal::theory::Theory" = type { %"class.cvc5::internal::EnvObj", %"class.std::__cxx11::basic_string", %"class.cvc5::internal::TimerStat", %"class.cvc5::internal::TimerStat", %"class.cvc5::context::CDList", ptr, %"class.cvc5::internal::theory::Valuation", ptr, %"class.std::unique_ptr", ptr, ptr, ptr, ptr, i32, [4 x i8], %"class.cvc5::context::CDList.5", %"class.cvc5::context::CDO", %"class.cvc5::context::CDO", ptr, ptr }
%"class.cvc5::internal::EnvObj" = type { ptr, ptr }
%"class.cvc5::internal::TimerStat" = type { ptr }
%"class.cvc5::internal::theory::Valuation" = type { ptr }
%"class.std::unique_ptr" = type { %"struct.std::__uniq_ptr_data" }
%"struct.std::__uniq_ptr_data" = type { %"class.std::__uniq_ptr_impl" }
%"class.std::__uniq_ptr_impl" = type { %"class.std::tuple" }
%"class.std::tuple" = type { %"struct.std::_Tuple_impl" }
%"struct.std::_Tuple_impl" = type { %"struct.std::_Head_base.4" }
%"struct.std::_Head_base.4" = type { ptr }
%"class.cvc5::context::CDList.5" = type <{ %"class.cvc5::context::ContextObj", %"class.std::vector.6", i64, i8, %"class.cvc5::context::DefaultCleanUp.11", [6 x i8] }>
%"class.cvc5::context::ContextObj" = type { ptr, ptr, ptr, ptr, ptr }
%"class.std::vector.6" = type { %"struct.std::_Vector_base.7" }
%"struct.std::_Vector_base.7" = type { %"struct.std::_Vector_base<cvc5::internal::theory::Assertion, std::allocator<cvc5::internal::theory::Assertion>>::_Vector_impl" }
%"struct.std::_Vector_base<cvc5::internal::theory::Assertion, std::allocator<cvc5::internal::theory::Assertion>>::_Vector_impl" = type { %"struct.std::_Vector_base<cvc5::internal::theory::Assertion, std::allocator<cvc5::internal::theory::Assertion>>::_Vector_impl_data" }
%"struct.std::_Vector_base<cvc5::internal::theory::Assertion, std::allocator<cvc5::internal::theory::Assertion>>::_Vector_impl_data" = type { ptr, ptr, ptr }
%"class.cvc5::context::DefaultCleanUp.11" = type { i8 }
%"class.cvc5::context::CDO" = type <{ %"class.cvc5::context::ContextObj", i32, [4 x i8] }>
%"class.std::unique_ptr.13" = type { %"struct.std::__uniq_ptr_data.14" }
%"struct.std::__uniq_ptr_data.14" = type { %"class.std::__uniq_ptr_impl.15" }
%"class.std::__uniq_ptr_impl.15" = type { %"class.std::tuple.16" }
%"class.std::tuple.16" = type { %"struct.std::_Tuple_impl.17" }
%"struct.std::_Tuple_impl.17" = type { %"struct.std::_Head_base.20" }
%"struct.std::_Head_base.20" = type { ptr }
%"class.std::unique_ptr.21" = type { %"struct.std::__uniq_ptr_data.22" }
%"struct.std::__uniq_ptr_data.22" = type { %"class.std::__uniq_ptr_impl.23" }
%"class.std::__uniq_ptr_impl.23" = type { %"class.std::tuple.24" }
%"class.std::tuple.24" = type { %"struct.std::_Tuple_impl.25" }
%"struct.std::_Tuple_impl.25" = type { %"struct.std::_Head_base.28" }
%"struct.std::_Head_base.28" = type { ptr }
%"class.std::unique_ptr.29" = type { %"struct.std::__uniq_ptr_data.30" }
%"struct.std::__uniq_ptr_data.30" = type { %"class.std::__uniq_ptr_impl.31" }
%"class.std::__uniq_ptr_impl.31" = type { %"class.std::tuple.32" }
%"class.std::tuple.32" = type { %"struct.std::_Tuple_impl.33" }
%"struct.std::_Tuple_impl.33" = type { %"struct.std::_Head_base.36" }
%"struct.std::_Head_base.36" = type { ptr }
%"class.std::unique_ptr.37" = type { %"struct.std::__uniq_ptr_data.38" }
%"struct.std::__uniq_ptr_data.38" = type { %"class.std::__uniq_ptr_impl.39" }
%"class.std::__uniq_ptr_impl.39" = type { %"class.std::tuple.40" }
%"class.std::tuple.40" = type { %"struct.std::_Tuple_impl.41" }
%"struct.std::_Tuple_impl.41" = type { %"struct.std::_Head_base.44" }
%"struct.std::_Head_base.44" = type { ptr }
%"class.cvc5::context::CDList" = type <{ %"class.cvc5::context::ContextObj", %"class.std::vector", i64, i8, %"class.cvc5::context::DefaultCleanUp", [6 x i8] }>
%"class.std::vector" = type { %"struct.std::_Vector_base" }
%"struct.std::_Vector_base" = type { %"struct.std::_Vector_base<cvc5::internal::NodeTemplate<false>, std::allocator<cvc5::internal::NodeTemplate<false>>>::_Vector_impl" }
%"struct.std::_Vector_base<cvc5::internal::NodeTemplate<false>, std::allocator<cvc5::internal::NodeTemplate<false>>>::_Vector_impl" = type { %"struct.std::_Vector_base<cvc5::internal::NodeTemplate<false>, std::allocator<cvc5::internal::NodeTemplate<false>>>::_Vector_impl_data" }
%"struct.std::_Vector_base<cvc5::internal::NodeTemplate<false>, std::allocator<cvc5::internal::NodeTemplate<false>>>::_Vector_impl_data" = type { ptr, ptr, ptr }
%"class.cvc5::context::DefaultCleanUp" = type { i8 }
%"class.cvc5::internal::theory::uf::SymmetryBreaker" = type { %"class.cvc5::internal::EnvObj", %"class.cvc5::context::ContextNotifyObj", %"class.cvc5::context::CDList.45", i8, %"class.std::vector.46", %"class.std::set", %"class.std::set.56", %"class.std::__cxx11::list", %"class.cvc5::internal::theory::uf::SymmetryBreaker::Template", %"class.std::unordered_map.86", %"class.std::unordered_map", %"class.std::unordered_map", %"class.std::__cxx11::basic_string", %"struct.cvc5::internal::theory::uf::SymmetryBreaker::Statistics" }
%"class.cvc5::context::ContextNotifyObj" = type { ptr, ptr, ptr }
%"class.cvc5::context::CDList.45" = type <{ %"class.cvc5::context::ContextObj", %"class.std::vector.46", i64, i8, %"class.cvc5::context::DefaultCleanUp.51", [6 x i8] }>
%"class.cvc5::context::DefaultCleanUp.51" = type { i8 }
%"class.std::vector.46" = type { %"struct.std::_Vector_base.47" }
%"struct.std::_Vector_base.47" = type { %"struct.std::_Vector_base<cvc5::internal::NodeTemplate<true>, std::allocator<cvc5::internal::NodeTemplate<true>>>::_Vector_impl" }
%"struct.std::_Vector_base<cvc5::internal::NodeTemplate<true>, std::allocator<cvc5::internal::NodeTemplate<true>>>::_Vector_impl" = type { %"struct.std::_Vector_base<cvc5::internal::NodeTemplate<true>, std::allocator<cvc5::internal::NodeTemplate<true>>>::_Vector_impl_data" }
%"struct.std::_Vector_base<cvc5::internal::NodeTemplate<true>, std::allocator<cvc5::internal::NodeTemplate<true>>>::_Vector_impl_data" = type { ptr, ptr, ptr }
%"class.std::set" = type { %"class.std::_Rb_tree" }
%"class.std::_Rb_tree" = type { %"struct.std::_Rb_tree<cvc5::internal::NodeTemplate<false>, cvc5::internal::NodeTemplate<false>, std::_Identity<cvc5::internal::NodeTemplate<false>>, std::less<cvc5::internal::NodeTemplate<false>>>::_Rb_tree_impl" }
%"struct.std::_Rb_tree<cvc5::internal::NodeTemplate<false>, cvc5::internal::NodeTemplate<false>, std::_Identity<cvc5::internal::NodeTemplate<false>>, std::less<cvc5::internal::NodeTemplate<false>>>::_Rb_tree_impl" = type { %"struct.std::_Rb_tree_key_compare", %"struct.std::_Rb_tree_header" }
%"struct.std::_Rb_tree_key_compare" = type { %"struct.std::less" }
%"struct.std::less" = type { i8 }
%"struct.std::_Rb_tree_header" = type { %"struct.std::_Rb_tree_node_base", i64 }
%"struct.std::_Rb_tree_node_base" = type { i32, ptr, ptr, ptr }
%"class.std::set.56" = type { %"class.std::_Rb_tree.57" }
%"class.std::_Rb_tree.57" = type { %"struct.std::_Rb_tree<std::set<cvc5::internal::NodeTemplate<false>>, std::set<cvc5::internal::NodeTemplate<false>>, std::_Identity<std::set<cvc5::internal::NodeTemplate<false>>>, std::less<std::set<cvc5::internal::NodeTemplate<false>>>>::_Rb_tree_impl" }
%"struct.std::_Rb_tree<std::set<cvc5::internal::NodeTemplate<false>>, std::set<cvc5::internal::NodeTemplate<false>>, std::_Identity<std::set<cvc5::internal::NodeTemplate<false>>>, std::less<std::set<cvc5::internal::NodeTemplate<false>>>>::_Rb_tree_impl" = type { %"struct.std::_Rb_tree_key_compare.61", %"struct.std::_Rb_tree_header" }
%"struct.std::_Rb_tree_key_compare.61" = type { %"struct.std::less.62" }
%"struct.std::less.62" = type { i8 }
%"class.std::__cxx11::list" = type { %"class.std::__cxx11::_List_base" }
%"class.std::__cxx11::_List_base" = type { %"struct.std::__cxx11::_List_base<cvc5::internal::NodeTemplate<false>, std::allocator<cvc5::internal::NodeTemplate<false>>>::_List_impl" }
%"struct.std::__cxx11::_List_base<cvc5::internal::NodeTemplate<false>, std::allocator<cvc5::internal::NodeTemplate<false>>>::_List_impl" = type { %"struct.std::__detail::_List_node_header" }
%"struct.std::__detail::_List_node_header" = type { %"struct.std::__detail::_List_node_base", i64 }
%"struct.std::__detail::_List_node_base" = type { ptr, ptr }
%"class.cvc5::internal::theory::uf::SymmetryBreaker::Template" = type { %"class.cvc5::internal::NodeTemplate", %"class.cvc5::internal::NodeBuilder", %"class.std::unordered_map", %"class.std::unordered_map.72" }
%"class.cvc5::internal::NodeBuilder" = type <{ %"class.cvc5::internal::expr::NodeValue", [10 x ptr], ptr, ptr, i32, [4 x i8] }>
%"class.cvc5::internal::expr::NodeValue" = type { i64, i16, i32, [0 x ptr] }
%"class.std::unordered_map.72" = type { %"class.std::_Hashtable.73" }
%"class.std::_Hashtable.73" = type { ptr, i64, %"struct.std::__detail::_Hash_node_base", i64, %"struct.std::__detail::_Prime_rehash_policy", ptr }
%"struct.std::__detail::_Hash_node_base" = type { ptr }
%"struct.std::__detail::_Prime_rehash_policy" = type { float, i64 }
%"class.std::unordered_map.86" = type { %"class.std::_Hashtable.87" }
%"class.std::_Hashtable.87" = type { ptr, i64, %"struct.std::__detail::_Hash_node_base", i64, %"struct.std::__detail::_Prime_rehash_policy", ptr }
%"class.std::unordered_map" = type { %"class.std::_Hashtable" }
%"class.std::_Hashtable" = type { ptr, i64, %"struct.std::__detail::_Hash_node_base", i64, %"struct.std::__detail::_Prime_rehash_policy", ptr }
%"struct.cvc5::internal::theory::uf::SymmetryBreaker::Statistics" = type { %"class.cvc5::internal::IntStat", %"class.cvc5::internal::IntStat", %"class.cvc5::internal::IntStat", %"class.cvc5::internal::IntStat", %"class.cvc5::internal::TimerStat", %"class.cvc5::internal::TimerStat", %"class.cvc5::internal::TimerStat" }
%"class.cvc5::internal::IntStat" = type { %"class.cvc5::internal::ValueStat" }
%"class.cvc5::internal::ValueStat" = type { ptr }
%"class.cvc5::internal::theory::uf::TheoryUfRewriter" = type { %"class.cvc5::internal::theory::TheoryRewriter" }
%"class.cvc5::internal::theory::TheoryRewriter" = type { ptr }
%"class.cvc5::internal::theory::uf::UfProofRuleChecker" = type { %"class.cvc5::internal::ProofRuleChecker" }
%"class.cvc5::internal::ProofRuleChecker" = type { ptr }
%"class.cvc5::internal::theory::TheoryState" = type { %"class.cvc5::internal::EnvObj", %"class.cvc5::internal::theory::Valuation", ptr, %"class.cvc5::context::CDO.105" }
%"class.cvc5::context::CDO.105" = type <{ %"class.cvc5::context::ContextObj", i8, [7 x i8] }>
%"class.cvc5::internal::theory::TheoryInferenceManager" = type { %"class.cvc5::internal::EnvObj", ptr, ptr, ptr, ptr, ptr, ptr, %"class.std::unique_ptr.107", %"class.std::unique_ptr.115", %"class.std::unique_ptr.123", %"class.std::unique_ptr.131", i8, %"class.cvc5::context::CDHashSet", %"class.cvc5::context::CDHashSet", i32, i32, i32, %"class.cvc5::internal::HistogramStat", %"class.cvc5::internal::HistogramStat", %"class.cvc5::internal::HistogramStat" }
%"class.std::unique_ptr.107" = type { %"struct.std::__uniq_ptr_data.108" }
%"struct.std::__uniq_ptr_data.108" = type { %"class.std::__uniq_ptr_impl.109" }
%"class.std::__uniq_ptr_impl.109" = type { %"class.std::tuple.110" }
%"class.std::tuple.110" = type { %"struct.std::_Tuple_impl.111" }
%"struct.std::_Tuple_impl.111" = type { %"struct.std::_Head_base.114" }
%"struct.std::_Head_base.114" = type { ptr }
%"class.std::unique_ptr.115" = type { %"struct.std::__uniq_ptr_data.116" }
%"struct.std::__uniq_ptr_data.116" = type { %"class.std::__uniq_ptr_impl.117" }
%"class.std::__uniq_ptr_impl.117" = type { %"class.std::tuple.118" }
%"class.std::tuple.118" = type { %"struct.std::_Tuple_impl.119" }
%"struct.std::_Tuple_impl.119" = type { %"struct.std::_Head_base.122" }
%"struct.std::_Head_base.122" = type { ptr }
%"class.std::unique_ptr.123" = type { %"struct.std::__uniq_ptr_data.124" }
%"struct.std::__uniq_ptr_data.124" = type { %"class.std::__uniq_ptr_impl.125" }
%"class.std::__uniq_ptr_impl.125" = type { %"class.std::tuple.126" }
%"class.std::tuple.126" = type { %"struct.std::_Tuple_impl.127" }
%"struct.std::_Tuple_impl.127" = type { %"struct.std::_Head_base.130" }
%"struct.std::_Head_base.130" = type { ptr }
%"class.std::unique_ptr.131" = type { %"struct.std::__uniq_ptr_data.132" }
%"struct.std::__uniq_ptr_data.132" = type { %"class.std::__uniq_ptr_impl.133" }
%"class.std::__uniq_ptr_impl.133" = type { %"class.std::tuple.134" }
%"class.std::tuple.134" = type { %"struct.std::_Tuple_impl.135" }
%"struct.std::_Tuple_impl.135" = type { %"struct.std::_Head_base.138" }
%"struct.std::_Head_base.138" = type { ptr }
%"class.cvc5::context::CDHashSet" = type { %"class.cvc5::context::CDInsertHashMap" }
%"class.cvc5::context::CDInsertHashMap" = type { %"class.cvc5::context::ContextObj", ptr, i64 }
%"class.cvc5::internal::HistogramStat" = type { ptr }
%"class.cvc5::internal::theory::uf::TheoryUF::NotifyClass" = type { %"class.cvc5::internal::theory::TheoryEqNotifyClass", ptr }
%"class.cvc5::internal::theory::TheoryEqNotifyClass" = type { %"class.cvc5::internal::theory::eq::EqualityEngineNotify", ptr }
%"class.cvc5::internal::theory::eq::EqualityEngineNotify" = type { ptr }
%"class.std::map" = type { %"class.std::_Rb_tree.139" }
%"class.std::_Rb_tree.139" = type { %"struct.std::_Rb_tree<cvc5::internal::TypeNode, std::pair<const cvc5::internal::TypeNode, bool>, std::_Select1st<std::pair<const cvc5::internal::TypeNode, bool>>, std::less<cvc5::internal::TypeNode>>::_Rb_tree_impl" }
%"struct.std::_Rb_tree<cvc5::internal::TypeNode, std::pair<const cvc5::internal::TypeNode, bool>, std::_Select1st<std::pair<const cvc5::internal::TypeNode, bool>>, std::less<cvc5::internal::TypeNode>>::_Rb_tree_impl" = type { %"struct.std::_Rb_tree_key_compare.143", %"struct.std::_Rb_tree_header" }
%"struct.std::_Rb_tree_key_compare.143" = type { %"struct.std::less.144" }
%"struct.std::less.144" = type { i8 }
%"class.cvc5::internal::theory::CarePairArgumentCallback" = type { %"class.cvc5::internal::NodeTriePathPairProcessCallback", ptr }
%"class.cvc5::internal::NodeTriePathPairProcessCallback" = type { ptr }
%"class.std::allocator" = type { i8 }
%"class.cvc5::internal::NodeTemplate.665" = type { ptr }
%"struct.cvc5::internal::theory::EeSetupInfo" = type <{ ptr, %"class.std::__cxx11::basic_string", i8, i8, i8, i8, i8, [3 x i8] }>
%"class.cvc5::internal::Options" = type { %"class.std::unique_ptr.198", %"class.std::unique_ptr.206", %"class.std::unique_ptr.214", %"class.std::unique_ptr.222", %"class.std::unique_ptr.230", %"class.std::unique_ptr.238", %"class.std::unique_ptr.246", %"class.std::unique_ptr.254", %"class.std::unique_ptr.262", %"class.std::unique_ptr.270", %"class.std::unique_ptr.278", %"class.std::unique_ptr.286", %"class.std::unique_ptr.294", %"class.std::unique_ptr.302", %"class.std::unique_ptr.310", %"class.std::unique_ptr.318", %"class.std::unique_ptr.326", %"class.std::unique_ptr.334", %"class.std::unique_ptr.342", %"class.std::unique_ptr.350", %"class.std::unique_ptr.358", %"class.std::unique_ptr.366", %"class.std::unique_ptr.374", %"class.std::unique_ptr.382", ptr, ptr, ptr, ptr, ptr, ptr, ptr, ptr, ptr, ptr, ptr, ptr, ptr, ptr, ptr, ptr, ptr, ptr, ptr, ptr, ptr, ptr, ptr, ptr, %"class.std::unique_ptr.390" }
%"class.std::unique_ptr.198" = type { %"struct.std::__uniq_ptr_data.199" }
%"struct.std::__uniq_ptr_data.199" = type { %"class.std::__uniq_ptr_impl.200" }
%"class.std::__uniq_ptr_impl.200" = type { %"class.std::tuple.201" }
%"class.std::tuple.201" = type { %"struct.std::_Tuple_impl.202" }
%"struct.std::_Tuple_impl.202" = type { %"struct.std::_Head_base.205" }
%"struct.std::_Head_base.205" = type { ptr }
%"class.std::unique_ptr.206" = type { %"struct.std::__uniq_ptr_data.207" }
%"struct.std::__uniq_ptr_data.207" = type { %"class.std::__uniq_ptr_impl.208" }
%"class.std::__uniq_ptr_impl.208" = type { %"class.std::tuple.209" }
%"class.std::tuple.209" = type { %"struct.std::_Tuple_impl.210" }
%"struct.std::_Tuple_impl.210" = type { %"struct.std::_Head_base.213" }
%"struct.std::_Head_base.213" = type { ptr }
%"class.std::unique_ptr.214" = type { %"struct.std::__uniq_ptr_data.215" }
%"struct.std::__uniq_ptr_data.215" = type { %"class.std::__uniq_ptr_impl.216" }
%"class.std::__uniq_ptr_impl.216" = type { %"class.std::tuple.217" }
%"class.std::tuple.217" = type { %"struct.std::_Tuple_impl.218" }
%"struct.std::_Tuple_impl.218" = type { %"struct.std::_Head_base.221" }
%"struct.std::_Head_base.221" = type { ptr }
%"class.std::unique_ptr.222" = type { %"struct.std::__uniq_ptr_data.223" }
%"struct.std::__uniq_ptr_data.223" = type { %"class.std::__uniq_ptr_impl.224" }
%"class.std::__uniq_ptr_impl.224" = type { %"class.std::tuple.225" }
%"class.std::tuple.225" = type { %"struct.std::_Tuple_impl.226" }
%"struct.std::_Tuple_impl.226" = type { %"struct.std::_Head_base.229" }
%"struct.std::_Head_base.229" = type { ptr }
%"class.std::unique_ptr.230" = type { %"struct.std::__uniq_ptr_data.231" }
%"struct.std::__uniq_ptr_data.231" = type { %"class.std::__uniq_ptr_impl.232" }
%"class.std::__uniq_ptr_impl.232" = type { %"class.std::tuple.233" }
%"class.std::tuple.233" = type { %"struct.std::_Tuple_impl.234" }
%"struct.std::_Tuple_impl.234" = type { %"struct.std::_Head_base.237" }
%"struct.std::_Head_base.237" = type { ptr }
%"class.std::unique_ptr.238" = type { %"struct.std::__uniq_ptr_data.239" }
%"struct.std::__uniq_ptr_data.239" = type { %"class.std::__uniq_ptr_impl.240" }
%"class.std::__uniq_ptr_impl.240" = type { %"class.std::tuple.241" }
%"class.std::tuple.241" = type { %"struct.std::_Tuple_impl.242" }
%"struct.std::_Tuple_impl.242" = type { %"struct.std::_Head_base.245" }
%"struct.std::_Head_base.245" = type { ptr }
%"class.std::unique_ptr.246" = type { %"struct.std::__uniq_ptr_data.247" }
%"struct.std::__uniq_ptr_data.247" = type { %"class.std::__uniq_ptr_impl.248" }
%"class.std::__uniq_ptr_impl.248" = type { %"class.std::tuple.249" }
%"class.std::tuple.249" = type { %"struct.std::_Tuple_impl.250" }
%"struct.std::_Tuple_impl.250" = type { %"struct.std::_Head_base.253" }
%"struct.std::_Head_base.253" = type { ptr }
%"class.std::unique_ptr.254" = type { %"struct.std::__uniq_ptr_data.255" }
%"struct.std::__uniq_ptr_data.255" = type { %"class.std::__uniq_ptr_impl.256" }
%"class.std::__uniq_ptr_impl.256" = type { %"class.std::tuple.257" }
%"class.std::tuple.257" = type { %"struct.std::_Tuple_impl.258" }
%"struct.std::_Tuple_impl.258" = type { %"struct.std::_Head_base.261" }
%"struct.std::_Head_base.261" = type { ptr }
%"class.std::unique_ptr.262" = type { %"struct.std::__uniq_ptr_data.263" }
%"struct.std::__uniq_ptr_data.263" = type { %"class.std::__uniq_ptr_impl.264" }
%"class.std::__uniq_ptr_impl.264" = type { %"class.std::tuple.265" }
%"class.std::tuple.265" = type { %"struct.std::_Tuple_impl.266" }
%"struct.std::_Tuple_impl.266" = type { %"struct.std::_Head_base.269" }
%"struct.std::_Head_base.269" = type { ptr }
%"class.std::unique_ptr.270" = type { %"struct.std::__uniq_ptr_data.271" }
%"struct.std::__uniq_ptr_data.271" = type { %"class.std::__uniq_ptr_impl.272" }
%"class.std::__uniq_ptr_impl.272" = type { %"class.std::tuple.273" }
%"class.std::tuple.273" = type { %"struct.std::_Tuple_impl.274" }
%"struct.std::_Tuple_impl.274" = type { %"struct.std::_Head_base.277" }
%"struct.std::_Head_base.277" = type { ptr }
%"class.std::unique_ptr.278" = type { %"struct.std::__uniq_ptr_data.279" }
%"struct.std::__uniq_ptr_data.279" = type { %"class.std::__uniq_ptr_impl.280" }
%"class.std::__uniq_ptr_impl.280" = type { %"class.std::tuple.281" }
%"class.std::tuple.281" = type { %"struct.std::_Tuple_impl.282" }
%"struct.std::_Tuple_impl.282" = type { %"struct.std::_Head_base.285" }
%"struct.std::_Head_base.285" = type { ptr }
%"class.std::unique_ptr.286" = type { %"struct.std::__uniq_ptr_data.287" }
%"struct.std::__uniq_ptr_data.287" = type { %"class.std::__uniq_ptr_impl.288" }
%"class.std::__uniq_ptr_impl.288" = type { %"class.std::tuple.289" }
%"class.std::tuple.289" = type { %"struct.std::_Tuple_impl.290" }
%"struct.std::_Tuple_impl.290" = type { %"struct.std::_Head_base.293" }
%"struct.std::_Head_base.293" = type { ptr }
%"class.std::unique_ptr.294" = type { %"struct.std::__uniq_ptr_data.295" }
%"struct.std::__uniq_ptr_data.295" = type { %"class.std::__uniq_ptr_impl.296" }
%"class.std::__uniq_ptr_impl.296" = type { %"class.std::tuple.297" }
%"class.std::tuple.297" = type { %"struct.std::_Tuple_impl.298" }
%"struct.std::_Tuple_impl.298" = type { %"struct.std::_Head_base.301" }
%"struct.std::_Head_base.301" = type { ptr }
%"class.std::unique_ptr.302" = type { %"struct.std::__uniq_ptr_data.303" }
%"struct.std::__uniq_ptr_data.303" = type { %"class.std::__uniq_ptr_impl.304" }
%"class.std::__uniq_ptr_impl.304" = type { %"class.std::tuple.305" }
%"class.std::tuple.305" = type { %"struct.std::_Tuple_impl.306" }
%"struct.std::_Tuple_impl.306" = type { %"struct.std::_Head_base.309" }
%"struct.std::_Head_base.309" = type { ptr }
%"class.std::unique_ptr.310" = type { %"struct.std::__uniq_ptr_data.311" }
%"struct.std::__uniq_ptr_data.311" = type { %"class.std::__uniq_ptr_impl.312" }
%"class.std::__uniq_ptr_impl.312" = type { %"class.std::tuple.313" }
%"class.std::tuple.313" = type { %"struct.std::_Tuple_impl.314" }
%"struct.std::_Tuple_impl.314" = type { %"struct.std::_Head_base.317" }
%"struct.std::_Head_base.317" = type { ptr }
%"class.std::unique_ptr.318" = type { %"struct.std::__uniq_ptr_data.319" }
%"struct.std::__uniq_ptr_data.319" = type { %"class.std::__uniq_ptr_impl.320" }
%"class.std::__uniq_ptr_impl.320" = type { %"class.std::tuple.321" }
%"class.std::tuple.321" = type { %"struct.std::_Tuple_impl.322" }
%"struct.std::_Tuple_impl.322" = type { %"struct.std::_Head_base.325" }
%"struct.std::_Head_base.325" = type { ptr }
%"class.std::unique_ptr.326" = type { %"struct.std::__uniq_ptr_data.327" }
%"struct.std::__uniq_ptr_data.327" = type { %"class.std::__uniq_ptr_impl.328" }
%"class.std::__uniq_ptr_impl.328" = type { %"class.std::tuple.329" }
%"class.std::tuple.329" = type { %"struct.std::_Tuple_impl.330" }
%"struct.std::_Tuple_impl.330" = type { %"struct.std::_Head_base.333" }
%"struct.std::_Head_base.333" = type { ptr }
%"class.std::unique_ptr.334" = type { %"struct.std::__uniq_ptr_data.335" }
%"struct.std::__uniq_ptr_data.335" = type { %"class.std::__uniq_ptr_impl.336" }
%"class.std::__uniq_ptr_impl.336" = type { %"class.std::tuple.337" }
%"class.std::tuple.337" = type { %"struct.std::_Tuple_impl.338" }
%"struct.std::_Tuple_impl.338" = type { %"struct.std::_Head_base.341" }
%"struct.std::_Head_base.341" = type { ptr }
%"class.std::unique_ptr.342" = type { %"struct.std::__uniq_ptr_data.343" }
%"struct.std::__uniq_ptr_data.343" = type { %"class.std::__uniq_ptr_impl.344" }
%"class.std::__uniq_ptr_impl.344" = type { %"class.std::tuple.345" }
%"class.std::tuple.345" = type { %"struct.std::_Tuple_impl.346" }
%"struct.std::_Tuple_impl.346" = type { %"struct.std::_Head_base.349" }
%"struct.std::_Head_base.349" = type { ptr }
%"class.std::unique_ptr.350" = type { %"struct.std::__uniq_ptr_data.351" }
%"struct.std::__uniq_ptr_data.351" = type { %"class.std::__uniq_ptr_impl.352" }
%"class.std::__uniq_ptr_impl.352" = type { %"class.std::tuple.353" }
%"class.std::tuple.353" = type { %"struct.std::_Tuple_impl.354" }
%"struct.std::_Tuple_impl.354" = type { %"struct.std::_Head_base.357" }
%"struct.std::_Head_base.357" = type { ptr }
%"class.std::unique_ptr.358" = type { %"struct.std::__uniq_ptr_data.359" }
%"struct.std::__uniq_ptr_data.359" = type { %"class.std::__uniq_ptr_impl.360" }
%"class.std::__uniq_ptr_impl.360" = type { %"class.std::tuple.361" }
%"class.std::tuple.361" = type { %"struct.std::_Tuple_impl.362" }
%"struct.std::_Tuple_impl.362" = type { %"struct.std::_Head_base.365" }
%"struct.std::_Head_base.365" = type { ptr }
%"class.std::unique_ptr.366" = type { %"struct.std::__uniq_ptr_data.367" }
%"struct.std::__uniq_ptr_data.367" = type { %"class.std::__uniq_ptr_impl.368" }
%"class.std::__uniq_ptr_impl.368" = type { %"class.std::tuple.369" }
%"class.std::tuple.369" = type { %"struct.std::_Tuple_impl.370" }
%"struct.std::_Tuple_impl.370" = type { %"struct.std::_Head_base.373" }
%"struct.std::_Head_base.373" = type { ptr }
%"class.std::unique_ptr.374" = type { %"struct.std::__uniq_ptr_data.375" }
%"struct.std::__uniq_ptr_data.375" = type { %"class.std::__uniq_ptr_impl.376" }
%"class.std::__uniq_ptr_impl.376" = type { %"class.std::tuple.377" }
%"class.std::tuple.377" = type { %"struct.std::_Tuple_impl.378" }
%"struct.std::_Tuple_impl.378" = type { %"struct.std::_Head_base.381" }
%"struct.std::_Head_base.381" = type { ptr }
%"class.std::unique_ptr.382" = type { %"struct.std::__uniq_ptr_data.383" }
%"struct.std::__uniq_ptr_data.383" = type { %"class.std::__uniq_ptr_impl.384" }
%"class.std::__uniq_ptr_impl.384" = type { %"class.std::tuple.385" }
%"class.std::tuple.385" = type { %"struct.std::_Tuple_impl.386" }
%"struct.std::_Tuple_impl.386" = type { %"struct.std::_Head_base.389" }
%"struct.std::_Head_base.389" = type { ptr }
%"class.std::unique_ptr.390" = type { %"struct.std::__uniq_ptr_data.391" }
%"struct.std::__uniq_ptr_data.391" = type { %"class.std::__uniq_ptr_impl.392" }
%"class.std::__uniq_ptr_impl.392" = type { %"class.std::tuple.393" }
%"class.std::tuple.393" = type { %"struct.std::_Tuple_impl.394" }
%"struct.std::_Tuple_impl.394" = type { %"struct.std::_Head_base.397" }
%"struct.std::_Head_base.397" = type { ptr }
%"struct.cvc5::internal::options::HolderQUANTIFIERS" = type <{ i8, i8, i8, i8, i8, i8, i8, i8, i32, i8, i8, i8, i8, i8, i8, i8, i8, i32, i8, i8, i8, i8, i8, i8, i8, i8, i8, [3 x i8], i32, i8, i8, i8, i8, i8, i8, i8, i8, i8, i8, i8, i8, i8, i8, i8, i8, i8, i8, i8, i8, i8, i8, i8, i8, i8, i8, i8, i8, i8, [3 x i8], i32, i8, i8, i8, i8, i64, i8, [7 x i8], i64, i8, [7 x i8], i64, i8, i8, i8, i8, i8, i8, i8, i8, i8, i8, i8, i8, i8, i8, i8, i8, i64, i8, i8, i8, i8, i8, i8, i8, i8, i8, i8, i8, i8, i8, i8, i8, i8, i8, i8, i8, i8, i8, [3 x i8], i32, i8, [3 x i8], i64, i8, i8, i8, i8, i8, i8, i8, i8, i8, i8, i8, i8, i8, [3 x i8], i32, i8, i8, i8, i8, i64, i8, [7 x i8], i64, i8, i8, i8, i8, i32, i8, [7 x i8], i64, i8, i8, i8, i8, i8, [3 x i8], i32, i8, [3 x i8], i32, i8, i8, i8, i8, i32, i8, i8, i8, i8, i8, i8, i8, i8, i32, i8, i8, i8, i8, i8, i8, i8, i8, i8, i8, i8, i8, i8, i8, i8, i8, i32, i8, i8, i8, i8, i32, i8, i8, i8, i8, i32, i8, i8, i8, i8, i8, i8, i8, i8, i32, i8, i8, i8, i8, i8, [3 x i8], i32, i8, i8, i8, i8, i8, i8, i8, i8, i8, i8, i8, i8, i8, i8, i8, i8, i8, i8, i8, i8, i8, [3 x i8], i32, i8, [7 x i8], i64, i8, [7 x i8], double, i8, [3 x i8], i32, i8, [7 x i8], i64, i8, [3 x i8], i32, i8, i8, i8, i8, i32, i8, i8, i8, i8, i8, i8, i8, i8, i8, [3 x i8], i32, i8, [3 x i8], i32, i8, [3 x i8], i32, i8, [3 x i8], i32, i8, i8, i8, i8, i8, [3 x i8], i32, i8, i8, i8, i8, i8, [7 x i8], i64, i8, i8, i8, i8, i32, i8, [3 x i8], i32, i8, i8, i8, [5 x i8], i64, i8, i8, i8, [5 x i8], i64, i8, i8, i8, [5 x i8], i64, i8, i8, i8, i8, i8, i8, i8, i8, i8, i8, i8, i8, i8, [3 x i8], i64, i8, i8, i8, i8, i8, i8, i8, i8, i64, i8, [3 x i8], i32, i8, i8, i8, i8, i32, i8, [7 x i8], i64, i8, [7 x i8], double, i8, i8, i8, i8, i8, [3 x i8], i32, i8, i8, i8, i8, i64, i8, [7 x i8], i64, i8, i8, i8, i8, i32, i8, [3 x i8], i32, i8, [3 x i8], i32, i8, [3 x i8], i32, i8, [3 x i8], i32, i8, i8, i8, i8, i8, [3 x i8] }>
%"struct.cvc5::internal::options::HolderUF" = type <{ i8, i8, i8, i8, i8, i8, i8, i8, i32, i8, [3 x i8], i64, i8, i8, i8, i8, i8, [3 x i8] }>
%"class.cvc5::internal::TypeNode" = type { ptr }
%"class.std::__cxx11::basic_stringstream" = type { %"class.std::basic_iostream.base", %"class.std::__cxx11::basic_stringbuf", %"class.std::basic_ios" }
%"class.std::basic_iostream.base" = type { %"class.std::basic_istream.base", %"class.std::basic_ostream.base" }
%"class.std::basic_istream.base" = type { ptr, i64 }
%"class.std::basic_ostream.base" = type { ptr }
%"class.std::__cxx11::basic_stringbuf" = type { %"class.std::basic_streambuf", i32, %"class.std::__cxx11::basic_string" }
%"class.std::basic_streambuf" = type { ptr, ptr, ptr, ptr, ptr, ptr, ptr, %"class.std::locale" }
%"class.std::locale" = type { ptr }
%"class.std::basic_ios" = type { %"class.std::ios_base", ptr, i8, i8, ptr, ptr, ptr, ptr }
%"class.std::ios_base" = type { ptr, i64, i64, i32, i32, i32, ptr, %"struct.std::ios_base::_Words", [8 x %"struct.std::ios_base::_Words"], i32, ptr, %"class.std::locale" }
%"struct.std::ios_base::_Words" = type { ptr, i64 }
%"class.cvc5::internal::Exception" = type { %"class.std::exception", %"class.std::__cxx11::basic_string" }
%"class.std::exception" = type { ptr }
%"class.cvc5::internal::TrustNode" = type { i32, %"class.cvc5::internal::NodeTemplate", ptr }
%"class.std::tuple.817" = type { %"struct.std::_Tuple_impl.818" }
%"struct.std::_Tuple_impl.818" = type { %"struct.std::_Head_base.819" }
%"struct.std::_Head_base.819" = type { ptr }
%"class.std::tuple.800" = type { i8 }
%"class.std::vector.722" = type { %"struct.std::_Vector_base.723" }
%"struct.std::_Vector_base.723" = type { %"struct.std::_Vector_base<cvc5::internal::TypeNode, std::allocator<cvc5::internal::TypeNode>>::_Vector_impl" }
%"struct.std::_Vector_base<cvc5::internal::TypeNode, std::allocator<cvc5::internal::TypeNode>>::_Vector_impl" = type { %"struct.std::_Vector_base<cvc5::internal::TypeNode, std::allocator<cvc5::internal::TypeNode>>::_Vector_impl_data" }
%"struct.std::_Vector_base<cvc5::internal::TypeNode, std::allocator<cvc5::internal::TypeNode>>::_Vector_impl_data" = type { ptr, ptr, ptr }
%"struct.std::_Rb_tree_node" = type { %"struct.std::_Rb_tree_node_base", %"struct.__gnu_cxx::__aligned_membuf" }
%"struct.__gnu_cxx::__aligned_membuf" = type { [16 x i8] }
%"class.cvc5::context::Context" = type { ptr, %"class.std::vector.784", ptr, ptr }
%"class.std::vector.784" = type { %"struct.std::_Vector_base.785" }
%"struct.std::_Vector_base.785" = type { %"struct.std::_Vector_base<cvc5::context::Scope *, std::allocator<cvc5::context::Scope *>>::_Vector_impl" }
%"struct.std::_Vector_base<cvc5::context::Scope *, std::allocator<cvc5::context::Scope *>>::_Vector_impl" = type { %"struct.std::_Vector_base<cvc5::context::Scope *, std::allocator<cvc5::context::Scope *>>::_Vector_impl_data" }
%"struct.std::_Vector_base<cvc5::context::Scope *, std::allocator<cvc5::context::Scope *>>::_Vector_impl_data" = type { ptr, ptr, ptr }
%"struct.std::__detail::_AllocNode" = type { ptr }
%"class.std::unordered_set.678" = type { %"class.std::_Hashtable.679" }
%"class.std::_Hashtable.679" = type { ptr, i64, %"struct.std::__detail::_Hash_node_base", i64, %"struct.std::__detail::_Prime_rehash_policy", ptr }
%"class.std::tuple.797" = type { %"struct.std::_Tuple_impl.798" }
%"struct.std::_Tuple_impl.798" = type { %"struct.std::_Head_base.799" }
%"struct.std::_Head_base.799" = type { ptr }
%"class.std::tuple.809" = type { %"struct.std::_Tuple_impl.810" }
%"struct.std::_Tuple_impl.810" = type { %"struct.std::_Head_base.811" }
%"struct.std::_Head_base.811" = type { ptr }
%"class.std::map.692" = type { %"class.std::_Rb_tree.693" }
%"class.std::_Rb_tree.693" = type { %"struct.std::_Rb_tree<cvc5::internal::NodeTemplate<true>, std::pair<const cvc5::internal::NodeTemplate<true>, cvc5::internal::NodeTemplateTrie<false>>, std::_Select1st<std::pair<const cvc5::internal::NodeTemplate<true>, cvc5::internal::NodeTemplateTrie<false>>>, std::less<cvc5::internal::NodeTemplate<true>>>::_Rb_tree_impl" }
%"struct.std::_Rb_tree<cvc5::internal::NodeTemplate<true>, std::pair<const cvc5::internal::NodeTemplate<true>, cvc5::internal::NodeTemplateTrie<false>>, std::_Select1st<std::pair<const cvc5::internal::NodeTemplate<true>, cvc5::internal::NodeTemplateTrie<false>>>, std::less<cvc5::internal::NodeTemplate<true>>>::_Rb_tree_impl" = type { %"struct.std::_Rb_tree_key_compare.663", %"struct.std::_Rb_tree_header" }
%"struct.std::_Rb_tree_key_compare.663" = type { %"struct.std::less.664" }
%"struct.std::less.664" = type { i8 }
%"class.std::map.697" = type { %"class.std::_Rb_tree.698" }
%"class.std::_Rb_tree.698" = type { %"struct.std::_Rb_tree<cvc5::internal::TypeNode, std::pair<const cvc5::internal::TypeNode, cvc5::internal::NodeTemplateTrie<false>>, std::_Select1st<std::pair<const cvc5::internal::TypeNode, cvc5::internal::NodeTemplateTrie<false>>>, std::less<cvc5::internal::TypeNode>>::_Rb_tree_impl" }
%"struct.std::_Rb_tree<cvc5::internal::TypeNode, std::pair<const cvc5::internal::TypeNode, cvc5::internal::NodeTemplateTrie<false>>, std::_Select1st<std::pair<const cvc5::internal::TypeNode, cvc5::internal::NodeTemplateTrie<false>>>, std::less<cvc5::internal::TypeNode>>::_Rb_tree_impl" = type { %"struct.std::_Rb_tree_key_compare.143", %"struct.std::_Rb_tree_header" }
%"class.std::map.702" = type { %"class.std::_Rb_tree.703" }
%"class.std::_Rb_tree.703" = type { %"struct.std::_Rb_tree<cvc5::internal::NodeTemplate<true>, std::pair<const cvc5::internal::NodeTemplate<true>, unsigned long>, std::_Select1st<std::pair<const cvc5::internal::NodeTemplate<true>, unsigned long>>, std::less<cvc5::internal::NodeTemplate<true>>>::_Rb_tree_impl" }
%"struct.std::_Rb_tree<cvc5::internal::NodeTemplate<true>, std::pair<const cvc5::internal::NodeTemplate<true>, unsigned long>, std::_Select1st<std::pair<const cvc5::internal::NodeTemplate<true>, unsigned long>>, std::less<cvc5::internal::NodeTemplate<true>>>::_Rb_tree_impl" = type { %"struct.std::_Rb_tree_key_compare.663", %"struct.std::_Rb_tree_header" }
%"struct.std::_Rb_tree_node.779" = type { %"struct.std::_Rb_tree_node_base", %"struct.__gnu_cxx::__aligned_membuf.780" }
%"struct.__gnu_cxx::__aligned_membuf.780" = type { [56 x i8] }
%"struct.std::_Rb_tree_node.769" = type { %"struct.std::_Rb_tree_node_base", %"struct.__gnu_cxx::__aligned_membuf.770" }
%"struct.__gnu_cxx::__aligned_membuf.770" = type { [16 x i8] }
%"struct.std::_Rb_tree_node.773" = type { %"struct.std::_Rb_tree_node_base", %"struct.__gnu_cxx::__aligned_membuf.774" }
%"struct.__gnu_cxx::__aligned_membuf.774" = type { [56 x i8] }
%"class.cvc5::internal::FatalStream" = type { i8 }
%"struct.std::_Rb_tree_node.760" = type { %"struct.std::_Rb_tree_node_base", %"struct.__gnu_cxx::__aligned_membuf.761" }
%"struct.__gnu_cxx::__aligned_membuf.761" = type { [48 x i8] }
%struct._Guard = type { ptr }
%"struct.std::_Rb_tree_node.775" = type { %"struct.std::_Rb_tree_node_base", %"struct.__gnu_cxx::__aligned_membuf.776" }
%"struct.__gnu_cxx::__aligned_membuf.776" = type { [56 x i8] }
%"struct.std::_Rb_tree<cvc5::internal::NodeTemplate<true>, std::pair<const cvc5::internal::NodeTemplate<true>, cvc5::internal::NodeTemplateTrie<false>>, std::_Select1st<std::pair<const cvc5::internal::NodeTemplate<true>, cvc5::internal::NodeTemplateTrie<false>>>, std::less<cvc5::internal::NodeTemplate<true>>>::_Auto_node" = type { ptr, ptr }
%"struct.std::_Rb_tree<cvc5::internal::NodeTemplate<true>, std::pair<const cvc5::internal::NodeTemplate<true>, unsigned long>, std::_Select1st<std::pair<const cvc5::internal::NodeTemplate<true>, unsigned long>>, std::less<cvc5::internal::NodeTemplate<true>>>::_Auto_node" = type { ptr, ptr }
%"struct.std::_Rb_tree<cvc5::internal::TypeNode, std::pair<const cvc5::internal::TypeNode, cvc5::internal::NodeTemplateTrie<false>>, std::_Select1st<std::pair<const cvc5::internal::TypeNode, cvc5::internal::NodeTemplateTrie<false>>>, std::less<cvc5::internal::TypeNode>>::_Auto_node" = type { ptr, ptr }
%"struct.std::_Rb_tree<cvc5::internal::TypeNode, std::pair<const cvc5::internal::TypeNode, bool>, std::_Select1st<std::pair<const cvc5::internal::TypeNode, bool>>, std::less<cvc5::internal::TypeNode>>::_Auto_node" = type { ptr, ptr }

$_ZStplIcSt11char_traitsIcESaIcEENSt7__cxx1112basic_stringIT_T0_T1_EEPKS5_RKS8_ = comdat any

$_ZN4cvc58internal12NodeTemplateILb1EED2Ev = comdat any

$_ZNSt3mapIN4cvc58internal8TypeNodeEbSt4lessIS2_ESaISt4pairIKS2_bEEED2Ev = comdat any

$_ZN4cvc58internal6theory2uf8TheoryUF11NotifyClassD2Ev = comdat any

$_ZN4cvc58internal6theory11TheoryStateD2Ev = comdat any

$_ZN4cvc58internal6theory2uf15SymmetryBreakerD2Ev = comdat any

$_ZN4cvc57context6CDListINS_8internal12NodeTemplateILb0EEENS0_14DefaultCleanUpIS4_EESaIS4_EED2Ev = comdat any

$_ZNK4cvc58internal12NodeTemplateILb0EEixEi = comdat any

$_ZNK4cvc58internal12NodeTemplateILb0EE7getTypeEb = comdat any

$_ZN4cvc58internal8TypeNodeD2Ev = comdat any

$_ZN4cvc58internal9ExceptionC2ERKNSt7__cxx1112basic_stringIcSt11char_traitsIcESaIcEEE = comdat any

$_ZN4cvc58internal9ExceptionD2Ev = comdat any

$_ZN4cvc58internal14LogicExceptionC2ERKNSt7__cxx1112basic_stringIcSt11char_traitsIcESaIcEEE = comdat any

$_ZN4cvc58internal14LogicExceptionD2Ev = comdat any

$_ZNK4cvc58internal12NodeTemplateILb0EE11getOperatorEv = comdat any

$_ZNK4cvc58internal12NodeTemplateILb1EE7getTypeEb = comdat any

$_ZN4cvc58internal9TrustNodeD2Ev = comdat any

$_ZN4cvc57context6CDListINS_8internal12NodeTemplateILb0EEENS0_14DefaultCleanUpIS4_EESaIS4_EE9push_backERKS4_ = comdat any

$_ZN4cvc58internal14LogicExceptionC2EPKc = comdat any

$_ZN4cvc58internal11NodeManager5mkAndILb0EEENS0_12NodeTemplateILb1EEERKSt6vectorINS3_IXT_EEESaIS6_EE = comdat any

$_ZNSt6vectorIN4cvc58internal12NodeTemplateILb1EEESaIS3_EED2Ev = comdat any

$_ZNK4cvc58internal12NodeTemplateILb0EE6eqNodeILb0EEENS1_ILb1EEERKNS1_IXT_EEE = comdat any

$_ZNK4cvc58internal12NodeTemplateILb0EE7impNodeILb1EEENS1_ILb1EEERKNS1_IXT_EEE = comdat any

$_ZNSt13unordered_setIN4cvc58internal12NodeTemplateILb0EEESt4hashIS3_ESt8equal_toIS3_ESaIS3_EED2Ev = comdat any

$_ZNSt3mapIN4cvc58internal12NodeTemplateILb1EEEmSt4lessIS3_ESaISt4pairIKS3_mEEED2Ev = comdat any

$_ZNSt3mapIN4cvc58internal8TypeNodeENS1_16NodeTemplateTrieILb0EEESt4lessIS2_ESaISt4pairIKS2_S4_EEED2Ev = comdat any

$_ZNSt3mapIN4cvc58internal12NodeTemplateILb1EEENS1_16NodeTemplateTrieILb0EEESt4lessIS3_ESaISt4pairIKS3_S5_EEED2Ev = comdat any

$_ZNSt6vectorIN4cvc58internal8TypeNodeESaIS2_EED2Ev = comdat any

$_ZN4cvc58internal6theory6Theory22getCandidateModelValueENS0_12NodeTemplateILb0EEE = comdat any

$_ZN4cvc58internal6theory6Theory9propagateENS2_6EffortE = comdat any

$_ZN4cvc58internal6theory6Theory16postProcessModelEPNS1_11TheoryModelE = comdat any

$_ZN4cvc58internal6theory6Theory15ppStaticRewriteENS0_12NodeTemplateILb0EEE = comdat any

$_ZN4cvc58internal6theory6Theory18ppNotifyAssertionsERKSt6vectorINS0_12NodeTemplateILb1EEESaIS5_EE = comdat any

$_ZN4cvc58internal6theory6Theory13notifyRestartEv = comdat any

$_ZNK4cvc58internal6theory2uf8TheoryUF8identifyB5cxx11Ev = comdat any

$_ZN4cvc58internal12NodeTemplateILb1EE6s_nullE = comdat any

$__clang_call_terminate = comdat any

$_ZN4cvc58internal6theory2uf8TheoryUF11NotifyClassD0Ev = comdat any

$_ZN4cvc58internal6theory19TheoryEqNotifyClass24eqNotifyTriggerPredicateENS0_12NodeTemplateILb0EEEb = comdat any

$_ZN4cvc58internal6theory19TheoryEqNotifyClass27eqNotifyTriggerTermEqualityENS1_8TheoryIdENS0_12NodeTemplateILb0EEES5_b = comdat any

$_ZN4cvc58internal6theory19TheoryEqNotifyClass25eqNotifyConstantTermMergeENS0_12NodeTemplateILb0EEES4_ = comdat any

$_ZN4cvc58internal6theory2uf8TheoryUF11NotifyClass16eqNotifyNewClassENS0_12NodeTemplateILb0EEE = comdat any

$_ZN4cvc58internal6theory2uf8TheoryUF11NotifyClass13eqNotifyMergeENS0_12NodeTemplateILb0EEES6_ = comdat any

$_ZN4cvc58internal6theory2uf8TheoryUF11NotifyClass16eqNotifyDisequalENS0_12NodeTemplateILb0EEES6_S6_ = comdat any

$_ZNSt8_Rb_treeIN4cvc58internal8TypeNodeESt4pairIKS2_bESt10_Select1stIS5_ESt4lessIS2_ESaIS5_EE8_M_eraseEPSt13_Rb_tree_nodeIS5_E = comdat any

$_ZN4cvc57context3CDOIbED2Ev = comdat any

$_ZN4cvc57context3CDOIbE4saveEPNS0_20ContextMemoryManagerE = comdat any

$_ZN4cvc57context3CDOIbE7restoreEPNS0_10ContextObjE = comdat any

$_ZN4cvc57context3CDOIbED0Ev = comdat any

$_ZN4cvc57context10ContextObjD2Ev = comdat any

$_ZN4cvc57context10ContextObjD0Ev = comdat any

$_ZN4cvc57context10ContextObjdlEPv = comdat any

$_ZThn16_N4cvc58internal6theory2uf15SymmetryBreakerD1Ev = comdat any

$_ZN4cvc58internal6theory2uf15SymmetryBreaker8TemplateD2Ev = comdat any

$_ZN4cvc57context6CDListINS_8internal12NodeTemplateILb1EEENS0_14DefaultCleanUpIS4_EESaIS4_EED2Ev = comdat any

$_ZN4cvc58internal6theory2uf15SymmetryBreakerD0Ev = comdat any

$_ZN4cvc58internal6theory2uf15SymmetryBreaker16contextNotifyPopEv = comdat any

$_ZThn16_N4cvc58internal6theory2uf15SymmetryBreaker16contextNotifyPopEv = comdat any

$_ZThn16_N4cvc58internal6theory2uf15SymmetryBreakerD0Ev = comdat any

$_ZNSt8__detail16_Hashtable_allocISaINS_10_Hash_nodeISt4pairIKN4cvc58internal12NodeTemplateILb1EEES6_ELb1EEEEE18_M_deallocate_nodeEPS9_ = comdat any

$_ZNSt8_Rb_treeISt3setIN4cvc58internal12NodeTemplateILb0EEESt4lessIS4_ESaIS4_EES8_St9_IdentityIS8_ES5_IS8_ESaIS8_EE8_M_eraseEPSt13_Rb_tree_nodeIS8_E = comdat any

$_ZNSt8_Rb_treeIN4cvc58internal12NodeTemplateILb0EEES3_St9_IdentityIS3_ESt4lessIS3_ESaIS3_EE8_M_eraseEPSt13_Rb_tree_nodeIS3_E = comdat any

$_ZN4cvc57context6CDListINS_8internal12NodeTemplateILb1EEENS0_14DefaultCleanUpIS4_EESaIS4_EE4saveEPNS0_20ContextMemoryManagerE = comdat any

$_ZN4cvc57context6CDListINS_8internal12NodeTemplateILb1EEENS0_14DefaultCleanUpIS4_EESaIS4_EE7restoreEPNS0_10ContextObjE = comdat any

$_ZN4cvc57context6CDListINS_8internal12NodeTemplateILb1EEENS0_14DefaultCleanUpIS4_EESaIS4_EED0Ev = comdat any

$_ZNSt6vectorIN4cvc58internal12NodeTemplateILb1EEESaIS3_EE8_M_eraseEN9__gnu_cxx17__normal_iteratorIPS3_S5_EES9_ = comdat any

$_ZSt8_DestroyIPN4cvc58internal12NodeTemplateILb1EEES3_EvT_S5_RSaIT0_E = comdat any

$_ZSt8_DestroyIPN4cvc58internal12NodeTemplateILb1EEEEvT_S5_ = comdat any

$_ZN4cvc58internal14LogicExceptionD0Ev = comdat any

$_ZNK4cvc58internal9Exception4whatEv = comdat any

$_ZN4cvc58internal9ExceptionC2EPKc = comdat any

$_ZNSt7__cxx1112basic_stringIcSt11char_traitsIcESaIcEE12_M_constructIPKcEEvT_S8_St20forward_iterator_tag = comdat any

$_ZZNSt7__cxx1112basic_stringIcSt11char_traitsIcESaIcEE12_M_constructIPKcEEvT_S8_St20forward_iterator_tagEN6_GuardD2Ev = comdat any

$_ZNSt8_Rb_treeIN4cvc58internal12NodeTemplateILb1EEESt4pairIKS3_mESt10_Select1stIS6_ESt4lessIS3_ESaIS6_EE8_M_eraseEPSt13_Rb_tree_nodeIS6_E = comdat any

$_ZNSt8_Rb_treeIN4cvc58internal8TypeNodeESt4pairIKS2_NS1_16NodeTemplateTrieILb0EEEESt10_Select1stIS7_ESt4lessIS2_ESaIS7_EE8_M_eraseEPSt13_Rb_tree_nodeIS7_E = comdat any

$_ZNSt8_Rb_treeIN4cvc58internal12NodeTemplateILb0EEESt4pairIKS3_NS1_16NodeTemplateTrieILb0EEEESt10_Select1stIS8_ESt4lessIS3_ESaIS8_EE8_M_eraseEPSt13_Rb_tree_nodeIS8_E = comdat any

$_ZNSt8_Rb_treeIN4cvc58internal12NodeTemplateILb1EEESt4pairIKS3_NS1_16NodeTemplateTrieILb0EEEESt10_Select1stIS8_ESt4lessIS3_ESaIS8_EE8_M_eraseEPSt13_Rb_tree_nodeIS8_E = comdat any

$_ZN4cvc58internal8TypeNodeaSERKS1_ = comdat any

$_ZN4cvc57context6CDListINS_8internal12NodeTemplateILb0EEENS0_14DefaultCleanUpIS4_EESaIS4_EE4saveEPNS0_20ContextMemoryManagerE = comdat any

$_ZN4cvc57context6CDListINS_8internal12NodeTemplateILb0EEENS0_14DefaultCleanUpIS4_EESaIS4_EE7restoreEPNS0_10ContextObjE = comdat any

$_ZN4cvc57context6CDListINS_8internal12NodeTemplateILb0EEENS0_14DefaultCleanUpIS4_EESaIS4_EED0Ev = comdat any

$_ZNSt10_HashtableIN4cvc58internal12NodeTemplateILb0EEES3_SaIS3_ENSt8__detail9_IdentityESt8equal_toIS3_ESt4hashIS3_ENS5_18_Mod_range_hashingENS5_20_Default_ranged_hashENS5_20_Prime_rehash_policyENS5_17_Hashtable_traitsILb1ELb1ELb1EEEE16_M_insert_uniqueIRKS3_SJ_NS5_10_AllocNodeISaINS5_10_Hash_nodeIS3_Lb1EEEEEEEESt4pairINS5_14_Node_iteratorIS3_Lb1ELb1EEEbEOT_OT0_RKT1_ = comdat any

$_ZNSt10_HashtableIN4cvc58internal12NodeTemplateILb0EEES3_SaIS3_ENSt8__detail9_IdentityESt8equal_toIS3_ESt4hashIS3_ENS5_18_Mod_range_hashingENS5_20_Default_ranged_hashENS5_20_Prime_rehash_policyENS5_17_Hashtable_traitsILb1ELb1ELb1EEEE21_M_insert_unique_nodeEmmPNS5_10_Hash_nodeIS3_Lb1EEEm = comdat any

$_ZNSt10_HashtableIN4cvc58internal12NodeTemplateILb0EEES3_SaIS3_ENSt8__detail9_IdentityESt8equal_toIS3_ESt4hashIS3_ENS5_18_Mod_range_hashingENS5_20_Default_ranged_hashENS5_20_Prime_rehash_policyENS5_17_Hashtable_traitsILb1ELb1ELb1EEEE13_M_rehash_auxEmSt17integral_constantIbLb1EE = comdat any

$_ZNSt8_Rb_treeIN4cvc58internal12NodeTemplateILb1EEESt4pairIKS3_NS1_16NodeTemplateTrieILb0EEEESt10_Select1stIS8_ESt4lessIS3_ESaIS8_EE22_M_emplace_hint_uniqueIJRKSt21piecewise_construct_tSt5tupleIJRS5_EESJ_IJEEEEESt17_Rb_tree_iteratorIS8_ESt23_Rb_tree_const_iteratorIS8_EDpOT_ = comdat any

$_ZNSt8_Rb_treeIN4cvc58internal12NodeTemplateILb1EEESt4pairIKS3_NS1_16NodeTemplateTrieILb0EEEESt10_Select1stIS8_ESt4lessIS3_ESaIS8_EE29_M_get_insert_hint_unique_posESt23_Rb_tree_const_iteratorIS8_ERS5_ = comdat any

$_ZNSt8_Rb_treeIN4cvc58internal12NodeTemplateILb1EEESt4pairIKS3_NS1_16NodeTemplateTrieILb0EEEESt10_Select1stIS8_ESt4lessIS3_ESaIS8_EE10_Auto_nodeD2Ev = comdat any

$_ZNSt8_Rb_treeIN4cvc58internal12NodeTemplateILb1EEESt4pairIKS3_NS1_16NodeTemplateTrieILb0EEEESt10_Select1stIS8_ESt4lessIS3_ESaIS8_EE17_M_construct_nodeIJRKSt21piecewise_construct_tSt5tupleIJRS5_EESJ_IJEEEEEvPSt13_Rb_tree_nodeIS8_EDpOT_ = comdat any

$_ZNSt8_Rb_treeIN4cvc58internal12NodeTemplateILb1EEESt4pairIKS3_mESt10_Select1stIS6_ESt4lessIS3_ESaIS6_EE22_M_emplace_hint_uniqueIJRKSt21piecewise_construct_tSt5tupleIJRS5_EESH_IJEEEEESt17_Rb_tree_iteratorIS6_ESt23_Rb_tree_const_iteratorIS6_EDpOT_ = comdat any

$_ZNSt8_Rb_treeIN4cvc58internal12NodeTemplateILb1EEESt4pairIKS3_mESt10_Select1stIS6_ESt4lessIS3_ESaIS6_EE29_M_get_insert_hint_unique_posESt23_Rb_tree_const_iteratorIS6_ERS5_ = comdat any

$_ZNSt8_Rb_treeIN4cvc58internal12NodeTemplateILb1EEESt4pairIKS3_mESt10_Select1stIS6_ESt4lessIS3_ESaIS6_EE10_Auto_nodeD2Ev = comdat any

$_ZNSt8_Rb_treeIN4cvc58internal12NodeTemplateILb1EEESt4pairIKS3_mESt10_Select1stIS6_ESt4lessIS3_ESaIS6_EE17_M_construct_nodeIJRKSt21piecewise_construct_tSt5tupleIJRS5_EESH_IJEEEEEvPSt13_Rb_tree_nodeIS6_EDpOT_ = comdat any

$_ZNSt8_Rb_treeIN4cvc58internal8TypeNodeESt4pairIKS2_NS1_16NodeTemplateTrieILb0EEEESt10_Select1stIS7_ESt4lessIS2_ESaIS7_EE22_M_emplace_hint_uniqueIJRKSt21piecewise_construct_tSt5tupleIJOS2_EESI_IJEEEEESt17_Rb_tree_iteratorIS7_ESt23_Rb_tree_const_iteratorIS7_EDpOT_ = comdat any

$_ZNSt8_Rb_treeIN4cvc58internal8TypeNodeESt4pairIKS2_NS1_16NodeTemplateTrieILb0EEEESt10_Select1stIS7_ESt4lessIS2_ESaIS7_EE29_M_get_insert_hint_unique_posESt23_Rb_tree_const_iteratorIS7_ERS4_ = comdat any

$_ZNSt8_Rb_treeIN4cvc58internal8TypeNodeESt4pairIKS2_NS1_16NodeTemplateTrieILb0EEEESt10_Select1stIS7_ESt4lessIS2_ESaIS7_EE10_Auto_nodeD2Ev = comdat any

$_ZNSt8_Rb_treeIN4cvc58internal8TypeNodeESt4pairIKS2_NS1_16NodeTemplateTrieILb0EEEESt10_Select1stIS7_ESt4lessIS2_ESaIS7_EE17_M_construct_nodeIJRKSt21piecewise_construct_tSt5tupleIJOS2_EESI_IJEEEEEvPSt13_Rb_tree_nodeIS7_EDpOT_ = comdat any

$_ZNSt6vectorIN4cvc58internal12NodeTemplateILb1EEESaIS3_EE17_M_realloc_insertIJRKS3_EEEvN9__gnu_cxx17__normal_iteratorIPS3_S5_EEDpOT_ = comdat any

$_ZNSt16allocator_traitsISaIN4cvc58internal12NodeTemplateILb1EEEEE7destroyIS3_EEvRS4_PT_ = comdat any

$_ZSt16__do_uninit_copyIPKN4cvc58internal12NodeTemplateILb1EEEPS3_ET0_T_S8_S7_ = comdat any

$_ZNSt8_Rb_treeIN4cvc58internal8TypeNodeESt4pairIKS2_bESt10_Select1stIS5_ESt4lessIS2_ESaIS5_EE22_M_emplace_hint_uniqueIJRKSt21piecewise_construct_tSt5tupleIJRS4_EESG_IJEEEEESt17_Rb_tree_iteratorIS5_ESt23_Rb_tree_const_iteratorIS5_EDpOT_ = comdat any

$_ZNSt8_Rb_treeIN4cvc58internal8TypeNodeESt4pairIKS2_bESt10_Select1stIS5_ESt4lessIS2_ESaIS5_EE29_M_get_insert_hint_unique_posESt23_Rb_tree_const_iteratorIS5_ERS4_ = comdat any

$_ZNSt8_Rb_treeIN4cvc58internal8TypeNodeESt4pairIKS2_bESt10_Select1stIS5_ESt4lessIS2_ESaIS5_EE10_Auto_nodeD2Ev = comdat any

$_ZNSt8_Rb_treeIN4cvc58internal8TypeNodeESt4pairIKS2_bESt10_Select1stIS5_ESt4lessIS2_ESaIS5_EE17_M_construct_nodeIJRKSt21piecewise_construct_tSt5tupleIJRS4_EESG_IJEEEEEvPSt13_Rb_tree_nodeIS5_EDpOT_ = comdat any

$_ZTSN4cvc58internal14LogicExceptionE = comdat any

$_ZTIN4cvc58internal14LogicExceptionE = comdat any

$_ZTVN4cvc58internal6theory2uf8TheoryUF11NotifyClassE = comdat any

$_ZTSN4cvc58internal6theory2uf8TheoryUF11NotifyClassE = comdat any

$_ZTSN4cvc58internal6theory19TheoryEqNotifyClassE = comdat any

$_ZTSN4cvc58internal6theory2eq20EqualityEngineNotifyE = comdat any

$_ZTIN4cvc58internal6theory2eq20EqualityEngineNotifyE = comdat any

$_ZTIN4cvc58internal6theory19TheoryEqNotifyClassE = comdat any

$_ZTIN4cvc58internal6theory2uf8TheoryUF11NotifyClassE = comdat any

$_ZTVN4cvc57context3CDOIbEE = comdat any

$_ZTSN4cvc57context3CDOIbEE = comdat any

$_ZTSN4cvc57context10ContextObjE = comdat any

$_ZTIN4cvc57context10ContextObjE = comdat any

$_ZTIN4cvc57context3CDOIbEE = comdat any

$_ZTVN4cvc57context10ContextObjE = comdat any

$_ZTVN4cvc58internal6theory2uf15SymmetryBreakerE = comdat any

$_ZTSN4cvc58internal6theory2uf15SymmetryBreakerE = comdat any

$_ZTSN4cvc58internal6EnvObjE = comdat any

$_ZTIN4cvc58internal6EnvObjE = comdat any

$_ZTIN4cvc58internal6theory2uf15SymmetryBreakerE = comdat any

$_ZTVN4cvc57context6CDListINS_8internal12NodeTemplateILb1EEENS0_14DefaultCleanUpIS4_EESaIS4_EEE = comdat any

$_ZTSN4cvc57context6CDListINS_8internal12NodeTemplateILb1EEENS0_14DefaultCleanUpIS4_EESaIS4_EEE = comdat any

$_ZTIN4cvc57context6CDListINS_8internal12NodeTemplateILb1EEENS0_14DefaultCleanUpIS4_EESaIS4_EEE = comdat any

$_ZTVN4cvc58internal14LogicExceptionE = comdat any

$_ZZN4cvc58internal4expr9NodeValue4nullEvE6s_null = comdat any

$_ZGVZN4cvc58internal4expr9NodeValue4nullEvE6s_null = comdat any

$_ZTVN4cvc57context6CDListINS_8internal12NodeTemplateILb0EEENS0_14DefaultCleanUpIS4_EESaIS4_EEE = comdat any

$_ZTSN4cvc57context6CDListINS_8internal12NodeTemplateILb0EEENS0_14DefaultCleanUpIS4_EESaIS4_EEE = comdat any

$_ZTIN4cvc57context6CDListINS_8internal12NodeTemplateILb0EEENS0_14DefaultCleanUpIS4_EESaIS4_EEE = comdat any

$_ZSt19piecewise_construct = comdat any

@_ZStL8__ioinit = internal global %"class.std::ios_base::Init" zeroinitializer, align 1
@__dso_handle = external hidden global i8
@_ZTVN4cvc58internal6theory2uf8TheoryUFE = hidden unnamed_addr constant { [36 x ptr] } { [36 x ptr] [ptr null, ptr @_ZTIN4cvc58internal6theory2uf8TheoryUFE, ptr @_ZN4cvc58internal6theory2uf8TheoryUFD2Ev, ptr @_ZN4cvc58internal6theory2uf8TheoryUFD0Ev, ptr @_ZN4cvc58internal6theory2uf8TheoryUF19processCarePairArgsENS0_12NodeTemplateILb0EEES5_, ptr @_ZN4cvc58internal6theory2uf8TheoryUF15areCareDisequalENS0_12NodeTemplateILb0EEES5_, ptr @_ZN4cvc58internal6theory2uf8TheoryUF16computeCareGraphEv, ptr @_ZN4cvc58internal6theory2uf8TheoryUF10finishInitEv, ptr @_ZN4cvc58internal6theory6Theory16notifySharedTermENS0_12NodeTemplateILb0EEE, ptr @_ZN4cvc58internal6theory6Theory16notifyInConflictEv, ptr @_ZN4cvc58internal6theory2uf8TheoryUF17getTheoryRewriterEv, ptr @_ZN4cvc58internal6theory2uf8TheoryUF15getProofCheckerEv, ptr @_ZN4cvc58internal6theory2uf8TheoryUF19needsEqualityEngineERNS1_11EeSetupInfoE, ptr @_ZN4cvc58internal6theory2uf8TheoryUF15preRegisterTermENS0_12NodeTemplateILb0EEE, ptr @_ZN4cvc58internal6theory2uf8TheoryUF17getEqualityStatusENS0_12NodeTemplateILb0EEES5_, ptr @_ZN4cvc58internal6theory6Theory22getCandidateModelValueENS0_12NodeTemplateILb0EEE, ptr @_ZN4cvc58internal6theory6Theory9propagateENS2_6EffortE, ptr @_ZN4cvc58internal6theory2uf8TheoryUF7explainENS0_12NodeTemplateILb0EEE, ptr @_ZN4cvc58internal6theory2uf8TheoryUF20needsCheckLastEffortEv, ptr @_ZN4cvc58internal6theory6Theory8preCheckENS2_6EffortE, ptr @_ZN4cvc58internal6theory2uf8TheoryUF9postCheckENS1_6Theory6EffortE, ptr @_ZN4cvc58internal6theory6Theory13preNotifyFactENS0_12NodeTemplateILb0EEEbS4_bb, ptr @_ZN4cvc58internal6theory2uf8TheoryUF10notifyFactENS0_12NodeTemplateILb0EEEbS5_b, ptr @_ZN4cvc58internal6theory6Theory16collectModelInfoEPNS1_11TheoryModelERKSt3setINS0_12NodeTemplateILb1EEESt4lessIS7_ESaIS7_EE, ptr @_ZN4cvc58internal6theory6Theory20computeRelevantTermsERSt3setINS0_12NodeTemplateILb1EEESt4lessIS5_ESaIS5_EE, ptr @_ZN4cvc58internal6theory2uf8TheoryUF18collectModelValuesEPNS1_11TheoryModelERKSt3setINS0_12NodeTemplateILb1EEESt4lessIS8_ESaIS8_EE, ptr @_ZN4cvc58internal6theory6Theory16postProcessModelEPNS1_11TheoryModelE, ptr @_ZN4cvc58internal6theory2uf8TheoryUF13ppStaticLearnENS0_12NodeTemplateILb0EEERNS0_11NodeBuilderE, ptr @_ZN4cvc58internal6theory6Theory8ppAssertENS0_9TrustNodeERNS1_20TrustSubstitutionMapE, ptr @_ZN4cvc58internal6theory2uf8TheoryUF9ppRewriteENS0_12NodeTemplateILb0EEERSt6vectorINS1_11SkolemLemmaESaIS7_EE, ptr @_ZN4cvc58internal6theory6Theory15ppStaticRewriteENS0_12NodeTemplateILb0EEE, ptr @_ZN4cvc58internal6theory6Theory18ppNotifyAssertionsERKSt6vectorINS0_12NodeTemplateILb1EEESaIS5_EE, ptr @_ZN4cvc58internal6theory2uf8TheoryUF8presolveEv, ptr @_ZN4cvc58internal6theory6Theory13notifyRestartEv, ptr @_ZNK4cvc58internal6theory2uf8TheoryUF8identifyB5cxx11Ev, ptr @_ZN4cvc58internal6theory6Theory15entailmentCheckENS0_12NodeTemplateILb0EEE] }, align 8
@.str = private unnamed_addr constant [13 x i8] c"theory::uf::\00", align 1
@.str.1 = private unnamed_addr constant [15 x i8] c"theory::uf::ee\00", align 1
@.str.2 = private unnamed_addr constant [24 x i8] c"Cardinality constraint \00", align 1
@.str.3 = private unnamed_addr constant [48 x i8] c" was asserted, but the logic does not allow it.\00", align 1
@.str.4 = private unnamed_addr constant [36 x i8] c"Try using a logic containing \22UFC\22.\00", align 1
@_ZTIN4cvc58internal9ExceptionE = external constant ptr
@.str.6 = private unnamed_addr constant [30 x i8] c"Partial function applications\00", align 1
@.str.7 = private unnamed_addr constant [15 x i8] c"Function terms\00", align 1
@.str.8 = private unnamed_addr constant [78 x i8] c" are only supported with higher-order logic. Try adding the logic prefix HO_.\00", align 1
@_ZTVN10__cxxabiv120__si_class_type_infoE = external global [0 x ptr]
@_ZTSN4cvc58internal14LogicExceptionE = linkonce_odr hidden constant [33 x i8] c"N4cvc58internal14LogicExceptionE\00", comdat, align 1
@_ZTIN4cvc58internal14LogicExceptionE = linkonce_odr hidden constant { ptr, ptr, ptr } { ptr getelementptr inbounds (ptr, ptr @_ZTVN10__cxxabiv120__si_class_type_infoE, i64 2), ptr @_ZTSN4cvc58internal14LogicExceptionE, ptr @_ZTIN4cvc58internal9ExceptionE }, comdat, align 8
@.str.9 = private unnamed_addr constant [65 x i8] c"UF received an application whose operator has higher-order type \00", align 1
@.str.10 = private unnamed_addr constant [84 x i8] c", which is only supported with higher-order logic. Try adding the logic prefix HO_.\00", align 1
@.str.15 = private unnamed_addr constant [62 x i8] c"An uninterpreted constant was preregistered to the UF theory.\00", align 1
@_ZTSN4cvc58internal6theory2uf8TheoryUFE = hidden constant [36 x i8] c"N4cvc58internal6theory2uf8TheoryUFE\00", align 1
@_ZTIN4cvc58internal6theory6TheoryE = external constant ptr
@_ZTIN4cvc58internal6theory2uf8TheoryUFE = hidden constant { ptr, ptr, ptr } { ptr getelementptr inbounds (ptr, ptr @_ZTVN10__cxxabiv120__si_class_type_infoE, i64 2), ptr @_ZTSN4cvc58internal6theory2uf8TheoryUFE, ptr @_ZTIN4cvc58internal6theory6TheoryE }, align 8
@_ZN4cvc58internal12NodeTemplateILb1EE6s_nullE = linkonce_odr hidden global %"class.cvc5::internal::NodeTemplate" zeroinitializer, comdat, align 8
@_ZGVN4cvc58internal12NodeTemplateILb1EE6s_nullE = linkonce_odr hidden local_unnamed_addr global i64 0, comdat($_ZN4cvc58internal12NodeTemplateILb1EE6s_nullE), align 8
@_ZTVN4cvc58internal6theory2uf18UfProofRuleCheckerE = external unnamed_addr constant { [6 x ptr] }, align 8
@_ZTVN10__cxxabiv117__class_type_infoE = external global [0 x ptr]
@_ZTVN4cvc58internal6theory2uf8TheoryUF11NotifyClassE = linkonce_odr hidden unnamed_addr constant { [10 x ptr] } { [10 x ptr] [ptr null, ptr @_ZTIN4cvc58internal6theory2uf8TheoryUF11NotifyClassE, ptr @_ZN4cvc58internal6theory2uf8TheoryUF11NotifyClassD2Ev, ptr @_ZN4cvc58internal6theory2uf8TheoryUF11NotifyClassD0Ev, ptr @_ZN4cvc58internal6theory19TheoryEqNotifyClass24eqNotifyTriggerPredicateENS0_12NodeTemplateILb0EEEb, ptr @_ZN4cvc58internal6theory19TheoryEqNotifyClass27eqNotifyTriggerTermEqualityENS1_8TheoryIdENS0_12NodeTemplateILb0EEES5_b, ptr @_ZN4cvc58internal6theory19TheoryEqNotifyClass25eqNotifyConstantTermMergeENS0_12NodeTemplateILb0EEES4_, ptr @_ZN4cvc58internal6theory2uf8TheoryUF11NotifyClass16eqNotifyNewClassENS0_12NodeTemplateILb0EEE, ptr @_ZN4cvc58internal6theory2uf8TheoryUF11NotifyClass13eqNotifyMergeENS0_12NodeTemplateILb0EEES6_, ptr @_ZN4cvc58internal6theory2uf8TheoryUF11NotifyClass16eqNotifyDisequalENS0_12NodeTemplateILb0EEES6_S6_] }, comdat, align 8
@_ZTSN4cvc58internal6theory2uf8TheoryUF11NotifyClassE = linkonce_odr hidden constant [49 x i8] c"N4cvc58internal6theory2uf8TheoryUF11NotifyClassE\00", comdat, align 1
@_ZTSN4cvc58internal6theory19TheoryEqNotifyClassE = linkonce_odr hidden constant [45 x i8] c"N4cvc58internal6theory19TheoryEqNotifyClassE\00", comdat, align 1
@_ZTSN4cvc58internal6theory2eq20EqualityEngineNotifyE = linkonce_odr hidden constant [49 x i8] c"N4cvc58internal6theory2eq20EqualityEngineNotifyE\00", comdat, align 1
@_ZTIN4cvc58internal6theory2eq20EqualityEngineNotifyE = linkonce_odr hidden constant { ptr, ptr } { ptr getelementptr inbounds (ptr, ptr @_ZTVN10__cxxabiv117__class_type_infoE, i64 2), ptr @_ZTSN4cvc58internal6theory2eq20EqualityEngineNotifyE }, comdat, align 8
@_ZTIN4cvc58internal6theory19TheoryEqNotifyClassE = linkonce_odr hidden constant { ptr, ptr, ptr } { ptr getelementptr inbounds (ptr, ptr @_ZTVN10__cxxabiv120__si_class_type_infoE, i64 2), ptr @_ZTSN4cvc58internal6theory19TheoryEqNotifyClassE, ptr @_ZTIN4cvc58internal6theory2eq20EqualityEngineNotifyE }, comdat, align 8
@_ZTIN4cvc58internal6theory2uf8TheoryUF11NotifyClassE = linkonce_odr hidden constant { ptr, ptr, ptr } { ptr getelementptr inbounds (ptr, ptr @_ZTVN10__cxxabiv120__si_class_type_infoE, i64 2), ptr @_ZTSN4cvc58internal6theory2uf8TheoryUF11NotifyClassE, ptr @_ZTIN4cvc58internal6theory19TheoryEqNotifyClassE }, comdat, align 8
@_ZTVN4cvc58internal6theory11TheoryStateE = external unnamed_addr constant { [14 x ptr] }, align 8
@_ZTVN4cvc57context3CDOIbEE = linkonce_odr hidden unnamed_addr constant { [6 x ptr] } { [6 x ptr] [ptr null, ptr @_ZTIN4cvc57context3CDOIbEE, ptr @_ZN4cvc57context3CDOIbE4saveEPNS0_20ContextMemoryManagerE, ptr @_ZN4cvc57context3CDOIbE7restoreEPNS0_10ContextObjE, ptr @_ZN4cvc57context3CDOIbED2Ev, ptr @_ZN4cvc57context3CDOIbED0Ev] }, comdat, align 8
@_ZTSN4cvc57context3CDOIbEE = linkonce_odr hidden constant [23 x i8] c"N4cvc57context3CDOIbEE\00", comdat, align 1
@_ZTSN4cvc57context10ContextObjE = linkonce_odr constant [28 x i8] c"N4cvc57context10ContextObjE\00", comdat, align 1
@_ZTIN4cvc57context10ContextObjE = linkonce_odr constant { ptr, ptr } { ptr getelementptr inbounds (ptr, ptr @_ZTVN10__cxxabiv117__class_type_infoE, i64 2), ptr @_ZTSN4cvc57context10ContextObjE }, comdat, align 8
@_ZTIN4cvc57context3CDOIbEE = linkonce_odr hidden constant { ptr, ptr, ptr } { ptr getelementptr inbounds (ptr, ptr @_ZTVN10__cxxabiv120__si_class_type_infoE, i64 2), ptr @_ZTSN4cvc57context3CDOIbEE, ptr @_ZTIN4cvc57context10ContextObjE }, comdat, align 8
@_ZTVN4cvc57context10ContextObjE = linkonce_odr unnamed_addr constant { [6 x ptr] } { [6 x ptr] [ptr null, ptr @_ZTIN4cvc57context10ContextObjE, ptr @__cxa_pure_virtual, ptr @__cxa_pure_virtual, ptr @_ZN4cvc57context10ContextObjD2Ev, ptr @_ZN4cvc57context10ContextObjD0Ev] }, comdat, align 8
@__PRETTY_FUNCTION__._ZN4cvc57context10ContextObjdlEPv = private unnamed_addr constant [63 x i8] c"static void cvc5::context::ContextObj::operator delete(void *)\00", align 1
@.str.43 = private unnamed_addr constant [109 x i8] c"generated/home/dtcxzyw/WorkSpace/Projects/compilers/llvm-opt-benchmark/bench/cvc5/cvc5/src/context/context.h\00", align 1
@.str.44 = private unnamed_addr constant [17 x i8] c"Check failure\0A\0A \00", align 1
@.str.45 = private unnamed_addr constant [6 x i8] c"false\00", align 1
@.str.46 = private unnamed_addr constant [2 x i8] c"\0A\00", align 1
@.str.47 = private unnamed_addr constant [51 x i8] c"It is not allowed to delete a ContextObj this way!\00", align 1
@_ZTVN4cvc58internal6theory2uf15SymmetryBreakerE = linkonce_odr hidden unnamed_addr constant { [5 x ptr], [5 x ptr] } { [5 x ptr] [ptr null, ptr @_ZTIN4cvc58internal6theory2uf15SymmetryBreakerE, ptr @_ZN4cvc58internal6theory2uf15SymmetryBreakerD2Ev, ptr @_ZN4cvc58internal6theory2uf15SymmetryBreakerD0Ev, ptr @_ZN4cvc58internal6theory2uf15SymmetryBreaker16contextNotifyPopEv], [5 x ptr] [ptr inttoptr (i64 -16 to ptr), ptr @_ZTIN4cvc58internal6theory2uf15SymmetryBreakerE, ptr @_ZThn16_N4cvc58internal6theory2uf15SymmetryBreaker16contextNotifyPopEv, ptr @_ZThn16_N4cvc58internal6theory2uf15SymmetryBreakerD1Ev, ptr @_ZThn16_N4cvc58internal6theory2uf15SymmetryBreakerD0Ev] }, comdat, align 8
@_ZTVN10__cxxabiv121__vmi_class_type_infoE = external global [0 x ptr]
@_ZTSN4cvc58internal6theory2uf15SymmetryBreakerE = linkonce_odr hidden constant [44 x i8] c"N4cvc58internal6theory2uf15SymmetryBreakerE\00", comdat, align 1
@_ZTSN4cvc58internal6EnvObjE = linkonce_odr hidden constant [24 x i8] c"N4cvc58internal6EnvObjE\00", comdat, align 1
@_ZTIN4cvc58internal6EnvObjE = linkonce_odr hidden constant { ptr, ptr } { ptr getelementptr inbounds (ptr, ptr @_ZTVN10__cxxabiv117__class_type_infoE, i64 2), ptr @_ZTSN4cvc58internal6EnvObjE }, comdat, align 8
@_ZTIN4cvc57context16ContextNotifyObjE = external constant ptr
@_ZTIN4cvc58internal6theory2uf15SymmetryBreakerE = linkonce_odr hidden constant { ptr, ptr, i32, i32, ptr, i64, ptr, i64 } { ptr getelementptr inbounds (ptr, ptr @_ZTVN10__cxxabiv121__vmi_class_type_infoE, i64 2), ptr @_ZTSN4cvc58internal6theory2uf15SymmetryBreakerE, i32 0, i32 2, ptr @_ZTIN4cvc58internal6EnvObjE, i64 0, ptr @_ZTIN4cvc57context16ContextNotifyObjE, i64 4098 }, comdat, align 8
@_ZTVN4cvc57context6CDListINS_8internal12NodeTemplateILb1EEENS0_14DefaultCleanUpIS4_EESaIS4_EEE = linkonce_odr hidden unnamed_addr constant { [6 x ptr] } { [6 x ptr] [ptr null, ptr @_ZTIN4cvc57context6CDListINS_8internal12NodeTemplateILb1EEENS0_14DefaultCleanUpIS4_EESaIS4_EEE, ptr @_ZN4cvc57context6CDListINS_8internal12NodeTemplateILb1EEENS0_14DefaultCleanUpIS4_EESaIS4_EE4saveEPNS0_20ContextMemoryManagerE, ptr @_ZN4cvc57context6CDListINS_8internal12NodeTemplateILb1EEENS0_14DefaultCleanUpIS4_EESaIS4_EE7restoreEPNS0_10ContextObjE, ptr @_ZN4cvc57context6CDListINS_8internal12NodeTemplateILb1EEENS0_14DefaultCleanUpIS4_EESaIS4_EED2Ev, ptr @_ZN4cvc57context6CDListINS_8internal12NodeTemplateILb1EEENS0_14DefaultCleanUpIS4_EESaIS4_EED0Ev] }, comdat, align 8
@_ZTSN4cvc57context6CDListINS_8internal12NodeTemplateILb1EEENS0_14DefaultCleanUpIS4_EESaIS4_EEE = linkonce_odr hidden constant [91 x i8] c"N4cvc57context6CDListINS_8internal12NodeTemplateILb1EEENS0_14DefaultCleanUpIS4_EESaIS4_EEE\00", comdat, align 1
@_ZTIN4cvc57context6CDListINS_8internal12NodeTemplateILb1EEENS0_14DefaultCleanUpIS4_EESaIS4_EEE = linkonce_odr hidden constant { ptr, ptr, ptr } { ptr getelementptr inbounds (ptr, ptr @_ZTVN10__cxxabiv120__si_class_type_infoE, i64 2), ptr @_ZTSN4cvc57context6CDListINS_8internal12NodeTemplateILb1EEENS0_14DefaultCleanUpIS4_EESaIS4_EEE, ptr @_ZTIN4cvc57context10ContextObjE }, comdat, align 8
@_ZTVN4cvc58internal9ExceptionE = external unnamed_addr constant { [6 x ptr] }, align 8
@_ZTVN4cvc58internal14LogicExceptionE = linkonce_odr hidden unnamed_addr constant { [6 x ptr] } { [6 x ptr] [ptr null, ptr @_ZTIN4cvc58internal14LogicExceptionE, ptr @_ZN4cvc58internal14LogicExceptionD2Ev, ptr @_ZN4cvc58internal14LogicExceptionD0Ev, ptr @_ZNK4cvc58internal9Exception4whatEv, ptr @_ZNK4cvc58internal9Exception8toStreamERSo] }, comdat, align 8
@.str.52 = private unnamed_addr constant [50 x i8] c"basic_string: construction from null is not valid\00", align 1
@.str.53 = private unnamed_addr constant [10 x i8] c"THEORY_UF\00", align 1
@_ZZN4cvc58internal4expr9NodeValue4nullEvE6s_null = linkonce_odr local_unnamed_addr global ptr null, comdat, align 8
@_ZGVZN4cvc58internal4expr9NodeValue4nullEvE6s_null = linkonce_odr global i64 0, comdat, align 8
@.str.54 = private unnamed_addr constant [26 x i8] c"vector::_M_realloc_insert\00", align 1
@_ZTIN4cvc58internal28TypeCheckingExceptionPrivateE = external constant ptr
@_ZTVN4cvc57context6CDListINS_8internal12NodeTemplateILb0EEENS0_14DefaultCleanUpIS4_EESaIS4_EEE = linkonce_odr hidden unnamed_addr constant { [6 x ptr] } { [6 x ptr] [ptr null, ptr @_ZTIN4cvc57context6CDListINS_8internal12NodeTemplateILb0EEENS0_14DefaultCleanUpIS4_EESaIS4_EEE, ptr @_ZN4cvc57context6CDListINS_8internal12NodeTemplateILb0EEENS0_14DefaultCleanUpIS4_EESaIS4_EE4saveEPNS0_20ContextMemoryManagerE, ptr @_ZN4cvc57context6CDListINS_8internal12NodeTemplateILb0EEENS0_14DefaultCleanUpIS4_EESaIS4_EE7restoreEPNS0_10ContextObjE, ptr @_ZN4cvc57context6CDListINS_8internal12NodeTemplateILb0EEENS0_14DefaultCleanUpIS4_EESaIS4_EED2Ev, ptr @_ZN4cvc57context6CDListINS_8internal12NodeTemplateILb0EEENS0_14DefaultCleanUpIS4_EESaIS4_EED0Ev] }, comdat, align 8
@_ZTSN4cvc57context6CDListINS_8internal12NodeTemplateILb0EEENS0_14DefaultCleanUpIS4_EESaIS4_EEE = linkonce_odr hidden constant [91 x i8] c"N4cvc57context6CDListINS_8internal12NodeTemplateILb0EEENS0_14DefaultCleanUpIS4_EESaIS4_EEE\00", comdat, align 1
@_ZTIN4cvc57context6CDListINS_8internal12NodeTemplateILb0EEENS0_14DefaultCleanUpIS4_EESaIS4_EEE = linkonce_odr hidden constant { ptr, ptr, ptr } { ptr getelementptr inbounds (ptr, ptr @_ZTVN10__cxxabiv120__si_class_type_infoE, i64 2), ptr @_ZTSN4cvc57context6CDListINS_8internal12NodeTemplateILb0EEENS0_14DefaultCleanUpIS4_EESaIS4_EEE, ptr @_ZTIN4cvc57context10ContextObjE }, comdat, align 8
@_ZSt19piecewise_construct = linkonce_odr constant %"struct.std::piecewise_construct_t" zeroinitializer, comdat, align 1
@llvm.global_ctors = appending global [2 x { i32, ptr, ptr }] [{ i32, ptr, ptr } { i32 65535, ptr @__cxx_global_var_init.38, ptr @_ZN4cvc58internal12NodeTemplateILb1EE6s_nullE }, { i32, ptr, ptr } { i32 65535, ptr @_GLOBAL__sub_I_theory_uf.cpp, ptr null }]
@llvm.used = appending global [1 x ptr] [ptr @_ZN4cvc58internal12NodeTemplateILb1EE6s_nullE], section "llvm.metadata"

@_ZN4cvc58internal6theory2uf8TheoryUFC1ERNS0_3EnvERNS1_13OutputChannelENS1_9ValuationENSt7__cxx1112basic_stringIcSt11char_traitsIcESaIcEEE = hidden unnamed_addr alias void (ptr, ptr, ptr, ptr, ptr), ptr @_ZN4cvc58internal6theory2uf8TheoryUFC2ERNS0_3EnvERNS1_13OutputChannelENS1_9ValuationENSt7__cxx1112basic_stringIcSt11char_traitsIcESaIcEEE
@_ZN4cvc58internal6theory2uf8TheoryUFD1Ev = hidden unnamed_addr alias void (ptr), ptr @_ZN4cvc58internal6theory2uf8TheoryUFD2Ev

declare void @_ZNSt8ios_base4InitC1Ev(ptr noundef nonnull align 1 dereferenceable(1)) unnamed_addr #0

; Function Attrs: nounwind
declare void @_ZNSt8ios_base4InitD1Ev(ptr noundef nonnull align 1 dereferenceable(1)) unnamed_addr #1

; Function Attrs: nofree nounwind
declare i32 @__cxa_atexit(ptr, ptr, ptr) local_unnamed_addr #2

; Function Attrs: mustprogress uwtable
define hidden void @_ZN4cvc58internal6theory2uf8TheoryUFC2ERNS0_3EnvERNS1_13OutputChannelENS1_9ValuationENSt7__cxx1112basic_stringIcSt11char_traitsIcESaIcEEE(ptr noundef nonnull align 8 dereferenceable(1736) %this, ptr noundef nonnull align 8 dereferenceable(576) %env, ptr noundef nonnull align 8 dereferenceable(100) %out, ptr %valuation.coerce, ptr noundef nonnull %instanceName) unnamed_addr #3 align 2 personality ptr @__gxx_personality_v0 {
entry:
  %agg.tmp2 = alloca %"class.std::__cxx11::basic_string", align 8
  %agg.tmp14 = alloca %"class.std::__cxx11::basic_string", align 8
  %ref.tmp28 = alloca %"class.std::__cxx11::basic_string", align 8
  %ref.tmp38 = alloca %"class.cvc5::internal::NodeTemplate", align 8
  %ref.tmp42 = alloca i8, align 1
  call void @_ZNSt7__cxx1112basic_stringIcSt11char_traitsIcESaIcEEC1ERKS4_(ptr noundef nonnull align 8 dereferenceable(32) %agg.tmp2, ptr noundef nonnull align 8 dereferenceable(32) %instanceName)
  invoke void @_ZN4cvc58internal6theory6TheoryC2ENS1_8TheoryIdERNS0_3EnvERNS1_13OutputChannelENS1_9ValuationENSt7__cxx1112basic_stringIcSt11char_traitsIcESaIcEEE(ptr noundef nonnull align 8 dereferenceable(408) %this, i32 noundef 2, ptr noundef nonnull align 8 dereferenceable(576) %env, ptr noundef nonnull align 8 dereferenceable(100) %out, ptr %valuation.coerce, ptr noundef nonnull %agg.tmp2)
          to label %invoke.cont unwind label %lpad

invoke.cont:                                      ; preds = %entry
  call void @_ZNSt7__cxx1112basic_stringIcSt11char_traitsIcESaIcEED1Ev(ptr noundef nonnull align 8 dereferenceable(32) %agg.tmp2) #22
  store ptr getelementptr inbounds ({ [36 x ptr] }, ptr @_ZTVN4cvc58internal6theory2uf8TheoryUFE, i64 0, inrange i32 0, i64 2), ptr %this, align 8
  %d_thss = getelementptr inbounds %"class.cvc5::internal::theory::uf::TheoryUF", ptr %this, i64 0, i32 1
  store ptr null, ptr %d_thss, align 8
  %d_lambdaLift = getelementptr inbounds %"class.cvc5::internal::theory::uf::TheoryUF", ptr %this, i64 0, i32 2
  %call = invoke noalias noundef nonnull dereferenceable(192) ptr @_Znwm(i64 noundef 192) #23
          to label %invoke.cont5 unwind label %ehcleanup62.thread

invoke.cont5:                                     ; preds = %invoke.cont
  invoke void @_ZN4cvc58internal6theory2uf10LambdaLiftC1ERNS0_3EnvE(ptr noundef nonnull align 8 dereferenceable(192) %call, ptr noundef nonnull align 8 dereferenceable(576) %env)
          to label %invoke.cont7 unwind label %lpad6

invoke.cont7:                                     ; preds = %invoke.cont5
  store ptr %call, ptr %d_lambdaLift, align 8
  %d_ho = getelementptr inbounds %"class.cvc5::internal::theory::uf::TheoryUF", ptr %this, i64 0, i32 3
  %d_csolver = getelementptr inbounds %"class.cvc5::internal::theory::uf::TheoryUF", ptr %this, i64 0, i32 4
  %d_true = getelementptr inbounds %"class.cvc5::internal::theory::uf::TheoryUF", ptr %this, i64 0, i32 5
  call void @llvm.memset.p0.i64(ptr noundef nonnull align 8 dereferenceable(16) %d_ho, i8 0, i64 16, i1 false)
  %0 = load atomic i8, ptr @_ZGVZN4cvc58internal4expr9NodeValue4nullEvE6s_null acquire, align 8
  %guard.uninitialized.i.i = icmp eq i8 %0, 0
  br i1 %guard.uninitialized.i.i, label %init.check.i.i, label %invoke.cont9, !prof !4

init.check.i.i:                                   ; preds = %invoke.cont7
  %1 = call i32 @__cxa_guard_acquire(ptr nonnull @_ZGVZN4cvc58internal4expr9NodeValue4nullEvE6s_null) #22
  %tobool.not.i.i = icmp eq i32 %1, 0
  br i1 %tobool.not.i.i, label %invoke.cont9, label %init.i.i

init.i.i:                                         ; preds = %init.check.i.i
  %call.i.i = invoke noalias noundef nonnull dereferenceable(16) ptr @_Znwm(i64 noundef 16) #23
          to label %invoke.cont.i.i unwind label %lpad.i.i

invoke.cont.i.i:                                  ; preds = %init.i.i
  store i64 1152920405095219200, ptr %call.i.i, align 8
  %d_kind.i.i.i = getelementptr inbounds %"class.cvc5::internal::expr::NodeValue", ptr %call.i.i, i64 0, i32 1
  store i16 0, ptr %d_kind.i.i.i, align 8
  %d_nchildren.i.i.i = getelementptr inbounds %"class.cvc5::internal::expr::NodeValue", ptr %call.i.i, i64 0, i32 2
  store i32 0, ptr %d_nchildren.i.i.i, align 4
  store ptr %call.i.i, ptr @_ZZN4cvc58internal4expr9NodeValue4nullEvE6s_null, align 8
  call void @__cxa_guard_release(ptr nonnull @_ZGVZN4cvc58internal4expr9NodeValue4nullEvE6s_null) #22
  br label %invoke.cont9

lpad.i.i:                                         ; preds = %init.i.i
  %2 = landingpad { ptr, i32 }
          cleanup
  call void @__cxa_guard_abort(ptr nonnull @_ZGVZN4cvc58internal4expr9NodeValue4nullEvE6s_null) #22
  br label %ehcleanup59

invoke.cont9:                                     ; preds = %invoke.cont.i.i, %init.check.i.i, %invoke.cont7
  %3 = load ptr, ptr @_ZZN4cvc58internal4expr9NodeValue4nullEvE6s_null, align 8
  store ptr %3, ptr %d_true, align 8
  %d_functionsTerms = getelementptr inbounds %"class.cvc5::internal::theory::uf::TheoryUF", ptr %this, i64 0, i32 6
  %call12 = invoke noundef ptr @_ZNK4cvc58internal6EnvObj7contextEv(ptr noundef nonnull align 8 dereferenceable(16) %this)
          to label %invoke.cont11 unwind label %lpad10

invoke.cont11:                                    ; preds = %invoke.cont9
  invoke void @_ZN4cvc57context10ContextObjC2EPNS0_7ContextE(ptr noundef nonnull align 8 dereferenceable(40) %d_functionsTerms, ptr noundef %call12)
          to label %invoke.cont13 unwind label %lpad10

invoke.cont13:                                    ; preds = %invoke.cont11
  store ptr getelementptr inbounds ({ [6 x ptr] }, ptr @_ZTVN4cvc57context6CDListINS_8internal12NodeTemplateILb0EEENS0_14DefaultCleanUpIS4_EESaIS4_EEE, i64 0, inrange i32 0, i64 2), ptr %d_functionsTerms, align 8
  %d_list.i = getelementptr inbounds %"class.cvc5::internal::theory::uf::TheoryUF", ptr %this, i64 0, i32 6, i32 1
  %d_callCleanup.i = getelementptr inbounds %"class.cvc5::internal::theory::uf::TheoryUF", ptr %this, i64 0, i32 6, i32 3
  call void @llvm.memset.p0.i64(ptr noundef nonnull align 8 dereferenceable(32) %d_list.i, i8 0, i64 32, i1 false)
  store i8 1, ptr %d_callCleanup.i, align 8
  %d_symb = getelementptr inbounds %"class.cvc5::internal::theory::uf::TheoryUF", ptr %this, i64 0, i32 7
  invoke void @_ZNSt7__cxx1112basic_stringIcSt11char_traitsIcESaIcEEC1ERKS4_(ptr noundef nonnull align 8 dereferenceable(32) %agg.tmp14, ptr noundef nonnull align 8 dereferenceable(32) %instanceName)
          to label %invoke.cont16 unwind label %lpad15

invoke.cont16:                                    ; preds = %invoke.cont13
  invoke void @_ZN4cvc58internal6theory2uf15SymmetryBreakerC1ERNS0_3EnvENSt7__cxx1112basic_stringIcSt11char_traitsIcESaIcEEE(ptr noundef nonnull align 8 dereferenceable(768) %d_symb, ptr noundef nonnull align 8 dereferenceable(576) %env, ptr noundef nonnull %agg.tmp14)
          to label %invoke.cont18 unwind label %lpad17

invoke.cont18:                                    ; preds = %invoke.cont16
  call void @_ZNSt7__cxx1112basic_stringIcSt11char_traitsIcESaIcEED1Ev(ptr noundef nonnull align 8 dereferenceable(32) %agg.tmp14) #22
  %d_rewriter = getelementptr inbounds %"class.cvc5::internal::theory::uf::TheoryUF", ptr %this, i64 0, i32 8
  invoke void @_ZN4cvc58internal6theory2uf16TheoryUfRewriterC1Ev(ptr noundef nonnull align 8 dereferenceable(8) %d_rewriter)
          to label %invoke.cont22 unwind label %lpad19

invoke.cont22:                                    ; preds = %invoke.cont18
  %d_checker = getelementptr inbounds %"class.cvc5::internal::theory::uf::TheoryUF", ptr %this, i64 0, i32 9
  store ptr getelementptr inbounds ({ [6 x ptr] }, ptr @_ZTVN4cvc58internal6theory2uf18UfProofRuleCheckerE, i64 0, inrange i32 0, i64 2), ptr %d_checker, align 8
  %d_state = getelementptr inbounds %"class.cvc5::internal::theory::uf::TheoryUF", ptr %this, i64 0, i32 10
  invoke void @_ZN4cvc58internal6theory11TheoryStateC1ERNS0_3EnvENS1_9ValuationE(ptr noundef nonnull align 8 dereferenceable(80) %d_state, ptr noundef nonnull align 8 dereferenceable(576) %env, ptr %valuation.coerce)
          to label %invoke.cont26 unwind label %lpad25

invoke.cont26:                                    ; preds = %invoke.cont22
  %d_im = getelementptr inbounds %"class.cvc5::internal::theory::uf::TheoryUF", ptr %this, i64 0, i32 11
  invoke void @_ZStplIcSt11char_traitsIcESaIcEENSt7__cxx1112basic_stringIT_T0_T1_EEPKS5_RKS8_(ptr nonnull sret(%"class.std::__cxx11::basic_string") align 8 %ref.tmp28, ptr noundef nonnull @.str, ptr noundef nonnull align 8 dereferenceable(32) %instanceName)
          to label %invoke.cont30 unwind label %lpad29

invoke.cont30:                                    ; preds = %invoke.cont26
  invoke void @_ZN4cvc58internal6theory22TheoryInferenceManagerC1ERNS0_3EnvERNS1_6TheoryERNS1_11TheoryStateERKNSt7__cxx1112basic_stringIcSt11char_traitsIcESaIcEEEb(ptr noundef nonnull align 8 dereferenceable(256) %d_im, ptr noundef nonnull align 8 dereferenceable(576) %env, ptr noundef nonnull align 8 dereferenceable(408) %this, ptr noundef nonnull align 8 dereferenceable(80) %d_state, ptr noundef nonnull align 8 dereferenceable(32) %ref.tmp28, i1 noundef zeroext false)
          to label %invoke.cont35 unwind label %lpad31

invoke.cont35:                                    ; preds = %invoke.cont30
  call void @_ZNSt7__cxx1112basic_stringIcSt11char_traitsIcESaIcEED1Ev(ptr noundef nonnull align 8 dereferenceable(32) %ref.tmp28) #22
  %d_notify = getelementptr inbounds %"class.cvc5::internal::theory::uf::TheoryUF", ptr %this, i64 0, i32 12
  %d_im.i.i = getelementptr inbounds %"class.cvc5::internal::theory::uf::TheoryUF", ptr %this, i64 0, i32 12, i32 0, i32 1
  store ptr %d_im, ptr %d_im.i.i, align 8
  store ptr getelementptr inbounds ({ [10 x ptr] }, ptr @_ZTVN4cvc58internal6theory2uf8TheoryUF11NotifyClassE, i64 0, inrange i32 0, i64 2), ptr %d_notify, align 8
  %d_uf.i = getelementptr inbounds %"class.cvc5::internal::theory::uf::TheoryUF", ptr %this, i64 0, i32 12, i32 1
  store ptr %this, ptr %d_uf.i, align 8
  %d_isHoType = getelementptr inbounds %"class.cvc5::internal::theory::uf::TheoryUF", ptr %this, i64 0, i32 13
  %4 = getelementptr inbounds %"class.cvc5::internal::theory::uf::TheoryUF", ptr %this, i64 0, i32 13, i32 0, i32 0, i32 1
  store i32 0, ptr %4, align 8
  %_M_parent.i.i.i.i.i = getelementptr inbounds %"class.cvc5::internal::theory::uf::TheoryUF", ptr %this, i64 0, i32 13, i32 0, i32 0, i32 1, i32 0, i32 1
  store ptr null, ptr %_M_parent.i.i.i.i.i, align 8
  %_M_left.i.i.i.i.i = getelementptr inbounds %"class.cvc5::internal::theory::uf::TheoryUF", ptr %this, i64 0, i32 13, i32 0, i32 0, i32 1, i32 0, i32 2
  store ptr %4, ptr %_M_left.i.i.i.i.i, align 8
  %_M_right.i.i.i.i.i = getelementptr inbounds %"class.cvc5::internal::theory::uf::TheoryUF", ptr %this, i64 0, i32 13, i32 0, i32 0, i32 1, i32 0, i32 3
  store ptr %4, ptr %_M_right.i.i.i.i.i, align 8
  %_M_node_count.i.i.i.i.i = getelementptr inbounds %"class.cvc5::internal::theory::uf::TheoryUF", ptr %this, i64 0, i32 13, i32 0, i32 0, i32 1, i32 1
  store i64 0, ptr %_M_node_count.i.i.i.i.i, align 8
  %d_cpacb = getelementptr inbounds %"class.cvc5::internal::theory::uf::TheoryUF", ptr %this, i64 0, i32 14
  invoke void @_ZN4cvc58internal6theory24CarePairArgumentCallbackC1ERNS1_6TheoryE(ptr noundef nonnull align 8 dereferenceable(16) %d_cpacb, ptr noundef nonnull align 8 dereferenceable(408) %this)
          to label %invoke.cont37 unwind label %lpad36

invoke.cont37:                                    ; preds = %invoke.cont35
  %call41 = invoke noundef ptr @_ZN4cvc58internal11NodeManager9currentNMEv()
          to label %invoke.cont40 unwind label %lpad39

invoke.cont40:                                    ; preds = %invoke.cont37
  store i8 1, ptr %ref.tmp42, align 1
  invoke void @_ZN4cvc58internal11NodeManager7mkConstIbEENS0_12NodeTemplateILb1EEERKT_(ptr nonnull sret(%"class.cvc5::internal::NodeTemplate") align 8 %ref.tmp38, ptr noundef nonnull align 8 dereferenceable(3360) %call41, ptr noundef nonnull align 1 dereferenceable(1) %ref.tmp42)
          to label %invoke.cont43 unwind label %lpad39

invoke.cont43:                                    ; preds = %invoke.cont40
  %5 = load ptr, ptr %d_true, align 8
  %6 = load ptr, ptr %ref.tmp38, align 8
  %cmp.not.i = icmp eq ptr %5, %6
  br i1 %cmp.not.i, label %invoke.cont46, label %if.then.i

if.then.i:                                        ; preds = %invoke.cont43
  %bf.load.i.i = load i64, ptr %5, align 8
  %7 = and i64 %bf.load.i.i, 1152920405095219200
  %cmp.not.i.i = icmp eq i64 %7, 1152920405095219200
  br i1 %cmp.not.i.i, label %_ZN4cvc58internal4expr9NodeValue3decEv.exit.i, label %if.then.i.i

if.then.i.i:                                      ; preds = %if.then.i
  %bf.value.i.i = add i64 %bf.load.i.i, 1152920405095219200
  %bf.shl.i.i = and i64 %bf.value.i.i, 1152920405095219200
  %bf.clear7.i.i = and i64 %bf.load.i.i, -1152920405095219201
  %bf.set.i.i = or disjoint i64 %bf.shl.i.i, %bf.clear7.i.i
  store i64 %bf.set.i.i, ptr %5, align 8
  %cmp12.i.i = icmp eq i64 %bf.shl.i.i, 0
  br i1 %cmp12.i.i, label %if.then13.i.i, label %_ZN4cvc58internal4expr9NodeValue3decEv.exit.i

if.then13.i.i:                                    ; preds = %if.then.i.i
  invoke void @_ZN4cvc58internal4expr9NodeValue15markForDeletionEv(ptr noundef nonnull align 8 dereferenceable(16) %5)
          to label %_ZN4cvc58internal4expr9NodeValue3decEv.exit.i unwind label %lpad45

_ZN4cvc58internal4expr9NodeValue3decEv.exit.i:    ; preds = %if.then13.i.i, %if.then.i.i, %if.then.i
  %8 = load ptr, ptr %ref.tmp38, align 8
  store ptr %8, ptr %d_true, align 8
  %bf.load.i2.i = load i64, ptr %8, align 8
  %bf.lshr.i.i = lshr i64 %bf.load.i2.i, 40
  %9 = trunc i64 %bf.lshr.i.i to i32
  %bf.cast.i.i = and i32 %9, 1048575
  %cmp.i.i = icmp ult i32 %bf.cast.i.i, 1048574
  br i1 %cmp.i.i, label %if.then.i5.i, label %if.else.i.i

if.then.i5.i:                                     ; preds = %_ZN4cvc58internal4expr9NodeValue3decEv.exit.i
  %bf.value.i6.i = add i64 %bf.load.i2.i, 1099511627776
  %bf.shl.i7.i = and i64 %bf.value.i6.i, 1152920405095219200
  %bf.clear7.i8.i = and i64 %bf.load.i2.i, -1152920405095219201
  %bf.set.i9.i = or disjoint i64 %bf.shl.i7.i, %bf.clear7.i8.i
  store i64 %bf.set.i9.i, ptr %8, align 8
  br label %invoke.cont46

if.else.i.i:                                      ; preds = %_ZN4cvc58internal4expr9NodeValue3decEv.exit.i
  %cmp12.i3.i = icmp eq i32 %bf.cast.i.i, 1048574
  br i1 %cmp12.i3.i, label %if.then13.i4.i, label %invoke.cont46

if.then13.i4.i:                                   ; preds = %if.else.i.i
  %bf.set23.i.i = or i64 %bf.load.i2.i, 1152920405095219200
  store i64 %bf.set23.i.i, ptr %8, align 8
  invoke void @_ZN4cvc58internal4expr9NodeValue20markRefCountMaxedOutEv(ptr noundef nonnull align 8 dereferenceable(16) %8)
          to label %invoke.cont46 unwind label %lpad45

invoke.cont46:                                    ; preds = %if.else.i.i, %if.then.i5.i, %invoke.cont43, %if.then13.i4.i
  %10 = load ptr, ptr %ref.tmp38, align 8
  %bf.load.i.i18 = load i64, ptr %10, align 8
  %11 = and i64 %bf.load.i.i18, 1152920405095219200
  %cmp.not.i.i19 = icmp eq i64 %11, 1152920405095219200
  br i1 %cmp.not.i.i19, label %_ZN4cvc58internal12NodeTemplateILb1EED2Ev.exit, label %if.then.i.i20

if.then.i.i20:                                    ; preds = %invoke.cont46
  %bf.value.i.i21 = add i64 %bf.load.i.i18, 1152920405095219200
  %bf.shl.i.i22 = and i64 %bf.value.i.i21, 1152920405095219200
  %bf.clear7.i.i23 = and i64 %bf.load.i.i18, -1152920405095219201
  %bf.set.i.i24 = or disjoint i64 %bf.shl.i.i22, %bf.clear7.i.i23
  store i64 %bf.set.i.i24, ptr %10, align 8
  %cmp12.i.i25 = icmp eq i64 %bf.shl.i.i22, 0
  br i1 %cmp12.i.i25, label %if.then13.i.i26, label %_ZN4cvc58internal12NodeTemplateILb1EED2Ev.exit

if.then13.i.i26:                                  ; preds = %if.then.i.i20
  invoke void @_ZN4cvc58internal4expr9NodeValue15markForDeletionEv(ptr noundef nonnull align 8 dereferenceable(16) %10)
          to label %_ZN4cvc58internal12NodeTemplateILb1EED2Ev.exit unwind label %terminate.lpad.i

terminate.lpad.i:                                 ; preds = %if.then13.i.i26
  %12 = landingpad { ptr, i32 }
          catch ptr null
  %13 = extractvalue { ptr, i32 } %12, 0
  call void @__clang_call_terminate(ptr %13) #24
  unreachable

_ZN4cvc58internal12NodeTemplateILb1EED2Ev.exit:   ; preds = %invoke.cont46, %if.then.i.i20, %if.then13.i.i26
  %d_theoryState = getelementptr inbounds %"class.cvc5::internal::theory::Theory", ptr %this, i64 0, i32 9
  store ptr %d_state, ptr %d_theoryState, align 8
  %d_inferManager = getelementptr inbounds %"class.cvc5::internal::theory::Theory", ptr %this, i64 0, i32 10
  store ptr %d_im, ptr %d_inferManager, align 8
  ret void

lpad:                                             ; preds = %entry
  %14 = landingpad { ptr, i32 }
          cleanup
  call void @_ZNSt7__cxx1112basic_stringIcSt11char_traitsIcESaIcEED1Ev(ptr noundef nonnull align 8 dereferenceable(32) %agg.tmp2) #22
  br label %eh.resume

ehcleanup62.thread:                               ; preds = %invoke.cont
  %15 = landingpad { ptr, i32 }
          cleanup
  br label %_ZNSt10unique_ptrIN4cvc58internal6theory2uf20CardinalityExtensionESt14default_deleteIS4_EED2Ev.exit

lpad6:                                            ; preds = %invoke.cont5
  %16 = landingpad { ptr, i32 }
          cleanup
  call void @_ZdlPv(ptr noundef nonnull %call) #25
  br label %ehcleanup62

lpad10:                                           ; preds = %invoke.cont11, %invoke.cont9
  %17 = landingpad { ptr, i32 }
          cleanup
  br label %ehcleanup58

lpad15:                                           ; preds = %invoke.cont13
  %18 = landingpad { ptr, i32 }
          cleanup
  br label %ehcleanup57

lpad17:                                           ; preds = %invoke.cont16
  %19 = landingpad { ptr, i32 }
          cleanup
  call void @_ZNSt7__cxx1112basic_stringIcSt11char_traitsIcESaIcEED1Ev(ptr noundef nonnull align 8 dereferenceable(32) %agg.tmp14) #22
  br label %ehcleanup57

lpad19:                                           ; preds = %invoke.cont18
  %20 = landingpad { ptr, i32 }
          cleanup
  br label %ehcleanup56

lpad25:                                           ; preds = %invoke.cont22
  %21 = landingpad { ptr, i32 }
          cleanup
  br label %ehcleanup56

lpad29:                                           ; preds = %invoke.cont26
  %22 = landingpad { ptr, i32 }
          cleanup
  br label %ehcleanup53

lpad31:                                           ; preds = %invoke.cont30
  %23 = landingpad { ptr, i32 }
          cleanup
  call void @_ZNSt7__cxx1112basic_stringIcSt11char_traitsIcESaIcEED1Ev(ptr noundef nonnull align 8 dereferenceable(32) %ref.tmp28) #22
  br label %ehcleanup53

lpad36:                                           ; preds = %invoke.cont35
  %24 = landingpad { ptr, i32 }
          cleanup
  br label %ehcleanup50

lpad39:                                           ; preds = %invoke.cont40, %invoke.cont37
  %25 = landingpad { ptr, i32 }
          cleanup
  br label %ehcleanup50

lpad45:                                           ; preds = %if.then13.i4.i, %if.then13.i.i
  %26 = landingpad { ptr, i32 }
          cleanup
  call void @_ZN4cvc58internal12NodeTemplateILb1EED2Ev(ptr noundef nonnull align 8 dereferenceable(8) %ref.tmp38) #22
  br label %ehcleanup50

ehcleanup50:                                      ; preds = %lpad39, %lpad45, %lpad36
  %.pn.pn = phi { ptr, i32 } [ %24, %lpad36 ], [ %26, %lpad45 ], [ %25, %lpad39 ]
  call void @_ZNSt3mapIN4cvc58internal8TypeNodeEbSt4lessIS2_ESaISt4pairIKS2_bEEED2Ev(ptr noundef nonnull align 8 dereferenceable(48) %d_isHoType) #22
  call void @_ZN4cvc58internal6theory22TheoryInferenceManagerD1Ev(ptr noundef nonnull align 8 dereferenceable(256) %d_im) #22
  br label %ehcleanup53

ehcleanup53:                                      ; preds = %ehcleanup50, %lpad31, %lpad29
  %.pn.pn.pn.pn = phi { ptr, i32 } [ %.pn.pn, %ehcleanup50 ], [ %23, %lpad31 ], [ %22, %lpad29 ]
  call void @_ZN4cvc58internal6theory11TheoryStateD2Ev(ptr noundef nonnull align 8 dereferenceable(80) %d_state) #22
  br label %ehcleanup56

ehcleanup56:                                      ; preds = %ehcleanup53, %lpad25, %lpad19
  %.pn.pn.pn.pn.pn.pn.pn = phi { ptr, i32 } [ %20, %lpad19 ], [ %.pn.pn.pn.pn, %ehcleanup53 ], [ %21, %lpad25 ]
  call void @_ZN4cvc58internal6theory2uf15SymmetryBreakerD2Ev(ptr noundef nonnull align 8 dereferenceable(768) %d_symb) #22
  br label %ehcleanup57

ehcleanup57:                                      ; preds = %ehcleanup56, %lpad17, %lpad15
  %.pn.pn.pn.pn.pn.pn.pn.pn = phi { ptr, i32 } [ %.pn.pn.pn.pn.pn.pn.pn, %ehcleanup56 ], [ %19, %lpad17 ], [ %18, %lpad15 ]
  call void @_ZN4cvc57context6CDListINS_8internal12NodeTemplateILb0EEENS0_14DefaultCleanUpIS4_EESaIS4_EED2Ev(ptr noundef nonnull align 8 dereferenceable(74) %d_functionsTerms) #22
  br label %ehcleanup58

ehcleanup58:                                      ; preds = %ehcleanup57, %lpad10
  %.pn.pn.pn.pn.pn.pn.pn.pn.pn = phi { ptr, i32 } [ %.pn.pn.pn.pn.pn.pn.pn.pn, %ehcleanup57 ], [ %17, %lpad10 ]
  call void @_ZN4cvc58internal12NodeTemplateILb1EED2Ev(ptr noundef nonnull align 8 dereferenceable(8) %d_true) #22
  br label %ehcleanup59

ehcleanup59:                                      ; preds = %lpad.i.i, %ehcleanup58
  %.pn.pn.pn.pn.pn.pn.pn.pn.pn.pn = phi { ptr, i32 } [ %.pn.pn.pn.pn.pn.pn.pn.pn.pn, %ehcleanup58 ], [ %2, %lpad.i.i ]
  %27 = load ptr, ptr %d_csolver, align 8
  %cmp.not.i27 = icmp eq ptr %27, null
  br i1 %cmp.not.i27, label %_ZNSt10unique_ptrIN4cvc58internal6theory2uf17ConversionsSolverESt14default_deleteIS4_EED2Ev.exit, label %_ZNKSt14default_deleteIN4cvc58internal6theory2uf17ConversionsSolverEEclEPS4_.exit.i

_ZNKSt14default_deleteIN4cvc58internal6theory2uf17ConversionsSolverEEclEPS4_.exit.i: ; preds = %ehcleanup59
  %vtable.i.i = load ptr, ptr %27, align 8
  %vfn.i.i = getelementptr inbounds ptr, ptr %vtable.i.i, i64 1
  %28 = load ptr, ptr %vfn.i.i, align 8
  call void %28(ptr noundef nonnull align 8 dereferenceable(168) %27) #22
  br label %_ZNSt10unique_ptrIN4cvc58internal6theory2uf17ConversionsSolverESt14default_deleteIS4_EED2Ev.exit

_ZNSt10unique_ptrIN4cvc58internal6theory2uf17ConversionsSolverESt14default_deleteIS4_EED2Ev.exit: ; preds = %ehcleanup59, %_ZNKSt14default_deleteIN4cvc58internal6theory2uf17ConversionsSolverEEclEPS4_.exit.i
  store ptr null, ptr %d_csolver, align 8
  %29 = load ptr, ptr %d_ho, align 8
  %cmp.not.i28 = icmp eq ptr %29, null
  br i1 %cmp.not.i28, label %_ZNSt10unique_ptrIN4cvc58internal6theory2uf11HoExtensionESt14default_deleteIS4_EED2Ev.exit, label %_ZNKSt14default_deleteIN4cvc58internal6theory2uf11HoExtensionEEclEPS4_.exit.i

_ZNKSt14default_deleteIN4cvc58internal6theory2uf11HoExtensionEEclEPS4_.exit.i: ; preds = %_ZNSt10unique_ptrIN4cvc58internal6theory2uf17ConversionsSolverESt14default_deleteIS4_EED2Ev.exit
  %vtable.i.i29 = load ptr, ptr %29, align 8
  %vfn.i.i30 = getelementptr inbounds ptr, ptr %vtable.i.i29, i64 1
  %30 = load ptr, ptr %vfn.i.i30, align 8
  call void %30(ptr noundef nonnull align 8 dereferenceable(376) %29) #22
  br label %_ZNSt10unique_ptrIN4cvc58internal6theory2uf11HoExtensionESt14default_deleteIS4_EED2Ev.exit

_ZNSt10unique_ptrIN4cvc58internal6theory2uf11HoExtensionESt14default_deleteIS4_EED2Ev.exit: ; preds = %_ZNSt10unique_ptrIN4cvc58internal6theory2uf17ConversionsSolverESt14default_deleteIS4_EED2Ev.exit, %_ZNKSt14default_deleteIN4cvc58internal6theory2uf11HoExtensionEEclEPS4_.exit.i
  store ptr null, ptr %d_ho, align 8
  %31 = load ptr, ptr %d_lambdaLift, align 8
  %cmp.not.i31 = icmp eq ptr %31, null
  br i1 %cmp.not.i31, label %_ZNSt10unique_ptrIN4cvc58internal6theory2uf10LambdaLiftESt14default_deleteIS4_EED2Ev.exit, label %_ZNKSt14default_deleteIN4cvc58internal6theory2uf10LambdaLiftEEclEPS4_.exit.i

_ZNKSt14default_deleteIN4cvc58internal6theory2uf10LambdaLiftEEclEPS4_.exit.i: ; preds = %_ZNSt10unique_ptrIN4cvc58internal6theory2uf11HoExtensionESt14default_deleteIS4_EED2Ev.exit
  %vtable.i.i32 = load ptr, ptr %31, align 8
  %vfn.i.i33 = getelementptr inbounds ptr, ptr %vtable.i.i32, i64 1
  %32 = load ptr, ptr %vfn.i.i33, align 8
  call void %32(ptr noundef nonnull align 8 dereferenceable(192) %31) #22
  br label %_ZNSt10unique_ptrIN4cvc58internal6theory2uf10LambdaLiftESt14default_deleteIS4_EED2Ev.exit

_ZNSt10unique_ptrIN4cvc58internal6theory2uf10LambdaLiftESt14default_deleteIS4_EED2Ev.exit: ; preds = %_ZNSt10unique_ptrIN4cvc58internal6theory2uf11HoExtensionESt14default_deleteIS4_EED2Ev.exit, %_ZNKSt14default_deleteIN4cvc58internal6theory2uf10LambdaLiftEEclEPS4_.exit.i
  store ptr null, ptr %d_lambdaLift, align 8
  br label %ehcleanup62

ehcleanup62:                                      ; preds = %_ZNSt10unique_ptrIN4cvc58internal6theory2uf10LambdaLiftESt14default_deleteIS4_EED2Ev.exit, %lpad6
  %.pn.pn.pn.pn.pn.pn.pn.pn.pn.pn.pn.ph = phi { ptr, i32 } [ %16, %lpad6 ], [ %.pn.pn.pn.pn.pn.pn.pn.pn.pn.pn, %_ZNSt10unique_ptrIN4cvc58internal6theory2uf10LambdaLiftESt14default_deleteIS4_EED2Ev.exit ]
  %.pr = load ptr, ptr %d_thss, align 8
  %cmp.not.i34 = icmp eq ptr %.pr, null
  br i1 %cmp.not.i34, label %_ZNSt10unique_ptrIN4cvc58internal6theory2uf20CardinalityExtensionESt14default_deleteIS4_EED2Ev.exit, label %_ZNKSt14default_deleteIN4cvc58internal6theory2uf20CardinalityExtensionEEclEPS4_.exit.i

_ZNKSt14default_deleteIN4cvc58internal6theory2uf20CardinalityExtensionEEclEPS4_.exit.i: ; preds = %ehcleanup62
  %vtable.i.i35 = load ptr, ptr %.pr, align 8
  %vfn.i.i36 = getelementptr inbounds ptr, ptr %vtable.i.i35, i64 1
  %33 = load ptr, ptr %vfn.i.i36, align 8
  call void %33(ptr noundef nonnull align 8 dereferenceable(648) %.pr) #22
  br label %_ZNSt10unique_ptrIN4cvc58internal6theory2uf20CardinalityExtensionESt14default_deleteIS4_EED2Ev.exit

_ZNSt10unique_ptrIN4cvc58internal6theory2uf20CardinalityExtensionESt14default_deleteIS4_EED2Ev.exit: ; preds = %ehcleanup62.thread, %ehcleanup62, %_ZNKSt14default_deleteIN4cvc58internal6theory2uf20CardinalityExtensionEEclEPS4_.exit.i
  %.pn.pn.pn.pn.pn.pn.pn.pn.pn.pn.pn39 = phi { ptr, i32 } [ %15, %ehcleanup62.thread ], [ %.pn.pn.pn.pn.pn.pn.pn.pn.pn.pn.pn.ph, %ehcleanup62 ], [ %.pn.pn.pn.pn.pn.pn.pn.pn.pn.pn.pn.ph, %_ZNKSt14default_deleteIN4cvc58internal6theory2uf20CardinalityExtensionEEclEPS4_.exit.i ]
  store ptr null, ptr %d_thss, align 8
  call void @_ZN4cvc58internal6theory6TheoryD2Ev(ptr noundef nonnull align 8 dereferenceable(408) %this) #22
  br label %eh.resume

eh.resume:                                        ; preds = %_ZNSt10unique_ptrIN4cvc58internal6theory2uf20CardinalityExtensionESt14default_deleteIS4_EED2Ev.exit, %lpad
  %.pn.pn.pn.pn.pn.pn.pn.pn.pn.pn.pn.pn = phi { ptr, i32 } [ %.pn.pn.pn.pn.pn.pn.pn.pn.pn.pn.pn39, %_ZNSt10unique_ptrIN4cvc58internal6theory2uf20CardinalityExtensionESt14default_deleteIS4_EED2Ev.exit ], [ %14, %lpad ]
  resume { ptr, i32 } %.pn.pn.pn.pn.pn.pn.pn.pn.pn.pn.pn.pn
}

; Function Attrs: mustprogress nocallback nofree nounwind willreturn memory(argmem: readwrite)
declare void @llvm.memcpy.p0.p0.i64(ptr noalias nocapture writeonly, ptr noalias nocapture readonly, i64, i1 immarg) #4

declare void @_ZNSt7__cxx1112basic_stringIcSt11char_traitsIcESaIcEEC1ERKS4_(ptr noundef nonnull align 8 dereferenceable(32), ptr noundef nonnull align 8 dereferenceable(32)) unnamed_addr #0

declare void @_ZN4cvc58internal6theory6TheoryC2ENS1_8TheoryIdERNS0_3EnvERNS1_13OutputChannelENS1_9ValuationENSt7__cxx1112basic_stringIcSt11char_traitsIcESaIcEEE(ptr noundef nonnull align 8 dereferenceable(408), i32 noundef, ptr noundef nonnull align 8 dereferenceable(576), ptr noundef nonnull align 8 dereferenceable(100), ptr, ptr noundef) unnamed_addr #0

declare i32 @__gxx_personality_v0(...)

; Function Attrs: nounwind
declare void @_ZNSt7__cxx1112basic_stringIcSt11char_traitsIcESaIcEED1Ev(ptr noundef nonnull align 8 dereferenceable(32)) unnamed_addr #1

; Function Attrs: nobuiltin allocsize(0)
declare noundef nonnull ptr @_Znwm(i64 noundef) local_unnamed_addr #5

declare void @_ZN4cvc58internal6theory2uf10LambdaLiftC1ERNS0_3EnvE(ptr noundef nonnull align 8 dereferenceable(192), ptr noundef nonnull align 8 dereferenceable(576)) unnamed_addr #0

; Function Attrs: nobuiltin nounwind
declare void @_ZdlPv(ptr noundef) local_unnamed_addr #6

declare noundef ptr @_ZNK4cvc58internal6EnvObj7contextEv(ptr noundef nonnull align 8 dereferenceable(16)) local_unnamed_addr #0

declare void @_ZN4cvc58internal6theory2uf15SymmetryBreakerC1ERNS0_3EnvENSt7__cxx1112basic_stringIcSt11char_traitsIcESaIcEEE(ptr noundef nonnull align 8 dereferenceable(768), ptr noundef nonnull align 8 dereferenceable(576), ptr noundef) unnamed_addr #0

declare void @_ZN4cvc58internal6theory2uf16TheoryUfRewriterC1Ev(ptr noundef nonnull align 8 dereferenceable(8)) unnamed_addr #0

declare void @_ZN4cvc58internal6theory11TheoryStateC1ERNS0_3EnvENS1_9ValuationE(ptr noundef nonnull align 8 dereferenceable(80), ptr noundef nonnull align 8 dereferenceable(576), ptr) unnamed_addr #0

; Function Attrs: mustprogress uwtable
define linkonce_odr void @_ZStplIcSt11char_traitsIcESaIcEENSt7__cxx1112basic_stringIT_T0_T1_EEPKS5_RKS8_(ptr noalias sret(%"class.std::__cxx11::basic_string") align 8 %agg.result, ptr noundef %__lhs, ptr noundef nonnull align 8 dereferenceable(32) %__rhs) local_unnamed_addr #3 comdat personality ptr @__gxx_personality_v0 {
invoke.cont:
  %ref.tmp = alloca %"class.std::allocator", align 1
  %ref.tmp1 = alloca %"class.std::allocator", align 1
  %call.i = tail call noundef i64 @strlen(ptr noundef nonnull dereferenceable(1) %__lhs) #22
  call void @_ZNKSt7__cxx1112basic_stringIcSt11char_traitsIcESaIcEE13get_allocatorEv(ptr nonnull sret(%"class.std::allocator") align 1 %ref.tmp1, ptr noundef nonnull align 8 dereferenceable(32) %__rhs) #22
  call void @_ZNSaIcEC1ERKS_(ptr noundef nonnull align 1 dereferenceable(1) %ref.tmp, ptr noundef nonnull align 1 dereferenceable(1) %ref.tmp1) #22
  call void @_ZNSt7__cxx1112basic_stringIcSt11char_traitsIcESaIcEEC1ERKS3_(ptr noundef nonnull align 8 dereferenceable(32) %agg.result, ptr noundef nonnull align 1 dereferenceable(1) %ref.tmp) #22
  call void @_ZNSaIcED1Ev(ptr noundef nonnull align 1 dereferenceable(1) %ref.tmp) #22
  call void @_ZNSaIcED1Ev(ptr noundef nonnull align 1 dereferenceable(1) %ref.tmp1) #22
  %call2 = call noundef i64 @_ZNKSt7__cxx1112basic_stringIcSt11char_traitsIcESaIcEE4sizeEv(ptr noundef nonnull align 8 dereferenceable(32) %__rhs) #22
  %add = add i64 %call2, %call.i
  invoke void @_ZNSt7__cxx1112basic_stringIcSt11char_traitsIcESaIcEE7reserveEm(ptr noundef nonnull align 8 dereferenceable(32) %agg.result, i64 noundef %add)
          to label %invoke.cont4 unwind label %lpad3

invoke.cont4:                                     ; preds = %invoke.cont
  %call6 = invoke noundef nonnull align 8 dereferenceable(32) ptr @_ZNSt7__cxx1112basic_stringIcSt11char_traitsIcESaIcEE6appendEPKcm(ptr noundef nonnull align 8 dereferenceable(32) %agg.result, ptr noundef %__lhs, i64 noundef %call.i)
          to label %invoke.cont5 unwind label %lpad3

invoke.cont5:                                     ; preds = %invoke.cont4
  %call8 = invoke noundef nonnull align 8 dereferenceable(32) ptr @_ZNSt7__cxx1112basic_stringIcSt11char_traitsIcESaIcEE6appendERKS4_(ptr noundef nonnull align 8 dereferenceable(32) %agg.result, ptr noundef nonnull align 8 dereferenceable(32) %__rhs)
          to label %nrvo.skipdtor unwind label %lpad3

lpad3:                                            ; preds = %invoke.cont5, %invoke.cont4, %invoke.cont
  %0 = landingpad { ptr, i32 }
          cleanup
  call void @_ZNSt7__cxx1112basic_stringIcSt11char_traitsIcESaIcEED1Ev(ptr noundef nonnull align 8 dereferenceable(32) %agg.result) #22
  resume { ptr, i32 } %0

nrvo.skipdtor:                                    ; preds = %invoke.cont5
  ret void
}

declare void @_ZN4cvc58internal6theory22TheoryInferenceManagerC1ERNS0_3EnvERNS1_6TheoryERNS1_11TheoryStateERKNSt7__cxx1112basic_stringIcSt11char_traitsIcESaIcEEEb(ptr noundef nonnull align 8 dereferenceable(256), ptr noundef nonnull align 8 dereferenceable(576), ptr noundef nonnull align 8 dereferenceable(408), ptr noundef nonnull align 8 dereferenceable(80), ptr noundef nonnull align 8 dereferenceable(32), i1 noundef zeroext) unnamed_addr #0

declare void @_ZN4cvc58internal6theory24CarePairArgumentCallbackC1ERNS1_6TheoryE(ptr noundef nonnull align 8 dereferenceable(16), ptr noundef nonnull align 8 dereferenceable(408)) unnamed_addr #0

declare noundef ptr @_ZN4cvc58internal11NodeManager9currentNMEv() local_unnamed_addr #0

declare void @_ZN4cvc58internal11NodeManager7mkConstIbEENS0_12NodeTemplateILb1EEERKT_(ptr sret(%"class.cvc5::internal::NodeTemplate") align 8, ptr noundef nonnull align 8 dereferenceable(3360), ptr noundef nonnull align 1 dereferenceable(1)) local_unnamed_addr #0

; Function Attrs: mustprogress nounwind uwtable
define linkonce_odr hidden void @_ZN4cvc58internal12NodeTemplateILb1EED2Ev(ptr noundef nonnull align 8 dereferenceable(8) %this) unnamed_addr #7 comdat align 2 personality ptr @__gxx_personality_v0 {
entry:
  %0 = load ptr, ptr %this, align 8
  %bf.load.i = load i64, ptr %0, align 8
  %1 = and i64 %bf.load.i, 1152920405095219200
  %cmp.not.i = icmp eq i64 %1, 1152920405095219200
  br i1 %cmp.not.i, label %invoke.cont, label %if.then.i

if.then.i:                                        ; preds = %entry
  %bf.value.i = add i64 %bf.load.i, 1152920405095219200
  %bf.shl.i = and i64 %bf.value.i, 1152920405095219200
  %bf.clear7.i = and i64 %bf.load.i, -1152920405095219201
  %bf.set.i = or disjoint i64 %bf.shl.i, %bf.clear7.i
  store i64 %bf.set.i, ptr %0, align 8
  %cmp12.i = icmp eq i64 %bf.shl.i, 0
  br i1 %cmp12.i, label %if.then13.i, label %invoke.cont

if.then13.i:                                      ; preds = %if.then.i
  invoke void @_ZN4cvc58internal4expr9NodeValue15markForDeletionEv(ptr noundef nonnull align 8 dereferenceable(16) %0)
          to label %invoke.cont unwind label %terminate.lpad

invoke.cont:                                      ; preds = %if.then.i, %entry, %if.then13.i
  ret void

terminate.lpad:                                   ; preds = %if.then13.i
  %2 = landingpad { ptr, i32 }
          catch ptr null
  %3 = extractvalue { ptr, i32 } %2, 0
  tail call void @__clang_call_terminate(ptr %3) #24
  unreachable
}

; Function Attrs: mustprogress nounwind uwtable
define linkonce_odr hidden void @_ZNSt3mapIN4cvc58internal8TypeNodeEbSt4lessIS2_ESaISt4pairIKS2_bEEED2Ev(ptr noundef nonnull align 8 dereferenceable(48) %this) unnamed_addr #7 comdat align 2 personality ptr @__gxx_personality_v0 {
entry:
  %_M_parent.i.i.i = getelementptr inbounds i8, ptr %this, i64 16
  %0 = load ptr, ptr %_M_parent.i.i.i, align 8
  invoke void @_ZNSt8_Rb_treeIN4cvc58internal8TypeNodeESt4pairIKS2_bESt10_Select1stIS5_ESt4lessIS2_ESaIS5_EE8_M_eraseEPSt13_Rb_tree_nodeIS5_E(ptr noundef nonnull align 8 dereferenceable(48) %this, ptr noundef %0)
          to label %_ZNSt8_Rb_treeIN4cvc58internal8TypeNodeESt4pairIKS2_bESt10_Select1stIS5_ESt4lessIS2_ESaIS5_EED2Ev.exit unwind label %terminate.lpad.i

terminate.lpad.i:                                 ; preds = %entry
  %1 = landingpad { ptr, i32 }
          catch ptr null
  %2 = extractvalue { ptr, i32 } %1, 0
  tail call void @__clang_call_terminate(ptr %2) #24
  unreachable

_ZNSt8_Rb_treeIN4cvc58internal8TypeNodeESt4pairIKS2_bESt10_Select1stIS5_ESt4lessIS2_ESaIS5_EED2Ev.exit: ; preds = %entry
  ret void
}

; Function Attrs: mustprogress nounwind uwtable
define linkonce_odr hidden void @_ZN4cvc58internal6theory2uf8TheoryUF11NotifyClassD2Ev(ptr noundef nonnull align 8 dereferenceable(24) %this) unnamed_addr #7 comdat align 2 {
entry:
  ret void
}

; Function Attrs: nounwind
declare void @_ZN4cvc58internal6theory22TheoryInferenceManagerD1Ev(ptr noundef nonnull align 8 dereferenceable(256)) unnamed_addr #1

; Function Attrs: mustprogress nounwind uwtable
define linkonce_odr hidden void @_ZN4cvc58internal6theory11TheoryStateD2Ev(ptr noundef nonnull align 8 dereferenceable(80) %this) unnamed_addr #7 comdat align 2 personality ptr @__gxx_personality_v0 {
entry:
  store ptr getelementptr inbounds ({ [14 x ptr] }, ptr @_ZTVN4cvc58internal6theory11TheoryStateE, i64 0, inrange i32 0, i64 2), ptr %this, align 8
  %d_conflict = getelementptr inbounds %"class.cvc5::internal::theory::TheoryState", ptr %this, i64 0, i32 3
  store ptr getelementptr inbounds ({ [6 x ptr] }, ptr @_ZTVN4cvc57context3CDOIbEE, i64 0, inrange i32 0, i64 2), ptr %d_conflict, align 8
  invoke void @_ZN4cvc57context10ContextObj7destroyEv(ptr noundef nonnull align 8 dereferenceable(40) %d_conflict)
          to label %_ZN4cvc57context3CDOIbED2Ev.exit unwind label %terminate.lpad.i

terminate.lpad.i:                                 ; preds = %entry
  %0 = landingpad { ptr, i32 }
          catch ptr null
  %1 = extractvalue { ptr, i32 } %0, 0
  tail call void @__clang_call_terminate(ptr %1) #24
  unreachable

_ZN4cvc57context3CDOIbED2Ev.exit:                 ; preds = %entry
  ret void
}

; Function Attrs: mustprogress nounwind uwtable
define linkonce_odr hidden void @_ZN4cvc58internal6theory2uf15SymmetryBreakerD2Ev(ptr noundef nonnull align 8 dereferenceable(768) %this) unnamed_addr #7 comdat align 2 personality ptr @__gxx_personality_v0 {
entry:
  store ptr getelementptr inbounds ({ [5 x ptr], [5 x ptr] }, ptr @_ZTVN4cvc58internal6theory2uf15SymmetryBreakerE, i64 0, inrange i32 0, i64 2), ptr %this, align 8
  %add.ptr = getelementptr inbounds i8, ptr %this, i64 16
  store ptr getelementptr inbounds ({ [5 x ptr], [5 x ptr] }, ptr @_ZTVN4cvc58internal6theory2uf15SymmetryBreakerE, i64 0, inrange i32 1, i64 2), ptr %add.ptr, align 8
  %d_name = getelementptr inbounds %"class.cvc5::internal::theory::uf::SymmetryBreaker", ptr %this, i64 0, i32 12
  tail call void @_ZNSt7__cxx1112basic_stringIcSt11char_traitsIcESaIcEED1Ev(ptr noundef nonnull align 8 dereferenceable(32) %d_name) #22
  %d_termEqsOnly = getelementptr inbounds %"class.cvc5::internal::theory::uf::SymmetryBreaker", ptr %this, i64 0, i32 11
  %_M_before_begin.i.i.i.i = getelementptr inbounds %"class.cvc5::internal::theory::uf::SymmetryBreaker", ptr %this, i64 0, i32 11, i32 0, i32 2
  %0 = load ptr, ptr %_M_before_begin.i.i.i.i, align 8
  %tobool.not3.i.i.i.i = icmp eq ptr %0, null
  br i1 %tobool.not3.i.i.i.i, label %_ZNSt10_HashtableIN4cvc58internal12NodeTemplateILb0EEESt4pairIKS3_St3setIS3_St4lessIS3_ESaIS3_EEESaISB_ENSt8__detail10_Select1stESt8equal_toIS3_ESt4hashIS3_ENSD_18_Mod_range_hashingENSD_20_Default_ranged_hashENSD_20_Prime_rehash_policyENSD_17_Hashtable_traitsILb1ELb0ELb1EEEE5clearEv.exit.i.i, label %while.body.i.i.i.i

while.body.i.i.i.i:                               ; preds = %entry, %_ZNSt8__detail16_Hashtable_allocISaINS_10_Hash_nodeISt4pairIKN4cvc58internal12NodeTemplateILb0EEESt3setIS6_St4lessIS6_ESaIS6_EEELb1EEEEE18_M_deallocate_nodeEPSE_.exit.i.i.i.i
  %__n.addr.04.i.i.i.i = phi ptr [ %1, %_ZNSt8__detail16_Hashtable_allocISaINS_10_Hash_nodeISt4pairIKN4cvc58internal12NodeTemplateILb0EEESt3setIS6_St4lessIS6_ESaIS6_EEELb1EEEEE18_M_deallocate_nodeEPSE_.exit.i.i.i.i ], [ %0, %entry ]
  %1 = load ptr, ptr %__n.addr.04.i.i.i.i, align 8
  %second.i.i.i.i.i.i.i.i = getelementptr inbounds i8, ptr %__n.addr.04.i.i.i.i, i64 16
  %_M_parent.i.i.i.i.i.i.i.i.i.i.i.i = getelementptr inbounds i8, ptr %__n.addr.04.i.i.i.i, i64 32
  %2 = load ptr, ptr %_M_parent.i.i.i.i.i.i.i.i.i.i.i.i, align 8
  invoke void @_ZNSt8_Rb_treeIN4cvc58internal12NodeTemplateILb0EEES3_St9_IdentityIS3_ESt4lessIS3_ESaIS3_EE8_M_eraseEPSt13_Rb_tree_nodeIS3_E(ptr noundef nonnull align 8 dereferenceable(48) %second.i.i.i.i.i.i.i.i, ptr noundef %2)
          to label %_ZNSt8__detail16_Hashtable_allocISaINS_10_Hash_nodeISt4pairIKN4cvc58internal12NodeTemplateILb0EEESt3setIS6_St4lessIS6_ESaIS6_EEELb1EEEEE18_M_deallocate_nodeEPSE_.exit.i.i.i.i unwind label %terminate.lpad.i.i.i.i.i.i.i.i.i.i

terminate.lpad.i.i.i.i.i.i.i.i.i.i:               ; preds = %while.body.i.i.i.i
  %3 = landingpad { ptr, i32 }
          catch ptr null
  %4 = extractvalue { ptr, i32 } %3, 0
  tail call void @__clang_call_terminate(ptr %4) #24
  unreachable

_ZNSt8__detail16_Hashtable_allocISaINS_10_Hash_nodeISt4pairIKN4cvc58internal12NodeTemplateILb0EEESt3setIS6_St4lessIS6_ESaIS6_EEELb1EEEEE18_M_deallocate_nodeEPSE_.exit.i.i.i.i: ; preds = %while.body.i.i.i.i
  tail call void @_ZdlPv(ptr noundef nonnull %__n.addr.04.i.i.i.i) #25
  %tobool.not.i.i.i.i = icmp eq ptr %1, null
  br i1 %tobool.not.i.i.i.i, label %_ZNSt10_HashtableIN4cvc58internal12NodeTemplateILb0EEESt4pairIKS3_St3setIS3_St4lessIS3_ESaIS3_EEESaISB_ENSt8__detail10_Select1stESt8equal_toIS3_ESt4hashIS3_ENSD_18_Mod_range_hashingENSD_20_Default_ranged_hashENSD_20_Prime_rehash_policyENSD_17_Hashtable_traitsILb1ELb0ELb1EEEE5clearEv.exit.i.i, label %while.body.i.i.i.i, !llvm.loop !5

_ZNSt10_HashtableIN4cvc58internal12NodeTemplateILb0EEESt4pairIKS3_St3setIS3_St4lessIS3_ESaIS3_EEESaISB_ENSt8__detail10_Select1stESt8equal_toIS3_ESt4hashIS3_ENSD_18_Mod_range_hashingENSD_20_Default_ranged_hashENSD_20_Prime_rehash_policyENSD_17_Hashtable_traitsILb1ELb0ELb1EEEE5clearEv.exit.i.i: ; preds = %_ZNSt8__detail16_Hashtable_allocISaINS_10_Hash_nodeISt4pairIKN4cvc58internal12NodeTemplateILb0EEESt3setIS6_St4lessIS6_ESaIS6_EEELb1EEEEE18_M_deallocate_nodeEPSE_.exit.i.i.i.i, %entry
  %5 = load ptr, ptr %d_termEqsOnly, align 8
  %_M_bucket_count.i.i.i = getelementptr inbounds %"class.cvc5::internal::theory::uf::SymmetryBreaker", ptr %this, i64 0, i32 11, i32 0, i32 1
  %6 = load i64, ptr %_M_bucket_count.i.i.i, align 8
  %mul.i.i.i = shl i64 %6, 3
  tail call void @llvm.memset.p0.i64(ptr align 8 %5, i8 0, i64 %mul.i.i.i, i1 false)
  tail call void @llvm.memset.p0.i64(ptr noundef nonnull align 8 dereferenceable(16) %_M_before_begin.i.i.i.i, i8 0, i64 16, i1 false)
  %7 = load ptr, ptr %d_termEqsOnly, align 8
  %_M_single_bucket.i.i.i.i.i = getelementptr inbounds %"class.cvc5::internal::theory::uf::SymmetryBreaker", ptr %this, i64 0, i32 11, i32 0, i32 5
  %cmp.i.i.i.i.i = icmp eq ptr %_M_single_bucket.i.i.i.i.i, %7
  br i1 %cmp.i.i.i.i.i, label %_ZNSt13unordered_mapIN4cvc58internal12NodeTemplateILb0EEESt3setIS3_St4lessIS3_ESaIS3_EESt4hashIS3_ESt8equal_toIS3_ESaISt4pairIKS3_S8_EEED2Ev.exit, label %if.end.i.i.i.i

if.end.i.i.i.i:                                   ; preds = %_ZNSt10_HashtableIN4cvc58internal12NodeTemplateILb0EEESt4pairIKS3_St3setIS3_St4lessIS3_ESaIS3_EEESaISB_ENSt8__detail10_Select1stESt8equal_toIS3_ESt4hashIS3_ENSD_18_Mod_range_hashingENSD_20_Default_ranged_hashENSD_20_Prime_rehash_policyENSD_17_Hashtable_traitsILb1ELb0ELb1EEEE5clearEv.exit.i.i
  tail call void @_ZdlPv(ptr noundef %7) #25
  br label %_ZNSt13unordered_mapIN4cvc58internal12NodeTemplateILb0EEESt3setIS3_St4lessIS3_ESaIS3_EESt4hashIS3_ESt8equal_toIS3_ESaISt4pairIKS3_S8_EEED2Ev.exit

_ZNSt13unordered_mapIN4cvc58internal12NodeTemplateILb0EEESt3setIS3_St4lessIS3_ESaIS3_EESt4hashIS3_ESt8equal_toIS3_ESaISt4pairIKS3_S8_EEED2Ev.exit: ; preds = %_ZNSt10_HashtableIN4cvc58internal12NodeTemplateILb0EEESt4pairIKS3_St3setIS3_St4lessIS3_ESaIS3_EEESaISB_ENSt8__detail10_Select1stESt8equal_toIS3_ESt4hashIS3_ENSD_18_Mod_range_hashingENSD_20_Default_ranged_hashENSD_20_Prime_rehash_policyENSD_17_Hashtable_traitsILb1ELb0ELb1EEEE5clearEv.exit.i.i, %if.end.i.i.i.i
  %d_termEqs = getelementptr inbounds %"class.cvc5::internal::theory::uf::SymmetryBreaker", ptr %this, i64 0, i32 10
  %_M_before_begin.i.i.i.i1 = getelementptr inbounds %"class.cvc5::internal::theory::uf::SymmetryBreaker", ptr %this, i64 0, i32 10, i32 0, i32 2
  %8 = load ptr, ptr %_M_before_begin.i.i.i.i1, align 8
  %tobool.not3.i.i.i.i2 = icmp eq ptr %8, null
  br i1 %tobool.not3.i.i.i.i2, label %_ZNSt10_HashtableIN4cvc58internal12NodeTemplateILb0EEESt4pairIKS3_St3setIS3_St4lessIS3_ESaIS3_EEESaISB_ENSt8__detail10_Select1stESt8equal_toIS3_ESt4hashIS3_ENSD_18_Mod_range_hashingENSD_20_Default_ranged_hashENSD_20_Prime_rehash_policyENSD_17_Hashtable_traitsILb1ELb0ELb1EEEE5clearEv.exit.i.i10, label %while.body.i.i.i.i3

while.body.i.i.i.i3:                              ; preds = %_ZNSt13unordered_mapIN4cvc58internal12NodeTemplateILb0EEESt3setIS3_St4lessIS3_ESaIS3_EESt4hashIS3_ESt8equal_toIS3_ESaISt4pairIKS3_S8_EEED2Ev.exit, %_ZNSt8__detail16_Hashtable_allocISaINS_10_Hash_nodeISt4pairIKN4cvc58internal12NodeTemplateILb0EEESt3setIS6_St4lessIS6_ESaIS6_EEELb1EEEEE18_M_deallocate_nodeEPSE_.exit.i.i.i.i8
  %__n.addr.04.i.i.i.i4 = phi ptr [ %9, %_ZNSt8__detail16_Hashtable_allocISaINS_10_Hash_nodeISt4pairIKN4cvc58internal12NodeTemplateILb0EEESt3setIS6_St4lessIS6_ESaIS6_EEELb1EEEEE18_M_deallocate_nodeEPSE_.exit.i.i.i.i8 ], [ %8, %_ZNSt13unordered_mapIN4cvc58internal12NodeTemplateILb0EEESt3setIS3_St4lessIS3_ESaIS3_EESt4hashIS3_ESt8equal_toIS3_ESaISt4pairIKS3_S8_EEED2Ev.exit ]
  %9 = load ptr, ptr %__n.addr.04.i.i.i.i4, align 8
  %second.i.i.i.i.i.i.i.i5 = getelementptr inbounds i8, ptr %__n.addr.04.i.i.i.i4, i64 16
  %_M_parent.i.i.i.i.i.i.i.i.i.i.i.i6 = getelementptr inbounds i8, ptr %__n.addr.04.i.i.i.i4, i64 32
  %10 = load ptr, ptr %_M_parent.i.i.i.i.i.i.i.i.i.i.i.i6, align 8
  invoke void @_ZNSt8_Rb_treeIN4cvc58internal12NodeTemplateILb0EEES3_St9_IdentityIS3_ESt4lessIS3_ESaIS3_EE8_M_eraseEPSt13_Rb_tree_nodeIS3_E(ptr noundef nonnull align 8 dereferenceable(48) %second.i.i.i.i.i.i.i.i5, ptr noundef %10)
          to label %_ZNSt8__detail16_Hashtable_allocISaINS_10_Hash_nodeISt4pairIKN4cvc58internal12NodeTemplateILb0EEESt3setIS6_St4lessIS6_ESaIS6_EEELb1EEEEE18_M_deallocate_nodeEPSE_.exit.i.i.i.i8 unwind label %terminate.lpad.i.i.i.i.i.i.i.i.i.i7

terminate.lpad.i.i.i.i.i.i.i.i.i.i7:              ; preds = %while.body.i.i.i.i3
  %11 = landingpad { ptr, i32 }
          catch ptr null
  %12 = extractvalue { ptr, i32 } %11, 0
  tail call void @__clang_call_terminate(ptr %12) #24
  unreachable

_ZNSt8__detail16_Hashtable_allocISaINS_10_Hash_nodeISt4pairIKN4cvc58internal12NodeTemplateILb0EEESt3setIS6_St4lessIS6_ESaIS6_EEELb1EEEEE18_M_deallocate_nodeEPSE_.exit.i.i.i.i8: ; preds = %while.body.i.i.i.i3
  tail call void @_ZdlPv(ptr noundef nonnull %__n.addr.04.i.i.i.i4) #25
  %tobool.not.i.i.i.i9 = icmp eq ptr %9, null
  br i1 %tobool.not.i.i.i.i9, label %_ZNSt10_HashtableIN4cvc58internal12NodeTemplateILb0EEESt4pairIKS3_St3setIS3_St4lessIS3_ESaIS3_EEESaISB_ENSt8__detail10_Select1stESt8equal_toIS3_ESt4hashIS3_ENSD_18_Mod_range_hashingENSD_20_Default_ranged_hashENSD_20_Prime_rehash_policyENSD_17_Hashtable_traitsILb1ELb0ELb1EEEE5clearEv.exit.i.i10, label %while.body.i.i.i.i3, !llvm.loop !5

_ZNSt10_HashtableIN4cvc58internal12NodeTemplateILb0EEESt4pairIKS3_St3setIS3_St4lessIS3_ESaIS3_EEESaISB_ENSt8__detail10_Select1stESt8equal_toIS3_ESt4hashIS3_ENSD_18_Mod_range_hashingENSD_20_Default_ranged_hashENSD_20_Prime_rehash_policyENSD_17_Hashtable_traitsILb1ELb0ELb1EEEE5clearEv.exit.i.i10: ; preds = %_ZNSt8__detail16_Hashtable_allocISaINS_10_Hash_nodeISt4pairIKN4cvc58internal12NodeTemplateILb0EEESt3setIS6_St4lessIS6_ESaIS6_EEELb1EEEEE18_M_deallocate_nodeEPSE_.exit.i.i.i.i8, %_ZNSt13unordered_mapIN4cvc58internal12NodeTemplateILb0EEESt3setIS3_St4lessIS3_ESaIS3_EESt4hashIS3_ESt8equal_toIS3_ESaISt4pairIKS3_S8_EEED2Ev.exit
  %13 = load ptr, ptr %d_termEqs, align 8
  %_M_bucket_count.i.i.i11 = getelementptr inbounds %"class.cvc5::internal::theory::uf::SymmetryBreaker", ptr %this, i64 0, i32 10, i32 0, i32 1
  %14 = load i64, ptr %_M_bucket_count.i.i.i11, align 8
  %mul.i.i.i12 = shl i64 %14, 3
  tail call void @llvm.memset.p0.i64(ptr align 8 %13, i8 0, i64 %mul.i.i.i12, i1 false)
  tail call void @llvm.memset.p0.i64(ptr noundef nonnull align 8 dereferenceable(16) %_M_before_begin.i.i.i.i1, i8 0, i64 16, i1 false)
  %15 = load ptr, ptr %d_termEqs, align 8
  %_M_single_bucket.i.i.i.i.i13 = getelementptr inbounds %"class.cvc5::internal::theory::uf::SymmetryBreaker", ptr %this, i64 0, i32 10, i32 0, i32 5
  %cmp.i.i.i.i.i14 = icmp eq ptr %_M_single_bucket.i.i.i.i.i13, %15
  br i1 %cmp.i.i.i.i.i14, label %_ZNSt13unordered_mapIN4cvc58internal12NodeTemplateILb0EEESt3setIS3_St4lessIS3_ESaIS3_EESt4hashIS3_ESt8equal_toIS3_ESaISt4pairIKS3_S8_EEED2Ev.exit16, label %if.end.i.i.i.i15

if.end.i.i.i.i15:                                 ; preds = %_ZNSt10_HashtableIN4cvc58internal12NodeTemplateILb0EEESt4pairIKS3_St3setIS3_St4lessIS3_ESaIS3_EEESaISB_ENSt8__detail10_Select1stESt8equal_toIS3_ESt4hashIS3_ENSD_18_Mod_range_hashingENSD_20_Default_ranged_hashENSD_20_Prime_rehash_policyENSD_17_Hashtable_traitsILb1ELb0ELb1EEEE5clearEv.exit.i.i10
  tail call void @_ZdlPv(ptr noundef %15) #25
  br label %_ZNSt13unordered_mapIN4cvc58internal12NodeTemplateILb0EEESt3setIS3_St4lessIS3_ESaIS3_EESt4hashIS3_ESt8equal_toIS3_ESaISt4pairIKS3_S8_EEED2Ev.exit16

_ZNSt13unordered_mapIN4cvc58internal12NodeTemplateILb0EEESt3setIS3_St4lessIS3_ESaIS3_EESt4hashIS3_ESt8equal_toIS3_ESaISt4pairIKS3_S8_EEED2Ev.exit16: ; preds = %_ZNSt10_HashtableIN4cvc58internal12NodeTemplateILb0EEESt4pairIKS3_St3setIS3_St4lessIS3_ESaIS3_EEESaISB_ENSt8__detail10_Select1stESt8equal_toIS3_ESt4hashIS3_ENSD_18_Mod_range_hashingENSD_20_Default_ranged_hashENSD_20_Prime_rehash_policyENSD_17_Hashtable_traitsILb1ELb0ELb1EEEE5clearEv.exit.i.i10, %if.end.i.i.i.i15
  %d_normalizationCache = getelementptr inbounds %"class.cvc5::internal::theory::uf::SymmetryBreaker", ptr %this, i64 0, i32 9
  %_M_before_begin.i.i.i.i17 = getelementptr inbounds %"class.cvc5::internal::theory::uf::SymmetryBreaker", ptr %this, i64 0, i32 9, i32 0, i32 2
  %16 = load ptr, ptr %_M_before_begin.i.i.i.i17, align 8
  %tobool.not3.i.i.i.i18 = icmp eq ptr %16, null
  br i1 %tobool.not3.i.i.i.i18, label %_ZNSt10_HashtableIN4cvc58internal12NodeTemplateILb1EEESt4pairIKS3_S3_ESaIS6_ENSt8__detail10_Select1stESt8equal_toIS3_ESt4hashIS3_ENS8_18_Mod_range_hashingENS8_20_Default_ranged_hashENS8_20_Prime_rehash_policyENS8_17_Hashtable_traitsILb1ELb0ELb1EEEE5clearEv.exit.i.i, label %while.body.i.i.i.i19

while.body.i.i.i.i19:                             ; preds = %_ZNSt13unordered_mapIN4cvc58internal12NodeTemplateILb0EEESt3setIS3_St4lessIS3_ESaIS3_EESt4hashIS3_ESt8equal_toIS3_ESaISt4pairIKS3_S8_EEED2Ev.exit16, %.noexc.i.i.i
  %__n.addr.04.i.i.i.i20 = phi ptr [ %17, %.noexc.i.i.i ], [ %16, %_ZNSt13unordered_mapIN4cvc58internal12NodeTemplateILb0EEESt3setIS3_St4lessIS3_ESaIS3_EESt4hashIS3_ESt8equal_toIS3_ESaISt4pairIKS3_S8_EEED2Ev.exit16 ]
  %17 = load ptr, ptr %__n.addr.04.i.i.i.i20, align 8
  invoke void @_ZNSt8__detail16_Hashtable_allocISaINS_10_Hash_nodeISt4pairIKN4cvc58internal12NodeTemplateILb1EEES6_ELb1EEEEE18_M_deallocate_nodeEPS9_(ptr noundef nonnull align 1 dereferenceable(1) %d_normalizationCache, ptr noundef nonnull %__n.addr.04.i.i.i.i20)
          to label %.noexc.i.i.i unwind label %terminate.lpad.i.i.i

.noexc.i.i.i:                                     ; preds = %while.body.i.i.i.i19
  %tobool.not.i.i.i.i21 = icmp eq ptr %17, null
  br i1 %tobool.not.i.i.i.i21, label %_ZNSt10_HashtableIN4cvc58internal12NodeTemplateILb1EEESt4pairIKS3_S3_ESaIS6_ENSt8__detail10_Select1stESt8equal_toIS3_ESt4hashIS3_ENS8_18_Mod_range_hashingENS8_20_Default_ranged_hashENS8_20_Prime_rehash_policyENS8_17_Hashtable_traitsILb1ELb0ELb1EEEE5clearEv.exit.i.i, label %while.body.i.i.i.i19, !llvm.loop !7

terminate.lpad.i.i.i:                             ; preds = %while.body.i.i.i.i19
  %18 = landingpad { ptr, i32 }
          catch ptr null
  %19 = extractvalue { ptr, i32 } %18, 0
  tail call void @__clang_call_terminate(ptr %19) #24
  unreachable

_ZNSt10_HashtableIN4cvc58internal12NodeTemplateILb1EEESt4pairIKS3_S3_ESaIS6_ENSt8__detail10_Select1stESt8equal_toIS3_ESt4hashIS3_ENS8_18_Mod_range_hashingENS8_20_Default_ranged_hashENS8_20_Prime_rehash_policyENS8_17_Hashtable_traitsILb1ELb0ELb1EEEE5clearEv.exit.i.i: ; preds = %.noexc.i.i.i, %_ZNSt13unordered_mapIN4cvc58internal12NodeTemplateILb0EEESt3setIS3_St4lessIS3_ESaIS3_EESt4hashIS3_ESt8equal_toIS3_ESaISt4pairIKS3_S8_EEED2Ev.exit16
  %20 = load ptr, ptr %d_normalizationCache, align 8
  %_M_bucket_count.i.i.i22 = getelementptr inbounds %"class.cvc5::internal::theory::uf::SymmetryBreaker", ptr %this, i64 0, i32 9, i32 0, i32 1
  %21 = load i64, ptr %_M_bucket_count.i.i.i22, align 8
  %mul.i.i.i23 = shl i64 %21, 3
  tail call void @llvm.memset.p0.i64(ptr align 8 %20, i8 0, i64 %mul.i.i.i23, i1 false)
  tail call void @llvm.memset.p0.i64(ptr noundef nonnull align 8 dereferenceable(16) %_M_before_begin.i.i.i.i17, i8 0, i64 16, i1 false)
  %22 = load ptr, ptr %d_normalizationCache, align 8
  %_M_single_bucket.i.i.i.i.i24 = getelementptr inbounds %"class.cvc5::internal::theory::uf::SymmetryBreaker", ptr %this, i64 0, i32 9, i32 0, i32 5
  %cmp.i.i.i.i.i25 = icmp eq ptr %_M_single_bucket.i.i.i.i.i24, %22
  br i1 %cmp.i.i.i.i.i25, label %_ZNSt13unordered_mapIN4cvc58internal12NodeTemplateILb1EEES3_St4hashIS3_ESt8equal_toIS3_ESaISt4pairIKS3_S3_EEED2Ev.exit, label %if.end.i.i.i.i26

if.end.i.i.i.i26:                                 ; preds = %_ZNSt10_HashtableIN4cvc58internal12NodeTemplateILb1EEESt4pairIKS3_S3_ESaIS6_ENSt8__detail10_Select1stESt8equal_toIS3_ESt4hashIS3_ENS8_18_Mod_range_hashingENS8_20_Default_ranged_hashENS8_20_Prime_rehash_policyENS8_17_Hashtable_traitsILb1ELb0ELb1EEEE5clearEv.exit.i.i
  tail call void @_ZdlPv(ptr noundef %22) #25
  br label %_ZNSt13unordered_mapIN4cvc58internal12NodeTemplateILb1EEES3_St4hashIS3_ESt8equal_toIS3_ESaISt4pairIKS3_S3_EEED2Ev.exit

_ZNSt13unordered_mapIN4cvc58internal12NodeTemplateILb1EEES3_St4hashIS3_ESt8equal_toIS3_ESaISt4pairIKS3_S3_EEED2Ev.exit: ; preds = %_ZNSt10_HashtableIN4cvc58internal12NodeTemplateILb1EEESt4pairIKS3_S3_ESaIS6_ENSt8__detail10_Select1stESt8equal_toIS3_ESt4hashIS3_ENS8_18_Mod_range_hashingENS8_20_Default_ranged_hashENS8_20_Prime_rehash_policyENS8_17_Hashtable_traitsILb1ELb0ELb1EEEE5clearEv.exit.i.i, %if.end.i.i.i.i26
  %d_template = getelementptr inbounds %"class.cvc5::internal::theory::uf::SymmetryBreaker", ptr %this, i64 0, i32 8
  tail call void @_ZN4cvc58internal6theory2uf15SymmetryBreaker8TemplateD2Ev(ptr noundef nonnull align 8 dereferenceable(240) %d_template) #22
  %d_terms = getelementptr inbounds %"class.cvc5::internal::theory::uf::SymmetryBreaker", ptr %this, i64 0, i32 7
  %23 = load ptr, ptr %d_terms, align 8
  %cmp.not4.i.i.i = icmp eq ptr %23, %d_terms
  br i1 %cmp.not4.i.i.i, label %_ZNSt7__cxx114listIN4cvc58internal12NodeTemplateILb0EEESaIS4_EED2Ev.exit, label %while.body.i.i.i

while.body.i.i.i:                                 ; preds = %_ZNSt13unordered_mapIN4cvc58internal12NodeTemplateILb1EEES3_St4hashIS3_ESt8equal_toIS3_ESaISt4pairIKS3_S3_EEED2Ev.exit, %while.body.i.i.i
  %__cur.05.i.i.i = phi ptr [ %24, %while.body.i.i.i ], [ %23, %_ZNSt13unordered_mapIN4cvc58internal12NodeTemplateILb1EEES3_St4hashIS3_ESt8equal_toIS3_ESaISt4pairIKS3_S3_EEED2Ev.exit ]
  %24 = load ptr, ptr %__cur.05.i.i.i, align 8
  tail call void @_ZdlPv(ptr noundef %__cur.05.i.i.i) #25
  %cmp.not.i.i.i = icmp eq ptr %24, %d_terms
  br i1 %cmp.not.i.i.i, label %_ZNSt7__cxx114listIN4cvc58internal12NodeTemplateILb0EEESaIS4_EED2Ev.exit, label %while.body.i.i.i, !llvm.loop !8

_ZNSt7__cxx114listIN4cvc58internal12NodeTemplateILb0EEESaIS4_EED2Ev.exit: ; preds = %while.body.i.i.i, %_ZNSt13unordered_mapIN4cvc58internal12NodeTemplateILb1EEES3_St4hashIS3_ESt8equal_toIS3_ESaISt4pairIKS3_S3_EEED2Ev.exit
  %d_permutations = getelementptr inbounds %"class.cvc5::internal::theory::uf::SymmetryBreaker", ptr %this, i64 0, i32 6
  %_M_parent.i.i.i.i = getelementptr inbounds %"class.cvc5::internal::theory::uf::SymmetryBreaker", ptr %this, i64 0, i32 6, i32 0, i32 0, i32 1, i32 0, i32 1
  %25 = load ptr, ptr %_M_parent.i.i.i.i, align 8
  invoke void @_ZNSt8_Rb_treeISt3setIN4cvc58internal12NodeTemplateILb0EEESt4lessIS4_ESaIS4_EES8_St9_IdentityIS8_ES5_IS8_ESaIS8_EE8_M_eraseEPSt13_Rb_tree_nodeIS8_E(ptr noundef nonnull align 8 dereferenceable(48) %d_permutations, ptr noundef %25)
          to label %_ZNSt3setIS_IN4cvc58internal12NodeTemplateILb0EEESt4lessIS3_ESaIS3_EES4_IS7_ESaIS7_EED2Ev.exit unwind label %terminate.lpad.i.i

terminate.lpad.i.i:                               ; preds = %_ZNSt7__cxx114listIN4cvc58internal12NodeTemplateILb0EEESaIS4_EED2Ev.exit
  %26 = landingpad { ptr, i32 }
          catch ptr null
  %27 = extractvalue { ptr, i32 } %26, 0
  tail call void @__clang_call_terminate(ptr %27) #24
  unreachable

_ZNSt3setIS_IN4cvc58internal12NodeTemplateILb0EEESt4lessIS3_ESaIS3_EES4_IS7_ESaIS7_EED2Ev.exit: ; preds = %_ZNSt7__cxx114listIN4cvc58internal12NodeTemplateILb0EEESaIS4_EED2Ev.exit
  %d_phiSet = getelementptr inbounds %"class.cvc5::internal::theory::uf::SymmetryBreaker", ptr %this, i64 0, i32 5
  %_M_parent.i.i.i.i27 = getelementptr inbounds %"class.cvc5::internal::theory::uf::SymmetryBreaker", ptr %this, i64 0, i32 5, i32 0, i32 0, i32 1, i32 0, i32 1
  %28 = load ptr, ptr %_M_parent.i.i.i.i27, align 8
  invoke void @_ZNSt8_Rb_treeIN4cvc58internal12NodeTemplateILb0EEES3_St9_IdentityIS3_ESt4lessIS3_ESaIS3_EE8_M_eraseEPSt13_Rb_tree_nodeIS3_E(ptr noundef nonnull align 8 dereferenceable(48) %d_phiSet, ptr noundef %28)
          to label %_ZNSt3setIN4cvc58internal12NodeTemplateILb0EEESt4lessIS3_ESaIS3_EED2Ev.exit unwind label %terminate.lpad.i.i28

terminate.lpad.i.i28:                             ; preds = %_ZNSt3setIS_IN4cvc58internal12NodeTemplateILb0EEESt4lessIS3_ESaIS3_EES4_IS7_ESaIS7_EED2Ev.exit
  %29 = landingpad { ptr, i32 }
          catch ptr null
  %30 = extractvalue { ptr, i32 } %29, 0
  tail call void @__clang_call_terminate(ptr %30) #24
  unreachable

_ZNSt3setIN4cvc58internal12NodeTemplateILb0EEESt4lessIS3_ESaIS3_EED2Ev.exit: ; preds = %_ZNSt3setIS_IN4cvc58internal12NodeTemplateILb0EEESt4lessIS3_ESaIS3_EES4_IS7_ESaIS7_EED2Ev.exit
  %d_phi = getelementptr inbounds %"class.cvc5::internal::theory::uf::SymmetryBreaker", ptr %this, i64 0, i32 4
  %31 = load ptr, ptr %d_phi, align 8
  %_M_finish.i = getelementptr inbounds %"class.cvc5::internal::theory::uf::SymmetryBreaker", ptr %this, i64 0, i32 4, i32 0, i32 0, i32 0, i32 1
  %32 = load ptr, ptr %_M_finish.i, align 8
  %cmp.not3.i.i.i.i = icmp eq ptr %31, %32
  br i1 %cmp.not3.i.i.i.i, label %invoke.cont.i, label %for.body.i.i.i.i

for.body.i.i.i.i:                                 ; preds = %_ZNSt3setIN4cvc58internal12NodeTemplateILb0EEESt4lessIS3_ESaIS3_EED2Ev.exit, %_ZSt8_DestroyIN4cvc58internal12NodeTemplateILb1EEEEvPT_.exit.i.i.i.i
  %__first.addr.04.i.i.i.i = phi ptr [ %incdec.ptr.i.i.i.i, %_ZSt8_DestroyIN4cvc58internal12NodeTemplateILb1EEEEvPT_.exit.i.i.i.i ], [ %31, %_ZNSt3setIN4cvc58internal12NodeTemplateILb0EEESt4lessIS3_ESaIS3_EED2Ev.exit ]
  %33 = load ptr, ptr %__first.addr.04.i.i.i.i, align 8
  %bf.load.i.i.i.i.i.i.i = load i64, ptr %33, align 8
  %34 = and i64 %bf.load.i.i.i.i.i.i.i, 1152920405095219200
  %cmp.not.i.i.i.i.i.i.i = icmp eq i64 %34, 1152920405095219200
  br i1 %cmp.not.i.i.i.i.i.i.i, label %_ZSt8_DestroyIN4cvc58internal12NodeTemplateILb1EEEEvPT_.exit.i.i.i.i, label %if.then.i.i.i.i.i.i.i

if.then.i.i.i.i.i.i.i:                            ; preds = %for.body.i.i.i.i
  %bf.value.i.i.i.i.i.i.i = add i64 %bf.load.i.i.i.i.i.i.i, 1152920405095219200
  %bf.shl.i.i.i.i.i.i.i = and i64 %bf.value.i.i.i.i.i.i.i, 1152920405095219200
  %bf.clear7.i.i.i.i.i.i.i = and i64 %bf.load.i.i.i.i.i.i.i, -1152920405095219201
  %bf.set.i.i.i.i.i.i.i = or disjoint i64 %bf.shl.i.i.i.i.i.i.i, %bf.clear7.i.i.i.i.i.i.i
  store i64 %bf.set.i.i.i.i.i.i.i, ptr %33, align 8
  %cmp12.i.i.i.i.i.i.i = icmp eq i64 %bf.shl.i.i.i.i.i.i.i, 0
  br i1 %cmp12.i.i.i.i.i.i.i, label %if.then13.i.i.i.i.i.i.i, label %_ZSt8_DestroyIN4cvc58internal12NodeTemplateILb1EEEEvPT_.exit.i.i.i.i

if.then13.i.i.i.i.i.i.i:                          ; preds = %if.then.i.i.i.i.i.i.i
  invoke void @_ZN4cvc58internal4expr9NodeValue15markForDeletionEv(ptr noundef nonnull align 8 dereferenceable(16) %33)
          to label %_ZSt8_DestroyIN4cvc58internal12NodeTemplateILb1EEEEvPT_.exit.i.i.i.i unwind label %terminate.lpad.i.i.i.i.i.i

terminate.lpad.i.i.i.i.i.i:                       ; preds = %if.then13.i.i.i.i.i.i.i
  %35 = landingpad { ptr, i32 }
          catch ptr null
  %36 = extractvalue { ptr, i32 } %35, 0
  tail call void @__clang_call_terminate(ptr %36) #24
  unreachable

_ZSt8_DestroyIN4cvc58internal12NodeTemplateILb1EEEEvPT_.exit.i.i.i.i: ; preds = %if.then13.i.i.i.i.i.i.i, %if.then.i.i.i.i.i.i.i, %for.body.i.i.i.i
  %incdec.ptr.i.i.i.i = getelementptr inbounds %"class.cvc5::internal::NodeTemplate", ptr %__first.addr.04.i.i.i.i, i64 1
  %cmp.not.i.i.i.i = icmp eq ptr %incdec.ptr.i.i.i.i, %32
  br i1 %cmp.not.i.i.i.i, label %invoke.contthread-pre-split.i, label %for.body.i.i.i.i, !llvm.loop !9

invoke.contthread-pre-split.i:                    ; preds = %_ZSt8_DestroyIN4cvc58internal12NodeTemplateILb1EEEEvPT_.exit.i.i.i.i
  %.pr.i = load ptr, ptr %d_phi, align 8
  br label %invoke.cont.i

invoke.cont.i:                                    ; preds = %invoke.contthread-pre-split.i, %_ZNSt3setIN4cvc58internal12NodeTemplateILb0EEESt4lessIS3_ESaIS3_EED2Ev.exit
  %37 = phi ptr [ %.pr.i, %invoke.contthread-pre-split.i ], [ %31, %_ZNSt3setIN4cvc58internal12NodeTemplateILb0EEESt4lessIS3_ESaIS3_EED2Ev.exit ]
  %tobool.not.i.i.i = icmp eq ptr %37, null
  br i1 %tobool.not.i.i.i, label %_ZNSt6vectorIN4cvc58internal12NodeTemplateILb1EEESaIS3_EED2Ev.exit, label %if.then.i.i.i

if.then.i.i.i:                                    ; preds = %invoke.cont.i
  tail call void @_ZdlPv(ptr noundef nonnull %37) #25
  br label %_ZNSt6vectorIN4cvc58internal12NodeTemplateILb1EEESaIS3_EED2Ev.exit

_ZNSt6vectorIN4cvc58internal12NodeTemplateILb1EEESaIS3_EED2Ev.exit: ; preds = %invoke.cont.i, %if.then.i.i.i
  %d_assertionsToRerun = getelementptr inbounds %"class.cvc5::internal::theory::uf::SymmetryBreaker", ptr %this, i64 0, i32 2
  tail call void @_ZN4cvc57context6CDListINS_8internal12NodeTemplateILb1EEENS0_14DefaultCleanUpIS4_EESaIS4_EED2Ev(ptr noundef nonnull align 8 dereferenceable(74) %d_assertionsToRerun) #22
  tail call void @_ZN4cvc57context16ContextNotifyObjD2Ev(ptr noundef nonnull align 8 dereferenceable(24) %add.ptr) #22
  ret void
}

; Function Attrs: mustprogress nounwind uwtable
define linkonce_odr hidden void @_ZN4cvc57context6CDListINS_8internal12NodeTemplateILb0EEENS0_14DefaultCleanUpIS4_EESaIS4_EED2Ev(ptr noundef nonnull align 8 dereferenceable(74) %this) unnamed_addr #7 comdat align 2 personality ptr @__gxx_personality_v0 {
entry:
  store ptr getelementptr inbounds ({ [6 x ptr] }, ptr @_ZTVN4cvc57context6CDListINS_8internal12NodeTemplateILb0EEENS0_14DefaultCleanUpIS4_EESaIS4_EEE, i64 0, inrange i32 0, i64 2), ptr %this, align 8
  invoke void @_ZN4cvc57context10ContextObj7destroyEv(ptr noundef nonnull align 8 dereferenceable(40) %this)
          to label %invoke.cont unwind label %terminate.lpad

invoke.cont:                                      ; preds = %entry
  %d_callCleanup = getelementptr inbounds %"class.cvc5::context::CDList", ptr %this, i64 0, i32 3
  %0 = load i8, ptr %d_callCleanup, align 8
  %1 = and i8 %0, 1
  %tobool.not = icmp eq i8 %1, 0
  br i1 %tobool.not, label %if.end, label %if.then

if.then:                                          ; preds = %invoke.cont
  %d_size4.i = getelementptr inbounds %"class.cvc5::context::CDList", ptr %this, i64 0, i32 2
  %d_size.promoted.i = load i64, ptr %d_size4.i, align 8
  %cmp.not4.i = icmp eq i64 %d_size.promoted.i, 0
  br i1 %cmp.not4.i, label %if.end.i, label %if.end.sink.split.i

if.end.sink.split.i:                              ; preds = %if.then
  store i64 0, ptr %d_size4.i, align 8
  br label %if.end.i

if.end.i:                                         ; preds = %if.end.sink.split.i, %if.then
  %d_list5.i = getelementptr inbounds %"class.cvc5::context::CDList", ptr %this, i64 0, i32 1
  %2 = load ptr, ptr %d_list5.i, align 8
  %_M_finish.i.i = getelementptr inbounds %"class.cvc5::context::CDList", ptr %this, i64 0, i32 1, i32 0, i32 0, i32 0, i32 1
  %3 = load ptr, ptr %_M_finish.i.i, align 8
  %sub.ptr.rhs.cast.i.i.i = ptrtoint ptr %2 to i64
  %sub.ptr.lhs.cast.i1.i.i = ptrtoint ptr %3 to i64
  %sub.ptr.sub.i3.i.i = sub i64 %sub.ptr.lhs.cast.i1.i.i, %sub.ptr.rhs.cast.i.i.i
  %add.ptr.i5.i.i = getelementptr inbounds i8, ptr %2, i64 %sub.ptr.sub.i3.i.i
  %cmp.i.not.i.i.i = icmp eq ptr %2, %3
  br i1 %cmp.i.not.i.i.i, label %if.end, label %if.then.i.i.i

if.then.i.i.i:                                    ; preds = %if.end.i
  %cmp.i1.not.i.i.i = icmp eq ptr %3, %add.ptr.i5.i.i
  br i1 %cmp.i1.not.i.i.i, label %if.end.i.i.i, label %if.then6.i.i.i

if.then6.i.i.i:                                   ; preds = %if.then.i.i.i
  %sub.ptr.rhs.cast.i.i.i.i.i.i.i.i = ptrtoint ptr %add.ptr.i5.i.i to i64
  %sub.ptr.sub.i.i.i.i.i.i.i.i = sub i64 %sub.ptr.lhs.cast.i1.i.i, %sub.ptr.rhs.cast.i.i.i.i.i.i.i.i
  %sub.ptr.div.i.i.i.i.i.i.i.i = ashr exact i64 %sub.ptr.sub.i.i.i.i.i.i.i.i, 3
  %cmp6.i.i.i.i.i.i.i.i = icmp sgt i64 %sub.ptr.div.i.i.i.i.i.i.i.i, 0
  br i1 %cmp6.i.i.i.i.i.i.i.i, label %for.body.i.i.i.i.i.i.i.i, label %if.end.i.i.i

for.body.i.i.i.i.i.i.i.i:                         ; preds = %if.then6.i.i.i, %_ZN4cvc58internal12NodeTemplateILb0EEaSERKS2_.exit.i.i.i.i.i.i.i.i
  %__n.09.i.i.i.i.i.i.i.i = phi i64 [ %dec.i.i.i.i.i.i.i.i, %_ZN4cvc58internal12NodeTemplateILb0EEaSERKS2_.exit.i.i.i.i.i.i.i.i ], [ %sub.ptr.div.i.i.i.i.i.i.i.i, %if.then6.i.i.i ]
  %__result.addr.08.i.i.i.i.i.i.i.i = phi ptr [ %incdec.ptr1.i.i.i.i.i.i.i.i, %_ZN4cvc58internal12NodeTemplateILb0EEaSERKS2_.exit.i.i.i.i.i.i.i.i ], [ %2, %if.then6.i.i.i ]
  %__first.addr.07.i.i.i.i.i.i.i.i = phi ptr [ %incdec.ptr.i.i.i.i.i.i.i.i, %_ZN4cvc58internal12NodeTemplateILb0EEaSERKS2_.exit.i.i.i.i.i.i.i.i ], [ %add.ptr.i5.i.i, %if.then6.i.i.i ]
  %4 = load ptr, ptr %__result.addr.08.i.i.i.i.i.i.i.i, align 8
  %5 = load ptr, ptr %__first.addr.07.i.i.i.i.i.i.i.i, align 8
  %cmp.not.i.i.i.i.i.i.i.i.i = icmp eq ptr %4, %5
  br i1 %cmp.not.i.i.i.i.i.i.i.i.i, label %_ZN4cvc58internal12NodeTemplateILb0EEaSERKS2_.exit.i.i.i.i.i.i.i.i, label %if.then.i.i.i.i.i.i.i.i.i

if.then.i.i.i.i.i.i.i.i.i:                        ; preds = %for.body.i.i.i.i.i.i.i.i
  store ptr %5, ptr %__result.addr.08.i.i.i.i.i.i.i.i, align 8
  br label %_ZN4cvc58internal12NodeTemplateILb0EEaSERKS2_.exit.i.i.i.i.i.i.i.i

_ZN4cvc58internal12NodeTemplateILb0EEaSERKS2_.exit.i.i.i.i.i.i.i.i: ; preds = %if.then.i.i.i.i.i.i.i.i.i, %for.body.i.i.i.i.i.i.i.i
  %incdec.ptr.i.i.i.i.i.i.i.i = getelementptr inbounds %"class.cvc5::internal::NodeTemplate.665", ptr %__first.addr.07.i.i.i.i.i.i.i.i, i64 1
  %incdec.ptr1.i.i.i.i.i.i.i.i = getelementptr inbounds %"class.cvc5::internal::NodeTemplate.665", ptr %__result.addr.08.i.i.i.i.i.i.i.i, i64 1
  %dec.i.i.i.i.i.i.i.i = add nsw i64 %__n.09.i.i.i.i.i.i.i.i, -1
  %cmp.i.i.i.i.i.i.i.i = icmp sgt i64 %__n.09.i.i.i.i.i.i.i.i, 1
  br i1 %cmp.i.i.i.i.i.i.i.i, label %for.body.i.i.i.i.i.i.i.i, label %if.end.loopexit.i.i.i, !llvm.loop !10

if.end.loopexit.i.i.i:                            ; preds = %_ZN4cvc58internal12NodeTemplateILb0EEaSERKS2_.exit.i.i.i.i.i.i.i.i
  %.pre.i.i.i = load ptr, ptr %_M_finish.i.i, align 8
  %.pre9.i.i.i = ptrtoint ptr %.pre.i.i.i to i64
  br label %if.end.i.i.i

if.end.i.i.i:                                     ; preds = %if.end.loopexit.i.i.i, %if.then6.i.i.i, %if.then.i.i.i
  %sub.ptr.lhs.cast.i.pre-phi.i.i.i = phi i64 [ %.pre9.i.i.i, %if.end.loopexit.i.i.i ], [ %sub.ptr.lhs.cast.i1.i.i, %if.then6.i.i.i ], [ %sub.ptr.lhs.cast.i1.i.i, %if.then.i.i.i ]
  %sub.ptr.rhs.cast.i.pre-phi.i.i.i = phi i64 [ %sub.ptr.rhs.cast.i.i.i.i.i.i.i.i, %if.end.loopexit.i.i.i ], [ %sub.ptr.rhs.cast.i.i.i.i.i.i.i.i, %if.then6.i.i.i ], [ %sub.ptr.lhs.cast.i1.i.i, %if.then.i.i.i ]
  %6 = phi ptr [ %.pre.i.i.i, %if.end.loopexit.i.i.i ], [ %3, %if.then6.i.i.i ], [ %3, %if.then.i.i.i ]
  %sub.ptr.sub.i.i.i.i = sub i64 %sub.ptr.lhs.cast.i.pre-phi.i.i.i, %sub.ptr.rhs.cast.i.pre-phi.i.i.i
  %add.ptr.i6.i.i = getelementptr inbounds i8, ptr %2, i64 %sub.ptr.sub.i.i.i.i
  %tobool.not.i.i.i.i = icmp eq ptr %6, %add.ptr.i6.i.i
  br i1 %tobool.not.i.i.i.i, label %if.end, label %invoke.cont.i.i.i.i

invoke.cont.i.i.i.i:                              ; preds = %if.end.i.i.i
  store ptr %add.ptr.i6.i.i, ptr %_M_finish.i.i, align 8
  br label %if.end

if.end:                                           ; preds = %invoke.cont.i.i.i.i, %if.end.i.i.i, %if.end.i, %invoke.cont
  %d_list = getelementptr inbounds %"class.cvc5::context::CDList", ptr %this, i64 0, i32 1
  %7 = load ptr, ptr %d_list, align 8
  %tobool.not.i.i.i = icmp eq ptr %7, null
  br i1 %tobool.not.i.i.i, label %_ZNSt6vectorIN4cvc58internal12NodeTemplateILb0EEESaIS3_EED2Ev.exit, label %if.then.i.i.i1

if.then.i.i.i1:                                   ; preds = %if.end
  tail call void @_ZdlPv(ptr noundef nonnull %7) #25
  br label %_ZNSt6vectorIN4cvc58internal12NodeTemplateILb0EEESaIS3_EED2Ev.exit

_ZNSt6vectorIN4cvc58internal12NodeTemplateILb0EEESaIS3_EED2Ev.exit: ; preds = %if.end, %if.then.i.i.i1
  ret void

terminate.lpad:                                   ; preds = %entry
  %8 = landingpad { ptr, i32 }
          catch ptr null
  %9 = extractvalue { ptr, i32 } %8, 0
  tail call void @__clang_call_terminate(ptr %9) #24
  unreachable
}

; Function Attrs: nounwind
declare void @_ZN4cvc58internal6theory6TheoryD2Ev(ptr noundef nonnull align 8 dereferenceable(408)) unnamed_addr #1

; Function Attrs: mustprogress nounwind uwtable
define hidden void @_ZN4cvc58internal6theory2uf8TheoryUFD2Ev(ptr noundef nonnull align 8 dereferenceable(1736) %this) unnamed_addr #7 align 2 personality ptr @__gxx_personality_v0 {
entry:
  store ptr getelementptr inbounds ({ [36 x ptr] }, ptr @_ZTVN4cvc58internal6theory2uf8TheoryUFE, i64 0, inrange i32 0, i64 2), ptr %this, align 8
  %d_isHoType = getelementptr inbounds %"class.cvc5::internal::theory::uf::TheoryUF", ptr %this, i64 0, i32 13
  %_M_parent.i.i.i.i = getelementptr inbounds %"class.cvc5::internal::theory::uf::TheoryUF", ptr %this, i64 0, i32 13, i32 0, i32 0, i32 1, i32 0, i32 1
  %0 = load ptr, ptr %_M_parent.i.i.i.i, align 8
  invoke void @_ZNSt8_Rb_treeIN4cvc58internal8TypeNodeESt4pairIKS2_bESt10_Select1stIS5_ESt4lessIS2_ESaIS5_EE8_M_eraseEPSt13_Rb_tree_nodeIS5_E(ptr noundef nonnull align 8 dereferenceable(48) %d_isHoType, ptr noundef %0)
          to label %_ZNSt3mapIN4cvc58internal8TypeNodeEbSt4lessIS2_ESaISt4pairIKS2_bEEED2Ev.exit unwind label %terminate.lpad.i.i

terminate.lpad.i.i:                               ; preds = %entry
  %1 = landingpad { ptr, i32 }
          catch ptr null
  %2 = extractvalue { ptr, i32 } %1, 0
  tail call void @__clang_call_terminate(ptr %2) #24
  unreachable

_ZNSt3mapIN4cvc58internal8TypeNodeEbSt4lessIS2_ESaISt4pairIKS2_bEEED2Ev.exit: ; preds = %entry
  %d_im = getelementptr inbounds %"class.cvc5::internal::theory::uf::TheoryUF", ptr %this, i64 0, i32 11
  tail call void @_ZN4cvc58internal6theory22TheoryInferenceManagerD1Ev(ptr noundef nonnull align 8 dereferenceable(256) %d_im) #22
  %d_state = getelementptr inbounds %"class.cvc5::internal::theory::uf::TheoryUF", ptr %this, i64 0, i32 10
  store ptr getelementptr inbounds ({ [14 x ptr] }, ptr @_ZTVN4cvc58internal6theory11TheoryStateE, i64 0, inrange i32 0, i64 2), ptr %d_state, align 8
  %d_conflict.i = getelementptr inbounds %"class.cvc5::internal::theory::uf::TheoryUF", ptr %this, i64 0, i32 10, i32 3
  store ptr getelementptr inbounds ({ [6 x ptr] }, ptr @_ZTVN4cvc57context3CDOIbEE, i64 0, inrange i32 0, i64 2), ptr %d_conflict.i, align 8
  invoke void @_ZN4cvc57context10ContextObj7destroyEv(ptr noundef nonnull align 8 dereferenceable(40) %d_conflict.i)
          to label %_ZN4cvc58internal6theory11TheoryStateD2Ev.exit unwind label %terminate.lpad.i.i1

terminate.lpad.i.i1:                              ; preds = %_ZNSt3mapIN4cvc58internal8TypeNodeEbSt4lessIS2_ESaISt4pairIKS2_bEEED2Ev.exit
  %3 = landingpad { ptr, i32 }
          catch ptr null
  %4 = extractvalue { ptr, i32 } %3, 0
  tail call void @__clang_call_terminate(ptr %4) #24
  unreachable

_ZN4cvc58internal6theory11TheoryStateD2Ev.exit:   ; preds = %_ZNSt3mapIN4cvc58internal8TypeNodeEbSt4lessIS2_ESaISt4pairIKS2_bEEED2Ev.exit
  %d_symb = getelementptr inbounds %"class.cvc5::internal::theory::uf::TheoryUF", ptr %this, i64 0, i32 7
  tail call void @_ZN4cvc58internal6theory2uf15SymmetryBreakerD2Ev(ptr noundef nonnull align 8 dereferenceable(768) %d_symb) #22
  %d_functionsTerms = getelementptr inbounds %"class.cvc5::internal::theory::uf::TheoryUF", ptr %this, i64 0, i32 6
  tail call void @_ZN4cvc57context6CDListINS_8internal12NodeTemplateILb0EEENS0_14DefaultCleanUpIS4_EESaIS4_EED2Ev(ptr noundef nonnull align 8 dereferenceable(74) %d_functionsTerms) #22
  %d_true = getelementptr inbounds %"class.cvc5::internal::theory::uf::TheoryUF", ptr %this, i64 0, i32 5
  %5 = load ptr, ptr %d_true, align 8
  %bf.load.i.i = load i64, ptr %5, align 8
  %6 = and i64 %bf.load.i.i, 1152920405095219200
  %cmp.not.i.i = icmp eq i64 %6, 1152920405095219200
  br i1 %cmp.not.i.i, label %_ZN4cvc58internal12NodeTemplateILb1EED2Ev.exit, label %if.then.i.i

if.then.i.i:                                      ; preds = %_ZN4cvc58internal6theory11TheoryStateD2Ev.exit
  %bf.value.i.i = add i64 %bf.load.i.i, 1152920405095219200
  %bf.shl.i.i = and i64 %bf.value.i.i, 1152920405095219200
  %bf.clear7.i.i = and i64 %bf.load.i.i, -1152920405095219201
  %bf.set.i.i = or disjoint i64 %bf.shl.i.i, %bf.clear7.i.i
  store i64 %bf.set.i.i, ptr %5, align 8
  %cmp12.i.i = icmp eq i64 %bf.shl.i.i, 0
  br i1 %cmp12.i.i, label %if.then13.i.i, label %_ZN4cvc58internal12NodeTemplateILb1EED2Ev.exit

if.then13.i.i:                                    ; preds = %if.then.i.i
  invoke void @_ZN4cvc58internal4expr9NodeValue15markForDeletionEv(ptr noundef nonnull align 8 dereferenceable(16) %5)
          to label %_ZN4cvc58internal12NodeTemplateILb1EED2Ev.exit unwind label %terminate.lpad.i

terminate.lpad.i:                                 ; preds = %if.then13.i.i
  %7 = landingpad { ptr, i32 }
          catch ptr null
  %8 = extractvalue { ptr, i32 } %7, 0
  tail call void @__clang_call_terminate(ptr %8) #24
  unreachable

_ZN4cvc58internal12NodeTemplateILb1EED2Ev.exit:   ; preds = %_ZN4cvc58internal6theory11TheoryStateD2Ev.exit, %if.then.i.i, %if.then13.i.i
  %d_csolver = getelementptr inbounds %"class.cvc5::internal::theory::uf::TheoryUF", ptr %this, i64 0, i32 4
  %9 = load ptr, ptr %d_csolver, align 8
  %cmp.not.i = icmp eq ptr %9, null
  br i1 %cmp.not.i, label %_ZNSt10unique_ptrIN4cvc58internal6theory2uf17ConversionsSolverESt14default_deleteIS4_EED2Ev.exit, label %_ZNKSt14default_deleteIN4cvc58internal6theory2uf17ConversionsSolverEEclEPS4_.exit.i

_ZNKSt14default_deleteIN4cvc58internal6theory2uf17ConversionsSolverEEclEPS4_.exit.i: ; preds = %_ZN4cvc58internal12NodeTemplateILb1EED2Ev.exit
  %vtable.i.i = load ptr, ptr %9, align 8
  %vfn.i.i = getelementptr inbounds ptr, ptr %vtable.i.i, i64 1
  %10 = load ptr, ptr %vfn.i.i, align 8
  tail call void %10(ptr noundef nonnull align 8 dereferenceable(168) %9) #22
  br label %_ZNSt10unique_ptrIN4cvc58internal6theory2uf17ConversionsSolverESt14default_deleteIS4_EED2Ev.exit

_ZNSt10unique_ptrIN4cvc58internal6theory2uf17ConversionsSolverESt14default_deleteIS4_EED2Ev.exit: ; preds = %_ZN4cvc58internal12NodeTemplateILb1EED2Ev.exit, %_ZNKSt14default_deleteIN4cvc58internal6theory2uf17ConversionsSolverEEclEPS4_.exit.i
  store ptr null, ptr %d_csolver, align 8
  %d_ho = getelementptr inbounds %"class.cvc5::internal::theory::uf::TheoryUF", ptr %this, i64 0, i32 3
  %11 = load ptr, ptr %d_ho, align 8
  %cmp.not.i2 = icmp eq ptr %11, null
  br i1 %cmp.not.i2, label %_ZNSt10unique_ptrIN4cvc58internal6theory2uf11HoExtensionESt14default_deleteIS4_EED2Ev.exit, label %_ZNKSt14default_deleteIN4cvc58internal6theory2uf11HoExtensionEEclEPS4_.exit.i

_ZNKSt14default_deleteIN4cvc58internal6theory2uf11HoExtensionEEclEPS4_.exit.i: ; preds = %_ZNSt10unique_ptrIN4cvc58internal6theory2uf17ConversionsSolverESt14default_deleteIS4_EED2Ev.exit
  %vtable.i.i3 = load ptr, ptr %11, align 8
  %vfn.i.i4 = getelementptr inbounds ptr, ptr %vtable.i.i3, i64 1
  %12 = load ptr, ptr %vfn.i.i4, align 8
  tail call void %12(ptr noundef nonnull align 8 dereferenceable(376) %11) #22
  br label %_ZNSt10unique_ptrIN4cvc58internal6theory2uf11HoExtensionESt14default_deleteIS4_EED2Ev.exit

_ZNSt10unique_ptrIN4cvc58internal6theory2uf11HoExtensionESt14default_deleteIS4_EED2Ev.exit: ; preds = %_ZNSt10unique_ptrIN4cvc58internal6theory2uf17ConversionsSolverESt14default_deleteIS4_EED2Ev.exit, %_ZNKSt14default_deleteIN4cvc58internal6theory2uf11HoExtensionEEclEPS4_.exit.i
  store ptr null, ptr %d_ho, align 8
  %d_lambdaLift = getelementptr inbounds %"class.cvc5::internal::theory::uf::TheoryUF", ptr %this, i64 0, i32 2
  %13 = load ptr, ptr %d_lambdaLift, align 8
  %cmp.not.i5 = icmp eq ptr %13, null
  br i1 %cmp.not.i5, label %_ZNSt10unique_ptrIN4cvc58internal6theory2uf10LambdaLiftESt14default_deleteIS4_EED2Ev.exit, label %_ZNKSt14default_deleteIN4cvc58internal6theory2uf10LambdaLiftEEclEPS4_.exit.i

_ZNKSt14default_deleteIN4cvc58internal6theory2uf10LambdaLiftEEclEPS4_.exit.i: ; preds = %_ZNSt10unique_ptrIN4cvc58internal6theory2uf11HoExtensionESt14default_deleteIS4_EED2Ev.exit
  %vtable.i.i6 = load ptr, ptr %13, align 8
  %vfn.i.i7 = getelementptr inbounds ptr, ptr %vtable.i.i6, i64 1
  %14 = load ptr, ptr %vfn.i.i7, align 8
  tail call void %14(ptr noundef nonnull align 8 dereferenceable(192) %13) #22
  br label %_ZNSt10unique_ptrIN4cvc58internal6theory2uf10LambdaLiftESt14default_deleteIS4_EED2Ev.exit

_ZNSt10unique_ptrIN4cvc58internal6theory2uf10LambdaLiftESt14default_deleteIS4_EED2Ev.exit: ; preds = %_ZNSt10unique_ptrIN4cvc58internal6theory2uf11HoExtensionESt14default_deleteIS4_EED2Ev.exit, %_ZNKSt14default_deleteIN4cvc58internal6theory2uf10LambdaLiftEEclEPS4_.exit.i
  store ptr null, ptr %d_lambdaLift, align 8
  %d_thss = getelementptr inbounds %"class.cvc5::internal::theory::uf::TheoryUF", ptr %this, i64 0, i32 1
  %15 = load ptr, ptr %d_thss, align 8
  %cmp.not.i8 = icmp eq ptr %15, null
  br i1 %cmp.not.i8, label %_ZNSt10unique_ptrIN4cvc58internal6theory2uf20CardinalityExtensionESt14default_deleteIS4_EED2Ev.exit, label %_ZNKSt14default_deleteIN4cvc58internal6theory2uf20CardinalityExtensionEEclEPS4_.exit.i

_ZNKSt14default_deleteIN4cvc58internal6theory2uf20CardinalityExtensionEEclEPS4_.exit.i: ; preds = %_ZNSt10unique_ptrIN4cvc58internal6theory2uf10LambdaLiftESt14default_deleteIS4_EED2Ev.exit
  %vtable.i.i9 = load ptr, ptr %15, align 8
  %vfn.i.i10 = getelementptr inbounds ptr, ptr %vtable.i.i9, i64 1
  %16 = load ptr, ptr %vfn.i.i10, align 8
  tail call void %16(ptr noundef nonnull align 8 dereferenceable(648) %15) #22
  br label %_ZNSt10unique_ptrIN4cvc58internal6theory2uf20CardinalityExtensionESt14default_deleteIS4_EED2Ev.exit

_ZNSt10unique_ptrIN4cvc58internal6theory2uf20CardinalityExtensionESt14default_deleteIS4_EED2Ev.exit: ; preds = %_ZNSt10unique_ptrIN4cvc58internal6theory2uf10LambdaLiftESt14default_deleteIS4_EED2Ev.exit, %_ZNKSt14default_deleteIN4cvc58internal6theory2uf20CardinalityExtensionEEclEPS4_.exit.i
  store ptr null, ptr %d_thss, align 8
  tail call void @_ZN4cvc58internal6theory6TheoryD2Ev(ptr noundef nonnull align 8 dereferenceable(408) %this) #22
  ret void
}

; Function Attrs: mustprogress nounwind uwtable
define hidden void @_ZN4cvc58internal6theory2uf8TheoryUFD0Ev(ptr noundef nonnull align 8 dereferenceable(1736) %this) unnamed_addr #7 align 2 {
entry:
  tail call void @_ZN4cvc58internal6theory2uf8TheoryUFD2Ev(ptr noundef nonnull align 8 dereferenceable(1736) %this) #22
  tail call void @_ZdlPv(ptr noundef nonnull %this) #25
  ret void
}

; Function Attrs: mustprogress nofree norecurse nosync nounwind willreturn memory(none) uwtable
define hidden noundef nonnull ptr @_ZN4cvc58internal6theory2uf8TheoryUF17getTheoryRewriterEv(ptr noundef nonnull readnone align 8 dereferenceable(1736) %this) unnamed_addr #8 align 2 {
entry:
  %d_rewriter = getelementptr inbounds %"class.cvc5::internal::theory::uf::TheoryUF", ptr %this, i64 0, i32 8
  ret ptr %d_rewriter
}

; Function Attrs: mustprogress nofree norecurse nosync nounwind willreturn memory(none) uwtable
define hidden noundef nonnull ptr @_ZN4cvc58internal6theory2uf8TheoryUF15getProofCheckerEv(ptr noundef nonnull readnone align 8 dereferenceable(1736) %this) unnamed_addr #8 align 2 {
entry:
  %d_checker = getelementptr inbounds %"class.cvc5::internal::theory::uf::TheoryUF", ptr %this, i64 0, i32 9
  ret ptr %d_checker
}

; Function Attrs: mustprogress uwtable
define hidden noundef zeroext i1 @_ZN4cvc58internal6theory2uf8TheoryUF19needsEqualityEngineERNS1_11EeSetupInfoE(ptr noundef nonnull align 8 dereferenceable(1736) %this, ptr noundef nonnull align 8 dereferenceable(45) %esi) unnamed_addr #3 align 2 personality ptr @__gxx_personality_v0 {
entry:
  %ref.tmp = alloca %"class.std::__cxx11::basic_string", align 8
  %d_notify = getelementptr inbounds %"class.cvc5::internal::theory::uf::TheoryUF", ptr %this, i64 0, i32 12
  store ptr %d_notify, ptr %esi, align 8
  %d_instanceName = getelementptr inbounds %"class.cvc5::internal::theory::Theory", ptr %this, i64 0, i32 1
  call void @_ZNSt7__cxx1112basic_stringIcSt11char_traitsIcESaIcEEC1ERKS4_(ptr noundef nonnull align 8 dereferenceable(32) %ref.tmp, ptr noundef nonnull align 8 dereferenceable(32) %d_instanceName)
  %call.i = invoke noundef nonnull align 8 dereferenceable(32) ptr @_ZNSt7__cxx1112basic_stringIcSt11char_traitsIcESaIcEE6appendEPKc(ptr noundef nonnull align 8 dereferenceable(32) %ref.tmp, ptr noundef nonnull @.str.1)
          to label %_ZStplIcSt11char_traitsIcESaIcEENSt7__cxx1112basic_stringIT_T0_T1_EERKS8_PKS5_.exit unwind label %lpad.i

lpad.i:                                           ; preds = %entry
  %0 = landingpad { ptr, i32 }
          cleanup
  call void @_ZNSt7__cxx1112basic_stringIcSt11char_traitsIcESaIcEED1Ev(ptr noundef nonnull align 8 dereferenceable(32) %ref.tmp) #22
  resume { ptr, i32 } %0

_ZStplIcSt11char_traitsIcESaIcEENSt7__cxx1112basic_stringIT_T0_T1_EERKS8_PKS5_.exit: ; preds = %entry
  %d_name = getelementptr inbounds %"struct.cvc5::internal::theory::EeSetupInfo", ptr %esi, i64 0, i32 1
  %call = call noundef nonnull align 8 dereferenceable(32) ptr @_ZNSt7__cxx1112basic_stringIcSt11char_traitsIcESaIcEEaSEOS4_(ptr noundef nonnull align 8 dereferenceable(32) %d_name, ptr noundef nonnull align 8 dereferenceable(32) %ref.tmp) #22
  call void @_ZNSt7__cxx1112basic_stringIcSt11char_traitsIcESaIcEED1Ev(ptr noundef nonnull align 8 dereferenceable(32) %ref.tmp) #22
  %call3 = call noundef nonnull align 8 dereferenceable(392) ptr @_ZNK4cvc58internal6EnvObj7optionsEv(ptr noundef nonnull align 8 dereferenceable(16) %this)
  %quantifiers = getelementptr inbounds %"class.cvc5::internal::Options", ptr %call3, i64 0, i32 41
  %1 = load ptr, ptr %quantifiers, align 8
  %finiteModelFind = getelementptr inbounds %"struct.cvc5::internal::options::HolderQUANTIFIERS", ptr %1, i64 0, i32 97
  %2 = load i8, ptr %finiteModelFind, align 1
  %3 = and i8 %2, 1
  %tobool.not = icmp eq i8 %3, 0
  br i1 %tobool.not, label %if.end, label %land.lhs.true

land.lhs.true:                                    ; preds = %_ZStplIcSt11char_traitsIcESaIcEENSt7__cxx1112basic_stringIT_T0_T1_EERKS8_PKS5_.exit
  %call4 = call noundef nonnull align 8 dereferenceable(392) ptr @_ZNK4cvc58internal6EnvObj7optionsEv(ptr noundef nonnull align 8 dereferenceable(16) %this)
  %uf = getelementptr inbounds %"class.cvc5::internal::Options", ptr %call4, i64 0, i32 47
  %4 = load ptr, ptr %uf, align 8
  %ufssMode = getelementptr inbounds %"struct.cvc5::internal::options::HolderUF", ptr %4, i64 0, i32 8
  %5 = load i32, ptr %ufssMode, align 8
  %cmp.not = icmp eq i32 %5, 2
  br i1 %cmp.not, label %if.end, label %if.then

if.then:                                          ; preds = %land.lhs.true
  %d_notifyNewClass = getelementptr inbounds %"struct.cvc5::internal::theory::EeSetupInfo", ptr %esi, i64 0, i32 3
  store i8 1, ptr %d_notifyNewClass, align 1
  %d_notifyMerge = getelementptr inbounds %"struct.cvc5::internal::theory::EeSetupInfo", ptr %esi, i64 0, i32 4
  store i8 1, ptr %d_notifyMerge, align 2
  %d_notifyDisequal = getelementptr inbounds %"struct.cvc5::internal::theory::EeSetupInfo", ptr %esi, i64 0, i32 5
  store i8 1, ptr %d_notifyDisequal, align 1
  br label %if.end

if.end:                                           ; preds = %if.then, %land.lhs.true, %_ZStplIcSt11char_traitsIcESaIcEENSt7__cxx1112basic_stringIT_T0_T1_EERKS8_PKS5_.exit
  ret i1 true
}

; Function Attrs: nounwind
declare noundef nonnull align 8 dereferenceable(32) ptr @_ZNSt7__cxx1112basic_stringIcSt11char_traitsIcESaIcEEaSEOS4_(ptr noundef nonnull align 8 dereferenceable(32), ptr noundef nonnull align 8 dereferenceable(32)) local_unnamed_addr #1

declare noundef nonnull align 8 dereferenceable(392) ptr @_ZNK4cvc58internal6EnvObj7optionsEv(ptr noundef nonnull align 8 dereferenceable(16)) local_unnamed_addr #0

; Function Attrs: mustprogress uwtable
define hidden void @_ZN4cvc58internal6theory2uf8TheoryUF10finishInitEv(ptr noundef nonnull align 8 dereferenceable(1736) %this) unnamed_addr #3 align 2 personality ptr @__gxx_personality_v0 {
entry:
  %d_valuation = getelementptr inbounds %"class.cvc5::internal::theory::Theory", ptr %this, i64 0, i32 6
  tail call void @_ZN4cvc58internal6theory9Valuation18setUnevaluatedKindENS0_4kind6Kind_tE(ptr noundef nonnull align 8 dereferenceable(8) %d_valuation, i32 noundef 31)
  %call = tail call noundef nonnull align 8 dereferenceable(392) ptr @_ZNK4cvc58internal6EnvObj7optionsEv(ptr noundef nonnull align 8 dereferenceable(16) %this)
  %quantifiers = getelementptr inbounds %"class.cvc5::internal::Options", ptr %call, i64 0, i32 41
  %0 = load ptr, ptr %quantifiers, align 8
  %finiteModelFind = getelementptr inbounds %"struct.cvc5::internal::options::HolderQUANTIFIERS", ptr %0, i64 0, i32 97
  %1 = load i8, ptr %finiteModelFind, align 1
  %2 = and i8 %1, 1
  %tobool.not = icmp eq i8 %2, 0
  br i1 %tobool.not, label %if.end, label %land.lhs.true

land.lhs.true:                                    ; preds = %entry
  %call2 = tail call noundef nonnull align 8 dereferenceable(392) ptr @_ZNK4cvc58internal6EnvObj7optionsEv(ptr noundef nonnull align 8 dereferenceable(16) %this)
  %uf = getelementptr inbounds %"class.cvc5::internal::Options", ptr %call2, i64 0, i32 47
  %3 = load ptr, ptr %uf, align 8
  %ufssMode = getelementptr inbounds %"struct.cvc5::internal::options::HolderUF", ptr %3, i64 0, i32 8
  %4 = load i32, ptr %ufssMode, align 8
  %cmp.not = icmp eq i32 %4, 2
  br i1 %cmp.not, label %if.end, label %if.then

if.then:                                          ; preds = %land.lhs.true
  %call3 = tail call noalias noundef nonnull dereferenceable(648) ptr @_Znwm(i64 noundef 648) #23
  %d_env = getelementptr inbounds %"class.cvc5::internal::EnvObj", ptr %this, i64 0, i32 1
  %5 = load ptr, ptr %d_env, align 8
  %d_state = getelementptr inbounds %"class.cvc5::internal::theory::uf::TheoryUF", ptr %this, i64 0, i32 10
  %d_im = getelementptr inbounds %"class.cvc5::internal::theory::uf::TheoryUF", ptr %this, i64 0, i32 11
  invoke void @_ZN4cvc58internal6theory2uf20CardinalityExtensionC1ERNS0_3EnvERNS1_11TheoryStateERNS1_22TheoryInferenceManagerEPNS2_8TheoryUFE(ptr noundef nonnull align 8 dereferenceable(648) %call3, ptr noundef nonnull align 8 dereferenceable(576) %5, ptr noundef nonnull align 8 dereferenceable(80) %d_state, ptr noundef nonnull align 8 dereferenceable(256) %d_im, ptr noundef nonnull %this)
          to label %invoke.cont unwind label %lpad

invoke.cont:                                      ; preds = %if.then
  %d_thss = getelementptr inbounds %"class.cvc5::internal::theory::uf::TheoryUF", ptr %this, i64 0, i32 1
  %6 = load ptr, ptr %d_thss, align 8
  store ptr %call3, ptr %d_thss, align 8
  %tobool.not.i.i = icmp eq ptr %6, null
  br i1 %tobool.not.i.i, label %if.end, label %_ZNKSt14default_deleteIN4cvc58internal6theory2uf20CardinalityExtensionEEclEPS4_.exit.i.i

_ZNKSt14default_deleteIN4cvc58internal6theory2uf20CardinalityExtensionEEclEPS4_.exit.i.i: ; preds = %invoke.cont
  %vtable.i.i.i = load ptr, ptr %6, align 8
  %vfn.i.i.i = getelementptr inbounds ptr, ptr %vtable.i.i.i, i64 1
  %7 = load ptr, ptr %vfn.i.i.i, align 8
  tail call void %7(ptr noundef nonnull align 8 dereferenceable(648) %6) #22
  br label %if.end

lpad:                                             ; preds = %if.then
  %8 = landingpad { ptr, i32 }
          cleanup
  br label %eh.resume

if.end:                                           ; preds = %_ZNKSt14default_deleteIN4cvc58internal6theory2uf20CardinalityExtensionEEclEPS4_.exit.i.i, %invoke.cont, %land.lhs.true, %entry
  %call4 = tail call noundef nonnull align 8 dereferenceable(88) ptr @_ZNK4cvc58internal6EnvObj9logicInfoEv(ptr noundef nonnull align 8 dereferenceable(16) %this)
  %call5 = tail call noundef zeroext i1 @_ZNK4cvc58internal9LogicInfo13isHigherOrderEv(ptr noundef nonnull align 8 dereferenceable(88) %call4)
  %d_equalityEngine = getelementptr inbounds %"class.cvc5::internal::theory::Theory", ptr %this, i64 0, i32 7
  %9 = load ptr, ptr %d_equalityEngine, align 8
  tail call void @_ZN4cvc58internal6theory2eq14EqualityEngine15addFunctionKindENS0_4kind6Kind_tEbb(ptr noundef nonnull align 8 dereferenceable(1784) %9, i32 noundef 24, i1 noundef zeroext false, i1 noundef zeroext %call5)
  br i1 %call5, label %if.then8, label %if.end17

if.then8:                                         ; preds = %if.end
  %10 = load ptr, ptr %d_equalityEngine, align 8
  tail call void @_ZN4cvc58internal6theory2eq14EqualityEngine15addFunctionKindENS0_4kind6Kind_tEbb(ptr noundef nonnull align 8 dereferenceable(1784) %10, i32 noundef 27, i1 noundef zeroext false, i1 noundef zeroext false)
  %call10 = tail call noalias noundef nonnull dereferenceable(376) ptr @_Znwm(i64 noundef 376) #23
  %d_env11 = getelementptr inbounds %"class.cvc5::internal::EnvObj", ptr %this, i64 0, i32 1
  %11 = load ptr, ptr %d_env11, align 8
  %d_state12 = getelementptr inbounds %"class.cvc5::internal::theory::uf::TheoryUF", ptr %this, i64 0, i32 10
  %d_im13 = getelementptr inbounds %"class.cvc5::internal::theory::uf::TheoryUF", ptr %this, i64 0, i32 11
  %d_lambdaLift = getelementptr inbounds %"class.cvc5::internal::theory::uf::TheoryUF", ptr %this, i64 0, i32 2
  %12 = load ptr, ptr %d_lambdaLift, align 8
  invoke void @_ZN4cvc58internal6theory2uf11HoExtensionC1ERNS0_3EnvERNS1_11TheoryStateERNS1_22TheoryInferenceManagerERNS2_10LambdaLiftE(ptr noundef nonnull align 8 dereferenceable(376) %call10, ptr noundef nonnull align 8 dereferenceable(576) %11, ptr noundef nonnull align 8 dereferenceable(80) %d_state12, ptr noundef nonnull align 8 dereferenceable(256) %d_im13, ptr noundef nonnull align 8 dereferenceable(192) %12)
          to label %invoke.cont16 unwind label %lpad15

invoke.cont16:                                    ; preds = %if.then8
  %d_ho = getelementptr inbounds %"class.cvc5::internal::theory::uf::TheoryUF", ptr %this, i64 0, i32 3
  %13 = load ptr, ptr %d_ho, align 8
  store ptr %call10, ptr %d_ho, align 8
  %tobool.not.i.i3 = icmp eq ptr %13, null
  br i1 %tobool.not.i.i3, label %if.end17, label %_ZNKSt14default_deleteIN4cvc58internal6theory2uf11HoExtensionEEclEPS4_.exit.i.i

_ZNKSt14default_deleteIN4cvc58internal6theory2uf11HoExtensionEEclEPS4_.exit.i.i: ; preds = %invoke.cont16
  %vtable.i.i.i4 = load ptr, ptr %13, align 8
  %vfn.i.i.i5 = getelementptr inbounds ptr, ptr %vtable.i.i.i4, i64 1
  %14 = load ptr, ptr %vfn.i.i.i5, align 8
  tail call void %14(ptr noundef nonnull align 8 dereferenceable(376) %13) #22
  br label %if.end17

lpad15:                                           ; preds = %if.then8
  %15 = landingpad { ptr, i32 }
          cleanup
  br label %eh.resume

if.end17:                                         ; preds = %_ZNKSt14default_deleteIN4cvc58internal6theory2uf11HoExtensionEEclEPS4_.exit.i.i, %invoke.cont16, %if.end
  %16 = load ptr, ptr %d_equalityEngine, align 8
  tail call void @_ZN4cvc58internal6theory2eq14EqualityEngine15addFunctionKindENS0_4kind6Kind_tEbb(ptr noundef nonnull align 8 dereferenceable(1784) %16, i32 noundef 35, i1 noundef zeroext true, i1 noundef zeroext false)
  %17 = load ptr, ptr %d_equalityEngine, align 8
  tail call void @_ZN4cvc58internal6theory2eq14EqualityEngine15addFunctionKindENS0_4kind6Kind_tEbb(ptr noundef nonnull align 8 dereferenceable(1784) %17, i32 noundef 33, i1 noundef zeroext true, i1 noundef zeroext false)
  ret void

eh.resume:                                        ; preds = %lpad15, %lpad
  %call10.sink = phi ptr [ %call10, %lpad15 ], [ %call3, %lpad ]
  %.pn = phi { ptr, i32 } [ %15, %lpad15 ], [ %8, %lpad ]
  tail call void @_ZdlPv(ptr noundef nonnull %call10.sink) #25
  resume { ptr, i32 } %.pn
}

declare void @_ZN4cvc58internal6theory9Valuation18setUnevaluatedKindENS0_4kind6Kind_tE(ptr noundef nonnull align 8 dereferenceable(8), i32 noundef) local_unnamed_addr #0

declare void @_ZN4cvc58internal6theory2uf20CardinalityExtensionC1ERNS0_3EnvERNS1_11TheoryStateERNS1_22TheoryInferenceManagerEPNS2_8TheoryUFE(ptr noundef nonnull align 8 dereferenceable(648), ptr noundef nonnull align 8 dereferenceable(576), ptr noundef nonnull align 8 dereferenceable(80), ptr noundef nonnull align 8 dereferenceable(256), ptr noundef) unnamed_addr #0

declare noundef nonnull align 8 dereferenceable(88) ptr @_ZNK4cvc58internal6EnvObj9logicInfoEv(ptr noundef nonnull align 8 dereferenceable(16)) local_unnamed_addr #0

declare noundef zeroext i1 @_ZNK4cvc58internal9LogicInfo13isHigherOrderEv(ptr noundef nonnull align 8 dereferenceable(88)) local_unnamed_addr #0

declare void @_ZN4cvc58internal6theory2eq14EqualityEngine15addFunctionKindENS0_4kind6Kind_tEbb(ptr noundef nonnull align 8 dereferenceable(1784), i32 noundef, i1 noundef zeroext, i1 noundef zeroext) local_unnamed_addr #0

declare void @_ZN4cvc58internal6theory2uf11HoExtensionC1ERNS0_3EnvERNS1_11TheoryStateERNS1_22TheoryInferenceManagerERNS2_10LambdaLiftE(ptr noundef nonnull align 8 dereferenceable(376), ptr noundef nonnull align 8 dereferenceable(576), ptr noundef nonnull align 8 dereferenceable(80), ptr noundef nonnull align 8 dereferenceable(256), ptr noundef nonnull align 8 dereferenceable(192)) unnamed_addr #0

; Function Attrs: mustprogress nofree norecurse nosync nounwind willreturn memory(argmem: read) uwtable
define hidden noundef zeroext i1 @_ZN4cvc58internal6theory2uf8TheoryUF20needsCheckLastEffortEv(ptr nocapture noundef nonnull readonly align 8 dereferenceable(1736) %this) unnamed_addr #9 align 2 {
entry:
  %d_thss = getelementptr inbounds %"class.cvc5::internal::theory::uf::TheoryUF", ptr %this, i64 0, i32 1
  %0 = load ptr, ptr %d_thss, align 8
  %cmp.i.i = icmp ne ptr %0, null
  %d_csolver = getelementptr inbounds %"class.cvc5::internal::theory::uf::TheoryUF", ptr %this, i64 0, i32 4
  %1 = load ptr, ptr %d_csolver, align 8
  %cmp.i.i1 = icmp ne ptr %1, null
  %2 = select i1 %cmp.i.i, i1 true, i1 %cmp.i.i1
  ret i1 %2
}

; Function Attrs: mustprogress uwtable
define hidden void @_ZN4cvc58internal6theory2uf8TheoryUF9postCheckENS1_6Theory6EffortE(ptr noundef nonnull align 8 dereferenceable(1736) %this, i32 noundef %level) unnamed_addr #3 align 2 {
entry:
  %d_state = getelementptr inbounds %"class.cvc5::internal::theory::uf::TheoryUF", ptr %this, i64 0, i32 10
  %call = tail call noundef zeroext i1 @_ZNK4cvc58internal6theory11TheoryState12isInConflictEv(ptr noundef nonnull align 8 dereferenceable(80) %d_state)
  br i1 %call, label %if.end23, label %if.end

if.end:                                           ; preds = %entry
  %d_thss = getelementptr inbounds %"class.cvc5::internal::theory::uf::TheoryUF", ptr %this, i64 0, i32 1
  %0 = load ptr, ptr %d_thss, align 8
  %cmp.i.i.not = icmp eq ptr %0, null
  br i1 %cmp.i.i.not, label %if.end6, label %if.then3

if.then3:                                         ; preds = %if.end
  tail call void @_ZN4cvc58internal6theory2uf20CardinalityExtension5checkENS1_6Theory6EffortE(ptr noundef nonnull align 8 dereferenceable(648) %0, i32 noundef %level)
  br label %if.end6

if.end6:                                          ; preds = %if.then3, %if.end
  %call8 = tail call noundef zeroext i1 @_ZNK4cvc58internal6theory11TheoryState12isInConflictEv(ptr noundef nonnull align 8 dereferenceable(80) %d_state)
  br i1 %call8, label %if.end23, label %if.then9

if.then9:                                         ; preds = %if.end6
  %d_csolver = getelementptr inbounds %"class.cvc5::internal::theory::uf::TheoryUF", ptr %this, i64 0, i32 4
  %1 = load ptr, ptr %d_csolver, align 8
  %cmp.i.i3 = icmp ne ptr %1, null
  %cmp = icmp eq i32 %level, 200
  %or.cond = and i1 %cmp, %cmp.i.i3
  br i1 %or.cond, label %if.end14.thread, label %if.end14

if.end14.thread:                                  ; preds = %if.then9
  tail call void @_ZN4cvc58internal6theory2uf17ConversionsSolver5checkEv(ptr noundef nonnull align 8 dereferenceable(168) %1)
  br label %if.end23

if.end14:                                         ; preds = %if.then9
  %cmp.i = icmp eq i32 %level, 100
  br i1 %cmp.i, label %land.lhs.true16, label %if.end23

land.lhs.true16:                                  ; preds = %if.end14
  %call17 = tail call noundef nonnull align 8 dereferenceable(88) ptr @_ZNK4cvc58internal6EnvObj9logicInfoEv(ptr noundef nonnull align 8 dereferenceable(16) %this)
  %call18 = tail call noundef zeroext i1 @_ZNK4cvc58internal9LogicInfo13isHigherOrderEv(ptr noundef nonnull align 8 dereferenceable(88) %call17)
  br i1 %call18, label %if.then19, label %if.end23

if.then19:                                        ; preds = %land.lhs.true16
  %d_ho = getelementptr inbounds %"class.cvc5::internal::theory::uf::TheoryUF", ptr %this, i64 0, i32 3
  %2 = load ptr, ptr %d_ho, align 8
  %call21 = tail call noundef i32 @_ZN4cvc58internal6theory2uf11HoExtension5checkEv(ptr noundef nonnull align 8 dereferenceable(376) %2)
  br label %if.end23

if.end23:                                         ; preds = %if.end14.thread, %if.end14, %land.lhs.true16, %if.then19, %entry, %if.end6
  ret void
}

declare noundef zeroext i1 @_ZNK4cvc58internal6theory11TheoryState12isInConflictEv(ptr noundef nonnull align 8 dereferenceable(80)) unnamed_addr #0

declare void @_ZN4cvc58internal6theory2uf20CardinalityExtension5checkENS1_6Theory6EffortE(ptr noundef nonnull align 8 dereferenceable(648), i32 noundef) local_unnamed_addr #0

declare void @_ZN4cvc58internal6theory2uf17ConversionsSolver5checkEv(ptr noundef nonnull align 8 dereferenceable(168)) local_unnamed_addr #0

declare noundef i32 @_ZN4cvc58internal6theory2uf11HoExtension5checkEv(ptr noundef nonnull align 8 dereferenceable(376)) local_unnamed_addr #0

; Function Attrs: mustprogress uwtable
define hidden void @_ZN4cvc58internal6theory2uf8TheoryUF10notifyFactENS0_12NodeTemplateILb0EEEbS5_b(ptr noundef nonnull align 8 dereferenceable(1736) %this, ptr nocapture noundef readonly %atom, i1 noundef zeroext %pol, ptr nocapture noundef readonly %fact, i1 zeroext %isInternal) unnamed_addr #3 align 2 personality ptr @__gxx_personality_v0 {
entry:
  %agg.tmp = alloca %"class.cvc5::internal::NodeTemplate.665", align 8
  %agg.tmp7 = alloca %"class.cvc5::internal::NodeTemplate", align 8
  %agg.tmp18 = alloca %"class.cvc5::internal::NodeTemplate", align 8
  %ref.tmp = alloca %"class.cvc5::internal::TypeNode", align 8
  %ref.tmp34 = alloca %"class.cvc5::internal::NodeTemplate.665", align 8
  %agg.tmp59 = alloca %"class.cvc5::internal::NodeTemplate.665", align 8
  %ss = alloca %"class.std::__cxx11::basic_stringstream", align 8
  %ref.tmp91 = alloca %"class.std::__cxx11::basic_string", align 8
  %d_state = getelementptr inbounds %"class.cvc5::internal::theory::uf::TheoryUF", ptr %this, i64 0, i32 10
  %call = tail call noundef zeroext i1 @_ZNK4cvc58internal6theory11TheoryState12isInConflictEv(ptr noundef nonnull align 8 dereferenceable(80) %d_state)
  br i1 %call, label %sw.epilog, label %if.end

if.end:                                           ; preds = %entry
  %d_thss = getelementptr inbounds %"class.cvc5::internal::theory::uf::TheoryUF", ptr %this, i64 0, i32 1
  %0 = load ptr, ptr %d_thss, align 8
  %cmp.i.i.not = icmp eq ptr %0, null
  br i1 %cmp.i.i.not, label %if.end22, label %if.then4

if.then4:                                         ; preds = %if.end
  %d_valuation = getelementptr inbounds %"class.cvc5::internal::theory::Theory", ptr %this, i64 0, i32 6
  %1 = load ptr, ptr %fact, align 8
  store ptr %1, ptr %agg.tmp, align 8
  %call5 = call noundef zeroext i1 @_ZNK4cvc58internal6theory9Valuation12isSatLiteralENS0_12NodeTemplateILb0EEE(ptr noundef nonnull align 8 dereferenceable(8) %d_valuation, ptr noundef nonnull %agg.tmp)
  br i1 %call5, label %land.rhs, label %cleanup.done

land.rhs:                                         ; preds = %if.then4
  %2 = load ptr, ptr %fact, align 8
  store ptr %2, ptr %agg.tmp7, align 8
  %bf.load.i.i = load i64, ptr %2, align 8
  %bf.lshr.i.i = lshr i64 %bf.load.i.i, 40
  %3 = trunc i64 %bf.lshr.i.i to i32
  %bf.cast.i.i = and i32 %3, 1048575
  %cmp.i.i8 = icmp ult i32 %bf.cast.i.i, 1048574
  br i1 %cmp.i.i8, label %if.then.i.i, label %if.else.i.i

if.then.i.i:                                      ; preds = %land.rhs
  %bf.value.i.i = add i64 %bf.load.i.i, 1099511627776
  %bf.shl.i.i = and i64 %bf.value.i.i, 1152920405095219200
  %bf.clear7.i.i = and i64 %bf.load.i.i, -1152920405095219201
  %bf.set.i.i = or disjoint i64 %bf.shl.i.i, %bf.clear7.i.i
  store i64 %bf.set.i.i, ptr %2, align 8
  br label %invoke.cont8

if.else.i.i:                                      ; preds = %land.rhs
  %cmp12.i.i = icmp eq i32 %bf.cast.i.i, 1048574
  br i1 %cmp12.i.i, label %if.then13.i.i, label %invoke.cont8

if.then13.i.i:                                    ; preds = %if.else.i.i
  %bf.set23.i.i = or i64 %bf.load.i.i, 1152920405095219200
  store i64 %bf.set23.i.i, ptr %2, align 8
  call void @_ZN4cvc58internal4expr9NodeValue20markRefCountMaxedOutEv(ptr noundef nonnull align 8 dereferenceable(16) %2)
  br label %invoke.cont8

invoke.cont8:                                     ; preds = %if.then13.i.i, %if.else.i.i, %if.then.i.i
  %call11 = invoke noundef zeroext i1 @_ZNK4cvc58internal6theory9Valuation10isDecisionENS0_12NodeTemplateILb1EEE(ptr noundef nonnull align 8 dereferenceable(8) %d_valuation, ptr noundef nonnull %agg.tmp7)
          to label %cleanup.action unwind label %lpad9

cleanup.action:                                   ; preds = %invoke.cont8
  %4 = load ptr, ptr %agg.tmp7, align 8
  %bf.load.i.i9 = load i64, ptr %4, align 8
  %5 = and i64 %bf.load.i.i9, 1152920405095219200
  %cmp.not.i.i = icmp eq i64 %5, 1152920405095219200
  br i1 %cmp.not.i.i, label %cleanup.done, label %if.then.i.i10

if.then.i.i10:                                    ; preds = %cleanup.action
  %bf.value.i.i11 = add i64 %bf.load.i.i9, 1152920405095219200
  %bf.shl.i.i12 = and i64 %bf.value.i.i11, 1152920405095219200
  %bf.clear7.i.i13 = and i64 %bf.load.i.i9, -1152920405095219201
  %bf.set.i.i14 = or disjoint i64 %bf.shl.i.i12, %bf.clear7.i.i13
  store i64 %bf.set.i.i14, ptr %4, align 8
  %cmp12.i.i15 = icmp eq i64 %bf.shl.i.i12, 0
  br i1 %cmp12.i.i15, label %if.then13.i.i16, label %cleanup.done

if.then13.i.i16:                                  ; preds = %if.then.i.i10
  invoke void @_ZN4cvc58internal4expr9NodeValue15markForDeletionEv(ptr noundef nonnull align 8 dereferenceable(16) %4)
          to label %cleanup.done unwind label %terminate.lpad.i

terminate.lpad.i:                                 ; preds = %if.then13.i.i16
  %6 = landingpad { ptr, i32 }
          catch ptr null
  %7 = extractvalue { ptr, i32 } %6, 0
  call void @__clang_call_terminate(ptr %7) #24
  unreachable

cleanup.done:                                     ; preds = %if.then13.i.i16, %if.then.i.i10, %cleanup.action, %if.then4
  %8 = phi i1 [ false, %if.then4 ], [ %call11, %cleanup.action ], [ %call11, %if.then.i.i10 ], [ %call11, %if.then13.i.i16 ]
  %9 = load ptr, ptr %d_thss, align 8
  %10 = load ptr, ptr %fact, align 8
  store ptr %10, ptr %agg.tmp18, align 8
  %bf.load.i.i17 = load i64, ptr %10, align 8
  %bf.lshr.i.i18 = lshr i64 %bf.load.i.i17, 40
  %11 = trunc i64 %bf.lshr.i.i18 to i32
  %bf.cast.i.i19 = and i32 %11, 1048575
  %cmp.i.i20 = icmp ult i32 %bf.cast.i.i19, 1048574
  br i1 %cmp.i.i20, label %if.then.i.i25, label %if.else.i.i21

if.then.i.i25:                                    ; preds = %cleanup.done
  %bf.value.i.i26 = add i64 %bf.load.i.i17, 1099511627776
  %bf.shl.i.i27 = and i64 %bf.value.i.i26, 1152920405095219200
  %bf.clear7.i.i28 = and i64 %bf.load.i.i17, -1152920405095219201
  %bf.set.i.i29 = or disjoint i64 %bf.shl.i.i27, %bf.clear7.i.i28
  store i64 %bf.set.i.i29, ptr %10, align 8
  br label %_ZN4cvc58internal12NodeTemplateILb1EEC2ERKNS1_ILb0EEE.exit30

if.else.i.i21:                                    ; preds = %cleanup.done
  %cmp12.i.i22 = icmp eq i32 %bf.cast.i.i19, 1048574
  br i1 %cmp12.i.i22, label %if.then13.i.i23, label %_ZN4cvc58internal12NodeTemplateILb1EEC2ERKNS1_ILb0EEE.exit30

if.then13.i.i23:                                  ; preds = %if.else.i.i21
  %bf.set23.i.i24 = or i64 %bf.load.i.i17, 1152920405095219200
  store i64 %bf.set23.i.i24, ptr %10, align 8
  call void @_ZN4cvc58internal4expr9NodeValue20markRefCountMaxedOutEv(ptr noundef nonnull align 8 dereferenceable(16) %10)
  br label %_ZN4cvc58internal12NodeTemplateILb1EEC2ERKNS1_ILb0EEE.exit30

_ZN4cvc58internal12NodeTemplateILb1EEC2ERKNS1_ILb0EEE.exit30: ; preds = %if.then.i.i25, %if.else.i.i21, %if.then13.i.i23
  invoke void @_ZN4cvc58internal6theory2uf20CardinalityExtension10assertNodeENS0_12NodeTemplateILb1EEEb(ptr noundef nonnull align 8 dereferenceable(648) %9, ptr noundef nonnull %agg.tmp18, i1 noundef zeroext %8)
          to label %invoke.cont20 unwind label %lpad19

invoke.cont20:                                    ; preds = %_ZN4cvc58internal12NodeTemplateILb1EEC2ERKNS1_ILb0EEE.exit30
  %12 = load ptr, ptr %agg.tmp18, align 8
  %bf.load.i.i31 = load i64, ptr %12, align 8
  %13 = and i64 %bf.load.i.i31, 1152920405095219200
  %cmp.not.i.i32 = icmp eq i64 %13, 1152920405095219200
  br i1 %cmp.not.i.i32, label %if.end22, label %if.then.i.i33

if.then.i.i33:                                    ; preds = %invoke.cont20
  %bf.value.i.i34 = add i64 %bf.load.i.i31, 1152920405095219200
  %bf.shl.i.i35 = and i64 %bf.value.i.i34, 1152920405095219200
  %bf.clear7.i.i36 = and i64 %bf.load.i.i31, -1152920405095219201
  %bf.set.i.i37 = or disjoint i64 %bf.shl.i.i35, %bf.clear7.i.i36
  store i64 %bf.set.i.i37, ptr %12, align 8
  %cmp12.i.i38 = icmp eq i64 %bf.shl.i.i35, 0
  br i1 %cmp12.i.i38, label %if.then13.i.i39, label %if.end22

if.then13.i.i39:                                  ; preds = %if.then.i.i33
  invoke void @_ZN4cvc58internal4expr9NodeValue15markForDeletionEv(ptr noundef nonnull align 8 dereferenceable(16) %12)
          to label %if.end22 unwind label %terminate.lpad.i40

terminate.lpad.i40:                               ; preds = %if.then13.i.i39
  %14 = landingpad { ptr, i32 }
          catch ptr null
  %15 = extractvalue { ptr, i32 } %14, 0
  call void @__clang_call_terminate(ptr %15) #24
  unreachable

lpad9:                                            ; preds = %invoke.cont8
  %16 = landingpad { ptr, i32 }
          cleanup
  call void @_ZN4cvc58internal12NodeTemplateILb1EED2Ev(ptr noundef nonnull align 8 dereferenceable(8) %agg.tmp7) #22
  br label %eh.resume

lpad19:                                           ; preds = %_ZN4cvc58internal12NodeTemplateILb1EEC2ERKNS1_ILb0EEE.exit30
  %17 = landingpad { ptr, i32 }
          cleanup
  call void @_ZN4cvc58internal12NodeTemplateILb1EED2Ev(ptr noundef nonnull align 8 dereferenceable(8) %agg.tmp18) #22
  br label %eh.resume

if.end22:                                         ; preds = %if.then13.i.i39, %if.then.i.i33, %invoke.cont20, %if.end
  %18 = load ptr, ptr %atom, align 8
  %d_kind.i = getelementptr inbounds %"class.cvc5::internal::expr::NodeValue", ptr %18, i64 0, i32 1
  %bf.load.i = load i16, ptr %d_kind.i, align 8
  %bf.clear.i = and i16 %bf.load.i, 1023
  %bf.cast.i = zext nneg i16 %bf.clear.i to i32
  switch i32 %bf.cast.i, label %sw.epilog [
    i32 5, label %sw.bb
    i32 29, label %sw.bb66
    i32 31, label %sw.bb66
  ]

sw.bb:                                            ; preds = %if.end22
  %call24 = call noundef nonnull align 8 dereferenceable(88) ptr @_ZNK4cvc58internal6EnvObj9logicInfoEv(ptr noundef nonnull align 8 dereferenceable(16) %this)
  %call25 = call noundef zeroext i1 @_ZNK4cvc58internal9LogicInfo13isHigherOrderEv(ptr noundef nonnull align 8 dereferenceable(88) %call24)
  br i1 %call25, label %land.lhs.true, label %sw.epilog

land.lhs.true:                                    ; preds = %sw.bb
  %call26 = call noundef nonnull align 8 dereferenceable(392) ptr @_ZNK4cvc58internal6EnvObj7optionsEv(ptr noundef nonnull align 8 dereferenceable(16) %this)
  %uf = getelementptr inbounds %"class.cvc5::internal::Options", ptr %call26, i64 0, i32 47
  %19 = load ptr, ptr %uf, align 8
  %ufHoExt = getelementptr inbounds %"struct.cvc5::internal::options::HolderUF", ptr %19, i64 0, i32 4
  %20 = load i8, ptr %ufHoExt, align 4
  %21 = and i8 %20, 1
  %tobool27.not = icmp eq i8 %21, 0
  %brmerge = or i1 %tobool27.not, %pol
  br i1 %brmerge, label %sw.epilog, label %land.lhs.true30

land.lhs.true30:                                  ; preds = %land.lhs.true
  %call32 = call noundef zeroext i1 @_ZNK4cvc58internal6theory11TheoryState12isInConflictEv(ptr noundef nonnull align 8 dereferenceable(80) %d_state)
  br i1 %call32, label %sw.epilog, label %land.rhs33

land.rhs33:                                       ; preds = %land.lhs.true30
  call void @llvm.experimental.noalias.scope.decl(metadata !11)
  %22 = load ptr, ptr %atom, align 8, !noalias !11
  %d_kind.i.i.i.i = getelementptr inbounds %"class.cvc5::internal::expr::NodeValue", ptr %22, i64 0, i32 1
  %bf.load.i.i.i.i = load i16, ptr %d_kind.i.i.i.i, align 8, !noalias !11
  %bf.clear.i.i.i.i = and i16 %bf.load.i.i.i.i, 1023
  %bf.cast.i.i.i.i = zext nneg i16 %bf.clear.i.i.i.i to i32
  %cmp.i.i.i.i.i = icmp eq i16 %bf.clear.i.i.i.i, 1023
  %cond.i.i.i.i.i = select i1 %cmp.i.i.i.i.i, i32 -1, i32 %bf.cast.i.i.i.i
  %call2.i.i.i = call noundef i32 @_ZN4cvc58internal4kind10metaKindOfENS1_6Kind_tE(i32 noundef %cond.i.i.i.i.i), !noalias !11
  %cmp.i.i42 = icmp eq i32 %call2.i.i.i, 2
  %idxprom.i.i = zext i1 %cmp.i.i42 to i64
  %arrayidx.i.i = getelementptr inbounds %"class.cvc5::internal::expr::NodeValue", ptr %22, i64 0, i32 3, i64 %idxprom.i.i
  %23 = load ptr, ptr %arrayidx.i.i, align 8, !noalias !11
  store ptr %23, ptr %ref.tmp34, align 8, !alias.scope !11
  call void @_ZNK4cvc58internal12NodeTemplateILb0EE7getTypeEb(ptr nonnull sret(%"class.cvc5::internal::TypeNode") align 8 %ref.tmp, ptr noundef nonnull align 8 dereferenceable(8) %ref.tmp34, i1 noundef zeroext false)
  %24 = load ptr, ptr %ref.tmp, align 8
  %d_kind.i.i = getelementptr inbounds %"class.cvc5::internal::expr::NodeValue", ptr %24, i64 0, i32 1
  %bf.load.i.i43 = load i16, ptr %d_kind.i.i, align 8
  %bf.clear.i.i = and i16 %bf.load.i.i43, 1023
  %cmp.i = icmp eq i16 %bf.clear.i.i, 25
  call void @_ZN4cvc58internal8TypeNodeD2Ev(ptr noundef nonnull align 8 dereferenceable(8) %ref.tmp) #22
  br i1 %cmp.i, label %if.then57, label %sw.epilog

if.then57:                                        ; preds = %land.rhs33
  %d_ho = getelementptr inbounds %"class.cvc5::internal::theory::uf::TheoryUF", ptr %this, i64 0, i32 3
  %25 = load ptr, ptr %d_ho, align 8
  %26 = load ptr, ptr %fact, align 8
  store ptr %26, ptr %agg.tmp59, align 8
  %call62 = call noundef i32 @_ZN4cvc58internal6theory2uf11HoExtension19applyExtensionalityENS0_12NodeTemplateILb0EEE(ptr noundef nonnull align 8 dereferenceable(376) %25, ptr noundef nonnull %agg.tmp59)
  br label %sw.epilog

sw.bb66:                                          ; preds = %if.end22, %if.end22
  %27 = load ptr, ptr %d_thss, align 8
  %cmp.i.not.i = icmp eq ptr %27, null
  br i1 %cmp.i.not.i, label %if.then69, label %sw.epilog

if.then69:                                        ; preds = %sw.bb66
  %call70 = call noundef nonnull align 8 dereferenceable(88) ptr @_ZNK4cvc58internal6EnvObj9logicInfoEv(ptr noundef nonnull align 8 dereferenceable(16) %this)
  %call71 = call noundef zeroext i1 @_ZNK4cvc58internal9LogicInfo25hasCardinalityConstraintsEv(ptr noundef nonnull align 8 dereferenceable(88) %call70)
  br i1 %call71, label %if.else, label %if.then72

if.then72:                                        ; preds = %if.then69
  call void @_ZNSt7__cxx1118basic_stringstreamIcSt11char_traitsIcESaIcEEC1Ev(ptr noundef nonnull align 8 dereferenceable(128) %ss)
  %add.ptr = getelementptr inbounds i8, ptr %ss, i64 16
  %call75 = invoke noundef nonnull align 8 dereferenceable(8) ptr @_ZStlsISt11char_traitsIcEERSt13basic_ostreamIcT_ES5_PKc(ptr noundef nonnull align 8 dereferenceable(8) %add.ptr, ptr noundef nonnull @.str.2)
          to label %invoke.cont74 unwind label %lpad73

invoke.cont74:                                    ; preds = %if.then72
  %28 = load ptr, ptr %atom, align 8
  invoke void @_ZNK4cvc58internal4expr9NodeValue8toStreamERSo(ptr noundef nonnull align 8 dereferenceable(16) %28, ptr noundef nonnull align 8 dereferenceable(8) %call75)
          to label %invoke.cont79 unwind label %lpad78

invoke.cont79:                                    ; preds = %invoke.cont74
  %call82 = invoke noundef nonnull align 8 dereferenceable(8) ptr @_ZStlsISt11char_traitsIcEERSt13basic_ostreamIcT_ES5_PKc(ptr noundef nonnull align 8 dereferenceable(8) %call75, ptr noundef nonnull @.str.3)
          to label %invoke.cont81 unwind label %lpad78

invoke.cont81:                                    ; preds = %invoke.cont79
  %call84 = invoke noundef nonnull align 8 dereferenceable(8) ptr @_ZNSolsEPFRSoS_E(ptr noundef nonnull align 8 dereferenceable(8) %call82, ptr noundef nonnull @_ZSt4endlIcSt11char_traitsIcEERSt13basic_ostreamIT_T0_ES6_)
          to label %invoke.cont83 unwind label %lpad78

invoke.cont83:                                    ; preds = %invoke.cont81
  %call88 = invoke noundef nonnull align 8 dereferenceable(8) ptr @_ZStlsISt11char_traitsIcEERSt13basic_ostreamIcT_ES5_PKc(ptr noundef nonnull align 8 dereferenceable(8) %add.ptr, ptr noundef nonnull @.str.4)
          to label %invoke.cont87 unwind label %lpad73

invoke.cont87:                                    ; preds = %invoke.cont83
  %call90 = invoke noundef nonnull align 8 dereferenceable(8) ptr @_ZNSolsEPFRSoS_E(ptr noundef nonnull align 8 dereferenceable(8) %call88, ptr noundef nonnull @_ZSt4endlIcSt11char_traitsIcEERSt13basic_ostreamIT_T0_ES6_)
          to label %invoke.cont89 unwind label %lpad73

invoke.cont89:                                    ; preds = %invoke.cont87
  %exception = call ptr @__cxa_allocate_exception(i64 40) #22
  invoke void @_ZNKSt7__cxx1118basic_stringstreamIcSt11char_traitsIcESaIcEE3strEv(ptr nonnull sret(%"class.std::__cxx11::basic_string") align 8 %ref.tmp91, ptr noundef nonnull align 8 dereferenceable(128) %ss)
          to label %invoke.cont93 unwind label %ehcleanup97.thread

invoke.cont93:                                    ; preds = %invoke.cont89
  invoke void @_ZN4cvc58internal9ExceptionC2ERKNSt7__cxx1112basic_stringIcSt11char_traitsIcESaIcEEE(ptr noundef nonnull align 8 dereferenceable(40) %exception, ptr noundef nonnull align 8 dereferenceable(32) %ref.tmp91)
          to label %invoke.cont95 unwind label %ehcleanup97.thread49

ehcleanup97.thread49:                             ; preds = %invoke.cont93
  %29 = landingpad { ptr, i32 }
          cleanup
  call void @_ZNSt7__cxx1112basic_stringIcSt11char_traitsIcESaIcEED1Ev(ptr noundef nonnull align 8 dereferenceable(32) %ref.tmp91) #22
  br label %cleanup.action99

invoke.cont95:                                    ; preds = %invoke.cont93
  invoke void @__cxa_throw(ptr nonnull %exception, ptr nonnull @_ZTIN4cvc58internal9ExceptionE, ptr nonnull @_ZN4cvc58internal9ExceptionD2Ev) #26
          to label %unreachable unwind label %ehcleanup97

lpad73:                                           ; preds = %invoke.cont87, %invoke.cont83, %if.then72
  %30 = landingpad { ptr, i32 }
          cleanup
  br label %ehcleanup101

lpad78:                                           ; preds = %invoke.cont74, %invoke.cont81, %invoke.cont79
  %31 = landingpad { ptr, i32 }
          cleanup
  br label %ehcleanup101

ehcleanup97.thread:                               ; preds = %invoke.cont89
  %32 = landingpad { ptr, i32 }
          cleanup
  br label %cleanup.action99

ehcleanup97:                                      ; preds = %invoke.cont95
  %33 = landingpad { ptr, i32 }
          cleanup
  call void @_ZNSt7__cxx1112basic_stringIcSt11char_traitsIcESaIcEED1Ev(ptr noundef nonnull align 8 dereferenceable(32) %ref.tmp91) #22
  br label %ehcleanup101

cleanup.action99:                                 ; preds = %ehcleanup97.thread49, %ehcleanup97.thread
  %.pn248 = phi { ptr, i32 } [ %32, %ehcleanup97.thread ], [ %29, %ehcleanup97.thread49 ]
  call void @__cxa_free_exception(ptr %exception) #22
  br label %ehcleanup101

ehcleanup101:                                     ; preds = %ehcleanup97, %cleanup.action99, %lpad78, %lpad73
  %.pn2.pn = phi { ptr, i32 } [ %.pn248, %cleanup.action99 ], [ %33, %ehcleanup97 ], [ %30, %lpad73 ], [ %31, %lpad78 ]
  call void @_ZNSt7__cxx1118basic_stringstreamIcSt11char_traitsIcESaIcEED1Ev(ptr noundef nonnull align 8 dereferenceable(128) %ss) #22
  br label %eh.resume

if.else:                                          ; preds = %if.then69
  %d_im = getelementptr inbounds %"class.cvc5::internal::theory::uf::TheoryUF", ptr %this, i64 0, i32 11
  call void @_ZN4cvc58internal6theory22TheoryInferenceManager15setModelUnsoundENS1_12IncompleteIdE(ptr noundef nonnull align 8 dereferenceable(256) %d_im, i32 noundef 18)
  br label %sw.epilog

sw.epilog:                                        ; preds = %if.then57, %land.lhs.true, %land.lhs.true30, %if.end22, %sw.bb66, %if.else, %sw.bb, %land.rhs33, %entry
  ret void

eh.resume:                                        ; preds = %lpad9, %ehcleanup101, %lpad19
  %.pn2.pn.pn = phi { ptr, i32 } [ %.pn2.pn, %ehcleanup101 ], [ %17, %lpad19 ], [ %16, %lpad9 ]
  resume { ptr, i32 } %.pn2.pn.pn

unreachable:                                      ; preds = %invoke.cont95
  unreachable
}

declare noundef zeroext i1 @_ZNK4cvc58internal6theory9Valuation12isSatLiteralENS0_12NodeTemplateILb0EEE(ptr noundef nonnull align 8 dereferenceable(8), ptr noundef) local_unnamed_addr #0

declare noundef zeroext i1 @_ZNK4cvc58internal6theory9Valuation10isDecisionENS0_12NodeTemplateILb1EEE(ptr noundef nonnull align 8 dereferenceable(8), ptr noundef) local_unnamed_addr #0

declare void @_ZN4cvc58internal6theory2uf20CardinalityExtension10assertNodeENS0_12NodeTemplateILb1EEEb(ptr noundef nonnull align 8 dereferenceable(648), ptr noundef, i1 noundef zeroext) local_unnamed_addr #0

; Function Attrs: mustprogress uwtable
define linkonce_odr hidden void @_ZNK4cvc58internal12NodeTemplateILb0EEixEi(ptr noalias sret(%"class.cvc5::internal::NodeTemplate.665") align 8 %agg.result, ptr noundef nonnull align 8 dereferenceable(8) %this, i32 noundef %i) local_unnamed_addr #3 comdat align 2 {
entry:
  %0 = load ptr, ptr %this, align 8
  %d_kind.i.i.i = getelementptr inbounds %"class.cvc5::internal::expr::NodeValue", ptr %0, i64 0, i32 1
  %bf.load.i.i.i = load i16, ptr %d_kind.i.i.i, align 8
  %bf.clear.i.i.i = and i16 %bf.load.i.i.i, 1023
  %bf.cast.i.i.i = zext nneg i16 %bf.clear.i.i.i to i32
  %cmp.i.i.i.i = icmp eq i16 %bf.clear.i.i.i, 1023
  %cond.i.i.i.i = select i1 %cmp.i.i.i.i, i32 -1, i32 %bf.cast.i.i.i
  %call2.i.i = tail call noundef i32 @_ZN4cvc58internal4kind10metaKindOfENS1_6Kind_tE(i32 noundef %cond.i.i.i.i)
  %cmp.i = icmp eq i32 %call2.i.i, 2
  %inc.i = zext i1 %cmp.i to i32
  %spec.select.i = add nsw i32 %inc.i, %i
  %idxprom.i = sext i32 %spec.select.i to i64
  %arrayidx.i = getelementptr inbounds %"class.cvc5::internal::expr::NodeValue", ptr %0, i64 0, i32 3, i64 %idxprom.i
  %1 = load ptr, ptr %arrayidx.i, align 8
  store ptr %1, ptr %agg.result, align 8
  ret void
}

; Function Attrs: mustprogress uwtable
define linkonce_odr hidden void @_ZNK4cvc58internal12NodeTemplateILb0EE7getTypeEb(ptr noalias sret(%"class.cvc5::internal::TypeNode") align 8 %agg.result, ptr noundef nonnull align 8 dereferenceable(8) %this, i1 noundef zeroext %check) local_unnamed_addr #3 comdat align 2 personality ptr @__gxx_personality_v0 {
entry:
  %agg.tmp = alloca %"class.cvc5::internal::NodeTemplate.665", align 8
  %errOutTmp = alloca %"class.std::__cxx11::basic_stringstream", align 8
  %ref.tmp = alloca %"class.cvc5::internal::TypeNode", align 8
  %agg.tmp9 = alloca %"class.cvc5::internal::NodeTemplate.665", align 8
  %agg.tmp17 = alloca %"class.cvc5::internal::NodeTemplate.665", align 8
  %agg.tmp20 = alloca %"class.std::__cxx11::basic_string", align 8
  %call = tail call noundef ptr @_ZN4cvc58internal11NodeManager9currentNMEv()
  %0 = load ptr, ptr %this, align 8
  store ptr %0, ptr %agg.tmp, align 8
  call void @_ZN4cvc58internal11NodeManager7getTypeENS0_12NodeTemplateILb0EEEbPSo(ptr sret(%"class.cvc5::internal::TypeNode") align 8 %agg.result, ptr noundef nonnull align 8 dereferenceable(3360) %call, ptr noundef nonnull %agg.tmp, i1 noundef zeroext %check, ptr noundef null)
  %1 = load ptr, ptr %agg.result, align 8
  %2 = load atomic i8, ptr @_ZGVZN4cvc58internal4expr9NodeValue4nullEvE6s_null acquire, align 8
  %guard.uninitialized.i.i = icmp eq i8 %2, 0
  br i1 %guard.uninitialized.i.i, label %init.check.i.i, label %invoke.cont3, !prof !4

init.check.i.i:                                   ; preds = %entry
  %3 = call i32 @__cxa_guard_acquire(ptr nonnull @_ZGVZN4cvc58internal4expr9NodeValue4nullEvE6s_null) #22
  %tobool.not.i.i = icmp eq i32 %3, 0
  br i1 %tobool.not.i.i, label %invoke.cont3, label %init.i.i

init.i.i:                                         ; preds = %init.check.i.i
  %call.i.i = invoke noalias noundef nonnull dereferenceable(16) ptr @_Znwm(i64 noundef 16) #23
          to label %invoke.cont.i.i unwind label %lpad.i.i

invoke.cont.i.i:                                  ; preds = %init.i.i
  store i64 1152920405095219200, ptr %call.i.i, align 8
  %d_kind.i.i.i = getelementptr inbounds %"class.cvc5::internal::expr::NodeValue", ptr %call.i.i, i64 0, i32 1
  store i16 0, ptr %d_kind.i.i.i, align 8
  %d_nchildren.i.i.i = getelementptr inbounds %"class.cvc5::internal::expr::NodeValue", ptr %call.i.i, i64 0, i32 2
  store i32 0, ptr %d_nchildren.i.i.i, align 4
  store ptr %call.i.i, ptr @_ZZN4cvc58internal4expr9NodeValue4nullEvE6s_null, align 8
  call void @__cxa_guard_release(ptr nonnull @_ZGVZN4cvc58internal4expr9NodeValue4nullEvE6s_null) #22
  br label %invoke.cont3

lpad.i.i:                                         ; preds = %init.i.i
  %4 = landingpad { ptr, i32 }
          cleanup
  call void @__cxa_guard_abort(ptr nonnull @_ZGVZN4cvc58internal4expr9NodeValue4nullEvE6s_null) #22
  br label %ehcleanup29

invoke.cont3:                                     ; preds = %invoke.cont.i.i, %init.check.i.i, %entry
  %5 = load ptr, ptr @_ZZN4cvc58internal4expr9NodeValue4nullEvE6s_null, align 8
  %cmp.i = icmp eq ptr %1, %5
  br i1 %cmp.i, label %if.then, label %nrvo.skipdtor

if.then:                                          ; preds = %invoke.cont3
  invoke void @_ZNSt7__cxx1118basic_stringstreamIcSt11char_traitsIcESaIcEEC1Ev(ptr noundef nonnull align 8 dereferenceable(128) %errOutTmp)
          to label %invoke.cont5 unwind label %lpad2

invoke.cont5:                                     ; preds = %if.then
  %call8 = invoke noundef ptr @_ZN4cvc58internal11NodeManager9currentNMEv()
          to label %invoke.cont7 unwind label %lpad6

invoke.cont7:                                     ; preds = %invoke.cont5
  %6 = load ptr, ptr %this, align 8
  store ptr %6, ptr %agg.tmp9, align 8
  %add.ptr = getelementptr inbounds i8, ptr %errOutTmp, i64 16
  invoke void @_ZN4cvc58internal11NodeManager7getTypeENS0_12NodeTemplateILb0EEEbPSo(ptr nonnull sret(%"class.cvc5::internal::TypeNode") align 8 %ref.tmp, ptr noundef nonnull align 8 dereferenceable(3360) %call8, ptr noundef nonnull %agg.tmp9, i1 noundef zeroext %check, ptr noundef nonnull %add.ptr)
          to label %invoke.cont13 unwind label %lpad12

invoke.cont13:                                    ; preds = %invoke.cont7
  %call16 = invoke noundef nonnull align 8 dereferenceable(8) ptr @_ZN4cvc58internal8TypeNodeaSERKS1_(ptr noundef nonnull align 8 dereferenceable(8) %agg.result, ptr noundef nonnull align 8 dereferenceable(8) %ref.tmp)
          to label %invoke.cont15 unwind label %lpad14

invoke.cont15:                                    ; preds = %invoke.cont13
  call void @_ZN4cvc58internal8TypeNodeD2Ev(ptr noundef nonnull align 8 dereferenceable(8) %ref.tmp) #22
  %exception = call ptr @__cxa_allocate_exception(i64 48) #22
  %7 = load ptr, ptr %this, align 8
  store ptr %7, ptr %agg.tmp17, align 8
  invoke void @_ZNKSt7__cxx1118basic_stringstreamIcSt11char_traitsIcESaIcEE3strEv(ptr nonnull sret(%"class.std::__cxx11::basic_string") align 8 %agg.tmp20, ptr noundef nonnull align 8 dereferenceable(128) %errOutTmp)
          to label %invoke.cont22 unwind label %ehcleanup26.thread

invoke.cont22:                                    ; preds = %invoke.cont15
  invoke void @_ZN4cvc58internal28TypeCheckingExceptionPrivateC1ENS0_12NodeTemplateILb0EEENSt7__cxx1112basic_stringIcSt11char_traitsIcESaIcEEE(ptr noundef nonnull align 8 dereferenceable(48) %exception, ptr noundef nonnull %agg.tmp17, ptr noundef nonnull %agg.tmp20)
          to label %invoke.cont24 unwind label %ehcleanup26.thread11

ehcleanup26.thread11:                             ; preds = %invoke.cont22
  %8 = landingpad { ptr, i32 }
          cleanup
  call void @_ZNSt7__cxx1112basic_stringIcSt11char_traitsIcESaIcEED1Ev(ptr noundef nonnull align 8 dereferenceable(32) %agg.tmp20) #22
  br label %cleanup.action

invoke.cont24:                                    ; preds = %invoke.cont22
  invoke void @__cxa_throw(ptr nonnull %exception, ptr nonnull @_ZTIN4cvc58internal28TypeCheckingExceptionPrivateE, ptr nonnull @_ZN4cvc58internal28TypeCheckingExceptionPrivateD1Ev) #26
          to label %unreachable unwind label %ehcleanup26

lpad2:                                            ; preds = %if.then
  %9 = landingpad { ptr, i32 }
          cleanup
  br label %ehcleanup29

lpad6:                                            ; preds = %invoke.cont5
  %10 = landingpad { ptr, i32 }
          cleanup
  br label %ehcleanup28

lpad12:                                           ; preds = %invoke.cont7
  %11 = landingpad { ptr, i32 }
          cleanup
  br label %ehcleanup28

lpad14:                                           ; preds = %invoke.cont13
  %12 = landingpad { ptr, i32 }
          cleanup
  call void @_ZN4cvc58internal8TypeNodeD2Ev(ptr noundef nonnull align 8 dereferenceable(8) %ref.tmp) #22
  br label %ehcleanup28

ehcleanup26.thread:                               ; preds = %invoke.cont15
  %13 = landingpad { ptr, i32 }
          cleanup
  br label %cleanup.action

ehcleanup26:                                      ; preds = %invoke.cont24
  %14 = landingpad { ptr, i32 }
          cleanup
  call void @_ZNSt7__cxx1112basic_stringIcSt11char_traitsIcESaIcEED1Ev(ptr noundef nonnull align 8 dereferenceable(32) %agg.tmp20) #22
  br label %ehcleanup28

cleanup.action:                                   ; preds = %ehcleanup26.thread11, %ehcleanup26.thread
  %.pn310 = phi { ptr, i32 } [ %13, %ehcleanup26.thread ], [ %8, %ehcleanup26.thread11 ]
  call void @__cxa_free_exception(ptr %exception) #22
  br label %ehcleanup28

ehcleanup28:                                      ; preds = %ehcleanup26, %lpad12, %lpad14, %cleanup.action, %lpad6
  %.pn3.pn = phi { ptr, i32 } [ %.pn310, %cleanup.action ], [ %14, %ehcleanup26 ], [ %10, %lpad6 ], [ %12, %lpad14 ], [ %11, %lpad12 ]
  call void @_ZNSt7__cxx1118basic_stringstreamIcSt11char_traitsIcESaIcEED1Ev(ptr noundef nonnull align 8 dereferenceable(128) %errOutTmp) #22
  br label %ehcleanup29

nrvo.skipdtor:                                    ; preds = %invoke.cont3
  ret void

ehcleanup29:                                      ; preds = %lpad2, %lpad.i.i, %ehcleanup28
  %.pn3.pn.pn = phi { ptr, i32 } [ %.pn3.pn, %ehcleanup28 ], [ %9, %lpad2 ], [ %4, %lpad.i.i ]
  call void @_ZN4cvc58internal8TypeNodeD2Ev(ptr noundef nonnull align 8 dereferenceable(8) %agg.result) #22
  resume { ptr, i32 } %.pn3.pn.pn

unreachable:                                      ; preds = %invoke.cont24
  unreachable
}

; Function Attrs: mustprogress nounwind uwtable
define linkonce_odr hidden void @_ZN4cvc58internal8TypeNodeD2Ev(ptr noundef nonnull align 8 dereferenceable(8) %this) unnamed_addr #7 comdat align 2 personality ptr @__gxx_personality_v0 {
entry:
  %0 = load ptr, ptr %this, align 8
  %bf.load.i = load i64, ptr %0, align 8
  %1 = and i64 %bf.load.i, 1152920405095219200
  %cmp.not.i = icmp eq i64 %1, 1152920405095219200
  br i1 %cmp.not.i, label %invoke.cont, label %if.then.i

if.then.i:                                        ; preds = %entry
  %bf.value.i = add i64 %bf.load.i, 1152920405095219200
  %bf.shl.i = and i64 %bf.value.i, 1152920405095219200
  %bf.clear7.i = and i64 %bf.load.i, -1152920405095219201
  %bf.set.i = or disjoint i64 %bf.shl.i, %bf.clear7.i
  store i64 %bf.set.i, ptr %0, align 8
  %cmp12.i = icmp eq i64 %bf.shl.i, 0
  br i1 %cmp12.i, label %if.then13.i, label %invoke.cont

if.then13.i:                                      ; preds = %if.then.i
  invoke void @_ZN4cvc58internal4expr9NodeValue15markForDeletionEv(ptr noundef nonnull align 8 dereferenceable(16) %0)
          to label %invoke.cont unwind label %terminate.lpad

invoke.cont:                                      ; preds = %if.then.i, %entry, %if.then13.i
  ret void

terminate.lpad:                                   ; preds = %if.then13.i
  %2 = landingpad { ptr, i32 }
          catch ptr null
  %3 = extractvalue { ptr, i32 } %2, 0
  tail call void @__clang_call_terminate(ptr %3) #24
  unreachable
}

declare noundef i32 @_ZN4cvc58internal6theory2uf11HoExtension19applyExtensionalityENS0_12NodeTemplateILb0EEE(ptr noundef nonnull align 8 dereferenceable(376), ptr noundef) local_unnamed_addr #0

declare noundef zeroext i1 @_ZNK4cvc58internal9LogicInfo25hasCardinalityConstraintsEv(ptr noundef nonnull align 8 dereferenceable(88)) local_unnamed_addr #0

declare void @_ZNSt7__cxx1118basic_stringstreamIcSt11char_traitsIcESaIcEEC1Ev(ptr noundef nonnull align 8 dereferenceable(128)) unnamed_addr #0

declare noundef nonnull align 8 dereferenceable(8) ptr @_ZStlsISt11char_traitsIcEERSt13basic_ostreamIcT_ES5_PKc(ptr noundef nonnull align 8 dereferenceable(8), ptr noundef) local_unnamed_addr #0

declare noundef nonnull align 8 dereferenceable(8) ptr @_ZNSolsEPFRSoS_E(ptr noundef nonnull align 8 dereferenceable(8), ptr noundef) local_unnamed_addr #0

declare noundef nonnull align 8 dereferenceable(8) ptr @_ZSt4endlIcSt11char_traitsIcEERSt13basic_ostreamIT_T0_ES6_(ptr noundef nonnull align 8 dereferenceable(8)) #0

declare ptr @__cxa_allocate_exception(i64) local_unnamed_addr

declare void @_ZNKSt7__cxx1118basic_stringstreamIcSt11char_traitsIcESaIcEE3strEv(ptr sret(%"class.std::__cxx11::basic_string") align 8, ptr noundef nonnull align 8 dereferenceable(128)) local_unnamed_addr #0

; Function Attrs: mustprogress uwtable
define linkonce_odr hidden void @_ZN4cvc58internal9ExceptionC2ERKNSt7__cxx1112basic_stringIcSt11char_traitsIcESaIcEEE(ptr noundef nonnull align 8 dereferenceable(40) %this, ptr noundef nonnull align 8 dereferenceable(32) %msg) unnamed_addr #3 comdat align 2 personality ptr @__gxx_personality_v0 {
entry:
  store ptr getelementptr inbounds ({ [6 x ptr] }, ptr @_ZTVN4cvc58internal9ExceptionE, i64 0, inrange i32 0, i64 2), ptr %this, align 8
  %d_msg = getelementptr inbounds %"class.cvc5::internal::Exception", ptr %this, i64 0, i32 1
  invoke void @_ZNSt7__cxx1112basic_stringIcSt11char_traitsIcESaIcEEC1ERKS4_(ptr noundef nonnull align 8 dereferenceable(32) %d_msg, ptr noundef nonnull align 8 dereferenceable(32) %msg)
          to label %invoke.cont unwind label %lpad

invoke.cont:                                      ; preds = %entry
  ret void

lpad:                                             ; preds = %entry
  %0 = landingpad { ptr, i32 }
          cleanup
  tail call void @_ZNSt9exceptionD2Ev(ptr noundef nonnull align 8 dereferenceable(8) %this) #22
  resume { ptr, i32 } %0
}

; Function Attrs: mustprogress nounwind uwtable
define linkonce_odr hidden void @_ZN4cvc58internal9ExceptionD2Ev(ptr noundef nonnull align 8 dereferenceable(40) %this) unnamed_addr #7 comdat align 2 {
entry:
  store ptr getelementptr inbounds ({ [6 x ptr] }, ptr @_ZTVN4cvc58internal9ExceptionE, i64 0, inrange i32 0, i64 2), ptr %this, align 8
  %d_msg = getelementptr inbounds %"class.cvc5::internal::Exception", ptr %this, i64 0, i32 1
  tail call void @_ZNSt7__cxx1112basic_stringIcSt11char_traitsIcESaIcEED1Ev(ptr noundef nonnull align 8 dereferenceable(32) %d_msg) #22
  tail call void @_ZNSt9exceptionD2Ev(ptr noundef nonnull align 8 dereferenceable(8) %this) #22
  ret void
}

declare void @__cxa_throw(ptr, ptr, ptr) local_unnamed_addr

declare void @__cxa_free_exception(ptr) local_unnamed_addr

; Function Attrs: nounwind
declare void @_ZNSt7__cxx1118basic_stringstreamIcSt11char_traitsIcESaIcEED1Ev(ptr noundef nonnull align 8 dereferenceable(128)) unnamed_addr #1

declare void @_ZN4cvc58internal6theory22TheoryInferenceManager15setModelUnsoundENS1_12IncompleteIdE(ptr noundef nonnull align 8 dereferenceable(256), i32 noundef) local_unnamed_addr #0

; Function Attrs: mustprogress uwtable
define hidden void @_ZN4cvc58internal6theory2uf8TheoryUF9ppRewriteENS0_12NodeTemplateILb0EEERSt6vectorINS1_11SkolemLemmaESaIS7_EE(ptr noalias sret(%"class.cvc5::internal::TrustNode") align 8 %agg.result, ptr noundef nonnull align 8 dereferenceable(1736) %this, ptr noundef %node, ptr noundef nonnull align 1 %lems) unnamed_addr #3 align 2 personality ptr @__gxx_personality_v0 {
cond.end:
  %ref.tmp9 = alloca %"class.cvc5::internal::TypeNode", align 8
  %ss = alloca %"class.std::__cxx11::basic_stringstream", align 8
  %ref.tmp26 = alloca %"class.std::__cxx11::basic_string", align 8
  %agg.tmp = alloca %"class.cvc5::internal::TypeNode", align 8
  %ref.tmp40 = alloca %"class.cvc5::internal::NodeTemplate", align 8
  %ss63 = alloca %"class.std::__cxx11::basic_stringstream", align 8
  %ref.tmp77 = alloca %"class.std::__cxx11::basic_string", align 8
  %ret = alloca %"class.cvc5::internal::NodeTemplate", align 8
  %agg.tmp98 = alloca %"class.cvc5::internal::NodeTemplate.665", align 8
  %agg.tmp103 = alloca %"class.cvc5::internal::NodeTemplate.665", align 8
  %agg.tmp123 = alloca %"class.cvc5::internal::NodeTemplate.665", align 8
  %agg.tmp126 = alloca %"class.cvc5::internal::NodeTemplate", align 8
  %agg.tmp140 = alloca %"class.cvc5::internal::NodeTemplate", align 8
  %0 = load ptr, ptr %node, align 8
  %d_kind.i = getelementptr inbounds %"class.cvc5::internal::expr::NodeValue", ptr %0, i64 0, i32 1
  %bf.load.i = load i16, ptr %d_kind.i, align 8
  %bf.clear.i = and i16 %bf.load.i, 1023
  %bf.cast.i = zext nneg i16 %bf.clear.i to i32
  %call7 = tail call noundef nonnull align 8 dereferenceable(88) ptr @_ZNK4cvc58internal6EnvObj9logicInfoEv(ptr noundef nonnull align 8 dereferenceable(16) %this)
  %call8 = tail call noundef zeroext i1 @_ZNK4cvc58internal9LogicInfo13isHigherOrderEv(ptr noundef nonnull align 8 dereferenceable(88) %call7)
  %cmp.not = icmp eq i16 %bf.clear.i, 27
  br i1 %cmp.not, label %if.then, label %cleanup.action

cleanup.action:                                   ; preds = %cond.end
  call void @_ZNK4cvc58internal12NodeTemplateILb0EE7getTypeEb(ptr nonnull sret(%"class.cvc5::internal::TypeNode") align 8 %ref.tmp9, ptr noundef nonnull align 8 dereferenceable(8) %node, i1 noundef zeroext false)
  %1 = load ptr, ptr %ref.tmp9, align 8
  %d_kind.i.i = getelementptr inbounds %"class.cvc5::internal::expr::NodeValue", ptr %1, i64 0, i32 1
  %bf.load.i.i = load i16, ptr %d_kind.i.i, align 8
  %bf.clear.i.i = and i16 %bf.load.i.i, 1023
  %cmp.i = icmp eq i16 %bf.clear.i.i, 25
  %bf.load.i.i56 = load i64, ptr %1, align 8
  %2 = and i64 %bf.load.i.i56, 1152920405095219200
  %cmp.not.i.i = icmp eq i64 %2, 1152920405095219200
  br i1 %cmp.not.i.i, label %cleanup.done, label %if.then.i.i

if.then.i.i:                                      ; preds = %cleanup.action
  %bf.value.i.i = add i64 %bf.load.i.i56, 1152920405095219200
  %bf.shl.i.i = and i64 %bf.value.i.i, 1152920405095219200
  %bf.clear7.i.i = and i64 %bf.load.i.i56, -1152920405095219201
  %bf.set.i.i = or disjoint i64 %bf.shl.i.i, %bf.clear7.i.i
  store i64 %bf.set.i.i, ptr %1, align 8
  %cmp12.i.i = icmp eq i64 %bf.shl.i.i, 0
  br i1 %cmp12.i.i, label %if.then13.i.i, label %cleanup.done

if.then13.i.i:                                    ; preds = %if.then.i.i
  invoke void @_ZN4cvc58internal4expr9NodeValue15markForDeletionEv(ptr noundef nonnull align 8 dereferenceable(16) %1)
          to label %cleanup.done unwind label %terminate.lpad.i

terminate.lpad.i:                                 ; preds = %if.then13.i.i
  %3 = landingpad { ptr, i32 }
          catch ptr null
  %4 = extractvalue { ptr, i32 } %3, 0
  call void @__clang_call_terminate(ptr %4) #24
  unreachable

cleanup.done:                                     ; preds = %if.then13.i.i, %if.then.i.i, %cleanup.action
  br i1 %cmp.i, label %if.then.thread, label %if.else36

if.then:                                          ; preds = %cond.end
  br i1 %call8, label %if.then138, label %if.else.invoke

if.then.thread:                                   ; preds = %cleanup.done
  br i1 %call8, label %if.then138, label %if.else.invoke

lpad17:                                           ; preds = %if.else.invoke, %if.end
  %5 = landingpad { ptr, i32 }
          cleanup
  br label %ehcleanup34

if.else.invoke:                                   ; preds = %if.then.thread, %if.then
  %6 = phi ptr [ @.str.6, %if.then ], [ @.str.7, %if.then.thread ]
  call void @_ZNSt7__cxx1118basic_stringstreamIcSt11char_traitsIcESaIcEEC1Ev(ptr noundef nonnull align 8 dereferenceable(128) %ss)
  %add.ptr = getelementptr inbounds i8, ptr %ss, i64 16
  %7 = invoke noundef nonnull align 8 dereferenceable(8) ptr @_ZStlsISt11char_traitsIcEERSt13basic_ostreamIcT_ES5_PKc(ptr noundef nonnull align 8 dereferenceable(8) %add.ptr, ptr noundef nonnull %6)
          to label %if.end unwind label %lpad17

if.end:                                           ; preds = %if.else.invoke
  %add.ptr23 = getelementptr inbounds i8, ptr %ss, i64 16
  %call25 = invoke noundef nonnull align 8 dereferenceable(8) ptr @_ZStlsISt11char_traitsIcEERSt13basic_ostreamIcT_ES5_PKc(ptr noundef nonnull align 8 dereferenceable(8) %add.ptr23, ptr noundef nonnull @.str.8)
          to label %invoke.cont24 unwind label %lpad17

invoke.cont24:                                    ; preds = %if.end
  %exception = call ptr @__cxa_allocate_exception(i64 40) #22
  invoke void @_ZNKSt7__cxx1118basic_stringstreamIcSt11char_traitsIcESaIcEE3strEv(ptr nonnull sret(%"class.std::__cxx11::basic_string") align 8 %ref.tmp26, ptr noundef nonnull align 8 dereferenceable(128) %ss)
          to label %invoke.cont28 unwind label %ehcleanup.thread

invoke.cont28:                                    ; preds = %invoke.cont24
  invoke void @_ZN4cvc58internal14LogicExceptionC2ERKNSt7__cxx1112basic_stringIcSt11char_traitsIcESaIcEEE(ptr noundef nonnull align 8 dereferenceable(40) %exception, ptr noundef nonnull align 8 dereferenceable(32) %ref.tmp26)
          to label %invoke.cont30 unwind label %ehcleanup.thread301

ehcleanup.thread301:                              ; preds = %invoke.cont28
  %8 = landingpad { ptr, i32 }
          cleanup
  call void @_ZNSt7__cxx1112basic_stringIcSt11char_traitsIcESaIcEED1Ev(ptr noundef nonnull align 8 dereferenceable(32) %ref.tmp26) #22
  br label %cleanup.action32

invoke.cont30:                                    ; preds = %invoke.cont28
  invoke void @__cxa_throw(ptr nonnull %exception, ptr nonnull @_ZTIN4cvc58internal14LogicExceptionE, ptr nonnull @_ZN4cvc58internal14LogicExceptionD2Ev) #26
          to label %unreachable unwind label %ehcleanup

ehcleanup.thread:                                 ; preds = %invoke.cont24
  %9 = landingpad { ptr, i32 }
          cleanup
  br label %cleanup.action32

ehcleanup:                                        ; preds = %invoke.cont30
  %10 = landingpad { ptr, i32 }
          cleanup
  call void @_ZNSt7__cxx1112basic_stringIcSt11char_traitsIcESaIcEED1Ev(ptr noundef nonnull align 8 dereferenceable(32) %ref.tmp26) #22
  br label %ehcleanup34

cleanup.action32:                                 ; preds = %ehcleanup.thread301, %ehcleanup.thread
  %.pn16300 = phi { ptr, i32 } [ %9, %ehcleanup.thread ], [ %8, %ehcleanup.thread301 ]
  call void @__cxa_free_exception(ptr %exception) #22
  br label %ehcleanup34

ehcleanup34:                                      ; preds = %ehcleanup, %cleanup.action32, %lpad17
  %.pn16.pn = phi { ptr, i32 } [ %.pn16300, %cleanup.action32 ], [ %10, %ehcleanup ], [ %5, %lpad17 ]
  call void @_ZNSt7__cxx1118basic_stringstreamIcSt11char_traitsIcESaIcEED1Ev(ptr noundef nonnull align 8 dereferenceable(128) %ss) #22
  br label %eh.resume

if.else36:                                        ; preds = %cleanup.done
  %cmp37 = icmp eq i16 %bf.clear.i, 24
  br i1 %cmp37, label %if.then38, label %if.else90

if.then38:                                        ; preds = %if.else36
  br i1 %call8, label %if.then138, label %land.rhs

land.rhs:                                         ; preds = %if.then38
  call void @_ZNK4cvc58internal12NodeTemplateILb0EE11getOperatorEv(ptr nonnull sret(%"class.cvc5::internal::NodeTemplate") align 8 %ref.tmp40, ptr noundef nonnull align 8 dereferenceable(8) %node)
  invoke void @_ZNK4cvc58internal12NodeTemplateILb1EE7getTypeEb(ptr nonnull sret(%"class.cvc5::internal::TypeNode") align 8 %agg.tmp, ptr noundef nonnull align 8 dereferenceable(8) %ref.tmp40, i1 noundef zeroext false)
          to label %invoke.cont43 unwind label %lpad42

invoke.cont43:                                    ; preds = %land.rhs
  %call47 = invoke noundef zeroext i1 @_ZN4cvc58internal6theory2uf8TheoryUF17isHigherOrderTypeENS0_8TypeNodeE(ptr noundef nonnull align 8 dereferenceable(1736) %this, ptr noundef nonnull %agg.tmp)
          to label %cleanup.action49 unwind label %lpad45

cleanup.action49:                                 ; preds = %invoke.cont43
  %11 = load ptr, ptr %agg.tmp, align 8
  %bf.load.i.i57 = load i64, ptr %11, align 8
  %12 = and i64 %bf.load.i.i57, 1152920405095219200
  %cmp.not.i.i58 = icmp eq i64 %12, 1152920405095219200
  br i1 %cmp.not.i.i58, label %_ZN4cvc58internal8TypeNodeD2Ev.exit67, label %if.then.i.i59

if.then.i.i59:                                    ; preds = %cleanup.action49
  %bf.value.i.i60 = add i64 %bf.load.i.i57, 1152920405095219200
  %bf.shl.i.i61 = and i64 %bf.value.i.i60, 1152920405095219200
  %bf.clear7.i.i62 = and i64 %bf.load.i.i57, -1152920405095219201
  %bf.set.i.i63 = or disjoint i64 %bf.shl.i.i61, %bf.clear7.i.i62
  store i64 %bf.set.i.i63, ptr %11, align 8
  %cmp12.i.i64 = icmp eq i64 %bf.shl.i.i61, 0
  br i1 %cmp12.i.i64, label %if.then13.i.i65, label %_ZN4cvc58internal8TypeNodeD2Ev.exit67

if.then13.i.i65:                                  ; preds = %if.then.i.i59
  invoke void @_ZN4cvc58internal4expr9NodeValue15markForDeletionEv(ptr noundef nonnull align 8 dereferenceable(16) %11)
          to label %_ZN4cvc58internal8TypeNodeD2Ev.exit67 unwind label %terminate.lpad.i66

terminate.lpad.i66:                               ; preds = %if.then13.i.i65
  %13 = landingpad { ptr, i32 }
          catch ptr null
  %14 = extractvalue { ptr, i32 } %13, 0
  call void @__clang_call_terminate(ptr %14) #24
  unreachable

_ZN4cvc58internal8TypeNodeD2Ev.exit67:            ; preds = %cleanup.action49, %if.then.i.i59, %if.then13.i.i65
  %15 = load ptr, ptr %ref.tmp40, align 8
  %bf.load.i.i68 = load i64, ptr %15, align 8
  %16 = and i64 %bf.load.i.i68, 1152920405095219200
  %cmp.not.i.i69 = icmp eq i64 %16, 1152920405095219200
  br i1 %cmp.not.i.i69, label %cleanup.done57, label %if.then.i.i70

if.then.i.i70:                                    ; preds = %_ZN4cvc58internal8TypeNodeD2Ev.exit67
  %bf.value.i.i71 = add i64 %bf.load.i.i68, 1152920405095219200
  %bf.shl.i.i72 = and i64 %bf.value.i.i71, 1152920405095219200
  %bf.clear7.i.i73 = and i64 %bf.load.i.i68, -1152920405095219201
  %bf.set.i.i74 = or disjoint i64 %bf.shl.i.i72, %bf.clear7.i.i73
  store i64 %bf.set.i.i74, ptr %15, align 8
  %cmp12.i.i75 = icmp eq i64 %bf.shl.i.i72, 0
  br i1 %cmp12.i.i75, label %if.then13.i.i76, label %cleanup.done57

if.then13.i.i76:                                  ; preds = %if.then.i.i70
  invoke void @_ZN4cvc58internal4expr9NodeValue15markForDeletionEv(ptr noundef nonnull align 8 dereferenceable(16) %15)
          to label %cleanup.done57 unwind label %terminate.lpad.i77

terminate.lpad.i77:                               ; preds = %if.then13.i.i76
  %17 = landingpad { ptr, i32 }
          catch ptr null
  %18 = extractvalue { ptr, i32 } %17, 0
  call void @__clang_call_terminate(ptr %18) #24
  unreachable

cleanup.done57:                                   ; preds = %if.then13.i.i76, %if.then.i.i70, %_ZN4cvc58internal8TypeNodeD2Ev.exit67
  br i1 %call47, label %if.then62, label %if.end182

if.then62:                                        ; preds = %cleanup.done57
  call void @_ZNSt7__cxx1118basic_stringstreamIcSt11char_traitsIcESaIcEEC1Ev(ptr noundef nonnull align 8 dereferenceable(128) %ss63)
  %add.ptr64 = getelementptr inbounds i8, ptr %ss63, i64 16
  %call67 = invoke noundef nonnull align 8 dereferenceable(8) ptr @_ZStlsISt11char_traitsIcEERSt13basic_ostreamIcT_ES5_PKc(ptr noundef nonnull align 8 dereferenceable(8) %add.ptr64, ptr noundef nonnull @.str.9)
          to label %invoke.cont66 unwind label %lpad65

invoke.cont66:                                    ; preds = %if.then62
  %19 = load ptr, ptr %node, align 8
  invoke void @_ZNK4cvc58internal4expr9NodeValue8toStreamERSo(ptr noundef nonnull align 8 dereferenceable(16) %19, ptr noundef nonnull align 8 dereferenceable(8) %call67)
          to label %invoke.cont71 unwind label %lpad70

invoke.cont71:                                    ; preds = %invoke.cont66
  %call74 = invoke noundef nonnull align 8 dereferenceable(8) ptr @_ZStlsISt11char_traitsIcEERSt13basic_ostreamIcT_ES5_PKc(ptr noundef nonnull align 8 dereferenceable(8) %call67, ptr noundef nonnull @.str.10)
          to label %invoke.cont73 unwind label %lpad70

invoke.cont73:                                    ; preds = %invoke.cont71
  %exception76 = call ptr @__cxa_allocate_exception(i64 40) #22
  invoke void @_ZNKSt7__cxx1118basic_stringstreamIcSt11char_traitsIcESaIcEE3strEv(ptr nonnull sret(%"class.std::__cxx11::basic_string") align 8 %ref.tmp77, ptr noundef nonnull align 8 dereferenceable(128) %ss63)
          to label %invoke.cont79 unwind label %ehcleanup84.thread

invoke.cont79:                                    ; preds = %invoke.cont73
  invoke void @_ZN4cvc58internal14LogicExceptionC2ERKNSt7__cxx1112basic_stringIcSt11char_traitsIcESaIcEEE(ptr noundef nonnull align 8 dereferenceable(40) %exception76, ptr noundef nonnull align 8 dereferenceable(32) %ref.tmp77)
          to label %invoke.cont81 unwind label %ehcleanup84.thread306

ehcleanup84.thread306:                            ; preds = %invoke.cont79
  %20 = landingpad { ptr, i32 }
          cleanup
  call void @_ZNSt7__cxx1112basic_stringIcSt11char_traitsIcESaIcEED1Ev(ptr noundef nonnull align 8 dereferenceable(32) %ref.tmp77) #22
  br label %cleanup.action86

invoke.cont81:                                    ; preds = %invoke.cont79
  invoke void @__cxa_throw(ptr nonnull %exception76, ptr nonnull @_ZTIN4cvc58internal14LogicExceptionE, ptr nonnull @_ZN4cvc58internal14LogicExceptionD2Ev) #26
          to label %unreachable unwind label %ehcleanup84

lpad42:                                           ; preds = %land.rhs
  %21 = landingpad { ptr, i32 }
          cleanup
  br label %cleanup.action60

lpad45:                                           ; preds = %invoke.cont43
  %22 = landingpad { ptr, i32 }
          cleanup
  call void @_ZN4cvc58internal8TypeNodeD2Ev(ptr noundef nonnull align 8 dereferenceable(8) %agg.tmp) #22
  br label %cleanup.action60

cleanup.action60:                                 ; preds = %lpad42, %lpad45
  %.pn11 = phi { ptr, i32 } [ %22, %lpad45 ], [ %21, %lpad42 ]
  call void @_ZN4cvc58internal12NodeTemplateILb1EED2Ev(ptr noundef nonnull align 8 dereferenceable(8) %ref.tmp40) #22
  br label %eh.resume

lpad65:                                           ; preds = %if.then62
  %23 = landingpad { ptr, i32 }
          cleanup
  br label %ehcleanup88

lpad70:                                           ; preds = %invoke.cont66, %invoke.cont71
  %24 = landingpad { ptr, i32 }
          cleanup
  br label %ehcleanup88

ehcleanup84.thread:                               ; preds = %invoke.cont73
  %25 = landingpad { ptr, i32 }
          cleanup
  br label %cleanup.action86

ehcleanup84:                                      ; preds = %invoke.cont81
  %26 = landingpad { ptr, i32 }
          cleanup
  call void @_ZNSt7__cxx1112basic_stringIcSt11char_traitsIcESaIcEED1Ev(ptr noundef nonnull align 8 dereferenceable(32) %ref.tmp77) #22
  br label %ehcleanup88

cleanup.action86:                                 ; preds = %ehcleanup84.thread306, %ehcleanup84.thread
  %.pn13305 = phi { ptr, i32 } [ %25, %ehcleanup84.thread ], [ %20, %ehcleanup84.thread306 ]
  call void @__cxa_free_exception(ptr %exception76) #22
  br label %ehcleanup88

ehcleanup88:                                      ; preds = %ehcleanup84, %cleanup.action86, %lpad70, %lpad65
  %.pn13.pn = phi { ptr, i32 } [ %.pn13305, %cleanup.action86 ], [ %26, %ehcleanup84 ], [ %24, %lpad70 ], [ %23, %lpad65 ]
  call void @_ZNSt7__cxx1118basic_stringstreamIcSt11char_traitsIcESaIcEED1Ev(ptr noundef nonnull align 8 dereferenceable(128) %ss63) #22
  br label %eh.resume

if.else90:                                        ; preds = %if.else36
  %cmp91 = icmp eq i16 %bf.clear.i, 33
  switch i32 %bf.cast.i, label %if.end136 [
    i32 35, label %land.lhs.true
    i32 33, label %land.lhs.true
  ]

land.lhs.true:                                    ; preds = %if.else90, %if.else90
  %call93 = call noundef nonnull align 8 dereferenceable(392) ptr @_ZNK4cvc58internal6EnvObj7optionsEv(ptr noundef nonnull align 8 dereferenceable(16) %this)
  %uf = getelementptr inbounds %"class.cvc5::internal::Options", ptr %call93, i64 0, i32 47
  %27 = load ptr, ptr %uf, align 8
  %28 = load i8, ptr %27, align 8
  %29 = and i8 %28, 1
  %tobool94.not = icmp eq i8 %29, 0
  br i1 %tobool94.not, label %if.end136, label %if.then95

if.then95:                                        ; preds = %land.lhs.true
  %30 = load ptr, ptr %node, align 8
  br i1 %cmp91, label %cond.true97, label %cond.false102

cond.true97:                                      ; preds = %if.then95
  store ptr %30, ptr %agg.tmp98, align 8
  call void @_ZN4cvc58internal6theory5arith15eliminateBv2NatENS0_12NodeTemplateILb0EEE(ptr nonnull sret(%"class.cvc5::internal::NodeTemplate") align 8 %ret, ptr noundef nonnull %agg.tmp98)
  br label %cleanup.done118

cond.false102:                                    ; preds = %if.then95
  store ptr %30, ptr %agg.tmp103, align 8
  call void @_ZN4cvc58internal6theory5arith15eliminateInt2BvENS0_12NodeTemplateILb0EEE(ptr nonnull sret(%"class.cvc5::internal::NodeTemplate") align 8 %ret, ptr noundef nonnull %agg.tmp103)
  br label %cleanup.done118

cleanup.done118:                                  ; preds = %cond.false102, %cond.true97
  %31 = load ptr, ptr %node, align 8
  store ptr %31, ptr %agg.tmp123, align 8
  %32 = load ptr, ptr %ret, align 8
  store ptr %32, ptr %agg.tmp126, align 8
  %bf.load.i.i78 = load i64, ptr %32, align 8
  %bf.lshr.i.i = lshr i64 %bf.load.i.i78, 40
  %33 = trunc i64 %bf.lshr.i.i to i32
  %bf.cast.i.i = and i32 %33, 1048575
  %cmp.i.i79 = icmp ult i32 %bf.cast.i.i, 1048574
  br i1 %cmp.i.i79, label %if.then.i.i82, label %if.else.i.i

if.then.i.i82:                                    ; preds = %cleanup.done118
  %bf.value.i.i83 = add i64 %bf.load.i.i78, 1099511627776
  %bf.shl.i.i84 = and i64 %bf.value.i.i83, 1152920405095219200
  %bf.clear7.i.i85 = and i64 %bf.load.i.i78, -1152920405095219201
  %bf.set.i.i86 = or disjoint i64 %bf.shl.i.i84, %bf.clear7.i.i85
  store i64 %bf.set.i.i86, ptr %32, align 8
  br label %invoke.cont128

if.else.i.i:                                      ; preds = %cleanup.done118
  %cmp12.i.i80 = icmp eq i32 %bf.cast.i.i, 1048574
  br i1 %cmp12.i.i80, label %if.then13.i.i81, label %invoke.cont128

if.then13.i.i81:                                  ; preds = %if.else.i.i
  %bf.set23.i.i = or i64 %bf.load.i.i78, 1152920405095219200
  store i64 %bf.set23.i.i, ptr %32, align 8
  invoke void @_ZN4cvc58internal4expr9NodeValue20markRefCountMaxedOutEv(ptr noundef nonnull align 8 dereferenceable(16) %32)
          to label %invoke.cont128 unwind label %lpad127

invoke.cont128:                                   ; preds = %if.else.i.i, %if.then.i.i82, %if.then13.i.i81
  invoke void @_ZN4cvc58internal9TrustNode14mkTrustRewriteENS0_12NodeTemplateILb0EEENS2_ILb1EEEPNS0_14ProofGeneratorE(ptr sret(%"class.cvc5::internal::TrustNode") align 8 %agg.result, ptr noundef nonnull %agg.tmp123, ptr noundef nonnull %agg.tmp126, ptr noundef null)
          to label %invoke.cont130 unwind label %lpad129

invoke.cont130:                                   ; preds = %invoke.cont128
  %34 = load ptr, ptr %agg.tmp126, align 8
  %bf.load.i.i87 = load i64, ptr %34, align 8
  %35 = and i64 %bf.load.i.i87, 1152920405095219200
  %cmp.not.i.i88 = icmp eq i64 %35, 1152920405095219200
  br i1 %cmp.not.i.i88, label %_ZN4cvc58internal12NodeTemplateILb1EED2Ev.exit97, label %if.then.i.i89

if.then.i.i89:                                    ; preds = %invoke.cont130
  %bf.value.i.i90 = add i64 %bf.load.i.i87, 1152920405095219200
  %bf.shl.i.i91 = and i64 %bf.value.i.i90, 1152920405095219200
  %bf.clear7.i.i92 = and i64 %bf.load.i.i87, -1152920405095219201
  %bf.set.i.i93 = or disjoint i64 %bf.shl.i.i91, %bf.clear7.i.i92
  store i64 %bf.set.i.i93, ptr %34, align 8
  %cmp12.i.i94 = icmp eq i64 %bf.shl.i.i91, 0
  br i1 %cmp12.i.i94, label %if.then13.i.i95, label %_ZN4cvc58internal12NodeTemplateILb1EED2Ev.exit97

if.then13.i.i95:                                  ; preds = %if.then.i.i89
  invoke void @_ZN4cvc58internal4expr9NodeValue15markForDeletionEv(ptr noundef nonnull align 8 dereferenceable(16) %34)
          to label %_ZN4cvc58internal12NodeTemplateILb1EED2Ev.exit97 unwind label %terminate.lpad.i96

terminate.lpad.i96:                               ; preds = %if.then13.i.i95
  %36 = landingpad { ptr, i32 }
          catch ptr null
  %37 = extractvalue { ptr, i32 } %36, 0
  call void @__clang_call_terminate(ptr %37) #24
  unreachable

_ZN4cvc58internal12NodeTemplateILb1EED2Ev.exit97: ; preds = %invoke.cont130, %if.then.i.i89, %if.then13.i.i95
  %38 = load ptr, ptr %ret, align 8
  %bf.load.i.i98 = load i64, ptr %38, align 8
  %39 = and i64 %bf.load.i.i98, 1152920405095219200
  %cmp.not.i.i99 = icmp eq i64 %39, 1152920405095219200
  br i1 %cmp.not.i.i99, label %return, label %if.then.i.i100

if.then.i.i100:                                   ; preds = %_ZN4cvc58internal12NodeTemplateILb1EED2Ev.exit97
  %bf.value.i.i101 = add i64 %bf.load.i.i98, 1152920405095219200
  %bf.shl.i.i102 = and i64 %bf.value.i.i101, 1152920405095219200
  %bf.clear7.i.i103 = and i64 %bf.load.i.i98, -1152920405095219201
  %bf.set.i.i104 = or disjoint i64 %bf.shl.i.i102, %bf.clear7.i.i103
  store i64 %bf.set.i.i104, ptr %38, align 8
  %cmp12.i.i105 = icmp eq i64 %bf.shl.i.i102, 0
  br i1 %cmp12.i.i105, label %if.then13.i.i106, label %return

if.then13.i.i106:                                 ; preds = %if.then.i.i100
  invoke void @_ZN4cvc58internal4expr9NodeValue15markForDeletionEv(ptr noundef nonnull align 8 dereferenceable(16) %38)
          to label %return unwind label %terminate.lpad.i107

terminate.lpad.i107:                              ; preds = %if.then13.i.i106
  %40 = landingpad { ptr, i32 }
          catch ptr null
  %41 = extractvalue { ptr, i32 } %40, 0
  call void @__clang_call_terminate(ptr %41) #24
  unreachable

lpad127:                                          ; preds = %if.then13.i.i81
  %42 = landingpad { ptr, i32 }
          cleanup
  br label %ehcleanup132

lpad129:                                          ; preds = %invoke.cont128
  %43 = landingpad { ptr, i32 }
          cleanup
  call void @_ZN4cvc58internal12NodeTemplateILb1EED2Ev(ptr noundef nonnull align 8 dereferenceable(8) %agg.tmp126) #22
  br label %ehcleanup132

ehcleanup132:                                     ; preds = %lpad129, %lpad127
  %.pn9 = phi { ptr, i32 } [ %43, %lpad129 ], [ %42, %lpad127 ]
  call void @_ZN4cvc58internal12NodeTemplateILb1EED2Ev(ptr noundef nonnull align 8 dereferenceable(8) %ret) #22
  br label %eh.resume

if.end136:                                        ; preds = %if.else90, %land.lhs.true
  br i1 %call8, label %if.then138, label %if.end182

if.then138:                                       ; preds = %if.then38, %if.then.thread, %if.then, %if.end136
  %d_ho = getelementptr inbounds %"class.cvc5::internal::theory::uf::TheoryUF", ptr %this, i64 0, i32 3
  %44 = load ptr, ptr %d_ho, align 8
  %45 = load ptr, ptr %node, align 8
  store ptr %45, ptr %agg.tmp140, align 8
  %bf.load.i.i109 = load i64, ptr %45, align 8
  %bf.lshr.i.i110 = lshr i64 %bf.load.i.i109, 40
  %46 = trunc i64 %bf.lshr.i.i110 to i32
  %bf.cast.i.i111 = and i32 %46, 1048575
  %cmp.i.i112 = icmp ult i32 %bf.cast.i.i111, 1048574
  br i1 %cmp.i.i112, label %if.then.i.i117, label %if.else.i.i113

if.then.i.i117:                                   ; preds = %if.then138
  %bf.value.i.i118 = add i64 %bf.load.i.i109, 1099511627776
  %bf.shl.i.i119 = and i64 %bf.value.i.i118, 1152920405095219200
  %bf.clear7.i.i120 = and i64 %bf.load.i.i109, -1152920405095219201
  %bf.set.i.i121 = or disjoint i64 %bf.shl.i.i119, %bf.clear7.i.i120
  store i64 %bf.set.i.i121, ptr %45, align 8
  br label %_ZN4cvc58internal12NodeTemplateILb1EEC2ERKNS1_ILb0EEE.exit

if.else.i.i113:                                   ; preds = %if.then138
  %cmp12.i.i114 = icmp eq i32 %bf.cast.i.i111, 1048574
  br i1 %cmp12.i.i114, label %if.then13.i.i115, label %_ZN4cvc58internal12NodeTemplateILb1EEC2ERKNS1_ILb0EEE.exit

if.then13.i.i115:                                 ; preds = %if.else.i.i113
  %bf.set23.i.i116 = or i64 %bf.load.i.i109, 1152920405095219200
  store i64 %bf.set23.i.i116, ptr %45, align 8
  call void @_ZN4cvc58internal4expr9NodeValue20markRefCountMaxedOutEv(ptr noundef nonnull align 8 dereferenceable(16) %45)
  br label %_ZN4cvc58internal12NodeTemplateILb1EEC2ERKNS1_ILb0EEE.exit

_ZN4cvc58internal12NodeTemplateILb1EEC2ERKNS1_ILb0EEE.exit: ; preds = %if.then.i.i117, %if.else.i.i113, %if.then13.i.i115
  invoke void @_ZN4cvc58internal6theory2uf11HoExtension9ppRewriteENS0_12NodeTemplateILb1EEERSt6vectorINS1_11SkolemLemmaESaIS7_EE(ptr sret(%"class.cvc5::internal::TrustNode") align 8 %agg.result, ptr noundef nonnull align 8 dereferenceable(376) %44, ptr noundef nonnull %agg.tmp140, ptr noundef nonnull align 1 %lems)
          to label %invoke.cont142 unwind label %lpad141

invoke.cont142:                                   ; preds = %_ZN4cvc58internal12NodeTemplateILb1EEC2ERKNS1_ILb0EEE.exit
  %47 = load ptr, ptr %agg.tmp140, align 8
  %bf.load.i.i122 = load i64, ptr %47, align 8
  %48 = and i64 %bf.load.i.i122, 1152920405095219200
  %cmp.not.i.i123 = icmp eq i64 %48, 1152920405095219200
  br i1 %cmp.not.i.i123, label %_ZN4cvc58internal12NodeTemplateILb1EED2Ev.exit132, label %if.then.i.i124

if.then.i.i124:                                   ; preds = %invoke.cont142
  %bf.value.i.i125 = add i64 %bf.load.i.i122, 1152920405095219200
  %bf.shl.i.i126 = and i64 %bf.value.i.i125, 1152920405095219200
  %bf.clear7.i.i127 = and i64 %bf.load.i.i122, -1152920405095219201
  %bf.set.i.i128 = or disjoint i64 %bf.shl.i.i126, %bf.clear7.i.i127
  store i64 %bf.set.i.i128, ptr %47, align 8
  %cmp12.i.i129 = icmp eq i64 %bf.shl.i.i126, 0
  br i1 %cmp12.i.i129, label %if.then13.i.i130, label %_ZN4cvc58internal12NodeTemplateILb1EED2Ev.exit132

if.then13.i.i130:                                 ; preds = %if.then.i.i124
  invoke void @_ZN4cvc58internal4expr9NodeValue15markForDeletionEv(ptr noundef nonnull align 8 dereferenceable(16) %47)
          to label %_ZN4cvc58internal12NodeTemplateILb1EED2Ev.exit132 unwind label %terminate.lpad.i131

terminate.lpad.i131:                              ; preds = %if.then13.i.i130
  %49 = landingpad { ptr, i32 }
          catch ptr null
  %50 = extractvalue { ptr, i32 } %49, 0
  call void @__clang_call_terminate(ptr %50) #24
  unreachable

_ZN4cvc58internal12NodeTemplateILb1EED2Ev.exit132: ; preds = %invoke.cont142, %if.then.i.i124, %if.then13.i.i130
  %call146 = invoke noundef zeroext i1 @_ZNK4cvc58internal9TrustNode6isNullEv(ptr noundef nonnull align 8 dereferenceable(24) %agg.result)
          to label %invoke.cont145 unwind label %lpad144

invoke.cont145:                                   ; preds = %_ZN4cvc58internal12NodeTemplateILb1EED2Ev.exit132
  br i1 %call146, label %nrvo.unused, label %return

lpad141:                                          ; preds = %_ZN4cvc58internal12NodeTemplateILb1EEC2ERKNS1_ILb0EEE.exit
  %51 = landingpad { ptr, i32 }
          cleanup
  call void @_ZN4cvc58internal12NodeTemplateILb1EED2Ev(ptr noundef nonnull align 8 dereferenceable(8) %agg.tmp140) #22
  br label %eh.resume

lpad144:                                          ; preds = %_ZN4cvc58internal12NodeTemplateILb1EED2Ev.exit132
  %52 = landingpad { ptr, i32 }
          cleanup
  call void @_ZN4cvc58internal9TrustNodeD2Ev(ptr noundef nonnull align 8 dereferenceable(24) %agg.result) #22
  br label %eh.resume

nrvo.unused:                                      ; preds = %invoke.cont145
  %d_proven.i = getelementptr inbounds %"class.cvc5::internal::TrustNode", ptr %agg.result, i64 0, i32 1
  %53 = load ptr, ptr %d_proven.i, align 8
  %bf.load.i.i.i = load i64, ptr %53, align 8
  %54 = and i64 %bf.load.i.i.i, 1152920405095219200
  %cmp.not.i.i.i = icmp eq i64 %54, 1152920405095219200
  br i1 %cmp.not.i.i.i, label %if.end182, label %if.then.i.i.i

if.then.i.i.i:                                    ; preds = %nrvo.unused
  %bf.value.i.i.i = add i64 %bf.load.i.i.i, 1152920405095219200
  %bf.shl.i.i.i = and i64 %bf.value.i.i.i, 1152920405095219200
  %bf.clear7.i.i.i = and i64 %bf.load.i.i.i, -1152920405095219201
  %bf.set.i.i.i = or disjoint i64 %bf.shl.i.i.i, %bf.clear7.i.i.i
  store i64 %bf.set.i.i.i, ptr %53, align 8
  %cmp12.i.i.i = icmp eq i64 %bf.shl.i.i.i, 0
  br i1 %cmp12.i.i.i, label %if.then13.i.i.i, label %if.end182

if.then13.i.i.i:                                  ; preds = %if.then.i.i.i
  invoke void @_ZN4cvc58internal4expr9NodeValue15markForDeletionEv(ptr noundef nonnull align 8 dereferenceable(16) %53)
          to label %if.end182 unwind label %terminate.lpad.i.i

terminate.lpad.i.i:                               ; preds = %if.then13.i.i.i
  %55 = landingpad { ptr, i32 }
          catch ptr null
  %56 = extractvalue { ptr, i32 } %55, 0
  call void @__clang_call_terminate(ptr %56) #24
  unreachable

if.end182:                                        ; preds = %nrvo.unused, %if.then.i.i.i, %if.then13.i.i.i, %cleanup.done57, %if.end136
  call void @_ZN4cvc58internal9TrustNode4nullEv(ptr sret(%"class.cvc5::internal::TrustNode") align 8 %agg.result)
  br label %return

return:                                           ; preds = %invoke.cont145, %if.then13.i.i106, %if.then.i.i100, %_ZN4cvc58internal12NodeTemplateILb1EED2Ev.exit97, %if.end182
  ret void

eh.resume:                                        ; preds = %cleanup.action60, %lpad144, %lpad141, %ehcleanup132, %ehcleanup88, %ehcleanup34
  %.pn19.pn = phi { ptr, i32 } [ %52, %lpad144 ], [ %51, %lpad141 ], [ %.pn16.pn, %ehcleanup34 ], [ %.pn13.pn, %ehcleanup88 ], [ %.pn11, %cleanup.action60 ], [ %.pn9, %ehcleanup132 ]
  resume { ptr, i32 } %.pn19.pn

unreachable:                                      ; preds = %invoke.cont81, %invoke.cont30
  unreachable
}

; Function Attrs: mustprogress uwtable
define linkonce_odr hidden void @_ZN4cvc58internal14LogicExceptionC2ERKNSt7__cxx1112basic_stringIcSt11char_traitsIcESaIcEEE(ptr noundef nonnull align 8 dereferenceable(40) %this, ptr noundef nonnull align 8 dereferenceable(32) %msg) unnamed_addr #3 comdat align 2 personality ptr @__gxx_personality_v0 {
entry:
  store ptr getelementptr inbounds ({ [6 x ptr] }, ptr @_ZTVN4cvc58internal9ExceptionE, i64 0, inrange i32 0, i64 2), ptr %this, align 8
  %d_msg.i = getelementptr inbounds %"class.cvc5::internal::Exception", ptr %this, i64 0, i32 1
  invoke void @_ZNSt7__cxx1112basic_stringIcSt11char_traitsIcESaIcEEC1ERKS4_(ptr noundef nonnull align 8 dereferenceable(32) %d_msg.i, ptr noundef nonnull align 8 dereferenceable(32) %msg)
          to label %_ZN4cvc58internal9ExceptionC2ERKNSt7__cxx1112basic_stringIcSt11char_traitsIcESaIcEEE.exit unwind label %lpad.i

lpad.i:                                           ; preds = %entry
  %0 = landingpad { ptr, i32 }
          cleanup
  tail call void @_ZNSt9exceptionD2Ev(ptr noundef nonnull align 8 dereferenceable(8) %this) #22
  resume { ptr, i32 } %0

_ZN4cvc58internal9ExceptionC2ERKNSt7__cxx1112basic_stringIcSt11char_traitsIcESaIcEEE.exit: ; preds = %entry
  store ptr getelementptr inbounds ({ [6 x ptr] }, ptr @_ZTVN4cvc58internal14LogicExceptionE, i64 0, inrange i32 0, i64 2), ptr %this, align 8
  ret void
}

; Function Attrs: mustprogress nounwind uwtable
define linkonce_odr hidden void @_ZN4cvc58internal14LogicExceptionD2Ev(ptr noundef nonnull align 8 dereferenceable(40) %this) unnamed_addr #7 comdat align 2 {
entry:
  store ptr getelementptr inbounds ({ [6 x ptr] }, ptr @_ZTVN4cvc58internal9ExceptionE, i64 0, inrange i32 0, i64 2), ptr %this, align 8
  %d_msg.i = getelementptr inbounds %"class.cvc5::internal::Exception", ptr %this, i64 0, i32 1
  tail call void @_ZNSt7__cxx1112basic_stringIcSt11char_traitsIcESaIcEED1Ev(ptr noundef nonnull align 8 dereferenceable(32) %d_msg.i) #22
  tail call void @_ZNSt9exceptionD2Ev(ptr noundef nonnull align 8 dereferenceable(8) %this) #22
  ret void
}

; Function Attrs: mustprogress uwtable
define hidden noundef zeroext i1 @_ZN4cvc58internal6theory2uf8TheoryUF17isHigherOrderTypeENS0_8TypeNodeE(ptr noundef nonnull align 8 dereferenceable(1736) %this, ptr noundef %tn) local_unnamed_addr #3 align 2 personality ptr @__gxx_personality_v0 {
entry:
  %ref.tmp9.i = alloca %"class.std::tuple.817", align 8
  %ref.tmp10.i = alloca %"class.std::tuple.800", align 1
  %ref.tmp7 = alloca %"class.std::vector.722", align 8
  %d_isHoType = getelementptr inbounds %"class.cvc5::internal::theory::uf::TheoryUF", ptr %this, i64 0, i32 13
  %_M_parent.i.i.i.i = getelementptr inbounds %"class.cvc5::internal::theory::uf::TheoryUF", ptr %this, i64 0, i32 13, i32 0, i32 0, i32 1, i32 0, i32 1
  %0 = load ptr, ptr %_M_parent.i.i.i.i, align 8
  %add.ptr.i.i.i = getelementptr inbounds %"class.cvc5::internal::theory::uf::TheoryUF", ptr %this, i64 0, i32 13, i32 0, i32 0, i32 1
  %cmp.not5.i.i.i = icmp eq ptr %0, null
  br i1 %cmp.not5.i.i.i, label %if.end, label %while.body.lr.ph.i.i.i

while.body.lr.ph.i.i.i:                           ; preds = %entry
  %1 = load ptr, ptr %tn, align 8
  %bf.load3.i.i.i.i.i = load i64, ptr %1, align 8
  %bf.clear4.i.i.i.i.i = and i64 %bf.load3.i.i.i.i.i, 1099511627775
  br label %while.body.i.i.i

while.body.i.i.i:                                 ; preds = %while.body.i.i.i, %while.body.lr.ph.i.i.i
  %__x.addr.07.i.i.i = phi ptr [ %0, %while.body.lr.ph.i.i.i ], [ %__x.addr.1.i.i.i, %while.body.i.i.i ]
  %__y.addr.06.i.i.i = phi ptr [ %add.ptr.i.i.i, %while.body.lr.ph.i.i.i ], [ %__y.addr.1.i.i.i, %while.body.i.i.i ]
  %_M_storage.i.i.i.i.i = getelementptr inbounds %"struct.std::_Rb_tree_node", ptr %__x.addr.07.i.i.i, i64 0, i32 1
  %2 = load ptr, ptr %_M_storage.i.i.i.i.i, align 8
  %bf.load.i.i.i.i.i = load i64, ptr %2, align 8
  %bf.clear.i.i.i.i.i = and i64 %bf.load.i.i.i.i.i, 1099511627775
  %cmp.i.i.i.i.i = icmp ult i64 %bf.clear.i.i.i.i.i, %bf.clear4.i.i.i.i.i
  %_M_right.i.i.i.i = getelementptr inbounds %"struct.std::_Rb_tree_node_base", ptr %__x.addr.07.i.i.i, i64 0, i32 3
  %_M_left.i.i.i.i = getelementptr inbounds %"struct.std::_Rb_tree_node_base", ptr %__x.addr.07.i.i.i, i64 0, i32 2
  %__y.addr.1.i.i.i = select i1 %cmp.i.i.i.i.i, ptr %__y.addr.06.i.i.i, ptr %__x.addr.07.i.i.i
  %__x.addr.1.in.i.i.i = select i1 %cmp.i.i.i.i.i, ptr %_M_right.i.i.i.i, ptr %_M_left.i.i.i.i
  %__x.addr.1.i.i.i = load ptr, ptr %__x.addr.1.in.i.i.i, align 8
  %cmp.not.i.i.i = icmp eq ptr %__x.addr.1.i.i.i, null
  br i1 %cmp.not.i.i.i, label %_ZNSt8_Rb_treeIN4cvc58internal8TypeNodeESt4pairIKS2_bESt10_Select1stIS5_ESt4lessIS2_ESaIS5_EE14_M_lower_boundEPSt13_Rb_tree_nodeIS5_EPSt18_Rb_tree_node_baseRS4_.exit.i.i, label %while.body.i.i.i, !llvm.loop !14

_ZNSt8_Rb_treeIN4cvc58internal8TypeNodeESt4pairIKS2_bESt10_Select1stIS5_ESt4lessIS2_ESaIS5_EE14_M_lower_boundEPSt13_Rb_tree_nodeIS5_EPSt18_Rb_tree_node_baseRS4_.exit.i.i: ; preds = %while.body.i.i.i
  %cmp.i.i.i = icmp eq ptr %__y.addr.1.i.i.i, %add.ptr.i.i.i
  br i1 %cmp.i.i.i, label %if.end, label %_ZNSt3mapIN4cvc58internal8TypeNodeEbSt4lessIS2_ESaISt4pairIKS2_bEEE4findERS6_.exit

_ZNSt3mapIN4cvc58internal8TypeNodeEbSt4lessIS2_ESaISt4pairIKS2_bEEE4findERS6_.exit: ; preds = %_ZNSt8_Rb_treeIN4cvc58internal8TypeNodeESt4pairIKS2_bESt10_Select1stIS5_ESt4lessIS2_ESaIS5_EE14_M_lower_boundEPSt13_Rb_tree_nodeIS5_EPSt18_Rb_tree_node_baseRS4_.exit.i.i
  %_M_storage.i.i.i3.i.i = getelementptr inbounds %"struct.std::_Rb_tree_node", ptr %__y.addr.1.i.i.i, i64 0, i32 1
  %3 = load ptr, ptr %_M_storage.i.i.i3.i.i, align 8
  %bf.load3.i.i.i.i = load i64, ptr %3, align 8
  %bf.clear4.i.i.i.i = and i64 %bf.load3.i.i.i.i, 1099511627775
  %cmp.i.i.i.i = icmp ult i64 %bf.clear4.i.i.i.i.i, %bf.clear4.i.i.i.i
  br i1 %cmp.i.i.i.i, label %if.end, label %if.then

if.then:                                          ; preds = %_ZNSt3mapIN4cvc58internal8TypeNodeEbSt4lessIS2_ESaISt4pairIKS2_bEEE4findERS6_.exit
  %second = getelementptr inbounds %"struct.std::_Rb_tree_node", ptr %__y.addr.1.i.i.i, i64 0, i32 1, i32 0, i64 8
  %4 = load i8, ptr %second, align 8
  %5 = and i8 %4, 1
  %tobool = icmp ne i8 %5, 0
  br label %return

if.end:                                           ; preds = %entry, %_ZNSt8_Rb_treeIN4cvc58internal8TypeNodeESt4pairIKS2_bESt10_Select1stIS5_ESt4lessIS2_ESaIS5_EE14_M_lower_boundEPSt13_Rb_tree_nodeIS5_EPSt18_Rb_tree_node_baseRS4_.exit.i.i, %_ZNSt3mapIN4cvc58internal8TypeNodeEbSt4lessIS2_ESaISt4pairIKS2_bEEE4findERS6_.exit
  call void @_ZNK4cvc58internal8TypeNode11getArgTypesEv(ptr nonnull sret(%"class.std::vector.722") align 8 %ref.tmp7, ptr noundef nonnull align 8 dereferenceable(8) %tn)
  %6 = load ptr, ptr %ref.tmp7, align 8
  %_M_finish.i = getelementptr inbounds %"struct.std::_Vector_base<cvc5::internal::TypeNode, std::allocator<cvc5::internal::TypeNode>>::_Vector_impl_data", ptr %ref.tmp7, i64 0, i32 1
  %7 = load ptr, ptr %_M_finish.i, align 8
  %cmp.i314.not = icmp eq ptr %6, %7
  br i1 %cmp.i314.not, label %for.end, label %invoke.cont

invoke.cont:                                      ; preds = %if.end, %invoke.cont
  %__begin3.sroa.0.015 = phi ptr [ %incdec.ptr.i, %invoke.cont ], [ %6, %if.end ]
  %8 = load ptr, ptr %__begin3.sroa.0.015, align 8
  %d_kind.i.i = getelementptr inbounds %"class.cvc5::internal::expr::NodeValue", ptr %8, i64 0, i32 1
  %bf.load.i.i = load i16, ptr %d_kind.i.i, align 8
  %bf.clear.i.i = and i16 %bf.load.i.i, 1023
  %cmp.i4 = icmp eq i16 %bf.clear.i.i, 25
  %incdec.ptr.i = getelementptr inbounds %"class.cvc5::internal::TypeNode", ptr %__begin3.sroa.0.015, i64 1
  %cmp.i3.not = icmp eq ptr %incdec.ptr.i, %7
  %or.cond = select i1 %cmp.i4, i1 true, i1 %cmp.i3.not
  br i1 %or.cond, label %for.end, label %invoke.cont

lpad:                                             ; preds = %if.then.i
  %9 = landingpad { ptr, i32 }
          cleanup
  call void @_ZNSt6vectorIN4cvc58internal8TypeNodeESaIS2_EED2Ev(ptr noundef nonnull align 8 dereferenceable(24) %ref.tmp7) #22
  resume { ptr, i32 } %9

for.end:                                          ; preds = %invoke.cont, %if.end
  %cmp.i3.lcssa = phi i1 [ false, %if.end ], [ %cmp.i4, %invoke.cont ]
  call void @llvm.lifetime.start.p0(i64 8, ptr nonnull %ref.tmp9.i)
  call void @llvm.lifetime.start.p0(i64 1, ptr nonnull %ref.tmp10.i)
  %10 = load ptr, ptr %_M_parent.i.i.i.i, align 8
  %cmp.not5.i.i.i.i = icmp eq ptr %10, null
  br i1 %cmp.not5.i.i.i.i, label %if.then.i, label %while.body.lr.ph.i.i.i.i

while.body.lr.ph.i.i.i.i:                         ; preds = %for.end
  %11 = load ptr, ptr %tn, align 8
  %bf.load3.i.i.i.i.i.i = load i64, ptr %11, align 8
  %bf.clear4.i.i.i.i.i.i = and i64 %bf.load3.i.i.i.i.i.i, 1099511627775
  br label %while.body.i.i.i.i

while.body.i.i.i.i:                               ; preds = %while.body.i.i.i.i, %while.body.lr.ph.i.i.i.i
  %__x.addr.07.i.i.i.i = phi ptr [ %10, %while.body.lr.ph.i.i.i.i ], [ %__x.addr.1.i.i.i.i, %while.body.i.i.i.i ]
  %__y.addr.06.i.i.i.i = phi ptr [ %add.ptr.i.i.i, %while.body.lr.ph.i.i.i.i ], [ %__y.addr.1.i.i.i.i, %while.body.i.i.i.i ]
  %_M_storage.i.i.i.i.i.i = getelementptr inbounds %"struct.std::_Rb_tree_node", ptr %__x.addr.07.i.i.i.i, i64 0, i32 1
  %12 = load ptr, ptr %_M_storage.i.i.i.i.i.i, align 8
  %bf.load.i.i.i.i.i.i = load i64, ptr %12, align 8
  %bf.clear.i.i.i.i.i.i = and i64 %bf.load.i.i.i.i.i.i, 1099511627775
  %cmp.i.i.i.i.i.i = icmp ult i64 %bf.clear.i.i.i.i.i.i, %bf.clear4.i.i.i.i.i.i
  %_M_right.i.i.i.i.i = getelementptr inbounds %"struct.std::_Rb_tree_node_base", ptr %__x.addr.07.i.i.i.i, i64 0, i32 3
  %_M_left.i.i.i.i.i = getelementptr inbounds %"struct.std::_Rb_tree_node_base", ptr %__x.addr.07.i.i.i.i, i64 0, i32 2
  %__y.addr.1.i.i.i.i = select i1 %cmp.i.i.i.i.i.i, ptr %__y.addr.06.i.i.i.i, ptr %__x.addr.07.i.i.i.i
  %__x.addr.1.in.i.i.i.i = select i1 %cmp.i.i.i.i.i.i, ptr %_M_right.i.i.i.i.i, ptr %_M_left.i.i.i.i.i
  %__x.addr.1.i.i.i.i = load ptr, ptr %__x.addr.1.in.i.i.i.i, align 8
  %cmp.not.i.i.i.i = icmp eq ptr %__x.addr.1.i.i.i.i, null
  br i1 %cmp.not.i.i.i.i, label %_ZNSt3mapIN4cvc58internal8TypeNodeEbSt4lessIS2_ESaISt4pairIKS2_bEEE11lower_boundERS6_.exit.i, label %while.body.i.i.i.i, !llvm.loop !14

_ZNSt3mapIN4cvc58internal8TypeNodeEbSt4lessIS2_ESaISt4pairIKS2_bEEE11lower_boundERS6_.exit.i: ; preds = %while.body.i.i.i.i
  %cmp.i.i = icmp eq ptr %__y.addr.1.i.i.i.i, %add.ptr.i.i.i
  br i1 %cmp.i.i, label %if.then.i, label %lor.rhs.i

lor.rhs.i:                                        ; preds = %_ZNSt3mapIN4cvc58internal8TypeNodeEbSt4lessIS2_ESaISt4pairIKS2_bEEE11lower_boundERS6_.exit.i
  %_M_storage.i.i.i = getelementptr inbounds %"struct.std::_Rb_tree_node", ptr %__y.addr.1.i.i.i.i, i64 0, i32 1
  %13 = load ptr, ptr %_M_storage.i.i.i, align 8
  %bf.load3.i.i.i = load i64, ptr %13, align 8
  %bf.clear4.i.i.i = and i64 %bf.load3.i.i.i, 1099511627775
  %cmp.i.i.i5 = icmp ult i64 %bf.clear4.i.i.i.i.i.i, %bf.clear4.i.i.i
  br i1 %cmp.i.i.i5, label %if.then.i, label %invoke.cont20

if.then.i:                                        ; preds = %lor.rhs.i, %_ZNSt3mapIN4cvc58internal8TypeNodeEbSt4lessIS2_ESaISt4pairIKS2_bEEE11lower_boundERS6_.exit.i, %for.end
  %__y.addr.0.lcssa.i.i.i9.i = phi ptr [ %add.ptr.i.i.i, %_ZNSt3mapIN4cvc58internal8TypeNodeEbSt4lessIS2_ESaISt4pairIKS2_bEEE11lower_boundERS6_.exit.i ], [ %__y.addr.1.i.i.i.i, %lor.rhs.i ], [ %add.ptr.i.i.i, %for.end ]
  store ptr %tn, ptr %ref.tmp9.i, align 8
  %call12.i6 = invoke ptr @_ZNSt8_Rb_treeIN4cvc58internal8TypeNodeESt4pairIKS2_bESt10_Select1stIS5_ESt4lessIS2_ESaIS5_EE22_M_emplace_hint_uniqueIJRKSt21piecewise_construct_tSt5tupleIJRS4_EESG_IJEEEEESt17_Rb_tree_iteratorIS5_ESt23_Rb_tree_const_iteratorIS5_EDpOT_(ptr noundef nonnull align 8 dereferenceable(48) %d_isHoType, ptr %__y.addr.0.lcssa.i.i.i9.i, ptr noundef nonnull align 1 dereferenceable(1) @_ZSt19piecewise_construct, ptr noundef nonnull align 8 dereferenceable(8) %ref.tmp9.i, ptr noundef nonnull align 1 dereferenceable(1) %ref.tmp10.i)
          to label %if.then.i.invoke.cont20_crit_edge unwind label %lpad

if.then.i.invoke.cont20_crit_edge:                ; preds = %if.then.i
  %.pre = load ptr, ptr %ref.tmp7, align 8
  %.pre18 = load ptr, ptr %_M_finish.i, align 8
  br label %invoke.cont20

invoke.cont20:                                    ; preds = %if.then.i.invoke.cont20_crit_edge, %lor.rhs.i
  %14 = phi ptr [ %7, %lor.rhs.i ], [ %.pre18, %if.then.i.invoke.cont20_crit_edge ]
  %15 = phi ptr [ %6, %lor.rhs.i ], [ %.pre, %if.then.i.invoke.cont20_crit_edge ]
  %__i.sroa.0.0.i = phi ptr [ %__y.addr.1.i.i.i.i, %lor.rhs.i ], [ %call12.i6, %if.then.i.invoke.cont20_crit_edge ]
  %second.i = getelementptr inbounds %"struct.std::_Rb_tree_node", ptr %__i.sroa.0.0.i, i64 0, i32 1, i32 0, i64 8
  call void @llvm.lifetime.end.p0(i64 8, ptr nonnull %ref.tmp9.i)
  call void @llvm.lifetime.end.p0(i64 1, ptr nonnull %ref.tmp10.i)
  %frombool = zext i1 %cmp.i3.lcssa to i8
  store i8 %frombool, ptr %second.i, align 1
  %cmp.not3.i.i.i.i = icmp eq ptr %15, %14
  br i1 %cmp.not3.i.i.i.i, label %invoke.cont.i, label %for.body.i.i.i.i

for.body.i.i.i.i:                                 ; preds = %invoke.cont20, %_ZSt8_DestroyIN4cvc58internal8TypeNodeEEvPT_.exit.i.i.i.i
  %__first.addr.04.i.i.i.i = phi ptr [ %incdec.ptr.i.i.i.i, %_ZSt8_DestroyIN4cvc58internal8TypeNodeEEvPT_.exit.i.i.i.i ], [ %15, %invoke.cont20 ]
  %16 = load ptr, ptr %__first.addr.04.i.i.i.i, align 8
  %bf.load.i.i.i.i.i.i.i = load i64, ptr %16, align 8
  %17 = and i64 %bf.load.i.i.i.i.i.i.i, 1152920405095219200
  %cmp.not.i.i.i.i.i.i.i = icmp eq i64 %17, 1152920405095219200
  br i1 %cmp.not.i.i.i.i.i.i.i, label %_ZSt8_DestroyIN4cvc58internal8TypeNodeEEvPT_.exit.i.i.i.i, label %if.then.i.i.i.i.i.i.i

if.then.i.i.i.i.i.i.i:                            ; preds = %for.body.i.i.i.i
  %bf.value.i.i.i.i.i.i.i = add i64 %bf.load.i.i.i.i.i.i.i, 1152920405095219200
  %bf.shl.i.i.i.i.i.i.i = and i64 %bf.value.i.i.i.i.i.i.i, 1152920405095219200
  %bf.clear7.i.i.i.i.i.i.i = and i64 %bf.load.i.i.i.i.i.i.i, -1152920405095219201
  %bf.set.i.i.i.i.i.i.i = or disjoint i64 %bf.shl.i.i.i.i.i.i.i, %bf.clear7.i.i.i.i.i.i.i
  store i64 %bf.set.i.i.i.i.i.i.i, ptr %16, align 8
  %cmp12.i.i.i.i.i.i.i = icmp eq i64 %bf.shl.i.i.i.i.i.i.i, 0
  br i1 %cmp12.i.i.i.i.i.i.i, label %if.then13.i.i.i.i.i.i.i, label %_ZSt8_DestroyIN4cvc58internal8TypeNodeEEvPT_.exit.i.i.i.i

if.then13.i.i.i.i.i.i.i:                          ; preds = %if.then.i.i.i.i.i.i.i
  invoke void @_ZN4cvc58internal4expr9NodeValue15markForDeletionEv(ptr noundef nonnull align 8 dereferenceable(16) %16)
          to label %_ZSt8_DestroyIN4cvc58internal8TypeNodeEEvPT_.exit.i.i.i.i unwind label %terminate.lpad.i.i.i.i.i.i

terminate.lpad.i.i.i.i.i.i:                       ; preds = %if.then13.i.i.i.i.i.i.i
  %18 = landingpad { ptr, i32 }
          catch ptr null
  %19 = extractvalue { ptr, i32 } %18, 0
  call void @__clang_call_terminate(ptr %19) #24
  unreachable

_ZSt8_DestroyIN4cvc58internal8TypeNodeEEvPT_.exit.i.i.i.i: ; preds = %if.then13.i.i.i.i.i.i.i, %if.then.i.i.i.i.i.i.i, %for.body.i.i.i.i
  %incdec.ptr.i.i.i.i = getelementptr inbounds %"class.cvc5::internal::TypeNode", ptr %__first.addr.04.i.i.i.i, i64 1
  %cmp.not.i.i.i.i8 = icmp eq ptr %incdec.ptr.i.i.i.i, %14
  br i1 %cmp.not.i.i.i.i8, label %invoke.contthread-pre-split.i, label %for.body.i.i.i.i, !llvm.loop !15

invoke.contthread-pre-split.i:                    ; preds = %_ZSt8_DestroyIN4cvc58internal8TypeNodeEEvPT_.exit.i.i.i.i
  %.pr.i = load ptr, ptr %ref.tmp7, align 8
  br label %invoke.cont.i

invoke.cont.i:                                    ; preds = %invoke.contthread-pre-split.i, %invoke.cont20
  %20 = phi ptr [ %.pr.i, %invoke.contthread-pre-split.i ], [ %14, %invoke.cont20 ]
  %tobool.not.i.i.i = icmp eq ptr %20, null
  br i1 %tobool.not.i.i.i, label %return, label %if.then.i.i.i

if.then.i.i.i:                                    ; preds = %invoke.cont.i
  call void @_ZdlPv(ptr noundef nonnull %20) #25
  br label %return

return:                                           ; preds = %if.then.i.i.i, %invoke.cont.i, %if.then
  %retval.0 = phi i1 [ %tobool, %if.then ], [ %cmp.i3.lcssa, %invoke.cont.i ], [ %cmp.i3.lcssa, %if.then.i.i.i ]
  ret i1 %retval.0
}

; Function Attrs: mustprogress uwtable
define linkonce_odr hidden void @_ZNK4cvc58internal12NodeTemplateILb0EE11getOperatorEv(ptr noalias sret(%"class.cvc5::internal::NodeTemplate") align 8 %agg.result, ptr noundef nonnull align 8 dereferenceable(8) %this) local_unnamed_addr #3 comdat align 2 personality ptr @__gxx_personality_v0 {
entry:
  %ref.tmp = alloca %"class.cvc5::internal::NodeTemplate.665", align 8
  %0 = load ptr, ptr %this, align 8
  %d_kind.i.i = getelementptr inbounds %"class.cvc5::internal::expr::NodeValue", ptr %0, i64 0, i32 1
  %bf.load.i.i = load i16, ptr %d_kind.i.i, align 8
  %bf.clear.i.i = and i16 %bf.load.i.i, 1023
  %bf.cast.i.i = zext nneg i16 %bf.clear.i.i to i32
