; ModuleID = 'bench/cvc5/original/theory_preprocessor.cpp.ll'
source_filename = "bench/cvc5/original/theory_preprocessor.cpp.ll"
target datalayout = "e-m:e-p270:32:32-p271:32:32-p272:64:64-i64:64-i128:128-f80:128-n8:16:32:64-S128"
target triple = "x86_64-unknown-linux-gnu"

%"class.std::ios_base::Init" = type { i8 }
%"class.cvc5::internal::NodeTemplate" = type { ptr }
%"class.std::__cxx11::basic_string" = type { %"struct.std::__cxx11::basic_string<char>::_Alloc_hider", i64, %union.anon }
%"struct.std::__cxx11::basic_string<char>::_Alloc_hider" = type { ptr }
%union.anon = type { i64, [8 x i8] }
%"class.std::allocator" = type { i8 }
%"class.std::vector.425" = type { %"struct.std::_Vector_base.426" }
%"struct.std::_Vector_base.426" = type { %"struct.std::_Vector_base<cvc5::internal::ProofGenerator *, std::allocator<cvc5::internal::ProofGenerator *>>::_Vector_impl" }
%"struct.std::_Vector_base<cvc5::internal::ProofGenerator *, std::allocator<cvc5::internal::ProofGenerator *>>::_Vector_impl" = type { %"struct.std::_Vector_base<cvc5::internal::ProofGenerator *, std::allocator<cvc5::internal::ProofGenerator *>>::_Vector_impl_data" }
%"struct.std::_Vector_base<cvc5::internal::ProofGenerator *, std::allocator<cvc5::internal::ProofGenerator *>>::_Vector_impl_data" = type { ptr, ptr, ptr }
%"class.cvc5::internal::theory::TheoryPreprocessor" = type { %"class.cvc5::internal::EnvObj", ptr, %"class.cvc5::context::CDInsertHashMap", %"class.cvc5::internal::RemoveTermFormulas", %"class.std::unique_ptr", %"class.std::unique_ptr", %"class.std::unique_ptr.11", %"class.std::unique_ptr.3", %"class.cvc5::internal::RtfTermContext", %"class.cvc5::internal::NodeTemplate" }
%"class.cvc5::internal::EnvObj" = type { ptr, ptr }
%"class.cvc5::context::CDInsertHashMap" = type { %"class.cvc5::context::ContextObj", ptr, i64 }
%"class.cvc5::context::ContextObj" = type { ptr, ptr, ptr, ptr, ptr }
%"class.cvc5::internal::RemoveTermFormulas" = type { %"class.cvc5::internal::EnvObj", %"class.cvc5::context::CDInsertHashMap", %"class.cvc5::context::CDInsertHashMap.0", %"class.std::unique_ptr", %"class.std::unique_ptr", %"class.std::unique_ptr.3", %"class.cvc5::internal::RtfTermContext" }
%"class.cvc5::context::CDInsertHashMap.0" = type { %"class.cvc5::context::ContextObj", ptr, i64 }
%"class.std::unique_ptr" = type { %"struct.std::__uniq_ptr_data" }
%"struct.std::__uniq_ptr_data" = type { %"class.std::__uniq_ptr_impl" }
%"class.std::__uniq_ptr_impl" = type { %"class.std::tuple" }
%"class.std::tuple" = type { %"struct.std::_Tuple_impl" }
%"struct.std::_Tuple_impl" = type { %"struct.std::_Head_base.2" }
%"struct.std::_Head_base.2" = type { ptr }
%"class.std::unique_ptr.11" = type { %"struct.std::__uniq_ptr_data.12" }
%"struct.std::__uniq_ptr_data.12" = type { %"class.std::__uniq_ptr_impl.13" }
%"class.std::__uniq_ptr_impl.13" = type { %"class.std::tuple.14" }
%"class.std::tuple.14" = type { %"struct.std::_Tuple_impl.15" }
%"struct.std::_Tuple_impl.15" = type { %"struct.std::_Head_base.18" }
%"struct.std::_Head_base.18" = type { ptr }
%"class.std::unique_ptr.3" = type { %"struct.std::__uniq_ptr_data.4" }
%"struct.std::__uniq_ptr_data.4" = type { %"class.std::__uniq_ptr_impl.5" }
%"class.std::__uniq_ptr_impl.5" = type { %"class.std::tuple.6" }
%"class.std::tuple.6" = type { %"struct.std::_Tuple_impl.7" }
%"struct.std::_Tuple_impl.7" = type { %"struct.std::_Head_base.10" }
%"struct.std::_Head_base.10" = type { ptr }
%"class.cvc5::internal::RtfTermContext" = type { %"class.cvc5::internal::TermContext" }
%"class.cvc5::internal::TermContext" = type { ptr }
%"class.cvc5::context::InsertHashMap" = type { %"class.std::deque.589", %"class.std::unordered_map.592" }
%"class.std::deque.589" = type { %"class.std::_Deque_base.590" }
%"class.std::_Deque_base.590" = type { %"struct.std::_Deque_base<std::pair<cvc5::internal::NodeTemplate<true>, unsigned int>, std::allocator<std::pair<cvc5::internal::NodeTemplate<true>, unsigned int>>>::_Deque_impl" }
%"struct.std::_Deque_base<std::pair<cvc5::internal::NodeTemplate<true>, unsigned int>, std::allocator<std::pair<cvc5::internal::NodeTemplate<true>, unsigned int>>>::_Deque_impl" = type { %"struct.std::_Deque_base<std::pair<cvc5::internal::NodeTemplate<true>, unsigned int>, std::allocator<std::pair<cvc5::internal::NodeTemplate<true>, unsigned int>>>::_Deque_impl_data" }
%"struct.std::_Deque_base<std::pair<cvc5::internal::NodeTemplate<true>, unsigned int>, std::allocator<std::pair<cvc5::internal::NodeTemplate<true>, unsigned int>>>::_Deque_impl_data" = type { ptr, i64, %"struct.std::_Deque_iterator.591", %"struct.std::_Deque_iterator.591" }
%"struct.std::_Deque_iterator.591" = type { ptr, ptr, ptr, ptr }
%"class.std::unordered_map.592" = type { %"class.std::_Hashtable.593" }
%"class.std::_Hashtable.593" = type { ptr, i64, %"struct.std::__detail::_Hash_node_base", i64, %"struct.std::__detail::_Prime_rehash_policy", ptr }
%"struct.std::__detail::_Hash_node_base" = type { ptr }
%"struct.std::__detail::_Prime_rehash_policy" = type { float, i64 }
%"class.cvc5::internal::expr::NodeValue" = type { i64, i16, i32, [0 x ptr] }
%"class.cvc5::internal::TrustNode" = type { i32, %"class.cvc5::internal::NodeTemplate", ptr }
%"class.cvc5::internal::NodeTemplate.449" = type { ptr }
%"class.std::vector.460" = type { %"struct.std::_Vector_base.461" }
%"struct.std::_Vector_base.461" = type { %"struct.std::_Vector_base<cvc5::internal::NodeTemplate<true>, std::allocator<cvc5::internal::NodeTemplate<true>>>::_Vector_impl" }
%"struct.std::_Vector_base<cvc5::internal::NodeTemplate<true>, std::allocator<cvc5::internal::NodeTemplate<true>>>::_Vector_impl" = type { %"struct.std::_Vector_base<cvc5::internal::NodeTemplate<true>, std::allocator<cvc5::internal::NodeTemplate<true>>>::_Vector_impl_data" }
%"struct.std::_Vector_base<cvc5::internal::NodeTemplate<true>, std::allocator<cvc5::internal::NodeTemplate<true>>>::_Vector_impl_data" = type { ptr, ptr, ptr }
%"struct.std::_Vector_base<cvc5::internal::theory::SkolemLemma, std::allocator<cvc5::internal::theory::SkolemLemma>>::_Vector_impl_data" = type { ptr, ptr, ptr }
%"class.cvc5::internal::theory::SkolemLemma" = type { %"class.cvc5::internal::TrustNode", %"class.cvc5::internal::NodeTemplate" }
%"struct.std::hash" = type { i8 }
%"class.cvc5::internal::NodeBuilder" = type <{ %"class.cvc5::internal::expr::NodeValue", [10 x ptr], ptr, ptr, i32, [4 x i8] }>
%"class.std::unordered_map.465" = type { %"class.std::_Hashtable.466" }
%"class.std::_Hashtable.466" = type { ptr, i64, %"struct.std::__detail::_Hash_node_base", i64, %"struct.std::__detail::_Prime_rehash_policy", ptr }
%"class.cvc5::internal::TCtxStack" = type { ptr, %"class.std::vector.484", ptr }
%"class.std::vector.484" = type { %"struct.std::_Vector_base.485" }
%"struct.std::_Vector_base.485" = type { %"struct.std::_Vector_base<std::pair<cvc5::internal::NodeTemplate<true>, unsigned int>, std::allocator<std::pair<cvc5::internal::NodeTemplate<true>, unsigned int>>>::_Vector_impl" }
%"struct.std::_Vector_base<std::pair<cvc5::internal::NodeTemplate<true>, unsigned int>, std::allocator<std::pair<cvc5::internal::NodeTemplate<true>, unsigned int>>>::_Vector_impl" = type { %"struct.std::_Vector_base<std::pair<cvc5::internal::NodeTemplate<true>, unsigned int>, std::allocator<std::pair<cvc5::internal::NodeTemplate<true>, unsigned int>>>::_Vector_impl_data" }
%"struct.std::_Vector_base<std::pair<cvc5::internal::NodeTemplate<true>, unsigned int>, std::allocator<std::pair<cvc5::internal::NodeTemplate<true>, unsigned int>>>::_Vector_impl_data" = type { ptr, ptr, ptr }
%"class.std::vector" = type { %"struct.std::_Bvector_base" }
%"struct.std::_Bvector_base" = type { %"struct.std::_Bvector_base<std::allocator<bool>>::_Bvector_impl" }
%"struct.std::_Bvector_base<std::allocator<bool>>::_Bvector_impl" = type { %"struct.std::_Bvector_base<std::allocator<bool>>::_Bvector_impl_data" }
%"struct.std::_Bvector_base<std::allocator<bool>>::_Bvector_impl_data" = type { %"struct.std::_Bit_iterator", %"struct.std::_Bit_iterator", ptr }
%"struct.std::_Bit_iterator" = type { %"struct.std::_Bit_iterator_base.base", [4 x i8] }
%"struct.std::_Bit_iterator_base.base" = type <{ ptr, i32 }>
%"struct.std::pair" = type <{ %"class.cvc5::internal::NodeTemplate", i32, [4 x i8] }>
%"struct.std::_Bit_iterator_base" = type <{ ptr, i32, [4 x i8] }>
%"class.cvc5::context::Context" = type { ptr, %"class.std::vector.370", ptr, ptr }
%"class.std::vector.370" = type { %"struct.std::_Vector_base.371" }
%"struct.std::_Vector_base.371" = type { %"struct.std::_Vector_base<cvc5::context::Scope *, std::allocator<cvc5::context::Scope *>>::_Vector_impl" }
%"struct.std::_Vector_base<cvc5::context::Scope *, std::allocator<cvc5::context::Scope *>>::_Vector_impl" = type { %"struct.std::_Vector_base<cvc5::context::Scope *, std::allocator<cvc5::context::Scope *>>::_Vector_impl_data" }
%"struct.std::_Vector_base<cvc5::context::Scope *, std::allocator<cvc5::context::Scope *>>::_Vector_impl_data" = type { ptr, ptr, ptr }
%"class.std::vector.450" = type { %"struct.std::_Vector_base.451" }
%"struct.std::_Vector_base.451" = type { %"struct.std::_Vector_base<cvc5::internal::theory::SkolemLemma, std::allocator<cvc5::internal::theory::SkolemLemma>>::_Vector_impl" }
%"struct.std::_Vector_base<cvc5::internal::theory::SkolemLemma, std::allocator<cvc5::internal::theory::SkolemLemma>>::_Vector_impl" = type { %"struct.std::_Vector_base<cvc5::internal::theory::SkolemLemma, std::allocator<cvc5::internal::theory::SkolemLemma>>::_Vector_impl_data" }
%struct._Guard = type { ptr }
%"class.cvc5::internal::FatalStream" = type { i8 }
%"struct.std::pair.643" = type { %"struct.std::pair", %"class.cvc5::internal::NodeTemplate" }
%"struct.std::_Hashtable<const std::pair<cvc5::internal::NodeTemplate<true>, unsigned int>, std::pair<const std::pair<cvc5::internal::NodeTemplate<true>, unsigned int>, const cvc5::internal::NodeTemplate<true>>, std::allocator<std::pair<const std::pair<cvc5::internal::NodeTemplate<true>, unsigned int>, const cvc5::internal::NodeTemplate<true>>>, std::__detail::_Select1st, std::equal_to<const std::pair<cvc5::internal::NodeTemplate<true>, unsigned int>>, cvc5::internal::PairHashFunction<cvc5::internal::NodeTemplate<true>, unsigned int>, std::__detail::_Mod_range_hashing, std::__detail::_Default_ranged_hash, std::__detail::_Prime_rehash_policy, std::__detail::_Hashtable_traits<true, false, true>>::_Scoped_node" = type { ptr, ptr }
%"class.std::tuple.651" = type { i8 }
%"class.std::tuple.648" = type { %"struct.std::_Tuple_impl.649" }
%"struct.std::_Tuple_impl.649" = type { %"struct.std::_Head_base.650" }
%"struct.std::_Head_base.650" = type { ptr }
%"struct.std::_Hashtable<std::pair<cvc5::internal::NodeTemplate<true>, unsigned int>, std::pair<const std::pair<cvc5::internal::NodeTemplate<true>, unsigned int>, cvc5::internal::NodeTemplate<true>>, std::allocator<std::pair<const std::pair<cvc5::internal::NodeTemplate<true>, unsigned int>, cvc5::internal::NodeTemplate<true>>>, std::__detail::_Select1st, std::equal_to<std::pair<cvc5::internal::NodeTemplate<true>, unsigned int>>, cvc5::internal::PairHashFunction<cvc5::internal::NodeTemplate<true>, unsigned int>, std::__detail::_Mod_range_hashing, std::__detail::_Default_ranged_hash, std::__detail::_Prime_rehash_policy, std::__detail::_Hashtable_traits<true, false, true>>::_Scoped_node" = type { ptr, ptr }
%"struct.std::pair.490" = type { %"struct.std::pair", %"class.cvc5::internal::NodeTemplate" }

$_ZN4cvc58internal12NodeTemplateILb1EED2Ev = comdat any

$_ZN4cvc57context15CDInsertHashMapISt4pairINS_8internal12NodeTemplateILb1EEEjES5_NS3_16PairHashFunctionIS5_jSt4hashIS5_ES8_IjEEEED2Ev = comdat any

$_ZN4cvc58internal9TrustNodeD2Ev = comdat any

$_ZNSt6vectorIN4cvc58internal12NodeTemplateILb1EEESaIS3_EED2Ev = comdat any

$_ZNSt4pairIN4cvc58internal12NodeTemplateILb1EEEjED2Ev = comdat any

$_ZN4cvc58internal6theory11SkolemLemmaD2Ev = comdat any

$_ZNK4cvc58internal12NodeTemplateILb1EE11getOperatorEv = comdat any

$_ZN4cvc58internal9TCtxStackD2Ev = comdat any

$_ZNSt13unordered_mapISt4pairIN4cvc58internal12NodeTemplateILb1EEEjES4_NS2_16PairHashFunctionIS4_jSt4hashIS4_ES7_IjEEESt8equal_toIS5_ESaIS0_IKS5_S4_EEED2Ev = comdat any

$_ZNSt6vectorIN4cvc58internal6theory11SkolemLemmaESaIS3_EED2Ev = comdat any

$_ZNK4cvc58internal12NodeTemplateILb1EE6eqNodeILb1EEES2_RKNS1_IXT_EEE = comdat any

$_ZN4cvc58internal12NodeTemplateILb1EE6s_nullE = comdat any

$__clang_call_terminate = comdat any

$_ZN4cvc58internal9TCtxStackD0Ev = comdat any

$_ZNSt8__detail16_Hashtable_allocISaINS_10_Hash_nodeISt4pairIKS2_IN4cvc58internal12NodeTemplateILb1EEEjES6_ELb1EEEEE18_M_deallocate_nodeEPSA_ = comdat any

$_ZNSt7__cxx1112basic_stringIcSt11char_traitsIcESaIcEE12_M_constructIPKcEEvT_S8_St20forward_iterator_tag = comdat any

$_ZZNSt7__cxx1112basic_stringIcSt11char_traitsIcESaIcEE12_M_constructIPKcEEvT_S8_St20forward_iterator_tagEN6_GuardD2Ev = comdat any

$_ZSt8_DestroyIPN4cvc58internal12NodeTemplateILb1EEES3_EvT_S5_RSaIT0_E = comdat any

$_ZSt8_DestroyIPN4cvc58internal12NodeTemplateILb1EEEEvT_S5_ = comdat any

$_ZN4cvc57context15CDInsertHashMapISt4pairINS_8internal12NodeTemplateILb1EEEjES5_NS3_16PairHashFunctionIS5_jSt4hashIS5_ES8_IjEEEE4saveEPNS0_20ContextMemoryManagerE = comdat any

$_ZN4cvc57context15CDInsertHashMapISt4pairINS_8internal12NodeTemplateILb1EEEjES5_NS3_16PairHashFunctionIS5_jSt4hashIS5_ES8_IjEEEE7restoreEPNS0_10ContextObjE = comdat any

$_ZN4cvc57context15CDInsertHashMapISt4pairINS_8internal12NodeTemplateILb1EEEjES5_NS3_16PairHashFunctionIS5_jSt4hashIS5_ES8_IjEEEED0Ev = comdat any

$_ZNSt11_Deque_baseISt4pairIN4cvc58internal12NodeTemplateILb1EEEjESaIS5_EE17_M_initialize_mapEm = comdat any

$_ZN4cvc57context10ContextObjD2Ev = comdat any

$_ZN4cvc57context10ContextObjD0Ev = comdat any

$_ZNSt5dequeISt4pairIN4cvc58internal12NodeTemplateILb1EEEjESaIS5_EE8pop_backEv = comdat any

$_ZNSt10_HashtableIKSt4pairIN4cvc58internal12NodeTemplateILb1EEEjES0_IS6_KS4_ESaIS8_ENSt8__detail10_Select1stESt8equal_toIS6_ENS2_16PairHashFunctionIS4_jSt4hashIS4_ESF_IjEEENSA_18_Mod_range_hashingENSA_20_Default_ranged_hashENSA_20_Prime_rehash_policyENSA_17_Hashtable_traitsILb1ELb0ELb1EEEE8_M_eraseESt17integral_constantIbLb1EERS6_ = comdat any

$_ZNSt8__detail16_Hashtable_allocISaINS_10_Hash_nodeISt4pairIKS2_IN4cvc58internal12NodeTemplateILb1EEEjEKS6_ELb1EEEEE18_M_deallocate_nodeEPSB_ = comdat any

$_ZN4cvc57context10ContextObjdlEPv = comdat any

$_ZNSt5dequeISt4pairIN4cvc58internal12NodeTemplateILb1EEEjESaIS5_EED2Ev = comdat any

$_ZNSt5dequeISt4pairIN4cvc58internal12NodeTemplateILb1EEEjESaIS5_EE19_M_destroy_data_auxESt15_Deque_iteratorIS5_RS5_PS5_ESB_ = comdat any

$_ZNSt6vectorIN4cvc58internal12NodeTemplateILb1EEESaIS3_EE17_M_realloc_insertIJS3_EEEvN9__gnu_cxx17__normal_iteratorIPS3_S5_EEDpOT_ = comdat any

$_ZNSt16allocator_traitsISaIN4cvc58internal12NodeTemplateILb1EEEEE7destroyIS3_EEvRS4_PT_ = comdat any

$_ZSt16__do_uninit_copyIPKN4cvc58internal12NodeTemplateILb1EEEPS3_ET0_T_S8_S7_ = comdat any

$_ZNSt6vectorIN4cvc58internal12NodeTemplateILb1EEESaIS3_EE17_M_realloc_insertIJRKS3_EEEvN9__gnu_cxx17__normal_iteratorIPS3_S5_EEDpOT_ = comdat any

$_ZNSt6vectorIbSaIbEE13_M_insert_auxESt13_Bit_iteratorb = comdat any

$_ZNSt6vectorIN4cvc58internal6theory11SkolemLemmaESaIS3_EE17_M_realloc_insertIJS3_EEEvN9__gnu_cxx17__normal_iteratorIPS3_S5_EEDpOT_ = comdat any

$_ZN4cvc58internal6theory11SkolemLemmaC2EOS2_ = comdat any

$_ZNSt16allocator_traitsISaIN4cvc58internal6theory11SkolemLemmaEEE7destroyIS3_EEvRS4_PT_ = comdat any

$_ZN4cvc58internal6theory11SkolemLemmaC2ERKS2_ = comdat any

$_ZNSt12_Destroy_auxILb0EE9__destroyIPN4cvc58internal6theory11SkolemLemmaEEEvT_S7_ = comdat any

$_ZN4cvc57context13InsertHashMapISt4pairINS_8internal12NodeTemplateILb1EEEjES5_NS3_16PairHashFunctionIS5_jSt4hashIS5_ES8_IjEEEE9push_backERKS6_RKS5_ = comdat any

$_ZNSt4pairIS_IN4cvc58internal12NodeTemplateILb1EEEjES3_ED2Ev = comdat any

$_ZNSt10_HashtableIKSt4pairIN4cvc58internal12NodeTemplateILb1EEEjES0_IS6_KS4_ESaIS8_ENSt8__detail10_Select1stESt8equal_toIS6_ENS2_16PairHashFunctionIS4_jSt4hashIS4_ESF_IjEEENSA_18_Mod_range_hashingENSA_20_Default_ranged_hashENSA_20_Prime_rehash_policyENSA_17_Hashtable_traitsILb1ELb0ELb1EEEE10_M_emplaceIJS0_IS5_S4_EEEES0_INSA_14_Node_iteratorIS8_Lb0ELb1EEEbESt17integral_constantIbLb1EEDpOT_ = comdat any

$_ZNSt10_HashtableIKSt4pairIN4cvc58internal12NodeTemplateILb1EEEjES0_IS6_KS4_ESaIS8_ENSt8__detail10_Select1stESt8equal_toIS6_ENS2_16PairHashFunctionIS4_jSt4hashIS4_ESF_IjEEENSA_18_Mod_range_hashingENSA_20_Default_ranged_hashENSA_20_Prime_rehash_policyENSA_17_Hashtable_traitsILb1ELb0ELb1EEEE21_M_insert_unique_nodeEmmPNSA_10_Hash_nodeIS8_Lb1EEEm = comdat any

$_ZNSt10_HashtableIKSt4pairIN4cvc58internal12NodeTemplateILb1EEEjES0_IS6_KS4_ESaIS8_ENSt8__detail10_Select1stESt8equal_toIS6_ENS2_16PairHashFunctionIS4_jSt4hashIS4_ESF_IjEEENSA_18_Mod_range_hashingENSA_20_Default_ranged_hashENSA_20_Prime_rehash_policyENSA_17_Hashtable_traitsILb1ELb0ELb1EEEE12_Scoped_nodeD2Ev = comdat any

$_ZNSt8__detail16_Hashtable_allocISaINS_10_Hash_nodeISt4pairIKS2_IN4cvc58internal12NodeTemplateILb1EEEjEKS6_ELb1EEEEE16_M_allocate_nodeIJS2_IS7_S6_EEEEPSB_DpOT_ = comdat any

$_ZNSt10_HashtableIKSt4pairIN4cvc58internal12NodeTemplateILb1EEEjES0_IS6_KS4_ESaIS8_ENSt8__detail10_Select1stESt8equal_toIS6_ENS2_16PairHashFunctionIS4_jSt4hashIS4_ESF_IjEEENSA_18_Mod_range_hashingENSA_20_Default_ranged_hashENSA_20_Prime_rehash_policyENSA_17_Hashtable_traitsILb1ELb0ELb1EEEE13_M_rehash_auxEmSt17integral_constantIbLb1EE = comdat any

$_ZNSt5dequeISt4pairIN4cvc58internal12NodeTemplateILb1EEEjESaIS5_EE16_M_push_back_auxIJRKS5_EEEvDpOT_ = comdat any

$_ZNSt5dequeISt4pairIN4cvc58internal12NodeTemplateILb1EEEjESaIS5_EE17_M_reallocate_mapEmb = comdat any

$_ZNSt10_HashtableISt4pairIN4cvc58internal12NodeTemplateILb1EEEjES0_IKS5_S4_ESaIS7_ENSt8__detail10_Select1stESt8equal_toIS5_ENS2_16PairHashFunctionIS4_jSt4hashIS4_ESE_IjEEENS9_18_Mod_range_hashingENS9_20_Default_ranged_hashENS9_20_Prime_rehash_policyENS9_17_Hashtable_traitsILb1ELb0ELb1EEEE8_M_eraseESt17integral_constantIbLb1EERS6_ = comdat any

$_ZNSt8__detail9_Map_baseISt4pairIN4cvc58internal12NodeTemplateILb1EEEjES1_IKS6_S5_ESaIS8_ENS_10_Select1stESt8equal_toIS6_ENS3_16PairHashFunctionIS5_jSt4hashIS5_ESE_IjEEENS_18_Mod_range_hashingENS_20_Default_ranged_hashENS_20_Prime_rehash_policyENS_17_Hashtable_traitsILb1ELb0ELb1EEELb1EEixERS7_ = comdat any

$_ZNSt10_HashtableISt4pairIN4cvc58internal12NodeTemplateILb1EEEjES0_IKS5_S4_ESaIS7_ENSt8__detail10_Select1stESt8equal_toIS5_ENS2_16PairHashFunctionIS4_jSt4hashIS4_ESE_IjEEENS9_18_Mod_range_hashingENS9_20_Default_ranged_hashENS9_20_Prime_rehash_policyENS9_17_Hashtable_traitsILb1ELb0ELb1EEEE21_M_insert_unique_nodeEmmPNS9_10_Hash_nodeIS7_Lb1EEEm = comdat any

$_ZNSt10_HashtableISt4pairIN4cvc58internal12NodeTemplateILb1EEEjES0_IKS5_S4_ESaIS7_ENSt8__detail10_Select1stESt8equal_toIS5_ENS2_16PairHashFunctionIS4_jSt4hashIS4_ESE_IjEEENS9_18_Mod_range_hashingENS9_20_Default_ranged_hashENS9_20_Prime_rehash_policyENS9_17_Hashtable_traitsILb1ELb0ELb1EEEE12_Scoped_nodeD2Ev = comdat any

$_ZNSt4pairIKS_IN4cvc58internal12NodeTemplateILb1EEEjES3_EC2IJRS5_EJLm0EEJETpTnmJEEERSt5tupleIJDpT_EERS9_IJDpT1_EESt12_Index_tupleIJXspT0_EEESI_IJXspT2_EEE = comdat any

$_ZNSt10_HashtableISt4pairIN4cvc58internal12NodeTemplateILb1EEEjES0_IKS5_S4_ESaIS7_ENSt8__detail10_Select1stESt8equal_toIS5_ENS2_16PairHashFunctionIS4_jSt4hashIS4_ESE_IjEEENS9_18_Mod_range_hashingENS9_20_Default_ranged_hashENS9_20_Prime_rehash_policyENS9_17_Hashtable_traitsILb1ELb0ELb1EEEE13_M_rehash_auxEmSt17integral_constantIbLb1EE = comdat any

$_ZNSt6vectorIN4cvc58internal6theory11SkolemLemmaESaIS3_EE15_M_range_insertIN9__gnu_cxx17__normal_iteratorIPS3_S5_EEEEvSA_T_SB_St20forward_iterator_tag = comdat any

$_ZN4cvc58internal6theory11SkolemLemmaaSEOS2_ = comdat any

$_ZN4cvc58internal6theory11SkolemLemmaaSERKS2_ = comdat any

$_ZTSN4cvc58internal6EnvObjE = comdat any

$_ZTIN4cvc58internal6EnvObjE = comdat any

$_ZTVN4cvc58internal9TCtxStackE = comdat any

$_ZTSN4cvc58internal9TCtxStackE = comdat any

$_ZTIN4cvc58internal9TCtxStackE = comdat any

$_ZZN4cvc58internal4expr9NodeValue4nullEvE6s_null = comdat any

$_ZGVZN4cvc58internal4expr9NodeValue4nullEvE6s_null = comdat any

$_ZTVN4cvc57context15CDInsertHashMapISt4pairINS_8internal12NodeTemplateILb1EEEjES5_NS3_16PairHashFunctionIS5_jSt4hashIS5_ES8_IjEEEEE = comdat any

$_ZTSN4cvc57context15CDInsertHashMapISt4pairINS_8internal12NodeTemplateILb1EEEjES5_NS3_16PairHashFunctionIS5_jSt4hashIS5_ES8_IjEEEEE = comdat any

$_ZTSN4cvc57context10ContextObjE = comdat any

$_ZTIN4cvc57context10ContextObjE = comdat any

$_ZTIN4cvc57context15CDInsertHashMapISt4pairINS_8internal12NodeTemplateILb1EEEjES5_NS3_16PairHashFunctionIS5_jSt4hashIS5_ES8_IjEEEEE = comdat any

$_ZTVN4cvc57context10ContextObjE = comdat any

@_ZStL8__ioinit = internal global %"class.std::ios_base::Init" zeroinitializer, align 1
@__dso_handle = external hidden global i8
@_ZTVN4cvc58internal6theory18TheoryPreprocessorE = hidden unnamed_addr constant { [4 x ptr] } { [4 x ptr] [ptr null, ptr @_ZTIN4cvc58internal6theory18TheoryPreprocessorE, ptr @_ZN4cvc58internal6theory18TheoryPreprocessorD2Ev, ptr @_ZN4cvc58internal6theory18TheoryPreprocessorD0Ev] }, align 8
@.str = private unnamed_addr constant [39 x i8] c"TheoryPreprocessor::preprocess_rewrite\00", align 1
@.str.2 = private unnamed_addr constant [26 x i8] c"TheoryPreprocessor::pprew\00", align 1
@.str.3 = private unnamed_addr constant [32 x i8] c"TheoryPreprocessor::LazyCDProof\00", align 1
@.str.4 = private unnamed_addr constant [29 x i8] c"TheoryPreprocessor::sequence\00", align 1
@.str.6 = private unnamed_addr constant [10 x i8] c"tpp-debug\00", align 1
@.str.12 = private unnamed_addr constant [30 x i8] c"TheoryPreprocessor::lemma_ret\00", align 1
@.str.17 = private unnamed_addr constant [25 x i8] c"LazyCDProof::addLazyStep\00", align 1
@.str.18 = private unnamed_addr constant [23 x i8] c"TheoryEngine::lemma_pp\00", align 1
@.str.32 = private unnamed_addr constant [40 x i8] c"TheoryPreprocessor::preprocessWithProof\00", align 1
@_ZTVN10__cxxabiv121__vmi_class_type_infoE = external global [0 x ptr]
@_ZTSN4cvc58internal6theory18TheoryPreprocessorE = hidden constant [44 x i8] c"N4cvc58internal6theory18TheoryPreprocessorE\00", align 1
@_ZTVN10__cxxabiv117__class_type_infoE = external global [0 x ptr]
@_ZTSN4cvc58internal6EnvObjE = linkonce_odr hidden constant [24 x i8] c"N4cvc58internal6EnvObjE\00", comdat, align 1
@_ZTIN4cvc58internal6EnvObjE = linkonce_odr hidden constant { ptr, ptr } { ptr getelementptr inbounds (ptr, ptr @_ZTVN10__cxxabiv117__class_type_infoE, i64 2), ptr @_ZTSN4cvc58internal6EnvObjE }, comdat, align 8
@_ZTIN4cvc58internal6theory18TheoryPreprocessorE = hidden constant { ptr, ptr, i32, i32, ptr, i64 } { ptr getelementptr inbounds (ptr, ptr @_ZTVN10__cxxabiv121__vmi_class_type_infoE, i64 2), ptr @_ZTSN4cvc58internal6theory18TheoryPreprocessorE, i32 0, i32 1, ptr @_ZTIN4cvc58internal6EnvObjE, i64 0 }, align 8
@_ZN4cvc58internal12NodeTemplateILb1EE6s_nullE = linkonce_odr hidden global %"class.cvc5::internal::NodeTemplate" zeroinitializer, comdat, align 8
@_ZGVN4cvc58internal12NodeTemplateILb1EE6s_nullE = linkonce_odr hidden local_unnamed_addr global i64 0, comdat($_ZN4cvc58internal12NodeTemplateILb1EE6s_nullE), align 8
@_ZTVN4cvc58internal14RtfTermContextE = external unnamed_addr constant { [7 x ptr] }, align 8
@_ZTVN4cvc58internal9TCtxStackE = linkonce_odr hidden unnamed_addr constant { [4 x ptr] } { [4 x ptr] [ptr null, ptr @_ZTIN4cvc58internal9TCtxStackE, ptr @_ZN4cvc58internal9TCtxStackD2Ev, ptr @_ZN4cvc58internal9TCtxStackD0Ev] }, comdat, align 8
@_ZTSN4cvc58internal9TCtxStackE = linkonce_odr hidden constant [27 x i8] c"N4cvc58internal9TCtxStackE\00", comdat, align 1
@_ZTIN4cvc58internal9TCtxStackE = linkonce_odr hidden constant { ptr, ptr } { ptr getelementptr inbounds (ptr, ptr @_ZTVN10__cxxabiv117__class_type_infoE, i64 2), ptr @_ZTSN4cvc58internal9TCtxStackE }, comdat, align 8
@_ZZN4cvc58internal4expr9NodeValue4nullEvE6s_null = linkonce_odr local_unnamed_addr global ptr null, comdat, align 8
@_ZGVZN4cvc58internal4expr9NodeValue4nullEvE6s_null = linkonce_odr global i64 0, comdat, align 8
@_ZTVN4cvc57context15CDInsertHashMapISt4pairINS_8internal12NodeTemplateILb1EEEjES5_NS3_16PairHashFunctionIS5_jSt4hashIS5_ES8_IjEEEEE = linkonce_odr hidden unnamed_addr constant { [6 x ptr] } { [6 x ptr] [ptr null, ptr @_ZTIN4cvc57context15CDInsertHashMapISt4pairINS_8internal12NodeTemplateILb1EEEjES5_NS3_16PairHashFunctionIS5_jSt4hashIS5_ES8_IjEEEEE, ptr @_ZN4cvc57context15CDInsertHashMapISt4pairINS_8internal12NodeTemplateILb1EEEjES5_NS3_16PairHashFunctionIS5_jSt4hashIS5_ES8_IjEEEE4saveEPNS0_20ContextMemoryManagerE, ptr @_ZN4cvc57context15CDInsertHashMapISt4pairINS_8internal12NodeTemplateILb1EEEjES5_NS3_16PairHashFunctionIS5_jSt4hashIS5_ES8_IjEEEE7restoreEPNS0_10ContextObjE, ptr @_ZN4cvc57context15CDInsertHashMapISt4pairINS_8internal12NodeTemplateILb1EEEjES5_NS3_16PairHashFunctionIS5_jSt4hashIS5_ES8_IjEEEED2Ev, ptr @_ZN4cvc57context15CDInsertHashMapISt4pairINS_8internal12NodeTemplateILb1EEEjES5_NS3_16PairHashFunctionIS5_jSt4hashIS5_ES8_IjEEEED0Ev] }, comdat, align 8
@_ZTVN10__cxxabiv120__si_class_type_infoE = external global [0 x ptr]
@_ZTSN4cvc57context15CDInsertHashMapISt4pairINS_8internal12NodeTemplateILb1EEEjES5_NS3_16PairHashFunctionIS5_jSt4hashIS5_ES8_IjEEEEE = linkonce_odr hidden constant [128 x i8] c"N4cvc57context15CDInsertHashMapISt4pairINS_8internal12NodeTemplateILb1EEEjES5_NS3_16PairHashFunctionIS5_jSt4hashIS5_ES8_IjEEEEE\00", comdat, align 1
@_ZTSN4cvc57context10ContextObjE = linkonce_odr constant [28 x i8] c"N4cvc57context10ContextObjE\00", comdat, align 1
@_ZTIN4cvc57context10ContextObjE = linkonce_odr constant { ptr, ptr } { ptr getelementptr inbounds (ptr, ptr @_ZTVN10__cxxabiv117__class_type_infoE, i64 2), ptr @_ZTSN4cvc57context10ContextObjE }, comdat, align 8
@_ZTIN4cvc57context15CDInsertHashMapISt4pairINS_8internal12NodeTemplateILb1EEEjES5_NS3_16PairHashFunctionIS5_jSt4hashIS5_ES8_IjEEEEE = linkonce_odr hidden constant { ptr, ptr, ptr } { ptr getelementptr inbounds (ptr, ptr @_ZTVN10__cxxabiv120__si_class_type_infoE, i64 2), ptr @_ZTSN4cvc57context15CDInsertHashMapISt4pairINS_8internal12NodeTemplateILb1EEEjES5_NS3_16PairHashFunctionIS5_jSt4hashIS5_ES8_IjEEEEE, ptr @_ZTIN4cvc57context10ContextObjE }, comdat, align 8
@_ZTVN4cvc57context10ContextObjE = linkonce_odr unnamed_addr constant { [6 x ptr] } { [6 x ptr] [ptr null, ptr @_ZTIN4cvc57context10ContextObjE, ptr @__cxa_pure_virtual, ptr @__cxa_pure_virtual, ptr @_ZN4cvc57context10ContextObjD2Ev, ptr @_ZN4cvc57context10ContextObjD0Ev] }, comdat, align 8
@__PRETTY_FUNCTION__._ZN4cvc57context10ContextObjdlEPv = private unnamed_addr constant [63 x i8] c"static void cvc5::context::ContextObj::operator delete(void *)\00", align 1
@.str.40 = private unnamed_addr constant [109 x i8] c"generated/home/dtcxzyw/WorkSpace/Projects/compilers/llvm-opt-benchmark/bench/cvc5/cvc5/src/context/context.h\00", align 1
@.str.41 = private unnamed_addr constant [17 x i8] c"Check failure\0A\0A \00", align 1
@.str.42 = private unnamed_addr constant [6 x i8] c"false\00", align 1
@.str.43 = private unnamed_addr constant [2 x i8] c"\0A\00", align 1
@.str.44 = private unnamed_addr constant [51 x i8] c"It is not allowed to delete a ContextObj this way!\00", align 1
@.str.45 = private unnamed_addr constant [26 x i8] c"vector::_M_realloc_insert\00", align 1
@.str.46 = private unnamed_addr constant [28 x i8] c"vector<bool>::_M_insert_aux\00", align 1
@.str.47 = private unnamed_addr constant [48 x i8] c"cannot create std::deque larger than max_size()\00", align 1
@.str.49 = private unnamed_addr constant [24 x i8] c"vector::_M_range_insert\00", align 1
@llvm.global_ctors = appending global [2 x { i32, ptr, ptr }] [{ i32, ptr, ptr } { i32 65535, ptr @__cxx_global_var_init.34, ptr @_ZN4cvc58internal12NodeTemplateILb1EE6s_nullE }, { i32, ptr, ptr } { i32 65535, ptr @_GLOBAL__sub_I_theory_preprocessor.cpp, ptr null }]
@llvm.used = appending global [1 x ptr] [ptr @_ZN4cvc58internal12NodeTemplateILb1EE6s_nullE], section "llvm.metadata"

@_ZN4cvc58internal6theory18TheoryPreprocessorC1ERNS0_3EnvERNS0_12TheoryEngineE = hidden unnamed_addr alias void (ptr, ptr, ptr), ptr @_ZN4cvc58internal6theory18TheoryPreprocessorC2ERNS0_3EnvERNS0_12TheoryEngineE
@_ZN4cvc58internal6theory18TheoryPreprocessorD1Ev = hidden unnamed_addr alias void (ptr), ptr @_ZN4cvc58internal6theory18TheoryPreprocessorD2Ev

declare void @_ZNSt8ios_base4InitC1Ev(ptr noundef nonnull align 1 dereferenceable(1)) unnamed_addr #0

; Function Attrs: nounwind
declare void @_ZNSt8ios_base4InitD1Ev(ptr noundef nonnull align 1 dereferenceable(1)) unnamed_addr #1

; Function Attrs: nofree nounwind
declare i32 @__cxa_atexit(ptr, ptr, ptr) local_unnamed_addr #2

; Function Attrs: mustprogress uwtable
define hidden void @_ZN4cvc58internal6theory18TheoryPreprocessorC2ERNS0_3EnvERNS0_12TheoryEngineE(ptr noundef nonnull align 8 dereferenceable(288) %this, ptr noundef nonnull align 8 dereferenceable(576) %env, ptr noundef nonnull align 8 dereferenceable(1448) %engine) unnamed_addr #3 align 2 personality ptr @__gxx_personality_v0 {
entry:
  %agg.tmp = alloca %"class.std::__cxx11::basic_string", align 8
  %ref.tmp = alloca %"class.std::allocator", align 1
  %agg.tmp26 = alloca %"class.std::__cxx11::basic_string", align 8
  %ref.tmp27 = alloca %"class.std::allocator", align 1
  %ref.tmp42 = alloca %"class.std::__cxx11::basic_string", align 8
  %ref.tmp43 = alloca %"class.std::allocator", align 1
  %ts = alloca %"class.std::vector.425", align 8
  %agg.tmp74 = alloca %"class.std::__cxx11::basic_string", align 8
  %ref.tmp75 = alloca %"class.std::allocator", align 1
  %ref.tmp87 = alloca %"class.cvc5::internal::NodeTemplate", align 8
  tail call void @_ZN4cvc58internal6EnvObjC2ERNS0_3EnvE(ptr noundef nonnull align 8 dereferenceable(16) %this, ptr noundef nonnull align 8 dereferenceable(576) %env)
  store ptr getelementptr inbounds ({ [4 x ptr] }, ptr @_ZTVN4cvc58internal6theory18TheoryPreprocessorE, i64 0, inrange i32 0, i64 2), ptr %this, align 8
  %d_engine = getelementptr inbounds %"class.cvc5::internal::theory::TheoryPreprocessor", ptr %this, i64 0, i32 1
  store ptr %engine, ptr %d_engine, align 8
  %d_cache = getelementptr inbounds %"class.cvc5::internal::theory::TheoryPreprocessor", ptr %this, i64 0, i32 2
  %call = tail call noundef ptr @_ZNK4cvc58internal6EnvObj11userContextEv(ptr noundef nonnull align 8 dereferenceable(16) %this)
  tail call void @_ZN4cvc57context10ContextObjC2EPNS0_7ContextE(ptr noundef nonnull align 8 dereferenceable(40) %d_cache, ptr noundef %call)
  store ptr getelementptr inbounds ({ [6 x ptr] }, ptr @_ZTVN4cvc57context15CDInsertHashMapISt4pairINS_8internal12NodeTemplateILb1EEEjES5_NS3_16PairHashFunctionIS5_jSt4hashIS5_ES8_IjEEEEE, i64 0, inrange i32 0, i64 2), ptr %d_cache, align 8
  %call.i25 = tail call noalias noundef nonnull dereferenceable(136) ptr @_Znwm(i64 noundef 136) #20
  tail call void @llvm.memset.p0.i64(ptr noundef nonnull align 8 dereferenceable(136) %call.i25, i8 0, i64 136, i1 false)
  invoke void @_ZNSt11_Deque_baseISt4pairIN4cvc58internal12NodeTemplateILb1EEEjESaIS5_EE17_M_initialize_mapEm(ptr noundef nonnull align 8 dereferenceable(80) %call.i25, i64 noundef 0)
          to label %invoke.cont2 unwind label %lpad2.i

lpad2.i:                                          ; preds = %entry
  %0 = landingpad { ptr, i32 }
          cleanup
  tail call void @_ZdlPv(ptr noundef nonnull %call.i25) #21
  br label %ehcleanup103

invoke.cont2:                                     ; preds = %entry
  %d_hashMap.i.i = getelementptr inbounds %"class.cvc5::context::InsertHashMap", ptr %call.i25, i64 0, i32 1
  %_M_single_bucket.i.i.i.i = getelementptr inbounds %"class.cvc5::context::InsertHashMap", ptr %call.i25, i64 0, i32 1, i32 0, i32 5
  store ptr %_M_single_bucket.i.i.i.i, ptr %d_hashMap.i.i, align 8
  %_M_bucket_count.i.i.i.i = getelementptr inbounds %"class.cvc5::context::InsertHashMap", ptr %call.i25, i64 0, i32 1, i32 0, i32 1
  store i64 1, ptr %_M_bucket_count.i.i.i.i, align 8
  %_M_before_begin.i.i.i.i = getelementptr inbounds %"class.cvc5::context::InsertHashMap", ptr %call.i25, i64 0, i32 1, i32 0, i32 2
  %_M_rehash_policy.i.i.i.i = getelementptr inbounds %"class.cvc5::context::InsertHashMap", ptr %call.i25, i64 0, i32 1, i32 0, i32 4
  tail call void @llvm.memset.p0.i64(ptr noundef nonnull align 8 dereferenceable(16) %_M_before_begin.i.i.i.i, i8 0, i64 16, i1 false)
  store float 1.000000e+00, ptr %_M_rehash_policy.i.i.i.i, align 8
  %_M_next_resize.i.i.i.i.i = getelementptr inbounds %"class.cvc5::context::InsertHashMap", ptr %call.i25, i64 0, i32 1, i32 0, i32 4, i32 1
  tail call void @llvm.memset.p0.i64(ptr noundef nonnull align 8 dereferenceable(16) %_M_next_resize.i.i.i.i.i, i8 0, i64 16, i1 false)
  %d_insertMap.i = getelementptr inbounds %"class.cvc5::internal::theory::TheoryPreprocessor", ptr %this, i64 0, i32 2, i32 1
  store ptr %call.i25, ptr %d_insertMap.i, align 8
  %d_size.i = getelementptr inbounds %"class.cvc5::internal::theory::TheoryPreprocessor", ptr %this, i64 0, i32 2, i32 2
  store i64 0, ptr %d_size.i, align 8
  %d_tfr = getelementptr inbounds %"class.cvc5::internal::theory::TheoryPreprocessor", ptr %this, i64 0, i32 3
  invoke void @_ZN4cvc58internal18RemoveTermFormulasC1ERNS0_3EnvE(ptr noundef nonnull align 8 dereferenceable(160) %d_tfr, ptr noundef nonnull align 8 dereferenceable(576) %env)
          to label %invoke.cont6 unwind label %lpad3

invoke.cont6:                                     ; preds = %invoke.cont2
  %d_tpg = getelementptr inbounds %"class.cvc5::internal::theory::TheoryPreprocessor", ptr %this, i64 0, i32 4
  %d_tpgRew = getelementptr inbounds %"class.cvc5::internal::theory::TheoryPreprocessor", ptr %this, i64 0, i32 5
  %d_tspg = getelementptr inbounds %"class.cvc5::internal::theory::TheoryPreprocessor", ptr %this, i64 0, i32 6
  %d_lp = getelementptr inbounds %"class.cvc5::internal::theory::TheoryPreprocessor", ptr %this, i64 0, i32 7
  %d_rtfc = getelementptr inbounds %"class.cvc5::internal::theory::TheoryPreprocessor", ptr %this, i64 0, i32 8
  tail call void @llvm.memset.p0.i64(ptr noundef nonnull align 8 dereferenceable(32) %d_tpg, i8 0, i64 32, i1 false)
  store ptr getelementptr inbounds ({ [7 x ptr] }, ptr @_ZTVN4cvc58internal14RtfTermContextE, i64 0, inrange i32 0, i64 2), ptr %d_rtfc, align 8
  %d_tpid = getelementptr inbounds %"class.cvc5::internal::theory::TheoryPreprocessor", ptr %this, i64 0, i32 9
  %1 = load atomic i8, ptr @_ZGVZN4cvc58internal4expr9NodeValue4nullEvE6s_null acquire, align 8
  %guard.uninitialized.i.i = icmp eq i8 %1, 0
  br i1 %guard.uninitialized.i.i, label %init.check.i.i, label %invoke.cont8, !prof !4

init.check.i.i:                                   ; preds = %invoke.cont6
  %2 = tail call i32 @__cxa_guard_acquire(ptr nonnull @_ZGVZN4cvc58internal4expr9NodeValue4nullEvE6s_null) #22
  %tobool.not.i.i = icmp eq i32 %2, 0
  br i1 %tobool.not.i.i, label %invoke.cont8, label %init.i.i

init.i.i:                                         ; preds = %init.check.i.i
  %call.i.i = invoke noalias noundef nonnull dereferenceable(16) ptr @_Znwm(i64 noundef 16) #20
          to label %invoke.cont.i.i unwind label %lpad.i.i

invoke.cont.i.i:                                  ; preds = %init.i.i
  store i64 1152920405095219200, ptr %call.i.i, align 8
  %d_kind.i.i.i = getelementptr inbounds %"class.cvc5::internal::expr::NodeValue", ptr %call.i.i, i64 0, i32 1
  store i16 0, ptr %d_kind.i.i.i, align 8
  %d_nchildren.i.i.i = getelementptr inbounds %"class.cvc5::internal::expr::NodeValue", ptr %call.i.i, i64 0, i32 2
  store i32 0, ptr %d_nchildren.i.i.i, align 4
  store ptr %call.i.i, ptr @_ZZN4cvc58internal4expr9NodeValue4nullEvE6s_null, align 8
  tail call void @__cxa_guard_release(ptr nonnull @_ZGVZN4cvc58internal4expr9NodeValue4nullEvE6s_null) #22
  br label %invoke.cont8

lpad.i.i:                                         ; preds = %init.i.i
  %3 = landingpad { ptr, i32 }
          cleanup
  tail call void @__cxa_guard_abort(ptr nonnull @_ZGVZN4cvc58internal4expr9NodeValue4nullEvE6s_null) #22
  br label %ehcleanup97

invoke.cont8:                                     ; preds = %invoke.cont.i.i, %init.check.i.i, %invoke.cont6
  %4 = load ptr, ptr @_ZZN4cvc58internal4expr9NodeValue4nullEvE6s_null, align 8
  store ptr %4, ptr %d_tpid, align 8
  %call11 = invoke noundef ptr @_ZN4cvc58internal3Env19getProofNodeManagerEv(ptr noundef nonnull align 8 dereferenceable(576) %env)
          to label %invoke.cont10 unwind label %lpad9

invoke.cont10:                                    ; preds = %invoke.cont8
  %cmp.not = icmp eq ptr %call11, null
  br i1 %cmp.not, label %if.end, label %if.then

if.then:                                          ; preds = %invoke.cont10
  %call13 = invoke noundef ptr @_ZNK4cvc58internal6EnvObj11userContextEv(ptr noundef nonnull align 8 dereferenceable(16) %this)
          to label %invoke.cont12 unwind label %lpad9

invoke.cont12:                                    ; preds = %if.then
  %call16 = invoke noalias noundef nonnull dereferenceable(808) ptr @_Znwm(i64 noundef 808) #20
          to label %invoke.cont15 unwind label %lpad9

invoke.cont15:                                    ; preds = %invoke.cont12
  call void @_ZNSaIcEC1Ev(ptr noundef nonnull align 1 dereferenceable(1) %ref.tmp) #22
  %call.i29 = invoke noundef ptr @_ZNSt7__cxx1112basic_stringIcSt11char_traitsIcESaIcEE13_M_local_dataEv(ptr noundef nonnull align 8 dereferenceable(32) %agg.tmp)
          to label %call.i.noexc28 unwind label %lpad17

call.i.noexc28:                                   ; preds = %invoke.cont15
  invoke void @_ZNSt7__cxx1112basic_stringIcSt11char_traitsIcESaIcEE12_Alloc_hiderC1EPcRKS3_(ptr noundef nonnull align 8 dereferenceable(8) %agg.tmp, ptr noundef %call.i29, ptr noundef nonnull align 1 dereferenceable(1) %ref.tmp)
          to label %.noexc30 unwind label %lpad17

.noexc30:                                         ; preds = %call.i.noexc28
  invoke void @_ZNSt7__cxx1112basic_stringIcSt11char_traitsIcESaIcEE12_M_constructIPKcEEvT_S8_St20forward_iterator_tag(ptr noundef nonnull align 8 dereferenceable(32) %agg.tmp, ptr noundef nonnull @.str, ptr noundef nonnull getelementptr inbounds ([39 x i8], ptr @.str, i64 0, i64 38))
          to label %invoke.cont18 unwind label %lpad.i

lpad.i:                                           ; preds = %.noexc30
  %5 = landingpad { ptr, i32 }
          cleanup
  call void @_ZNSaIcED2Ev(ptr noundef nonnull align 1 dereferenceable(1) %agg.tmp) #22
  br label %ehcleanup

invoke.cont18:                                    ; preds = %.noexc30
  invoke void @_ZN4cvc58internal19TConvProofGeneratorC1ERNS0_3EnvEPNS_7context7ContextENS0_11TConvPolicyENS0_16TConvCachePolicyENSt7__cxx1112basic_stringIcSt11char_traitsIcESaIcEEEPNS0_11TermContextEb(ptr noundef nonnull align 8 dereferenceable(801) %call16, ptr noundef nonnull align 8 dereferenceable(576) %env, ptr noundef %call13, i32 noundef 0, i32 noundef 2, ptr noundef nonnull %agg.tmp, ptr noundef nonnull %d_rtfc, i1 noundef zeroext false)
          to label %invoke.cont21 unwind label %lpad20

invoke.cont21:                                    ; preds = %invoke.cont18
  %6 = load ptr, ptr %d_tpg, align 8
  store ptr %call16, ptr %d_tpg, align 8
  %tobool.not.i.i32 = icmp eq ptr %6, null
  br i1 %tobool.not.i.i32, label %_ZNSt10unique_ptrIN4cvc58internal19TConvProofGeneratorESt14default_deleteIS2_EE5resetEPS2_.exit, label %_ZNKSt14default_deleteIN4cvc58internal19TConvProofGeneratorEEclEPS2_.exit.i.i

_ZNKSt14default_deleteIN4cvc58internal19TConvProofGeneratorEEclEPS2_.exit.i.i: ; preds = %invoke.cont21
  %vtable.i.i.i = load ptr, ptr %6, align 8
  %vfn.i.i.i = getelementptr inbounds ptr, ptr %vtable.i.i.i, i64 1
  %7 = load ptr, ptr %vfn.i.i.i, align 8
  call void %7(ptr noundef nonnull align 8 dereferenceable(801) %6) #22
  br label %_ZNSt10unique_ptrIN4cvc58internal19TConvProofGeneratorESt14default_deleteIS2_EE5resetEPS2_.exit

_ZNSt10unique_ptrIN4cvc58internal19TConvProofGeneratorESt14default_deleteIS2_EE5resetEPS2_.exit: ; preds = %invoke.cont21, %_ZNKSt14default_deleteIN4cvc58internal19TConvProofGeneratorEEclEPS2_.exit.i.i
  call void @_ZNSt7__cxx1112basic_stringIcSt11char_traitsIcESaIcEED1Ev(ptr noundef nonnull align 8 dereferenceable(32) %agg.tmp) #22
  call void @_ZNSaIcED1Ev(ptr noundef nonnull align 1 dereferenceable(1) %ref.tmp) #22
  %call25 = invoke noalias noundef nonnull dereferenceable(808) ptr @_Znwm(i64 noundef 808) #20
          to label %invoke.cont24 unwind label %lpad9

invoke.cont24:                                    ; preds = %_ZNSt10unique_ptrIN4cvc58internal19TConvProofGeneratorESt14default_deleteIS2_EE5resetEPS2_.exit
  call void @_ZNSaIcEC1Ev(ptr noundef nonnull align 1 dereferenceable(1) %ref.tmp27) #22
  %call.i37 = invoke noundef ptr @_ZNSt7__cxx1112basic_stringIcSt11char_traitsIcESaIcEE13_M_local_dataEv(ptr noundef nonnull align 8 dereferenceable(32) %agg.tmp26)
          to label %call.i.noexc36 unwind label %lpad28

call.i.noexc36:                                   ; preds = %invoke.cont24
  invoke void @_ZNSt7__cxx1112basic_stringIcSt11char_traitsIcESaIcEE12_Alloc_hiderC1EPcRKS3_(ptr noundef nonnull align 8 dereferenceable(8) %agg.tmp26, ptr noundef %call.i37, ptr noundef nonnull align 1 dereferenceable(1) %ref.tmp27)
          to label %.noexc38 unwind label %lpad28

.noexc38:                                         ; preds = %call.i.noexc36
  invoke void @_ZNSt7__cxx1112basic_stringIcSt11char_traitsIcESaIcEE12_M_constructIPKcEEvT_S8_St20forward_iterator_tag(ptr noundef nonnull align 8 dereferenceable(32) %agg.tmp26, ptr noundef nonnull @.str.2, ptr noundef nonnull getelementptr inbounds ([26 x i8], ptr @.str.2, i64 0, i64 25))
          to label %invoke.cont29 unwind label %lpad.i35

lpad.i35:                                         ; preds = %.noexc38
  %8 = landingpad { ptr, i32 }
          cleanup
  call void @_ZNSaIcED2Ev(ptr noundef nonnull align 1 dereferenceable(1) %agg.tmp26) #22
  br label %ehcleanup34

invoke.cont29:                                    ; preds = %.noexc38
  invoke void @_ZN4cvc58internal19TConvProofGeneratorC1ERNS0_3EnvEPNS_7context7ContextENS0_11TConvPolicyENS0_16TConvCachePolicyENSt7__cxx1112basic_stringIcSt11char_traitsIcESaIcEEEPNS0_11TermContextEb(ptr noundef nonnull align 8 dereferenceable(801) %call25, ptr noundef nonnull align 8 dereferenceable(576) %env, ptr noundef %call13, i32 noundef 1, i32 noundef 2, ptr noundef nonnull %agg.tmp26, ptr noundef null, i1 noundef zeroext false)
          to label %invoke.cont31 unwind label %lpad30

invoke.cont31:                                    ; preds = %invoke.cont29
  %9 = load ptr, ptr %d_tpgRew, align 8
  store ptr %call25, ptr %d_tpgRew, align 8
  %tobool.not.i.i41 = icmp eq ptr %9, null
  br i1 %tobool.not.i.i41, label %_ZNSt10unique_ptrIN4cvc58internal19TConvProofGeneratorESt14default_deleteIS2_EE5resetEPS2_.exit45, label %_ZNKSt14default_deleteIN4cvc58internal19TConvProofGeneratorEEclEPS2_.exit.i.i42

_ZNKSt14default_deleteIN4cvc58internal19TConvProofGeneratorEEclEPS2_.exit.i.i42: ; preds = %invoke.cont31
  %vtable.i.i.i43 = load ptr, ptr %9, align 8
  %vfn.i.i.i44 = getelementptr inbounds ptr, ptr %vtable.i.i.i43, i64 1
  %10 = load ptr, ptr %vfn.i.i.i44, align 8
  call void %10(ptr noundef nonnull align 8 dereferenceable(801) %9) #22
  br label %_ZNSt10unique_ptrIN4cvc58internal19TConvProofGeneratorESt14default_deleteIS2_EE5resetEPS2_.exit45

_ZNSt10unique_ptrIN4cvc58internal19TConvProofGeneratorESt14default_deleteIS2_EE5resetEPS2_.exit45: ; preds = %invoke.cont31, %_ZNKSt14default_deleteIN4cvc58internal19TConvProofGeneratorEEclEPS2_.exit.i.i42
  call void @_ZNSt7__cxx1112basic_stringIcSt11char_traitsIcESaIcEED1Ev(ptr noundef nonnull align 8 dereferenceable(32) %agg.tmp26) #22
  call void @_ZNSaIcED1Ev(ptr noundef nonnull align 1 dereferenceable(1) %ref.tmp27) #22
  %call41 = invoke noalias noundef nonnull dereferenceable(408) ptr @_Znwm(i64 noundef 408) #20
          to label %invoke.cont40 unwind label %lpad9

invoke.cont40:                                    ; preds = %_ZNSt10unique_ptrIN4cvc58internal19TConvProofGeneratorESt14default_deleteIS2_EE5resetEPS2_.exit45
  call void @_ZNSaIcEC1Ev(ptr noundef nonnull align 1 dereferenceable(1) %ref.tmp43) #22
  %call.i50 = invoke noundef ptr @_ZNSt7__cxx1112basic_stringIcSt11char_traitsIcESaIcEE13_M_local_dataEv(ptr noundef nonnull align 8 dereferenceable(32) %ref.tmp42)
          to label %call.i.noexc49 unwind label %lpad44

call.i.noexc49:                                   ; preds = %invoke.cont40
  invoke void @_ZNSt7__cxx1112basic_stringIcSt11char_traitsIcESaIcEE12_Alloc_hiderC1EPcRKS3_(ptr noundef nonnull align 8 dereferenceable(8) %ref.tmp42, ptr noundef %call.i50, ptr noundef nonnull align 1 dereferenceable(1) %ref.tmp43)
          to label %.noexc51 unwind label %lpad44

.noexc51:                                         ; preds = %call.i.noexc49
  invoke void @_ZNSt7__cxx1112basic_stringIcSt11char_traitsIcESaIcEE12_M_constructIPKcEEvT_S8_St20forward_iterator_tag(ptr noundef nonnull align 8 dereferenceable(32) %ref.tmp42, ptr noundef nonnull @.str.3, ptr noundef nonnull getelementptr inbounds ([32 x i8], ptr @.str.3, i64 0, i64 31))
          to label %invoke.cont45 unwind label %lpad.i48

lpad.i48:                                         ; preds = %.noexc51
  %11 = landingpad { ptr, i32 }
          cleanup
  call void @_ZNSaIcED2Ev(ptr noundef nonnull align 1 dereferenceable(1) %ref.tmp42) #22
  br label %ehcleanup50

invoke.cont45:                                    ; preds = %.noexc51
  invoke void @_ZN4cvc58internal11LazyCDProofC1ERNS0_3EnvEPNS0_14ProofGeneratorEPNS_7context7ContextERKNSt7__cxx1112basic_stringIcSt11char_traitsIcESaIcEEEbb(ptr noundef nonnull align 8 dereferenceable(408) %call41, ptr noundef nonnull align 8 dereferenceable(576) %env, ptr noundef null, ptr noundef %call13, ptr noundef nonnull align 8 dereferenceable(32) %ref.tmp42, i1 noundef zeroext true, i1 noundef zeroext true)
          to label %invoke.cont47 unwind label %lpad46

invoke.cont47:                                    ; preds = %invoke.cont45
  %12 = load ptr, ptr %d_lp, align 8
  store ptr %call41, ptr %d_lp, align 8
  %tobool.not.i.i54 = icmp eq ptr %12, null
  br i1 %tobool.not.i.i54, label %_ZNSt16allocator_traitsISaIPN4cvc58internal14ProofGeneratorEEE8allocateERS4_m.exit.i.i.i.i, label %_ZNKSt14default_deleteIN4cvc58internal11LazyCDProofEEclEPS2_.exit.i.i

_ZNKSt14default_deleteIN4cvc58internal11LazyCDProofEEclEPS2_.exit.i.i: ; preds = %invoke.cont47
  %vtable.i.i.i55 = load ptr, ptr %12, align 8
  %vfn.i.i.i56 = getelementptr inbounds ptr, ptr %vtable.i.i.i55, i64 1
  %13 = load ptr, ptr %vfn.i.i.i56, align 8
  call void %13(ptr noundef nonnull align 8 dereferenceable(408) %12) #22
  br label %_ZNSt16allocator_traitsISaIPN4cvc58internal14ProofGeneratorEEE8allocateERS4_m.exit.i.i.i.i

_ZNSt16allocator_traitsISaIPN4cvc58internal14ProofGeneratorEEE8allocateERS4_m.exit.i.i.i.i: ; preds = %_ZNKSt14default_deleteIN4cvc58internal11LazyCDProofEEclEPS2_.exit.i.i, %invoke.cont47
  call void @_ZNSt7__cxx1112basic_stringIcSt11char_traitsIcESaIcEED1Ev(ptr noundef nonnull align 8 dereferenceable(32) %ref.tmp42) #22
  call void @_ZNSaIcED1Ev(ptr noundef nonnull align 1 dereferenceable(1) %ref.tmp43) #22
  call void @llvm.memset.p0.i64(ptr noundef nonnull align 8 dereferenceable(24) %ts, i8 0, i64 24, i1 false)
  %14 = load ptr, ptr %d_tpgRew, align 8
  %_M_finish.i.i = getelementptr inbounds %"struct.std::_Vector_base<cvc5::internal::ProofGenerator *, std::allocator<cvc5::internal::ProofGenerator *>>::_Vector_impl_data", ptr %ts, i64 0, i32 1
  %_M_end_of_storage.i.i = getelementptr inbounds %"struct.std::_Vector_base<cvc5::internal::ProofGenerator *, std::allocator<cvc5::internal::ProofGenerator *>>::_Vector_impl_data", ptr %ts, i64 0, i32 2
  %call5.i.i.i.i.i.i58 = invoke noalias noundef nonnull dereferenceable(8) ptr @_Znwm(i64 noundef 8) #20
          to label %_ZNSt16allocator_traitsISaIPN4cvc58internal14ProofGeneratorEEE8allocateERS4_m.exit.i.i.i.i78 unwind label %lpad58

_ZNSt16allocator_traitsISaIPN4cvc58internal14ProofGeneratorEEE8allocateERS4_m.exit.i.i.i.i78: ; preds = %_ZNSt16allocator_traitsISaIPN4cvc58internal14ProofGeneratorEEE8allocateERS4_m.exit.i.i.i.i
  %15 = icmp eq ptr %14, null
  %add.ptr = getelementptr inbounds i8, ptr %14, i64 16
  %spec.select = select i1 %15, ptr null, ptr %add.ptr
  store ptr %spec.select, ptr %call5.i.i.i.i.i.i58, align 8
  %incdec.ptr.i.i.i = getelementptr inbounds ptr, ptr %call5.i.i.i.i.i.i58, i64 1
  store ptr %call5.i.i.i.i.i.i58, ptr %ts, align 8
  store ptr %incdec.ptr.i.i.i, ptr %_M_finish.i.i, align 8
  store ptr %incdec.ptr.i.i.i, ptr %_M_end_of_storage.i.i, align 8
  %16 = load ptr, ptr %d_tpg, align 8
  %call5.i.i.i.i.i.i94 = invoke noalias noundef nonnull dereferenceable(16) ptr @_Znwm(i64 noundef 16) #20
          to label %invoke.cont67 unwind label %lpad58

invoke.cont67:                                    ; preds = %_ZNSt16allocator_traitsISaIPN4cvc58internal14ProofGeneratorEEE8allocateERS4_m.exit.i.i.i.i78
  %17 = icmp eq ptr %16, null
  %add.ptr64 = getelementptr inbounds i8, ptr %16, i64 16
  %spec.select1 = select i1 %17, ptr null, ptr %add.ptr64
  %add.ptr.i.i.i82 = getelementptr inbounds ptr, ptr %call5.i.i.i.i.i.i94, i64 1
  store ptr %spec.select1, ptr %add.ptr.i.i.i82, align 8
  %18 = load i64, ptr %call5.i.i.i.i.i.i58, align 8
  store i64 %18, ptr %call5.i.i.i.i.i.i94, align 8
  %incdec.ptr.i.i.i85 = getelementptr inbounds ptr, ptr %call5.i.i.i.i.i.i94, i64 2
  call void @_ZdlPv(ptr noundef nonnull %call5.i.i.i.i.i.i58) #21
  store ptr %call5.i.i.i.i.i.i94, ptr %ts, align 8
  store ptr %incdec.ptr.i.i.i85, ptr %_M_finish.i.i, align 8
  %add.ptr19.i.i.i89 = getelementptr inbounds ptr, ptr %call5.i.i.i.i.i.i94, i64 2
  store ptr %add.ptr19.i.i.i89, ptr %_M_end_of_storage.i.i, align 8
  %call70 = invoke noalias noundef nonnull dereferenceable(184) ptr @_Znwm(i64 noundef 184) #20
          to label %invoke.cont69 unwind label %lpad58

invoke.cont69:                                    ; preds = %invoke.cont67
  %call73 = invoke noundef ptr @_ZNK4cvc58internal6EnvObj11userContextEv(ptr noundef nonnull align 8 dereferenceable(16) %this)
          to label %invoke.cont72 unwind label %lpad71

invoke.cont72:                                    ; preds = %invoke.cont69
  call void @_ZNSaIcEC1Ev(ptr noundef nonnull align 1 dereferenceable(1) %ref.tmp75) #22
  %call.i100 = invoke noundef ptr @_ZNSt7__cxx1112basic_stringIcSt11char_traitsIcESaIcEE13_M_local_dataEv(ptr noundef nonnull align 8 dereferenceable(32) %agg.tmp74)
          to label %call.i.noexc99 unwind label %lpad76

call.i.noexc99:                                   ; preds = %invoke.cont72
  invoke void @_ZNSt7__cxx1112basic_stringIcSt11char_traitsIcESaIcEE12_Alloc_hiderC1EPcRKS3_(ptr noundef nonnull align 8 dereferenceable(8) %agg.tmp74, ptr noundef %call.i100, ptr noundef nonnull align 1 dereferenceable(1) %ref.tmp75)
          to label %.noexc101 unwind label %lpad76

.noexc101:                                        ; preds = %call.i.noexc99
  invoke void @_ZNSt7__cxx1112basic_stringIcSt11char_traitsIcESaIcEE12_M_constructIPKcEEvT_S8_St20forward_iterator_tag(ptr noundef nonnull align 8 dereferenceable(32) %agg.tmp74, ptr noundef nonnull @.str.4, ptr noundef nonnull getelementptr inbounds ([29 x i8], ptr @.str.4, i64 0, i64 28))
          to label %invoke.cont77 unwind label %lpad.i98

lpad.i98:                                         ; preds = %.noexc101
  %19 = landingpad { ptr, i32 }
          cleanup
  call void @_ZNSaIcED2Ev(ptr noundef nonnull align 1 dereferenceable(1) %agg.tmp74) #22
  br label %ehcleanup82

invoke.cont77:                                    ; preds = %.noexc101
  invoke void @_ZN4cvc58internal22TConvSeqProofGeneratorC1EPNS0_16ProofNodeManagerERKSt6vectorIPNS0_14ProofGeneratorESaIS6_EEPNS_7context7ContextENSt7__cxx1112basic_stringIcSt11char_traitsIcESaIcEEE(ptr noundef nonnull align 8 dereferenceable(184) %call70, ptr noundef nonnull %call11, ptr noundef nonnull align 8 dereferenceable(24) %ts, ptr noundef %call73, ptr noundef nonnull %agg.tmp74)
          to label %invoke.cont79 unwind label %lpad78

invoke.cont79:                                    ; preds = %invoke.cont77
  %20 = load ptr, ptr %d_tspg, align 8
  store ptr %call70, ptr %d_tspg, align 8
  %tobool.not.i.i104 = icmp eq ptr %20, null
  br i1 %tobool.not.i.i104, label %_ZNSt10unique_ptrIN4cvc58internal22TConvSeqProofGeneratorESt14default_deleteIS2_EE5resetEPS2_.exit, label %_ZNKSt14default_deleteIN4cvc58internal22TConvSeqProofGeneratorEEclEPS2_.exit.i.i

_ZNKSt14default_deleteIN4cvc58internal22TConvSeqProofGeneratorEEclEPS2_.exit.i.i: ; preds = %invoke.cont79
  %vtable.i.i.i105 = load ptr, ptr %20, align 8
  %vfn.i.i.i106 = getelementptr inbounds ptr, ptr %vtable.i.i.i105, i64 1
  %21 = load ptr, ptr %vfn.i.i.i106, align 8
  call void %21(ptr noundef nonnull align 8 dereferenceable(184) %20) #22
  br label %_ZNSt10unique_ptrIN4cvc58internal22TConvSeqProofGeneratorESt14default_deleteIS2_EE5resetEPS2_.exit

_ZNSt10unique_ptrIN4cvc58internal22TConvSeqProofGeneratorESt14default_deleteIS2_EE5resetEPS2_.exit: ; preds = %invoke.cont79, %_ZNKSt14default_deleteIN4cvc58internal22TConvSeqProofGeneratorEEclEPS2_.exit.i.i
  call void @_ZNSt7__cxx1112basic_stringIcSt11char_traitsIcESaIcEED1Ev(ptr noundef nonnull align 8 dereferenceable(32) %agg.tmp74) #22
  call void @_ZNSaIcED1Ev(ptr noundef nonnull align 1 dereferenceable(1) %ref.tmp75) #22
  invoke void @_ZN4cvc58internal9mkTrustIdENS0_7TrustIdE(ptr nonnull sret(%"class.cvc5::internal::NodeTemplate") align 8 %ref.tmp87, i32 noundef 5)
          to label %invoke.cont88 unwind label %lpad58

invoke.cont88:                                    ; preds = %_ZNSt10unique_ptrIN4cvc58internal22TConvSeqProofGeneratorESt14default_deleteIS2_EE5resetEPS2_.exit
  %22 = load ptr, ptr %d_tpid, align 8
  %23 = load ptr, ptr %ref.tmp87, align 8
  %cmp.not.i = icmp eq ptr %22, %23
  br i1 %cmp.not.i, label %invoke.cont91, label %if.then.i

if.then.i:                                        ; preds = %invoke.cont88
  %bf.load.i.i = load i64, ptr %22, align 8
  %24 = and i64 %bf.load.i.i, 1152920405095219200
  %cmp.not.i.i107 = icmp eq i64 %24, 1152920405095219200
  br i1 %cmp.not.i.i107, label %_ZN4cvc58internal4expr9NodeValue3decEv.exit.i, label %if.then.i.i108

if.then.i.i108:                                   ; preds = %if.then.i
  %bf.value.i.i = add i64 %bf.load.i.i, 1152920405095219200
  %bf.shl.i.i = and i64 %bf.value.i.i, 1152920405095219200
  %bf.clear7.i.i = and i64 %bf.load.i.i, -1152920405095219201
  %bf.set.i.i = or disjoint i64 %bf.shl.i.i, %bf.clear7.i.i
  store i64 %bf.set.i.i, ptr %22, align 8
  %cmp12.i.i = icmp eq i64 %bf.shl.i.i, 0
  br i1 %cmp12.i.i, label %if.then13.i.i, label %_ZN4cvc58internal4expr9NodeValue3decEv.exit.i

if.then13.i.i:                                    ; preds = %if.then.i.i108
  invoke void @_ZN4cvc58internal4expr9NodeValue15markForDeletionEv(ptr noundef nonnull align 8 dereferenceable(16) %22)
          to label %_ZN4cvc58internal4expr9NodeValue3decEv.exit.i unwind label %lpad90

_ZN4cvc58internal4expr9NodeValue3decEv.exit.i:    ; preds = %if.then13.i.i, %if.then.i.i108, %if.then.i
  %25 = load ptr, ptr %ref.tmp87, align 8
  store ptr %25, ptr %d_tpid, align 8
  %bf.load.i2.i = load i64, ptr %25, align 8
  %bf.lshr.i.i = lshr i64 %bf.load.i2.i, 40
  %26 = trunc i64 %bf.lshr.i.i to i32
  %bf.cast.i.i = and i32 %26, 1048575
  %cmp.i.i = icmp ult i32 %bf.cast.i.i, 1048574
  br i1 %cmp.i.i, label %if.then.i5.i, label %if.else.i.i109

if.then.i5.i:                                     ; preds = %_ZN4cvc58internal4expr9NodeValue3decEv.exit.i
  %bf.value.i6.i = add i64 %bf.load.i2.i, 1099511627776
  %bf.shl.i7.i = and i64 %bf.value.i6.i, 1152920405095219200
  %bf.clear7.i8.i = and i64 %bf.load.i2.i, -1152920405095219201
  %bf.set.i9.i = or disjoint i64 %bf.shl.i7.i, %bf.clear7.i8.i
  store i64 %bf.set.i9.i, ptr %25, align 8
  br label %invoke.cont91

if.else.i.i109:                                   ; preds = %_ZN4cvc58internal4expr9NodeValue3decEv.exit.i
  %cmp12.i3.i = icmp eq i32 %bf.cast.i.i, 1048574
  br i1 %cmp12.i3.i, label %if.then13.i4.i, label %invoke.cont91

if.then13.i4.i:                                   ; preds = %if.else.i.i109
  %bf.set23.i.i = or i64 %bf.load.i2.i, 1152920405095219200
  store i64 %bf.set23.i.i, ptr %25, align 8
  invoke void @_ZN4cvc58internal4expr9NodeValue20markRefCountMaxedOutEv(ptr noundef nonnull align 8 dereferenceable(16) %25)
          to label %invoke.cont91 unwind label %lpad90

invoke.cont91:                                    ; preds = %if.else.i.i109, %if.then.i5.i, %invoke.cont88, %if.then13.i4.i
  %27 = load ptr, ptr %ref.tmp87, align 8
  %bf.load.i.i112 = load i64, ptr %27, align 8
  %28 = and i64 %bf.load.i.i112, 1152920405095219200
  %cmp.not.i.i113 = icmp eq i64 %28, 1152920405095219200
  br i1 %cmp.not.i.i113, label %_ZN4cvc58internal12NodeTemplateILb1EED2Ev.exit, label %if.then.i.i114

if.then.i.i114:                                   ; preds = %invoke.cont91
  %bf.value.i.i115 = add i64 %bf.load.i.i112, 1152920405095219200
  %bf.shl.i.i116 = and i64 %bf.value.i.i115, 1152920405095219200
  %bf.clear7.i.i117 = and i64 %bf.load.i.i112, -1152920405095219201
  %bf.set.i.i118 = or disjoint i64 %bf.shl.i.i116, %bf.clear7.i.i117
  store i64 %bf.set.i.i118, ptr %27, align 8
  %cmp12.i.i119 = icmp eq i64 %bf.shl.i.i116, 0
  br i1 %cmp12.i.i119, label %if.then13.i.i120, label %_ZN4cvc58internal12NodeTemplateILb1EED2Ev.exit

if.then13.i.i120:                                 ; preds = %if.then.i.i114
  invoke void @_ZN4cvc58internal4expr9NodeValue15markForDeletionEv(ptr noundef nonnull align 8 dereferenceable(16) %27)
          to label %_ZN4cvc58internal12NodeTemplateILb1EED2Ev.exit unwind label %terminate.lpad.i

terminate.lpad.i:                                 ; preds = %if.then13.i.i120
  %29 = landingpad { ptr, i32 }
          catch ptr null
  %30 = extractvalue { ptr, i32 } %29, 0
  call void @__clang_call_terminate(ptr %30) #23
  unreachable

_ZN4cvc58internal12NodeTemplateILb1EED2Ev.exit:   ; preds = %invoke.cont91, %if.then.i.i114, %if.then13.i.i120
  %31 = load ptr, ptr %ts, align 8
  %tobool.not.i.i.i = icmp eq ptr %31, null
  br i1 %tobool.not.i.i.i, label %if.end, label %if.then.i.i.i

if.then.i.i.i:                                    ; preds = %_ZN4cvc58internal12NodeTemplateILb1EED2Ev.exit
  call void @_ZdlPv(ptr noundef nonnull %31) #21
  br label %if.end

lpad3:                                            ; preds = %invoke.cont2
  %32 = landingpad { ptr, i32 }
          cleanup
  br label %ehcleanup102

lpad9:                                            ; preds = %_ZNSt10unique_ptrIN4cvc58internal19TConvProofGeneratorESt14default_deleteIS2_EE5resetEPS2_.exit45, %_ZNSt10unique_ptrIN4cvc58internal19TConvProofGeneratorESt14default_deleteIS2_EE5resetEPS2_.exit, %invoke.cont12, %if.then, %invoke.cont8
  %33 = landingpad { ptr, i32 }
          cleanup
  br label %ehcleanup95

lpad17:                                           ; preds = %call.i.noexc28, %invoke.cont15
  %34 = landingpad { ptr, i32 }
          cleanup
  br label %ehcleanup

lpad20:                                           ; preds = %invoke.cont18
  %35 = landingpad { ptr, i32 }
          cleanup
  call void @_ZNSt7__cxx1112basic_stringIcSt11char_traitsIcESaIcEED1Ev(ptr noundef nonnull align 8 dereferenceable(32) %agg.tmp) #22
  br label %ehcleanup

ehcleanup:                                        ; preds = %lpad17, %lpad.i, %lpad20
  %.pn = phi { ptr, i32 } [ %35, %lpad20 ], [ %34, %lpad17 ], [ %5, %lpad.i ]
  call void @_ZNSaIcED1Ev(ptr noundef nonnull align 1 dereferenceable(1) %ref.tmp) #22
  call void @_ZdlPv(ptr noundef nonnull %call16) #21
  br label %ehcleanup95

lpad28:                                           ; preds = %call.i.noexc36, %invoke.cont24
  %36 = landingpad { ptr, i32 }
          cleanup
  br label %ehcleanup34

lpad30:                                           ; preds = %invoke.cont29
  %37 = landingpad { ptr, i32 }
          cleanup
  call void @_ZNSt7__cxx1112basic_stringIcSt11char_traitsIcESaIcEED1Ev(ptr noundef nonnull align 8 dereferenceable(32) %agg.tmp26) #22
  br label %ehcleanup34

ehcleanup34:                                      ; preds = %lpad28, %lpad.i35, %lpad30
  %.pn11 = phi { ptr, i32 } [ %37, %lpad30 ], [ %36, %lpad28 ], [ %8, %lpad.i35 ]
  call void @_ZNSaIcED1Ev(ptr noundef nonnull align 1 dereferenceable(1) %ref.tmp27) #22
  call void @_ZdlPv(ptr noundef nonnull %call25) #21
  br label %ehcleanup95

lpad44:                                           ; preds = %call.i.noexc49, %invoke.cont40
  %38 = landingpad { ptr, i32 }
          cleanup
  br label %ehcleanup50

lpad46:                                           ; preds = %invoke.cont45
  %39 = landingpad { ptr, i32 }
          cleanup
  call void @_ZNSt7__cxx1112basic_stringIcSt11char_traitsIcESaIcEED1Ev(ptr noundef nonnull align 8 dereferenceable(32) %ref.tmp42) #22
  br label %ehcleanup50

ehcleanup50:                                      ; preds = %lpad44, %lpad.i48, %lpad46
  %.pn13 = phi { ptr, i32 } [ %39, %lpad46 ], [ %38, %lpad44 ], [ %11, %lpad.i48 ]
  call void @_ZNSaIcED1Ev(ptr noundef nonnull align 1 dereferenceable(1) %ref.tmp43) #22
  call void @_ZdlPv(ptr noundef nonnull %call41) #21
  br label %ehcleanup95

lpad58:                                           ; preds = %_ZNSt16allocator_traitsISaIPN4cvc58internal14ProofGeneratorEEE8allocateERS4_m.exit.i.i.i.i78, %_ZNSt16allocator_traitsISaIPN4cvc58internal14ProofGeneratorEEE8allocateERS4_m.exit.i.i.i.i, %_ZNSt10unique_ptrIN4cvc58internal22TConvSeqProofGeneratorESt14default_deleteIS2_EE5resetEPS2_.exit, %invoke.cont67
  %40 = landingpad { ptr, i32 }
          cleanup
  br label %ehcleanup94

lpad71:                                           ; preds = %invoke.cont69
  %41 = landingpad { ptr, i32 }
          cleanup
  br label %cleanup.action85

lpad76:                                           ; preds = %call.i.noexc99, %invoke.cont72
  %42 = landingpad { ptr, i32 }
          cleanup
  br label %ehcleanup82

lpad78:                                           ; preds = %invoke.cont77
  %43 = landingpad { ptr, i32 }
          cleanup
  call void @_ZNSt7__cxx1112basic_stringIcSt11char_traitsIcESaIcEED1Ev(ptr noundef nonnull align 8 dereferenceable(32) %agg.tmp74) #22
  br label %ehcleanup82

ehcleanup82:                                      ; preds = %lpad76, %lpad.i98, %lpad78
  %.pn15 = phi { ptr, i32 } [ %43, %lpad78 ], [ %42, %lpad76 ], [ %19, %lpad.i98 ]
  call void @_ZNSaIcED1Ev(ptr noundef nonnull align 1 dereferenceable(1) %ref.tmp75) #22
  br label %cleanup.action85

cleanup.action85:                                 ; preds = %lpad71, %ehcleanup82
  %.pn15.pn = phi { ptr, i32 } [ %.pn15, %ehcleanup82 ], [ %41, %lpad71 ]
  call void @_ZdlPv(ptr noundef nonnull %call70) #21
  br label %ehcleanup94

lpad90:                                           ; preds = %if.then13.i4.i, %if.then13.i.i
  %44 = landingpad { ptr, i32 }
          cleanup
  call void @_ZN4cvc58internal12NodeTemplateILb1EED2Ev(ptr noundef nonnull align 8 dereferenceable(8) %ref.tmp87) #22
  br label %ehcleanup94

ehcleanup94:                                      ; preds = %cleanup.action85, %lpad90, %lpad58
  %.pn18 = phi { ptr, i32 } [ %44, %lpad90 ], [ %40, %lpad58 ], [ %.pn15.pn, %cleanup.action85 ]
  %45 = load ptr, ptr %ts, align 8
  %tobool.not.i.i.i121 = icmp eq ptr %45, null
  br i1 %tobool.not.i.i.i121, label %ehcleanup95, label %if.then.i.i.i122

if.then.i.i.i122:                                 ; preds = %ehcleanup94
  call void @_ZdlPv(ptr noundef nonnull %45) #21
  br label %ehcleanup95

if.end:                                           ; preds = %if.then.i.i.i, %_ZN4cvc58internal12NodeTemplateILb1EED2Ev.exit, %invoke.cont10
  ret void

ehcleanup95:                                      ; preds = %if.then.i.i.i122, %ehcleanup94, %ehcleanup50, %ehcleanup34, %ehcleanup, %lpad9
  %.pn18.pn = phi { ptr, i32 } [ %.pn13, %ehcleanup50 ], [ %33, %lpad9 ], [ %.pn11, %ehcleanup34 ], [ %.pn, %ehcleanup ], [ %.pn18, %ehcleanup94 ], [ %.pn18, %if.then.i.i.i122 ]
  call void @_ZN4cvc58internal12NodeTemplateILb1EED2Ev(ptr noundef nonnull align 8 dereferenceable(8) %d_tpid) #22
  br label %ehcleanup97

ehcleanup97:                                      ; preds = %ehcleanup95, %lpad.i.i
  %.pn18.pn.pn.pn = phi { ptr, i32 } [ %.pn18.pn, %ehcleanup95 ], [ %3, %lpad.i.i ]
  %46 = load ptr, ptr %d_lp, align 8
  %cmp.not.i124 = icmp eq ptr %46, null
  br i1 %cmp.not.i124, label %_ZNSt10unique_ptrIN4cvc58internal11LazyCDProofESt14default_deleteIS2_EED2Ev.exit, label %_ZNKSt14default_deleteIN4cvc58internal11LazyCDProofEEclEPS2_.exit.i

_ZNKSt14default_deleteIN4cvc58internal11LazyCDProofEEclEPS2_.exit.i: ; preds = %ehcleanup97
  %vtable.i.i = load ptr, ptr %46, align 8
  %vfn.i.i = getelementptr inbounds ptr, ptr %vtable.i.i, i64 1
  %47 = load ptr, ptr %vfn.i.i, align 8
  call void %47(ptr noundef nonnull align 8 dereferenceable(408) %46) #22
  br label %_ZNSt10unique_ptrIN4cvc58internal11LazyCDProofESt14default_deleteIS2_EED2Ev.exit

_ZNSt10unique_ptrIN4cvc58internal11LazyCDProofESt14default_deleteIS2_EED2Ev.exit: ; preds = %ehcleanup97, %_ZNKSt14default_deleteIN4cvc58internal11LazyCDProofEEclEPS2_.exit.i
  store ptr null, ptr %d_lp, align 8
  %48 = load ptr, ptr %d_tspg, align 8
  %cmp.not.i125 = icmp eq ptr %48, null
  br i1 %cmp.not.i125, label %_ZNSt10unique_ptrIN4cvc58internal22TConvSeqProofGeneratorESt14default_deleteIS2_EED2Ev.exit, label %_ZNKSt14default_deleteIN4cvc58internal22TConvSeqProofGeneratorEEclEPS2_.exit.i

_ZNKSt14default_deleteIN4cvc58internal22TConvSeqProofGeneratorEEclEPS2_.exit.i: ; preds = %_ZNSt10unique_ptrIN4cvc58internal11LazyCDProofESt14default_deleteIS2_EED2Ev.exit
  %vtable.i.i126 = load ptr, ptr %48, align 8
  %vfn.i.i127 = getelementptr inbounds ptr, ptr %vtable.i.i126, i64 1
  %49 = load ptr, ptr %vfn.i.i127, align 8
  call void %49(ptr noundef nonnull align 8 dereferenceable(184) %48) #22
  br label %_ZNSt10unique_ptrIN4cvc58internal22TConvSeqProofGeneratorESt14default_deleteIS2_EED2Ev.exit

_ZNSt10unique_ptrIN4cvc58internal22TConvSeqProofGeneratorESt14default_deleteIS2_EED2Ev.exit: ; preds = %_ZNSt10unique_ptrIN4cvc58internal11LazyCDProofESt14default_deleteIS2_EED2Ev.exit, %_ZNKSt14default_deleteIN4cvc58internal22TConvSeqProofGeneratorEEclEPS2_.exit.i
  store ptr null, ptr %d_tspg, align 8
  %50 = load ptr, ptr %d_tpgRew, align 8
  %cmp.not.i128 = icmp eq ptr %50, null
  br i1 %cmp.not.i128, label %_ZNSt10unique_ptrIN4cvc58internal19TConvProofGeneratorESt14default_deleteIS2_EED2Ev.exit, label %_ZNKSt14default_deleteIN4cvc58internal19TConvProofGeneratorEEclEPS2_.exit.i

_ZNKSt14default_deleteIN4cvc58internal19TConvProofGeneratorEEclEPS2_.exit.i: ; preds = %_ZNSt10unique_ptrIN4cvc58internal22TConvSeqProofGeneratorESt14default_deleteIS2_EED2Ev.exit
  %vtable.i.i129 = load ptr, ptr %50, align 8
  %vfn.i.i130 = getelementptr inbounds ptr, ptr %vtable.i.i129, i64 1
  %51 = load ptr, ptr %vfn.i.i130, align 8
  call void %51(ptr noundef nonnull align 8 dereferenceable(801) %50) #22
  br label %_ZNSt10unique_ptrIN4cvc58internal19TConvProofGeneratorESt14default_deleteIS2_EED2Ev.exit

_ZNSt10unique_ptrIN4cvc58internal19TConvProofGeneratorESt14default_deleteIS2_EED2Ev.exit: ; preds = %_ZNSt10unique_ptrIN4cvc58internal22TConvSeqProofGeneratorESt14default_deleteIS2_EED2Ev.exit, %_ZNKSt14default_deleteIN4cvc58internal19TConvProofGeneratorEEclEPS2_.exit.i
  store ptr null, ptr %d_tpgRew, align 8
  %52 = load ptr, ptr %d_tpg, align 8
  %cmp.not.i131 = icmp eq ptr %52, null
  br i1 %cmp.not.i131, label %_ZNSt10unique_ptrIN4cvc58internal19TConvProofGeneratorESt14default_deleteIS2_EED2Ev.exit135, label %_ZNKSt14default_deleteIN4cvc58internal19TConvProofGeneratorEEclEPS2_.exit.i132

_ZNKSt14default_deleteIN4cvc58internal19TConvProofGeneratorEEclEPS2_.exit.i132: ; preds = %_ZNSt10unique_ptrIN4cvc58internal19TConvProofGeneratorESt14default_deleteIS2_EED2Ev.exit
  %vtable.i.i133 = load ptr, ptr %52, align 8
  %vfn.i.i134 = getelementptr inbounds ptr, ptr %vtable.i.i133, i64 1
  %53 = load ptr, ptr %vfn.i.i134, align 8
  call void %53(ptr noundef nonnull align 8 dereferenceable(801) %52) #22
  br label %_ZNSt10unique_ptrIN4cvc58internal19TConvProofGeneratorESt14default_deleteIS2_EED2Ev.exit135

_ZNSt10unique_ptrIN4cvc58internal19TConvProofGeneratorESt14default_deleteIS2_EED2Ev.exit135: ; preds = %_ZNSt10unique_ptrIN4cvc58internal19TConvProofGeneratorESt14default_deleteIS2_EED2Ev.exit, %_ZNKSt14default_deleteIN4cvc58internal19TConvProofGeneratorEEclEPS2_.exit.i132
  store ptr null, ptr %d_tpg, align 8
  call void @_ZN4cvc58internal18RemoveTermFormulasD1Ev(ptr noundef nonnull align 8 dereferenceable(160) %d_tfr) #22
  br label %ehcleanup102

ehcleanup102:                                     ; preds = %_ZNSt10unique_ptrIN4cvc58internal19TConvProofGeneratorESt14default_deleteIS2_EED2Ev.exit135, %lpad3
  %.pn18.pn.pn.pn.pn = phi { ptr, i32 } [ %.pn18.pn.pn.pn, %_ZNSt10unique_ptrIN4cvc58internal19TConvProofGeneratorESt14default_deleteIS2_EED2Ev.exit135 ], [ %32, %lpad3 ]
  call void @_ZN4cvc57context15CDInsertHashMapISt4pairINS_8internal12NodeTemplateILb1EEEjES5_NS3_16PairHashFunctionIS5_jSt4hashIS5_ES8_IjEEEED2Ev(ptr noundef nonnull align 8 dereferenceable(56) %d_cache) #22
  br label %ehcleanup103

ehcleanup103:                                     ; preds = %lpad2.i, %ehcleanup102
  %.pn18.pn.pn.pn.pn.pn = phi { ptr, i32 } [ %.pn18.pn.pn.pn.pn, %ehcleanup102 ], [ %0, %lpad2.i ]
  resume { ptr, i32 } %.pn18.pn.pn.pn.pn.pn
}

declare void @_ZN4cvc58internal6EnvObjC2ERNS0_3EnvE(ptr noundef nonnull align 8 dereferenceable(16), ptr noundef nonnull align 8 dereferenceable(576)) unnamed_addr #0

declare noundef ptr @_ZNK4cvc58internal6EnvObj11userContextEv(ptr noundef nonnull align 8 dereferenceable(16)) local_unnamed_addr #0

declare i32 @__gxx_personality_v0(...)

declare void @_ZN4cvc58internal18RemoveTermFormulasC1ERNS0_3EnvE(ptr noundef nonnull align 8 dereferenceable(160), ptr noundef nonnull align 8 dereferenceable(576)) unnamed_addr #0

declare noundef ptr @_ZN4cvc58internal3Env19getProofNodeManagerEv(ptr noundef nonnull align 8 dereferenceable(576)) local_unnamed_addr #0

; Function Attrs: nobuiltin allocsize(0)
declare noundef nonnull ptr @_Znwm(i64 noundef) local_unnamed_addr #4

; Function Attrs: nounwind
declare void @_ZNSaIcEC1Ev(ptr noundef nonnull align 1 dereferenceable(1)) unnamed_addr #1

declare void @_ZN4cvc58internal19TConvProofGeneratorC1ERNS0_3EnvEPNS_7context7ContextENS0_11TConvPolicyENS0_16TConvCachePolicyENSt7__cxx1112basic_stringIcSt11char_traitsIcESaIcEEEPNS0_11TermContextEb(ptr noundef nonnull align 8 dereferenceable(801), ptr noundef nonnull align 8 dereferenceable(576), ptr noundef, i32 noundef, i32 noundef, ptr noundef, ptr noundef, i1 noundef zeroext) unnamed_addr #0

; Function Attrs: nounwind
declare void @_ZNSt7__cxx1112basic_stringIcSt11char_traitsIcESaIcEED1Ev(ptr noundef nonnull align 8 dereferenceable(32)) unnamed_addr #1

; Function Attrs: nounwind
declare void @_ZNSaIcED1Ev(ptr noundef nonnull align 1 dereferenceable(1)) unnamed_addr #1

; Function Attrs: nobuiltin nounwind
declare void @_ZdlPv(ptr noundef) local_unnamed_addr #5

declare void @_ZN4cvc58internal11LazyCDProofC1ERNS0_3EnvEPNS0_14ProofGeneratorEPNS_7context7ContextERKNSt7__cxx1112basic_stringIcSt11char_traitsIcESaIcEEEbb(ptr noundef nonnull align 8 dereferenceable(408), ptr noundef nonnull align 8 dereferenceable(576), ptr noundef, ptr noundef, ptr noundef nonnull align 8 dereferenceable(32), i1 noundef zeroext, i1 noundef zeroext) unnamed_addr #0

declare void @_ZN4cvc58internal22TConvSeqProofGeneratorC1EPNS0_16ProofNodeManagerERKSt6vectorIPNS0_14ProofGeneratorESaIS6_EEPNS_7context7ContextENSt7__cxx1112basic_stringIcSt11char_traitsIcESaIcEEE(ptr noundef nonnull align 8 dereferenceable(184), ptr noundef, ptr noundef nonnull align 8 dereferenceable(24), ptr noundef, ptr noundef) unnamed_addr #0

declare void @_ZN4cvc58internal9mkTrustIdENS0_7TrustIdE(ptr sret(%"class.cvc5::internal::NodeTemplate") align 8, i32 noundef) local_unnamed_addr #0

; Function Attrs: mustprogress nounwind uwtable
define linkonce_odr hidden void @_ZN4cvc58internal12NodeTemplateILb1EED2Ev(ptr noundef nonnull align 8 dereferenceable(8) %this) unnamed_addr #6 comdat align 2 personality ptr @__gxx_personality_v0 {
entry:
  %0 = load ptr, ptr %this, align 8
  %bf.load.i = load i64, ptr %0, align 8
  %1 = and i64 %bf.load.i, 1152920405095219200
  %cmp.not.i = icmp eq i64 %1, 1152920405095219200
  br i1 %cmp.not.i, label %invoke.cont, label %if.then.i

if.then.i:                                        ; preds = %entry
  %bf.value.i = add i64 %bf.load.i, 1152920405095219200
  %bf.shl.i = and i64 %bf.value.i, 1152920405095219200
  %bf.clear7.i = and i64 %bf.load.i, -1152920405095219201
  %bf.set.i = or disjoint i64 %bf.shl.i, %bf.clear7.i
  store i64 %bf.set.i, ptr %0, align 8
  %cmp12.i = icmp eq i64 %bf.shl.i, 0
  br i1 %cmp12.i, label %if.then13.i, label %invoke.cont

if.then13.i:                                      ; preds = %if.then.i
  invoke void @_ZN4cvc58internal4expr9NodeValue15markForDeletionEv(ptr noundef nonnull align 8 dereferenceable(16) %0)
          to label %invoke.cont unwind label %terminate.lpad

invoke.cont:                                      ; preds = %if.then.i, %entry, %if.then13.i
  ret void

terminate.lpad:                                   ; preds = %if.then13.i
  %2 = landingpad { ptr, i32 }
          catch ptr null
  %3 = extractvalue { ptr, i32 } %2, 0
  tail call void @__clang_call_terminate(ptr %3) #23
  unreachable
}

; Function Attrs: nounwind
declare void @_ZN4cvc58internal18RemoveTermFormulasD1Ev(ptr noundef nonnull align 8 dereferenceable(160)) unnamed_addr #1

; Function Attrs: mustprogress nounwind uwtable
define linkonce_odr hidden void @_ZN4cvc57context15CDInsertHashMapISt4pairINS_8internal12NodeTemplateILb1EEEjES5_NS3_16PairHashFunctionIS5_jSt4hashIS5_ES8_IjEEEED2Ev(ptr noundef nonnull align 8 dereferenceable(56) %this) unnamed_addr #6 comdat align 2 personality ptr @__gxx_personality_v0 {
entry:
  store ptr getelementptr inbounds ({ [6 x ptr] }, ptr @_ZTVN4cvc57context15CDInsertHashMapISt4pairINS_8internal12NodeTemplateILb1EEEjES5_NS3_16PairHashFunctionIS5_jSt4hashIS5_ES8_IjEEEEE, i64 0, inrange i32 0, i64 2), ptr %this, align 8
  invoke void @_ZN4cvc57context10ContextObj7destroyEv(ptr noundef nonnull align 8 dereferenceable(40) %this)
          to label %invoke.cont unwind label %terminate.lpad

invoke.cont:                                      ; preds = %entry
  %d_insertMap = getelementptr inbounds %"class.cvc5::context::CDInsertHashMap", ptr %this, i64 0, i32 1
  %0 = load ptr, ptr %d_insertMap, align 8
  %isnull = icmp eq ptr %0, null
  br i1 %isnull, label %delete.end, label %delete.notnull

delete.notnull:                                   ; preds = %invoke.cont
  %d_hashMap.i = getelementptr inbounds %"class.cvc5::context::InsertHashMap", ptr %0, i64 0, i32 1
  %_M_before_begin.i.i.i.i.i = getelementptr inbounds %"class.cvc5::context::InsertHashMap", ptr %0, i64 0, i32 1, i32 0, i32 2
  %1 = load ptr, ptr %_M_before_begin.i.i.i.i.i, align 8
  %tobool.not3.i.i.i.i.i = icmp eq ptr %1, null
  br i1 %tobool.not3.i.i.i.i.i, label %_ZNSt10_HashtableIKSt4pairIN4cvc58internal12NodeTemplateILb1EEEjES0_IS6_KS4_ESaIS8_ENSt8__detail10_Select1stESt8equal_toIS6_ENS2_16PairHashFunctionIS4_jSt4hashIS4_ESF_IjEEENSA_18_Mod_range_hashingENSA_20_Default_ranged_hashENSA_20_Prime_rehash_policyENSA_17_Hashtable_traitsILb1ELb0ELb1EEEE5clearEv.exit.i.i.i, label %while.body.i.i.i.i.i

while.body.i.i.i.i.i:                             ; preds = %delete.notnull, %.noexc.i.i.i.i
  %__n.addr.04.i.i.i.i.i = phi ptr [ %2, %.noexc.i.i.i.i ], [ %1, %delete.notnull ]
  %2 = load ptr, ptr %__n.addr.04.i.i.i.i.i, align 8
  invoke void @_ZNSt8__detail16_Hashtable_allocISaINS_10_Hash_nodeISt4pairIKS2_IN4cvc58internal12NodeTemplateILb1EEEjEKS6_ELb1EEEEE18_M_deallocate_nodeEPSB_(ptr noundef nonnull align 1 dereferenceable(1) %d_hashMap.i, ptr noundef nonnull %__n.addr.04.i.i.i.i.i)
          to label %.noexc.i.i.i.i unwind label %terminate.lpad.i.i.i.i

.noexc.i.i.i.i:                                   ; preds = %while.body.i.i.i.i.i
  %tobool.not.i.i.i.i.i = icmp eq ptr %2, null
  br i1 %tobool.not.i.i.i.i.i, label %_ZNSt10_HashtableIKSt4pairIN4cvc58internal12NodeTemplateILb1EEEjES0_IS6_KS4_ESaIS8_ENSt8__detail10_Select1stESt8equal_toIS6_ENS2_16PairHashFunctionIS4_jSt4hashIS4_ESF_IjEEENSA_18_Mod_range_hashingENSA_20_Default_ranged_hashENSA_20_Prime_rehash_policyENSA_17_Hashtable_traitsILb1ELb0ELb1EEEE5clearEv.exit.i.i.i, label %while.body.i.i.i.i.i, !llvm.loop !5

terminate.lpad.i.i.i.i:                           ; preds = %while.body.i.i.i.i.i
  %3 = landingpad { ptr, i32 }
          catch ptr null
  %4 = extractvalue { ptr, i32 } %3, 0
  tail call void @__clang_call_terminate(ptr %4) #23
  unreachable

_ZNSt10_HashtableIKSt4pairIN4cvc58internal12NodeTemplateILb1EEEjES0_IS6_KS4_ESaIS8_ENSt8__detail10_Select1stESt8equal_toIS6_ENS2_16PairHashFunctionIS4_jSt4hashIS4_ESF_IjEEENSA_18_Mod_range_hashingENSA_20_Default_ranged_hashENSA_20_Prime_rehash_policyENSA_17_Hashtable_traitsILb1ELb0ELb1EEEE5clearEv.exit.i.i.i: ; preds = %.noexc.i.i.i.i, %delete.notnull
  %5 = load ptr, ptr %d_hashMap.i, align 8
  %_M_bucket_count.i.i.i.i = getelementptr inbounds %"class.cvc5::context::InsertHashMap", ptr %0, i64 0, i32 1, i32 0, i32 1
  %6 = load i64, ptr %_M_bucket_count.i.i.i.i, align 8
  %mul.i.i.i.i = shl i64 %6, 3
  tail call void @llvm.memset.p0.i64(ptr align 8 %5, i8 0, i64 %mul.i.i.i.i, i1 false)
  tail call void @llvm.memset.p0.i64(ptr noundef nonnull align 8 dereferenceable(16) %_M_before_begin.i.i.i.i.i, i8 0, i64 16, i1 false)
  %7 = load ptr, ptr %d_hashMap.i, align 8
  %_M_single_bucket.i.i.i.i.i.i = getelementptr inbounds %"class.cvc5::context::InsertHashMap", ptr %0, i64 0, i32 1, i32 0, i32 5
  %cmp.i.i.i.i.i.i = icmp eq ptr %_M_single_bucket.i.i.i.i.i.i, %7
  br i1 %cmp.i.i.i.i.i.i, label %_ZN4cvc57context13InsertHashMapISt4pairINS_8internal12NodeTemplateILb1EEEjES5_NS3_16PairHashFunctionIS5_jSt4hashIS5_ES8_IjEEEED2Ev.exit, label %if.end.i.i.i.i.i

if.end.i.i.i.i.i:                                 ; preds = %_ZNSt10_HashtableIKSt4pairIN4cvc58internal12NodeTemplateILb1EEEjES0_IS6_KS4_ESaIS8_ENSt8__detail10_Select1stESt8equal_toIS6_ENS2_16PairHashFunctionIS4_jSt4hashIS4_ESF_IjEEENSA_18_Mod_range_hashingENSA_20_Default_ranged_hashENSA_20_Prime_rehash_policyENSA_17_Hashtable_traitsILb1ELb0ELb1EEEE5clearEv.exit.i.i.i
  tail call void @_ZdlPv(ptr noundef %7) #21
  br label %_ZN4cvc57context13InsertHashMapISt4pairINS_8internal12NodeTemplateILb1EEEjES5_NS3_16PairHashFunctionIS5_jSt4hashIS5_ES8_IjEEEED2Ev.exit

_ZN4cvc57context13InsertHashMapISt4pairINS_8internal12NodeTemplateILb1EEEjES5_NS3_16PairHashFunctionIS5_jSt4hashIS5_ES8_IjEEEED2Ev.exit: ; preds = %_ZNSt10_HashtableIKSt4pairIN4cvc58internal12NodeTemplateILb1EEEjES0_IS6_KS4_ESaIS8_ENSt8__detail10_Select1stESt8equal_toIS6_ENS2_16PairHashFunctionIS4_jSt4hashIS4_ESF_IjEEENSA_18_Mod_range_hashingENSA_20_Default_ranged_hashENSA_20_Prime_rehash_policyENSA_17_Hashtable_traitsILb1ELb0ELb1EEEE5clearEv.exit.i.i.i, %if.end.i.i.i.i.i
  tail call void @_ZNSt5dequeISt4pairIN4cvc58internal12NodeTemplateILb1EEEjESaIS5_EED2Ev(ptr noundef nonnull align 8 dereferenceable(80) %0) #22
  tail call void @_ZdlPv(ptr noundef nonnull %0) #21
  br label %delete.end

delete.end:                                       ; preds = %_ZN4cvc57context13InsertHashMapISt4pairINS_8internal12NodeTemplateILb1EEEjES5_NS3_16PairHashFunctionIS5_jSt4hashIS5_ES8_IjEEEED2Ev.exit, %invoke.cont
  ret void

terminate.lpad:                                   ; preds = %entry
  %8 = landingpad { ptr, i32 }
          catch ptr null
  %9 = extractvalue { ptr, i32 } %8, 0
  tail call void @__clang_call_terminate(ptr %9) #23
  unreachable
}

; Function Attrs: mustprogress nounwind uwtable
define hidden void @_ZN4cvc58internal6theory18TheoryPreprocessorD2Ev(ptr noundef nonnull align 8 dereferenceable(288) %this) unnamed_addr #6 align 2 personality ptr @__gxx_personality_v0 {
entry:
  store ptr getelementptr inbounds ({ [4 x ptr] }, ptr @_ZTVN4cvc58internal6theory18TheoryPreprocessorE, i64 0, inrange i32 0, i64 2), ptr %this, align 8
  %d_tpid = getelementptr inbounds %"class.cvc5::internal::theory::TheoryPreprocessor", ptr %this, i64 0, i32 9
  %0 = load ptr, ptr %d_tpid, align 8
  %bf.load.i.i = load i64, ptr %0, align 8
  %1 = and i64 %bf.load.i.i, 1152920405095219200
  %cmp.not.i.i = icmp eq i64 %1, 1152920405095219200
  br i1 %cmp.not.i.i, label %_ZN4cvc58internal12NodeTemplateILb1EED2Ev.exit, label %if.then.i.i

if.then.i.i:                                      ; preds = %entry
  %bf.value.i.i = add i64 %bf.load.i.i, 1152920405095219200
  %bf.shl.i.i = and i64 %bf.value.i.i, 1152920405095219200
  %bf.clear7.i.i = and i64 %bf.load.i.i, -1152920405095219201
  %bf.set.i.i = or disjoint i64 %bf.shl.i.i, %bf.clear7.i.i
  store i64 %bf.set.i.i, ptr %0, align 8
  %cmp12.i.i = icmp eq i64 %bf.shl.i.i, 0
  br i1 %cmp12.i.i, label %if.then13.i.i, label %_ZN4cvc58internal12NodeTemplateILb1EED2Ev.exit

if.then13.i.i:                                    ; preds = %if.then.i.i
  invoke void @_ZN4cvc58internal4expr9NodeValue15markForDeletionEv(ptr noundef nonnull align 8 dereferenceable(16) %0)
          to label %_ZN4cvc58internal12NodeTemplateILb1EED2Ev.exit unwind label %terminate.lpad.i

terminate.lpad.i:                                 ; preds = %if.then13.i.i
  %2 = landingpad { ptr, i32 }
          catch ptr null
  %3 = extractvalue { ptr, i32 } %2, 0
  tail call void @__clang_call_terminate(ptr %3) #23
  unreachable

_ZN4cvc58internal12NodeTemplateILb1EED2Ev.exit:   ; preds = %entry, %if.then.i.i, %if.then13.i.i
  %d_lp = getelementptr inbounds %"class.cvc5::internal::theory::TheoryPreprocessor", ptr %this, i64 0, i32 7
  %4 = load ptr, ptr %d_lp, align 8
  %cmp.not.i = icmp eq ptr %4, null
  br i1 %cmp.not.i, label %_ZNSt10unique_ptrIN4cvc58internal11LazyCDProofESt14default_deleteIS2_EED2Ev.exit, label %_ZNKSt14default_deleteIN4cvc58internal11LazyCDProofEEclEPS2_.exit.i

_ZNKSt14default_deleteIN4cvc58internal11LazyCDProofEEclEPS2_.exit.i: ; preds = %_ZN4cvc58internal12NodeTemplateILb1EED2Ev.exit
  %vtable.i.i = load ptr, ptr %4, align 8
  %vfn.i.i = getelementptr inbounds ptr, ptr %vtable.i.i, i64 1
  %5 = load ptr, ptr %vfn.i.i, align 8
  tail call void %5(ptr noundef nonnull align 8 dereferenceable(408) %4) #22
  br label %_ZNSt10unique_ptrIN4cvc58internal11LazyCDProofESt14default_deleteIS2_EED2Ev.exit

_ZNSt10unique_ptrIN4cvc58internal11LazyCDProofESt14default_deleteIS2_EED2Ev.exit: ; preds = %_ZN4cvc58internal12NodeTemplateILb1EED2Ev.exit, %_ZNKSt14default_deleteIN4cvc58internal11LazyCDProofEEclEPS2_.exit.i
  store ptr null, ptr %d_lp, align 8
  %d_tspg = getelementptr inbounds %"class.cvc5::internal::theory::TheoryPreprocessor", ptr %this, i64 0, i32 6
  %6 = load ptr, ptr %d_tspg, align 8
  %cmp.not.i1 = icmp eq ptr %6, null
  br i1 %cmp.not.i1, label %_ZNSt10unique_ptrIN4cvc58internal22TConvSeqProofGeneratorESt14default_deleteIS2_EED2Ev.exit, label %_ZNKSt14default_deleteIN4cvc58internal22TConvSeqProofGeneratorEEclEPS2_.exit.i

_ZNKSt14default_deleteIN4cvc58internal22TConvSeqProofGeneratorEEclEPS2_.exit.i: ; preds = %_ZNSt10unique_ptrIN4cvc58internal11LazyCDProofESt14default_deleteIS2_EED2Ev.exit
  %vtable.i.i2 = load ptr, ptr %6, align 8
  %vfn.i.i3 = getelementptr inbounds ptr, ptr %vtable.i.i2, i64 1
  %7 = load ptr, ptr %vfn.i.i3, align 8
  tail call void %7(ptr noundef nonnull align 8 dereferenceable(184) %6) #22
  br label %_ZNSt10unique_ptrIN4cvc58internal22TConvSeqProofGeneratorESt14default_deleteIS2_EED2Ev.exit

_ZNSt10unique_ptrIN4cvc58internal22TConvSeqProofGeneratorESt14default_deleteIS2_EED2Ev.exit: ; preds = %_ZNSt10unique_ptrIN4cvc58internal11LazyCDProofESt14default_deleteIS2_EED2Ev.exit, %_ZNKSt14default_deleteIN4cvc58internal22TConvSeqProofGeneratorEEclEPS2_.exit.i
  store ptr null, ptr %d_tspg, align 8
  %d_tpgRew = getelementptr inbounds %"class.cvc5::internal::theory::TheoryPreprocessor", ptr %this, i64 0, i32 5
  %8 = load ptr, ptr %d_tpgRew, align 8
  %cmp.not.i4 = icmp eq ptr %8, null
  br i1 %cmp.not.i4, label %_ZNSt10unique_ptrIN4cvc58internal19TConvProofGeneratorESt14default_deleteIS2_EED2Ev.exit, label %_ZNKSt14default_deleteIN4cvc58internal19TConvProofGeneratorEEclEPS2_.exit.i

_ZNKSt14default_deleteIN4cvc58internal19TConvProofGeneratorEEclEPS2_.exit.i: ; preds = %_ZNSt10unique_ptrIN4cvc58internal22TConvSeqProofGeneratorESt14default_deleteIS2_EED2Ev.exit
  %vtable.i.i5 = load ptr, ptr %8, align 8
  %vfn.i.i6 = getelementptr inbounds ptr, ptr %vtable.i.i5, i64 1
  %9 = load ptr, ptr %vfn.i.i6, align 8
  tail call void %9(ptr noundef nonnull align 8 dereferenceable(801) %8) #22
  br label %_ZNSt10unique_ptrIN4cvc58internal19TConvProofGeneratorESt14default_deleteIS2_EED2Ev.exit

_ZNSt10unique_ptrIN4cvc58internal19TConvProofGeneratorESt14default_deleteIS2_EED2Ev.exit: ; preds = %_ZNSt10unique_ptrIN4cvc58internal22TConvSeqProofGeneratorESt14default_deleteIS2_EED2Ev.exit, %_ZNKSt14default_deleteIN4cvc58internal19TConvProofGeneratorEEclEPS2_.exit.i
  store ptr null, ptr %d_tpgRew, align 8
  %d_tpg = getelementptr inbounds %"class.cvc5::internal::theory::TheoryPreprocessor", ptr %this, i64 0, i32 4
  %10 = load ptr, ptr %d_tpg, align 8
  %cmp.not.i7 = icmp eq ptr %10, null
  br i1 %cmp.not.i7, label %_ZNSt10unique_ptrIN4cvc58internal19TConvProofGeneratorESt14default_deleteIS2_EED2Ev.exit11, label %_ZNKSt14default_deleteIN4cvc58internal19TConvProofGeneratorEEclEPS2_.exit.i8

_ZNKSt14default_deleteIN4cvc58internal19TConvProofGeneratorEEclEPS2_.exit.i8: ; preds = %_ZNSt10unique_ptrIN4cvc58internal19TConvProofGeneratorESt14default_deleteIS2_EED2Ev.exit
  %vtable.i.i9 = load ptr, ptr %10, align 8
  %vfn.i.i10 = getelementptr inbounds ptr, ptr %vtable.i.i9, i64 1
  %11 = load ptr, ptr %vfn.i.i10, align 8
  tail call void %11(ptr noundef nonnull align 8 dereferenceable(801) %10) #22
  br label %_ZNSt10unique_ptrIN4cvc58internal19TConvProofGeneratorESt14default_deleteIS2_EED2Ev.exit11

_ZNSt10unique_ptrIN4cvc58internal19TConvProofGeneratorESt14default_deleteIS2_EED2Ev.exit11: ; preds = %_ZNSt10unique_ptrIN4cvc58internal19TConvProofGeneratorESt14default_deleteIS2_EED2Ev.exit, %_ZNKSt14default_deleteIN4cvc58internal19TConvProofGeneratorEEclEPS2_.exit.i8
  store ptr null, ptr %d_tpg, align 8
  %d_tfr = getelementptr inbounds %"class.cvc5::internal::theory::TheoryPreprocessor", ptr %this, i64 0, i32 3
  tail call void @_ZN4cvc58internal18RemoveTermFormulasD1Ev(ptr noundef nonnull align 8 dereferenceable(160) %d_tfr) #22
  %d_cache = getelementptr inbounds %"class.cvc5::internal::theory::TheoryPreprocessor", ptr %this, i64 0, i32 2
  tail call void @_ZN4cvc57context15CDInsertHashMapISt4pairINS_8internal12NodeTemplateILb1EEEjES5_NS3_16PairHashFunctionIS5_jSt4hashIS5_ES8_IjEEEED2Ev(ptr noundef nonnull align 8 dereferenceable(56) %d_cache) #22
  ret void
}

; Function Attrs: mustprogress nounwind uwtable
define hidden void @_ZN4cvc58internal6theory18TheoryPreprocessorD0Ev(ptr noundef nonnull align 8 dereferenceable(288) %this) unnamed_addr #6 align 2 {
entry:
  tail call void @_ZN4cvc58internal6theory18TheoryPreprocessorD2Ev(ptr noundef nonnull align 8 dereferenceable(288) %this) #22
  tail call void @_ZdlPv(ptr noundef nonnull %this) #21
  ret void
}

; Function Attrs: mustprogress uwtable
define hidden void @_ZN4cvc58internal6theory18TheoryPreprocessor10preprocessENS0_12NodeTemplateILb0EEERSt6vectorINS1_11SkolemLemmaESaIS6_EE(ptr noalias sret(%"class.cvc5::internal::TrustNode") align 8 %agg.result, ptr noundef nonnull align 8 dereferenceable(288) %this, ptr nocapture noundef readonly %node, ptr noundef nonnull align 8 dereferenceable(24) %newLemmas) local_unnamed_addr #3 align 2 personality ptr @__gxx_personality_v0 {
entry:
  %agg.tmp = alloca %"class.cvc5::internal::NodeTemplate.449", align 8
  %0 = load ptr, ptr %node, align 8
  store ptr %0, ptr %agg.tmp, align 8
  call void @_ZN4cvc58internal6theory18TheoryPreprocessor18preprocessInternalENS0_12NodeTemplateILb0EEERSt6vectorINS1_11SkolemLemmaESaIS6_EEb(ptr sret(%"class.cvc5::internal::TrustNode") align 8 %agg.result, ptr noundef nonnull align 8 dereferenceable(288) %this, ptr noundef nonnull %agg.tmp, ptr noundef nonnull align 8 dereferenceable(24) %newLemmas, i1 noundef zeroext true)
  ret void
}

; Function Attrs: mustprogress uwtable
define hidden void @_ZN4cvc58internal6theory18TheoryPreprocessor18preprocessInternalENS0_12NodeTemplateILb0EEERSt6vectorINS1_11SkolemLemmaESaIS6_EEb(ptr noalias sret(%"class.cvc5::internal::TrustNode") align 8 %agg.result, ptr noundef nonnull align 8 dereferenceable(288) %this, ptr nocapture noundef readonly %node, ptr noundef nonnull align 8 dereferenceable(24) %newLemmas, i1 noundef zeroext %procLemmas) local_unnamed_addr #3 align 2 personality ptr @__gxx_personality_v0 {
cond.end:
  %irNode = alloca %"class.cvc5::internal::NodeTemplate", align 8
  %agg.tmp = alloca %"class.cvc5::internal::NodeTemplate", align 8
  %tpp = alloca %"class.cvc5::internal::TrustNode", align 8
  %agg.tmp7 = alloca %"class.cvc5::internal::NodeTemplate.449", align 8
  %ppNode = alloca %"class.cvc5::internal::NodeTemplate", align 8
  %cur = alloca %"class.cvc5::internal::TrustNode", align 8
  %ref.tmp99 = alloca %"class.cvc5::internal::TrustNode", align 8
  %agg.tmp100 = alloca %"class.cvc5::internal::TrustNode", align 8
  %cterms = alloca %"class.std::vector.460", align 8
  %ref.tmp168 = alloca %"class.cvc5::internal::NodeTemplate", align 8
  %ref.tmp176 = alloca %"class.cvc5::internal::TrustNode", align 8
  %ref.tmp187 = alloca %"class.cvc5::internal::TrustNode", align 8
  %agg.tmp188 = alloca %"class.cvc5::internal::NodeTemplate.449", align 8
  %agg.tmp190 = alloca %"class.cvc5::internal::NodeTemplate", align 8
  %0 = load ptr, ptr %node, align 8
  store ptr %0, ptr %agg.tmp, align 8
  %bf.load.i.i = load i64, ptr %0, align 8
  %bf.lshr.i.i = lshr i64 %bf.load.i.i, 40
  %1 = trunc i64 %bf.lshr.i.i to i32
  %bf.cast.i.i = and i32 %1, 1048575
  %cmp.i.i61 = icmp ult i32 %bf.cast.i.i, 1048574
  br i1 %cmp.i.i61, label %if.then.i.i, label %if.else.i.i

if.then.i.i:                                      ; preds = %cond.end
  %bf.value.i.i = add i64 %bf.load.i.i, 1099511627776
  %bf.shl.i.i = and i64 %bf.value.i.i, 1152920405095219200
  %bf.clear7.i.i = and i64 %bf.load.i.i, -1152920405095219201
  %bf.set.i.i = or disjoint i64 %bf.shl.i.i, %bf.clear7.i.i
  store i64 %bf.set.i.i, ptr %0, align 8
  br label %_ZN4cvc58internal12NodeTemplateILb1EEC2ERKNS1_ILb0EEE.exit

if.else.i.i:                                      ; preds = %cond.end
  %cmp12.i.i = icmp eq i32 %bf.cast.i.i, 1048574
  br i1 %cmp12.i.i, label %if.then13.i.i, label %_ZN4cvc58internal12NodeTemplateILb1EEC2ERKNS1_ILb0EEE.exit

if.then13.i.i:                                    ; preds = %if.else.i.i
  %bf.set23.i.i = or i64 %bf.load.i.i, 1152920405095219200
  store i64 %bf.set23.i.i, ptr %0, align 8
  tail call void @_ZN4cvc58internal4expr9NodeValue20markRefCountMaxedOutEv(ptr noundef nonnull align 8 dereferenceable(16) %0)
  br label %_ZN4cvc58internal12NodeTemplateILb1EEC2ERKNS1_ILb0EEE.exit

_ZN4cvc58internal12NodeTemplateILb1EEC2ERKNS1_ILb0EEE.exit: ; preds = %if.then.i.i, %if.else.i.i, %if.then13.i.i
  %d_tpgRew = getelementptr inbounds %"class.cvc5::internal::theory::TheoryPreprocessor", ptr %this, i64 0, i32 5
  %2 = load ptr, ptr %d_tpgRew, align 8
  invoke void @_ZN4cvc58internal6theory18TheoryPreprocessor16rewriteWithProofENS0_12NodeTemplateILb1EEEPNS0_19TConvProofGeneratorEbj(ptr nonnull sret(%"class.cvc5::internal::NodeTemplate") align 8 %irNode, ptr noundef nonnull align 8 dereferenceable(288) %this, ptr noundef nonnull %agg.tmp, ptr noundef %2, i1 noundef zeroext true, i32 noundef 0)
          to label %invoke.cont unwind label %lpad

invoke.cont:                                      ; preds = %_ZN4cvc58internal12NodeTemplateILb1EEC2ERKNS1_ILb0EEE.exit
  %bf.load.i.i62 = load i64, ptr %0, align 8
  %3 = and i64 %bf.load.i.i62, 1152920405095219200
  %cmp.not.i.i = icmp eq i64 %3, 1152920405095219200
  br i1 %cmp.not.i.i, label %_ZN4cvc58internal12NodeTemplateILb1EED2Ev.exit, label %if.then.i.i63

if.then.i.i63:                                    ; preds = %invoke.cont
  %bf.value.i.i64 = add i64 %bf.load.i.i62, 1152920405095219200
  %bf.shl.i.i65 = and i64 %bf.value.i.i64, 1152920405095219200
  %bf.clear7.i.i66 = and i64 %bf.load.i.i62, -1152920405095219201
  %bf.set.i.i67 = or disjoint i64 %bf.shl.i.i65, %bf.clear7.i.i66
  store i64 %bf.set.i.i67, ptr %0, align 8
  %cmp12.i.i68 = icmp eq i64 %bf.shl.i.i65, 0
  br i1 %cmp12.i.i68, label %if.then13.i.i69, label %_ZN4cvc58internal12NodeTemplateILb1EED2Ev.exit

if.then13.i.i69:                                  ; preds = %if.then.i.i63
  invoke void @_ZN4cvc58internal4expr9NodeValue15markForDeletionEv(ptr noundef nonnull align 8 dereferenceable(16) %0)
          to label %_ZN4cvc58internal12NodeTemplateILb1EED2Ev.exit unwind label %terminate.lpad.i

terminate.lpad.i:                                 ; preds = %if.then13.i.i69
  %4 = landingpad { ptr, i32 }
          catch ptr null
  %5 = extractvalue { ptr, i32 } %4, 0
  call void @__clang_call_terminate(ptr %5) #23
  unreachable

_ZN4cvc58internal12NodeTemplateILb1EED2Ev.exit:   ; preds = %invoke.cont, %if.then.i.i63, %if.then13.i.i69
  %6 = load ptr, ptr %irNode, align 8
  store ptr %6, ptr %agg.tmp7, align 8
  invoke void @_ZN4cvc58internal6theory18TheoryPreprocessor16theoryPreprocessENS0_12NodeTemplateILb0EEERSt6vectorINS1_11SkolemLemmaESaIS6_EE(ptr nonnull sret(%"class.cvc5::internal::TrustNode") align 8 %tpp, ptr noundef nonnull align 8 dereferenceable(288) %this, ptr noundef nonnull %agg.tmp7, ptr noundef nonnull align 8 dereferenceable(24) %newLemmas)
          to label %invoke.cont11 unwind label %lpad10

invoke.cont11:                                    ; preds = %_ZN4cvc58internal12NodeTemplateILb1EED2Ev.exit
  invoke void @_ZNK4cvc58internal9TrustNode7getNodeEv(ptr nonnull sret(%"class.cvc5::internal::NodeTemplate") align 8 %ppNode, ptr noundef nonnull align 8 dereferenceable(24) %tpp)
          to label %if.end94 unwind label %lpad12

lpad:                                             ; preds = %_ZN4cvc58internal12NodeTemplateILb1EEC2ERKNS1_ILb0EEE.exit
  %7 = landingpad { ptr, i32 }
          cleanup
  br label %eh.resume

lpad10:                                           ; preds = %_ZN4cvc58internal12NodeTemplateILb1EED2Ev.exit
  %8 = landingpad { ptr, i32 }
          cleanup
  br label %eh.resume

lpad12:                                           ; preds = %invoke.cont11
  %9 = landingpad { ptr, i32 }
          cleanup
  br label %ehcleanup271

lpad15.loopexit:                                  ; preds = %if.then13.i.i.i
  %lpad.loopexit = landingpad { ptr, i32 }
          cleanup
  br label %ehcleanup269

lpad15.loopexit.split-lp:                         ; preds = %cond.true149
  %lpad.loopexit.split-lp = landingpad { ptr, i32 }
          cleanup
  br label %ehcleanup269

if.end94:                                         ; preds = %invoke.cont11
  br i1 %procLemmas, label %while.cond.preheader, label %if.end142

while.cond.preheader:                             ; preds = %if.end94
  %_M_finish.i = getelementptr inbounds %"struct.std::_Vector_base<cvc5::internal::theory::SkolemLemma, std::allocator<cvc5::internal::theory::SkolemLemma>>::_Vector_impl_data", ptr %newLemmas, i64 0, i32 1
  %10 = load ptr, ptr %_M_finish.i, align 8
  %11 = load ptr, ptr %newLemmas, align 8
  %cmp1068.not = icmp eq ptr %10, %11
  br i1 %cmp1068.not, label %if.end142, label %while.body.lr.ph

while.body.lr.ph:                                 ; preds = %while.cond.preheader
  %d_proven.i = getelementptr inbounds %"class.cvc5::internal::TrustNode", ptr %cur, i64 0, i32 1
  %d_gen.i = getelementptr inbounds %"class.cvc5::internal::TrustNode", ptr %cur, i64 0, i32 2
  %d_proven.i285 = getelementptr inbounds %"class.cvc5::internal::TrustNode", ptr %agg.tmp100, i64 0, i32 1
  %d_gen.i293 = getelementptr inbounds %"class.cvc5::internal::TrustNode", ptr %agg.tmp100, i64 0, i32 2
  %d_proven3.i306 = getelementptr inbounds %"class.cvc5::internal::TrustNode", ptr %ref.tmp99, i64 0, i32 1
  %d_gen.i320 = getelementptr inbounds %"class.cvc5::internal::TrustNode", ptr %ref.tmp99, i64 0, i32 2
  br label %while.body

while.body:                                       ; preds = %while.body.lr.ph, %_ZN4cvc58internal9TrustNodeD2Ev.exit450
  %12 = phi ptr [ %11, %while.body.lr.ph ], [ %38, %_ZN4cvc58internal9TrustNodeD2Ev.exit450 ]
  %i.01069 = phi i64 [ 0, %while.body.lr.ph ], [ %inc, %_ZN4cvc58internal9TrustNodeD2Ev.exit450 ]
  %add.ptr.i282 = getelementptr inbounds %"class.cvc5::internal::theory::SkolemLemma", ptr %12, i64 %i.01069
  %13 = load i32, ptr %add.ptr.i282, align 8
  store i32 %13, ptr %cur, align 8
  %d_proven3.i = getelementptr inbounds %"class.cvc5::internal::TrustNode", ptr %add.ptr.i282, i64 0, i32 1
  %14 = load ptr, ptr %d_proven3.i, align 8
  store ptr %14, ptr %d_proven.i, align 8
  %bf.load.i.i.i = load i64, ptr %14, align 8
  %bf.lshr.i.i.i = lshr i64 %bf.load.i.i.i, 40
  %15 = trunc i64 %bf.lshr.i.i.i to i32
  %bf.cast.i.i.i = and i32 %15, 1048575
  %cmp.i.i.i283 = icmp ult i32 %bf.cast.i.i.i, 1048574
  br i1 %cmp.i.i.i283, label %if.then.i.i.i, label %if.else.i.i.i

if.then.i.i.i:                                    ; preds = %while.body
  %bf.value.i.i.i = add i64 %bf.load.i.i.i, 1099511627776
  %bf.shl.i.i.i = and i64 %bf.value.i.i.i, 1152920405095219200
  %bf.clear7.i.i.i = and i64 %bf.load.i.i.i, -1152920405095219201
  %bf.set.i.i.i = or disjoint i64 %bf.shl.i.i.i, %bf.clear7.i.i.i
  store i64 %bf.set.i.i.i, ptr %14, align 8
  br label %invoke.cont98

if.else.i.i.i:                                    ; preds = %while.body
  %cmp12.i.i.i = icmp eq i32 %bf.cast.i.i.i, 1048574
  br i1 %cmp12.i.i.i, label %if.then13.i.i.i, label %invoke.cont98

if.then13.i.i.i:                                  ; preds = %if.else.i.i.i
  %bf.set23.i.i.i = or i64 %bf.load.i.i.i, 1152920405095219200
  store i64 %bf.set23.i.i.i, ptr %14, align 8
  invoke void @_ZN4cvc58internal4expr9NodeValue20markRefCountMaxedOutEv(ptr noundef nonnull align 8 dereferenceable(16) %14)
          to label %invoke.cont98 unwind label %lpad15.loopexit

invoke.cont98:                                    ; preds = %if.else.i.i.i, %if.then.i.i.i, %if.then13.i.i.i
  %d_gen4.i = getelementptr inbounds %"class.cvc5::internal::TrustNode", ptr %add.ptr.i282, i64 0, i32 2
  %16 = load ptr, ptr %d_gen4.i, align 8
  store ptr %16, ptr %d_gen.i, align 8
  store i32 %13, ptr %agg.tmp100, align 8
  store ptr %14, ptr %d_proven.i285, align 8
  %bf.load.i.i.i287 = load i64, ptr %14, align 8
  %bf.lshr.i.i.i288 = lshr i64 %bf.load.i.i.i287, 40
  %17 = trunc i64 %bf.lshr.i.i.i288 to i32
  %bf.cast.i.i.i289 = and i32 %17, 1048575
  %cmp.i.i.i290 = icmp ult i32 %bf.cast.i.i.i289, 1048574
  br i1 %cmp.i.i.i290, label %if.then.i.i.i297, label %if.else.i.i.i291

if.then.i.i.i297:                                 ; preds = %invoke.cont98
  %bf.value.i.i.i298 = add i64 %bf.load.i.i.i287, 1099511627776
  %bf.shl.i.i.i299 = and i64 %bf.value.i.i.i298, 1152920405095219200
  %bf.clear7.i.i.i300 = and i64 %bf.load.i.i.i287, -1152920405095219201
  %bf.set.i.i.i301 = or disjoint i64 %bf.shl.i.i.i299, %bf.clear7.i.i.i300
  store i64 %bf.set.i.i.i301, ptr %14, align 8
  br label %invoke.cont102

if.else.i.i.i291:                                 ; preds = %invoke.cont98
  %cmp12.i.i.i292 = icmp eq i32 %bf.cast.i.i.i289, 1048574
  br i1 %cmp12.i.i.i292, label %if.then13.i.i.i295, label %invoke.cont102

if.then13.i.i.i295:                               ; preds = %if.else.i.i.i291
  %bf.set23.i.i.i296 = or i64 %bf.load.i.i.i287, 1152920405095219200
  store i64 %bf.set23.i.i.i296, ptr %14, align 8
  invoke void @_ZN4cvc58internal4expr9NodeValue20markRefCountMaxedOutEv(ptr noundef nonnull align 8 dereferenceable(16) %14)
          to label %invoke.cont102 unwind label %lpad101

invoke.cont102:                                   ; preds = %if.else.i.i.i291, %if.then.i.i.i297, %if.then13.i.i.i295
  store ptr %16, ptr %d_gen.i293, align 8
  invoke void @_ZN4cvc58internal6theory18TheoryPreprocessor23preprocessLemmaInternalENS0_9TrustNodeERSt6vectorINS1_11SkolemLemmaESaIS5_EEb(ptr nonnull sret(%"class.cvc5::internal::TrustNode") align 8 %ref.tmp99, ptr noundef nonnull align 8 dereferenceable(288) %this, ptr noundef nonnull %agg.tmp100, ptr noundef nonnull align 8 dereferenceable(24) %newLemmas, i1 noundef zeroext false)
          to label %invoke.cont104 unwind label %lpad103

invoke.cont104:                                   ; preds = %invoke.cont102
  %18 = load ptr, ptr %newLemmas, align 8
  %add.ptr.i304 = getelementptr inbounds %"class.cvc5::internal::theory::SkolemLemma", ptr %18, i64 %i.01069
  %19 = load i32, ptr %ref.tmp99, align 8
  store i32 %19, ptr %add.ptr.i304, align 8
  %d_proven.i305 = getelementptr inbounds %"class.cvc5::internal::TrustNode", ptr %add.ptr.i304, i64 0, i32 1
  %20 = load ptr, ptr %d_proven.i305, align 8
  %21 = load ptr, ptr %d_proven3.i306, align 8
  %cmp.not.i.i307 = icmp eq ptr %20, %21
  br i1 %cmp.not.i.i307, label %invoke.cont108, label %if.then.i.i308

if.then.i.i308:                                   ; preds = %invoke.cont104
  %bf.load.i.i.i309 = load i64, ptr %20, align 8
  %22 = and i64 %bf.load.i.i.i309, 1152920405095219200
  %cmp.not.i.i.i = icmp eq i64 %22, 1152920405095219200
  br i1 %cmp.not.i.i.i, label %_ZN4cvc58internal4expr9NodeValue3decEv.exit.i.i, label %if.then.i.i.i310

if.then.i.i.i310:                                 ; preds = %if.then.i.i308
  %bf.value.i.i.i311 = add i64 %bf.load.i.i.i309, 1152920405095219200
  %bf.shl.i.i.i312 = and i64 %bf.value.i.i.i311, 1152920405095219200
  %bf.clear7.i.i.i313 = and i64 %bf.load.i.i.i309, -1152920405095219201
  %bf.set.i.i.i314 = or disjoint i64 %bf.shl.i.i.i312, %bf.clear7.i.i.i313
  store i64 %bf.set.i.i.i314, ptr %20, align 8
  %cmp12.i.i.i315 = icmp eq i64 %bf.shl.i.i.i312, 0
  br i1 %cmp12.i.i.i315, label %if.then13.i.i.i323, label %_ZN4cvc58internal4expr9NodeValue3decEv.exit.i.i

if.then13.i.i.i323:                               ; preds = %if.then.i.i.i310
  invoke void @_ZN4cvc58internal4expr9NodeValue15markForDeletionEv(ptr noundef nonnull align 8 dereferenceable(16) %20)
          to label %_ZN4cvc58internal4expr9NodeValue3decEv.exit.i.i unwind label %lpad107

_ZN4cvc58internal4expr9NodeValue3decEv.exit.i.i:  ; preds = %if.then13.i.i.i323, %if.then.i.i.i310, %if.then.i.i308
  %23 = load ptr, ptr %d_proven3.i306, align 8
  store ptr %23, ptr %d_proven.i305, align 8
  %bf.load.i2.i.i = load i64, ptr %23, align 8
  %bf.lshr.i.i.i316 = lshr i64 %bf.load.i2.i.i, 40
  %24 = trunc i64 %bf.lshr.i.i.i316 to i32
  %bf.cast.i.i.i317 = and i32 %24, 1048575
  %cmp.i.i.i318 = icmp ult i32 %bf.cast.i.i.i317, 1048574
  br i1 %cmp.i.i.i318, label %if.then.i5.i.i, label %if.else.i.i.i319

if.then.i5.i.i:                                   ; preds = %_ZN4cvc58internal4expr9NodeValue3decEv.exit.i.i
  %bf.value.i6.i.i = add i64 %bf.load.i2.i.i, 1099511627776
  %bf.shl.i7.i.i = and i64 %bf.value.i6.i.i, 1152920405095219200
  %bf.clear7.i8.i.i = and i64 %bf.load.i2.i.i, -1152920405095219201
  %bf.set.i9.i.i = or disjoint i64 %bf.shl.i7.i.i, %bf.clear7.i8.i.i
  store i64 %bf.set.i9.i.i, ptr %23, align 8
  br label %invoke.cont108

if.else.i.i.i319:                                 ; preds = %_ZN4cvc58internal4expr9NodeValue3decEv.exit.i.i
  %cmp12.i3.i.i = icmp eq i32 %bf.cast.i.i.i317, 1048574
  br i1 %cmp12.i3.i.i, label %if.then13.i4.i.i, label %invoke.cont108

if.then13.i4.i.i:                                 ; preds = %if.else.i.i.i319
  %bf.set23.i.i.i322 = or i64 %bf.load.i2.i.i, 1152920405095219200
  store i64 %bf.set23.i.i.i322, ptr %23, align 8
  invoke void @_ZN4cvc58internal4expr9NodeValue20markRefCountMaxedOutEv(ptr noundef nonnull align 8 dereferenceable(16) %23)
          to label %invoke.cont108 unwind label %lpad107

invoke.cont108:                                   ; preds = %if.else.i.i.i319, %if.then.i5.i.i, %invoke.cont104, %if.then13.i4.i.i
  %25 = load ptr, ptr %d_gen.i320, align 8
  %d_gen4.i321 = getelementptr inbounds %"class.cvc5::internal::TrustNode", ptr %add.ptr.i304, i64 0, i32 2
  store ptr %25, ptr %d_gen4.i321, align 8
  %26 = load ptr, ptr %d_proven3.i306, align 8
  %bf.load.i.i.i327 = load i64, ptr %26, align 8
  %27 = and i64 %bf.load.i.i.i327, 1152920405095219200
  %cmp.not.i.i.i328 = icmp eq i64 %27, 1152920405095219200
  br i1 %cmp.not.i.i.i328, label %_ZN4cvc58internal9TrustNodeD2Ev.exit, label %if.then.i.i.i329

if.then.i.i.i329:                                 ; preds = %invoke.cont108
  %bf.value.i.i.i330 = add i64 %bf.load.i.i.i327, 1152920405095219200
  %bf.shl.i.i.i331 = and i64 %bf.value.i.i.i330, 1152920405095219200
  %bf.clear7.i.i.i332 = and i64 %bf.load.i.i.i327, -1152920405095219201
  %bf.set.i.i.i333 = or disjoint i64 %bf.shl.i.i.i331, %bf.clear7.i.i.i332
  store i64 %bf.set.i.i.i333, ptr %26, align 8
  %cmp12.i.i.i334 = icmp eq i64 %bf.shl.i.i.i331, 0
  br i1 %cmp12.i.i.i334, label %if.then13.i.i.i335, label %_ZN4cvc58internal9TrustNodeD2Ev.exit

if.then13.i.i.i335:                               ; preds = %if.then.i.i.i329
  invoke void @_ZN4cvc58internal4expr9NodeValue15markForDeletionEv(ptr noundef nonnull align 8 dereferenceable(16) %26)
          to label %_ZN4cvc58internal9TrustNodeD2Ev.exit unwind label %terminate.lpad.i.i

terminate.lpad.i.i:                               ; preds = %if.then13.i.i.i335
  %28 = landingpad { ptr, i32 }
          catch ptr null
  %29 = extractvalue { ptr, i32 } %28, 0
  call void @__clang_call_terminate(ptr %29) #23
  unreachable

_ZN4cvc58internal9TrustNodeD2Ev.exit:             ; preds = %invoke.cont108, %if.then.i.i.i329, %if.then13.i.i.i335
  %30 = load ptr, ptr %d_proven.i285, align 8
  %bf.load.i.i.i337 = load i64, ptr %30, align 8
  %31 = and i64 %bf.load.i.i.i337, 1152920405095219200
  %cmp.not.i.i.i338 = icmp eq i64 %31, 1152920405095219200
  br i1 %cmp.not.i.i.i338, label %cond.true115, label %if.then.i.i.i339

if.then.i.i.i339:                                 ; preds = %_ZN4cvc58internal9TrustNodeD2Ev.exit
  %bf.value.i.i.i340 = add i64 %bf.load.i.i.i337, 1152920405095219200
  %bf.shl.i.i.i341 = and i64 %bf.value.i.i.i340, 1152920405095219200
  %bf.clear7.i.i.i342 = and i64 %bf.load.i.i.i337, -1152920405095219201
  %bf.set.i.i.i343 = or disjoint i64 %bf.shl.i.i.i341, %bf.clear7.i.i.i342
  store i64 %bf.set.i.i.i343, ptr %30, align 8
  %cmp12.i.i.i344 = icmp eq i64 %bf.shl.i.i.i341, 0
  br i1 %cmp12.i.i.i344, label %if.then13.i.i.i345, label %cond.true115

if.then13.i.i.i345:                               ; preds = %if.then.i.i.i339
  invoke void @_ZN4cvc58internal4expr9NodeValue15markForDeletionEv(ptr noundef nonnull align 8 dereferenceable(16) %30)
          to label %cond.true115 unwind label %terminate.lpad.i.i346

terminate.lpad.i.i346:                            ; preds = %if.then13.i.i.i345
  %32 = landingpad { ptr, i32 }
          catch ptr null
  %33 = extractvalue { ptr, i32 } %32, 0
  call void @__clang_call_terminate(ptr %33) #23
  unreachable

cond.true115:                                     ; preds = %if.then13.i.i.i345, %if.then.i.i.i339, %_ZN4cvc58internal9TrustNodeD2Ev.exit
  %inc = add nuw i64 %i.01069, 1
  %bf.load.i.i.i440 = load i64, ptr %14, align 8
  %34 = and i64 %bf.load.i.i.i440, 1152920405095219200
  %cmp.not.i.i.i441 = icmp eq i64 %34, 1152920405095219200
  br i1 %cmp.not.i.i.i441, label %_ZN4cvc58internal9TrustNodeD2Ev.exit450, label %if.then.i.i.i442

if.then.i.i.i442:                                 ; preds = %cond.true115
  %bf.value.i.i.i443 = add i64 %bf.load.i.i.i440, 1152920405095219200
  %bf.shl.i.i.i444 = and i64 %bf.value.i.i.i443, 1152920405095219200
  %bf.clear7.i.i.i445 = and i64 %bf.load.i.i.i440, -1152920405095219201
  %bf.set.i.i.i446 = or disjoint i64 %bf.shl.i.i.i444, %bf.clear7.i.i.i445
  store i64 %bf.set.i.i.i446, ptr %14, align 8
  %cmp12.i.i.i447 = icmp eq i64 %bf.shl.i.i.i444, 0
  br i1 %cmp12.i.i.i447, label %if.then13.i.i.i448, label %_ZN4cvc58internal9TrustNodeD2Ev.exit450

if.then13.i.i.i448:                               ; preds = %if.then.i.i.i442
  invoke void @_ZN4cvc58internal4expr9NodeValue15markForDeletionEv(ptr noundef nonnull align 8 dereferenceable(16) %14)
          to label %_ZN4cvc58internal9TrustNodeD2Ev.exit450 unwind label %terminate.lpad.i.i449

terminate.lpad.i.i449:                            ; preds = %if.then13.i.i.i448
  %35 = landingpad { ptr, i32 }
          catch ptr null
  %36 = extractvalue { ptr, i32 } %35, 0
  call void @__clang_call_terminate(ptr %36) #23
  unreachable

_ZN4cvc58internal9TrustNodeD2Ev.exit450:          ; preds = %cond.true115, %if.then.i.i.i442, %if.then13.i.i.i448
  %37 = load ptr, ptr %_M_finish.i, align 8
  %38 = load ptr, ptr %newLemmas, align 8
  %sub.ptr.lhs.cast.i = ptrtoint ptr %37 to i64
  %sub.ptr.rhs.cast.i = ptrtoint ptr %38 to i64
  %sub.ptr.sub.i = sub i64 %sub.ptr.lhs.cast.i, %sub.ptr.rhs.cast.i
  %sub.ptr.div.i = ashr exact i64 %sub.ptr.sub.i, 5
  %cmp = icmp ult i64 %inc, %sub.ptr.div.i
  br i1 %cmp, label %while.body, label %if.end142, !llvm.loop !7

lpad101:                                          ; preds = %if.then13.i.i.i295
  %39 = landingpad { ptr, i32 }
          cleanup
  br label %ehcleanup141

lpad103:                                          ; preds = %invoke.cont102
  %40 = landingpad { ptr, i32 }
          cleanup
  br label %ehcleanup111

lpad107:                                          ; preds = %if.then13.i4.i.i, %if.then13.i.i.i323
  %41 = landingpad { ptr, i32 }
          cleanup
  call void @_ZN4cvc58internal9TrustNodeD2Ev(ptr noundef nonnull align 8 dereferenceable(24) %ref.tmp99) #22
  br label %ehcleanup111

ehcleanup111:                                     ; preds = %lpad107, %lpad103
  %.pn19 = phi { ptr, i32 } [ %41, %lpad107 ], [ %40, %lpad103 ]
  call void @_ZN4cvc58internal9TrustNodeD2Ev(ptr noundef nonnull align 8 dereferenceable(24) %agg.tmp100) #22
  br label %ehcleanup141

ehcleanup141:                                     ; preds = %ehcleanup111, %lpad101
  %.pn21 = phi { ptr, i32 } [ %39, %lpad101 ], [ %.pn19, %ehcleanup111 ]
  call void @_ZN4cvc58internal9TrustNodeD2Ev(ptr noundef nonnull align 8 dereferenceable(24) %cur) #22
  br label %ehcleanup269

if.end142:                                        ; preds = %_ZN4cvc58internal9TrustNodeD2Ev.exit450, %while.cond.preheader, %if.end94
  %42 = load ptr, ptr %node, align 8
  %43 = load ptr, ptr %ppNode, align 8
  %cmp.i451 = icmp eq ptr %42, %43
  br i1 %cmp.i451, label %cond.true149, label %if.end162

cond.true149:                                     ; preds = %if.end142
  invoke void @_ZN4cvc58internal9TrustNode4nullEv(ptr sret(%"class.cvc5::internal::TrustNode") align 8 %agg.result)
          to label %cleanup unwind label %lpad15.loopexit.split-lp

if.end162:                                        ; preds = %if.end142
  store i32 4, ptr %agg.result, align 8
  %44 = load atomic i8, ptr @_ZGVZN4cvc58internal4expr9NodeValue4nullEvE6s_null acquire, align 8
  %guard.uninitialized.i.i.i = icmp eq i8 %44, 0
  br i1 %guard.uninitialized.i.i.i, label %init.check.i.i.i, label %invoke.cont163, !prof !4

init.check.i.i.i:                                 ; preds = %if.end162
  %45 = call i32 @__cxa_guard_acquire(ptr nonnull @_ZGVZN4cvc58internal4expr9NodeValue4nullEvE6s_null) #22
  %tobool.not.i.i.i = icmp eq i32 %45, 0
  br i1 %tobool.not.i.i.i, label %invoke.cont163, label %init.i.i.i

init.i.i.i:                                       ; preds = %init.check.i.i.i
  %call.i.i.i = invoke noalias noundef nonnull dereferenceable(16) ptr @_Znwm(i64 noundef 16) #20
          to label %invoke.cont.i.i.i unwind label %lpad.i.i.i

invoke.cont.i.i.i:                                ; preds = %init.i.i.i
  store i64 1152920405095219200, ptr %call.i.i.i, align 8
  %d_kind.i.i.i.i = getelementptr inbounds %"class.cvc5::internal::expr::NodeValue", ptr %call.i.i.i, i64 0, i32 1
  store i16 0, ptr %d_kind.i.i.i.i, align 8
  %d_nchildren.i.i.i.i = getelementptr inbounds %"class.cvc5::internal::expr::NodeValue", ptr %call.i.i.i, i64 0, i32 2
  store i32 0, ptr %d_nchildren.i.i.i.i, align 4
  store ptr %call.i.i.i, ptr @_ZZN4cvc58internal4expr9NodeValue4nullEvE6s_null, align 8
  call void @__cxa_guard_release(ptr nonnull @_ZGVZN4cvc58internal4expr9NodeValue4nullEvE6s_null) #22
  br label %invoke.cont163

lpad.i.i.i:                                       ; preds = %init.i.i.i
  %46 = landingpad { ptr, i32 }
          cleanup
  call void @__cxa_guard_abort(ptr nonnull @_ZGVZN4cvc58internal4expr9NodeValue4nullEvE6s_null) #22
  br label %ehcleanup269

invoke.cont163:                                   ; preds = %invoke.cont.i.i.i, %init.check.i.i.i, %if.end162
  %d_proven.i498 = getelementptr inbounds %"class.cvc5::internal::TrustNode", ptr %agg.result, i64 0, i32 1
  %47 = load ptr, ptr @_ZZN4cvc58internal4expr9NodeValue4nullEvE6s_null, align 8
  store ptr %47, ptr %d_proven.i498, align 8
  %d_gen.i499 = getelementptr inbounds %"class.cvc5::internal::TrustNode", ptr %agg.result, i64 0, i32 2
  store ptr null, ptr %d_gen.i499, align 8
  %d_tpg.i = getelementptr inbounds %"class.cvc5::internal::theory::TheoryPreprocessor", ptr %this, i64 0, i32 4
  %48 = load ptr, ptr %d_tpg.i, align 8
  %cmp.i.i.i501.not = icmp eq ptr %48, null
  br i1 %cmp.i.i.i501.not, label %if.else, label %if.then167

if.then167:                                       ; preds = %invoke.cont163
  call void @llvm.memset.p0.i64(ptr noundef nonnull align 8 dereferenceable(24) %cterms, i8 0, i64 24, i1 false)
  %49 = load ptr, ptr %node, align 8
  store ptr %49, ptr %ref.tmp168, align 8
  %bf.load.i.i502 = load i64, ptr %49, align 8
  %bf.lshr.i.i503 = lshr i64 %bf.load.i.i502, 40
  %50 = trunc i64 %bf.lshr.i.i503 to i32
  %bf.cast.i.i504 = and i32 %50, 1048575
  %cmp.i.i505 = icmp ult i32 %bf.cast.i.i504, 1048574
  br i1 %cmp.i.i505, label %if.then.i.i510, label %if.else.i.i506

if.then.i.i510:                                   ; preds = %if.then167
  %bf.value.i.i511 = add i64 %bf.load.i.i502, 1099511627776
  %bf.shl.i.i512 = and i64 %bf.value.i.i511, 1152920405095219200
  %bf.clear7.i.i513 = and i64 %bf.load.i.i502, -1152920405095219201
  %bf.set.i.i514 = or disjoint i64 %bf.shl.i.i512, %bf.clear7.i.i513
  store i64 %bf.set.i.i514, ptr %49, align 8
  br label %invoke.cont170

if.else.i.i506:                                   ; preds = %if.then167
  %cmp12.i.i507 = icmp eq i32 %bf.cast.i.i504, 1048574
  br i1 %cmp12.i.i507, label %if.then13.i.i508, label %invoke.cont170

if.then13.i.i508:                                 ; preds = %if.else.i.i506
  %bf.set23.i.i509 = or i64 %bf.load.i.i502, 1152920405095219200
  store i64 %bf.set23.i.i509, ptr %49, align 8
  invoke void @_ZN4cvc58internal4expr9NodeValue20markRefCountMaxedOutEv(ptr noundef nonnull align 8 dereferenceable(16) %49)
          to label %invoke.cont170 unwind label %lpad169

invoke.cont170:                                   ; preds = %if.else.i.i506, %if.then.i.i510, %if.then13.i.i508
  %_M_finish.i.i = getelementptr inbounds %"struct.std::_Vector_base<cvc5::internal::NodeTemplate<true>, std::allocator<cvc5::internal::NodeTemplate<true>>>::_Vector_impl_data", ptr %cterms, i64 0, i32 1
  %51 = load ptr, ptr %_M_finish.i.i, align 8
  %_M_end_of_storage.i.i = getelementptr inbounds %"struct.std::_Vector_base<cvc5::internal::NodeTemplate<true>, std::allocator<cvc5::internal::NodeTemplate<true>>>::_Vector_impl_data", ptr %cterms, i64 0, i32 2
  %52 = load ptr, ptr %_M_end_of_storage.i.i, align 8
  %cmp.not.i.i517 = icmp eq ptr %51, %52
  br i1 %cmp.not.i.i517, label %if.else.i.i519, label %if.then.i.i518

if.then.i.i518:                                   ; preds = %invoke.cont170
  %53 = load ptr, ptr %ref.tmp168, align 8
  store ptr %53, ptr %51, align 8
  %bf.load.i.i.i.i.i.i = load i64, ptr %53, align 8
  %bf.lshr.i.i.i.i.i.i = lshr i64 %bf.load.i.i.i.i.i.i, 40
  %54 = trunc i64 %bf.lshr.i.i.i.i.i.i to i32
  %bf.cast.i.i.i.i.i.i = and i32 %54, 1048575
  %cmp.i.i.i.i.i.i = icmp ult i32 %bf.cast.i.i.i.i.i.i, 1048574
  br i1 %cmp.i.i.i.i.i.i, label %if.then.i.i.i.i.i.i, label %if.else.i.i.i.i.i.i

if.then.i.i.i.i.i.i:                              ; preds = %if.then.i.i518
  %bf.value.i.i.i.i.i.i = add i64 %bf.load.i.i.i.i.i.i, 1099511627776
  %bf.shl.i.i.i.i.i.i = and i64 %bf.value.i.i.i.i.i.i, 1152920405095219200
  %bf.clear7.i.i.i.i.i.i = and i64 %bf.load.i.i.i.i.i.i, -1152920405095219201
  %bf.set.i.i.i.i.i.i = or disjoint i64 %bf.shl.i.i.i.i.i.i, %bf.clear7.i.i.i.i.i.i
  store i64 %bf.set.i.i.i.i.i.i, ptr %53, align 8
  br label %_ZNSt16allocator_traitsISaIN4cvc58internal12NodeTemplateILb1EEEEE9constructIS3_JS3_EEEvRS4_PT_DpOT0_.exit.i.i

if.else.i.i.i.i.i.i:                              ; preds = %if.then.i.i518
  %cmp12.i.i.i.i.i.i = icmp eq i32 %bf.cast.i.i.i.i.i.i, 1048574
  br i1 %cmp12.i.i.i.i.i.i, label %if.then13.i.i.i.i.i.i, label %_ZNSt16allocator_traitsISaIN4cvc58internal12NodeTemplateILb1EEEEE9constructIS3_JS3_EEEvRS4_PT_DpOT0_.exit.i.i

if.then13.i.i.i.i.i.i:                            ; preds = %if.else.i.i.i.i.i.i
  %bf.set23.i.i.i.i.i.i = or i64 %bf.load.i.i.i.i.i.i, 1152920405095219200
  store i64 %bf.set23.i.i.i.i.i.i, ptr %53, align 8
  invoke void @_ZN4cvc58internal4expr9NodeValue20markRefCountMaxedOutEv(ptr noundef nonnull align 8 dereferenceable(16) %53)
          to label %_ZNSt16allocator_traitsISaIN4cvc58internal12NodeTemplateILb1EEEEE9constructIS3_JS3_EEEvRS4_PT_DpOT0_.exit.i.i unwind label %lpad171

_ZNSt16allocator_traitsISaIN4cvc58internal12NodeTemplateILb1EEEEE9constructIS3_JS3_EEEvRS4_PT_DpOT0_.exit.i.i: ; preds = %if.then13.i.i.i.i.i.i, %if.else.i.i.i.i.i.i, %if.then.i.i.i.i.i.i
  %55 = load ptr, ptr %_M_finish.i.i, align 8
  %incdec.ptr.i.i = getelementptr inbounds %"class.cvc5::internal::NodeTemplate", ptr %55, i64 1
  store ptr %incdec.ptr.i.i, ptr %_M_finish.i.i, align 8
  br label %invoke.cont172

if.else.i.i519:                                   ; preds = %invoke.cont170
  invoke void @_ZNSt6vectorIN4cvc58internal12NodeTemplateILb1EEESaIS3_EE17_M_realloc_insertIJS3_EEEvN9__gnu_cxx17__normal_iteratorIPS3_S5_EEDpOT_(ptr noundef nonnull align 8 dereferenceable(24) %cterms, ptr %51, ptr noundef nonnull align 8 dereferenceable(8) %ref.tmp168)
          to label %invoke.cont172 unwind label %lpad171

invoke.cont172:                                   ; preds = %_ZNSt16allocator_traitsISaIN4cvc58internal12NodeTemplateILb1EEEEE9constructIS3_JS3_EEEvRS4_PT_DpOT0_.exit.i.i, %if.else.i.i519
  %56 = load ptr, ptr %ref.tmp168, align 8
  %bf.load.i.i522 = load i64, ptr %56, align 8
  %57 = and i64 %bf.load.i.i522, 1152920405095219200
  %cmp.not.i.i523 = icmp eq i64 %57, 1152920405095219200
  br i1 %cmp.not.i.i523, label %_ZN4cvc58internal12NodeTemplateILb1EED2Ev.exit532, label %if.then.i.i524

if.then.i.i524:                                   ; preds = %invoke.cont172
  %bf.value.i.i525 = add i64 %bf.load.i.i522, 1152920405095219200
  %bf.shl.i.i526 = and i64 %bf.value.i.i525, 1152920405095219200
  %bf.clear7.i.i527 = and i64 %bf.load.i.i522, -1152920405095219201
  %bf.set.i.i528 = or disjoint i64 %bf.shl.i.i526, %bf.clear7.i.i527
  store i64 %bf.set.i.i528, ptr %56, align 8
  %cmp12.i.i529 = icmp eq i64 %bf.shl.i.i526, 0
  br i1 %cmp12.i.i529, label %if.then13.i.i530, label %_ZN4cvc58internal12NodeTemplateILb1EED2Ev.exit532

if.then13.i.i530:                                 ; preds = %if.then.i.i524
  invoke void @_ZN4cvc58internal4expr9NodeValue15markForDeletionEv(ptr noundef nonnull align 8 dereferenceable(16) %56)
          to label %_ZN4cvc58internal12NodeTemplateILb1EED2Ev.exit532 unwind label %terminate.lpad.i531

terminate.lpad.i531:                              ; preds = %if.then13.i.i530
  %58 = landingpad { ptr, i32 }
          catch ptr null
  %59 = extractvalue { ptr, i32 } %58, 0
  call void @__clang_call_terminate(ptr %59) #23
  unreachable

_ZN4cvc58internal12NodeTemplateILb1EED2Ev.exit532: ; preds = %invoke.cont172, %if.then.i.i524, %if.then13.i.i530
  %60 = load ptr, ptr %_M_finish.i.i, align 8
  %61 = load ptr, ptr %_M_end_of_storage.i.i, align 8
  %cmp.not.i534 = icmp eq ptr %60, %61
  br i1 %cmp.not.i534, label %if.else.i, label %if.then.i535

if.then.i535:                                     ; preds = %_ZN4cvc58internal12NodeTemplateILb1EED2Ev.exit532
  %62 = load ptr, ptr %irNode, align 8
  store ptr %62, ptr %60, align 8
  %bf.load.i.i.i.i.i = load i64, ptr %62, align 8
  %bf.lshr.i.i.i.i.i = lshr i64 %bf.load.i.i.i.i.i, 40
  %63 = trunc i64 %bf.lshr.i.i.i.i.i to i32
  %bf.cast.i.i.i.i.i = and i32 %63, 1048575
  %cmp.i.i.i.i.i = icmp ult i32 %bf.cast.i.i.i.i.i, 1048574
  br i1 %cmp.i.i.i.i.i, label %if.then.i.i.i.i.i, label %if.else.i.i.i.i.i

if.then.i.i.i.i.i:                                ; preds = %if.then.i535
  %bf.value.i.i.i.i.i = add i64 %bf.load.i.i.i.i.i, 1099511627776
  %bf.shl.i.i.i.i.i = and i64 %bf.value.i.i.i.i.i, 1152920405095219200
  %bf.clear7.i.i.i.i.i = and i64 %bf.load.i.i.i.i.i, -1152920405095219201
  %bf.set.i.i.i.i.i = or disjoint i64 %bf.shl.i.i.i.i.i, %bf.clear7.i.i.i.i.i
  store i64 %bf.set.i.i.i.i.i, ptr %62, align 8
  br label %_ZNSt16allocator_traitsISaIN4cvc58internal12NodeTemplateILb1EEEEE9constructIS3_JRKS3_EEEvRS4_PT_DpOT0_.exit.i

if.else.i.i.i.i.i:                                ; preds = %if.then.i535
  %cmp12.i.i.i.i.i = icmp eq i32 %bf.cast.i.i.i.i.i, 1048574
  br i1 %cmp12.i.i.i.i.i, label %if.then13.i.i.i.i.i, label %_ZNSt16allocator_traitsISaIN4cvc58internal12NodeTemplateILb1EEEEE9constructIS3_JRKS3_EEEvRS4_PT_DpOT0_.exit.i

if.then13.i.i.i.i.i:                              ; preds = %if.else.i.i.i.i.i
  %bf.set23.i.i.i.i.i = or i64 %bf.load.i.i.i.i.i, 1152920405095219200
  store i64 %bf.set23.i.i.i.i.i, ptr %62, align 8
  invoke void @_ZN4cvc58internal4expr9NodeValue20markRefCountMaxedOutEv(ptr noundef nonnull align 8 dereferenceable(16) %62)
          to label %_ZNSt16allocator_traitsISaIN4cvc58internal12NodeTemplateILb1EEEEE9constructIS3_JRKS3_EEEvRS4_PT_DpOT0_.exit.i unwind label %lpad169

_ZNSt16allocator_traitsISaIN4cvc58internal12NodeTemplateILb1EEEEE9constructIS3_JRKS3_EEEvRS4_PT_DpOT0_.exit.i: ; preds = %if.then13.i.i.i.i.i, %if.else.i.i.i.i.i, %if.then.i.i.i.i.i
  %64 = load ptr, ptr %_M_finish.i.i, align 8
  %incdec.ptr.i = getelementptr inbounds %"class.cvc5::internal::NodeTemplate", ptr %64, i64 1
  store ptr %incdec.ptr.i, ptr %_M_finish.i.i, align 8
  br label %invoke.cont174

if.else.i:                                        ; preds = %_ZN4cvc58internal12NodeTemplateILb1EED2Ev.exit532
  invoke void @_ZNSt6vectorIN4cvc58internal12NodeTemplateILb1EEESaIS3_EE17_M_realloc_insertIJRKS3_EEEvN9__gnu_cxx17__normal_iteratorIPS3_S5_EEDpOT_(ptr noundef nonnull align 8 dereferenceable(24) %cterms, ptr %60, ptr noundef nonnull align 8 dereferenceable(8) %irNode)
          to label %if.else.i.invoke.cont174_crit_edge unwind label %lpad169

if.else.i.invoke.cont174_crit_edge:               ; preds = %if.else.i
  %.pre = load ptr, ptr %_M_finish.i.i, align 8
  br label %invoke.cont174

invoke.cont174:                                   ; preds = %if.else.i.invoke.cont174_crit_edge, %_ZNSt16allocator_traitsISaIN4cvc58internal12NodeTemplateILb1EEEEE9constructIS3_JRKS3_EEEvRS4_PT_DpOT0_.exit.i
  %65 = phi ptr [ %.pre, %if.else.i.invoke.cont174_crit_edge ], [ %incdec.ptr.i, %_ZNSt16allocator_traitsISaIN4cvc58internal12NodeTemplateILb1EEEEE9constructIS3_JRKS3_EEEvRS4_PT_DpOT0_.exit.i ]
  %66 = load ptr, ptr %_M_end_of_storage.i.i, align 8
  %cmp.not.i541 = icmp eq ptr %65, %66
  br i1 %cmp.not.i541, label %if.else.i559, label %if.then.i542

if.then.i542:                                     ; preds = %invoke.cont174
  %67 = load ptr, ptr %ppNode, align 8
  store ptr %67, ptr %65, align 8
  %bf.load.i.i.i.i.i543 = load i64, ptr %67, align 8
  %bf.lshr.i.i.i.i.i544 = lshr i64 %bf.load.i.i.i.i.i543, 40
  %68 = trunc i64 %bf.lshr.i.i.i.i.i544 to i32
  %bf.cast.i.i.i.i.i545 = and i32 %68, 1048575
  %cmp.i.i.i.i.i546 = icmp ult i32 %bf.cast.i.i.i.i.i545, 1048574
  br i1 %cmp.i.i.i.i.i546, label %if.then.i.i.i.i.i554, label %if.else.i.i.i.i.i547

if.then.i.i.i.i.i554:                             ; preds = %if.then.i542
  %bf.value.i.i.i.i.i555 = add i64 %bf.load.i.i.i.i.i543, 1099511627776
  %bf.shl.i.i.i.i.i556 = and i64 %bf.value.i.i.i.i.i555, 1152920405095219200
  %bf.clear7.i.i.i.i.i557 = and i64 %bf.load.i.i.i.i.i543, -1152920405095219201
  %bf.set.i.i.i.i.i558 = or disjoint i64 %bf.shl.i.i.i.i.i556, %bf.clear7.i.i.i.i.i557
  store i64 %bf.set.i.i.i.i.i558, ptr %67, align 8
  br label %_ZNSt16allocator_traitsISaIN4cvc58internal12NodeTemplateILb1EEEEE9constructIS3_JRKS3_EEEvRS4_PT_DpOT0_.exit.i549

if.else.i.i.i.i.i547:                             ; preds = %if.then.i542
  %cmp12.i.i.i.i.i548 = icmp eq i32 %bf.cast.i.i.i.i.i545, 1048574
  br i1 %cmp12.i.i.i.i.i548, label %if.then13.i.i.i.i.i552, label %_ZNSt16allocator_traitsISaIN4cvc58internal12NodeTemplateILb1EEEEE9constructIS3_JRKS3_EEEvRS4_PT_DpOT0_.exit.i549

if.then13.i.i.i.i.i552:                           ; preds = %if.else.i.i.i.i.i547
  %bf.set23.i.i.i.i.i553 = or i64 %bf.load.i.i.i.i.i543, 1152920405095219200
  store i64 %bf.set23.i.i.i.i.i553, ptr %67, align 8
  invoke void @_ZN4cvc58internal4expr9NodeValue20markRefCountMaxedOutEv(ptr noundef nonnull align 8 dereferenceable(16) %67)
          to label %_ZNSt16allocator_traitsISaIN4cvc58internal12NodeTemplateILb1EEEEE9constructIS3_JRKS3_EEEvRS4_PT_DpOT0_.exit.i549 unwind label %lpad169

_ZNSt16allocator_traitsISaIN4cvc58internal12NodeTemplateILb1EEEEE9constructIS3_JRKS3_EEEvRS4_PT_DpOT0_.exit.i549: ; preds = %if.then13.i.i.i.i.i552, %if.else.i.i.i.i.i547, %if.then.i.i.i.i.i554
  %69 = load ptr, ptr %_M_finish.i.i, align 8
  %incdec.ptr.i550 = getelementptr inbounds %"class.cvc5::internal::NodeTemplate", ptr %69, i64 1
  store ptr %incdec.ptr.i550, ptr %_M_finish.i.i, align 8
  br label %invoke.cont175

if.else.i559:                                     ; preds = %invoke.cont174
  invoke void @_ZNSt6vectorIN4cvc58internal12NodeTemplateILb1EEESaIS3_EE17_M_realloc_insertIJRKS3_EEEvN9__gnu_cxx17__normal_iteratorIPS3_S5_EEDpOT_(ptr noundef nonnull align 8 dereferenceable(24) %cterms, ptr %65, ptr noundef nonnull align 8 dereferenceable(8) %ppNode)
          to label %invoke.cont175 unwind label %lpad169

invoke.cont175:                                   ; preds = %_ZNSt16allocator_traitsISaIN4cvc58internal12NodeTemplateILb1EEEEE9constructIS3_JRKS3_EEEvRS4_PT_DpOT0_.exit.i549, %if.else.i559
  %d_tspg = getelementptr inbounds %"class.cvc5::internal::theory::TheoryPreprocessor", ptr %this, i64 0, i32 6
  %70 = load ptr, ptr %d_tspg, align 8
  invoke void @_ZN4cvc58internal22TConvSeqProofGenerator22mkTrustRewriteSequenceERKSt6vectorINS0_12NodeTemplateILb1EEESaIS4_EE(ptr nonnull sret(%"class.cvc5::internal::TrustNode") align 8 %ref.tmp176, ptr noundef nonnull align 8 dereferenceable(184) %70, ptr noundef nonnull align 8 dereferenceable(24) %cterms)
          to label %invoke.cont178 unwind label %lpad169

invoke.cont178:                                   ; preds = %invoke.cont175
  %71 = load i32, ptr %ref.tmp176, align 8
  store i32 %71, ptr %agg.result, align 8
  %d_proven3.i564 = getelementptr inbounds %"class.cvc5::internal::TrustNode", ptr %ref.tmp176, i64 0, i32 1
  %72 = load ptr, ptr %d_proven.i498, align 8
  %73 = load ptr, ptr %d_proven3.i564, align 8
  %cmp.not.i.i565 = icmp eq ptr %72, %73
  br i1 %cmp.not.i.i565, label %invoke.cont180, label %if.then.i.i566

if.then.i.i566:                                   ; preds = %invoke.cont178
  %bf.load.i.i.i567 = load i64, ptr %72, align 8
  %74 = and i64 %bf.load.i.i.i567, 1152920405095219200
  %cmp.not.i.i.i568 = icmp eq i64 %74, 1152920405095219200
  br i1 %cmp.not.i.i.i568, label %_ZN4cvc58internal4expr9NodeValue3decEv.exit.i.i575, label %if.then.i.i.i569

if.then.i.i.i569:                                 ; preds = %if.then.i.i566
  %bf.value.i.i.i570 = add i64 %bf.load.i.i.i567, 1152920405095219200
  %bf.shl.i.i.i571 = and i64 %bf.value.i.i.i570, 1152920405095219200
  %bf.clear7.i.i.i572 = and i64 %bf.load.i.i.i567, -1152920405095219201
  %bf.set.i.i.i573 = or disjoint i64 %bf.shl.i.i.i571, %bf.clear7.i.i.i572
  store i64 %bf.set.i.i.i573, ptr %72, align 8
  %cmp12.i.i.i574 = icmp eq i64 %bf.shl.i.i.i571, 0
  br i1 %cmp12.i.i.i574, label %if.then13.i.i.i591, label %_ZN4cvc58internal4expr9NodeValue3decEv.exit.i.i575

if.then13.i.i.i591:                               ; preds = %if.then.i.i.i569
  invoke void @_ZN4cvc58internal4expr9NodeValue15markForDeletionEv(ptr noundef nonnull align 8 dereferenceable(16) %72)
          to label %_ZN4cvc58internal4expr9NodeValue3decEv.exit.i.i575 unwind label %lpad179

_ZN4cvc58internal4expr9NodeValue3decEv.exit.i.i575: ; preds = %if.then13.i.i.i591, %if.then.i.i.i569, %if.then.i.i566
  %75 = load ptr, ptr %d_proven3.i564, align 8
  store ptr %75, ptr %d_proven.i498, align 8
  %bf.load.i2.i.i576 = load i64, ptr %75, align 8
  %bf.lshr.i.i.i577 = lshr i64 %bf.load.i2.i.i576, 40
  %76 = trunc i64 %bf.lshr.i.i.i577 to i32
  %bf.cast.i.i.i578 = and i32 %76, 1048575
  %cmp.i.i.i579 = icmp ult i32 %bf.cast.i.i.i578, 1048574
  br i1 %cmp.i.i.i579, label %if.then.i5.i.i586, label %if.else.i.i.i580

if.then.i5.i.i586:                                ; preds = %_ZN4cvc58internal4expr9NodeValue3decEv.exit.i.i575
  %bf.value.i6.i.i587 = add i64 %bf.load.i2.i.i576, 1099511627776
  %bf.shl.i7.i.i588 = and i64 %bf.value.i6.i.i587, 1152920405095219200
  %bf.clear7.i8.i.i589 = and i64 %bf.load.i2.i.i576, -1152920405095219201
  %bf.set.i9.i.i590 = or disjoint i64 %bf.shl.i7.i.i588, %bf.clear7.i8.i.i589
  store i64 %bf.set.i9.i.i590, ptr %75, align 8
  br label %invoke.cont180

if.else.i.i.i580:                                 ; preds = %_ZN4cvc58internal4expr9NodeValue3decEv.exit.i.i575
  %cmp12.i3.i.i581 = icmp eq i32 %bf.cast.i.i.i578, 1048574
  br i1 %cmp12.i3.i.i581, label %if.then13.i4.i.i584, label %invoke.cont180

if.then13.i4.i.i584:                              ; preds = %if.else.i.i.i580
  %bf.set23.i.i.i585 = or i64 %bf.load.i2.i.i576, 1152920405095219200
  store i64 %bf.set23.i.i.i585, ptr %75, align 8
  invoke void @_ZN4cvc58internal4expr9NodeValue20markRefCountMaxedOutEv(ptr noundef nonnull align 8 dereferenceable(16) %75)
          to label %invoke.cont180 unwind label %lpad179

invoke.cont180:                                   ; preds = %if.else.i.i.i580, %if.then.i5.i.i586, %invoke.cont178, %if.then13.i4.i.i584
  %d_gen.i582 = getelementptr inbounds %"class.cvc5::internal::TrustNode", ptr %ref.tmp176, i64 0, i32 2
  %77 = load ptr, ptr %d_gen.i582, align 8
  store ptr %77, ptr %d_gen.i499, align 8
  %78 = load ptr, ptr %d_proven3.i564, align 8
  %bf.load.i.i.i596 = load i64, ptr %78, align 8
  %79 = and i64 %bf.load.i.i.i596, 1152920405095219200
  %cmp.not.i.i.i597 = icmp eq i64 %79, 1152920405095219200
  br i1 %cmp.not.i.i.i597, label %_ZN4cvc58internal9TrustNodeD2Ev.exit606, label %if.then.i.i.i598

if.then.i.i.i598:                                 ; preds = %invoke.cont180
  %bf.value.i.i.i599 = add i64 %bf.load.i.i.i596, 1152920405095219200
  %bf.shl.i.i.i600 = and i64 %bf.value.i.i.i599, 1152920405095219200
  %bf.clear7.i.i.i601 = and i64 %bf.load.i.i.i596, -1152920405095219201
  %bf.set.i.i.i602 = or disjoint i64 %bf.shl.i.i.i600, %bf.clear7.i.i.i601
  store i64 %bf.set.i.i.i602, ptr %78, align 8
  %cmp12.i.i.i603 = icmp eq i64 %bf.shl.i.i.i600, 0
  br i1 %cmp12.i.i.i603, label %if.then13.i.i.i604, label %_ZN4cvc58internal9TrustNodeD2Ev.exit606

if.then13.i.i.i604:                               ; preds = %if.then.i.i.i598
  invoke void @_ZN4cvc58internal4expr9NodeValue15markForDeletionEv(ptr noundef nonnull align 8 dereferenceable(16) %78)
          to label %_ZN4cvc58internal9TrustNodeD2Ev.exit606 unwind label %terminate.lpad.i.i605

terminate.lpad.i.i605:                            ; preds = %if.then13.i.i.i604
  %80 = landingpad { ptr, i32 }
          catch ptr null
  %81 = extractvalue { ptr, i32 } %80, 0
  call void @__clang_call_terminate(ptr %81) #23
  unreachable

_ZN4cvc58internal9TrustNodeD2Ev.exit606:          ; preds = %invoke.cont180, %if.then.i.i.i598, %if.then13.i.i.i604
  %call184 = invoke noundef nonnull align 8 dereferenceable(392) ptr @_ZNK4cvc58internal6EnvObj7optionsEv(ptr noundef nonnull align 8 dereferenceable(16) %this)
          to label %invoke.cont183 unwind label %lpad169

invoke.cont183:                                   ; preds = %_ZN4cvc58internal9TrustNodeD2Ev.exit606
  invoke void @_ZN4cvc58internal9TrustNode16debugCheckClosedERKNS0_7OptionsEPKcS6_b(ptr noundef nonnull align 8 dereferenceable(24) %agg.result, ptr noundef nonnull align 8 dereferenceable(392) %call184, ptr noundef nonnull @.str.6, ptr noundef nonnull @.str.12, i1 noundef zeroext true)
          to label %invoke.cont185 unwind label %lpad169

invoke.cont185:                                   ; preds = %invoke.cont183
  %82 = load ptr, ptr %cterms, align 8
  %83 = load ptr, ptr %_M_finish.i.i, align 8
  %cmp.not3.i.i.i.i = icmp eq ptr %82, %83
  br i1 %cmp.not3.i.i.i.i, label %invoke.cont.i, label %for.body.i.i.i.i

for.body.i.i.i.i:                                 ; preds = %invoke.cont185, %_ZSt8_DestroyIN4cvc58internal12NodeTemplateILb1EEEEvPT_.exit.i.i.i.i
  %__first.addr.04.i.i.i.i = phi ptr [ %incdec.ptr.i.i.i.i, %_ZSt8_DestroyIN4cvc58internal12NodeTemplateILb1EEEEvPT_.exit.i.i.i.i ], [ %82, %invoke.cont185 ]
  %84 = load ptr, ptr %__first.addr.04.i.i.i.i, align 8
  %bf.load.i.i.i.i.i.i.i = load i64, ptr %84, align 8
  %85 = and i64 %bf.load.i.i.i.i.i.i.i, 1152920405095219200
  %cmp.not.i.i.i.i.i.i.i = icmp eq i64 %85, 1152920405095219200
  br i1 %cmp.not.i.i.i.i.i.i.i, label %_ZSt8_DestroyIN4cvc58internal12NodeTemplateILb1EEEEvPT_.exit.i.i.i.i, label %if.then.i.i.i.i.i.i.i

if.then.i.i.i.i.i.i.i:                            ; preds = %for.body.i.i.i.i
  %bf.value.i.i.i.i.i.i.i = add i64 %bf.load.i.i.i.i.i.i.i, 1152920405095219200
  %bf.shl.i.i.i.i.i.i.i = and i64 %bf.value.i.i.i.i.i.i.i, 1152920405095219200
  %bf.clear7.i.i.i.i.i.i.i = and i64 %bf.load.i.i.i.i.i.i.i, -1152920405095219201
  %bf.set.i.i.i.i.i.i.i = or disjoint i64 %bf.shl.i.i.i.i.i.i.i, %bf.clear7.i.i.i.i.i.i.i
  store i64 %bf.set.i.i.i.i.i.i.i, ptr %84, align 8
  %cmp12.i.i.i.i.i.i.i = icmp eq i64 %bf.shl.i.i.i.i.i.i.i, 0
  br i1 %cmp12.i.i.i.i.i.i.i, label %if.then13.i.i.i.i.i.i.i, label %_ZSt8_DestroyIN4cvc58internal12NodeTemplateILb1EEEEvPT_.exit.i.i.i.i

if.then13.i.i.i.i.i.i.i:                          ; preds = %if.then.i.i.i.i.i.i.i
  invoke void @_ZN4cvc58internal4expr9NodeValue15markForDeletionEv(ptr noundef nonnull align 8 dereferenceable(16) %84)
          to label %_ZSt8_DestroyIN4cvc58internal12NodeTemplateILb1EEEEvPT_.exit.i.i.i.i unwind label %terminate.lpad.i.i.i.i.i.i

terminate.lpad.i.i.i.i.i.i:                       ; preds = %if.then13.i.i.i.i.i.i.i
  %86 = landingpad { ptr, i32 }
          catch ptr null
  %87 = extractvalue { ptr, i32 } %86, 0
  call void @__clang_call_terminate(ptr %87) #23
  unreachable

_ZSt8_DestroyIN4cvc58internal12NodeTemplateILb1EEEEvPT_.exit.i.i.i.i: ; preds = %if.then13.i.i.i.i.i.i.i, %if.then.i.i.i.i.i.i.i, %for.body.i.i.i.i
  %incdec.ptr.i.i.i.i = getelementptr inbounds %"class.cvc5::internal::NodeTemplate", ptr %__first.addr.04.i.i.i.i, i64 1
  %cmp.not.i.i.i.i = icmp eq ptr %incdec.ptr.i.i.i.i, %83
  br i1 %cmp.not.i.i.i.i, label %invoke.contthread-pre-split.i, label %for.body.i.i.i.i, !llvm.loop !8

invoke.contthread-pre-split.i:                    ; preds = %_ZSt8_DestroyIN4cvc58internal12NodeTemplateILb1EEEEvPT_.exit.i.i.i.i
  %.pr.i = load ptr, ptr %cterms, align 8
  br label %invoke.cont.i

invoke.cont.i:                                    ; preds = %invoke.contthread-pre-split.i, %invoke.cont185
  %88 = phi ptr [ %.pr.i, %invoke.contthread-pre-split.i ], [ %82, %invoke.cont185 ]
  %tobool.not.i.i.i608 = icmp eq ptr %88, null
  br i1 %tobool.not.i.i.i608, label %cleanup, label %if.then.i.i.i609

if.then.i.i.i609:                                 ; preds = %invoke.cont.i
  call void @_ZdlPv(ptr noundef nonnull %88) #21
  br label %cleanup

lpad169:                                          ; preds = %if.else.i559, %if.then13.i.i.i.i.i552, %if.else.i, %if.then13.i.i.i.i.i, %if.then13.i.i508, %invoke.cont183, %_ZN4cvc58internal9TrustNodeD2Ev.exit606, %invoke.cont175
  %89 = landingpad { ptr, i32 }
          cleanup
  br label %ehcleanup186

lpad171:                                          ; preds = %if.else.i.i519, %if.then13.i.i.i.i.i.i
  %90 = landingpad { ptr, i32 }
          cleanup
  call void @_ZN4cvc58internal12NodeTemplateILb1EED2Ev(ptr noundef nonnull align 8 dereferenceable(8) %ref.tmp168) #22
  br label %ehcleanup186

lpad179:                                          ; preds = %if.then13.i4.i.i584, %if.then13.i.i.i591
  %91 = landingpad { ptr, i32 }
          cleanup
  call void @_ZN4cvc58internal9TrustNodeD2Ev(ptr noundef nonnull align 8 dereferenceable(24) %ref.tmp176) #22
  br label %ehcleanup186

ehcleanup186:                                     ; preds = %lpad179, %lpad171, %lpad169
  %.pn15 = phi { ptr, i32 } [ %89, %lpad169 ], [ %91, %lpad179 ], [ %90, %lpad171 ]
  call void @_ZNSt6vectorIN4cvc58internal12NodeTemplateILb1EEESaIS3_EED2Ev(ptr noundef nonnull align 8 dereferenceable(24) %cterms) #22
  br label %ehcleanup268

if.else:                                          ; preds = %invoke.cont163
  %92 = load ptr, ptr %node, align 8
  store ptr %92, ptr %agg.tmp188, align 8
  %93 = load ptr, ptr %ppNode, align 8
  store ptr %93, ptr %agg.tmp190, align 8
  %bf.load.i.i610 = load i64, ptr %93, align 8
  %bf.lshr.i.i611 = lshr i64 %bf.load.i.i610, 40
  %94 = trunc i64 %bf.lshr.i.i611 to i32
  %bf.cast.i.i612 = and i32 %94, 1048575
  %cmp.i.i613 = icmp ult i32 %bf.cast.i.i612, 1048574
  br i1 %cmp.i.i613, label %if.then.i.i618, label %if.else.i.i614

if.then.i.i618:                                   ; preds = %if.else
  %bf.value.i.i619 = add i64 %bf.load.i.i610, 1099511627776
  %bf.shl.i.i620 = and i64 %bf.value.i.i619, 1152920405095219200
  %bf.clear7.i.i621 = and i64 %bf.load.i.i610, -1152920405095219201
  %bf.set.i.i622 = or disjoint i64 %bf.shl.i.i620, %bf.clear7.i.i621
  store i64 %bf.set.i.i622, ptr %93, align 8
  br label %invoke.cont192

if.else.i.i614:                                   ; preds = %if.else
  %cmp12.i.i615 = icmp eq i32 %bf.cast.i.i612, 1048574
  br i1 %cmp12.i.i615, label %if.then13.i.i616, label %invoke.cont192

if.then13.i.i616:                                 ; preds = %if.else.i.i614
  %bf.set23.i.i617 = or i64 %bf.load.i.i610, 1152920405095219200
  store i64 %bf.set23.i.i617, ptr %93, align 8
  invoke void @_ZN4cvc58internal4expr9NodeValue20markRefCountMaxedOutEv(ptr noundef nonnull align 8 dereferenceable(16) %93)
          to label %invoke.cont192 unwind label %lpad191

invoke.cont192:                                   ; preds = %if.else.i.i614, %if.then.i.i618, %if.then13.i.i616
  invoke void @_ZN4cvc58internal9TrustNode14mkTrustRewriteENS0_12NodeTemplateILb0EEENS2_ILb1EEEPNS0_14ProofGeneratorE(ptr nonnull sret(%"class.cvc5::internal::TrustNode") align 8 %ref.tmp187, ptr noundef nonnull %agg.tmp188, ptr noundef nonnull %agg.tmp190, ptr noundef null)
          to label %invoke.cont194 unwind label %lpad193

invoke.cont194:                                   ; preds = %invoke.cont192
  %95 = load i32, ptr %ref.tmp187, align 8
  store i32 %95, ptr %agg.result, align 8
  %d_proven3.i625 = getelementptr inbounds %"class.cvc5::internal::TrustNode", ptr %ref.tmp187, i64 0, i32 1
  %96 = load ptr, ptr %d_proven.i498, align 8
  %97 = load ptr, ptr %d_proven3.i625, align 8
  %cmp.not.i.i626 = icmp eq ptr %96, %97
  br i1 %cmp.not.i.i626, label %invoke.cont196, label %if.then.i.i627

if.then.i.i627:                                   ; preds = %invoke.cont194
  %bf.load.i.i.i628 = load i64, ptr %96, align 8
  %98 = and i64 %bf.load.i.i.i628, 1152920405095219200
  %cmp.not.i.i.i629 = icmp eq i64 %98, 1152920405095219200
  br i1 %cmp.not.i.i.i629, label %_ZN4cvc58internal4expr9NodeValue3decEv.exit.i.i636, label %if.then.i.i.i630

if.then.i.i.i630:                                 ; preds = %if.then.i.i627
  %bf.value.i.i.i631 = add i64 %bf.load.i.i.i628, 1152920405095219200
  %bf.shl.i.i.i632 = and i64 %bf.value.i.i.i631, 1152920405095219200
  %bf.clear7.i.i.i633 = and i64 %bf.load.i.i.i628, -1152920405095219201
  %bf.set.i.i.i634 = or disjoint i64 %bf.shl.i.i.i632, %bf.clear7.i.i.i633
  store i64 %bf.set.i.i.i634, ptr %96, align 8
  %cmp12.i.i.i635 = icmp eq i64 %bf.shl.i.i.i632, 0
  br i1 %cmp12.i.i.i635, label %if.then13.i.i.i652, label %_ZN4cvc58internal4expr9NodeValue3decEv.exit.i.i636

if.then13.i.i.i652:                               ; preds = %if.then.i.i.i630
  invoke void @_ZN4cvc58internal4expr9NodeValue15markForDeletionEv(ptr noundef nonnull align 8 dereferenceable(16) %96)
          to label %_ZN4cvc58internal4expr9NodeValue3decEv.exit.i.i636 unwind label %lpad195

_ZN4cvc58internal4expr9NodeValue3decEv.exit.i.i636: ; preds = %if.then13.i.i.i652, %if.then.i.i.i630, %if.then.i.i627
  %99 = load ptr, ptr %d_proven3.i625, align 8
  store ptr %99, ptr %d_proven.i498, align 8
  %bf.load.i2.i.i637 = load i64, ptr %99, align 8
  %bf.lshr.i.i.i638 = lshr i64 %bf.load.i2.i.i637, 40
  %100 = trunc i64 %bf.lshr.i.i.i638 to i32
  %bf.cast.i.i.i639 = and i32 %100, 1048575
  %cmp.i.i.i640 = icmp ult i32 %bf.cast.i.i.i639, 1048574
  br i1 %cmp.i.i.i640, label %if.then.i5.i.i647, label %if.else.i.i.i641

if.then.i5.i.i647:                                ; preds = %_ZN4cvc58internal4expr9NodeValue3decEv.exit.i.i636
  %bf.value.i6.i.i648 = add i64 %bf.load.i2.i.i637, 1099511627776
  %bf.shl.i7.i.i649 = and i64 %bf.value.i6.i.i648, 1152920405095219200
  %bf.clear7.i8.i.i650 = and i64 %bf.load.i2.i.i637, -1152920405095219201
  %bf.set.i9.i.i651 = or disjoint i64 %bf.shl.i7.i.i649, %bf.clear7.i8.i.i650
  store i64 %bf.set.i9.i.i651, ptr %99, align 8
  br label %invoke.cont196

if.else.i.i.i641:                                 ; preds = %_ZN4cvc58internal4expr9NodeValue3decEv.exit.i.i636
  %cmp12.i3.i.i642 = icmp eq i32 %bf.cast.i.i.i639, 1048574
  br i1 %cmp12.i3.i.i642, label %if.then13.i4.i.i645, label %invoke.cont196

if.then13.i4.i.i645:                              ; preds = %if.else.i.i.i641
  %bf.set23.i.i.i646 = or i64 %bf.load.i2.i.i637, 1152920405095219200
  store i64 %bf.set23.i.i.i646, ptr %99, align 8
  invoke void @_ZN4cvc58internal4expr9NodeValue20markRefCountMaxedOutEv(ptr noundef nonnull align 8 dereferenceable(16) %99)
          to label %invoke.cont196 unwind label %lpad195

invoke.cont196:                                   ; preds = %if.else.i.i.i641, %if.then.i5.i.i647, %invoke.cont194, %if.then13.i4.i.i645
  %d_gen.i643 = getelementptr inbounds %"class.cvc5::internal::TrustNode", ptr %ref.tmp187, i64 0, i32 2
  %101 = load ptr, ptr %d_gen.i643, align 8
  store ptr %101, ptr %d_gen.i499, align 8
  %102 = load ptr, ptr %d_proven3.i625, align 8
  %bf.load.i.i.i657 = load i64, ptr %102, align 8
  %103 = and i64 %bf.load.i.i.i657, 1152920405095219200
  %cmp.not.i.i.i658 = icmp eq i64 %103, 1152920405095219200
  br i1 %cmp.not.i.i.i658, label %_ZN4cvc58internal9TrustNodeD2Ev.exit667, label %if.then.i.i.i659

if.then.i.i.i659:                                 ; preds = %invoke.cont196
  %bf.value.i.i.i660 = add i64 %bf.load.i.i.i657, 1152920405095219200
  %bf.shl.i.i.i661 = and i64 %bf.value.i.i.i660, 1152920405095219200
  %bf.clear7.i.i.i662 = and i64 %bf.load.i.i.i657, -1152920405095219201
  %bf.set.i.i.i663 = or disjoint i64 %bf.shl.i.i.i661, %bf.clear7.i.i.i662
  store i64 %bf.set.i.i.i663, ptr %102, align 8
  %cmp12.i.i.i664 = icmp eq i64 %bf.shl.i.i.i661, 0
  br i1 %cmp12.i.i.i664, label %if.then13.i.i.i665, label %_ZN4cvc58internal9TrustNodeD2Ev.exit667

if.then13.i.i.i665:                               ; preds = %if.then.i.i.i659
  invoke void @_ZN4cvc58internal4expr9NodeValue15markForDeletionEv(ptr noundef nonnull align 8 dereferenceable(16) %102)
          to label %_ZN4cvc58internal9TrustNodeD2Ev.exit667 unwind label %terminate.lpad.i.i666

terminate.lpad.i.i666:                            ; preds = %if.then13.i.i.i665
  %104 = landingpad { ptr, i32 }
          catch ptr null
  %105 = extractvalue { ptr, i32 } %104, 0
  call void @__clang_call_terminate(ptr %105) #23
  unreachable

_ZN4cvc58internal9TrustNodeD2Ev.exit667:          ; preds = %invoke.cont196, %if.then.i.i.i659, %if.then13.i.i.i665
  %106 = load ptr, ptr %agg.tmp190, align 8
  %bf.load.i.i668 = load i64, ptr %106, align 8
  %107 = and i64 %bf.load.i.i668, 1152920405095219200
  %cmp.not.i.i669 = icmp eq i64 %107, 1152920405095219200
  br i1 %cmp.not.i.i669, label %cleanup, label %if.then.i.i670

if.then.i.i670:                                   ; preds = %_ZN4cvc58internal9TrustNodeD2Ev.exit667
  %bf.value.i.i671 = add i64 %bf.load.i.i668, 1152920405095219200
  %bf.shl.i.i672 = and i64 %bf.value.i.i671, 1152920405095219200
  %bf.clear7.i.i673 = and i64 %bf.load.i.i668, -1152920405095219201
  %bf.set.i.i674 = or disjoint i64 %bf.shl.i.i672, %bf.clear7.i.i673
  store i64 %bf.set.i.i674, ptr %106, align 8
  %cmp12.i.i675 = icmp eq i64 %bf.shl.i.i672, 0
  br i1 %cmp12.i.i675, label %if.then13.i.i677, label %cleanup

if.then13.i.i677:                                 ; preds = %if.then.i.i670
  invoke void @_ZN4cvc58internal4expr9NodeValue15markForDeletionEv(ptr noundef nonnull align 8 dereferenceable(16) %106)
          to label %cleanup unwind label %terminate.lpad.i678

terminate.lpad.i678:                              ; preds = %if.then13.i.i677
  %108 = landingpad { ptr, i32 }
          catch ptr null
  %109 = extractvalue { ptr, i32 } %108, 0
  call void @__clang_call_terminate(ptr %109) #23
  unreachable

lpad191:                                          ; preds = %if.then13.i.i616
  %110 = landingpad { ptr, i32 }
          cleanup
  br label %ehcleanup268

lpad193:                                          ; preds = %invoke.cont192
  %111 = landingpad { ptr, i32 }
          cleanup
  br label %ehcleanup199

lpad195:                                          ; preds = %if.then13.i4.i.i645, %if.then13.i.i.i652
  %112 = landingpad { ptr, i32 }
          cleanup
  call void @_ZN4cvc58internal9TrustNodeD2Ev(ptr noundef nonnull align 8 dereferenceable(24) %ref.tmp187) #22
  br label %ehcleanup199

ehcleanup199:                                     ; preds = %lpad195, %lpad193
  %.pn12 = phi { ptr, i32 } [ %112, %lpad195 ], [ %111, %lpad193 ]
  call void @_ZN4cvc58internal12NodeTemplateILb1EED2Ev(ptr noundef nonnull align 8 dereferenceable(8) %agg.tmp190) #22
  br label %ehcleanup268

ehcleanup268:                                     ; preds = %lpad191, %ehcleanup199, %ehcleanup186
  %.pn17 = phi { ptr, i32 } [ %.pn15, %ehcleanup186 ], [ %.pn12, %ehcleanup199 ], [ %110, %lpad191 ]
  call void @_ZN4cvc58internal9TrustNodeD2Ev(ptr noundef nonnull align 8 dereferenceable(24) %agg.result) #22
  br label %ehcleanup269

cleanup:                                          ; preds = %if.then13.i.i677, %if.then.i.i670, %_ZN4cvc58internal9TrustNodeD2Ev.exit667, %if.then.i.i.i609, %invoke.cont.i, %cond.true149
  %113 = load ptr, ptr %ppNode, align 8
  %bf.load.i.i999 = load i64, ptr %113, align 8
  %114 = and i64 %bf.load.i.i999, 1152920405095219200
  %cmp.not.i.i1000 = icmp eq i64 %114, 1152920405095219200
  br i1 %cmp.not.i.i1000, label %_ZN4cvc58internal12NodeTemplateILb1EED2Ev.exit1010, label %if.then.i.i1001

if.then.i.i1001:                                  ; preds = %cleanup
  %bf.value.i.i1002 = add i64 %bf.load.i.i999, 1152920405095219200
  %bf.shl.i.i1003 = and i64 %bf.value.i.i1002, 1152920405095219200
  %bf.clear7.i.i1004 = and i64 %bf.load.i.i999, -1152920405095219201
  %bf.set.i.i1005 = or disjoint i64 %bf.shl.i.i1003, %bf.clear7.i.i1004
  store i64 %bf.set.i.i1005, ptr %113, align 8
  %cmp12.i.i1006 = icmp eq i64 %bf.shl.i.i1003, 0
  br i1 %cmp12.i.i1006, label %if.then13.i.i1008, label %_ZN4cvc58internal12NodeTemplateILb1EED2Ev.exit1010

if.then13.i.i1008:                                ; preds = %if.then.i.i1001
  invoke void @_ZN4cvc58internal4expr9NodeValue15markForDeletionEv(ptr noundef nonnull align 8 dereferenceable(16) %113)
          to label %_ZN4cvc58internal12NodeTemplateILb1EED2Ev.exit1010 unwind label %terminate.lpad.i1009

terminate.lpad.i1009:                             ; preds = %if.then13.i.i1008
  %115 = landingpad { ptr, i32 }
          catch ptr null
  %116 = extractvalue { ptr, i32 } %115, 0
  call void @__clang_call_terminate(ptr %116) #23
  unreachable

_ZN4cvc58internal12NodeTemplateILb1EED2Ev.exit1010: ; preds = %cleanup, %if.then.i.i1001, %if.then13.i.i1008
  %d_proven.i1011 = getelementptr inbounds %"class.cvc5::internal::TrustNode", ptr %tpp, i64 0, i32 1
  %117 = load ptr, ptr %d_proven.i1011, align 8
  %bf.load.i.i.i1012 = load i64, ptr %117, align 8
  %118 = and i64 %bf.load.i.i.i1012, 1152920405095219200
  %cmp.not.i.i.i1013 = icmp eq i64 %118, 1152920405095219200
  br i1 %cmp.not.i.i.i1013, label %_ZN4cvc58internal9TrustNodeD2Ev.exit1022, label %if.then.i.i.i1014

if.then.i.i.i1014:                                ; preds = %_ZN4cvc58internal12NodeTemplateILb1EED2Ev.exit1010
  %bf.value.i.i.i1015 = add i64 %bf.load.i.i.i1012, 1152920405095219200
  %bf.shl.i.i.i1016 = and i64 %bf.value.i.i.i1015, 1152920405095219200
  %bf.clear7.i.i.i1017 = and i64 %bf.load.i.i.i1012, -1152920405095219201
  %bf.set.i.i.i1018 = or disjoint i64 %bf.shl.i.i.i1016, %bf.clear7.i.i.i1017
  store i64 %bf.set.i.i.i1018, ptr %117, align 8
  %cmp12.i.i.i1019 = icmp eq i64 %bf.shl.i.i.i1016, 0
  br i1 %cmp12.i.i.i1019, label %if.then13.i.i.i1020, label %_ZN4cvc58internal9TrustNodeD2Ev.exit1022

if.then13.i.i.i1020:                              ; preds = %if.then.i.i.i1014
  invoke void @_ZN4cvc58internal4expr9NodeValue15markForDeletionEv(ptr noundef nonnull align 8 dereferenceable(16) %117)
          to label %_ZN4cvc58internal9TrustNodeD2Ev.exit1022 unwind label %terminate.lpad.i.i1021

terminate.lpad.i.i1021:                           ; preds = %if.then13.i.i.i1020
  %119 = landingpad { ptr, i32 }
          catch ptr null
  %120 = extractvalue { ptr, i32 } %119, 0
  call void @__clang_call_terminate(ptr %120) #23
  unreachable

_ZN4cvc58internal9TrustNodeD2Ev.exit1022:         ; preds = %_ZN4cvc58internal12NodeTemplateILb1EED2Ev.exit1010, %if.then.i.i.i1014, %if.then13.i.i.i1020
  %121 = load ptr, ptr %irNode, align 8
  %bf.load.i.i1023 = load i64, ptr %121, align 8
  %122 = and i64 %bf.load.i.i1023, 1152920405095219200
  %cmp.not.i.i1024 = icmp eq i64 %122, 1152920405095219200
  br i1 %cmp.not.i.i1024, label %_ZN4cvc58internal12NodeTemplateILb1EED2Ev.exit1034, label %if.then.i.i1025

if.then.i.i1025:                                  ; preds = %_ZN4cvc58internal9TrustNodeD2Ev.exit1022
  %bf.value.i.i1026 = add i64 %bf.load.i.i1023, 1152920405095219200
  %bf.shl.i.i1027 = and i64 %bf.value.i.i1026, 1152920405095219200
  %bf.clear7.i.i1028 = and i64 %bf.load.i.i1023, -1152920405095219201
  %bf.set.i.i1029 = or disjoint i64 %bf.shl.i.i1027, %bf.clear7.i.i1028
  store i64 %bf.set.i.i1029, ptr %121, align 8
  %cmp12.i.i1030 = icmp eq i64 %bf.shl.i.i1027, 0
  br i1 %cmp12.i.i1030, label %if.then13.i.i1032, label %_ZN4cvc58internal12NodeTemplateILb1EED2Ev.exit1034

if.then13.i.i1032:                                ; preds = %if.then.i.i1025
  invoke void @_ZN4cvc58internal4expr9NodeValue15markForDeletionEv(ptr noundef nonnull align 8 dereferenceable(16) %121)
          to label %_ZN4cvc58internal12NodeTemplateILb1EED2Ev.exit1034 unwind label %terminate.lpad.i1033

terminate.lpad.i1033:                             ; preds = %if.then13.i.i1032
  %123 = landingpad { ptr, i32 }
          catch ptr null
  %124 = extractvalue { ptr, i32 } %123, 0
  call void @__clang_call_terminate(ptr %124) #23
  unreachable

_ZN4cvc58internal12NodeTemplateILb1EED2Ev.exit1034: ; preds = %_ZN4cvc58internal9TrustNodeD2Ev.exit1022, %if.then.i.i1025, %if.then13.i.i1032
  ret void

ehcleanup269:                                     ; preds = %lpad15.loopexit, %lpad15.loopexit.split-lp, %lpad.i.i.i, %ehcleanup268, %ehcleanup141
  %.pn21.pn = phi { ptr, i32 } [ %.pn21, %ehcleanup141 ], [ %.pn17, %ehcleanup268 ], [ %46, %lpad.i.i.i ], [ %lpad.loopexit, %lpad15.loopexit ], [ %lpad.loopexit.split-lp, %lpad15.loopexit.split-lp ]
  call void @_ZN4cvc58internal12NodeTemplateILb1EED2Ev(ptr noundef nonnull align 8 dereferenceable(8) %ppNode) #22
  br label %ehcleanup271

ehcleanup271:                                     ; preds = %ehcleanup269, %lpad12
  %.pn21.pn.pn = phi { ptr, i32 } [ %.pn21.pn, %ehcleanup269 ], [ %9, %lpad12 ]
  call void @_ZN4cvc58internal9TrustNodeD2Ev(ptr noundef nonnull align 8 dereferenceable(24) %tpp) #22
  br label %eh.resume

eh.resume:                                        ; preds = %lpad10, %ehcleanup271, %lpad
  %irNode.sink = phi ptr [ %agg.tmp, %lpad ], [ %irNode, %ehcleanup271 ], [ %irNode, %lpad10 ]
  %.pn21.pn.pn.pn.pn = phi { ptr, i32 } [ %7, %lpad ], [ %.pn21.pn.pn, %ehcleanup271 ], [ %8, %lpad10 ]
  call void @_ZN4cvc58internal12NodeTemplateILb1EED2Ev(ptr noundef nonnull align 8 dereferenceable(8) %irNode.sink) #22
  resume { ptr, i32 } %.pn21.pn.pn.pn.pn
}

; Function Attrs: mustprogress nocallback nofree nounwind willreturn memory(argmem: readwrite)
declare void @llvm.memcpy.p0.p0.i64(ptr noalias nocapture writeonly, ptr noalias nocapture readonly, i64, i1 immarg) #7

; Function Attrs: mustprogress uwtable
define hidden void @_ZN4cvc58internal6theory18TheoryPreprocessor16rewriteWithProofENS0_12NodeTemplateILb1EEEPNS0_19TConvProofGeneratorEbj(ptr noalias sret(%"class.cvc5::internal::NodeTemplate") align 8 %agg.result, ptr noundef nonnull align 8 dereferenceable(288) %this, ptr nocapture noundef readonly %term, ptr noundef %pg, i1 noundef zeroext %isPre, i32 noundef %tctx) local_unnamed_addr #3 align 2 personality ptr @__gxx_personality_v0 {
entry:
  %agg.tmp = alloca %"class.cvc5::internal::NodeTemplate.449", align 8
  %agg.tmp22 = alloca %"class.cvc5::internal::NodeTemplate", align 8
  %agg.tmp24 = alloca %"class.cvc5::internal::NodeTemplate", align 8
  %ref.tmp27 = alloca %"class.std::vector.460", align 8
  %ref.tmp28 = alloca %"class.std::vector.460", align 8
  %ref.tmp30 = alloca [1 x %"class.cvc5::internal::NodeTemplate"], align 8
  %0 = load ptr, ptr %term, align 8
  store ptr %0, ptr %agg.tmp, align 8
  call void @_ZNK4cvc58internal6EnvObj7rewriteENS0_12NodeTemplateILb0EEE(ptr sret(%"class.cvc5::internal::NodeTemplate") align 8 %agg.result, ptr noundef nonnull align 8 dereferenceable(16) %this, ptr noundef nonnull %agg.tmp)
  %d_tpg.i = getelementptr inbounds %"class.cvc5::internal::theory::TheoryPreprocessor", ptr %this, i64 0, i32 4
  %1 = load ptr, ptr %d_tpg.i, align 8
  %cmp.i.i.i.not = icmp eq ptr %1, null
  br i1 %cmp.i.i.i.not, label %nrvo.skipdtor, label %if.then

if.then:                                          ; preds = %entry
  %2 = load ptr, ptr %agg.result, align 8
  %3 = load ptr, ptr %term, align 8
  %cmp.i.not = icmp eq ptr %2, %3
  br i1 %cmp.i.not, label %nrvo.skipdtor, label %cond.true

cond.true:                                        ; preds = %if.then
  store ptr %3, ptr %agg.tmp22, align 8
  %bf.load.i.i = load i64, ptr %3, align 8
  %bf.lshr.i.i = lshr i64 %bf.load.i.i, 40
  %4 = trunc i64 %bf.lshr.i.i to i32
  %bf.cast.i.i = and i32 %4, 1048575
  %cmp.i.i112 = icmp ult i32 %bf.cast.i.i, 1048574
  br i1 %cmp.i.i112, label %if.then.i.i, label %if.else.i.i

if.then.i.i:                                      ; preds = %cond.true
  %bf.value.i.i = add i64 %bf.load.i.i, 1099511627776
  %bf.shl.i.i = and i64 %bf.value.i.i, 1152920405095219200
  %bf.clear7.i.i = and i64 %bf.load.i.i, -1152920405095219201
  %bf.set.i.i = or disjoint i64 %bf.shl.i.i, %bf.clear7.i.i
  store i64 %bf.set.i.i, ptr %3, align 8
  br label %invoke.cont23

if.else.i.i:                                      ; preds = %cond.true
  %cmp12.i.i = icmp eq i32 %bf.cast.i.i, 1048574
  br i1 %cmp12.i.i, label %if.then13.i.i, label %invoke.cont23

if.then13.i.i:                                    ; preds = %if.else.i.i
  %bf.set23.i.i = or i64 %bf.load.i.i, 1152920405095219200
  store i64 %bf.set23.i.i, ptr %3, align 8
  invoke void @_ZN4cvc58internal4expr9NodeValue20markRefCountMaxedOutEv(ptr noundef nonnull align 8 dereferenceable(16) %3)
          to label %invoke.cont23 unwind label %lpad2

invoke.cont23:                                    ; preds = %if.else.i.i, %if.then.i.i, %if.then13.i.i
  %5 = load ptr, ptr %agg.result, align 8
  store ptr %5, ptr %agg.tmp24, align 8
  %bf.load.i.i114 = load i64, ptr %5, align 8
  %bf.lshr.i.i115 = lshr i64 %bf.load.i.i114, 40
  %6 = trunc i64 %bf.lshr.i.i115 to i32
  %bf.cast.i.i116 = and i32 %6, 1048575
  %cmp.i.i117 = icmp ult i32 %bf.cast.i.i116, 1048574
  br i1 %cmp.i.i117, label %if.then.i.i122, label %if.else.i.i118

if.then.i.i122:                                   ; preds = %invoke.cont23
  %bf.value.i.i123 = add i64 %bf.load.i.i114, 1099511627776
  %bf.shl.i.i124 = and i64 %bf.value.i.i123, 1152920405095219200
  %bf.clear7.i.i125 = and i64 %bf.load.i.i114, -1152920405095219201
  %bf.set.i.i126 = or disjoint i64 %bf.shl.i.i124, %bf.clear7.i.i125
  store i64 %bf.set.i.i126, ptr %5, align 8
  br label %invoke.cont26

if.else.i.i118:                                   ; preds = %invoke.cont23
  %cmp12.i.i119 = icmp eq i32 %bf.cast.i.i116, 1048574
  br i1 %cmp12.i.i119, label %if.then13.i.i120, label %invoke.cont26

if.then13.i.i120:                                 ; preds = %if.else.i.i118
  %bf.set23.i.i121 = or i64 %bf.load.i.i114, 1152920405095219200
  store i64 %bf.set23.i.i121, ptr %5, align 8
  invoke void @_ZN4cvc58internal4expr9NodeValue20markRefCountMaxedOutEv(ptr noundef nonnull align 8 dereferenceable(16) %5)
          to label %invoke.cont26 unwind label %lpad25

invoke.cont26:                                    ; preds = %if.else.i.i118, %if.then.i.i122, %if.then13.i.i120
  call void @llvm.memset.p0.i64(ptr noundef nonnull align 8 dereferenceable(24) %ref.tmp27, i8 0, i64 24, i1 false)
  %7 = load ptr, ptr %term, align 8
  store ptr %7, ptr %ref.tmp30, align 8
  %bf.load.i.i129 = load i64, ptr %7, align 8
  %bf.lshr.i.i130 = lshr i64 %bf.load.i.i129, 40
  %8 = trunc i64 %bf.lshr.i.i130 to i32
  %bf.cast.i.i131 = and i32 %8, 1048575
  %cmp.i.i132 = icmp ult i32 %bf.cast.i.i131, 1048574
  br i1 %cmp.i.i132, label %if.then.i.i137, label %if.else.i.i133

if.then.i.i137:                                   ; preds = %invoke.cont26
  %bf.value.i.i138 = add i64 %bf.load.i.i129, 1099511627776
  %bf.shl.i.i139 = and i64 %bf.value.i.i138, 1152920405095219200
  %bf.clear7.i.i140 = and i64 %bf.load.i.i129, -1152920405095219201
  %bf.set.i.i141 = or disjoint i64 %bf.shl.i.i139, %bf.clear7.i.i140
  store i64 %bf.set.i.i141, ptr %7, align 8
  br label %invoke.cont32

if.else.i.i133:                                   ; preds = %invoke.cont26
  %cmp12.i.i134 = icmp eq i32 %bf.cast.i.i131, 1048574
  br i1 %cmp12.i.i134, label %if.then13.i.i135, label %invoke.cont32

if.then13.i.i135:                                 ; preds = %if.else.i.i133
  %bf.set23.i.i136 = or i64 %bf.load.i.i129, 1152920405095219200
  store i64 %bf.set23.i.i136, ptr %7, align 8
  invoke void @_ZN4cvc58internal4expr9NodeValue20markRefCountMaxedOutEv(ptr noundef nonnull align 8 dereferenceable(16) %7)
          to label %invoke.cont32 unwind label %lpad31

invoke.cont32:                                    ; preds = %if.else.i.i133, %if.then.i.i137, %if.then13.i.i135
  call void @llvm.memset.p0.i64(ptr noundef nonnull align 8 dereferenceable(24) %ref.tmp28, i8 0, i64 24, i1 false)
  %call5.i.i.i.i2.i = invoke noalias noundef nonnull dereferenceable(8) ptr @_Znwm(i64 noundef 8) #20
          to label %_ZNSt12_Vector_baseIN4cvc58internal12NodeTemplateILb1EEESaIS3_EE11_M_allocateEm.exit.i.i unwind label %lpad.i

_ZNSt12_Vector_baseIN4cvc58internal12NodeTemplateILb1EEESaIS3_EE11_M_allocateEm.exit.i.i: ; preds = %invoke.cont32
  %add.ptr.i.i = getelementptr inbounds %"class.cvc5::internal::NodeTemplate", ptr %ref.tmp30, i64 1
  store ptr %call5.i.i.i.i2.i, ptr %ref.tmp28, align 8
  %add.ptr.i1.i = getelementptr inbounds %"class.cvc5::internal::NodeTemplate", ptr %call5.i.i.i.i2.i, i64 1
  %_M_end_of_storage.i.i = getelementptr inbounds %"struct.std::_Vector_base<cvc5::internal::NodeTemplate<true>, std::allocator<cvc5::internal::NodeTemplate<true>>>::_Vector_impl_data", ptr %ref.tmp28, i64 0, i32 2
  store ptr %add.ptr.i1.i, ptr %_M_end_of_storage.i.i, align 8
  %call.i.i.i.i3.i = invoke noundef ptr @_ZSt16__do_uninit_copyIPKN4cvc58internal12NodeTemplateILb1EEEPS3_ET0_T_S8_S7_(ptr noundef nonnull %ref.tmp30, ptr noundef nonnull %add.ptr.i.i, ptr noundef nonnull %call5.i.i.i.i2.i)
          to label %invoke.cont36 unwind label %lpad.i

lpad.i:                                           ; preds = %_ZNSt12_Vector_baseIN4cvc58internal12NodeTemplateILb1EEESaIS3_EE11_M_allocateEm.exit.i.i, %invoke.cont32
  %9 = landingpad { ptr, i32 }
          cleanup
  %10 = load ptr, ptr %ref.tmp28, align 8
  %tobool.not.i.i.i = icmp eq ptr %10, null
  br i1 %tobool.not.i.i.i, label %ehcleanup, label %if.then.i.i4.i

if.then.i.i4.i:                                   ; preds = %lpad.i
  call void @_ZdlPv(ptr noundef nonnull %10) #21
  br label %ehcleanup

invoke.cont36:                                    ; preds = %_ZNSt12_Vector_baseIN4cvc58internal12NodeTemplateILb1EEESaIS3_EE11_M_allocateEm.exit.i.i
  %_M_finish.i.i = getelementptr inbounds %"struct.std::_Vector_base<cvc5::internal::NodeTemplate<true>, std::allocator<cvc5::internal::NodeTemplate<true>>>::_Vector_impl_data", ptr %ref.tmp28, i64 0, i32 1
  store ptr %call.i.i.i.i3.i, ptr %_M_finish.i.i, align 8
  invoke void @_ZN4cvc58internal19TConvProofGenerator14addRewriteStepENS0_12NodeTemplateILb1EEES3_NS_9ProofRuleERKSt6vectorIS3_SaIS3_EES9_bj(ptr noundef nonnull align 8 dereferenceable(801) %pg, ptr noundef nonnull %agg.tmp22, ptr noundef nonnull %agg.tmp24, i32 noundef 3, ptr noundef nonnull align 8 dereferenceable(24) %ref.tmp27, ptr noundef nonnull align 8 dereferenceable(24) %ref.tmp28, i1 noundef zeroext %isPre, i32 noundef %tctx)
          to label %invoke.cont38 unwind label %lpad37

invoke.cont38:                                    ; preds = %invoke.cont36
  %11 = load ptr, ptr %ref.tmp28, align 8
  %12 = load ptr, ptr %_M_finish.i.i, align 8
  %cmp.not3.i.i.i.i = icmp eq ptr %11, %12
  br i1 %cmp.not3.i.i.i.i, label %invoke.cont.i, label %for.body.i.i.i.i

for.body.i.i.i.i:                                 ; preds = %invoke.cont38, %_ZSt8_DestroyIN4cvc58internal12NodeTemplateILb1EEEEvPT_.exit.i.i.i.i
  %__first.addr.04.i.i.i.i = phi ptr [ %incdec.ptr.i.i.i.i, %_ZSt8_DestroyIN4cvc58internal12NodeTemplateILb1EEEEvPT_.exit.i.i.i.i ], [ %11, %invoke.cont38 ]
  %13 = load ptr, ptr %__first.addr.04.i.i.i.i, align 8
  %bf.load.i.i.i.i.i.i.i = load i64, ptr %13, align 8
  %14 = and i64 %bf.load.i.i.i.i.i.i.i, 1152920405095219200
  %cmp.not.i.i.i.i.i.i.i = icmp eq i64 %14, 1152920405095219200
  br i1 %cmp.not.i.i.i.i.i.i.i, label %_ZSt8_DestroyIN4cvc58internal12NodeTemplateILb1EEEEvPT_.exit.i.i.i.i, label %if.then.i.i.i.i.i.i.i

if.then.i.i.i.i.i.i.i:                            ; preds = %for.body.i.i.i.i
  %bf.value.i.i.i.i.i.i.i = add i64 %bf.load.i.i.i.i.i.i.i, 1152920405095219200
  %bf.shl.i.i.i.i.i.i.i = and i64 %bf.value.i.i.i.i.i.i.i, 1152920405095219200
  %bf.clear7.i.i.i.i.i.i.i = and i64 %bf.load.i.i.i.i.i.i.i, -1152920405095219201
  %bf.set.i.i.i.i.i.i.i = or disjoint i64 %bf.shl.i.i.i.i.i.i.i, %bf.clear7.i.i.i.i.i.i.i
  store i64 %bf.set.i.i.i.i.i.i.i, ptr %13, align 8
  %cmp12.i.i.i.i.i.i.i = icmp eq i64 %bf.shl.i.i.i.i.i.i.i, 0
  br i1 %cmp12.i.i.i.i.i.i.i, label %if.then13.i.i.i.i.i.i.i, label %_ZSt8_DestroyIN4cvc58internal12NodeTemplateILb1EEEEvPT_.exit.i.i.i.i

if.then13.i.i.i.i.i.i.i:                          ; preds = %if.then.i.i.i.i.i.i.i
  invoke void @_ZN4cvc58internal4expr9NodeValue15markForDeletionEv(ptr noundef nonnull align 8 dereferenceable(16) %13)
          to label %_ZSt8_DestroyIN4cvc58internal12NodeTemplateILb1EEEEvPT_.exit.i.i.i.i unwind label %terminate.lpad.i.i.i.i.i.i

terminate.lpad.i.i.i.i.i.i:                       ; preds = %if.then13.i.i.i.i.i.i.i
  %15 = landingpad { ptr, i32 }
          catch ptr null
  %16 = extractvalue { ptr, i32 } %15, 0
  call void @__clang_call_terminate(ptr %16) #23
  unreachable

_ZSt8_DestroyIN4cvc58internal12NodeTemplateILb1EEEEvPT_.exit.i.i.i.i: ; preds = %if.then13.i.i.i.i.i.i.i, %if.then.i.i.i.i.i.i.i, %for.body.i.i.i.i
  %incdec.ptr.i.i.i.i = getelementptr inbounds %"class.cvc5::internal::NodeTemplate", ptr %__first.addr.04.i.i.i.i, i64 1
  %cmp.not.i.i.i.i = icmp eq ptr %incdec.ptr.i.i.i.i, %12
  br i1 %cmp.not.i.i.i.i, label %invoke.contthread-pre-split.i, label %for.body.i.i.i.i, !llvm.loop !8

invoke.contthread-pre-split.i:                    ; preds = %_ZSt8_DestroyIN4cvc58internal12NodeTemplateILb1EEEEvPT_.exit.i.i.i.i
  %.pr.i = load ptr, ptr %ref.tmp28, align 8
  br label %invoke.cont.i

invoke.cont.i:                                    ; preds = %invoke.contthread-pre-split.i, %invoke.cont38
  %17 = phi ptr [ %.pr.i, %invoke.contthread-pre-split.i ], [ %11, %invoke.cont38 ]
  %tobool.not.i.i.i144 = icmp eq ptr %17, null
  br i1 %tobool.not.i.i.i144, label %_ZNSt6vectorIN4cvc58internal12NodeTemplateILb1EEESaIS3_EED2Ev.exit, label %if.then.i.i.i

if.then.i.i.i:                                    ; preds = %invoke.cont.i
  call void @_ZdlPv(ptr noundef nonnull %17) #21
  br label %_ZNSt6vectorIN4cvc58internal12NodeTemplateILb1EEESaIS3_EED2Ev.exit

_ZNSt6vectorIN4cvc58internal12NodeTemplateILb1EEESaIS3_EED2Ev.exit: ; preds = %invoke.cont.i, %if.then.i.i.i
  %18 = load ptr, ptr %ref.tmp30, align 8
  %bf.load.i.i146 = load i64, ptr %18, align 8
  %19 = and i64 %bf.load.i.i146, 1152920405095219200
  %cmp.not.i.i = icmp eq i64 %19, 1152920405095219200
  br i1 %cmp.not.i.i, label %_ZN4cvc58internal12NodeTemplateILb1EED2Ev.exit, label %if.then.i.i147

if.then.i.i147:                                   ; preds = %_ZNSt6vectorIN4cvc58internal12NodeTemplateILb1EEESaIS3_EED2Ev.exit
  %bf.value.i.i148 = add i64 %bf.load.i.i146, 1152920405095219200
  %bf.shl.i.i149 = and i64 %bf.value.i.i148, 1152920405095219200
  %bf.clear7.i.i150 = and i64 %bf.load.i.i146, -1152920405095219201
  %bf.set.i.i151 = or disjoint i64 %bf.shl.i.i149, %bf.clear7.i.i150
  store i64 %bf.set.i.i151, ptr %18, align 8
  %cmp12.i.i152 = icmp eq i64 %bf.shl.i.i149, 0
  br i1 %cmp12.i.i152, label %if.then13.i.i154, label %_ZN4cvc58internal12NodeTemplateILb1EED2Ev.exit

if.then13.i.i154:                                 ; preds = %if.then.i.i147
  invoke void @_ZN4cvc58internal4expr9NodeValue15markForDeletionEv(ptr noundef nonnull align 8 dereferenceable(16) %18)
          to label %_ZN4cvc58internal12NodeTemplateILb1EED2Ev.exit unwind label %terminate.lpad.i

terminate.lpad.i:                                 ; preds = %if.then13.i.i154
  %20 = landingpad { ptr, i32 }
          catch ptr null
  %21 = extractvalue { ptr, i32 } %20, 0
  call void @__clang_call_terminate(ptr %21) #23
  unreachable

_ZN4cvc58internal12NodeTemplateILb1EED2Ev.exit:   ; preds = %_ZNSt6vectorIN4cvc58internal12NodeTemplateILb1EEESaIS3_EED2Ev.exit, %if.then.i.i147, %if.then13.i.i154
  %22 = load ptr, ptr %ref.tmp27, align 8
  %_M_finish.i155 = getelementptr inbounds %"struct.std::_Vector_base<cvc5::internal::NodeTemplate<true>, std::allocator<cvc5::internal::NodeTemplate<true>>>::_Vector_impl_data", ptr %ref.tmp27, i64 0, i32 1
  %23 = load ptr, ptr %_M_finish.i155, align 8
  %cmp.not3.i.i.i.i156 = icmp eq ptr %22, %23
  br i1 %cmp.not3.i.i.i.i156, label %invoke.cont.i172, label %for.body.i.i.i.i157

for.body.i.i.i.i157:                              ; preds = %_ZN4cvc58internal12NodeTemplateILb1EED2Ev.exit, %_ZSt8_DestroyIN4cvc58internal12NodeTemplateILb1EEEEvPT_.exit.i.i.i.i167
  %__first.addr.04.i.i.i.i158 = phi ptr [ %incdec.ptr.i.i.i.i168, %_ZSt8_DestroyIN4cvc58internal12NodeTemplateILb1EEEEvPT_.exit.i.i.i.i167 ], [ %22, %_ZN4cvc58internal12NodeTemplateILb1EED2Ev.exit ]
  %24 = load ptr, ptr %__first.addr.04.i.i.i.i158, align 8
  %bf.load.i.i.i.i.i.i.i159 = load i64, ptr %24, align 8
  %25 = and i64 %bf.load.i.i.i.i.i.i.i159, 1152920405095219200
  %cmp.not.i.i.i.i.i.i.i160 = icmp eq i64 %25, 1152920405095219200
  br i1 %cmp.not.i.i.i.i.i.i.i160, label %_ZSt8_DestroyIN4cvc58internal12NodeTemplateILb1EEEEvPT_.exit.i.i.i.i167, label %if.then.i.i.i.i.i.i.i161

if.then.i.i.i.i.i.i.i161:                         ; preds = %for.body.i.i.i.i157
  %bf.value.i.i.i.i.i.i.i162 = add i64 %bf.load.i.i.i.i.i.i.i159, 1152920405095219200
  %bf.shl.i.i.i.i.i.i.i163 = and i64 %bf.value.i.i.i.i.i.i.i162, 1152920405095219200
  %bf.clear7.i.i.i.i.i.i.i164 = and i64 %bf.load.i.i.i.i.i.i.i159, -1152920405095219201
  %bf.set.i.i.i.i.i.i.i165 = or disjoint i64 %bf.shl.i.i.i.i.i.i.i163, %bf.clear7.i.i.i.i.i.i.i164
  store i64 %bf.set.i.i.i.i.i.i.i165, ptr %24, align 8
  %cmp12.i.i.i.i.i.i.i166 = icmp eq i64 %bf.shl.i.i.i.i.i.i.i163, 0
  br i1 %cmp12.i.i.i.i.i.i.i166, label %if.then13.i.i.i.i.i.i.i176, label %_ZSt8_DestroyIN4cvc58internal12NodeTemplateILb1EEEEvPT_.exit.i.i.i.i167

if.then13.i.i.i.i.i.i.i176:                       ; preds = %if.then.i.i.i.i.i.i.i161
  invoke void @_ZN4cvc58internal4expr9NodeValue15markForDeletionEv(ptr noundef nonnull align 8 dereferenceable(16) %24)
          to label %_ZSt8_DestroyIN4cvc58internal12NodeTemplateILb1EEEEvPT_.exit.i.i.i.i167 unwind label %terminate.lpad.i.i.i.i.i.i177

terminate.lpad.i.i.i.i.i.i177:                    ; preds = %if.then13.i.i.i.i.i.i.i176
  %26 = landingpad { ptr, i32 }
          catch ptr null
  %27 = extractvalue { ptr, i32 } %26, 0
  call void @__clang_call_terminate(ptr %27) #23
  unreachable

_ZSt8_DestroyIN4cvc58internal12NodeTemplateILb1EEEEvPT_.exit.i.i.i.i167: ; preds = %if.then13.i.i.i.i.i.i.i176, %if.then.i.i.i.i.i.i.i161, %for.body.i.i.i.i157
  %incdec.ptr.i.i.i.i168 = getelementptr inbounds %"class.cvc5::internal::NodeTemplate", ptr %__first.addr.04.i.i.i.i158, i64 1
  %cmp.not.i.i.i.i169 = icmp eq ptr %incdec.ptr.i.i.i.i168, %23
  br i1 %cmp.not.i.i.i.i169, label %invoke.contthread-pre-split.i170, label %for.body.i.i.i.i157, !llvm.loop !8

invoke.contthread-pre-split.i170:                 ; preds = %_ZSt8_DestroyIN4cvc58internal12NodeTemplateILb1EEEEvPT_.exit.i.i.i.i167
  %.pr.i171 = load ptr, ptr %ref.tmp27, align 8
  br label %invoke.cont.i172

invoke.cont.i172:                                 ; preds = %invoke.contthread-pre-split.i170, %_ZN4cvc58internal12NodeTemplateILb1EED2Ev.exit
  %28 = phi ptr [ %.pr.i171, %invoke.contthread-pre-split.i170 ], [ %22, %_ZN4cvc58internal12NodeTemplateILb1EED2Ev.exit ]
  %tobool.not.i.i.i173 = icmp eq ptr %28, null
  br i1 %tobool.not.i.i.i173, label %_ZNSt6vectorIN4cvc58internal12NodeTemplateILb1EEESaIS3_EED2Ev.exit178, label %if.then.i.i.i174

if.then.i.i.i174:                                 ; preds = %invoke.cont.i172
  call void @_ZdlPv(ptr noundef nonnull %28) #21
  br label %_ZNSt6vectorIN4cvc58internal12NodeTemplateILb1EEESaIS3_EED2Ev.exit178

_ZNSt6vectorIN4cvc58internal12NodeTemplateILb1EEESaIS3_EED2Ev.exit178: ; preds = %invoke.cont.i172, %if.then.i.i.i174
  %29 = load ptr, ptr %agg.tmp24, align 8
  %bf.load.i.i179 = load i64, ptr %29, align 8
  %30 = and i64 %bf.load.i.i179, 1152920405095219200
  %cmp.not.i.i180 = icmp eq i64 %30, 1152920405095219200
  br i1 %cmp.not.i.i180, label %_ZN4cvc58internal12NodeTemplateILb1EED2Ev.exit190, label %if.then.i.i181

if.then.i.i181:                                   ; preds = %_ZNSt6vectorIN4cvc58internal12NodeTemplateILb1EEESaIS3_EED2Ev.exit178
  %bf.value.i.i182 = add i64 %bf.load.i.i179, 1152920405095219200
  %bf.shl.i.i183 = and i64 %bf.value.i.i182, 1152920405095219200
  %bf.clear7.i.i184 = and i64 %bf.load.i.i179, -1152920405095219201
  %bf.set.i.i185 = or disjoint i64 %bf.shl.i.i183, %bf.clear7.i.i184
  store i64 %bf.set.i.i185, ptr %29, align 8
  %cmp12.i.i186 = icmp eq i64 %bf.shl.i.i183, 0
  br i1 %cmp12.i.i186, label %if.then13.i.i188, label %_ZN4cvc58internal12NodeTemplateILb1EED2Ev.exit190

if.then13.i.i188:                                 ; preds = %if.then.i.i181
  invoke void @_ZN4cvc58internal4expr9NodeValue15markForDeletionEv(ptr noundef nonnull align 8 dereferenceable(16) %29)
          to label %_ZN4cvc58internal12NodeTemplateILb1EED2Ev.exit190 unwind label %terminate.lpad.i189

terminate.lpad.i189:                              ; preds = %if.then13.i.i188
  %31 = landingpad { ptr, i32 }
          catch ptr null
  %32 = extractvalue { ptr, i32 } %31, 0
  call void @__clang_call_terminate(ptr %32) #23
  unreachable

_ZN4cvc58internal12NodeTemplateILb1EED2Ev.exit190: ; preds = %_ZNSt6vectorIN4cvc58internal12NodeTemplateILb1EEESaIS3_EED2Ev.exit178, %if.then.i.i181, %if.then13.i.i188
  %33 = load ptr, ptr %agg.tmp22, align 8
  %bf.load.i.i191 = load i64, ptr %33, align 8
  %34 = and i64 %bf.load.i.i191, 1152920405095219200
  %cmp.not.i.i192 = icmp eq i64 %34, 1152920405095219200
  br i1 %cmp.not.i.i192, label %nrvo.skipdtor, label %if.then.i.i193

if.then.i.i193:                                   ; preds = %_ZN4cvc58internal12NodeTemplateILb1EED2Ev.exit190
  %bf.value.i.i194 = add i64 %bf.load.i.i191, 1152920405095219200
  %bf.shl.i.i195 = and i64 %bf.value.i.i194, 1152920405095219200
  %bf.clear7.i.i196 = and i64 %bf.load.i.i191, -1152920405095219201
  %bf.set.i.i197 = or disjoint i64 %bf.shl.i.i195, %bf.clear7.i.i196
  store i64 %bf.set.i.i197, ptr %33, align 8
  %cmp12.i.i198 = icmp eq i64 %bf.shl.i.i195, 0
  br i1 %cmp12.i.i198, label %if.then13.i.i200, label %nrvo.skipdtor

if.then13.i.i200:                                 ; preds = %if.then.i.i193
  invoke void @_ZN4cvc58internal4expr9NodeValue15markForDeletionEv(ptr noundef nonnull align 8 dereferenceable(16) %33)
          to label %nrvo.skipdtor unwind label %terminate.lpad.i201

terminate.lpad.i201:                              ; preds = %if.then13.i.i200
  %35 = landingpad { ptr, i32 }
          catch ptr null
  %36 = extractvalue { ptr, i32 } %35, 0
  call void @__clang_call_terminate(ptr %36) #23
  unreachable

lpad2:                                            ; preds = %if.then13.i.i
  %37 = landingpad { ptr, i32 }
          cleanup
  br label %ehcleanup55

lpad25:                                           ; preds = %if.then13.i.i120
  %38 = landingpad { ptr, i32 }
          cleanup
  br label %ehcleanup53

lpad31:                                           ; preds = %if.then13.i.i135
  %39 = landingpad { ptr, i32 }
          cleanup
  br label %ehcleanup51

lpad37:                                           ; preds = %invoke.cont36
  %40 = landingpad { ptr, i32 }
          cleanup
  call void @_ZNSt6vectorIN4cvc58internal12NodeTemplateILb1EEESaIS3_EED2Ev(ptr noundef nonnull align 8 dereferenceable(24) %ref.tmp28) #22
  br label %ehcleanup

ehcleanup:                                        ; preds = %if.then.i.i4.i, %lpad.i, %lpad37
  %.pn = phi { ptr, i32 } [ %40, %lpad37 ], [ %9, %if.then.i.i4.i ], [ %9, %lpad.i ]
  call void @_ZN4cvc58internal12NodeTemplateILb1EED2Ev(ptr noundef nonnull align 8 dereferenceable(8) %ref.tmp30) #22
  br label %ehcleanup51

ehcleanup51:                                      ; preds = %ehcleanup, %lpad31
  %.pn.pn = phi { ptr, i32 } [ %39, %lpad31 ], [ %.pn, %ehcleanup ]
  call void @_ZNSt6vectorIN4cvc58internal12NodeTemplateILb1EEESaIS3_EED2Ev(ptr noundef nonnull align 8 dereferenceable(24) %ref.tmp27) #22
  call void @_ZN4cvc58internal12NodeTemplateILb1EED2Ev(ptr noundef nonnull align 8 dereferenceable(8) %agg.tmp24) #22
  br label %ehcleanup53

ehcleanup53:                                      ; preds = %ehcleanup51, %lpad25
  %.pn.pn.pn = phi { ptr, i32 } [ %.pn.pn, %ehcleanup51 ], [ %38, %lpad25 ]
  call void @_ZN4cvc58internal12NodeTemplateILb1EED2Ev(ptr noundef nonnull align 8 dereferenceable(8) %agg.tmp22) #22
  br label %ehcleanup55

nrvo.skipdtor:                                    ; preds = %if.then13.i.i200, %if.then.i.i193, %_ZN4cvc58internal12NodeTemplateILb1EED2Ev.exit190, %entry, %if.then
  ret void

ehcleanup55:                                      ; preds = %ehcleanup53, %lpad2
  %.pn.pn.pn.pn = phi { ptr, i32 } [ %.pn.pn.pn, %ehcleanup53 ], [ %37, %lpad2 ]
  call void @_ZN4cvc58internal12NodeTemplateILb1EED2Ev(ptr noundef nonnull align 8 dereferenceable(8) %agg.result) #22
  resume { ptr, i32 } %.pn.pn.pn.pn
}

; Function Attrs: mustprogress uwtable
define hidden void @_ZN4cvc58internal6theory18TheoryPreprocessor16theoryPreprocessENS0_12NodeTemplateILb0EEERSt6vectorINS1_11SkolemLemmaESaIS6_EE(ptr noalias sret(%"class.cvc5::internal::TrustNode") align 8 %agg.result, ptr noundef nonnull align 8 dereferenceable(288) %this, ptr nocapture noundef readonly %assertion, ptr noundef nonnull align 8 dereferenceable(24) %newLemmas) local_unnamed_addr #3 align 2 personality ptr @__gxx_personality_v0 {
invoke.cont:
  %ref.tmp.i.i.i.i.i.i1441 = alloca %"struct.std::hash", align 1
  %agg.tmp.i.i.i = alloca %"class.cvc5::internal::NodeTemplate.449", align 8
  %nb.i = alloca %"class.cvc5::internal::NodeBuilder", align 8
  %ref.tmp.i.i.i.i.i.i959 = alloca %"struct.std::hash", align 1
  %ref.tmp.i.i.i.i.i.i689 = alloca %"struct.std::hash", align 1
  %ref.tmp.i.i.i.i = alloca %"struct.std::hash", align 1
  %ref.tmp.i.i.i.i.i.i = alloca %"struct.std::hash", align 1
  %wasPreprocessed = alloca %"class.std::unordered_map.465", align 8
  %ctx = alloca %"class.cvc5::internal::TCtxStack", align 8
  %processedChildren = alloca %"class.std::vector", align 8
  %agg.tmp = alloca %"class.cvc5::internal::NodeTemplate", align 8
  %initial = alloca %"struct.std::pair", align 8
  %curr = alloca %"struct.std::pair", align 8
  %node = alloca %"class.cvc5::internal::NodeTemplate", align 8
  %ref.tmp = alloca %"struct.std::pair", align 8
  %newLem = alloca %"class.cvc5::internal::TrustNode", align 8
  %inQuant = alloca i8, align 1
  %inTerm = alloca i8, align 1
  %currTrn = alloca %"class.cvc5::internal::TrustNode", align 8
  %agg.tmp77 = alloca %"class.cvc5::internal::NodeTemplate.449", align 8
  %ret = alloca %"class.cvc5::internal::NodeTemplate", align 8
  %ref.tmp90 = alloca %"class.cvc5::internal::theory::SkolemLemma", align 8
  %agg.tmp91 = alloca %"class.cvc5::internal::TrustNode", align 8
  %agg.tmp93 = alloca %"class.cvc5::internal::NodeTemplate", align 8
  %agg.tmp105 = alloca %"class.cvc5::internal::TrustNode", align 8
  %agg.tmp158 = alloca %"class.cvc5::internal::NodeTemplate", align 8
  %key = alloca %"struct.std::pair", align 8
  %ret233 = alloca %"class.cvc5::internal::NodeTemplate", align 8
  %pret = alloca %"class.cvc5::internal::NodeTemplate", align 8
  %newChildren = alloca %"class.std::vector.460", align 8
  %ref.tmp249 = alloca %"class.cvc5::internal::NodeTemplate", align 8
  %currChild = alloca %"struct.std::pair", align 8
  %agg.tmp265 = alloca %"class.cvc5::internal::NodeTemplate.449", align 8
  %ref.tmp271 = alloca %"struct.std::pair", align 8
  %ref.tmp272 = alloca %"class.cvc5::internal::NodeTemplate", align 8
  %newChild = alloca %"class.cvc5::internal::NodeTemplate", align 8
  %ref.tmp309 = alloca %"class.cvc5::internal::NodeTemplate", align 8
  %ref.tmp318 = alloca %"class.cvc5::internal::NodeTemplate", align 8
  %agg.tmp319 = alloca %"class.cvc5::internal::NodeTemplate", align 8
  %ref.tmp336 = alloca %"class.cvc5::internal::NodeTemplate", align 8
  %agg.tmp337 = alloca %"class.cvc5::internal::NodeTemplate", align 8
  %agg.tmp350 = alloca %"class.cvc5::internal::NodeTemplate", align 8
  %agg.tmp356 = alloca %"class.cvc5::internal::NodeTemplate", align 8
  %agg.tmp381 = alloca %"class.cvc5::internal::NodeTemplate.449", align 8
  %agg.tmp383 = alloca %"class.cvc5::internal::NodeTemplate", align 8
  %_M_single_bucket.i.i = getelementptr inbounds %"class.std::_Hashtable.466", ptr %wasPreprocessed, i64 0, i32 5
  store ptr %_M_single_bucket.i.i, ptr %wasPreprocessed, align 8
  %_M_bucket_count.i.i = getelementptr inbounds %"class.std::_Hashtable.466", ptr %wasPreprocessed, i64 0, i32 1
  store i64 1, ptr %_M_bucket_count.i.i, align 8
  %_M_before_begin.i.i = getelementptr inbounds %"class.std::_Hashtable.466", ptr %wasPreprocessed, i64 0, i32 2
  %_M_rehash_policy.i.i = getelementptr inbounds %"class.std::_Hashtable.466", ptr %wasPreprocessed, i64 0, i32 4
  call void @llvm.memset.p0.i64(ptr noundef nonnull align 8 dereferenceable(16) %_M_before_begin.i.i, i8 0, i64 16, i1 false)
  store float 1.000000e+00, ptr %_M_rehash_policy.i.i, align 8
  %_M_next_resize.i.i.i = getelementptr inbounds %"class.std::_Hashtable.466", ptr %wasPreprocessed, i64 0, i32 4, i32 1
  call void @llvm.memset.p0.i64(ptr noundef nonnull align 8 dereferenceable(16) %_M_next_resize.i.i.i, i8 0, i64 16, i1 false)
  %call = invoke noundef ptr @_ZN4cvc58internal11NodeManager9currentNMEv()
          to label %invoke.cont2 unwind label %lpad

invoke.cont2:                                     ; preds = %invoke.cont
  %d_rtfc = getelementptr inbounds %"class.cvc5::internal::theory::TheoryPreprocessor", ptr %this, i64 0, i32 8
  invoke void @_ZN4cvc58internal9TCtxStackC1EPKNS0_11TermContextE(ptr noundef nonnull align 8 dereferenceable(40) %ctx, ptr noundef nonnull %d_rtfc)
          to label %invoke.cont3 unwind label %lpad

invoke.cont3:                                     ; preds = %invoke.cont2
  store ptr null, ptr %processedChildren, align 8
  %_M_offset.i.i.i.i.i.i = getelementptr inbounds %"struct.std::_Bit_iterator_base", ptr %processedChildren, i64 0, i32 1
  store i32 0, ptr %_M_offset.i.i.i.i.i.i, align 8
  %_M_finish.i.i.i.i = getelementptr inbounds %"struct.std::_Bvector_base<std::allocator<bool>>::_Bvector_impl_data", ptr %processedChildren, i64 0, i32 1
  store ptr null, ptr %_M_finish.i.i.i.i, align 8
  %_M_offset.i.i1.i.i.i.i = getelementptr inbounds %"struct.std::_Bvector_base<std::allocator<bool>>::_Bvector_impl_data", ptr %processedChildren, i64 0, i32 1, i32 0, i32 1
  store i32 0, ptr %_M_offset.i.i1.i.i.i.i, align 8
  %_M_end_of_storage.i.i.i.i = getelementptr inbounds %"struct.std::_Bvector_base<std::allocator<bool>>::_Bvector_impl_data", ptr %processedChildren, i64 0, i32 2
  store ptr null, ptr %_M_end_of_storage.i.i.i.i, align 8
  %0 = load ptr, ptr %assertion, align 8
  store ptr %0, ptr %agg.tmp, align 8
  %bf.load.i.i = load i64, ptr %0, align 8
  %bf.lshr.i.i = lshr i64 %bf.load.i.i, 40
  %1 = trunc i64 %bf.lshr.i.i to i32
  %bf.cast.i.i = and i32 %1, 1048575
  %cmp.i.i = icmp ult i32 %bf.cast.i.i, 1048574
  br i1 %cmp.i.i, label %if.then.i.i, label %if.else.i.i

if.then.i.i:                                      ; preds = %invoke.cont3
  %bf.value.i.i = add i64 %bf.load.i.i, 1099511627776
  %bf.shl.i.i = and i64 %bf.value.i.i, 1152920405095219200
  %bf.clear7.i.i = and i64 %bf.load.i.i, -1152920405095219201
  %bf.set.i.i = or disjoint i64 %bf.shl.i.i, %bf.clear7.i.i
  store i64 %bf.set.i.i, ptr %0, align 8
  br label %invoke.cont5

if.else.i.i:                                      ; preds = %invoke.cont3
  %cmp12.i.i = icmp eq i32 %bf.cast.i.i, 1048574
  br i1 %cmp12.i.i, label %if.then13.i.i, label %invoke.cont5

if.then13.i.i:                                    ; preds = %if.else.i.i
  %bf.set23.i.i = or i64 %bf.load.i.i, 1152920405095219200
  store i64 %bf.set23.i.i, ptr %0, align 8
  invoke void @_ZN4cvc58internal4expr9NodeValue20markRefCountMaxedOutEv(ptr noundef nonnull align 8 dereferenceable(16) %0)
          to label %invoke.cont5 unwind label %lpad4

invoke.cont5:                                     ; preds = %if.else.i.i, %if.then.i.i, %if.then13.i.i
  invoke void @_ZN4cvc58internal9TCtxStack11pushInitialENS0_12NodeTemplateILb1EEE(ptr noundef nonnull align 8 dereferenceable(40) %ctx, ptr noundef nonnull %agg.tmp)
          to label %invoke.cont7 unwind label %lpad6

invoke.cont7:                                     ; preds = %invoke.cont5
  %2 = load ptr, ptr %agg.tmp, align 8
  %bf.load.i.i38 = load i64, ptr %2, align 8
  %3 = and i64 %bf.load.i.i38, 1152920405095219200
  %cmp.not.i.i = icmp eq i64 %3, 1152920405095219200
  br i1 %cmp.not.i.i, label %_ZN4cvc58internal12NodeTemplateILb1EED2Ev.exit, label %if.then.i.i39

if.then.i.i39:                                    ; preds = %invoke.cont7
  %bf.value.i.i40 = add i64 %bf.load.i.i38, 1152920405095219200
  %bf.shl.i.i41 = and i64 %bf.value.i.i40, 1152920405095219200
  %bf.clear7.i.i42 = and i64 %bf.load.i.i38, -1152920405095219201
  %bf.set.i.i43 = or disjoint i64 %bf.shl.i.i41, %bf.clear7.i.i42
  store i64 %bf.set.i.i43, ptr %2, align 8
  %cmp12.i.i44 = icmp eq i64 %bf.shl.i.i41, 0
  br i1 %cmp12.i.i44, label %if.then13.i.i45, label %_ZN4cvc58internal12NodeTemplateILb1EED2Ev.exit

if.then13.i.i45:                                  ; preds = %if.then.i.i39
  invoke void @_ZN4cvc58internal4expr9NodeValue15markForDeletionEv(ptr noundef nonnull align 8 dereferenceable(16) %2)
          to label %_ZN4cvc58internal12NodeTemplateILb1EED2Ev.exit unwind label %terminate.lpad.i

terminate.lpad.i:                                 ; preds = %if.then13.i.i45
  %4 = landingpad { ptr, i32 }
          catch ptr null
  %5 = extractvalue { ptr, i32 } %4, 0
  call void @__clang_call_terminate(ptr %5) #23
  unreachable

_ZN4cvc58internal12NodeTemplateILb1EED2Ev.exit:   ; preds = %invoke.cont7, %if.then.i.i39, %if.then13.i.i45
  %6 = load ptr, ptr %_M_finish.i.i.i.i, align 8
  %7 = load ptr, ptr %_M_end_of_storage.i.i.i.i, align 8
  %cmp.not.i = icmp eq ptr %6, %7
  %retval.sroa.2.0.copyload.i5.i = load i32, ptr %_M_offset.i.i1.i.i.i.i, align 8
  br i1 %cmp.not.i, label %if.else.i, label %if.then.i

if.then.i:                                        ; preds = %_ZN4cvc58internal12NodeTemplateILb1EED2Ev.exit
  %inc.i.i.i = add i32 %retval.sroa.2.0.copyload.i5.i, 1
  store i32 %inc.i.i.i, ptr %_M_offset.i.i1.i.i.i.i, align 8
  %cmp.i.i.i = icmp eq i32 %retval.sroa.2.0.copyload.i5.i, 63
  br i1 %cmp.i.i.i, label %if.then.i.i.i, label %_ZNSt13_Bit_iteratorppEi.exit.i

if.then.i.i.i:                                    ; preds = %if.then.i
  store i32 0, ptr %_M_offset.i.i1.i.i.i.i, align 8
  %incdec.ptr.i.i.i = getelementptr inbounds i64, ptr %6, i64 1
  store ptr %incdec.ptr.i.i.i, ptr %_M_finish.i.i.i.i, align 8
  br label %_ZNSt13_Bit_iteratorppEi.exit.i

_ZNSt13_Bit_iteratorppEi.exit.i:                  ; preds = %if.then.i.i.i, %if.then.i
  %sh_prom.i.i = zext nneg i32 %retval.sroa.2.0.copyload.i5.i to i64
  %shl.i.i = shl nuw i64 1, %sh_prom.i.i
  %not.i.i = xor i64 %shl.i.i, -1
  %8 = load i64, ptr %6, align 8
  %and.i.i = and i64 %8, %not.i.i
  store i64 %and.i.i, ptr %6, align 8
  br label %invoke.cont8

if.else.i:                                        ; preds = %_ZN4cvc58internal12NodeTemplateILb1EED2Ev.exit
  invoke void @_ZNSt6vectorIbSaIbEE13_M_insert_auxESt13_Bit_iteratorb(ptr noundef nonnull align 8 dereferenceable(40) %processedChildren, ptr %6, i32 %retval.sroa.2.0.copyload.i5.i, i1 noundef zeroext false)
          to label %invoke.cont8 unwind label %lpad4

invoke.cont8:                                     ; preds = %_ZNSt13_Bit_iteratorppEi.exit.i, %if.else.i
  invoke void @_ZNK4cvc58internal9TCtxStack10getCurrentEv(ptr nonnull sret(%"struct.std::pair") align 8 %initial, ptr noundef nonnull align 8 dereferenceable(40) %ctx)
          to label %invoke.cont9 unwind label %lpad4

invoke.cont9:                                     ; preds = %invoke.cont8
  %9 = load atomic i8, ptr @_ZGVZN4cvc58internal4expr9NodeValue4nullEvE6s_null acquire, align 8
  %guard.uninitialized.i.i.i = icmp eq i8 %9, 0
  br i1 %guard.uninitialized.i.i.i, label %init.check.i.i.i, label %invoke.cont11, !prof !4

init.check.i.i.i:                                 ; preds = %invoke.cont9
  %10 = call i32 @__cxa_guard_acquire(ptr nonnull @_ZGVZN4cvc58internal4expr9NodeValue4nullEvE6s_null) #22
  %tobool.not.i.i.i = icmp eq i32 %10, 0
  br i1 %tobool.not.i.i.i, label %invoke.cont11, label %init.i.i.i

init.i.i.i:                                       ; preds = %init.check.i.i.i
  %call.i.i.i = invoke noalias noundef nonnull dereferenceable(16) ptr @_Znwm(i64 noundef 16) #20
          to label %invoke.cont.i.i.i unwind label %lpad.i.i.i

invoke.cont.i.i.i:                                ; preds = %init.i.i.i
  store i64 1152920405095219200, ptr %call.i.i.i, align 8
  %d_kind.i.i.i.i = getelementptr inbounds %"class.cvc5::internal::expr::NodeValue", ptr %call.i.i.i, i64 0, i32 1
  store i16 0, ptr %d_kind.i.i.i.i, align 8
  %d_nchildren.i.i.i.i = getelementptr inbounds %"class.cvc5::internal::expr::NodeValue", ptr %call.i.i.i, i64 0, i32 2
  store i32 0, ptr %d_nchildren.i.i.i.i, align 4
  store ptr %call.i.i.i, ptr @_ZZN4cvc58internal4expr9NodeValue4nullEvE6s_null, align 8
  call void @__cxa_guard_release(ptr nonnull @_ZGVZN4cvc58internal4expr9NodeValue4nullEvE6s_null) #22
  br label %invoke.cont11

lpad.i.i.i:                                       ; preds = %init.i.i.i
  %11 = landingpad { ptr, i32 }
          cleanup
  call void @__cxa_guard_abort(ptr nonnull @_ZGVZN4cvc58internal4expr9NodeValue4nullEvE6s_null) #22
  br label %ehcleanup399

invoke.cont11:                                    ; preds = %invoke.cont.i.i.i, %init.check.i.i.i, %invoke.cont9
  %12 = load ptr, ptr @_ZZN4cvc58internal4expr9NodeValue4nullEvE6s_null, align 8
  store ptr %12, ptr %curr, align 8
  %second.i = getelementptr inbounds %"struct.std::pair", ptr %curr, i64 0, i32 1
  store i32 0, ptr %second.i, align 8
  %13 = load atomic i8, ptr @_ZGVZN4cvc58internal4expr9NodeValue4nullEvE6s_null acquire, align 8
  %guard.uninitialized.i.i = icmp eq i8 %13, 0
  br i1 %guard.uninitialized.i.i, label %init.check.i.i, label %invoke.cont13, !prof !4

init.check.i.i:                                   ; preds = %invoke.cont11
  %14 = call i32 @__cxa_guard_acquire(ptr nonnull @_ZGVZN4cvc58internal4expr9NodeValue4nullEvE6s_null) #22
  %tobool.not.i.i = icmp eq i32 %14, 0
  br i1 %tobool.not.i.i, label %invoke.cont13, label %init.i.i

init.i.i:                                         ; preds = %init.check.i.i
  %call.i.i = invoke noalias noundef nonnull dereferenceable(16) ptr @_Znwm(i64 noundef 16) #20
          to label %invoke.cont.i.i unwind label %lpad.i.i

invoke.cont.i.i:                                  ; preds = %init.i.i
  store i64 1152920405095219200, ptr %call.i.i, align 8
  %d_kind.i.i.i = getelementptr inbounds %"class.cvc5::internal::expr::NodeValue", ptr %call.i.i, i64 0, i32 1
  store i16 0, ptr %d_kind.i.i.i, align 8
  %d_nchildren.i.i.i = getelementptr inbounds %"class.cvc5::internal::expr::NodeValue", ptr %call.i.i, i64 0, i32 2
  store i32 0, ptr %d_nchildren.i.i.i, align 4
  store ptr %call.i.i, ptr @_ZZN4cvc58internal4expr9NodeValue4nullEvE6s_null, align 8
  call void @__cxa_guard_release(ptr nonnull @_ZGVZN4cvc58internal4expr9NodeValue4nullEvE6s_null) #22
  br label %invoke.cont13

lpad.i.i:                                         ; preds = %init.i.i
  %15 = landingpad { ptr, i32 }
          cleanup
  call void @__cxa_guard_abort(ptr nonnull @_ZGVZN4cvc58internal4expr9NodeValue4nullEvE6s_null) #22
  br label %ehcleanup397

invoke.cont13:                                    ; preds = %invoke.cont.i.i, %init.check.i.i, %invoke.cont11
  %16 = load ptr, ptr @_ZZN4cvc58internal4expr9NodeValue4nullEvE6s_null, align 8
  store ptr %16, ptr %node, align 8
  %second.i53 = getelementptr inbounds %"struct.std::pair", ptr %ref.tmp, i64 0, i32 1
  %d_cache = getelementptr inbounds %"class.cvc5::internal::theory::TheoryPreprocessor", ptr %this, i64 0, i32 2
  %d_insertMap.i = getelementptr inbounds %"class.cvc5::internal::theory::TheoryPreprocessor", ptr %this, i64 0, i32 2, i32 1
  %d_proven.i = getelementptr inbounds %"class.cvc5::internal::TrustNode", ptr %newLem, i64 0, i32 1
  %d_gen.i = getelementptr inbounds %"class.cvc5::internal::TrustNode", ptr %newLem, i64 0, i32 2
  %d_tfr = getelementptr inbounds %"class.cvc5::internal::theory::TheoryPreprocessor", ptr %this, i64 0, i32 3
  %d_proven.i257 = getelementptr inbounds %"class.cvc5::internal::TrustNode", ptr %agg.tmp91, i64 0, i32 1
  %d_gen.i264 = getelementptr inbounds %"class.cvc5::internal::TrustNode", ptr %agg.tmp91, i64 0, i32 2
  %_M_finish.i.i287 = getelementptr inbounds %"struct.std::_Vector_base<cvc5::internal::theory::SkolemLemma, std::allocator<cvc5::internal::theory::SkolemLemma>>::_Vector_impl_data", ptr %newLemmas, i64 0, i32 1
  %_M_end_of_storage.i.i288 = getelementptr inbounds %"struct.std::_Vector_base<cvc5::internal::theory::SkolemLemma, std::allocator<cvc5::internal::theory::SkolemLemma>>::_Vector_impl_data", ptr %newLemmas, i64 0, i32 2
  %d_proven3.i.i = getelementptr inbounds %"class.cvc5::internal::TrustNode", ptr %ref.tmp90, i64 0, i32 1
  %d_gen4.i.i = getelementptr inbounds %"class.cvc5::internal::TrustNode", ptr %ref.tmp90, i64 0, i32 2
  %d_skolem3.i = getelementptr inbounds %"class.cvc5::internal::theory::SkolemLemma", ptr %ref.tmp90, i64 0, i32 1
  %d_tpg.i = getelementptr inbounds %"class.cvc5::internal::theory::TheoryPreprocessor", ptr %this, i64 0, i32 4
  %d_proven.i329 = getelementptr inbounds %"class.cvc5::internal::TrustNode", ptr %agg.tmp105, i64 0, i32 1
  %d_proven3.i330 = getelementptr inbounds %"class.cvc5::internal::TrustNode", ptr %currTrn, i64 0, i32 1
  %d_gen.i337 = getelementptr inbounds %"class.cvc5::internal::TrustNode", ptr %agg.tmp105, i64 0, i32 2
  %d_gen4.i338 = getelementptr inbounds %"class.cvc5::internal::TrustNode", ptr %currTrn, i64 0, i32 2
  %d_pScope.i.i = getelementptr inbounds %"class.cvc5::internal::theory::TheoryPreprocessor", ptr %this, i64 0, i32 2, i32 0, i32 1
  %d_size.i = getelementptr inbounds %"class.cvc5::internal::theory::TheoryPreprocessor", ptr %this, i64 0, i32 2, i32 2
  %_M_element_count.i.i.i = getelementptr inbounds %"class.std::_Hashtable.466", ptr %wasPreprocessed, i64 0, i32 3
  %second.i680 = getelementptr inbounds %"struct.std::pair", ptr %key, i64 0, i32 1
  %_M_finish.i.i820 = getelementptr inbounds %"struct.std::_Vector_base<cvc5::internal::NodeTemplate<true>, std::allocator<cvc5::internal::NodeTemplate<true>>>::_Vector_impl_data", ptr %newChildren, i64 0, i32 1
  %_M_end_of_storage.i.i821 = getelementptr inbounds %"struct.std::_Vector_base<cvc5::internal::NodeTemplate<true>, std::allocator<cvc5::internal::NodeTemplate<true>>>::_Vector_impl_data", ptr %newChildren, i64 0, i32 2
  %second.i841 = getelementptr inbounds %"struct.std::pair", ptr %currChild, i64 0, i32 1
  %second.i897 = getelementptr inbounds %"struct.std::pair", ptr %ref.tmp271, i64 0, i32 1
  br label %while.cond

while.cond:                                       ; preds = %while.cond.backedge, %invoke.cont13
  %call17 = invoke noundef zeroext i1 @_ZNK4cvc58internal9TCtxStack5emptyEv(ptr noundef nonnull align 8 dereferenceable(40) %ctx)
          to label %invoke.cont16 unwind label %lpad14.loopexit

invoke.cont16:                                    ; preds = %while.cond
  br i1 %call17, label %while.end, label %while.body

while.body:                                       ; preds = %invoke.cont16
  invoke void @_ZNK4cvc58internal9TCtxStack10getCurrentEv(ptr nonnull sret(%"struct.std::pair") align 8 %ref.tmp, ptr noundef nonnull align 8 dereferenceable(40) %ctx)
          to label %invoke.cont18 unwind label %lpad14.loopexit

invoke.cont18:                                    ; preds = %while.body
  %17 = load ptr, ptr %curr, align 8
  %18 = load ptr, ptr %ref.tmp, align 8
  %cmp.not.i.i49 = icmp eq ptr %17, %18
  br i1 %cmp.not.i.i49, label %invoke.cont20, label %if.then.i.i50

if.then.i.i50:                                    ; preds = %invoke.cont18
  %bf.load.i.i.i = load i64, ptr %17, align 8
  %19 = and i64 %bf.load.i.i.i, 1152920405095219200
  %cmp.not.i.i.i = icmp eq i64 %19, 1152920405095219200
  br i1 %cmp.not.i.i.i, label %_ZN4cvc58internal4expr9NodeValue3decEv.exit.i.i, label %if.then.i.i.i51

if.then.i.i.i51:                                  ; preds = %if.then.i.i50
  %bf.value.i.i.i = add i64 %bf.load.i.i.i, 1152920405095219200
  %bf.shl.i.i.i = and i64 %bf.value.i.i.i, 1152920405095219200
  %bf.clear7.i.i.i = and i64 %bf.load.i.i.i, -1152920405095219201
  %bf.set.i.i.i = or disjoint i64 %bf.shl.i.i.i, %bf.clear7.i.i.i
  store i64 %bf.set.i.i.i, ptr %17, align 8
  %cmp12.i.i.i = icmp eq i64 %bf.shl.i.i.i, 0
  br i1 %cmp12.i.i.i, label %if.then13.i.i.i, label %_ZN4cvc58internal4expr9NodeValue3decEv.exit.i.i

if.then13.i.i.i:                                  ; preds = %if.then.i.i.i51
  invoke void @_ZN4cvc58internal4expr9NodeValue15markForDeletionEv(ptr noundef nonnull align 8 dereferenceable(16) %17)
          to label %_ZN4cvc58internal4expr9NodeValue3decEv.exit.i.i unwind label %lpad19

_ZN4cvc58internal4expr9NodeValue3decEv.exit.i.i:  ; preds = %if.then13.i.i.i, %if.then.i.i.i51, %if.then.i.i50
  %20 = load ptr, ptr %ref.tmp, align 8
  store ptr %20, ptr %curr, align 8
  %bf.load.i2.i.i = load i64, ptr %20, align 8
  %bf.lshr.i.i.i = lshr i64 %bf.load.i2.i.i, 40
  %21 = trunc i64 %bf.lshr.i.i.i to i32
  %bf.cast.i.i.i = and i32 %21, 1048575
  %cmp.i.i.i52 = icmp ult i32 %bf.cast.i.i.i, 1048574
  br i1 %cmp.i.i.i52, label %if.then.i5.i.i, label %if.else.i.i.i

if.then.i5.i.i:                                   ; preds = %_ZN4cvc58internal4expr9NodeValue3decEv.exit.i.i
  %bf.value.i6.i.i = add i64 %bf.load.i2.i.i, 1099511627776
  %bf.shl.i7.i.i = and i64 %bf.value.i6.i.i, 1152920405095219200
  %bf.clear7.i8.i.i = and i64 %bf.load.i2.i.i, -1152920405095219201
  %bf.set.i9.i.i = or disjoint i64 %bf.shl.i7.i.i, %bf.clear7.i8.i.i
  store i64 %bf.set.i9.i.i, ptr %20, align 8
  br label %invoke.cont20

if.else.i.i.i:                                    ; preds = %_ZN4cvc58internal4expr9NodeValue3decEv.exit.i.i
  %cmp12.i3.i.i = icmp eq i32 %bf.cast.i.i.i, 1048574
  br i1 %cmp12.i3.i.i, label %if.then13.i4.i.i, label %invoke.cont20

if.then13.i4.i.i:                                 ; preds = %if.else.i.i.i
  %bf.set23.i.i.i = or i64 %bf.load.i2.i.i, 1152920405095219200
  store i64 %bf.set23.i.i.i, ptr %20, align 8
  invoke void @_ZN4cvc58internal4expr9NodeValue20markRefCountMaxedOutEv(ptr noundef nonnull align 8 dereferenceable(16) %20)
          to label %invoke.cont20 unwind label %lpad19

invoke.cont20:                                    ; preds = %if.else.i.i.i, %if.then.i5.i.i, %invoke.cont18, %if.then13.i4.i.i
  %22 = load i32, ptr %second.i53, align 8
  store i32 %22, ptr %second.i, align 8
  %23 = load ptr, ptr %ref.tmp, align 8
  %bf.load.i.i.i56 = load i64, ptr %23, align 8
  %24 = and i64 %bf.load.i.i.i56, 1152920405095219200
  %cmp.not.i.i.i57 = icmp eq i64 %24, 1152920405095219200
  br i1 %cmp.not.i.i.i57, label %_ZNSt4pairIN4cvc58internal12NodeTemplateILb1EEEjED2Ev.exit, label %if.then.i.i.i58

if.then.i.i.i58:                                  ; preds = %invoke.cont20
  %bf.value.i.i.i59 = add i64 %bf.load.i.i.i56, 1152920405095219200
  %bf.shl.i.i.i60 = and i64 %bf.value.i.i.i59, 1152920405095219200
  %bf.clear7.i.i.i61 = and i64 %bf.load.i.i.i56, -1152920405095219201
  %bf.set.i.i.i62 = or disjoint i64 %bf.shl.i.i.i60, %bf.clear7.i.i.i61
  store i64 %bf.set.i.i.i62, ptr %23, align 8
  %cmp12.i.i.i63 = icmp eq i64 %bf.shl.i.i.i60, 0
  br i1 %cmp12.i.i.i63, label %if.then13.i.i.i64, label %_ZNSt4pairIN4cvc58internal12NodeTemplateILb1EEEjED2Ev.exit

if.then13.i.i.i64:                                ; preds = %if.then.i.i.i58
  invoke void @_ZN4cvc58internal4expr9NodeValue15markForDeletionEv(ptr noundef nonnull align 8 dereferenceable(16) %23)
          to label %_ZNSt4pairIN4cvc58internal12NodeTemplateILb1EEEjED2Ev.exit unwind label %terminate.lpad.i.i

terminate.lpad.i.i:                               ; preds = %if.then13.i.i.i64
  %25 = landingpad { ptr, i32 }
          catch ptr null
  %26 = extractvalue { ptr, i32 } %25, 0
  call void @__clang_call_terminate(ptr %26) #23
  unreachable

_ZNSt4pairIN4cvc58internal12NodeTemplateILb1EEEjED2Ev.exit: ; preds = %invoke.cont20, %if.then.i.i.i58, %if.then13.i.i.i64
  %27 = load ptr, ptr %d_insertMap.i, align 8
  %_M_element_count.i.i.i.i.i = getelementptr inbounds %"class.cvc5::context::InsertHashMap", ptr %27, i64 0, i32 1, i32 0, i32 3
  %28 = load i64, ptr %_M_element_count.i.i.i.i.i, align 8
  %cmp.not.not.i.i.i.i = icmp eq i64 %28, 0
  br i1 %cmp.not.not.i.i.i.i, label %if.then.i.i.i.i, label %if.end15.i.i.i.i

if.then.i.i.i.i:                                  ; preds = %_ZNSt4pairIN4cvc58internal12NodeTemplateILb1EEEjED2Ev.exit
  %_M_before_begin.i.i.i.i.i.i = getelementptr inbounds %"class.cvc5::context::InsertHashMap", ptr %27, i64 0, i32 1, i32 0, i32 2
  %29 = load ptr, ptr %curr, align 8
  %30 = load i32, ptr %second.i, align 8
  br label %for.cond.i.i.i.i

for.cond.i.i.i.i:                                 ; preds = %for.body.i.i.i.i, %if.then.i.i.i.i
  %retval.sroa.0.0.in.i.i.i.i = phi ptr [ %_M_before_begin.i.i.i.i.i.i, %if.then.i.i.i.i ], [ %retval.sroa.0.0.i.i.i.i, %for.body.i.i.i.i ]
  %retval.sroa.0.0.i.i.i.i = load ptr, ptr %retval.sroa.0.0.in.i.i.i.i, align 8
  %cmp.i.not.i.i.i.i = icmp eq ptr %retval.sroa.0.0.i.i.i.i, null
  br i1 %cmp.i.not.i.i.i.i, label %invoke.cont23, label %for.body.i.i.i.i

for.body.i.i.i.i:                                 ; preds = %for.cond.i.i.i.i
  %add.ptr.i.i.i.i = getelementptr inbounds i8, ptr %retval.sroa.0.0.i.i.i.i, i64 8
  %31 = load ptr, ptr %add.ptr.i.i.i.i, align 8
  %cmp.i.i.i.i.i.i.i.i = icmp eq ptr %29, %31
  %second2.i.i.i.i.i.i.i = getelementptr inbounds i8, ptr %retval.sroa.0.0.i.i.i.i, i64 16
  %32 = load i32, ptr %second2.i.i.i.i.i.i.i, align 8
  %cmp.i.i.i.i.i.i.i = icmp eq i32 %30, %32
  %33 = select i1 %cmp.i.i.i.i.i.i.i.i, i1 %cmp.i.i.i.i.i.i.i, i1 false
  br i1 %33, label %invoke.cont23, label %for.cond.i.i.i.i, !llvm.loop !9

if.end15.i.i.i.i:                                 ; preds = %_ZNSt4pairIN4cvc58internal12NodeTemplateILb1EEEjED2Ev.exit
  call void @llvm.lifetime.start.p0(i64 1, ptr nonnull %ref.tmp.i.i.i.i.i.i)
  %call.i.i.i.i.i.i65 = invoke noundef i64 @_ZNKSt4hashIN4cvc58internal12NodeTemplateILb1EEEEclERKS3_(ptr noundef nonnull align 1 dereferenceable(1) %ref.tmp.i.i.i.i.i.i, ptr noundef nonnull align 8 dereferenceable(8) %curr)
          to label %call.i.i.i.i.i.i.noexc unwind label %lpad14.loopexit

call.i.i.i.i.i.i.noexc:                           ; preds = %if.end15.i.i.i.i
  %d_hashMap.i.i = getelementptr inbounds %"class.cvc5::context::InsertHashMap", ptr %27, i64 0, i32 1
  %xor.i.i.i.i.i.i.i = xor i64 %call.i.i.i.i.i.i65, -3750763034362895579
  %add10.i.i.i.i.i.i.i = mul i64 %xor.i.i.i.i.i.i.i, 1099511628211
  %34 = load i32, ptr %second.i, align 8
  %conv.i.i.i.i.i.i.i = zext i32 %34 to i64
  %xor.i2.i.i.i.i.i.i = xor i64 %add10.i.i.i.i.i.i.i, %conv.i.i.i.i.i.i.i
  %add10.i3.i.i.i.i.i.i = mul i64 %xor.i2.i.i.i.i.i.i, 1099511628211
  call void @llvm.lifetime.end.p0(i64 1, ptr nonnull %ref.tmp.i.i.i.i.i.i)
  %_M_bucket_count.i.i.i.i.i = getelementptr inbounds %"class.cvc5::context::InsertHashMap", ptr %27, i64 0, i32 1, i32 0, i32 1
  %35 = load i64, ptr %_M_bucket_count.i.i.i.i.i, align 8
  %rem.i.i.i.i.i.i.i = urem i64 %add10.i3.i.i.i.i.i.i, %35
  %36 = load ptr, ptr %d_hashMap.i.i, align 8
  %arrayidx.i.i.i.i.i.i = getelementptr inbounds ptr, ptr %36, i64 %rem.i.i.i.i.i.i.i
  %37 = load ptr, ptr %arrayidx.i.i.i.i.i.i, align 8
  %tobool.not.i.i.i.i.i.i = icmp eq ptr %37, null
  %.pre = load ptr, ptr %curr, align 8
  br i1 %tobool.not.i.i.i.i.i.i, label %invoke.cont23, label %if.end.i.i.i.i.i.i

if.end.i.i.i.i.i.i:                               ; preds = %call.i.i.i.i.i.i.noexc
  %38 = load ptr, ptr %37, align 8
  %add.ptr.i.phi.trans.insert.i.i.i.i.i.i = getelementptr inbounds i8, ptr %38, i64 32
  %.pre.i.i.i.i.i.i = load i64, ptr %add.ptr.i.phi.trans.insert.i.i.i.i.i.i, align 8
  br label %for.cond.i.i.i.i.i.i

for.cond.i.i.i.i.i.i:                             ; preds = %lor.lhs.false.i.i.i.i.i.i, %if.end.i.i.i.i.i.i
  %39 = phi i64 [ %.pre.i.i.i.i.i.i, %if.end.i.i.i.i.i.i ], [ %45, %lor.lhs.false.i.i.i.i.i.i ]
  %40 = phi ptr [ %38, %if.end.i.i.i.i.i.i ], [ %44, %lor.lhs.false.i.i.i.i.i.i ]
  %cmp.i.i.i.i4.i.i.i.i = icmp eq i64 %39, %add10.i3.i.i.i.i.i.i
  br i1 %cmp.i.i.i.i4.i.i.i.i, label %_ZNKSt8__detail15_Hashtable_baseIKSt4pairIN4cvc58internal12NodeTemplateILb1EEEjES1_IS7_KS5_ENS_10_Select1stESt8equal_toIS7_ENS3_16PairHashFunctionIS5_jSt4hashIS5_ESE_IjEEENS_18_Mod_range_hashingENS_20_Default_ranged_hashENS_17_Hashtable_traitsILb1ELb0ELb1EEEE9_M_equalsERS7_mRKNS_16_Hash_node_valueIS9_Lb1EEE.exit.i.i.i.i.i.i, label %if.end3.i.i.i.i.i.i

_ZNKSt8__detail15_Hashtable_baseIKSt4pairIN4cvc58internal12NodeTemplateILb1EEEjES1_IS7_KS5_ENS_10_Select1stESt8equal_toIS7_ENS3_16PairHashFunctionIS5_jSt4hashIS5_ESE_IjEEENS_18_Mod_range_hashingENS_20_Default_ranged_hashENS_17_Hashtable_traitsILb1ELb0ELb1EEEE9_M_equalsERS7_mRKNS_16_Hash_node_valueIS9_Lb1EEE.exit.i.i.i.i.i.i: ; preds = %for.cond.i.i.i.i.i.i
  %add.ptr.i.i.i.i.i.i = getelementptr inbounds i8, ptr %40, i64 8
  %41 = load ptr, ptr %add.ptr.i.i.i.i.i.i, align 8
  %cmp.i.i.i.i.i.i.i.i.i.i.i = icmp eq ptr %.pre, %41
  %second2.i.i.i.i.i.i.i.i.i.i = getelementptr inbounds i8, ptr %40, i64 16
  %42 = load i32, ptr %second2.i.i.i.i.i.i.i.i.i.i, align 8
  %cmp.i.i.i.i.i.i.i.i.i.i = icmp eq i32 %34, %42
  %43 = select i1 %cmp.i.i.i.i.i.i.i.i.i.i.i, i1 %cmp.i.i.i.i.i.i.i.i.i.i, i1 false
  br i1 %43, label %invoke.cont23, label %if.end3.i.i.i.i.i.i

if.end3.i.i.i.i.i.i:                              ; preds = %_ZNKSt8__detail15_Hashtable_baseIKSt4pairIN4cvc58internal12NodeTemplateILb1EEEjES1_IS7_KS5_ENS_10_Select1stESt8equal_toIS7_ENS3_16PairHashFunctionIS5_jSt4hashIS5_ESE_IjEEENS_18_Mod_range_hashingENS_20_Default_ranged_hashENS_17_Hashtable_traitsILb1ELb0ELb1EEEE9_M_equalsERS7_mRKNS_16_Hash_node_valueIS9_Lb1EEE.exit.i.i.i.i.i.i, %for.cond.i.i.i.i.i.i
  %44 = load ptr, ptr %40, align 8
  %tobool5.not.i.i.i.i.i.i = icmp eq ptr %44, null
  br i1 %tobool5.not.i.i.i.i.i.i, label %invoke.cont23, label %lor.lhs.false.i.i.i.i.i.i

lor.lhs.false.i.i.i.i.i.i:                        ; preds = %if.end3.i.i.i.i.i.i
  %add.ptr.i.i.i.i.i.i.i.i = getelementptr inbounds i8, ptr %44, i64 32
  %45 = load i64, ptr %add.ptr.i.i.i.i.i.i.i.i, align 8
  %rem.i.i.i.i.i.i.i.i.i = urem i64 %45, %35
  %cmp.not.i.i.i.i.i.i = icmp eq i64 %rem.i.i.i.i.i.i.i.i.i, %rem.i.i.i.i.i.i.i
  br i1 %cmp.not.i.i.i.i.i.i, label %for.cond.i.i.i.i.i.i, label %invoke.cont23, !llvm.loop !10

invoke.cont23:                                    ; preds = %lor.lhs.false.i.i.i.i.i.i, %if.end3.i.i.i.i.i.i, %_ZNKSt8__detail15_Hashtable_baseIKSt4pairIN4cvc58internal12NodeTemplateILb1EEEjES1_IS7_KS5_ENS_10_Select1stESt8equal_toIS7_ENS3_16PairHashFunctionIS5_jSt4hashIS5_ESE_IjEEENS_18_Mod_range_hashingENS_20_Default_ranged_hashENS_17_Hashtable_traitsILb1ELb0ELb1EEEE9_M_equalsERS7_mRKNS_16_Hash_node_valueIS9_Lb1EEE.exit.i.i.i.i.i.i, %for.body.i.i.i.i, %for.cond.i.i.i.i, %call.i.i.i.i.i.i.noexc
  %46 = phi ptr [ %.pre, %call.i.i.i.i.i.i.noexc ], [ %29, %for.cond.i.i.i.i ], [ %29, %for.body.i.i.i.i ], [ %.pre, %_ZNKSt8__detail15_Hashtable_baseIKSt4pairIN4cvc58internal12NodeTemplateILb1EEEjES1_IS7_KS5_ENS_10_Select1stESt8equal_toIS7_ENS3_16PairHashFunctionIS5_jSt4hashIS5_ESE_IjEEENS_18_Mod_range_hashingENS_20_Default_ranged_hashENS_17_Hashtable_traitsILb1ELb0ELb1EEEE9_M_equalsERS7_mRKNS_16_Hash_node_valueIS9_Lb1EEE.exit.i.i.i.i.i.i ], [ %.pre, %if.end3.i.i.i.i.i.i ], [ %.pre, %lor.lhs.false.i.i.i.i.i.i ]
  %retval.sroa.0.1.i.i.i.i = phi ptr [ null, %call.i.i.i.i.i.i.noexc ], [ %retval.sroa.0.0.i.i.i.i, %for.body.i.i.i.i ], [ null, %for.cond.i.i.i.i ], [ null, %lor.lhs.false.i.i.i.i.i.i ], [ null, %if.end3.i.i.i.i.i.i ], [ %40, %_ZNKSt8__detail15_Hashtable_baseIKSt4pairIN4cvc58internal12NodeTemplateILb1EEEjES1_IS7_KS5_ENS_10_Select1stESt8equal_toIS7_ENS3_16PairHashFunctionIS5_jSt4hashIS5_ESE_IjEEENS_18_Mod_range_hashingENS_20_Default_ranged_hashENS_17_Hashtable_traitsILb1ELb0ELb1EEEE9_M_equalsERS7_mRKNS_16_Hash_node_valueIS9_Lb1EEE.exit.i.i.i.i.i.i ]
  %47 = load ptr, ptr %node, align 8
  %cmp.not.i66 = icmp eq ptr %47, %46
  br i1 %cmp.not.i66, label %cond.true, label %if.then.i67

if.then.i67:                                      ; preds = %invoke.cont23
  %bf.load.i.i68 = load i64, ptr %47, align 8
  %48 = and i64 %bf.load.i.i68, 1152920405095219200
  %cmp.not.i.i69 = icmp eq i64 %48, 1152920405095219200
  br i1 %cmp.not.i.i69, label %_ZN4cvc58internal4expr9NodeValue3decEv.exit.i, label %if.then.i.i70

if.then.i.i70:                                    ; preds = %if.then.i67
  %bf.value.i.i71 = add i64 %bf.load.i.i68, 1152920405095219200
  %bf.shl.i.i72 = and i64 %bf.value.i.i71, 1152920405095219200
  %bf.clear7.i.i73 = and i64 %bf.load.i.i68, -1152920405095219201
  %bf.set.i.i74 = or disjoint i64 %bf.shl.i.i72, %bf.clear7.i.i73
  store i64 %bf.set.i.i74, ptr %47, align 8
  %cmp12.i.i75 = icmp eq i64 %bf.shl.i.i72, 0
  br i1 %cmp12.i.i75, label %if.then13.i.i81, label %_ZN4cvc58internal4expr9NodeValue3decEv.exit.i

if.then13.i.i81:                                  ; preds = %if.then.i.i70
  invoke void @_ZN4cvc58internal4expr9NodeValue15markForDeletionEv(ptr noundef nonnull align 8 dereferenceable(16) %47)
          to label %_ZN4cvc58internal4expr9NodeValue3decEv.exit.i unwind label %lpad14.loopexit

_ZN4cvc58internal4expr9NodeValue3decEv.exit.i:    ; preds = %if.then13.i.i81, %if.then.i.i70, %if.then.i67
  %49 = load ptr, ptr %curr, align 8
  store ptr %49, ptr %node, align 8
  %bf.load.i2.i = load i64, ptr %49, align 8
  %bf.lshr.i.i76 = lshr i64 %bf.load.i2.i, 40
  %50 = trunc i64 %bf.lshr.i.i76 to i32
  %bf.cast.i.i77 = and i32 %50, 1048575
  %cmp.i.i78 = icmp ult i32 %bf.cast.i.i77, 1048574
  br i1 %cmp.i.i78, label %if.then.i5.i, label %if.else.i.i79

if.then.i5.i:                                     ; preds = %_ZN4cvc58internal4expr9NodeValue3decEv.exit.i
  %bf.value.i6.i = add i64 %bf.load.i2.i, 1099511627776
  %bf.shl.i7.i = and i64 %bf.value.i6.i, 1152920405095219200
  %bf.clear7.i8.i = and i64 %bf.load.i2.i, -1152920405095219201
  %bf.set.i9.i = or disjoint i64 %bf.shl.i7.i, %bf.clear7.i8.i
  store i64 %bf.set.i9.i, ptr %49, align 8
  br label %cond.true

if.else.i.i79:                                    ; preds = %_ZN4cvc58internal4expr9NodeValue3decEv.exit.i
  %cmp12.i3.i = icmp eq i32 %bf.cast.i.i77, 1048574
  br i1 %cmp12.i3.i, label %if.then13.i4.i, label %cond.true

if.then13.i4.i:                                   ; preds = %if.else.i.i79
  %bf.set23.i.i80 = or i64 %bf.load.i2.i, 1152920405095219200
  store i64 %bf.set23.i.i80, ptr %49, align 8
  invoke void @_ZN4cvc58internal4expr9NodeValue20markRefCountMaxedOutEv(ptr noundef nonnull align 8 dereferenceable(16) %49)
          to label %cond.true unwind label %lpad14.loopexit

cond.true:                                        ; preds = %if.then13.i4.i, %invoke.cont23, %if.then.i5.i, %if.else.i.i79
  %51 = load i32, ptr %second.i, align 8
  %cmp.i.not = icmp eq ptr %retval.sroa.0.1.i.i.i.i, null
  br i1 %cmp.i.not, label %invoke.cont69, label %cond.true54

cond.true54:                                      ; preds = %cond.true
  invoke void @_ZN4cvc58internal9TCtxStack3popEv(ptr noundef nonnull align 8 dereferenceable(40) %ctx)
          to label %invoke.cont66 unwind label %lpad14.loopexit

invoke.cont66:                                    ; preds = %cond.true54
  %52 = load i32, ptr %_M_offset.i.i1.i.i.i.i, align 8
  %dec.i.i.i = add i32 %52, -1
  store i32 %dec.i.i.i, ptr %_M_offset.i.i1.i.i.i.i, align 8
  %cmp.i.i.i241 = icmp eq i32 %52, 0
  br i1 %cmp.i.i.i241, label %if.then.i.i.i242, label %while.cond.backedge

if.then.i.i.i242:                                 ; preds = %invoke.cont66
  store i32 63, ptr %_M_offset.i.i1.i.i.i.i, align 8
  %53 = load ptr, ptr %_M_finish.i.i.i.i, align 8
  %incdec.ptr.i.i.i244 = getelementptr inbounds i64, ptr %53, i64 -1
  store ptr %incdec.ptr.i.i.i244, ptr %_M_finish.i.i.i.i, align 8
  br label %while.cond.backedge

lpad:                                             ; preds = %invoke.cont2, %invoke.cont
  %54 = landingpad { ptr, i32 }
          cleanup
  br label %ehcleanup405

lpad4:                                            ; preds = %if.else.i, %if.then13.i.i, %invoke.cont8
  %55 = landingpad { ptr, i32 }
          cleanup
  br label %ehcleanup401

lpad6:                                            ; preds = %invoke.cont5
  %56 = landingpad { ptr, i32 }
          cleanup
  call void @_ZN4cvc58internal12NodeTemplateILb1EED2Ev(ptr noundef nonnull align 8 dereferenceable(8) %agg.tmp) #22
  br label %ehcleanup401

lpad14.loopexit:                                  ; preds = %while.cond, %while.body, %cond.true54, %cond.true189, %if.end15.i.i.i.i, %if.then13.i.i81, %if.then13.i4.i, %if.end15.i.i, %if.then13.i.i.i681, %if.then13.i.i770
  %lpad.loopexit1647 = landingpad { ptr, i32 }
          cleanup
  br label %ehcleanup395

lpad14.loopexit.split-lp:                         ; preds = %if.end15.i.i.i.i1445
  %lpad.loopexit.split-lp1648 = landingpad { ptr, i32 }
          cleanup
  br label %ehcleanup395

lpad19:                                           ; preds = %if.then13.i4.i.i, %if.then13.i.i.i
  %57 = landingpad { ptr, i32 }
          cleanup
  call void @_ZNSt4pairIN4cvc58internal12NodeTemplateILb1EEEjED2Ev(ptr noundef nonnull align 8 dereferenceable(12) %ref.tmp) #22
  br label %ehcleanup395

invoke.cont69:                                    ; preds = %cond.true
  %retval.sroa.0.0.copyload.i.i = load ptr, ptr %_M_finish.i.i.i.i, align 8
  %retval.sroa.2.0.copyload.i.i = load i32, ptr %_M_offset.i.i1.i.i.i.i, align 8
  %conv.i.i.i.i.i = zext i32 %retval.sroa.2.0.copyload.i.i to i64
  %add.i.i.i.i.i = add nsw i64 %conv.i.i.i.i.i, -1
  %div.i.i.i.i.i = sdiv i64 %add.i.i.i.i.i, 64
  %add.ptr.i.i.i.i.i = getelementptr inbounds i64, ptr %retval.sroa.0.0.copyload.i.i, i64 %div.i.i.i.i.i
  %rem.i.i.i.i.i = srem i64 %add.i.i.i.i.i, 64
  %rem.lobit.i.i.i.i.i = ashr i64 %rem.i.i.i.i.i, 63
  %storemerge.i.i.i.i.i = getelementptr inbounds i64, ptr %add.ptr.i.i.i.i.i, i64 %rem.lobit.i.i.i.i.i
  %conv4.i.i.i.i.i = and i64 %rem.i.i.i.i.i, 63
  %shl.i.i246 = shl nuw i64 1, %conv4.i.i.i.i.i
  %58 = load i64, ptr %storemerge.i.i.i.i.i, align 8
  %and.i = and i64 %shl.i.i246, %58
  %tobool.i.not = icmp eq i64 %and.i, 0
  br i1 %tobool.i.not, label %if.then73, label %cond.true189

if.then73:                                        ; preds = %invoke.cont69
  store i32 4, ptr %newLem, align 8
  %59 = load atomic i8, ptr @_ZGVZN4cvc58internal4expr9NodeValue4nullEvE6s_null acquire, align 8
  %guard.uninitialized.i.i.i247 = icmp eq i8 %59, 0
  br i1 %guard.uninitialized.i.i.i247, label %init.check.i.i.i248, label %invoke.cont74, !prof !4

init.check.i.i.i248:                              ; preds = %if.then73
  %60 = call i32 @__cxa_guard_acquire(ptr nonnull @_ZGVZN4cvc58internal4expr9NodeValue4nullEvE6s_null) #22
  %tobool.not.i.i.i249 = icmp eq i32 %60, 0
  br i1 %tobool.not.i.i.i249, label %invoke.cont74, label %init.i.i.i250

init.i.i.i250:                                    ; preds = %init.check.i.i.i248
  %call.i.i.i251 = invoke noalias noundef nonnull dereferenceable(16) ptr @_Znwm(i64 noundef 16) #20
          to label %invoke.cont.i.i.i253 unwind label %lpad.i.i.i252

invoke.cont.i.i.i253:                             ; preds = %init.i.i.i250
  store i64 1152920405095219200, ptr %call.i.i.i251, align 8
  %d_kind.i.i.i.i254 = getelementptr inbounds %"class.cvc5::internal::expr::NodeValue", ptr %call.i.i.i251, i64 0, i32 1
  store i16 0, ptr %d_kind.i.i.i.i254, align 8
  %d_nchildren.i.i.i.i255 = getelementptr inbounds %"class.cvc5::internal::expr::NodeValue", ptr %call.i.i.i251, i64 0, i32 2
  store i32 0, ptr %d_nchildren.i.i.i.i255, align 4
  store ptr %call.i.i.i251, ptr @_ZZN4cvc58internal4expr9NodeValue4nullEvE6s_null, align 8
  call void @__cxa_guard_release(ptr nonnull @_ZGVZN4cvc58internal4expr9NodeValue4nullEvE6s_null) #22
  br label %invoke.cont74

lpad.i.i.i252:                                    ; preds = %init.i.i.i250
  %61 = landingpad { ptr, i32 }
          cleanup
  call void @__cxa_guard_abort(ptr nonnull @_ZGVZN4cvc58internal4expr9NodeValue4nullEvE6s_null) #22
  br label %ehcleanup395

invoke.cont74:                                    ; preds = %invoke.cont.i.i.i253, %init.check.i.i.i248, %if.then73
  %62 = load ptr, ptr @_ZZN4cvc58internal4expr9NodeValue4nullEvE6s_null, align 8
  store ptr %62, ptr %d_proven.i, align 8
  store ptr null, ptr %d_gen.i, align 8
  invoke void @_ZN4cvc58internal14RtfTermContext8getFlagsEjRbS2_(i32 noundef %51, ptr noundef nonnull align 1 dereferenceable(1) %inQuant, ptr noundef nonnull align 1 dereferenceable(1) %inTerm)
          to label %invoke.cont76 unwind label %lpad75

invoke.cont76:                                    ; preds = %invoke.cont74
  %63 = load ptr, ptr %node, align 8
  store ptr %63, ptr %agg.tmp77, align 8
  %64 = load i8, ptr %inTerm, align 1
  %65 = and i8 %64, 1
  %tobool = icmp ne i8 %65, 0
  invoke void @_ZN4cvc58internal18RemoveTermFormulas10runCurrentENS0_12NodeTemplateILb0EEEbRNS0_9TrustNodeE(ptr nonnull sret(%"class.cvc5::internal::TrustNode") align 8 %currTrn, ptr noundef nonnull align 8 dereferenceable(160) %d_tfr, ptr noundef nonnull %agg.tmp77, i1 noundef zeroext %tobool, ptr noundef nonnull align 8 dereferenceable(24) %newLem)
          to label %invoke.cont80 unwind label %lpad79

invoke.cont80:                                    ; preds = %invoke.cont76
  %call83 = invoke noundef zeroext i1 @_ZNK4cvc58internal9TrustNode6isNullEv(ptr noundef nonnull align 8 dereferenceable(24) %currTrn)
          to label %invoke.cont82 unwind label %lpad81.loopexit.split-lp

invoke.cont82:                                    ; preds = %invoke.cont80
  br i1 %call83, label %if.end130, label %if.then84

if.then84:                                        ; preds = %invoke.cont82
  invoke void @_ZNK4cvc58internal9TrustNode7getNodeEv(ptr nonnull sret(%"class.cvc5::internal::NodeTemplate") align 8 %ret, ptr noundef nonnull align 8 dereferenceable(24) %currTrn)
          to label %invoke.cont85 unwind label %lpad81.loopexit.split-lp

invoke.cont85:                                    ; preds = %if.then84
  %call88 = invoke noundef zeroext i1 @_ZNK4cvc58internal9TrustNode6isNullEv(ptr noundef nonnull align 8 dereferenceable(24) %newLem)
          to label %invoke.cont87 unwind label %lpad86

invoke.cont87:                                    ; preds = %invoke.cont85
  br i1 %call88, label %if.end101, label %if.then89

if.then89:                                        ; preds = %invoke.cont87
  %66 = load i32, ptr %newLem, align 8
  store i32 %66, ptr %agg.tmp91, align 8
  %67 = load ptr, ptr %d_proven.i, align 8
  store ptr %67, ptr %d_proven.i257, align 8
  %bf.load.i.i.i258 = load i64, ptr %67, align 8
  %bf.lshr.i.i.i259 = lshr i64 %bf.load.i.i.i258, 40
  %68 = trunc i64 %bf.lshr.i.i.i259 to i32
  %bf.cast.i.i.i260 = and i32 %68, 1048575
  %cmp.i.i.i261 = icmp ult i32 %bf.cast.i.i.i260, 1048574
  br i1 %cmp.i.i.i261, label %if.then.i.i.i267, label %if.else.i.i.i262

if.then.i.i.i267:                                 ; preds = %if.then89
  %bf.value.i.i.i268 = add i64 %bf.load.i.i.i258, 1099511627776
  %bf.shl.i.i.i269 = and i64 %bf.value.i.i.i268, 1152920405095219200
  %bf.clear7.i.i.i270 = and i64 %bf.load.i.i.i258, -1152920405095219201
  %bf.set.i.i.i271 = or disjoint i64 %bf.shl.i.i.i269, %bf.clear7.i.i.i270
  store i64 %bf.set.i.i.i271, ptr %67, align 8
  br label %invoke.cont92

if.else.i.i.i262:                                 ; preds = %if.then89
  %cmp12.i.i.i263 = icmp eq i32 %bf.cast.i.i.i260, 1048574
  br i1 %cmp12.i.i.i263, label %if.then13.i.i.i265, label %invoke.cont92

if.then13.i.i.i265:                               ; preds = %if.else.i.i.i262
  %bf.set23.i.i.i266 = or i64 %bf.load.i.i.i258, 1152920405095219200
  store i64 %bf.set23.i.i.i266, ptr %67, align 8
  invoke void @_ZN4cvc58internal4expr9NodeValue20markRefCountMaxedOutEv(ptr noundef nonnull align 8 dereferenceable(16) %67)
          to label %invoke.cont92 unwind label %lpad86

invoke.cont92:                                    ; preds = %if.else.i.i.i262, %if.then.i.i.i267, %if.then13.i.i.i265
  %69 = load ptr, ptr %d_gen.i, align 8
  store ptr %69, ptr %d_gen.i264, align 8
  %70 = load ptr, ptr %ret, align 8
  store ptr %70, ptr %agg.tmp93, align 8
  %bf.load.i.i273 = load i64, ptr %70, align 8
  %bf.lshr.i.i274 = lshr i64 %bf.load.i.i273, 40
  %71 = trunc i64 %bf.lshr.i.i274 to i32
  %bf.cast.i.i275 = and i32 %71, 1048575
  %cmp.i.i276 = icmp ult i32 %bf.cast.i.i275, 1048574
  br i1 %cmp.i.i276, label %if.then.i.i281, label %if.else.i.i277

if.then.i.i281:                                   ; preds = %invoke.cont92
  %bf.value.i.i282 = add i64 %bf.load.i.i273, 1099511627776
  %bf.shl.i.i283 = and i64 %bf.value.i.i282, 1152920405095219200
  %bf.clear7.i.i284 = and i64 %bf.load.i.i273, -1152920405095219201
  %bf.set.i.i285 = or disjoint i64 %bf.shl.i.i283, %bf.clear7.i.i284
  store i64 %bf.set.i.i285, ptr %70, align 8
  br label %invoke.cont95

if.else.i.i277:                                   ; preds = %invoke.cont92
  %cmp12.i.i278 = icmp eq i32 %bf.cast.i.i275, 1048574
  br i1 %cmp12.i.i278, label %if.then13.i.i279, label %invoke.cont95

if.then13.i.i279:                                 ; preds = %if.else.i.i277
  %bf.set23.i.i280 = or i64 %bf.load.i.i273, 1152920405095219200
  store i64 %bf.set23.i.i280, ptr %70, align 8
  invoke void @_ZN4cvc58internal4expr9NodeValue20markRefCountMaxedOutEv(ptr noundef nonnull align 8 dereferenceable(16) %70)
          to label %invoke.cont95 unwind label %lpad94

invoke.cont95:                                    ; preds = %if.else.i.i277, %if.then.i.i281, %if.then13.i.i279
  invoke void @_ZN4cvc58internal6theory11SkolemLemmaC1ENS0_9TrustNodeENS0_12NodeTemplateILb1EEE(ptr noundef nonnull align 8 dereferenceable(32) %ref.tmp90, ptr noundef nonnull %agg.tmp91, ptr noundef nonnull %agg.tmp93)
          to label %invoke.cont97 unwind label %lpad96

invoke.cont97:                                    ; preds = %invoke.cont95
  %72 = load ptr, ptr %_M_finish.i.i287, align 8
  %73 = load ptr, ptr %_M_end_of_storage.i.i288, align 8
  %cmp.not.i.i289 = icmp eq ptr %72, %73
  br i1 %cmp.not.i.i289, label %if.else.i.i291, label %if.then.i.i290

if.then.i.i290:                                   ; preds = %invoke.cont97
  %74 = load i32, ptr %ref.tmp90, align 8
  store i32 %74, ptr %72, align 8
  %d_proven.i.i1579 = getelementptr inbounds %"class.cvc5::internal::TrustNode", ptr %72, i64 0, i32 1
  %75 = load ptr, ptr %d_proven3.i.i, align 8
  store ptr %75, ptr %d_proven.i.i1579, align 8
  %bf.load.i.i.i.i1580 = load i64, ptr %75, align 8
  %bf.lshr.i.i.i.i = lshr i64 %bf.load.i.i.i.i1580, 40
  %76 = trunc i64 %bf.lshr.i.i.i.i to i32
  %bf.cast.i.i.i.i1581 = and i32 %76, 1048575
  %cmp.i.i.i.i = icmp ult i32 %bf.cast.i.i.i.i1581, 1048574
  br i1 %cmp.i.i.i.i, label %if.then.i.i.i.i1600, label %if.else.i.i.i.i

if.then.i.i.i.i1600:                              ; preds = %if.then.i.i290
  %bf.value.i.i.i.i1601 = add i64 %bf.load.i.i.i.i1580, 1099511627776
  %bf.shl.i.i.i.i1602 = and i64 %bf.value.i.i.i.i1601, 1152920405095219200
  %bf.clear7.i.i.i.i1603 = and i64 %bf.load.i.i.i.i1580, -1152920405095219201
  %bf.set.i.i.i.i1604 = or disjoint i64 %bf.shl.i.i.i.i1602, %bf.clear7.i.i.i.i1603
  store i64 %bf.set.i.i.i.i1604, ptr %75, align 8
  br label %_ZN4cvc58internal9TrustNodeC2ERKS1_.exit.i

if.else.i.i.i.i:                                  ; preds = %if.then.i.i290
  %cmp12.i.i.i.i1582 = icmp eq i32 %bf.cast.i.i.i.i1581, 1048574
  br i1 %cmp12.i.i.i.i1582, label %if.then13.i.i.i.i1599, label %_ZN4cvc58internal9TrustNodeC2ERKS1_.exit.i

if.then13.i.i.i.i1599:                            ; preds = %if.else.i.i.i.i
  %bf.set23.i.i.i.i = or i64 %bf.load.i.i.i.i1580, 1152920405095219200
  store i64 %bf.set23.i.i.i.i, ptr %75, align 8
  invoke void @_ZN4cvc58internal4expr9NodeValue20markRefCountMaxedOutEv(ptr noundef nonnull align 8 dereferenceable(16) %75)
          to label %_ZN4cvc58internal9TrustNodeC2ERKS1_.exit.i unwind label %lpad98

_ZN4cvc58internal9TrustNodeC2ERKS1_.exit.i:       ; preds = %if.then13.i.i.i.i1599, %if.else.i.i.i.i, %if.then.i.i.i.i1600
  %d_gen.i.i = getelementptr inbounds %"class.cvc5::internal::TrustNode", ptr %72, i64 0, i32 2
  %77 = load ptr, ptr %d_gen4.i.i, align 8
  store ptr %77, ptr %d_gen.i.i, align 8
  %d_skolem.i1583 = getelementptr inbounds %"class.cvc5::internal::theory::SkolemLemma", ptr %72, i64 0, i32 1
  %78 = load ptr, ptr %d_skolem3.i, align 8
  store ptr %78, ptr %d_skolem.i1583, align 8
  %bf.load.i.i.i1584 = load i64, ptr %78, align 8
  %bf.lshr.i.i.i1585 = lshr i64 %bf.load.i.i.i1584, 40
  %79 = trunc i64 %bf.lshr.i.i.i1585 to i32
  %bf.cast.i.i.i1586 = and i32 %79, 1048575
  %cmp.i.i.i1587 = icmp ult i32 %bf.cast.i.i.i1586, 1048574
  br i1 %cmp.i.i.i1587, label %if.then.i.i.i1594, label %if.else.i.i.i1588

if.then.i.i.i1594:                                ; preds = %_ZN4cvc58internal9TrustNodeC2ERKS1_.exit.i
  %bf.value.i.i.i1595 = add i64 %bf.load.i.i.i1584, 1099511627776
  %bf.shl.i.i.i1596 = and i64 %bf.value.i.i.i1595, 1152920405095219200
  %bf.clear7.i.i.i1597 = and i64 %bf.load.i.i.i1584, -1152920405095219201
  %bf.set.i.i.i1598 = or disjoint i64 %bf.shl.i.i.i1596, %bf.clear7.i.i.i1597
  store i64 %bf.set.i.i.i1598, ptr %78, align 8
  br label %.noexc292

if.else.i.i.i1588:                                ; preds = %_ZN4cvc58internal9TrustNodeC2ERKS1_.exit.i
  %cmp12.i.i.i1589 = icmp eq i32 %bf.cast.i.i.i1586, 1048574
  br i1 %cmp12.i.i.i1589, label %if.then13.i.i.i1591, label %.noexc292

if.then13.i.i.i1591:                              ; preds = %if.else.i.i.i1588
  %bf.set23.i.i.i1592 = or i64 %bf.load.i.i.i1584, 1152920405095219200
  store i64 %bf.set23.i.i.i1592, ptr %78, align 8
  invoke void @_ZN4cvc58internal4expr9NodeValue20markRefCountMaxedOutEv(ptr noundef nonnull align 8 dereferenceable(16) %78)
          to label %.noexc292 unwind label %lpad.i1593

lpad.i1593:                                       ; preds = %if.then13.i.i.i1591
  %80 = landingpad { ptr, i32 }
          cleanup
  call void @_ZN4cvc58internal9TrustNodeD2Ev(ptr noundef nonnull align 8 dereferenceable(24) %72) #22
  br label %lpad98.body

.noexc292:                                        ; preds = %if.then13.i.i.i1591, %if.else.i.i.i1588, %if.then.i.i.i1594
  %81 = load ptr, ptr %_M_finish.i.i287, align 8
  %incdec.ptr.i.i = getelementptr inbounds %"class.cvc5::internal::theory::SkolemLemma", ptr %81, i64 1
  store ptr %incdec.ptr.i.i, ptr %_M_finish.i.i287, align 8
  br label %invoke.cont99

if.else.i.i291:                                   ; preds = %invoke.cont97
  invoke void @_ZNSt6vectorIN4cvc58internal6theory11SkolemLemmaESaIS3_EE17_M_realloc_insertIJS3_EEEvN9__gnu_cxx17__normal_iteratorIPS3_S5_EEDpOT_(ptr noundef nonnull align 8 dereferenceable(24) %newLemmas, ptr %72, ptr noundef nonnull align 8 dereferenceable(32) %ref.tmp90)
          to label %invoke.cont99 unwind label %lpad98

invoke.cont99:                                    ; preds = %.noexc292, %if.else.i.i291
  %82 = load ptr, ptr %d_skolem3.i, align 8
  %bf.load.i.i.i294 = load i64, ptr %82, align 8
  %83 = and i64 %bf.load.i.i.i294, 1152920405095219200
  %cmp.not.i.i.i295 = icmp eq i64 %83, 1152920405095219200
  br i1 %cmp.not.i.i.i295, label %_ZN4cvc58internal12NodeTemplateILb1EED2Ev.exit.i, label %if.then.i.i.i296

if.then.i.i.i296:                                 ; preds = %invoke.cont99
  %bf.value.i.i.i297 = add i64 %bf.load.i.i.i294, 1152920405095219200
  %bf.shl.i.i.i298 = and i64 %bf.value.i.i.i297, 1152920405095219200
  %bf.clear7.i.i.i299 = and i64 %bf.load.i.i.i294, -1152920405095219201
  %bf.set.i.i.i300 = or disjoint i64 %bf.shl.i.i.i298, %bf.clear7.i.i.i299
  store i64 %bf.set.i.i.i300, ptr %82, align 8
  %cmp12.i.i.i301 = icmp eq i64 %bf.shl.i.i.i298, 0
  br i1 %cmp12.i.i.i301, label %if.then13.i.i.i303, label %_ZN4cvc58internal12NodeTemplateILb1EED2Ev.exit.i

if.then13.i.i.i303:                               ; preds = %if.then.i.i.i296
  invoke void @_ZN4cvc58internal4expr9NodeValue15markForDeletionEv(ptr noundef nonnull align 8 dereferenceable(16) %82)
          to label %_ZN4cvc58internal12NodeTemplateILb1EED2Ev.exit.i unwind label %terminate.lpad.i.i304

terminate.lpad.i.i304:                            ; preds = %if.then13.i.i.i303
  %84 = landingpad { ptr, i32 }
          catch ptr null
  %85 = extractvalue { ptr, i32 } %84, 0
  call void @__clang_call_terminate(ptr %85) #23
  unreachable

_ZN4cvc58internal12NodeTemplateILb1EED2Ev.exit.i: ; preds = %if.then13.i.i.i303, %if.then.i.i.i296, %invoke.cont99
  %86 = load ptr, ptr %d_proven3.i.i, align 8
  %bf.load.i.i.i.i = load i64, ptr %86, align 8
  %87 = and i64 %bf.load.i.i.i.i, 1152920405095219200
  %cmp.not.i.i.i.i = icmp eq i64 %87, 1152920405095219200
  br i1 %cmp.not.i.i.i.i, label %_ZN4cvc58internal6theory11SkolemLemmaD2Ev.exit, label %if.then.i.i.i.i302

if.then.i.i.i.i302:                               ; preds = %_ZN4cvc58internal12NodeTemplateILb1EED2Ev.exit.i
  %bf.value.i.i.i.i = add i64 %bf.load.i.i.i.i, 1152920405095219200
  %bf.shl.i.i.i.i = and i64 %bf.value.i.i.i.i, 1152920405095219200
  %bf.clear7.i.i.i.i = and i64 %bf.load.i.i.i.i, -1152920405095219201
  %bf.set.i.i.i.i = or disjoint i64 %bf.shl.i.i.i.i, %bf.clear7.i.i.i.i
  store i64 %bf.set.i.i.i.i, ptr %86, align 8
  %cmp12.i.i.i.i = icmp eq i64 %bf.shl.i.i.i.i, 0
  br i1 %cmp12.i.i.i.i, label %if.then13.i.i.i.i, label %_ZN4cvc58internal6theory11SkolemLemmaD2Ev.exit

if.then13.i.i.i.i:                                ; preds = %if.then.i.i.i.i302
  invoke void @_ZN4cvc58internal4expr9NodeValue15markForDeletionEv(ptr noundef nonnull align 8 dereferenceable(16) %86)
          to label %_ZN4cvc58internal6theory11SkolemLemmaD2Ev.exit unwind label %terminate.lpad.i.i.i

terminate.lpad.i.i.i:                             ; preds = %if.then13.i.i.i.i
  %88 = landingpad { ptr, i32 }
          catch ptr null
  %89 = extractvalue { ptr, i32 } %88, 0
  call void @__clang_call_terminate(ptr %89) #23
  unreachable

_ZN4cvc58internal6theory11SkolemLemmaD2Ev.exit:   ; preds = %_ZN4cvc58internal12NodeTemplateILb1EED2Ev.exit.i, %if.then.i.i.i.i302, %if.then13.i.i.i.i
  %90 = load ptr, ptr %agg.tmp93, align 8
  %bf.load.i.i305 = load i64, ptr %90, align 8
  %91 = and i64 %bf.load.i.i305, 1152920405095219200
  %cmp.not.i.i306 = icmp eq i64 %91, 1152920405095219200
  br i1 %cmp.not.i.i306, label %_ZN4cvc58internal12NodeTemplateILb1EED2Ev.exit315, label %if.then.i.i307

if.then.i.i307:                                   ; preds = %_ZN4cvc58internal6theory11SkolemLemmaD2Ev.exit
  %bf.value.i.i308 = add i64 %bf.load.i.i305, 1152920405095219200
  %bf.shl.i.i309 = and i64 %bf.value.i.i308, 1152920405095219200
  %bf.clear7.i.i310 = and i64 %bf.load.i.i305, -1152920405095219201
  %bf.set.i.i311 = or disjoint i64 %bf.shl.i.i309, %bf.clear7.i.i310
  store i64 %bf.set.i.i311, ptr %90, align 8
  %cmp12.i.i312 = icmp eq i64 %bf.shl.i.i309, 0
  br i1 %cmp12.i.i312, label %if.then13.i.i313, label %_ZN4cvc58internal12NodeTemplateILb1EED2Ev.exit315

if.then13.i.i313:                                 ; preds = %if.then.i.i307
  invoke void @_ZN4cvc58internal4expr9NodeValue15markForDeletionEv(ptr noundef nonnull align 8 dereferenceable(16) %90)
          to label %_ZN4cvc58internal12NodeTemplateILb1EED2Ev.exit315 unwind label %terminate.lpad.i314

terminate.lpad.i314:                              ; preds = %if.then13.i.i313
  %92 = landingpad { ptr, i32 }
          catch ptr null
  %93 = extractvalue { ptr, i32 } %92, 0
  call void @__clang_call_terminate(ptr %93) #23
  unreachable

_ZN4cvc58internal12NodeTemplateILb1EED2Ev.exit315: ; preds = %_ZN4cvc58internal6theory11SkolemLemmaD2Ev.exit, %if.then.i.i307, %if.then13.i.i313
  %94 = load ptr, ptr %d_proven.i257, align 8
  %bf.load.i.i.i317 = load i64, ptr %94, align 8
  %95 = and i64 %bf.load.i.i.i317, 1152920405095219200
  %cmp.not.i.i.i318 = icmp eq i64 %95, 1152920405095219200
  br i1 %cmp.not.i.i.i318, label %if.end101, label %if.then.i.i.i319

if.then.i.i.i319:                                 ; preds = %_ZN4cvc58internal12NodeTemplateILb1EED2Ev.exit315
  %bf.value.i.i.i320 = add i64 %bf.load.i.i.i317, 1152920405095219200
  %bf.shl.i.i.i321 = and i64 %bf.value.i.i.i320, 1152920405095219200
  %bf.clear7.i.i.i322 = and i64 %bf.load.i.i.i317, -1152920405095219201
  %bf.set.i.i.i323 = or disjoint i64 %bf.shl.i.i.i321, %bf.clear7.i.i.i322
  store i64 %bf.set.i.i.i323, ptr %94, align 8
  %cmp12.i.i.i324 = icmp eq i64 %bf.shl.i.i.i321, 0
  br i1 %cmp12.i.i.i324, label %if.then13.i.i.i326, label %if.end101

if.then13.i.i.i326:                               ; preds = %if.then.i.i.i319
  invoke void @_ZN4cvc58internal4expr9NodeValue15markForDeletionEv(ptr noundef nonnull align 8 dereferenceable(16) %94)
          to label %if.end101 unwind label %terminate.lpad.i.i327

terminate.lpad.i.i327:                            ; preds = %if.then13.i.i.i326
  %96 = landingpad { ptr, i32 }
          catch ptr null
  %97 = extractvalue { ptr, i32 } %96, 0
  call void @__clang_call_terminate(ptr %97) #23
  unreachable

lpad75:                                           ; preds = %invoke.cont74
  %98 = landingpad { ptr, i32 }
          cleanup
  br label %ehcleanup184

lpad79:                                           ; preds = %invoke.cont76
  %99 = landingpad { ptr, i32 }
          cleanup
  br label %ehcleanup184

lpad81.loopexit:                                  ; preds = %if.then13.i.i496, %if.else.i533
  %lpad.loopexit1642 = landingpad { ptr, i32 }
          cleanup
  br label %ehcleanup182

lpad81.loopexit.split-lp:                         ; preds = %invoke.cont80, %if.then84, %if.end130
  %lpad.loopexit.split-lp1643 = landingpad { ptr, i32 }
          cleanup
  br label %ehcleanup182

lpad86:                                           ; preds = %_ZN4cvc57context10ContextObj11makeCurrentEv.exit.i, %if.then.i.i409, %if.then13.i.i.i339, %if.then13.i.i.i265, %invoke.cont85
  %100 = landingpad { ptr, i32 }
          cleanup
  br label %ehcleanup129

lpad94:                                           ; preds = %if.then13.i.i279
  %101 = landingpad { ptr, i32 }
          cleanup
  br label %ehcleanup100

lpad96:                                           ; preds = %invoke.cont95
  %102 = landingpad { ptr, i32 }
          cleanup
  br label %ehcleanup

lpad98:                                           ; preds = %if.then13.i.i.i.i1599, %if.else.i.i291
  %103 = landingpad { ptr, i32 }
          cleanup
  br label %lpad98.body

lpad98.body:                                      ; preds = %lpad.i1593, %lpad98
  %eh.lpad-body1606 = phi { ptr, i32 } [ %103, %lpad98 ], [ %80, %lpad.i1593 ]
  call void @_ZN4cvc58internal6theory11SkolemLemmaD2Ev(ptr noundef nonnull align 8 dereferenceable(32) %ref.tmp90) #22
  br label %ehcleanup

ehcleanup:                                        ; preds = %lpad98.body, %lpad96
  %.pn11 = phi { ptr, i32 } [ %eh.lpad-body1606, %lpad98.body ], [ %102, %lpad96 ]
  call void @_ZN4cvc58internal12NodeTemplateILb1EED2Ev(ptr noundef nonnull align 8 dereferenceable(8) %agg.tmp93) #22
  br label %ehcleanup100

ehcleanup100:                                     ; preds = %ehcleanup, %lpad94
  %.pn11.pn = phi { ptr, i32 } [ %.pn11, %ehcleanup ], [ %101, %lpad94 ]
  call void @_ZN4cvc58internal9TrustNodeD2Ev(ptr noundef nonnull align 8 dereferenceable(24) %agg.tmp91) #22
  br label %ehcleanup129

if.end101:                                        ; preds = %if.then13.i.i.i326, %if.then.i.i.i319, %_ZN4cvc58internal12NodeTemplateILb1EED2Ev.exit315, %invoke.cont87
  %104 = load ptr, ptr %d_tpg.i, align 8
  %cmp.i.i.i328.not = icmp eq ptr %104, null
  br i1 %cmp.i.i.i328.not, label %cond.true115, label %if.then104

if.then104:                                       ; preds = %if.end101
  %105 = load i32, ptr %currTrn, align 8
  store i32 %105, ptr %agg.tmp105, align 8
  %106 = load ptr, ptr %d_proven3.i330, align 8
  store ptr %106, ptr %d_proven.i329, align 8
  %bf.load.i.i.i331 = load i64, ptr %106, align 8
  %bf.lshr.i.i.i332 = lshr i64 %bf.load.i.i.i331, 40
  %107 = trunc i64 %bf.lshr.i.i.i332 to i32
  %bf.cast.i.i.i333 = and i32 %107, 1048575
  %cmp.i.i.i334 = icmp ult i32 %bf.cast.i.i.i333, 1048574
  br i1 %cmp.i.i.i334, label %if.then.i.i.i341, label %if.else.i.i.i335

if.then.i.i.i341:                                 ; preds = %if.then104
  %bf.value.i.i.i342 = add i64 %bf.load.i.i.i331, 1099511627776
  %bf.shl.i.i.i343 = and i64 %bf.value.i.i.i342, 1152920405095219200
  %bf.clear7.i.i.i344 = and i64 %bf.load.i.i.i331, -1152920405095219201
  %bf.set.i.i.i345 = or disjoint i64 %bf.shl.i.i.i343, %bf.clear7.i.i.i344
  store i64 %bf.set.i.i.i345, ptr %106, align 8
  br label %invoke.cont106

if.else.i.i.i335:                                 ; preds = %if.then104
  %cmp12.i.i.i336 = icmp eq i32 %bf.cast.i.i.i333, 1048574
  br i1 %cmp12.i.i.i336, label %if.then13.i.i.i339, label %invoke.cont106

if.then13.i.i.i339:                               ; preds = %if.else.i.i.i335
  %bf.set23.i.i.i340 = or i64 %bf.load.i.i.i331, 1152920405095219200
  store i64 %bf.set23.i.i.i340, ptr %106, align 8
  invoke void @_ZN4cvc58internal4expr9NodeValue20markRefCountMaxedOutEv(ptr noundef nonnull align 8 dereferenceable(16) %106)
          to label %invoke.cont106 unwind label %lpad86

invoke.cont106:                                   ; preds = %if.else.i.i.i335, %if.then.i.i.i341, %if.then13.i.i.i339
  %108 = load ptr, ptr %d_gen4.i338, align 8
  store ptr %108, ptr %d_gen.i337, align 8
  %109 = load ptr, ptr %d_tpg.i, align 8
  invoke void @_ZN4cvc58internal6theory18TheoryPreprocessor22registerTrustedRewriteENS0_9TrustNodeEPNS0_19TConvProofGeneratorEbj(ptr noundef nonnull align 8 dereferenceable(288) %this, ptr noundef nonnull %agg.tmp105, ptr noundef %109, i1 noundef zeroext true, i32 noundef %51)
          to label %invoke.cont109 unwind label %lpad108

invoke.cont109:                                   ; preds = %invoke.cont106
  %110 = load ptr, ptr %d_proven.i329, align 8
  %bf.load.i.i.i349 = load i64, ptr %110, align 8
  %111 = and i64 %bf.load.i.i.i349, 1152920405095219200
  %cmp.not.i.i.i350 = icmp eq i64 %111, 1152920405095219200
  br i1 %cmp.not.i.i.i350, label %cond.true115, label %if.then.i.i.i351

if.then.i.i.i351:                                 ; preds = %invoke.cont109
  %bf.value.i.i.i352 = add i64 %bf.load.i.i.i349, 1152920405095219200
  %bf.shl.i.i.i353 = and i64 %bf.value.i.i.i352, 1152920405095219200
  %bf.clear7.i.i.i354 = and i64 %bf.load.i.i.i349, -1152920405095219201
  %bf.set.i.i.i355 = or disjoint i64 %bf.shl.i.i.i353, %bf.clear7.i.i.i354
  store i64 %bf.set.i.i.i355, ptr %110, align 8
  %cmp12.i.i.i356 = icmp eq i64 %bf.shl.i.i.i353, 0
  br i1 %cmp12.i.i.i356, label %if.then13.i.i.i358, label %cond.true115

if.then13.i.i.i358:                               ; preds = %if.then.i.i.i351
  invoke void @_ZN4cvc58internal4expr9NodeValue15markForDeletionEv(ptr noundef nonnull align 8 dereferenceable(16) %110)
          to label %cond.true115 unwind label %terminate.lpad.i.i359

terminate.lpad.i.i359:                            ; preds = %if.then13.i.i.i358
  %112 = landingpad { ptr, i32 }
          catch ptr null
  %113 = extractvalue { ptr, i32 } %112, 0
  call void @__clang_call_terminate(ptr %113) #23
  unreachable

lpad108:                                          ; preds = %invoke.cont106
  %114 = landingpad { ptr, i32 }
          cleanup
  call void @_ZN4cvc58internal9TrustNodeD2Ev(ptr noundef nonnull align 8 dereferenceable(24) %agg.tmp105) #22
  br label %ehcleanup129

cond.true115:                                     ; preds = %if.end101, %invoke.cont109, %if.then.i.i.i351, %if.then13.i.i.i358
  %115 = load ptr, ptr %d_pScope.i.i, align 8
  %116 = load ptr, ptr %115, align 8
  %_M_finish.i.i.i.i.i.i = getelementptr inbounds %"class.cvc5::context::Context", ptr %116, i64 0, i32 1, i32 0, i32 0, i32 0, i32 1
  %117 = load ptr, ptr %_M_finish.i.i.i.i.i.i, align 8
  %add.ptr.i.i.i.i.i.i407 = getelementptr inbounds ptr, ptr %117, i64 -1
  %118 = load ptr, ptr %add.ptr.i.i.i.i.i.i407, align 8
  %cmp.i.i.i408 = icmp eq ptr %118, %115
  br i1 %cmp.i.i.i408, label %_ZN4cvc57context10ContextObj11makeCurrentEv.exit.i, label %if.then.i.i409

if.then.i.i409:                                   ; preds = %cond.true115
  invoke void @_ZN4cvc57context10ContextObj6updateEv(ptr noundef nonnull align 8 dereferenceable(40) %d_cache)
          to label %_ZN4cvc57context10ContextObj11makeCurrentEv.exit.i unwind label %lpad86

_ZN4cvc57context10ContextObj11makeCurrentEv.exit.i: ; preds = %if.then.i.i409, %cond.true115
  %119 = load i64, ptr %d_size.i, align 8
  %inc.i410 = add i64 %119, 1
  store i64 %inc.i410, ptr %d_size.i, align 8
  %120 = load ptr, ptr %d_insertMap.i, align 8
  invoke void @_ZN4cvc57context13InsertHashMapISt4pairINS_8internal12NodeTemplateILb1EEEjES5_NS3_16PairHashFunctionIS5_jSt4hashIS5_ES8_IjEEEE9push_backERKS6_RKS5_(ptr noundef nonnull align 8 dereferenceable(136) %120, ptr noundef nonnull align 8 dereferenceable(12) %curr, ptr noundef nonnull align 8 dereferenceable(8) %ret)
          to label %invoke.cont128 unwind label %lpad86

invoke.cont128:                                   ; preds = %_ZN4cvc57context10ContextObj11makeCurrentEv.exit.i
  %121 = load ptr, ptr %ret, align 8
  %bf.load.i.i414 = load i64, ptr %121, align 8
  %122 = and i64 %bf.load.i.i414, 1152920405095219200
  %cmp.not.i.i415 = icmp eq i64 %122, 1152920405095219200
  br i1 %cmp.not.i.i415, label %cleanup, label %if.then.i.i416

if.then.i.i416:                                   ; preds = %invoke.cont128
  %bf.value.i.i417 = add i64 %bf.load.i.i414, 1152920405095219200
  %bf.shl.i.i418 = and i64 %bf.value.i.i417, 1152920405095219200
  %bf.clear7.i.i419 = and i64 %bf.load.i.i414, -1152920405095219201
  %bf.set.i.i420 = or disjoint i64 %bf.shl.i.i418, %bf.clear7.i.i419
  store i64 %bf.set.i.i420, ptr %121, align 8
  %cmp12.i.i421 = icmp eq i64 %bf.shl.i.i418, 0
  br i1 %cmp12.i.i421, label %if.then13.i.i422, label %cleanup

if.then13.i.i422:                                 ; preds = %if.then.i.i416
  invoke void @_ZN4cvc58internal4expr9NodeValue15markForDeletionEv(ptr noundef nonnull align 8 dereferenceable(16) %121)
          to label %cleanup unwind label %terminate.lpad.i423

terminate.lpad.i423:                              ; preds = %if.then13.i.i422
  %123 = landingpad { ptr, i32 }
          catch ptr null
  %124 = extractvalue { ptr, i32 } %123, 0
  call void @__clang_call_terminate(ptr %124) #23
  unreachable

ehcleanup129:                                     ; preds = %lpad108, %ehcleanup100, %lpad86
  %.pn14 = phi { ptr, i32 } [ %100, %lpad86 ], [ %114, %lpad108 ], [ %.pn11.pn, %ehcleanup100 ]
  call void @_ZN4cvc58internal12NodeTemplateILb1EED2Ev(ptr noundef nonnull align 8 dereferenceable(8) %ret) #22
  br label %ehcleanup182

if.end130:                                        ; preds = %invoke.cont82
  %125 = load ptr, ptr %node, align 8
  %d_kind.i.i.i.i425 = getelementptr inbounds %"class.cvc5::internal::expr::NodeValue", ptr %125, i64 0, i32 1
  %bf.load.i.i.i.i426 = load i16, ptr %d_kind.i.i.i.i425, align 8
  %bf.clear.i.i.i.i = and i16 %bf.load.i.i.i.i426, 1023
  %bf.cast.i.i.i.i = zext nneg i16 %bf.clear.i.i.i.i to i32
  %cmp.i.i.i.i.i = icmp eq i16 %bf.clear.i.i.i.i, 1023
  %cond.i.i.i.i.i = select i1 %cmp.i.i.i.i.i, i32 -1, i32 %bf.cast.i.i.i.i
  %call2.i.i.i429 = invoke noundef i32 @_ZN4cvc58internal4kind10metaKindOfENS1_6Kind_tE(i32 noundef %cond.i.i.i.i.i)
          to label %invoke.cont131 unwind label %lpad81.loopexit.split-lp

invoke.cont131:                                   ; preds = %if.end130
  %cmp.i.i427 = icmp eq i32 %call2.i.i.i429, 2
  %d_nchildren.i.i = getelementptr inbounds %"class.cvc5::internal::expr::NodeValue", ptr %125, i64 0, i32 2
  %bf.load.i.i428 = load i32, ptr %d_nchildren.i.i, align 4
  %bf.clear.i.i = and i32 %bf.load.i.i428, 67108863
  %sub.i.i = sext i1 %cmp.i.i427 to i32
  %cond.i.i = add nsw i32 %bf.clear.i.i, %sub.i.i
  %conv.i = zext i32 %cond.i.i to i64
  %cmp.not = icmp eq i32 %cond.i.i, 0
  br i1 %cmp.not, label %cleanup, label %if.then133

if.then133:                                       ; preds = %invoke.cont131
  %126 = load ptr, ptr %node, align 8
  %d_kind.i.i = getelementptr inbounds %"class.cvc5::internal::expr::NodeValue", ptr %126, i64 0, i32 1
  %bf.load.i.i430 = load i16, ptr %d_kind.i.i, align 8
  %bf.clear.i.i431 = and i16 %bf.load.i.i430, 1023
  %bf.cast.i.i432 = zext nneg i16 %bf.clear.i.i431 to i32
  switch i32 %bf.cast.i.i432, label %cond.true140 [
    i32 26, label %cleanup
    i32 352, label %cleanup
    i32 353, label %cleanup
    i32 11, label %cleanup
    i32 255, label %cleanup
    i32 233, label %cleanup
  ]

cond.true140:                                     ; preds = %if.then133
  %127 = load ptr, ptr %_M_finish.i.i.i.i, align 8
  %128 = load i32, ptr %_M_offset.i.i1.i.i.i.i, align 8
  %129 = load ptr, ptr %processedChildren, align 8
  %sub.ptr.lhs.cast.i.i = ptrtoint ptr %127 to i64
  %sub.ptr.rhs.cast.i.i = ptrtoint ptr %129 to i64
  %sub.ptr.sub.i.i = sub i64 %sub.ptr.lhs.cast.i.i, %sub.ptr.rhs.cast.i.i
  %mul.i.i = shl nsw i64 %sub.ptr.sub.i.i, 3
  %conv.i.i = zext i32 %128 to i64
  %add.i.i = add nsw i64 %conv.i.i, -1
  %sub = add i64 %add.i.i, %mul.i.i
  %div.i.i.i.i.i481 = sdiv i64 %sub, 64
  %add.ptr.i.i.i.i.i482 = getelementptr inbounds i64, ptr %129, i64 %div.i.i.i.i.i481
  %rem.i.i.i.i.i483 = srem i64 %sub, 64
  %rem.lobit.i.i.i.i.i484 = ashr i64 %rem.i.i.i.i.i483, 63
  %storemerge.i.i.i.i.i485 = getelementptr inbounds i64, ptr %add.ptr.i.i.i.i.i482, i64 %rem.lobit.i.i.i.i.i484
  %conv4.i.i.i.i.i486 = and i64 %rem.i.i.i.i.i483, 63
  %shl.i.i.i = shl nuw i64 1, %conv4.i.i.i.i.i486
  %130 = load i64, ptr %storemerge.i.i.i.i.i485, align 8
  %or.i = or i64 %shl.i.i.i, %130
  store i64 %or.i, ptr %storemerge.i.i.i.i.i485, align 8
  br label %for.body

for.body:                                         ; preds = %cond.true140, %for.inc
  %i.01669 = phi i64 [ 0, %cond.true140 ], [ %inc, %for.inc ]
  %131 = load ptr, ptr %node, align 8
  store ptr %131, ptr %agg.tmp158, align 8
  %bf.load.i.i490 = load i64, ptr %131, align 8
  %bf.lshr.i.i491 = lshr i64 %bf.load.i.i490, 40
  %132 = trunc i64 %bf.lshr.i.i491 to i32
  %bf.cast.i.i492 = and i32 %132, 1048575
  %cmp.i.i493 = icmp ult i32 %bf.cast.i.i492, 1048574
  br i1 %cmp.i.i493, label %if.then.i.i498, label %if.else.i.i494

if.then.i.i498:                                   ; preds = %for.body
  %bf.value.i.i499 = add i64 %bf.load.i.i490, 1099511627776
  %bf.shl.i.i500 = and i64 %bf.value.i.i499, 1152920405095219200
  %bf.clear7.i.i501 = and i64 %bf.load.i.i490, -1152920405095219201
  %bf.set.i.i502 = or disjoint i64 %bf.shl.i.i500, %bf.clear7.i.i501
  store i64 %bf.set.i.i502, ptr %131, align 8
  br label %invoke.cont159

if.else.i.i494:                                   ; preds = %for.body
  %cmp12.i.i495 = icmp eq i32 %bf.cast.i.i492, 1048574
  br i1 %cmp12.i.i495, label %if.then13.i.i496, label %invoke.cont159

if.then13.i.i496:                                 ; preds = %if.else.i.i494
  %bf.set23.i.i497 = or i64 %bf.load.i.i490, 1152920405095219200
  store i64 %bf.set23.i.i497, ptr %131, align 8
  invoke void @_ZN4cvc58internal4expr9NodeValue20markRefCountMaxedOutEv(ptr noundef nonnull align 8 dereferenceable(16) %131)
          to label %invoke.cont159 unwind label %lpad81.loopexit

invoke.cont159:                                   ; preds = %if.else.i.i494, %if.then.i.i498, %if.then13.i.i496
  invoke void @_ZN4cvc58internal9TCtxStack9pushChildENS0_12NodeTemplateILb1EEEjm(ptr noundef nonnull align 8 dereferenceable(40) %ctx, ptr noundef nonnull %agg.tmp158, i32 noundef %51, i64 noundef %i.01669)
          to label %invoke.cont161 unwind label %lpad160

invoke.cont161:                                   ; preds = %invoke.cont159
  %133 = load ptr, ptr %agg.tmp158, align 8
  %bf.load.i.i505 = load i64, ptr %133, align 8
  %134 = and i64 %bf.load.i.i505, 1152920405095219200
  %cmp.not.i.i506 = icmp eq i64 %134, 1152920405095219200
  br i1 %cmp.not.i.i506, label %_ZN4cvc58internal12NodeTemplateILb1EED2Ev.exit515, label %if.then.i.i507

if.then.i.i507:                                   ; preds = %invoke.cont161
  %bf.value.i.i508 = add i64 %bf.load.i.i505, 1152920405095219200
  %bf.shl.i.i509 = and i64 %bf.value.i.i508, 1152920405095219200
  %bf.clear7.i.i510 = and i64 %bf.load.i.i505, -1152920405095219201
  %bf.set.i.i511 = or disjoint i64 %bf.shl.i.i509, %bf.clear7.i.i510
  store i64 %bf.set.i.i511, ptr %133, align 8
  %cmp12.i.i512 = icmp eq i64 %bf.shl.i.i509, 0
  br i1 %cmp12.i.i512, label %if.then13.i.i513, label %_ZN4cvc58internal12NodeTemplateILb1EED2Ev.exit515

if.then13.i.i513:                                 ; preds = %if.then.i.i507
