; ModuleID = 'bench/cvc5/original/utility.cpp.ll'
source_filename = "bench/cvc5/original/utility.cpp.ll"
target datalayout = "e-m:e-p270:32:32-p271:32:32-p272:64:64-i64:64-i128:128-f80:128-n8:16:32:64-S128"
target triple = "x86_64-unknown-linux-gnu"

%"class.std::unique_ptr" = type { %"struct.std::__uniq_ptr_data" }
%"struct.std::__uniq_ptr_data" = type { %"class.std::__uniq_ptr_impl" }
%"class.std::__uniq_ptr_impl" = type { %"class.std::tuple" }
%"class.std::tuple" = type { %"struct.std::_Tuple_impl" }
%"struct.std::_Tuple_impl" = type { %"struct.std::_Head_base.1" }
%"struct.std::_Head_base.1" = type { ptr }
%"class.std::__cxx11::basic_string" = type { %"struct.std::__cxx11::basic_string<char>::_Alloc_hider", i64, %union.anon }
%"struct.std::__cxx11::basic_string<char>::_Alloc_hider" = type { ptr }
%union.anon = type { i64, [8 x i8] }
%"class.std::allocator" = type { i8 }
%"class.cvc5::internal::FatalStream" = type { i8 }
%struct._Guard = type { ptr }

$_ZStplIcSt11char_traitsIcESaIcEENSt7__cxx1112basic_stringIT_T0_T1_EEPKS5_RKS8_ = comdat any

$_ZNSt7__cxx1112basic_stringIcSt11char_traitsIcESaIcEE12_M_constructIPKcEEvT_S8_St20forward_iterator_tag = comdat any

$_ZZNSt7__cxx1112basic_stringIcSt11char_traitsIcESaIcEE12_M_constructIPKcEEvT_S8_St20forward_iterator_tagEN6_GuardD2Ev = comdat any

$__clang_call_terminate = comdat any

@.str = private unnamed_addr constant [7 x i8] c"TMPDIR\00", align 1
@.str.1 = private unnamed_addr constant [2 x i8] c"/\00", align 1
@.str.2 = private unnamed_addr constant [6 x i8] c"/tmp/\00", align 1
@__PRETTY_FUNCTION__._ZN4cvc58internal11openTmpFileEPNSt7__cxx1112basic_stringIcSt11char_traitsIcESaIcEEE = private unnamed_addr constant [73 x i8] c"std::unique_ptr<std::fstream> cvc5::internal::openTmpFile(std::string *)\00", align 1
@.str.3 = private unnamed_addr constant [108 x i8] c"generated/home/dtcxzyw/WorkSpace/Projects/compilers/llvm-opt-benchmark/bench/cvc5/cvc5/src/util/utility.cpp\00", align 1
@.str.4 = private unnamed_addr constant [33 x i8] c"Could not create temporary file \00", align 1

; Function Attrs: mustprogress uwtable
define hidden void @_ZN4cvc58internal11openTmpFileEPNSt7__cxx1112basic_stringIcSt11char_traitsIcESaIcEEE(ptr noalias nocapture writeonly sret(%"class.std::unique_ptr") align 8 %agg.result, ptr noundef %pattern) local_unnamed_addr #0 personality ptr @__gxx_personality_v0 {
entry:
  %ref.tmp = alloca %"class.std::__cxx11::basic_string", align 8
  %ref.tmp1 = alloca %"class.std::__cxx11::basic_string", align 8
  %ref.tmp2 = alloca %"class.std::__cxx11::basic_string", align 8
  %ref.tmp3 = alloca %"class.std::allocator", align 1
  %ref.tmp10 = alloca %"class.std::__cxx11::basic_string", align 8
  %ref.tmp20 = alloca %"class.cvc5::internal::FatalStream", align 1
  %ref.tmp39 = alloca %"class.std::__cxx11::basic_string", align 8
  %ref.tmp40 = alloca %"class.std::allocator", align 1
  %call = tail call ptr @getenv(ptr noundef nonnull @.str) #10
  %cmp.not = icmp eq ptr %call, null
  br i1 %cmp.not, label %if.else, label %if.then

if.then:                                          ; preds = %entry
  call void @_ZNSaIcEC1Ev(ptr noundef nonnull align 1 dereferenceable(1) %ref.tmp3) #10
  %call.i22 = invoke noundef ptr @_ZNSt7__cxx1112basic_stringIcSt11char_traitsIcESaIcEE13_M_local_dataEv(ptr noundef nonnull align 8 dereferenceable(32) %ref.tmp2)
          to label %call.i.noexc unwind label %lpad

call.i.noexc:                                     ; preds = %if.then
  invoke void @_ZNSt7__cxx1112basic_stringIcSt11char_traitsIcESaIcEE12_Alloc_hiderC1EPcRKS3_(ptr noundef nonnull align 8 dereferenceable(8) %ref.tmp2, ptr noundef %call.i22, ptr noundef nonnull align 1 dereferenceable(1) %ref.tmp3)
          to label %if.end.i unwind label %lpad

lpad.i:                                           ; preds = %if.end.i
  %0 = landingpad { ptr, i32 }
          cleanup
  call void @_ZNSaIcED2Ev(ptr noundef nonnull align 1 dereferenceable(1) %ref.tmp2) #10
  br label %ehcleanup9

if.end.i:                                         ; preds = %call.i.noexc
  %call.i.i = call noundef i64 @strlen(ptr noundef nonnull dereferenceable(1) %call) #10
  %add.ptr.i = getelementptr inbounds i8, ptr %call, i64 %call.i.i
  invoke void @_ZNSt7__cxx1112basic_stringIcSt11char_traitsIcESaIcEE12_M_constructIPKcEEvT_S8_St20forward_iterator_tag(ptr noundef nonnull align 8 dereferenceable(32) %ref.tmp2, ptr noundef nonnull %call, ptr noundef nonnull %add.ptr.i)
          to label %invoke.cont unwind label %lpad.i

invoke.cont:                                      ; preds = %if.end.i
  %call.i24 = invoke noundef nonnull align 8 dereferenceable(32) ptr @_ZNSt7__cxx1112basic_stringIcSt11char_traitsIcESaIcEE6appendEPKc(ptr noundef nonnull align 8 dereferenceable(32) %ref.tmp2, ptr noundef nonnull @.str.1)
          to label %invoke.cont5 unwind label %lpad4

invoke.cont5:                                     ; preds = %invoke.cont
  call void @_ZNSt7__cxx1112basic_stringIcSt11char_traitsIcESaIcEEC1EOS4_(ptr noundef nonnull align 8 dereferenceable(32) %ref.tmp1, ptr noundef nonnull align 8 dereferenceable(32) %call.i24) #10
  %call.i26 = invoke noundef nonnull align 8 dereferenceable(32) ptr @_ZNSt7__cxx1112basic_stringIcSt11char_traitsIcESaIcEE6appendERKS4_(ptr noundef nonnull align 8 dereferenceable(32) %ref.tmp1, ptr noundef nonnull align 8 dereferenceable(32) %pattern)
          to label %invoke.cont7 unwind label %lpad6

invoke.cont7:                                     ; preds = %invoke.cont5
  call void @_ZNSt7__cxx1112basic_stringIcSt11char_traitsIcESaIcEEC1EOS4_(ptr noundef nonnull align 8 dereferenceable(32) %ref.tmp, ptr noundef nonnull align 8 dereferenceable(32) %call.i26) #10
  %call8 = call noundef nonnull align 8 dereferenceable(32) ptr @_ZNSt7__cxx1112basic_stringIcSt11char_traitsIcESaIcEEaSEOS4_(ptr noundef nonnull align 8 dereferenceable(32) %pattern, ptr noundef nonnull align 8 dereferenceable(32) %ref.tmp) #10
  call void @_ZNSt7__cxx1112basic_stringIcSt11char_traitsIcESaIcEED1Ev(ptr noundef nonnull align 8 dereferenceable(32) %ref.tmp) #10
  call void @_ZNSt7__cxx1112basic_stringIcSt11char_traitsIcESaIcEED1Ev(ptr noundef nonnull align 8 dereferenceable(32) %ref.tmp1) #10
  call void @_ZNSt7__cxx1112basic_stringIcSt11char_traitsIcESaIcEED1Ev(ptr noundef nonnull align 8 dereferenceable(32) %ref.tmp2) #10
  call void @_ZNSaIcED1Ev(ptr noundef nonnull align 1 dereferenceable(1) %ref.tmp3) #10
  br label %if.end

lpad:                                             ; preds = %call.i.noexc, %if.then
  %1 = landingpad { ptr, i32 }
          cleanup
  br label %ehcleanup9

lpad4:                                            ; preds = %invoke.cont
  %2 = landingpad { ptr, i32 }
          cleanup
  br label %ehcleanup

lpad6:                                            ; preds = %invoke.cont5
  %3 = landingpad { ptr, i32 }
          cleanup
  call void @_ZNSt7__cxx1112basic_stringIcSt11char_traitsIcESaIcEED1Ev(ptr noundef nonnull align 8 dereferenceable(32) %ref.tmp1) #10
  br label %ehcleanup

ehcleanup:                                        ; preds = %lpad6, %lpad4
  %.pn = phi { ptr, i32 } [ %3, %lpad6 ], [ %2, %lpad4 ]
  call void @_ZNSt7__cxx1112basic_stringIcSt11char_traitsIcESaIcEED1Ev(ptr noundef nonnull align 8 dereferenceable(32) %ref.tmp2) #10
  br label %ehcleanup9

ehcleanup9:                                       ; preds = %lpad, %lpad.i, %ehcleanup
  %.pn.pn = phi { ptr, i32 } [ %.pn, %ehcleanup ], [ %1, %lpad ], [ %0, %lpad.i ]
  call void @_ZNSaIcED1Ev(ptr noundef nonnull align 1 dereferenceable(1) %ref.tmp3) #10
  br label %eh.resume

if.else:                                          ; preds = %entry
  call void @_ZStplIcSt11char_traitsIcESaIcEENSt7__cxx1112basic_stringIT_T0_T1_EEPKS5_RKS8_(ptr nonnull sret(%"class.std::__cxx11::basic_string") align 8 %ref.tmp10, ptr noundef nonnull @.str.2, ptr noundef nonnull align 8 dereferenceable(32) %pattern)
  %call11 = call noundef nonnull align 8 dereferenceable(32) ptr @_ZNSt7__cxx1112basic_stringIcSt11char_traitsIcESaIcEEaSEOS4_(ptr noundef nonnull align 8 dereferenceable(32) %pattern, ptr noundef nonnull align 8 dereferenceable(32) %ref.tmp10) #10
  call void @_ZNSt7__cxx1112basic_stringIcSt11char_traitsIcESaIcEED1Ev(ptr noundef nonnull align 8 dereferenceable(32) %ref.tmp10) #10
  br label %if.end

if.end:                                           ; preds = %if.else, %invoke.cont7
  %call12 = call noundef i64 @_ZNKSt7__cxx1112basic_stringIcSt11char_traitsIcESaIcEE4sizeEv(ptr noundef nonnull align 8 dereferenceable(32) %pattern) #10
  %add = add i64 %call12, 1
  %call13 = call noalias noundef nonnull ptr @_Znam(i64 noundef %add) #11
  %call14 = call noundef i64 @_ZNKSt7__cxx1112basic_stringIcSt11char_traitsIcESaIcEE4sizeEv(ptr noundef nonnull align 8 dereferenceable(32) %pattern) #10
  %call15 = call noundef i64 @_ZNKSt7__cxx1112basic_stringIcSt11char_traitsIcESaIcEE4copyEPcmm(ptr noundef nonnull align 8 dereferenceable(32) %pattern, ptr noundef nonnull %call13, i64 noundef %call14, i64 noundef 0)
  %call16 = call noundef i64 @_ZNKSt7__cxx1112basic_stringIcSt11char_traitsIcESaIcEE4sizeEv(ptr noundef nonnull align 8 dereferenceable(32) %pattern) #10
  %arrayidx = getelementptr inbounds i8, ptr %call13, i64 %call16
  store i8 0, ptr %arrayidx, align 1
  %call17 = call i32 @mkstemp(ptr noundef nonnull %call13)
  %cmp18 = icmp eq i32 %call17, -1
  br i1 %cmp18, label %if.then19, label %if.end29

if.then19:                                        ; preds = %if.end
  call void @_ZN4cvc58internal11FatalStreamC1EPKcS3_i(ptr noundef nonnull align 1 dereferenceable(1) %ref.tmp20, ptr noundef nonnull @__PRETTY_FUNCTION__._ZN4cvc58internal11openTmpFileEPNSt7__cxx1112basic_stringIcSt11char_traitsIcESaIcEEE, ptr noundef nonnull @.str.3, i32 noundef 45)
  %call23 = invoke noundef nonnull align 8 dereferenceable(8) ptr @_ZN4cvc58internal11FatalStream6streamEv(ptr noundef nonnull align 1 dereferenceable(1) %ref.tmp20)
          to label %invoke.cont22 unwind label %lpad21

invoke.cont22:                                    ; preds = %if.then19
  %call25 = invoke noundef nonnull align 8 dereferenceable(8) ptr @_ZStlsISt11char_traitsIcEERSt13basic_ostreamIcT_ES5_PKc(ptr noundef nonnull align 8 dereferenceable(8) %call23, ptr noundef nonnull @.str.4)
          to label %invoke.cont24 unwind label %lpad21

invoke.cont24:                                    ; preds = %invoke.cont22
  %call27 = invoke noundef nonnull align 8 dereferenceable(8) ptr @_ZStlsIcSt11char_traitsIcESaIcEERSt13basic_ostreamIT_T0_ES7_RKNSt7__cxx1112basic_stringIS4_S5_T1_EE(ptr noundef nonnull align 8 dereferenceable(8) %call25, ptr noundef nonnull align 8 dereferenceable(32) %pattern)
          to label %invoke.cont26 unwind label %lpad21

invoke.cont26:                                    ; preds = %invoke.cont24
  call void @_ZN4cvc58internal11FatalStreamD1Ev(ptr noundef nonnull align 1 dereferenceable(1) %ref.tmp20) #12
  unreachable

lpad21:                                           ; preds = %invoke.cont24, %invoke.cont22, %if.then19
  %4 = landingpad { ptr, i32 }
          cleanup
  call void @_ZN4cvc58internal11FatalStreamD1Ev(ptr noundef nonnull align 1 dereferenceable(1) %ref.tmp20) #12
  unreachable

if.end29:                                         ; preds = %if.end
  %call30 = call noalias noundef nonnull dereferenceable(528) ptr @_Znwm(i64 noundef 528) #11
  invoke void @_ZNSt13basic_fstreamIcSt11char_traitsIcEEC1EPKcSt13_Ios_Openmode(ptr noundef nonnull align 8 dereferenceable(264) %call30, ptr noundef nonnull %call13, i32 noundef 24)
          to label %invoke.cont34 unwind label %lpad31

invoke.cont34:                                    ; preds = %if.end29
  store ptr %call30, ptr %agg.result, align 8
  %call38 = invoke i32 @close(i32 noundef %call17)
          to label %invoke.cont37 unwind label %lpad36

invoke.cont37:                                    ; preds = %invoke.cont34
  call void @_ZNSaIcEC1Ev(ptr noundef nonnull align 1 dereferenceable(1) %ref.tmp40) #10
  %call.i33 = invoke noundef ptr @_ZNSt7__cxx1112basic_stringIcSt11char_traitsIcESaIcEE13_M_local_dataEv(ptr noundef nonnull align 8 dereferenceable(32) %ref.tmp39)
          to label %call.i.noexc32 unwind label %lpad41

call.i.noexc32:                                   ; preds = %invoke.cont37
  invoke void @_ZNSt7__cxx1112basic_stringIcSt11char_traitsIcESaIcEE12_Alloc_hiderC1EPcRKS3_(ptr noundef nonnull align 8 dereferenceable(8) %ref.tmp39, ptr noundef %call.i33, ptr noundef nonnull align 1 dereferenceable(1) %ref.tmp40)
          to label %.noexc34 unwind label %lpad41

.noexc34:                                         ; preds = %call.i.noexc32
  %call.i.i29 = call noundef i64 @strlen(ptr noundef nonnull dereferenceable(1) %call13) #10
  %add.ptr.i30 = getelementptr inbounds i8, ptr %call13, i64 %call.i.i29
  invoke void @_ZNSt7__cxx1112basic_stringIcSt11char_traitsIcESaIcEE12_M_constructIPKcEEvT_S8_St20forward_iterator_tag(ptr noundef nonnull align 8 dereferenceable(32) %ref.tmp39, ptr noundef nonnull %call13, ptr noundef nonnull %add.ptr.i30)
          to label %invoke.cont42 unwind label %lpad.i31

lpad.i31:                                         ; preds = %.noexc34
  %5 = landingpad { ptr, i32 }
          cleanup
  call void @_ZNSaIcED2Ev(ptr noundef nonnull align 1 dereferenceable(1) %ref.tmp39) #10
  br label %lpad41.body

invoke.cont42:                                    ; preds = %.noexc34
  %call43 = call noundef nonnull align 8 dereferenceable(32) ptr @_ZNSt7__cxx1112basic_stringIcSt11char_traitsIcESaIcEEaSEOS4_(ptr noundef nonnull align 8 dereferenceable(32) %pattern, ptr noundef nonnull align 8 dereferenceable(32) %ref.tmp39) #10
  call void @_ZNSt7__cxx1112basic_stringIcSt11char_traitsIcESaIcEED1Ev(ptr noundef nonnull align 8 dereferenceable(32) %ref.tmp39) #10
  call void @_ZNSaIcED1Ev(ptr noundef nonnull align 1 dereferenceable(1) %ref.tmp40) #10
  call void @_ZdaPv(ptr noundef nonnull %call13) #13
  ret void

lpad31:                                           ; preds = %if.end29
  %6 = landingpad { ptr, i32 }
          cleanup
  call void @_ZdlPv(ptr noundef nonnull %call30) #13
  br label %eh.resume

lpad36:                                           ; preds = %invoke.cont34
  %7 = landingpad { ptr, i32 }
          cleanup
  br label %_ZNSt10unique_ptrISt13basic_fstreamIcSt11char_traitsIcEESt14default_deleteIS3_EED2Ev.exit

lpad41:                                           ; preds = %call.i.noexc32, %invoke.cont37
  %8 = landingpad { ptr, i32 }
          cleanup
  br label %lpad41.body

lpad41.body:                                      ; preds = %lpad.i31, %lpad41
  %eh.lpad-body35 = phi { ptr, i32 } [ %8, %lpad41 ], [ %5, %lpad.i31 ]
  call void @_ZNSaIcED1Ev(ptr noundef nonnull align 1 dereferenceable(1) %ref.tmp40) #10
  br label %_ZNSt10unique_ptrISt13basic_fstreamIcSt11char_traitsIcEESt14default_deleteIS3_EED2Ev.exit

_ZNSt10unique_ptrISt13basic_fstreamIcSt11char_traitsIcEESt14default_deleteIS3_EED2Ev.exit: ; preds = %lpad41.body, %lpad36
  %.pn19 = phi { ptr, i32 } [ %eh.lpad-body35, %lpad41.body ], [ %7, %lpad36 ]
  %vtable.i.i = load ptr, ptr %call30, align 8
  %vfn.i.i = getelementptr inbounds i8, ptr %vtable.i.i, i64 8
  %9 = load ptr, ptr %vfn.i.i, align 8
  call void %9(ptr noundef nonnull align 8 dereferenceable(264) %call30) #10
  store ptr null, ptr %agg.result, align 8
  br label %eh.resume

eh.resume:                                        ; preds = %_ZNSt10unique_ptrISt13basic_fstreamIcSt11char_traitsIcEESt14default_deleteIS3_EED2Ev.exit, %lpad31, %ehcleanup9
  %.pn19.pn = phi { ptr, i32 } [ %.pn19, %_ZNSt10unique_ptrISt13basic_fstreamIcSt11char_traitsIcEESt14default_deleteIS3_EED2Ev.exit ], [ %6, %lpad31 ], [ %.pn.pn, %ehcleanup9 ]
  resume { ptr, i32 } %.pn19.pn
}

; Function Attrs: nofree nounwind memory(read)
declare noundef ptr @getenv(ptr nocapture noundef) local_unnamed_addr #1

; Function Attrs: nounwind
declare void @_ZNSaIcEC1Ev(ptr noundef nonnull align 1 dereferenceable(1)) unnamed_addr #2

declare i32 @__gxx_personality_v0(...)

; Function Attrs: nounwind
declare noundef nonnull align 8 dereferenceable(32) ptr @_ZNSt7__cxx1112basic_stringIcSt11char_traitsIcESaIcEEaSEOS4_(ptr noundef nonnull align 8 dereferenceable(32), ptr noundef nonnull align 8 dereferenceable(32)) local_unnamed_addr #2

; Function Attrs: nounwind
declare void @_ZNSt7__cxx1112basic_stringIcSt11char_traitsIcESaIcEED1Ev(ptr noundef nonnull align 8 dereferenceable(32)) unnamed_addr #2

; Function Attrs: nounwind
declare void @_ZNSaIcED1Ev(ptr noundef nonnull align 1 dereferenceable(1)) unnamed_addr #2

; Function Attrs: mustprogress uwtable
define linkonce_odr void @_ZStplIcSt11char_traitsIcESaIcEENSt7__cxx1112basic_stringIT_T0_T1_EEPKS5_RKS8_(ptr noalias sret(%"class.std::__cxx11::basic_string") align 8 %agg.result, ptr noundef %__lhs, ptr noundef nonnull align 8 dereferenceable(32) %__rhs) local_unnamed_addr #0 comdat personality ptr @__gxx_personality_v0 {
invoke.cont:
  %ref.tmp = alloca %"class.std::allocator", align 1
  %ref.tmp1 = alloca %"class.std::allocator", align 1
  %call.i = tail call noundef i64 @strlen(ptr noundef nonnull dereferenceable(1) %__lhs) #10
  call void @_ZNKSt7__cxx1112basic_stringIcSt11char_traitsIcESaIcEE13get_allocatorEv(ptr nonnull sret(%"class.std::allocator") align 1 %ref.tmp1, ptr noundef nonnull align 8 dereferenceable(32) %__rhs) #10
  call void @_ZNSaIcEC1ERKS_(ptr noundef nonnull align 1 dereferenceable(1) %ref.tmp, ptr noundef nonnull align 1 dereferenceable(1) %ref.tmp1) #10
  call void @_ZNSt7__cxx1112basic_stringIcSt11char_traitsIcESaIcEEC1ERKS3_(ptr noundef nonnull align 8 dereferenceable(32) %agg.result, ptr noundef nonnull align 1 dereferenceable(1) %ref.tmp) #10
  call void @_ZNSaIcED1Ev(ptr noundef nonnull align 1 dereferenceable(1) %ref.tmp) #10
  call void @_ZNSaIcED1Ev(ptr noundef nonnull align 1 dereferenceable(1) %ref.tmp1) #10
  %call2 = call noundef i64 @_ZNKSt7__cxx1112basic_stringIcSt11char_traitsIcESaIcEE4sizeEv(ptr noundef nonnull align 8 dereferenceable(32) %__rhs) #10
  %add = add i64 %call2, %call.i
  invoke void @_ZNSt7__cxx1112basic_stringIcSt11char_traitsIcESaIcEE7reserveEm(ptr noundef nonnull align 8 dereferenceable(32) %agg.result, i64 noundef %add)
          to label %invoke.cont4 unwind label %lpad3

invoke.cont4:                                     ; preds = %invoke.cont
  %call6 = invoke noundef nonnull align 8 dereferenceable(32) ptr @_ZNSt7__cxx1112basic_stringIcSt11char_traitsIcESaIcEE6appendEPKcm(ptr noundef nonnull align 8 dereferenceable(32) %agg.result, ptr noundef %__lhs, i64 noundef %call.i)
          to label %invoke.cont5 unwind label %lpad3

invoke.cont5:                                     ; preds = %invoke.cont4
  %call8 = invoke noundef nonnull align 8 dereferenceable(32) ptr @_ZNSt7__cxx1112basic_stringIcSt11char_traitsIcESaIcEE6appendERKS4_(ptr noundef nonnull align 8 dereferenceable(32) %agg.result, ptr noundef nonnull align 8 dereferenceable(32) %__rhs)
          to label %nrvo.skipdtor unwind label %lpad3

lpad3:                                            ; preds = %invoke.cont5, %invoke.cont4, %invoke.cont
  %0 = landingpad { ptr, i32 }
          cleanup
  call void @_ZNSt7__cxx1112basic_stringIcSt11char_traitsIcESaIcEED1Ev(ptr noundef nonnull align 8 dereferenceable(32) %agg.result) #10
  resume { ptr, i32 } %0

nrvo.skipdtor:                                    ; preds = %invoke.cont5
  ret void
}

; Function Attrs: nounwind
declare noundef i64 @_ZNKSt7__cxx1112basic_stringIcSt11char_traitsIcESaIcEE4sizeEv(ptr noundef nonnull align 8 dereferenceable(32)) local_unnamed_addr #2

; Function Attrs: nobuiltin allocsize(0)
declare noundef nonnull ptr @_Znam(i64 noundef) local_unnamed_addr #3

declare noundef i64 @_ZNKSt7__cxx1112basic_stringIcSt11char_traitsIcESaIcEE4copyEPcmm(ptr noundef nonnull align 8 dereferenceable(32), ptr noundef, i64 noundef, i64 noundef) local_unnamed_addr #4

declare i32 @mkstemp(ptr noundef) local_unnamed_addr #4

declare noundef nonnull align 8 dereferenceable(8) ptr @_ZStlsIcSt11char_traitsIcESaIcEERSt13basic_ostreamIT_T0_ES7_RKNSt7__cxx1112basic_stringIS4_S5_T1_EE(ptr noundef nonnull align 8 dereferenceable(8), ptr noundef nonnull align 8 dereferenceable(32)) local_unnamed_addr #4

declare noundef nonnull align 8 dereferenceable(8) ptr @_ZStlsISt11char_traitsIcEERSt13basic_ostreamIcT_ES5_PKc(ptr noundef nonnull align 8 dereferenceable(8), ptr noundef) local_unnamed_addr #4

declare void @_ZN4cvc58internal11FatalStreamC1EPKcS3_i(ptr noundef nonnull align 1 dereferenceable(1), ptr noundef, ptr noundef, i32 noundef) unnamed_addr #4

declare noundef nonnull align 8 dereferenceable(8) ptr @_ZN4cvc58internal11FatalStream6streamEv(ptr noundef nonnull align 1 dereferenceable(1)) local_unnamed_addr #4

; Function Attrs: noreturn nounwind
declare void @_ZN4cvc58internal11FatalStreamD1Ev(ptr noundef nonnull align 1 dereferenceable(1)) unnamed_addr #5

; Function Attrs: nobuiltin allocsize(0)
declare noundef nonnull ptr @_Znwm(i64 noundef) local_unnamed_addr #3

declare void @_ZNSt13basic_fstreamIcSt11char_traitsIcEEC1EPKcSt13_Ios_Openmode(ptr noundef nonnull align 8 dereferenceable(264), ptr noundef, i32 noundef) unnamed_addr #4

; Function Attrs: nobuiltin nounwind
declare void @_ZdlPv(ptr noundef) local_unnamed_addr #6

declare i32 @close(i32 noundef) local_unnamed_addr #4

; Function Attrs: nobuiltin nounwind
declare void @_ZdaPv(ptr noundef) local_unnamed_addr #6

declare noundef ptr @_ZNSt7__cxx1112basic_stringIcSt11char_traitsIcESaIcEE13_M_local_dataEv(ptr noundef nonnull align 8 dereferenceable(32)) local_unnamed_addr #4

declare void @_ZNSt7__cxx1112basic_stringIcSt11char_traitsIcESaIcEE12_Alloc_hiderC1EPcRKS3_(ptr noundef nonnull align 8 dereferenceable(8), ptr noundef, ptr noundef nonnull align 1 dereferenceable(1)) unnamed_addr #4

; Function Attrs: mustprogress uwtable
define linkonce_odr void @_ZNSt7__cxx1112basic_stringIcSt11char_traitsIcESaIcEE12_M_constructIPKcEEvT_S8_St20forward_iterator_tag(ptr noundef nonnull align 8 dereferenceable(32) %this, ptr noundef %__beg, ptr noundef %__end) local_unnamed_addr #0 comdat align 2 personality ptr @__gxx_personality_v0 {
entry:
  %__dnew = alloca i64, align 8
  %__guard = alloca %struct._Guard, align 8
  %sub.ptr.lhs.cast.i.i = ptrtoint ptr %__end to i64
  %sub.ptr.rhs.cast.i.i = ptrtoint ptr %__beg to i64
  %sub.ptr.sub.i.i = sub i64 %sub.ptr.lhs.cast.i.i, %sub.ptr.rhs.cast.i.i
  store i64 %sub.ptr.sub.i.i, ptr %__dnew, align 8
  %cmp = icmp ugt i64 %sub.ptr.sub.i.i, 15
  br i1 %cmp, label %if.then, label %if.else

if.then:                                          ; preds = %entry
  %call2 = call noundef ptr @_ZNSt7__cxx1112basic_stringIcSt11char_traitsIcESaIcEE9_M_createERmm(ptr noundef nonnull align 8 dereferenceable(32) %this, ptr noundef nonnull align 8 dereferenceable(8) %__dnew, i64 noundef 0)
  call void @_ZNSt7__cxx1112basic_stringIcSt11char_traitsIcESaIcEE7_M_dataEPc(ptr noundef nonnull align 8 dereferenceable(32) %this, ptr noundef %call2)
  %0 = load i64, ptr %__dnew, align 8
  call void @_ZNSt7__cxx1112basic_stringIcSt11char_traitsIcESaIcEE11_M_capacityEm(ptr noundef nonnull align 8 dereferenceable(32) %this, i64 noundef %0)
  br label %if.end

if.else:                                          ; preds = %entry
  %call.i = invoke noundef ptr @_ZNSt7__cxx1112basic_stringIcSt11char_traitsIcESaIcEE13_M_local_dataEv(ptr noundef nonnull align 8 dereferenceable(32) %this)
          to label %if.end unwind label %terminate.lpad.i

terminate.lpad.i:                                 ; preds = %if.else
  %1 = landingpad { ptr, i32 }
          catch ptr null
  %2 = extractvalue { ptr, i32 } %1, 0
  tail call void @__clang_call_terminate(ptr %2) #12
  unreachable

if.end:                                           ; preds = %if.else, %if.then
  store ptr %this, ptr %__guard, align 8
  %call4 = invoke noundef ptr @_ZNKSt7__cxx1112basic_stringIcSt11char_traitsIcESaIcEE7_M_dataEv(ptr noundef nonnull align 8 dereferenceable(32) %this)
          to label %invoke.cont unwind label %lpad

invoke.cont:                                      ; preds = %if.end
  call void @_ZNSt7__cxx1112basic_stringIcSt11char_traitsIcESaIcEE13_S_copy_charsEPcPKcS7_(ptr noundef %call4, ptr noundef %__beg, ptr noundef %__end) #10
  store ptr null, ptr %__guard, align 8
  %3 = load i64, ptr %__dnew, align 8
  invoke void @_ZNSt7__cxx1112basic_stringIcSt11char_traitsIcESaIcEE13_M_set_lengthEm(ptr noundef nonnull align 8 dereferenceable(32) %this, i64 noundef %3)
          to label %_ZZNSt7__cxx1112basic_stringIcSt11char_traitsIcESaIcEE12_M_constructIPKcEEvT_S8_St20forward_iterator_tagEN6_GuardD2Ev.exit unwind label %lpad

_ZZNSt7__cxx1112basic_stringIcSt11char_traitsIcESaIcEE12_M_constructIPKcEEvT_S8_St20forward_iterator_tagEN6_GuardD2Ev.exit: ; preds = %invoke.cont
  ret void

lpad:                                             ; preds = %invoke.cont, %if.end
  %4 = landingpad { ptr, i32 }
          cleanup
  call void @_ZZNSt7__cxx1112basic_stringIcSt11char_traitsIcESaIcEE12_M_constructIPKcEEvT_S8_St20forward_iterator_tagEN6_GuardD2Ev(ptr noundef nonnull align 8 dereferenceable(8) %__guard) #10
  resume { ptr, i32 } %4
}

; Function Attrs: mustprogress nofree nounwind willreturn memory(argmem: read)
declare i64 @strlen(ptr nocapture noundef) local_unnamed_addr #7

declare void @_ZNSt7__cxx1112basic_stringIcSt11char_traitsIcESaIcEE7_M_dataEPc(ptr noundef nonnull align 8 dereferenceable(32), ptr noundef) local_unnamed_addr #4

declare noundef ptr @_ZNSt7__cxx1112basic_stringIcSt11char_traitsIcESaIcEE9_M_createERmm(ptr noundef nonnull align 8 dereferenceable(32), ptr noundef nonnull align 8 dereferenceable(8), i64 noundef) local_unnamed_addr #4

declare void @_ZNSt7__cxx1112basic_stringIcSt11char_traitsIcESaIcEE11_M_capacityEm(ptr noundef nonnull align 8 dereferenceable(32), i64 noundef) local_unnamed_addr #4

; Function Attrs: nounwind
declare void @_ZNSt7__cxx1112basic_stringIcSt11char_traitsIcESaIcEE13_S_copy_charsEPcPKcS7_(ptr noundef, ptr noundef, ptr noundef) local_unnamed_addr #2

declare noundef ptr @_ZNKSt7__cxx1112basic_stringIcSt11char_traitsIcESaIcEE7_M_dataEv(ptr noundef nonnull align 8 dereferenceable(32)) local_unnamed_addr #4

declare void @_ZNSt7__cxx1112basic_stringIcSt11char_traitsIcESaIcEE13_M_set_lengthEm(ptr noundef nonnull align 8 dereferenceable(32), i64 noundef) local_unnamed_addr #4

; Function Attrs: mustprogress nounwind uwtable
define linkonce_odr hidden void @_ZZNSt7__cxx1112basic_stringIcSt11char_traitsIcESaIcEE12_M_constructIPKcEEvT_S8_St20forward_iterator_tagEN6_GuardD2Ev(ptr noundef nonnull align 8 dereferenceable(8) %this) unnamed_addr #8 comdat align 2 personality ptr @__gxx_personality_v0 {
entry:
  %0 = load ptr, ptr %this, align 8
  %tobool.not = icmp eq ptr %0, null
  br i1 %tobool.not, label %if.end, label %if.then

if.then:                                          ; preds = %entry
  invoke void @_ZNSt7__cxx1112basic_stringIcSt11char_traitsIcESaIcEE10_M_disposeEv(ptr noundef nonnull align 8 dereferenceable(32) %0)
          to label %if.end unwind label %terminate.lpad

if.end:                                           ; preds = %if.then, %entry
  ret void

terminate.lpad:                                   ; preds = %if.then
  %1 = landingpad { ptr, i32 }
          catch ptr null
  %2 = extractvalue { ptr, i32 } %1, 0
  tail call void @__clang_call_terminate(ptr %2) #12
  unreachable
}

; Function Attrs: noreturn nounwind uwtable
define linkonce_odr hidden void @__clang_call_terminate(ptr noundef %0) local_unnamed_addr #9 comdat {
  %2 = tail call ptr @__cxa_begin_catch(ptr %0) #10
  tail call void @_ZSt9terminatev() #12
  unreachable
}

declare ptr @__cxa_begin_catch(ptr) local_unnamed_addr

declare void @_ZSt9terminatev() local_unnamed_addr

declare void @_ZNSt7__cxx1112basic_stringIcSt11char_traitsIcESaIcEE10_M_disposeEv(ptr noundef nonnull align 8 dereferenceable(32)) local_unnamed_addr #4

; Function Attrs: nounwind
declare void @_ZNSaIcED2Ev(ptr noundef nonnull align 1 dereferenceable(1)) unnamed_addr #2

declare noundef nonnull align 8 dereferenceable(32) ptr @_ZNSt7__cxx1112basic_stringIcSt11char_traitsIcESaIcEE6appendEPKc(ptr noundef nonnull align 8 dereferenceable(32), ptr noundef) local_unnamed_addr #4

; Function Attrs: nounwind
declare void @_ZNSt7__cxx1112basic_stringIcSt11char_traitsIcESaIcEEC1EOS4_(ptr noundef nonnull align 8 dereferenceable(32), ptr noundef nonnull align 8 dereferenceable(32)) unnamed_addr #2

declare noundef nonnull align 8 dereferenceable(32) ptr @_ZNSt7__cxx1112basic_stringIcSt11char_traitsIcESaIcEE6appendERKS4_(ptr noundef nonnull align 8 dereferenceable(32), ptr noundef nonnull align 8 dereferenceable(32)) local_unnamed_addr #4

; Function Attrs: nounwind
declare void @_ZNKSt7__cxx1112basic_stringIcSt11char_traitsIcESaIcEE13get_allocatorEv(ptr sret(%"class.std::allocator") align 1, ptr noundef nonnull align 8 dereferenceable(32)) local_unnamed_addr #2

; Function Attrs: nounwind
declare void @_ZNSt7__cxx1112basic_stringIcSt11char_traitsIcESaIcEEC1ERKS3_(ptr noundef nonnull align 8 dereferenceable(32), ptr noundef nonnull align 1 dereferenceable(1)) unnamed_addr #2

declare void @_ZNSt7__cxx1112basic_stringIcSt11char_traitsIcESaIcEE7reserveEm(ptr noundef nonnull align 8 dereferenceable(32), i64 noundef) local_unnamed_addr #4

declare noundef nonnull align 8 dereferenceable(32) ptr @_ZNSt7__cxx1112basic_stringIcSt11char_traitsIcESaIcEE6appendEPKcm(ptr noundef nonnull align 8 dereferenceable(32), ptr noundef, i64 noundef) local_unnamed_addr #4

; Function Attrs: nounwind
declare void @_ZNSaIcEC1ERKS_(ptr noundef nonnull align 1 dereferenceable(1), ptr noundef nonnull align 1 dereferenceable(1)) unnamed_addr #2

attributes #0 = { mustprogress uwtable "frame-pointer"="all" "min-legal-vector-width"="0" "no-trapping-math"="true" "stack-protector-buffer-size"="8" "target-cpu"="x86-64" "target-features"="+cmov,+cx8,+fxsr,+mmx,+sse,+sse2,+x87" "tune-cpu"="generic" }
attributes #1 = { nofree nounwind memory(read) "frame-pointer"="all" "no-trapping-math"="true" "stack-protector-buffer-size"="8" "target-cpu"="x86-64" "target-features"="+cmov,+cx8,+fxsr,+mmx,+sse,+sse2,+x87" "tune-cpu"="generic" }
attributes #2 = { nounwind "frame-pointer"="all" "no-trapping-math"="true" "stack-protector-buffer-size"="8" "target-cpu"="x86-64" "target-features"="+cmov,+cx8,+fxsr,+mmx,+sse,+sse2,+x87" "tune-cpu"="generic" }
attributes #3 = { nobuiltin allocsize(0) "frame-pointer"="all" "no-trapping-math"="true" "stack-protector-buffer-size"="8" "target-cpu"="x86-64" "target-features"="+cmov,+cx8,+fxsr,+mmx,+sse,+sse2,+x87" "tune-cpu"="generic" }
attributes #4 = { "frame-pointer"="all" "no-trapping-math"="true" "stack-protector-buffer-size"="8" "target-cpu"="x86-64" "target-features"="+cmov,+cx8,+fxsr,+mmx,+sse,+sse2,+x87" "tune-cpu"="generic" }
attributes #5 = { noreturn nounwind "frame-pointer"="all" "no-trapping-math"="true" "stack-protector-buffer-size"="8" "target-cpu"="x86-64" "target-features"="+cmov,+cx8,+fxsr,+mmx,+sse,+sse2,+x87" "tune-cpu"="generic" }
attributes #6 = { nobuiltin nounwind "frame-pointer"="all" "no-trapping-math"="true" "stack-protector-buffer-size"="8" "target-cpu"="x86-64" "target-features"="+cmov,+cx8,+fxsr,+mmx,+sse,+sse2,+x87" "tune-cpu"="generic" }
attributes #7 = { mustprogress nofree nounwind willreturn memory(argmem: read) "frame-pointer"="all" "no-trapping-math"="true" "stack-protector-buffer-size"="8" "target-cpu"="x86-64" "target-features"="+cmov,+cx8,+fxsr,+mmx,+sse,+sse2,+x87" "tune-cpu"="generic" }
attributes #8 = { mustprogress nounwind uwtable "frame-pointer"="all" "min-legal-vector-width"="0" "no-trapping-math"="true" "stack-protector-buffer-size"="8" "target-cpu"="x86-64" "target-features"="+cmov,+cx8,+fxsr,+mmx,+sse,+sse2,+x87" "tune-cpu"="generic" }
attributes #9 = { noreturn nounwind uwtable "frame-pointer"="all" "no-trapping-math"="true" "stack-protector-buffer-size"="8" "target-cpu"="x86-64" "target-features"="+cmov,+cx8,+fxsr,+mmx,+sse,+sse2,+x87" "tune-cpu"="generic" }
attributes #10 = { nounwind }
attributes #11 = { builtin allocsize(0) }
attributes #12 = { noreturn nounwind }
attributes #13 = { builtin nounwind }

!llvm.module.flags = !{!0, !1, !2, !3}

!0 = !{i32 1, !"wchar_size", i32 4}
!1 = !{i32 8, !"PIC Level", i32 2}
!2 = !{i32 7, !"uwtable", i32 2}
!3 = !{i32 7, !"frame-pointer", i32 2}
