; ModuleID = 'bench/folly/original/Compression.cpp.ll'
source_filename = "bench/folly/original/Compression.cpp.ll"
target datalayout = "e-m:e-p270:32:32-p271:32:32-p272:64:64-i64:64-i128:128-f80:128-n8:16:32:64-S128"
target triple = "x86_64-unknown-linux-gnu"

%"struct.folly::c_array" = type { [20 x i64] }
%"struct.folly::c_array.13" = type { [100 x i16] }
%"struct.folly::io::(anonymous namespace)::Factory" = type { ptr, ptr }
%"class.std::vector" = type { %"struct.std::_Vector_base" }
%"struct.std::_Vector_base" = type { %"struct.std::_Vector_base<std::__cxx11::basic_string<char>, std::allocator<std::__cxx11::basic_string<char>>>::_Vector_impl" }
%"struct.std::_Vector_base<std::__cxx11::basic_string<char>, std::allocator<std::__cxx11::basic_string<char>>>::_Vector_impl" = type { %"struct.std::_Vector_base<std::__cxx11::basic_string<char>, std::allocator<std::__cxx11::basic_string<char>>>::_Vector_impl_data" }
%"struct.std::_Vector_base<std::__cxx11::basic_string<char>, std::allocator<std::__cxx11::basic_string<char>>>::_Vector_impl_data" = type { ptr, ptr, ptr }
%"class.std::__cxx11::basic_string" = type { %"struct.std::__cxx11::basic_string<char>::_Alloc_hider", i64, %union.anon.3 }
%"struct.std::__cxx11::basic_string<char>::_Alloc_hider" = type { ptr }
%union.anon.3 = type { i64, [8 x i8] }
%"class.folly::IOBuf" = type { i64, ptr, i64, ptr, ptr, ptr, i64 }
%"class.std::unique_ptr" = type { %"struct.std::__uniq_ptr_data" }
%"struct.std::__uniq_ptr_data" = type { %"class.std::__uniq_ptr_impl" }
%"class.std::__uniq_ptr_impl" = type { %"class.std::tuple" }
%"class.std::tuple" = type { %"struct.std::_Tuple_impl" }
%"struct.std::_Tuple_impl" = type { %"struct.std::_Head_base.5" }
%"struct.std::_Head_base.5" = type { ptr }
%"class.folly::Optional" = type { %"struct.folly::Optional<unsigned long>::StorageTriviallyDestructible" }
%"struct.folly::Optional<unsigned long>::StorageTriviallyDestructible" = type <{ %union.anon, i8, [7 x i8] }>
%union.anon = type { i64 }
%"class.folly::IOBuf::Iterator" = type { ptr, ptr, %"class.folly::Range.9" }
%"class.folly::Range.9" = type { ptr, ptr }
%"class.folly::Range.14" = type { ptr, ptr }
%"class.folly::io::StreamCodec" = type <{ %"class.folly::io::Codec.base", i32, %"class.folly::Range.9", %"class.folly::Optional", i8, [7 x i8] }>
%"class.folly::io::Codec.base" = type <{ ptr, i32 }>
%"class.folly::io::Codec" = type <{ ptr, i32, [4 x i8] }>
%"class.folly::OptionalEmptyException" = type { %"class.std::runtime_error" }
%"class.std::runtime_error" = type { %"class.std::exception", %"struct.std::__cow_string" }
%"class.std::exception" = type { ptr }
%"struct.std::__cow_string" = type { %union.anon.8 }
%union.anon.8 = type { ptr }
%"class.google::base::CheckOpMessageBuilder" = type { ptr }
%"class.std::unique_ptr.15" = type { %"struct.std::__uniq_ptr_data.16" }
%"struct.std::__uniq_ptr_data.16" = type { %"class.std::__uniq_ptr_impl.17" }
%"class.std::__uniq_ptr_impl.17" = type { %"class.std::tuple.18" }
%"class.std::tuple.18" = type { %"struct.std::_Tuple_impl.19" }
%"struct.std::_Tuple_impl.19" = type { %"struct.std::_Head_base.22" }
%"struct.std::_Head_base.22" = type { ptr }
%"class.folly::io::(anonymous namespace)::LZ4Codec" = type { %"class.folly::io::Codec.base", i8, [3 x i8] }
%"class.std::unique_ptr.23" = type { %"struct.std::__uniq_ptr_data.24" }
%"struct.std::__uniq_ptr_data.24" = type { %"class.std::__uniq_ptr_impl.25" }
%"class.std::__uniq_ptr_impl.25" = type { %"class.std::tuple.26" }
%"class.std::tuple.26" = type { %"struct.std::_Tuple_impl.27" }
%"struct.std::_Tuple_impl.27" = type { %"struct.std::_Head_base.30" }
%"struct.std::_Head_base.30" = type { ptr }
%"class.std::unique_ptr.63" = type { %"struct.std::__uniq_ptr_data.64" }
%"struct.std::__uniq_ptr_data.64" = type { %"class.std::__uniq_ptr_impl.65" }
%"class.std::__uniq_ptr_impl.65" = type { %"class.std::tuple.66" }
%"class.std::tuple.66" = type { %"struct.std::_Tuple_impl.67" }
%"struct.std::_Tuple_impl.67" = type { %"struct.std::_Head_base.70" }
%"struct.std::_Head_base.70" = type { ptr }
%"class.folly::io::zstd::Options" = type <{ %"class.std::unique_ptr.83", i64, i32, [4 x i8] }>
%"class.std::unique_ptr.83" = type { %"struct.std::__uniq_ptr_data.84" }
%"struct.std::__uniq_ptr_data.84" = type { %"class.std::__uniq_ptr_impl.85" }
%"class.std::__uniq_ptr_impl.85" = type { %"class.std::tuple.86" }
%"class.std::tuple.86" = type { %"struct.std::_Tuple_impl.87" }
%"struct.std::_Tuple_impl.87" = type { %"struct.std::_Head_base.90" }
%"struct.std::_Head_base.90" = type { ptr }
%"class.folly::io::(anonymous namespace)::LZ4FrameCodec" = type <{ %"class.folly::io::Codec.base", i32, ptr, i8, [7 x i8] }>
%"struct.google::CheckOpString" = type { ptr }
%"class.google::LogMessageFatal" = type { %"class.google::LogMessage" }
%"class.google::LogMessage" = type { ptr, ptr }
%"class.folly::io::Cursor" = type { %"class.folly::io::detail::CursorBase" }
%"class.folly::io::detail::CursorBase" = type { ptr, ptr, ptr, ptr, ptr, i64, i64 }
%"class.std::out_of_range" = type { %"class.std::logic_error" }
%"class.std::logic_error" = type { %"class.std::exception", %"struct.std::__cow_string" }
%"class.folly::io::(anonymous namespace)::IOBufSnappySource" = type { %"class.snappy::Source", i64, %"class.folly::io::Cursor" }
%"class.snappy::Source" = type { ptr }
%"class.snappy::UncheckedByteArraySink" = type { %"class.snappy::Sink", ptr }
%"class.snappy::Sink" = type { ptr }
%"class.folly::io::(anonymous namespace)::LZMA2StreamCodec" = type <{ %"class.folly::io::StreamCodec.base", [7 x i8], %"class.folly::Optional.71", %"class.folly::Optional.71", %"struct.std::array", [6 x i8], %"class.folly::Range.9", i64, i32, i8, i8, [2 x i8] }>
%"class.folly::io::StreamCodec.base" = type <{ %"class.folly::io::Codec.base", i32, %"class.folly::Range.9", %"class.folly::Optional", i8 }>
%"class.folly::Optional.71" = type { %"struct.folly::Optional<lzma_stream>::StorageTriviallyDestructible" }
%"struct.folly::Optional<lzma_stream>::StorageTriviallyDestructible" = type <{ %union.anon.72, i8, [7 x i8] }>
%union.anon.72 = type { %struct.lzma_stream }
%struct.lzma_stream = type { ptr, i64, i64, ptr, i64, i64, ptr, ptr, ptr, ptr, ptr, ptr, i64, i64, i64, i64, i32, i32 }
%"struct.std::array" = type { [10 x i8] }
%"class.folly::detail::ScopeGuardImpl" = type { %"class.folly::detail::ScopeGuardImplBase", %class.anon }
%"class.folly::detail::ScopeGuardImplBase" = type { i8 }
%class.anon = type { ptr, ptr, ptr }
%"class.folly::detail::ScopeGuardImpl.75" = type { %"class.folly::detail::ScopeGuardImplBase", %class.anon.76 }
%class.anon.76 = type { ptr, ptr, ptr }
%"class.folly::BadExpectedAccess.77" = type { %"class.std::exception" }
%struct.LZ4F_preferences_t = type { %struct.LZ4F_frameInfo_t, i32, i32, i32, [3 x i32] }
%struct.LZ4F_frameInfo_t = type { i32, i32, i32, i32, i64, i32, i32 }
%struct.LZ4F_decompressOptions_t = type { i32, [3 x i32] }
%"class.folly::IOBufQueue" = type { %"struct.folly::IOBufQueue::Options", i64, %"class.std::unique_ptr", ptr, ptr, %"struct.folly::IOBufQueue::WritableRangeCacheData", ptr }
%"struct.folly::IOBufQueue::Options" = type { i8 }
%"struct.folly::IOBufQueue::WritableRangeCacheData" = type <{ %"struct.std::pair", i8, [7 x i8] }>
%"struct.std::pair" = type { ptr, ptr }
%"struct.std::array.125" = type { [6 x i32] }
%"class.std::vector.112" = type { %"struct.std::_Vector_base.113" }
%"struct.std::_Vector_base.113" = type { %"struct.std::_Vector_base<std::unique_ptr<folly::io::Codec>, std::allocator<std::unique_ptr<folly::io::Codec>>>::_Vector_impl" }
%"struct.std::_Vector_base<std::unique_ptr<folly::io::Codec>, std::allocator<std::unique_ptr<folly::io::Codec>>>::_Vector_impl" = type { %"struct.std::_Vector_base<std::unique_ptr<folly::io::Codec>, std::allocator<std::unique_ptr<folly::io::Codec>>>::_Vector_impl_data" }
%"struct.std::_Vector_base<std::unique_ptr<folly::io::Codec>, std::allocator<std::unique_ptr<folly::io::Codec>>>::_Vector_impl_data" = type { ptr, ptr, ptr }
%"class.folly::io::(anonymous namespace)::AutomaticCodec" = type { %"class.folly::io::Codec.base", %"class.std::vector.112", %"class.std::unique_ptr.15", i8, i64 }
%"struct.std::__detail::_AllocNode" = type { ptr }
%"class.std::unordered_set" = type { %"class.std::_Hashtable" }
%"class.std::_Hashtable" = type { ptr, i64, %"struct.std::__detail::_Hash_node_base", i64, %"struct.std::__detail::_Prime_rehash_policy", ptr }
%"struct.std::__detail::_Hash_node_base" = type { ptr }
%"struct.std::__detail::_Prime_rehash_policy" = type { float, i64 }
%"struct.std::_Hashtable<std::__cxx11::basic_string<char>, std::__cxx11::basic_string<char>, std::allocator<std::__cxx11::basic_string<char>>, std::__detail::_Identity, std::equal_to<std::__cxx11::basic_string<char>>, std::hash<string>, std::__detail::_Mod_range_hashing, std::__detail::_Default_ranged_hash, std::__detail::_Prime_rehash_policy, std::__detail::_Hashtable_traits<true, true, true>>::_Scoped_node" = type { ptr, ptr }

$_ZN5folly2io5CodecD0Ev = comdat any

$_ZN5folly2io5CodecD2Ev = comdat any

$_ZN5folly2io11StreamCodecD0Ev = comdat any

$_ZN5folly6detail16throw_exception_INS_22OptionalEmptyExceptionEJEEEvDpT0_ = comdat any

$_ZN5folly15throw_exceptionINS_22OptionalEmptyExceptionEEEvOT_ = comdat any

$_ZN5folly22OptionalEmptyExceptionC2EOS0_ = comdat any

$_ZN5folly22OptionalEmptyExceptionD0Ev = comdat any

$__clang_call_terminate = comdat any

$_ZNSt10unique_ptrIN5folly5IOBufESt14default_deleteIS1_EED2Ev = comdat any

$_ZNK5folly5IOBuf8appendToINSt7__cxx1112basic_stringIcSt11char_traitsIcESaIcEEEEEvRT_ = comdat any

$_ZNSt7__cxx1112basic_stringIcSt11char_traitsIcESaIcEE19_M_replace_dispatchIPKhEERS4_N9__gnu_cxx17__normal_iteratorIPKcS4_EESD_T_SE_St12__false_type = comdat any

$_ZN5folly2toINSt7__cxx1112basic_stringIcSt11char_traitsIcESaIcEEEJA17_cNS_2io11StreamCodec5StateEA18_cSA_EEENSt9enable_ifIXaasr12IsSomeStringIT_EE5valueoonesZT0_Li1Entsr3std7is_sameISD_19__type_pack_elementIXmisPvDpT0_ELi1EEJvSG_EEEE5valueESD_E4typeEDpRKSF_ = comdat any

$_ZN5folly13to_ascii_sizeILm10EEEmm = comdat any

$_ZN5folly6detail18ToAppendStrImplAllISt16integer_sequenceImJLm0ELm1ELm2ELm3ELm4EEEE4callIJA17_cNS_2io11StreamCodec5StateEA18_cS9_PNSt7__cxx1112basic_stringIcSt11char_traitsIcESaIcEEEEEEvDpRKT_ = comdat any

$_ZN5folly13to_ascii_withILm10ENS_17to_ascii_alphabetILb0EEELm20EEEmRAT1__cm = comdat any

$_ZN6google17MakeCheckOpStringImmEEPNSt7__cxx1112basic_stringIcSt11char_traitsIcESaIcEEERKT_RKT0_PKc = comdat any

$_ZN5folly2toINSt7__cxx1112basic_stringIcSt11char_traitsIcESaIcEEEJA18_cmA9_cEEENSt9enable_ifIXaasr12IsSomeStringIT_EE5valueoonesZT0_Li1Entsr3std7is_sameISA_19__type_pack_elementIXmisPvDpT0_ELi1EEJvSD_EEEE5valueESA_E4typeEDpRKSC_ = comdat any

$_ZN5folly6detail18ToAppendStrImplAllISt16integer_sequenceImJLm0ELm1ELm2ELm3EEEE4callIJA18_cmA9_cPNSt7__cxx1112basic_stringIcSt11char_traitsIcESaIcEEEEEEvDpRKT_ = comdat any

$_ZN5folly2toINSt7__cxx1112basic_stringIcSt11char_traitsIcESaIcEEEJA35_ciEEENSt9enable_ifIXaasr12IsSomeStringIT_EE5valueoonesZT0_Li1Entsr3std7is_sameIS9_19__type_pack_elementIXmisPvDpT0_ELi1EEJvSC_EEEE5valueES9_E4typeEDpRKSB_ = comdat any

$_ZN5folly6detail18ToAppendStrImplAllISt16integer_sequenceImJLm0ELm1ELm2EEEE4callIJA35_ciPNSt7__cxx1112basic_stringIcSt11char_traitsIcESaIcEEEEEEvDpRKT_ = comdat any

$_ZN5folly2toINSt7__cxx1112basic_stringIcSt11char_traitsIcESaIcEEEJA48_cEEENSt9enable_ifIXaasr12IsSomeStringIT_EE5valueoonesZT0_Li1Entsr3std7is_sameIS9_19__type_pack_elementIXmisPvDpT0_ELi1EEJvSC_EEEE5valueES9_E4typeEDpRKSB_ = comdat any

$_ZN5folly2toINSt7__cxx1112basic_stringIcSt11char_traitsIcESaIcEEEJA26_ciEEENSt9enable_ifIXaasr12IsSomeStringIT_EE5valueoonesZT0_Li1Entsr3std7is_sameIS9_19__type_pack_elementIXmisPvDpT0_ELi1EEJvSC_EEEE5valueES9_E4typeEDpRKSB_ = comdat any

$_ZN5folly6detail18ToAppendStrImplAllISt16integer_sequenceImJLm0ELm1ELm2EEEE4callIJA26_ciPNSt7__cxx1112basic_stringIcSt11char_traitsIcESaIcEEEEEEvDpRKT_ = comdat any

$_ZN6google17MakeCheckOpStringIiiEEPNSt7__cxx1112basic_stringIcSt11char_traitsIcESaIcEEERKT_RKT0_PKc = comdat any

$_ZN6google17MakeCheckOpStringIimEEPNSt7__cxx1112basic_stringIcSt11char_traitsIcESaIcEEERKT_RKT0_PKc = comdat any

$_ZN5folly2toINSt7__cxx1112basic_stringIcSt11char_traitsIcESaIcEEEJA42_ciEEENSt9enable_ifIXaasr12IsSomeStringIT_EE5valueoonesZT0_Li1Entsr3std7is_sameIS9_19__type_pack_elementIXmisPvDpT0_ELi1EEJvSC_EEEE5valueES9_E4typeEDpRKSB_ = comdat any

$_ZN5folly2io6detail10CursorBaseINS0_6CursorEKNS_5IOBufEE8readSlowIaEET_v = comdat any

$_ZN5folly2io6detail10CursorBaseINS0_6CursorEKNS_5IOBufEE14pullAtMostSlowEPvm = comdat any

$_ZN5folly6detail16throw_exception_ISt12out_of_rangeJPKcEEEvDpT0_ = comdat any

$_ZN5folly15throw_exceptionISt12out_of_rangeEEvOT_ = comdat any

$_ZNSt12out_of_rangeC2EOS_ = comdat any

$_ZN5folly6detail18ToAppendStrImplAllISt16integer_sequenceImJLm0ELm1ELm2EEEE4callIJA42_ciPNSt7__cxx1112basic_stringIcSt11char_traitsIcESaIcEEEEEEvDpRKT_ = comdat any

$_ZN5folly2toINSt7__cxx1112basic_stringIcSt11char_traitsIcESaIcEEEJA29_ciEEENSt9enable_ifIXaasr12IsSomeStringIT_EE5valueoonesZT0_Li1Entsr3std7is_sameIS9_19__type_pack_elementIXmisPvDpT0_ELi1EEJvSC_EEEE5valueES9_E4typeEDpRKSB_ = comdat any

$_ZN5folly6detail18ToAppendStrImplAllISt16integer_sequenceImJLm0ELm1ELm2EEEE4callIJA29_ciPNSt7__cxx1112basic_stringIcSt11char_traitsIcESaIcEEEEEEvDpRKT_ = comdat any

$_ZN5folly2io6detail10CursorBaseINS0_6CursorEKNS_5IOBufEE8skipSlowEm = comdat any

$_ZN5folly2io6detail10CursorBaseINS0_6CursorEKNS_5IOBufEE14skipAtMostSlowEm = comdat any

$_ZN5folly2toINSt7__cxx1112basic_stringIcSt11char_traitsIcESaIcEEEJA28_ciEEENSt9enable_ifIXaasr12IsSomeStringIT_EE5valueoonesZT0_Li1Entsr3std7is_sameIS9_19__type_pack_elementIXmisPvDpT0_ELi1EEJvSC_EEEE5valueES9_E4typeEDpRKSB_ = comdat any

$_ZN5folly6detail18ToAppendStrImplAllISt16integer_sequenceImJLm0ELm1ELm2EEEE4callIJA28_ciPNSt7__cxx1112basic_stringIcSt11char_traitsIcESaIcEEEEEEvDpRKT_ = comdat any

$_ZSt16__do_uninit_copyIPKNSt7__cxx1112basic_stringIcSt11char_traitsIcESaIcEEEPS5_ET0_T_SA_S9_ = comdat any

$_ZN5folly2toINSt7__cxx1112basic_stringIcSt11char_traitsIcESaIcEEEJA44_c8lzma_retEEENSt9enable_ifIXaasr12IsSomeStringIT_EE5valueoonesZT0_Li1Entsr3std7is_sameISA_19__type_pack_elementIXmisPvDpT0_ELi1EEJvSD_EEEE5valueESA_E4typeEDpRKSC_ = comdat any

$_ZN5folly11toAppendFitIJA44_c8lzma_retPNSt7__cxx1112basic_stringIcSt11char_traitsIcESaIcEEEEEENSt9enable_ifIXsr12IsSomeStringINSt14remove_pointerI19__type_pack_elementIXmisPDpT_ELi1EEJSE_EEE4typeEEE5valueEvE4typeEDpRKSD_ = comdat any

$_ZN5folly2toINSt7__cxx1112basic_stringIcSt11char_traitsIcESaIcEEEJA26_c8lzma_retEEENSt9enable_ifIXaasr12IsSomeStringIT_EE5valueoonesZT0_Li1Entsr3std7is_sameISA_19__type_pack_elementIXmisPvDpT0_ELi1EEJvSD_EEEE5valueESA_E4typeEDpRKSC_ = comdat any

$_ZN5folly11toAppendFitIJA26_c8lzma_retPNSt7__cxx1112basic_stringIcSt11char_traitsIcESaIcEEEEEENSt9enable_ifIXsr12IsSomeStringINSt14remove_pointerI19__type_pack_elementIXmisPDpT_ELi1EEJSE_EEE4typeEEE5valueEvE4typeEDpRKSD_ = comdat any

$_ZN5folly15tryDecodeVarintIKhEENS_8ExpectedImNS_17DecodeVarintErrorEEERNS_5RangeIPT_EE = comdat any

$_ZNK5folly17BadExpectedAccessIvE4whatEv = comdat any

$_ZN5folly17BadExpectedAccessIvED0Ev = comdat any

$_ZN5folly6detail16throw_exception_INS_17BadExpectedAccessIvEEJEEEvDpT0_ = comdat any

$_ZN5folly15throw_exceptionINS_17BadExpectedAccessIvEEEEvOT_ = comdat any

$_ZN5folly2io4zstd7OptionsD2Ev = comdat any

$_ZN5folly2toINSt7__cxx1112basic_stringIcSt11char_traitsIcESaIcEEEJA22_ciEEENSt9enable_ifIXaasr12IsSomeStringIT_EE5valueoonesZT0_Li1Entsr3std7is_sameIS9_19__type_pack_elementIXmisPvDpT0_ELi1EEJvSC_EEEE5valueES9_E4typeEDpRKSB_ = comdat any

$_ZN5folly6detail18ToAppendStrImplAllISt16integer_sequenceImJLm0ELm1ELm2EEEE4callIJA22_ciPNSt7__cxx1112basic_stringIcSt11char_traitsIcESaIcEEEEEEvDpRKT_ = comdat any

$_ZN5folly2toINSt7__cxx1112basic_stringIcSt11char_traitsIcESaIcEEEJA17_cPKcEEENSt9enable_ifIXaasr12IsSomeStringIT_EE5valueoonesZT0_Li1Entsr3std7is_sameISB_19__type_pack_elementIXmisPvDpT0_ELi1EEJvSE_EEEE5valueESB_E4typeEDpRKSD_ = comdat any

$_ZN5folly11toAppendFitIJA17_cPKcPNSt7__cxx1112basic_stringIcSt11char_traitsIcESaIcEEEEEENSt9enable_ifIXsr12IsSomeStringINSt14remove_pointerI19__type_pack_elementIXmisPDpT_ELi1EEJSF_EEE4typeEEE5valueEvE4typeEDpRKSE_ = comdat any

$_ZN5folly2toINSt7__cxx1112basic_stringIcSt11char_traitsIcESaIcEEEJA18_cNS_2io9CodecTypeEA15_cEEENSt9enable_ifIXaasr12IsSomeStringIT_EE5valueoonesZT0_Li1Entsr3std7is_sameISC_19__type_pack_elementIXmisPvDpT0_ELi1EEJvSF_EEEE5valueESC_E4typeEDpRKSE_ = comdat any

$_ZN5folly6detail18ToAppendStrImplAllISt16integer_sequenceImJLm0ELm1ELm2ELm3EEEE4callIJA18_cNS_2io9CodecTypeEA15_cPNSt7__cxx1112basic_stringIcSt11char_traitsIcESaIcEEEEEEvDpRKT_ = comdat any

$_ZNSt6vectorISt10unique_ptrIN5folly2io5CodecESt14default_deleteIS3_EESaIS6_EED2Ev = comdat any

$_ZNSt6vectorINSt7__cxx1112basic_stringIcSt11char_traitsIcESaIcEEESaIS5_EED2Ev = comdat any

$_ZNSt13unordered_setINSt7__cxx1112basic_stringIcSt11char_traitsIcESaIcEEESt4hashIS5_ESt8equal_toIS5_ESaIS5_EED2Ev = comdat any

$_ZNSt10_HashtableINSt7__cxx1112basic_stringIcSt11char_traitsIcESaIcEEES5_SaIS5_ENSt8__detail9_IdentityESt8equal_toIS5_ESt4hashIS5_ENS7_18_Mod_range_hashingENS7_20_Default_ranged_hashENS7_20_Prime_rehash_policyENS7_17_Hashtable_traitsILb1ELb1ELb1EEEE16_M_insert_uniqueIRKS5_SL_NS7_10_AllocNodeISaINS7_10_Hash_nodeIS5_Lb1EEEEEEEESt4pairINS7_14_Node_iteratorIS5_Lb1ELb1EEEbEOT_OT0_RKT1_ = comdat any

$_ZNSt10_HashtableINSt7__cxx1112basic_stringIcSt11char_traitsIcESaIcEEES5_SaIS5_ENSt8__detail9_IdentityESt8equal_toIS5_ESt4hashIS5_ENS7_18_Mod_range_hashingENS7_20_Default_ranged_hashENS7_20_Prime_rehash_policyENS7_17_Hashtable_traitsILb1ELb1ELb1EEEE21_M_insert_unique_nodeEmmPNS7_10_Hash_nodeIS5_Lb1EEEm = comdat any

$_ZNSt10_HashtableINSt7__cxx1112basic_stringIcSt11char_traitsIcESaIcEEES5_SaIS5_ENSt8__detail9_IdentityESt8equal_toIS5_ESt4hashIS5_ENS7_18_Mod_range_hashingENS7_20_Default_ranged_hashENS7_20_Prime_rehash_policyENS7_17_Hashtable_traitsILb1ELb1ELb1EEEE12_Scoped_nodeD2Ev = comdat any

$_ZNSt8__detail16_Hashtable_allocISaINS_10_Hash_nodeINSt7__cxx1112basic_stringIcSt11char_traitsIcESaIcEEELb1EEEEE16_M_allocate_nodeIJRKS7_EEEPS8_DpOT_ = comdat any

$_ZNSt10_HashtableINSt7__cxx1112basic_stringIcSt11char_traitsIcESaIcEEES5_SaIS5_ENSt8__detail9_IdentityESt8equal_toIS5_ESt4hashIS5_ENS7_18_Mod_range_hashingENS7_20_Default_ranged_hashENS7_20_Prime_rehash_policyENS7_17_Hashtable_traitsILb1ELb1ELb1EEEE13_M_rehash_auxEmSt17integral_constantIbLb1EE = comdat any

$_ZSt16__do_uninit_copyINSt8__detail14_Node_iteratorINSt7__cxx1112basic_stringIcSt11char_traitsIcESaIcEEELb1ELb1EEEPS7_ET0_T_SB_SA_ = comdat any

$_ZTSN5folly22OptionalEmptyExceptionE = comdat any

$_ZTIN5folly22OptionalEmptyExceptionE = comdat any

$_ZTVN5folly22OptionalEmptyExceptionE = comdat any

$_ZTSN5folly17BadExpectedAccessIvEE = comdat any

$_ZTIN5folly17BadExpectedAccessIvEE = comdat any

$_ZTVN5folly17BadExpectedAccessIvEE = comdat any

@_ZTVN5folly2io5CodecE = unnamed_addr constant { [14 x ptr] } { [14 x ptr] [ptr null, ptr @_ZTIN5folly2io5CodecE, ptr @_ZN5folly2io5CodecD2Ev, ptr @_ZN5folly2io5CodecD0Ev, ptr @_ZNK5folly2io5Codec13validPrefixesB5cxx11Ev, ptr @_ZNK5folly2io5Codec13canUncompressEPKNS_5IOBufENS_8OptionalImEE, ptr @_ZNK5folly2io5Codec23doMaxUncompressedLengthEv, ptr @_ZNK5folly2io5Codec25doNeedsUncompressedLengthEv, ptr @__cxa_pure_virtual, ptr @__cxa_pure_virtual, ptr @_ZN5folly2io5Codec16doCompressStringB5cxx11ENS_5RangeIPKcEE, ptr @_ZN5folly2io5Codec18doUncompressStringB5cxx11ENS_5RangeIPKcEENS_8OptionalImEE, ptr @__cxa_pure_virtual, ptr @_ZNK5folly2io5Codec23doGetUncompressedLengthEPKNS_5IOBufENS_8OptionalImEE] }, align 8
@_ZTVN10__cxxabiv117__class_type_infoE = external global [0 x ptr]
@_ZTSN5folly2io5CodecE = constant [18 x i8] c"N5folly2io5CodecE\00", align 1
@_ZTIN5folly2io5CodecE = constant { ptr, ptr } { ptr getelementptr inbounds (ptr, ptr @_ZTVN10__cxxabiv117__class_type_infoE, i64 2), ptr @_ZTSN5folly2io5CodecE }, align 8
@_ZTVN5folly2io11StreamCodecE = unnamed_addr constant { [18 x ptr] } { [18 x ptr] [ptr null, ptr @_ZTIN5folly2io11StreamCodecE, ptr @_ZN5folly2io5CodecD2Ev, ptr @_ZN5folly2io11StreamCodecD0Ev, ptr @_ZNK5folly2io5Codec13validPrefixesB5cxx11Ev, ptr @_ZNK5folly2io5Codec13canUncompressEPKNS_5IOBufENS_8OptionalImEE, ptr @_ZNK5folly2io5Codec23doMaxUncompressedLengthEv, ptr @_ZNK5folly2io5Codec25doNeedsUncompressedLengthEv, ptr @_ZN5folly2io11StreamCodec10doCompressEPKNS_5IOBufE, ptr @_ZN5folly2io11StreamCodec12doUncompressEPKNS_5IOBufENS_8OptionalImEE, ptr @_ZN5folly2io5Codec16doCompressStringB5cxx11ENS_5RangeIPKcEE, ptr @_ZN5folly2io5Codec18doUncompressStringB5cxx11ENS_5RangeIPKcEENS_8OptionalImEE, ptr @__cxa_pure_virtual, ptr @_ZNK5folly2io5Codec23doGetUncompressedLengthEPKNS_5IOBufENS_8OptionalImEE, ptr @_ZNK5folly2io11StreamCodec17doNeedsDataLengthEv, ptr @__cxa_pure_virtual, ptr @__cxa_pure_virtual, ptr @__cxa_pure_virtual] }, align 8
@_ZTVN10__cxxabiv120__si_class_type_infoE = external global [0 x ptr]
@_ZTSN5folly2io11StreamCodecE = constant [25 x i8] c"N5folly2io11StreamCodecE\00", align 1
@_ZTIN5folly2io11StreamCodecE = constant { ptr, ptr, ptr } { ptr getelementptr inbounds (ptr, ptr @_ZTVN10__cxxabiv120__si_class_type_infoE, i64 2), ptr @_ZTSN5folly2io11StreamCodecE, ptr @_ZTIN5folly2io5CodecE }, align 8
@.str = private unnamed_addr constant [32 x i8] c"Codec: data must not be nullptr\00", align 1
@_ZTISt16invalid_argument = external constant ptr
@.str.1 = private unnamed_addr constant [37 x i8] c"Codec: uncompressed length too large\00", align 1
@_ZTISt13runtime_error = external constant ptr
@.str.2 = private unnamed_addr constant [36 x i8] c"Codec: uncompressed length required\00", align 1
@.str.3 = private unnamed_addr constant [35 x i8] c"Codec: invalid uncompressed length\00", align 1
@_ZTSN5folly22OptionalEmptyExceptionE = linkonce_odr constant [33 x i8] c"N5folly22OptionalEmptyExceptionE\00", comdat, align 1
@_ZTIN5folly22OptionalEmptyExceptionE = linkonce_odr constant { ptr, ptr, ptr } { ptr getelementptr inbounds (ptr, ptr @_ZTVN10__cxxabiv120__si_class_type_infoE, i64 2), ptr @_ZTSN5folly22OptionalEmptyExceptionE, ptr @_ZTISt13runtime_error }, comdat, align 8
@_ZTVN5folly22OptionalEmptyExceptionE = linkonce_odr unnamed_addr constant { [5 x ptr] } { [5 x ptr] [ptr null, ptr @_ZTIN5folly22OptionalEmptyExceptionE, ptr @_ZNSt13runtime_errorD2Ev, ptr @_ZN5folly22OptionalEmptyExceptionD0Ev, ptr @_ZNKSt13runtime_error4whatEv] }, comdat, align 8
@.str.4 = private unnamed_addr constant [35 x i8] c"Empty Optional cannot be unwrapped\00", align 1
@.str.7 = private unnamed_addr constant [21 x i8] c"basic_string::append\00", align 1
@.str.8 = private unnamed_addr constant [28 x i8] c"Invalid uncompressed length\00", align 1
@.str.9 = private unnamed_addr constant [17 x i8] c"Codec: state is \00", align 1
@.str.10 = private unnamed_addr constant [18 x i8] c"; expected state \00", align 1
@_ZTISt11logic_error = external constant ptr
@_ZN5folly6detail15to_ascii_powersILm10EmE4dataE = external local_unnamed_addr global %"struct.folly::c_array", align 8
@_ZN5folly6detail14to_ascii_tableILm10ENS_17to_ascii_alphabetILb0EEEE4dataE = external local_unnamed_addr global %"struct.folly::c_array.13", align 2
@.str.11 = private unnamed_addr constant [32 x i8] c"Codec: No forward progress made\00", align 1
@.str.12 = private unnamed_addr constant [123 x i8] c"generated/home/dtcxzyw/WorkSpace/Projects/compilers/llvm-opt-benchmark/bench/folly/folly/folly/compression/Compression.cpp\00", align 1
@.str.15 = private unnamed_addr constant [32 x i8] c"Codec: no forward progress made\00", align 1
@.str.22 = private unnamed_addr constant [30 x i8] c"Codec: Junk after end of data\00", align 1
@.str.23 = private unnamed_addr constant [18 x i8] c"Compression type \00", align 1
@.str.24 = private unnamed_addr constant [9 x i8] c" invalid\00", align 1
@_ZN5folly2io12_GLOBAL__N_114codecFactoriesE = internal constant [13 x %"struct.folly::io::(anonymous namespace)::Factory"] [%"struct.folly::io::(anonymous namespace)::Factory" zeroinitializer, %"struct.folly::io::(anonymous namespace)::Factory" { ptr @_ZN5folly2io12_GLOBAL__N_118NoCompressionCodec6createEiNS0_9CodecTypeE, ptr null }, %"struct.folly::io::(anonymous namespace)::Factory" { ptr @_ZN5folly2io12_GLOBAL__N_18LZ4Codec6createEiNS0_9CodecTypeE, ptr null }, %"struct.folly::io::(anonymous namespace)::Factory" { ptr @_ZN5folly2io12_GLOBAL__N_111SnappyCodec6createEiNS0_9CodecTypeE, ptr null }, %"struct.folly::io::(anonymous namespace)::Factory" { ptr @_ZN5folly2io12_GLOBAL__N_112getZlibCodecEiNS0_9CodecTypeE, ptr @_ZN5folly2io12_GLOBAL__N_118getZlibStreamCodecEiNS0_9CodecTypeE }, %"struct.folly::io::(anonymous namespace)::Factory" { ptr @_ZN5folly2io12_GLOBAL__N_18LZ4Codec6createEiNS0_9CodecTypeE, ptr null }, %"struct.folly::io::(anonymous namespace)::Factory" { ptr @_ZN5folly2io12_GLOBAL__N_116LZMA2StreamCodec11createCodecEiNS0_9CodecTypeE, ptr @_ZN5folly2io12_GLOBAL__N_116LZMA2StreamCodec12createStreamEiNS0_9CodecTypeE }, %"struct.folly::io::(anonymous namespace)::Factory" { ptr @_ZN5folly2io12_GLOBAL__N_116LZMA2StreamCodec11createCodecEiNS0_9CodecTypeE, ptr @_ZN5folly2io12_GLOBAL__N_116LZMA2StreamCodec12createStreamEiNS0_9CodecTypeE }, %"struct.folly::io::(anonymous namespace)::Factory" { ptr @_ZN5folly2io12_GLOBAL__N_112getZstdCodecEiNS0_9CodecTypeE, ptr @_ZN5folly2io12_GLOBAL__N_118getZstdStreamCodecEiNS0_9CodecTypeE }, %"struct.folly::io::(anonymous namespace)::Factory" { ptr @_ZN5folly2io12_GLOBAL__N_112getZlibCodecEiNS0_9CodecTypeE, ptr @_ZN5folly2io12_GLOBAL__N_118getZlibStreamCodecEiNS0_9CodecTypeE }, %"struct.folly::io::(anonymous namespace)::Factory" { ptr @_ZN5folly2io12_GLOBAL__N_113LZ4FrameCodec6createEiNS0_9CodecTypeE, ptr null }, %"struct.folly::io::(anonymous namespace)::Factory" zeroinitializer, %"struct.folly::io::(anonymous namespace)::Factory" { ptr @_ZN5folly2io12_GLOBAL__N_116getZstdFastCodecEiNS0_9CodecTypeE, ptr @_ZN5folly2io12_GLOBAL__N_122getZstdFastStreamCodecEiNS0_9CodecTypeE }], align 16
@_ZTVN5folly2io12_GLOBAL__N_118NoCompressionCodecE = internal unnamed_addr constant { [14 x ptr] } { [14 x ptr] [ptr null, ptr @_ZTIN5folly2io12_GLOBAL__N_118NoCompressionCodecE, ptr @_ZN5folly2io5CodecD2Ev, ptr @_ZN5folly2io12_GLOBAL__N_118NoCompressionCodecD0Ev, ptr @_ZNK5folly2io5Codec13validPrefixesB5cxx11Ev, ptr @_ZNK5folly2io5Codec13canUncompressEPKNS_5IOBufENS_8OptionalImEE, ptr @_ZNK5folly2io5Codec23doMaxUncompressedLengthEv, ptr @_ZNK5folly2io5Codec25doNeedsUncompressedLengthEv, ptr @_ZN5folly2io12_GLOBAL__N_118NoCompressionCodec10doCompressEPKNS_5IOBufE, ptr @_ZN5folly2io12_GLOBAL__N_118NoCompressionCodec12doUncompressEPKNS_5IOBufENS_8OptionalImEE, ptr @_ZN5folly2io5Codec16doCompressStringB5cxx11ENS_5RangeIPKcEE, ptr @_ZN5folly2io5Codec18doUncompressStringB5cxx11ENS_5RangeIPKcEENS_8OptionalImEE, ptr @_ZNK5folly2io12_GLOBAL__N_118NoCompressionCodec21doMaxCompressedLengthEm, ptr @_ZNK5folly2io5Codec23doGetUncompressedLengthEPKNS_5IOBufENS_8OptionalImEE] }, align 8
@.str.26 = private unnamed_addr constant [35 x i8] c"NoCompressionCodec: invalid level \00", align 1
@_ZTSN5folly2io12_GLOBAL__N_118NoCompressionCodecE = internal constant [46 x i8] c"N5folly2io12_GLOBAL__N_118NoCompressionCodecE\00", align 1
@_ZTIN5folly2io12_GLOBAL__N_118NoCompressionCodecE = internal constant { ptr, ptr, ptr } { ptr getelementptr inbounds (ptr, ptr @_ZTVN10__cxxabiv120__si_class_type_infoE, i64 2), ptr @_ZTSN5folly2io12_GLOBAL__N_118NoCompressionCodecE, ptr @_ZTIN5folly2io5CodecE }, align 8
@.str.27 = private unnamed_addr constant [48 x i8] c"NoCompressionCodec: invalid uncompressed length\00", align 1
@_ZTVN5folly2io12_GLOBAL__N_18LZ4CodecE = internal unnamed_addr constant { [14 x ptr] } { [14 x ptr] [ptr null, ptr @_ZTIN5folly2io12_GLOBAL__N_18LZ4CodecE, ptr @_ZN5folly2io5CodecD2Ev, ptr @_ZN5folly2io12_GLOBAL__N_18LZ4CodecD0Ev, ptr @_ZNK5folly2io5Codec13validPrefixesB5cxx11Ev, ptr @_ZNK5folly2io5Codec13canUncompressEPKNS_5IOBufENS_8OptionalImEE, ptr @_ZNK5folly2io12_GLOBAL__N_18LZ4Codec23doMaxUncompressedLengthEv, ptr @_ZNK5folly2io12_GLOBAL__N_18LZ4Codec25doNeedsUncompressedLengthEv, ptr @_ZN5folly2io12_GLOBAL__N_18LZ4Codec10doCompressEPKNS_5IOBufE, ptr @_ZN5folly2io12_GLOBAL__N_18LZ4Codec12doUncompressEPKNS_5IOBufENS_8OptionalImEE, ptr @_ZN5folly2io5Codec16doCompressStringB5cxx11ENS_5RangeIPKcEE, ptr @_ZN5folly2io5Codec18doUncompressStringB5cxx11ENS_5RangeIPKcEENS_8OptionalImEE, ptr @_ZNK5folly2io12_GLOBAL__N_18LZ4Codec21doMaxCompressedLengthEm, ptr @_ZNK5folly2io5Codec23doGetUncompressedLengthEPKNS_5IOBufENS_8OptionalImEE] }, align 8
@_ZTSN5folly2io12_GLOBAL__N_18LZ4CodecE = internal constant [35 x i8] c"N5folly2io12_GLOBAL__N_18LZ4CodecE\00", align 1
@_ZTIN5folly2io12_GLOBAL__N_18LZ4CodecE = internal constant { ptr, ptr, ptr } { ptr getelementptr inbounds (ptr, ptr @_ZTVN10__cxxabiv120__si_class_type_infoE, i64 2), ptr @_ZTSN5folly2io12_GLOBAL__N_18LZ4CodecE, ptr @_ZTIN5folly2io5CodecE }, align 8
@.str.29 = private unnamed_addr constant [26 x i8] c"LZ4Codec: invalid level: \00", align 1
@.str.30 = private unnamed_addr constant [7 x i8] c"n >= 0\00", align 1
@.str.31 = private unnamed_addr constant [21 x i8] c"n <= out->capacity()\00", align 1
@.str.33 = private unnamed_addr constant [38 x i8] c"LZ4Codec: invalid uncompressed length\00", align 1
@.str.36 = private unnamed_addr constant [42 x i8] c"LZ4 decompression returned invalid value \00", align 1
@.str.37 = private unnamed_addr constant [31 x i8] c"Invalid varint value. Too big.\00", align 1
@.str.42 = private unnamed_addr constant [10 x i8] c"underflow\00", align 1
@_ZTISt12out_of_range = external constant ptr
@_ZTVSt12out_of_range = external unnamed_addr constant { [5 x ptr] }, align 8
@_ZTVN5folly2io12_GLOBAL__N_111SnappyCodecE = internal unnamed_addr constant { [14 x ptr] } { [14 x ptr] [ptr null, ptr @_ZTIN5folly2io12_GLOBAL__N_111SnappyCodecE, ptr @_ZN5folly2io5CodecD2Ev, ptr @_ZN5folly2io12_GLOBAL__N_111SnappyCodecD0Ev, ptr @_ZNK5folly2io5Codec13validPrefixesB5cxx11Ev, ptr @_ZNK5folly2io5Codec13canUncompressEPKNS_5IOBufENS_8OptionalImEE, ptr @_ZNK5folly2io12_GLOBAL__N_111SnappyCodec23doMaxUncompressedLengthEv, ptr @_ZNK5folly2io5Codec25doNeedsUncompressedLengthEv, ptr @_ZN5folly2io12_GLOBAL__N_111SnappyCodec10doCompressEPKNS_5IOBufE, ptr @_ZN5folly2io12_GLOBAL__N_111SnappyCodec12doUncompressEPKNS_5IOBufENS_8OptionalImEE, ptr @_ZN5folly2io5Codec16doCompressStringB5cxx11ENS_5RangeIPKcEE, ptr @_ZN5folly2io5Codec18doUncompressStringB5cxx11ENS_5RangeIPKcEENS_8OptionalImEE, ptr @_ZNK5folly2io12_GLOBAL__N_111SnappyCodec21doMaxCompressedLengthEm, ptr @_ZNK5folly2io12_GLOBAL__N_111SnappyCodec23doGetUncompressedLengthEPKNS_5IOBufENS_8OptionalImEE] }, align 8
@.str.44 = private unnamed_addr constant [29 x i8] c"SnappyCodec: invalid level: \00", align 1
@_ZTSN5folly2io12_GLOBAL__N_111SnappyCodecE = internal constant [39 x i8] c"N5folly2io12_GLOBAL__N_111SnappyCodecE\00", align 1
@_ZTIN5folly2io12_GLOBAL__N_111SnappyCodecE = internal constant { ptr, ptr, ptr } { ptr getelementptr inbounds (ptr, ptr @_ZTVN10__cxxabiv120__si_class_type_infoE, i64 2), ptr @_ZTSN5folly2io12_GLOBAL__N_111SnappyCodecE, ptr @_ZTIN5folly2io5CodecE }, align 8
@_ZTVN5folly2io12_GLOBAL__N_117IOBufSnappySourceE = internal unnamed_addr constant { [7 x ptr] } { [7 x ptr] [ptr null, ptr @_ZTIN5folly2io12_GLOBAL__N_117IOBufSnappySourceE, ptr @_ZN6snappy6SourceD2Ev, ptr @_ZN5folly2io12_GLOBAL__N_117IOBufSnappySourceD0Ev, ptr @_ZNK5folly2io12_GLOBAL__N_117IOBufSnappySource9AvailableEv, ptr @_ZN5folly2io12_GLOBAL__N_117IOBufSnappySource4PeekEPm, ptr @_ZN5folly2io12_GLOBAL__N_117IOBufSnappySource4SkipEm] }, align 8
@_ZTSN5folly2io12_GLOBAL__N_117IOBufSnappySourceE = internal constant [45 x i8] c"N5folly2io12_GLOBAL__N_117IOBufSnappySourceE\00", align 1
@_ZTIN6snappy6SourceE = external constant ptr
@_ZTIN5folly2io12_GLOBAL__N_117IOBufSnappySourceE = internal constant { ptr, ptr, ptr } { ptr getelementptr inbounds (ptr, ptr @_ZTVN10__cxxabiv120__si_class_type_infoE, i64 2), ptr @_ZTSN5folly2io12_GLOBAL__N_117IOBufSnappySourceE, ptr @_ZTIN6snappy6SourceE }, align 8
@.str.45 = private unnamed_addr constant [16 x i8] c"n <= available_\00", align 1
@_ZTVN6snappy22UncheckedByteArraySinkE = external unnamed_addr constant { [8 x ptr] }, align 8
@.str.46 = private unnamed_addr constant [37 x i8] c"snappy::GetUncompressedLength failed\00", align 1
@.str.47 = private unnamed_addr constant [36 x i8] c"snappy: invalid uncompressed length\00", align 1
@.str.48 = private unnamed_addr constant [29 x i8] c"snappy::RawUncompress failed\00", align 1
@_ZTVN5folly2io12_GLOBAL__N_116LZMA2StreamCodecE = internal unnamed_addr constant { [18 x ptr] } { [18 x ptr] [ptr null, ptr @_ZTIN5folly2io12_GLOBAL__N_116LZMA2StreamCodecE, ptr @_ZN5folly2io12_GLOBAL__N_116LZMA2StreamCodecD2Ev, ptr @_ZN5folly2io12_GLOBAL__N_116LZMA2StreamCodecD0Ev, ptr @_ZNK5folly2io12_GLOBAL__N_116LZMA2StreamCodec13validPrefixesB5cxx11Ev, ptr @_ZNK5folly2io12_GLOBAL__N_116LZMA2StreamCodec13canUncompressEPKNS_5IOBufENS_8OptionalImEE, ptr @_ZNK5folly2io12_GLOBAL__N_116LZMA2StreamCodec23doMaxUncompressedLengthEv, ptr @_ZNK5folly2io5Codec25doNeedsUncompressedLengthEv, ptr @_ZN5folly2io11StreamCodec10doCompressEPKNS_5IOBufE, ptr @_ZN5folly2io11StreamCodec12doUncompressEPKNS_5IOBufENS_8OptionalImEE, ptr @_ZN5folly2io5Codec16doCompressStringB5cxx11ENS_5RangeIPKcEE, ptr @_ZN5folly2io5Codec18doUncompressStringB5cxx11ENS_5RangeIPKcEENS_8OptionalImEE, ptr @_ZNK5folly2io12_GLOBAL__N_116LZMA2StreamCodec21doMaxCompressedLengthEm, ptr @_ZNK5folly2io5Codec23doGetUncompressedLengthEPKNS_5IOBufENS_8OptionalImEE, ptr @_ZNK5folly2io12_GLOBAL__N_116LZMA2StreamCodec17doNeedsDataLengthEv, ptr @_ZN5folly2io12_GLOBAL__N_116LZMA2StreamCodec13doResetStreamEv, ptr @_ZN5folly2io12_GLOBAL__N_116LZMA2StreamCodec16doCompressStreamERNS_5RangeIPKhEERNS3_IPhEENS0_11StreamCodec7FlushOpE, ptr @_ZN5folly2io12_GLOBAL__N_116LZMA2StreamCodec18doUncompressStreamERNS_5RangeIPKhEERNS3_IPhEENS0_11StreamCodec7FlushOpE] }, align 8
@.str.51 = private unnamed_addr constant [28 x i8] c"LZMA2Codec: invalid level: \00", align 1
@_ZTSN5folly2io12_GLOBAL__N_116LZMA2StreamCodecE = internal constant [44 x i8] c"N5folly2io12_GLOBAL__N_116LZMA2StreamCodecE\00", align 1
@_ZTIN5folly2io12_GLOBAL__N_116LZMA2StreamCodecE = internal constant { ptr, ptr, ptr } { ptr getelementptr inbounds (ptr, ptr @_ZTVN10__cxxabiv120__si_class_type_infoE, i64 2), ptr @_ZTSN5folly2io12_GLOBAL__N_116LZMA2StreamCodecE, ptr @_ZTIN5folly2io11StreamCodecE }, align 8
@.str.55 = private unnamed_addr constant [49 x i8] c"cannot create std::vector larger than max_size()\00", align 1
@.str.57 = private unnamed_addr constant [44 x i8] c"LZMA2StreamCodec: lzma_easy_encoder error: \00", align 1
@.str.58 = private unnamed_addr constant [19 x i8] c"index out of range\00", align 1
@.str.59 = private unnamed_addr constant [26 x i8] c"LZMA2StreamCodec: error: \00", align 1
@.str.60 = private unnamed_addr constant [32 x i8] c"LZMA2StreamCodec: Invalid flush\00", align 1
@.str.61 = private unnamed_addr constant [32 x i8] c"LZMA2StreamCodec: invalid flush\00", align 1
@.str.62 = private unnamed_addr constant [44 x i8] c"LZMA2StreamCodec: lzma_auto_decoder error: \00", align 1
@.str.63 = private unnamed_addr constant [46 x i8] c"LZMA2StreamCodec: invalid uncompressed length\00", align 1
@_ZTSN5folly17BadExpectedAccessIvEE = linkonce_odr constant [31 x i8] c"N5folly17BadExpectedAccessIvEE\00", comdat, align 1
@_ZTISt9exception = external constant ptr
@_ZTIN5folly17BadExpectedAccessIvEE = linkonce_odr constant { ptr, ptr, ptr } { ptr getelementptr inbounds (ptr, ptr @_ZTVN10__cxxabiv120__si_class_type_infoE, i64 2), ptr @_ZTSN5folly17BadExpectedAccessIvEE, ptr @_ZTISt9exception }, comdat, align 8
@_ZTVN5folly17BadExpectedAccessIvEE = linkonce_odr unnamed_addr constant { [5 x ptr] } { [5 x ptr] [ptr null, ptr @_ZTIN5folly17BadExpectedAccessIvEE, ptr @_ZNSt9exceptionD2Ev, ptr @_ZN5folly17BadExpectedAccessIvED0Ev, ptr @_ZNK5folly17BadExpectedAccessIvE4whatEv] }, comdat, align 8
@_ZTVSt9exception = external unnamed_addr constant { [5 x ptr] }, align 8
@.str.64 = private unnamed_addr constant [20 x i8] c"bad expected access\00", align 1
@.str.66 = private unnamed_addr constant [22 x i8] c"ZSTD: invalid level: \00", align 1
@_ZTVN5folly2io12_GLOBAL__N_113LZ4FrameCodecE = internal unnamed_addr constant { [14 x ptr] } { [14 x ptr] [ptr null, ptr @_ZTIN5folly2io12_GLOBAL__N_113LZ4FrameCodecE, ptr @_ZN5folly2io12_GLOBAL__N_113LZ4FrameCodecD2Ev, ptr @_ZN5folly2io12_GLOBAL__N_113LZ4FrameCodecD0Ev, ptr @_ZNK5folly2io12_GLOBAL__N_113LZ4FrameCodec13validPrefixesB5cxx11Ev, ptr @_ZNK5folly2io12_GLOBAL__N_113LZ4FrameCodec13canUncompressEPKNS_5IOBufENS_8OptionalImEE, ptr @_ZNK5folly2io5Codec23doMaxUncompressedLengthEv, ptr @_ZNK5folly2io5Codec25doNeedsUncompressedLengthEv, ptr @_ZN5folly2io12_GLOBAL__N_113LZ4FrameCodec10doCompressEPKNS_5IOBufE, ptr @_ZN5folly2io12_GLOBAL__N_113LZ4FrameCodec12doUncompressEPKNS_5IOBufENS_8OptionalImEE, ptr @_ZN5folly2io5Codec16doCompressStringB5cxx11ENS_5RangeIPKcEE, ptr @_ZN5folly2io5Codec18doUncompressStringB5cxx11ENS_5RangeIPKcEENS_8OptionalImEE, ptr @_ZNK5folly2io12_GLOBAL__N_113LZ4FrameCodec21doMaxCompressedLengthEm, ptr @_ZNK5folly2io5Codec23doGetUncompressedLengthEPKNS_5IOBufENS_8OptionalImEE] }, align 8
@_ZTSN5folly2io12_GLOBAL__N_113LZ4FrameCodecE = internal constant [41 x i8] c"N5folly2io12_GLOBAL__N_113LZ4FrameCodecE\00", align 1
@_ZTIN5folly2io12_GLOBAL__N_113LZ4FrameCodecE = internal constant { ptr, ptr, ptr } { ptr getelementptr inbounds (ptr, ptr @_ZTVN10__cxxabiv120__si_class_type_infoE, i64 2), ptr @_ZTSN5folly2io12_GLOBAL__N_113LZ4FrameCodecE, ptr @_ZTIN5folly2io5CodecE }, align 8
@.str.68 = private unnamed_addr constant [17 x i8] c"LZ4Frame error: \00", align 1
@.str.69 = private unnamed_addr constant [33 x i8] c"LZ4Frame error: Incomplete frame\00", align 1
@.str.70 = private unnamed_addr constant [43 x i8] c"LZ4Frame error: Invalid uncompressedLength\00", align 1
@.str.83 = private unnamed_addr constant [36 x i8] c"IOBufQueue: chain length not cached\00", align 1
@.str.86 = private unnamed_addr constant [15 x i8] c" not supported\00", align 1
@_ZTVN5folly2io12_GLOBAL__N_114AutomaticCodecE = internal unnamed_addr constant { [14 x ptr] } { [14 x ptr] [ptr null, ptr @_ZTIN5folly2io12_GLOBAL__N_114AutomaticCodecE, ptr @_ZN5folly2io12_GLOBAL__N_114AutomaticCodecD2Ev, ptr @_ZN5folly2io12_GLOBAL__N_114AutomaticCodecD0Ev, ptr @_ZNK5folly2io12_GLOBAL__N_114AutomaticCodec13validPrefixesB5cxx11Ev, ptr @_ZNK5folly2io12_GLOBAL__N_114AutomaticCodec13canUncompressEPKNS_5IOBufENS_8OptionalImEE, ptr @_ZNK5folly2io12_GLOBAL__N_114AutomaticCodec23doMaxUncompressedLengthEv, ptr @_ZNK5folly2io12_GLOBAL__N_114AutomaticCodec25doNeedsUncompressedLengthEv, ptr @_ZN5folly2io12_GLOBAL__N_114AutomaticCodec10doCompressEPKNS_5IOBufE, ptr @_ZN5folly2io12_GLOBAL__N_114AutomaticCodec12doUncompressEPKNS_5IOBufENS_8OptionalImEE, ptr @_ZN5folly2io5Codec16doCompressStringB5cxx11ENS_5RangeIPKcEE, ptr @_ZN5folly2io5Codec18doUncompressStringB5cxx11ENS_5RangeIPKcEENS_8OptionalImEE, ptr @_ZNK5folly2io12_GLOBAL__N_114AutomaticCodec21doMaxCompressedLengthEm, ptr @_ZNK5folly2io5Codec23doGetUncompressedLengthEPKNS_5IOBufENS_8OptionalImEE] }, align 8
@_ZTSN5folly2io12_GLOBAL__N_114AutomaticCodecE = internal constant [42 x i8] c"N5folly2io12_GLOBAL__N_114AutomaticCodecE\00", align 1
@_ZTIN5folly2io12_GLOBAL__N_114AutomaticCodecE = internal constant { ptr, ptr, ptr } { ptr getelementptr inbounds (ptr, ptr @_ZTVN10__cxxabiv120__si_class_type_infoE, i64 2), ptr @_ZTSN5folly2io12_GLOBAL__N_114AutomaticCodecE, ptr @_ZTIN5folly2io5CodecE }, align 8
@.str.92 = private unnamed_addr constant [26 x i8] c"vector::_M_realloc_insert\00", align 1
@.str.93 = private unnamed_addr constant [48 x i8] c"AutomaticCodec error: compress() not supported.\00", align 1
@.str.94 = private unnamed_addr constant [46 x i8] c"AutomaticCodec error: Unknown compressed data\00", align 1
@.str.95 = private unnamed_addr constant [59 x i8] c"AutomaticCodec error: maxCompressedLength() not supported.\00", align 1
@switch.table._ZN5folly2io12_GLOBAL__N_115lz4ConvertLevelEi = private unnamed_addr constant [6 x i32] [i32 2, i32 1, i32 1, i32 1, i32 1, i32 2], align 4
@switch.table._ZSt11make_uniqueIN5folly2io12_GLOBAL__N_116LZMA2StreamCodecEJRiRNS1_9CodecTypeEEENSt8__detail9_MakeUniqIT_E15__single_objectEDpOT0_ = private unnamed_addr constant [3 x i32] [i32 9, i32 6, i32 0], align 4
@switch.table._ZN5folly2io12_GLOBAL__N_116LZMA2StreamCodec16doCompressStreamERNS_5RangeIPKhEERNS3_IPhEENS0_11StreamCodec7FlushOpE = private unnamed_addr constant [3 x i32] [i32 0, i32 1, i32 3], align 4
@switch.table._ZN5folly2io12_GLOBAL__N_116zstdConvertLevelEi = private unnamed_addr constant [3 x i32] [i32 19, i32 1, i32 1], align 4
@switch.table._ZN5folly2io12_GLOBAL__N_120zstdFastConvertLevelEi = private unnamed_addr constant [3 x i32] [i32 -1, i32 -1, i32 -5], align 4

; Function Attrs: mustprogress nounwind uwtable
define linkonce_odr void @_ZN5folly2io5CodecD0Ev(ptr noundef nonnull align 8 dereferenceable(12) %this) unnamed_addr #0 comdat align 2 {
entry:
  tail call void @llvm.trap() #28
  unreachable
}

; Function Attrs: mustprogress nofree norecurse nosync nounwind willreturn memory(argmem: write) uwtable
define void @_ZNK5folly2io5Codec13validPrefixesB5cxx11Ev(ptr noalias nocapture writeonly sret(%"class.std::vector") align 8 %agg.result, ptr nocapture nonnull readnone align 8 %this) unnamed_addr #1 align 2 {
entry:
  tail call void @llvm.memset.p0.i64(ptr noundef nonnull align 8 dereferenceable(24) %agg.result, i8 0, i64 24, i1 false)
  ret void
}

; Function Attrs: mustprogress nofree norecurse nosync nounwind willreturn memory(none) uwtable
define noundef zeroext i1 @_ZNK5folly2io5Codec13canUncompressEPKNS_5IOBufENS_8OptionalImEE(ptr nocapture nonnull readnone align 8 %this, ptr nocapture readnone %0, ptr nocapture readnone %1) unnamed_addr #2 align 2 {
entry:
  ret i1 false
}

; Function Attrs: mustprogress nofree norecurse nosync nounwind willreturn memory(none) uwtable
define noundef i64 @_ZNK5folly2io5Codec23doMaxUncompressedLengthEv(ptr nocapture nonnull readnone align 8 %this) unnamed_addr #2 align 2 {
entry:
  ret i64 -1
}

; Function Attrs: mustprogress nofree norecurse nosync nounwind willreturn memory(none) uwtable
define noundef zeroext i1 @_ZNK5folly2io5Codec25doNeedsUncompressedLengthEv(ptr nocapture nonnull readnone align 8 %this) unnamed_addr #2 align 2 {
entry:
  ret i1 false
}

declare void @__cxa_pure_virtual() unnamed_addr

; Function Attrs: mustprogress uwtable
define void @_ZN5folly2io5Codec16doCompressStringB5cxx11ENS_5RangeIPKcEE(ptr noalias sret(%"class.std::__cxx11::basic_string") align 8 %agg.result, ptr noundef nonnull align 8 dereferenceable(12) %this, ptr %data.coerce0, ptr %data.coerce1) unnamed_addr #3 align 2 personality ptr @__gxx_personality_v0 {
entry:
  %inputBuffer = alloca %"class.folly::IOBuf", align 8
  %outputBuffer = alloca %"class.std::unique_ptr", align 8
  call void @llvm.lifetime.start.p0(i64 56, ptr nonnull %inputBuffer) #29
  call void @_ZN5folly5IOBufC1ENS0_12WrapBufferOpENS_5RangeIPKhEE(ptr noundef nonnull align 8 dereferenceable(56) %inputBuffer, i32 noundef 0, ptr %data.coerce0, ptr %data.coerce1) #29
  call void @llvm.lifetime.start.p0(i64 8, ptr nonnull %outputBuffer) #29
  %vtable = load ptr, ptr %this, align 8, !tbaa !7
  %vfn = getelementptr inbounds ptr, ptr %vtable, i64 6
  %0 = load ptr, ptr %vfn, align 8
  invoke void %0(ptr nonnull sret(%"class.std::unique_ptr") align 8 %outputBuffer, ptr noundef nonnull align 8 dereferenceable(12) %this, ptr noundef nonnull %inputBuffer)
          to label %invoke.cont unwind label %lpad

invoke.cont:                                      ; preds = %entry
  %1 = load ptr, ptr %outputBuffer, align 8, !tbaa !10
  %2 = getelementptr inbounds %"class.std::__cxx11::basic_string", ptr %agg.result, i64 0, i32 2
  store ptr %2, ptr %agg.result, align 8, !tbaa !13, !alias.scope !15
  %_M_string_length.i.i.i.i = getelementptr inbounds %"class.std::__cxx11::basic_string", ptr %agg.result, i64 0, i32 1
  store i64 0, ptr %_M_string_length.i.i.i.i, align 8, !tbaa !18, !alias.scope !15
  store i8 0, ptr %2, align 8, !tbaa !21, !alias.scope !15
  invoke void @_ZNK5folly5IOBuf8appendToINSt7__cxx1112basic_stringIcSt11char_traitsIcESaIcEEEEEvRT_(ptr noundef nonnull align 8 dereferenceable(56) %1, ptr noundef nonnull align 8 dereferenceable(32) %agg.result)
          to label %invoke.cont3 unwind label %lpad.i

lpad.i:                                           ; preds = %invoke.cont
  %3 = landingpad { ptr, i32 }
          cleanup
  %4 = load ptr, ptr %agg.result, align 8, !tbaa !22, !alias.scope !15
  %cmp.i.i.i.i = icmp eq ptr %4, %2
  br i1 %cmp.i.i.i.i, label %_ZNKSt7__cxx1112basic_stringIcSt11char_traitsIcESaIcEE11_M_is_localEv.exit.thread.i.i.i, label %if.then.i.i.i

_ZNKSt7__cxx1112basic_stringIcSt11char_traitsIcESaIcEE11_M_is_localEv.exit.thread.i.i.i: ; preds = %lpad.i
  %5 = load i64, ptr %_M_string_length.i.i.i.i, align 8, !tbaa !18, !alias.scope !15
  %cmp3.i.i.i.i = icmp ult i64 %5, 16
  call void @llvm.assume(i1 %cmp3.i.i.i.i)
  br label %lpad2.body

if.then.i.i.i:                                    ; preds = %lpad.i
  call void @_ZdlPv(ptr noundef %4) #30
  br label %lpad2.body

invoke.cont3:                                     ; preds = %invoke.cont
  %6 = load ptr, ptr %outputBuffer, align 8, !tbaa !10
  %cmp.not.i = icmp eq ptr %6, null
  br i1 %cmp.not.i, label %_ZNSt10unique_ptrIN5folly5IOBufESt14default_deleteIS1_EED2Ev.exit, label %_ZNKSt14default_deleteIN5folly5IOBufEEclEPS1_.exit.i

_ZNKSt14default_deleteIN5folly5IOBufEEclEPS1_.exit.i: ; preds = %invoke.cont3
  call void @_ZN5folly5IOBufD1Ev(ptr noundef nonnull align 8 dereferenceable(56) %6) #29
  call void @_ZN5folly5IOBufdlEPv(ptr noundef nonnull %6) #29
  br label %_ZNSt10unique_ptrIN5folly5IOBufESt14default_deleteIS1_EED2Ev.exit

_ZNSt10unique_ptrIN5folly5IOBufESt14default_deleteIS1_EED2Ev.exit: ; preds = %_ZNKSt14default_deleteIN5folly5IOBufEEclEPS1_.exit.i, %invoke.cont3
  call void @llvm.lifetime.end.p0(i64 8, ptr nonnull %outputBuffer) #29
  call void @_ZN5folly5IOBufD1Ev(ptr noundef nonnull align 8 dereferenceable(56) %inputBuffer) #29
  call void @llvm.lifetime.end.p0(i64 56, ptr nonnull %inputBuffer) #29
  ret void

lpad:                                             ; preds = %entry
  %7 = landingpad { ptr, i32 }
          cleanup
  br label %ehcleanup

lpad2.body:                                       ; preds = %if.then.i.i.i, %_ZNKSt7__cxx1112basic_stringIcSt11char_traitsIcESaIcEE11_M_is_localEv.exit.thread.i.i.i
  call void @_ZNSt10unique_ptrIN5folly5IOBufESt14default_deleteIS1_EED2Ev(ptr noundef nonnull align 8 dereferenceable(8) %outputBuffer) #29
  br label %ehcleanup

ehcleanup:                                        ; preds = %lpad2.body, %lpad
  %.pn = phi { ptr, i32 } [ %3, %lpad2.body ], [ %7, %lpad ]
  call void @llvm.lifetime.end.p0(i64 8, ptr nonnull %outputBuffer) #29
  call void @_ZN5folly5IOBufD1Ev(ptr noundef nonnull align 8 dereferenceable(56) %inputBuffer) #29
  call void @llvm.lifetime.end.p0(i64 56, ptr nonnull %inputBuffer) #29
  resume { ptr, i32 } %.pn
}

; Function Attrs: mustprogress uwtable
define void @_ZN5folly2io5Codec18doUncompressStringB5cxx11ENS_5RangeIPKcEENS_8OptionalImEE(ptr noalias sret(%"class.std::__cxx11::basic_string") align 8 %agg.result, ptr noundef nonnull align 8 dereferenceable(12) %this, ptr %data.coerce0, ptr %data.coerce1, ptr nocapture noundef readonly %uncompressedLength) unnamed_addr #3 align 2 personality ptr @__gxx_personality_v0 {
entry:
  %inputBuffer = alloca %"class.folly::IOBuf", align 8
  %outputBuffer = alloca %"class.std::unique_ptr", align 8
  %agg.tmp2 = alloca %"class.folly::Optional", align 8
  %__begin2 = alloca %"class.folly::IOBuf::Iterator", align 16
  %__end2 = alloca %"class.folly::IOBuf::Iterator", align 16
  call void @llvm.lifetime.start.p0(i64 56, ptr nonnull %inputBuffer) #29
  call void @_ZN5folly5IOBufC1ENS0_12WrapBufferOpENS_5RangeIPKhEE(ptr noundef nonnull align 8 dereferenceable(56) %inputBuffer, i32 noundef 0, ptr %data.coerce0, ptr %data.coerce1) #29
  call void @llvm.lifetime.start.p0(i64 8, ptr nonnull %outputBuffer) #29
  store i8 0, ptr %agg.tmp2, align 8, !tbaa !21
  %hasValue.i.i = getelementptr inbounds %"struct.folly::Optional<unsigned long>::StorageTriviallyDestructible", ptr %agg.tmp2, i64 0, i32 1
  store i8 0, ptr %hasValue.i.i, align 8, !tbaa !23
  %hasValue.i.i.i = getelementptr inbounds %"struct.folly::Optional<unsigned long>::StorageTriviallyDestructible", ptr %uncompressedLength, i64 0, i32 1
  %0 = load i8, ptr %hasValue.i.i.i, align 8, !tbaa !26, !range !28, !noundef !29
  %tobool.i.i.not.i = icmp eq i8 %0, 0
  br i1 %tobool.i.i.not.i, label %_ZN5folly8OptionalImEC2ERKS1_.exit, label %invoke.cont2.i

invoke.cont2.i:                                   ; preds = %entry
  %1 = load i64, ptr %uncompressedLength, align 8, !tbaa !30
  store i64 %1, ptr %agg.tmp2, align 8, !tbaa !30
  store i8 1, ptr %hasValue.i.i, align 8, !tbaa !26
  br label %_ZN5folly8OptionalImEC2ERKS1_.exit

_ZN5folly8OptionalImEC2ERKS1_.exit:               ; preds = %invoke.cont2.i, %entry
  %vtable = load ptr, ptr %this, align 8, !tbaa !7
  %vfn = getelementptr inbounds ptr, ptr %vtable, i64 7
  %2 = load ptr, ptr %vfn, align 8
  invoke void %2(ptr nonnull sret(%"class.std::unique_ptr") align 8 %outputBuffer, ptr noundef nonnull align 8 dereferenceable(12) %this, ptr noundef nonnull %inputBuffer, ptr noundef nonnull %agg.tmp2)
          to label %invoke.cont unwind label %lpad

invoke.cont:                                      ; preds = %_ZN5folly8OptionalImEC2ERKS1_.exit
  %3 = getelementptr inbounds %"class.std::__cxx11::basic_string", ptr %agg.result, i64 0, i32 2
  store ptr %3, ptr %agg.result, align 8, !tbaa !13
  %_M_string_length.i.i.i = getelementptr inbounds %"class.std::__cxx11::basic_string", ptr %agg.result, i64 0, i32 1
  store i64 0, ptr %_M_string_length.i.i.i, align 8, !tbaa !18
  store i8 0, ptr %3, align 8, !tbaa !21
  %4 = load ptr, ptr %outputBuffer, align 8, !tbaa !10
  %call5 = invoke noundef i64 @_ZNK5folly5IOBuf22computeChainDataLengthEv(ptr noundef nonnull align 8 dereferenceable(56) %4)
          to label %invoke.cont4 unwind label %lpad3

invoke.cont4:                                     ; preds = %invoke.cont
  invoke void @_ZNSt7__cxx1112basic_stringIcSt11char_traitsIcESaIcEE7reserveEm(ptr noundef nonnull align 8 dereferenceable(32) %agg.result, i64 noundef %call5)
          to label %invoke.cont6 unwind label %lpad3

invoke.cont6:                                     ; preds = %invoke.cont4
  %5 = load ptr, ptr %outputBuffer, align 8, !tbaa !10
  call void @llvm.lifetime.start.p0(i64 32, ptr nonnull %__begin2) #29
  invoke void @_ZNK5folly5IOBuf6cbeginEv(ptr nonnull sret(%"class.folly::IOBuf::Iterator") align 8 %__begin2, ptr noundef nonnull align 8 dereferenceable(56) %5)
          to label %invoke.cont9 unwind label %lpad8

invoke.cont9:                                     ; preds = %invoke.cont6
  call void @llvm.lifetime.start.p0(i64 32, ptr nonnull %__end2) #29
  invoke void @_ZNK5folly5IOBuf4cendEv(ptr nonnull sret(%"class.folly::IOBuf::Iterator") align 8 %__end2, ptr noundef nonnull align 8 dereferenceable(56) %5)
          to label %invoke.cont12.preheader unwind label %lpad10

invoke.cont12.preheader:                          ; preds = %invoke.cont9
  %end_.i.i.i.i = getelementptr inbounds %"class.folly::IOBuf::Iterator", ptr %__begin2, i64 0, i32 1
  %end_3.i.i.i.i = getelementptr inbounds %"class.folly::IOBuf::Iterator", ptr %__end2, i64 0, i32 1
  %6 = load <2 x ptr>, ptr %__begin2, align 16
  %7 = load <2 x ptr>, ptr %__end2, align 16
  %8 = icmp ne <2 x ptr> %6, %7
  %9 = extractelement <2 x i1> %8, i64 0
  %10 = extractelement <2 x i1> %8, i64 1
  %.not.i47 = select i1 %9, i1 true, i1 %10
  br i1 %.not.i47, label %invoke.cont15.lr.ph, label %for.cond.cleanup

invoke.cont15.lr.ph:                              ; preds = %invoke.cont12.preheader
  %val_.i.i = getelementptr inbounds %"class.folly::IOBuf::Iterator", ptr %__begin2, i64 0, i32 2
  %range.sroa.6.0.val_.i.i.sroa_idx = getelementptr inbounds %"class.folly::IOBuf::Iterator", ptr %__begin2, i64 0, i32 2, i32 1
  %range.sroa.0.0.copyload.pre = load ptr, ptr %val_.i.i, align 16, !tbaa.struct !31
  %range.sroa.6.0.copyload.pre = load ptr, ptr %range.sroa.6.0.val_.i.i.sroa_idx, align 8, !tbaa.struct !32
  br label %invoke.cont15

for.cond.cleanup:                                 ; preds = %_ZN5folly6detail14IteratorFacadeINS_5IOBuf8IteratorEKNS_5RangeIPKhEESt20forward_iterator_tagEppEv.exit, %invoke.cont12.preheader
  call void @llvm.lifetime.end.p0(i64 32, ptr nonnull %__end2) #29
  call void @llvm.lifetime.end.p0(i64 32, ptr nonnull %__begin2) #29
  %11 = load ptr, ptr %outputBuffer, align 8, !tbaa !10
  %cmp.not.i = icmp eq ptr %11, null
  br i1 %cmp.not.i, label %_ZNSt10unique_ptrIN5folly5IOBufESt14default_deleteIS1_EED2Ev.exit, label %_ZNKSt14default_deleteIN5folly5IOBufEEclEPS1_.exit.i

_ZNKSt14default_deleteIN5folly5IOBufEEclEPS1_.exit.i: ; preds = %for.cond.cleanup
  call void @_ZN5folly5IOBufD1Ev(ptr noundef nonnull align 8 dereferenceable(56) %11) #29
  call void @_ZN5folly5IOBufdlEPv(ptr noundef nonnull %11) #29
  br label %_ZNSt10unique_ptrIN5folly5IOBufESt14default_deleteIS1_EED2Ev.exit

_ZNSt10unique_ptrIN5folly5IOBufESt14default_deleteIS1_EED2Ev.exit: ; preds = %_ZNKSt14default_deleteIN5folly5IOBufEEclEPS1_.exit.i, %for.cond.cleanup
  call void @llvm.lifetime.end.p0(i64 8, ptr nonnull %outputBuffer) #29
  call void @_ZN5folly5IOBufD1Ev(ptr noundef nonnull align 8 dereferenceable(56) %inputBuffer) #29
  call void @llvm.lifetime.end.p0(i64 56, ptr nonnull %inputBuffer) #29
  ret void

lpad:                                             ; preds = %_ZN5folly8OptionalImEC2ERKS1_.exit
  %12 = landingpad { ptr, i32 }
          cleanup
  br label %ehcleanup29

lpad3:                                            ; preds = %invoke.cont4, %invoke.cont
  %13 = landingpad { ptr, i32 }
          cleanup
  br label %ehcleanup27

lpad8:                                            ; preds = %invoke.cont6
  %14 = landingpad { ptr, i32 }
          cleanup
  br label %ehcleanup25

lpad10:                                           ; preds = %invoke.cont9
  %15 = landingpad { ptr, i32 }
          cleanup
  br label %ehcleanup

invoke.cont15:                                    ; preds = %_ZN5folly6detail14IteratorFacadeINS_5IOBuf8IteratorEKNS_5RangeIPKhEESt20forward_iterator_tagEppEv.exit, %invoke.cont15.lr.ph
  %range.sroa.6.0.copyload = phi ptr [ %range.sroa.6.0.copyload.pre, %invoke.cont15.lr.ph ], [ %range.sroa.6.0.copyload51, %_ZN5folly6detail14IteratorFacadeINS_5IOBuf8IteratorEKNS_5RangeIPKhEESt20forward_iterator_tagEppEv.exit ]
  %range.sroa.0.0.copyload = phi ptr [ %range.sroa.0.0.copyload.pre, %invoke.cont15.lr.ph ], [ %range.sroa.0.0.copyload49, %_ZN5folly6detail14IteratorFacadeINS_5IOBuf8IteratorEKNS_5RangeIPKhEESt20forward_iterator_tagEppEv.exit ]
  %sub.ptr.lhs.cast.i = ptrtoint ptr %range.sroa.6.0.copyload to i64
  %sub.ptr.rhs.cast.i = ptrtoint ptr %range.sroa.0.0.copyload to i64
  %sub.ptr.sub.i = sub i64 %sub.ptr.lhs.cast.i, %sub.ptr.rhs.cast.i
  %16 = load i64, ptr %_M_string_length.i.i.i, align 8, !tbaa !18
  %sub3.i.i = sub i64 4611686018427387903, %16
  %cmp.i.i = icmp ult i64 %sub3.i.i, %sub.ptr.sub.i
  br i1 %cmp.i.i, label %if.then.i.i, label %_ZNKSt7__cxx1112basic_stringIcSt11char_traitsIcESaIcEE15_M_check_lengthEmmPKc.exit.i

if.then.i.i:                                      ; preds = %invoke.cont15
  invoke void @_ZSt20__throw_length_errorPKc(ptr noundef nonnull @.str.7) #31
          to label %.noexc unwind label %lpad14.loopexit.split-lp

.noexc:                                           ; preds = %if.then.i.i
  unreachable

_ZNKSt7__cxx1112basic_stringIcSt11char_traitsIcESaIcEE15_M_check_lengthEmmPKc.exit.i: ; preds = %invoke.cont15
  %call.i40 = invoke noundef nonnull align 8 dereferenceable(32) ptr @_ZNSt7__cxx1112basic_stringIcSt11char_traitsIcESaIcEE9_M_appendEPKcm(ptr noundef nonnull align 8 dereferenceable(32) %agg.result, ptr noundef %range.sroa.0.0.copyload, i64 noundef %sub.ptr.sub.i)
          to label %invoke.cont21 unwind label %lpad14.loopexit

invoke.cont21:                                    ; preds = %_ZNKSt7__cxx1112basic_stringIcSt11char_traitsIcESaIcEE15_M_check_lengthEmmPKc.exit.i
  %17 = load ptr, ptr %__begin2, align 16, !tbaa !33
  %next_.i.i.i = getelementptr inbounds %"class.folly::IOBuf", ptr %17, i64 0, i32 4
  %18 = load ptr, ptr %next_.i.i.i, align 8, !tbaa !36
  store ptr %18, ptr %__begin2, align 16, !tbaa !33
  %19 = load ptr, ptr %end_.i.i.i.i, align 8
  %cmp.i.i.i = icmp eq ptr %18, %19
  br i1 %cmp.i.i.i, label %if.then.i.i.i, label %if.else.i.i.i

if.then.i.i.i:                                    ; preds = %invoke.cont21
  call void @llvm.memset.p0.i64(ptr noundef nonnull align 16 dereferenceable(32) %__begin2, i8 0, i64 32, i1 false)
  br label %_ZN5folly6detail14IteratorFacadeINS_5IOBuf8IteratorEKNS_5RangeIPKhEESt20forward_iterator_tagEppEv.exit

if.else.i.i.i:                                    ; preds = %invoke.cont21
  %data_.i.i.i.i.i = getelementptr inbounds %"class.folly::IOBuf", ptr %18, i64 0, i32 1
  %20 = load ptr, ptr %data_.i.i.i.i.i, align 8, !tbaa !38
  %21 = load i64, ptr %18, align 8, !tbaa !39
  %add.ptr.i.i.i.i.i = getelementptr inbounds i8, ptr %20, i64 %21
  store ptr %20, ptr %val_.i.i, align 16, !tbaa.struct !31
  store ptr %add.ptr.i.i.i.i.i, ptr %range.sroa.6.0.val_.i.i.sroa_idx, align 8, !tbaa.struct !32
  br label %_ZN5folly6detail14IteratorFacadeINS_5IOBuf8IteratorEKNS_5RangeIPKhEESt20forward_iterator_tagEppEv.exit

_ZN5folly6detail14IteratorFacadeINS_5IOBuf8IteratorEKNS_5RangeIPKhEESt20forward_iterator_tagEppEv.exit: ; preds = %if.else.i.i.i, %if.then.i.i.i
  %22 = phi ptr [ null, %if.then.i.i.i ], [ %19, %if.else.i.i.i ]
  %23 = phi ptr [ null, %if.then.i.i.i ], [ %18, %if.else.i.i.i ]
  %range.sroa.6.0.copyload51 = phi ptr [ null, %if.then.i.i.i ], [ %add.ptr.i.i.i.i.i, %if.else.i.i.i ]
  %range.sroa.0.0.copyload49 = phi ptr [ null, %if.then.i.i.i ], [ %20, %if.else.i.i.i ]
  %24 = load ptr, ptr %__end2, align 16, !tbaa !33
  %cmp.i.i.i.i = icmp ne ptr %23, %24
  %25 = load ptr, ptr %end_3.i.i.i.i, align 8
  %cmp4.i.i.i.i = icmp ne ptr %22, %25
  %.not.i = select i1 %cmp.i.i.i.i, i1 true, i1 %cmp4.i.i.i.i
  br i1 %.not.i, label %invoke.cont15, label %for.cond.cleanup

lpad14.loopexit:                                  ; preds = %_ZNKSt7__cxx1112basic_stringIcSt11char_traitsIcESaIcEE15_M_check_lengthEmmPKc.exit.i
  %lpad.loopexit = landingpad { ptr, i32 }
          cleanup
  br label %ehcleanup

lpad14.loopexit.split-lp:                         ; preds = %if.then.i.i
  %lpad.loopexit.split-lp = landingpad { ptr, i32 }
          cleanup
  br label %ehcleanup

ehcleanup:                                        ; preds = %lpad14.loopexit.split-lp, %lpad14.loopexit, %lpad10
  %.pn = phi { ptr, i32 } [ %15, %lpad10 ], [ %lpad.loopexit, %lpad14.loopexit ], [ %lpad.loopexit.split-lp, %lpad14.loopexit.split-lp ]
  call void @llvm.lifetime.end.p0(i64 32, ptr nonnull %__end2) #29
  br label %ehcleanup25

ehcleanup25:                                      ; preds = %ehcleanup, %lpad8
  %.pn.pn = phi { ptr, i32 } [ %.pn, %ehcleanup ], [ %14, %lpad8 ]
  call void @llvm.lifetime.end.p0(i64 32, ptr nonnull %__begin2) #29
  br label %ehcleanup27

ehcleanup27:                                      ; preds = %ehcleanup25, %lpad3
  %.pn.pn.pn = phi { ptr, i32 } [ %.pn.pn, %ehcleanup25 ], [ %13, %lpad3 ]
  %26 = load ptr, ptr %agg.result, align 8, !tbaa !22
  %cmp.i.i.i41 = icmp eq ptr %26, %3
  br i1 %cmp.i.i.i41, label %_ZNKSt7__cxx1112basic_stringIcSt11char_traitsIcESaIcEE11_M_is_localEv.exit.thread.i.i, label %if.then.i.i42

_ZNKSt7__cxx1112basic_stringIcSt11char_traitsIcESaIcEE11_M_is_localEv.exit.thread.i.i: ; preds = %ehcleanup27
  %27 = load i64, ptr %_M_string_length.i.i.i, align 8, !tbaa !18
  %cmp3.i.i.i = icmp ult i64 %27, 16
  call void @llvm.assume(i1 %cmp3.i.i.i)
  br label %_ZNSt7__cxx1112basic_stringIcSt11char_traitsIcESaIcEED2Ev.exit

if.then.i.i42:                                    ; preds = %ehcleanup27
  call void @_ZdlPv(ptr noundef %26) #30
  br label %_ZNSt7__cxx1112basic_stringIcSt11char_traitsIcESaIcEED2Ev.exit

_ZNSt7__cxx1112basic_stringIcSt11char_traitsIcESaIcEED2Ev.exit: ; preds = %if.then.i.i42, %_ZNKSt7__cxx1112basic_stringIcSt11char_traitsIcESaIcEE11_M_is_localEv.exit.thread.i.i
  call void @_ZNSt10unique_ptrIN5folly5IOBufESt14default_deleteIS1_EED2Ev(ptr noundef nonnull align 8 dereferenceable(8) %outputBuffer) #29
  br label %ehcleanup29

ehcleanup29:                                      ; preds = %_ZNSt7__cxx1112basic_stringIcSt11char_traitsIcESaIcEED2Ev.exit, %lpad
  %.pn.pn.pn.pn = phi { ptr, i32 } [ %.pn.pn.pn, %_ZNSt7__cxx1112basic_stringIcSt11char_traitsIcESaIcEED2Ev.exit ], [ %12, %lpad ]
  call void @llvm.lifetime.end.p0(i64 8, ptr nonnull %outputBuffer) #29
  call void @_ZN5folly5IOBufD1Ev(ptr noundef nonnull align 8 dereferenceable(56) %inputBuffer) #29
  call void @llvm.lifetime.end.p0(i64 56, ptr nonnull %inputBuffer) #29
  resume { ptr, i32 } %.pn.pn.pn.pn
}

; Function Attrs: mustprogress nofree norecurse nosync nounwind willreturn memory(argmem: readwrite) uwtable
define void @_ZNK5folly2io5Codec23doGetUncompressedLengthEPKNS_5IOBufENS_8OptionalImEE(ptr noalias nocapture writeonly sret(%"class.folly::Optional") align 8 %agg.result, ptr nocapture nonnull readnone align 8 %this, ptr nocapture readnone %0, ptr nocapture noundef %uncompressedLength) unnamed_addr #4 align 2 personality ptr @__gxx_personality_v0 {
entry:
  store i8 0, ptr %agg.result, align 8, !tbaa !21
  %hasValue.i.i = getelementptr inbounds %"struct.folly::Optional<unsigned long>::StorageTriviallyDestructible", ptr %agg.result, i64 0, i32 1
  store i8 0, ptr %hasValue.i.i, align 8, !tbaa !23
  %hasValue.i.i.i = getelementptr inbounds %"struct.folly::Optional<unsigned long>::StorageTriviallyDestructible", ptr %uncompressedLength, i64 0, i32 1
  %1 = load i8, ptr %hasValue.i.i.i, align 8, !tbaa !26, !range !28, !noundef !29
  %tobool.i.i.not.i = icmp eq i8 %1, 0
  br i1 %tobool.i.i.not.i, label %_ZN5folly8OptionalImEC2EOS1_.exit, label %invoke.cont2.i

invoke.cont2.i:                                   ; preds = %entry
  %2 = load i64, ptr %uncompressedLength, align 8, !tbaa !30
  store i64 %2, ptr %agg.result, align 8, !tbaa !30
  store i8 1, ptr %hasValue.i.i, align 8, !tbaa !26
  store i8 0, ptr %hasValue.i.i.i, align 8, !tbaa !23
  br label %_ZN5folly8OptionalImEC2EOS1_.exit

_ZN5folly8OptionalImEC2EOS1_.exit:                ; preds = %invoke.cont2.i, %entry
  ret void
}

; Function Attrs: mustprogress nounwind uwtable
define linkonce_odr void @_ZN5folly2io5CodecD2Ev(ptr noundef nonnull align 8 dereferenceable(12) %this) unnamed_addr #0 comdat align 2 {
entry:
  ret void
}

; Function Attrs: mustprogress nounwind uwtable
define linkonce_odr void @_ZN5folly2io11StreamCodecD0Ev(ptr noundef nonnull align 8 dereferenceable(49) %this) unnamed_addr #0 comdat align 2 {
entry:
  tail call void @llvm.trap() #28
  unreachable
}

; Function Attrs: mustprogress uwtable
define void @_ZN5folly2io11StreamCodec10doCompressEPKNS_5IOBufE(ptr noalias sret(%"class.std::unique_ptr") align 8 %agg.result, ptr noundef nonnull align 8 dereferenceable(49) %this, ptr noundef nonnull %data) unnamed_addr #3 align 2 personality ptr @__gxx_personality_v0 {
_ZNKR5folly8OptionalImE5valueEv.exit.i.i.i:
  %output = alloca %"class.folly::Range.14", align 8
  %input = alloca %"class.folly::Range.9", align 8
  %ref.tmp24 = alloca %"class.std::unique_ptr", align 8
  %call = tail call noundef i64 @_ZNK5folly5IOBuf22computeChainDataLengthEv(ptr noundef nonnull align 8 dereferenceable(56) %data)
  %state_.i = getelementptr inbounds %"class.folly::io::StreamCodec", ptr %this, i64 0, i32 1
  store i32 0, ptr %state_.i, align 4, !tbaa !40
  %uncompressedLength_.i = getelementptr inbounds %"class.folly::io::StreamCodec", ptr %this, i64 0, i32 3
  %hasValue.i.i5.i.i.i = getelementptr inbounds %"class.folly::io::StreamCodec", ptr %this, i64 0, i32 3, i32 0, i32 1
  %0 = load i8, ptr %hasValue.i.i5.i.i.i, align 8, !tbaa !26, !range !28, !noundef !29
  %tobool.i.i.not.i.i.i.i = icmp eq i8 %0, 0
  br i1 %tobool.i.i.not.i.i.i.i, label %if.else.i.i.i.i, label %_ZN5folly2io11StreamCodec11resetStreamENS_8OptionalImEE.exit

if.else.i.i.i.i:                                  ; preds = %_ZNKR5folly8OptionalImE5valueEv.exit.i.i.i
  store i8 1, ptr %hasValue.i.i5.i.i.i, align 8, !tbaa !26
  br label %_ZN5folly2io11StreamCodec11resetStreamENS_8OptionalImEE.exit

_ZN5folly2io11StreamCodec11resetStreamENS_8OptionalImEE.exit: ; preds = %if.else.i.i.i.i, %_ZNKR5folly8OptionalImE5valueEv.exit.i.i.i
  store i64 %call, ptr %uncompressedLength_.i, align 8
  %progressMade_.i = getelementptr inbounds %"class.folly::io::StreamCodec", ptr %this, i64 0, i32 4
  store i8 1, ptr %progressMade_.i, align 8, !tbaa !45
  %vtable.i = load ptr, ptr %this, align 8, !tbaa !7
  %vfn.i = getelementptr inbounds ptr, ptr %vtable.i, i64 13
  %1 = load ptr, ptr %vfn.i, align 8
  tail call void %1(ptr noundef nonnull align 8 dereferenceable(49) %this)
  %vtable.i167 = load ptr, ptr %this, align 8, !tbaa !7
  %vfn.i168 = getelementptr inbounds ptr, ptr %vtable.i167, i64 10
  %2 = load ptr, ptr %vfn.i168, align 8
  %call.i = tail call noundef i64 %2(ptr noundef nonnull align 8 dereferenceable(12) %this, i64 noundef %call)
  call void @llvm.lifetime.start.p0(i64 16, ptr nonnull %output) #29
  %cmp = icmp ult i64 %call.i, 67108865
  %cond = select i1 %cmp, i64 %call.i, i64 4194304
  tail call void @llvm.experimental.noalias.scope.decl(metadata !46)
  tail call void @_ZN5folly5IOBuf6createEm(ptr sret(%"class.std::unique_ptr") align 8 %agg.result, i64 noundef %cond)
  %3 = load ptr, ptr %agg.result, align 8, !tbaa !10, !alias.scope !46
  %capacity_.i.i = getelementptr inbounds %"class.folly::IOBuf", ptr %3, i64 0, i32 2
  %4 = load i64, ptr %capacity_.i.i, align 8, !tbaa !49
  %5 = load i64, ptr %3, align 8, !tbaa !39
  %add.i.i = add i64 %5, %4
  store i64 %add.i.i, ptr %3, align 8, !tbaa !39
  %data_.i.i = getelementptr inbounds %"class.folly::IOBuf", ptr %3, i64 0, i32 1
  %6 = load ptr, ptr %data_.i.i, align 8, !tbaa !38
  %add.ptr.i.i = getelementptr inbounds i8, ptr %6, i64 %add.i.i
  store ptr %6, ptr %output, align 8, !tbaa.struct !31, !noalias !46
  %ref.tmp21.sroa.4.0.output.sroa_idx.i = getelementptr inbounds i8, ptr %output, i64 8
  store ptr %add.ptr.i.i, ptr %ref.tmp21.sroa.4.0.output.sroa_idx.i, align 8, !tbaa.struct !32, !noalias !46
  call void @llvm.lifetime.start.p0(i64 16, ptr nonnull %input) #29
  %data_.i = getelementptr inbounds %"class.folly::IOBuf", ptr %data, i64 0, i32 1
  %7 = load ptr, ptr %data_.i, align 8, !tbaa !38
  %8 = load i64, ptr %data, align 8, !tbaa !39
  store ptr %7, ptr %input, align 8, !tbaa !50
  %e_.i = getelementptr inbounds %"class.folly::Range.9", ptr %input, i64 0, i32 1
  %add.ptr.i = getelementptr inbounds i8, ptr %7, i64 %8
  store ptr %add.ptr.i, ptr %e_.i, align 8, !tbaa !51
  br label %while.cond

while.cond:                                       ; preds = %if.end29, %_ZN5folly2io11StreamCodec11resetStreamENS_8OptionalImEE.exit
  %current.0 = phi ptr [ %data, %_ZN5folly2io11StreamCodec11resetStreamENS_8OptionalImEE.exit ], [ %current.1.lcssa, %if.end29 ]
  %flushOp.0 = phi i32 [ 0, %_ZN5folly2io11StreamCodec11resetStreamENS_8OptionalImEE.exit ], [ %spec.select, %if.end29 ]
  %done.0 = phi i1 [ false, %_ZN5folly2io11StreamCodec11resetStreamENS_8OptionalImEE.exit ], [ %call31, %if.end29 ]
  br i1 %done.0, label %invoke.cont141, label %while.cond6.preheader

while.cond6.preheader:                            ; preds = %while.cond
  %input.promoted = load ptr, ptr %input, align 8
  %e_.i.promoted = load ptr, ptr %e_.i, align 8
  %cmp.i185 = icmp eq ptr %input.promoted, %e_.i.promoted
  br i1 %cmp.i185, label %land.rhs, label %while.end

land.rhs:                                         ; preds = %while.cond6.preheader, %while.body10
  %current.1186 = phi ptr [ %9, %while.body10 ], [ %current.0, %while.cond6.preheader ]
  %next_.i = getelementptr inbounds %"class.folly::IOBuf", ptr %current.1186, i64 0, i32 4
  %9 = load ptr, ptr %next_.i, align 8, !tbaa !36
  %cmp9.not = icmp eq ptr %9, %data
  br i1 %cmp9.not, label %while.end, label %while.body10

while.body10:                                     ; preds = %land.rhs
  %data_.i171 = getelementptr inbounds %"class.folly::IOBuf", ptr %9, i64 0, i32 1
  %10 = load ptr, ptr %data_.i171, align 8, !tbaa !38
  %11 = load i64, ptr %9, align 8, !tbaa !39
  %add.ptr.i173 = getelementptr inbounds i8, ptr %10, i64 %11
  store ptr %10, ptr %input, align 8, !tbaa.struct !31
  store ptr %add.ptr.i173, ptr %e_.i, align 8, !tbaa.struct !32
  %cmp.i = icmp eq i64 %11, 0
  br i1 %cmp.i, label %land.rhs, label %while.end, !llvm.loop !52

while.end:                                        ; preds = %while.body10, %land.rhs, %while.cond6.preheader
  %current.1.lcssa = phi ptr [ %current.0, %while.cond6.preheader ], [ %current.1186, %land.rhs ], [ %9, %while.body10 ]
  %next_.i174 = getelementptr inbounds %"class.folly::IOBuf", ptr %current.1.lcssa, i64 0, i32 4
  %12 = load ptr, ptr %next_.i174, align 8, !tbaa !36
  %cmp18 = icmp eq ptr %12, %data
  %spec.select = select i1 %cmp18, i32 2, i32 %flushOp.0
  %13 = load ptr, ptr %output, align 8, !tbaa !54
  %14 = load ptr, ptr %ref.tmp21.sroa.4.0.output.sroa_idx.i, align 8, !tbaa !56
  %cmp.i176 = icmp eq ptr %13, %14
  br i1 %cmp.i176, label %if.then22, label %if.end29

if.then22:                                        ; preds = %while.end
  %15 = load ptr, ptr %agg.result, align 8, !tbaa !10
  call void @llvm.lifetime.start.p0(i64 8, ptr nonnull %ref.tmp24) #29
  call void @llvm.experimental.noalias.scope.decl(metadata !57)
  invoke void @_ZN5folly5IOBuf6createEm(ptr nonnull sret(%"class.std::unique_ptr") align 8 %ref.tmp24, i64 noundef 4194304)
          to label %invoke.cont26 unwind label %lpad25

invoke.cont26:                                    ; preds = %if.then22
  %16 = load ptr, ptr %ref.tmp24, align 8, !tbaa !10, !alias.scope !57
  %capacity_.i.i177 = getelementptr inbounds %"class.folly::IOBuf", ptr %16, i64 0, i32 2
  %17 = load i64, ptr %capacity_.i.i177, align 8, !tbaa !49
  %18 = load i64, ptr %16, align 8, !tbaa !39
  %add.i.i178 = add i64 %18, %17
  store i64 %add.i.i178, ptr %16, align 8, !tbaa !39
  %data_.i.i179 = getelementptr inbounds %"class.folly::IOBuf", ptr %16, i64 0, i32 1
  %19 = load ptr, ptr %data_.i.i179, align 8, !tbaa !38
  %add.ptr.i.i180 = getelementptr inbounds i8, ptr %19, i64 %add.i.i178
  store ptr %19, ptr %output, align 8, !tbaa.struct !31, !noalias !57
  store ptr %add.ptr.i.i180, ptr %ref.tmp21.sroa.4.0.output.sroa_idx.i, align 8, !tbaa.struct !32, !noalias !57
  invoke void @_ZN5folly5IOBuf13appendToChainEOSt10unique_ptrIS0_St14default_deleteIS0_EE(ptr noundef nonnull align 8 dereferenceable(56) %15, ptr noundef nonnull align 8 dereferenceable(8) %ref.tmp24)
          to label %invoke.cont28 unwind label %lpad27

invoke.cont28:                                    ; preds = %invoke.cont26
  %20 = load ptr, ptr %ref.tmp24, align 8, !tbaa !10
  %cmp.not.i = icmp eq ptr %20, null
  br i1 %cmp.not.i, label %_ZNSt10unique_ptrIN5folly5IOBufESt14default_deleteIS1_EED2Ev.exit, label %_ZNKSt14default_deleteIN5folly5IOBufEEclEPS1_.exit.i

_ZNKSt14default_deleteIN5folly5IOBufEEclEPS1_.exit.i: ; preds = %invoke.cont28
  call void @_ZN5folly5IOBufD1Ev(ptr noundef nonnull align 8 dereferenceable(56) %20) #29
  call void @_ZN5folly5IOBufdlEPv(ptr noundef nonnull %20) #29
  br label %_ZNSt10unique_ptrIN5folly5IOBufESt14default_deleteIS1_EED2Ev.exit

_ZNSt10unique_ptrIN5folly5IOBufESt14default_deleteIS1_EED2Ev.exit: ; preds = %_ZNKSt14default_deleteIN5folly5IOBufEEclEPS1_.exit.i, %invoke.cont28
  call void @llvm.lifetime.end.p0(i64 8, ptr nonnull %ref.tmp24) #29
  br label %if.end29

lpad19:                                           ; preds = %if.end29
  %21 = landingpad { ptr, i32 }
          cleanup
  br label %ehcleanup142

lpad25:                                           ; preds = %if.then22
  %22 = landingpad { ptr, i32 }
          cleanup
  br label %ehcleanup

lpad27:                                           ; preds = %invoke.cont26
  %23 = landingpad { ptr, i32 }
          cleanup
  call void @_ZNSt10unique_ptrIN5folly5IOBufESt14default_deleteIS1_EED2Ev(ptr noundef nonnull align 8 dereferenceable(8) %ref.tmp24) #29
  br label %ehcleanup

ehcleanup:                                        ; preds = %lpad27, %lpad25
  %.pn = phi { ptr, i32 } [ %23, %lpad27 ], [ %22, %lpad25 ]
  call void @llvm.lifetime.end.p0(i64 8, ptr nonnull %ref.tmp24) #29
  br label %ehcleanup142

if.end29:                                         ; preds = %_ZNSt10unique_ptrIN5folly5IOBufESt14default_deleteIS1_EED2Ev.exit, %while.end
  %call31 = invoke noundef zeroext i1 @_ZN5folly2io11StreamCodec14compressStreamERNS_5RangeIPKhEERNS2_IPhEENS1_7FlushOpE(ptr noundef nonnull align 8 dereferenceable(49) %this, ptr noundef nonnull align 8 dereferenceable(16) %input, ptr noundef nonnull align 8 dereferenceable(16) %output, i32 noundef %spec.select)
          to label %while.cond unwind label %lpad19, !llvm.loop !60

invoke.cont141:                                   ; preds = %while.cond
  %24 = load ptr, ptr %agg.result, align 8, !tbaa !10
  %prev_.i = getelementptr inbounds %"class.folly::IOBuf", ptr %24, i64 0, i32 5
  %25 = load ptr, ptr %prev_.i, align 8, !tbaa !61
  %26 = load ptr, ptr %ref.tmp21.sroa.4.0.output.sroa_idx.i, align 8, !tbaa !56
  %27 = load ptr, ptr %output, align 8, !tbaa !54
  %sub.ptr.lhs.cast.i = ptrtoint ptr %26 to i64
  %sub.ptr.rhs.cast.i = ptrtoint ptr %27 to i64
  %sub.ptr.sub.i.neg = sub i64 %sub.ptr.rhs.cast.i, %sub.ptr.lhs.cast.i
  %28 = load i64, ptr %25, align 8, !tbaa !39
  %sub.i = add i64 %sub.ptr.sub.i.neg, %28
  store i64 %sub.i, ptr %25, align 8, !tbaa !39
  call void @llvm.lifetime.end.p0(i64 16, ptr nonnull %input) #29
  call void @llvm.lifetime.end.p0(i64 16, ptr nonnull %output) #29
  ret void

ehcleanup142:                                     ; preds = %ehcleanup, %lpad19
  %.pn165 = phi { ptr, i32 } [ %21, %lpad19 ], [ %.pn, %ehcleanup ]
  call void @llvm.lifetime.end.p0(i64 16, ptr nonnull %input) #29
  call void @_ZNSt10unique_ptrIN5folly5IOBufESt14default_deleteIS1_EED2Ev(ptr noundef nonnull align 8 dereferenceable(8) %agg.result) #29
  call void @llvm.lifetime.end.p0(i64 16, ptr nonnull %output) #29
  resume { ptr, i32 } %.pn165
}

; Function Attrs: mustprogress uwtable
define void @_ZN5folly2io11StreamCodec12doUncompressEPKNS_5IOBufENS_8OptionalImEE(ptr noalias sret(%"class.std::unique_ptr") align 8 %agg.result, ptr noundef nonnull align 8 dereferenceable(49) %this, ptr noundef nonnull %data, ptr noundef %uncompressedLength) unnamed_addr #3 align 2 personality ptr @__gxx_personality_v0 {
entry:
  %ref.tmp = alloca %"class.folly::Optional", align 8
  %agg.tmp = alloca %"class.folly::Optional", align 8
  %output = alloca %"class.folly::Range.14", align 8
  %input = alloca %"class.folly::Range.9", align 8
  %ref.tmp26 = alloca %"class.std::unique_ptr", align 8
  %call = tail call noundef i64 @_ZNK5folly5IOBuf22computeChainDataLengthEv(ptr noundef nonnull align 8 dereferenceable(56) %data)
  %.sroa.speculated6.i = tail call i64 @llvm.umax.i64(i64 %call, i64 131072)
  %mul.i = shl i64 %.sroa.speculated6.i, 2
  %.sroa.speculated.i = tail call noundef i64 @llvm.umin.i64(i64 %mul.i, i64 4194304)
  call void @llvm.lifetime.start.p0(i64 16, ptr nonnull %ref.tmp) #29
  store i8 0, ptr %agg.tmp, align 8, !tbaa !21
  %hasValue.i.i = getelementptr inbounds %"struct.folly::Optional<unsigned long>::StorageTriviallyDestructible", ptr %agg.tmp, i64 0, i32 1
  store i8 0, ptr %hasValue.i.i, align 8, !tbaa !23
  %hasValue.i.i.i = getelementptr inbounds %"struct.folly::Optional<unsigned long>::StorageTriviallyDestructible", ptr %uncompressedLength, i64 0, i32 1
  %0 = load i8, ptr %hasValue.i.i.i, align 8, !tbaa !26, !range !28, !noundef !29
  %tobool.i.i.not.i = icmp eq i8 %0, 0
  br i1 %tobool.i.i.not.i, label %_ZN5folly8OptionalImEC2ERKS1_.exit, label %invoke.cont2.i

invoke.cont2.i:                                   ; preds = %entry
  %1 = load i64, ptr %uncompressedLength, align 8, !tbaa !30
  store i64 %1, ptr %agg.tmp, align 8, !tbaa !30
  store i8 1, ptr %hasValue.i.i, align 8, !tbaa !26
  br label %_ZN5folly8OptionalImEC2ERKS1_.exit

_ZN5folly8OptionalImEC2ERKS1_.exit:               ; preds = %invoke.cont2.i, %entry
  call void @_ZNK5folly2io5Codec21getUncompressedLengthEPKNS_5IOBufENS_8OptionalImEE(ptr nonnull sret(%"class.folly::Optional") align 8 %ref.tmp, ptr noundef nonnull align 8 dereferenceable(12) %this, ptr noundef nonnull %data, ptr noundef nonnull %agg.tmp)
  %cmp.not.i.i = icmp eq ptr %ref.tmp, %uncompressedLength
  br i1 %cmp.not.i.i, label %_ZN5folly8OptionalImEaSEOS1_.exit, label %if.then.i.i

if.then.i.i:                                      ; preds = %_ZN5folly8OptionalImEC2ERKS1_.exit
  %hasValue.i.i.i.i = getelementptr inbounds %"struct.folly::Optional<unsigned long>::StorageTriviallyDestructible", ptr %ref.tmp, i64 0, i32 1
  %2 = load i8, ptr %hasValue.i.i.i.i, align 8, !tbaa !26, !range !28, !noundef !29
  %tobool.i.i.not.i.i = icmp eq i8 %2, 0
  br i1 %tobool.i.i.not.i.i, label %if.end4.sink.split.i.i, label %_ZNR5folly8OptionalImE5valueEv.exit.i.i

_ZNR5folly8OptionalImE5valueEv.exit.i.i:          ; preds = %if.then.i.i
  %3 = load i8, ptr %hasValue.i.i.i, align 8, !tbaa !26, !range !28, !noundef !29
  %tobool.i.i.not.i.i.i = icmp eq i8 %3, 0
  %4 = load i64, ptr %ref.tmp, align 8, !tbaa !30
  br i1 %tobool.i.i.not.i.i.i, label %if.else.i.i.i, label %_ZN5folly8OptionalImE6assignEOm.exit.i.i

if.else.i.i.i:                                    ; preds = %_ZNR5folly8OptionalImE5valueEv.exit.i.i
  store i8 1, ptr %hasValue.i.i.i, align 8, !tbaa !26
  br label %_ZN5folly8OptionalImE6assignEOm.exit.i.i

_ZN5folly8OptionalImE6assignEOm.exit.i.i:         ; preds = %if.else.i.i.i, %_ZNR5folly8OptionalImE5valueEv.exit.i.i
  store i64 %4, ptr %uncompressedLength, align 8
  br label %if.end4.sink.split.i.i

if.end4.sink.split.i.i:                           ; preds = %_ZN5folly8OptionalImE6assignEOm.exit.i.i, %if.then.i.i
  %hasValue.i.i.sink.i.i = phi ptr [ %hasValue.i.i.i.i, %_ZN5folly8OptionalImE6assignEOm.exit.i.i ], [ %hasValue.i.i.i, %if.then.i.i ]
  store i8 0, ptr %hasValue.i.i.sink.i.i, align 8, !tbaa !23
  br label %_ZN5folly8OptionalImEaSEOS1_.exit

_ZN5folly8OptionalImEaSEOS1_.exit:                ; preds = %if.end4.sink.split.i.i, %_ZN5folly8OptionalImEC2ERKS1_.exit
  call void @llvm.lifetime.end.p0(i64 16, ptr nonnull %ref.tmp) #29
  %5 = load i8, ptr %hasValue.i.i.i, align 8, !tbaa !26, !range !28, !noundef !29
  %tobool.i.i.not.i86 = icmp eq i8 %5, 0
  br i1 %tobool.i.i.not.i86, label %if.else.i.i.i90, label %_ZNKR5folly8OptionalImE5valueEv.exit.i.i.i

_ZNKR5folly8OptionalImE5valueEv.exit.i.i.i:       ; preds = %_ZN5folly8OptionalImEaSEOS1_.exit
  %6 = load i64, ptr %uncompressedLength, align 8, !tbaa !30
  %state_.i = getelementptr inbounds %"class.folly::io::StreamCodec", ptr %this, i64 0, i32 1
  store i32 0, ptr %state_.i, align 4, !tbaa !40
  %uncompressedLength_.i = getelementptr inbounds %"class.folly::io::StreamCodec", ptr %this, i64 0, i32 3
  %hasValue.i.i5.i.i.i = getelementptr inbounds %"class.folly::io::StreamCodec", ptr %this, i64 0, i32 3, i32 0, i32 1
  %7 = load i8, ptr %hasValue.i.i5.i.i.i, align 8, !tbaa !26, !range !28, !noundef !29
  %tobool.i.i.not.i.i.i.i = icmp eq i8 %7, 0
  br i1 %tobool.i.i.not.i.i.i.i, label %if.else.i.i.i.i, label %_ZN5folly8OptionalImE6assignERKm.exit.i.i.i

if.else.i.i.i.i:                                  ; preds = %_ZNKR5folly8OptionalImE5valueEv.exit.i.i.i
  store i8 1, ptr %hasValue.i.i5.i.i.i, align 8, !tbaa !26
  br label %_ZN5folly8OptionalImE6assignERKm.exit.i.i.i

_ZN5folly8OptionalImE6assignERKm.exit.i.i.i:      ; preds = %if.else.i.i.i.i, %_ZNKR5folly8OptionalImE5valueEv.exit.i.i.i
  store i64 %6, ptr %uncompressedLength_.i, align 8
  br label %_ZN5folly2io11StreamCodec11resetStreamENS_8OptionalImEE.exit

if.else.i.i.i90:                                  ; preds = %_ZN5folly8OptionalImEaSEOS1_.exit
  %state_.i123 = getelementptr inbounds %"class.folly::io::StreamCodec", ptr %this, i64 0, i32 1
  store i32 0, ptr %state_.i123, align 4, !tbaa !40
  %hasValue.i.i5.i.i.i126 = getelementptr inbounds %"class.folly::io::StreamCodec", ptr %this, i64 0, i32 3, i32 0, i32 1
  store i8 0, ptr %hasValue.i.i5.i.i.i126, align 8, !tbaa !23
  br label %_ZN5folly2io11StreamCodec11resetStreamENS_8OptionalImEE.exit

_ZN5folly2io11StreamCodec11resetStreamENS_8OptionalImEE.exit: ; preds = %if.else.i.i.i90, %_ZN5folly8OptionalImE6assignERKm.exit.i.i.i
  %progressMade_.i = getelementptr inbounds %"class.folly::io::StreamCodec", ptr %this, i64 0, i32 4
  store i8 1, ptr %progressMade_.i, align 8, !tbaa !45
  %vtable.i = load ptr, ptr %this, align 8, !tbaa !7
  %vfn.i = getelementptr inbounds ptr, ptr %vtable.i, i64 13
  %8 = load ptr, ptr %vfn.i, align 8
  call void %8(ptr noundef nonnull align 8 dereferenceable(49) %this)
  call void @llvm.lifetime.start.p0(i64 16, ptr nonnull %output) #29
  %9 = load i8, ptr %hasValue.i.i.i, align 8, !tbaa !26, !range !28, !noundef !29
  %tobool.i.i.not = icmp eq i8 %9, 0
  br i1 %tobool.i.i.not, label %cond.end, label %_ZNR5folly8OptionalImEdeEv.exit

_ZNR5folly8OptionalImEdeEv.exit:                  ; preds = %_ZN5folly2io11StreamCodec11resetStreamENS_8OptionalImEE.exit
  %10 = load i64, ptr %uncompressedLength, align 8, !tbaa !30
  %cmp = icmp ult i64 %10, 67108865
  %spec.select128 = select i1 %cmp, i64 %10, i64 %.sroa.speculated.i
  br label %cond.end

cond.end:                                         ; preds = %_ZNR5folly8OptionalImEdeEv.exit, %_ZN5folly2io11StreamCodec11resetStreamENS_8OptionalImEE.exit
  %cond = phi i64 [ %.sroa.speculated.i, %_ZN5folly2io11StreamCodec11resetStreamENS_8OptionalImEE.exit ], [ %spec.select128, %_ZNR5folly8OptionalImEdeEv.exit ]
  call void @llvm.experimental.noalias.scope.decl(metadata !62)
  call void @_ZN5folly5IOBuf6createEm(ptr sret(%"class.std::unique_ptr") align 8 %agg.result, i64 noundef %cond)
  %11 = load ptr, ptr %agg.result, align 8, !tbaa !10, !alias.scope !62
  %capacity_.i.i = getelementptr inbounds %"class.folly::IOBuf", ptr %11, i64 0, i32 2
  %12 = load i64, ptr %capacity_.i.i, align 8, !tbaa !49
  %13 = load i64, ptr %11, align 8, !tbaa !39
  %add.i.i = add i64 %13, %12
  store i64 %add.i.i, ptr %11, align 8, !tbaa !39
  %data_.i.i = getelementptr inbounds %"class.folly::IOBuf", ptr %11, i64 0, i32 1
  %14 = load ptr, ptr %data_.i.i, align 8, !tbaa !38
  %add.ptr.i.i = getelementptr inbounds i8, ptr %14, i64 %add.i.i
  store ptr %14, ptr %output, align 8, !tbaa.struct !31, !noalias !62
  %ref.tmp21.sroa.4.0.output.sroa_idx.i = getelementptr inbounds i8, ptr %output, i64 8
  store ptr %add.ptr.i.i, ptr %ref.tmp21.sroa.4.0.output.sroa_idx.i, align 8, !tbaa.struct !32, !noalias !62
  call void @llvm.lifetime.start.p0(i64 16, ptr nonnull %input) #29
  %data_.i = getelementptr inbounds %"class.folly::IOBuf", ptr %data, i64 0, i32 1
  %15 = load ptr, ptr %data_.i, align 8, !tbaa !38
  %16 = load i64, ptr %data, align 8, !tbaa !39
  store ptr %15, ptr %input, align 8, !tbaa !50
  %e_.i = getelementptr inbounds %"class.folly::Range.9", ptr %input, i64 0, i32 1
  %add.ptr.i = getelementptr inbounds i8, ptr %15, i64 %16
  store ptr %add.ptr.i, ptr %e_.i, align 8, !tbaa !51
  br label %while.cond

while.cond:                                       ; preds = %if.end31, %cond.end
  %current.0 = phi ptr [ %data, %cond.end ], [ %current.1.lcssa, %if.end31 ]
  %flushOp.0 = phi i32 [ 0, %cond.end ], [ %spec.select, %if.end31 ]
  %done.0 = phi i1 [ false, %cond.end ], [ %call34, %if.end31 ]
  %17 = load ptr, ptr %input, align 8
  %18 = load ptr, ptr %e_.i, align 8
  %cmp.i111 = icmp eq ptr %17, %18
  br i1 %done.0, label %while.end35, label %while.cond10.preheader

while.cond10.preheader:                           ; preds = %while.cond
  br i1 %cmp.i111, label %land.rhs, label %while.end

land.rhs:                                         ; preds = %while.cond10.preheader, %while.body14
  %current.1131 = phi ptr [ %19, %while.body14 ], [ %current.0, %while.cond10.preheader ]
  %next_.i = getelementptr inbounds %"class.folly::IOBuf", ptr %current.1131, i64 0, i32 4
  %19 = load ptr, ptr %next_.i, align 8, !tbaa !36
  %cmp13.not = icmp eq ptr %19, %data
  br i1 %cmp13.not, label %while.end, label %while.body14

while.body14:                                     ; preds = %land.rhs
  %data_.i99 = getelementptr inbounds %"class.folly::IOBuf", ptr %19, i64 0, i32 1
  %20 = load ptr, ptr %data_.i99, align 8, !tbaa !38
  %21 = load i64, ptr %19, align 8, !tbaa !39
  %add.ptr.i101 = getelementptr inbounds i8, ptr %20, i64 %21
  store ptr %20, ptr %input, align 8, !tbaa.struct !31
  store ptr %add.ptr.i101, ptr %e_.i, align 8, !tbaa.struct !32
  %cmp.i = icmp eq i64 %21, 0
  br i1 %cmp.i, label %land.rhs, label %while.end, !llvm.loop !65

while.end:                                        ; preds = %while.body14, %land.rhs, %while.cond10.preheader
  %current.1.lcssa = phi ptr [ %current.0, %while.cond10.preheader ], [ %current.1131, %land.rhs ], [ %19, %while.body14 ]
  %next_.i102 = getelementptr inbounds %"class.folly::IOBuf", ptr %current.1.lcssa, i64 0, i32 4
  %22 = load ptr, ptr %next_.i102, align 8, !tbaa !36
  %cmp22 = icmp eq ptr %22, %data
  %spec.select = select i1 %cmp22, i32 2, i32 %flushOp.0
  %23 = load ptr, ptr %output, align 8, !tbaa !54
  %24 = load ptr, ptr %ref.tmp21.sroa.4.0.output.sroa_idx.i, align 8, !tbaa !56
  %cmp.i104 = icmp eq ptr %23, %24
  br i1 %cmp.i104, label %if.then24, label %if.end31

if.then24:                                        ; preds = %while.end
  %25 = load ptr, ptr %agg.result, align 8, !tbaa !10
  call void @llvm.lifetime.start.p0(i64 8, ptr nonnull %ref.tmp26) #29
  call void @llvm.experimental.noalias.scope.decl(metadata !66)
  invoke void @_ZN5folly5IOBuf6createEm(ptr nonnull sret(%"class.std::unique_ptr") align 8 %ref.tmp26, i64 noundef %.sroa.speculated.i)
          to label %invoke.cont28 unwind label %lpad27

invoke.cont28:                                    ; preds = %if.then24
  %26 = load ptr, ptr %ref.tmp26, align 8, !tbaa !10, !alias.scope !66
  %capacity_.i.i105 = getelementptr inbounds %"class.folly::IOBuf", ptr %26, i64 0, i32 2
  %27 = load i64, ptr %capacity_.i.i105, align 8, !tbaa !49
  %28 = load i64, ptr %26, align 8, !tbaa !39
  %add.i.i106 = add i64 %28, %27
  store i64 %add.i.i106, ptr %26, align 8, !tbaa !39
  %data_.i.i107 = getelementptr inbounds %"class.folly::IOBuf", ptr %26, i64 0, i32 1
  %29 = load ptr, ptr %data_.i.i107, align 8, !tbaa !38
  %add.ptr.i.i108 = getelementptr inbounds i8, ptr %29, i64 %add.i.i106
  store ptr %29, ptr %output, align 8, !tbaa.struct !31, !noalias !66
  store ptr %add.ptr.i.i108, ptr %ref.tmp21.sroa.4.0.output.sroa_idx.i, align 8, !tbaa.struct !32, !noalias !66
  invoke void @_ZN5folly5IOBuf13appendToChainEOSt10unique_ptrIS0_St14default_deleteIS0_EE(ptr noundef nonnull align 8 dereferenceable(56) %25, ptr noundef nonnull align 8 dereferenceable(8) %ref.tmp26)
          to label %invoke.cont30 unwind label %lpad29

invoke.cont30:                                    ; preds = %invoke.cont28
  %30 = load ptr, ptr %ref.tmp26, align 8, !tbaa !10
  %cmp.not.i = icmp eq ptr %30, null
  br i1 %cmp.not.i, label %_ZNSt10unique_ptrIN5folly5IOBufESt14default_deleteIS1_EED2Ev.exit, label %_ZNKSt14default_deleteIN5folly5IOBufEEclEPS1_.exit.i

_ZNKSt14default_deleteIN5folly5IOBufEEclEPS1_.exit.i: ; preds = %invoke.cont30
  call void @_ZN5folly5IOBufD1Ev(ptr noundef nonnull align 8 dereferenceable(56) %30) #29
  call void @_ZN5folly5IOBufdlEPv(ptr noundef nonnull %30) #29
  br label %_ZNSt10unique_ptrIN5folly5IOBufESt14default_deleteIS1_EED2Ev.exit

_ZNSt10unique_ptrIN5folly5IOBufESt14default_deleteIS1_EED2Ev.exit: ; preds = %_ZNKSt14default_deleteIN5folly5IOBufEEclEPS1_.exit.i, %invoke.cont30
  call void @llvm.lifetime.end.p0(i64 8, ptr nonnull %ref.tmp26) #29
  br label %if.end31

lpad27:                                           ; preds = %if.then24
  %31 = landingpad { ptr, i32 }
          cleanup
  br label %ehcleanup

lpad29:                                           ; preds = %invoke.cont28
  %32 = landingpad { ptr, i32 }
          cleanup
  call void @_ZNSt10unique_ptrIN5folly5IOBufESt14default_deleteIS1_EED2Ev(ptr noundef nonnull align 8 dereferenceable(8) %ref.tmp26) #29
  br label %ehcleanup

ehcleanup:                                        ; preds = %lpad29, %lpad27
  %.pn = phi { ptr, i32 } [ %32, %lpad29 ], [ %31, %lpad27 ]
  call void @llvm.lifetime.end.p0(i64 8, ptr nonnull %ref.tmp26) #29
  br label %ehcleanup60

if.end31:                                         ; preds = %_ZNSt10unique_ptrIN5folly5IOBufESt14default_deleteIS1_EED2Ev.exit, %while.end
  %call34 = invoke noundef zeroext i1 @_ZN5folly2io11StreamCodec16uncompressStreamERNS_5RangeIPKhEERNS2_IPhEENS1_7FlushOpE(ptr noundef nonnull align 8 dereferenceable(49) %this, ptr noundef nonnull align 8 dereferenceable(16) %input, ptr noundef nonnull align 8 dereferenceable(16) %output, i32 noundef %spec.select)
          to label %while.cond unwind label %lpad32.loopexit, !llvm.loop !69

lpad32.loopexit:                                  ; preds = %if.end31
  %lpad.loopexit = landingpad { ptr, i32 }
          cleanup
  br label %ehcleanup60

lpad32.loopexit.split-lp:                         ; preds = %invoke.cont48, %invoke.cont39.invoke
  %lpad.loopexit.split-lp = landingpad { ptr, i32 }
          cleanup
  br label %ehcleanup60

while.end35:                                      ; preds = %while.cond
  br i1 %cmp.i111, label %invoke.cont45, label %if.then37

if.then37:                                        ; preds = %while.end35
  %exception = call ptr @__cxa_allocate_exception(i64 16) #29
  invoke void @_ZNSt13runtime_errorC1EPKc(ptr noundef nonnull align 8 dereferenceable(16) %exception, ptr noundef nonnull @.str.22)
          to label %invoke.cont39.invoke unwind label %lpad38

invoke.cont39.invoke:                             ; preds = %if.then54, %if.then37
  %33 = phi ptr [ %exception, %if.then37 ], [ %exception55, %if.then54 ]
  invoke void @__cxa_throw(ptr nonnull %33, ptr nonnull @_ZTISt13runtime_error, ptr nonnull @_ZNSt13runtime_errorD1Ev) #31
          to label %invoke.cont39.cont unwind label %lpad32.loopexit.split-lp

invoke.cont39.cont:                               ; preds = %invoke.cont39.invoke
  unreachable

lpad38:                                           ; preds = %if.then37
  %34 = landingpad { ptr, i32 }
          cleanup
  call void @__cxa_free_exception(ptr %exception) #29
  br label %ehcleanup60

invoke.cont45:                                    ; preds = %while.end35
  %35 = load ptr, ptr %agg.result, align 8, !tbaa !10
  %prev_.i = getelementptr inbounds %"class.folly::IOBuf", ptr %35, i64 0, i32 5
  %36 = load ptr, ptr %prev_.i, align 8, !tbaa !61
  %37 = load ptr, ptr %ref.tmp21.sroa.4.0.output.sroa_idx.i, align 8, !tbaa !56
  %38 = load ptr, ptr %output, align 8, !tbaa !54
  %sub.ptr.lhs.cast.i = ptrtoint ptr %37 to i64
  %sub.ptr.rhs.cast.i = ptrtoint ptr %38 to i64
  %sub.ptr.sub.i.neg = sub i64 %sub.ptr.rhs.cast.i, %sub.ptr.lhs.cast.i
  %39 = load i64, ptr %36, align 8, !tbaa !39
  %sub.i = add i64 %sub.ptr.sub.i.neg, %39
  store i64 %sub.i, ptr %36, align 8, !tbaa !39
  %40 = load i8, ptr %hasValue.i.i.i, align 8, !tbaa !26, !range !28, !noundef !29
  %tobool.i.i114.not = icmp eq i8 %40, 0
  br i1 %tobool.i.i114.not, label %if.end59, label %invoke.cont48

invoke.cont48:                                    ; preds = %invoke.cont45
  %41 = load i64, ptr %uncompressedLength, align 8, !tbaa !30
  %call52 = invoke noundef i64 @_ZNK5folly5IOBuf22computeChainDataLengthEv(ptr noundef nonnull align 8 dereferenceable(56) %35)
          to label %invoke.cont51 unwind label %lpad32.loopexit.split-lp

invoke.cont51:                                    ; preds = %invoke.cont48
  %cmp53.not = icmp eq i64 %41, %call52
  br i1 %cmp53.not, label %if.end59, label %if.then54

if.then54:                                        ; preds = %invoke.cont51
  %exception55 = call ptr @__cxa_allocate_exception(i64 16) #29
  invoke void @_ZNSt13runtime_errorC1EPKc(ptr noundef nonnull align 8 dereferenceable(16) %exception55, ptr noundef nonnull @.str.3)
          to label %invoke.cont39.invoke unwind label %lpad56

lpad56:                                           ; preds = %if.then54
  %42 = landingpad { ptr, i32 }
          cleanup
  call void @__cxa_free_exception(ptr %exception55) #29
  br label %ehcleanup60

if.end59:                                         ; preds = %invoke.cont51, %invoke.cont45
  call void @llvm.lifetime.end.p0(i64 16, ptr nonnull %input) #29
  call void @llvm.lifetime.end.p0(i64 16, ptr nonnull %output) #29
  ret void

ehcleanup60:                                      ; preds = %lpad56, %lpad38, %lpad32.loopexit.split-lp, %lpad32.loopexit, %ehcleanup
  %.pn82 = phi { ptr, i32 } [ %.pn, %ehcleanup ], [ %42, %lpad56 ], [ %34, %lpad38 ], [ %lpad.loopexit, %lpad32.loopexit ], [ %lpad.loopexit.split-lp, %lpad32.loopexit.split-lp ]
  call void @llvm.lifetime.end.p0(i64 16, ptr nonnull %input) #29
  call void @_ZNSt10unique_ptrIN5folly5IOBufESt14default_deleteIS1_EED2Ev(ptr noundef nonnull align 8 dereferenceable(8) %agg.result) #29
  call void @llvm.lifetime.end.p0(i64 16, ptr nonnull %output) #29
  resume { ptr, i32 } %.pn82
}

; Function Attrs: mustprogress nofree norecurse nosync nounwind willreturn memory(none) uwtable
define noundef zeroext i1 @_ZNK5folly2io11StreamCodec17doNeedsDataLengthEv(ptr nocapture nonnull readnone align 8 %this) unnamed_addr #2 align 2 {
entry:
  ret i1 false
}

; Function Attrs: mustprogress nofree norecurse nosync nounwind willreturn memory(argmem: write) uwtable
define void @_ZN5folly2io5CodecC2ENS0_9CodecTypeENS_8OptionalIiEENS_5RangeIPKcEE(ptr nocapture noundef nonnull writeonly align 8 dereferenceable(12) %this, i32 noundef %type, ptr nocapture noundef readnone %0, ptr nocapture readnone %.coerce0, ptr nocapture readnone %.coerce1) unnamed_addr #1 align 2 {
entry:
  store ptr getelementptr inbounds ({ [14 x ptr] }, ptr @_ZTVN5folly2io5CodecE, i64 0, inrange i32 0, i64 2), ptr %this, align 8, !tbaa !7
  %type_ = getelementptr inbounds %"class.folly::io::Codec", ptr %this, i64 0, i32 1
  store i32 %type, ptr %type_, align 8, !tbaa !70
  ret void
}

; Function Attrs: mustprogress uwtable
define void @_ZN5folly2io5Codec8compressEPKNS_5IOBufE(ptr noalias sret(%"class.std::unique_ptr") align 8 %agg.result, ptr noundef nonnull align 8 dereferenceable(12) %this, ptr noundef %data) local_unnamed_addr #3 align 2 personality ptr @__gxx_personality_v0 {
entry:
  %cmp = icmp eq ptr %data, null
  br i1 %cmp, label %if.then, label %if.end

if.then:                                          ; preds = %entry
  %exception = tail call ptr @__cxa_allocate_exception(i64 16) #29
  invoke void @_ZNSt16invalid_argumentC1EPKc(ptr noundef nonnull align 8 dereferenceable(16) %exception, ptr noundef nonnull @.str)
          to label %invoke.cont unwind label %lpad

invoke.cont:                                      ; preds = %if.then
  tail call void @__cxa_throw(ptr nonnull %exception, ptr nonnull @_ZTISt16invalid_argument, ptr nonnull @_ZNSt16invalid_argumentD1Ev) #31
  unreachable

lpad:                                             ; preds = %if.then
  %0 = landingpad { ptr, i32 }
          cleanup
  br label %eh.resume

if.end:                                           ; preds = %entry
  %call = tail call noundef i64 @_ZNK5folly5IOBuf22computeChainDataLengthEv(ptr noundef nonnull align 8 dereferenceable(56) %data)
  %vtable.i = load ptr, ptr %this, align 8, !tbaa !7
  %vfn.i = getelementptr inbounds ptr, ptr %vtable.i, i64 4
  %1 = load ptr, ptr %vfn.i, align 8
  %call.i = tail call noundef i64 %1(ptr noundef nonnull align 8 dereferenceable(12) %this)
  %cmp3 = icmp ugt i64 %call, %call.i
  br i1 %cmp3, label %if.then4, label %if.end8

if.then4:                                         ; preds = %if.end
  %exception5 = tail call ptr @__cxa_allocate_exception(i64 16) #29
  invoke void @_ZNSt13runtime_errorC1EPKc(ptr noundef nonnull align 8 dereferenceable(16) %exception5, ptr noundef nonnull @.str.1)
          to label %invoke.cont7 unwind label %lpad6

invoke.cont7:                                     ; preds = %if.then4
  tail call void @__cxa_throw(ptr nonnull %exception5, ptr nonnull @_ZTISt13runtime_error, ptr nonnull @_ZNSt13runtime_errorD1Ev) #31
  unreachable

lpad6:                                            ; preds = %if.then4
  %2 = landingpad { ptr, i32 }
          cleanup
  br label %eh.resume

if.end8:                                          ; preds = %if.end
  %vtable = load ptr, ptr %this, align 8, !tbaa !7
  %vfn = getelementptr inbounds ptr, ptr %vtable, i64 6
  %3 = load ptr, ptr %vfn, align 8
  tail call void %3(ptr sret(%"class.std::unique_ptr") align 8 %agg.result, ptr noundef nonnull align 8 dereferenceable(12) %this, ptr noundef nonnull %data)
  ret void

eh.resume:                                        ; preds = %lpad6, %lpad
  %exception5.sink = phi ptr [ %exception5, %lpad6 ], [ %exception, %lpad ]
  %.pn = phi { ptr, i32 } [ %2, %lpad6 ], [ %0, %lpad ]
  tail call void @__cxa_free_exception(ptr %exception5.sink) #29
  resume { ptr, i32 } %.pn
}

declare ptr @__cxa_allocate_exception(i64) local_unnamed_addr

declare void @_ZNSt16invalid_argumentC1EPKc(ptr noundef nonnull align 8 dereferenceable(16), ptr noundef) unnamed_addr #5

declare i32 @__gxx_personality_v0(...)

declare void @__cxa_free_exception(ptr) local_unnamed_addr

; Function Attrs: nounwind
declare void @_ZNSt16invalid_argumentD1Ev(ptr noundef nonnull align 8 dereferenceable(16)) unnamed_addr #6

declare void @__cxa_throw(ptr, ptr, ptr) local_unnamed_addr

; Function Attrs: mustprogress nocallback nofree nosync nounwind willreturn memory(argmem: readwrite)
declare void @llvm.lifetime.start.p0(i64 immarg, ptr nocapture) #7

declare noundef i64 @_ZNK5folly5IOBuf22computeChainDataLengthEv(ptr noundef nonnull align 8 dereferenceable(56)) local_unnamed_addr #5

; Function Attrs: mustprogress uwtable
define noundef i64 @_ZNK5folly2io5Codec21maxUncompressedLengthEv(ptr noundef nonnull align 8 dereferenceable(12) %this) local_unnamed_addr #3 align 2 {
entry:
  %vtable = load ptr, ptr %this, align 8, !tbaa !7
  %vfn = getelementptr inbounds ptr, ptr %vtable, i64 4
  %0 = load ptr, ptr %vfn, align 8
  %call = tail call noundef i64 %0(ptr noundef nonnull align 8 dereferenceable(12) %this)
  ret i64 %call
}

declare void @_ZNSt13runtime_errorC1EPKc(ptr noundef nonnull align 8 dereferenceable(16), ptr noundef) unnamed_addr #5

; Function Attrs: nounwind
declare void @_ZNSt13runtime_errorD1Ev(ptr noundef nonnull align 8 dereferenceable(16)) unnamed_addr #6

; Function Attrs: mustprogress nocallback nofree nosync nounwind willreturn memory(argmem: readwrite)
declare void @llvm.lifetime.end.p0(i64 immarg, ptr nocapture) #7

; Function Attrs: mustprogress uwtable
define void @_ZN5folly2io5Codec8compressB5cxx11ENS_5RangeIPKcEE(ptr noalias sret(%"class.std::__cxx11::basic_string") align 8 %agg.result, ptr noundef nonnull align 8 dereferenceable(12) %this, ptr %data.coerce0, ptr %data.coerce1) local_unnamed_addr #3 align 2 personality ptr @__gxx_personality_v0 {
entry:
  %sub.ptr.lhs.cast.i = ptrtoint ptr %data.coerce1 to i64
  %sub.ptr.rhs.cast.i = ptrtoint ptr %data.coerce0 to i64
  %sub.ptr.sub.i = sub i64 %sub.ptr.lhs.cast.i, %sub.ptr.rhs.cast.i
  %vtable.i = load ptr, ptr %this, align 8, !tbaa !7
  %vfn.i = getelementptr inbounds ptr, ptr %vtable.i, i64 4
  %0 = load ptr, ptr %vfn.i, align 8
  %call.i = tail call noundef i64 %0(ptr noundef nonnull align 8 dereferenceable(12) %this)
  %cmp = icmp ugt i64 %sub.ptr.sub.i, %call.i
  br i1 %cmp, label %if.then, label %if.end

if.then:                                          ; preds = %entry
  %exception = tail call ptr @__cxa_allocate_exception(i64 16) #29
  invoke void @_ZNSt13runtime_errorC1EPKc(ptr noundef nonnull align 8 dereferenceable(16) %exception, ptr noundef nonnull @.str.1)
          to label %invoke.cont unwind label %lpad

invoke.cont:                                      ; preds = %if.then
  tail call void @__cxa_throw(ptr nonnull %exception, ptr nonnull @_ZTISt13runtime_error, ptr nonnull @_ZNSt13runtime_errorD1Ev) #31
  unreachable

lpad:                                             ; preds = %if.then
  %1 = landingpad { ptr, i32 }
          cleanup
  tail call void @__cxa_free_exception(ptr %exception) #29
  resume { ptr, i32 } %1

if.end:                                           ; preds = %entry
  %vtable = load ptr, ptr %this, align 8, !tbaa !7
  %vfn = getelementptr inbounds ptr, ptr %vtable, i64 8
  %2 = load ptr, ptr %vfn, align 8
  tail call void %2(ptr sret(%"class.std::__cxx11::basic_string") align 8 %agg.result, ptr noundef nonnull align 8 dereferenceable(12) %this, ptr %data.coerce0, ptr %data.coerce1)
  ret void
}

; Function Attrs: mustprogress nocallback nofree nounwind willreturn memory(argmem: readwrite)
declare void @llvm.memcpy.p0.p0.i64(ptr noalias nocapture writeonly, ptr noalias nocapture readonly, i64, i1 immarg) #8

; Function Attrs: mustprogress uwtable
define void @_ZN5folly2io5Codec10uncompressEPKNS_5IOBufENS_8OptionalImEE(ptr noalias sret(%"class.std::unique_ptr") align 8 %agg.result, ptr noundef nonnull align 8 dereferenceable(12) %this, ptr noundef %data, ptr nocapture noundef readonly %uncompressedLength) local_unnamed_addr #3 align 2 personality ptr @__gxx_personality_v0 {
entry:
  %agg.tmp = alloca %"class.folly::Optional", align 8
  %cmp = icmp eq ptr %data, null
  br i1 %cmp, label %if.then, label %if.end

if.then:                                          ; preds = %entry
  %exception = tail call ptr @__cxa_allocate_exception(i64 16) #29
  invoke void @_ZNSt16invalid_argumentC1EPKc(ptr noundef nonnull align 8 dereferenceable(16) %exception, ptr noundef nonnull @.str)
          to label %invoke.cont unwind label %lpad

invoke.cont:                                      ; preds = %if.then
  tail call void @__cxa_throw(ptr nonnull %exception, ptr nonnull @_ZTISt16invalid_argument, ptr nonnull @_ZNSt16invalid_argumentD1Ev) #31
  unreachable

lpad:                                             ; preds = %if.then
  %0 = landingpad { ptr, i32 }
          cleanup
  br label %eh.resume

if.end:                                           ; preds = %entry
  %hasValue.i.i = getelementptr inbounds %"struct.folly::Optional<unsigned long>::StorageTriviallyDestructible", ptr %uncompressedLength, i64 0, i32 1
  %1 = load i8, ptr %hasValue.i.i, align 8, !tbaa !26, !range !28, !noundef !29
  %tobool.i.i.not = icmp eq i8 %1, 0
  br i1 %tobool.i.i.not, label %if.then2, label %_ZNR5folly8OptionalImEdeEv.exit

if.then2:                                         ; preds = %if.end
  %vtable.i = load ptr, ptr %this, align 8, !tbaa !7
  %vfn.i = getelementptr inbounds ptr, ptr %vtable.i, i64 5
  %2 = load ptr, ptr %vfn.i, align 8
  %call.i = tail call noundef zeroext i1 %2(ptr noundef nonnull align 8 dereferenceable(12) %this)
  br i1 %call.i, label %if.then4, label %if.end17

if.then4:                                         ; preds = %if.then2
  %exception5 = tail call ptr @__cxa_allocate_exception(i64 16) #29
  invoke void @_ZNSt16invalid_argumentC1EPKc(ptr noundef nonnull align 8 dereferenceable(16) %exception5, ptr noundef nonnull @.str.2)
          to label %invoke.cont7 unwind label %lpad6

invoke.cont7:                                     ; preds = %if.then4
  tail call void @__cxa_throw(ptr nonnull %exception5, ptr nonnull @_ZTISt16invalid_argument, ptr nonnull @_ZNSt16invalid_argumentD1Ev) #31
  unreachable

lpad6:                                            ; preds = %if.then4
  %3 = landingpad { ptr, i32 }
          cleanup
  br label %eh.resume

_ZNR5folly8OptionalImEdeEv.exit:                  ; preds = %if.end
  %4 = load i64, ptr %uncompressedLength, align 8, !tbaa !30
  %vtable.i32 = load ptr, ptr %this, align 8, !tbaa !7
  %vfn.i33 = getelementptr inbounds ptr, ptr %vtable.i32, i64 4
  %5 = load ptr, ptr %vfn.i33, align 8
  %call.i34 = tail call noundef i64 %5(ptr noundef nonnull align 8 dereferenceable(12) %this)
  %cmp11 = icmp ugt i64 %4, %call.i34
  br i1 %cmp11, label %if.then12, label %if.end17

if.then12:                                        ; preds = %_ZNR5folly8OptionalImEdeEv.exit
  %exception13 = tail call ptr @__cxa_allocate_exception(i64 16) #29
  invoke void @_ZNSt13runtime_errorC1EPKc(ptr noundef nonnull align 8 dereferenceable(16) %exception13, ptr noundef nonnull @.str.1)
          to label %invoke.cont15 unwind label %lpad14

invoke.cont15:                                    ; preds = %if.then12
  tail call void @__cxa_throw(ptr nonnull %exception13, ptr nonnull @_ZTISt13runtime_error, ptr nonnull @_ZNSt13runtime_errorD1Ev) #31
  unreachable

lpad14:                                           ; preds = %if.then12
  %6 = landingpad { ptr, i32 }
          cleanup
  br label %eh.resume

if.end17:                                         ; preds = %_ZNR5folly8OptionalImEdeEv.exit, %if.then2
  %call18 = tail call noundef zeroext i1 @_ZNK5folly5IOBuf5emptyEv(ptr noundef nonnull align 8 dereferenceable(56) %data)
  br i1 %call18, label %if.then19, label %if.end27

if.then19:                                        ; preds = %if.end17
  %7 = load i8, ptr %hasValue.i.i, align 8, !tbaa !26, !range !28, !noundef !29
  %tobool.not.i = icmp eq i8 %7, 0
  %8 = load i64, ptr %uncompressedLength, align 8
  %cmp21.not37 = icmp eq i64 %8, 0
  %cmp21.not = select i1 %tobool.not.i, i1 true, i1 %cmp21.not37
  br i1 %cmp21.not, label %if.end26, label %if.then22

if.then22:                                        ; preds = %if.then19
  %exception23 = tail call ptr @__cxa_allocate_exception(i64 16) #29
  invoke void @_ZNSt13runtime_errorC1EPKc(ptr noundef nonnull align 8 dereferenceable(16) %exception23, ptr noundef nonnull @.str.3)
          to label %invoke.cont25 unwind label %lpad24

invoke.cont25:                                    ; preds = %if.then22
  tail call void @__cxa_throw(ptr nonnull %exception23, ptr nonnull @_ZTISt13runtime_error, ptr nonnull @_ZNSt13runtime_errorD1Ev) #31
  unreachable

lpad24:                                           ; preds = %if.then22
  %9 = landingpad { ptr, i32 }
          cleanup
  br label %eh.resume

if.end26:                                         ; preds = %if.then19
  tail call void @_ZN5folly5IOBuf6createEm(ptr sret(%"class.std::unique_ptr") align 8 %agg.result, i64 noundef 0)
  br label %return

if.end27:                                         ; preds = %if.end17
  store i8 0, ptr %agg.tmp, align 8, !tbaa !21
  %hasValue.i.i35 = getelementptr inbounds %"struct.folly::Optional<unsigned long>::StorageTriviallyDestructible", ptr %agg.tmp, i64 0, i32 1
  store i8 0, ptr %hasValue.i.i35, align 8, !tbaa !23
  %10 = load i8, ptr %hasValue.i.i, align 8, !tbaa !26, !range !28, !noundef !29
  %tobool.i.i.not.i = icmp eq i8 %10, 0
  br i1 %tobool.i.i.not.i, label %_ZN5folly8OptionalImEC2ERKS1_.exit, label %invoke.cont2.i

invoke.cont2.i:                                   ; preds = %if.end27
  %11 = load i64, ptr %uncompressedLength, align 8, !tbaa !30
  store i64 %11, ptr %agg.tmp, align 8, !tbaa !30
  store i8 1, ptr %hasValue.i.i35, align 8, !tbaa !26
  br label %_ZN5folly8OptionalImEC2ERKS1_.exit

_ZN5folly8OptionalImEC2ERKS1_.exit:               ; preds = %invoke.cont2.i, %if.end27
  %vtable = load ptr, ptr %this, align 8, !tbaa !7
  %vfn = getelementptr inbounds ptr, ptr %vtable, i64 7
  %12 = load ptr, ptr %vfn, align 8
  call void %12(ptr sret(%"class.std::unique_ptr") align 8 %agg.result, ptr noundef nonnull align 8 dereferenceable(12) %this, ptr noundef nonnull %data, ptr noundef nonnull %agg.tmp)
  br label %return

return:                                           ; preds = %_ZN5folly8OptionalImEC2ERKS1_.exit, %if.end26
  ret void

eh.resume:                                        ; preds = %lpad24, %lpad14, %lpad6, %lpad
  %exception23.sink = phi ptr [ %exception23, %lpad24 ], [ %exception13, %lpad14 ], [ %exception5, %lpad6 ], [ %exception, %lpad ]
  %.pn = phi { ptr, i32 } [ %9, %lpad24 ], [ %6, %lpad14 ], [ %3, %lpad6 ], [ %0, %lpad ]
  tail call void @__cxa_free_exception(ptr %exception23.sink) #29
  resume { ptr, i32 } %.pn
}

; Function Attrs: mustprogress uwtable
define noundef zeroext i1 @_ZNK5folly2io5Codec23needsUncompressedLengthEv(ptr noundef nonnull align 8 dereferenceable(12) %this) local_unnamed_addr #3 align 2 {
entry:
  %vtable = load ptr, ptr %this, align 8, !tbaa !7
  %vfn = getelementptr inbounds ptr, ptr %vtable, i64 5
  %0 = load ptr, ptr %vfn, align 8
  %call = tail call noundef zeroext i1 %0(ptr noundef nonnull align 8 dereferenceable(12) %this)
  ret i1 %call
}

declare noundef zeroext i1 @_ZNK5folly5IOBuf5emptyEv(ptr noundef nonnull align 8 dereferenceable(56)) local_unnamed_addr #5

declare void @_ZN5folly5IOBuf6createEm(ptr sret(%"class.std::unique_ptr") align 8, i64 noundef) local_unnamed_addr #5

; Function Attrs: cold mustprogress noreturn optsize uwtable
define linkonce_odr void @_ZN5folly6detail16throw_exception_INS_22OptionalEmptyExceptionEJEEEvDpT0_() local_unnamed_addr #9 comdat personality ptr @__gxx_personality_v0 {
entry:
  %ref.tmp = alloca %"class.folly::OptionalEmptyException", align 8
  call void @llvm.lifetime.start.p0(i64 16, ptr nonnull %ref.tmp) #29
  call void @_ZNSt13runtime_errorC2EPKc(ptr noundef nonnull align 8 dereferenceable(16) %ref.tmp, ptr noundef nonnull @.str.4)
  store ptr getelementptr inbounds ({ [5 x ptr] }, ptr @_ZTVN5folly22OptionalEmptyExceptionE, i64 0, inrange i32 0, i64 2), ptr %ref.tmp, align 8, !tbaa !7
  invoke void @_ZN5folly15throw_exceptionINS_22OptionalEmptyExceptionEEEvOT_(ptr noundef nonnull align 8 dereferenceable(16) %ref.tmp) #32
          to label %invoke.cont unwind label %lpad

invoke.cont:                                      ; preds = %entry
  unreachable

lpad:                                             ; preds = %entry
  %0 = landingpad { ptr, i32 }
          cleanup
  call void @_ZNSt13runtime_errorD2Ev(ptr noundef nonnull align 8 dereferenceable(16) %ref.tmp) #29
  call void @llvm.lifetime.end.p0(i64 16, ptr nonnull %ref.tmp) #29
  resume { ptr, i32 } %0
}

; Function Attrs: cold mustprogress noreturn optsize uwtable
define linkonce_odr void @_ZN5folly15throw_exceptionINS_22OptionalEmptyExceptionEEEvOT_(ptr noundef nonnull align 8 dereferenceable(16) %ex) local_unnamed_addr #9 comdat {
entry:
  %exception = tail call ptr @__cxa_allocate_exception(i64 16) #29
  tail call void @_ZN5folly22OptionalEmptyExceptionC2EOS0_(ptr noundef nonnull align 8 dereferenceable(16) %exception, ptr noundef nonnull align 8 dereferenceable(16) %ex) #29
  tail call void @__cxa_throw(ptr nonnull %exception, ptr nonnull @_ZTIN5folly22OptionalEmptyExceptionE, ptr nonnull @_ZNSt13runtime_errorD2Ev) #31
  unreachable
}

; Function Attrs: nounwind
declare void @_ZNSt13runtime_errorD2Ev(ptr noundef nonnull align 8 dereferenceable(16)) unnamed_addr #6

; Function Attrs: inlinehint mustprogress nounwind uwtable
define linkonce_odr void @_ZN5folly22OptionalEmptyExceptionC2EOS0_(ptr noundef nonnull align 8 dereferenceable(16) %this, ptr noundef nonnull align 8 dereferenceable(16) %0) unnamed_addr #10 comdat align 2 {
entry:
  tail call void @_ZNSt13runtime_errorC2EOS_(ptr noundef nonnull align 8 dereferenceable(16) %this, ptr noundef nonnull align 8 dereferenceable(16) %0) #29
  store ptr getelementptr inbounds ({ [5 x ptr] }, ptr @_ZTVN5folly22OptionalEmptyExceptionE, i64 0, inrange i32 0, i64 2), ptr %this, align 8, !tbaa !7
  ret void
}

; Function Attrs: nounwind
declare void @_ZNSt13runtime_errorC2EOS_(ptr noundef nonnull align 8 dereferenceable(16), ptr noundef nonnull align 8 dereferenceable(16)) unnamed_addr #6

; Function Attrs: inlinehint mustprogress nounwind uwtable
define linkonce_odr void @_ZN5folly22OptionalEmptyExceptionD0Ev(ptr noundef nonnull align 8 dereferenceable(16) %this) unnamed_addr #10 comdat align 2 {
entry:
  tail call void @_ZNSt13runtime_errorD2Ev(ptr noundef nonnull align 8 dereferenceable(16) %this) #29
  tail call void @_ZdlPv(ptr noundef nonnull %this) #30
  ret void
}

; Function Attrs: nounwind
declare noundef ptr @_ZNKSt13runtime_error4whatEv(ptr noundef nonnull align 8 dereferenceable(16)) unnamed_addr #6

; Function Attrs: nobuiltin nounwind
declare void @_ZdlPv(ptr noundef) local_unnamed_addr #11

declare void @_ZNSt13runtime_errorC2EPKc(ptr noundef nonnull align 8 dereferenceable(16), ptr noundef) unnamed_addr #5

; Function Attrs: noreturn nounwind uwtable
define linkonce_odr hidden void @__clang_call_terminate(ptr noundef %0) local_unnamed_addr #12 comdat {
  %2 = tail call ptr @__cxa_begin_catch(ptr %0) #29
  tail call void @_ZSt9terminatev() #28
  unreachable
}

declare ptr @__cxa_begin_catch(ptr) local_unnamed_addr

declare void @_ZSt9terminatev() local_unnamed_addr

; Function Attrs: mustprogress uwtable
define void @_ZN5folly2io5Codec10uncompressB5cxx11ENS_5RangeIPKcEENS_8OptionalImEE(ptr noalias sret(%"class.std::__cxx11::basic_string") align 8 %agg.result, ptr noundef nonnull align 8 dereferenceable(12) %this, ptr %data.coerce0, ptr %data.coerce1, ptr nocapture noundef readonly %uncompressedLength) local_unnamed_addr #3 align 2 personality ptr @__gxx_personality_v0 {
entry:
  %agg.tmp25 = alloca %"class.folly::Optional", align 8
  %hasValue.i.i = getelementptr inbounds %"struct.folly::Optional<unsigned long>::StorageTriviallyDestructible", ptr %uncompressedLength, i64 0, i32 1
  %0 = load i8, ptr %hasValue.i.i, align 8, !tbaa !26, !range !28, !noundef !29
  %tobool.i.i.not = icmp eq i8 %0, 0
  br i1 %tobool.i.i.not, label %if.then, label %_ZNR5folly8OptionalImEdeEv.exit

if.then:                                          ; preds = %entry
  %vtable.i = load ptr, ptr %this, align 8, !tbaa !7
  %vfn.i = getelementptr inbounds ptr, ptr %vtable.i, i64 5
  %1 = load ptr, ptr %vfn.i, align 8
  %call.i = tail call noundef zeroext i1 %1(ptr noundef nonnull align 8 dereferenceable(12) %this)
  br i1 %call.i, label %if.then3, label %if.end11

if.then3:                                         ; preds = %if.then
  %exception = tail call ptr @__cxa_allocate_exception(i64 16) #29
  invoke void @_ZNSt16invalid_argumentC1EPKc(ptr noundef nonnull align 8 dereferenceable(16) %exception, ptr noundef nonnull @.str.2)
          to label %invoke.cont unwind label %lpad

invoke.cont:                                      ; preds = %if.then3
  tail call void @__cxa_throw(ptr nonnull %exception, ptr nonnull @_ZTISt16invalid_argument, ptr nonnull @_ZNSt16invalid_argumentD1Ev) #31
  unreachable

lpad:                                             ; preds = %if.then3
  %2 = landingpad { ptr, i32 }
          cleanup
  br label %eh.resume

_ZNR5folly8OptionalImEdeEv.exit:                  ; preds = %entry
  %3 = load i64, ptr %uncompressedLength, align 8, !tbaa !30
  %vtable.i28 = load ptr, ptr %this, align 8, !tbaa !7
  %vfn.i29 = getelementptr inbounds ptr, ptr %vtable.i28, i64 4
  %4 = load ptr, ptr %vfn.i29, align 8
  %call.i30 = tail call noundef i64 %4(ptr noundef nonnull align 8 dereferenceable(12) %this)
  %cmp = icmp ugt i64 %3, %call.i30
  br i1 %cmp, label %if.then6, label %if.end11

if.then6:                                         ; preds = %_ZNR5folly8OptionalImEdeEv.exit
  %exception7 = tail call ptr @__cxa_allocate_exception(i64 16) #29
  invoke void @_ZNSt13runtime_errorC1EPKc(ptr noundef nonnull align 8 dereferenceable(16) %exception7, ptr noundef nonnull @.str.1)
          to label %invoke.cont9 unwind label %lpad8

invoke.cont9:                                     ; preds = %if.then6
  tail call void @__cxa_throw(ptr nonnull %exception7, ptr nonnull @_ZTISt13runtime_error, ptr nonnull @_ZNSt13runtime_errorD1Ev) #31
  unreachable

lpad8:                                            ; preds = %if.then6
  %5 = landingpad { ptr, i32 }
          cleanup
  br label %eh.resume

if.end11:                                         ; preds = %_ZNR5folly8OptionalImEdeEv.exit, %if.then
  %cmp.i = icmp eq ptr %data.coerce0, %data.coerce1
  br i1 %cmp.i, label %if.then13, label %if.end24

if.then13:                                        ; preds = %if.end11
  %6 = load i8, ptr %hasValue.i.i, align 8, !tbaa !26, !range !28, !noundef !29
  %tobool.not.i = icmp eq i8 %6, 0
  %7 = load i64, ptr %uncompressedLength, align 8
  %cmp15.not34 = icmp eq i64 %7, 0
  %cmp15.not = select i1 %tobool.not.i, i1 true, i1 %cmp15.not34
  br i1 %cmp15.not, label %if.end20, label %if.then16

if.then16:                                        ; preds = %if.then13
  %exception17 = tail call ptr @__cxa_allocate_exception(i64 16) #29
  invoke void @_ZNSt13runtime_errorC1EPKc(ptr noundef nonnull align 8 dereferenceable(16) %exception17, ptr noundef nonnull @.str.3)
          to label %invoke.cont19 unwind label %lpad18

invoke.cont19:                                    ; preds = %if.then16
  tail call void @__cxa_throw(ptr nonnull %exception17, ptr nonnull @_ZTISt13runtime_error, ptr nonnull @_ZNSt13runtime_errorD1Ev) #31
  unreachable

lpad18:                                           ; preds = %if.then16
  %8 = landingpad { ptr, i32 }
          cleanup
  br label %eh.resume

if.end20:                                         ; preds = %if.then13
  %9 = getelementptr inbounds %"class.std::__cxx11::basic_string", ptr %agg.result, i64 0, i32 2
  store ptr %9, ptr %agg.result, align 8, !tbaa !13
  %_M_string_length.i.i.i.i = getelementptr inbounds %"class.std::__cxx11::basic_string", ptr %agg.result, i64 0, i32 1
  store i64 0, ptr %_M_string_length.i.i.i.i, align 8, !tbaa !18
  store i8 0, ptr %9, align 8, !tbaa !21
  br label %return

if.end24:                                         ; preds = %if.end11
  store i8 0, ptr %agg.tmp25, align 8, !tbaa !21
  %hasValue.i.i32 = getelementptr inbounds %"struct.folly::Optional<unsigned long>::StorageTriviallyDestructible", ptr %agg.tmp25, i64 0, i32 1
  store i8 0, ptr %hasValue.i.i32, align 8, !tbaa !23
  %10 = load i8, ptr %hasValue.i.i, align 8, !tbaa !26, !range !28, !noundef !29
  %tobool.i.i.not.i = icmp eq i8 %10, 0
  br i1 %tobool.i.i.not.i, label %_ZN5folly8OptionalImEC2ERKS1_.exit, label %invoke.cont2.i

invoke.cont2.i:                                   ; preds = %if.end24
  %11 = load i64, ptr %uncompressedLength, align 8, !tbaa !30
  store i64 %11, ptr %agg.tmp25, align 8, !tbaa !30
  store i8 1, ptr %hasValue.i.i32, align 8, !tbaa !26
  br label %_ZN5folly8OptionalImEC2ERKS1_.exit

_ZN5folly8OptionalImEC2ERKS1_.exit:               ; preds = %invoke.cont2.i, %if.end24
  %vtable = load ptr, ptr %this, align 8, !tbaa !7
  %vfn = getelementptr inbounds ptr, ptr %vtable, i64 9
  %12 = load ptr, ptr %vfn, align 8
  call void %12(ptr sret(%"class.std::__cxx11::basic_string") align 8 %agg.result, ptr noundef nonnull align 8 dereferenceable(12) %this, ptr %data.coerce0, ptr %data.coerce1, ptr noundef nonnull %agg.tmp25)
  br label %return

return:                                           ; preds = %_ZN5folly8OptionalImEC2ERKS1_.exit, %if.end20
  ret void

eh.resume:                                        ; preds = %lpad18, %lpad8, %lpad
  %exception17.sink = phi ptr [ %exception17, %lpad18 ], [ %exception7, %lpad8 ], [ %exception, %lpad ]
  %.pn = phi { ptr, i32 } [ %8, %lpad18 ], [ %5, %lpad8 ], [ %2, %lpad ]
  tail call void @__cxa_free_exception(ptr %exception17.sink) #29
  resume { ptr, i32 } %.pn
}

; Function Attrs: mustprogress nofree nounwind willreturn memory(argmem: read)
declare i64 @strlen(ptr nocapture noundef) local_unnamed_addr #13

declare noundef ptr @_ZNSt7__cxx1112basic_stringIcSt11char_traitsIcESaIcEE9_M_createERmm(ptr noundef nonnull align 8 dereferenceable(32), ptr noundef nonnull align 8 dereferenceable(8), i64 noundef) local_unnamed_addr #5

; Function Attrs: mustprogress nocallback nofree nounwind willreturn memory(argmem: write)
declare void @llvm.memset.p0.i64(ptr nocapture writeonly, i8, i64, i1 immarg) #14

; Function Attrs: mustprogress uwtable
define noundef zeroext i1 @_ZNK5folly2io5Codec13canUncompressENS_5RangeIPKcEENS_8OptionalImEE(ptr noundef nonnull align 8 dereferenceable(12) %this, ptr %data.coerce0, ptr %data.coerce1, ptr nocapture noundef readonly %uncompressedLength) local_unnamed_addr #3 align 2 personality ptr @__gxx_personality_v0 {
entry:
  %buf = alloca %"class.folly::IOBuf", align 8
  %agg.tmp = alloca %"class.folly::Optional", align 8
  call void @llvm.lifetime.start.p0(i64 56, ptr nonnull %buf) #29
  %sub.ptr.lhs.cast.i = ptrtoint ptr %data.coerce1 to i64
  %sub.ptr.rhs.cast.i = ptrtoint ptr %data.coerce0 to i64
  %sub.ptr.sub.i = sub i64 %sub.ptr.lhs.cast.i, %sub.ptr.rhs.cast.i
  call void @_ZN5folly5IOBuf17wrapBufferAsValueEPKvm(ptr nonnull sret(%"class.folly::IOBuf") align 8 %buf, ptr noundef %data.coerce0, i64 noundef %sub.ptr.sub.i) #29
  store i8 0, ptr %agg.tmp, align 8, !tbaa !21
  %hasValue.i.i = getelementptr inbounds %"struct.folly::Optional<unsigned long>::StorageTriviallyDestructible", ptr %agg.tmp, i64 0, i32 1
  store i8 0, ptr %hasValue.i.i, align 8, !tbaa !23
  %hasValue.i.i.i = getelementptr inbounds %"struct.folly::Optional<unsigned long>::StorageTriviallyDestructible", ptr %uncompressedLength, i64 0, i32 1
  %0 = load i8, ptr %hasValue.i.i.i, align 8, !tbaa !26, !range !28, !noundef !29
  %tobool.i.i.not.i = icmp eq i8 %0, 0
  br i1 %tobool.i.i.not.i, label %_ZN5folly8OptionalImEC2ERKS1_.exit, label %invoke.cont2.i

invoke.cont2.i:                                   ; preds = %entry
  %1 = load i64, ptr %uncompressedLength, align 8, !tbaa !30
  store i64 %1, ptr %agg.tmp, align 8, !tbaa !30
  store i8 1, ptr %hasValue.i.i, align 8, !tbaa !26
  br label %_ZN5folly8OptionalImEC2ERKS1_.exit

_ZN5folly8OptionalImEC2ERKS1_.exit:               ; preds = %invoke.cont2.i, %entry
  %vtable = load ptr, ptr %this, align 8, !tbaa !7
  %vfn = getelementptr inbounds ptr, ptr %vtable, i64 3
  %2 = load ptr, ptr %vfn, align 8
  %call3 = invoke noundef zeroext i1 %2(ptr noundef nonnull align 8 dereferenceable(12) %this, ptr noundef nonnull %buf, ptr noundef nonnull %agg.tmp)
          to label %invoke.cont unwind label %lpad

invoke.cont:                                      ; preds = %_ZN5folly8OptionalImEC2ERKS1_.exit
  call void @_ZN5folly5IOBufD1Ev(ptr noundef nonnull align 8 dereferenceable(56) %buf) #29
  call void @llvm.lifetime.end.p0(i64 56, ptr nonnull %buf) #29
  ret i1 %call3

lpad:                                             ; preds = %_ZN5folly8OptionalImEC2ERKS1_.exit
  %3 = landingpad { ptr, i32 }
          cleanup
  call void @_ZN5folly5IOBufD1Ev(ptr noundef nonnull align 8 dereferenceable(56) %buf) #29
  call void @llvm.lifetime.end.p0(i64 56, ptr nonnull %buf) #29
  resume { ptr, i32 } %3
}

; Function Attrs: nounwind
declare void @_ZN5folly5IOBuf17wrapBufferAsValueEPKvm(ptr sret(%"class.folly::IOBuf") align 8, ptr noundef, i64 noundef) local_unnamed_addr #6

; Function Attrs: nounwind
declare void @_ZN5folly5IOBufD1Ev(ptr noundef nonnull align 8 dereferenceable(56)) unnamed_addr #6

; Function Attrs: nounwind
declare void @_ZN5folly5IOBufC1ENS0_12WrapBufferOpENS_5RangeIPKhEE(ptr noundef nonnull align 8 dereferenceable(56), i32 noundef, ptr, ptr) unnamed_addr #6

; Function Attrs: mustprogress nounwind uwtable
define linkonce_odr void @_ZNSt10unique_ptrIN5folly5IOBufESt14default_deleteIS1_EED2Ev(ptr noundef nonnull align 8 dereferenceable(8) %this) unnamed_addr #0 comdat align 2 personality ptr @__gxx_personality_v0 {
entry:
  %0 = load ptr, ptr %this, align 8, !tbaa !10
  %cmp.not = icmp eq ptr %0, null
  br i1 %cmp.not, label %if.end, label %_ZNKSt14default_deleteIN5folly5IOBufEEclEPS1_.exit

_ZNKSt14default_deleteIN5folly5IOBufEEclEPS1_.exit: ; preds = %entry
  tail call void @_ZN5folly5IOBufD1Ev(ptr noundef nonnull align 8 dereferenceable(56) %0) #29
  tail call void @_ZN5folly5IOBufdlEPv(ptr noundef nonnull %0) #29
  br label %if.end

if.end:                                           ; preds = %_ZNKSt14default_deleteIN5folly5IOBufEEclEPS1_.exit, %entry
  store ptr null, ptr %this, align 8, !tbaa !10
  ret void
}

; Function Attrs: mustprogress uwtable
define linkonce_odr void @_ZNK5folly5IOBuf8appendToINSt7__cxx1112basic_stringIcSt11char_traitsIcESaIcEEEEEvRT_(ptr noundef nonnull align 8 dereferenceable(56) %this, ptr noundef nonnull align 8 dereferenceable(32) %container) local_unnamed_addr #3 comdat align 2 {
entry:
  %__begin2 = alloca %"class.folly::IOBuf::Iterator", align 16
  %__end2 = alloca %"class.folly::IOBuf::Iterator", align 16
  %_M_string_length.i = getelementptr inbounds %"class.std::__cxx11::basic_string", ptr %container, i64 0, i32 1
  %0 = load i64, ptr %_M_string_length.i, align 8, !tbaa !18
  %call2 = tail call noundef i64 @_ZNK5folly5IOBuf22computeChainDataLengthEv(ptr noundef nonnull align 8 dereferenceable(56) %this)
  %add = add i64 %call2, %0
  tail call void @_ZNSt7__cxx1112basic_stringIcSt11char_traitsIcESaIcEE7reserveEm(ptr noundef nonnull align 8 dereferenceable(32) %container, i64 noundef %add)
  call void @llvm.lifetime.start.p0(i64 32, ptr nonnull %__begin2) #29
  call void @_ZNK5folly5IOBuf6cbeginEv(ptr nonnull sret(%"class.folly::IOBuf::Iterator") align 8 %__begin2, ptr noundef nonnull align 8 dereferenceable(56) %this)
  call void @llvm.lifetime.start.p0(i64 32, ptr nonnull %__end2) #29
  call void @_ZNK5folly5IOBuf4cendEv(ptr nonnull sret(%"class.folly::IOBuf::Iterator") align 8 %__end2, ptr noundef nonnull align 8 dereferenceable(56) %this)
  %end_.i.i.i.i = getelementptr inbounds %"class.folly::IOBuf::Iterator", ptr %__begin2, i64 0, i32 1
  %end_3.i.i.i.i = getelementptr inbounds %"class.folly::IOBuf::Iterator", ptr %__end2, i64 0, i32 1
  %1 = load <2 x ptr>, ptr %__begin2, align 16
  %2 = load <2 x ptr>, ptr %__end2, align 16
  %3 = icmp ne <2 x ptr> %1, %2
  %4 = extractelement <2 x i1> %3, i64 0
  %5 = extractelement <2 x i1> %3, i64 1
  %.not.i19 = select i1 %4, i1 true, i1 %5
  br i1 %.not.i19, label %for.body.lr.ph, label %for.cond.cleanup

for.body.lr.ph:                                   ; preds = %entry
  %val_.i.i = getelementptr inbounds %"class.folly::IOBuf::Iterator", ptr %__begin2, i64 0, i32 2
  %data.sroa.4.0.val_.i.i.sroa_idx = getelementptr inbounds %"class.folly::IOBuf::Iterator", ptr %__begin2, i64 0, i32 2, i32 1
  %data.sroa.0.0.copyload.pre = load ptr, ptr %val_.i.i, align 16, !tbaa.struct !31
  %data.sroa.4.0.copyload.pre = load ptr, ptr %data.sroa.4.0.val_.i.i.sroa_idx, align 8, !tbaa.struct !32
  br label %for.body

for.cond.cleanup:                                 ; preds = %_ZN5folly6detail14IteratorFacadeINS_5IOBuf8IteratorEKNS_5RangeIPKhEESt20forward_iterator_tagEppEv.exit, %entry
  call void @llvm.lifetime.end.p0(i64 32, ptr nonnull %__end2) #29
  call void @llvm.lifetime.end.p0(i64 32, ptr nonnull %__begin2) #29
  ret void

for.body:                                         ; preds = %_ZN5folly6detail14IteratorFacadeINS_5IOBuf8IteratorEKNS_5RangeIPKhEESt20forward_iterator_tagEppEv.exit, %for.body.lr.ph
  %data.sroa.4.0.copyload = phi ptr [ %data.sroa.4.0.copyload.pre, %for.body.lr.ph ], [ %data.sroa.4.0.copyload23, %_ZN5folly6detail14IteratorFacadeINS_5IOBuf8IteratorEKNS_5RangeIPKhEESt20forward_iterator_tagEppEv.exit ]
  %data.sroa.0.0.copyload = phi ptr [ %data.sroa.0.0.copyload.pre, %for.body.lr.ph ], [ %data.sroa.0.0.copyload21, %_ZN5folly6detail14IteratorFacadeINS_5IOBuf8IteratorEKNS_5RangeIPKhEESt20forward_iterator_tagEppEv.exit ]
  %6 = load ptr, ptr %container, align 8, !tbaa !22
  %7 = load i64, ptr %_M_string_length.i, align 8, !tbaa !18
  %add.ptr.i = getelementptr inbounds i8, ptr %6, i64 %7
  %call.i.i = call noundef nonnull align 8 dereferenceable(32) ptr @_ZNSt7__cxx1112basic_stringIcSt11char_traitsIcESaIcEE19_M_replace_dispatchIPKhEERS4_N9__gnu_cxx17__normal_iteratorIPKcS4_EESD_T_SE_St12__false_type(ptr noundef nonnull align 8 dereferenceable(32) %container, ptr %add.ptr.i, ptr %add.ptr.i, ptr noundef %data.sroa.0.0.copyload, ptr noundef %data.sroa.4.0.copyload)
  %8 = load ptr, ptr %__begin2, align 16, !tbaa !33
  %next_.i.i.i = getelementptr inbounds %"class.folly::IOBuf", ptr %8, i64 0, i32 4
  %9 = load ptr, ptr %next_.i.i.i, align 8, !tbaa !36
  store ptr %9, ptr %__begin2, align 16, !tbaa !33
  %10 = load ptr, ptr %end_.i.i.i.i, align 8
  %cmp.i.i.i = icmp eq ptr %9, %10
  br i1 %cmp.i.i.i, label %if.then.i.i.i, label %if.else.i.i.i

if.then.i.i.i:                                    ; preds = %for.body
  call void @llvm.memset.p0.i64(ptr noundef nonnull align 16 dereferenceable(32) %__begin2, i8 0, i64 32, i1 false)
  br label %_ZN5folly6detail14IteratorFacadeINS_5IOBuf8IteratorEKNS_5RangeIPKhEESt20forward_iterator_tagEppEv.exit

if.else.i.i.i:                                    ; preds = %for.body
  %data_.i.i.i.i.i = getelementptr inbounds %"class.folly::IOBuf", ptr %9, i64 0, i32 1
  %11 = load ptr, ptr %data_.i.i.i.i.i, align 8, !tbaa !38
  %12 = load i64, ptr %9, align 8, !tbaa !39
  %add.ptr.i.i.i.i.i = getelementptr inbounds i8, ptr %11, i64 %12
  store ptr %11, ptr %val_.i.i, align 16, !tbaa.struct !31
  store ptr %add.ptr.i.i.i.i.i, ptr %data.sroa.4.0.val_.i.i.sroa_idx, align 8, !tbaa.struct !32
  br label %_ZN5folly6detail14IteratorFacadeINS_5IOBuf8IteratorEKNS_5RangeIPKhEESt20forward_iterator_tagEppEv.exit

_ZN5folly6detail14IteratorFacadeINS_5IOBuf8IteratorEKNS_5RangeIPKhEESt20forward_iterator_tagEppEv.exit: ; preds = %if.else.i.i.i, %if.then.i.i.i
  %13 = phi ptr [ null, %if.then.i.i.i ], [ %10, %if.else.i.i.i ]
  %14 = phi ptr [ null, %if.then.i.i.i ], [ %9, %if.else.i.i.i ]
  %data.sroa.4.0.copyload23 = phi ptr [ null, %if.then.i.i.i ], [ %add.ptr.i.i.i.i.i, %if.else.i.i.i ]
  %data.sroa.0.0.copyload21 = phi ptr [ null, %if.then.i.i.i ], [ %11, %if.else.i.i.i ]
  %15 = load ptr, ptr %__end2, align 16, !tbaa !33
  %cmp.i.i.i.i = icmp ne ptr %14, %15
  %16 = load ptr, ptr %end_3.i.i.i.i, align 8
  %cmp4.i.i.i.i = icmp ne ptr %13, %16
  %.not.i = select i1 %cmp.i.i.i.i, i1 true, i1 %cmp4.i.i.i.i
  br i1 %.not.i, label %for.body, label %for.cond.cleanup
}

declare void @_ZNSt7__cxx1112basic_stringIcSt11char_traitsIcESaIcEE7reserveEm(ptr noundef nonnull align 8 dereferenceable(32), i64 noundef) local_unnamed_addr #5

declare void @_ZNK5folly5IOBuf6cbeginEv(ptr sret(%"class.folly::IOBuf::Iterator") align 8, ptr noundef nonnull align 8 dereferenceable(56)) local_unnamed_addr #5

declare void @_ZNK5folly5IOBuf4cendEv(ptr sret(%"class.folly::IOBuf::Iterator") align 8, ptr noundef nonnull align 8 dereferenceable(56)) local_unnamed_addr #5

; Function Attrs: mustprogress uwtable
define linkonce_odr noundef nonnull align 8 dereferenceable(32) ptr @_ZNSt7__cxx1112basic_stringIcSt11char_traitsIcESaIcEE19_M_replace_dispatchIPKhEERS4_N9__gnu_cxx17__normal_iteratorIPKcS4_EESD_T_SE_St12__false_type(ptr noundef nonnull align 8 dereferenceable(32) %this, ptr %__i1.coerce, ptr %__i2.coerce, ptr noundef %__k1, ptr noundef %__k2) local_unnamed_addr #3 comdat align 2 personality ptr @__gxx_personality_v0 {
entry:
  %__k129 = ptrtoint ptr %__k1 to i64
  %__k228 = ptrtoint ptr %__k2 to i64
  %__dnew.i.i = alloca i64, align 8
  %__s = alloca %"class.std::__cxx11::basic_string", align 8
  call void @llvm.lifetime.start.p0(i64 32, ptr nonnull %__s) #29
  %0 = getelementptr inbounds %"class.std::__cxx11::basic_string", ptr %__s, i64 0, i32 2
  store ptr %0, ptr %__s, align 8, !tbaa !13
  %_M_string_length.i = getelementptr inbounds %"class.std::__cxx11::basic_string", ptr %__s, i64 0, i32 1
  store i64 0, ptr %_M_string_length.i, align 8, !tbaa !18
  call void @llvm.lifetime.start.p0(i64 8, ptr nonnull %__dnew.i.i) #29
  %sub.ptr.sub.i.i.i.i = sub i64 %__k228, %__k129
  store i64 %sub.ptr.sub.i.i.i.i, ptr %__dnew.i.i, align 8, !tbaa !30
  %cmp.i.i = icmp ugt i64 %sub.ptr.sub.i.i.i.i, 15
  br i1 %cmp.i.i, label %if.then.i.i, label %if.end.i.i

if.then.i.i:                                      ; preds = %entry
  %call2.i4.i14 = call noundef ptr @_ZNSt7__cxx1112basic_stringIcSt11char_traitsIcESaIcEE9_M_createERmm(ptr noundef nonnull align 8 dereferenceable(32) %__s, ptr noundef nonnull align 8 dereferenceable(8) %__dnew.i.i, i64 noundef 0)
  store ptr %call2.i4.i14, ptr %__s, align 8, !tbaa !22
  %1 = load i64, ptr %__dnew.i.i, align 8, !tbaa !30
  store i64 %1, ptr %0, align 8, !tbaa !21
  br label %if.end.i.i

if.end.i.i:                                       ; preds = %if.then.i.i, %entry
  %2 = phi i64 [ %1, %if.then.i.i ], [ %sub.ptr.sub.i.i.i.i, %entry ]
  %3 = phi ptr [ %call2.i4.i14, %if.then.i.i ], [ %0, %entry ]
  %cmp.not5.i.i.i = icmp eq ptr %__k1, %__k2
  br i1 %cmp.not5.i.i.i, label %invoke.cont, label %iter.check

iter.check:                                       ; preds = %if.end.i.i
  %4 = ptrtoint ptr %3 to i64
  %min.iters.check = icmp ult i64 %sub.ptr.sub.i.i.i.i, 8
  %5 = sub i64 %4, %__k129
  %diff.check = icmp ult i64 %5, 32
  %or.cond = select i1 %min.iters.check, i1 true, i1 %diff.check
  br i1 %or.cond, label %for.body.i.i.i.preheader, label %vector.main.loop.iter.check

vector.main.loop.iter.check:                      ; preds = %iter.check
  %min.iters.check30 = icmp ult i64 %sub.ptr.sub.i.i.i.i, 32
  br i1 %min.iters.check30, label %vec.epilog.ph, label %vector.ph

vector.ph:                                        ; preds = %vector.main.loop.iter.check
  %n.vec = and i64 %sub.ptr.sub.i.i.i.i, -32
  br label %vector.body

vector.body:                                      ; preds = %vector.body, %vector.ph
  %index = phi i64 [ 0, %vector.ph ], [ %index.next, %vector.body ]
  %next.gep = getelementptr i8, ptr %3, i64 %index
  %next.gep32 = getelementptr i8, ptr %__k1, i64 %index
  %wide.load = load <16 x i8>, ptr %next.gep32, align 1, !tbaa !21
  %6 = getelementptr i8, ptr %next.gep32, i64 16
  %wide.load34 = load <16 x i8>, ptr %6, align 1, !tbaa !21
  store <16 x i8> %wide.load, ptr %next.gep, align 1, !tbaa !21
  %7 = getelementptr i8, ptr %next.gep, i64 16
  store <16 x i8> %wide.load34, ptr %7, align 1, !tbaa !21
  %index.next = add nuw i64 %index, 32
  %8 = icmp eq i64 %index.next, %n.vec
  br i1 %8, label %middle.block, label %vector.body, !llvm.loop !71

middle.block:                                     ; preds = %vector.body
  %cmp.n = icmp eq i64 %sub.ptr.sub.i.i.i.i, %n.vec
  br i1 %cmp.n, label %_ZZNSt7__cxx1112basic_stringIcSt11char_traitsIcESaIcEE12_M_constructIPKhEEvT_S8_St20forward_iterator_tagEN6_GuardD2Ev.exit.loopexit.i.i, label %vec.epilog.iter.check

vec.epilog.iter.check:                            ; preds = %middle.block
  %ind.end43 = getelementptr i8, ptr %__k1, i64 %n.vec
  %ind.end40 = getelementptr i8, ptr %3, i64 %n.vec
  %n.vec.remaining = and i64 %sub.ptr.sub.i.i.i.i, 24
  %min.epilog.iters.check = icmp eq i64 %n.vec.remaining, 0
  br i1 %min.epilog.iters.check, label %for.body.i.i.i.preheader, label %vec.epilog.ph

vec.epilog.ph:                                    ; preds = %vec.epilog.iter.check, %vector.main.loop.iter.check
  %vec.epilog.resume.val = phi i64 [ %n.vec, %vec.epilog.iter.check ], [ 0, %vector.main.loop.iter.check ]
  %n.vec38 = and i64 %sub.ptr.sub.i.i.i.i, -8
  %ind.end39 = getelementptr i8, ptr %3, i64 %n.vec38
  br label %vec.epilog.vector.body

vec.epilog.vector.body:                           ; preds = %vec.epilog.vector.body, %vec.epilog.ph
  %index46 = phi i64 [ %vec.epilog.resume.val, %vec.epilog.ph ], [ %index.next50, %vec.epilog.vector.body ]
  %next.gep47 = getelementptr i8, ptr %3, i64 %index46
  %next.gep48 = getelementptr i8, ptr %__k1, i64 %index46
  %wide.load49 = load <8 x i8>, ptr %next.gep48, align 1, !tbaa !21
  store <8 x i8> %wide.load49, ptr %next.gep47, align 1, !tbaa !21
  %index.next50 = add nuw i64 %index46, 8
  %9 = icmp eq i64 %index.next50, %n.vec38
  br i1 %9, label %vec.epilog.middle.block, label %vec.epilog.vector.body, !llvm.loop !74

vec.epilog.middle.block:                          ; preds = %vec.epilog.vector.body
  %ind.end42 = getelementptr i8, ptr %__k1, i64 %n.vec38
  %cmp.n45 = icmp eq i64 %sub.ptr.sub.i.i.i.i, %n.vec38
  br i1 %cmp.n45, label %_ZZNSt7__cxx1112basic_stringIcSt11char_traitsIcESaIcEE12_M_constructIPKhEEvT_S8_St20forward_iterator_tagEN6_GuardD2Ev.exit.loopexit.i.i, label %for.body.i.i.i.preheader

for.body.i.i.i.preheader:                         ; preds = %vec.epilog.middle.block, %vec.epilog.iter.check, %iter.check
  %__p.addr.07.i.i.i.ph = phi ptr [ %3, %iter.check ], [ %ind.end40, %vec.epilog.iter.check ], [ %ind.end39, %vec.epilog.middle.block ]
  %__k1.addr.06.i.i.i.ph = phi ptr [ %__k1, %iter.check ], [ %ind.end43, %vec.epilog.iter.check ], [ %ind.end42, %vec.epilog.middle.block ]
  %__k1.addr.06.i.i.i.ph51 = ptrtoint ptr %__k1.addr.06.i.i.i.ph to i64
  %10 = sub i64 %__k228, %__k1.addr.06.i.i.i.ph51
  %xtraiter = and i64 %10, 7
  %lcmp.mod.not = icmp eq i64 %xtraiter, 0
  br i1 %lcmp.mod.not, label %for.body.i.i.i.prol.loopexit, label %for.body.i.i.i.prol

for.body.i.i.i.prol:                              ; preds = %for.body.i.i.i.preheader, %for.body.i.i.i.prol
  %__p.addr.07.i.i.i.prol = phi ptr [ %incdec.ptr1.i.i.i.prol, %for.body.i.i.i.prol ], [ %__p.addr.07.i.i.i.ph, %for.body.i.i.i.preheader ]
  %__k1.addr.06.i.i.i.prol = phi ptr [ %incdec.ptr.i.i.i.prol, %for.body.i.i.i.prol ], [ %__k1.addr.06.i.i.i.ph, %for.body.i.i.i.preheader ]
  %prol.iter = phi i64 [ %prol.iter.next, %for.body.i.i.i.prol ], [ 0, %for.body.i.i.i.preheader ]
  %11 = load i8, ptr %__k1.addr.06.i.i.i.prol, align 1, !tbaa !21
  store i8 %11, ptr %__p.addr.07.i.i.i.prol, align 1, !tbaa !21
  %incdec.ptr.i.i.i.prol = getelementptr inbounds i8, ptr %__k1.addr.06.i.i.i.prol, i64 1
  %incdec.ptr1.i.i.i.prol = getelementptr inbounds i8, ptr %__p.addr.07.i.i.i.prol, i64 1
  %prol.iter.next = add nuw nsw i64 %prol.iter, 1
  %prol.iter.cmp.not = icmp eq i64 %prol.iter.next, %xtraiter
  br i1 %prol.iter.cmp.not, label %for.body.i.i.i.prol.loopexit, label %for.body.i.i.i.prol, !llvm.loop !75

for.body.i.i.i.prol.loopexit:                     ; preds = %for.body.i.i.i.prol, %for.body.i.i.i.preheader
  %__p.addr.07.i.i.i.unr = phi ptr [ %__p.addr.07.i.i.i.ph, %for.body.i.i.i.preheader ], [ %incdec.ptr1.i.i.i.prol, %for.body.i.i.i.prol ]
  %__k1.addr.06.i.i.i.unr = phi ptr [ %__k1.addr.06.i.i.i.ph, %for.body.i.i.i.preheader ], [ %incdec.ptr.i.i.i.prol, %for.body.i.i.i.prol ]
  %12 = sub i64 %__k1.addr.06.i.i.i.ph51, %__k228
  %13 = icmp ugt i64 %12, -8
  br i1 %13, label %_ZZNSt7__cxx1112basic_stringIcSt11char_traitsIcESaIcEE12_M_constructIPKhEEvT_S8_St20forward_iterator_tagEN6_GuardD2Ev.exit.loopexit.i.i, label %for.body.i.i.i

for.body.i.i.i:                                   ; preds = %for.body.i.i.i.prol.loopexit, %for.body.i.i.i
  %__p.addr.07.i.i.i = phi ptr [ %incdec.ptr1.i.i.i.7, %for.body.i.i.i ], [ %__p.addr.07.i.i.i.unr, %for.body.i.i.i.prol.loopexit ]
  %__k1.addr.06.i.i.i = phi ptr [ %incdec.ptr.i.i.i.7, %for.body.i.i.i ], [ %__k1.addr.06.i.i.i.unr, %for.body.i.i.i.prol.loopexit ]
  %14 = load i8, ptr %__k1.addr.06.i.i.i, align 1, !tbaa !21
  store i8 %14, ptr %__p.addr.07.i.i.i, align 1, !tbaa !21
  %incdec.ptr.i.i.i = getelementptr inbounds i8, ptr %__k1.addr.06.i.i.i, i64 1
  %incdec.ptr1.i.i.i = getelementptr inbounds i8, ptr %__p.addr.07.i.i.i, i64 1
  %15 = load i8, ptr %incdec.ptr.i.i.i, align 1, !tbaa !21
  store i8 %15, ptr %incdec.ptr1.i.i.i, align 1, !tbaa !21
  %incdec.ptr.i.i.i.1 = getelementptr inbounds i8, ptr %__k1.addr.06.i.i.i, i64 2
  %incdec.ptr1.i.i.i.1 = getelementptr inbounds i8, ptr %__p.addr.07.i.i.i, i64 2
  %16 = load i8, ptr %incdec.ptr.i.i.i.1, align 1, !tbaa !21
  store i8 %16, ptr %incdec.ptr1.i.i.i.1, align 1, !tbaa !21
  %incdec.ptr.i.i.i.2 = getelementptr inbounds i8, ptr %__k1.addr.06.i.i.i, i64 3
  %incdec.ptr1.i.i.i.2 = getelementptr inbounds i8, ptr %__p.addr.07.i.i.i, i64 3
  %17 = load i8, ptr %incdec.ptr.i.i.i.2, align 1, !tbaa !21
  store i8 %17, ptr %incdec.ptr1.i.i.i.2, align 1, !tbaa !21
  %incdec.ptr.i.i.i.3 = getelementptr inbounds i8, ptr %__k1.addr.06.i.i.i, i64 4
  %incdec.ptr1.i.i.i.3 = getelementptr inbounds i8, ptr %__p.addr.07.i.i.i, i64 4
  %18 = load i8, ptr %incdec.ptr.i.i.i.3, align 1, !tbaa !21
  store i8 %18, ptr %incdec.ptr1.i.i.i.3, align 1, !tbaa !21
  %incdec.ptr.i.i.i.4 = getelementptr inbounds i8, ptr %__k1.addr.06.i.i.i, i64 5
  %incdec.ptr1.i.i.i.4 = getelementptr inbounds i8, ptr %__p.addr.07.i.i.i, i64 5
  %19 = load i8, ptr %incdec.ptr.i.i.i.4, align 1, !tbaa !21
  store i8 %19, ptr %incdec.ptr1.i.i.i.4, align 1, !tbaa !21
  %incdec.ptr.i.i.i.5 = getelementptr inbounds i8, ptr %__k1.addr.06.i.i.i, i64 6
  %incdec.ptr1.i.i.i.5 = getelementptr inbounds i8, ptr %__p.addr.07.i.i.i, i64 6
  %20 = load i8, ptr %incdec.ptr.i.i.i.5, align 1, !tbaa !21
  store i8 %20, ptr %incdec.ptr1.i.i.i.5, align 1, !tbaa !21
  %incdec.ptr.i.i.i.6 = getelementptr inbounds i8, ptr %__k1.addr.06.i.i.i, i64 7
  %incdec.ptr1.i.i.i.6 = getelementptr inbounds i8, ptr %__p.addr.07.i.i.i, i64 7
  %21 = load i8, ptr %incdec.ptr.i.i.i.6, align 1, !tbaa !21
  store i8 %21, ptr %incdec.ptr1.i.i.i.6, align 1, !tbaa !21
  %incdec.ptr.i.i.i.7 = getelementptr inbounds i8, ptr %__k1.addr.06.i.i.i, i64 8
  %incdec.ptr1.i.i.i.7 = getelementptr inbounds i8, ptr %__p.addr.07.i.i.i, i64 8
  %cmp.not.i.i.i.7 = icmp eq ptr %incdec.ptr.i.i.i.7, %__k2
  br i1 %cmp.not.i.i.i.7, label %_ZZNSt7__cxx1112basic_stringIcSt11char_traitsIcESaIcEE12_M_constructIPKhEEvT_S8_St20forward_iterator_tagEN6_GuardD2Ev.exit.loopexit.i.i, label %for.body.i.i.i, !llvm.loop !77

_ZZNSt7__cxx1112basic_stringIcSt11char_traitsIcESaIcEE12_M_constructIPKhEEvT_S8_St20forward_iterator_tagEN6_GuardD2Ev.exit.loopexit.i.i: ; preds = %for.body.i.i.i, %for.body.i.i.i.prol.loopexit, %vec.epilog.middle.block, %middle.block
  %.pre18.i.i = load i64, ptr %__dnew.i.i, align 8, !tbaa !30
  %.pre19.i.i = load ptr, ptr %__s, align 8, !tbaa !22
  br label %invoke.cont

invoke.cont:                                      ; preds = %_ZZNSt7__cxx1112basic_stringIcSt11char_traitsIcESaIcEE12_M_constructIPKhEEvT_S8_St20forward_iterator_tagEN6_GuardD2Ev.exit.loopexit.i.i, %if.end.i.i
  %22 = phi ptr [ %.pre19.i.i, %_ZZNSt7__cxx1112basic_stringIcSt11char_traitsIcESaIcEE12_M_constructIPKhEEvT_S8_St20forward_iterator_tagEN6_GuardD2Ev.exit.loopexit.i.i ], [ %3, %if.end.i.i ]
  %23 = phi i64 [ %.pre18.i.i, %_ZZNSt7__cxx1112basic_stringIcSt11char_traitsIcESaIcEE12_M_constructIPKhEEvT_S8_St20forward_iterator_tagEN6_GuardD2Ev.exit.loopexit.i.i ], [ %2, %if.end.i.i ]
  store i64 %23, ptr %_M_string_length.i, align 8, !tbaa !18
  %arrayidx.i.i.i = getelementptr inbounds i8, ptr %22, i64 %23
  store i8 0, ptr %arrayidx.i.i.i, align 1, !tbaa !21
  call void @llvm.lifetime.end.p0(i64 8, ptr nonnull %__dnew.i.i) #29
  %sub.ptr.lhs.cast.i = ptrtoint ptr %__i2.coerce to i64
  %sub.ptr.rhs.cast.i = ptrtoint ptr %__i1.coerce to i64
  %sub.ptr.sub.i = sub i64 %sub.ptr.lhs.cast.i, %sub.ptr.rhs.cast.i
  %24 = load ptr, ptr %this, align 8, !tbaa !22
  %sub.ptr.rhs.cast.i16 = ptrtoint ptr %24 to i64
  %sub.ptr.sub.i17 = sub i64 %sub.ptr.rhs.cast.i, %sub.ptr.rhs.cast.i16
  %25 = load ptr, ptr %__s, align 8, !tbaa !22
  %26 = load i64, ptr %_M_string_length.i, align 8, !tbaa !18
  %call11 = invoke noundef nonnull align 8 dereferenceable(32) ptr @_ZNSt7__cxx1112basic_stringIcSt11char_traitsIcESaIcEE10_M_replaceEmmPKcm(ptr noundef nonnull align 8 dereferenceable(32) %this, i64 noundef %sub.ptr.sub.i17, i64 noundef %sub.ptr.sub.i, ptr noundef %25, i64 noundef %26)
          to label %invoke.cont10 unwind label %lpad9

invoke.cont10:                                    ; preds = %invoke.cont
  %27 = load ptr, ptr %__s, align 8, !tbaa !22
  %cmp.i.i.i = icmp eq ptr %27, %0
  br i1 %cmp.i.i.i, label %_ZNKSt7__cxx1112basic_stringIcSt11char_traitsIcESaIcEE11_M_is_localEv.exit.thread.i.i, label %if.then.i.i19

_ZNKSt7__cxx1112basic_stringIcSt11char_traitsIcESaIcEE11_M_is_localEv.exit.thread.i.i: ; preds = %invoke.cont10
  %28 = load i64, ptr %_M_string_length.i, align 8, !tbaa !18
  %cmp3.i.i.i = icmp ult i64 %28, 16
  call void @llvm.assume(i1 %cmp3.i.i.i)
  br label %_ZNSt7__cxx1112basic_stringIcSt11char_traitsIcESaIcEED2Ev.exit

if.then.i.i19:                                    ; preds = %invoke.cont10
  call void @_ZdlPv(ptr noundef %27) #30
  br label %_ZNSt7__cxx1112basic_stringIcSt11char_traitsIcESaIcEED2Ev.exit

_ZNSt7__cxx1112basic_stringIcSt11char_traitsIcESaIcEED2Ev.exit: ; preds = %if.then.i.i19, %_ZNKSt7__cxx1112basic_stringIcSt11char_traitsIcESaIcEE11_M_is_localEv.exit.thread.i.i
  call void @llvm.lifetime.end.p0(i64 32, ptr nonnull %__s) #29
  ret ptr %call11

lpad9:                                            ; preds = %invoke.cont
  %29 = landingpad { ptr, i32 }
          cleanup
  %30 = load ptr, ptr %__s, align 8, !tbaa !22
  %cmp.i.i.i20 = icmp eq ptr %30, %0
  br i1 %cmp.i.i.i20, label %_ZNKSt7__cxx1112basic_stringIcSt11char_traitsIcESaIcEE11_M_is_localEv.exit.thread.i.i22, label %if.then.i.i21

_ZNKSt7__cxx1112basic_stringIcSt11char_traitsIcESaIcEE11_M_is_localEv.exit.thread.i.i22: ; preds = %lpad9
  %31 = load i64, ptr %_M_string_length.i, align 8, !tbaa !18
  %cmp3.i.i.i24 = icmp ult i64 %31, 16
  call void @llvm.assume(i1 %cmp3.i.i.i24)
  br label %ehcleanup

if.then.i.i21:                                    ; preds = %lpad9
  call void @_ZdlPv(ptr noundef %30) #30
  br label %ehcleanup

ehcleanup:                                        ; preds = %if.then.i.i21, %_ZNKSt7__cxx1112basic_stringIcSt11char_traitsIcESaIcEE11_M_is_localEv.exit.thread.i.i22
  call void @llvm.lifetime.end.p0(i64 32, ptr nonnull %__s) #29
  resume { ptr, i32 } %29
}

declare noundef nonnull align 8 dereferenceable(32) ptr @_ZNSt7__cxx1112basic_stringIcSt11char_traitsIcESaIcEE10_M_replaceEmmPKcm(ptr noundef nonnull align 8 dereferenceable(32), i64 noundef, i64 noundef, ptr noundef, i64 noundef) local_unnamed_addr #5

; Function Attrs: nounwind
declare void @_ZN5folly5IOBufdlEPv(ptr noundef) local_unnamed_addr #6

declare noundef nonnull align 8 dereferenceable(32) ptr @_ZNSt7__cxx1112basic_stringIcSt11char_traitsIcESaIcEE9_M_appendEPKcm(ptr noundef nonnull align 8 dereferenceable(32), ptr noundef, i64 noundef) local_unnamed_addr #5

; Function Attrs: noreturn
declare void @_ZSt20__throw_length_errorPKc(ptr noundef) local_unnamed_addr #15

; Function Attrs: mustprogress uwtable
define noundef i64 @_ZNK5folly2io5Codec19maxCompressedLengthEm(ptr noundef nonnull align 8 dereferenceable(12) %this, i64 noundef %uncompressedLength) local_unnamed_addr #3 align 2 {
entry:
  %vtable = load ptr, ptr %this, align 8, !tbaa !7
  %vfn = getelementptr inbounds ptr, ptr %vtable, i64 10
  %0 = load ptr, ptr %vfn, align 8
  %call = tail call noundef i64 %0(ptr noundef nonnull align 8 dereferenceable(12) %this, i64 noundef %uncompressedLength)
  ret i64 %call
}

; Function Attrs: mustprogress uwtable
define void @_ZNK5folly2io5Codec21getUncompressedLengthEPKNS_5IOBufENS_8OptionalImEE(ptr noalias sret(%"class.folly::Optional") align 8 %agg.result, ptr noundef nonnull align 8 dereferenceable(12) %this, ptr noundef nonnull %data, ptr nocapture noundef readonly %uncompressedLength) local_unnamed_addr #3 align 2 personality ptr @__gxx_personality_v0 {
entry:
  %agg.tmp = alloca %"class.folly::Optional", align 8
  %call = tail call noundef i64 @_ZNK5folly5IOBuf22computeChainDataLengthEv(ptr noundef nonnull align 8 dereferenceable(56) %data)
  %cmp = icmp eq i64 %call, 0
  br i1 %cmp, label %if.then, label %if.end6

if.then:                                          ; preds = %entry
  %hasValue.i = getelementptr inbounds %"struct.folly::Optional<unsigned long>::StorageTriviallyDestructible", ptr %uncompressedLength, i64 0, i32 1
  %0 = load i8, ptr %hasValue.i, align 8, !tbaa !26, !range !28, !noundef !29
  %tobool.not.i = icmp eq i8 %0, 0
  %1 = load i64, ptr %uncompressedLength, align 8
  %cmp3.not10 = icmp eq i64 %1, 0
  %cmp3.not = select i1 %tobool.not.i, i1 true, i1 %cmp3.not10
  br i1 %cmp3.not, label %if.end, label %if.then4

if.then4:                                         ; preds = %if.then
  %exception = tail call ptr @__cxa_allocate_exception(i64 16) #29
  invoke void @_ZNSt13runtime_errorC1EPKc(ptr noundef nonnull align 8 dereferenceable(16) %exception, ptr noundef nonnull @.str.8)
          to label %invoke.cont unwind label %lpad

invoke.cont:                                      ; preds = %if.then4
  tail call void @__cxa_throw(ptr nonnull %exception, ptr nonnull @_ZTISt13runtime_error, ptr nonnull @_ZNSt13runtime_errorD1Ev) #31
  unreachable

lpad:                                             ; preds = %if.then4
  %2 = landingpad { ptr, i32 }
          cleanup
  tail call void @__cxa_free_exception(ptr %exception) #29
  resume { ptr, i32 } %2

if.end:                                           ; preds = %if.then
  %hasValue.i.i = getelementptr inbounds %"struct.folly::Optional<unsigned long>::StorageTriviallyDestructible", ptr %agg.result, i64 0, i32 1
  store i64 0, ptr %agg.result, align 8, !tbaa !30
  store i8 1, ptr %hasValue.i.i, align 8, !tbaa !26
  br label %cleanup

if.end6:                                          ; preds = %entry
  store i8 0, ptr %agg.tmp, align 8, !tbaa !21
  %hasValue.i.i9 = getelementptr inbounds %"struct.folly::Optional<unsigned long>::StorageTriviallyDestructible", ptr %agg.tmp, i64 0, i32 1
  store i8 0, ptr %hasValue.i.i9, align 8, !tbaa !23
  %hasValue.i.i.i = getelementptr inbounds %"struct.folly::Optional<unsigned long>::StorageTriviallyDestructible", ptr %uncompressedLength, i64 0, i32 1
  %3 = load i8, ptr %hasValue.i.i.i, align 8, !tbaa !26, !range !28, !noundef !29
  %tobool.i.i.not.i = icmp eq i8 %3, 0
  br i1 %tobool.i.i.not.i, label %_ZN5folly8OptionalImEC2ERKS1_.exit, label %invoke.cont2.i

invoke.cont2.i:                                   ; preds = %if.end6
  %4 = load i64, ptr %uncompressedLength, align 8, !tbaa !30
  store i64 %4, ptr %agg.tmp, align 8, !tbaa !30
  store i8 1, ptr %hasValue.i.i9, align 8, !tbaa !26
  br label %_ZN5folly8OptionalImEC2ERKS1_.exit

_ZN5folly8OptionalImEC2ERKS1_.exit:               ; preds = %invoke.cont2.i, %if.end6
  %vtable = load ptr, ptr %this, align 8, !tbaa !7
  %vfn = getelementptr inbounds ptr, ptr %vtable, i64 11
  %5 = load ptr, ptr %vfn, align 8
  call void %5(ptr sret(%"class.folly::Optional") align 8 %agg.result, ptr noundef nonnull align 8 dereferenceable(12) %this, ptr noundef nonnull %data, ptr noundef nonnull %agg.tmp)
  br label %cleanup

cleanup:                                          ; preds = %_ZN5folly8OptionalImEC2ERKS1_.exit, %if.end
  ret void
}

; Function Attrs: mustprogress uwtable
define void @_ZNK5folly2io5Codec21getUncompressedLengthENS_5RangeIPKcEENS_8OptionalImEE(ptr noalias sret(%"class.folly::Optional") align 8 %agg.result, ptr noundef nonnull align 8 dereferenceable(12) %this, ptr %data.coerce0, ptr %data.coerce1, ptr nocapture noundef readonly %uncompressedLength) local_unnamed_addr #3 align 2 personality ptr @__gxx_personality_v0 {
entry:
  %buf = alloca %"class.folly::IOBuf", align 8
  %agg.tmp = alloca %"class.folly::Optional", align 8
  call void @llvm.lifetime.start.p0(i64 56, ptr nonnull %buf) #29
  %sub.ptr.lhs.cast.i = ptrtoint ptr %data.coerce1 to i64
  %sub.ptr.rhs.cast.i = ptrtoint ptr %data.coerce0 to i64
  %sub.ptr.sub.i = sub i64 %sub.ptr.lhs.cast.i, %sub.ptr.rhs.cast.i
  call void @_ZN5folly5IOBuf17wrapBufferAsValueEPKvm(ptr nonnull sret(%"class.folly::IOBuf") align 8 %buf, ptr noundef %data.coerce0, i64 noundef %sub.ptr.sub.i) #29
  store i8 0, ptr %agg.tmp, align 8, !tbaa !21
  %hasValue.i.i = getelementptr inbounds %"struct.folly::Optional<unsigned long>::StorageTriviallyDestructible", ptr %agg.tmp, i64 0, i32 1
  store i8 0, ptr %hasValue.i.i, align 8, !tbaa !23
  %hasValue.i.i.i = getelementptr inbounds %"struct.folly::Optional<unsigned long>::StorageTriviallyDestructible", ptr %uncompressedLength, i64 0, i32 1
  %0 = load i8, ptr %hasValue.i.i.i, align 8, !tbaa !26, !range !28, !noundef !29
  %tobool.i.i.not.i = icmp eq i8 %0, 0
  br i1 %tobool.i.i.not.i, label %_ZN5folly8OptionalImEC2ERKS1_.exit, label %invoke.cont2.i

invoke.cont2.i:                                   ; preds = %entry
  %1 = load i64, ptr %uncompressedLength, align 8, !tbaa !30
  store i64 %1, ptr %agg.tmp, align 8, !tbaa !30
  store i8 1, ptr %hasValue.i.i, align 8, !tbaa !26
  br label %_ZN5folly8OptionalImEC2ERKS1_.exit

_ZN5folly8OptionalImEC2ERKS1_.exit:               ; preds = %invoke.cont2.i, %entry
  invoke void @_ZNK5folly2io5Codec21getUncompressedLengthEPKNS_5IOBufENS_8OptionalImEE(ptr sret(%"class.folly::Optional") align 8 %agg.result, ptr noundef nonnull align 8 dereferenceable(12) %this, ptr noundef nonnull %buf, ptr noundef nonnull %agg.tmp)
          to label %invoke.cont unwind label %lpad

invoke.cont:                                      ; preds = %_ZN5folly8OptionalImEC2ERKS1_.exit
  call void @_ZN5folly5IOBufD1Ev(ptr noundef nonnull align 8 dereferenceable(56) %buf) #29
  call void @llvm.lifetime.end.p0(i64 56, ptr nonnull %buf) #29
  ret void

lpad:                                             ; preds = %_ZN5folly8OptionalImEC2ERKS1_.exit
  %2 = landingpad { ptr, i32 }
          cleanup
  call void @_ZN5folly5IOBufD1Ev(ptr noundef nonnull align 8 dereferenceable(56) %buf) #29
  call void @llvm.lifetime.end.p0(i64 56, ptr nonnull %buf) #29
  resume { ptr, i32 } %2
}

; Function Attrs: mustprogress uwtable
define noundef zeroext i1 @_ZNK5folly2io11StreamCodec15needsDataLengthEv(ptr noundef nonnull align 8 dereferenceable(49) %this) local_unnamed_addr #3 align 2 {
entry:
  %vtable = load ptr, ptr %this, align 8, !tbaa !7
  %vfn = getelementptr inbounds ptr, ptr %vtable, i64 12
  %0 = load ptr, ptr %vfn, align 8
  %call = tail call noundef zeroext i1 %0(ptr noundef nonnull align 8 dereferenceable(49) %this)
  ret i1 %call
}

; Function Attrs: mustprogress uwtable
define void @_ZNK5folly2io11StreamCodec13assertStateIsENS1_5StateE(ptr noundef nonnull align 8 dereferenceable(49) %this, i32 noundef %expected) local_unnamed_addr #3 align 2 personality ptr @__gxx_personality_v0 {
entry:
  %expected.addr = alloca i32, align 4
  %ref.tmp = alloca %"class.std::__cxx11::basic_string", align 8
  store i32 %expected, ptr %expected.addr, align 4, !tbaa !78
  %state_ = getelementptr inbounds %"class.folly::io::StreamCodec", ptr %this, i64 0, i32 1
  %0 = load i32, ptr %state_, align 4, !tbaa !40
  %cmp.not = icmp eq i32 %0, %expected
  br i1 %cmp.not, label %if.end, label %if.then

if.then:                                          ; preds = %entry
  %exception = tail call ptr @__cxa_allocate_exception(i64 16) #29
  call void @llvm.lifetime.start.p0(i64 32, ptr nonnull %ref.tmp) #29
  invoke void @_ZN5folly2toINSt7__cxx1112basic_stringIcSt11char_traitsIcESaIcEEEJA17_cNS_2io11StreamCodec5StateEA18_cSA_EEENSt9enable_ifIXaasr12IsSomeStringIT_EE5valueoonesZT0_Li1Entsr3std7is_sameISD_19__type_pack_elementIXmisPvDpT0_ELi1EEJvSG_EEEE5valueESD_E4typeEDpRKSF_(ptr nonnull sret(%"class.std::__cxx11::basic_string") align 8 %ref.tmp, ptr noundef nonnull align 1 dereferenceable(17) @.str.9, ptr noundef nonnull align 4 dereferenceable(4) %state_, ptr noundef nonnull align 1 dereferenceable(18) @.str.10, ptr noundef nonnull align 4 dereferenceable(4) %expected.addr)
          to label %invoke.cont unwind label %ehcleanup.thread

invoke.cont:                                      ; preds = %if.then
  invoke void @_ZNSt11logic_errorC1ERKNSt7__cxx1112basic_stringIcSt11char_traitsIcESaIcEEE(ptr noundef nonnull align 8 dereferenceable(16) %exception, ptr noundef nonnull align 8 dereferenceable(32) %ref.tmp)
          to label %invoke.cont4 unwind label %lpad3

invoke.cont4:                                     ; preds = %invoke.cont
  invoke void @__cxa_throw(ptr nonnull %exception, ptr nonnull @_ZTISt11logic_error, ptr nonnull @_ZNSt11logic_errorD1Ev) #31
          to label %unreachable unwind label %lpad3

ehcleanup.thread:                                 ; preds = %if.then
  %1 = landingpad { ptr, i32 }
          cleanup
  call void @llvm.lifetime.end.p0(i64 32, ptr nonnull %ref.tmp) #29
  br label %cleanup.action

lpad3:                                            ; preds = %invoke.cont4, %invoke.cont
  %cleanup.isactive.0 = phi i1 [ false, %invoke.cont4 ], [ true, %invoke.cont ]
  %2 = landingpad { ptr, i32 }
          cleanup
  %3 = load ptr, ptr %ref.tmp, align 8, !tbaa !22
  %4 = getelementptr inbounds %"class.std::__cxx11::basic_string", ptr %ref.tmp, i64 0, i32 2
  %cmp.i.i.i = icmp eq ptr %3, %4
  br i1 %cmp.i.i.i, label %_ZNKSt7__cxx1112basic_stringIcSt11char_traitsIcESaIcEE11_M_is_localEv.exit.thread.i.i, label %ehcleanup

_ZNKSt7__cxx1112basic_stringIcSt11char_traitsIcESaIcEE11_M_is_localEv.exit.thread.i.i: ; preds = %lpad3
  %_M_string_length.i.i.i = getelementptr inbounds %"class.std::__cxx11::basic_string", ptr %ref.tmp, i64 0, i32 1
  %5 = load i64, ptr %_M_string_length.i.i.i, align 8, !tbaa !18
  %cmp3.i.i.i = icmp ult i64 %5, 16
  call void @llvm.assume(i1 %cmp3.i.i.i)
  call void @llvm.lifetime.end.p0(i64 32, ptr nonnull %ref.tmp) #29
  br i1 %cleanup.isactive.0, label %cleanup.action, label %eh.resume

ehcleanup:                                        ; preds = %lpad3
  call void @_ZdlPv(ptr noundef %3) #30
  call void @llvm.lifetime.end.p0(i64 32, ptr nonnull %ref.tmp) #29
  br i1 %cleanup.isactive.0, label %cleanup.action, label %eh.resume

cleanup.action:                                   ; preds = %ehcleanup, %_ZNKSt7__cxx1112basic_stringIcSt11char_traitsIcESaIcEE11_M_is_localEv.exit.thread.i.i, %ehcleanup.thread
  %.pn11 = phi { ptr, i32 } [ %1, %ehcleanup.thread ], [ %2, %ehcleanup ], [ %2, %_ZNKSt7__cxx1112basic_stringIcSt11char_traitsIcESaIcEE11_M_is_localEv.exit.thread.i.i ]
  call void @__cxa_free_exception(ptr %exception) #29
  br label %eh.resume

if.end:                                           ; preds = %entry
  ret void

eh.resume:                                        ; preds = %cleanup.action, %ehcleanup, %_ZNKSt7__cxx1112basic_stringIcSt11char_traitsIcESaIcEE11_M_is_localEv.exit.thread.i.i
  %.pn10 = phi { ptr, i32 } [ %2, %ehcleanup ], [ %.pn11, %cleanup.action ], [ %2, %_ZNKSt7__cxx1112basic_stringIcSt11char_traitsIcESaIcEE11_M_is_localEv.exit.thread.i.i ]
  resume { ptr, i32 } %.pn10

unreachable:                                      ; preds = %invoke.cont4
  unreachable
}

; Function Attrs: mustprogress uwtable
define linkonce_odr void @_ZN5folly2toINSt7__cxx1112basic_stringIcSt11char_traitsIcESaIcEEEJA17_cNS_2io11StreamCodec5StateEA18_cSA_EEENSt9enable_ifIXaasr12IsSomeStringIT_EE5valueoonesZT0_Li1Entsr3std7is_sameISD_19__type_pack_elementIXmisPvDpT0_ELi1EEJvSG_EEEE5valueESD_E4typeEDpRKSF_(ptr noalias sret(%"class.std::__cxx11::basic_string") align 8 %agg.result, ptr noundef nonnull align 1 dereferenceable(17) %vs, ptr noundef nonnull align 4 dereferenceable(4) %vs1, ptr noundef nonnull align 1 dereferenceable(18) %vs3, ptr noundef nonnull align 4 dereferenceable(4) %vs5) local_unnamed_addr #3 comdat personality ptr @__gxx_personality_v0 {
entry:
  %ref.tmp = alloca ptr, align 8
  %0 = getelementptr inbounds %"class.std::__cxx11::basic_string", ptr %agg.result, i64 0, i32 2
  store ptr %0, ptr %agg.result, align 8, !tbaa !13
  %_M_string_length.i.i.i = getelementptr inbounds %"class.std::__cxx11::basic_string", ptr %agg.result, i64 0, i32 1
  store i64 0, ptr %_M_string_length.i.i.i, align 8, !tbaa !18
  store i8 0, ptr %0, align 8, !tbaa !21
  call void @llvm.lifetime.start.p0(i64 8, ptr nonnull %ref.tmp) #29
  store ptr %agg.result, ptr %ref.tmp, align 8, !tbaa !10
  %1 = load i32, ptr %vs1, align 4, !tbaa !78
  %2 = tail call i32 @llvm.abs.i32(i32 %1, i1 false)
  %cond.i.i.i.i.i = zext i32 %2 to i64
  %value.lobit.i.i.i.i.i = lshr i32 %1, 31
  %conv3.i.i.i.i.i = zext nneg i32 %value.lobit.i.i.i.i.i to i64
  %call.i.i.i.i.i.i8 = invoke noundef i64 @_ZN5folly13to_ascii_sizeILm10EEEmm(i64 noundef %cond.i.i.i.i.i)
          to label %call.i.i.i.i.i.i.noexc unwind label %lpad

call.i.i.i.i.i.i.noexc:                           ; preds = %entry
  %3 = load i32, ptr %vs5, align 4, !tbaa !78
  %4 = tail call i32 @llvm.abs.i32(i32 %3, i1 false)
  %cond.i.i28.i.i.i = zext i32 %4 to i64
  %call.i.i.i31.i.i.i9 = invoke noundef i64 @_ZN5folly13to_ascii_sizeILm10EEEmm(i64 noundef %cond.i.i28.i.i.i)
          to label %call.i.i.i31.i.i.i.noexc unwind label %lpad

call.i.i.i31.i.i.i.noexc:                         ; preds = %call.i.i.i.i.i.i.noexc
  %value.lobit.i.i29.i.i.i = lshr i32 %3, 31
  %conv3.i.i30.i.i.i = zext nneg i32 %value.lobit.i.i29.i.i.i to i64
  %add4.i.i32.i.i.i = add i64 %call.i.i.i.i.i.i8, 35
  %add4.i.i.i.i.i = add i64 %add4.i.i32.i.i.i, %conv3.i.i.i.i.i
  %add.2.i.i.i = add i64 %add4.i.i.i.i.i, %call.i.i.i31.i.i.i9
  %add.3.i.i.i = add i64 %add.2.i.i.i, %conv3.i.i30.i.i.i
  invoke void @_ZNSt7__cxx1112basic_stringIcSt11char_traitsIcESaIcEE7reserveEm(ptr noundef nonnull align 8 dereferenceable(32) %agg.result, i64 noundef %add.3.i.i.i)
          to label %.noexc unwind label %lpad

.noexc:                                           ; preds = %call.i.i.i31.i.i.i.noexc
  invoke void @_ZN5folly6detail18ToAppendStrImplAllISt16integer_sequenceImJLm0ELm1ELm2ELm3ELm4EEEE4callIJA17_cNS_2io11StreamCodec5StateEA18_cS9_PNSt7__cxx1112basic_stringIcSt11char_traitsIcESaIcEEEEEEvDpRKT_(ptr noundef nonnull align 1 dereferenceable(17) %vs, ptr noundef nonnull align 4 dereferenceable(4) %vs1, ptr noundef nonnull align 1 dereferenceable(18) %vs3, ptr noundef nonnull align 4 dereferenceable(4) %vs5, ptr noundef nonnull align 8 dereferenceable(8) %ref.tmp)
          to label %invoke.cont unwind label %lpad

invoke.cont:                                      ; preds = %.noexc
  call void @llvm.lifetime.end.p0(i64 8, ptr nonnull %ref.tmp) #29
  ret void

lpad:                                             ; preds = %.noexc, %call.i.i.i31.i.i.i.noexc, %call.i.i.i.i.i.i.noexc, %entry
  %5 = landingpad { ptr, i32 }
          cleanup
  call void @llvm.lifetime.end.p0(i64 8, ptr nonnull %ref.tmp) #29
  %6 = load ptr, ptr %agg.result, align 8, !tbaa !22
  %cmp.i.i.i = icmp eq ptr %6, %0
  br i1 %cmp.i.i.i, label %_ZNKSt7__cxx1112basic_stringIcSt11char_traitsIcESaIcEE11_M_is_localEv.exit.thread.i.i, label %if.then.i.i

_ZNKSt7__cxx1112basic_stringIcSt11char_traitsIcESaIcEE11_M_is_localEv.exit.thread.i.i: ; preds = %lpad
  %7 = load i64, ptr %_M_string_length.i.i.i, align 8, !tbaa !18
  %cmp3.i.i.i = icmp ult i64 %7, 16
  call void @llvm.assume(i1 %cmp3.i.i.i)
  br label %_ZNSt7__cxx1112basic_stringIcSt11char_traitsIcESaIcEED2Ev.exit

if.then.i.i:                                      ; preds = %lpad
  call void @_ZdlPv(ptr noundef %6) #30
  br label %_ZNSt7__cxx1112basic_stringIcSt11char_traitsIcESaIcEED2Ev.exit

_ZNSt7__cxx1112basic_stringIcSt11char_traitsIcESaIcEED2Ev.exit: ; preds = %if.then.i.i, %_ZNKSt7__cxx1112basic_stringIcSt11char_traitsIcESaIcEE11_M_is_localEv.exit.thread.i.i
  resume { ptr, i32 } %5
}

declare void @_ZNSt11logic_errorC1ERKNSt7__cxx1112basic_stringIcSt11char_traitsIcESaIcEEE(ptr noundef nonnull align 8 dereferenceable(16), ptr noundef nonnull align 8 dereferenceable(32)) unnamed_addr #5

; Function Attrs: nounwind
declare void @_ZNSt11logic_errorD1Ev(ptr noundef nonnull align 8 dereferenceable(16)) unnamed_addr #6

; Function Attrs: mustprogress uwtable
define linkonce_odr noundef i64 @_ZN5folly13to_ascii_sizeILm10EEEmm(i64 noundef %v) local_unnamed_addr #3 comdat {
entry:
  %0 = load i64, ptr @_ZN5folly6detail15to_ascii_powersILm10EmE4dataE, align 8, !tbaa !30
  %cmp1.i = icmp ugt i64 %0, %v
  br i1 %cmp1.i, label %if.then.i, label %for.inc.i, !prof !79

if.then.i:                                        ; preds = %for.inc.i.18, %for.inc.i.17, %for.inc.i.16, %for.inc.i.15, %for.inc.i.14, %for.inc.i.13, %for.inc.i.12, %for.inc.i.11, %for.inc.i.10, %for.inc.i.9, %for.inc.i.8, %for.inc.i.7, %for.inc.i.6, %for.inc.i.5, %for.inc.i.4, %for.inc.i.3, %for.inc.i.2, %for.inc.i.1, %for.inc.i, %entry
  %i.0.i2.lcssa = phi i64 [ 0, %entry ], [ 1, %for.inc.i ], [ 2, %for.inc.i.1 ], [ 3, %for.inc.i.2 ], [ 4, %for.inc.i.3 ], [ 5, %for.inc.i.4 ], [ 6, %for.inc.i.5 ], [ 7, %for.inc.i.6 ], [ 8, %for.inc.i.7 ], [ 9, %for.inc.i.8 ], [ 10, %for.inc.i.9 ], [ 11, %for.inc.i.10 ], [ 12, %for.inc.i.11 ], [ 13, %for.inc.i.12 ], [ 14, %for.inc.i.13 ], [ 15, %for.inc.i.14 ], [ 16, %for.inc.i.15 ], [ 17, %for.inc.i.16 ], [ 18, %for.inc.i.17 ], [ 19, %for.inc.i.18 ]
  %conv3.i = zext i1 %cmp1.i to i64
  %add.i = add nuw nsw i64 %i.0.i2.lcssa, %conv3.i
  br label %_ZN5folly6detail19to_ascii_size_arrayILm10EEEmm.exit

for.inc.i:                                        ; preds = %entry
  %1 = load i64, ptr getelementptr inbounds (%"struct.folly::c_array", ptr @_ZN5folly6detail15to_ascii_powersILm10EmE4dataE, i64 0, i32 0, i64 1), align 8, !tbaa !30
  %cmp1.i.1 = icmp ugt i64 %1, %v
  br i1 %cmp1.i.1, label %if.then.i, label %for.inc.i.1, !prof !79

for.inc.i.1:                                      ; preds = %for.inc.i
  %2 = load i64, ptr getelementptr inbounds (%"struct.folly::c_array", ptr @_ZN5folly6detail15to_ascii_powersILm10EmE4dataE, i64 0, i32 0, i64 2), align 8, !tbaa !30
  %cmp1.i.2 = icmp ugt i64 %2, %v
  br i1 %cmp1.i.2, label %if.then.i, label %for.inc.i.2, !prof !79

for.inc.i.2:                                      ; preds = %for.inc.i.1
  %3 = load i64, ptr getelementptr inbounds (%"struct.folly::c_array", ptr @_ZN5folly6detail15to_ascii_powersILm10EmE4dataE, i64 0, i32 0, i64 3), align 8, !tbaa !30
  %cmp1.i.3 = icmp ugt i64 %3, %v
  br i1 %cmp1.i.3, label %if.then.i, label %for.inc.i.3, !prof !79

for.inc.i.3:                                      ; preds = %for.inc.i.2
  %4 = load i64, ptr getelementptr inbounds (%"struct.folly::c_array", ptr @_ZN5folly6detail15to_ascii_powersILm10EmE4dataE, i64 0, i32 0, i64 4), align 8, !tbaa !30
  %cmp1.i.4 = icmp ugt i64 %4, %v
  br i1 %cmp1.i.4, label %if.then.i, label %for.inc.i.4, !prof !79

for.inc.i.4:                                      ; preds = %for.inc.i.3
  %5 = load i64, ptr getelementptr inbounds (%"struct.folly::c_array", ptr @_ZN5folly6detail15to_ascii_powersILm10EmE4dataE, i64 0, i32 0, i64 5), align 8, !tbaa !30
  %cmp1.i.5 = icmp ugt i64 %5, %v
  br i1 %cmp1.i.5, label %if.then.i, label %for.inc.i.5, !prof !79

for.inc.i.5:                                      ; preds = %for.inc.i.4
  %6 = load i64, ptr getelementptr inbounds (%"struct.folly::c_array", ptr @_ZN5folly6detail15to_ascii_powersILm10EmE4dataE, i64 0, i32 0, i64 6), align 8, !tbaa !30
  %cmp1.i.6 = icmp ugt i64 %6, %v
  br i1 %cmp1.i.6, label %if.then.i, label %for.inc.i.6, !prof !79

for.inc.i.6:                                      ; preds = %for.inc.i.5
  %7 = load i64, ptr getelementptr inbounds (%"struct.folly::c_array", ptr @_ZN5folly6detail15to_ascii_powersILm10EmE4dataE, i64 0, i32 0, i64 7), align 8, !tbaa !30
  %cmp1.i.7 = icmp ugt i64 %7, %v
  br i1 %cmp1.i.7, label %if.then.i, label %for.inc.i.7, !prof !79

for.inc.i.7:                                      ; preds = %for.inc.i.6
  %8 = load i64, ptr getelementptr inbounds (%"struct.folly::c_array", ptr @_ZN5folly6detail15to_ascii_powersILm10EmE4dataE, i64 0, i32 0, i64 8), align 8, !tbaa !30
  %cmp1.i.8 = icmp ugt i64 %8, %v
  br i1 %cmp1.i.8, label %if.then.i, label %for.inc.i.8, !prof !79

for.inc.i.8:                                      ; preds = %for.inc.i.7
  %9 = load i64, ptr getelementptr inbounds (%"struct.folly::c_array", ptr @_ZN5folly6detail15to_ascii_powersILm10EmE4dataE, i64 0, i32 0, i64 9), align 8, !tbaa !30
  %cmp1.i.9 = icmp ugt i64 %9, %v
  br i1 %cmp1.i.9, label %if.then.i, label %for.inc.i.9, !prof !79

for.inc.i.9:                                      ; preds = %for.inc.i.8
  %10 = load i64, ptr getelementptr inbounds (%"struct.folly::c_array", ptr @_ZN5folly6detail15to_ascii_powersILm10EmE4dataE, i64 0, i32 0, i64 10), align 8, !tbaa !30
  %cmp1.i.10 = icmp ugt i64 %10, %v
  br i1 %cmp1.i.10, label %if.then.i, label %for.inc.i.10, !prof !79

for.inc.i.10:                                     ; preds = %for.inc.i.9
  %11 = load i64, ptr getelementptr inbounds (%"struct.folly::c_array", ptr @_ZN5folly6detail15to_ascii_powersILm10EmE4dataE, i64 0, i32 0, i64 11), align 8, !tbaa !30
  %cmp1.i.11 = icmp ugt i64 %11, %v
  br i1 %cmp1.i.11, label %if.then.i, label %for.inc.i.11, !prof !79

for.inc.i.11:                                     ; preds = %for.inc.i.10
  %12 = load i64, ptr getelementptr inbounds (%"struct.folly::c_array", ptr @_ZN5folly6detail15to_ascii_powersILm10EmE4dataE, i64 0, i32 0, i64 12), align 8, !tbaa !30
  %cmp1.i.12 = icmp ugt i64 %12, %v
  br i1 %cmp1.i.12, label %if.then.i, label %for.inc.i.12, !prof !79

for.inc.i.12:                                     ; preds = %for.inc.i.11
  %13 = load i64, ptr getelementptr inbounds (%"struct.folly::c_array", ptr @_ZN5folly6detail15to_ascii_powersILm10EmE4dataE, i64 0, i32 0, i64 13), align 8, !tbaa !30
  %cmp1.i.13 = icmp ugt i64 %13, %v
  br i1 %cmp1.i.13, label %if.then.i, label %for.inc.i.13, !prof !79

for.inc.i.13:                                     ; preds = %for.inc.i.12
  %14 = load i64, ptr getelementptr inbounds (%"struct.folly::c_array", ptr @_ZN5folly6detail15to_ascii_powersILm10EmE4dataE, i64 0, i32 0, i64 14), align 8, !tbaa !30
  %cmp1.i.14 = icmp ugt i64 %14, %v
  br i1 %cmp1.i.14, label %if.then.i, label %for.inc.i.14, !prof !79

for.inc.i.14:                                     ; preds = %for.inc.i.13
  %15 = load i64, ptr getelementptr inbounds (%"struct.folly::c_array", ptr @_ZN5folly6detail15to_ascii_powersILm10EmE4dataE, i64 0, i32 0, i64 15), align 8, !tbaa !30
  %cmp1.i.15 = icmp ugt i64 %15, %v
  br i1 %cmp1.i.15, label %if.then.i, label %for.inc.i.15, !prof !79

for.inc.i.15:                                     ; preds = %for.inc.i.14
  %16 = load i64, ptr getelementptr inbounds (%"struct.folly::c_array", ptr @_ZN5folly6detail15to_ascii_powersILm10EmE4dataE, i64 0, i32 0, i64 16), align 8, !tbaa !30
  %cmp1.i.16 = icmp ugt i64 %16, %v
  br i1 %cmp1.i.16, label %if.then.i, label %for.inc.i.16, !prof !79

for.inc.i.16:                                     ; preds = %for.inc.i.15
  %17 = load i64, ptr getelementptr inbounds (%"struct.folly::c_array", ptr @_ZN5folly6detail15to_ascii_powersILm10EmE4dataE, i64 0, i32 0, i64 17), align 8, !tbaa !30
  %cmp1.i.17 = icmp ugt i64 %17, %v
  br i1 %cmp1.i.17, label %if.then.i, label %for.inc.i.17, !prof !79

for.inc.i.17:                                     ; preds = %for.inc.i.16
  %18 = load i64, ptr getelementptr inbounds (%"struct.folly::c_array", ptr @_ZN5folly6detail15to_ascii_powersILm10EmE4dataE, i64 0, i32 0, i64 18), align 8, !tbaa !30
  %cmp1.i.18 = icmp ugt i64 %18, %v
  br i1 %cmp1.i.18, label %if.then.i, label %for.inc.i.18, !prof !79

for.inc.i.18:                                     ; preds = %for.inc.i.17
  %19 = load i64, ptr getelementptr inbounds (%"struct.folly::c_array", ptr @_ZN5folly6detail15to_ascii_powersILm10EmE4dataE, i64 0, i32 0, i64 19), align 8, !tbaa !30
  %cmp1.i.19 = icmp ugt i64 %19, %v
  br i1 %cmp1.i.19, label %if.then.i, label %_ZN5folly6detail19to_ascii_size_arrayILm10EEEmm.exit, !prof !79

_ZN5folly6detail19to_ascii_size_arrayILm10EEEmm.exit: ; preds = %for.inc.i.18, %if.then.i
  %spec.select.i = phi i64 [ %add.i, %if.then.i ], [ 20, %for.inc.i.18 ]
  ret i64 %spec.select.i
}

; Function Attrs: mustprogress uwtable
define linkonce_odr void @_ZN5folly6detail18ToAppendStrImplAllISt16integer_sequenceImJLm0ELm1ELm2ELm3ELm4EEEE4callIJA17_cNS_2io11StreamCodec5StateEA18_cS9_PNSt7__cxx1112basic_stringIcSt11char_traitsIcESaIcEEEEEEvDpRKT_(ptr noundef nonnull align 1 dereferenceable(17) %v, ptr noundef nonnull align 4 dereferenceable(4) %v1, ptr noundef nonnull align 1 dereferenceable(18) %v3, ptr noundef nonnull align 4 dereferenceable(4) %v5, ptr noundef nonnull align 8 dereferenceable(8) %v7) local_unnamed_addr #3 comdat align 2 personality ptr @__gxx_personality_v0 {
entry:
  %buffer.i.i41 = alloca [20 x i8], align 16
  %buffer.i.i = alloca [20 x i8], align 16
  %0 = load ptr, ptr %v7, align 8, !tbaa !10
  %call.i.i.i = tail call noundef i64 @strlen(ptr noundef nonnull dereferenceable(1) %v) #29
  %_M_string_length.i.i.i.i = getelementptr inbounds %"class.std::__cxx11::basic_string", ptr %0, i64 0, i32 1
  %1 = load i64, ptr %_M_string_length.i.i.i.i, align 8, !tbaa !18
  %sub3.i.i.i = sub i64 4611686018427387903, %1
  %cmp.i.i.i = icmp ult i64 %sub3.i.i.i, %call.i.i.i
  br i1 %cmp.i.i.i, label %if.then.i.i.i, label %_ZN5folly8toAppendINSt7__cxx1112basic_stringIcSt11char_traitsIcESaIcEEEPKcEENSt9enable_ifIXaasr3std14is_convertibleIT0_S8_EE5valuesr12IsSomeStringIT_EE5valueEvE4typeESA_PSB_.exit

if.then.i.i.i:                                    ; preds = %entry
  tail call void @_ZSt20__throw_length_errorPKc(ptr noundef nonnull @.str.7) #31
  unreachable

_ZN5folly8toAppendINSt7__cxx1112basic_stringIcSt11char_traitsIcESaIcEEEPKcEENSt9enable_ifIXaasr3std14is_convertibleIT0_S8_EE5valuesr12IsSomeStringIT_EE5valueEvE4typeESA_PSB_.exit: ; preds = %entry
  %call2.i.i = tail call noundef nonnull align 8 dereferenceable(32) ptr @_ZNSt7__cxx1112basic_stringIcSt11char_traitsIcESaIcEE9_M_appendEPKcm(ptr noundef nonnull align 8 dereferenceable(32) %0, ptr noundef nonnull %v, i64 noundef %call.i.i.i)
  %2 = load i32, ptr %v1, align 4, !tbaa !78
  call void @llvm.lifetime.start.p0(i64 20, ptr nonnull %buffer.i.i) #29
  %cmp.i.i = icmp slt i32 %2, 0
  br i1 %cmp.i.i, label %if.then.i.i, label %if.end.i.i

if.then.i.i:                                      ; preds = %_ZN5folly8toAppendINSt7__cxx1112basic_stringIcSt11char_traitsIcESaIcEEEPKcEENSt9enable_ifIXaasr3std14is_convertibleIT0_S8_EE5valuesr12IsSomeStringIT_EE5valueEvE4typeESA_PSB_.exit
  %3 = load i64, ptr %_M_string_length.i.i.i.i, align 8, !tbaa !18
  %add.i.i.i = add i64 %3, 1
  %4 = load ptr, ptr %0, align 8, !tbaa !22
  %5 = getelementptr inbounds %"class.std::__cxx11::basic_string", ptr %0, i64 0, i32 2
  %cmp.i.i.i.i.i = icmp eq ptr %4, %5
  br i1 %cmp.i.i.i.i.i, label %if.then.i.i.i.i.i, label %_ZNKSt7__cxx1112basic_stringIcSt11char_traitsIcESaIcEE8capacityEv.exit.i.i.i

if.then.i.i.i.i.i:                                ; preds = %if.then.i.i
  %cmp3.i.i.i.i.i = icmp ult i64 %3, 16
  tail call void @llvm.assume(i1 %cmp3.i.i.i.i.i)
  br label %_ZNKSt7__cxx1112basic_stringIcSt11char_traitsIcESaIcEE8capacityEv.exit.i.i.i

_ZNKSt7__cxx1112basic_stringIcSt11char_traitsIcESaIcEE8capacityEv.exit.i.i.i: ; preds = %if.then.i.i.i.i.i, %if.then.i.i
  %6 = load i64, ptr %5, align 8
  %cond.i.i.i.i = select i1 %cmp.i.i.i.i.i, i64 15, i64 %6
  %cmp.i.i.i32 = icmp ugt i64 %add.i.i.i, %cond.i.i.i.i
  br i1 %cmp.i.i.i32, label %if.then.i.i.i33, label %_ZNSt7__cxx1112basic_stringIcSt11char_traitsIcESaIcEE9push_backEc.exit.i.i

if.then.i.i.i33:                                  ; preds = %_ZNKSt7__cxx1112basic_stringIcSt11char_traitsIcESaIcEE8capacityEv.exit.i.i.i
  tail call void @_ZNSt7__cxx1112basic_stringIcSt11char_traitsIcESaIcEE9_M_mutateEmmPKcm(ptr noundef nonnull align 8 dereferenceable(32) %0, i64 noundef %3, i64 noundef 0, ptr noundef null, i64 noundef 1)
  %.pre.i.i.i = load ptr, ptr %0, align 8, !tbaa !22
  br label %_ZNSt7__cxx1112basic_stringIcSt11char_traitsIcESaIcEE9push_backEc.exit.i.i

_ZNSt7__cxx1112basic_stringIcSt11char_traitsIcESaIcEE9push_backEc.exit.i.i: ; preds = %if.then.i.i.i33, %_ZNKSt7__cxx1112basic_stringIcSt11char_traitsIcESaIcEE8capacityEv.exit.i.i.i
  %7 = phi ptr [ %.pre.i.i.i, %if.then.i.i.i33 ], [ %4, %_ZNKSt7__cxx1112basic_stringIcSt11char_traitsIcESaIcEE8capacityEv.exit.i.i.i ]
  %arrayidx.i.i.i = getelementptr inbounds i8, ptr %7, i64 %3
  store i8 45, ptr %arrayidx.i.i.i, align 1, !tbaa !21
  store i64 %add.i.i.i, ptr %_M_string_length.i.i.i.i, align 8, !tbaa !18
  %8 = load ptr, ptr %0, align 8, !tbaa !22
  %arrayidx.i.i.i.i = getelementptr inbounds i8, ptr %8, i64 %add.i.i.i
  store i8 0, ptr %arrayidx.i.i.i.i, align 1, !tbaa !21
  br label %if.end.i.i

if.end.i.i:                                       ; preds = %_ZNSt7__cxx1112basic_stringIcSt11char_traitsIcESaIcEE9push_backEc.exit.i.i, %_ZN5folly8toAppendINSt7__cxx1112basic_stringIcSt11char_traitsIcESaIcEEEPKcEENSt9enable_ifIXaasr3std14is_convertibleIT0_S8_EE5valuesr12IsSomeStringIT_EE5valueEvE4typeESA_PSB_.exit
  %9 = tail call i32 @llvm.abs.i32(i32 %2, i1 false)
  %cond.i.i = zext i32 %9 to i64
  %call.i.i.i.i = call noundef i64 @_ZN5folly13to_ascii_withILm10ENS_17to_ascii_alphabetILb0EEELm20EEEmRAT1__cm(ptr noundef nonnull align 1 dereferenceable(20) %buffer.i.i, i64 noundef %cond.i.i)
  %10 = load i64, ptr %_M_string_length.i.i.i.i, align 8, !tbaa !18
  %sub3.i.i.i.i = sub i64 4611686018427387903, %10
  %cmp.i.i.i.i = icmp ult i64 %sub3.i.i.i.i, %call.i.i.i.i
  br i1 %cmp.i.i.i.i, label %if.then.i.i.i.i, label %_ZN5folly8toAppendINSt7__cxx1112basic_stringIcSt11char_traitsIcESaIcEEENS_2io11StreamCodec5StateEEENSt9enable_ifIXaasr3std7is_enumIT0_EE5valuesr12IsSomeStringIT_EE5valueEvE4typeESB_PSC_.exit

if.then.i.i.i.i:                                  ; preds = %if.end.i.i
  call void @_ZSt20__throw_length_errorPKc(ptr noundef nonnull @.str.7) #31
  unreachable

_ZN5folly8toAppendINSt7__cxx1112basic_stringIcSt11char_traitsIcESaIcEEENS_2io11StreamCodec5StateEEENSt9enable_ifIXaasr3std7is_enumIT0_EE5valuesr12IsSomeStringIT_EE5valueEvE4typeESB_PSC_.exit: ; preds = %if.end.i.i
  %call.i.i.i30 = call noundef nonnull align 8 dereferenceable(32) ptr @_ZNSt7__cxx1112basic_stringIcSt11char_traitsIcESaIcEE9_M_appendEPKcm(ptr noundef nonnull align 8 dereferenceable(32) %0, ptr noundef nonnull %buffer.i.i, i64 noundef %call.i.i.i.i)
  call void @llvm.lifetime.end.p0(i64 20, ptr nonnull %buffer.i.i) #29
  %call.i.i.i34 = call noundef i64 @strlen(ptr noundef nonnull dereferenceable(1) %v3) #29
  %11 = load i64, ptr %_M_string_length.i.i.i.i, align 8, !tbaa !18
  %sub3.i.i.i36 = sub i64 4611686018427387903, %11
  %cmp.i.i.i37 = icmp ult i64 %sub3.i.i.i36, %call.i.i.i34
  br i1 %cmp.i.i.i37, label %if.then.i.i.i39, label %_ZN5folly8toAppendINSt7__cxx1112basic_stringIcSt11char_traitsIcESaIcEEEPKcEENSt9enable_ifIXaasr3std14is_convertibleIT0_S8_EE5valuesr12IsSomeStringIT_EE5valueEvE4typeESA_PSB_.exit40

if.then.i.i.i39:                                  ; preds = %_ZN5folly8toAppendINSt7__cxx1112basic_stringIcSt11char_traitsIcESaIcEEENS_2io11StreamCodec5StateEEENSt9enable_ifIXaasr3std7is_enumIT0_EE5valuesr12IsSomeStringIT_EE5valueEvE4typeESB_PSC_.exit
  call void @_ZSt20__throw_length_errorPKc(ptr noundef nonnull @.str.7) #31
  unreachable

_ZN5folly8toAppendINSt7__cxx1112basic_stringIcSt11char_traitsIcESaIcEEEPKcEENSt9enable_ifIXaasr3std14is_convertibleIT0_S8_EE5valuesr12IsSomeStringIT_EE5valueEvE4typeESA_PSB_.exit40: ; preds = %_ZN5folly8toAppendINSt7__cxx1112basic_stringIcSt11char_traitsIcESaIcEEENS_2io11StreamCodec5StateEEENSt9enable_ifIXaasr3std7is_enumIT0_EE5valuesr12IsSomeStringIT_EE5valueEvE4typeESB_PSC_.exit
  %call2.i.i38 = call noundef nonnull align 8 dereferenceable(32) ptr @_ZNSt7__cxx1112basic_stringIcSt11char_traitsIcESaIcEE9_M_appendEPKcm(ptr noundef nonnull align 8 dereferenceable(32) %0, ptr noundef nonnull %v3, i64 noundef %call.i.i.i34)
  %12 = load i32, ptr %v5, align 4, !tbaa !78
  call void @llvm.lifetime.start.p0(i64 20, ptr nonnull %buffer.i.i41) #29
  %cmp.i.i42 = icmp slt i32 %12, 0
  br i1 %cmp.i.i42, label %if.then.i.i51, label %if.end.i.i43

if.then.i.i51:                                    ; preds = %_ZN5folly8toAppendINSt7__cxx1112basic_stringIcSt11char_traitsIcESaIcEEEPKcEENSt9enable_ifIXaasr3std14is_convertibleIT0_S8_EE5valuesr12IsSomeStringIT_EE5valueEvE4typeESA_PSB_.exit40
  %13 = load i64, ptr %_M_string_length.i.i.i.i, align 8, !tbaa !18
  %add.i.i.i53 = add i64 %13, 1
  %14 = load ptr, ptr %0, align 8, !tbaa !22
  %15 = getelementptr inbounds %"class.std::__cxx11::basic_string", ptr %0, i64 0, i32 2
  %cmp.i.i.i.i.i54 = icmp eq ptr %14, %15
  br i1 %cmp.i.i.i.i.i54, label %if.then.i.i.i.i.i63, label %_ZNKSt7__cxx1112basic_stringIcSt11char_traitsIcESaIcEE8capacityEv.exit.i.i.i55

if.then.i.i.i.i.i63:                              ; preds = %if.then.i.i51
  %cmp3.i.i.i.i.i64 = icmp ult i64 %13, 16
  call void @llvm.assume(i1 %cmp3.i.i.i.i.i64)
  br label %_ZNKSt7__cxx1112basic_stringIcSt11char_traitsIcESaIcEE8capacityEv.exit.i.i.i55

_ZNKSt7__cxx1112basic_stringIcSt11char_traitsIcESaIcEE8capacityEv.exit.i.i.i55: ; preds = %if.then.i.i.i.i.i63, %if.then.i.i51
  %16 = load i64, ptr %15, align 8
  %cond.i.i.i.i56 = select i1 %cmp.i.i.i.i.i54, i64 15, i64 %16
  %cmp.i.i.i57 = icmp ugt i64 %add.i.i.i53, %cond.i.i.i.i56
  br i1 %cmp.i.i.i57, label %if.then.i.i.i61, label %_ZNSt7__cxx1112basic_stringIcSt11char_traitsIcESaIcEE9push_backEc.exit.i.i58

if.then.i.i.i61:                                  ; preds = %_ZNKSt7__cxx1112basic_stringIcSt11char_traitsIcESaIcEE8capacityEv.exit.i.i.i55
  call void @_ZNSt7__cxx1112basic_stringIcSt11char_traitsIcESaIcEE9_M_mutateEmmPKcm(ptr noundef nonnull align 8 dereferenceable(32) %0, i64 noundef %13, i64 noundef 0, ptr noundef null, i64 noundef 1)
  %.pre.i.i.i62 = load ptr, ptr %0, align 8, !tbaa !22
  br label %_ZNSt7__cxx1112basic_stringIcSt11char_traitsIcESaIcEE9push_backEc.exit.i.i58

_ZNSt7__cxx1112basic_stringIcSt11char_traitsIcESaIcEE9push_backEc.exit.i.i58: ; preds = %if.then.i.i.i61, %_ZNKSt7__cxx1112basic_stringIcSt11char_traitsIcESaIcEE8capacityEv.exit.i.i.i55
  %17 = phi ptr [ %.pre.i.i.i62, %if.then.i.i.i61 ], [ %14, %_ZNKSt7__cxx1112basic_stringIcSt11char_traitsIcESaIcEE8capacityEv.exit.i.i.i55 ]
  %arrayidx.i.i.i59 = getelementptr inbounds i8, ptr %17, i64 %13
  store i8 45, ptr %arrayidx.i.i.i59, align 1, !tbaa !21
  store i64 %add.i.i.i53, ptr %_M_string_length.i.i.i.i, align 8, !tbaa !18
  %18 = load ptr, ptr %0, align 8, !tbaa !22
  %arrayidx.i.i.i.i60 = getelementptr inbounds i8, ptr %18, i64 %add.i.i.i53
  store i8 0, ptr %arrayidx.i.i.i.i60, align 1, !tbaa !21
  br label %if.end.i.i43

if.end.i.i43:                                     ; preds = %_ZNSt7__cxx1112basic_stringIcSt11char_traitsIcESaIcEE9push_backEc.exit.i.i58, %_ZN5folly8toAppendINSt7__cxx1112basic_stringIcSt11char_traitsIcESaIcEEEPKcEENSt9enable_ifIXaasr3std14is_convertibleIT0_S8_EE5valuesr12IsSomeStringIT_EE5valueEvE4typeESA_PSB_.exit40
  %19 = call i32 @llvm.abs.i32(i32 %12, i1 false)
  %cond.i.i44 = zext i32 %19 to i64
  %call.i.i.i.i45 = call noundef i64 @_ZN5folly13to_ascii_withILm10ENS_17to_ascii_alphabetILb0EEELm20EEEmRAT1__cm(ptr noundef nonnull align 1 dereferenceable(20) %buffer.i.i41, i64 noundef %cond.i.i44)
  %20 = load i64, ptr %_M_string_length.i.i.i.i, align 8, !tbaa !18
  %sub3.i.i.i.i47 = sub i64 4611686018427387903, %20
  %cmp.i.i.i.i48 = icmp ult i64 %sub3.i.i.i.i47, %call.i.i.i.i45
  br i1 %cmp.i.i.i.i48, label %if.then.i.i.i.i50, label %_ZN5folly8toAppendINSt7__cxx1112basic_stringIcSt11char_traitsIcESaIcEEENS_2io11StreamCodec5StateEEENSt9enable_ifIXaasr3std7is_enumIT0_EE5valuesr12IsSomeStringIT_EE5valueEvE4typeESB_PSC_.exit65

if.then.i.i.i.i50:                                ; preds = %if.end.i.i43
  call void @_ZSt20__throw_length_errorPKc(ptr noundef nonnull @.str.7) #31
  unreachable

_ZN5folly8toAppendINSt7__cxx1112basic_stringIcSt11char_traitsIcESaIcEEENS_2io11StreamCodec5StateEEENSt9enable_ifIXaasr3std7is_enumIT0_EE5valuesr12IsSomeStringIT_EE5valueEvE4typeESB_PSC_.exit65: ; preds = %if.end.i.i43
  %call.i.i.i49 = call noundef nonnull align 8 dereferenceable(32) ptr @_ZNSt7__cxx1112basic_stringIcSt11char_traitsIcESaIcEE9_M_appendEPKcm(ptr noundef nonnull align 8 dereferenceable(32) %0, ptr noundef nonnull %buffer.i.i41, i64 noundef %call.i.i.i.i45)
  call void @llvm.lifetime.end.p0(i64 20, ptr nonnull %buffer.i.i41) #29
  ret void
}

declare void @_ZNSt7__cxx1112basic_stringIcSt11char_traitsIcESaIcEE9_M_mutateEmmPKcm(ptr noundef nonnull align 8 dereferenceable(32), i64 noundef, i64 noundef, ptr noundef, i64 noundef) local_unnamed_addr #5

; Function Attrs: mustprogress uwtable
define linkonce_odr noundef i64 @_ZN5folly13to_ascii_withILm10ENS_17to_ascii_alphabetILb0EEELm20EEEmRAT1__cm(ptr noundef nonnull align 1 dereferenceable(20) %out, i64 noundef %v) local_unnamed_addr #3 comdat {
entry:
  %0 = load i64, ptr @_ZN5folly6detail15to_ascii_powersILm10EmE4dataE, align 8, !tbaa !30
  %cmp1.i.i = icmp ugt i64 %0, %v
  br i1 %cmp1.i.i, label %_ZN5folly6detail19to_ascii_with_tableILm10ENS_17to_ascii_alphabetILb0EEEEEmPcm.exit, label %for.inc.i.i, !prof !79

for.inc.i.i:                                      ; preds = %entry
  %1 = load i64, ptr getelementptr inbounds (%"struct.folly::c_array", ptr @_ZN5folly6detail15to_ascii_powersILm10EmE4dataE, i64 0, i32 0, i64 1), align 8, !tbaa !30
  %cmp1.i.i.1 = icmp ugt i64 %1, %v
  br i1 %cmp1.i.i.1, label %_ZN5folly6detail19to_ascii_with_tableILm10ENS_17to_ascii_alphabetILb0EEEEEmPcm.exit, label %for.inc.i.i.1, !prof !79

for.inc.i.i.1:                                    ; preds = %for.inc.i.i
  %2 = load i64, ptr getelementptr inbounds (%"struct.folly::c_array", ptr @_ZN5folly6detail15to_ascii_powersILm10EmE4dataE, i64 0, i32 0, i64 2), align 8, !tbaa !30
  %cmp1.i.i.2 = icmp ugt i64 %2, %v
  br i1 %cmp1.i.i.2, label %_ZN5folly6detail19to_ascii_with_tableILm10ENS_17to_ascii_alphabetILb0EEEEEmPcm.exit, label %for.inc.i.i.2, !prof !79

for.inc.i.i.2:                                    ; preds = %for.inc.i.i.1
  %3 = load i64, ptr getelementptr inbounds (%"struct.folly::c_array", ptr @_ZN5folly6detail15to_ascii_powersILm10EmE4dataE, i64 0, i32 0, i64 3), align 8, !tbaa !30
  %cmp1.i.i.3 = icmp ugt i64 %3, %v
  br i1 %cmp1.i.i.3, label %_ZN5folly6detail19to_ascii_with_tableILm10ENS_17to_ascii_alphabetILb0EEEEEmPcm.exit, label %for.inc.i.i.3, !prof !79

for.inc.i.i.3:                                    ; preds = %for.inc.i.i.2
  %4 = load i64, ptr getelementptr inbounds (%"struct.folly::c_array", ptr @_ZN5folly6detail15to_ascii_powersILm10EmE4dataE, i64 0, i32 0, i64 4), align 8, !tbaa !30
  %cmp1.i.i.4 = icmp ugt i64 %4, %v
  br i1 %cmp1.i.i.4, label %_ZN5folly6detail19to_ascii_with_tableILm10ENS_17to_ascii_alphabetILb0EEEEEmPcm.exit, label %for.inc.i.i.4, !prof !79

for.inc.i.i.4:                                    ; preds = %for.inc.i.i.3
  %5 = load i64, ptr getelementptr inbounds (%"struct.folly::c_array", ptr @_ZN5folly6detail15to_ascii_powersILm10EmE4dataE, i64 0, i32 0, i64 5), align 8, !tbaa !30
  %cmp1.i.i.5 = icmp ugt i64 %5, %v
  br i1 %cmp1.i.i.5, label %_ZN5folly6detail19to_ascii_with_tableILm10ENS_17to_ascii_alphabetILb0EEEEEmPcm.exit, label %for.inc.i.i.5, !prof !79

for.inc.i.i.5:                                    ; preds = %for.inc.i.i.4
  %6 = load i64, ptr getelementptr inbounds (%"struct.folly::c_array", ptr @_ZN5folly6detail15to_ascii_powersILm10EmE4dataE, i64 0, i32 0, i64 6), align 8, !tbaa !30
  %cmp1.i.i.6 = icmp ugt i64 %6, %v
  br i1 %cmp1.i.i.6, label %_ZN5folly6detail19to_ascii_with_tableILm10ENS_17to_ascii_alphabetILb0EEEEEmPcm.exit, label %for.inc.i.i.6, !prof !79

for.inc.i.i.6:                                    ; preds = %for.inc.i.i.5
  %7 = load i64, ptr getelementptr inbounds (%"struct.folly::c_array", ptr @_ZN5folly6detail15to_ascii_powersILm10EmE4dataE, i64 0, i32 0, i64 7), align 8, !tbaa !30
  %cmp1.i.i.7 = icmp ugt i64 %7, %v
  br i1 %cmp1.i.i.7, label %_ZN5folly6detail19to_ascii_with_tableILm10ENS_17to_ascii_alphabetILb0EEEEEmPcm.exit, label %for.inc.i.i.7, !prof !79

for.inc.i.i.7:                                    ; preds = %for.inc.i.i.6
  %8 = load i64, ptr getelementptr inbounds (%"struct.folly::c_array", ptr @_ZN5folly6detail15to_ascii_powersILm10EmE4dataE, i64 0, i32 0, i64 8), align 8, !tbaa !30
  %cmp1.i.i.8 = icmp ugt i64 %8, %v
  br i1 %cmp1.i.i.8, label %_ZN5folly6detail19to_ascii_with_tableILm10ENS_17to_ascii_alphabetILb0EEEEEmPcm.exit, label %for.inc.i.i.8, !prof !79

for.inc.i.i.8:                                    ; preds = %for.inc.i.i.7
  %9 = load i64, ptr getelementptr inbounds (%"struct.folly::c_array", ptr @_ZN5folly6detail15to_ascii_powersILm10EmE4dataE, i64 0, i32 0, i64 9), align 8, !tbaa !30
  %cmp1.i.i.9 = icmp ugt i64 %9, %v
  br i1 %cmp1.i.i.9, label %_ZN5folly6detail19to_ascii_with_tableILm10ENS_17to_ascii_alphabetILb0EEEEEmPcm.exit, label %for.inc.i.i.9, !prof !79

for.inc.i.i.9:                                    ; preds = %for.inc.i.i.8
  %10 = load i64, ptr getelementptr inbounds (%"struct.folly::c_array", ptr @_ZN5folly6detail15to_ascii_powersILm10EmE4dataE, i64 0, i32 0, i64 10), align 8, !tbaa !30
  %cmp1.i.i.10 = icmp ugt i64 %10, %v
  br i1 %cmp1.i.i.10, label %_ZN5folly6detail19to_ascii_with_tableILm10ENS_17to_ascii_alphabetILb0EEEEEmPcm.exit, label %for.inc.i.i.10, !prof !79

for.inc.i.i.10:                                   ; preds = %for.inc.i.i.9
  %11 = load i64, ptr getelementptr inbounds (%"struct.folly::c_array", ptr @_ZN5folly6detail15to_ascii_powersILm10EmE4dataE, i64 0, i32 0, i64 11), align 8, !tbaa !30
  %cmp1.i.i.11 = icmp ugt i64 %11, %v
  br i1 %cmp1.i.i.11, label %_ZN5folly6detail19to_ascii_with_tableILm10ENS_17to_ascii_alphabetILb0EEEEEmPcm.exit, label %for.inc.i.i.11, !prof !79

for.inc.i.i.11:                                   ; preds = %for.inc.i.i.10
  %12 = load i64, ptr getelementptr inbounds (%"struct.folly::c_array", ptr @_ZN5folly6detail15to_ascii_powersILm10EmE4dataE, i64 0, i32 0, i64 12), align 8, !tbaa !30
  %cmp1.i.i.12 = icmp ugt i64 %12, %v
  br i1 %cmp1.i.i.12, label %_ZN5folly6detail19to_ascii_with_tableILm10ENS_17to_ascii_alphabetILb0EEEEEmPcm.exit, label %for.inc.i.i.12, !prof !79

for.inc.i.i.12:                                   ; preds = %for.inc.i.i.11
  %13 = load i64, ptr getelementptr inbounds (%"struct.folly::c_array", ptr @_ZN5folly6detail15to_ascii_powersILm10EmE4dataE, i64 0, i32 0, i64 13), align 8, !tbaa !30
  %cmp1.i.i.13 = icmp ugt i64 %13, %v
  br i1 %cmp1.i.i.13, label %_ZN5folly6detail19to_ascii_with_tableILm10ENS_17to_ascii_alphabetILb0EEEEEmPcm.exit, label %for.inc.i.i.13, !prof !79

for.inc.i.i.13:                                   ; preds = %for.inc.i.i.12
  %14 = load i64, ptr getelementptr inbounds (%"struct.folly::c_array", ptr @_ZN5folly6detail15to_ascii_powersILm10EmE4dataE, i64 0, i32 0, i64 14), align 8, !tbaa !30
  %cmp1.i.i.14 = icmp ugt i64 %14, %v
  br i1 %cmp1.i.i.14, label %_ZN5folly6detail19to_ascii_with_tableILm10ENS_17to_ascii_alphabetILb0EEEEEmPcm.exit, label %for.inc.i.i.14, !prof !79

for.inc.i.i.14:                                   ; preds = %for.inc.i.i.13
  %15 = load i64, ptr getelementptr inbounds (%"struct.folly::c_array", ptr @_ZN5folly6detail15to_ascii_powersILm10EmE4dataE, i64 0, i32 0, i64 15), align 8, !tbaa !30
  %cmp1.i.i.15 = icmp ugt i64 %15, %v
  br i1 %cmp1.i.i.15, label %_ZN5folly6detail19to_ascii_with_tableILm10ENS_17to_ascii_alphabetILb0EEEEEmPcm.exit, label %for.inc.i.i.15, !prof !79

for.inc.i.i.15:                                   ; preds = %for.inc.i.i.14
  %16 = load i64, ptr getelementptr inbounds (%"struct.folly::c_array", ptr @_ZN5folly6detail15to_ascii_powersILm10EmE4dataE, i64 0, i32 0, i64 16), align 8, !tbaa !30
  %cmp1.i.i.16 = icmp ugt i64 %16, %v
  br i1 %cmp1.i.i.16, label %_ZN5folly6detail19to_ascii_with_tableILm10ENS_17to_ascii_alphabetILb0EEEEEmPcm.exit, label %for.inc.i.i.16, !prof !79

for.inc.i.i.16:                                   ; preds = %for.inc.i.i.15
  %17 = load i64, ptr getelementptr inbounds (%"struct.folly::c_array", ptr @_ZN5folly6detail15to_ascii_powersILm10EmE4dataE, i64 0, i32 0, i64 17), align 8, !tbaa !30
  %cmp1.i.i.17 = icmp ugt i64 %17, %v
  br i1 %cmp1.i.i.17, label %_ZN5folly6detail19to_ascii_with_tableILm10ENS_17to_ascii_alphabetILb0EEEEEmPcm.exit, label %for.inc.i.i.17, !prof !79

for.inc.i.i.17:                                   ; preds = %for.inc.i.i.16
  %18 = load i64, ptr getelementptr inbounds (%"struct.folly::c_array", ptr @_ZN5folly6detail15to_ascii_powersILm10EmE4dataE, i64 0, i32 0, i64 18), align 8, !tbaa !30
  %cmp1.i.i.18 = icmp ugt i64 %18, %v
  br i1 %cmp1.i.i.18, label %_ZN5folly6detail19to_ascii_with_tableILm10ENS_17to_ascii_alphabetILb0EEEEEmPcm.exit, label %for.inc.i.i.18, !prof !79

for.inc.i.i.18:                                   ; preds = %for.inc.i.i.17
  %19 = load i64, ptr getelementptr inbounds (%"struct.folly::c_array", ptr @_ZN5folly6detail15to_ascii_powersILm10EmE4dataE, i64 0, i32 0, i64 19), align 8, !tbaa !30
  %cmp1.i.i.19 = icmp ugt i64 %19, %v
  br i1 %cmp1.i.i.19, label %_ZN5folly6detail19to_ascii_with_tableILm10ENS_17to_ascii_alphabetILb0EEEEEmPcm.exit, label %while.body.i.preheader, !prof !79

_ZN5folly6detail19to_ascii_with_tableILm10ENS_17to_ascii_alphabetILb0EEEEEmPcm.exit: ; preds = %for.inc.i.i.18, %for.inc.i.i.17, %for.inc.i.i.16, %for.inc.i.i.15, %for.inc.i.i.14, %for.inc.i.i.13, %for.inc.i.i.12, %for.inc.i.i.11, %for.inc.i.i.10, %for.inc.i.i.9, %for.inc.i.i.8, %for.inc.i.i.7, %for.inc.i.i.6, %for.inc.i.i.5, %for.inc.i.i.4, %for.inc.i.i.3, %for.inc.i.i.2, %for.inc.i.i.1, %for.inc.i.i, %entry
  %i.0.i.i2.lcssa = phi i64 [ 0, %entry ], [ 1, %for.inc.i.i ], [ 2, %for.inc.i.i.1 ], [ 3, %for.inc.i.i.2 ], [ 4, %for.inc.i.i.3 ], [ 5, %for.inc.i.i.4 ], [ 6, %for.inc.i.i.5 ], [ 7, %for.inc.i.i.6 ], [ 8, %for.inc.i.i.7 ], [ 9, %for.inc.i.i.8 ], [ 10, %for.inc.i.i.9 ], [ 11, %for.inc.i.i.10 ], [ 12, %for.inc.i.i.11 ], [ 13, %for.inc.i.i.12 ], [ 14, %for.inc.i.i.13 ], [ 15, %for.inc.i.i.14 ], [ 16, %for.inc.i.i.15 ], [ 17, %for.inc.i.i.16 ], [ 18, %for.inc.i.i.17 ], [ 19, %for.inc.i.i.18 ]
  %conv3.i.i = zext i1 %cmp1.i.i to i64
  %add.i.i = add nuw nsw i64 %i.0.i.i2.lcssa, %conv3.i.i
  %cmp.i3 = icmp ugt i64 %add.i.i, 2
  br i1 %cmp.i3, label %while.body.i.preheader, label %while.end.i, !prof !80

while.body.i.preheader:                           ; preds = %_ZN5folly6detail19to_ascii_with_tableILm10ENS_17to_ascii_alphabetILb0EEEEEmPcm.exit, %for.inc.i.i.18
  %spec.select.i.i11 = phi i64 [ %add.i.i, %_ZN5folly6detail19to_ascii_with_tableILm10ENS_17to_ascii_alphabetILb0EEEEEmPcm.exit ], [ 20, %for.inc.i.i.18 ]
  br label %while.body.i

while.body.i:                                     ; preds = %while.body.i, %while.body.i.preheader
  %v.addr.0.i5 = phi i64 [ %div.i, %while.body.i ], [ %v, %while.body.i.preheader ]
  %pos.0.i4 = phi i64 [ %sub.i, %while.body.i ], [ %spec.select.i.i11, %while.body.i.preheader ]
  %sub.i = add i64 %pos.0.i4, -2
  %div.i = udiv i64 %v.addr.0.i5, 100
  %rem.i = urem i64 %v.addr.0.i5, 100
  %arrayidx.i = getelementptr inbounds [100 x i16], ptr @_ZN5folly6detail14to_ascii_tableILm10ENS_17to_ascii_alphabetILb0EEEE4dataE, i64 0, i64 %rem.i
  %20 = load i16, ptr %arrayidx.i, align 2, !tbaa !81
  %add.ptr.i = getelementptr inbounds i8, ptr %out, i64 %sub.i
  store i16 %20, ptr %add.ptr.i, align 1
  %cmp.i = icmp ugt i64 %sub.i, 2
  br i1 %cmp.i, label %while.body.i, label %while.end.i, !prof !83, !llvm.loop !84

while.end.i:                                      ; preds = %while.body.i, %_ZN5folly6detail19to_ascii_with_tableILm10ENS_17to_ascii_alphabetILb0EEEEEmPcm.exit
  %spec.select.i.i10 = phi i64 [ %add.i.i, %_ZN5folly6detail19to_ascii_with_tableILm10ENS_17to_ascii_alphabetILb0EEEEEmPcm.exit ], [ %spec.select.i.i11, %while.body.i ]
  %pos.0.i.lcssa = phi i64 [ %add.i.i, %_ZN5folly6detail19to_ascii_with_tableILm10ENS_17to_ascii_alphabetILb0EEEEEmPcm.exit ], [ %sub.i, %while.body.i ]
  %v.addr.0.i.lcssa = phi i64 [ %v, %_ZN5folly6detail19to_ascii_with_tableILm10ENS_17to_ascii_alphabetILb0EEEEEmPcm.exit ], [ %div.i, %while.body.i ]
  %arrayidx2.i = getelementptr inbounds [100 x i16], ptr @_ZN5folly6detail14to_ascii_tableILm10ENS_17to_ascii_alphabetILb0EEEE4dataE, i64 0, i64 %v.addr.0.i.lcssa
  %21 = load i16, ptr %arrayidx2.i, align 2, !tbaa !81
  %cmp3.i = icmp eq i64 %pos.0.i.lcssa, 2
  br i1 %cmp3.i, label %if.then.i, label %if.else.i, !prof !79

if.then.i:                                        ; preds = %while.end.i
  store i16 %21, ptr %out, align 1
  br label %_ZN5folly6detail19to_ascii_with_tableILm10ENS_17to_ascii_alphabetILb0EEEEEvPcmm.exit

if.else.i:                                        ; preds = %while.end.i
  %22 = lshr i16 %21, 8
  %conv8.i = trunc i16 %22 to i8
  store i8 %conv8.i, ptr %out, align 1, !tbaa !21
  br label %_ZN5folly6detail19to_ascii_with_tableILm10ENS_17to_ascii_alphabetILb0EEEEEvPcmm.exit

_ZN5folly6detail19to_ascii_with_tableILm10ENS_17to_ascii_alphabetILb0EEEEEvPcmm.exit: ; preds = %if.else.i, %if.then.i
  ret i64 %spec.select.i.i10
}

; Function Attrs: mustprogress uwtable
define void @_ZN5folly2io11StreamCodec11resetStreamENS_8OptionalImEE(ptr noundef nonnull align 8 dereferenceable(49) %this, ptr nocapture noundef readonly %uncompressedLength) local_unnamed_addr #3 align 2 personality ptr @__gxx_personality_v0 {
entry:
  %state_ = getelementptr inbounds %"class.folly::io::StreamCodec", ptr %this, i64 0, i32 1
  store i32 0, ptr %state_, align 4, !tbaa !40
  %uncompressedLength_ = getelementptr inbounds %"class.folly::io::StreamCodec", ptr %this, i64 0, i32 3
  %hasValue.i.i.i.i = getelementptr inbounds %"struct.folly::Optional<unsigned long>::StorageTriviallyDestructible", ptr %uncompressedLength, i64 0, i32 1
  %0 = load i8, ptr %hasValue.i.i.i.i, align 8, !tbaa !26, !range !28, !noundef !29
  %tobool.i.i.not.i.i = icmp eq i8 %0, 0
  %hasValue.i.i5.i.i = getelementptr inbounds %"class.folly::io::StreamCodec", ptr %this, i64 0, i32 3, i32 0, i32 1
  br i1 %tobool.i.i.not.i.i, label %if.else.i.i, label %_ZNKR5folly8OptionalImE5valueEv.exit.i.i

_ZNKR5folly8OptionalImE5valueEv.exit.i.i:         ; preds = %entry
  %1 = load i8, ptr %hasValue.i.i5.i.i, align 8, !tbaa !26, !range !28, !noundef !29
  %tobool.i.i.not.i.i.i = icmp eq i8 %1, 0
  %2 = load i64, ptr %uncompressedLength, align 8, !tbaa !30
  br i1 %tobool.i.i.not.i.i.i, label %if.else.i.i.i, label %_ZN5folly8OptionalImE6assignERKm.exit.i.i

if.else.i.i.i:                                    ; preds = %_ZNKR5folly8OptionalImE5valueEv.exit.i.i
  store i8 1, ptr %hasValue.i.i5.i.i, align 8, !tbaa !26
  br label %_ZN5folly8OptionalImE6assignERKm.exit.i.i

_ZN5folly8OptionalImE6assignERKm.exit.i.i:        ; preds = %if.else.i.i.i, %_ZNKR5folly8OptionalImE5valueEv.exit.i.i
  store i64 %2, ptr %uncompressedLength_, align 8
  br label %_ZN5folly8OptionalImEaSIRS1_EES3_OT_.exit

if.else.i.i:                                      ; preds = %entry
  store i8 0, ptr %hasValue.i.i5.i.i, align 8, !tbaa !23
  br label %_ZN5folly8OptionalImEaSIRS1_EES3_OT_.exit

_ZN5folly8OptionalImEaSIRS1_EES3_OT_.exit:        ; preds = %if.else.i.i, %_ZN5folly8OptionalImE6assignERKm.exit.i.i
  %progressMade_ = getelementptr inbounds %"class.folly::io::StreamCodec", ptr %this, i64 0, i32 4
  store i8 1, ptr %progressMade_, align 8, !tbaa !45
  %vtable = load ptr, ptr %this, align 8, !tbaa !7
  %vfn = getelementptr inbounds ptr, ptr %vtable, i64 13
  %3 = load ptr, ptr %vfn, align 8
  tail call void %3(ptr noundef nonnull align 8 dereferenceable(49) %this)
  ret void
}

; Function Attrs: mustprogress uwtable
define noundef zeroext i1 @_ZN5folly2io11StreamCodec14compressStreamERNS_5RangeIPKhEERNS2_IPhEENS1_7FlushOpE(ptr noundef nonnull align 8 dereferenceable(49) %this, ptr noundef nonnull align 8 dereferenceable(16) %input, ptr noundef nonnull align 8 dereferenceable(16) %output, i32 noundef %flushOp) local_unnamed_addr #3 align 2 personality ptr @__gxx_personality_v0 {
entry:
  %state_ = getelementptr inbounds %"class.folly::io::StreamCodec", ptr %this, i64 0, i32 1
  %0 = load i32, ptr %state_, align 4, !tbaa !40
  %cmp = icmp eq i32 %0, 0
  br i1 %cmp, label %land.lhs.true, label %if.end

land.lhs.true:                                    ; preds = %entry
  %1 = load ptr, ptr %input, align 8, !tbaa !50
  %e_.i = getelementptr inbounds %"class.folly::Range.9", ptr %input, i64 0, i32 1
  %2 = load ptr, ptr %e_.i, align 8, !tbaa !51
  %cmp.i = icmp eq ptr %1, %2
  %cmp3 = icmp eq i32 %flushOp, 2
  %or.cond = and i1 %cmp3, %cmp.i
  br i1 %or.cond, label %land.rhs, label %if.end

land.rhs:                                         ; preds = %land.lhs.true
  %hasValue.i.i.i.i = getelementptr inbounds %"class.folly::io::StreamCodec", ptr %this, i64 0, i32 3, i32 0, i32 1
  %3 = load i8, ptr %hasValue.i.i.i.i, align 8, !tbaa !26, !range !28, !noalias !85, !noundef !29
  %tobool.i.i.not.i.i = icmp eq i8 %3, 0
  %uncompressedLength_.i = getelementptr inbounds %"class.folly::io::StreamCodec", ptr %this, i64 0, i32 3
  %4 = load i64, ptr %uncompressedLength_.i, align 8
  %cmp6.not = icmp eq i64 %4, 0
  %or.cond198 = select i1 %tobool.i.i.not.i.i, i1 true, i1 %cmp6.not
  br i1 %or.cond198, label %if.end, label %if.then

if.then:                                          ; preds = %land.rhs
  %exception = tail call ptr @__cxa_allocate_exception(i64 16) #29
  invoke void @_ZNSt13runtime_errorC1EPKc(ptr noundef nonnull align 8 dereferenceable(16) %exception, ptr noundef nonnull @.str.3)
          to label %invoke.cont unwind label %lpad

invoke.cont:                                      ; preds = %if.then
  tail call void @__cxa_throw(ptr nonnull %exception, ptr nonnull @_ZTISt13runtime_error, ptr nonnull @_ZNSt13runtime_errorD1Ev) #31
  unreachable

lpad:                                             ; preds = %if.then
  %5 = landingpad { ptr, i32 }
          cleanup
  br label %eh.resume

if.end:                                           ; preds = %land.rhs, %land.lhs.true, %entry
  %hasValue.i.i.i.i158 = getelementptr inbounds %"class.folly::io::StreamCodec", ptr %this, i64 0, i32 3, i32 0, i32 1
  %6 = load i8, ptr %hasValue.i.i.i.i158, align 8, !tbaa !26, !range !28, !noalias !88, !noundef !29
  %tobool.i.i.not.i.i159 = icmp eq i8 %6, 0
  br i1 %tobool.i.i.not.i.i159, label %land.rhs9, label %if.end16

land.rhs9:                                        ; preds = %if.end
  %vtable.i = load ptr, ptr %this, align 8, !tbaa !7
  %vfn.i = getelementptr inbounds ptr, ptr %vtable.i, i64 12
  %7 = load ptr, ptr %vfn.i, align 8
  %call.i = tail call noundef zeroext i1 %7(ptr noundef nonnull align 8 dereferenceable(49) %this)
  br i1 %call.i, label %if.then12, label %land.rhs9.if.end16_crit_edge

land.rhs9.if.end16_crit_edge:                     ; preds = %land.rhs9
  %.pre = load i32, ptr %state_, align 4, !tbaa !40
  br label %if.end16

if.then12:                                        ; preds = %land.rhs9
  %exception13 = tail call ptr @__cxa_allocate_exception(i64 16) #29
  invoke void @_ZNSt13runtime_errorC1EPKc(ptr noundef nonnull align 8 dereferenceable(16) %exception13, ptr noundef nonnull @.str.2)
          to label %invoke.cont15 unwind label %lpad14

invoke.cont15:                                    ; preds = %if.then12
  tail call void @__cxa_throw(ptr nonnull %exception13, ptr nonnull @_ZTISt13runtime_error, ptr nonnull @_ZNSt13runtime_errorD1Ev) #31
  unreachable

lpad14:                                           ; preds = %if.then12
  %8 = landingpad { ptr, i32 }
          cleanup
  br label %eh.resume

if.end16:                                         ; preds = %land.rhs9.if.end16_crit_edge, %if.end
  %9 = phi i32 [ %.pre, %land.rhs9.if.end16_crit_edge ], [ %0, %if.end ]
  %cmp18 = icmp eq i32 %9, 0
  br i1 %cmp18, label %land.lhs.true19, label %if.end30

land.lhs.true19:                                  ; preds = %if.end16
  %10 = load ptr, ptr %input, align 8, !tbaa !50
  %e_.i163 = getelementptr inbounds %"class.folly::Range.9", ptr %input, i64 0, i32 1
  %11 = load ptr, ptr %e_.i163, align 8, !tbaa !51
  %cmp.i164 = icmp ne ptr %10, %11
  %12 = load i8, ptr %hasValue.i.i.i.i158, align 8, !range !28
  %tobool.i.i.not.i.i167 = icmp ne i8 %12, 0
  %or.cond199.not201 = select i1 %cmp.i164, i1 %tobool.i.i.not.i.i167, i1 false
  %uncompressedLength_.i169 = getelementptr inbounds %"class.folly::io::StreamCodec", ptr %this, i64 0, i32 3
  %13 = load i64, ptr %uncompressedLength_.i169, align 8
  %cmp.i172 = icmp eq i64 %13, 0
  %or.cond200 = select i1 %or.cond199.not201, i1 %cmp.i172, i1 false
  br i1 %or.cond200, label %if.then26, label %if.end30

if.then26:                                        ; preds = %land.lhs.true19
  %exception27 = tail call ptr @__cxa_allocate_exception(i64 16) #29
  invoke void @_ZNSt13runtime_errorC1EPKc(ptr noundef nonnull align 8 dereferenceable(16) %exception27, ptr noundef nonnull @.str.3)
          to label %invoke.cont29 unwind label %lpad28

invoke.cont29:                                    ; preds = %if.then26
  tail call void @__cxa_throw(ptr nonnull %exception27, ptr nonnull @_ZTISt13runtime_error, ptr nonnull @_ZNSt13runtime_errorD1Ev) #31
  unreachable

lpad28:                                           ; preds = %if.then26
  %14 = landingpad { ptr, i32 }
          cleanup
  br label %eh.resume

if.end30:                                         ; preds = %land.lhs.true19, %if.end16
  switch i32 %flushOp, label %sw.epilog [
    i32 0, label %sw.bb
    i32 1, label %sw.bb36
    i32 2, label %sw.bb44
  ]

sw.bb:                                            ; preds = %if.end30
  br i1 %cmp18, label %sw.epilog.sink.split.sink.split, label %sw.epilog.sink.split

sw.bb36:                                          ; preds = %if.end30
  %switch = icmp ult i32 %9, 2
  br i1 %switch, label %sw.epilog.sink.split.sink.split, label %sw.epilog.sink.split

sw.bb44:                                          ; preds = %if.end30
  %switch156 = icmp ult i32 %9, 2
  br i1 %switch156, label %sw.epilog.sink.split.sink.split, label %sw.epilog.sink.split

sw.epilog.sink.split.sink.split:                  ; preds = %sw.bb44, %sw.bb36, %sw.bb
  %.sink202 = phi i32 [ 1, %sw.bb ], [ 2, %sw.bb36 ], [ 3, %sw.bb44 ]
  store i32 %.sink202, ptr %state_, align 4, !tbaa !40
  br label %sw.epilog.sink.split

sw.epilog.sink.split:                             ; preds = %sw.epilog.sink.split.sink.split, %sw.bb44, %sw.bb36, %sw.bb
  %.sink = phi i32 [ 1, %sw.bb ], [ 2, %sw.bb36 ], [ 3, %sw.bb44 ], [ %.sink202, %sw.epilog.sink.split.sink.split ]
  tail call void @_ZNK5folly2io11StreamCodec13assertStateIsENS1_5StateE(ptr noundef nonnull align 8 dereferenceable(49) %this, i32 noundef %.sink)
  br label %sw.epilog

sw.epilog:                                        ; preds = %sw.epilog.sink.split, %if.end30
  %e_.i173 = getelementptr inbounds %"class.folly::Range.9", ptr %input, i64 0, i32 1
  %15 = load ptr, ptr %e_.i173, align 8, !tbaa !51
  %16 = load ptr, ptr %input, align 8, !tbaa !50
  %e_.i174 = getelementptr inbounds %"class.folly::Range.14", ptr %output, i64 0, i32 1
  %17 = load ptr, ptr %e_.i174, align 8, !tbaa !56
  %18 = load ptr, ptr %output, align 8, !tbaa !54
  %sub.ptr.lhs.cast.i175 = ptrtoint ptr %17 to i64
  %sub.ptr.rhs.cast.i176 = ptrtoint ptr %18 to i64
  %sub.ptr.sub.i177 = sub i64 %sub.ptr.lhs.cast.i175, %sub.ptr.rhs.cast.i176
  %vtable = load ptr, ptr %this, align 8, !tbaa !7
  %vfn = getelementptr inbounds ptr, ptr %vtable, i64 14
  %19 = load ptr, ptr %vfn, align 8
  %call55 = tail call noundef zeroext i1 %19(ptr noundef nonnull align 8 dereferenceable(49) %this, ptr noundef nonnull align 8 dereferenceable(16) %input, ptr noundef nonnull align 8 dereferenceable(16) %output, i32 noundef %flushOp)
  br i1 %call55, label %if.then73, label %land.lhs.true56

land.lhs.true56:                                  ; preds = %sw.epilog
  %sub.ptr.lhs.cast.i = ptrtoint ptr %15 to i64
  %sub.ptr.rhs.cast.i = ptrtoint ptr %16 to i64
  %sub.ptr.sub.i = sub i64 %sub.ptr.lhs.cast.i, %sub.ptr.rhs.cast.i
  %20 = load ptr, ptr %e_.i173, align 8, !tbaa !51
  %21 = load ptr, ptr %input, align 8, !tbaa !50
  %sub.ptr.lhs.cast.i179 = ptrtoint ptr %20 to i64
  %sub.ptr.rhs.cast.i180 = ptrtoint ptr %21 to i64
  %sub.ptr.sub.i181 = sub i64 %sub.ptr.lhs.cast.i179, %sub.ptr.rhs.cast.i180
  %cmp58 = icmp eq i64 %sub.ptr.sub.i, %sub.ptr.sub.i181
  br i1 %cmp58, label %land.lhs.true59, label %if.end71.thread196

land.lhs.true59:                                  ; preds = %land.lhs.true56
  %22 = load ptr, ptr %e_.i174, align 8, !tbaa !56
  %23 = load ptr, ptr %output, align 8, !tbaa !54
  %sub.ptr.lhs.cast.i183 = ptrtoint ptr %22 to i64
  %sub.ptr.rhs.cast.i184 = ptrtoint ptr %23 to i64
  %sub.ptr.sub.i185 = sub i64 %sub.ptr.lhs.cast.i183, %sub.ptr.rhs.cast.i184
  %cmp61 = icmp eq i64 %sub.ptr.sub.i177, %sub.ptr.sub.i185
  br i1 %cmp61, label %if.then62, label %if.end71.thread196

if.then62:                                        ; preds = %land.lhs.true59
  %progressMade_ = getelementptr inbounds %"class.folly::io::StreamCodec", ptr %this, i64 0, i32 4
  %24 = load i8, ptr %progressMade_, align 8, !tbaa !45, !range !28, !noundef !29
  %tobool63.not = icmp eq i8 %24, 0
  br i1 %tobool63.not, label %if.then64, label %if.end71.thread

if.then64:                                        ; preds = %if.then62
  %exception65 = tail call ptr @__cxa_allocate_exception(i64 16) #29
  invoke void @_ZNSt13runtime_errorC1EPKc(ptr noundef nonnull align 8 dereferenceable(16) %exception65, ptr noundef nonnull @.str.11)
          to label %invoke.cont67 unwind label %lpad66

invoke.cont67:                                    ; preds = %if.then64
  tail call void @__cxa_throw(ptr nonnull %exception65, ptr nonnull @_ZTISt13runtime_error, ptr nonnull @_ZNSt13runtime_errorD1Ev) #31
  unreachable

lpad66:                                           ; preds = %if.then64
  %25 = landingpad { ptr, i32 }
          cleanup
  br label %eh.resume

if.end71.thread:                                  ; preds = %if.then62
  store i8 0, ptr %progressMade_, align 8, !tbaa !45
  br label %if.end138

if.end71.thread196:                               ; preds = %land.lhs.true59, %land.lhs.true56
  %progressMade_70197 = getelementptr inbounds %"class.folly::io::StreamCodec", ptr %this, i64 0, i32 4
  store i8 1, ptr %progressMade_70197, align 8, !tbaa !45
  br label %if.end138

if.then73:                                        ; preds = %sw.epilog
  %progressMade_70 = getelementptr inbounds %"class.folly::io::StreamCodec", ptr %this, i64 0, i32 4
  store i8 1, ptr %progressMade_70, align 8, !tbaa !45
  %26 = load i32, ptr %state_, align 4, !tbaa !40
  switch i32 %26, label %if.end138 [
    i32 2, label %if.then76
    i32 3, label %if.then81
  ]

if.then76:                                        ; preds = %if.then73
  store i32 1, ptr %state_, align 4, !tbaa !40
  br label %if.end138

if.then81:                                        ; preds = %if.then73
  store i32 5, ptr %state_, align 4, !tbaa !40
  br label %if.end138

if.end138:                                        ; preds = %if.then81, %if.then76, %if.then73, %if.end71.thread196, %if.end71.thread
  ret i1 %call55

eh.resume:                                        ; preds = %lpad66, %lpad28, %lpad14, %lpad
  %exception65.sink = phi ptr [ %exception65, %lpad66 ], [ %exception27, %lpad28 ], [ %exception13, %lpad14 ], [ %exception, %lpad ]
  %.pn = phi { ptr, i32 } [ %25, %lpad66 ], [ %14, %lpad28 ], [ %8, %lpad14 ], [ %5, %lpad ]
  tail call void @__cxa_free_exception(ptr %exception65.sink) #29
  resume { ptr, i32 } %.pn
}

declare noundef nonnull align 8 dereferenceable(8) ptr @_ZN6google10LogMessage6streamEv(ptr noundef nonnull align 8 dereferenceable(16)) local_unnamed_addr #5

; Function Attrs: noreturn nounwind
declare void @_ZN6google15LogMessageFatalD1Ev(ptr noundef nonnull align 8 dereferenceable(16)) unnamed_addr #16

; Function Attrs: mustprogress uwtable
define noundef zeroext i1 @_ZN5folly2io11StreamCodec16uncompressStreamERNS_5RangeIPKhEERNS2_IPhEENS1_7FlushOpE(ptr noundef nonnull align 8 dereferenceable(49) %this, ptr noundef nonnull align 8 dereferenceable(16) %input, ptr noundef nonnull align 8 dereferenceable(16) %output, i32 noundef %flushOp) local_unnamed_addr #3 align 2 personality ptr @__gxx_personality_v0 {
entry:
  %state_ = getelementptr inbounds %"class.folly::io::StreamCodec", ptr %this, i64 0, i32 1
  %0 = load i32, ptr %state_, align 4, !tbaa !40
  %cmp = icmp eq i32 %0, 0
  br i1 %cmp, label %land.lhs.true, label %if.end9

land.lhs.true:                                    ; preds = %entry
  %1 = load ptr, ptr %input, align 8, !tbaa !50
  %e_.i = getelementptr inbounds %"class.folly::Range.9", ptr %input, i64 0, i32 1
  %2 = load ptr, ptr %e_.i, align 8, !tbaa !51
  %cmp.i = icmp eq ptr %1, %2
  br i1 %cmp.i, label %if.then, label %if.then7

if.then:                                          ; preds = %land.lhs.true
  %hasValue.i.i.i.i = getelementptr inbounds %"class.folly::io::StreamCodec", ptr %this, i64 0, i32 3, i32 0, i32 1
  %3 = load i8, ptr %hasValue.i.i.i.i, align 8, !tbaa !26, !range !28, !noalias !91, !noundef !29
  %tobool.i.i.not.i.i = icmp eq i8 %3, 0
  %uncompressedLength_.i = getelementptr inbounds %"class.folly::io::StreamCodec", ptr %this, i64 0, i32 3
  %4 = load i64, ptr %uncompressedLength_.i, align 8
  %cmp457 = icmp eq i64 %4, 0
  %cmp4 = select i1 %tobool.i.i.not.i.i, i1 true, i1 %cmp457
  br label %return

if.then7:                                         ; preds = %land.lhs.true
  store i32 4, ptr %state_, align 4, !tbaa !40
  br label %if.end9

if.end9:                                          ; preds = %if.then7, %entry
  tail call void @_ZNK5folly2io11StreamCodec13assertStateIsENS1_5StateE(ptr noundef nonnull align 8 dereferenceable(49) %this, i32 noundef 4)
  %e_.i39 = getelementptr inbounds %"class.folly::Range.9", ptr %input, i64 0, i32 1
  %5 = load ptr, ptr %e_.i39, align 8, !tbaa !51
  %6 = load ptr, ptr %input, align 8, !tbaa !50
  %e_.i40 = getelementptr inbounds %"class.folly::Range.14", ptr %output, i64 0, i32 1
  %7 = load ptr, ptr %e_.i40, align 8, !tbaa !56
  %8 = load ptr, ptr %output, align 8, !tbaa !54
  %sub.ptr.lhs.cast.i41 = ptrtoint ptr %7 to i64
  %sub.ptr.rhs.cast.i42 = ptrtoint ptr %8 to i64
  %sub.ptr.sub.i43 = sub i64 %sub.ptr.lhs.cast.i41, %sub.ptr.rhs.cast.i42
  %vtable = load ptr, ptr %this, align 8, !tbaa !7
  %vfn = getelementptr inbounds ptr, ptr %vtable, i64 15
  %9 = load ptr, ptr %vfn, align 8
  %call12 = tail call noundef zeroext i1 %9(ptr noundef nonnull align 8 dereferenceable(49) %this, ptr noundef nonnull align 8 dereferenceable(16) %input, ptr noundef nonnull align 8 dereferenceable(16) %output, i32 noundef %flushOp)
  br i1 %call12, label %if.then27, label %land.lhs.true13

land.lhs.true13:                                  ; preds = %if.end9
  %sub.ptr.lhs.cast.i = ptrtoint ptr %5 to i64
  %sub.ptr.rhs.cast.i = ptrtoint ptr %6 to i64
  %sub.ptr.sub.i = sub i64 %sub.ptr.lhs.cast.i, %sub.ptr.rhs.cast.i
  %10 = load ptr, ptr %e_.i39, align 8, !tbaa !51
  %11 = load ptr, ptr %input, align 8, !tbaa !50
  %sub.ptr.lhs.cast.i45 = ptrtoint ptr %10 to i64
  %sub.ptr.rhs.cast.i46 = ptrtoint ptr %11 to i64
  %sub.ptr.sub.i47 = sub i64 %sub.ptr.lhs.cast.i45, %sub.ptr.rhs.cast.i46
  %cmp15 = icmp eq i64 %sub.ptr.sub.i, %sub.ptr.sub.i47
  br i1 %cmp15, label %land.lhs.true16, label %if.end25.thread55

land.lhs.true16:                                  ; preds = %land.lhs.true13
  %12 = load ptr, ptr %e_.i40, align 8, !tbaa !56
  %13 = load ptr, ptr %output, align 8, !tbaa !54
  %sub.ptr.lhs.cast.i49 = ptrtoint ptr %12 to i64
  %sub.ptr.rhs.cast.i50 = ptrtoint ptr %13 to i64
  %sub.ptr.sub.i51 = sub i64 %sub.ptr.lhs.cast.i49, %sub.ptr.rhs.cast.i50
  %cmp18 = icmp eq i64 %sub.ptr.sub.i43, %sub.ptr.sub.i51
  br i1 %cmp18, label %if.then19, label %if.end25.thread55

if.then19:                                        ; preds = %land.lhs.true16
  %progressMade_ = getelementptr inbounds %"class.folly::io::StreamCodec", ptr %this, i64 0, i32 4
  %14 = load i8, ptr %progressMade_, align 8, !tbaa !45, !range !28, !noundef !29
  %tobool20.not = icmp eq i8 %14, 0
  br i1 %tobool20.not, label %if.then21, label %if.end25.thread

if.then21:                                        ; preds = %if.then19
  %exception = tail call ptr @__cxa_allocate_exception(i64 16) #29
  invoke void @_ZNSt13runtime_errorC1EPKc(ptr noundef nonnull align 8 dereferenceable(16) %exception, ptr noundef nonnull @.str.15)
          to label %invoke.cont unwind label %lpad

invoke.cont:                                      ; preds = %if.then21
  tail call void @__cxa_throw(ptr nonnull %exception, ptr nonnull @_ZTISt13runtime_error, ptr nonnull @_ZNSt13runtime_errorD1Ev) #31
  unreachable

lpad:                                             ; preds = %if.then21
  %15 = landingpad { ptr, i32 }
          cleanup
  tail call void @__cxa_free_exception(ptr %exception) #29
  resume { ptr, i32 } %15

if.end25.thread:                                  ; preds = %if.then19
  store i8 0, ptr %progressMade_, align 8, !tbaa !45
  br label %return

if.end25.thread55:                                ; preds = %land.lhs.true16, %land.lhs.true13
  %progressMade_2456 = getelementptr inbounds %"class.folly::io::StreamCodec", ptr %this, i64 0, i32 4
  store i8 1, ptr %progressMade_2456, align 8, !tbaa !45
  br label %return

if.then27:                                        ; preds = %if.end9
  %progressMade_24 = getelementptr inbounds %"class.folly::io::StreamCodec", ptr %this, i64 0, i32 4
  store i8 1, ptr %progressMade_24, align 8, !tbaa !45
  store i32 5, ptr %state_, align 4, !tbaa !40
  br label %return

return:                                           ; preds = %if.then27, %if.end25.thread55, %if.end25.thread, %if.then
  %retval.0 = phi i1 [ %cmp4, %if.then ], [ true, %if.then27 ], [ false, %if.end25.thread ], [ false, %if.end25.thread55 ]
  ret i1 %retval.0
}

declare void @_ZN6google15LogMessageFatalC1EPKciRKNS_13CheckOpStringE(ptr noundef nonnull align 8 dereferenceable(16), ptr noundef, i32 noundef, ptr noundef nonnull align 8 dereferenceable(8)) unnamed_addr #5

; Function Attrs: mustprogress uwtable
define linkonce_odr noundef ptr @_ZN6google17MakeCheckOpStringImmEEPNSt7__cxx1112basic_stringIcSt11char_traitsIcESaIcEEERKT_RKT0_PKc(ptr noundef nonnull align 8 dereferenceable(8) %v1, ptr noundef nonnull align 8 dereferenceable(8) %v2, ptr noundef %exprtext) local_unnamed_addr #3 comdat personality ptr @__gxx_personality_v0 {
entry:
  %comb = alloca %"class.google::base::CheckOpMessageBuilder", align 8
  call void @llvm.lifetime.start.p0(i64 8, ptr nonnull %comb) #29
  call void @_ZN6google4base21CheckOpMessageBuilderC1EPKc(ptr noundef nonnull align 8 dereferenceable(8) %comb, ptr noundef %exprtext)
  %0 = load ptr, ptr %comb, align 8, !tbaa !94
  %1 = load i64, ptr %v1, align 8, !tbaa !30
  %call.i.i8 = invoke noundef nonnull align 8 dereferenceable(8) ptr @_ZNSo9_M_insertImEERSoT_(ptr noundef nonnull align 8 dereferenceable(8) %0, i64 noundef %1)
          to label %invoke.cont1 unwind label %lpad

invoke.cont1:                                     ; preds = %entry
  %call3 = invoke noundef ptr @_ZN6google4base21CheckOpMessageBuilder7ForVar2Ev(ptr noundef nonnull align 8 dereferenceable(8) %comb)
          to label %invoke.cont2 unwind label %lpad

invoke.cont2:                                     ; preds = %invoke.cont1
  %2 = load i64, ptr %v2, align 8, !tbaa !30
  %call.i.i9 = invoke noundef nonnull align 8 dereferenceable(8) ptr @_ZNSo9_M_insertImEERSoT_(ptr noundef nonnull align 8 dereferenceable(8) %call3, i64 noundef %2)
          to label %invoke.cont4 unwind label %lpad

invoke.cont4:                                     ; preds = %invoke.cont2
  %call6 = invoke noundef ptr @_ZN6google4base21CheckOpMessageBuilder9NewStringB5cxx11Ev(ptr noundef nonnull align 8 dereferenceable(8) %comb)
          to label %invoke.cont5 unwind label %lpad

invoke.cont5:                                     ; preds = %invoke.cont4
  call void @_ZN6google4base21CheckOpMessageBuilderD1Ev(ptr noundef nonnull align 8 dereferenceable(8) %comb) #29
  call void @llvm.lifetime.end.p0(i64 8, ptr nonnull %comb) #29
  ret ptr %call6

lpad:                                             ; preds = %invoke.cont4, %invoke.cont2, %invoke.cont1, %entry
  %3 = landingpad { ptr, i32 }
          cleanup
  call void @_ZN6google4base21CheckOpMessageBuilderD1Ev(ptr noundef nonnull align 8 dereferenceable(8) %comb) #29
  call void @llvm.lifetime.end.p0(i64 8, ptr nonnull %comb) #29
  resume { ptr, i32 } %3
}

declare void @_ZN6google4base21CheckOpMessageBuilderC1EPKc(ptr noundef nonnull align 8 dereferenceable(8), ptr noundef) unnamed_addr #5

declare noundef ptr @_ZN6google4base21CheckOpMessageBuilder7ForVar2Ev(ptr noundef nonnull align 8 dereferenceable(8)) local_unnamed_addr #5

declare noundef ptr @_ZN6google4base21CheckOpMessageBuilder9NewStringB5cxx11Ev(ptr noundef nonnull align 8 dereferenceable(8)) local_unnamed_addr #5

; Function Attrs: nounwind
declare void @_ZN6google4base21CheckOpMessageBuilderD1Ev(ptr noundef nonnull align 8 dereferenceable(8)) unnamed_addr #6

declare noundef nonnull align 8 dereferenceable(8) ptr @_ZNSo9_M_insertImEERSoT_(ptr noundef nonnull align 8 dereferenceable(8), i64 noundef) local_unnamed_addr #5

declare void @_ZN5folly5IOBuf13appendToChainEOSt10unique_ptrIS0_St14default_deleteIS0_EE(ptr noundef nonnull align 8 dereferenceable(56), ptr noundef nonnull align 8 dereferenceable(8)) local_unnamed_addr #5

; Function Attrs: mustprogress uwtable
define noundef zeroext i1 @_ZN5folly2io8hasCodecENS0_9CodecTypeE(i32 noundef %type) local_unnamed_addr #3 {
entry:
  %call = tail call fastcc noundef nonnull align 8 dereferenceable(16) ptr @_ZN5folly2io12_GLOBAL__N_110getFactoryENS0_9CodecTypeE(i32 noundef %type)
  %0 = load ptr, ptr %call, align 8, !tbaa !96
  %cmp = icmp ne ptr %0, null
  ret i1 %cmp
}

; Function Attrs: mustprogress uwtable
define internal fastcc noundef nonnull align 8 dereferenceable(16) ptr @_ZN5folly2io12_GLOBAL__N_110getFactoryENS0_9CodecTypeE(i32 noundef %type) unnamed_addr #3 personality ptr @__gxx_personality_v0 {
entry:
  %idx = alloca i64, align 8
  %ref.tmp = alloca %"class.std::__cxx11::basic_string", align 8
  call void @llvm.lifetime.start.p0(i64 8, ptr nonnull %idx) #29
  %conv = sext i32 %type to i64
  store i64 %conv, ptr %idx, align 8, !tbaa !30
  %cmp = icmp ugt i32 %type, 12
  br i1 %cmp, label %if.then, label %if.end

if.then:                                          ; preds = %entry
  %exception = tail call ptr @__cxa_allocate_exception(i64 16) #29
  call void @llvm.lifetime.start.p0(i64 32, ptr nonnull %ref.tmp) #29
  invoke void @_ZN5folly2toINSt7__cxx1112basic_stringIcSt11char_traitsIcESaIcEEEJA18_cmA9_cEEENSt9enable_ifIXaasr12IsSomeStringIT_EE5valueoonesZT0_Li1Entsr3std7is_sameISA_19__type_pack_elementIXmisPvDpT0_ELi1EEJvSD_EEEE5valueESA_E4typeEDpRKSC_(ptr nonnull sret(%"class.std::__cxx11::basic_string") align 8 %ref.tmp, ptr noundef nonnull align 1 dereferenceable(18) @.str.23, ptr noundef nonnull align 8 dereferenceable(8) %idx, ptr noundef nonnull align 1 dereferenceable(9) @.str.24)
          to label %invoke.cont unwind label %ehcleanup.thread

invoke.cont:                                      ; preds = %if.then
  invoke void @_ZNSt16invalid_argumentC1ERKNSt7__cxx1112basic_stringIcSt11char_traitsIcESaIcEEE(ptr noundef nonnull align 8 dereferenceable(16) %exception, ptr noundef nonnull align 8 dereferenceable(32) %ref.tmp)
          to label %invoke.cont2 unwind label %lpad1

invoke.cont2:                                     ; preds = %invoke.cont
  invoke void @__cxa_throw(ptr nonnull %exception, ptr nonnull @_ZTISt16invalid_argument, ptr nonnull @_ZNSt16invalid_argumentD1Ev) #31
          to label %unreachable unwind label %lpad1

ehcleanup.thread:                                 ; preds = %if.then
  %0 = landingpad { ptr, i32 }
          cleanup
  call void @llvm.lifetime.end.p0(i64 32, ptr nonnull %ref.tmp) #29
  br label %cleanup.action

lpad1:                                            ; preds = %invoke.cont2, %invoke.cont
  %cleanup.isactive.0 = phi i1 [ false, %invoke.cont2 ], [ true, %invoke.cont ]
  %1 = landingpad { ptr, i32 }
          cleanup
  %2 = load ptr, ptr %ref.tmp, align 8, !tbaa !22
  %3 = getelementptr inbounds %"class.std::__cxx11::basic_string", ptr %ref.tmp, i64 0, i32 2
  %cmp.i.i.i = icmp eq ptr %2, %3
  br i1 %cmp.i.i.i, label %_ZNKSt7__cxx1112basic_stringIcSt11char_traitsIcESaIcEE11_M_is_localEv.exit.thread.i.i, label %ehcleanup

_ZNKSt7__cxx1112basic_stringIcSt11char_traitsIcESaIcEE11_M_is_localEv.exit.thread.i.i: ; preds = %lpad1
  %_M_string_length.i.i.i = getelementptr inbounds %"class.std::__cxx11::basic_string", ptr %ref.tmp, i64 0, i32 1
  %4 = load i64, ptr %_M_string_length.i.i.i, align 8, !tbaa !18
  %cmp3.i.i.i = icmp ult i64 %4, 16
  call void @llvm.assume(i1 %cmp3.i.i.i)
  call void @llvm.lifetime.end.p0(i64 32, ptr nonnull %ref.tmp) #29
  br i1 %cleanup.isactive.0, label %cleanup.action, label %cleanup.done

ehcleanup:                                        ; preds = %lpad1
  call void @_ZdlPv(ptr noundef %2) #30
  call void @llvm.lifetime.end.p0(i64 32, ptr nonnull %ref.tmp) #29
  br i1 %cleanup.isactive.0, label %cleanup.action, label %cleanup.done

cleanup.action:                                   ; preds = %ehcleanup, %_ZNKSt7__cxx1112basic_stringIcSt11char_traitsIcESaIcEE11_M_is_localEv.exit.thread.i.i, %ehcleanup.thread
  %.pn10 = phi { ptr, i32 } [ %0, %ehcleanup.thread ], [ %1, %ehcleanup ], [ %1, %_ZNKSt7__cxx1112basic_stringIcSt11char_traitsIcESaIcEE11_M_is_localEv.exit.thread.i.i ]
  call void @__cxa_free_exception(ptr %exception) #29
  br label %cleanup.done

cleanup.done:                                     ; preds = %cleanup.action, %ehcleanup, %_ZNKSt7__cxx1112basic_stringIcSt11char_traitsIcESaIcEE11_M_is_localEv.exit.thread.i.i
  %.pn9 = phi { ptr, i32 } [ %.pn10, %cleanup.action ], [ %1, %ehcleanup ], [ %1, %_ZNKSt7__cxx1112basic_stringIcSt11char_traitsIcESaIcEE11_M_is_localEv.exit.thread.i.i ]
  call void @llvm.lifetime.end.p0(i64 8, ptr nonnull %idx) #29
  resume { ptr, i32 } %.pn9

if.end:                                           ; preds = %entry
  %arrayidx = getelementptr inbounds [13 x %"struct.folly::io::(anonymous namespace)::Factory"], ptr @_ZN5folly2io12_GLOBAL__N_114codecFactoriesE, i64 0, i64 %conv
  call void @llvm.lifetime.end.p0(i64 8, ptr nonnull %idx) #29
  ret ptr %arrayidx

unreachable:                                      ; preds = %invoke.cont2
  unreachable
}

; Function Attrs: mustprogress uwtable
define linkonce_odr void @_ZN5folly2toINSt7__cxx1112basic_stringIcSt11char_traitsIcESaIcEEEJA18_cmA9_cEEENSt9enable_ifIXaasr12IsSomeStringIT_EE5valueoonesZT0_Li1Entsr3std7is_sameISA_19__type_pack_elementIXmisPvDpT0_ELi1EEJvSD_EEEE5valueESA_E4typeEDpRKSC_(ptr noalias sret(%"class.std::__cxx11::basic_string") align 8 %agg.result, ptr noundef nonnull align 1 dereferenceable(18) %vs, ptr noundef nonnull align 8 dereferenceable(8) %vs1, ptr noundef nonnull align 1 dereferenceable(9) %vs3) local_unnamed_addr #3 comdat personality ptr @__gxx_personality_v0 {
entry:
  %ref.tmp = alloca ptr, align 8
  %0 = getelementptr inbounds %"class.std::__cxx11::basic_string", ptr %agg.result, i64 0, i32 2
  store ptr %0, ptr %agg.result, align 8, !tbaa !13
  %_M_string_length.i.i.i = getelementptr inbounds %"class.std::__cxx11::basic_string", ptr %agg.result, i64 0, i32 1
  store i64 0, ptr %_M_string_length.i.i.i, align 8, !tbaa !18
  store i8 0, ptr %0, align 8, !tbaa !21
  call void @llvm.lifetime.start.p0(i64 8, ptr nonnull %ref.tmp) #29
  store ptr %agg.result, ptr %ref.tmp, align 8, !tbaa !10
  %1 = load i64, ptr %vs1, align 8, !tbaa !30
  %call.i.i.i.i.i6 = invoke noundef i64 @_ZN5folly13to_ascii_sizeILm10EEEmm(i64 noundef %1)
          to label %call.i.i.i.i.i.noexc unwind label %lpad

call.i.i.i.i.i.noexc:                             ; preds = %entry
  %add.2.i.i.i = add i64 %call.i.i.i.i.i6, 27
  invoke void @_ZNSt7__cxx1112basic_stringIcSt11char_traitsIcESaIcEE7reserveEm(ptr noundef nonnull align 8 dereferenceable(32) %agg.result, i64 noundef %add.2.i.i.i)
          to label %.noexc unwind label %lpad

.noexc:                                           ; preds = %call.i.i.i.i.i.noexc
  invoke void @_ZN5folly6detail18ToAppendStrImplAllISt16integer_sequenceImJLm0ELm1ELm2ELm3EEEE4callIJA18_cmA9_cPNSt7__cxx1112basic_stringIcSt11char_traitsIcESaIcEEEEEEvDpRKT_(ptr noundef nonnull align 1 dereferenceable(18) %vs, ptr noundef nonnull align 8 dereferenceable(8) %vs1, ptr noundef nonnull align 1 dereferenceable(9) %vs3, ptr noundef nonnull align 8 dereferenceable(8) %ref.tmp)
          to label %invoke.cont unwind label %lpad

invoke.cont:                                      ; preds = %.noexc
  call void @llvm.lifetime.end.p0(i64 8, ptr nonnull %ref.tmp) #29
  ret void

lpad:                                             ; preds = %.noexc, %call.i.i.i.i.i.noexc, %entry
  %2 = landingpad { ptr, i32 }
          cleanup
  call void @llvm.lifetime.end.p0(i64 8, ptr nonnull %ref.tmp) #29
  %3 = load ptr, ptr %agg.result, align 8, !tbaa !22
  %cmp.i.i.i = icmp eq ptr %3, %0
  br i1 %cmp.i.i.i, label %_ZNKSt7__cxx1112basic_stringIcSt11char_traitsIcESaIcEE11_M_is_localEv.exit.thread.i.i, label %if.then.i.i

_ZNKSt7__cxx1112basic_stringIcSt11char_traitsIcESaIcEE11_M_is_localEv.exit.thread.i.i: ; preds = %lpad
  %4 = load i64, ptr %_M_string_length.i.i.i, align 8, !tbaa !18
  %cmp3.i.i.i = icmp ult i64 %4, 16
  call void @llvm.assume(i1 %cmp3.i.i.i)
  br label %_ZNSt7__cxx1112basic_stringIcSt11char_traitsIcESaIcEED2Ev.exit

if.then.i.i:                                      ; preds = %lpad
  call void @_ZdlPv(ptr noundef %3) #30
  br label %_ZNSt7__cxx1112basic_stringIcSt11char_traitsIcESaIcEED2Ev.exit

_ZNSt7__cxx1112basic_stringIcSt11char_traitsIcESaIcEED2Ev.exit: ; preds = %if.then.i.i, %_ZNKSt7__cxx1112basic_stringIcSt11char_traitsIcESaIcEE11_M_is_localEv.exit.thread.i.i
  resume { ptr, i32 } %2
}

declare void @_ZNSt16invalid_argumentC1ERKNSt7__cxx1112basic_stringIcSt11char_traitsIcESaIcEEE(ptr noundef nonnull align 8 dereferenceable(16), ptr noundef nonnull align 8 dereferenceable(32)) unnamed_addr #5

; Function Attrs: mustprogress uwtable
define linkonce_odr void @_ZN5folly6detail18ToAppendStrImplAllISt16integer_sequenceImJLm0ELm1ELm2ELm3EEEE4callIJA18_cmA9_cPNSt7__cxx1112basic_stringIcSt11char_traitsIcESaIcEEEEEEvDpRKT_(ptr noundef nonnull align 1 dereferenceable(18) %v, ptr noundef nonnull align 8 dereferenceable(8) %v1, ptr noundef nonnull align 1 dereferenceable(9) %v3, ptr noundef nonnull align 8 dereferenceable(8) %v5) local_unnamed_addr #3 comdat align 2 {
entry:
  %buffer.i = alloca [20 x i8], align 16
  %0 = load ptr, ptr %v5, align 8, !tbaa !10
  %call.i.i.i = tail call noundef i64 @strlen(ptr noundef nonnull dereferenceable(1) %v) #29
  %_M_string_length.i.i.i.i = getelementptr inbounds %"class.std::__cxx11::basic_string", ptr %0, i64 0, i32 1
  %1 = load i64, ptr %_M_string_length.i.i.i.i, align 8, !tbaa !18
  %sub3.i.i.i = sub i64 4611686018427387903, %1
  %cmp.i.i.i = icmp ult i64 %sub3.i.i.i, %call.i.i.i
  br i1 %cmp.i.i.i, label %if.then.i.i.i, label %_ZN5folly8toAppendINSt7__cxx1112basic_stringIcSt11char_traitsIcESaIcEEEPKcEENSt9enable_ifIXaasr3std14is_convertibleIT0_S8_EE5valuesr12IsSomeStringIT_EE5valueEvE4typeESA_PSB_.exit

if.then.i.i.i:                                    ; preds = %entry
  tail call void @_ZSt20__throw_length_errorPKc(ptr noundef nonnull @.str.7) #31
  unreachable

_ZN5folly8toAppendINSt7__cxx1112basic_stringIcSt11char_traitsIcESaIcEEEPKcEENSt9enable_ifIXaasr3std14is_convertibleIT0_S8_EE5valuesr12IsSomeStringIT_EE5valueEvE4typeESA_PSB_.exit: ; preds = %entry
  %call2.i.i = tail call noundef nonnull align 8 dereferenceable(32) ptr @_ZNSt7__cxx1112basic_stringIcSt11char_traitsIcESaIcEE9_M_appendEPKcm(ptr noundef nonnull align 8 dereferenceable(32) %0, ptr noundef nonnull %v, i64 noundef %call.i.i.i)
  %2 = load i64, ptr %v1, align 8, !tbaa !30
  call void @llvm.lifetime.start.p0(i64 20, ptr nonnull %buffer.i) #29
  %call.i.i.i23 = call noundef i64 @_ZN5folly13to_ascii_withILm10ENS_17to_ascii_alphabetILb0EEELm20EEEmRAT1__cm(ptr noundef nonnull align 1 dereferenceable(20) %buffer.i, i64 noundef %2)
  %3 = load i64, ptr %_M_string_length.i.i.i.i, align 8, !tbaa !18
  %sub3.i.i.i25 = sub i64 4611686018427387903, %3
  %cmp.i.i.i26 = icmp ult i64 %sub3.i.i.i25, %call.i.i.i23
  br i1 %cmp.i.i.i26, label %if.then.i.i.i27, label %_ZN5folly8toAppendINSt7__cxx1112basic_stringIcSt11char_traitsIcESaIcEEEmEENSt9enable_ifIXaaaaaa13is_integral_vIT0_Ent11is_signed_vIS8_Esr12IsSomeStringIT_EE5valuegestS8_Li4EEvE4typeES8_PS9_.exit

if.then.i.i.i27:                                  ; preds = %_ZN5folly8toAppendINSt7__cxx1112basic_stringIcSt11char_traitsIcESaIcEEEPKcEENSt9enable_ifIXaasr3std14is_convertibleIT0_S8_EE5valuesr12IsSomeStringIT_EE5valueEvE4typeESA_PSB_.exit
  call void @_ZSt20__throw_length_errorPKc(ptr noundef nonnull @.str.7) #31
  unreachable

_ZN5folly8toAppendINSt7__cxx1112basic_stringIcSt11char_traitsIcESaIcEEEmEENSt9enable_ifIXaaaaaa13is_integral_vIT0_Ent11is_signed_vIS8_Esr12IsSomeStringIT_EE5valuegestS8_Li4EEvE4typeES8_PS9_.exit: ; preds = %_ZN5folly8toAppendINSt7__cxx1112basic_stringIcSt11char_traitsIcESaIcEEEPKcEENSt9enable_ifIXaasr3std14is_convertibleIT0_S8_EE5valuesr12IsSomeStringIT_EE5valueEvE4typeESA_PSB_.exit
  %call.i.i = call noundef nonnull align 8 dereferenceable(32) ptr @_ZNSt7__cxx1112basic_stringIcSt11char_traitsIcESaIcEE9_M_appendEPKcm(ptr noundef nonnull align 8 dereferenceable(32) %0, ptr noundef nonnull %buffer.i, i64 noundef %call.i.i.i23)
  call void @llvm.lifetime.end.p0(i64 20, ptr nonnull %buffer.i) #29
  %call.i.i.i28 = call noundef i64 @strlen(ptr noundef nonnull dereferenceable(1) %v3) #29
  %4 = load i64, ptr %_M_string_length.i.i.i.i, align 8, !tbaa !18
  %sub3.i.i.i30 = sub i64 4611686018427387903, %4
  %cmp.i.i.i31 = icmp ult i64 %sub3.i.i.i30, %call.i.i.i28
  br i1 %cmp.i.i.i31, label %if.then.i.i.i33, label %_ZN5folly8toAppendINSt7__cxx1112basic_stringIcSt11char_traitsIcESaIcEEEPKcEENSt9enable_ifIXaasr3std14is_convertibleIT0_S8_EE5valuesr12IsSomeStringIT_EE5valueEvE4typeESA_PSB_.exit34

if.then.i.i.i33:                                  ; preds = %_ZN5folly8toAppendINSt7__cxx1112basic_stringIcSt11char_traitsIcESaIcEEEmEENSt9enable_ifIXaaaaaa13is_integral_vIT0_Ent11is_signed_vIS8_Esr12IsSomeStringIT_EE5valuegestS8_Li4EEvE4typeES8_PS9_.exit
  call void @_ZSt20__throw_length_errorPKc(ptr noundef nonnull @.str.7) #31
  unreachable

_ZN5folly8toAppendINSt7__cxx1112basic_stringIcSt11char_traitsIcESaIcEEEPKcEENSt9enable_ifIXaasr3std14is_convertibleIT0_S8_EE5valuesr12IsSomeStringIT_EE5valueEvE4typeESA_PSB_.exit34: ; preds = %_ZN5folly8toAppendINSt7__cxx1112basic_stringIcSt11char_traitsIcESaIcEEEmEENSt9enable_ifIXaaaaaa13is_integral_vIT0_Ent11is_signed_vIS8_Esr12IsSomeStringIT_EE5valuegestS8_Li4EEvE4typeES8_PS9_.exit
  %call2.i.i32 = call noundef nonnull align 8 dereferenceable(32) ptr @_ZNSt7__cxx1112basic_stringIcSt11char_traitsIcESaIcEE9_M_appendEPKcm(ptr noundef nonnull align 8 dereferenceable(32) %0, ptr noundef nonnull %v3, i64 noundef %call.i.i.i28)
  ret void
}

; Function Attrs: mustprogress uwtable
define internal void @_ZN5folly2io12_GLOBAL__N_118NoCompressionCodec6createEiNS0_9CodecTypeE(ptr noalias nocapture writeonly sret(%"class.std::unique_ptr.15") align 8 %agg.result, i32 noundef %level, i32 noundef %type) #3 align 2 personality ptr @__gxx_personality_v0 {
entry:
  %level.addr.i.i = alloca i32, align 4
  %ref.tmp22.i.i = alloca %"class.std::__cxx11::basic_string", align 8
  %call.i = tail call noalias noundef nonnull dereferenceable(16) ptr @_Znwm(i64 noundef 16) #33, !noalias !98
  call void @llvm.lifetime.start.p0(i64 4, ptr nonnull %level.addr.i.i), !noalias !98
  store i32 %level, ptr %level.addr.i.i, align 4, !tbaa !101, !noalias !98
  %type_.i.i.i = getelementptr inbounds %"class.folly::io::Codec", ptr %call.i, i64 0, i32 1
  store i32 %type, ptr %type_.i.i.i, align 8, !tbaa !70, !noalias !98
  store ptr getelementptr inbounds ({ [14 x ptr] }, ptr @_ZTVN5folly2io12_GLOBAL__N_118NoCompressionCodecE, i64 0, inrange i32 0, i64 2), ptr %call.i, align 8, !tbaa !7, !noalias !98
  switch i32 %level, label %if.then.i.i [
    i32 -1, label %_ZNSt10unique_ptrIN5folly2io12_GLOBAL__N_118NoCompressionCodecESt14default_deleteIS3_EED2Ev.exit
    i32 -2, label %_ZNSt10unique_ptrIN5folly2io12_GLOBAL__N_118NoCompressionCodecESt14default_deleteIS3_EED2Ev.exit
    i32 -3, label %_ZNSt10unique_ptrIN5folly2io12_GLOBAL__N_118NoCompressionCodecESt14default_deleteIS3_EED2Ev.exit
    i32 0, label %_ZNSt10unique_ptrIN5folly2io12_GLOBAL__N_118NoCompressionCodecESt14default_deleteIS3_EED2Ev.exit
  ]

if.then.i.i:                                      ; preds = %entry
  %exception.i.i = tail call ptr @__cxa_allocate_exception(i64 16) #29, !noalias !98
  call void @llvm.lifetime.start.p0(i64 32, ptr nonnull %ref.tmp22.i.i) #29, !noalias !98
  invoke void @_ZN5folly2toINSt7__cxx1112basic_stringIcSt11char_traitsIcESaIcEEEJA35_ciEEENSt9enable_ifIXaasr12IsSomeStringIT_EE5valueoonesZT0_Li1Entsr3std7is_sameIS9_19__type_pack_elementIXmisPvDpT0_ELi1EEJvSC_EEEE5valueES9_E4typeEDpRKSB_(ptr nonnull sret(%"class.std::__cxx11::basic_string") align 8 %ref.tmp22.i.i, ptr noundef nonnull align 1 dereferenceable(35) @.str.26, ptr noundef nonnull align 4 dereferenceable(4) %level.addr.i.i)
          to label %invoke.cont24.i.i unwind label %ehcleanup28.thread.i.i, !noalias !98

invoke.cont24.i.i:                                ; preds = %if.then.i.i
  invoke void @_ZNSt16invalid_argumentC1ERKNSt7__cxx1112basic_stringIcSt11char_traitsIcESaIcEEE(ptr noundef nonnull align 8 dereferenceable(16) %exception.i.i, ptr noundef nonnull align 8 dereferenceable(32) %ref.tmp22.i.i)
          to label %invoke.cont26.i.i unwind label %lpad25.i.i, !noalias !98

invoke.cont26.i.i:                                ; preds = %invoke.cont24.i.i
  invoke void @__cxa_throw(ptr nonnull %exception.i.i, ptr nonnull @_ZTISt16invalid_argument, ptr nonnull @_ZNSt16invalid_argumentD1Ev) #31
          to label %unreachable.i.i unwind label %lpad25.i.i, !noalias !98

ehcleanup28.thread.i.i:                           ; preds = %if.then.i.i
  %0 = landingpad { ptr, i32 }
          cleanup
  call void @llvm.lifetime.end.p0(i64 32, ptr nonnull %ref.tmp22.i.i) #29, !noalias !98
  br label %cleanup.action31.i.i

lpad25.i.i:                                       ; preds = %invoke.cont26.i.i, %invoke.cont24.i.i
  %cleanup.isactive.0.i.i = phi i1 [ false, %invoke.cont26.i.i ], [ true, %invoke.cont24.i.i ]
  %1 = landingpad { ptr, i32 }
          cleanup
  %2 = load ptr, ptr %ref.tmp22.i.i, align 8, !tbaa !22, !noalias !98
  %3 = getelementptr inbounds %"class.std::__cxx11::basic_string", ptr %ref.tmp22.i.i, i64 0, i32 2
  %cmp.i.i.i.i.i = icmp eq ptr %2, %3
  br i1 %cmp.i.i.i.i.i, label %_ZNKSt7__cxx1112basic_stringIcSt11char_traitsIcESaIcEE11_M_is_localEv.exit.thread.i.i.i.i, label %ehcleanup28.i.i

_ZNKSt7__cxx1112basic_stringIcSt11char_traitsIcESaIcEE11_M_is_localEv.exit.thread.i.i.i.i: ; preds = %lpad25.i.i
  %_M_string_length.i.i.i.i.i = getelementptr inbounds %"class.std::__cxx11::basic_string", ptr %ref.tmp22.i.i, i64 0, i32 1
  %4 = load i64, ptr %_M_string_length.i.i.i.i.i, align 8, !tbaa !18, !noalias !98
  %cmp3.i.i.i.i.i = icmp ult i64 %4, 16
  call void @llvm.assume(i1 %cmp3.i.i.i.i.i)
  call void @llvm.lifetime.end.p0(i64 32, ptr nonnull %ref.tmp22.i.i) #29, !noalias !98
  br i1 %cleanup.isactive.0.i.i, label %cleanup.action31.i.i, label %lpad.body.i

ehcleanup28.i.i:                                  ; preds = %lpad25.i.i
  call void @_ZdlPv(ptr noundef %2) #30, !noalias !98
  call void @llvm.lifetime.end.p0(i64 32, ptr nonnull %ref.tmp22.i.i) #29, !noalias !98
  br i1 %cleanup.isactive.0.i.i, label %cleanup.action31.i.i, label %lpad.body.i

cleanup.action31.i.i:                             ; preds = %ehcleanup28.i.i, %_ZNKSt7__cxx1112basic_stringIcSt11char_traitsIcESaIcEE11_M_is_localEv.exit.thread.i.i.i.i, %ehcleanup28.thread.i.i
  %.pn40.i.i = phi { ptr, i32 } [ %0, %ehcleanup28.thread.i.i ], [ %1, %ehcleanup28.i.i ], [ %1, %_ZNKSt7__cxx1112basic_stringIcSt11char_traitsIcESaIcEE11_M_is_localEv.exit.thread.i.i.i.i ]
  call void @__cxa_free_exception(ptr %exception.i.i) #29, !noalias !98
  br label %lpad.body.i

unreachable.i.i:                                  ; preds = %invoke.cont26.i.i
  unreachable

lpad.body.i:                                      ; preds = %cleanup.action31.i.i, %ehcleanup28.i.i, %_ZNKSt7__cxx1112basic_stringIcSt11char_traitsIcESaIcEE11_M_is_localEv.exit.thread.i.i.i.i
  %eh.lpad-body.i = phi { ptr, i32 } [ %1, %ehcleanup28.i.i ], [ %.pn40.i.i, %cleanup.action31.i.i ], [ %1, %_ZNKSt7__cxx1112basic_stringIcSt11char_traitsIcESaIcEE11_M_is_localEv.exit.thread.i.i.i.i ]
  call void @_ZdlPv(ptr noundef nonnull %call.i) #30, !noalias !98
  resume { ptr, i32 } %eh.lpad-body.i

_ZNSt10unique_ptrIN5folly2io12_GLOBAL__N_118NoCompressionCodecESt14default_deleteIS3_EED2Ev.exit: ; preds = %entry, %entry, %entry, %entry
  call void @llvm.lifetime.end.p0(i64 4, ptr nonnull %level.addr.i.i), !noalias !98
  store ptr %call.i, ptr %agg.result, align 8, !tbaa !103
  ret void
}

; Function Attrs: mustprogress uwtable
define internal void @_ZN5folly2io12_GLOBAL__N_18LZ4Codec6createEiNS0_9CodecTypeE(ptr noalias nocapture writeonly sret(%"class.std::unique_ptr.15") align 8 %agg.result, i32 noundef %level, i32 noundef %type) #3 align 2 personality ptr @__gxx_personality_v0 {
entry:
  %call.i = tail call noalias noundef nonnull dereferenceable(16) ptr @_Znwm(i64 noundef 16) #33, !noalias !105
  %call.i4.i = invoke fastcc noundef i32 @_ZN5folly2io12_GLOBAL__N_115lz4ConvertLevelEi(i32 noundef %level)
          to label %call.i.noexc.i unwind label %lpad.i, !noalias !105

call.i.noexc.i:                                   ; preds = %entry
  %type_.i.i.i = getelementptr inbounds %"class.folly::io::Codec", ptr %call.i, i64 0, i32 1
  store i32 %type, ptr %type_.i.i.i, align 8, !tbaa !70, !noalias !105
  store ptr getelementptr inbounds ({ [14 x ptr] }, ptr @_ZTVN5folly2io12_GLOBAL__N_18LZ4CodecE, i64 0, inrange i32 0, i64 2), ptr %call.i, align 8, !tbaa !7, !noalias !105
  %call3.i5.i = invoke fastcc noundef i32 @_ZN5folly2io12_GLOBAL__N_115lz4ConvertLevelEi(i32 noundef %level)
          to label %_ZNSt10unique_ptrIN5folly2io12_GLOBAL__N_18LZ4CodecESt14default_deleteIS3_EED2Ev.exit unwind label %lpad.i, !noalias !105

lpad.i:                                           ; preds = %call.i.noexc.i, %entry
  %0 = landingpad { ptr, i32 }
          cleanup
  tail call void @_ZdlPv(ptr noundef nonnull %call.i) #30, !noalias !105
  resume { ptr, i32 } %0

_ZNSt10unique_ptrIN5folly2io12_GLOBAL__N_18LZ4CodecESt14default_deleteIS3_EED2Ev.exit: ; preds = %call.i.noexc.i
  %highCompression_.i.i = getelementptr inbounds %"class.folly::io::(anonymous namespace)::LZ4Codec", ptr %call.i, i64 0, i32 1
  %cmp.i.i = icmp ugt i32 %call3.i5.i, 1
  %frombool.i.i = zext i1 %cmp.i.i to i8
  store i8 %frombool.i.i, ptr %highCompression_.i.i, align 4, !tbaa !108, !noalias !105
  store ptr %call.i, ptr %agg.result, align 8, !tbaa !103
  ret void
}

; Function Attrs: mustprogress uwtable
define internal void @_ZN5folly2io12_GLOBAL__N_111SnappyCodec6createEiNS0_9CodecTypeE(ptr noalias nocapture writeonly sret(%"class.std::unique_ptr.15") align 8 %agg.result, i32 noundef %level, i32 noundef %type) #3 align 2 personality ptr @__gxx_personality_v0 {
entry:
  %level.addr.i.i = alloca i32, align 4
  %ref.tmp22.i.i = alloca %"class.std::__cxx11::basic_string", align 8
  %call.i = tail call noalias noundef nonnull dereferenceable(16) ptr @_Znwm(i64 noundef 16) #33, !noalias !110
  call void @llvm.lifetime.start.p0(i64 4, ptr nonnull %level.addr.i.i), !noalias !110
  store i32 %level, ptr %level.addr.i.i, align 4, !tbaa !101, !noalias !110
  %type_.i.i.i = getelementptr inbounds %"class.folly::io::Codec", ptr %call.i, i64 0, i32 1
  store i32 %type, ptr %type_.i.i.i, align 8, !tbaa !70, !noalias !110
  store ptr getelementptr inbounds ({ [14 x ptr] }, ptr @_ZTVN5folly2io12_GLOBAL__N_111SnappyCodecE, i64 0, inrange i32 0, i64 2), ptr %call.i, align 8, !tbaa !7, !noalias !110
  switch i32 %level, label %if.then.i.i [
    i32 -1, label %_ZNSt10unique_ptrIN5folly2io12_GLOBAL__N_111SnappyCodecESt14default_deleteIS3_EED2Ev.exit
    i32 -2, label %_ZNSt10unique_ptrIN5folly2io12_GLOBAL__N_111SnappyCodecESt14default_deleteIS3_EED2Ev.exit
    i32 -3, label %_ZNSt10unique_ptrIN5folly2io12_GLOBAL__N_111SnappyCodecESt14default_deleteIS3_EED2Ev.exit
    i32 1, label %_ZNSt10unique_ptrIN5folly2io12_GLOBAL__N_111SnappyCodecESt14default_deleteIS3_EED2Ev.exit
  ]

if.then.i.i:                                      ; preds = %entry
  %exception.i.i = tail call ptr @__cxa_allocate_exception(i64 16) #29, !noalias !110
  call void @llvm.lifetime.start.p0(i64 32, ptr nonnull %ref.tmp22.i.i) #29, !noalias !110
  invoke void @_ZN5folly2toINSt7__cxx1112basic_stringIcSt11char_traitsIcESaIcEEEJA29_ciEEENSt9enable_ifIXaasr12IsSomeStringIT_EE5valueoonesZT0_Li1Entsr3std7is_sameIS9_19__type_pack_elementIXmisPvDpT0_ELi1EEJvSC_EEEE5valueES9_E4typeEDpRKSB_(ptr nonnull sret(%"class.std::__cxx11::basic_string") align 8 %ref.tmp22.i.i, ptr noundef nonnull align 1 dereferenceable(29) @.str.44, ptr noundef nonnull align 4 dereferenceable(4) %level.addr.i.i)
          to label %invoke.cont24.i.i unwind label %ehcleanup28.thread.i.i, !noalias !110

invoke.cont24.i.i:                                ; preds = %if.then.i.i
  invoke void @_ZNSt16invalid_argumentC1ERKNSt7__cxx1112basic_stringIcSt11char_traitsIcESaIcEEE(ptr noundef nonnull align 8 dereferenceable(16) %exception.i.i, ptr noundef nonnull align 8 dereferenceable(32) %ref.tmp22.i.i)
          to label %invoke.cont26.i.i unwind label %lpad25.i.i, !noalias !110

invoke.cont26.i.i:                                ; preds = %invoke.cont24.i.i
  invoke void @__cxa_throw(ptr nonnull %exception.i.i, ptr nonnull @_ZTISt16invalid_argument, ptr nonnull @_ZNSt16invalid_argumentD1Ev) #31
          to label %unreachable.i.i unwind label %lpad25.i.i, !noalias !110

ehcleanup28.thread.i.i:                           ; preds = %if.then.i.i
  %0 = landingpad { ptr, i32 }
          cleanup
  call void @llvm.lifetime.end.p0(i64 32, ptr nonnull %ref.tmp22.i.i) #29, !noalias !110
  br label %cleanup.action31.i.i

lpad25.i.i:                                       ; preds = %invoke.cont26.i.i, %invoke.cont24.i.i
  %cleanup.isactive.0.i.i = phi i1 [ false, %invoke.cont26.i.i ], [ true, %invoke.cont24.i.i ]
  %1 = landingpad { ptr, i32 }
          cleanup
  %2 = load ptr, ptr %ref.tmp22.i.i, align 8, !tbaa !22, !noalias !110
  %3 = getelementptr inbounds %"class.std::__cxx11::basic_string", ptr %ref.tmp22.i.i, i64 0, i32 2
  %cmp.i.i.i.i.i = icmp eq ptr %2, %3
  br i1 %cmp.i.i.i.i.i, label %_ZNKSt7__cxx1112basic_stringIcSt11char_traitsIcESaIcEE11_M_is_localEv.exit.thread.i.i.i.i, label %ehcleanup28.i.i

_ZNKSt7__cxx1112basic_stringIcSt11char_traitsIcESaIcEE11_M_is_localEv.exit.thread.i.i.i.i: ; preds = %lpad25.i.i
  %_M_string_length.i.i.i.i.i = getelementptr inbounds %"class.std::__cxx11::basic_string", ptr %ref.tmp22.i.i, i64 0, i32 1
  %4 = load i64, ptr %_M_string_length.i.i.i.i.i, align 8, !tbaa !18, !noalias !110
  %cmp3.i.i.i.i.i = icmp ult i64 %4, 16
  call void @llvm.assume(i1 %cmp3.i.i.i.i.i)
  call void @llvm.lifetime.end.p0(i64 32, ptr nonnull %ref.tmp22.i.i) #29, !noalias !110
  br i1 %cleanup.isactive.0.i.i, label %cleanup.action31.i.i, label %lpad.body.i

ehcleanup28.i.i:                                  ; preds = %lpad25.i.i
  call void @_ZdlPv(ptr noundef %2) #30, !noalias !110
  call void @llvm.lifetime.end.p0(i64 32, ptr nonnull %ref.tmp22.i.i) #29, !noalias !110
  br i1 %cleanup.isactive.0.i.i, label %cleanup.action31.i.i, label %lpad.body.i

cleanup.action31.i.i:                             ; preds = %ehcleanup28.i.i, %_ZNKSt7__cxx1112basic_stringIcSt11char_traitsIcESaIcEE11_M_is_localEv.exit.thread.i.i.i.i, %ehcleanup28.thread.i.i
  %.pn40.i.i = phi { ptr, i32 } [ %0, %ehcleanup28.thread.i.i ], [ %1, %ehcleanup28.i.i ], [ %1, %_ZNKSt7__cxx1112basic_stringIcSt11char_traitsIcESaIcEE11_M_is_localEv.exit.thread.i.i.i.i ]
  call void @__cxa_free_exception(ptr %exception.i.i) #29, !noalias !110
  br label %lpad.body.i

unreachable.i.i:                                  ; preds = %invoke.cont26.i.i
  unreachable

lpad.body.i:                                      ; preds = %cleanup.action31.i.i, %ehcleanup28.i.i, %_ZNKSt7__cxx1112basic_stringIcSt11char_traitsIcESaIcEE11_M_is_localEv.exit.thread.i.i.i.i
  %eh.lpad-body.i = phi { ptr, i32 } [ %1, %ehcleanup28.i.i ], [ %.pn40.i.i, %cleanup.action31.i.i ], [ %1, %_ZNKSt7__cxx1112basic_stringIcSt11char_traitsIcESaIcEE11_M_is_localEv.exit.thread.i.i.i.i ]
  call void @_ZdlPv(ptr noundef nonnull %call.i) #30, !noalias !110
  resume { ptr, i32 } %eh.lpad-body.i

_ZNSt10unique_ptrIN5folly2io12_GLOBAL__N_111SnappyCodecESt14default_deleteIS3_EED2Ev.exit: ; preds = %entry, %entry, %entry, %entry
  call void @llvm.lifetime.end.p0(i64 4, ptr nonnull %level.addr.i.i), !noalias !110
  store ptr %call.i, ptr %agg.result, align 8, !tbaa !103
  ret void
}

; Function Attrs: mustprogress uwtable
