; ModuleID = 'bench/folly/original/MuxIOThreadPoolExecutor.cpp.ll'
source_filename = "bench/folly/original/MuxIOThreadPoolExecutor.cpp.ll"
target datalayout = "e-m:e-p270:32:32-p271:32:32-p272:64:64-i64:64-i128:128-f80:128-n8:16:32:64-S128"
target triple = "x86_64-unknown-linux-gnu"

%"class.folly::hazptr_domain" = type <{ %"struct.std::atomic.192", %"struct.std::atomic.10", %"struct.std::atomic.10", %"struct.std::atomic.184", %"struct.std::atomic.194", i8, i8, [8 x %"class.folly::hazptr_detail::shared_head_only_list"], [8 x %"class.folly::hazptr_detail::shared_head_only_list"], %"struct.std::atomic.184", [4 x i8], %"struct.std::atomic.10", %"struct.std::atomic.196", %"struct.std::atomic.184", [4 x i8] }>
%"struct.std::atomic.192" = type { %"struct.std::__atomic_base.193" }
%"struct.std::__atomic_base.193" = type { ptr }
%"struct.std::atomic.194" = type { %"struct.std::__atomic_base.195" }
%"struct.std::__atomic_base.195" = type { i16 }
%"class.folly::hazptr_detail::shared_head_only_list" = type <{ %"struct.std::atomic.10", %"struct.std::atomic.67", i32, [4 x i8] }>
%"struct.std::atomic.67" = type { %"class.std::thread::id" }
%"class.std::thread::id" = type { i64 }
%"struct.std::atomic.10" = type { %"struct.std::__atomic_base.11" }
%"struct.std::__atomic_base.11" = type { i64 }
%"struct.std::atomic.196" = type { %"struct.std::__atomic_base.197" }
%"struct.std::__atomic_base.197" = type { ptr }
%"struct.std::atomic.184" = type { %"struct.std::__atomic_base.185" }
%"struct.std::__atomic_base.185" = type { i32 }
%"union.std::aligned_storage<32, 16>::type" = type { [32 x i8] }
%"struct.folly::detail::safe_assert_arg" = type { ptr, ptr, i32, ptr, ptr }
%"struct.folly::c_array" = type { [2 x i8] }
%"struct.folly::detail::SingletonThreadLocalState::LocalCache" = type { ptr }
%"struct.folly::SingletonThreadLocal<folly::hazptr_tc<>, folly::hazptr_tc_tls_tag>::LocalLifetime" = type { i8 }
%"class.folly::detail::UniqueInstance" = type { i8 }
%"struct.folly::detail::StaticSingletonManagerWithRtti::Arg" = type { %"struct.std::atomic.293", ptr, ptr, ptr }
%"struct.std::atomic.293" = type { %"struct.std::__atomic_base.294" }
%"struct.std::__atomic_base.294" = type { ptr }
%"union.std::aligned_storage<8, 8>::type" = type { [8 x i8] }
%"struct.folly::relaxed_atomic.305" = type { %"struct.folly::detail::relaxed_atomic_integral_base.306" }
%"struct.folly::detail::relaxed_atomic_integral_base.306" = type { %"struct.folly::detail::relaxed_atomic_base.307" }
%"struct.folly::detail::relaxed_atomic_base.307" = type { %"struct.std::atomic" }
%"struct.std::atomic" = type { %"struct.std::__atomic_base" }
%"struct.std::__atomic_base" = type { i32 }
%"struct.std::atomic.310" = type { %"struct.std::__atomic_base.311" }
%"struct.std::__atomic_base.311" = type { ptr }
%"class.folly::ParkingLot" = type { i64 }
%"class.folly::AtomicStruct.356" = type { %"struct.std::atomic.10" }
%"struct.folly::detail::UniqueInstance::Value" = type { ptr, ptr, i32, i32 }
%"struct.folly::MuxIOThreadPoolExecutor::EvbHandler" = type { %"struct.folly::MuxIOThreadPoolExecutor::Handler.base", ptr }
%"struct.folly::MuxIOThreadPoolExecutor::Handler.base" = type <{ ptr, %"struct.folly::AtomicIntrusiveLinkedListHook", i32, i8 }>
%"struct.folly::AtomicIntrusiveLinkedListHook" = type { ptr }
%"class.folly::DefaultKeepAliveExecutor" = type { %"class.folly::Executor", %"class.std::shared_ptr.3", %"class.folly::Baton", %"class.folly::Executor::KeepAlive" }
%"class.folly::Executor" = type { ptr }
%"class.std::shared_ptr.3" = type { %"class.std::__shared_ptr.4" }
%"class.std::__shared_ptr.4" = type { ptr, %"class.std::__shared_count" }
%"class.std::__shared_count" = type { ptr }
%"class.folly::Baton" = type { %"struct.std::atomic" }
%"class.folly::Executor::KeepAlive" = type { i64 }
%"class.std::shared_ptr.0" = type { %"class.std::__shared_ptr.1" }
%"class.std::__shared_ptr.1" = type { ptr, %"class.std::__shared_count" }
%"class.std::_Sp_counted_base" = type { ptr, i32, i32 }
%"class.std::_Sp_counted_ptr_inplace.508" = type { %"class.std::_Sp_counted_base", [48 x i8], %"class.std::_Sp_counted_ptr_inplace<folly::ThreadPoolExecutor::Thread, std::allocator<void>, __gnu_cxx::_S_atomic>::_Impl" }
%"class.std::_Sp_counted_ptr_inplace<folly::ThreadPoolExecutor::Thread, std::allocator<void>, __gnu_cxx::_S_atomic>::_Impl" = type { %"struct.__gnu_cxx::__aligned_buffer.509" }
%"struct.__gnu_cxx::__aligned_buffer.509" = type { %"union.std::aligned_storage<64, 64>::type" }
%"union.std::aligned_storage<64, 64>::type" = type { [64 x i8] }
%"class.folly::ThreadPoolExecutor" = type <{ %"class.folly::DefaultKeepAliveExecutor", %"class.std::shared_ptr.6", %"class.folly::ThreadPoolExecutor::ThreadList", %"class.folly::SharedMutexImpl", [36 x i8], %"class.folly::ThreadPoolExecutor::StoppedThreadQueue", %"struct.std::atomic.12", [7 x i8], %"class.std::shared_ptr.14", %"class.std::vector.17", %"class.folly::ThreadPoolListHook", [7 x i8], %"struct.std::atomic.10", %"struct.std::atomic.10", %"struct.std::atomic.10", %"struct.std::atomic.10", %"struct.std::atomic.22", i8, [31 x i8] }>
%"class.std::shared_ptr.6" = type { %"class.std::__shared_ptr.7" }
%"class.std::__shared_ptr.7" = type { ptr, %"class.std::__shared_count" }
%"class.folly::ThreadPoolExecutor::ThreadList" = type { %"class.std::vector", %"class.std::chrono::duration.9" }
%"class.std::vector" = type { %"struct.std::_Vector_base" }
%"struct.std::_Vector_base" = type { %"struct.std::_Vector_base<std::shared_ptr<folly::ThreadPoolExecutor::Thread>, std::allocator<std::shared_ptr<folly::ThreadPoolExecutor::Thread>>>::_Vector_impl" }
%"struct.std::_Vector_base<std::shared_ptr<folly::ThreadPoolExecutor::Thread>, std::allocator<std::shared_ptr<folly::ThreadPoolExecutor::Thread>>>::_Vector_impl" = type { %"struct.std::_Vector_base<std::shared_ptr<folly::ThreadPoolExecutor::Thread>, std::allocator<std::shared_ptr<folly::ThreadPoolExecutor::Thread>>>::_Vector_impl_data" }
%"struct.std::_Vector_base<std::shared_ptr<folly::ThreadPoolExecutor::Thread>, std::allocator<std::shared_ptr<folly::ThreadPoolExecutor::Thread>>>::_Vector_impl_data" = type { ptr, ptr, ptr }
%"class.std::chrono::duration.9" = type { i64 }
%"class.folly::SharedMutexImpl" = type { %"struct.std::atomic" }
%"class.folly::ThreadPoolExecutor::StoppedThreadQueue" = type { %"class.folly::BlockingQueue", [56 x i8], %"struct.folly::LifoSemImpl", %"class.std::mutex", %"class.std::queue", [8 x i8] }
%"class.folly::BlockingQueue" = type { ptr }
%"struct.folly::LifoSemImpl" = type { %"struct.folly::detail::LifoSemBase" }
%"struct.folly::detail::LifoSemBase" = type { %"class.folly::aligned" }
%"class.folly::aligned" = type { %"class.folly::AtomicStruct", [56 x i8] }
%"class.folly::AtomicStruct" = type { %"struct.std::atomic.10" }
%"class.std::mutex" = type { %"class.std::__mutex_base" }
%"class.std::__mutex_base" = type { %union.pthread_mutex_t }
%union.pthread_mutex_t = type { %struct.__pthread_mutex_s }
%struct.__pthread_mutex_s = type { i32, i32, i32, i32, i32, i16, i16, %struct.__pthread_internal_list }
%struct.__pthread_internal_list = type { ptr, ptr }
%"class.std::queue" = type { %"class.std::deque" }
%"class.std::deque" = type { %"class.std::_Deque_base" }
%"class.std::_Deque_base" = type { %"struct.std::_Deque_base<std::shared_ptr<folly::ThreadPoolExecutor::Thread>, std::allocator<std::shared_ptr<folly::ThreadPoolExecutor::Thread>>>::_Deque_impl" }
%"struct.std::_Deque_base<std::shared_ptr<folly::ThreadPoolExecutor::Thread>, std::allocator<std::shared_ptr<folly::ThreadPoolExecutor::Thread>>>::_Deque_impl" = type { %"struct.std::_Deque_base<std::shared_ptr<folly::ThreadPoolExecutor::Thread>, std::allocator<std::shared_ptr<folly::ThreadPoolExecutor::Thread>>>::_Deque_impl_data" }
%"struct.std::_Deque_base<std::shared_ptr<folly::ThreadPoolExecutor::Thread>, std::allocator<std::shared_ptr<folly::ThreadPoolExecutor::Thread>>>::_Deque_impl_data" = type { ptr, i64, %"struct.std::_Deque_iterator", %"struct.std::_Deque_iterator" }
%"struct.std::_Deque_iterator" = type { ptr, ptr, ptr, ptr }
%"struct.std::atomic.12" = type { %"struct.std::__atomic_base.13" }
%"struct.std::__atomic_base.13" = type { i8 }
%"class.std::shared_ptr.14" = type { %"class.std::__shared_ptr.15" }
%"class.std::__shared_ptr.15" = type { ptr, %"class.std::__shared_count" }
%"class.std::vector.17" = type { %"struct.std::_Vector_base.18" }
%"struct.std::_Vector_base.18" = type { %"struct.std::_Vector_base<std::shared_ptr<folly::ThreadPoolExecutor::Observer>, std::allocator<std::shared_ptr<folly::ThreadPoolExecutor::Observer>>>::_Vector_impl" }
%"struct.std::_Vector_base<std::shared_ptr<folly::ThreadPoolExecutor::Observer>, std::allocator<std::shared_ptr<folly::ThreadPoolExecutor::Observer>>>::_Vector_impl" = type { %"struct.std::_Vector_base<std::shared_ptr<folly::ThreadPoolExecutor::Observer>, std::allocator<std::shared_ptr<folly::ThreadPoolExecutor::Observer>>>::_Vector_impl_data" }
%"struct.std::_Vector_base<std::shared_ptr<folly::ThreadPoolExecutor::Observer>, std::allocator<std::shared_ptr<folly::ThreadPoolExecutor::Observer>>>::_Vector_impl_data" = type { ptr, ptr, ptr }
%"class.folly::ThreadPoolListHook" = type { i8 }
%"struct.std::atomic.22" = type { %"class.std::chrono::duration" }
%"class.std::chrono::duration" = type { i64 }
%"class.folly::Function" = type { %"union.folly::detail::function::Data", ptr, ptr }
%"union.folly::detail::function::Data" = type { ptr, [40 x i8] }
%"struct.folly::ThreadPoolExecutor::Task" = type { %"class.folly::Function", %"class.std::chrono::time_point", %"class.std::shared_ptr.429", %"class.std::unique_ptr.432" }
%"class.std::chrono::time_point" = type { %"class.std::chrono::duration.9" }
%"class.std::shared_ptr.429" = type { %"class.std::__shared_ptr.430" }
%"class.std::__shared_ptr.430" = type { ptr, %"class.std::__shared_count" }
%"class.std::unique_ptr.432" = type { %"struct.std::__uniq_ptr_data.433" }
%"struct.std::__uniq_ptr_data.433" = type { %"class.std::__uniq_ptr_impl.434" }
%"class.std::__uniq_ptr_impl.434" = type { %"class.std::tuple.435" }
%"class.std::tuple.435" = type { %"struct.std::_Tuple_impl.436" }
%"struct.std::_Tuple_impl.436" = type { %"struct.std::_Head_base.439" }
%"struct.std::_Head_base.439" = type { ptr }
%class.anon.440 = type { ptr, [8 x i8], %"struct.folly::ThreadPoolExecutor::Task" }
%"class.folly::MuxIOThreadPoolExecutor" = type { %"class.folly::IOThreadPoolExecutorBase.base", %"struct.folly::MuxIOThreadPoolExecutor::Options", %"struct.folly::relaxed_atomic", %"class.folly::ThreadLocal", ptr, %"class.std::unique_ptr", i32, %"class.std::vector.30", %"class.std::vector.35", %"class.std::unique_ptr.40", %"struct.std::atomic.12", %"struct.std::atomic.10", %"class.std::unique_ptr.48", %"struct.folly::MuxIOThreadPoolExecutor::Stats", %"class.folly::AtomicIntrusiveLinkedList", %"struct.folly::MuxIOThreadPoolExecutor::EventFdHandler" }
%"class.folly::IOThreadPoolExecutorBase.base" = type { %"class.folly::ThreadPoolExecutor.base", %"class.folly::IOExecutor", %"class.folly::GetThreadIdCollector" }
%"class.folly::ThreadPoolExecutor.base" = type <{ %"class.folly::DefaultKeepAliveExecutor", %"class.std::shared_ptr.6", %"class.folly::ThreadPoolExecutor::ThreadList", %"class.folly::SharedMutexImpl", [36 x i8], %"class.folly::ThreadPoolExecutor::StoppedThreadQueue", %"struct.std::atomic.12", [7 x i8], %"class.std::shared_ptr.14", %"class.std::vector.17", %"class.folly::ThreadPoolListHook", [7 x i8], %"struct.std::atomic.10", %"struct.std::atomic.10", %"struct.std::atomic.10", %"struct.std::atomic.10", %"struct.std::atomic.22", i8 }>
%"class.folly::IOExecutor" = type { %"class.folly::Executor" }
%"class.folly::GetThreadIdCollector" = type { ptr }
%"struct.folly::MuxIOThreadPoolExecutor::Options" = type { i8, i64, %"class.std::chrono::duration.9", i64 }
%"struct.folly::relaxed_atomic" = type { %"struct.folly::detail::relaxed_atomic_integral_base" }
%"struct.folly::detail::relaxed_atomic_integral_base" = type { %"struct.folly::detail::relaxed_atomic_base" }
%"struct.folly::detail::relaxed_atomic_base" = type { %"struct.std::atomic.10" }
%"class.folly::ThreadLocal" = type { %"class.folly::ThreadLocalPtr", %"class.std::function" }
%"class.folly::ThreadLocalPtr" = type { %"class.folly::threadlocal_detail::StaticMetaBase::EntryID" }
%"class.folly::threadlocal_detail::StaticMetaBase::EntryID" = type { %"struct.std::atomic" }
%"class.std::function" = type { %"class.std::_Function_base", ptr }
%"class.std::_Function_base" = type { %"union.std::_Any_data", ptr }
%"union.std::_Any_data" = type { %"union.std::_Nocopy_types" }
%"union.std::_Nocopy_types" = type { { i64, i64 } }
%"class.std::unique_ptr" = type { %"struct.std::__uniq_ptr_data" }
%"struct.std::__uniq_ptr_data" = type { %"class.std::__uniq_ptr_impl" }
%"class.std::__uniq_ptr_impl" = type { %"class.std::tuple" }
%"class.std::tuple" = type { %"struct.std::_Tuple_impl" }
%"struct.std::_Tuple_impl" = type { %"struct.std::_Head_base.29" }
%"struct.std::_Head_base.29" = type { ptr }
%"class.std::vector.30" = type { %"struct.std::_Vector_base.31" }
%"struct.std::_Vector_base.31" = type { %"struct.std::_Vector_base<std::unique_ptr<folly::EventBase>, std::allocator<std::unique_ptr<folly::EventBase>>>::_Vector_impl" }
%"struct.std::_Vector_base<std::unique_ptr<folly::EventBase>, std::allocator<std::unique_ptr<folly::EventBase>>>::_Vector_impl" = type { %"struct.std::_Vector_base<std::unique_ptr<folly::EventBase>, std::allocator<std::unique_ptr<folly::EventBase>>>::_Vector_impl_data" }
%"struct.std::_Vector_base<std::unique_ptr<folly::EventBase>, std::allocator<std::unique_ptr<folly::EventBase>>>::_Vector_impl_data" = type { ptr, ptr, ptr }
%"class.std::vector.35" = type { %"struct.std::_Vector_base.36" }
%"struct.std::_Vector_base.36" = type { %"struct.std::_Vector_base<std::unique_ptr<folly::MuxIOThreadPoolExecutor::EvbHandler>, std::allocator<std::unique_ptr<folly::MuxIOThreadPoolExecutor::EvbHandler>>>::_Vector_impl" }
%"struct.std::_Vector_base<std::unique_ptr<folly::MuxIOThreadPoolExecutor::EvbHandler>, std::allocator<std::unique_ptr<folly::MuxIOThreadPoolExecutor::EvbHandler>>>::_Vector_impl" = type { %"struct.std::_Vector_base<std::unique_ptr<folly::MuxIOThreadPoolExecutor::EvbHandler>, std::allocator<std::unique_ptr<folly::MuxIOThreadPoolExecutor::EvbHandler>>>::_Vector_impl_data" }
%"struct.std::_Vector_base<std::unique_ptr<folly::MuxIOThreadPoolExecutor::EvbHandler>, std::allocator<std::unique_ptr<folly::MuxIOThreadPoolExecutor::EvbHandler>>>::_Vector_impl_data" = type { ptr, ptr, ptr }
%"class.std::unique_ptr.40" = type { %"struct.std::__uniq_ptr_data.41" }
%"struct.std::__uniq_ptr_data.41" = type { %"class.std::__uniq_ptr_impl.42" }
%"class.std::__uniq_ptr_impl.42" = type { %"class.std::tuple.43" }
%"class.std::tuple.43" = type { %"struct.std::_Tuple_impl.44" }
%"struct.std::_Tuple_impl.44" = type { %"struct.std::_Head_base.47" }
%"struct.std::_Head_base.47" = type { ptr }
%"class.std::unique_ptr.48" = type { %"struct.std::__uniq_ptr_data.49" }
%"struct.std::__uniq_ptr_data.49" = type { %"class.std::__uniq_ptr_impl.50" }
%"class.std::__uniq_ptr_impl.50" = type { %"class.std::tuple.51" }
%"class.std::tuple.51" = type { %"struct.std::_Tuple_impl.52" }
%"struct.std::_Tuple_impl.52" = type { %"struct.std::_Head_base.55" }
%"struct.std::_Head_base.55" = type { ptr }
%"struct.folly::MuxIOThreadPoolExecutor::Stats" = type { i32, i32, i64, i64, %"class.std::chrono::duration.56", %"class.std::chrono::duration.56", %"class.std::chrono::duration.56" }
%"class.std::chrono::duration.56" = type { i64 }
%"class.folly::AtomicIntrusiveLinkedList" = type { %"struct.std::atomic.57" }
%"struct.std::atomic.57" = type { %"struct.std::__atomic_base.58" }
%"struct.std::__atomic_base.58" = type { ptr }
%"struct.folly::MuxIOThreadPoolExecutor::EventFdHandler" = type { %"struct.folly::MuxIOThreadPoolExecutor::Handler.base", [3 x i8] }
%"class.std::unique_ptr.151" = type { %"struct.std::__uniq_ptr_data.152" }
%"struct.std::__uniq_ptr_data.152" = type { %"class.std::__uniq_ptr_impl.153" }
%"class.std::__uniq_ptr_impl.153" = type { %"class.std::tuple.154" }
%"class.std::tuple.154" = type { %"struct.std::_Tuple_impl.155" }
%"struct.std::_Tuple_impl.155" = type { %"struct.std::_Head_base.158" }
%"struct.std::_Head_base.158" = type { ptr }
%"struct.folly::ThreadPoolExecutor::Task::Expiration" = type { %"class.std::chrono::duration", [8 x i8], %"class.folly::Function" }
%"class.std::shared_ptr" = type { %"class.std::__shared_ptr" }
%"class.std::__shared_ptr" = type { ptr, %"class.std::__shared_count" }
%"class.std::shared_ptr.170" = type { %"class.std::__shared_ptr.171" }
%"class.std::__shared_ptr.171" = type { ptr, %"class.std::__shared_count" }
%"class.folly::detail::ScopeGuardImpl.458" = type { %"class.folly::detail::ScopeGuardImplBase", %class.anon.459 }
%"class.folly::detail::ScopeGuardImplBase" = type { i8 }
%class.anon.459 = type { ptr, ptr }
%"class.google::LogMessageFatal" = type { %"class.google::LogMessage" }
%"class.google::LogMessage" = type { ptr, ptr }
%"struct.folly::IOThreadPoolExecutorBase::IOThread" = type { %"struct.folly::ThreadPoolExecutor::Thread", %"struct.std::atomic.12", %"struct.std::atomic.10", ptr, %"class.std::mutex" }
%"struct.folly::ThreadPoolExecutor::Thread" = type { %"class.folly::ThreadPoolExecutor::ThreadHandle", i64, %"class.std::thread", %"struct.std::atomic.12", %"class.folly::AtomicStruct.446", %"class.folly::Baton", %"class.std::shared_ptr.14" }
%"class.folly::ThreadPoolExecutor::ThreadHandle" = type { ptr }
%"class.std::thread" = type { %"class.std::thread::id" }
%"class.folly::AtomicStruct.446" = type { %"struct.std::atomic.10" }
%"class.std::_Sp_counted_ptr_inplace" = type { %"class.std::_Sp_counted_base", [48 x i8], %"class.std::_Sp_counted_ptr_inplace<folly::IOThreadPoolExecutorBase::IOThread, std::allocator<void>, __gnu_cxx::_S_atomic>::_Impl" }
%"class.std::_Sp_counted_ptr_inplace<folly::IOThreadPoolExecutorBase::IOThread, std::allocator<void>, __gnu_cxx::_S_atomic>::_Impl" = type { %"struct.__gnu_cxx::__aligned_buffer" }
%"struct.__gnu_cxx::__aligned_buffer" = type { %"union.std::aligned_storage<128, 64>::type" }
%"union.std::aligned_storage<128, 64>::type" = type { [128 x i8] }
%"class.std::vector.23" = type { %"struct.std::_Vector_base.24" }
%"struct.std::_Vector_base.24" = type { %"struct.std::_Vector_base<folly::Executor::KeepAlive<folly::EventBase>, std::allocator<folly::Executor::KeepAlive<folly::EventBase>>>::_Vector_impl" }
%"struct.std::_Vector_base<folly::Executor::KeepAlive<folly::EventBase>, std::allocator<folly::Executor::KeepAlive<folly::EventBase>>>::_Vector_impl" = type { %"struct.std::_Vector_base<folly::Executor::KeepAlive<folly::EventBase>, std::allocator<folly::Executor::KeepAlive<folly::EventBase>>>::_Vector_impl_data" }
%"struct.std::_Vector_base<folly::Executor::KeepAlive<folly::EventBase>, std::allocator<folly::Executor::KeepAlive<folly::EventBase>>>::_Vector_impl_data" = type { ptr, ptr, ptr }
%"class.folly::Executor::KeepAlive.461" = type { i64 }
%"struct.folly::MuxIOThreadPoolExecutor::Handler" = type <{ ptr, %"struct.folly::AtomicIntrusiveLinkedListHook", i32, i8, [3 x i8] }>
%"class.folly::EventBase" = type { %"class.folly::TimeoutManager", %"class.folly::DrivableExecutor", %"class.folly::IOExecutor", %"class.folly::SequencedExecutor", %"class.folly::ScheduledExecutor", %"class.folly::GetThreadIdCollector", %"class.std::chrono::duration", i8, i8, %"struct.std::atomic.67", %"class.std::unique_ptr.68", %"class.boost::intrusive::list", %"class.boost::intrusive::list", %"struct.folly::Synchronized", %"struct.folly::Synchronized", ptr, %"struct.std::atomic.12", %"class.std::unique_ptr.82", i64, %"struct.std::atomic.90", i8, %"class.std::chrono::duration.56", %"class.folly::EventBase::SmoothLoopTime", %"class.folly::EventBase::SmoothLoopTime", i8, [15 x i8], %"class.folly::Function", i64, i64, %"class.std::chrono::time_point", %"class.std::shared_ptr.92", i32, %"class.boost::intrusive::list.95", %"class.std::__cxx11::basic_string", %"class.folly::F14FastMap", %"struct.folly::Synchronized.107", %"class.folly::basic_once_flag", %"class.std::unique_ptr.126", %"class.std::unique_ptr.134", %"class.std::unique_ptr.142", [8 x i8] }
%"class.folly::TimeoutManager" = type { ptr, %"class.std::unique_ptr.59" }
%"class.std::unique_ptr.59" = type { %"struct.std::__uniq_ptr_data.60" }
%"struct.std::__uniq_ptr_data.60" = type { %"class.std::__uniq_ptr_impl.61" }
%"class.std::__uniq_ptr_impl.61" = type { %"class.std::tuple.62" }
%"class.std::tuple.62" = type { %"struct.std::_Tuple_impl.63" }
%"struct.std::_Tuple_impl.63" = type { %"struct.std::_Head_base.66" }
%"struct.std::_Head_base.66" = type { ptr }
%"class.folly::DrivableExecutor" = type { %"class.folly::Executor" }
%"class.folly::SequencedExecutor" = type { %"class.folly::Executor" }
%"class.folly::ScheduledExecutor" = type { %"class.folly::Executor" }
%"class.std::unique_ptr.68" = type { %"struct.std::__uniq_ptr_data.69" }
%"struct.std::__uniq_ptr_data.69" = type { %"class.std::__uniq_ptr_impl.70" }
%"class.std::__uniq_ptr_impl.70" = type { %"class.std::tuple.71" }
%"class.std::tuple.71" = type { %"struct.std::_Tuple_impl.72" }
%"struct.std::_Tuple_impl.72" = type { %"struct.std::_Head_base.75" }
%"struct.std::_Head_base.75" = type { ptr }
%"class.boost::intrusive::list" = type { %"class.boost::intrusive::list_impl" }
%"class.boost::intrusive::list_impl" = type { %"struct.boost::intrusive::list_impl<boost::intrusive::bhtraits<folly::EventBase::LoopCallback, boost::intrusive::list_node_traits<void *>, boost::intrusive::auto_unlink, boost::intrusive::dft_tag, 1>, unsigned long, false, void>::data_t" }
%"struct.boost::intrusive::list_impl<boost::intrusive::bhtraits<folly::EventBase::LoopCallback, boost::intrusive::list_node_traits<void *>, boost::intrusive::auto_unlink, boost::intrusive::dft_tag, 1>, unsigned long, false, void>::data_t" = type { %"struct.boost::intrusive::list_impl<boost::intrusive::bhtraits<folly::EventBase::LoopCallback, boost::intrusive::list_node_traits<void *>, boost::intrusive::auto_unlink, boost::intrusive::dft_tag, 1>, unsigned long, false, void>::root_plus_size" }
%"struct.boost::intrusive::list_impl<boost::intrusive::bhtraits<folly::EventBase::LoopCallback, boost::intrusive::list_node_traits<void *>, boost::intrusive::auto_unlink, boost::intrusive::dft_tag, 1>, unsigned long, false, void>::root_plus_size" = type { %"struct.boost::intrusive::detail::default_header_holder" }
%"struct.boost::intrusive::detail::default_header_holder" = type { %"struct.boost::intrusive::list_node" }
%"struct.boost::intrusive::list_node" = type { ptr, ptr }
%"struct.folly::Synchronized" = type <{ %"class.boost::intrusive::list.77", %"class.folly::SharedMutexImpl", [4 x i8] }>
%"class.boost::intrusive::list.77" = type { %"class.boost::intrusive::list_impl.78" }
%"class.boost::intrusive::list_impl.78" = type { %"struct.boost::intrusive::list_impl<boost::intrusive::bhtraits<folly::EventBase::OnDestructionCallback, boost::intrusive::list_node_traits<void *>, boost::intrusive::normal_link, boost::intrusive::dft_tag, 1>, unsigned long, true, void>::data_t" }
%"struct.boost::intrusive::list_impl<boost::intrusive::bhtraits<folly::EventBase::OnDestructionCallback, boost::intrusive::list_node_traits<void *>, boost::intrusive::normal_link, boost::intrusive::dft_tag, 1>, unsigned long, true, void>::data_t" = type { %"struct.boost::intrusive::list_impl<boost::intrusive::bhtraits<folly::EventBase::OnDestructionCallback, boost::intrusive::list_node_traits<void *>, boost::intrusive::normal_link, boost::intrusive::dft_tag, 1>, unsigned long, true, void>::root_plus_size" }
%"struct.boost::intrusive::list_impl<boost::intrusive::bhtraits<folly::EventBase::OnDestructionCallback, boost::intrusive::list_node_traits<void *>, boost::intrusive::normal_link, boost::intrusive::dft_tag, 1>, unsigned long, true, void>::root_plus_size" = type { %"struct.boost::intrusive::detail::size_holder.81", %"struct.boost::intrusive::detail::default_header_holder" }
%"struct.boost::intrusive::detail::size_holder.81" = type { i64 }
%"class.std::unique_ptr.82" = type { %"struct.std::__uniq_ptr_data.83" }
%"struct.std::__uniq_ptr_data.83" = type { %"class.std::__uniq_ptr_impl.84" }
%"class.std::__uniq_ptr_impl.84" = type { %"class.std::tuple.85" }
%"class.std::tuple.85" = type { %"struct.std::_Tuple_impl.86" }
%"struct.std::_Tuple_impl.86" = type { %"struct.std::_Head_base.89" }
%"struct.std::_Head_base.89" = type { ptr }
%"struct.std::atomic.90" = type { %"struct.std::__atomic_base.91" }
%"struct.std::__atomic_base.91" = type { i64 }
%"class.folly::EventBase::SmoothLoopTime" = type { double, double, %"class.std::chrono::duration.56", %"class.std::chrono::duration.56", i64 }
%"class.std::shared_ptr.92" = type { %"class.std::__shared_ptr.93" }
%"class.std::__shared_ptr.93" = type { ptr, %"class.std::__shared_count" }
%"class.boost::intrusive::list.95" = type { %"class.boost::intrusive::list_impl.96" }
%"class.boost::intrusive::list_impl.96" = type { %"struct.boost::intrusive::list_impl<boost::intrusive::bhtraits<folly::ExecutionObserver, boost::intrusive::list_node_traits<void *>, boost::intrusive::auto_unlink, boost::intrusive::dft_tag, 1>, unsigned long, false, void>::data_t" }
%"struct.boost::intrusive::list_impl<boost::intrusive::bhtraits<folly::ExecutionObserver, boost::intrusive::list_node_traits<void *>, boost::intrusive::auto_unlink, boost::intrusive::dft_tag, 1>, unsigned long, false, void>::data_t" = type { %"struct.boost::intrusive::list_impl<boost::intrusive::bhtraits<folly::ExecutionObserver, boost::intrusive::list_node_traits<void *>, boost::intrusive::auto_unlink, boost::intrusive::dft_tag, 1>, unsigned long, false, void>::root_plus_size" }
%"struct.boost::intrusive::list_impl<boost::intrusive::bhtraits<folly::ExecutionObserver, boost::intrusive::list_node_traits<void *>, boost::intrusive::auto_unlink, boost::intrusive::dft_tag, 1>, unsigned long, false, void>::root_plus_size" = type { %"struct.boost::intrusive::detail::default_header_holder" }
%"class.std::__cxx11::basic_string" = type { %"struct.std::__cxx11::basic_string<char>::_Alloc_hider", i64, %union.anon }
%"struct.std::__cxx11::basic_string<char>::_Alloc_hider" = type { ptr }
%union.anon = type { i64, [8 x i8] }
%"class.folly::F14FastMap" = type { %"class.folly::f14::detail::F14VectorMapImpl" }
%"class.folly::f14::detail::F14VectorMapImpl" = type { %"class.folly::f14::detail::F14BasicMap" }
%"class.folly::f14::detail::F14BasicMap" = type { %"class.folly::f14::detail::F14Table" }
%"class.folly::f14::detail::F14Table" = type { %"class.folly::f14::detail::VectorContainerPolicy", ptr, %"struct.folly::f14::detail::SizeAndChunkShiftAndPackedBegin" }
%"class.folly::f14::detail::VectorContainerPolicy" = type { ptr }
%"struct.folly::f14::detail::SizeAndChunkShiftAndPackedBegin" = type { %"struct.folly::f14::detail::PackedSizeAndChunkShift" }
%"struct.folly::f14::detail::PackedSizeAndChunkShift" = type { i64 }
%"struct.folly::Synchronized.107" = type <{ %"class.folly::F14FastSet", %"class.folly::SharedMutexImpl", [4 x i8] }>
%"class.folly::F14FastSet" = type { %"class.folly::F14ValueSet" }
%"class.folly::F14ValueSet" = type { %"class.folly::f14::detail::F14BasicSet" }
%"class.folly::f14::detail::F14BasicSet" = type { %"class.folly::f14::detail::F14Table.110" }
%"class.folly::f14::detail::F14Table.110" = type { ptr, %"struct.folly::f14::detail::SizeAndChunkShiftAndPackedBegin.124" }
%"struct.folly::f14::detail::SizeAndChunkShiftAndPackedBegin.124" = type { %"struct.folly::f14::detail::PackedSizeAndChunkShift", %"class.folly::f14::detail::PackedChunkItemPtr" }
%"class.folly::f14::detail::PackedChunkItemPtr" = type { i64 }
%"class.folly::basic_once_flag" = type { %"struct.std::atomic.12", %"class.folly::SharedMutexImpl" }
%"class.std::unique_ptr.126" = type { %"struct.std::__uniq_ptr_data.127" }
%"struct.std::__uniq_ptr_data.127" = type { %"class.std::__uniq_ptr_impl.128" }
%"class.std::__uniq_ptr_impl.128" = type { %"class.std::tuple.129" }
%"class.std::tuple.129" = type { %"struct.std::_Tuple_impl.130" }
%"struct.std::_Tuple_impl.130" = type { %"struct.std::_Head_base.133" }
%"struct.std::_Head_base.133" = type { ptr }
%"class.std::unique_ptr.134" = type { %"struct.std::__uniq_ptr_data.135" }
%"struct.std::__uniq_ptr_data.135" = type { %"class.std::__uniq_ptr_impl.136" }
%"class.std::__uniq_ptr_impl.136" = type { %"class.std::tuple.137" }
%"class.std::tuple.137" = type { %"struct.std::_Tuple_impl.138" }
%"struct.std::_Tuple_impl.138" = type { %"struct.std::_Head_base.141" }
%"struct.std::_Head_base.141" = type { ptr }
%"class.std::unique_ptr.142" = type { %"struct.std::__uniq_ptr_data.143" }
%"struct.std::__uniq_ptr_data.143" = type { %"class.std::__uniq_ptr_impl.144" }
%"class.std::__uniq_ptr_impl.144" = type { %"class.std::tuple.145" }
%"class.std::tuple.145" = type { %"struct.std::_Tuple_impl.146" }
%"struct.std::_Tuple_impl.146" = type { %"struct.std::_Head_base.149" }
%"struct.std::_Head_base.149" = type { ptr }
%"class.google::base::CheckOpMessageBuilder" = type { ptr }
%struct.epoll_event = type <{ i32, %union.epoll_data }>
%union.epoll_data = type { ptr }
%"struct.google::CheckOpString" = type { ptr }
%"class.std::unique_ptr.408" = type { %"struct.std::__uniq_ptr_data.409" }
%"struct.std::__uniq_ptr_data.409" = type { %"class.std::__uniq_ptr_impl.410" }
%"class.std::__uniq_ptr_impl.410" = type { %"class.std::tuple.411" }
%"class.std::tuple.411" = type { %"struct.std::_Tuple_impl.412" }
%"struct.std::_Tuple_impl.412" = type { %"struct.std::_Head_base.415" }
%"struct.std::_Head_base.415" = type { ptr }
%"struct.folly::EventBase::Options" = type <{ i8, [7 x i8], %"class.std::function.454", %"class.std::chrono::duration", i8, [7 x i8] }>
%"class.std::function.454" = type { %"class.std::_Function_base", ptr }
%"class.folly::UnboundedBlockingQueue" = type { %"class.folly::BlockingQueue.177", [56 x i8], %"class.folly::ThrottledLifoSem", %"class.folly::UnboundedQueue" }
%"class.folly::BlockingQueue.177" = type { ptr }
%"class.folly::ThrottledLifoSem" = type { %"struct.folly::ThrottledLifoSem::Options", [56 x i8], %"struct.std::atomic.10", %"class.folly::detail::distributed_mutex::DistributedMutex", %"class.boost::intrusive::list.178", [24 x i8], %"class.std::chrono::time_point", [56 x i8] }
%"struct.folly::ThrottledLifoSem::Options" = type { %"class.std::chrono::duration.9" }
%"class.folly::detail::distributed_mutex::DistributedMutex" = type { %"struct.std::atomic.10" }
%"class.boost::intrusive::list.178" = type { %"class.boost::intrusive::list_impl.179" }
%"class.boost::intrusive::list_impl.179" = type { %"struct.boost::intrusive::list_impl<boost::intrusive::mhtraits<folly::ThrottledLifoSem::Waiter, boost::intrusive::list_member_hook<boost::intrusive::link_mode<boost::intrusive::safe_link>>, &folly::ThrottledLifoSem::Waiter::hook>, unsigned long, true, void>::data_t" }
%"struct.boost::intrusive::list_impl<boost::intrusive::mhtraits<folly::ThrottledLifoSem::Waiter, boost::intrusive::list_member_hook<boost::intrusive::link_mode<boost::intrusive::safe_link>>, &folly::ThrottledLifoSem::Waiter::hook>, unsigned long, true, void>::data_t" = type { %"struct.boost::intrusive::list_impl<boost::intrusive::mhtraits<folly::ThrottledLifoSem::Waiter, boost::intrusive::list_member_hook<boost::intrusive::link_mode<boost::intrusive::safe_link>>, &folly::ThrottledLifoSem::Waiter::hook>, unsigned long, true, void>::root_plus_size" }
%"struct.boost::intrusive::list_impl<boost::intrusive::mhtraits<folly::ThrottledLifoSem::Waiter, boost::intrusive::list_member_hook<boost::intrusive::link_mode<boost::intrusive::safe_link>>, &folly::ThrottledLifoSem::Waiter::hook>, unsigned long, true, void>::root_plus_size" = type { %"struct.boost::intrusive::detail::size_holder.81", %"struct.boost::intrusive::detail::default_header_holder" }
%"class.folly::UnboundedQueue" = type { %"struct.folly::UnboundedQueue<folly::MuxIOThreadPoolExecutor::HandlerTask, false, false, false, 6>::Consumer", [80 x i8], %"struct.folly::UnboundedQueue<folly::MuxIOThreadPoolExecutor::HandlerTask, false, false, false, 6>::Producer", [112 x i8] }
%"struct.folly::UnboundedQueue<folly::MuxIOThreadPoolExecutor::HandlerTask, false, false, false, 6>::Consumer" = type { %"struct.std::atomic.180", %"struct.std::atomic.10", %"class.folly::hazptr_obj_cohort" }
%"struct.std::atomic.180" = type { %"struct.std::__atomic_base.181" }
%"struct.std::__atomic_base.181" = type { ptr }
%"class.folly::hazptr_obj_cohort" = type { %"class.folly::hazptr_detail::shared_head_tail_list", %"struct.std::atomic.184", %"struct.std::atomic.12", %"struct.std::atomic.12", %"struct.std::atomic.182" }
%"class.folly::hazptr_detail::shared_head_tail_list" = type { %"struct.std::atomic.182", %"struct.std::atomic.182" }
%"struct.std::atomic.182" = type { %"struct.std::__atomic_base.183" }
%"struct.std::__atomic_base.183" = type { ptr }
%"struct.folly::UnboundedQueue<folly::MuxIOThreadPoolExecutor::HandlerTask, false, false, false, 6>::Producer" = type { %"struct.std::atomic.180", %"struct.std::atomic.10" }
%"class.std::unique_ptr.159" = type { %"struct.std::__uniq_ptr_data.160" }
%"struct.std::__uniq_ptr_data.160" = type { %"class.std::__uniq_ptr_impl.161" }
%"class.std::__uniq_ptr_impl.161" = type { %"class.std::tuple.162" }
%"class.std::tuple.162" = type { %"struct.std::_Tuple_impl.163" }
%"struct.std::_Tuple_impl.163" = type { %"struct.std::_Head_base.166" }
%"struct.std::_Head_base.166" = type { ptr }
%"class.folly::ThreadIdWorkerProvider" = type <{ %"class.folly::WorkerProvider", %"struct.folly::Synchronized.385", %"class.folly::SharedMutexImpl", [4 x i8] }>
%"class.folly::WorkerProvider" = type { ptr }
%"struct.folly::Synchronized.385" = type <{ %"class.std::unordered_set", %"class.folly::SharedMutexImpl", [4 x i8] }>
%"class.std::unordered_set" = type { %"class.std::_Hashtable.388" }
%"class.std::_Hashtable.388" = type { ptr, i64, %"struct.std::__detail::_Hash_node_base", i64, %"struct.std::__detail::_Prime_rehash_policy", ptr }
%"struct.std::__detail::_Hash_node_base" = type { ptr }
%"struct.std::__detail::_Prime_rehash_policy" = type { float, i64 }
%"struct.std::thread::_State_impl" = type { %"struct.std::thread::_State", %"struct.std::thread::_Invoker" }
%"struct.std::thread::_State" = type { ptr }
%"struct.std::thread::_Invoker" = type { %"class.std::tuple.416" }
%"class.std::tuple.416" = type { %"struct.std::_Tuple_impl.417" }
%"struct.std::_Tuple_impl.417" = type { %"struct.std::_Head_base.418" }
%"struct.std::_Head_base.418" = type { %class.anon.167 }
%class.anon.167 = type { ptr }
%"class.folly::hazptr_obj" = type { ptr, ptr, i64 }
%"class.folly::hazptr_tc" = type <{ [9 x %"class.folly::hazptr_tc_entry"], i8, i8, [6 x i8] }>
%"class.folly::hazptr_tc_entry" = type { ptr }
%"class.folly::UnboundedQueue<folly::MuxIOThreadPoolExecutor::HandlerTask, false, false, false, 6>::Segment" = type { %"class.folly::hazptr_obj_base_linked", %"struct.std::atomic.180", i64, [80 x i8], [64 x %"class.folly::UnboundedQueue<folly::MuxIOThreadPoolExecutor::HandlerTask, false, false, false, 6>::Entry"] }
%"class.folly::hazptr_obj_base_linked" = type { %"class.folly::hazptr_obj_linked" }
%"class.folly::hazptr_obj_linked" = type { %"class.folly::hazptr_obj", %"struct.std::atomic.10" }
%"class.folly::UnboundedQueue<folly::MuxIOThreadPoolExecutor::HandlerTask, false, false, false, 6>::Entry" = type { %"class.folly::SaturatingSemaphore.190", [4 x i8], %"union.std::aligned_storage<8, 8>::type" }
%"class.folly::SaturatingSemaphore.190" = type { %"struct.std::atomic" }
%"class.folly::hazptr_rec" = type { %"struct.std::atomic.222", ptr, ptr, ptr, [96 x i8] }
%"struct.std::atomic.222" = type { %"struct.std::__atomic_base.223" }
%"struct.std::__atomic_base.223" = type { ptr }
%"class.folly::WaitOptions" = type <{ %"class.std::chrono::duration.9", i8, [7 x i8] }>
%"class.folly::Optional" = type { %"struct.folly::Optional<folly::MuxIOThreadPoolExecutor::HandlerTask>::StorageTriviallyDestructible" }
%"struct.folly::Optional<folly::MuxIOThreadPoolExecutor::HandlerTask>::StorageTriviallyDestructible" = type <{ %union.anon.186, i8, [7 x i8] }>
%union.anon.186 = type { %"struct.folly::MuxIOThreadPoolExecutor::HandlerTask" }
%"struct.folly::MuxIOThreadPoolExecutor::HandlerTask" = type { ptr }
%"class.folly::hazptr_obj_list" = type <{ %"class.folly::hazptr_detail::linked_list", i32, [4 x i8] }>
%"class.folly::hazptr_detail::linked_list" = type { ptr, ptr }
%struct.timespec = type { i64, i64 }
%"class.folly::Executor::KeepAlive.200" = type { i64 }
%class.anon.201 = type { ptr, i32, %"class.folly::Executor::KeepAlive.200" }
%"class.folly::F14FastSet.202" = type { %"class.folly::F14ValueSet.203" }
%"class.folly::F14ValueSet.203" = type { %"class.folly::f14::detail::F14BasicSet.204" }
%"class.folly::f14::detail::F14BasicSet.204" = type { %"class.folly::f14::detail::F14Table.205" }
%"class.folly::f14::detail::F14Table.205" = type { ptr, %"struct.folly::f14::detail::SizeAndChunkShiftAndPackedBegin.220" }
%"struct.folly::f14::detail::SizeAndChunkShiftAndPackedBegin.220" = type { %"struct.folly::f14::detail::PackedSizeAndChunkShift", %"class.folly::f14::detail::PackedChunkItemPtr.221" }
%"class.folly::f14::detail::PackedChunkItemPtr.221" = type { i64 }
%"struct.folly::f14::detail::F14Chunk" = type { %"struct.std::array", i8, i8, %"struct.std::array.231" }
%"struct.std::array" = type { [14 x i8] }
%"struct.std::array.231" = type { [14 x %"union.std::aligned_storage<8, 8>::type"] }
%"class.std::bad_function_call" = type { %"class.std::exception" }
%"class.std::exception" = type { ptr }
%"class.folly::detail::ScopeGuardImpl" = type { %"class.folly::detail::ScopeGuardImplBase", %class.anon.237 }
%class.anon.237 = type { ptr, ptr, ptr, ptr, ptr, ptr, ptr, ptr, ptr, ptr, ptr }
%"struct.std::array.238" = type { [256 x i8] }
%"class.std::bad_alloc" = type { %"class.std::exception" }
%"class.std::stack" = type { %"class.std::deque.253" }
%"class.std::deque.253" = type { %"class.std::_Deque_base.254" }
%"class.std::_Deque_base.254" = type { %"struct.std::_Deque_base<folly::hazptr_obj_base_linked<folly::UnboundedQueue<folly::MuxIOThreadPoolExecutor::HandlerTask, false, false, false, 6>::Segment> *, std::allocator<folly::hazptr_obj_base_linked<folly::UnboundedQueue<folly::MuxIOThreadPoolExecutor::HandlerTask, false, false, false, 6>::Segment> *>>::_Deque_impl" }
%"struct.std::_Deque_base<folly::hazptr_obj_base_linked<folly::UnboundedQueue<folly::MuxIOThreadPoolExecutor::HandlerTask, false, false, false, 6>::Segment> *, std::allocator<folly::hazptr_obj_base_linked<folly::UnboundedQueue<folly::MuxIOThreadPoolExecutor::HandlerTask, false, false, false, 6>::Segment> *>>::_Deque_impl" = type { %"struct.std::_Deque_base<folly::hazptr_obj_base_linked<folly::UnboundedQueue<folly::MuxIOThreadPoolExecutor::HandlerTask, false, false, false, 6>::Segment> *, std::allocator<folly::hazptr_obj_base_linked<folly::UnboundedQueue<folly::MuxIOThreadPoolExecutor::HandlerTask, false, false, false, 6>::Segment> *>>::_Deque_impl_data" }
%"struct.std::_Deque_base<folly::hazptr_obj_base_linked<folly::UnboundedQueue<folly::MuxIOThreadPoolExecutor::HandlerTask, false, false, false, 6>::Segment> *, std::allocator<folly::hazptr_obj_base_linked<folly::UnboundedQueue<folly::MuxIOThreadPoolExecutor::HandlerTask, false, false, false, 6>::Segment> *>>::_Deque_impl_data" = type { ptr, i64, %"struct.std::_Deque_iterator.258", %"struct.std::_Deque_iterator.258" }
%"struct.std::_Deque_iterator.258" = type { ptr, ptr, ptr, ptr }
%"struct.folly::threadlocal_detail::ElementWrapper" = type { ptr, %union.anon.297, i8, %"struct.folly::threadlocal_detail::ThreadEntryNode" }
%union.anon.297 = type { ptr }
%"struct.folly::threadlocal_detail::ThreadEntryNode" = type { i32, ptr, ptr, ptr }
%"class.folly::ThreadLocal.291" = type { %"class.folly::ThreadLocalPtr.292", %"class.std::function" }
%"class.folly::ThreadLocalPtr.292" = type { %"class.folly::threadlocal_detail::StaticMetaBase::EntryID" }
%"struct.folly::threadlocal_detail::StaticMetaBase" = type <{ i32, [4 x i8], %"class.std::vector.298", %"class.std::mutex", %"class.folly::SharedMutexImpl", i32, %"struct.folly::threadlocal_detail::ThreadEntry", ptr, i8, [7 x i8] }>
%"class.std::vector.298" = type { %"struct.std::_Vector_base.299" }
%"struct.std::_Vector_base.299" = type { %"struct.std::_Vector_base<unsigned int, std::allocator<unsigned int>>::_Vector_impl" }
%"struct.std::_Vector_base<unsigned int, std::allocator<unsigned int>>::_Vector_impl" = type { %"struct.std::_Vector_base<unsigned int, std::allocator<unsigned int>>::_Vector_impl_data" }
%"struct.std::_Vector_base<unsigned int, std::allocator<unsigned int>>::_Vector_impl_data" = type { ptr, ptr, ptr }
%"struct.folly::threadlocal_detail::ThreadEntry" = type { ptr, %"struct.std::atomic.10", ptr, ptr, ptr, i8, i64, %"union.std::aligned_storage<8, 8>::type" }
%"class.folly::Function.303" = type { %"union.folly::detail::function::Data", ptr, ptr }
%"struct.folly::threadlocal_detail::ThreadEntryList" = type { ptr, i64 }
%"class.std::system_error" = type { %"class.std::runtime_error", %"class.std::error_code" }
%"class.std::runtime_error" = type { %"class.std::exception", %"struct.std::__cow_string" }
%"struct.std::__cow_string" = type { %union.anon.150 }
%union.anon.150 = type { ptr }
%"class.std::error_code" = type { i32, ptr }
%"struct.folly::SharedMutexImpl<false>::WaitForever" = type { i8 }
%"class.folly::SharedMutexImpl<false>::ReadHolder" = type <{ ptr, %"struct.folly::SharedMutexToken", [4 x i8] }>
%"struct.folly::SharedMutexToken" = type { i16, i16 }
%"class.folly::detail::ScopeGuardImpl.308" = type { %"class.folly::detail::ScopeGuardImplBase", %class.anon.309 }
%class.anon.309 = type { ptr }
%"class.std::function.315" = type { %"class.std::_Function_base", ptr }
%class.anon.340 = type { i8 }
%"class.folly::detail::distributed_mutex::RequestWithReturn" = type { %class.anon.330, %union.anon.331 }
%class.anon.330 = type { ptr }
%union.anon.331 = type { ptr }
%"class.folly::detail::distributed_mutex::DistributedMutex<>::DistributedMutexStateProxy" = type { ptr, i64, i8, i8, i64, ptr, ptr }
%"class.std::__exception_ptr::exception_ptr" = type { ptr }
%"class.folly::detail::distributed_mutex::Waiter" = type { %"struct.std::array.334", %"struct.std::atomic.10", %"struct.std::atomic.10", %union.anon.335, %"struct.std::array.334", [64 x i8] }
%union.anon.335 = type { %"class.folly::detail::InlineFunctionRef" }
%"class.folly::detail::InlineFunctionRef" = type { ptr, %"union.std::aligned_storage<40, 8>::type" }
%"union.std::aligned_storage<40, 8>::type" = type { [40 x i8] }
%"struct.std::array.334" = type { [128 x i8] }
%"class.folly::detail::distributed_mutex::TaskWithCoalesce" = type { %class.anon.330, ptr }
%"struct.folly::parking_lot_detail::Bucket" = type { %"class.std::mutex", ptr, ptr, %"struct.std::atomic.10" }
%"struct.folly::parking_lot_detail::WaitNodeBase" = type { i64, i64, ptr, ptr, i8, %"class.std::mutex", %"class.std::condition_variable" }
%"class.std::condition_variable" = type { %"class.std::__condvar" }
%"class.std::__condvar" = type { %union.pthread_cond_t }
%union.pthread_cond_t = type { %struct.__pthread_cond_s }
%struct.__pthread_cond_s = type { %union.__atomic_wide_counter, %union.__atomic_wide_counter, [2 x i32], [2 x i32], i32, i32, [2 x i32] }
%union.__atomic_wide_counter = type { i64 }
%"class.folly::Optional.347" = type { %"struct.folly::Optional<folly::ThrottledLifoSem::Waiter>::StorageNonTriviallyDestructible" }
%"struct.folly::Optional<folly::ThrottledLifoSem::Waiter>::StorageNonTriviallyDestructible" = type <{ %union.anon.348, i8, [7 x i8] }>
%union.anon.348 = type { %"struct.folly::ThrottledLifoSem::Waiter" }
%"struct.folly::ThrottledLifoSem::Waiter" = type { %"class.folly::SaturatingSemaphore", %"class.boost::intrusive::list_member_hook" }
%"class.folly::SaturatingSemaphore" = type { %"struct.std::atomic" }
%"class.boost::intrusive::list_member_hook" = type { %"class.boost::intrusive::generic_hook" }
%"class.boost::intrusive::generic_hook" = type { %"struct.boost::intrusive::list_node" }
%class.anon.349 = type { ptr, ptr, ptr }
%"class.folly::detail::distributed_mutex::RequestWithoutReturn" = type { %class.anon.349 }
%"class.folly::detail::distributed_mutex::RequestWithReturn.360" = type <{ %class.anon.350, %union.anon.361, [7 x i8] }>
%class.anon.350 = type { ptr, ptr }
%union.anon.361 = type { i8 }
%"class.folly::detail::ScopeGuardImpl.362" = type { %"class.folly::detail::ScopeGuardImplBase", %class.anon.363 }
%class.anon.363 = type { ptr, ptr }
%"class.folly::detail::distributed_mutex::RequestWithReturn.369" = type { %class.anon.351, %union.anon.370 }
%class.anon.351 = type { ptr }
%union.anon.370 = type { ptr }
%"class.folly::OptionalEmptyException" = type { %"class.std::runtime_error" }
%"class.folly::detail::distributed_mutex::TaskWithCoalesce.364" = type { %class.anon.350, ptr }
%"class.folly::detail::distributed_mutex::TaskWithCoalesce.373" = type { %class.anon.351, ptr }
%"class.std::shared_lock" = type <{ ptr, %"struct.folly::SharedMutexToken", [4 x i8] }>
%"class.folly::detail::ScopeGuardImpl.441" = type { %"class.folly::detail::ScopeGuardImplBase", %class.anon.442 }
%class.anon.442 = type { ptr }
%"class.std::type_info" = type { ptr, ptr }

$_ZN5folly23MuxIOThreadPoolExecutor7Handler12getEventBaseEv = comdat any

$_ZN5folly23MuxIOThreadPoolExecutor10EvbHandler12getEventBaseEv = comdat any

$_ZN5folly24IOThreadPoolExecutorBaseD1Ev = comdat any

$_ZN5folly24IOThreadPoolExecutorBaseD0Ev = comdat any

$_ZNK5folly8Executor16getNumPrioritiesEv = comdat any

$_ZN5folly24DefaultKeepAliveExecutor16keepAliveAcquireEv = comdat any

$_ZN5folly24DefaultKeepAliveExecutor16keepAliveReleaseEv = comdat any

$_ZN5folly18ThreadPoolExecutor10makeThreadEv = comdat any

$_ZN5folly18ThreadPoolExecutor28handleObserverRegisterThreadEPNS0_12ThreadHandleERNS0_8ObserverE = comdat any

$_ZN5folly18ThreadPoolExecutor30handleObserverUnregisterThreadEPNS0_12ThreadHandleERNS0_8ObserverE = comdat any

$_ZThn488_N5folly24IOThreadPoolExecutorBaseD1Ev = comdat any

$_ZThn488_N5folly24IOThreadPoolExecutorBaseD0Ev = comdat any

$_ZN5folly24DefaultKeepAliveExecutorD1Ev = comdat any

$_ZN5folly24DefaultKeepAliveExecutorD0Ev = comdat any

$_ZN5folly10IOExecutorD1Ev = comdat any

$_ZN5folly10IOExecutorD0Ev = comdat any

$_ZTv0_n24_N5folly10IOExecutorD1Ev = comdat any

$_ZTv0_n24_N5folly10IOExecutorD0Ev = comdat any

$_ZN5folly23MuxIOThreadPoolExecutor20getThreadIdCollectorEv = comdat any

$_ZThn496_N5folly23MuxIOThreadPoolExecutor20getThreadIdCollectorEv = comdat any

$__clang_call_terminate = comdat any

$_ZNSt12__shared_ptrIN5folly13ThreadFactoryELN9__gnu_cxx12_Lock_policyE2EED2Ev = comdat any

$_ZNSt10unique_ptrISt6threadSt14default_deleteIS0_EED2Ev = comdat any

$_ZNSt6vectorISt10unique_ptrIN5folly23MuxIOThreadPoolExecutor10EvbHandlerESt14default_deleteIS3_EESaIS6_EED2Ev = comdat any

$_ZNSt6vectorISt10unique_ptrIN5folly9EventBaseESt14default_deleteIS2_EESaIS5_EED2Ev = comdat any

$_ZN5folly11ThreadLocalISt10shared_ptrINS_24IOThreadPoolExecutorBase8IOThreadEEvvED2Ev = comdat any

$_ZThn496_N5folly24IOThreadPoolExecutorBaseD1Ev = comdat any

$_ZThn496_N5folly24IOThreadPoolExecutorBaseD0Ev = comdat any

$_ZN5folly20GetThreadIdCollectorD2Ev = comdat any

$_ZN5folly20GetThreadIdCollectorD0Ev = comdat any

$_ZNSt16_Sp_counted_baseILN9__gnu_cxx12_Lock_policyE2EE24_M_release_last_use_coldEv = comdat any

$_ZNSt17_Function_handlerIFPvvEZN5folly11ThreadLocalISt10shared_ptrINS2_24IOThreadPoolExecutorBase8IOThreadEEvvEC1EvEUlvE_E9_M_invokeERKSt9_Any_data = comdat any

$_ZNSt17_Function_handlerIFPvvEZN5folly11ThreadLocalISt10shared_ptrINS2_24IOThreadPoolExecutorBase8IOThreadEEvvEC1EvEUlvE_E10_M_managerERSt9_Any_dataRKSB_St18_Manager_operation = comdat any

$_ZN5folly14UnboundedQueueINS_23MuxIOThreadPoolExecutor11HandlerTaskELb0ELb0ELb0ELm6ELm7ESt6atomicEC2Ev = comdat any

$_ZN5folly22UnboundedBlockingQueueINS_23MuxIOThreadPoolExecutor11HandlerTaskENS_16ThrottledLifoSemEED2Ev = comdat any

$_ZN5folly22UnboundedBlockingQueueINS_23MuxIOThreadPoolExecutor11HandlerTaskENS_16ThrottledLifoSemEED0Ev = comdat any

$_ZN5folly22UnboundedBlockingQueueINS_23MuxIOThreadPoolExecutor11HandlerTaskENS_16ThrottledLifoSemEE3addES2_ = comdat any

$_ZN5folly13BlockingQueueINS_23MuxIOThreadPoolExecutor11HandlerTaskEE15addWithPriorityES2_a = comdat any

$_ZN5folly13BlockingQueueINS_23MuxIOThreadPoolExecutor11HandlerTaskEE16getNumPrioritiesEv = comdat any

$_ZN5folly22UnboundedBlockingQueueINS_23MuxIOThreadPoolExecutor11HandlerTaskENS_16ThrottledLifoSemEE4takeEv = comdat any

$_ZN5folly22UnboundedBlockingQueueINS_23MuxIOThreadPoolExecutor11HandlerTaskENS_16ThrottledLifoSemEE12try_take_forENSt6chrono8durationIlSt5ratioILl1ELl1000EEEE = comdat any

$_ZN5folly22UnboundedBlockingQueueINS_23MuxIOThreadPoolExecutor11HandlerTaskENS_16ThrottledLifoSemEE4sizeEv = comdat any

$_ZN5folly13hazptr_domainISt6atomicE18cleanup_cohort_tagEPKNS_17hazptr_obj_cohortIS1_EE = comdat any

$_ZN5folly17hazptr_obj_cohortISt6atomicE12reclaim_listEPNS_10hazptr_objIS1_EE = comdat any

$_ZN5folly13hazptr_domainISt6atomicE29hazptr_warning_list_too_largeEmmi = comdat any

$_ZN6google17MakeCheckOpStringIiiEEPNSt7__cxx1112basic_stringIcSt11char_traitsIcESaIcEEERKT_RKT0_PKc = comdat any

$_ZN6google17MakeCheckOpStringIPN5folly10hazptr_objISt6atomicEES5_EEPNSt7__cxx1112basic_stringIcSt11char_traitsIcESaIcEEERKT_RKT0_PKc = comdat any

$_ZN5folly13hazptr_domainISt6atomicE27check_threshold_and_reclaimEv = comdat any

$_ZN5folly13hazptr_domainISt6atomicE30invoke_reclamation_in_executorEi = comdat any

$_ZN5folly13hazptr_domainISt6atomicE14do_reclamationEi = comdat any

$_ZN5folly6detail8function14FunctionTraitsIFvvEE10uninitCallERNS1_4DataE = comdat any

$_ZN5folly6detail8function14FunctionTraitsIFvvEE9callSmallIZNS_13hazptr_domainISt6atomicE30invoke_reclamation_in_executorEiEUlvE_EEvRNS1_4DataE = comdat any

$_ZN5folly6detail8function13DispatchSmall4execIZNS_13hazptr_domainISt6atomicE30invoke_reclamation_in_executorEiEUlvE_EEmNS1_2OpEPNS1_4DataESA_ = comdat any

$_ZN5folly6detail16throw_exception_ISt17bad_function_callJEEEvDpT0_ = comdat any

$_ZN5folly15throw_exceptionISt17bad_function_callEEvOT_ = comdat any

$_ZN5folly13hazptr_domainISt6atomicE23extract_retired_objectsEPPNS_10hazptr_objIS1_EES6_ = comdat any

$_ZN5folly13hazptr_domainISt6atomicE12match_taggedEPPNS_10hazptr_objIS1_EERNS_10F14FastSetIPKvNS_23HeterogeneousAccessHashIS9_vEENS_26HeterogeneousAccessEqualToIS9_vEESaIS9_EEE = comdat any

$_ZN5folly13hazptr_domainISt6atomicE22match_reclaim_untaggedEPPNS_10hazptr_objIS1_EERNS_10F14FastSetIPKvNS_23HeterogeneousAccessHashIS9_vEENS_26HeterogeneousAccessEqualToIS9_vEESaIS9_EEERb = comdat any

$_ZN5folly3f146detail8F14TableINS1_20ValueContainerPolicyIPKvvvvvEEE10rehashImplEmmmmm = comdat any

$_ZN5folly6detail16throw_exception_ISt9bad_allocJEEEvDpT0_ = comdat any

$_ZN5folly15throw_exceptionISt9bad_allocEEvOT_ = comdat any

$_ZN5folly6detail14ScopeGuardImplIZNS_3f146detail8F14TableINS3_20ValueContainerPolicyIPKvvvvvEEE10rehashImplEmmmmmEUlvE_Lb1EED2Ev = comdat any

$_ZN5folly14UnboundedQueueINS_23MuxIOThreadPoolExecutor11HandlerTaskELb0ELb0ELb0ELm6ELm7ESt6atomicED2Ev = comdat any

$_ZN5folly10hazptr_objISt6atomicE8push_objERNS_13hazptr_domainIS1_EE = comdat any

$_ZZN5folly22hazptr_obj_base_linkedINS_14UnboundedQueueINS_23MuxIOThreadPoolExecutor11HandlerTaskELb0ELb0ELb0ELm6ELm7ESt6atomicE7SegmentES4_St14default_deleteIS6_EE11set_reclaimEvENUlPNS_10hazptr_objIS4_EERNS_15hazptr_obj_listIS4_EEE_8__invokeESC_SF_ = comdat any

$_ZN5folly22hazptr_obj_base_linkedINS_14UnboundedQueueINS_23MuxIOThreadPoolExecutor11HandlerTaskELb0ELb0ELb0ELm6ELm7ESt6atomicE7SegmentES4_St14default_deleteIS6_EE36release_delete_immutable_descendantsEv = comdat any

$_ZN5folly22hazptr_obj_base_linkedINS_14UnboundedQueueINS_23MuxIOThreadPoolExecutor11HandlerTaskELb0ELb0ELb0ELm6ELm7ESt6atomicE7SegmentES4_St14default_deleteIS6_EE31release_retire_mutable_childrenERNS_15hazptr_obj_listIS4_EE = comdat any

$_ZNSt5stackIPN5folly22hazptr_obj_base_linkedINS0_14UnboundedQueueINS0_23MuxIOThreadPoolExecutor11HandlerTaskELb0ELb0ELb0ELm6ELm7ESt6atomicE7SegmentES5_St14default_deleteIS7_EEESt5dequeISB_SaISB_EEED2Ev = comdat any

$_ZNSt11_Deque_baseIPN5folly22hazptr_obj_base_linkedINS0_14UnboundedQueueINS0_23MuxIOThreadPoolExecutor11HandlerTaskELb0ELb0ELb0ELm6ELm7ESt6atomicE7SegmentES5_St14default_deleteIS7_EEESaISB_EE17_M_initialize_mapEm = comdat any

$_ZNSt5dequeIPN5folly22hazptr_obj_base_linkedINS0_14UnboundedQueueINS0_23MuxIOThreadPoolExecutor11HandlerTaskELb0ELb0ELb0ELm6ELm7ESt6atomicE7SegmentES5_St14default_deleteIS7_EEESaISB_EE16_M_push_back_auxIJSB_EEEvDpOT_ = comdat any

$_ZNSt5dequeIPN5folly22hazptr_obj_base_linkedINS0_14UnboundedQueueINS0_23MuxIOThreadPoolExecutor11HandlerTaskELb0ELb0ELb0ELm6ELm7ESt6atomicE7SegmentES5_St14default_deleteIS7_EEESaISB_EE17_M_reallocate_mapEmb = comdat any

$_ZN5folly17hazptr_obj_cohortISt6atomicE20check_threshold_pushEv = comdat any

$_ZN5folly13hazptr_domainISt6atomicE14acquire_hprecsEh = comdat any

$_ZN5folly20SingletonThreadLocalINS_9hazptr_tcISt6atomicEENS_17hazptr_tc_tls_tagENS_6detail11DefaultMakeIS3_EES4_E7getSlowERNS5_25SingletonThreadLocalState10LocalCacheE = comdat any

$_ZN5folly20SingletonThreadLocalINS_9hazptr_tcISt6atomicEENS_17hazptr_tc_tls_tagENS_6detail11DefaultMakeIS3_EES4_E13LocalLifetimeD2Ev = comdat any

$_ZN5folly6detail5thunk4makeINS_11ThreadLocalINS_20SingletonThreadLocalINS_9hazptr_tcISt6atomicEENS_17hazptr_tc_tls_tagENS0_11DefaultMakeIS7_EES8_E7WrapperES8_vEEJEEEPvDpT0_ = comdat any

$_ZNSt17_Function_handlerIFPvvEZN5folly11ThreadLocalINS2_20SingletonThreadLocalINS2_9hazptr_tcISt6atomicEENS2_17hazptr_tc_tls_tagENS2_6detail11DefaultMakeIS7_EES8_E7WrapperES8_vEC1EvEUlvE_E9_M_invokeERKSt9_Any_data = comdat any

$_ZNSt17_Function_handlerIFPvvEZN5folly11ThreadLocalINS2_20SingletonThreadLocalINS2_9hazptr_tcISt6atomicEENS2_17hazptr_tc_tls_tagENS2_6detail11DefaultMakeIS7_EES8_E7WrapperES8_vEC1EvEUlvE_E10_M_managerERSt9_Any_dataRKSH_St18_Manager_operation = comdat any

$_ZNK5folly11ThreadLocalINS_20SingletonThreadLocalINS_9hazptr_tcISt6atomicEENS_17hazptr_tc_tls_tagENS_6detail11DefaultMakeIS4_EES5_E7WrapperES5_vE7makeTlpEv = comdat any

$_ZN5folly18threadlocal_detail10StaticMetaINS_17hazptr_tc_tls_tagEvE22getSlowReserveAndCacheEPNS0_14StaticMetaBase7EntryIDERjRPNS0_11ThreadEntryERm = comdat any

$_ZN5folly6detail5thunk4makeINS_18threadlocal_detail10StaticMetaINS_17hazptr_tc_tls_tagEvEEJEEEPvDpT0_ = comdat any

$_ZN5folly18threadlocal_detail10StaticMetaINS_17hazptr_tc_tls_tagEvEC2Ev = comdat any

$_ZN5folly18threadlocal_detail10StaticMetaINS_17hazptr_tc_tls_tagEvE18getThreadEntrySlowEv = comdat any

$_ZN5folly18threadlocal_detail10StaticMetaINS_17hazptr_tc_tls_tagEvE7preForkEv = comdat any

$_ZN5folly18threadlocal_detail10StaticMetaINS_17hazptr_tc_tls_tagEvE12onForkParentEv = comdat any

$_ZN5folly18threadlocal_detail10StaticMetaINS_17hazptr_tc_tls_tagEvE11onForkChildEv = comdat any

$_ZN5folly18threadlocal_detail14StaticMetaBaseD2Ev = comdat any

$_ZN5folly24throwSystemErrorExplicitEiPKc = comdat any

$_ZN5folly15throw_exceptionISt12system_errorEEvOT_ = comdat any

$_ZNSt12system_errorC2ERKS_ = comdat any

$_ZNSt12system_errorC2ESt10error_codePKc = comdat any

$_ZN5folly6detail8function14FunctionTraitsIFbvEE9callSmallIPS3_EEbRNS1_4DataE = comdat any

$_ZN5folly6detail8function20DispatchSmallTrivial5exec_ILm16EEEmNS1_2OpEPNS1_4DataES6_ = comdat any

$_ZN5folly6detail8function14FunctionTraitsIFvvEE9callSmallIPS3_EEvRNS1_4DataE = comdat any

$_ZN5folly14ThreadLocalPtrINS_20SingletonThreadLocalINS_9hazptr_tcISt6atomicEENS_17hazptr_tc_tls_tagENS_6detail11DefaultMakeIS4_EES5_E7WrapperES5_vE5resetEPSA_ = comdat any

$_ZN5folly6detail14ScopeGuardImplIZNS_14ThreadLocalPtrINS_20SingletonThreadLocalINS_9hazptr_tcISt6atomicEENS_17hazptr_tc_tls_tagENS0_11DefaultMakeIS6_EES7_E7WrapperES7_vE5resetEPSB_EUlvE_Lb1EED2Ev = comdat any

$_ZN5folly15SharedMutexImplILb0EvSt6atomicNS_24SharedMutexPolicyDefaultEE14lockSharedImplINS3_11WaitForeverEEEbRjPNS_16SharedMutexTokenERT_ = comdat any

$_ZN5folly15SharedMutexImplILb0EvSt6atomicNS_24SharedMutexPolicyDefaultEE20yieldWaitForZeroBitsINS3_11WaitForeverEEEbRjjjRT_ = comdat any

$_ZN5folly14AccessSpreaderISt6atomicE14pickGetcpuFuncEv = comdat any

$_ZN5folly14FallbackGetcpuINS_18SequentialThreadIdEE6getcpuEPjS3_Pv = comdat any

$_ZZN5folly18threadlocal_detail14ElementWrapper3setIPNS_20SingletonThreadLocalINS_9hazptr_tcISt6atomicEENS_17hazptr_tc_tls_tagENS_6detail11DefaultMakeIS6_EES7_E7WrapperEEEvT_ENUlPvNS_18TLPDestructionModeEE_8__invokeESF_SG_ = comdat any

$_ZN5folly14UnboundedQueueINS_23MuxIOThreadPoolExecutor11HandlerTaskELb0ELb0ELb0ELm6ELm7ESt6atomicE16allocNextSegmentEPNS4_7SegmentE = comdat any

$_ZN5folly14UnboundedQueueINS_23MuxIOThreadPoolExecutor11HandlerTaskELb0ELb0ELb0ELm6ELm7ESt6atomicE19getAllocNextSegmentEPNS4_7SegmentEm = comdat any

$_ZN5folly6detail17distributed_mutex16DistributedMutexISt6atomicLb1EE12lock_combineIZNS_16ThrottledLifoSem21maybeStartWakingChainEvEUlvE_EENS_13invoke_detail6traitsIRKT_E6resultIEESA_ = comdat any

$_ZN5folly6detail17distributed_mutex18lockImplementationISt6atomicLb1ES3_ImENS1_17RequestWithReturnIZNS_16ThrottledLifoSem21maybeStartWakingChainEvEUlvE_EEEENS1_16DistributedMutexIT_XT0_EE26DistributedMutexStateProxyERSB_RT1_RT2_ = comdat any

$_ZN5folly6detail17InlineFunctionRefIFvvELm48EE10callInlineIKNS0_17distributed_mutex16TaskWithCoalesceIZNS_16ThrottledLifoSem21maybeStartWakingChainEvEUlvE_NS5_6WaiterISt6atomicEEEEEEvRKNSt15aligned_storageILm40ELm8EE4typeE = comdat any

$_ZN5folly6detail17distributed_mutex4spinINS1_6WaiterISt6atomicEEEEbRT_Rjj = comdat any

$_ZN5folly10ParkingLotIjE6unparkIPKSt6atomicImEZNS_6detail19atomic_notification22atomic_notify_one_implITtTpTyES3_mJEEEvPKT_IJT0_DpT1_EEEUlRKT_E_EEvSH_OSB_ = comdat any

$_ZN5folly16ThrottledLifoSem16tryWaitUntilSlowINSt6chrono3_V212steady_clockENS2_8durationIlSt5ratioILl1ELl1000000000EEEEEEbRKNS2_10time_pointIT_T0_EE = comdat any

$_ZN5folly6detail17distributed_mutex16DistributedMutexISt6atomicLb1EE12lock_combineIZNS_16ThrottledLifoSem16tryWaitUntilSlowINSt6chrono3_V212steady_clockENS8_8durationIlSt5ratioILl1ELl1000000000EEEEEEbRKNS8_10time_pointIT_T0_EEEUlvE_EENS_13invoke_detail6traitsIRKSG_E6resultIEESG_ = comdat any

$_ZN5folly6detail17distributed_mutex16DistributedMutexISt6atomicLb1EE12lock_combineIZNS_16ThrottledLifoSem16tryWaitUntilSlowINSt6chrono3_V212steady_clockENS8_8durationIlSt5ratioILl1ELl1000000000EEEEEEbRKNS8_10time_pointIT_T0_EEEUlvE0_EENS_13invoke_detail6traitsIRKSG_E6resultIEESG_ = comdat any

$_ZN5folly6detail17distributed_mutex16DistributedMutexISt6atomicLb1EE12lock_combineIZNS_16ThrottledLifoSem16tryWaitUntilSlowINSt6chrono3_V212steady_clockENS8_8durationIlSt5ratioILl1ELl1000000000EEEEEEbRKNS8_10time_pointIT_T0_EEEUlvE1_EENS_13invoke_detail6traitsIRKSG_E6resultIEESG_ = comdat any

$_ZN5folly6detail17distributed_mutex18lockImplementationISt6atomicLb1ES3_ImENS1_20RequestWithoutReturnIZNS_16ThrottledLifoSem16tryWaitUntilSlowINSt6chrono3_V212steady_clockENS8_8durationIlSt5ratioILl1ELl1000000000EEEEEEbRKNS8_10time_pointIT_T0_EEEUlvE_EEEENS1_16DistributedMutexIT_XT0_EE26DistributedMutexStateProxyERSP_RT1_RT2_ = comdat any

$_ZN5folly6detail17InlineFunctionRefIFvvELm48EE10callInlineIKNS0_17distributed_mutex19TaskWithoutCoalesceIZNS_16ThrottledLifoSem16tryWaitUntilSlowINSt6chrono3_V212steady_clockENS9_8durationIlSt5ratioILl1ELl1000000000EEEEEEbRKNS9_10time_pointIT_T0_EEEUlvE_NS5_6WaiterISt6atomicEEEEEEvRKNSt15aligned_storageILm40ELm8EE4typeE = comdat any

$_ZN5folly6detail16throw_exception_INS_22OptionalEmptyExceptionEJEEEvDpT0_ = comdat any

$_ZN5folly15throw_exceptionINS_22OptionalEmptyExceptionEEEvOT_ = comdat any

$_ZN5folly22OptionalEmptyExceptionC2EOS0_ = comdat any

$_ZN5folly22OptionalEmptyExceptionD0Ev = comdat any

$_ZN5folly19SaturatingSemaphoreILb1ESt6atomicE11tryWaitSlowINSt6chrono3_V212steady_clockENS4_8durationIlSt5ratioILl1ELl1000000000EEEEEEbRKNS4_10time_pointIT_T0_EERKNS_11WaitOptionsE = comdat any

$_ZN5folly6detail11MemoryIdler16futexWaitPreIdleISt6atomicIjENSt6chrono10time_pointINS5_3_V212steady_clockENS5_8durationIlSt5ratioILl1ELl1000000000EEEEEESC_EEbRNS0_11FutexResultERT_jRKT0_jT1_mf = comdat any

$_ZN5folly6detail17distributed_mutex18lockImplementationISt6atomicLb1ES3_ImENS1_17RequestWithReturnIZNS_16ThrottledLifoSem16tryWaitUntilSlowINSt6chrono3_V212steady_clockENS8_8durationIlSt5ratioILl1ELl1000000000EEEEEEbRKNS8_10time_pointIT_T0_EEEUlvE0_EEEENS1_16DistributedMutexIT_XT0_EE26DistributedMutexStateProxyERSP_RT1_RT2_ = comdat any

$_ZN5folly6detail14ScopeGuardImplIZNS0_17distributed_mutex16DistributedMutexISt6atomicLb1EE12lock_combineIZNS_16ThrottledLifoSem16tryWaitUntilSlowINSt6chrono3_V212steady_clockENS9_8durationIlSt5ratioILl1ELl1000000000EEEEEEbRKNS9_10time_pointIT_T0_EEEUlvE0_EENS_13invoke_detail6traitsIRKSH_E6resultIEESH_EUlvE_Lb1EED2Ev = comdat any

$_ZN5folly6detail17InlineFunctionRefIFvvELm48EE10callInlineIKNS0_17distributed_mutex16TaskWithCoalesceIZNS_16ThrottledLifoSem16tryWaitUntilSlowINSt6chrono3_V212steady_clockENS9_8durationIlSt5ratioILl1ELl1000000000EEEEEEbRKNS9_10time_pointIT_T0_EEEUlvE0_NS5_6WaiterISt6atomicEEEEEEvRKNSt15aligned_storageILm40ELm8EE4typeE = comdat any

$_ZN5folly6detail17distributed_mutex18lockImplementationISt6atomicLb1ES3_ImENS1_17RequestWithReturnIZNS_16ThrottledLifoSem16tryWaitUntilSlowINSt6chrono3_V212steady_clockENS8_8durationIlSt5ratioILl1ELl1000000000EEEEEEbRKNS8_10time_pointIT_T0_EEEUlvE1_EEEENS1_16DistributedMutexIT_XT0_EE26DistributedMutexStateProxyERSP_RT1_RT2_ = comdat any

$_ZN5folly6detail17InlineFunctionRefIFvvELm48EE10callInlineIKNS0_17distributed_mutex16TaskWithCoalesceIZNS_16ThrottledLifoSem16tryWaitUntilSlowINSt6chrono3_V212steady_clockENS9_8durationIlSt5ratioILl1ELl1000000000EEEEEEbRKNS9_10time_pointIT_T0_EEEUlvE1_NS5_6WaiterISt6atomicEEEEEEvRKNSt15aligned_storageILm40ELm8EE4typeE = comdat any

$_ZN5folly19SaturatingSemaphoreILb0ESt6atomicE11tryWaitSlowINSt6chrono3_V212steady_clockENS4_8durationIlSt5ratioILl1ELl1000000000EEEEEEbRKNS4_10time_pointIT_T0_EERKNS_11WaitOptionsE = comdat any

$_ZN5folly14UnboundedQueueINS_23MuxIOThreadPoolExecutor11HandlerTaskELb0ELb0ELb0ELm6ELm7ESt6atomicE19advanceHeadToTicketEm = comdat any

$_ZN5folly16ThrottledLifoSem12try_wait_forIlSt5ratioILl1ELl1000EEEEbRKNSt6chrono8durationIT_T0_EERKNS_11WaitOptionsE = comdat any

$_ZN5folly6detail5thunk4makeINS_18threadlocal_detail10StaticMetaIvvEEJEEEPvDpT0_ = comdat any

$_ZN5folly18threadlocal_detail10StaticMetaIvvEC2Ev = comdat any

$_ZN5folly18threadlocal_detail10StaticMetaIvvE18getThreadEntrySlowEv = comdat any

$_ZN5folly18threadlocal_detail10StaticMetaIvvE7preForkEv = comdat any

$_ZN5folly18threadlocal_detail10StaticMetaIvvE12onForkParentEv = comdat any

$_ZN5folly18threadlocal_detail10StaticMetaIvvE11onForkChildEv = comdat any

$_ZN5folly18ThreadPoolExecutor4TaskD2Ev = comdat any

$_ZNSt12__shared_ptrIN5folly24IOThreadPoolExecutorBase8IOThreadELN9__gnu_cxx12_Lock_policyE2EED2Ev = comdat any

$_ZNK5folly11ThreadLocalISt10shared_ptrINS_24IOThreadPoolExecutorBase8IOThreadEEvvE7makeTlpEv = comdat any

$_ZN5folly18threadlocal_detail10StaticMetaIvvE22getSlowReserveAndCacheEPNS0_14StaticMetaBase7EntryIDERjRPNS0_11ThreadEntryERm = comdat any

$_ZN5folly14ThreadLocalPtrISt10shared_ptrINS_24IOThreadPoolExecutorBase8IOThreadEEvvE5resetEPS4_ = comdat any

$_ZN5folly6detail14ScopeGuardImplIZNS_14ThreadLocalPtrISt10shared_ptrINS_24IOThreadPoolExecutorBase8IOThreadEEvvE5resetEPS6_EUlvE_Lb1EED2Ev = comdat any

$_ZZN5folly18threadlocal_detail14ElementWrapper3setIPSt10shared_ptrINS_24IOThreadPoolExecutorBase8IOThreadEEEEvT_ENUlPvNS_18TLPDestructionModeEE_8__invokeES9_SA_ = comdat any

$_ZNSt23_Sp_counted_ptr_inplaceIN5folly24IOThreadPoolExecutorBase8IOThreadESaIvELN9__gnu_cxx12_Lock_policyE2EED0Ev = comdat any

$_ZNSt23_Sp_counted_ptr_inplaceIN5folly24IOThreadPoolExecutorBase8IOThreadESaIvELN9__gnu_cxx12_Lock_policyE2EE10_M_disposeEv = comdat any

$_ZNSt23_Sp_counted_ptr_inplaceIN5folly24IOThreadPoolExecutorBase8IOThreadESaIvELN9__gnu_cxx12_Lock_policyE2EE10_M_destroyEv = comdat any

$_ZNSt23_Sp_counted_ptr_inplaceIN5folly24IOThreadPoolExecutorBase8IOThreadESaIvELN9__gnu_cxx12_Lock_policyE2EE14_M_get_deleterERKSt9type_info = comdat any

$_ZN5folly18ThreadPoolExecutor6ThreadD2Ev = comdat any

$_ZN5folly24IOThreadPoolExecutorBase8IOThreadD0Ev = comdat any

$_ZN5folly18ThreadPoolExecutor6ThreadD0Ev = comdat any

$_ZNSt12__shared_ptrIN5folly18ThreadPoolExecutor8ObserverELN9__gnu_cxx12_Lock_policyE2EED2Ev = comdat any

$_ZNSt6vectorIN5folly8Executor9KeepAliveINS0_9EventBaseEEESaIS4_EED2Ev = comdat any

$_ZNSt6vectorIN5folly8Executor9KeepAliveINS0_9EventBaseEEESaIS4_EE17_M_realloc_insertIJPS3_EEEvN9__gnu_cxx17__normal_iteratorIPS4_S6_EEDpOT_ = comdat any

$_ZN5folly18ThreadPoolExecutor10ThreadList6removeERKSt10shared_ptrINS0_6ThreadEE = comdat any

$_ZNSt6vectorISt10shared_ptrIN5folly18ThreadPoolExecutor6ThreadEESaIS4_EED2Ev = comdat any

$_ZNSt6vectorISt10shared_ptrIN5folly18ThreadPoolExecutor6ThreadEESaIS4_EE8_M_eraseEN9__gnu_cxx17__normal_iteratorIPS4_S6_EE = comdat any

$_ZNSt12__shared_ptrIN5folly18ThreadPoolExecutor6ThreadELN9__gnu_cxx12_Lock_policyE2EED2Ev = comdat any

$_ZSt11make_uniqueIN5folly9EventBaseEJRNS1_7OptionsEEENSt8__detail9_MakeUniqIT_E15__single_objectEDpOT0_ = comdat any

$_ZNSt16_Sp_counted_baseILN9__gnu_cxx12_Lock_policyE2EED2Ev = comdat any

$_ZNSt23_Sp_counted_ptr_inplaceIN5folly18ThreadPoolExecutor6ThreadESaIvELN9__gnu_cxx12_Lock_policyE2EED0Ev = comdat any

$_ZNSt23_Sp_counted_ptr_inplaceIN5folly18ThreadPoolExecutor6ThreadESaIvELN9__gnu_cxx12_Lock_policyE2EE10_M_disposeEv = comdat any

$_ZNSt23_Sp_counted_ptr_inplaceIN5folly18ThreadPoolExecutor6ThreadESaIvELN9__gnu_cxx12_Lock_policyE2EE10_M_destroyEv = comdat any

$_ZNSt23_Sp_counted_ptr_inplaceIN5folly18ThreadPoolExecutor6ThreadESaIvELN9__gnu_cxx12_Lock_policyE2EE14_M_get_deleterERKSt9type_info = comdat any

$_ZN5folly20SingletonThreadLocalINS_9hazptr_tcISt6atomicEENS_17hazptr_tc_tls_tagENS_6detail11DefaultMakeIS3_EES4_E6uniqueE = comdat any

$_ZN5folly6detail5thunk4makeINS0_14UniqueInstance5ValueEJEEEPvDpT0_ = comdat any

$_ZTSN5folly24IOThreadPoolExecutorBaseE = comdat any

$_ZTSN5folly10IOExecutorE = comdat any

$_ZTIN5folly10IOExecutorE = comdat any

$_ZTSN5folly20GetThreadIdCollectorE = comdat any

$_ZTIN5folly20GetThreadIdCollectorE = comdat any

$_ZTIN5folly24IOThreadPoolExecutorBaseE = comdat any

$_ZTSN5folly24DefaultKeepAliveExecutorE = comdat any

$_ZTIN5folly24DefaultKeepAliveExecutorE = comdat any

$_ZTVN5folly24IOThreadPoolExecutorBaseE = comdat any

$_ZTVN5folly20GetThreadIdCollectorE = comdat any

$_ZTSZN5folly11ThreadLocalISt10shared_ptrINS_24IOThreadPoolExecutorBase8IOThreadEEvvEC1EvEUlvE_ = comdat any

$_ZTIZN5folly11ThreadLocalISt10shared_ptrINS_24IOThreadPoolExecutorBase8IOThreadEEvvEC1EvEUlvE_ = comdat any

$_ZTVN5folly22UnboundedBlockingQueueINS_23MuxIOThreadPoolExecutor11HandlerTaskENS_16ThrottledLifoSemEEE = comdat any

$_ZTSN5folly22UnboundedBlockingQueueINS_23MuxIOThreadPoolExecutor11HandlerTaskENS_16ThrottledLifoSemEEE = comdat any

$_ZTSN5folly13BlockingQueueINS_23MuxIOThreadPoolExecutor11HandlerTaskEEE = comdat any

$_ZTIN5folly13BlockingQueueINS_23MuxIOThreadPoolExecutor11HandlerTaskEEE = comdat any

$_ZTIN5folly22UnboundedBlockingQueueINS_23MuxIOThreadPoolExecutor11HandlerTaskENS_16ThrottledLifoSemEEE = comdat any

$_ZZN5folly13hazptr_domainISt6atomicE29hazptr_warning_list_too_largeEmmiE13warning_count = comdat any

$_ZZN5folly13hazptr_domainISt6atomicE31hazptr_warning_executor_backlogEiE13warning_count = comdat any

$_ZZN5folly3f146detail8F14TableINS1_20ValueContainerPolicyIPKvvvvvEEE10rehashImplEmmmmmE30__folly_detail_safe_assert_arg = comdat any

$_ZN5folly6detail21safe_assert_msg_typesINS0_22safe_assert_msg_type_sIJLNS0_20safe_assert_msg_typeE1EEEEE5valueE = comdat any

$_ZZN5folly3f146detail8F14ChunkIPKvE6setTagEmmE30__folly_detail_safe_assert_arg_0 = comdat any

$_ZZN5folly20SingletonThreadLocalINS_9hazptr_tcISt6atomicEENS_17hazptr_tc_tls_tagENS_6detail11DefaultMakeIS3_EES4_E3getEvE5cache = comdat any

$_ZZN5folly20SingletonThreadLocalINS_9hazptr_tcISt6atomicEENS_17hazptr_tc_tls_tagENS_6detail11DefaultMakeIS3_EES4_E7getSlowERNS5_25SingletonThreadLocalState10LocalCacheEE8lifetime = comdat any

$_ZGVZN5folly20SingletonThreadLocalINS_9hazptr_tcISt6atomicEENS_17hazptr_tc_tls_tagENS_6detail11DefaultMakeIS3_EES4_E7getSlowERNS5_25SingletonThreadLocalState10LocalCacheEE8lifetime = comdat any

$_ZZN5folly6detail30StaticSingletonManagerWithRtti6createINS_11ThreadLocalINS_20SingletonThreadLocalINS_9hazptr_tcISt6atomicEENS_17hazptr_tc_tls_tagENS0_11DefaultMakeIS7_EES8_E7WrapperES8_vEES8_EERT_vE3arg = comdat any

$_ZTSN5folly6detail30StaticSingletonManagerWithRtti3SrcINS_11ThreadLocalINS_20SingletonThreadLocalINS_9hazptr_tcISt6atomicEENS_17hazptr_tc_tls_tagENS0_11DefaultMakeIS7_EES8_E7WrapperES8_vEES8_EE = comdat any

$_ZTIN5folly6detail30StaticSingletonManagerWithRtti3SrcINS_11ThreadLocalINS_20SingletonThreadLocalINS_9hazptr_tcISt6atomicEENS_17hazptr_tc_tls_tagENS0_11DefaultMakeIS7_EES8_E7WrapperES8_vEES8_EE = comdat any

$_ZN5folly6detail30StaticSingletonManagerWithRtti5debugINS_11ThreadLocalINS_20SingletonThreadLocalINS_9hazptr_tcISt6atomicEENS_17hazptr_tc_tls_tagENS0_11DefaultMakeIS7_EES8_E7WrapperES8_vEES8_EE = comdat any

$_ZTSZN5folly11ThreadLocalINS_20SingletonThreadLocalINS_9hazptr_tcISt6atomicEENS_17hazptr_tc_tls_tagENS_6detail11DefaultMakeIS4_EES5_E7WrapperES5_vEC1EvEUlvE_ = comdat any

$_ZTIZN5folly11ThreadLocalINS_20SingletonThreadLocalINS_9hazptr_tcISt6atomicEENS_17hazptr_tc_tls_tagENS_6detail11DefaultMakeIS4_EES5_E7WrapperES5_vEC1EvEUlvE_ = comdat any

$_ZZN5folly18threadlocal_detail10StaticMetaINS_17hazptr_tc_tls_tagEvE3getEPNS0_14StaticMetaBase7EntryIDEE13threadEntryTL = comdat any

$_ZZN5folly18threadlocal_detail10StaticMetaINS_17hazptr_tc_tls_tagEvE3getEPNS0_14StaticMetaBase7EntryIDEE10capacityTL = comdat any

$_ZZN5folly6detail30StaticSingletonManagerWithRtti6createINS_18threadlocal_detail10StaticMetaINS_17hazptr_tc_tls_tagEvEEvEERT_vE3arg = comdat any

$_ZTSN5folly6detail30StaticSingletonManagerWithRtti3SrcINS_18threadlocal_detail10StaticMetaINS_17hazptr_tc_tls_tagEvEEvEE = comdat any

$_ZTIN5folly6detail30StaticSingletonManagerWithRtti3SrcINS_18threadlocal_detail10StaticMetaINS_17hazptr_tc_tls_tagEvEEvEE = comdat any

$_ZN5folly6detail30StaticSingletonManagerWithRtti5debugINS_18threadlocal_detail10StaticMetaINS_17hazptr_tc_tls_tagEvEEvEE = comdat any

$_ZZN5folly18threadlocal_detail10StaticMetaINS_17hazptr_tc_tls_tagEvE18getThreadEntrySlowEvE20threadEntrySingleton = comdat any

$_ZZN5folly19shared_mutex_detail21getMaxDeferredReadersEvE5cache = comdat any

$_ZZN5folly15SharedMutexImplILb0EvSt6atomicNS_24SharedMutexPolicyDefaultEE26tls_lastDeferredReaderSlotEvE2tl = comdat any

$_ZZN5folly14AccessSpreaderISt6atomicE5stateEvE5state = comdat any

$_ZZN5folly15SharedMutexImplILb0EvSt6atomicNS_24SharedMutexPolicyDefaultEE21tls_lastTokenlessSlotEvE2tl = comdat any

$_ZTSN5folly22OptionalEmptyExceptionE = comdat any

$_ZTIN5folly22OptionalEmptyExceptionE = comdat any

$_ZTVN5folly22OptionalEmptyExceptionE = comdat any

$_ZZN5folly6detail30StaticSingletonManagerWithRtti6createINS_18threadlocal_detail10StaticMetaIvvEEvEERT_vE3arg = comdat any

$_ZTSN5folly6detail30StaticSingletonManagerWithRtti3SrcINS_18threadlocal_detail10StaticMetaIvvEEvEE = comdat any

$_ZTIN5folly6detail30StaticSingletonManagerWithRtti3SrcINS_18threadlocal_detail10StaticMetaIvvEEvEE = comdat any

$_ZN5folly6detail30StaticSingletonManagerWithRtti5debugINS_18threadlocal_detail10StaticMetaIvvEEvEE = comdat any

$_ZZN5folly18threadlocal_detail10StaticMetaIvvE18getThreadEntrySlowEvE20threadEntrySingleton = comdat any

$_ZZN5folly18threadlocal_detail10StaticMetaIvvE3getEPNS0_14StaticMetaBase7EntryIDEE13threadEntryTL = comdat any

$_ZZN5folly18threadlocal_detail10StaticMetaIvvE3getEPNS0_14StaticMetaBase7EntryIDEE10capacityTL = comdat any

$_ZTVSt23_Sp_counted_ptr_inplaceIN5folly24IOThreadPoolExecutorBase8IOThreadESaIvELN9__gnu_cxx12_Lock_policyE2EE = comdat any

$_ZTSSt23_Sp_counted_ptr_inplaceIN5folly24IOThreadPoolExecutorBase8IOThreadESaIvELN9__gnu_cxx12_Lock_policyE2EE = comdat any

$_ZTSSt16_Sp_counted_baseILN9__gnu_cxx12_Lock_policyE2EE = comdat any

$_ZTSSt11_Mutex_baseILN9__gnu_cxx12_Lock_policyE2EE = comdat any

$_ZTISt11_Mutex_baseILN9__gnu_cxx12_Lock_policyE2EE = comdat any

$_ZTISt16_Sp_counted_baseILN9__gnu_cxx12_Lock_policyE2EE = comdat any

$_ZTISt23_Sp_counted_ptr_inplaceIN5folly24IOThreadPoolExecutorBase8IOThreadESaIvELN9__gnu_cxx12_Lock_policyE2EE = comdat any

$_ZTVN5folly24IOThreadPoolExecutorBase8IOThreadE = comdat any

$_ZTSN5folly24IOThreadPoolExecutorBase8IOThreadE = comdat any

$_ZTSN5folly18ThreadPoolExecutor6ThreadE = comdat any

$_ZTSN5folly18ThreadPoolExecutor12ThreadHandleE = comdat any

$_ZTIN5folly18ThreadPoolExecutor12ThreadHandleE = comdat any

$_ZTIN5folly18ThreadPoolExecutor6ThreadE = comdat any

$_ZTIN5folly24IOThreadPoolExecutorBase8IOThreadE = comdat any

$_ZTVN5folly18ThreadPoolExecutor6ThreadE = comdat any

$_ZTSSt19_Sp_make_shared_tag = comdat any

$_ZZNSt19_Sp_make_shared_tag5_S_tiEvE5__tag = comdat any

$_ZTSN5folly18ThreadPoolExecutor8ObserverE = comdat any

$_ZTIN5folly18ThreadPoolExecutor8ObserverE = comdat any

$_ZTSN5folly24IOThreadPoolExecutorBase10IOObserverE = comdat any

$_ZTIN5folly24IOThreadPoolExecutorBase10IOObserverE = comdat any

$_ZTVSt23_Sp_counted_ptr_inplaceIN5folly18ThreadPoolExecutor6ThreadESaIvELN9__gnu_cxx12_Lock_policyE2EE = comdat any

$_ZTSSt23_Sp_counted_ptr_inplaceIN5folly18ThreadPoolExecutor6ThreadESaIvELN9__gnu_cxx12_Lock_policyE2EE = comdat any

$_ZTISt23_Sp_counted_ptr_inplaceIN5folly18ThreadPoolExecutor6ThreadESaIvELN9__gnu_cxx12_Lock_policyE2EE = comdat any

$_ZTSN5folly6detail14UniqueInstance5key_tINS_20SingletonThreadLocalEJEEE = comdat any

$_ZTIN5folly6detail14UniqueInstance5key_tINS_20SingletonThreadLocalEJEEE = comdat any

$_ZZN5folly6detail14UniqueInstanceC1ITtTpTyENS_20SingletonThreadLocalEJNS_9hazptr_tcISt6atomicEENS_17hazptr_tc_tls_tagEEJNS0_11DefaultMakeIS6_EES7_EEENS_5tag_tIJT_IJDpT0_DpT1_EEEEENSA_IJSD_EEENSA_IJSF_EEEE4ptrs = comdat any

$_ZTSN5folly9hazptr_tcISt6atomicEE = comdat any

$_ZTIN5folly9hazptr_tcISt6atomicEE = comdat any

$_ZTSN5folly17hazptr_tc_tls_tagE = comdat any

$_ZTIN5folly17hazptr_tc_tls_tagE = comdat any

$_ZTSN5folly6detail11DefaultMakeINS_9hazptr_tcISt6atomicEEEE = comdat any

$_ZTIN5folly6detail11DefaultMakeINS_9hazptr_tcISt6atomicEEEE = comdat any

$_ZZN5folly6detail14UniqueInstanceC1ITtTpTyENS_20SingletonThreadLocalEJNS_9hazptr_tcISt6atomicEENS_17hazptr_tc_tls_tagEEJNS0_11DefaultMakeIS6_EES7_EEENS_5tag_tIJT_IJDpT0_DpT1_EEEEENSA_IJSD_EEENSA_IJSF_EEEE3arg = comdat any

$_ZTSN5folly6detail30StaticSingletonManagerWithRtti3SrcINS0_14UniqueInstance5ValueENS3_5key_tINS_20SingletonThreadLocalEJNS_9hazptr_tcISt6atomicEENS_17hazptr_tc_tls_tagEEEEEE = comdat any

$_ZTIN5folly6detail30StaticSingletonManagerWithRtti3SrcINS0_14UniqueInstance5ValueENS3_5key_tINS_20SingletonThreadLocalEJNS_9hazptr_tcISt6atomicEENS_17hazptr_tc_tls_tagEEEEEE = comdat any

$_ZN5folly6detail30StaticSingletonManagerWithRtti5debugINS0_14UniqueInstance5ValueENS3_5key_tINS_20SingletonThreadLocalEJNS_9hazptr_tcISt6atomicEENS_17hazptr_tc_tls_tagEEEEEE = comdat any

@_ZTVN5folly23MuxIOThreadPoolExecutor7HandlerE = unnamed_addr constant { [6 x ptr] } { [6 x ptr] [ptr null, ptr @_ZTIN5folly23MuxIOThreadPoolExecutor7HandlerE, ptr @_ZN5folly23MuxIOThreadPoolExecutor7HandlerD1Ev, ptr @_ZN5folly23MuxIOThreadPoolExecutor7HandlerD0Ev, ptr @__cxa_pure_virtual, ptr @_ZN5folly23MuxIOThreadPoolExecutor7Handler12getEventBaseEv] }, align 8
@_ZTVN10__cxxabiv117__class_type_infoE = external global [0 x ptr]
@_ZTSN5folly23MuxIOThreadPoolExecutor7HandlerE = constant [42 x i8] c"N5folly23MuxIOThreadPoolExecutor7HandlerE\00", align 1
@_ZTIN5folly23MuxIOThreadPoolExecutor7HandlerE = constant { ptr, ptr } { ptr getelementptr inbounds (ptr, ptr @_ZTVN10__cxxabiv117__class_type_infoE, i64 2), ptr @_ZTSN5folly23MuxIOThreadPoolExecutor7HandlerE }, align 8
@_ZTVN5folly23MuxIOThreadPoolExecutor10EvbHandlerE = unnamed_addr constant { [6 x ptr] } { [6 x ptr] [ptr null, ptr @_ZTIN5folly23MuxIOThreadPoolExecutor10EvbHandlerE, ptr @_ZN5folly23MuxIOThreadPoolExecutor10EvbHandlerD1Ev, ptr @_ZN5folly23MuxIOThreadPoolExecutor10EvbHandlerD0Ev, ptr @_ZN5folly23MuxIOThreadPoolExecutor10EvbHandler6handleEPS0_, ptr @_ZN5folly23MuxIOThreadPoolExecutor10EvbHandler12getEventBaseEv] }, align 8
@_ZTVN10__cxxabiv120__si_class_type_infoE = external global [0 x ptr]
@_ZTSN5folly23MuxIOThreadPoolExecutor10EvbHandlerE = constant [46 x i8] c"N5folly23MuxIOThreadPoolExecutor10EvbHandlerE\00", align 1
@_ZTIN5folly23MuxIOThreadPoolExecutor10EvbHandlerE = constant { ptr, ptr, ptr } { ptr getelementptr inbounds (ptr, ptr @_ZTVN10__cxxabiv120__si_class_type_infoE, i64 2), ptr @_ZTSN5folly23MuxIOThreadPoolExecutor10EvbHandlerE, ptr @_ZTIN5folly23MuxIOThreadPoolExecutor7HandlerE }, align 8
@_ZTVN5folly23MuxIOThreadPoolExecutor14EventFdHandlerE = unnamed_addr constant { [6 x ptr] } { [6 x ptr] [ptr null, ptr @_ZTIN5folly23MuxIOThreadPoolExecutor14EventFdHandlerE, ptr @_ZN5folly23MuxIOThreadPoolExecutor14EventFdHandlerD1Ev, ptr @_ZN5folly23MuxIOThreadPoolExecutor14EventFdHandlerD0Ev, ptr @_ZN5folly23MuxIOThreadPoolExecutor14EventFdHandler6handleEPS0_, ptr @_ZN5folly23MuxIOThreadPoolExecutor7Handler12getEventBaseEv] }, align 8
@_ZTSN5folly23MuxIOThreadPoolExecutor14EventFdHandlerE = constant [50 x i8] c"N5folly23MuxIOThreadPoolExecutor14EventFdHandlerE\00", align 1
@_ZTIN5folly23MuxIOThreadPoolExecutor14EventFdHandlerE = constant { ptr, ptr, ptr } { ptr getelementptr inbounds (ptr, ptr @_ZTVN10__cxxabiv120__si_class_type_infoE, i64 2), ptr @_ZTSN5folly23MuxIOThreadPoolExecutor14EventFdHandlerE, ptr @_ZTIN5folly23MuxIOThreadPoolExecutor7HandlerE }, align 8
@_ZTVN5folly23MuxIOThreadPoolExecutorE = unnamed_addr constant { [28 x ptr], [17 x ptr], [5 x ptr] } { [28 x ptr] [ptr null, ptr null, ptr null, ptr null, ptr null, ptr null, ptr null, ptr null, ptr @_ZTIN5folly23MuxIOThreadPoolExecutorE, ptr @_ZN5folly23MuxIOThreadPoolExecutorD1Ev, ptr @_ZN5folly23MuxIOThreadPoolExecutorD0Ev, ptr @_ZN5folly23MuxIOThreadPoolExecutor3addENS_8FunctionIFvvEEE, ptr @_ZN5folly8Executor15addWithPriorityENS_8FunctionIFvvEEEa, ptr @_ZNK5folly8Executor16getNumPrioritiesEv, ptr @_ZN5folly24DefaultKeepAliveExecutor16keepAliveAcquireEv, ptr @_ZN5folly24DefaultKeepAliveExecutor16keepAliveReleaseEv, ptr @_ZN5folly23MuxIOThreadPoolExecutor3addENS_8FunctionIFvvEEENSt6chrono8durationIlSt5ratioILl1ELl1000EEEES3_, ptr @_ZN5folly23MuxIOThreadPoolExecutor11addObserverESt10shared_ptrINS_18ThreadPoolExecutor8ObserverEE, ptr @_ZN5folly23MuxIOThreadPoolExecutor14removeObserverESt10shared_ptrINS_18ThreadPoolExecutor8ObserverEE, ptr @_ZN5folly23MuxIOThreadPoolExecutor9threadRunESt10shared_ptrINS_18ThreadPoolExecutor6ThreadEE, ptr @_ZN5folly23MuxIOThreadPoolExecutor11stopThreadsEm, ptr @_ZN5folly23MuxIOThreadPoolExecutor10makeThreadEv, ptr @_ZNK5folly23MuxIOThreadPoolExecutor23getPendingTaskCountImplEv, ptr @_ZN5folly18ThreadPoolExecutor28handleObserverRegisterThreadEPNS0_12ThreadHandleERNS0_8ObserverE, ptr @_ZN5folly18ThreadPoolExecutor30handleObserverUnregisterThreadEPNS0_12ThreadHandleERNS0_8ObserverE, ptr @_ZN5folly23MuxIOThreadPoolExecutor12getEventBaseEv, ptr @_ZN5folly23MuxIOThreadPoolExecutor16getAllEventBasesEv, ptr @_ZN5folly23MuxIOThreadPoolExecutor20getThreadIdCollectorEv], [17 x ptr] [ptr inttoptr (i64 -488 to ptr), ptr inttoptr (i64 -488 to ptr), ptr inttoptr (i64 -488 to ptr), ptr inttoptr (i64 -488 to ptr), ptr inttoptr (i64 -488 to ptr), ptr inttoptr (i64 -488 to ptr), ptr inttoptr (i64 -488 to ptr), ptr inttoptr (i64 -488 to ptr), ptr @_ZTIN5folly23MuxIOThreadPoolExecutorE, ptr @_ZThn488_N5folly23MuxIOThreadPoolExecutorD1Ev, ptr @_ZThn488_N5folly23MuxIOThreadPoolExecutorD0Ev, ptr null, ptr null, ptr null, ptr null, ptr null, ptr @_ZThn488_N5folly23MuxIOThreadPoolExecutor12getEventBaseEv], [5 x ptr] [ptr inttoptr (i64 -496 to ptr), ptr @_ZTIN5folly23MuxIOThreadPoolExecutorE, ptr @_ZThn496_N5folly23MuxIOThreadPoolExecutorD1Ev, ptr @_ZThn496_N5folly23MuxIOThreadPoolExecutorD0Ev, ptr @_ZThn496_N5folly23MuxIOThreadPoolExecutor20getThreadIdCollectorEv] }, align 8
@_ZTTN5folly23MuxIOThreadPoolExecutorE = unnamed_addr constant [12 x ptr] [ptr getelementptr inbounds ({ [28 x ptr], [17 x ptr], [5 x ptr] }, ptr @_ZTVN5folly23MuxIOThreadPoolExecutorE, i32 0, inrange i32 0, i32 9), ptr getelementptr inbounds ({ [27 x ptr], [17 x ptr] }, ptr @_ZTCN5folly23MuxIOThreadPoolExecutorE0_NS_24IOThreadPoolExecutorBaseE, i32 0, inrange i32 0, i32 9), ptr getelementptr inbounds ({ [25 x ptr] }, ptr @_ZTCN5folly23MuxIOThreadPoolExecutorE0_NS_18ThreadPoolExecutorE, i32 0, inrange i32 0, i32 9), ptr getelementptr inbounds ({ [16 x ptr] }, ptr @_ZTCN5folly23MuxIOThreadPoolExecutorE0_NS_24DefaultKeepAliveExecutorE, i32 0, inrange i32 0, i32 9), ptr getelementptr inbounds ({ [16 x ptr] }, ptr @_ZTCN5folly23MuxIOThreadPoolExecutorE0_NS_24DefaultKeepAliveExecutorE, i32 0, inrange i32 0, i32 9), ptr getelementptr inbounds ({ [25 x ptr] }, ptr @_ZTCN5folly23MuxIOThreadPoolExecutorE0_NS_18ThreadPoolExecutorE, i32 0, inrange i32 0, i32 9), ptr getelementptr inbounds ({ [17 x ptr], [15 x ptr] }, ptr @_ZTCN5folly23MuxIOThreadPoolExecutorE488_NS_10IOExecutorE, i32 0, inrange i32 0, i32 9), ptr getelementptr inbounds ({ [17 x ptr], [15 x ptr] }, ptr @_ZTCN5folly23MuxIOThreadPoolExecutorE488_NS_10IOExecutorE, i32 0, inrange i32 1, i32 8), ptr getelementptr inbounds ({ [27 x ptr], [17 x ptr] }, ptr @_ZTCN5folly23MuxIOThreadPoolExecutorE0_NS_24IOThreadPoolExecutorBaseE, i32 0, inrange i32 0, i32 9), ptr getelementptr inbounds ({ [27 x ptr], [17 x ptr] }, ptr @_ZTCN5folly23MuxIOThreadPoolExecutorE0_NS_24IOThreadPoolExecutorBaseE, i32 0, inrange i32 1, i32 9), ptr getelementptr inbounds ({ [28 x ptr], [17 x ptr], [5 x ptr] }, ptr @_ZTVN5folly23MuxIOThreadPoolExecutorE, i32 0, inrange i32 0, i32 9), ptr getelementptr inbounds ({ [28 x ptr], [17 x ptr], [5 x ptr] }, ptr @_ZTVN5folly23MuxIOThreadPoolExecutorE, i32 0, inrange i32 1, i32 9)], align 8
@_ZTCN5folly23MuxIOThreadPoolExecutorE0_NS_24IOThreadPoolExecutorBaseE = unnamed_addr constant { [27 x ptr], [17 x ptr] } { [27 x ptr] [ptr null, ptr null, ptr null, ptr null, ptr null, ptr null, ptr null, ptr null, ptr @_ZTIN5folly24IOThreadPoolExecutorBaseE, ptr @_ZN5folly24IOThreadPoolExecutorBaseD1Ev, ptr @_ZN5folly24IOThreadPoolExecutorBaseD0Ev, ptr @__cxa_pure_virtual, ptr @_ZN5folly8Executor15addWithPriorityENS_8FunctionIFvvEEEa, ptr @_ZNK5folly8Executor16getNumPrioritiesEv, ptr @_ZN5folly24DefaultKeepAliveExecutor16keepAliveAcquireEv, ptr @_ZN5folly24DefaultKeepAliveExecutor16keepAliveReleaseEv, ptr @_ZN5folly18ThreadPoolExecutor3addENS_8FunctionIFvvEEENSt6chrono8durationIlSt5ratioILl1ELl1000EEEES3_, ptr @_ZN5folly18ThreadPoolExecutor11addObserverESt10shared_ptrINS0_8ObserverEE, ptr @_ZN5folly18ThreadPoolExecutor14removeObserverESt10shared_ptrINS0_8ObserverEE, ptr @__cxa_pure_virtual, ptr @__cxa_pure_virtual, ptr @_ZN5folly18ThreadPoolExecutor10makeThreadEv, ptr @__cxa_pure_virtual, ptr @_ZN5folly18ThreadPoolExecutor28handleObserverRegisterThreadEPNS0_12ThreadHandleERNS0_8ObserverE, ptr @_ZN5folly18ThreadPoolExecutor30handleObserverUnregisterThreadEPNS0_12ThreadHandleERNS0_8ObserverE, ptr @__cxa_pure_virtual, ptr @__cxa_pure_virtual], [17 x ptr] [ptr inttoptr (i64 -488 to ptr), ptr inttoptr (i64 -488 to ptr), ptr inttoptr (i64 -488 to ptr), ptr inttoptr (i64 -488 to ptr), ptr inttoptr (i64 -488 to ptr), ptr inttoptr (i64 -488 to ptr), ptr inttoptr (i64 -488 to ptr), ptr inttoptr (i64 -488 to ptr), ptr @_ZTIN5folly24IOThreadPoolExecutorBaseE, ptr @_ZThn488_N5folly24IOThreadPoolExecutorBaseD1Ev, ptr @_ZThn488_N5folly24IOThreadPoolExecutorBaseD0Ev, ptr null, ptr null, ptr null, ptr null, ptr null, ptr @__cxa_pure_virtual] }, align 8
@_ZTVN10__cxxabiv121__vmi_class_type_infoE = external global [0 x ptr]
@_ZTSN5folly24IOThreadPoolExecutorBaseE = linkonce_odr constant [35 x i8] c"N5folly24IOThreadPoolExecutorBaseE\00", comdat, align 1
@_ZTIN5folly18ThreadPoolExecutorE = external constant ptr
@_ZTSN5folly10IOExecutorE = linkonce_odr constant [21 x i8] c"N5folly10IOExecutorE\00", comdat, align 1
@_ZTIN5folly8ExecutorE = external constant ptr
@_ZTIN5folly10IOExecutorE = linkonce_odr constant { ptr, ptr, i32, i32, ptr, i64 } { ptr getelementptr inbounds (ptr, ptr @_ZTVN10__cxxabiv121__vmi_class_type_infoE, i64 2), ptr @_ZTSN5folly10IOExecutorE, i32 0, i32 1, ptr @_ZTIN5folly8ExecutorE, i64 -18429 }, comdat, align 8
@_ZTSN5folly20GetThreadIdCollectorE = linkonce_odr constant [31 x i8] c"N5folly20GetThreadIdCollectorE\00", comdat, align 1
@_ZTIN5folly20GetThreadIdCollectorE = linkonce_odr constant { ptr, ptr } { ptr getelementptr inbounds (ptr, ptr @_ZTVN10__cxxabiv117__class_type_infoE, i64 2), ptr @_ZTSN5folly20GetThreadIdCollectorE }, comdat, align 8
@_ZTIN5folly24IOThreadPoolExecutorBaseE = linkonce_odr constant { ptr, ptr, i32, i32, ptr, i64, ptr, i64, ptr, i64 } { ptr getelementptr inbounds (ptr, ptr @_ZTVN10__cxxabiv121__vmi_class_type_infoE, i64 2), ptr @_ZTSN5folly24IOThreadPoolExecutorBaseE, i32 2, i32 3, ptr @_ZTIN5folly18ThreadPoolExecutorE, i64 2, ptr @_ZTIN5folly10IOExecutorE, i64 124930, ptr @_ZTIN5folly20GetThreadIdCollectorE, i64 126978 }, comdat, align 8
@_ZTCN5folly23MuxIOThreadPoolExecutorE0_NS_18ThreadPoolExecutorE = unnamed_addr constant { [25 x ptr] } { [25 x ptr] [ptr null, ptr null, ptr null, ptr null, ptr null, ptr null, ptr null, ptr null, ptr @_ZTIN5folly18ThreadPoolExecutorE, ptr @_ZN5folly18ThreadPoolExecutorD1Ev, ptr @_ZN5folly18ThreadPoolExecutorD0Ev, ptr @__cxa_pure_virtual, ptr @_ZN5folly8Executor15addWithPriorityENS_8FunctionIFvvEEEa, ptr @_ZNK5folly8Executor16getNumPrioritiesEv, ptr @_ZN5folly24DefaultKeepAliveExecutor16keepAliveAcquireEv, ptr @_ZN5folly24DefaultKeepAliveExecutor16keepAliveReleaseEv, ptr @_ZN5folly18ThreadPoolExecutor3addENS_8FunctionIFvvEEENSt6chrono8durationIlSt5ratioILl1ELl1000EEEES3_, ptr @_ZN5folly18ThreadPoolExecutor11addObserverESt10shared_ptrINS0_8ObserverEE, ptr @_ZN5folly18ThreadPoolExecutor14removeObserverESt10shared_ptrINS0_8ObserverEE, ptr @__cxa_pure_virtual, ptr @__cxa_pure_virtual, ptr @_ZN5folly18ThreadPoolExecutor10makeThreadEv, ptr @__cxa_pure_virtual, ptr @_ZN5folly18ThreadPoolExecutor28handleObserverRegisterThreadEPNS0_12ThreadHandleERNS0_8ObserverE, ptr @_ZN5folly18ThreadPoolExecutor30handleObserverUnregisterThreadEPNS0_12ThreadHandleERNS0_8ObserverE] }, align 8
@_ZTCN5folly23MuxIOThreadPoolExecutorE0_NS_24DefaultKeepAliveExecutorE = unnamed_addr constant { [16 x ptr] } { [16 x ptr] [ptr null, ptr null, ptr null, ptr null, ptr null, ptr null, ptr null, ptr null, ptr @_ZTIN5folly24DefaultKeepAliveExecutorE, ptr @_ZN5folly24DefaultKeepAliveExecutorD1Ev, ptr @_ZN5folly24DefaultKeepAliveExecutorD0Ev, ptr @__cxa_pure_virtual, ptr @_ZN5folly8Executor15addWithPriorityENS_8FunctionIFvvEEEa, ptr @_ZNK5folly8Executor16getNumPrioritiesEv, ptr @_ZN5folly24DefaultKeepAliveExecutor16keepAliveAcquireEv, ptr @_ZN5folly24DefaultKeepAliveExecutor16keepAliveReleaseEv] }, align 8
@_ZTSN5folly24DefaultKeepAliveExecutorE = linkonce_odr constant [35 x i8] c"N5folly24DefaultKeepAliveExecutorE\00", comdat, align 1
@_ZTIN5folly24DefaultKeepAliveExecutorE = linkonce_odr constant { ptr, ptr, i32, i32, ptr, i64 } { ptr getelementptr inbounds (ptr, ptr @_ZTVN10__cxxabiv121__vmi_class_type_infoE, i64 2), ptr @_ZTSN5folly24DefaultKeepAliveExecutorE, i32 0, i32 1, ptr @_ZTIN5folly8ExecutorE, i64 -18429 }, comdat, align 8
@_ZTCN5folly23MuxIOThreadPoolExecutorE488_NS_10IOExecutorE = unnamed_addr constant { [17 x ptr], [15 x ptr] } { [17 x ptr] [ptr inttoptr (i64 -488 to ptr), ptr inttoptr (i64 -488 to ptr), ptr inttoptr (i64 -488 to ptr), ptr inttoptr (i64 -488 to ptr), ptr inttoptr (i64 -488 to ptr), ptr inttoptr (i64 -488 to ptr), ptr null, ptr null, ptr @_ZTIN5folly10IOExecutorE, ptr @_ZN5folly10IOExecutorD1Ev, ptr @_ZN5folly10IOExecutorD0Ev, ptr null, ptr null, ptr null, ptr null, ptr null, ptr @__cxa_pure_virtual], [15 x ptr] [ptr null, ptr null, ptr null, ptr null, ptr null, ptr inttoptr (i64 488 to ptr), ptr inttoptr (i64 488 to ptr), ptr @_ZTIN5folly10IOExecutorE, ptr @_ZTv0_n24_N5folly10IOExecutorD1Ev, ptr @_ZTv0_n24_N5folly10IOExecutorD0Ev, ptr @__cxa_pure_virtual, ptr @_ZN5folly8Executor15addWithPriorityENS_8FunctionIFvvEEEa, ptr @_ZNK5folly8Executor16getNumPrioritiesEv, ptr @_ZN5folly8Executor16keepAliveAcquireEv, ptr @_ZN5folly8Executor16keepAliveReleaseEv] }, align 8
@_ZTSN5folly23MuxIOThreadPoolExecutorE = constant [34 x i8] c"N5folly23MuxIOThreadPoolExecutorE\00", align 1
@_ZTIN5folly23MuxIOThreadPoolExecutorE = constant { ptr, ptr, ptr } { ptr getelementptr inbounds (ptr, ptr @_ZTVN10__cxxabiv120__si_class_type_infoE, i64 2), ptr @_ZTSN5folly23MuxIOThreadPoolExecutorE, ptr @_ZTIN5folly24IOThreadPoolExecutorBaseE }, align 8
@_ZTISt13runtime_error = external constant ptr
@_ZTVN5folly24IOThreadPoolExecutorBaseE = linkonce_odr unnamed_addr constant { [27 x ptr], [17 x ptr], [5 x ptr] } { [27 x ptr] [ptr null, ptr null, ptr null, ptr null, ptr null, ptr null, ptr null, ptr null, ptr @_ZTIN5folly24IOThreadPoolExecutorBaseE, ptr @_ZN5folly24IOThreadPoolExecutorBaseD1Ev, ptr @_ZN5folly24IOThreadPoolExecutorBaseD0Ev, ptr @__cxa_pure_virtual, ptr @_ZN5folly8Executor15addWithPriorityENS_8FunctionIFvvEEEa, ptr @_ZNK5folly8Executor16getNumPrioritiesEv, ptr @_ZN5folly24DefaultKeepAliveExecutor16keepAliveAcquireEv, ptr @_ZN5folly24DefaultKeepAliveExecutor16keepAliveReleaseEv, ptr @_ZN5folly18ThreadPoolExecutor3addENS_8FunctionIFvvEEENSt6chrono8durationIlSt5ratioILl1ELl1000EEEES3_, ptr @_ZN5folly18ThreadPoolExecutor11addObserverESt10shared_ptrINS0_8ObserverEE, ptr @_ZN5folly18ThreadPoolExecutor14removeObserverESt10shared_ptrINS0_8ObserverEE, ptr @__cxa_pure_virtual, ptr @__cxa_pure_virtual, ptr @_ZN5folly18ThreadPoolExecutor10makeThreadEv, ptr @__cxa_pure_virtual, ptr @_ZN5folly18ThreadPoolExecutor28handleObserverRegisterThreadEPNS0_12ThreadHandleERNS0_8ObserverE, ptr @_ZN5folly18ThreadPoolExecutor30handleObserverUnregisterThreadEPNS0_12ThreadHandleERNS0_8ObserverE, ptr @__cxa_pure_virtual, ptr @__cxa_pure_virtual], [17 x ptr] [ptr inttoptr (i64 -488 to ptr), ptr inttoptr (i64 -488 to ptr), ptr inttoptr (i64 -488 to ptr), ptr inttoptr (i64 -488 to ptr), ptr inttoptr (i64 -488 to ptr), ptr inttoptr (i64 -488 to ptr), ptr inttoptr (i64 -488 to ptr), ptr inttoptr (i64 -488 to ptr), ptr @_ZTIN5folly24IOThreadPoolExecutorBaseE, ptr @_ZThn488_N5folly24IOThreadPoolExecutorBaseD1Ev, ptr @_ZThn488_N5folly24IOThreadPoolExecutorBaseD0Ev, ptr null, ptr null, ptr null, ptr null, ptr null, ptr @__cxa_pure_virtual], [5 x ptr] [ptr inttoptr (i64 -496 to ptr), ptr @_ZTIN5folly24IOThreadPoolExecutorBaseE, ptr @_ZThn496_N5folly24IOThreadPoolExecutorBaseD1Ev, ptr @_ZThn496_N5folly24IOThreadPoolExecutorBaseD0Ev, ptr @__cxa_pure_virtual] }, comdat, align 8
@_ZTVN5folly20GetThreadIdCollectorE = linkonce_odr unnamed_addr constant { [5 x ptr] } { [5 x ptr] [ptr null, ptr @_ZTIN5folly20GetThreadIdCollectorE, ptr @_ZN5folly20GetThreadIdCollectorD2Ev, ptr @_ZN5folly20GetThreadIdCollectorD0Ev, ptr @__cxa_pure_virtual] }, comdat, align 8
@__libc_single_threaded = external local_unnamed_addr global i8, align 1
@_ZTSZN5folly11ThreadLocalISt10shared_ptrINS_24IOThreadPoolExecutorBase8IOThreadEEvvEC1EvEUlvE_ = linkonce_odr constant [91 x i8] c"ZN5folly11ThreadLocalISt10shared_ptrINS_24IOThreadPoolExecutorBase8IOThreadEEvvEC1EvEUlvE_\00", comdat, align 1
@_ZTIZN5folly11ThreadLocalISt10shared_ptrINS_24IOThreadPoolExecutorBase8IOThreadEEvvEC1EvEUlvE_ = linkonce_odr constant { ptr, ptr } { ptr getelementptr inbounds (ptr, ptr @_ZTVN10__cxxabiv117__class_type_infoE, i64 2), ptr @_ZTSZN5folly11ThreadLocalISt10shared_ptrINS_24IOThreadPoolExecutorBase8IOThreadEEvvEC1EvEUlvE_ }, comdat, align 8
@_ZTVN5folly22UnboundedBlockingQueueINS_23MuxIOThreadPoolExecutor11HandlerTaskENS_16ThrottledLifoSemEEE = linkonce_odr unnamed_addr constant { [10 x ptr] } { [10 x ptr] [ptr null, ptr @_ZTIN5folly22UnboundedBlockingQueueINS_23MuxIOThreadPoolExecutor11HandlerTaskENS_16ThrottledLifoSemEEE, ptr @_ZN5folly22UnboundedBlockingQueueINS_23MuxIOThreadPoolExecutor11HandlerTaskENS_16ThrottledLifoSemEED2Ev, ptr @_ZN5folly22UnboundedBlockingQueueINS_23MuxIOThreadPoolExecutor11HandlerTaskENS_16ThrottledLifoSemEED0Ev, ptr @_ZN5folly22UnboundedBlockingQueueINS_23MuxIOThreadPoolExecutor11HandlerTaskENS_16ThrottledLifoSemEE3addES2_, ptr @_ZN5folly13BlockingQueueINS_23MuxIOThreadPoolExecutor11HandlerTaskEE15addWithPriorityES2_a, ptr @_ZN5folly13BlockingQueueINS_23MuxIOThreadPoolExecutor11HandlerTaskEE16getNumPrioritiesEv, ptr @_ZN5folly22UnboundedBlockingQueueINS_23MuxIOThreadPoolExecutor11HandlerTaskENS_16ThrottledLifoSemEE4takeEv, ptr @_ZN5folly22UnboundedBlockingQueueINS_23MuxIOThreadPoolExecutor11HandlerTaskENS_16ThrottledLifoSemEE12try_take_forENSt6chrono8durationIlSt5ratioILl1ELl1000EEEE, ptr @_ZN5folly22UnboundedBlockingQueueINS_23MuxIOThreadPoolExecutor11HandlerTaskENS_16ThrottledLifoSemEE4sizeEv] }, comdat, align 8
@_ZTSN5folly22UnboundedBlockingQueueINS_23MuxIOThreadPoolExecutor11HandlerTaskENS_16ThrottledLifoSemEEE = linkonce_odr constant [99 x i8] c"N5folly22UnboundedBlockingQueueINS_23MuxIOThreadPoolExecutor11HandlerTaskENS_16ThrottledLifoSemEEE\00", comdat, align 1
@_ZTSN5folly13BlockingQueueINS_23MuxIOThreadPoolExecutor11HandlerTaskEEE = linkonce_odr constant [68 x i8] c"N5folly13BlockingQueueINS_23MuxIOThreadPoolExecutor11HandlerTaskEEE\00", comdat, align 1
@_ZTIN5folly13BlockingQueueINS_23MuxIOThreadPoolExecutor11HandlerTaskEEE = linkonce_odr constant { ptr, ptr } { ptr getelementptr inbounds (ptr, ptr @_ZTVN10__cxxabiv117__class_type_infoE, i64 2), ptr @_ZTSN5folly13BlockingQueueINS_23MuxIOThreadPoolExecutor11HandlerTaskEEE }, comdat, align 8
@_ZTIN5folly22UnboundedBlockingQueueINS_23MuxIOThreadPoolExecutor11HandlerTaskENS_16ThrottledLifoSemEEE = linkonce_odr constant { ptr, ptr, ptr } { ptr getelementptr inbounds (ptr, ptr @_ZTVN10__cxxabiv120__si_class_type_infoE, i64 2), ptr @_ZTSN5folly22UnboundedBlockingQueueINS_23MuxIOThreadPoolExecutor11HandlerTaskENS_16ThrottledLifoSemEEE, ptr @_ZTIN5folly13BlockingQueueINS_23MuxIOThreadPoolExecutor11HandlerTaskEEE }, comdat, align 8
@.str = private unnamed_addr constant [123 x i8] c"generated/home/dtcxzyw/WorkSpace/Projects/compilers/llvm-opt-benchmark/bench/folly/folly/folly/synchronization/HazptrObj.h\00", align 1
@_ZN5folly14default_domainE = external global %"class.folly::hazptr_domain", align 8
@.str.4 = private unnamed_addr constant [126 x i8] c"generated/home/dtcxzyw/WorkSpace/Projects/compilers/llvm-opt-benchmark/bench/folly/folly/folly/synchronization/HazptrDomain.h\00", align 1
@_ZZN5folly13hazptr_domainISt6atomicE29hazptr_warning_list_too_largeEmmiE13warning_count = linkonce_odr global { i64 } zeroinitializer, comdat, align 8
@.str.15 = private unnamed_addr constant [31 x i8] c"Hazptr retired list too large:\00", align 1
@.str.16 = private unnamed_addr constant [7 x i8] c" ftag=\00", align 1
@.str.17 = private unnamed_addr constant [8 x i8] c" shard=\00", align 1
@.str.18 = private unnamed_addr constant [8 x i8] c" count=\00", align 1
@_ZTISt17bad_function_call = external constant ptr
@_ZTVSt17bad_function_call = external unnamed_addr constant { [5 x ptr] }, align 8
@_ZZN5folly13hazptr_domainISt6atomicE31hazptr_warning_executor_backlogEiE13warning_count = linkonce_odr global { i64 } zeroinitializer, comdat, align 8
@.str.20 = private unnamed_addr constant [62 x i8] c" request backlog for hazptr asynchronous reclamation executor\00", align 1
@_ZN5folly3f146detail15kEmptyTagVectorE = external global %"union.std::aligned_storage<32, 16>::type", align 16
@_ZTISt9bad_alloc = external constant ptr
@_ZTVSt9bad_alloc = external unnamed_addr constant { [5 x ptr] }, align 8
@.str.22 = private unnamed_addr constant [11 x i8] c"rehashImpl\00", align 1
@_ZZN5folly3f146detail8F14TableINS1_20ValueContainerPolicyIPKvvvvvEEE10rehashImplEmmmmmE30__folly_detail_safe_assert_arg = linkonce_odr constant %"struct.folly::detail::safe_assert_arg" { ptr @.str.23, ptr @.str.24, i32 2064, ptr @.str.22, ptr @_ZN5folly6detail21safe_assert_msg_typesINS0_22safe_assert_msg_type_sIJLNS0_20safe_assert_msg_typeE1EEEEE5valueE }, comdat, align 8
@.str.23 = private unnamed_addr constant [33 x i8] c"hp.second == srcChunk->tag(srcI)\00", align 1
@.str.24 = private unnamed_addr constant [123 x i8] c"generated/home/dtcxzyw/WorkSpace/Projects/compilers/llvm-opt-benchmark/bench/folly/folly/folly/container/detail/F14Table.h\00", align 1
@_ZN5folly6detail21safe_assert_msg_typesINS0_22safe_assert_msg_type_sIJLNS0_20safe_assert_msg_typeE1EEEEE5valueE = linkonce_odr constant %"struct.folly::c_array" { [2 x i8] c"\01\00" }, comdat, align 1
@.str.25 = private unnamed_addr constant [1 x i8] zeroinitializer, align 1
@.str.26 = private unnamed_addr constant [7 x i8] c"setTag\00", align 1
@_ZZN5folly3f146detail8F14ChunkIPKvE6setTagEmmE30__folly_detail_safe_assert_arg_0 = linkonce_odr constant %"struct.folly::detail::safe_assert_arg" { ptr @.str.27, ptr @.str.24, i32 406, ptr @.str.26, ptr @_ZN5folly6detail21safe_assert_msg_typesINS0_22safe_assert_msg_type_sIJLNS0_20safe_assert_msg_typeE1EEEEE5valueE }, comdat, align 8
@.str.27 = private unnamed_addr constant [18 x i8] c"tags_[index] == 0\00", align 1
@.str.41 = private unnamed_addr constant [14 x i8] c"next_ == this\00", align 1
@.str.44 = private unnamed_addr constant [48 x i8] c"cannot create std::deque larger than max_size()\00", align 1
@_ZZN5folly20SingletonThreadLocalINS_9hazptr_tcISt6atomicEENS_17hazptr_tc_tls_tagENS_6detail11DefaultMakeIS3_EES4_E3getEvE5cache = linkonce_odr thread_local global %"struct.folly::detail::SingletonThreadLocalState::LocalCache" zeroinitializer, comdat, align 8
@_ZZN5folly20SingletonThreadLocalINS_9hazptr_tcISt6atomicEENS_17hazptr_tc_tls_tagENS_6detail11DefaultMakeIS3_EES4_E7getSlowERNS5_25SingletonThreadLocalState10LocalCacheEE8lifetime = linkonce_odr thread_local global %"struct.folly::SingletonThreadLocal<folly::hazptr_tc<>, folly::hazptr_tc_tls_tag>::LocalLifetime" zeroinitializer, comdat, align 1
@_ZGVZN5folly20SingletonThreadLocalINS_9hazptr_tcISt6atomicEENS_17hazptr_tc_tls_tagENS_6detail11DefaultMakeIS3_EES4_E7getSlowERNS5_25SingletonThreadLocalState10LocalCacheEE8lifetime = linkonce_odr thread_local local_unnamed_addr global i64 0, comdat, align 8
@__dso_handle = external hidden global i8
@_ZN5folly20SingletonThreadLocalINS_9hazptr_tcISt6atomicEENS_17hazptr_tc_tls_tagENS_6detail11DefaultMakeIS3_EES4_E6uniqueE = linkonce_odr global %"class.folly::detail::UniqueInstance" zeroinitializer, comdat, align 1
@_ZZN5folly6detail30StaticSingletonManagerWithRtti6createINS_11ThreadLocalINS_20SingletonThreadLocalINS_9hazptr_tcISt6atomicEENS_17hazptr_tc_tls_tagENS0_11DefaultMakeIS7_EES8_E7WrapperES8_vEES8_EERT_vE3arg = linkonce_odr global %"struct.folly::detail::StaticSingletonManagerWithRtti::Arg" { %"struct.std::atomic.293" zeroinitializer, ptr @_ZTIN5folly6detail30StaticSingletonManagerWithRtti3SrcINS_11ThreadLocalINS_20SingletonThreadLocalINS_9hazptr_tcISt6atomicEENS_17hazptr_tc_tls_tagENS0_11DefaultMakeIS7_EES8_E7WrapperES8_vEES8_EE, ptr @_ZN5folly6detail5thunk4makeINS_11ThreadLocalINS_20SingletonThreadLocalINS_9hazptr_tcISt6atomicEENS_17hazptr_tc_tls_tagENS0_11DefaultMakeIS7_EES8_E7WrapperES8_vEEJEEEPvDpT0_, ptr @_ZN5folly6detail30StaticSingletonManagerWithRtti5debugINS_11ThreadLocalINS_20SingletonThreadLocalINS_9hazptr_tcISt6atomicEENS_17hazptr_tc_tls_tagENS0_11DefaultMakeIS7_EES8_E7WrapperES8_vEES8_EE }, comdat, align 8
@_ZTSN5folly6detail30StaticSingletonManagerWithRtti3SrcINS_11ThreadLocalINS_20SingletonThreadLocalINS_9hazptr_tcISt6atomicEENS_17hazptr_tc_tls_tagENS0_11DefaultMakeIS7_EES8_E7WrapperES8_vEES8_EE = linkonce_odr constant [190 x i8] c"N5folly6detail30StaticSingletonManagerWithRtti3SrcINS_11ThreadLocalINS_20SingletonThreadLocalINS_9hazptr_tcISt6atomicEENS_17hazptr_tc_tls_tagENS0_11DefaultMakeIS7_EES8_E7WrapperES8_vEES8_EE\00", comdat, align 1
@_ZTIN5folly6detail30StaticSingletonManagerWithRtti3SrcINS_11ThreadLocalINS_20SingletonThreadLocalINS_9hazptr_tcISt6atomicEENS_17hazptr_tc_tls_tagENS0_11DefaultMakeIS7_EES8_E7WrapperES8_vEES8_EE = linkonce_odr constant { ptr, ptr } { ptr getelementptr inbounds (ptr, ptr @_ZTVN10__cxxabiv117__class_type_infoE, i64 2), ptr @_ZTSN5folly6detail30StaticSingletonManagerWithRtti3SrcINS_11ThreadLocalINS_20SingletonThreadLocalINS_9hazptr_tcISt6atomicEENS_17hazptr_tc_tls_tagENS0_11DefaultMakeIS7_EES8_E7WrapperES8_vEES8_EE }, comdat, align 8
@_ZN5folly6detail30StaticSingletonManagerWithRtti5debugINS_11ThreadLocalINS_20SingletonThreadLocalINS_9hazptr_tcISt6atomicEENS_17hazptr_tc_tls_tagENS0_11DefaultMakeIS7_EES8_E7WrapperES8_vEES8_EE = linkonce_odr global ptr null, comdat, align 8
@_ZTSZN5folly11ThreadLocalINS_20SingletonThreadLocalINS_9hazptr_tcISt6atomicEENS_17hazptr_tc_tls_tagENS_6detail11DefaultMakeIS4_EES5_E7WrapperES5_vEC1EvEUlvE_ = linkonce_odr constant [154 x i8] c"ZN5folly11ThreadLocalINS_20SingletonThreadLocalINS_9hazptr_tcISt6atomicEENS_17hazptr_tc_tls_tagENS_6detail11DefaultMakeIS4_EES5_E7WrapperES5_vEC1EvEUlvE_\00", comdat, align 1
@_ZTIZN5folly11ThreadLocalINS_20SingletonThreadLocalINS_9hazptr_tcISt6atomicEENS_17hazptr_tc_tls_tagENS_6detail11DefaultMakeIS4_EES5_E7WrapperES5_vEC1EvEUlvE_ = linkonce_odr constant { ptr, ptr } { ptr getelementptr inbounds (ptr, ptr @_ZTVN10__cxxabiv117__class_type_infoE, i64 2), ptr @_ZTSZN5folly11ThreadLocalINS_20SingletonThreadLocalINS_9hazptr_tcISt6atomicEENS_17hazptr_tc_tls_tagENS_6detail11DefaultMakeIS4_EES5_E7WrapperES5_vEC1EvEUlvE_ }, comdat, align 8
@_ZZN5folly18threadlocal_detail10StaticMetaINS_17hazptr_tc_tls_tagEvE3getEPNS0_14StaticMetaBase7EntryIDEE13threadEntryTL = linkonce_odr thread_local global ptr null, comdat, align 8
@_ZZN5folly18threadlocal_detail10StaticMetaINS_17hazptr_tc_tls_tagEvE3getEPNS0_14StaticMetaBase7EntryIDEE10capacityTL = linkonce_odr thread_local global i64 0, comdat, align 8
@_ZZN5folly6detail30StaticSingletonManagerWithRtti6createINS_18threadlocal_detail10StaticMetaINS_17hazptr_tc_tls_tagEvEEvEERT_vE3arg = linkonce_odr global %"struct.folly::detail::StaticSingletonManagerWithRtti::Arg" { %"struct.std::atomic.293" zeroinitializer, ptr @_ZTIN5folly6detail30StaticSingletonManagerWithRtti3SrcINS_18threadlocal_detail10StaticMetaINS_17hazptr_tc_tls_tagEvEEvEE, ptr @_ZN5folly6detail5thunk4makeINS_18threadlocal_detail10StaticMetaINS_17hazptr_tc_tls_tagEvEEJEEEPvDpT0_, ptr @_ZN5folly6detail30StaticSingletonManagerWithRtti5debugINS_18threadlocal_detail10StaticMetaINS_17hazptr_tc_tls_tagEvEEvEE }, comdat, align 8
@_ZTSN5folly6detail30StaticSingletonManagerWithRtti3SrcINS_18threadlocal_detail10StaticMetaINS_17hazptr_tc_tls_tagEvEEvEE = linkonce_odr constant [117 x i8] c"N5folly6detail30StaticSingletonManagerWithRtti3SrcINS_18threadlocal_detail10StaticMetaINS_17hazptr_tc_tls_tagEvEEvEE\00", comdat, align 1
@_ZTIN5folly6detail30StaticSingletonManagerWithRtti3SrcINS_18threadlocal_detail10StaticMetaINS_17hazptr_tc_tls_tagEvEEvEE = linkonce_odr constant { ptr, ptr } { ptr getelementptr inbounds (ptr, ptr @_ZTVN10__cxxabiv117__class_type_infoE, i64 2), ptr @_ZTSN5folly6detail30StaticSingletonManagerWithRtti3SrcINS_18threadlocal_detail10StaticMetaINS_17hazptr_tc_tls_tagEvEEvEE }, comdat, align 8
@_ZN5folly6detail30StaticSingletonManagerWithRtti5debugINS_18threadlocal_detail10StaticMetaINS_17hazptr_tc_tls_tagEvEEvEE = linkonce_odr global ptr null, comdat, align 8
@_ZZN5folly18threadlocal_detail10StaticMetaINS_17hazptr_tc_tls_tagEvE18getThreadEntrySlowEvE20threadEntrySingleton = linkonce_odr thread_local global { ptr, { i64 }, ptr, ptr, ptr, i8, i64, %"union.std::aligned_storage<8, 8>::type" } zeroinitializer, comdat, align 8
@.str.50 = private unnamed_addr constant [27 x i8] c"pthread_setspecific failed\00", align 1
@_ZTISt12system_error = external constant ptr
@_ZTVSt12system_error = external unnamed_addr constant { [5 x ptr] }, align 8
@.str.51 = private unnamed_addr constant [3 x i8] c": \00", align 1
@_ZZN5folly19shared_mutex_detail21getMaxDeferredReadersEvE5cache = linkonce_odr global { i32 } zeroinitializer, comdat, align 4
@_ZN5folly15SharedMutexImplILb0EvSt6atomicNS_24SharedMutexPolicyDefaultEE15deferredReadersE = external global [2048 x %"struct.std::atomic.10"], align 128
@_ZZN5folly15SharedMutexImplILb0EvSt6atomicNS_24SharedMutexPolicyDefaultEE26tls_lastDeferredReaderSlotEvE2tl = linkonce_odr thread_local global %"struct.folly::relaxed_atomic.305" zeroinitializer, comdat, align 4
@_ZZN5folly14AccessSpreaderISt6atomicE5stateEvE5state = linkonce_odr global { [257 x [256 x i8]], %"struct.std::atomic.310" } zeroinitializer, comdat, align 8
@_ZZN5folly15SharedMutexImplILb0EvSt6atomicNS_24SharedMutexPolicyDefaultEE21tls_lastTokenlessSlotEvE2tl = linkonce_odr thread_local global %"struct.folly::relaxed_atomic.305" zeroinitializer, comdat, align 4
@_ZN5folly6detail19atomic_notification10parkingLotE = external global %"class.folly::ParkingLot", align 8
@_ZTSN5folly22OptionalEmptyExceptionE = linkonce_odr constant [33 x i8] c"N5folly22OptionalEmptyExceptionE\00", comdat, align 1
@_ZTIN5folly22OptionalEmptyExceptionE = linkonce_odr constant { ptr, ptr, ptr } { ptr getelementptr inbounds (ptr, ptr @_ZTVN10__cxxabiv120__si_class_type_infoE, i64 2), ptr @_ZTSN5folly22OptionalEmptyExceptionE, ptr @_ZTISt13runtime_error }, comdat, align 8
@_ZTVN5folly22OptionalEmptyExceptionE = linkonce_odr unnamed_addr constant { [5 x ptr] } { [5 x ptr] [ptr null, ptr @_ZTIN5folly22OptionalEmptyExceptionE, ptr @_ZNSt13runtime_errorD2Ev, ptr @_ZN5folly22OptionalEmptyExceptionD0Ev, ptr @_ZNKSt13runtime_error4whatEv] }, comdat, align 8
@.str.92 = private unnamed_addr constant [35 x i8] c"Empty Optional cannot be unwrapped\00", align 1
@_ZN5folly6detail11MemoryIdler18defaultIdleTimeoutE = external local_unnamed_addr global %"class.folly::AtomicStruct.356", align 8
@.str.94 = private unnamed_addr constant [16 x i8] c"vector::reserve\00", align 1
@.str.95 = private unnamed_addr constant [26 x i8] c"vector::_M_realloc_insert\00", align 1
@_ZTVN5folly22ThreadIdWorkerProviderE = external unnamed_addr constant { [5 x ptr] }, align 8
@"_ZTVNSt6thread11_State_implINS_8_InvokerISt5tupleIJZN5folly23MuxIOThreadPoolExecutorC1EmNS4_7OptionsESt10shared_ptrINS3_13ThreadFactoryEEPNS3_16EventBaseManagerEE3$_1EEEEEE" = internal unnamed_addr constant { [5 x ptr] } { [5 x ptr] [ptr null, ptr @"_ZTINSt6thread11_State_implINS_8_InvokerISt5tupleIJZN5folly23MuxIOThreadPoolExecutorC1EmNS4_7OptionsESt10shared_ptrINS3_13ThreadFactoryEEPNS3_16EventBaseManagerEE3$_1EEEEEE", ptr @_ZNSt6thread6_StateD2Ev, ptr @"_ZNSt6thread11_State_implINS_8_InvokerISt5tupleIJZN5folly23MuxIOThreadPoolExecutorC1EmNS4_7OptionsESt10shared_ptrINS3_13ThreadFactoryEEPNS3_16EventBaseManagerEE3$_1EEEEED0Ev", ptr @"_ZNSt6thread11_State_implINS_8_InvokerISt5tupleIJZN5folly23MuxIOThreadPoolExecutorC1EmNS4_7OptionsESt10shared_ptrINS3_13ThreadFactoryEEPNS3_16EventBaseManagerEE3$_1EEEEE6_M_runEv"] }, align 8
@"_ZTSNSt6thread11_State_implINS_8_InvokerISt5tupleIJZN5folly23MuxIOThreadPoolExecutorC1EmNS4_7OptionsESt10shared_ptrINS3_13ThreadFactoryEEPNS3_16EventBaseManagerEE3$_1EEEEEE" = internal constant [169 x i8] c"NSt6thread11_State_implINS_8_InvokerISt5tupleIJZN5folly23MuxIOThreadPoolExecutorC1EmNS4_7OptionsESt10shared_ptrINS3_13ThreadFactoryEEPNS3_16EventBaseManagerEE3$_1EEEEEE\00", align 1
@_ZTINSt6thread6_StateE = external constant ptr
@"_ZTINSt6thread11_State_implINS_8_InvokerISt5tupleIJZN5folly23MuxIOThreadPoolExecutorC1EmNS4_7OptionsESt10shared_ptrINS3_13ThreadFactoryEEPNS3_16EventBaseManagerEE3$_1EEEEEE" = internal constant { ptr, ptr, ptr } { ptr getelementptr inbounds (ptr, ptr @_ZTVN10__cxxabiv120__si_class_type_infoE, i64 2), ptr @"_ZTSNSt6thread11_State_implINS_8_InvokerISt5tupleIJZN5folly23MuxIOThreadPoolExecutorC1EmNS4_7OptionsESt10shared_ptrINS3_13ThreadFactoryEEPNS3_16EventBaseManagerEE3$_1EEEEEE", ptr @_ZTINSt6thread6_StateE }, align 8
@_ZZN5folly6detail30StaticSingletonManagerWithRtti6createINS_18threadlocal_detail10StaticMetaIvvEEvEERT_vE3arg = linkonce_odr global %"struct.folly::detail::StaticSingletonManagerWithRtti::Arg" { %"struct.std::atomic.293" zeroinitializer, ptr @_ZTIN5folly6detail30StaticSingletonManagerWithRtti3SrcINS_18threadlocal_detail10StaticMetaIvvEEvEE, ptr @_ZN5folly6detail5thunk4makeINS_18threadlocal_detail10StaticMetaIvvEEJEEEPvDpT0_, ptr @_ZN5folly6detail30StaticSingletonManagerWithRtti5debugINS_18threadlocal_detail10StaticMetaIvvEEvEE }, comdat, align 8
@_ZTSN5folly6detail30StaticSingletonManagerWithRtti3SrcINS_18threadlocal_detail10StaticMetaIvvEEvEE = linkonce_odr constant [95 x i8] c"N5folly6detail30StaticSingletonManagerWithRtti3SrcINS_18threadlocal_detail10StaticMetaIvvEEvEE\00", comdat, align 1
@_ZTIN5folly6detail30StaticSingletonManagerWithRtti3SrcINS_18threadlocal_detail10StaticMetaIvvEEvEE = linkonce_odr constant { ptr, ptr } { ptr getelementptr inbounds (ptr, ptr @_ZTVN10__cxxabiv117__class_type_infoE, i64 2), ptr @_ZTSN5folly6detail30StaticSingletonManagerWithRtti3SrcINS_18threadlocal_detail10StaticMetaIvvEEvEE }, comdat, align 8
@_ZN5folly6detail30StaticSingletonManagerWithRtti5debugINS_18threadlocal_detail10StaticMetaIvvEEvEE = linkonce_odr global ptr null, comdat, align 8
@_ZZN5folly18threadlocal_detail10StaticMetaIvvE18getThreadEntrySlowEvE20threadEntrySingleton = linkonce_odr thread_local global { ptr, { i64 }, ptr, ptr, ptr, i8, i64, %"union.std::aligned_storage<8, 8>::type" } zeroinitializer, comdat, align 8
@_ZTVN5folly8ExecutorE = external unnamed_addr constant { [9 x ptr] }, align 8
@.str.96 = private unnamed_addr constant [139 x i8] c"generated/home/dtcxzyw/WorkSpace/Projects/compilers/llvm-opt-benchmark/bench/folly/folly/folly/experimental/io/MuxIOThreadPoolExecutor.cpp\00", align 1
@.str.97 = private unnamed_addr constant [45 x i8] c"Check failed: events[i].data.ptr != nullptr \00", align 1
@.str.98 = private unnamed_addr constant [49 x i8] c"cannot create std::vector larger than max_size()\00", align 1
@.str.99 = private unnamed_addr constant [36 x i8] c"Check failed: !(persist && !first) \00", align 1
@.str.100 = private unnamed_addr constant [9 x i8] c"ret == 0\00", align 1
@_ZZN5folly18threadlocal_detail10StaticMetaIvvE3getEPNS0_14StaticMetaBase7EntryIDEE13threadEntryTL = linkonce_odr thread_local global ptr null, comdat, align 8
@_ZZN5folly18threadlocal_detail10StaticMetaIvvE3getEPNS0_14StaticMetaBase7EntryIDEE10capacityTL = linkonce_odr thread_local global i64 0, comdat, align 8
@_ZTVSt23_Sp_counted_ptr_inplaceIN5folly24IOThreadPoolExecutorBase8IOThreadESaIvELN9__gnu_cxx12_Lock_policyE2EE = linkonce_odr unnamed_addr constant { [7 x ptr] } { [7 x ptr] [ptr null, ptr @_ZTISt23_Sp_counted_ptr_inplaceIN5folly24IOThreadPoolExecutorBase8IOThreadESaIvELN9__gnu_cxx12_Lock_policyE2EE, ptr @_ZNSt16_Sp_counted_baseILN9__gnu_cxx12_Lock_policyE2EED2Ev, ptr @_ZNSt23_Sp_counted_ptr_inplaceIN5folly24IOThreadPoolExecutorBase8IOThreadESaIvELN9__gnu_cxx12_Lock_policyE2EED0Ev, ptr @_ZNSt23_Sp_counted_ptr_inplaceIN5folly24IOThreadPoolExecutorBase8IOThreadESaIvELN9__gnu_cxx12_Lock_policyE2EE10_M_disposeEv, ptr @_ZNSt23_Sp_counted_ptr_inplaceIN5folly24IOThreadPoolExecutorBase8IOThreadESaIvELN9__gnu_cxx12_Lock_policyE2EE10_M_destroyEv, ptr @_ZNSt23_Sp_counted_ptr_inplaceIN5folly24IOThreadPoolExecutorBase8IOThreadESaIvELN9__gnu_cxx12_Lock_policyE2EE14_M_get_deleterERKSt9type_info] }, comdat, align 8
@_ZTSSt23_Sp_counted_ptr_inplaceIN5folly24IOThreadPoolExecutorBase8IOThreadESaIvELN9__gnu_cxx12_Lock_policyE2EE = linkonce_odr constant [107 x i8] c"St23_Sp_counted_ptr_inplaceIN5folly24IOThreadPoolExecutorBase8IOThreadESaIvELN9__gnu_cxx12_Lock_policyE2EE\00", comdat, align 1
@_ZTSSt16_Sp_counted_baseILN9__gnu_cxx12_Lock_policyE2EE = linkonce_odr constant [52 x i8] c"St16_Sp_counted_baseILN9__gnu_cxx12_Lock_policyE2EE\00", comdat, align 1
@_ZTSSt11_Mutex_baseILN9__gnu_cxx12_Lock_policyE2EE = linkonce_odr constant [47 x i8] c"St11_Mutex_baseILN9__gnu_cxx12_Lock_policyE2EE\00", comdat, align 1
@_ZTISt11_Mutex_baseILN9__gnu_cxx12_Lock_policyE2EE = linkonce_odr constant { ptr, ptr } { ptr getelementptr inbounds (ptr, ptr @_ZTVN10__cxxabiv117__class_type_infoE, i64 2), ptr @_ZTSSt11_Mutex_baseILN9__gnu_cxx12_Lock_policyE2EE }, comdat, align 8
@_ZTISt16_Sp_counted_baseILN9__gnu_cxx12_Lock_policyE2EE = linkonce_odr constant { ptr, ptr, ptr } { ptr getelementptr inbounds (ptr, ptr @_ZTVN10__cxxabiv120__si_class_type_infoE, i64 2), ptr @_ZTSSt16_Sp_counted_baseILN9__gnu_cxx12_Lock_policyE2EE, ptr @_ZTISt11_Mutex_baseILN9__gnu_cxx12_Lock_policyE2EE }, comdat, align 8
@_ZTISt23_Sp_counted_ptr_inplaceIN5folly24IOThreadPoolExecutorBase8IOThreadESaIvELN9__gnu_cxx12_Lock_policyE2EE = linkonce_odr constant { ptr, ptr, ptr } { ptr getelementptr inbounds (ptr, ptr @_ZTVN10__cxxabiv120__si_class_type_infoE, i64 2), ptr @_ZTSSt23_Sp_counted_ptr_inplaceIN5folly24IOThreadPoolExecutorBase8IOThreadESaIvELN9__gnu_cxx12_Lock_policyE2EE, ptr @_ZTISt16_Sp_counted_baseILN9__gnu_cxx12_Lock_policyE2EE }, comdat, align 8
@_ZTVN5folly24IOThreadPoolExecutorBase8IOThreadE = linkonce_odr unnamed_addr constant { [4 x ptr] } { [4 x ptr] [ptr null, ptr @_ZTIN5folly24IOThreadPoolExecutorBase8IOThreadE, ptr @_ZN5folly18ThreadPoolExecutor6ThreadD2Ev, ptr @_ZN5folly24IOThreadPoolExecutorBase8IOThreadD0Ev] }, comdat, align 8
@_ZTSN5folly24IOThreadPoolExecutorBase8IOThreadE = linkonce_odr constant [44 x i8] c"N5folly24IOThreadPoolExecutorBase8IOThreadE\00", comdat, align 1
@_ZTSN5folly18ThreadPoolExecutor6ThreadE = linkonce_odr constant [36 x i8] c"N5folly18ThreadPoolExecutor6ThreadE\00", comdat, align 1
@_ZTSN5folly18ThreadPoolExecutor12ThreadHandleE = linkonce_odr constant [43 x i8] c"N5folly18ThreadPoolExecutor12ThreadHandleE\00", comdat, align 1
@_ZTIN5folly18ThreadPoolExecutor12ThreadHandleE = linkonce_odr constant { ptr, ptr } { ptr getelementptr inbounds (ptr, ptr @_ZTVN10__cxxabiv117__class_type_infoE, i64 2), ptr @_ZTSN5folly18ThreadPoolExecutor12ThreadHandleE }, comdat, align 8
@_ZTIN5folly18ThreadPoolExecutor6ThreadE = linkonce_odr constant { ptr, ptr, ptr } { ptr getelementptr inbounds (ptr, ptr @_ZTVN10__cxxabiv120__si_class_type_infoE, i64 2), ptr @_ZTSN5folly18ThreadPoolExecutor6ThreadE, ptr @_ZTIN5folly18ThreadPoolExecutor12ThreadHandleE }, comdat, align 8
@_ZTIN5folly24IOThreadPoolExecutorBase8IOThreadE = linkonce_odr constant { ptr, ptr, ptr } { ptr getelementptr inbounds (ptr, ptr @_ZTVN10__cxxabiv120__si_class_type_infoE, i64 2), ptr @_ZTSN5folly24IOThreadPoolExecutorBase8IOThreadE, ptr @_ZTIN5folly18ThreadPoolExecutor6ThreadE }, comdat, align 8
@_ZTVN5folly18ThreadPoolExecutor6ThreadE = linkonce_odr unnamed_addr constant { [4 x ptr] } { [4 x ptr] [ptr null, ptr @_ZTIN5folly18ThreadPoolExecutor6ThreadE, ptr @_ZN5folly18ThreadPoolExecutor6ThreadD2Ev, ptr @_ZN5folly18ThreadPoolExecutor6ThreadD0Ev] }, comdat, align 8
@_ZN5folly18ThreadPoolExecutor6Thread6nextIdE = external global %"struct.std::atomic.10", align 8
@_ZTSSt19_Sp_make_shared_tag = linkonce_odr constant [24 x i8] c"St19_Sp_make_shared_tag\00", comdat, align 1
@_ZZNSt19_Sp_make_shared_tag5_S_tiEvE5__tag = linkonce_odr constant [16 x i8] zeroinitializer, comdat, align 8
@.str.101 = private unnamed_addr constant [21 x i8] c"Check failed: !!evb \00", align 1
@_ZTSN5folly18ThreadPoolExecutor8ObserverE = linkonce_odr constant [38 x i8] c"N5folly18ThreadPoolExecutor8ObserverE\00", comdat, align 1
@_ZTIN5folly18ThreadPoolExecutor8ObserverE = linkonce_odr constant { ptr, ptr } { ptr getelementptr inbounds (ptr, ptr @_ZTVN10__cxxabiv117__class_type_infoE, i64 2), ptr @_ZTSN5folly18ThreadPoolExecutor8ObserverE }, comdat, align 8
@_ZTSN5folly24IOThreadPoolExecutorBase10IOObserverE = linkonce_odr constant [47 x i8] c"N5folly24IOThreadPoolExecutorBase10IOObserverE\00", comdat, align 1
@_ZTIN5folly24IOThreadPoolExecutorBase10IOObserverE = linkonce_odr constant { ptr, ptr, ptr } { ptr getelementptr inbounds (ptr, ptr @_ZTVN10__cxxabiv120__si_class_type_infoE, i64 2), ptr @_ZTSN5folly24IOThreadPoolExecutorBase10IOObserverE, ptr @_ZTIN5folly18ThreadPoolExecutor8ObserverE }, comdat, align 8
@.str.102 = private unnamed_addr constant [126 x i8] c"generated/home/dtcxzyw/WorkSpace/Projects/compilers/llvm-opt-benchmark/bench/folly/folly/folly/executors/ThreadPoolExecutor.h\00", align 1
@.str.103 = private unnamed_addr constant [42 x i8] c"Check failed: itPair.first != vec_.end() \00", align 1
@.str.104 = private unnamed_addr constant [56 x i8] c"Check failed: std::next(itPair.first) == itPair.second \00", align 1
@_ZN5folly16HHWheelTimerBaseINSt6chrono8durationIlSt5ratioILl1ELl1000EEEEE21DEFAULT_TICK_INTERVALE = external local_unnamed_addr global i32, align 4
@"_ZTSZN5folly23MuxIOThreadPoolExecutor13makeEventBaseEvE3$_0" = internal constant [56 x i8] c"ZN5folly23MuxIOThreadPoolExecutor13makeEventBaseEvE3$_0\00", align 1
@"_ZTIZN5folly23MuxIOThreadPoolExecutor13makeEventBaseEvE3$_0" = internal constant { ptr, ptr } { ptr getelementptr inbounds (ptr, ptr @_ZTVN10__cxxabiv117__class_type_infoE, i64 2), ptr @"_ZTSZN5folly23MuxIOThreadPoolExecutor13makeEventBaseEvE3$_0" }, align 8
@_ZTVSt23_Sp_counted_ptr_inplaceIN5folly18ThreadPoolExecutor6ThreadESaIvELN9__gnu_cxx12_Lock_policyE2EE = linkonce_odr unnamed_addr constant { [7 x ptr] } { [7 x ptr] [ptr null, ptr @_ZTISt23_Sp_counted_ptr_inplaceIN5folly18ThreadPoolExecutor6ThreadESaIvELN9__gnu_cxx12_Lock_policyE2EE, ptr @_ZNSt16_Sp_counted_baseILN9__gnu_cxx12_Lock_policyE2EED2Ev, ptr @_ZNSt23_Sp_counted_ptr_inplaceIN5folly18ThreadPoolExecutor6ThreadESaIvELN9__gnu_cxx12_Lock_policyE2EED0Ev, ptr @_ZNSt23_Sp_counted_ptr_inplaceIN5folly18ThreadPoolExecutor6ThreadESaIvELN9__gnu_cxx12_Lock_policyE2EE10_M_disposeEv, ptr @_ZNSt23_Sp_counted_ptr_inplaceIN5folly18ThreadPoolExecutor6ThreadESaIvELN9__gnu_cxx12_Lock_policyE2EE10_M_destroyEv, ptr @_ZNSt23_Sp_counted_ptr_inplaceIN5folly18ThreadPoolExecutor6ThreadESaIvELN9__gnu_cxx12_Lock_policyE2EE14_M_get_deleterERKSt9type_info] }, comdat, align 8
@_ZTSSt23_Sp_counted_ptr_inplaceIN5folly18ThreadPoolExecutor6ThreadESaIvELN9__gnu_cxx12_Lock_policyE2EE = linkonce_odr constant [99 x i8] c"St23_Sp_counted_ptr_inplaceIN5folly18ThreadPoolExecutor6ThreadESaIvELN9__gnu_cxx12_Lock_policyE2EE\00", comdat, align 1
@_ZTISt23_Sp_counted_ptr_inplaceIN5folly18ThreadPoolExecutor6ThreadESaIvELN9__gnu_cxx12_Lock_policyE2EE = linkonce_odr constant { ptr, ptr, ptr } { ptr getelementptr inbounds (ptr, ptr @_ZTVN10__cxxabiv120__si_class_type_infoE, i64 2), ptr @_ZTSSt23_Sp_counted_ptr_inplaceIN5folly18ThreadPoolExecutor6ThreadESaIvELN9__gnu_cxx12_Lock_policyE2EE, ptr @_ZTISt16_Sp_counted_baseILN9__gnu_cxx12_Lock_policyE2EE }, comdat, align 8
@_ZGVN5folly20SingletonThreadLocalINS_9hazptr_tcISt6atomicEENS_17hazptr_tc_tls_tagENS_6detail11DefaultMakeIS3_EES4_E6uniqueE = linkonce_odr local_unnamed_addr global i64 0, comdat($_ZN5folly20SingletonThreadLocalINS_9hazptr_tcISt6atomicEENS_17hazptr_tc_tls_tagENS_6detail11DefaultMakeIS3_EES4_E6uniqueE), align 8
@_ZTSN5folly6detail14UniqueInstance5key_tINS_20SingletonThreadLocalEJEEE = linkonce_odr constant [68 x i8] c"N5folly6detail14UniqueInstance5key_tINS_20SingletonThreadLocalEJEEE\00", comdat, align 1
@_ZTIN5folly6detail14UniqueInstance5key_tINS_20SingletonThreadLocalEJEEE = linkonce_odr constant { ptr, ptr } { ptr getelementptr inbounds (ptr, ptr @_ZTVN10__cxxabiv117__class_type_infoE, i64 2), ptr @_ZTSN5folly6detail14UniqueInstance5key_tINS_20SingletonThreadLocalEJEEE }, comdat, align 8
@_ZZN5folly6detail14UniqueInstanceC1ITtTpTyENS_20SingletonThreadLocalEJNS_9hazptr_tcISt6atomicEENS_17hazptr_tc_tls_tagEEJNS0_11DefaultMakeIS6_EES7_EEENS_5tag_tIJT_IJDpT0_DpT1_EEEEENSA_IJSD_EEENSA_IJSF_EEEE4ptrs = linkonce_odr constant [4 x ptr] [ptr @_ZTIN5folly9hazptr_tcISt6atomicEE, ptr @_ZTIN5folly17hazptr_tc_tls_tagE, ptr @_ZTIN5folly6detail11DefaultMakeINS_9hazptr_tcISt6atomicEEEE, ptr @_ZTIN5folly17hazptr_tc_tls_tagE], comdat, align 16
@_ZTSN5folly9hazptr_tcISt6atomicEE = linkonce_odr constant [30 x i8] c"N5folly9hazptr_tcISt6atomicEE\00", comdat, align 1
@_ZTIN5folly9hazptr_tcISt6atomicEE = linkonce_odr constant { ptr, ptr } { ptr getelementptr inbounds (ptr, ptr @_ZTVN10__cxxabiv117__class_type_infoE, i64 2), ptr @_ZTSN5folly9hazptr_tcISt6atomicEE }, comdat, align 8
@_ZTSN5folly17hazptr_tc_tls_tagE = linkonce_odr constant [28 x i8] c"N5folly17hazptr_tc_tls_tagE\00", comdat, align 1
@_ZTIN5folly17hazptr_tc_tls_tagE = linkonce_odr constant { ptr, ptr } { ptr getelementptr inbounds (ptr, ptr @_ZTVN10__cxxabiv117__class_type_infoE, i64 2), ptr @_ZTSN5folly17hazptr_tc_tls_tagE }, comdat, align 8
@_ZTSN5folly6detail11DefaultMakeINS_9hazptr_tcISt6atomicEEEE = linkonce_odr constant [56 x i8] c"N5folly6detail11DefaultMakeINS_9hazptr_tcISt6atomicEEEE\00", comdat, align 1
@_ZTIN5folly6detail11DefaultMakeINS_9hazptr_tcISt6atomicEEEE = linkonce_odr constant { ptr, ptr } { ptr getelementptr inbounds (ptr, ptr @_ZTVN10__cxxabiv117__class_type_infoE, i64 2), ptr @_ZTSN5folly6detail11DefaultMakeINS_9hazptr_tcISt6atomicEEEE }, comdat, align 8
@_ZZN5folly6detail14UniqueInstanceC1ITtTpTyENS_20SingletonThreadLocalEJNS_9hazptr_tcISt6atomicEENS_17hazptr_tc_tls_tagEEJNS0_11DefaultMakeIS6_EES7_EEENS_5tag_tIJT_IJDpT0_DpT1_EEEEENSA_IJSD_EEENSA_IJSF_EEEE3arg = linkonce_odr global { %"struct.folly::detail::UniqueInstance::Value", { %"struct.std::atomic.293", ptr, ptr, ptr, ptr } } { %"struct.folly::detail::UniqueInstance::Value" { ptr @_ZTIN5folly6detail14UniqueInstance5key_tINS_20SingletonThreadLocalEJEEE, ptr @_ZZN5folly6detail14UniqueInstanceC1ITtTpTyENS_20SingletonThreadLocalEJNS_9hazptr_tcISt6atomicEENS_17hazptr_tc_tls_tagEEJNS0_11DefaultMakeIS6_EES7_EEENS_5tag_tIJT_IJDpT0_DpT1_EEEEENSA_IJSD_EEENSA_IJSF_EEEE4ptrs, i32 2, i32 2 }, { %"struct.std::atomic.293", ptr, ptr, ptr, ptr } { %"struct.std::atomic.293" zeroinitializer, ptr @_ZTIN5folly6detail30StaticSingletonManagerWithRtti3SrcINS0_14UniqueInstance5ValueENS3_5key_tINS_20SingletonThreadLocalEJNS_9hazptr_tcISt6atomicEENS_17hazptr_tc_tls_tagEEEEEE, ptr @_ZN5folly6detail5thunk4makeINS0_14UniqueInstance5ValueEJEEEPvDpT0_, ptr @_ZN5folly6detail30StaticSingletonManagerWithRtti5debugINS0_14UniqueInstance5ValueENS3_5key_tINS_20SingletonThreadLocalEJNS_9hazptr_tcISt6atomicEENS_17hazptr_tc_tls_tagEEEEEE, ptr @_ZN5folly6detail30StaticSingletonManagerWithRtti7create_ILb1EEEPvRNS1_3ArgE } }, comdat, align 8
@_ZTSN5folly6detail30StaticSingletonManagerWithRtti3SrcINS0_14UniqueInstance5ValueENS3_5key_tINS_20SingletonThreadLocalEJNS_9hazptr_tcISt6atomicEENS_17hazptr_tc_tls_tagEEEEEE = linkonce_odr constant [170 x i8] c"N5folly6detail30StaticSingletonManagerWithRtti3SrcINS0_14UniqueInstance5ValueENS3_5key_tINS_20SingletonThreadLocalEJNS_9hazptr_tcISt6atomicEENS_17hazptr_tc_tls_tagEEEEEE\00", comdat, align 1
@_ZTIN5folly6detail30StaticSingletonManagerWithRtti3SrcINS0_14UniqueInstance5ValueENS3_5key_tINS_20SingletonThreadLocalEJNS_9hazptr_tcISt6atomicEENS_17hazptr_tc_tls_tagEEEEEE = linkonce_odr constant { ptr, ptr } { ptr getelementptr inbounds (ptr, ptr @_ZTVN10__cxxabiv117__class_type_infoE, i64 2), ptr @_ZTSN5folly6detail30StaticSingletonManagerWithRtti3SrcINS0_14UniqueInstance5ValueENS3_5key_tINS_20SingletonThreadLocalEJNS_9hazptr_tcISt6atomicEENS_17hazptr_tc_tls_tagEEEEEE }, comdat, align 8
@_ZN5folly6detail30StaticSingletonManagerWithRtti5debugINS0_14UniqueInstance5ValueENS3_5key_tINS_20SingletonThreadLocalEJNS_9hazptr_tcISt6atomicEENS_17hazptr_tc_tls_tagEEEEEE = linkonce_odr global ptr null, comdat, align 8
@llvm.global_ctors = appending global [1 x { i32, ptr, ptr }] [{ i32, ptr, ptr } { i32 65535, ptr @__cxx_global_var_init, ptr @_ZN5folly20SingletonThreadLocalINS_9hazptr_tcISt6atomicEENS_17hazptr_tc_tls_tagENS_6detail11DefaultMakeIS3_EES4_E6uniqueE }]
@llvm.used = appending global [1 x ptr] [ptr @_ZN5folly20SingletonThreadLocalINS_9hazptr_tcISt6atomicEENS_17hazptr_tc_tls_tagENS_6detail11DefaultMakeIS3_EES4_E6uniqueE], section "llvm.metadata"

@_ZN5folly23MuxIOThreadPoolExecutor7HandlerD1Ev = unnamed_addr alias void (ptr), ptr @_ZN5folly23MuxIOThreadPoolExecutor7HandlerD2Ev
@_ZN5folly23MuxIOThreadPoolExecutor10EvbHandlerC1EPNS_9EventBaseE = unnamed_addr alias void (ptr, ptr), ptr @_ZN5folly23MuxIOThreadPoolExecutor10EvbHandlerC2EPNS_9EventBaseE
@_ZN5folly23MuxIOThreadPoolExecutor10EvbHandlerD2Ev = unnamed_addr alias void (ptr), ptr @_ZN5folly23MuxIOThreadPoolExecutor7HandlerD2Ev
@_ZN5folly23MuxIOThreadPoolExecutor10EvbHandlerD1Ev = unnamed_addr alias void (ptr), ptr @_ZN5folly23MuxIOThreadPoolExecutor10EvbHandlerD2Ev
@_ZN5folly23MuxIOThreadPoolExecutor14EventFdHandlerC1Ev = unnamed_addr alias void (ptr), ptr @_ZN5folly23MuxIOThreadPoolExecutor14EventFdHandlerC2Ev
@_ZN5folly23MuxIOThreadPoolExecutor14EventFdHandlerD1Ev = unnamed_addr alias void (ptr), ptr @_ZN5folly23MuxIOThreadPoolExecutor14EventFdHandlerD2Ev

; Function Attrs: mustprogress noreturn nounwind memory(inaccessiblemem: write) uwtable
define void @_ZN5folly23MuxIOThreadPoolExecutor7HandlerD0Ev(ptr nocapture nonnull readnone align 8 %this) unnamed_addr #0 align 2 {
entry:
  tail call void @llvm.trap() #39
  unreachable
}

declare void @__cxa_pure_virtual() unnamed_addr

; Function Attrs: mustprogress nounwind uwtable
define linkonce_odr noundef ptr @_ZN5folly23MuxIOThreadPoolExecutor7Handler12getEventBaseEv(ptr noundef nonnull align 8 dereferenceable(21) %this) unnamed_addr #1 comdat align 2 {
entry:
  ret ptr null
}

; Function Attrs: mustprogress nounwind uwtable
define void @_ZN5folly23MuxIOThreadPoolExecutor10EvbHandlerD0Ev(ptr noundef nonnull align 8 dereferenceable(32) %this) unnamed_addr #1 align 2 {
entry:
  tail call void @_ZN5folly23MuxIOThreadPoolExecutor10EvbHandlerD1Ev(ptr noundef nonnull align 8 dereferenceable(32) %this) #32
  tail call void @_ZdlPv(ptr noundef nonnull %this) #40
  ret void
}

; Function Attrs: mustprogress uwtable
define void @_ZN5folly23MuxIOThreadPoolExecutor10EvbHandler6handleEPS0_(ptr nocapture noundef nonnull readonly align 8 dereferenceable(32) %this, ptr nocapture readnone %0) unnamed_addr #2 align 2 {
entry:
  %evb = getelementptr inbounds %"struct.folly::MuxIOThreadPoolExecutor::EvbHandler", ptr %this, i64 0, i32 1
  %1 = load ptr, ptr %evb, align 8, !tbaa !7
  tail call void @_ZN5folly9EventBase13loopPollSetupEv(ptr noundef nonnull align 16 dereferenceable(584) %1)
  br label %do.body

do.body:                                          ; preds = %do.body, %entry
  %2 = load ptr, ptr %evb, align 8, !tbaa !7
  %call = tail call noundef zeroext i1 @_ZN5folly9EventBase8loopPollEv(ptr noundef nonnull align 16 dereferenceable(584) %2)
  %3 = load ptr, ptr %evb, align 8, !tbaa !7
  %call4 = tail call noundef i64 @_ZNK5folly9EventBase19getNumLoopCallbacksEv(ptr noundef nonnull align 16 dereferenceable(584) %3)
  %cmp.not = icmp eq i64 %call4, 0
  br i1 %cmp.not, label %do.end, label %do.body, !llvm.loop !16

do.end:                                           ; preds = %do.body
  %4 = load ptr, ptr %evb, align 8, !tbaa !7
  tail call void @_ZN5folly9EventBase15loopPollCleanupEv(ptr noundef nonnull align 16 dereferenceable(584) %4)
  ret void
}

; Function Attrs: mustprogress nounwind uwtable
define linkonce_odr noundef ptr @_ZN5folly23MuxIOThreadPoolExecutor10EvbHandler12getEventBaseEv(ptr noundef nonnull align 8 dereferenceable(32) %this) unnamed_addr #1 comdat align 2 {
entry:
  %evb = getelementptr inbounds %"struct.folly::MuxIOThreadPoolExecutor::EvbHandler", ptr %this, i64 0, i32 1
  %0 = load ptr, ptr %evb, align 8, !tbaa !7
  ret ptr %0
}

; Function Attrs: mustprogress nounwind uwtable
define void @_ZN5folly23MuxIOThreadPoolExecutor14EventFdHandlerD0Ev(ptr noundef nonnull align 8 dereferenceable(21) %this) unnamed_addr #1 align 2 {
entry:
  tail call void @_ZN5folly23MuxIOThreadPoolExecutor14EventFdHandlerD1Ev(ptr noundef nonnull align 8 dereferenceable(21) %this) #32
  tail call void @_ZdlPv(ptr noundef nonnull %this) #40
  ret void
}

; Function Attrs: mustprogress uwtable
define void @_ZN5folly23MuxIOThreadPoolExecutor14EventFdHandler6handleEPS0_(ptr nocapture nonnull readnone align 8 %this, ptr nocapture noundef nonnull %parent) unnamed_addr #2 align 2 {
entry:
  tail call void @_ZN5folly23MuxIOThreadPoolExecutor13handleDequeueEv(ptr noundef nonnull align 64 dereferenceable(768) %parent)
  ret void
}

; Function Attrs: mustprogress nounwind uwtable
define linkonce_odr void @_ZN5folly24IOThreadPoolExecutorBaseD1Ev(ptr noundef nonnull align 64 dereferenceable(504) %this) unnamed_addr #1 comdat align 2 {
entry:
  tail call void @llvm.trap() #39
  unreachable
}

; Function Attrs: mustprogress nounwind uwtable
define linkonce_odr void @_ZN5folly24IOThreadPoolExecutorBaseD0Ev(ptr noundef nonnull align 64 dereferenceable(504) %this) unnamed_addr #1 comdat align 2 {
entry:
  tail call void @llvm.trap() #39
  unreachable
}

declare void @_ZN5folly8Executor15addWithPriorityENS_8FunctionIFvvEEEa(ptr noundef nonnull align 8 dereferenceable(8), ptr noundef, i8 noundef signext) unnamed_addr #3

; Function Attrs: mustprogress nounwind uwtable
define linkonce_odr noundef zeroext i8 @_ZNK5folly8Executor16getNumPrioritiesEv(ptr noundef nonnull align 8 dereferenceable(8) %this) unnamed_addr #1 comdat align 2 {
entry:
  ret i8 1
}

; Function Attrs: mustprogress nounwind uwtable
define linkonce_odr noundef zeroext i1 @_ZN5folly24DefaultKeepAliveExecutor16keepAliveAcquireEv(ptr noundef nonnull align 8 dereferenceable(40) %this) unnamed_addr #1 comdat align 2 personality ptr @__gxx_personality_v0 {
entry:
  %controlBlock_ = getelementptr inbounds %"class.folly::DefaultKeepAliveExecutor", ptr %this, i64 0, i32 1
  %0 = load ptr, ptr %controlBlock_, align 8, !tbaa !18
  %1 = atomicrmw add ptr %0, i64 1 monotonic, align 8
  ret i1 true
}

; Function Attrs: mustprogress nounwind uwtable
define linkonce_odr void @_ZN5folly24DefaultKeepAliveExecutor16keepAliveReleaseEv(ptr noundef nonnull align 8 dereferenceable(40) %this) unnamed_addr #1 comdat align 2 personality ptr @__gxx_personality_v0 {
entry:
  %controlBlock_ = getelementptr inbounds %"class.folly::DefaultKeepAliveExecutor", ptr %this, i64 0, i32 1
  %0 = load ptr, ptr %controlBlock_, align 8, !tbaa !18
  %1 = atomicrmw sub ptr %0, i64 1 acq_rel, align 8
  %cmp13 = icmp eq i64 %1, 1
  br i1 %cmp13, label %if.then, label %if.end

if.then:                                          ; preds = %entry
  %keepAliveReleaseBaton_ = getelementptr inbounds %"class.folly::DefaultKeepAliveExecutor", ptr %this, i64 0, i32 2
  %2 = load atomic i32, ptr %keepAliveReleaseBaton_ acquire, align 8
  switch i32 %2, label %if.end6.i [
    i32 0, label %land.lhs.true.i
    i32 4, label %if.end
  ]

land.lhs.true.i:                                  ; preds = %if.then
  %3 = cmpxchg ptr %keepAliveReleaseBaton_, i32 0, i32 1 release monotonic, align 4
  %4 = extractvalue { i32, i1 } %3, 1
  %5 = extractvalue { i32, i1 } %3, 0
  %cmp4.i = icmp eq i32 %5, 4
  %or.cond.i = select i1 %4, i1 true, i1 %cmp4.i
  br i1 %or.cond.i, label %if.end, label %if.end6.i

if.end6.i:                                        ; preds = %land.lhs.true.i, %if.then
  store atomic i32 3, ptr %keepAliveReleaseBaton_ release, align 8
  %call.i11.i = invoke noundef i32 @_ZN5folly6detail13futexWakeImplEPKSt6atomicIjEij(ptr noundef nonnull %keepAliveReleaseBaton_, i32 noundef 1, i32 noundef -1)
          to label %if.end unwind label %terminate.lpad.i

terminate.lpad.i:                                 ; preds = %if.end6.i
  %6 = landingpad { ptr, i32 }
          catch ptr null
  %7 = extractvalue { ptr, i32 } %6, 0
  tail call void @__clang_call_terminate(ptr %7) #39
  unreachable

if.end:                                           ; preds = %if.end6.i, %land.lhs.true.i, %if.then, %entry
  ret void
}

declare void @_ZN5folly18ThreadPoolExecutor3addENS_8FunctionIFvvEEENSt6chrono8durationIlSt5ratioILl1ELl1000EEEES3_(ptr noundef nonnull align 64 dereferenceable(481), ptr noundef, i64, ptr noundef) unnamed_addr #3

declare void @_ZN5folly18ThreadPoolExecutor11addObserverESt10shared_ptrINS0_8ObserverEE(ptr noundef nonnull align 64 dereferenceable(481), ptr noundef) unnamed_addr #3

declare void @_ZN5folly18ThreadPoolExecutor14removeObserverESt10shared_ptrINS0_8ObserverEE(ptr noundef nonnull align 64 dereferenceable(481), ptr noundef) unnamed_addr #3

; Function Attrs: mustprogress uwtable
define linkonce_odr void @_ZN5folly18ThreadPoolExecutor10makeThreadEv(ptr noalias sret(%"class.std::shared_ptr.0") align 8 %agg.result, ptr noundef nonnull align 64 dereferenceable(481) %this) unnamed_addr #2 comdat align 2 personality ptr @__gxx_personality_v0 {
entry:
  tail call void @llvm.experimental.noalias.scope.decl(metadata !21)
  store ptr null, ptr %agg.result, align 8, !tbaa !24, !alias.scope !21
  %call5.i.i.i17.i.i.i.i = tail call noalias noundef nonnull align 64 dereferenceable(128) ptr @_ZnwmSt11align_val_t(i64 noundef 128, i64 noundef 64) #41, !noalias !21
  call void @llvm.assume(i1 true) [ "align"(ptr %call5.i.i.i17.i.i.i.i, i64 64) ]
  %_M_use_count.i.i.i.i.i.i = getelementptr inbounds %"class.std::_Sp_counted_base", ptr %call5.i.i.i17.i.i.i.i, i64 0, i32 1
  store i32 1, ptr %_M_use_count.i.i.i.i.i.i, align 8, !tbaa !26, !noalias !21
  %_M_weak_count.i.i.i.i.i.i = getelementptr inbounds %"class.std::_Sp_counted_base", ptr %call5.i.i.i17.i.i.i.i, i64 0, i32 2
  store i32 1, ptr %_M_weak_count.i.i.i.i.i.i, align 4, !tbaa !28, !noalias !21
  store ptr getelementptr inbounds ({ [7 x ptr] }, ptr @_ZTVSt23_Sp_counted_ptr_inplaceIN5folly18ThreadPoolExecutor6ThreadESaIvELN9__gnu_cxx12_Lock_policyE2EE, i64 0, inrange i32 0, i64 2), ptr %call5.i.i.i17.i.i.i.i, align 64, !tbaa !29, !noalias !21
  %_M_impl.i.i.i.i.i.i = getelementptr inbounds %"class.std::_Sp_counted_ptr_inplace.508", ptr %call5.i.i.i17.i.i.i.i, i64 0, i32 2
  store ptr getelementptr inbounds ({ [4 x ptr] }, ptr @_ZTVN5folly18ThreadPoolExecutor6ThreadE, i64 0, inrange i32 0, i64 2), ptr %_M_impl.i.i.i.i.i.i, align 64, !tbaa !29, !noalias !21
  %id.i.i.i.i.i.i.i.i = getelementptr inbounds %"class.std::_Sp_counted_ptr_inplace.508", ptr %call5.i.i.i17.i.i.i.i, i64 0, i32 2, i32 0, i32 0, i32 0, i64 8
  %0 = atomicrmw add ptr @_ZN5folly18ThreadPoolExecutor6Thread6nextIdE, i64 1 seq_cst, align 8, !noalias !21
  store i64 %0, ptr %id.i.i.i.i.i.i.i.i, align 8, !tbaa !31, !noalias !21
  %handle.i.i.i.i.i.i.i.i = getelementptr inbounds %"class.std::_Sp_counted_ptr_inplace.508", ptr %call5.i.i.i17.i.i.i.i, i64 0, i32 2, i32 0, i32 0, i32 0, i64 16
  store i64 0, ptr %handle.i.i.i.i.i.i.i.i, align 16, !tbaa !47, !noalias !21
  %idle.i.i.i.i.i.i.i.i = getelementptr inbounds %"class.std::_Sp_counted_ptr_inplace.508", ptr %call5.i.i.i17.i.i.i.i, i64 0, i32 2, i32 0, i32 0, i32 0, i64 24
  store i8 1, ptr %idle.i.i.i.i.i.i.i.i, align 8, !tbaa !48, !noalias !21
  %lastActiveTime.i.i.i.i.i.i.i.i = getelementptr inbounds %"class.std::_Sp_counted_ptr_inplace.508", ptr %call5.i.i.i17.i.i.i.i, i64 0, i32 2, i32 0, i32 0, i32 0, i64 32
  %call2.i.i.i.i.i.i.i.i = tail call i64 @_ZNSt6chrono3_V212steady_clock3nowEv() #32, !noalias !21
  store i64 %call2.i.i.i.i.i.i.i.i, ptr %lastActiveTime.i.i.i.i.i.i.i.i, align 32, !tbaa !49, !noalias !21
  %startupBaton.i.i.i.i.i.i.i.i = getelementptr inbounds %"class.std::_Sp_counted_ptr_inplace.508", ptr %call5.i.i.i17.i.i.i.i, i64 0, i32 2, i32 0, i32 0, i32 0, i64 40
  store i32 0, ptr %startupBaton.i.i.i.i.i.i.i.i, align 8, !tbaa !50, !noalias !21
  %taskStatsCallbacks.i.i.i.i.i.i.i.i = getelementptr inbounds %"class.std::_Sp_counted_ptr_inplace.508", ptr %call5.i.i.i17.i.i.i.i, i64 0, i32 2, i32 0, i32 0, i32 0, i64 48
  %taskStatsCallbacks_.i.i.i.i.i.i.i.i = getelementptr inbounds %"class.folly::ThreadPoolExecutor", ptr %this, i64 0, i32 8
  %1 = load ptr, ptr %taskStatsCallbacks_.i.i.i.i.i.i.i.i, align 8, !tbaa !51, !noalias !21
  store ptr %1, ptr %taskStatsCallbacks.i.i.i.i.i.i.i.i, align 16, !tbaa !51, !noalias !21
  %_M_refcount.i.i.i.i.i.i.i.i.i.i = getelementptr inbounds %"class.std::_Sp_counted_ptr_inplace.508", ptr %call5.i.i.i17.i.i.i.i, i64 0, i32 2, i32 0, i32 0, i32 0, i64 56
  %_M_refcount3.i.i.i.i.i.i.i.i.i.i = getelementptr inbounds %"class.folly::ThreadPoolExecutor", ptr %this, i64 0, i32 8, i32 0, i32 1
  %2 = load ptr, ptr %_M_refcount3.i.i.i.i.i.i.i.i.i.i, align 16, !tbaa !52, !noalias !21
  store ptr %2, ptr %_M_refcount.i.i.i.i.i.i.i.i.i.i, align 8, !tbaa !52, !noalias !21
  %cmp.not.i.i.i.i.i.i.i.i.i.i.i = icmp eq ptr %2, null
  br i1 %cmp.not.i.i.i.i.i.i.i.i.i.i.i, label %_ZSt11make_sharedIN5folly18ThreadPoolExecutor6ThreadEJPS1_EESt10shared_ptrINSt9enable_ifIXntsr8is_arrayIT_EE5valueES6_E4typeEEDpOT0_.exit, label %if.then.i.i.i.i.i.i.i.i.i.i.i

if.then.i.i.i.i.i.i.i.i.i.i.i:                    ; preds = %entry
  %_M_use_count.i.i.i.i.i.i.i.i.i.i.i.i = getelementptr inbounds %"class.std::_Sp_counted_base", ptr %2, i64 0, i32 1
  %3 = load i8, ptr @__libc_single_threaded, align 1, !tbaa !53, !noalias !21
  %tobool.i.i.not.i.i.i.i.i.i.i.i.i.i.i.i = icmp eq i8 %3, 0
  br i1 %tobool.i.i.not.i.i.i.i.i.i.i.i.i.i.i.i, label %if.else.i.i.i.i.i.i.i.i.i.i.i.i.i, label %if.then.i.i.i.i.i.i.i.i.i.i.i.i.i

if.then.i.i.i.i.i.i.i.i.i.i.i.i.i:                ; preds = %if.then.i.i.i.i.i.i.i.i.i.i.i
  %4 = load i32, ptr %_M_use_count.i.i.i.i.i.i.i.i.i.i.i.i, align 4, !tbaa !54, !noalias !21
  %add.i.i.i.i.i.i.i.i.i.i.i.i.i = add nsw i32 %4, 1
  store i32 %add.i.i.i.i.i.i.i.i.i.i.i.i.i, ptr %_M_use_count.i.i.i.i.i.i.i.i.i.i.i.i, align 4, !tbaa !54, !noalias !21
  br label %_ZSt11make_sharedIN5folly18ThreadPoolExecutor6ThreadEJPS1_EESt10shared_ptrINSt9enable_ifIXntsr8is_arrayIT_EE5valueES6_E4typeEEDpOT0_.exit

if.else.i.i.i.i.i.i.i.i.i.i.i.i.i:                ; preds = %if.then.i.i.i.i.i.i.i.i.i.i.i
  %5 = atomicrmw volatile add ptr %_M_use_count.i.i.i.i.i.i.i.i.i.i.i.i, i32 1 acq_rel, align 4, !noalias !21
  br label %_ZSt11make_sharedIN5folly18ThreadPoolExecutor6ThreadEJPS1_EESt10shared_ptrINSt9enable_ifIXntsr8is_arrayIT_EE5valueES6_E4typeEEDpOT0_.exit

_ZSt11make_sharedIN5folly18ThreadPoolExecutor6ThreadEJPS1_EESt10shared_ptrINSt9enable_ifIXntsr8is_arrayIT_EE5valueES6_E4typeEEDpOT0_.exit: ; preds = %if.else.i.i.i.i.i.i.i.i.i.i.i.i.i, %if.then.i.i.i.i.i.i.i.i.i.i.i.i.i, %entry
  %_M_refcount.i.i.i = getelementptr inbounds %"class.std::__shared_ptr.1", ptr %agg.result, i64 0, i32 1
  store ptr %call5.i.i.i17.i.i.i.i, ptr %_M_refcount.i.i.i, align 8, !tbaa !52, !alias.scope !21
  store ptr %_M_impl.i.i.i.i.i.i, ptr %agg.result, align 8, !tbaa !55, !alias.scope !21
  ret void
}

; Function Attrs: mustprogress nounwind uwtable
define linkonce_odr void @_ZN5folly18ThreadPoolExecutor28handleObserverRegisterThreadEPNS0_12ThreadHandleERNS0_8ObserverE(ptr noundef nonnull align 64 dereferenceable(481) %this, ptr noundef %0, ptr noundef nonnull align 8 dereferenceable(8) %1) unnamed_addr #1 comdat align 2 {
entry:
  ret void
}

; Function Attrs: mustprogress nounwind uwtable
define linkonce_odr void @_ZN5folly18ThreadPoolExecutor30handleObserverUnregisterThreadEPNS0_12ThreadHandleERNS0_8ObserverE(ptr noundef nonnull align 64 dereferenceable(481) %this, ptr noundef %0, ptr noundef nonnull align 8 dereferenceable(8) %1) unnamed_addr #1 comdat align 2 {
entry:
  ret void
}

; Function Attrs: nounwind uwtable
define linkonce_odr void @_ZThn488_N5folly24IOThreadPoolExecutorBaseD1Ev(ptr noundef %this) unnamed_addr #4 comdat align 2 {
entry:
  tail call void @llvm.trap() #39
  unreachable
}

; Function Attrs: nounwind uwtable
define linkonce_odr void @_ZThn488_N5folly24IOThreadPoolExecutorBaseD0Ev(ptr noundef %this) unnamed_addr #4 comdat align 2 {
entry:
  tail call void @llvm.trap() #39
  unreachable
}

; Function Attrs: nounwind
declare void @_ZN5folly18ThreadPoolExecutorD1Ev(ptr noundef nonnull align 64 dereferenceable(481)) unnamed_addr #5

; Function Attrs: nounwind
declare void @_ZN5folly18ThreadPoolExecutorD0Ev(ptr noundef nonnull align 64 dereferenceable(481)) unnamed_addr #5

; Function Attrs: mustprogress nounwind uwtable
define linkonce_odr void @_ZN5folly24DefaultKeepAliveExecutorD1Ev(ptr noundef nonnull align 8 dereferenceable(40) %this) unnamed_addr #1 comdat align 2 {
entry:
  tail call void @llvm.trap() #39
  unreachable
}

; Function Attrs: mustprogress nounwind uwtable
define linkonce_odr void @_ZN5folly24DefaultKeepAliveExecutorD0Ev(ptr noundef nonnull align 8 dereferenceable(40) %this) unnamed_addr #1 comdat align 2 {
entry:
  tail call void @llvm.trap() #39
  unreachable
}

; Function Attrs: mustprogress nounwind uwtable
define linkonce_odr void @_ZN5folly10IOExecutorD1Ev(ptr noundef nonnull align 8 dereferenceable(8) %this) unnamed_addr #1 comdat align 2 {
entry:
  tail call void @llvm.trap() #39
  unreachable
}

; Function Attrs: mustprogress nounwind uwtable
define linkonce_odr void @_ZN5folly10IOExecutorD0Ev(ptr noundef nonnull align 8 dereferenceable(8) %this) unnamed_addr #1 comdat align 2 {
entry:
  tail call void @llvm.trap() #39
  unreachable
}

; Function Attrs: nounwind uwtable
define linkonce_odr void @_ZTv0_n24_N5folly10IOExecutorD1Ev(ptr noundef %this) unnamed_addr #4 comdat align 2 {
entry:
  tail call void @llvm.trap() #39
  unreachable
}

; Function Attrs: nounwind uwtable
define linkonce_odr void @_ZTv0_n24_N5folly10IOExecutorD0Ev(ptr noundef %this) unnamed_addr #4 comdat align 2 {
entry:
  tail call void @llvm.trap() #39
  unreachable
}

; Function Attrs: nounwind
declare noundef zeroext i1 @_ZN5folly8Executor16keepAliveAcquireEv(ptr noundef nonnull align 8 dereferenceable(8)) unnamed_addr #5

; Function Attrs: nounwind
declare void @_ZN5folly8Executor16keepAliveReleaseEv(ptr noundef nonnull align 8 dereferenceable(8)) unnamed_addr #5

; Function Attrs: mustprogress nounwind uwtable
define void @_ZN5folly23MuxIOThreadPoolExecutorD1Ev(ptr noundef nonnull align 64 dereferenceable(768) %this) unnamed_addr #1 align 2 {
entry:
  tail call void @_ZN5folly23MuxIOThreadPoolExecutorD2Ev(ptr noundef nonnull align 64 dereferenceable(768) %this, ptr noundef nonnull @_ZTTN5folly23MuxIOThreadPoolExecutorE) #32
  ret void
}

; Function Attrs: mustprogress nounwind uwtable
define void @_ZN5folly23MuxIOThreadPoolExecutorD0Ev(ptr noundef nonnull align 64 dereferenceable(768) %this) unnamed_addr #1 align 2 {
entry:
  tail call void @_ZN5folly23MuxIOThreadPoolExecutorD2Ev(ptr noundef nonnull align 64 dereferenceable(768) %this, ptr noundef nonnull @_ZTTN5folly23MuxIOThreadPoolExecutorE) #32
  tail call void @_ZdlPvSt11align_val_t(ptr noundef nonnull %this, i64 noundef 64) #40
  ret void
}

; Function Attrs: mustprogress uwtable
define void @_ZN5folly23MuxIOThreadPoolExecutor3addENS_8FunctionIFvvEEE(ptr noundef nonnull align 64 dereferenceable(768) %this, ptr noundef %func) unnamed_addr #2 align 2 personality ptr @__gxx_personality_v0 {
entry:
  %agg.tmp = alloca %"class.folly::Function", align 16
  %agg.tmp3 = alloca %"class.folly::Function", align 16
  store ptr null, ptr %agg.tmp, align 16, !tbaa !53
  %call_.i = getelementptr inbounds %"class.folly::Function", ptr %agg.tmp, i64 0, i32 1
  %call_2.i = getelementptr inbounds %"class.folly::Function", ptr %func, i64 0, i32 1
  %0 = load ptr, ptr %call_2.i, align 16, !tbaa !56
  store ptr %0, ptr %call_.i, align 16, !tbaa !56
  %exec_.i = getelementptr inbounds %"class.folly::Function", ptr %agg.tmp, i64 0, i32 2
  %exec_3.i = getelementptr inbounds %"class.folly::Function", ptr %func, i64 0, i32 2
  %1 = load ptr, ptr %exec_3.i, align 8, !tbaa !58
  store ptr %1, ptr %exec_.i, align 8, !tbaa !58
  store ptr @_ZN5folly6detail8function14FunctionTraitsIFvvEE10uninitCallERNS1_4DataE, ptr %call_2.i, align 16, !tbaa !56
  store ptr null, ptr %exec_3.i, align 8, !tbaa !58
  %tobool.not.i.i = icmp eq ptr %1, null
  br i1 %tobool.not.i.i, label %_ZN5folly8FunctionIFvvEEC2EOS2_.exit, label %if.end.i.i

if.end.i.i:                                       ; preds = %entry
  %call.i.i = call noundef i64 %1(i32 noundef 0, ptr noundef nonnull %func, ptr noundef nonnull %agg.tmp) #32
  br label %_ZN5folly8FunctionIFvvEEC2EOS2_.exit

_ZN5folly8FunctionIFvvEEC2EOS2_.exit:             ; preds = %if.end.i.i, %entry
  store ptr null, ptr %agg.tmp3, align 16, !tbaa !53
  %call_.i8 = getelementptr inbounds %"class.folly::Function", ptr %agg.tmp3, i64 0, i32 1
  store ptr @_ZN5folly6detail8function14FunctionTraitsIFvvEE10uninitCallERNS1_4DataE, ptr %call_.i8, align 16, !tbaa !56
  %exec_.i9 = getelementptr inbounds %"class.folly::Function", ptr %agg.tmp3, i64 0, i32 2
  store ptr null, ptr %exec_.i9, align 8, !tbaa !58
  %vtable = load ptr, ptr %this, align 64, !tbaa !29
  %vfn = getelementptr inbounds ptr, ptr %vtable, i64 7
  %2 = load ptr, ptr %vfn, align 8
  invoke void %2(ptr noundef nonnull align 64 dereferenceable(768) %this, ptr noundef nonnull %agg.tmp, i64 0, ptr noundef nonnull %agg.tmp3)
          to label %invoke.cont5 unwind label %lpad4

invoke.cont5:                                     ; preds = %_ZN5folly8FunctionIFvvEEC2EOS2_.exit
  %3 = load ptr, ptr %exec_.i9, align 8, !tbaa !58
  %tobool.not.i.i10 = icmp eq ptr %3, null
  br i1 %tobool.not.i.i10, label %_ZN5folly8FunctionIFvvEED2Ev.exit, label %if.end.i.i11

if.end.i.i11:                                     ; preds = %invoke.cont5
  %call.i.i12 = call noundef i64 %3(i32 noundef 1, ptr noundef nonnull %agg.tmp3, ptr noundef null) #32
  br label %_ZN5folly8FunctionIFvvEED2Ev.exit

_ZN5folly8FunctionIFvvEED2Ev.exit:                ; preds = %if.end.i.i11, %invoke.cont5
  %4 = load ptr, ptr %exec_.i, align 8, !tbaa !58
  %tobool.not.i.i14 = icmp eq ptr %4, null
  br i1 %tobool.not.i.i14, label %_ZN5folly8FunctionIFvvEED2Ev.exit17, label %if.end.i.i15

if.end.i.i15:                                     ; preds = %_ZN5folly8FunctionIFvvEED2Ev.exit
  %call.i.i16 = call noundef i64 %4(i32 noundef 1, ptr noundef nonnull %agg.tmp, ptr noundef null) #32
  br label %_ZN5folly8FunctionIFvvEED2Ev.exit17

_ZN5folly8FunctionIFvvEED2Ev.exit17:              ; preds = %if.end.i.i15, %_ZN5folly8FunctionIFvvEED2Ev.exit
  ret void

lpad4:                                            ; preds = %_ZN5folly8FunctionIFvvEEC2EOS2_.exit
  %5 = landingpad { ptr, i32 }
          cleanup
  %6 = load ptr, ptr %exec_.i9, align 8, !tbaa !58
  %tobool.not.i.i19 = icmp eq ptr %6, null
  br i1 %tobool.not.i.i19, label %_ZN5folly8FunctionIFvvEED2Ev.exit22, label %if.end.i.i20

if.end.i.i20:                                     ; preds = %lpad4
  %call.i.i21 = call noundef i64 %6(i32 noundef 1, ptr noundef nonnull %agg.tmp3, ptr noundef null) #32
  br label %_ZN5folly8FunctionIFvvEED2Ev.exit22

_ZN5folly8FunctionIFvvEED2Ev.exit22:              ; preds = %if.end.i.i20, %lpad4
  %7 = load ptr, ptr %exec_.i, align 8, !tbaa !58
  %tobool.not.i.i24 = icmp eq ptr %7, null
  br i1 %tobool.not.i.i24, label %_ZN5folly8FunctionIFvvEED2Ev.exit27, label %if.end.i.i25

if.end.i.i25:                                     ; preds = %_ZN5folly8FunctionIFvvEED2Ev.exit22
  %call.i.i26 = call noundef i64 %7(i32 noundef 1, ptr noundef nonnull %agg.tmp, ptr noundef null) #32
  br label %_ZN5folly8FunctionIFvvEED2Ev.exit27

_ZN5folly8FunctionIFvvEED2Ev.exit27:              ; preds = %if.end.i.i25, %_ZN5folly8FunctionIFvvEED2Ev.exit22
  resume { ptr, i32 } %5
}

; Function Attrs: mustprogress uwtable
define void @_ZN5folly23MuxIOThreadPoolExecutor3addENS_8FunctionIFvvEEENSt6chrono8durationIlSt5ratioILl1ELl1000EEEES3_(ptr noundef nonnull align 64 dereferenceable(768) %this, ptr noundef nonnull %func, i64 %expiration.coerce, ptr noundef nonnull %expireCallback) unnamed_addr #2 align 2 personality ptr @__gxx_personality_v0 {
entry:
  %task = alloca %"struct.folly::ThreadPoolExecutor::Task", align 16
  %wrappedFunc = alloca %class.anon.440, align 16
  %agg.tmp4 = alloca %"class.folly::Function", align 16
  %agg.tmp5 = alloca %class.anon.440, align 16
  %evbs_.i = getelementptr inbounds %"class.folly::MuxIOThreadPoolExecutor", ptr %this, i64 0, i32 7
  %nextEVB_.i = getelementptr inbounds %"class.folly::MuxIOThreadPoolExecutor", ptr %this, i64 0, i32 2
  %0 = atomicrmw add ptr %nextEVB_.i, i64 1 monotonic, align 8
  %_M_finish.i.i = getelementptr inbounds %"class.folly::MuxIOThreadPoolExecutor", ptr %this, i64 0, i32 7, i32 0, i32 0, i32 0, i32 1
  %1 = load ptr, ptr %_M_finish.i.i, align 8, !tbaa !59
  %2 = load ptr, ptr %evbs_.i, align 32, !tbaa !61
  %sub.ptr.lhs.cast.i.i = ptrtoint ptr %1 to i64
  %sub.ptr.rhs.cast.i.i = ptrtoint ptr %2 to i64
  %sub.ptr.sub.i.i = sub i64 %sub.ptr.lhs.cast.i.i, %sub.ptr.rhs.cast.i.i
  %sub.ptr.div.i.i = ashr exact i64 %sub.ptr.sub.i.i, 3
  %rem.i = urem i64 %0, %sub.ptr.div.i.i
  %add.ptr.i.i = getelementptr inbounds %"class.std::unique_ptr.151", ptr %2, i64 %rem.i
  %3 = load ptr, ptr %add.ptr.i.i, align 8, !tbaa !55
  call void @llvm.lifetime.start.p0(i64 96, ptr nonnull %task) #32
  call void @_ZN5folly18ThreadPoolExecutor4TaskC1EONS_8FunctionIFvvEEENSt6chrono8durationIlSt5ratioILl1ELl1000EEEES5_(ptr noundef nonnull align 16 dereferenceable(96) %task, ptr noundef nonnull align 16 dereferenceable(64) %func, i64 %expiration.coerce, ptr noundef nonnull align 16 dereferenceable(64) %expireCallback)
  call void @llvm.lifetime.start.p0(i64 112, ptr nonnull %wrappedFunc) #32
  store ptr %this, ptr %wrappedFunc, align 16, !tbaa !62
  %4 = getelementptr inbounds %class.anon.440, ptr %wrappedFunc, i64 0, i32 2
  store ptr null, ptr %4, align 16, !tbaa !53
  %call_.i.i = getelementptr inbounds %class.anon.440, ptr %wrappedFunc, i64 0, i32 2, i32 0, i32 1
  %call_2.i.i = getelementptr inbounds %"class.folly::Function", ptr %task, i64 0, i32 1
  %5 = load ptr, ptr %call_2.i.i, align 16, !tbaa !56
  store ptr %5, ptr %call_.i.i, align 16, !tbaa !56
  %exec_.i.i = getelementptr inbounds %class.anon.440, ptr %wrappedFunc, i64 0, i32 2, i32 0, i32 2
  %exec_3.i.i = getelementptr inbounds %"class.folly::Function", ptr %task, i64 0, i32 2
  %6 = load ptr, ptr %exec_3.i.i, align 8, !tbaa !58
  store ptr %6, ptr %exec_.i.i, align 8, !tbaa !58
  store ptr @_ZN5folly6detail8function14FunctionTraitsIFvvEE10uninitCallERNS1_4DataE, ptr %call_2.i.i, align 16, !tbaa !56
  store ptr null, ptr %exec_3.i.i, align 8, !tbaa !58
  %tobool.not.i.i.i = icmp eq ptr %6, null
  br i1 %tobool.not.i.i.i, label %_ZN5folly18ThreadPoolExecutor4TaskC2EOS1_.exit, label %if.end.i.i.i

if.end.i.i.i:                                     ; preds = %entry
  %call.i.i.i = call noundef i64 %6(i32 noundef 0, ptr noundef nonnull %task, ptr noundef nonnull %4) #32
  br label %_ZN5folly18ThreadPoolExecutor4TaskC2EOS1_.exit

_ZN5folly18ThreadPoolExecutor4TaskC2EOS1_.exit:   ; preds = %if.end.i.i.i, %entry
  %enqueueTime_.i = getelementptr inbounds %class.anon.440, ptr %wrappedFunc, i64 0, i32 2, i32 1
  %enqueueTime_3.i = getelementptr inbounds %"struct.folly::ThreadPoolExecutor::Task", ptr %task, i64 0, i32 1
  %7 = load i64, ptr %enqueueTime_3.i, align 16, !tbaa !75
  store i64 %7, ptr %enqueueTime_.i, align 16, !tbaa !75
  %context_.i = getelementptr inbounds %class.anon.440, ptr %wrappedFunc, i64 0, i32 2, i32 2
  %context_4.i = getelementptr inbounds %"struct.folly::ThreadPoolExecutor::Task", ptr %task, i64 0, i32 2
  %_M_refcount.i.i.i = getelementptr inbounds %class.anon.440, ptr %wrappedFunc, i64 0, i32 2, i32 2, i32 0, i32 1
  %_M_refcount4.i.i.i = getelementptr inbounds %"struct.folly::ThreadPoolExecutor::Task", ptr %task, i64 0, i32 2, i32 0, i32 1
  %8 = load <2 x ptr>, ptr %context_4.i, align 8, !tbaa !55
  store ptr null, ptr %_M_refcount4.i.i.i, align 16, !tbaa !52
  store <2 x ptr> %8, ptr %context_.i, align 8, !tbaa !55
  store ptr null, ptr %context_4.i, align 8, !tbaa !76
  %expiration_.i = getelementptr inbounds %class.anon.440, ptr %wrappedFunc, i64 0, i32 2, i32 3
  %expiration_5.i = getelementptr inbounds %"struct.folly::ThreadPoolExecutor::Task", ptr %task, i64 0, i32 3
  %9 = load i64, ptr %expiration_5.i, align 8, !tbaa !55
  store i64 %9, ptr %expiration_.i, align 8, !tbaa !55
  store ptr null, ptr %expiration_5.i, align 8, !tbaa !55
  %pendingTasks_ = getelementptr inbounds %"class.folly::MuxIOThreadPoolExecutor", ptr %this, i64 0, i32 11
  %10 = atomicrmw add ptr %pendingTasks_, i64 1 seq_cst, align 8
  %11 = load ptr, ptr %wrappedFunc, align 16, !tbaa !62
  store ptr %11, ptr %agg.tmp5, align 16, !tbaa !62
  %12 = getelementptr inbounds %class.anon.440, ptr %agg.tmp5, i64 0, i32 2
  store ptr null, ptr %12, align 16, !tbaa !53
  %call_.i.i.i = getelementptr inbounds %class.anon.440, ptr %agg.tmp5, i64 0, i32 2, i32 0, i32 1
  %13 = load ptr, ptr %call_.i.i, align 16, !tbaa !56
  store ptr %13, ptr %call_.i.i.i, align 16, !tbaa !56
  %exec_.i.i.i = getelementptr inbounds %class.anon.440, ptr %agg.tmp5, i64 0, i32 2, i32 0, i32 2
  %14 = load ptr, ptr %exec_.i.i, align 8, !tbaa !58
  store ptr %14, ptr %exec_.i.i.i, align 8, !tbaa !58
  store ptr @_ZN5folly6detail8function14FunctionTraitsIFvvEE10uninitCallERNS1_4DataE, ptr %call_.i.i, align 16, !tbaa !56
  store ptr null, ptr %exec_.i.i, align 8, !tbaa !58
  %tobool.not.i.i.i.i = icmp eq ptr %14, null
  br i1 %tobool.not.i.i.i.i, label %"_ZZN5folly23MuxIOThreadPoolExecutor3addENS_8FunctionIFvvEEENSt6chrono8durationIlSt5ratioILl1ELl1000EEEES3_EN3$_0C2EOS9_.exit", label %if.end.i.i.i.i

if.end.i.i.i.i:                                   ; preds = %_ZN5folly18ThreadPoolExecutor4TaskC2EOS1_.exit
  %call.i.i.i.i = call noundef i64 %14(i32 noundef 0, ptr noundef nonnull %4, ptr noundef nonnull %12) #32
  br label %"_ZZN5folly23MuxIOThreadPoolExecutor3addENS_8FunctionIFvvEEENSt6chrono8durationIlSt5ratioILl1ELl1000EEEES3_EN3$_0C2EOS9_.exit"

"_ZZN5folly23MuxIOThreadPoolExecutor3addENS_8FunctionIFvvEEENSt6chrono8durationIlSt5ratioILl1ELl1000EEEES3_EN3$_0C2EOS9_.exit": ; preds = %if.end.i.i.i.i, %_ZN5folly18ThreadPoolExecutor4TaskC2EOS1_.exit
  %enqueueTime_.i.i = getelementptr inbounds %class.anon.440, ptr %agg.tmp5, i64 0, i32 2, i32 1
  %15 = load i64, ptr %enqueueTime_.i, align 16, !tbaa !75
  store i64 %15, ptr %enqueueTime_.i.i, align 16, !tbaa !75
  %context_.i.i = getelementptr inbounds %class.anon.440, ptr %agg.tmp5, i64 0, i32 2, i32 2
  %16 = load ptr, ptr %context_.i, align 8, !tbaa !76
  store ptr %16, ptr %context_.i.i, align 8, !tbaa !76
  %_M_refcount.i.i.i.i = getelementptr inbounds %class.anon.440, ptr %agg.tmp5, i64 0, i32 2, i32 2, i32 0, i32 1
  %17 = load ptr, ptr %_M_refcount.i.i.i, align 16, !tbaa !52
  store ptr null, ptr %_M_refcount.i.i.i, align 16, !tbaa !52
  store ptr %17, ptr %_M_refcount.i.i.i.i, align 16, !tbaa !52
  store ptr null, ptr %context_.i, align 8, !tbaa !76
  %expiration_.i.i = getelementptr inbounds %class.anon.440, ptr %agg.tmp5, i64 0, i32 2, i32 3
  %18 = load i64, ptr %expiration_.i, align 8, !tbaa !55
  store i64 %18, ptr %expiration_.i.i, align 8, !tbaa !55
  store ptr null, ptr %expiration_.i, align 8, !tbaa !55
  store ptr null, ptr %agg.tmp4, align 16, !tbaa !53
  %call_.i = getelementptr inbounds %"class.folly::Function", ptr %agg.tmp4, i64 0, i32 1
  store ptr @_ZN5folly6detail8function14FunctionTraitsIFvvEE10uninitCallERNS1_4DataE, ptr %call_.i, align 16, !tbaa !56
  %exec_.i = getelementptr inbounds %"class.folly::Function", ptr %agg.tmp4, i64 0, i32 2
  store ptr null, ptr %exec_.i, align 8, !tbaa !58
  %call2.i7 = invoke noalias noundef nonnull dereferenceable(112) ptr @_Znwm(i64 noundef 112) #41
          to label %call2.i.noexc unwind label %lpad

call2.i.noexc:                                    ; preds = %"_ZZN5folly23MuxIOThreadPoolExecutor3addENS_8FunctionIFvvEEENSt6chrono8durationIlSt5ratioILl1ELl1000EEEES3_EN3$_0C2EOS9_.exit"
  %19 = load ptr, ptr %agg.tmp5, align 16, !tbaa !62
  store ptr %19, ptr %call2.i7, align 16, !tbaa !62
  %20 = getelementptr inbounds %class.anon.440, ptr %call2.i7, i64 0, i32 2
  store ptr null, ptr %20, align 16, !tbaa !53
  %call_.i.i.i.i = getelementptr inbounds %class.anon.440, ptr %call2.i7, i64 0, i32 2, i32 0, i32 1
  %21 = load ptr, ptr %call_.i.i.i, align 16, !tbaa !56
  store ptr %21, ptr %call_.i.i.i.i, align 16, !tbaa !56
  %exec_.i.i.i.i = getelementptr inbounds %class.anon.440, ptr %call2.i7, i64 0, i32 2, i32 0, i32 2
  %22 = load ptr, ptr %exec_.i.i.i, align 8, !tbaa !58
  store ptr %22, ptr %exec_.i.i.i.i, align 8, !tbaa !58
  store ptr @_ZN5folly6detail8function14FunctionTraitsIFvvEE10uninitCallERNS1_4DataE, ptr %call_.i.i.i, align 16, !tbaa !56
  store ptr null, ptr %exec_.i.i.i, align 8, !tbaa !58
  %tobool.not.i.i.i.i.i = icmp eq ptr %22, null
  br i1 %tobool.not.i.i.i.i.i, label %invoke.cont, label %if.end.i.i.i.i.i

if.end.i.i.i.i.i:                                 ; preds = %call2.i.noexc
  %call.i.i.i.i.i = call noundef i64 %22(i32 noundef 0, ptr noundef nonnull %12, ptr noundef nonnull %20) #32
  %.pre = load i64, ptr %enqueueTime_.i.i, align 16, !tbaa !75
  %.pre61 = load ptr, ptr %context_.i.i, align 8, !tbaa !76
  %.pre62 = load ptr, ptr %_M_refcount.i.i.i.i, align 16, !tbaa !52
  %.pre63 = load i64, ptr %expiration_.i.i, align 8, !tbaa !55
  br label %invoke.cont

invoke.cont:                                      ; preds = %if.end.i.i.i.i.i, %call2.i.noexc
  %23 = phi i64 [ %.pre63, %if.end.i.i.i.i.i ], [ %18, %call2.i.noexc ]
  %24 = phi ptr [ %.pre62, %if.end.i.i.i.i.i ], [ %17, %call2.i.noexc ]
  %25 = phi ptr [ %.pre61, %if.end.i.i.i.i.i ], [ %16, %call2.i.noexc ]
  %26 = phi i64 [ %.pre, %if.end.i.i.i.i.i ], [ %15, %call2.i.noexc ]
  %enqueueTime_.i.i.i = getelementptr inbounds %class.anon.440, ptr %call2.i7, i64 0, i32 2, i32 1
  store i64 %26, ptr %enqueueTime_.i.i.i, align 16, !tbaa !75
  %context_.i.i.i = getelementptr inbounds %class.anon.440, ptr %call2.i7, i64 0, i32 2, i32 2
  store ptr %25, ptr %context_.i.i.i, align 8, !tbaa !76
  %_M_refcount.i.i.i.i.i = getelementptr inbounds %class.anon.440, ptr %call2.i7, i64 0, i32 2, i32 2, i32 0, i32 1
  store ptr null, ptr %_M_refcount.i.i.i.i, align 16, !tbaa !52
  store ptr %24, ptr %_M_refcount.i.i.i.i.i, align 8, !tbaa !52
  store ptr null, ptr %context_.i.i, align 8, !tbaa !76
  %expiration_.i.i.i = getelementptr inbounds %class.anon.440, ptr %call2.i7, i64 0, i32 2, i32 3
  store i64 %23, ptr %expiration_.i.i.i, align 8, !tbaa !55
  store ptr null, ptr %expiration_.i.i, align 8, !tbaa !55
  store ptr %call2.i7, ptr %agg.tmp4, align 16, !tbaa !53
  store ptr @"_ZN5folly6detail8function14FunctionTraitsIFvvEE7callBigIZNS_23MuxIOThreadPoolExecutor3addENS_8FunctionIS3_EENSt6chrono8durationIlSt5ratioILl1ELl1000EEEES8_E3$_0EEvRNS1_4DataE", ptr %call_.i, align 16, !tbaa !56
  store ptr @"_ZN5folly6detail8function11DispatchBig4execIZNS_23MuxIOThreadPoolExecutor3addENS_8FunctionIFvvEEENSt6chrono8durationIlSt5ratioILl1ELl1000EEEES7_E3$_0EEmNS1_2OpEPNS1_4DataESG_", ptr %exec_.i, align 8, !tbaa !58
  call void @_ZN5folly9EventBase20runInEventBaseThreadENS_8FunctionIFvvEEE(ptr noundef nonnull align 16 dereferenceable(584) %3, ptr noundef nonnull %agg.tmp4) #32
  %27 = load ptr, ptr %exec_.i, align 8, !tbaa !58
  %tobool.not.i.i = icmp eq ptr %27, null
  br i1 %tobool.not.i.i, label %_ZN5folly8FunctionIFvvEED2Ev.exit, label %if.end.i.i

if.end.i.i:                                       ; preds = %invoke.cont
  %call.i.i = call noundef i64 %27(i32 noundef 1, ptr noundef nonnull %agg.tmp4, ptr noundef null) #32
  br label %_ZN5folly8FunctionIFvvEED2Ev.exit

_ZN5folly8FunctionIFvvEED2Ev.exit:                ; preds = %if.end.i.i, %invoke.cont
  %28 = load ptr, ptr %expiration_.i.i, align 8, !tbaa !55
  %cmp.not.i.i.i = icmp eq ptr %28, null
  br i1 %cmp.not.i.i.i, label %_ZNSt10unique_ptrIN5folly18ThreadPoolExecutor4Task10ExpirationESt14default_deleteIS3_EED2Ev.exit.i.i, label %delete.notnull.i.i.i.i

delete.notnull.i.i.i.i:                           ; preds = %_ZN5folly8FunctionIFvvEED2Ev.exit
  %exec_.i.i.i.i.i.i.i = getelementptr inbounds %"struct.folly::ThreadPoolExecutor::Task::Expiration", ptr %28, i64 0, i32 2, i32 2
  %29 = load ptr, ptr %exec_.i.i.i.i.i.i.i, align 8, !tbaa !58
  %tobool.not.i.i.i.i.i.i.i = icmp eq ptr %29, null
  br i1 %tobool.not.i.i.i.i.i.i.i, label %_ZNKSt14default_deleteIN5folly18ThreadPoolExecutor4Task10ExpirationEEclEPS3_.exit.i.i.i, label %if.end.i.i.i.i.i.i.i

if.end.i.i.i.i.i.i.i:                             ; preds = %delete.notnull.i.i.i.i
  %expireCallback.i.i.i.i.i = getelementptr inbounds %"struct.folly::ThreadPoolExecutor::Task::Expiration", ptr %28, i64 0, i32 2
  %call.i.i.i.i.i.i.i = call noundef i64 %29(i32 noundef 1, ptr noundef nonnull %expireCallback.i.i.i.i.i, ptr noundef null) #32
  br label %_ZNKSt14default_deleteIN5folly18ThreadPoolExecutor4Task10ExpirationEEclEPS3_.exit.i.i.i

_ZNKSt14default_deleteIN5folly18ThreadPoolExecutor4Task10ExpirationEEclEPS3_.exit.i.i.i: ; preds = %if.end.i.i.i.i.i.i.i, %delete.notnull.i.i.i.i
  call void @_ZdlPv(ptr noundef nonnull %28) #40
  br label %_ZNSt10unique_ptrIN5folly18ThreadPoolExecutor4Task10ExpirationESt14default_deleteIS3_EED2Ev.exit.i.i

_ZNSt10unique_ptrIN5folly18ThreadPoolExecutor4Task10ExpirationESt14default_deleteIS3_EED2Ev.exit.i.i: ; preds = %_ZNKSt14default_deleteIN5folly18ThreadPoolExecutor4Task10ExpirationEEclEPS3_.exit.i.i.i, %_ZN5folly8FunctionIFvvEED2Ev.exit
  store ptr null, ptr %expiration_.i.i, align 8, !tbaa !55
  %30 = load ptr, ptr %_M_refcount.i.i.i.i, align 16, !tbaa !52
  %cmp.not.i.i.i.i = icmp eq ptr %30, null
  br i1 %cmp.not.i.i.i.i, label %_ZNSt12__shared_ptrIN5folly14RequestContextELN9__gnu_cxx12_Lock_policyE2EED2Ev.exit.i.i, label %if.then.i.i.i.i

if.then.i.i.i.i:                                  ; preds = %_ZNSt10unique_ptrIN5folly18ThreadPoolExecutor4Task10ExpirationESt14default_deleteIS3_EED2Ev.exit.i.i
  %_M_use_count.i.i.i.i.i = getelementptr inbounds %"class.std::_Sp_counted_base", ptr %30, i64 0, i32 1
  %31 = load atomic i64, ptr %_M_use_count.i.i.i.i.i acquire, align 8
  %cmp.i.i.i.i.i = icmp eq i64 %31, 4294967297
  %32 = trunc i64 %31 to i32
  br i1 %cmp.i.i.i.i.i, label %if.then.i.i.i.i.i, label %if.end.i.i.i.i.i11

if.then.i.i.i.i.i:                                ; preds = %if.then.i.i.i.i
  store i32 0, ptr %_M_use_count.i.i.i.i.i, align 8, !tbaa !26
  %_M_weak_count.i.i.i.i.i = getelementptr inbounds %"class.std::_Sp_counted_base", ptr %30, i64 0, i32 2
  store i32 0, ptr %_M_weak_count.i.i.i.i.i, align 4, !tbaa !28
  %vtable.i.i.i.i.i = load ptr, ptr %30, align 8, !tbaa !29
  %vfn.i.i.i.i.i = getelementptr inbounds ptr, ptr %vtable.i.i.i.i.i, i64 2
  %33 = load ptr, ptr %vfn.i.i.i.i.i, align 8
  call void %33(ptr noundef nonnull align 8 dereferenceable(16) %30) #32
  %vtable3.i.i.i.i.i = load ptr, ptr %30, align 8, !tbaa !29
  %vfn4.i.i.i.i.i = getelementptr inbounds ptr, ptr %vtable3.i.i.i.i.i, i64 3
  %34 = load ptr, ptr %vfn4.i.i.i.i.i, align 8
  call void %34(ptr noundef nonnull align 8 dereferenceable(16) %30) #32
  br label %_ZNSt12__shared_ptrIN5folly14RequestContextELN9__gnu_cxx12_Lock_policyE2EED2Ev.exit.i.i

if.end.i.i.i.i.i11:                               ; preds = %if.then.i.i.i.i
  %35 = load i8, ptr @__libc_single_threaded, align 1, !tbaa !53
  %tobool.i.not.i.i.i.i.i = icmp eq i8 %35, 0
  br i1 %tobool.i.not.i.i.i.i.i, label %if.else.i.i.i.i.i.i, label %if.then.i.i.i.i.i.i

if.then.i.i.i.i.i.i:                              ; preds = %if.end.i.i.i.i.i11
  %add.i.i.i.i.i.i = add nsw i32 %32, -1
  store i32 %add.i.i.i.i.i.i, ptr %_M_use_count.i.i.i.i.i, align 4, !tbaa !54
  br label %invoke.cont.i.i.i.i.i

if.else.i.i.i.i.i.i:                              ; preds = %if.end.i.i.i.i.i11
  %36 = atomicrmw volatile add ptr %_M_use_count.i.i.i.i.i, i32 -1 acq_rel, align 4
  br label %invoke.cont.i.i.i.i.i

invoke.cont.i.i.i.i.i:                            ; preds = %if.else.i.i.i.i.i.i, %if.then.i.i.i.i.i.i
  %retval.0.i.i.i.i.i.i = phi i32 [ %32, %if.then.i.i.i.i.i.i ], [ %36, %if.else.i.i.i.i.i.i ]
  %cmp6.i.i.i.i.i = icmp eq i32 %retval.0.i.i.i.i.i.i, 1
  br i1 %cmp6.i.i.i.i.i, label %if.then7.i.i.i.i.i, label %_ZNSt12__shared_ptrIN5folly14RequestContextELN9__gnu_cxx12_Lock_policyE2EED2Ev.exit.i.i, !prof !77

if.then7.i.i.i.i.i:                               ; preds = %invoke.cont.i.i.i.i.i
  call void @_ZNSt16_Sp_counted_baseILN9__gnu_cxx12_Lock_policyE2EE24_M_release_last_use_coldEv(ptr noundef nonnull align 8 dereferenceable(16) %30) #32
  br label %_ZNSt12__shared_ptrIN5folly14RequestContextELN9__gnu_cxx12_Lock_policyE2EED2Ev.exit.i.i

_ZNSt12__shared_ptrIN5folly14RequestContextELN9__gnu_cxx12_Lock_policyE2EED2Ev.exit.i.i: ; preds = %if.then7.i.i.i.i.i, %invoke.cont.i.i.i.i.i, %if.then.i.i.i.i.i, %_ZNSt10unique_ptrIN5folly18ThreadPoolExecutor4Task10ExpirationESt14default_deleteIS3_EED2Ev.exit.i.i
  %37 = load ptr, ptr %exec_.i.i.i, align 8, !tbaa !58
  %tobool.not.i.i.i.i13 = icmp eq ptr %37, null
  br i1 %tobool.not.i.i.i.i13, label %"_ZZN5folly23MuxIOThreadPoolExecutor3addENS_8FunctionIFvvEEENSt6chrono8durationIlSt5ratioILl1ELl1000EEEES3_EN3$_0D2Ev.exit", label %if.end.i.i.i.i14

if.end.i.i.i.i14:                                 ; preds = %_ZNSt12__shared_ptrIN5folly14RequestContextELN9__gnu_cxx12_Lock_policyE2EED2Ev.exit.i.i
  %call.i.i.i.i15 = call noundef i64 %37(i32 noundef 1, ptr noundef nonnull %12, ptr noundef null) #32
  br label %"_ZZN5folly23MuxIOThreadPoolExecutor3addENS_8FunctionIFvvEEENSt6chrono8durationIlSt5ratioILl1ELl1000EEEES3_EN3$_0D2Ev.exit"

"_ZZN5folly23MuxIOThreadPoolExecutor3addENS_8FunctionIFvvEEENSt6chrono8durationIlSt5ratioILl1ELl1000EEEES3_EN3$_0D2Ev.exit": ; preds = %if.end.i.i.i.i14, %_ZNSt12__shared_ptrIN5folly14RequestContextELN9__gnu_cxx12_Lock_policyE2EED2Ev.exit.i.i
  %38 = load ptr, ptr %expiration_.i, align 8, !tbaa !55
  %cmp.not.i.i.i17 = icmp eq ptr %38, null
  br i1 %cmp.not.i.i.i17, label %_ZNSt10unique_ptrIN5folly18ThreadPoolExecutor4Task10ExpirationESt14default_deleteIS3_EED2Ev.exit.i.i25, label %delete.notnull.i.i.i.i18

delete.notnull.i.i.i.i18:                         ; preds = %"_ZZN5folly23MuxIOThreadPoolExecutor3addENS_8FunctionIFvvEEENSt6chrono8durationIlSt5ratioILl1ELl1000EEEES3_EN3$_0D2Ev.exit"
  %exec_.i.i.i.i.i.i.i19 = getelementptr inbounds %"struct.folly::ThreadPoolExecutor::Task::Expiration", ptr %38, i64 0, i32 2, i32 2
  %39 = load ptr, ptr %exec_.i.i.i.i.i.i.i19, align 8, !tbaa !58
  %tobool.not.i.i.i.i.i.i.i20 = icmp eq ptr %39, null
  br i1 %tobool.not.i.i.i.i.i.i.i20, label %_ZNKSt14default_deleteIN5folly18ThreadPoolExecutor4Task10ExpirationEEclEPS3_.exit.i.i.i24, label %if.end.i.i.i.i.i.i.i21

if.end.i.i.i.i.i.i.i21:                           ; preds = %delete.notnull.i.i.i.i18
  %expireCallback.i.i.i.i.i22 = getelementptr inbounds %"struct.folly::ThreadPoolExecutor::Task::Expiration", ptr %38, i64 0, i32 2
  %call.i.i.i.i.i.i.i23 = call noundef i64 %39(i32 noundef 1, ptr noundef nonnull %expireCallback.i.i.i.i.i22, ptr noundef null) #32
  br label %_ZNKSt14default_deleteIN5folly18ThreadPoolExecutor4Task10ExpirationEEclEPS3_.exit.i.i.i24

_ZNKSt14default_deleteIN5folly18ThreadPoolExecutor4Task10ExpirationEEclEPS3_.exit.i.i.i24: ; preds = %if.end.i.i.i.i.i.i.i21, %delete.notnull.i.i.i.i18
  call void @_ZdlPv(ptr noundef nonnull %38) #40
  br label %_ZNSt10unique_ptrIN5folly18ThreadPoolExecutor4Task10ExpirationESt14default_deleteIS3_EED2Ev.exit.i.i25

_ZNSt10unique_ptrIN5folly18ThreadPoolExecutor4Task10ExpirationESt14default_deleteIS3_EED2Ev.exit.i.i25: ; preds = %_ZNKSt14default_deleteIN5folly18ThreadPoolExecutor4Task10ExpirationEEclEPS3_.exit.i.i.i24, %"_ZZN5folly23MuxIOThreadPoolExecutor3addENS_8FunctionIFvvEEENSt6chrono8durationIlSt5ratioILl1ELl1000EEEES3_EN3$_0D2Ev.exit"
  store ptr null, ptr %expiration_.i, align 8, !tbaa !55
  %40 = load ptr, ptr %_M_refcount.i.i.i, align 16, !tbaa !52
  %cmp.not.i.i.i.i27 = icmp eq ptr %40, null
  br i1 %cmp.not.i.i.i.i27, label %_ZNSt12__shared_ptrIN5folly14RequestContextELN9__gnu_cxx12_Lock_policyE2EED2Ev.exit.i.i38, label %if.then.i.i.i.i28

if.then.i.i.i.i28:                                ; preds = %_ZNSt10unique_ptrIN5folly18ThreadPoolExecutor4Task10ExpirationESt14default_deleteIS3_EED2Ev.exit.i.i25
  %_M_use_count.i.i.i.i.i29 = getelementptr inbounds %"class.std::_Sp_counted_base", ptr %40, i64 0, i32 1
  %41 = load atomic i64, ptr %_M_use_count.i.i.i.i.i29 acquire, align 8
  %cmp.i.i.i.i.i30 = icmp eq i64 %41, 4294967297
  %42 = trunc i64 %41 to i32
  br i1 %cmp.i.i.i.i.i30, label %if.then.i.i.i.i.i45, label %if.end.i.i.i.i.i31

if.then.i.i.i.i.i45:                              ; preds = %if.then.i.i.i.i28
  store i32 0, ptr %_M_use_count.i.i.i.i.i29, align 8, !tbaa !26
  %_M_weak_count.i.i.i.i.i46 = getelementptr inbounds %"class.std::_Sp_counted_base", ptr %40, i64 0, i32 2
  store i32 0, ptr %_M_weak_count.i.i.i.i.i46, align 4, !tbaa !28
  %vtable.i.i.i.i.i47 = load ptr, ptr %40, align 8, !tbaa !29
  %vfn.i.i.i.i.i48 = getelementptr inbounds ptr, ptr %vtable.i.i.i.i.i47, i64 2
  %43 = load ptr, ptr %vfn.i.i.i.i.i48, align 8
  call void %43(ptr noundef nonnull align 8 dereferenceable(16) %40) #32
  %vtable3.i.i.i.i.i49 = load ptr, ptr %40, align 8, !tbaa !29
  %vfn4.i.i.i.i.i50 = getelementptr inbounds ptr, ptr %vtable3.i.i.i.i.i49, i64 3
  %44 = load ptr, ptr %vfn4.i.i.i.i.i50, align 8
  call void %44(ptr noundef nonnull align 8 dereferenceable(16) %40) #32
  br label %_ZNSt12__shared_ptrIN5folly14RequestContextELN9__gnu_cxx12_Lock_policyE2EED2Ev.exit.i.i38

if.end.i.i.i.i.i31:                               ; preds = %if.then.i.i.i.i28
  %45 = load i8, ptr @__libc_single_threaded, align 1, !tbaa !53
  %tobool.i.not.i.i.i.i.i32 = icmp eq i8 %45, 0
  br i1 %tobool.i.not.i.i.i.i.i32, label %if.else.i.i.i.i.i.i44, label %if.then.i.i.i.i.i.i33

if.then.i.i.i.i.i.i33:                            ; preds = %if.end.i.i.i.i.i31
  %add.i.i.i.i.i.i34 = add nsw i32 %42, -1
  store i32 %add.i.i.i.i.i.i34, ptr %_M_use_count.i.i.i.i.i29, align 4, !tbaa !54
  br label %invoke.cont.i.i.i.i.i35

if.else.i.i.i.i.i.i44:                            ; preds = %if.end.i.i.i.i.i31
  %46 = atomicrmw volatile add ptr %_M_use_count.i.i.i.i.i29, i32 -1 acq_rel, align 4
  br label %invoke.cont.i.i.i.i.i35

invoke.cont.i.i.i.i.i35:                          ; preds = %if.else.i.i.i.i.i.i44, %if.then.i.i.i.i.i.i33
  %retval.0.i.i.i.i.i.i36 = phi i32 [ %42, %if.then.i.i.i.i.i.i33 ], [ %46, %if.else.i.i.i.i.i.i44 ]
  %cmp6.i.i.i.i.i37 = icmp eq i32 %retval.0.i.i.i.i.i.i36, 1
  br i1 %cmp6.i.i.i.i.i37, label %if.then7.i.i.i.i.i43, label %_ZNSt12__shared_ptrIN5folly14RequestContextELN9__gnu_cxx12_Lock_policyE2EED2Ev.exit.i.i38, !prof !77

if.then7.i.i.i.i.i43:                             ; preds = %invoke.cont.i.i.i.i.i35
  call void @_ZNSt16_Sp_counted_baseILN9__gnu_cxx12_Lock_policyE2EE24_M_release_last_use_coldEv(ptr noundef nonnull align 8 dereferenceable(16) %40) #32
  br label %_ZNSt12__shared_ptrIN5folly14RequestContextELN9__gnu_cxx12_Lock_policyE2EED2Ev.exit.i.i38

_ZNSt12__shared_ptrIN5folly14RequestContextELN9__gnu_cxx12_Lock_policyE2EED2Ev.exit.i.i38: ; preds = %if.then7.i.i.i.i.i43, %invoke.cont.i.i.i.i.i35, %if.then.i.i.i.i.i45, %_ZNSt10unique_ptrIN5folly18ThreadPoolExecutor4Task10ExpirationESt14default_deleteIS3_EED2Ev.exit.i.i25
  %47 = load ptr, ptr %exec_.i.i, align 8, !tbaa !58
  %tobool.not.i.i.i.i40 = icmp eq ptr %47, null
  br i1 %tobool.not.i.i.i.i40, label %"_ZZN5folly23MuxIOThreadPoolExecutor3addENS_8FunctionIFvvEEENSt6chrono8durationIlSt5ratioILl1ELl1000EEEES3_EN3$_0D2Ev.exit51", label %if.end.i.i.i.i41

if.end.i.i.i.i41:                                 ; preds = %_ZNSt12__shared_ptrIN5folly14RequestContextELN9__gnu_cxx12_Lock_policyE2EED2Ev.exit.i.i38
  %call.i.i.i.i42 = call noundef i64 %47(i32 noundef 1, ptr noundef nonnull %4, ptr noundef null) #32
  br label %"_ZZN5folly23MuxIOThreadPoolExecutor3addENS_8FunctionIFvvEEENSt6chrono8durationIlSt5ratioILl1ELl1000EEEES3_EN3$_0D2Ev.exit51"

"_ZZN5folly23MuxIOThreadPoolExecutor3addENS_8FunctionIFvvEEENSt6chrono8durationIlSt5ratioILl1ELl1000EEEES3_EN3$_0D2Ev.exit51": ; preds = %if.end.i.i.i.i41, %_ZNSt12__shared_ptrIN5folly14RequestContextELN9__gnu_cxx12_Lock_policyE2EED2Ev.exit.i.i38
  call void @llvm.lifetime.end.p0(i64 112, ptr nonnull %wrappedFunc) #32
  %48 = load ptr, ptr %expiration_5.i, align 8, !tbaa !55
  %cmp.not.i.i = icmp eq ptr %48, null
  br i1 %cmp.not.i.i, label %_ZNSt10unique_ptrIN5folly18ThreadPoolExecutor4Task10ExpirationESt14default_deleteIS3_EED2Ev.exit.i, label %delete.notnull.i.i.i

delete.notnull.i.i.i:                             ; preds = %"_ZZN5folly23MuxIOThreadPoolExecutor3addENS_8FunctionIFvvEEENSt6chrono8durationIlSt5ratioILl1ELl1000EEEES3_EN3$_0D2Ev.exit51"
  %exec_.i.i.i.i.i.i = getelementptr inbounds %"struct.folly::ThreadPoolExecutor::Task::Expiration", ptr %48, i64 0, i32 2, i32 2
  %49 = load ptr, ptr %exec_.i.i.i.i.i.i, align 8, !tbaa !58
  %tobool.not.i.i.i.i.i.i = icmp eq ptr %49, null
  br i1 %tobool.not.i.i.i.i.i.i, label %_ZNKSt14default_deleteIN5folly18ThreadPoolExecutor4Task10ExpirationEEclEPS3_.exit.i.i, label %if.end.i.i.i.i.i.i

if.end.i.i.i.i.i.i:                               ; preds = %delete.notnull.i.i.i
  %expireCallback.i.i.i.i = getelementptr inbounds %"struct.folly::ThreadPoolExecutor::Task::Expiration", ptr %48, i64 0, i32 2
  %call.i.i.i.i.i.i = call noundef i64 %49(i32 noundef 1, ptr noundef nonnull %expireCallback.i.i.i.i, ptr noundef null) #32
  br label %_ZNKSt14default_deleteIN5folly18ThreadPoolExecutor4Task10ExpirationEEclEPS3_.exit.i.i

_ZNKSt14default_deleteIN5folly18ThreadPoolExecutor4Task10ExpirationEEclEPS3_.exit.i.i: ; preds = %if.end.i.i.i.i.i.i, %delete.notnull.i.i.i
  call void @_ZdlPv(ptr noundef nonnull %48) #40
  br label %_ZNSt10unique_ptrIN5folly18ThreadPoolExecutor4Task10ExpirationESt14default_deleteIS3_EED2Ev.exit.i

_ZNSt10unique_ptrIN5folly18ThreadPoolExecutor4Task10ExpirationESt14default_deleteIS3_EED2Ev.exit.i: ; preds = %_ZNKSt14default_deleteIN5folly18ThreadPoolExecutor4Task10ExpirationEEclEPS3_.exit.i.i, %"_ZZN5folly23MuxIOThreadPoolExecutor3addENS_8FunctionIFvvEEENSt6chrono8durationIlSt5ratioILl1ELl1000EEEES3_EN3$_0D2Ev.exit51"
  store ptr null, ptr %expiration_5.i, align 8, !tbaa !55
  %50 = load ptr, ptr %_M_refcount4.i.i.i, align 16, !tbaa !52
  %cmp.not.i.i.i53 = icmp eq ptr %50, null
  br i1 %cmp.not.i.i.i53, label %_ZNSt12__shared_ptrIN5folly14RequestContextELN9__gnu_cxx12_Lock_policyE2EED2Ev.exit.i, label %if.then.i.i.i

if.then.i.i.i:                                    ; preds = %_ZNSt10unique_ptrIN5folly18ThreadPoolExecutor4Task10ExpirationESt14default_deleteIS3_EED2Ev.exit.i
  %_M_use_count.i.i.i.i = getelementptr inbounds %"class.std::_Sp_counted_base", ptr %50, i64 0, i32 1
  %51 = load atomic i64, ptr %_M_use_count.i.i.i.i acquire, align 8
  %cmp.i.i.i.i = icmp eq i64 %51, 4294967297
  %52 = trunc i64 %51 to i32
  br i1 %cmp.i.i.i.i, label %if.then.i.i.i.i60, label %if.end.i.i.i.i54

if.then.i.i.i.i60:                                ; preds = %if.then.i.i.i
  store i32 0, ptr %_M_use_count.i.i.i.i, align 8, !tbaa !26
  %_M_weak_count.i.i.i.i = getelementptr inbounds %"class.std::_Sp_counted_base", ptr %50, i64 0, i32 2
  store i32 0, ptr %_M_weak_count.i.i.i.i, align 4, !tbaa !28
  %vtable.i.i.i.i = load ptr, ptr %50, align 8, !tbaa !29
  %vfn.i.i.i.i = getelementptr inbounds ptr, ptr %vtable.i.i.i.i, i64 2
  %53 = load ptr, ptr %vfn.i.i.i.i, align 8
  call void %53(ptr noundef nonnull align 8 dereferenceable(16) %50) #32
  %vtable3.i.i.i.i = load ptr, ptr %50, align 8, !tbaa !29
  %vfn4.i.i.i.i = getelementptr inbounds ptr, ptr %vtable3.i.i.i.i, i64 3
  %54 = load ptr, ptr %vfn4.i.i.i.i, align 8
  call void %54(ptr noundef nonnull align 8 dereferenceable(16) %50) #32
  br label %_ZNSt12__shared_ptrIN5folly14RequestContextELN9__gnu_cxx12_Lock_policyE2EED2Ev.exit.i

if.end.i.i.i.i54:                                 ; preds = %if.then.i.i.i
  %55 = load i8, ptr @__libc_single_threaded, align 1, !tbaa !53
  %tobool.i.not.i.i.i.i = icmp eq i8 %55, 0
  br i1 %tobool.i.not.i.i.i.i, label %if.else.i.i.i.i.i, label %if.then.i.i.i.i.i55

if.then.i.i.i.i.i55:                              ; preds = %if.end.i.i.i.i54
  %add.i.i.i.i.i = add nsw i32 %52, -1
  store i32 %add.i.i.i.i.i, ptr %_M_use_count.i.i.i.i, align 4, !tbaa !54
  br label %invoke.cont.i.i.i.i

if.else.i.i.i.i.i:                                ; preds = %if.end.i.i.i.i54
  %56 = atomicrmw volatile add ptr %_M_use_count.i.i.i.i, i32 -1 acq_rel, align 4
  br label %invoke.cont.i.i.i.i

invoke.cont.i.i.i.i:                              ; preds = %if.else.i.i.i.i.i, %if.then.i.i.i.i.i55
  %retval.0.i.i.i.i.i = phi i32 [ %52, %if.then.i.i.i.i.i55 ], [ %56, %if.else.i.i.i.i.i ]
  %cmp6.i.i.i.i = icmp eq i32 %retval.0.i.i.i.i.i, 1
  br i1 %cmp6.i.i.i.i, label %if.then7.i.i.i.i, label %_ZNSt12__shared_ptrIN5folly14RequestContextELN9__gnu_cxx12_Lock_policyE2EED2Ev.exit.i, !prof !77

if.then7.i.i.i.i:                                 ; preds = %invoke.cont.i.i.i.i
  call void @_ZNSt16_Sp_counted_baseILN9__gnu_cxx12_Lock_policyE2EE24_M_release_last_use_coldEv(ptr noundef nonnull align 8 dereferenceable(16) %50) #32
  br label %_ZNSt12__shared_ptrIN5folly14RequestContextELN9__gnu_cxx12_Lock_policyE2EED2Ev.exit.i

_ZNSt12__shared_ptrIN5folly14RequestContextELN9__gnu_cxx12_Lock_policyE2EED2Ev.exit.i: ; preds = %if.then7.i.i.i.i, %invoke.cont.i.i.i.i, %if.then.i.i.i.i60, %_ZNSt10unique_ptrIN5folly18ThreadPoolExecutor4Task10ExpirationESt14default_deleteIS3_EED2Ev.exit.i
  %57 = load ptr, ptr %exec_3.i.i, align 8, !tbaa !58
  %tobool.not.i.i.i57 = icmp eq ptr %57, null
  br i1 %tobool.not.i.i.i57, label %_ZN5folly18ThreadPoolExecutor4TaskD2Ev.exit, label %if.end.i.i.i58

if.end.i.i.i58:                                   ; preds = %_ZNSt12__shared_ptrIN5folly14RequestContextELN9__gnu_cxx12_Lock_policyE2EED2Ev.exit.i
  %call.i.i.i59 = call noundef i64 %57(i32 noundef 1, ptr noundef nonnull %task, ptr noundef null) #32
  br label %_ZN5folly18ThreadPoolExecutor4TaskD2Ev.exit

_ZN5folly18ThreadPoolExecutor4TaskD2Ev.exit:      ; preds = %if.end.i.i.i58, %_ZNSt12__shared_ptrIN5folly14RequestContextELN9__gnu_cxx12_Lock_policyE2EED2Ev.exit.i
  call void @llvm.lifetime.end.p0(i64 96, ptr nonnull %task) #32
  ret void

lpad:                                             ; preds = %"_ZZN5folly23MuxIOThreadPoolExecutor3addENS_8FunctionIFvvEEENSt6chrono8durationIlSt5ratioILl1ELl1000EEEES3_EN3$_0C2EOS9_.exit"
  %58 = landingpad { ptr, i32 }
          cleanup
  call fastcc void @"_ZZN5folly23MuxIOThreadPoolExecutor3addENS_8FunctionIFvvEEENSt6chrono8durationIlSt5ratioILl1ELl1000EEEES3_EN3$_0D2Ev"(ptr noundef nonnull align 16 dereferenceable(112) %agg.tmp5) #32
  call fastcc void @"_ZZN5folly23MuxIOThreadPoolExecutor3addENS_8FunctionIFvvEEENSt6chrono8durationIlSt5ratioILl1ELl1000EEEES3_EN3$_0D2Ev"(ptr noundef nonnull align 16 dereferenceable(112) %wrappedFunc) #32
  call void @llvm.lifetime.end.p0(i64 112, ptr nonnull %wrappedFunc) #32
  call void @_ZN5folly18ThreadPoolExecutor4TaskD2Ev(ptr noundef nonnull align 16 dereferenceable(96) %task) #32
  call void @llvm.lifetime.end.p0(i64 96, ptr nonnull %task) #32
  resume { ptr, i32 } %58
}

; Function Attrs: mustprogress uwtable
define void @_ZN5folly23MuxIOThreadPoolExecutor11addObserverESt10shared_ptrINS_18ThreadPoolExecutor8ObserverEE(ptr noundef nonnull align 64 dereferenceable(768) %this, ptr nocapture noundef %o) unnamed_addr #2 align 2 personality ptr @__gxx_personality_v0 {
entry:
  %agg.tmp = alloca %"class.std::shared_ptr", align 8
  %0 = load ptr, ptr %o, align 8, !tbaa !78
  %1 = icmp eq ptr %0, null
  br i1 %1, label %if.end, label %dynamic_cast.end

dynamic_cast.end:                                 ; preds = %entry
  %2 = tail call ptr @__dynamic_cast(ptr nonnull %0, ptr nonnull @_ZTIN5folly18ThreadPoolExecutor8ObserverE, ptr nonnull @_ZTIN5folly24IOThreadPoolExecutorBase10IOObserverE, i64 0) #32
  %tobool.not = icmp eq ptr %2, null
  br i1 %tobool.not, label %if.end, label %if.then

if.then:                                          ; preds = %dynamic_cast.end
  %evbs_ = getelementptr inbounds %"class.folly::MuxIOThreadPoolExecutor", ptr %this, i64 0, i32 7
  %3 = load ptr, ptr %evbs_, align 32, !tbaa !55
  %_M_finish.i = getelementptr inbounds %"class.folly::MuxIOThreadPoolExecutor", ptr %this, i64 0, i32 7, i32 0, i32 0, i32 0, i32 1
  %4 = load ptr, ptr %_M_finish.i, align 8, !tbaa !55
  %cmp.i.not15 = icmp eq ptr %3, %4
  br i1 %cmp.i.not15, label %if.end, label %for.body

for.body:                                         ; preds = %if.then, %for.body
  %__begin2.sroa.0.016 = phi ptr [ %incdec.ptr.i, %for.body ], [ %3, %if.then ]
  %5 = load ptr, ptr %__begin2.sroa.0.016, align 8, !tbaa !55
  %vtable = load ptr, ptr %2, align 8, !tbaa !29
  %vfn = getelementptr inbounds ptr, ptr %vtable, i64 6
  %6 = load ptr, ptr %vfn, align 8
  tail call void %6(ptr noundef nonnull align 8 dereferenceable(8) %2, ptr noundef nonnull align 16 dereferenceable(584) %5)
  %incdec.ptr.i = getelementptr inbounds %"class.std::unique_ptr.151", ptr %__begin2.sroa.0.016, i64 1
  %cmp.i.not = icmp eq ptr %incdec.ptr.i, %4
  br i1 %cmp.i.not, label %if.end.loopexit, label %for.body

if.end.loopexit:                                  ; preds = %for.body
  %.pre = load ptr, ptr %o, align 8, !tbaa !78
  br label %if.end

if.end:                                           ; preds = %if.end.loopexit, %if.then, %dynamic_cast.end, %entry
  %7 = phi ptr [ %.pre, %if.end.loopexit ], [ %0, %if.then ], [ null, %entry ], [ %0, %dynamic_cast.end ]
  store ptr %7, ptr %agg.tmp, align 8, !tbaa !78
  %_M_refcount.i.i = getelementptr inbounds %"class.std::__shared_ptr", ptr %agg.tmp, i64 0, i32 1
  %_M_refcount4.i.i = getelementptr inbounds %"class.std::__shared_ptr", ptr %o, i64 0, i32 1
  %8 = load ptr, ptr %_M_refcount4.i.i, align 8, !tbaa !52
  store ptr null, ptr %_M_refcount4.i.i, align 8, !tbaa !52
  store ptr %8, ptr %_M_refcount.i.i, align 8, !tbaa !52
  store ptr null, ptr %o, align 8, !tbaa !78
  invoke void @_ZN5folly18ThreadPoolExecutor11addObserverESt10shared_ptrINS0_8ObserverEE(ptr noundef nonnull align 64 dereferenceable(481) %this, ptr noundef nonnull %agg.tmp)
          to label %invoke.cont unwind label %lpad

invoke.cont:                                      ; preds = %if.end
  %9 = load ptr, ptr %_M_refcount.i.i, align 8, !tbaa !52
  %cmp.not.i.i = icmp eq ptr %9, null
  br i1 %cmp.not.i.i, label %_ZNSt12__shared_ptrIN5folly18ThreadPoolExecutor8ObserverELN9__gnu_cxx12_Lock_policyE2EED2Ev.exit, label %if.then.i.i

if.then.i.i:                                      ; preds = %invoke.cont
  %_M_use_count.i.i.i = getelementptr inbounds %"class.std::_Sp_counted_base", ptr %9, i64 0, i32 1
  %10 = load atomic i64, ptr %_M_use_count.i.i.i acquire, align 8
  %cmp.i.i.i = icmp eq i64 %10, 4294967297
  %11 = trunc i64 %10 to i32
  br i1 %cmp.i.i.i, label %if.then.i.i.i, label %if.end.i.i.i

if.then.i.i.i:                                    ; preds = %if.then.i.i
  store i32 0, ptr %_M_use_count.i.i.i, align 8, !tbaa !26
  %_M_weak_count.i.i.i = getelementptr inbounds %"class.std::_Sp_counted_base", ptr %9, i64 0, i32 2
  store i32 0, ptr %_M_weak_count.i.i.i, align 4, !tbaa !28
  %vtable.i.i.i = load ptr, ptr %9, align 8, !tbaa !29
  %vfn.i.i.i = getelementptr inbounds ptr, ptr %vtable.i.i.i, i64 2
  %12 = load ptr, ptr %vfn.i.i.i, align 8
  call void %12(ptr noundef nonnull align 8 dereferenceable(16) %9) #32
  %vtable3.i.i.i = load ptr, ptr %9, align 8, !tbaa !29
  %vfn4.i.i.i = getelementptr inbounds ptr, ptr %vtable3.i.i.i, i64 3
  %13 = load ptr, ptr %vfn4.i.i.i, align 8
  call void %13(ptr noundef nonnull align 8 dereferenceable(16) %9) #32
  br label %_ZNSt12__shared_ptrIN5folly18ThreadPoolExecutor8ObserverELN9__gnu_cxx12_Lock_policyE2EED2Ev.exit

if.end.i.i.i:                                     ; preds = %if.then.i.i
  %14 = load i8, ptr @__libc_single_threaded, align 1, !tbaa !53
  %tobool.i.not.i.i.i = icmp eq i8 %14, 0
  br i1 %tobool.i.not.i.i.i, label %if.else.i.i.i.i, label %if.then.i.i.i.i

if.then.i.i.i.i:                                  ; preds = %if.end.i.i.i
  %add.i.i.i.i = add nsw i32 %11, -1
  store i32 %add.i.i.i.i, ptr %_M_use_count.i.i.i, align 4, !tbaa !54
  br label %invoke.cont.i.i.i

if.else.i.i.i.i:                                  ; preds = %if.end.i.i.i
  %15 = atomicrmw volatile add ptr %_M_use_count.i.i.i, i32 -1 acq_rel, align 4
  br label %invoke.cont.i.i.i

invoke.cont.i.i.i:                                ; preds = %if.else.i.i.i.i, %if.then.i.i.i.i
  %retval.0.i.i.i.i = phi i32 [ %11, %if.then.i.i.i.i ], [ %15, %if.else.i.i.i.i ]
  %cmp6.i.i.i = icmp eq i32 %retval.0.i.i.i.i, 1
  br i1 %cmp6.i.i.i, label %if.then7.i.i.i, label %_ZNSt12__shared_ptrIN5folly18ThreadPoolExecutor8ObserverELN9__gnu_cxx12_Lock_policyE2EED2Ev.exit, !prof !77

if.then7.i.i.i:                                   ; preds = %invoke.cont.i.i.i
  call void @_ZNSt16_Sp_counted_baseILN9__gnu_cxx12_Lock_policyE2EE24_M_release_last_use_coldEv(ptr noundef nonnull align 8 dereferenceable(16) %9) #32
  br label %_ZNSt12__shared_ptrIN5folly18ThreadPoolExecutor8ObserverELN9__gnu_cxx12_Lock_policyE2EED2Ev.exit

_ZNSt12__shared_ptrIN5folly18ThreadPoolExecutor8ObserverELN9__gnu_cxx12_Lock_policyE2EED2Ev.exit: ; preds = %if.then7.i.i.i, %invoke.cont.i.i.i, %if.then.i.i.i, %invoke.cont
  ret void

lpad:                                             ; preds = %if.end
  %16 = landingpad { ptr, i32 }
          cleanup
  call void @_ZNSt12__shared_ptrIN5folly18ThreadPoolExecutor8ObserverELN9__gnu_cxx12_Lock_policyE2EED2Ev(ptr noundef nonnull align 8 dereferenceable(16) %agg.tmp) #32
  resume { ptr, i32 } %16
}

; Function Attrs: mustprogress uwtable
define void @_ZN5folly23MuxIOThreadPoolExecutor14removeObserverESt10shared_ptrINS_18ThreadPoolExecutor8ObserverEE(ptr noundef nonnull align 64 dereferenceable(768) %this, ptr nocapture noundef %o) unnamed_addr #2 align 2 personality ptr @__gxx_personality_v0 {
entry:
  %agg.tmp = alloca %"class.std::shared_ptr", align 8
  %0 = load ptr, ptr %o, align 8, !tbaa !78
  %1 = icmp eq ptr %0, null
  br i1 %1, label %_ZN5folly23MuxIOThreadPoolExecutor25maybeUnregisterEventBasesEPNS_18ThreadPoolExecutor8ObserverE.exit, label %dynamic_cast.end.i

dynamic_cast.end.i:                               ; preds = %entry
  %2 = tail call ptr @__dynamic_cast(ptr nonnull %0, ptr nonnull @_ZTIN5folly18ThreadPoolExecutor8ObserverE, ptr nonnull @_ZTIN5folly24IOThreadPoolExecutorBase10IOObserverE, i64 0) #32
  %tobool.not.i = icmp eq ptr %2, null
  br i1 %tobool.not.i, label %_ZN5folly23MuxIOThreadPoolExecutor25maybeUnregisterEventBasesEPNS_18ThreadPoolExecutor8ObserverE.exit, label %if.then.i

if.then.i:                                        ; preds = %dynamic_cast.end.i
  %evbs_.i = getelementptr inbounds %"class.folly::MuxIOThreadPoolExecutor", ptr %this, i64 0, i32 7
  %3 = load ptr, ptr %evbs_.i, align 32, !tbaa !55
  %_M_finish.i.i = getelementptr inbounds %"class.folly::MuxIOThreadPoolExecutor", ptr %this, i64 0, i32 7, i32 0, i32 0, i32 0, i32 1
  %4 = load ptr, ptr %_M_finish.i.i, align 8, !tbaa !55
  %cmp.i.not13.i = icmp eq ptr %3, %4
  br i1 %cmp.i.not13.i, label %_ZN5folly23MuxIOThreadPoolExecutor25maybeUnregisterEventBasesEPNS_18ThreadPoolExecutor8ObserverE.exit, label %for.body.i

for.body.i:                                       ; preds = %if.then.i, %for.body.i
  %__begin2.sroa.0.014.i = phi ptr [ %incdec.ptr.i.i, %for.body.i ], [ %3, %if.then.i ]
  %5 = load ptr, ptr %__begin2.sroa.0.014.i, align 8, !tbaa !55
  %vtable.i = load ptr, ptr %2, align 8, !tbaa !29
  %vfn.i = getelementptr inbounds ptr, ptr %vtable.i, i64 7
  %6 = load ptr, ptr %vfn.i, align 8
  tail call void %6(ptr noundef nonnull align 8 dereferenceable(8) %2, ptr noundef nonnull align 16 dereferenceable(584) %5)
  %incdec.ptr.i.i = getelementptr inbounds %"class.std::unique_ptr.151", ptr %__begin2.sroa.0.014.i, i64 1
  %cmp.i.not.i = icmp eq ptr %incdec.ptr.i.i, %4
  br i1 %cmp.i.not.i, label %_ZN5folly23MuxIOThreadPoolExecutor25maybeUnregisterEventBasesEPNS_18ThreadPoolExecutor8ObserverE.exit.loopexit, label %for.body.i

_ZN5folly23MuxIOThreadPoolExecutor25maybeUnregisterEventBasesEPNS_18ThreadPoolExecutor8ObserverE.exit.loopexit: ; preds = %for.body.i
  %.pre = load ptr, ptr %o, align 8, !tbaa !78
  br label %_ZN5folly23MuxIOThreadPoolExecutor25maybeUnregisterEventBasesEPNS_18ThreadPoolExecutor8ObserverE.exit

_ZN5folly23MuxIOThreadPoolExecutor25maybeUnregisterEventBasesEPNS_18ThreadPoolExecutor8ObserverE.exit: ; preds = %_ZN5folly23MuxIOThreadPoolExecutor25maybeUnregisterEventBasesEPNS_18ThreadPoolExecutor8ObserverE.exit.loopexit, %if.then.i, %dynamic_cast.end.i, %entry
  %7 = phi ptr [ %.pre, %_ZN5folly23MuxIOThreadPoolExecutor25maybeUnregisterEventBasesEPNS_18ThreadPoolExecutor8ObserverE.exit.loopexit ], [ null, %entry ], [ %0, %dynamic_cast.end.i ], [ %0, %if.then.i ]
  store ptr %7, ptr %agg.tmp, align 8, !tbaa !78
  %_M_refcount.i.i = getelementptr inbounds %"class.std::__shared_ptr", ptr %agg.tmp, i64 0, i32 1
  %_M_refcount4.i.i = getelementptr inbounds %"class.std::__shared_ptr", ptr %o, i64 0, i32 1
  %8 = load ptr, ptr %_M_refcount4.i.i, align 8, !tbaa !52
  store ptr null, ptr %_M_refcount4.i.i, align 8, !tbaa !52
  store ptr %8, ptr %_M_refcount.i.i, align 8, !tbaa !52
  store ptr null, ptr %o, align 8, !tbaa !78
  invoke void @_ZN5folly18ThreadPoolExecutor11addObserverESt10shared_ptrINS0_8ObserverEE(ptr noundef nonnull align 64 dereferenceable(481) %this, ptr noundef nonnull %agg.tmp)
          to label %invoke.cont unwind label %lpad

invoke.cont:                                      ; preds = %_ZN5folly23MuxIOThreadPoolExecutor25maybeUnregisterEventBasesEPNS_18ThreadPoolExecutor8ObserverE.exit
  %9 = load ptr, ptr %_M_refcount.i.i, align 8, !tbaa !52
  %cmp.not.i.i = icmp eq ptr %9, null
  br i1 %cmp.not.i.i, label %_ZNSt12__shared_ptrIN5folly18ThreadPoolExecutor8ObserverELN9__gnu_cxx12_Lock_policyE2EED2Ev.exit, label %if.then.i.i

if.then.i.i:                                      ; preds = %invoke.cont
  %_M_use_count.i.i.i = getelementptr inbounds %"class.std::_Sp_counted_base", ptr %9, i64 0, i32 1
  %10 = load atomic i64, ptr %_M_use_count.i.i.i acquire, align 8
  %cmp.i.i.i = icmp eq i64 %10, 4294967297
  %11 = trunc i64 %10 to i32
  br i1 %cmp.i.i.i, label %if.then.i.i.i, label %if.end.i.i.i

if.then.i.i.i:                                    ; preds = %if.then.i.i
  store i32 0, ptr %_M_use_count.i.i.i, align 8, !tbaa !26
  %_M_weak_count.i.i.i = getelementptr inbounds %"class.std::_Sp_counted_base", ptr %9, i64 0, i32 2
  store i32 0, ptr %_M_weak_count.i.i.i, align 4, !tbaa !28
  %vtable.i.i.i = load ptr, ptr %9, align 8, !tbaa !29
  %vfn.i.i.i = getelementptr inbounds ptr, ptr %vtable.i.i.i, i64 2
  %12 = load ptr, ptr %vfn.i.i.i, align 8
  call void %12(ptr noundef nonnull align 8 dereferenceable(16) %9) #32
  %vtable3.i.i.i = load ptr, ptr %9, align 8, !tbaa !29
  %vfn4.i.i.i = getelementptr inbounds ptr, ptr %vtable3.i.i.i, i64 3
  %13 = load ptr, ptr %vfn4.i.i.i, align 8
  call void %13(ptr noundef nonnull align 8 dereferenceable(16) %9) #32
  br label %_ZNSt12__shared_ptrIN5folly18ThreadPoolExecutor8ObserverELN9__gnu_cxx12_Lock_policyE2EED2Ev.exit

if.end.i.i.i:                                     ; preds = %if.then.i.i
  %14 = load i8, ptr @__libc_single_threaded, align 1, !tbaa !53
  %tobool.i.not.i.i.i = icmp eq i8 %14, 0
  br i1 %tobool.i.not.i.i.i, label %if.else.i.i.i.i, label %if.then.i.i.i.i

if.then.i.i.i.i:                                  ; preds = %if.end.i.i.i
  %add.i.i.i.i = add nsw i32 %11, -1
  store i32 %add.i.i.i.i, ptr %_M_use_count.i.i.i, align 4, !tbaa !54
  br label %invoke.cont.i.i.i

if.else.i.i.i.i:                                  ; preds = %if.end.i.i.i
  %15 = atomicrmw volatile add ptr %_M_use_count.i.i.i, i32 -1 acq_rel, align 4
  br label %invoke.cont.i.i.i

invoke.cont.i.i.i:                                ; preds = %if.else.i.i.i.i, %if.then.i.i.i.i
  %retval.0.i.i.i.i = phi i32 [ %11, %if.then.i.i.i.i ], [ %15, %if.else.i.i.i.i ]
  %cmp6.i.i.i = icmp eq i32 %retval.0.i.i.i.i, 1
  br i1 %cmp6.i.i.i, label %if.then7.i.i.i, label %_ZNSt12__shared_ptrIN5folly18ThreadPoolExecutor8ObserverELN9__gnu_cxx12_Lock_policyE2EED2Ev.exit, !prof !77

if.then7.i.i.i:                                   ; preds = %invoke.cont.i.i.i
  call void @_ZNSt16_Sp_counted_baseILN9__gnu_cxx12_Lock_policyE2EE24_M_release_last_use_coldEv(ptr noundef nonnull align 8 dereferenceable(16) %9) #32
  br label %_ZNSt12__shared_ptrIN5folly18ThreadPoolExecutor8ObserverELN9__gnu_cxx12_Lock_policyE2EED2Ev.exit

_ZNSt12__shared_ptrIN5folly18ThreadPoolExecutor8ObserverELN9__gnu_cxx12_Lock_policyE2EED2Ev.exit: ; preds = %if.then7.i.i.i, %invoke.cont.i.i.i, %if.then.i.i.i, %invoke.cont
  ret void

lpad:                                             ; preds = %_ZN5folly23MuxIOThreadPoolExecutor25maybeUnregisterEventBasesEPNS_18ThreadPoolExecutor8ObserverE.exit
  %16 = landingpad { ptr, i32 }
          cleanup
  call void @_ZNSt12__shared_ptrIN5folly18ThreadPoolExecutor8ObserverELN9__gnu_cxx12_Lock_policyE2EED2Ev(ptr noundef nonnull align 8 dereferenceable(16) %agg.tmp) #32
  resume { ptr, i32 } %16
}

; Function Attrs: mustprogress uwtable
define void @_ZN5folly23MuxIOThreadPoolExecutor9threadRunESt10shared_ptrINS_18ThreadPoolExecutor6ThreadEE(ptr noundef nonnull align 64 dereferenceable(768) %this, ptr nocapture noundef readonly %thread) unnamed_addr #2 align 2 personality ptr @__gxx_personality_v0 {
entry:
  %ioThread = alloca %"class.std::shared_ptr.170", align 8
  %tid = alloca i64, align 8
  %SCOPE_EXIT_STATE11 = alloca %"class.folly::detail::ScopeGuardImpl.458", align 8
  %ref.tmp39 = alloca %"class.google::LogMessageFatal", align 8
  %threadPoolHook_ = getelementptr inbounds %"class.folly::ThreadPoolExecutor", ptr %this, i64 0, i32 10
  tail call void @_ZN5folly18ThreadPoolListHook14registerThreadEv(ptr noundef nonnull align 1 dereferenceable(1) %threadPoolHook_)
  call void @llvm.lifetime.start.p0(i64 16, ptr nonnull %ioThread) #32
  tail call void @llvm.experimental.noalias.scope.decl(metadata !80)
  %0 = load ptr, ptr %thread, align 8, !tbaa !24, !noalias !80
  store ptr %0, ptr %ioThread, align 8, !tbaa !83, !alias.scope !80
  %_M_refcount.i.i.i = getelementptr inbounds %"class.std::__shared_ptr.171", ptr %ioThread, i64 0, i32 1
  %_M_refcount2.i.i.i = getelementptr inbounds %"class.std::__shared_ptr.1", ptr %thread, i64 0, i32 1
  %1 = load ptr, ptr %_M_refcount2.i.i.i, align 8, !tbaa !52, !noalias !80
  store ptr %1, ptr %_M_refcount.i.i.i, align 8, !tbaa !52, !alias.scope !80
  %cmp.not.i.i.i.i = icmp eq ptr %1, null
  br i1 %cmp.not.i.i.i.i, label %_ZSt19static_pointer_castIN5folly24IOThreadPoolExecutorBase8IOThreadENS0_18ThreadPoolExecutor6ThreadEESt10shared_ptrIT_ERKS5_IT0_E.exit, label %if.then.i.i.i.i

if.then.i.i.i.i:                                  ; preds = %entry
  %_M_use_count.i.i.i.i.i = getelementptr inbounds %"class.std::_Sp_counted_base", ptr %1, i64 0, i32 1
  %2 = load i8, ptr @__libc_single_threaded, align 1, !tbaa !53, !noalias !80
  %tobool.i.i.not.i.i.i.i.i = icmp eq i8 %2, 0
  br i1 %tobool.i.i.not.i.i.i.i.i, label %if.else.i.i.i.i.i.i, label %if.then.i.i.i.i.i.i

if.then.i.i.i.i.i.i:                              ; preds = %if.then.i.i.i.i
  %3 = load i32, ptr %_M_use_count.i.i.i.i.i, align 4, !tbaa !54, !noalias !80
  %add.i.i.i.i.i.i = add nsw i32 %3, 1
  store i32 %add.i.i.i.i.i.i, ptr %_M_use_count.i.i.i.i.i, align 4, !tbaa !54, !noalias !80
  br label %_ZSt19static_pointer_castIN5folly24IOThreadPoolExecutorBase8IOThreadENS0_18ThreadPoolExecutor6ThreadEESt10shared_ptrIT_ERKS5_IT0_E.exit

if.else.i.i.i.i.i.i:                              ; preds = %if.then.i.i.i.i
  %4 = atomicrmw volatile add ptr %_M_use_count.i.i.i.i.i, i32 1 acq_rel, align 4, !noalias !80
  %.pre = load ptr, ptr %ioThread, align 8, !tbaa !83
  br label %_ZSt19static_pointer_castIN5folly24IOThreadPoolExecutorBase8IOThreadENS0_18ThreadPoolExecutor6ThreadEESt10shared_ptrIT_ERKS5_IT0_E.exit

_ZSt19static_pointer_castIN5folly24IOThreadPoolExecutorBase8IOThreadENS0_18ThreadPoolExecutor6ThreadEESt10shared_ptrIT_ERKS5_IT0_E.exit: ; preds = %if.else.i.i.i.i.i.i, %if.then.i.i.i.i.i.i, %entry
  %5 = phi ptr [ %0, %entry ], [ %0, %if.then.i.i.i.i.i.i ], [ %.pre, %if.else.i.i.i.i.i.i ]
  %evbs_.i = getelementptr inbounds %"class.folly::MuxIOThreadPoolExecutor", ptr %this, i64 0, i32 7
  %nextEVB_.i = getelementptr inbounds %"class.folly::MuxIOThreadPoolExecutor", ptr %this, i64 0, i32 2
  %6 = atomicrmw add ptr %nextEVB_.i, i64 1 monotonic, align 8
  %_M_finish.i.i = getelementptr inbounds %"class.folly::MuxIOThreadPoolExecutor", ptr %this, i64 0, i32 7, i32 0, i32 0, i32 0, i32 1
  %7 = load ptr, ptr %_M_finish.i.i, align 8, !tbaa !59
  %8 = load ptr, ptr %evbs_.i, align 32, !tbaa !61
  %sub.ptr.lhs.cast.i.i = ptrtoint ptr %7 to i64
  %sub.ptr.rhs.cast.i.i = ptrtoint ptr %8 to i64
  %sub.ptr.sub.i.i = sub i64 %sub.ptr.lhs.cast.i.i, %sub.ptr.rhs.cast.i.i
  %sub.ptr.div.i.i = ashr exact i64 %sub.ptr.sub.i.i, 3
  %rem.i = urem i64 %6, %sub.ptr.div.i.i
  %add.ptr.i.i = getelementptr inbounds %"class.std::unique_ptr.151", ptr %8, i64 %rem.i
  %9 = load ptr, ptr %add.ptr.i.i, align 8, !tbaa !55
  %eventBase = getelementptr inbounds %"struct.folly::IOThreadPoolExecutorBase::IOThread", ptr %5, i64 0, i32 3
  store ptr %9, ptr %eventBase, align 16, !tbaa !85
  %call5 = invoke noalias noundef nonnull dereferenceable(16) ptr @_Znwm(i64 noundef 16) #41
          to label %invoke.cont4 unwind label %lpad3

invoke.cont4:                                     ; preds = %_ZSt19static_pointer_castIN5folly24IOThreadPoolExecutorBase8IOThreadENS0_18ThreadPoolExecutor6ThreadEESt10shared_ptrIT_ERKS5_IT0_E.exit
  %thisThread_ = getelementptr inbounds %"class.folly::MuxIOThreadPoolExecutor", ptr %this, i64 0, i32 3
  store ptr %5, ptr %call5, align 8, !tbaa !83
  %_M_refcount.i.i = getelementptr inbounds %"class.std::__shared_ptr.171", ptr %call5, i64 0, i32 1
  %10 = load ptr, ptr %_M_refcount.i.i.i, align 8, !tbaa !52
  store ptr %10, ptr %_M_refcount.i.i, align 8, !tbaa !52
  %cmp.not.i.i.i = icmp eq ptr %10, null
  br i1 %cmp.not.i.i.i, label %_ZNSt10shared_ptrIN5folly24IOThreadPoolExecutorBase8IOThreadEEC2ERKS3_.exit, label %if.then.i.i.i

if.then.i.i.i:                                    ; preds = %invoke.cont4
  %_M_use_count.i.i.i.i = getelementptr inbounds %"class.std::_Sp_counted_base", ptr %10, i64 0, i32 1
  %11 = load i8, ptr @__libc_single_threaded, align 1, !tbaa !53
  %tobool.i.i.not.i.i.i.i = icmp eq i8 %11, 0
  br i1 %tobool.i.i.not.i.i.i.i, label %if.else.i.i.i.i.i, label %if.then.i.i.i.i.i

if.then.i.i.i.i.i:                                ; preds = %if.then.i.i.i
  %12 = load i32, ptr %_M_use_count.i.i.i.i, align 4, !tbaa !54
  %add.i.i.i.i.i = add nsw i32 %12, 1
  store i32 %add.i.i.i.i.i, ptr %_M_use_count.i.i.i.i, align 4, !tbaa !54
  br label %_ZNSt10shared_ptrIN5folly24IOThreadPoolExecutorBase8IOThreadEEC2ERKS3_.exit

if.else.i.i.i.i.i:                                ; preds = %if.then.i.i.i
  %13 = atomicrmw volatile add ptr %_M_use_count.i.i.i.i, i32 1 acq_rel, align 4
  br label %_ZNSt10shared_ptrIN5folly24IOThreadPoolExecutorBase8IOThreadEEC2ERKS3_.exit

_ZNSt10shared_ptrIN5folly24IOThreadPoolExecutorBase8IOThreadEEC2ERKS3_.exit: ; preds = %if.else.i.i.i.i.i, %if.then.i.i.i.i.i, %invoke.cont4
  invoke void @_ZN5folly14ThreadLocalPtrISt10shared_ptrINS_24IOThreadPoolExecutorBase8IOThreadEEvvE5resetEPS4_(ptr noundef nonnull align 4 dereferenceable(4) %thisThread_, ptr noundef nonnull %call5)
          to label %invoke.cont6 unwind label %lpad3

invoke.cont6:                                     ; preds = %_ZNSt10shared_ptrIN5folly24IOThreadPoolExecutorBase8IOThreadEEC2ERKS3_.exit
  %eventBaseManager_ = getelementptr inbounds %"class.folly::MuxIOThreadPoolExecutor", ptr %this, i64 0, i32 4
  %14 = load ptr, ptr %eventBaseManager_, align 8, !tbaa !89
  invoke void @_ZN5folly16EventBaseManager14clearEventBaseEv(ptr noundef nonnull align 8 dereferenceable(112) %14)
          to label %invoke.cont7 unwind label %lpad3

invoke.cont7:                                     ; preds = %invoke.cont6
  call void @llvm.lifetime.start.p0(i64 8, ptr nonnull %tid) #32
  %call10 = invoke noundef i64 @_ZN5folly13getOSThreadIDEv()
          to label %invoke.cont9 unwind label %lpad8

invoke.cont9:                                     ; preds = %invoke.cont7
  store i64 %call10, ptr %tid, align 8, !tbaa !75
  %threadIdCollector_ = getelementptr inbounds %"class.folly::MuxIOThreadPoolExecutor", ptr %this, i64 0, i32 5
  %15 = load ptr, ptr %threadIdCollector_, align 16, !tbaa !55
  %cmp.i.not = icmp eq ptr %15, null
  br i1 %cmp.i.not, label %if.end, label %if.then

if.then:                                          ; preds = %invoke.cont9
  %conv = trunc i64 %call10 to i32
  invoke void @_ZN5folly22ThreadIdWorkerProvider6addTidEi(ptr noundef nonnull align 8 dereferenceable(76) %15, i32 noundef %conv)
          to label %if.end unwind label %lpad8

lpad3:                                            ; preds = %invoke.cont6, %_ZNSt10shared_ptrIN5folly24IOThreadPoolExecutorBase8IOThreadEEC2ERKS3_.exit, %_ZSt19static_pointer_castIN5folly24IOThreadPoolExecutorBase8IOThreadENS0_18ThreadPoolExecutor6ThreadEESt10shared_ptrIT_ERKS5_IT0_E.exit
  %16 = landingpad { ptr, i32 }
          cleanup
  br label %ehcleanup77

lpad8:                                            ; preds = %if.then, %invoke.cont7
  %17 = landingpad { ptr, i32 }
          cleanup
  br label %ehcleanup76

if.end:                                           ; preds = %if.then, %invoke.cont9
  call void @llvm.lifetime.start.p0(i64 24, ptr nonnull %SCOPE_EXIT_STATE11) #32
  store i8 0, ptr %SCOPE_EXIT_STATE11, align 8, !tbaa !165, !alias.scope !167
  %function_.i.i.i = getelementptr inbounds %"class.folly::detail::ScopeGuardImpl.458", ptr %SCOPE_EXIT_STATE11, i64 0, i32 1
  store ptr %this, ptr %function_.i.i.i, align 8, !tbaa.struct !170
  %ref.tmp.sroa.4.0.function_.i.i.i.sroa_idx = getelementptr inbounds %"class.folly::detail::ScopeGuardImpl.458", ptr %SCOPE_EXIT_STATE11, i64 0, i32 1, i32 1
  store ptr %tid, ptr %ref.tmp.sroa.4.0.function_.i.i.i.sroa_idx, align 8, !tbaa.struct !171
  %18 = load ptr, ptr %thread, align 8, !tbaa !24
  %startupBaton = getelementptr inbounds %"struct.folly::ThreadPoolExecutor::Thread", ptr %18, i64 0, i32 5
  %19 = load atomic i32, ptr %startupBaton acquire, align 4
  switch i32 %19, label %if.end6.i [
    i32 0, label %land.lhs.true.i
    i32 4, label %_ZN5folly5BatonILb1ESt6atomicE4postEv.exit
  ]

land.lhs.true.i:                                  ; preds = %if.end
  %20 = cmpxchg ptr %startupBaton, i32 0, i32 1 release monotonic, align 4
  %21 = extractvalue { i32, i1 } %20, 1
  %22 = extractvalue { i32, i1 } %20, 0
  %cmp4.i = icmp eq i32 %22, 4
  %or.cond.i = select i1 %21, i1 true, i1 %cmp4.i
  br i1 %or.cond.i, label %_ZN5folly5BatonILb1ESt6atomicE4postEv.exit, label %if.end6.i

if.end6.i:                                        ; preds = %land.lhs.true.i, %if.end
  store atomic i32 3, ptr %startupBaton release, align 4
  %call.i11.i = invoke noundef i32 @_ZN5folly6detail13futexWakeImplEPKSt6atomicIjEij(ptr noundef nonnull %startupBaton, i32 noundef 1, i32 noundef -1)
          to label %_ZN5folly5BatonILb1ESt6atomicE4postEv.exit unwind label %terminate.lpad.i

terminate.lpad.i:                                 ; preds = %if.end6.i
  %23 = landingpad { ptr, i32 }
          catch ptr null
  %24 = extractvalue { ptr, i32 } %23, 0
  call void @__clang_call_terminate(ptr %24) #39
  unreachable

_ZN5folly5BatonILb1ESt6atomicE4postEv.exit:       ; preds = %if.end6.i, %land.lhs.true.i, %if.end
  %25 = load ptr, ptr %ioThread, align 8, !tbaa !83
  %shouldRun94 = getelementptr inbounds %"struct.folly::IOThreadPoolExecutorBase::IOThread", ptr %25, i64 0, i32 1
  %26 = load atomic i8, ptr %shouldRun94 seq_cst, align 1
  %27 = and i8 %26, 1
  %tobool.i.i.not95 = icmp eq i8 %27, 0
  br i1 %tobool.i.i.not95, label %while.end, label %while.body.lr.ph

while.body.lr.ph:                                 ; preds = %_ZN5folly5BatonILb1ESt6atomicE4postEv.exit
  %queue_ = getelementptr inbounds %"class.folly::MuxIOThreadPoolExecutor", ptr %this, i64 0, i32 12
  %returnList_.i = getelementptr inbounds %"class.folly::MuxIOThreadPoolExecutor", ptr %this, i64 0, i32 14
  %returnEvfd_.i.i = getelementptr inbounds %"class.folly::MuxIOThreadPoolExecutor", ptr %this, i64 0, i32 15
  br label %while.body

while.body:                                       ; preds = %_ZN5folly23MuxIOThreadPoolExecutor14enqueueHandlerEPNS0_7HandlerE.exit, %while.body.lr.ph
  %28 = load ptr, ptr %queue_, align 8, !tbaa !55
  %vtable = load ptr, ptr %28, align 128, !tbaa !29
  %vfn = getelementptr inbounds ptr, ptr %vtable, i64 5
  %29 = load ptr, ptr %vfn, align 8
  %call24 = invoke ptr %29(ptr noundef nonnull align 128 dereferenceable(512) %28)
          to label %invoke.cont23 unwind label %lpad22

invoke.cont23:                                    ; preds = %while.body
  %vtable27 = load ptr, ptr %call24, align 8, !tbaa !29
  %vfn28 = getelementptr inbounds ptr, ptr %vtable27, i64 3
  %30 = load ptr, ptr %vfn28, align 8
  %call31 = invoke noundef ptr %30(ptr noundef nonnull align 8 dereferenceable(21) %call24)
          to label %invoke.cont30 unwind label %lpad29

invoke.cont30:                                    ; preds = %invoke.cont23
  %tobool.not = icmp eq ptr %call31, null
  br i1 %tobool.not, label %cond.false, label %cleanup.done53, !prof !77

cond.false:                                       ; preds = %invoke.cont30
  call void @llvm.lifetime.start.p0(i64 16, ptr nonnull %ref.tmp39) #32
  invoke void @_ZN6google15LogMessageFatalC1EPKci(ptr noundef nonnull align 8 dereferenceable(16) %ref.tmp39, ptr noundef nonnull @.str.96, i32 noundef 290)
          to label %invoke.cont41 unwind label %lpad40

invoke.cont41:                                    ; preds = %cond.false
  %call45 = invoke noundef nonnull align 8 dereferenceable(8) ptr @_ZN6google10LogMessage6streamEv(ptr noundef nonnull align 8 dereferenceable(16) %ref.tmp39)
          to label %invoke.cont44 unwind label %lpad43

invoke.cont44:                                    ; preds = %invoke.cont41
  %call1.i88 = invoke noundef nonnull align 8 dereferenceable(8) ptr @_ZSt16__ostream_insertIcSt11char_traitsIcEERSt13basic_ostreamIT_T0_ES6_PKS3_l(ptr noundef nonnull align 8 dereferenceable(8) %call45, ptr noundef nonnull @.str.101, i64 noundef 20)
          to label %cleanup.action unwind label %lpad43

cleanup.action:                                   ; preds = %invoke.cont44
  call void @_ZN6google15LogMessageFatalD1Ev(ptr noundef nonnull align 8 dereferenceable(16) %ref.tmp39) #39
  unreachable

lpad22:                                           ; preds = %while.body
  %31 = landingpad { ptr, i32 }
          cleanup
  br label %ehcleanup74

lpad29:                                           ; preds = %if.then.i, %invoke.cont62, %invoke.cont59, %cleanup.done53, %invoke.cont23
  %32 = landingpad { ptr, i32 }
          cleanup
  br label %ehcleanup74

lpad40:                                           ; preds = %cond.false
  %33 = landingpad { ptr, i32 }
          cleanup
  call void @llvm.lifetime.end.p0(i64 16, ptr nonnull %ref.tmp39) #32
  br label %ehcleanup74

lpad43:                                           ; preds = %invoke.cont44, %invoke.cont41
  %34 = landingpad { ptr, i32 }
          cleanup
  call void @_ZN6google15LogMessageFatalD1Ev(ptr noundef nonnull align 8 dereferenceable(16) %ref.tmp39) #39
  unreachable

cleanup.done53:                                   ; preds = %invoke.cont30
  %35 = load ptr, ptr %eventBaseManager_, align 8, !tbaa !89
  invoke void @_ZN5folly16EventBaseManager12setEventBaseEPNS_9EventBaseEb(ptr noundef nonnull align 8 dereferenceable(112) %35, ptr noundef nonnull %call31, i1 noundef zeroext false)
          to label %invoke.cont59 unwind label %lpad29

invoke.cont59:                                    ; preds = %cleanup.done53
  %vtable60 = load ptr, ptr %call24, align 8, !tbaa !29
  %vfn61 = getelementptr inbounds ptr, ptr %vtable60, i64 2
  %36 = load ptr, ptr %vfn61, align 8
  invoke void %36(ptr noundef nonnull align 8 dereferenceable(21) %call24, ptr noundef nonnull %this)
          to label %invoke.cont62 unwind label %lpad29

invoke.cont62:                                    ; preds = %invoke.cont59
  %37 = load ptr, ptr %eventBaseManager_, align 8, !tbaa !89
  invoke void @_ZN5folly16EventBaseManager14clearEventBaseEv(ptr noundef nonnull align 8 dereferenceable(112) %37)
          to label %invoke.cont64 unwind label %lpad29

invoke.cont64:                                    ; preds = %invoke.cont62
  %38 = load atomic i64, ptr %returnList_.i monotonic, align 32
  %memptr.offset.i.i.i.i = getelementptr inbounds i8, ptr %call24, i64 8
  %39 = ptrtoint ptr %call24 to i64
  %oldHead.016.i.i.i = inttoptr i64 %38 to ptr
  %cmp17.i.i.i = icmp eq ptr %oldHead.016.i.i.i, inttoptr (i64 1 to ptr)
  %cond18.i.i.i = select i1 %cmp17.i.i.i, ptr null, ptr %oldHead.016.i.i.i
  store ptr %cond18.i.i.i, ptr %memptr.offset.i.i.i.i, align 8, !tbaa !55
  %40 = cmpxchg weak ptr %returnList_.i, i64 %38, i64 %39 release monotonic, align 8
  %41 = extractvalue { i64, i1 } %40, 1
  br i1 %41, label %_ZN5folly25AtomicIntrusiveLinkedListINS_23MuxIOThreadPoolExecutor7HandlerEXadL_ZNS2_5hook_EEEE13insertHeadArmEPS2_.exit.i, label %_ZNSt6atomicIPN5folly23MuxIOThreadPoolExecutor7HandlerEE21compare_exchange_weakERS3_S3_St12memory_orderS6_.exit.i.i.i

_ZNSt6atomicIPN5folly23MuxIOThreadPoolExecutor7HandlerEE21compare_exchange_weakERS3_S3_St12memory_orderS6_.exit.i.i.i: ; preds = %invoke.cont64, %_ZNSt6atomicIPN5folly23MuxIOThreadPoolExecutor7HandlerEE21compare_exchange_weakERS3_S3_St12memory_orderS6_.exit.i.i.i
  %42 = phi { i64, i1 } [ %44, %_ZNSt6atomicIPN5folly23MuxIOThreadPoolExecutor7HandlerEE21compare_exchange_weakERS3_S3_St12memory_orderS6_.exit.i.i.i ], [ %40, %invoke.cont64 ]
  %43 = extractvalue { i64, i1 } %42, 0
  %oldHead.0.i.i.i = inttoptr i64 %43 to ptr
  %cmp.i.i.i = icmp eq ptr %oldHead.0.i.i.i, inttoptr (i64 1 to ptr)
  %cond.i.i.i = select i1 %cmp.i.i.i, ptr null, ptr %oldHead.0.i.i.i
  store ptr %cond.i.i.i, ptr %memptr.offset.i.i.i.i, align 8, !tbaa !55
  %44 = cmpxchg weak ptr %returnList_.i, i64 %43, i64 %39 release monotonic, align 8
  %45 = extractvalue { i64, i1 } %44, 1
  br i1 %45, label %_ZN5folly25AtomicIntrusiveLinkedListINS_23MuxIOThreadPoolExecutor7HandlerEXadL_ZNS2_5hook_EEEE13insertHeadArmEPS2_.exit.i, label %_ZNSt6atomicIPN5folly23MuxIOThreadPoolExecutor7HandlerEE21compare_exchange_weakERS3_S3_St12memory_orderS6_.exit.i.i.i, !llvm.loop !172

_ZN5folly25AtomicIntrusiveLinkedListINS_23MuxIOThreadPoolExecutor7HandlerEXadL_ZNS2_5hook_EEEE13insertHeadArmEPS2_.exit.i: ; preds = %_ZNSt6atomicIPN5folly23MuxIOThreadPoolExecutor7HandlerEE21compare_exchange_weakERS3_S3_St12memory_orderS6_.exit.i.i.i, %invoke.cont64
  %oldHead.0.lcssa.i.i.i = phi ptr [ %oldHead.016.i.i.i, %invoke.cont64 ], [ %oldHead.0.i.i.i, %_ZNSt6atomicIPN5folly23MuxIOThreadPoolExecutor7HandlerEE21compare_exchange_weakERS3_S3_St12memory_orderS6_.exit.i.i.i ]
  %cond10.i.i.i = icmp eq ptr %oldHead.0.lcssa.i.i.i, inttoptr (i64 1 to ptr)
  br i1 %cond10.i.i.i, label %if.then.i, label %_ZN5folly23MuxIOThreadPoolExecutor14enqueueHandlerEPNS0_7HandlerE.exit

if.then.i:                                        ; preds = %_ZN5folly25AtomicIntrusiveLinkedListINS_23MuxIOThreadPoolExecutor7HandlerEXadL_ZNS2_5hook_EEEE13insertHeadArmEPS2_.exit.i
  invoke void @_ZN5folly23MuxIOThreadPoolExecutor14EventFdHandler8notifyFdEv(ptr noundef nonnull align 8 dereferenceable(21) %returnEvfd_.i.i)
          to label %_ZN5folly23MuxIOThreadPoolExecutor14enqueueHandlerEPNS0_7HandlerE.exit unwind label %lpad29

_ZN5folly23MuxIOThreadPoolExecutor14enqueueHandlerEPNS0_7HandlerE.exit: ; preds = %if.then.i, %_ZN5folly25AtomicIntrusiveLinkedListINS_23MuxIOThreadPoolExecutor7HandlerEXadL_ZNS2_5hook_EEEE13insertHeadArmEPS2_.exit.i
  %46 = load ptr, ptr %ioThread, align 8, !tbaa !83
  %shouldRun = getelementptr inbounds %"struct.folly::IOThreadPoolExecutorBase::IOThread", ptr %46, i64 0, i32 1
  %47 = load atomic i8, ptr %shouldRun seq_cst, align 1
  %48 = and i8 %47, 1
  %tobool.i.i.not = icmp eq i8 %48, 0
  br i1 %tobool.i.i.not, label %while.end, label %while.body

while.end:                                        ; preds = %_ZN5folly23MuxIOThreadPoolExecutor14enqueueHandlerEPNS0_7HandlerE.exit, %_ZN5folly5BatonILb1ESt6atomicE4postEv.exit
  %49 = load ptr, ptr %ioThread, align 8, !tbaa !83
  %eventBase70 = getelementptr inbounds %"struct.folly::IOThreadPoolExecutorBase::IOThread", ptr %49, i64 0, i32 3
  store ptr null, ptr %eventBase70, align 16, !tbaa !85
  %50 = load ptr, ptr %eventBaseManager_, align 8, !tbaa !89
  invoke void @_ZN5folly16EventBaseManager14clearEventBaseEv(ptr noundef nonnull align 8 dereferenceable(112) %50)
          to label %invoke.cont73 unwind label %lpad72

invoke.cont73:                                    ; preds = %while.end
  %51 = load i8, ptr %SCOPE_EXIT_STATE11, align 8, !tbaa !165, !range !173, !noundef !174
  %tobool.not.i = icmp eq i8 %51, 0
  br i1 %tobool.not.i, label %if.then.i89, label %"_ZN5folly6detail14ScopeGuardImplIZNS_23MuxIOThreadPoolExecutor9threadRunESt10shared_ptrINS_18ThreadPoolExecutor6ThreadEEE3$_0Lb1EED2Ev.exit"

if.then.i89:                                      ; preds = %invoke.cont73
  %this.val.i = load ptr, ptr %function_.i.i.i, align 8, !tbaa !175
  %52 = getelementptr i8, ptr %this.val.i, i64 592
  %this.val.val.i = load ptr, ptr %52, align 8, !tbaa !55
  %cmp.i.not.i.i.i = icmp eq ptr %this.val.val.i, null
  br i1 %cmp.i.not.i.i.i, label %"_ZN5folly6detail14ScopeGuardImplIZNS_23MuxIOThreadPoolExecutor9threadRunESt10shared_ptrINS_18ThreadPoolExecutor6ThreadEEE3$_0Lb1EED2Ev.exit", label %if.then.i.i.i90

if.then.i.i.i90:                                  ; preds = %if.then.i89
  %this.val2.i = load ptr, ptr %ref.tmp.sroa.4.0.function_.i.i.i.sroa_idx, align 8
  %53 = load i64, ptr %this.val2.i, align 8, !tbaa !75
  %conv.i.i.i = trunc i64 %53 to i32
  invoke void @_ZN5folly22ThreadIdWorkerProvider9removeTidEi(ptr noundef nonnull align 8 dereferenceable(76) %this.val.val.i, i32 noundef %conv.i.i.i)
          to label %"_ZN5folly6detail14ScopeGuardImplIZNS_23MuxIOThreadPoolExecutor9threadRunESt10shared_ptrINS_18ThreadPoolExecutor6ThreadEEE3$_0Lb1EED2Ev.exit" unwind label %terminate.lpad.i.i.i

terminate.lpad.i.i.i:                             ; preds = %if.then.i.i.i90
  %54 = landingpad { ptr, i32 }
          catch ptr null
  %55 = extractvalue { ptr, i32 } %54, 0
  call void @__clang_call_terminate(ptr %55) #39
  unreachable

"_ZN5folly6detail14ScopeGuardImplIZNS_23MuxIOThreadPoolExecutor9threadRunESt10shared_ptrINS_18ThreadPoolExecutor6ThreadEEE3$_0Lb1EED2Ev.exit": ; preds = %if.then.i.i.i90, %if.then.i89, %invoke.cont73
  call void @llvm.lifetime.end.p0(i64 24, ptr nonnull %SCOPE_EXIT_STATE11) #32
  call void @llvm.lifetime.end.p0(i64 8, ptr nonnull %tid) #32
  %56 = load ptr, ptr %_M_refcount.i.i.i, align 8, !tbaa !52
  %cmp.not.i.i = icmp eq ptr %56, null
  br i1 %cmp.not.i.i, label %_ZNSt12__shared_ptrIN5folly24IOThreadPoolExecutorBase8IOThreadELN9__gnu_cxx12_Lock_policyE2EED2Ev.exit, label %if.then.i.i

if.then.i.i:                                      ; preds = %"_ZN5folly6detail14ScopeGuardImplIZNS_23MuxIOThreadPoolExecutor9threadRunESt10shared_ptrINS_18ThreadPoolExecutor6ThreadEEE3$_0Lb1EED2Ev.exit"
  %_M_use_count.i.i.i = getelementptr inbounds %"class.std::_Sp_counted_base", ptr %56, i64 0, i32 1
  %57 = load atomic i64, ptr %_M_use_count.i.i.i acquire, align 8
  %cmp.i.i.i91 = icmp eq i64 %57, 4294967297
  %58 = trunc i64 %57 to i32
  br i1 %cmp.i.i.i91, label %if.then.i.i.i93, label %if.end.i.i.i

if.then.i.i.i93:                                  ; preds = %if.then.i.i
  store i32 0, ptr %_M_use_count.i.i.i, align 8, !tbaa !26
  %_M_weak_count.i.i.i = getelementptr inbounds %"class.std::_Sp_counted_base", ptr %56, i64 0, i32 2
  store i32 0, ptr %_M_weak_count.i.i.i, align 4, !tbaa !28
  %vtable.i.i.i = load ptr, ptr %56, align 8, !tbaa !29
  %vfn.i.i.i = getelementptr inbounds ptr, ptr %vtable.i.i.i, i64 2
  %59 = load ptr, ptr %vfn.i.i.i, align 8
  call void %59(ptr noundef nonnull align 8 dereferenceable(16) %56) #32
  %vtable3.i.i.i = load ptr, ptr %56, align 8, !tbaa !29
  %vfn4.i.i.i = getelementptr inbounds ptr, ptr %vtable3.i.i.i, i64 3
  %60 = load ptr, ptr %vfn4.i.i.i, align 8
  call void %60(ptr noundef nonnull align 8 dereferenceable(16) %56) #32
  br label %_ZNSt12__shared_ptrIN5folly24IOThreadPoolExecutorBase8IOThreadELN9__gnu_cxx12_Lock_policyE2EED2Ev.exit

if.end.i.i.i:                                     ; preds = %if.then.i.i
  %61 = load i8, ptr @__libc_single_threaded, align 1, !tbaa !53
  %tobool.i.not.i.i.i = icmp eq i8 %61, 0
  br i1 %tobool.i.not.i.i.i, label %if.else.i.i.i.i, label %if.then.i.i.i.i92

if.then.i.i.i.i92:                                ; preds = %if.end.i.i.i
  %add.i.i.i.i = add nsw i32 %58, -1
  store i32 %add.i.i.i.i, ptr %_M_use_count.i.i.i, align 4, !tbaa !54
  br label %invoke.cont.i.i.i

if.else.i.i.i.i:                                  ; preds = %if.end.i.i.i
  %62 = atomicrmw volatile add ptr %_M_use_count.i.i.i, i32 -1 acq_rel, align 4
  br label %invoke.cont.i.i.i

invoke.cont.i.i.i:                                ; preds = %if.else.i.i.i.i, %if.then.i.i.i.i92
  %retval.0.i.i.i.i = phi i32 [ %58, %if.then.i.i.i.i92 ], [ %62, %if.else.i.i.i.i ]
  %cmp6.i.i.i = icmp eq i32 %retval.0.i.i.i.i, 1
  br i1 %cmp6.i.i.i, label %if.then7.i.i.i, label %_ZNSt12__shared_ptrIN5folly24IOThreadPoolExecutorBase8IOThreadELN9__gnu_cxx12_Lock_policyE2EED2Ev.exit, !prof !77

if.then7.i.i.i:                                   ; preds = %invoke.cont.i.i.i
  call void @_ZNSt16_Sp_counted_baseILN9__gnu_cxx12_Lock_policyE2EE24_M_release_last_use_coldEv(ptr noundef nonnull align 8 dereferenceable(16) %56) #32
  br label %_ZNSt12__shared_ptrIN5folly24IOThreadPoolExecutorBase8IOThreadELN9__gnu_cxx12_Lock_policyE2EED2Ev.exit

_ZNSt12__shared_ptrIN5folly24IOThreadPoolExecutorBase8IOThreadELN9__gnu_cxx12_Lock_policyE2EED2Ev.exit: ; preds = %if.then7.i.i.i, %invoke.cont.i.i.i, %if.then.i.i.i93, %"_ZN5folly6detail14ScopeGuardImplIZNS_23MuxIOThreadPoolExecutor9threadRunESt10shared_ptrINS_18ThreadPoolExecutor6ThreadEEE3$_0Lb1EED2Ev.exit"
  call void @llvm.lifetime.end.p0(i64 16, ptr nonnull %ioThread) #32
  ret void

lpad72:                                           ; preds = %while.end
  %63 = landingpad { ptr, i32 }
          cleanup
  br label %ehcleanup74

ehcleanup74:                                      ; preds = %lpad72, %lpad40, %lpad29, %lpad22
  %.pn.pn.pn = phi { ptr, i32 } [ %63, %lpad72 ], [ %31, %lpad22 ], [ %32, %lpad29 ], [ %33, %lpad40 ]
  call fastcc void @"_ZN5folly6detail14ScopeGuardImplIZNS_23MuxIOThreadPoolExecutor9threadRunESt10shared_ptrINS_18ThreadPoolExecutor6ThreadEEE3$_0Lb1EED2Ev"(ptr noundef nonnull align 8 dereferenceable(24) %SCOPE_EXIT_STATE11) #32
  call void @llvm.lifetime.end.p0(i64 24, ptr nonnull %SCOPE_EXIT_STATE11) #32
  br label %ehcleanup76

ehcleanup76:                                      ; preds = %ehcleanup74, %lpad8
  %.pn.pn.pn.pn = phi { ptr, i32 } [ %.pn.pn.pn, %ehcleanup74 ], [ %17, %lpad8 ]
  call void @llvm.lifetime.end.p0(i64 8, ptr nonnull %tid) #32
  br label %ehcleanup77

ehcleanup77:                                      ; preds = %ehcleanup76, %lpad3
  %.pn.pn.pn.pn.pn = phi { ptr, i32 } [ %.pn.pn.pn.pn, %ehcleanup76 ], [ %16, %lpad3 ]
  call void @_ZNSt12__shared_ptrIN5folly24IOThreadPoolExecutorBase8IOThreadELN9__gnu_cxx12_Lock_policyE2EED2Ev(ptr noundef nonnull align 8 dereferenceable(16) %ioThread) #32
  call void @llvm.lifetime.end.p0(i64 16, ptr nonnull %ioThread) #32
  resume { ptr, i32 } %.pn.pn.pn.pn.pn
}

; Function Attrs: mustprogress uwtable
define void @_ZN5folly23MuxIOThreadPoolExecutor11stopThreadsEm(ptr noundef nonnull align 64 dereferenceable(768) %this, i64 noundef %n) unnamed_addr #2 align 2 personality ptr @__gxx_personality_v0 {
entry:
  %agg.tmp.i = alloca %"class.folly::Function", align 16
  %stoppedThreads = alloca %"class.std::vector", align 8
  %ioThread = alloca %"class.std::shared_ptr.170", align 8
  %ref.tmp = alloca %"class.std::shared_ptr.0", align 16
  %agg.tmp = alloca %"class.std::shared_ptr.0", align 8
  call void @llvm.lifetime.start.p0(i64 24, ptr nonnull %stoppedThreads) #32
  call void @llvm.memset.p0.i64(ptr noundef nonnull align 8 dereferenceable(24) %stoppedThreads, i8 0, i64 24, i1 false)
  %cmp.i = icmp ugt i64 %n, 576460752303423487
  br i1 %cmp.i, label %if.then.i, label %if.end.i

if.then.i:                                        ; preds = %entry
  invoke void @_ZSt20__throw_length_errorPKc(ptr noundef nonnull @.str.94) #42
          to label %.noexc unwind label %lpad

.noexc:                                           ; preds = %if.then.i
  unreachable

if.end.i:                                         ; preds = %entry
  %_M_end_of_storage.i.i = getelementptr inbounds %"struct.std::_Vector_base<std::shared_ptr<folly::ThreadPoolExecutor::Thread>, std::allocator<std::shared_ptr<folly::ThreadPoolExecutor::Thread>>>::_Vector_impl_data", ptr %stoppedThreads, i64 0, i32 2
  %cmp3.i.not = icmp eq i64 %n, 0
  br i1 %cmp3.i.not, label %_ZNSt6vectorISt10shared_ptrIN5folly18ThreadPoolExecutor6ThreadEESaIS4_EED2Ev.exit, label %_ZNSt12_Vector_baseISt10shared_ptrIN5folly18ThreadPoolExecutor6ThreadEESaIS4_EE11_M_allocateEm.exit.i

_ZNSt12_Vector_baseISt10shared_ptrIN5folly18ThreadPoolExecutor6ThreadEESaIS4_EE11_M_allocateEm.exit.i: ; preds = %if.end.i
  %mul.i.i.i.i = shl nuw nsw i64 %n, 4
  %call5.i.i.i.i64 = invoke noalias noundef nonnull ptr @_Znwm(i64 noundef %mul.i.i.i.i) #41
          to label %for.body.lr.ph unwind label %lpad

for.body.lr.ph:                                   ; preds = %_ZNSt12_Vector_baseISt10shared_ptrIN5folly18ThreadPoolExecutor6ThreadEESaIS4_EE11_M_allocateEm.exit.i
  %_M_finish.i.i = getelementptr inbounds %"struct.std::_Vector_base<std::shared_ptr<folly::ThreadPoolExecutor::Thread>, std::allocator<std::shared_ptr<folly::ThreadPoolExecutor::Thread>>>::_Vector_impl_data", ptr %stoppedThreads, i64 0, i32 1
  store ptr %call5.i.i.i.i64, ptr %stoppedThreads, align 8, !tbaa !177
  store ptr %call5.i.i.i.i64, ptr %_M_finish.i.i, align 8, !tbaa !178
  %add.ptr21.i = getelementptr inbounds %"class.std::shared_ptr.0", ptr %call5.i.i.i.i64, i64 %n
  store ptr %add.ptr21.i, ptr %_M_end_of_storage.i.i, align 8, !tbaa !179
  %threadList_ = getelementptr inbounds %"class.folly::ThreadPoolExecutor", ptr %this, i64 0, i32 2
  %_M_refcount.i.i.i = getelementptr inbounds %"class.std::__shared_ptr.171", ptr %ioThread, i64 0, i32 1
  %observers_ = getelementptr inbounds %"class.folly::ThreadPoolExecutor", ptr %this, i64 0, i32 9
  %_M_finish.i72 = getelementptr inbounds %"class.folly::ThreadPoolExecutor", ptr %this, i64 0, i32 9, i32 0, i32 0, i32 0, i32 1
  %_M_refcount.i.i = getelementptr inbounds %"class.std::__shared_ptr.1", ptr %ref.tmp, i64 0, i32 1
  br label %for.body

for.body.lr.ph.i:                                 ; preds = %_ZNSt12__shared_ptrIN5folly24IOThreadPoolExecutorBase8IOThreadELN9__gnu_cxx12_Lock_policyE2EED2Ev.exit
  call void @llvm.lifetime.start.p0(i64 64, ptr nonnull %agg.tmp.i)
  %evbs_.i = getelementptr inbounds %"class.folly::MuxIOThreadPoolExecutor", ptr %this, i64 0, i32 7
  %_M_finish.i.i65 = getelementptr inbounds %"class.folly::MuxIOThreadPoolExecutor", ptr %this, i64 0, i32 7, i32 0, i32 0, i32 0, i32 1
  %call_.i.i = getelementptr inbounds %"class.folly::Function", ptr %agg.tmp.i, i64 0, i32 1
  %exec_.i.i = getelementptr inbounds %"class.folly::Function", ptr %agg.tmp.i, i64 0, i32 2
  br label %for.body.i

for.body.i:                                       ; preds = %_ZN5folly8FunctionIFvvEED2Ev.exit.i, %for.body.lr.ph.i
  %i.09.i = phi i64 [ 0, %for.body.lr.ph.i ], [ %inc.i, %_ZN5folly8FunctionIFvvEED2Ev.exit.i ]
  %0 = load ptr, ptr %_M_finish.i.i65, align 8, !tbaa !59
  %1 = load ptr, ptr %evbs_.i, align 32, !tbaa !61
  %sub.ptr.lhs.cast.i.i66 = ptrtoint ptr %0 to i64
  %sub.ptr.rhs.cast.i.i67 = ptrtoint ptr %1 to i64
  %sub.ptr.sub.i.i68 = sub i64 %sub.ptr.lhs.cast.i.i66, %sub.ptr.rhs.cast.i.i67
  %sub.ptr.div.i.i69 = ashr exact i64 %sub.ptr.sub.i.i68, 3
  %rem.i = urem i64 %i.09.i, %sub.ptr.div.i.i69
  %add.ptr.i.i = getelementptr inbounds %"class.std::unique_ptr.151", ptr %1, i64 %rem.i
  %2 = load ptr, ptr %add.ptr.i.i, align 8, !tbaa !55
  store ptr null, ptr %agg.tmp.i, align 16, !tbaa !53
  store ptr @"_ZN5folly6detail8function14FunctionTraitsIFvvEE9callSmallIZNS_23MuxIOThreadPoolExecutor6wakeupEmE3$_0EEvRNS1_4DataE", ptr %call_.i.i, align 16, !tbaa !56
  store ptr @_ZN5folly6detail8function20DispatchSmallTrivial5exec_ILm16EEEmNS1_2OpEPNS1_4DataES6_, ptr %exec_.i.i, align 8, !tbaa !58
  call void @_ZN5folly9EventBase20runInEventBaseThreadENS_8FunctionIFvvEEE(ptr noundef nonnull align 16 dereferenceable(584) %2, ptr noundef nonnull %agg.tmp.i) #32
  %3 = load ptr, ptr %exec_.i.i, align 8, !tbaa !58
  %tobool.not.i.i.i = icmp eq ptr %3, null
  br i1 %tobool.not.i.i.i, label %_ZN5folly8FunctionIFvvEED2Ev.exit.i, label %if.end.i.i.i

if.end.i.i.i:                                     ; preds = %for.body.i
  %call.i.i.i = call noundef i64 %3(i32 noundef 1, ptr noundef nonnull %agg.tmp.i, ptr noundef null) #32
  br label %_ZN5folly8FunctionIFvvEED2Ev.exit.i

_ZN5folly8FunctionIFvvEED2Ev.exit.i:              ; preds = %if.end.i.i.i, %for.body.i
  %inc.i = add nuw nsw i64 %i.09.i, 1
  %exitcond.not.i = icmp eq i64 %inc.i, %n
  br i1 %exitcond.not.i, label %_ZN5folly23MuxIOThreadPoolExecutor6wakeupEm.exit, label %for.body.i, !llvm.loop !180

_ZN5folly23MuxIOThreadPoolExecutor6wakeupEm.exit: ; preds = %_ZN5folly8FunctionIFvvEED2Ev.exit.i
  %.pre21 = load ptr, ptr %stoppedThreads, align 8, !tbaa !55
  %.pre22 = load ptr, ptr %_M_finish.i.i, align 8, !tbaa !55
  call void @llvm.lifetime.end.p0(i64 64, ptr nonnull %agg.tmp.i)
  %_M_finish.i = getelementptr inbounds %"struct.std::_Vector_base<std::shared_ptr<folly::ThreadPoolExecutor::Thread>, std::allocator<std::shared_ptr<folly::ThreadPoolExecutor::Thread>>>::_Vector_impl_data", ptr %stoppedThreads, i64 0, i32 1
  %cmp.i103.not150 = icmp eq ptr %.pre21, %.pre22
  br i1 %cmp.i103.not150, label %invoke.cont.i, label %for.body33.lr.ph

for.body33.lr.ph:                                 ; preds = %_ZN5folly23MuxIOThreadPoolExecutor6wakeupEm.exit
  %stoppedThreads_ = getelementptr inbounds %"class.folly::ThreadPoolExecutor", ptr %this, i64 0, i32 5
  %_M_refcount.i.i111 = getelementptr inbounds %"class.std::__shared_ptr.1", ptr %agg.tmp, i64 0, i32 1
  %threadList_40 = getelementptr inbounds %"class.folly::ThreadPoolExecutor", ptr %this, i64 0, i32 2
  br label %for.body33

lpad:                                             ; preds = %_ZNSt12_Vector_baseISt10shared_ptrIN5folly18ThreadPoolExecutor6ThreadEESaIS4_EE11_M_allocateEm.exit.i, %if.then.i
  %4 = landingpad { ptr, i32 }
          cleanup
  br label %ehcleanup50

for.body:                                         ; preds = %_ZNSt12__shared_ptrIN5folly24IOThreadPoolExecutorBase8IOThreadELN9__gnu_cxx12_Lock_policyE2EED2Ev.exit, %for.body.lr.ph
  %i.0149 = phi i64 [ 0, %for.body.lr.ph ], [ %inc, %_ZNSt12__shared_ptrIN5folly24IOThreadPoolExecutorBase8IOThreadELN9__gnu_cxx12_Lock_policyE2EED2Ev.exit ]
  call void @llvm.lifetime.start.p0(i64 16, ptr nonnull %ioThread) #32
  %5 = load ptr, ptr %threadList_, align 8, !tbaa !177
  %add.ptr.i70 = getelementptr inbounds %"class.std::shared_ptr.0", ptr %5, i64 %i.0149
  tail call void @llvm.experimental.noalias.scope.decl(metadata !181)
  %6 = load ptr, ptr %add.ptr.i70, align 8, !tbaa !24, !noalias !181
  store ptr %6, ptr %ioThread, align 8, !tbaa !83, !alias.scope !181
  %_M_refcount2.i.i.i = getelementptr inbounds %"class.std::__shared_ptr.1", ptr %add.ptr.i70, i64 0, i32 1
  %7 = load ptr, ptr %_M_refcount2.i.i.i, align 8, !tbaa !52, !noalias !181
  store ptr %7, ptr %_M_refcount.i.i.i, align 8, !tbaa !52, !alias.scope !181
  %cmp.not.i.i.i.i71 = icmp eq ptr %7, null
  br i1 %cmp.not.i.i.i.i71, label %_ZSt19static_pointer_castIN5folly24IOThreadPoolExecutorBase8IOThreadENS0_18ThreadPoolExecutor6ThreadEESt10shared_ptrIT_ERKS5_IT0_E.exit, label %if.then.i.i.i.i

if.then.i.i.i.i:                                  ; preds = %for.body
  %_M_use_count.i.i.i.i.i = getelementptr inbounds %"class.std::_Sp_counted_base", ptr %7, i64 0, i32 1
  %8 = load i8, ptr @__libc_single_threaded, align 1, !tbaa !53, !noalias !181
  %tobool.i.i.not.i.i.i.i.i = icmp eq i8 %8, 0
  br i1 %tobool.i.i.not.i.i.i.i.i, label %if.else.i.i.i.i.i.i, label %if.then.i.i.i.i.i.i

if.then.i.i.i.i.i.i:                              ; preds = %if.then.i.i.i.i
  %9 = load i32, ptr %_M_use_count.i.i.i.i.i, align 4, !tbaa !54, !noalias !181
  %add.i.i.i.i.i.i = add nsw i32 %9, 1
  store i32 %add.i.i.i.i.i.i, ptr %_M_use_count.i.i.i.i.i, align 4, !tbaa !54, !noalias !181
  br label %_ZSt19static_pointer_castIN5folly24IOThreadPoolExecutorBase8IOThreadENS0_18ThreadPoolExecutor6ThreadEESt10shared_ptrIT_ERKS5_IT0_E.exit

if.else.i.i.i.i.i.i:                              ; preds = %if.then.i.i.i.i
  %10 = atomicrmw volatile add ptr %_M_use_count.i.i.i.i.i, i32 1 acq_rel, align 4, !noalias !181
  %.pre152.pre = load ptr, ptr %ioThread, align 8, !tbaa !83
  br label %_ZSt19static_pointer_castIN5folly24IOThreadPoolExecutorBase8IOThreadENS0_18ThreadPoolExecutor6ThreadEESt10shared_ptrIT_ERKS5_IT0_E.exit

_ZSt19static_pointer_castIN5folly24IOThreadPoolExecutorBase8IOThreadENS0_18ThreadPoolExecutor6ThreadEESt10shared_ptrIT_ERKS5_IT0_E.exit: ; preds = %if.else.i.i.i.i.i.i, %if.then.i.i.i.i.i.i, %for.body
  %.pre152 = phi ptr [ %6, %for.body ], [ %6, %if.then.i.i.i.i.i.i ], [ %.pre152.pre, %if.else.i.i.i.i.i.i ]
  %11 = load ptr, ptr %observers_, align 8, !tbaa !55
  %12 = load ptr, ptr %_M_finish.i72, align 32, !tbaa !55
  %cmp.i73.not146 = icmp eq ptr %11, %12
  br i1 %cmp.i73.not146, label %for.cond.cleanup10, label %for.body11

for.cond.cleanup10:                               ; preds = %invoke.cont16, %_ZSt19static_pointer_castIN5folly24IOThreadPoolExecutorBase8IOThreadENS0_18ThreadPoolExecutor6ThreadEESt10shared_ptrIT_ERKS5_IT0_E.exit
  %shouldRun = getelementptr inbounds %"struct.folly::IOThreadPoolExecutorBase::IOThread", ptr %.pre152, i64 0, i32 1
  store atomic i8 0, ptr %shouldRun seq_cst, align 1
  call void @llvm.lifetime.start.p0(i64 16, ptr nonnull %ref.tmp) #32
  store ptr %.pre152, ptr %ref.tmp, align 16, !tbaa !24
  %13 = load ptr, ptr %_M_refcount.i.i.i, align 8, !tbaa !52
  store ptr %13, ptr %_M_refcount.i.i, align 8, !tbaa !52
  %cmp.not.i.i.i = icmp eq ptr %13, null
  br i1 %cmp.not.i.i.i, label %_ZNSt10shared_ptrIN5folly18ThreadPoolExecutor6ThreadEEC2INS0_24IOThreadPoolExecutorBase8IOThreadEvEERKS_IT_E.exit, label %if.then.i.i.i

if.then.i.i.i:                                    ; preds = %for.cond.cleanup10
  %_M_use_count.i.i.i.i = getelementptr inbounds %"class.std::_Sp_counted_base", ptr %13, i64 0, i32 1
  %14 = load i8, ptr @__libc_single_threaded, align 1, !tbaa !53
  %tobool.i.i.not.i.i.i.i = icmp eq i8 %14, 0
  br i1 %tobool.i.i.not.i.i.i.i, label %if.else.i.i.i.i.i, label %if.then.i.i.i.i.i

if.then.i.i.i.i.i:                                ; preds = %if.then.i.i.i
  %15 = load i32, ptr %_M_use_count.i.i.i.i, align 4, !tbaa !54
  %add.i.i.i.i.i = add nsw i32 %15, 1
  store i32 %add.i.i.i.i.i, ptr %_M_use_count.i.i.i.i, align 4, !tbaa !54
  br label %_ZNSt10shared_ptrIN5folly18ThreadPoolExecutor6ThreadEEC2INS0_24IOThreadPoolExecutorBase8IOThreadEvEERKS_IT_E.exit

if.else.i.i.i.i.i:                                ; preds = %if.then.i.i.i
  %16 = atomicrmw volatile add ptr %_M_use_count.i.i.i.i, i32 1 acq_rel, align 4
  br label %_ZNSt10shared_ptrIN5folly18ThreadPoolExecutor6ThreadEEC2INS0_24IOThreadPoolExecutorBase8IOThreadEvEERKS_IT_E.exit

_ZNSt10shared_ptrIN5folly18ThreadPoolExecutor6ThreadEEC2INS0_24IOThreadPoolExecutorBase8IOThreadEvEERKS_IT_E.exit: ; preds = %if.else.i.i.i.i.i, %if.then.i.i.i.i.i, %for.cond.cleanup10
  %17 = load ptr, ptr %_M_finish.i.i, align 8, !tbaa !55
  %18 = load ptr, ptr %_M_end_of_storage.i.i, align 8, !tbaa !179
  %cmp.not.i.i = icmp eq ptr %17, %18
  br i1 %cmp.not.i.i, label %if.else.i.i, label %if.then.i.i76

if.then.i.i76:                                    ; preds = %_ZNSt10shared_ptrIN5folly18ThreadPoolExecutor6ThreadEEC2INS0_24IOThreadPoolExecutorBase8IOThreadEvEERKS_IT_E.exit
  %19 = load <2 x ptr>, ptr %ref.tmp, align 16, !tbaa !55
  store <2 x ptr> %19, ptr %17, align 8, !tbaa !55
  %incdec.ptr.i.i = getelementptr inbounds %"class.std::shared_ptr.0", ptr %17, i64 1
  store ptr %incdec.ptr.i.i, ptr %_M_finish.i.i, align 8, !tbaa !178
  br label %_ZNSt12__shared_ptrIN5folly18ThreadPoolExecutor6ThreadELN9__gnu_cxx12_Lock_policyE2EED2Ev.exit

if.else.i.i:                                      ; preds = %_ZNSt10shared_ptrIN5folly18ThreadPoolExecutor6ThreadEEC2INS0_24IOThreadPoolExecutorBase8IOThreadEvEERKS_IT_E.exit
  %20 = load ptr, ptr %stoppedThreads, align 8, !tbaa !55
  %sub.ptr.lhs.cast.i.i.i = ptrtoint ptr %17 to i64
  %sub.ptr.rhs.cast.i.i.i = ptrtoint ptr %20 to i64
  %sub.ptr.sub.i.i.i = sub i64 %sub.ptr.lhs.cast.i.i.i, %sub.ptr.rhs.cast.i.i.i
  %cmp.i.i = icmp eq i64 %sub.ptr.sub.i.i.i, 9223372036854775792
  br i1 %cmp.i.i, label %if.then.i.i, label %_ZNKSt6vectorISt10shared_ptrIN5folly18ThreadPoolExecutor6ThreadEESaIS4_EE12_M_check_lenEmPKc.exit.i

if.then.i.i:                                      ; preds = %if.else.i.i
  invoke void @_ZSt20__throw_length_errorPKc(ptr noundef nonnull @.str.95) #42
          to label %.noexc18 unwind label %lpad20.loopexit.split-lp

.noexc18:                                         ; preds = %if.then.i.i
  unreachable

_ZNKSt6vectorISt10shared_ptrIN5folly18ThreadPoolExecutor6ThreadEESaIS4_EE12_M_check_lenEmPKc.exit.i: ; preds = %if.else.i.i
  %sub.ptr.div.i.i.i = ashr exact i64 %sub.ptr.sub.i.i.i, 4
  %.sroa.speculated.i.i = tail call i64 @llvm.umax.i64(i64 %sub.ptr.div.i.i.i, i64 1)
  %add.i.i = add i64 %.sroa.speculated.i.i, %sub.ptr.div.i.i.i
  %cmp7.i.i = icmp ult i64 %add.i.i, %sub.ptr.div.i.i.i
  %21 = tail call i64 @llvm.umin.i64(i64 %add.i.i, i64 576460752303423487)
  %cond.i.i = select i1 %cmp7.i.i, i64 576460752303423487, i64 %21
  %cmp.not.i.i14 = icmp eq i64 %cond.i.i, 0
  br i1 %cmp.not.i.i14, label %_ZNSt12_Vector_baseISt10shared_ptrIN5folly18ThreadPoolExecutor6ThreadEESaIS4_EE11_M_allocateEm.exit.i16, label %_ZNSt16allocator_traitsISaISt10shared_ptrIN5folly18ThreadPoolExecutor6ThreadEEEE8allocateERS5_m.exit.i.i

_ZNSt16allocator_traitsISaISt10shared_ptrIN5folly18ThreadPoolExecutor6ThreadEEEE8allocateERS5_m.exit.i.i: ; preds = %_ZNKSt6vectorISt10shared_ptrIN5folly18ThreadPoolExecutor6ThreadEESaIS4_EE12_M_check_lenEmPKc.exit.i
  %mul.i.i.i.i15 = shl nuw nsw i64 %cond.i.i, 4
  %call5.i.i.i.i19 = invoke noalias noundef nonnull ptr @_Znwm(i64 noundef %mul.i.i.i.i15) #41
          to label %_ZNSt12_Vector_baseISt10shared_ptrIN5folly18ThreadPoolExecutor6ThreadEESaIS4_EE11_M_allocateEm.exit.i16 unwind label %lpad20.loopexit

_ZNSt12_Vector_baseISt10shared_ptrIN5folly18ThreadPoolExecutor6ThreadEESaIS4_EE11_M_allocateEm.exit.i16: ; preds = %_ZNSt16allocator_traitsISaISt10shared_ptrIN5folly18ThreadPoolExecutor6ThreadEEEE8allocateERS5_m.exit.i.i, %_ZNKSt6vectorISt10shared_ptrIN5folly18ThreadPoolExecutor6ThreadEESaIS4_EE12_M_check_lenEmPKc.exit.i
  %cond.i31.i = phi ptr [ null, %_ZNKSt6vectorISt10shared_ptrIN5folly18ThreadPoolExecutor6ThreadEESaIS4_EE12_M_check_lenEmPKc.exit.i ], [ %call5.i.i.i.i19, %_ZNSt16allocator_traitsISaISt10shared_ptrIN5folly18ThreadPoolExecutor6ThreadEEEE8allocateERS5_m.exit.i.i ]
  %add.ptr.i = getelementptr inbounds %"class.std::shared_ptr.0", ptr %cond.i31.i, i64 %sub.ptr.div.i.i.i
  %22 = load <2 x ptr>, ptr %ref.tmp, align 16, !tbaa !55
  store ptr null, ptr %_M_refcount.i.i, align 8, !tbaa !52
  store <2 x ptr> %22, ptr %add.ptr.i, align 8, !tbaa !55
  %cmp.not6.i.i.i.i = icmp eq ptr %20, %17
  br i1 %cmp.not6.i.i.i.i, label %_ZNSt6vectorISt10shared_ptrIN5folly18ThreadPoolExecutor6ThreadEESaIS4_EE11_S_relocateEPS4_S7_S7_RS5_.exit42.i, label %for.body.i.i.i.i

for.body.i.i.i.i:                                 ; preds = %_ZNSt12_Vector_baseISt10shared_ptrIN5folly18ThreadPoolExecutor6ThreadEESaIS4_EE11_M_allocateEm.exit.i16, %for.body.i.i.i.i
  %__cur.08.i.i.i.i = phi ptr [ %incdec.ptr1.i.i.i.i, %for.body.i.i.i.i ], [ %cond.i31.i, %_ZNSt12_Vector_baseISt10shared_ptrIN5folly18ThreadPoolExecutor6ThreadEESaIS4_EE11_M_allocateEm.exit.i16 ]
  %__first.addr.07.i.i.i.i = phi ptr [ %incdec.ptr.i.i.i.i, %for.body.i.i.i.i ], [ %20, %_ZNSt12_Vector_baseISt10shared_ptrIN5folly18ThreadPoolExecutor6ThreadEESaIS4_EE11_M_allocateEm.exit.i16 ]
  tail call void @llvm.experimental.noalias.scope.decl(metadata !184)
  tail call void @llvm.experimental.noalias.scope.decl(metadata !187)
  %_M_refcount4.i.i.i.i.i.i.i.i.i = getelementptr inbounds %"class.std::__shared_ptr.1", ptr %__first.addr.07.i.i.i.i, i64 0, i32 1
  %23 = load <2 x ptr>, ptr %__first.addr.07.i.i.i.i, align 8, !tbaa !55, !alias.scope !187, !noalias !184
  store ptr null, ptr %_M_refcount4.i.i.i.i.i.i.i.i.i, align 8, !tbaa !52, !alias.scope !187, !noalias !184
  store <2 x ptr> %23, ptr %__cur.08.i.i.i.i, align 8, !tbaa !55, !alias.scope !184, !noalias !187
  store ptr null, ptr %__first.addr.07.i.i.i.i, align 8, !tbaa !24, !alias.scope !187, !noalias !184
  %incdec.ptr.i.i.i.i = getelementptr inbounds %"class.std::shared_ptr.0", ptr %__first.addr.07.i.i.i.i, i64 1
  %incdec.ptr1.i.i.i.i = getelementptr inbounds %"class.std::shared_ptr.0", ptr %__cur.08.i.i.i.i, i64 1
  %cmp.not.i.i.i.i = icmp eq ptr %incdec.ptr.i.i.i.i, %17
  br i1 %cmp.not.i.i.i.i, label %_ZNSt6vectorISt10shared_ptrIN5folly18ThreadPoolExecutor6ThreadEESaIS4_EE11_S_relocateEPS4_S7_S7_RS5_.exit42.i, label %for.body.i.i.i.i, !llvm.loop !189

_ZNSt6vectorISt10shared_ptrIN5folly18ThreadPoolExecutor6ThreadEESaIS4_EE11_S_relocateEPS4_S7_S7_RS5_.exit42.i: ; preds = %for.body.i.i.i.i, %_ZNSt12_Vector_baseISt10shared_ptrIN5folly18ThreadPoolExecutor6ThreadEESaIS4_EE11_M_allocateEm.exit.i16
  %__cur.0.lcssa.i.i.i.i = phi ptr [ %cond.i31.i, %_ZNSt12_Vector_baseISt10shared_ptrIN5folly18ThreadPoolExecutor6ThreadEESaIS4_EE11_M_allocateEm.exit.i16 ], [ %incdec.ptr1.i.i.i.i, %for.body.i.i.i.i ]
  %incdec.ptr.i17 = getelementptr %"class.std::shared_ptr.0", ptr %__cur.0.lcssa.i.i.i.i, i64 1
  %tobool.not.i.i = icmp eq ptr %20, null
  br i1 %tobool.not.i.i, label %_ZNSt6vectorISt10shared_ptrIN5folly18ThreadPoolExecutor6ThreadEESaIS4_EE17_M_realloc_insertIJS4_EEEvN9__gnu_cxx17__normal_iteratorIPS4_S6_EEDpOT_.exit, label %if.then.i43.i

if.then.i43.i:                                    ; preds = %_ZNSt6vectorISt10shared_ptrIN5folly18ThreadPoolExecutor6ThreadEESaIS4_EE11_S_relocateEPS4_S7_S7_RS5_.exit42.i
  tail call void @_ZdlPv(ptr noundef nonnull %20) #40
  br label %_ZNSt6vectorISt10shared_ptrIN5folly18ThreadPoolExecutor6ThreadEESaIS4_EE17_M_realloc_insertIJS4_EEEvN9__gnu_cxx17__normal_iteratorIPS4_S6_EEDpOT_.exit

_ZNSt6vectorISt10shared_ptrIN5folly18ThreadPoolExecutor6ThreadEESaIS4_EE17_M_realloc_insertIJS4_EEEvN9__gnu_cxx17__normal_iteratorIPS4_S6_EEDpOT_.exit: ; preds = %_ZNSt6vectorISt10shared_ptrIN5folly18ThreadPoolExecutor6ThreadEESaIS4_EE11_S_relocateEPS4_S7_S7_RS5_.exit42.i, %if.then.i43.i
  store ptr %cond.i31.i, ptr %stoppedThreads, align 8, !tbaa !177
  store ptr %incdec.ptr.i17, ptr %_M_finish.i.i, align 8, !tbaa !178
  %add.ptr19.i = getelementptr inbounds %"class.std::shared_ptr.0", ptr %cond.i31.i, i64 %cond.i.i
  store ptr %add.ptr19.i, ptr %_M_end_of_storage.i.i, align 8, !tbaa !179
  br label %_ZNSt12__shared_ptrIN5folly18ThreadPoolExecutor6ThreadELN9__gnu_cxx12_Lock_policyE2EED2Ev.exit

for.body11:                                       ; preds = %_ZSt19static_pointer_castIN5folly24IOThreadPoolExecutorBase8IOThreadENS0_18ThreadPoolExecutor6ThreadEESt10shared_ptrIT_ERKS5_IT0_E.exit, %invoke.cont16
  %__begin2.sroa.0.0147 = phi ptr [ %incdec.ptr.i, %invoke.cont16 ], [ %11, %_ZSt19static_pointer_castIN5folly24IOThreadPoolExecutorBase8IOThreadENS0_18ThreadPoolExecutor6ThreadEESt10shared_ptrIT_ERKS5_IT0_E.exit ]
  %24 = load ptr, ptr %__begin2.sroa.0.0147, align 8, !tbaa !78
  %vtable = load ptr, ptr %24, align 8, !tbaa !29
  %vfn = getelementptr inbounds ptr, ptr %vtable, i64 3
  %25 = load ptr, ptr %vfn, align 8
  invoke void %25(ptr noundef nonnull align 8 dereferenceable(8) %24, ptr noundef %.pre152)
          to label %invoke.cont16 unwind label %lpad15

invoke.cont16:                                    ; preds = %for.body11
  %incdec.ptr.i = getelementptr inbounds %"class.std::shared_ptr", ptr %__begin2.sroa.0.0147, i64 1
  %cmp.i73.not = icmp eq ptr %incdec.ptr.i, %12
  br i1 %cmp.i73.not, label %for.cond.cleanup10, label %for.body11

lpad15:                                           ; preds = %for.body11
  %26 = landingpad { ptr, i32 }
          cleanup
  br label %ehcleanup

_ZNSt12__shared_ptrIN5folly18ThreadPoolExecutor6ThreadELN9__gnu_cxx12_Lock_policyE2EED2Ev.exit: ; preds = %_ZNSt6vectorISt10shared_ptrIN5folly18ThreadPoolExecutor6ThreadEESaIS4_EE17_M_realloc_insertIJS4_EEEvN9__gnu_cxx17__normal_iteratorIPS4_S6_EEDpOT_.exit, %if.then.i.i76
  %.pre20 = load ptr, ptr %_M_refcount.i.i.i, align 8, !tbaa !52
  call void @llvm.lifetime.end.p0(i64 16, ptr nonnull %ref.tmp) #32
  %cmp.not.i.i84 = icmp eq ptr %.pre20, null
  br i1 %cmp.not.i.i84, label %_ZNSt12__shared_ptrIN5folly24IOThreadPoolExecutorBase8IOThreadELN9__gnu_cxx12_Lock_policyE2EED2Ev.exit, label %if.then.i.i85

if.then.i.i85:                                    ; preds = %_ZNSt12__shared_ptrIN5folly18ThreadPoolExecutor6ThreadELN9__gnu_cxx12_Lock_policyE2EED2Ev.exit
  %_M_use_count.i.i.i86 = getelementptr inbounds %"class.std::_Sp_counted_base", ptr %.pre20, i64 0, i32 1
  %27 = load atomic i64, ptr %_M_use_count.i.i.i86 acquire, align 8
  %cmp.i.i.i87 = icmp eq i64 %27, 4294967297
  %28 = trunc i64 %27 to i32
  br i1 %cmp.i.i.i87, label %if.then.i.i.i97, label %if.end.i.i.i88

if.then.i.i.i97:                                  ; preds = %if.then.i.i85
  store i32 0, ptr %_M_use_count.i.i.i86, align 8, !tbaa !26
  %_M_weak_count.i.i.i98 = getelementptr inbounds %"class.std::_Sp_counted_base", ptr %.pre20, i64 0, i32 2
  store i32 0, ptr %_M_weak_count.i.i.i98, align 4, !tbaa !28
  %vtable.i.i.i99 = load ptr, ptr %.pre20, align 8, !tbaa !29
  %vfn.i.i.i100 = getelementptr inbounds ptr, ptr %vtable.i.i.i99, i64 2
  %29 = load ptr, ptr %vfn.i.i.i100, align 8
  tail call void %29(ptr noundef nonnull align 8 dereferenceable(16) %.pre20) #32
  %vtable3.i.i.i101 = load ptr, ptr %.pre20, align 8, !tbaa !29
  %vfn4.i.i.i102 = getelementptr inbounds ptr, ptr %vtable3.i.i.i101, i64 3
  %30 = load ptr, ptr %vfn4.i.i.i102, align 8
  tail call void %30(ptr noundef nonnull align 8 dereferenceable(16) %.pre20) #32
  br label %_ZNSt12__shared_ptrIN5folly24IOThreadPoolExecutorBase8IOThreadELN9__gnu_cxx12_Lock_policyE2EED2Ev.exit

if.end.i.i.i88:                                   ; preds = %if.then.i.i85
  %31 = load i8, ptr @__libc_single_threaded, align 1, !tbaa !53
  %tobool.i.not.i.i.i89 = icmp eq i8 %31, 0
  br i1 %tobool.i.not.i.i.i89, label %if.else.i.i.i.i96, label %if.then.i.i.i.i90

if.then.i.i.i.i90:                                ; preds = %if.end.i.i.i88
  %add.i.i.i.i91 = add nsw i32 %28, -1
  store i32 %add.i.i.i.i91, ptr %_M_use_count.i.i.i86, align 4, !tbaa !54
  br label %invoke.cont.i.i.i92

if.else.i.i.i.i96:                                ; preds = %if.end.i.i.i88
  %32 = atomicrmw volatile add ptr %_M_use_count.i.i.i86, i32 -1 acq_rel, align 4
  br label %invoke.cont.i.i.i92

invoke.cont.i.i.i92:                              ; preds = %if.else.i.i.i.i96, %if.then.i.i.i.i90
  %retval.0.i.i.i.i93 = phi i32 [ %28, %if.then.i.i.i.i90 ], [ %32, %if.else.i.i.i.i96 ]
  %cmp6.i.i.i94 = icmp eq i32 %retval.0.i.i.i.i93, 1
  br i1 %cmp6.i.i.i94, label %if.then7.i.i.i95, label %_ZNSt12__shared_ptrIN5folly24IOThreadPoolExecutorBase8IOThreadELN9__gnu_cxx12_Lock_policyE2EED2Ev.exit, !prof !77

if.then7.i.i.i95:                                 ; preds = %invoke.cont.i.i.i92
  tail call void @_ZNSt16_Sp_counted_baseILN9__gnu_cxx12_Lock_policyE2EE24_M_release_last_use_coldEv(ptr noundef nonnull align 8 dereferenceable(16) %.pre20) #32
  br label %_ZNSt12__shared_ptrIN5folly24IOThreadPoolExecutorBase8IOThreadELN9__gnu_cxx12_Lock_policyE2EED2Ev.exit

_ZNSt12__shared_ptrIN5folly24IOThreadPoolExecutorBase8IOThreadELN9__gnu_cxx12_Lock_policyE2EED2Ev.exit: ; preds = %if.then7.i.i.i95, %invoke.cont.i.i.i92, %if.then.i.i.i97, %_ZNSt12__shared_ptrIN5folly18ThreadPoolExecutor6ThreadELN9__gnu_cxx12_Lock_policyE2EED2Ev.exit
  call void @llvm.lifetime.end.p0(i64 16, ptr nonnull %ioThread) #32
  %inc = add nuw nsw i64 %i.0149, 1
  %exitcond.not = icmp eq i64 %inc, %n
  br i1 %exitcond.not, label %for.body.lr.ph.i, label %for.body, !llvm.loop !190

lpad20.loopexit:                                  ; preds = %_ZNSt16allocator_traitsISaISt10shared_ptrIN5folly18ThreadPoolExecutor6ThreadEEEE8allocateERS5_m.exit.i.i
  %lpad.loopexit = landingpad { ptr, i32 }
          cleanup
  br label %lpad20

lpad20.loopexit.split-lp:                         ; preds = %if.then.i.i
  %lpad.loopexit.split-lp = landingpad { ptr, i32 }
          cleanup
  br label %lpad20

lpad20:                                           ; preds = %lpad20.loopexit.split-lp, %lpad20.loopexit
  %lpad.phi = phi { ptr, i32 } [ %lpad.loopexit, %lpad20.loopexit ], [ %lpad.loopexit.split-lp, %lpad20.loopexit.split-lp ]
  call void @_ZNSt12__shared_ptrIN5folly18ThreadPoolExecutor6ThreadELN9__gnu_cxx12_Lock_policyE2EED2Ev(ptr noundef nonnull align 8 dereferenceable(16) %ref.tmp) #32
  call void @llvm.lifetime.end.p0(i64 16, ptr nonnull %ref.tmp) #32
  br label %ehcleanup

ehcleanup:                                        ; preds = %lpad20, %lpad15
  %.pn61 = phi { ptr, i32 } [ %26, %lpad15 ], [ %lpad.phi, %lpad20 ]
  call void @_ZNSt12__shared_ptrIN5folly24IOThreadPoolExecutorBase8IOThreadELN9__gnu_cxx12_Lock_policyE2EED2Ev(ptr noundef nonnull align 8 dereferenceable(16) %ioThread) #32
  call void @llvm.lifetime.end.p0(i64 16, ptr nonnull %ioThread) #32
  br label %ehcleanup50

for.cond.cleanup32:                               ; preds = %invoke.cont42
  %.pre = load ptr, ptr %stoppedThreads, align 8, !tbaa !177
  %.pre153 = load ptr, ptr %_M_finish.i, align 8, !tbaa !178
  %cmp.not3.i.i.i.i = icmp eq ptr %.pre, %.pre153
  br i1 %cmp.not3.i.i.i.i, label %invoke.cont.i, label %for.body.i.i.i.i105

for.body.i.i.i.i105:                              ; preds = %for.cond.cleanup32, %_ZSt8_DestroyISt10shared_ptrIN5folly18ThreadPoolExecutor6ThreadEEEvPT_.exit.i.i.i.i
  %__first.addr.04.i.i.i.i = phi ptr [ %incdec.ptr.i.i.i.i107, %_ZSt8_DestroyISt10shared_ptrIN5folly18ThreadPoolExecutor6ThreadEEEvPT_.exit.i.i.i.i ], [ %.pre, %for.cond.cleanup32 ]
  %_M_refcount.i.i.i.i.i.i106 = getelementptr inbounds %"class.std::__shared_ptr.1", ptr %__first.addr.04.i.i.i.i, i64 0, i32 1
  %33 = load ptr, ptr %_M_refcount.i.i.i.i.i.i106, align 8, !tbaa !52
  %cmp.not.i.i.i.i.i.i.i = icmp eq ptr %33, null
  br i1 %cmp.not.i.i.i.i.i.i.i, label %_ZSt8_DestroyISt10shared_ptrIN5folly18ThreadPoolExecutor6ThreadEEEvPT_.exit.i.i.i.i, label %if.then.i.i.i.i.i.i.i

if.then.i.i.i.i.i.i.i:                            ; preds = %for.body.i.i.i.i105
  %_M_use_count.i.i.i.i.i.i.i.i = getelementptr inbounds %"class.std::_Sp_counted_base", ptr %33, i64 0, i32 1
  %34 = load atomic i64, ptr %_M_use_count.i.i.i.i.i.i.i.i acquire, align 8
  %cmp.i.i.i.i.i.i.i.i = icmp eq i64 %34, 4294967297
  %35 = trunc i64 %34 to i32
  br i1 %cmp.i.i.i.i.i.i.i.i, label %if.then.i.i.i.i.i.i.i.i, label %if.end.i.i.i.i.i.i.i.i

if.then.i.i.i.i.i.i.i.i:                          ; preds = %if.then.i.i.i.i.i.i.i
  store i32 0, ptr %_M_use_count.i.i.i.i.i.i.i.i, align 8, !tbaa !26
  %_M_weak_count.i.i.i.i.i.i.i.i = getelementptr inbounds %"class.std::_Sp_counted_base", ptr %33, i64 0, i32 2
  store i32 0, ptr %_M_weak_count.i.i.i.i.i.i.i.i, align 4, !tbaa !28
  %vtable.i.i.i.i.i.i.i.i = load ptr, ptr %33, align 8, !tbaa !29
  %vfn.i.i.i.i.i.i.i.i = getelementptr inbounds ptr, ptr %vtable.i.i.i.i.i.i.i.i, i64 2
  %36 = load ptr, ptr %vfn.i.i.i.i.i.i.i.i, align 8
  call void %36(ptr noundef nonnull align 8 dereferenceable(16) %33) #32
  %vtable3.i.i.i.i.i.i.i.i = load ptr, ptr %33, align 8, !tbaa !29
  %vfn4.i.i.i.i.i.i.i.i = getelementptr inbounds ptr, ptr %vtable3.i.i.i.i.i.i.i.i, i64 3
  %37 = load ptr, ptr %vfn4.i.i.i.i.i.i.i.i, align 8
  call void %37(ptr noundef nonnull align 8 dereferenceable(16) %33) #32
  br label %_ZSt8_DestroyISt10shared_ptrIN5folly18ThreadPoolExecutor6ThreadEEEvPT_.exit.i.i.i.i

if.end.i.i.i.i.i.i.i.i:                           ; preds = %if.then.i.i.i.i.i.i.i
  %38 = load i8, ptr @__libc_single_threaded, align 1, !tbaa !53
  %tobool.i.not.i.i.i.i.i.i.i.i = icmp eq i8 %38, 0
  br i1 %tobool.i.not.i.i.i.i.i.i.i.i, label %if.else.i.i.i.i.i.i.i.i.i, label %if.then.i.i.i.i.i.i.i.i.i

if.then.i.i.i.i.i.i.i.i.i:                        ; preds = %if.end.i.i.i.i.i.i.i.i
  %add.i.i.i.i.i.i.i.i.i = add nsw i32 %35, -1
  store i32 %add.i.i.i.i.i.i.i.i.i, ptr %_M_use_count.i.i.i.i.i.i.i.i, align 4, !tbaa !54
  br label %invoke.cont.i.i.i.i.i.i.i.i

if.else.i.i.i.i.i.i.i.i.i:                        ; preds = %if.end.i.i.i.i.i.i.i.i
  %39 = atomicrmw volatile add ptr %_M_use_count.i.i.i.i.i.i.i.i, i32 -1 acq_rel, align 4
  br label %invoke.cont.i.i.i.i.i.i.i.i

invoke.cont.i.i.i.i.i.i.i.i:                      ; preds = %if.else.i.i.i.i.i.i.i.i.i, %if.then.i.i.i.i.i.i.i.i.i
  %retval.0.i.i.i.i.i.i.i.i.i = phi i32 [ %35, %if.then.i.i.i.i.i.i.i.i.i ], [ %39, %if.else.i.i.i.i.i.i.i.i.i ]
  %cmp6.i.i.i.i.i.i.i.i = icmp eq i32 %retval.0.i.i.i.i.i.i.i.i.i, 1
  br i1 %cmp6.i.i.i.i.i.i.i.i, label %if.then7.i.i.i.i.i.i.i.i, label %_ZSt8_DestroyISt10shared_ptrIN5folly18ThreadPoolExecutor6ThreadEEEvPT_.exit.i.i.i.i, !prof !77

if.then7.i.i.i.i.i.i.i.i:                         ; preds = %invoke.cont.i.i.i.i.i.i.i.i
  call void @_ZNSt16_Sp_counted_baseILN9__gnu_cxx12_Lock_policyE2EE24_M_release_last_use_coldEv(ptr noundef nonnull align 8 dereferenceable(16) %33) #32
  br label %_ZSt8_DestroyISt10shared_ptrIN5folly18ThreadPoolExecutor6ThreadEEEvPT_.exit.i.i.i.i

_ZSt8_DestroyISt10shared_ptrIN5folly18ThreadPoolExecutor6ThreadEEEvPT_.exit.i.i.i.i: ; preds = %if.then7.i.i.i.i.i.i.i.i, %invoke.cont.i.i.i.i.i.i.i.i, %if.then.i.i.i.i.i.i.i.i, %for.body.i.i.i.i105
  %incdec.ptr.i.i.i.i107 = getelementptr inbounds %"class.std::shared_ptr.0", ptr %__first.addr.04.i.i.i.i, i64 1
  %cmp.not.i.i.i.i108 = icmp eq ptr %incdec.ptr.i.i.i.i107, %.pre153
  br i1 %cmp.not.i.i.i.i108, label %invoke.contthread-pre-split.i, label %for.body.i.i.i.i105, !llvm.loop !191

invoke.contthread-pre-split.i:                    ; preds = %_ZSt8_DestroyISt10shared_ptrIN5folly18ThreadPoolExecutor6ThreadEEEvPT_.exit.i.i.i.i
  %.pr.i = load ptr, ptr %stoppedThreads, align 8, !tbaa !177
  br label %invoke.cont.i

invoke.cont.i:                                    ; preds = %invoke.contthread-pre-split.i, %for.cond.cleanup32, %_ZN5folly23MuxIOThreadPoolExecutor6wakeupEm.exit
  %40 = phi ptr [ %.pr.i, %invoke.contthread-pre-split.i ], [ %.pre, %for.cond.cleanup32 ], [ %.pre22, %_ZN5folly23MuxIOThreadPoolExecutor6wakeupEm.exit ]
  %tobool.not.i.i.i109 = icmp eq ptr %40, null
  br i1 %tobool.not.i.i.i109, label %_ZNSt6vectorISt10shared_ptrIN5folly18ThreadPoolExecutor6ThreadEESaIS4_EED2Ev.exit, label %if.then.i.i.i110

if.then.i.i.i110:                                 ; preds = %invoke.cont.i
  call void @_ZdlPv(ptr noundef nonnull %40) #40
  br label %_ZNSt6vectorISt10shared_ptrIN5folly18ThreadPoolExecutor6ThreadEESaIS4_EED2Ev.exit

_ZNSt6vectorISt10shared_ptrIN5folly18ThreadPoolExecutor6ThreadEESaIS4_EED2Ev.exit: ; preds = %if.end.i, %if.then.i.i.i110, %invoke.cont.i
  call void @llvm.lifetime.end.p0(i64 24, ptr nonnull %stoppedThreads) #32
  ret void

for.body33:                                       ; preds = %invoke.cont42, %for.body33.lr.ph
  %__begin1.sroa.0.0151 = phi ptr [ %.pre21, %for.body33.lr.ph ], [ %incdec.ptr.i141, %invoke.cont42 ]
  %41 = load ptr, ptr %__begin1.sroa.0.0151, align 8, !tbaa !24
  store ptr %41, ptr %agg.tmp, align 8, !tbaa !24
  %_M_refcount3.i.i112 = getelementptr inbounds %"class.std::__shared_ptr.1", ptr %__begin1.sroa.0.0151, i64 0, i32 1
  %42 = load ptr, ptr %_M_refcount3.i.i112, align 8, !tbaa !52
  store ptr %42, ptr %_M_refcount.i.i111, align 8, !tbaa !52
  %cmp.not.i.i.i113 = icmp eq ptr %42, null
  br i1 %cmp.not.i.i.i113, label %_ZNSt10shared_ptrIN5folly18ThreadPoolExecutor6ThreadEEC2ERKS3_.exit, label %if.then.i.i.i114

if.then.i.i.i114:                                 ; preds = %for.body33
  %_M_use_count.i.i.i.i115 = getelementptr inbounds %"class.std::_Sp_counted_base", ptr %42, i64 0, i32 1
  %43 = load i8, ptr @__libc_single_threaded, align 1, !tbaa !53
  %tobool.i.i.not.i.i.i.i116 = icmp eq i8 %43, 0
  br i1 %tobool.i.i.not.i.i.i.i116, label %if.else.i.i.i.i.i119, label %if.then.i.i.i.i.i117

if.then.i.i.i.i.i117:                             ; preds = %if.then.i.i.i114
  %44 = load i32, ptr %_M_use_count.i.i.i.i115, align 4, !tbaa !54
  %add.i.i.i.i.i118 = add nsw i32 %44, 1
  store i32 %add.i.i.i.i.i118, ptr %_M_use_count.i.i.i.i115, align 4, !tbaa !54
  br label %_ZNSt10shared_ptrIN5folly18ThreadPoolExecutor6ThreadEEC2ERKS3_.exit

if.else.i.i.i.i.i119:                             ; preds = %if.then.i.i.i114
  %45 = atomicrmw volatile add ptr %_M_use_count.i.i.i.i115, i32 1 acq_rel, align 4
  br label %_ZNSt10shared_ptrIN5folly18ThreadPoolExecutor6ThreadEEC2ERKS3_.exit

_ZNSt10shared_ptrIN5folly18ThreadPoolExecutor6ThreadEEC2ERKS3_.exit: ; preds = %if.else.i.i.i.i.i119, %if.then.i.i.i.i.i117, %for.body33
  %call37 = invoke i8 @_ZN5folly18ThreadPoolExecutor18StoppedThreadQueue3addESt10shared_ptrINS0_6ThreadEE(ptr noundef nonnull align 64 dereferenceable(248) %stoppedThreads_, ptr noundef nonnull %agg.tmp)
          to label %invoke.cont36 unwind label %lpad35

invoke.cont36:                                    ; preds = %_ZNSt10shared_ptrIN5folly18ThreadPoolExecutor6ThreadEEC2ERKS3_.exit
  %46 = load ptr, ptr %_M_refcount.i.i111, align 8, !tbaa !52
  %cmp.not.i.i121 = icmp eq ptr %46, null
  br i1 %cmp.not.i.i121, label %_ZNSt12__shared_ptrIN5folly18ThreadPoolExecutor6ThreadELN9__gnu_cxx12_Lock_policyE2EED2Ev.exit140, label %if.then.i.i122

if.then.i.i122:                                   ; preds = %invoke.cont36
  %_M_use_count.i.i.i123 = getelementptr inbounds %"class.std::_Sp_counted_base", ptr %46, i64 0, i32 1
  %47 = load atomic i64, ptr %_M_use_count.i.i.i123 acquire, align 8
  %cmp.i.i.i124 = icmp eq i64 %47, 4294967297
  %48 = trunc i64 %47 to i32
  br i1 %cmp.i.i.i124, label %if.then.i.i.i134, label %if.end.i.i.i125

if.then.i.i.i134:                                 ; preds = %if.then.i.i122
  store i32 0, ptr %_M_use_count.i.i.i123, align 8, !tbaa !26
  %_M_weak_count.i.i.i135 = getelementptr inbounds %"class.std::_Sp_counted_base", ptr %46, i64 0, i32 2
  store i32 0, ptr %_M_weak_count.i.i.i135, align 4, !tbaa !28
  %vtable.i.i.i136 = load ptr, ptr %46, align 8, !tbaa !29
  %vfn.i.i.i137 = getelementptr inbounds ptr, ptr %vtable.i.i.i136, i64 2
  %49 = load ptr, ptr %vfn.i.i.i137, align 8
  call void %49(ptr noundef nonnull align 8 dereferenceable(16) %46) #32
  %vtable3.i.i.i138 = load ptr, ptr %46, align 8, !tbaa !29
  %vfn4.i.i.i139 = getelementptr inbounds ptr, ptr %vtable3.i.i.i138, i64 3
  %50 = load ptr, ptr %vfn4.i.i.i139, align 8
  call void %50(ptr noundef nonnull align 8 dereferenceable(16) %46) #32
  br label %_ZNSt12__shared_ptrIN5folly18ThreadPoolExecutor6ThreadELN9__gnu_cxx12_Lock_policyE2EED2Ev.exit140

if.end.i.i.i125:                                  ; preds = %if.then.i.i122
  %51 = load i8, ptr @__libc_single_threaded, align 1, !tbaa !53
  %tobool.i.not.i.i.i126 = icmp eq i8 %51, 0
  br i1 %tobool.i.not.i.i.i126, label %if.else.i.i.i.i133, label %if.then.i.i.i.i127

if.then.i.i.i.i127:                               ; preds = %if.end.i.i.i125
  %add.i.i.i.i128 = add nsw i32 %48, -1
  store i32 %add.i.i.i.i128, ptr %_M_use_count.i.i.i123, align 4, !tbaa !54
  br label %invoke.cont.i.i.i129

if.else.i.i.i.i133:                               ; preds = %if.end.i.i.i125
  %52 = atomicrmw volatile add ptr %_M_use_count.i.i.i123, i32 -1 acq_rel, align 4
  br label %invoke.cont.i.i.i129

invoke.cont.i.i.i129:                             ; preds = %if.else.i.i.i.i133, %if.then.i.i.i.i127
  %retval.0.i.i.i.i130 = phi i32 [ %48, %if.then.i.i.i.i127 ], [ %52, %if.else.i.i.i.i133 ]
  %cmp6.i.i.i131 = icmp eq i32 %retval.0.i.i.i.i130, 1
  br i1 %cmp6.i.i.i131, label %if.then7.i.i.i132, label %_ZNSt12__shared_ptrIN5folly18ThreadPoolExecutor6ThreadELN9__gnu_cxx12_Lock_policyE2EED2Ev.exit140, !prof !77

if.then7.i.i.i132:                                ; preds = %invoke.cont.i.i.i129
  call void @_ZNSt16_Sp_counted_baseILN9__gnu_cxx12_Lock_policyE2EE24_M_release_last_use_coldEv(ptr noundef nonnull align 8 dereferenceable(16) %46) #32
  br label %_ZNSt12__shared_ptrIN5folly18ThreadPoolExecutor6ThreadELN9__gnu_cxx12_Lock_policyE2EED2Ev.exit140

_ZNSt12__shared_ptrIN5folly18ThreadPoolExecutor6ThreadELN9__gnu_cxx12_Lock_policyE2EED2Ev.exit140: ; preds = %if.then7.i.i.i132, %invoke.cont.i.i.i129, %if.then.i.i.i134, %invoke.cont36
  invoke void @_ZN5folly18ThreadPoolExecutor10ThreadList6removeERKSt10shared_ptrINS0_6ThreadEE(ptr noundef nonnull align 8 dereferenceable(32) %threadList_40, ptr noundef nonnull align 8 dereferenceable(16) %__begin1.sroa.0.0151)
          to label %invoke.cont42 unwind label %lpad41

invoke.cont42:                                    ; preds = %_ZNSt12__shared_ptrIN5folly18ThreadPoolExecutor6ThreadELN9__gnu_cxx12_Lock_policyE2EED2Ev.exit140
  %incdec.ptr.i141 = getelementptr inbounds %"class.std::shared_ptr.0", ptr %__begin1.sroa.0.0151, i64 1
  %cmp.i103.not = icmp eq ptr %incdec.ptr.i141, %.pre22
  br i1 %cmp.i103.not, label %for.cond.cleanup32, label %for.body33

lpad35:                                           ; preds = %_ZNSt10shared_ptrIN5folly18ThreadPoolExecutor6ThreadEEC2ERKS3_.exit
  %53 = landingpad { ptr, i32 }
          cleanup
  call void @_ZNSt12__shared_ptrIN5folly18ThreadPoolExecutor6ThreadELN9__gnu_cxx12_Lock_policyE2EED2Ev(ptr noundef nonnull align 8 dereferenceable(16) %agg.tmp) #32
  br label %ehcleanup50

lpad41:                                           ; preds = %_ZNSt12__shared_ptrIN5folly18ThreadPoolExecutor6ThreadELN9__gnu_cxx12_Lock_policyE2EED2Ev.exit140
  %54 = landingpad { ptr, i32 }
          cleanup
  br label %ehcleanup50

ehcleanup50:                                      ; preds = %lpad41, %lpad35, %ehcleanup, %lpad
  %.pn61.pn = phi { ptr, i32 } [ %.pn61, %ehcleanup ], [ %4, %lpad ], [ %54, %lpad41 ], [ %53, %lpad35 ]
  call void @_ZNSt6vectorISt10shared_ptrIN5folly18ThreadPoolExecutor6ThreadEESaIS4_EED2Ev(ptr noundef nonnull align 8 dereferenceable(24) %stoppedThreads) #32
  call void @llvm.lifetime.end.p0(i64 24, ptr nonnull %stoppedThreads) #32
  resume { ptr, i32 } %.pn61.pn
}

; Function Attrs: mustprogress uwtable
define void @_ZN5folly23MuxIOThreadPoolExecutor10makeThreadEv(ptr noalias nocapture writeonly sret(%"class.std::shared_ptr.0") align 8 %agg.result, ptr nocapture noundef nonnull readonly align 64 dereferenceable(768) %this) unnamed_addr #2 align 2 personality ptr @__gxx_personality_v0 {
entry:
  %call5.i.i.i17.i.i.i.i = tail call noalias noundef nonnull align 64 dereferenceable(192) ptr @_ZnwmSt11align_val_t(i64 noundef 192, i64 noundef 64) #41, !noalias !192
  call void @llvm.assume(i1 true) [ "align"(ptr %call5.i.i.i17.i.i.i.i, i64 64) ]
  %_M_use_count.i.i.i.i.i.i = getelementptr inbounds %"class.std::_Sp_counted_base", ptr %call5.i.i.i17.i.i.i.i, i64 0, i32 1
  store i32 1, ptr %_M_use_count.i.i.i.i.i.i, align 8, !tbaa !26, !noalias !192
  %_M_weak_count.i.i.i.i.i.i = getelementptr inbounds %"class.std::_Sp_counted_base", ptr %call5.i.i.i17.i.i.i.i, i64 0, i32 2
  store i32 1, ptr %_M_weak_count.i.i.i.i.i.i, align 4, !tbaa !28, !noalias !192
  store ptr getelementptr inbounds ({ [7 x ptr] }, ptr @_ZTVSt23_Sp_counted_ptr_inplaceIN5folly24IOThreadPoolExecutorBase8IOThreadESaIvELN9__gnu_cxx12_Lock_policyE2EE, i64 0, inrange i32 0, i64 2), ptr %call5.i.i.i17.i.i.i.i, align 64, !tbaa !29, !noalias !192
  %_M_impl.i.i.i.i.i.i = getelementptr inbounds %"class.std::_Sp_counted_ptr_inplace", ptr %call5.i.i.i17.i.i.i.i, i64 0, i32 2
  store ptr getelementptr inbounds ({ [4 x ptr] }, ptr @_ZTVN5folly18ThreadPoolExecutor6ThreadE, i64 0, inrange i32 0, i64 2), ptr %_M_impl.i.i.i.i.i.i, align 64, !tbaa !29, !noalias !192
  %id.i.i.i.i.i.i.i.i.i = getelementptr inbounds %"class.std::_Sp_counted_ptr_inplace", ptr %call5.i.i.i17.i.i.i.i, i64 0, i32 2, i32 0, i32 0, i32 0, i64 8
  %0 = atomicrmw add ptr @_ZN5folly18ThreadPoolExecutor6Thread6nextIdE, i64 1 seq_cst, align 8, !noalias !192
  store i64 %0, ptr %id.i.i.i.i.i.i.i.i.i, align 8, !tbaa !31, !noalias !192
  %handle.i.i.i.i.i.i.i.i.i = getelementptr inbounds %"class.std::_Sp_counted_ptr_inplace", ptr %call5.i.i.i17.i.i.i.i, i64 0, i32 2, i32 0, i32 0, i32 0, i64 16
  store i64 0, ptr %handle.i.i.i.i.i.i.i.i.i, align 16, !tbaa !47, !noalias !192
  %idle.i.i.i.i.i.i.i.i.i = getelementptr inbounds %"class.std::_Sp_counted_ptr_inplace", ptr %call5.i.i.i17.i.i.i.i, i64 0, i32 2, i32 0, i32 0, i32 0, i64 24
  store i8 1, ptr %idle.i.i.i.i.i.i.i.i.i, align 8, !tbaa !48, !noalias !192
  %lastActiveTime.i.i.i.i.i.i.i.i.i = getelementptr inbounds %"class.std::_Sp_counted_ptr_inplace", ptr %call5.i.i.i17.i.i.i.i, i64 0, i32 2, i32 0, i32 0, i32 0, i64 32
  %call2.i.i.i.i.i.i.i.i.i = tail call i64 @_ZNSt6chrono3_V212steady_clock3nowEv() #32, !noalias !192
  store i64 %call2.i.i.i.i.i.i.i.i.i, ptr %lastActiveTime.i.i.i.i.i.i.i.i.i, align 32, !tbaa !49, !noalias !192
  %startupBaton.i.i.i.i.i.i.i.i.i = getelementptr inbounds %"class.std::_Sp_counted_ptr_inplace", ptr %call5.i.i.i17.i.i.i.i, i64 0, i32 2, i32 0, i32 0, i32 0, i64 40
  store i32 0, ptr %startupBaton.i.i.i.i.i.i.i.i.i, align 8, !tbaa !50, !noalias !192
  %taskStatsCallbacks.i.i.i.i.i.i.i.i.i = getelementptr inbounds %"class.std::_Sp_counted_ptr_inplace", ptr %call5.i.i.i17.i.i.i.i, i64 0, i32 2, i32 0, i32 0, i32 0, i64 48
  %taskStatsCallbacks_.i.i.i.i.i.i.i.i.i = getelementptr inbounds %"class.folly::ThreadPoolExecutor", ptr %this, i64 0, i32 8
  %1 = load ptr, ptr %taskStatsCallbacks_.i.i.i.i.i.i.i.i.i, align 8, !tbaa !51, !noalias !192
  store ptr %1, ptr %taskStatsCallbacks.i.i.i.i.i.i.i.i.i, align 16, !tbaa !51, !noalias !192
  %_M_refcount.i.i.i.i.i.i.i.i.i.i.i = getelementptr inbounds %"class.std::_Sp_counted_ptr_inplace", ptr %call5.i.i.i17.i.i.i.i, i64 0, i32 2, i32 0, i32 0, i32 0, i64 56
  %_M_refcount3.i.i.i.i.i.i.i.i.i.i.i = getelementptr inbounds %"class.folly::ThreadPoolExecutor", ptr %this, i64 0, i32 8, i32 0, i32 1
  %2 = load ptr, ptr %_M_refcount3.i.i.i.i.i.i.i.i.i.i.i, align 16, !tbaa !52, !noalias !192
  store ptr %2, ptr %_M_refcount.i.i.i.i.i.i.i.i.i.i.i, align 8, !tbaa !52, !noalias !192
  %cmp.not.i.i.i.i.i.i.i.i.i.i.i.i = icmp eq ptr %2, null
  br i1 %cmp.not.i.i.i.i.i.i.i.i.i.i.i.i, label %_ZNSt12__shared_ptrIN5folly24IOThreadPoolExecutorBase8IOThreadELN9__gnu_cxx12_Lock_policyE2EED2Ev.exit, label %if.then.i.i.i.i.i.i.i.i.i.i.i.i

if.then.i.i.i.i.i.i.i.i.i.i.i.i:                  ; preds = %entry
  %_M_use_count.i.i.i.i.i.i.i.i.i.i.i.i.i = getelementptr inbounds %"class.std::_Sp_counted_base", ptr %2, i64 0, i32 1
  %3 = load i8, ptr @__libc_single_threaded, align 1, !tbaa !53, !noalias !192
  %tobool.i.i.not.i.i.i.i.i.i.i.i.i.i.i.i.i = icmp eq i8 %3, 0
  br i1 %tobool.i.i.not.i.i.i.i.i.i.i.i.i.i.i.i.i, label %if.else.i.i.i.i.i.i.i.i.i.i.i.i.i.i, label %if.then.i.i.i.i.i.i.i.i.i.i.i.i.i.i

if.then.i.i.i.i.i.i.i.i.i.i.i.i.i.i:              ; preds = %if.then.i.i.i.i.i.i.i.i.i.i.i.i
  %4 = load i32, ptr %_M_use_count.i.i.i.i.i.i.i.i.i.i.i.i.i, align 4, !tbaa !54, !noalias !192
  %add.i.i.i.i.i.i.i.i.i.i.i.i.i.i = add nsw i32 %4, 1
  store i32 %add.i.i.i.i.i.i.i.i.i.i.i.i.i.i, ptr %_M_use_count.i.i.i.i.i.i.i.i.i.i.i.i.i, align 4, !tbaa !54, !noalias !192
  br label %_ZNSt12__shared_ptrIN5folly24IOThreadPoolExecutorBase8IOThreadELN9__gnu_cxx12_Lock_policyE2EED2Ev.exit

if.else.i.i.i.i.i.i.i.i.i.i.i.i.i.i:              ; preds = %if.then.i.i.i.i.i.i.i.i.i.i.i.i
  %5 = atomicrmw volatile add ptr %_M_use_count.i.i.i.i.i.i.i.i.i.i.i.i.i, i32 1 acq_rel, align 4, !noalias !192
  br label %_ZNSt12__shared_ptrIN5folly24IOThreadPoolExecutorBase8IOThreadELN9__gnu_cxx12_Lock_policyE2EED2Ev.exit

_ZNSt12__shared_ptrIN5folly24IOThreadPoolExecutorBase8IOThreadELN9__gnu_cxx12_Lock_policyE2EED2Ev.exit: ; preds = %if.else.i.i.i.i.i.i.i.i.i.i.i.i.i.i, %if.then.i.i.i.i.i.i.i.i.i.i.i.i.i.i, %entry
  store ptr getelementptr inbounds ({ [4 x ptr] }, ptr @_ZTVN5folly24IOThreadPoolExecutorBase8IOThreadE, i64 0, inrange i32 0, i64 2), ptr %_M_impl.i.i.i.i.i.i, align 64, !tbaa !29, !noalias !192
  %shouldRun.i.i.i.i.i.i.i.i = getelementptr inbounds %"class.std::_Sp_counted_ptr_inplace", ptr %call5.i.i.i17.i.i.i.i, i64 0, i32 2, i32 0, i32 0, i32 0, i64 64
  store i8 1, ptr %shouldRun.i.i.i.i.i.i.i.i, align 64, !tbaa !48, !noalias !192
  %pendingTasks.i.i.i.i.i.i.i.i = getelementptr inbounds %"class.std::_Sp_counted_ptr_inplace", ptr %call5.i.i.i17.i.i.i.i, i64 0, i32 2, i32 0, i32 0, i32 0, i64 72
  tail call void @llvm.memset.p0.i64(ptr noundef nonnull align 8 dereferenceable(56) %pendingTasks.i.i.i.i.i.i.i.i, i8 0, i64 56, i1 false), !noalias !192
  store ptr %_M_impl.i.i.i.i.i.i, ptr %agg.result, align 8, !tbaa !24
  %_M_refcount.i.i = getelementptr inbounds %"class.std::__shared_ptr.1", ptr %agg.result, i64 0, i32 1
  store ptr %call5.i.i.i17.i.i.i.i, ptr %_M_refcount.i.i, align 8, !tbaa !52
  ret void
}

; Function Attrs: mustprogress nofree norecurse nounwind willreturn memory(argmem: readwrite) uwtable
define noundef i64 @_ZNK5folly23MuxIOThreadPoolExecutor23getPendingTaskCountImplEv(ptr nocapture noundef nonnull readonly align 64 dereferenceable(768) %this) unnamed_addr #6 align 2 {
entry:
  %pendingTasks_ = getelementptr inbounds %"class.folly::MuxIOThreadPoolExecutor", ptr %this, i64 0, i32 11
  %0 = load atomic i64, ptr %pendingTasks_ seq_cst, align 32
  ret i64 %0
}

; Function Attrs: mustprogress nofree norecurse nounwind willreturn memory(read, argmem: readwrite, inaccessiblemem: none) uwtable
define noundef ptr @_ZN5folly23MuxIOThreadPoolExecutor12getEventBaseEv(ptr nocapture noundef nonnull align 64 dereferenceable(768) %this) unnamed_addr #7 align 2 {
entry:
  %evbs_.i = getelementptr inbounds %"class.folly::MuxIOThreadPoolExecutor", ptr %this, i64 0, i32 7
  %nextEVB_.i = getelementptr inbounds %"class.folly::MuxIOThreadPoolExecutor", ptr %this, i64 0, i32 2
  %0 = atomicrmw add ptr %nextEVB_.i, i64 1 monotonic, align 8
  %_M_finish.i.i = getelementptr inbounds %"class.folly::MuxIOThreadPoolExecutor", ptr %this, i64 0, i32 7, i32 0, i32 0, i32 0, i32 1
  %1 = load ptr, ptr %_M_finish.i.i, align 8, !tbaa !59
  %2 = load ptr, ptr %evbs_.i, align 32, !tbaa !61
  %sub.ptr.lhs.cast.i.i = ptrtoint ptr %1 to i64
  %sub.ptr.rhs.cast.i.i = ptrtoint ptr %2 to i64
  %sub.ptr.sub.i.i = sub i64 %sub.ptr.lhs.cast.i.i, %sub.ptr.rhs.cast.i.i
  %sub.ptr.div.i.i = ashr exact i64 %sub.ptr.sub.i.i, 3
  %rem.i = urem i64 %0, %sub.ptr.div.i.i
  %add.ptr.i.i = getelementptr inbounds %"class.std::unique_ptr.151", ptr %2, i64 %rem.i
  %3 = load ptr, ptr %add.ptr.i.i, align 8, !tbaa !55
  ret ptr %3
}

; Function Attrs: mustprogress uwtable
define void @_ZN5folly23MuxIOThreadPoolExecutor16getAllEventBasesEv(ptr noalias sret(%"class.std::vector.23") align 8 %agg.result, ptr nocapture noundef nonnull readonly align 64 dereferenceable(768) %this) unnamed_addr #2 align 2 personality ptr @__gxx_personality_v0 {
entry:
  %ref.tmp = alloca ptr, align 8
  tail call void @llvm.memset.p0.i64(ptr noundef nonnull align 8 dereferenceable(24) %agg.result, i8 0, i64 24, i1 false)
  %evbs_ = getelementptr inbounds %"class.folly::MuxIOThreadPoolExecutor", ptr %this, i64 0, i32 7
  %0 = load ptr, ptr %evbs_, align 32, !tbaa !55
  %_M_finish.i = getelementptr inbounds %"class.folly::MuxIOThreadPoolExecutor", ptr %this, i64 0, i32 7, i32 0, i32 0, i32 0, i32 1
  %1 = load ptr, ptr %_M_finish.i, align 8, !tbaa !55
  %cmp.i.not15 = icmp eq ptr %0, %1
  br i1 %cmp.i.not15, label %for.cond.cleanup, label %for.body.lr.ph

for.body.lr.ph:                                   ; preds = %entry
  %_M_finish.i11 = getelementptr inbounds %"struct.std::_Vector_base<folly::Executor::KeepAlive<folly::EventBase>, std::allocator<folly::Executor::KeepAlive<folly::EventBase>>>::_Vector_impl_data", ptr %agg.result, i64 0, i32 1
  %_M_end_of_storage.i = getelementptr inbounds %"struct.std::_Vector_base<folly::Executor::KeepAlive<folly::EventBase>, std::allocator<folly::Executor::KeepAlive<folly::EventBase>>>::_Vector_impl_data", ptr %agg.result, i64 0, i32 2
  br label %for.body

for.cond.cleanup:                                 ; preds = %invoke.cont, %entry
  ret void

for.body:                                         ; preds = %invoke.cont, %for.body.lr.ph
  %__begin1.sroa.0.016 = phi ptr [ %0, %for.body.lr.ph ], [ %incdec.ptr.i12, %invoke.cont ]
  call void @llvm.lifetime.start.p0(i64 8, ptr nonnull %ref.tmp) #32
  %2 = load ptr, ptr %__begin1.sroa.0.016, align 8, !tbaa !55
  store ptr %2, ptr %ref.tmp, align 8, !tbaa !55
  %3 = load ptr, ptr %_M_finish.i11, align 8, !tbaa !55
  %4 = load ptr, ptr %_M_end_of_storage.i, align 8, !tbaa !195
  %cmp.not.i = icmp eq ptr %3, %4
  br i1 %cmp.not.i, label %if.else.i, label %if.then.i

if.then.i:                                        ; preds = %for.body
  store i64 0, ptr %3, align 8, !tbaa !197
  %tobool.not.i.i.i.i.i = icmp eq ptr %2, null
  br i1 %tobool.not.i.i.i.i.i, label %_ZNSt16allocator_traitsISaIN5folly8Executor9KeepAliveINS0_9EventBaseEEEEE9constructIS4_JPS3_EEEvRS5_PT_DpOT0_.exit.i, label %_ZN5folly8Executor17getKeepAliveTokenINS_9EventBaseEEENS0_9KeepAliveIT_EEPS4_.exit.i.i.i.i

_ZN5folly8Executor17getKeepAliveTokenINS_9EventBaseEEENS0_9KeepAliveIT_EEPS4_.exit.i.i.i.i: ; preds = %if.then.i
  %vtable.i.i.i.i.i = load ptr, ptr %2, align 16, !tbaa !29, !noalias !199
  %vbase.offset.ptr.i.i.i.i.i = getelementptr i8, ptr %vtable.i.i.i.i.i, i64 -24
  %vbase.offset.i.i.i.i.i = load i64, ptr %vbase.offset.ptr.i.i.i.i.i, align 8, !noalias !199
  %add.ptr.i.i.i.i.i = getelementptr inbounds i8, ptr %2, i64 %vbase.offset.i.i.i.i.i
  %vtable1.i.i.i.i.i = load ptr, ptr %add.ptr.i.i.i.i.i, align 8, !tbaa !29, !noalias !199
  %vfn.i.i.i.i.i = getelementptr inbounds ptr, ptr %vtable1.i.i.i.i.i, i64 5
  %5 = load ptr, ptr %vfn.i.i.i.i.i, align 8, !noalias !199
  %call.i.i.i.i.i = call noundef zeroext i1 %5(ptr noundef nonnull align 8 dereferenceable(8) %add.ptr.i.i.i.i.i) #32, !noalias !199
  %6 = ptrtoint ptr %2 to i64
  %not.call.i.i.i.i.i = xor i1 %call.i.i.i.i.i, true
  %or.i.i.i.i.i.i.i = zext i1 %not.call.i.i.i.i.i to i64
  %spec.select.i.i.i.i.i = or i64 %or.i.i.i.i.i.i.i, %6
  %.pre.i.i.i.i = load i64, ptr %3, align 8, !tbaa !75
  %and.i.i.i.i.i.i.i = and i64 %.pre.i.i.i.i, -4
  %7 = icmp eq i64 %and.i.i.i.i.i.i.i, 0
  br i1 %7, label %_ZNSt16allocator_traitsISaIN5folly8Executor9KeepAliveINS0_9EventBaseEEEEE9constructIS4_JPS3_EEEvRS5_PT_DpOT0_.exit.i, label %cast.end.i.i.i.i.i.i

cast.end.i.i.i.i.i.i:                             ; preds = %_ZN5folly8Executor17getKeepAliveTokenINS_9EventBaseEEENS0_9KeepAliveIT_EEPS4_.exit.i.i.i.i
  %8 = inttoptr i64 %and.i.i.i.i.i.i.i to ptr
  %vtable.i.i.i.i.i.i = load ptr, ptr %8, align 16, !tbaa !29
  %vbase.offset.ptr.i.i.i.i.i.i = getelementptr i8, ptr %vtable.i.i.i.i.i.i, i64 -24
  %vbase.offset.i.i.i.i.i.i = load i64, ptr %vbase.offset.ptr.i.i.i.i.i.i, align 8
  store i64 0, ptr %3, align 8, !tbaa !75
  %and.i.i.i.i.i.i = and i64 %.pre.i.i.i.i, 3
  %tobool4.not.i.i.i.i.i.i = icmp eq i64 %and.i.i.i.i.i.i, 0
  br i1 %tobool4.not.i.i.i.i.i.i, label %if.then5.i.i.i.i.i.i, label %_ZNSt16allocator_traitsISaIN5folly8Executor9KeepAliveINS0_9EventBaseEEEEE9constructIS4_JPS3_EEEvRS5_PT_DpOT0_.exit.i

if.then5.i.i.i.i.i.i:                             ; preds = %cast.end.i.i.i.i.i.i
  %add.ptr.i.i.i.i.i.i = getelementptr inbounds i8, ptr %8, i64 %vbase.offset.i.i.i.i.i.i
  %vtable6.i.i.i.i.i.i = load ptr, ptr %add.ptr.i.i.i.i.i.i, align 8, !tbaa !29
  %vfn.i.i.i.i.i.i = getelementptr inbounds ptr, ptr %vtable6.i.i.i.i.i.i, i64 6
  %9 = load ptr, ptr %vfn.i.i.i.i.i.i, align 8
  call void %9(ptr noundef nonnull align 8 dereferenceable(8) %add.ptr.i.i.i.i.i.i) #32
  br label %_ZNSt16allocator_traitsISaIN5folly8Executor9KeepAliveINS0_9EventBaseEEEEE9constructIS4_JPS3_EEEvRS5_PT_DpOT0_.exit.i

_ZNSt16allocator_traitsISaIN5folly8Executor9KeepAliveINS0_9EventBaseEEEEE9constructIS4_JPS3_EEEvRS5_PT_DpOT0_.exit.i: ; preds = %if.then5.i.i.i.i.i.i, %cast.end.i.i.i.i.i.i, %_ZN5folly8Executor17getKeepAliveTokenINS_9EventBaseEEENS0_9KeepAliveIT_EEPS4_.exit.i.i.i.i, %if.then.i
  %.sink.i16.i.i.i.i = phi i64 [ %spec.select.i.i.i.i.i, %if.then5.i.i.i.i.i.i ], [ %spec.select.i.i.i.i.i, %cast.end.i.i.i.i.i.i ], [ %spec.select.i.i.i.i.i, %_ZN5folly8Executor17getKeepAliveTokenINS_9EventBaseEEENS0_9KeepAliveIT_EEPS4_.exit.i.i.i.i ], [ 0, %if.then.i ]
  store i64 %.sink.i16.i.i.i.i, ptr %3, align 8, !tbaa !197
  %10 = load ptr, ptr %_M_finish.i11, align 8, !tbaa !202
  %incdec.ptr.i = getelementptr inbounds %"class.folly::Executor::KeepAlive.461", ptr %10, i64 1
  store ptr %incdec.ptr.i, ptr %_M_finish.i11, align 8, !tbaa !202
  br label %invoke.cont

if.else.i:                                        ; preds = %for.body
  invoke void @_ZNSt6vectorIN5folly8Executor9KeepAliveINS0_9EventBaseEEESaIS4_EE17_M_realloc_insertIJPS3_EEEvN9__gnu_cxx17__normal_iteratorIPS4_S6_EEDpOT_(ptr noundef nonnull align 8 dereferenceable(24) %agg.result, ptr %3, ptr noundef nonnull align 8 dereferenceable(8) %ref.tmp)
          to label %invoke.cont unwind label %lpad

invoke.cont:                                      ; preds = %if.else.i, %_ZNSt16allocator_traitsISaIN5folly8Executor9KeepAliveINS0_9EventBaseEEEEE9constructIS4_JPS3_EEEvRS5_PT_DpOT0_.exit.i
  call void @llvm.lifetime.end.p0(i64 8, ptr nonnull %ref.tmp) #32
  %incdec.ptr.i12 = getelementptr inbounds %"class.std::unique_ptr.151", ptr %__begin1.sroa.0.016, i64 1
  %cmp.i.not = icmp eq ptr %incdec.ptr.i12, %1
  br i1 %cmp.i.not, label %for.cond.cleanup, label %for.body

lpad:                                             ; preds = %if.else.i
  %11 = landingpad { ptr, i32 }
          cleanup
  call void @llvm.lifetime.end.p0(i64 8, ptr nonnull %ref.tmp) #32
  call void @_ZNSt6vectorIN5folly8Executor9KeepAliveINS0_9EventBaseEEESaIS4_EED2Ev(ptr noundef nonnull align 8 dereferenceable(24) %agg.result) #32
  resume { ptr, i32 } %11
}

; Function Attrs: mustprogress nounwind uwtable
define linkonce_odr noundef ptr @_ZN5folly23MuxIOThreadPoolExecutor20getThreadIdCollectorEv(ptr noundef nonnull align 64 dereferenceable(768) %this) unnamed_addr #1 comdat align 2 {
entry:
  %threadIdCollector_ = getelementptr inbounds %"class.folly::MuxIOThreadPoolExecutor", ptr %this, i64 0, i32 5
  %0 = load ptr, ptr %threadIdCollector_, align 16, !tbaa !55
  ret ptr %0
}

; Function Attrs: nounwind uwtable
define void @_ZThn488_N5folly23MuxIOThreadPoolExecutorD1Ev(ptr noundef %this) unnamed_addr #4 align 2 {
entry:
  %0 = getelementptr inbounds i8, ptr %this, i64 -488
  tail call void @_ZN5folly23MuxIOThreadPoolExecutorD2Ev(ptr noundef nonnull align 64 dereferenceable(768) %0, ptr noundef nonnull @_ZTTN5folly23MuxIOThreadPoolExecutorE) #32
  ret void
}

; Function Attrs: nounwind uwtable
define void @_ZThn488_N5folly23MuxIOThreadPoolExecutorD0Ev(ptr noundef %this) unnamed_addr #4 align 2 {
entry:
  %0 = getelementptr inbounds i8, ptr %this, i64 -488
  tail call void @_ZN5folly23MuxIOThreadPoolExecutorD2Ev(ptr noundef nonnull align 64 dereferenceable(768) %0, ptr noundef nonnull @_ZTTN5folly23MuxIOThreadPoolExecutorE) #32
  tail call void @_ZdlPvSt11align_val_t(ptr noundef nonnull %0, i64 noundef 64) #40
  ret void
}

; Function Attrs: mustprogress nofree norecurse nounwind willreturn memory(read, argmem: readwrite, inaccessiblemem: none) uwtable
define noundef ptr @_ZThn488_N5folly23MuxIOThreadPoolExecutor12getEventBaseEv(ptr nocapture noundef %this) unnamed_addr #7 align 2 {
entry:
  %evbs_.i.i = getelementptr inbounds i8, ptr %this, i64 120
  %nextEVB_.i.i = getelementptr inbounds i8, ptr %this, i64 48
  %0 = atomicrmw add ptr %nextEVB_.i.i, i64 1 monotonic, align 8
  %_M_finish.i.i.i = getelementptr inbounds i8, ptr %this, i64 128
  %1 = load ptr, ptr %_M_finish.i.i.i, align 8, !tbaa !59
  %2 = load ptr, ptr %evbs_.i.i, align 8, !tbaa !61
  %sub.ptr.lhs.cast.i.i.i = ptrtoint ptr %1 to i64
  %sub.ptr.rhs.cast.i.i.i = ptrtoint ptr %2 to i64
  %sub.ptr.sub.i.i.i = sub i64 %sub.ptr.lhs.cast.i.i.i, %sub.ptr.rhs.cast.i.i.i
  %sub.ptr.div.i.i.i = ashr exact i64 %sub.ptr.sub.i.i.i, 3
  %rem.i.i = urem i64 %0, %sub.ptr.div.i.i.i
  %add.ptr.i.i.i = getelementptr inbounds %"class.std::unique_ptr.151", ptr %2, i64 %rem.i.i
  %3 = load ptr, ptr %add.ptr.i.i.i, align 8, !tbaa !55
  ret ptr %3
}

; Function Attrs: nounwind uwtable
define void @_ZThn496_N5folly23MuxIOThreadPoolExecutorD1Ev(ptr noundef %this) unnamed_addr #4 align 2 {
entry:
  %0 = getelementptr inbounds i8, ptr %this, i64 -496
  tail call void @_ZN5folly23MuxIOThreadPoolExecutorD2Ev(ptr noundef nonnull align 64 dereferenceable(768) %0, ptr noundef nonnull @_ZTTN5folly23MuxIOThreadPoolExecutorE) #32
  ret void
}

; Function Attrs: nounwind uwtable
define void @_ZThn496_N5folly23MuxIOThreadPoolExecutorD0Ev(ptr noundef %this) unnamed_addr #4 align 2 {
entry:
  %0 = getelementptr inbounds i8, ptr %this, i64 -496
  tail call void @_ZN5folly23MuxIOThreadPoolExecutorD2Ev(ptr noundef nonnull align 64 dereferenceable(768) %0, ptr noundef nonnull @_ZTTN5folly23MuxIOThreadPoolExecutorE) #32
  tail call void @_ZdlPvSt11align_val_t(ptr noundef nonnull %0, i64 noundef 64) #40
  ret void
}

; Function Attrs: uwtable
define linkonce_odr noundef ptr @_ZThn496_N5folly23MuxIOThreadPoolExecutor20getThreadIdCollectorEv(ptr noundef %this) unnamed_addr #8 comdat align 2 {
entry:
  %threadIdCollector_.i = getelementptr inbounds i8, ptr %this, i64 96
  %0 = load ptr, ptr %threadIdCollector_.i, align 8, !tbaa !55
  ret ptr %0
}

; Function Attrs: mustprogress nofree norecurse nosync nounwind willreturn memory(argmem: readwrite) uwtable
define void @_ZN5folly23MuxIOThreadPoolExecutor5Stats6updateEiNSt6chrono8durationIlSt5ratioILl1ELl1000000EEEE(ptr nocapture noundef nonnull align 8 dereferenceable(48) %this, i32 noundef %numEvents, i64 %wait.coerce) local_unnamed_addr #9 align 2 {
entry:
  %0 = load i32, ptr %this, align 8, !tbaa !203
  %cmp = icmp sgt i32 %0, %numEvents
  %cmp3 = icmp eq i32 %0, -1
  %or.cond = or i1 %cmp, %cmp3
  br i1 %or.cond, label %if.then, label %if.end

if.then:                                          ; preds = %entry
  store i32 %numEvents, ptr %this, align 8, !tbaa !203
  br label %if.end

if.end:                                           ; preds = %if.then, %entry
  %maxNumEvents = getelementptr inbounds %"struct.folly::MuxIOThreadPoolExecutor::Stats", ptr %this, i64 0, i32 1
  %1 = load i32, ptr %maxNumEvents, align 4, !tbaa !204
  %cmp5 = icmp slt i32 %1, %numEvents
  br i1 %cmp5, label %if.then6, label %if.end8

if.then6:                                         ; preds = %if.end
  store i32 %numEvents, ptr %maxNumEvents, align 4, !tbaa !204
  br label %if.end8

if.end8:                                          ; preds = %if.then6, %if.end
  %conv = sext i32 %numEvents to i64
  %totalNumEvents = getelementptr inbounds %"struct.folly::MuxIOThreadPoolExecutor::Stats", ptr %this, i64 0, i32 2
  %2 = load <2 x i64>, ptr %totalNumEvents, align 8, !tbaa !75
  %3 = insertelement <2 x i64> <i64 poison, i64 1>, i64 %conv, i64 0
  %4 = add <2 x i64> %2, %3
  store <2 x i64> %4, ptr %totalNumEvents, align 8, !tbaa !75
  %totalWait = getelementptr inbounds %"struct.folly::MuxIOThreadPoolExecutor::Stats", ptr %this, i64 0, i32 4
  %5 = load i64, ptr %totalWait, align 8, !tbaa !205
  %add.i = add nsw i64 %5, %wait.coerce
  store i64 %add.i, ptr %totalWait, align 8, !tbaa !205
  %minWait = getelementptr inbounds %"struct.folly::MuxIOThreadPoolExecutor::Stats", ptr %this, i64 0, i32 5
  %6 = load i64, ptr %minWait, align 8, !tbaa !205
  %cmp11 = icmp sgt i64 %6, %wait.coerce
  %cmp15 = icmp eq i64 %6, 0
  %or.cond33 = or i1 %cmp11, %cmp15
  br i1 %or.cond33, label %if.then16, label %if.end18

if.then16:                                        ; preds = %if.end8
  store i64 %wait.coerce, ptr %minWait, align 8, !tbaa !75
  br label %if.end18

if.end18:                                         ; preds = %if.then16, %if.end8
  %maxWait = getelementptr inbounds %"struct.folly::MuxIOThreadPoolExecutor::Stats", ptr %this, i64 0, i32 6
  %7 = load i64, ptr %maxWait, align 8, !tbaa !205
  %cmp21 = icmp slt i64 %7, %wait.coerce
  br i1 %cmp21, label %if.then22, label %if.end24

if.then22:                                        ; preds = %if.end18
  store i64 %wait.coerce, ptr %maxWait, align 8, !tbaa !75
  br label %if.end24

if.end24:                                         ; preds = %if.then22, %if.end18
  ret void
}

; Function Attrs: mustprogress nocallback nofree nounwind willreturn memory(argmem: readwrite)
declare void @llvm.memcpy.p0.p0.i64(ptr noalias nocapture writeonly, ptr noalias nocapture readonly, i64, i1 immarg) #10

; Function Attrs: mustprogress nofree norecurse nosync nounwind willreturn memory(none) uwtable
define void @_ZN5folly23MuxIOThreadPoolExecutor7HandlerD2Ev(ptr nocapture nonnull readnone align 8 %this) unnamed_addr #11 align 2 {
entry:
  ret void
}

; Function Attrs: cold noreturn nounwind memory(inaccessiblemem: write)
declare void @llvm.trap() #12

; Function Attrs: mustprogress uwtable
define void @_ZN5folly23MuxIOThreadPoolExecutor10EvbHandlerC2EPNS_9EventBaseE(ptr nocapture noundef nonnull writeonly align 8 dereferenceable(32) %this, ptr noundef %e) unnamed_addr #2 align 2 personality ptr @__gxx_personality_v0 {
entry:
  %hook_.i = getelementptr inbounds %"struct.folly::MuxIOThreadPoolExecutor::Handler", ptr %this, i64 0, i32 1
  store ptr null, ptr %hook_.i, align 8, !tbaa !206
  %fd.i = getelementptr inbounds %"struct.folly::MuxIOThreadPoolExecutor::Handler", ptr %this, i64 0, i32 2
  store i32 -1, ptr %fd.i, align 8, !tbaa !207
  %bHandleInline.i = getelementptr inbounds %"struct.folly::MuxIOThreadPoolExecutor::Handler", ptr %this, i64 0, i32 3
  store i8 0, ptr %bHandleInline.i, align 4, !tbaa !208
  store ptr getelementptr inbounds ({ [6 x ptr] }, ptr @_ZTVN5folly23MuxIOThreadPoolExecutor10EvbHandlerE, i64 0, inrange i32 0, i64 2), ptr %this, align 8, !tbaa !29
  %evb = getelementptr inbounds %"struct.folly::MuxIOThreadPoolExecutor::EvbHandler", ptr %this, i64 0, i32 1
  store ptr %e, ptr %evb, align 8, !tbaa !7
  %evb_.i = getelementptr inbounds %"class.folly::EventBase", ptr %e, i64 0, i32 38
  %0 = load ptr, ptr %evb_.i, align 8, !tbaa !55
  %vtable = load ptr, ptr %0, align 8, !tbaa !29
  %vfn = getelementptr inbounds ptr, ptr %vtable, i64 2
  %1 = load ptr, ptr %vfn, align 8
  %call4 = tail call noundef i32 %1(ptr noundef nonnull align 8 dereferenceable(8) %0)
  store i32 %call4, ptr %fd.i, align 8, !tbaa !207
  ret void
}

declare i32 @__gxx_personality_v0(...)

; Function Attrs: nobuiltin nounwind
declare void @_ZdlPv(ptr noundef) local_unnamed_addr #13

declare void @_ZN5folly9EventBase13loopPollSetupEv(ptr noundef nonnull align 16 dereferenceable(584)) local_unnamed_addr #3

declare noundef zeroext i1 @_ZN5folly9EventBase8loopPollEv(ptr noundef nonnull align 16 dereferenceable(584)) local_unnamed_addr #3

declare noundef i64 @_ZNK5folly9EventBase19getNumLoopCallbacksEv(ptr noundef nonnull align 16 dereferenceable(584)) local_unnamed_addr #3

declare void @_ZN5folly9EventBase15loopPollCleanupEv(ptr noundef nonnull align 16 dereferenceable(584)) local_unnamed_addr #3

; Function Attrs: mustprogress uwtable
define void @_ZN5folly23MuxIOThreadPoolExecutor14EventFdHandlerC2Ev(ptr nocapture noundef nonnull writeonly align 8 dereferenceable(21) %this) unnamed_addr #2 align 2 personality ptr @__gxx_personality_v0 {
entry:
  %ref.tmp = alloca %"class.std::__cxx11::basic_string", align 8
  %hook_.i = getelementptr inbounds %"struct.folly::MuxIOThreadPoolExecutor::Handler", ptr %this, i64 0, i32 1
  store ptr null, ptr %hook_.i, align 8, !tbaa !206
  %fd.i = getelementptr inbounds %"struct.folly::MuxIOThreadPoolExecutor::Handler", ptr %this, i64 0, i32 2
  store i32 -1, ptr %fd.i, align 8, !tbaa !207
  %bHandleInline.i = getelementptr inbounds %"struct.folly::MuxIOThreadPoolExecutor::Handler", ptr %this, i64 0, i32 3
  store i8 1, ptr %bHandleInline.i, align 4, !tbaa !208
  store ptr getelementptr inbounds ({ [6 x ptr] }, ptr @_ZTVN5folly23MuxIOThreadPoolExecutor14EventFdHandlerE, i64 0, inrange i32 0, i64 2), ptr %this, align 8, !tbaa !29
  %call = tail call i32 @eventfd(i32 noundef 0, i32 noundef 526336) #32
  store i32 %call, ptr %fd.i, align 8, !tbaa !207
  %cmp = icmp slt i32 %call, 0
  br i1 %cmp, label %if.then, label %if.end

if.then:                                          ; preds = %entry
  %exception = tail call ptr @__cxa_allocate_exception(i64 16) #32
  call void @llvm.lifetime.start.p0(i64 32, ptr nonnull %ref.tmp) #32
  %call3 = tail call ptr @__errno_location() #43
  %0 = load i32, ptr %call3, align 4, !tbaa !54
  invoke void @_ZN5folly8errnoStrB5cxx11Ei(ptr nonnull sret(%"class.std::__cxx11::basic_string") align 8 %ref.tmp, i32 noundef %0)
          to label %invoke.cont unwind label %ehcleanup.thread

invoke.cont:                                      ; preds = %if.then
  invoke void @_ZNSt13runtime_errorC1ERKNSt7__cxx1112basic_stringIcSt11char_traitsIcESaIcEEE(ptr noundef nonnull align 8 dereferenceable(16) %exception, ptr noundef nonnull align 8 dereferenceable(32) %ref.tmp)
          to label %invoke.cont5 unwind label %lpad4

invoke.cont5:                                     ; preds = %invoke.cont
  invoke void @__cxa_throw(ptr nonnull %exception, ptr nonnull @_ZTISt13runtime_error, ptr nonnull @_ZNSt13runtime_errorD1Ev) #42
          to label %unreachable unwind label %lpad4

ehcleanup.thread:                                 ; preds = %if.then
  %1 = landingpad { ptr, i32 }
          cleanup
  call void @llvm.lifetime.end.p0(i64 32, ptr nonnull %ref.tmp) #32
  br label %cleanup.action

lpad4:                                            ; preds = %invoke.cont5, %invoke.cont
  %cleanup.isactive.0 = phi i1 [ false, %invoke.cont5 ], [ true, %invoke.cont ]
  %2 = landingpad { ptr, i32 }
          cleanup
  %3 = load ptr, ptr %ref.tmp, align 8, !tbaa !209
  %4 = getelementptr inbounds %"class.std::__cxx11::basic_string", ptr %ref.tmp, i64 0, i32 2
  %cmp.i.i.i = icmp eq ptr %3, %4
  br i1 %cmp.i.i.i, label %_ZNKSt7__cxx1112basic_stringIcSt11char_traitsIcESaIcEE11_M_is_localEv.exit.thread.i.i, label %ehcleanup

_ZNKSt7__cxx1112basic_stringIcSt11char_traitsIcESaIcEE11_M_is_localEv.exit.thread.i.i: ; preds = %lpad4
  %_M_string_length.i.i.i = getelementptr inbounds %"class.std::__cxx11::basic_string", ptr %ref.tmp, i64 0, i32 1
  %5 = load i64, ptr %_M_string_length.i.i.i, align 8, !tbaa !212
  %cmp3.i.i.i = icmp ult i64 %5, 16
  call void @llvm.assume(i1 %cmp3.i.i.i)
  call void @llvm.lifetime.end.p0(i64 32, ptr nonnull %ref.tmp) #32
  br i1 %cleanup.isactive.0, label %cleanup.action, label %cleanup.done

ehcleanup:                                        ; preds = %lpad4
  call void @_ZdlPv(ptr noundef %3) #40
  call void @llvm.lifetime.end.p0(i64 32, ptr nonnull %ref.tmp) #32
  br i1 %cleanup.isactive.0, label %cleanup.action, label %cleanup.done

cleanup.action:                                   ; preds = %ehcleanup, %_ZNKSt7__cxx1112basic_stringIcSt11char_traitsIcESaIcEE11_M_is_localEv.exit.thread.i.i, %ehcleanup.thread
  %.pn13 = phi { ptr, i32 } [ %1, %ehcleanup.thread ], [ %2, %ehcleanup ], [ %2, %_ZNKSt7__cxx1112basic_stringIcSt11char_traitsIcESaIcEE11_M_is_localEv.exit.thread.i.i ]
  call void @__cxa_free_exception(ptr %exception) #32
  br label %cleanup.done

cleanup.done:                                     ; preds = %cleanup.action, %ehcleanup, %_ZNKSt7__cxx1112basic_stringIcSt11char_traitsIcESaIcEE11_M_is_localEv.exit.thread.i.i
  %.pn12 = phi { ptr, i32 } [ %.pn13, %cleanup.action ], [ %2, %ehcleanup ], [ %2, %_ZNKSt7__cxx1112basic_stringIcSt11char_traitsIcESaIcEE11_M_is_localEv.exit.thread.i.i ]
  resume { ptr, i32 } %.pn12

if.end:                                           ; preds = %entry
  ret void

unreachable:                                      ; preds = %invoke.cont5
  unreachable
}

; Function Attrs: nounwind
declare i32 @eventfd(i32 noundef, i32 noundef) local_unnamed_addr #5

declare ptr @__cxa_allocate_exception(i64) local_unnamed_addr

; Function Attrs: mustprogress nocallback nofree nosync nounwind willreturn memory(argmem: readwrite)
declare void @llvm.lifetime.start.p0(i64 immarg, ptr nocapture) #14

declare void @_ZN5folly8errnoStrB5cxx11Ei(ptr sret(%"class.std::__cxx11::basic_string") align 8, i32 noundef) local_unnamed_addr #3

; Function Attrs: mustprogress nofree nosync nounwind willreturn memory(none)
declare ptr @__errno_location() local_unnamed_addr #15

declare void @_ZNSt13runtime_errorC1ERKNSt7__cxx1112basic_stringIcSt11char_traitsIcESaIcEEE(ptr noundef nonnull align 8 dereferenceable(16), ptr noundef nonnull align 8 dereferenceable(32)) unnamed_addr #3

; Function Attrs: nounwind
declare void @_ZNSt13runtime_errorD1Ev(ptr noundef nonnull align 8 dereferenceable(16)) unnamed_addr #5

declare void @__cxa_throw(ptr, ptr, ptr) local_unnamed_addr

; Function Attrs: mustprogress nocallback nofree nosync nounwind willreturn memory(argmem: readwrite)
declare void @llvm.lifetime.end.p0(i64 immarg, ptr nocapture) #14

declare void @__cxa_free_exception(ptr) local_unnamed_addr

; Function Attrs: noreturn nounwind uwtable
define linkonce_odr hidden void @__clang_call_terminate(ptr noundef %0) local_unnamed_addr #16 comdat {
  %2 = tail call ptr @__cxa_begin_catch(ptr %0) #32
  tail call void @_ZSt9terminatev() #39
  unreachable
}

declare ptr @__cxa_begin_catch(ptr) local_unnamed_addr

declare void @_ZSt9terminatev() local_unnamed_addr

; Function Attrs: mustprogress nounwind uwtable
define void @_ZN5folly23MuxIOThreadPoolExecutor14EventFdHandlerD2Ev(ptr nocapture noundef nonnull align 8 dereferenceable(21) %this) unnamed_addr #1 align 2 personality ptr @__gxx_personality_v0 {
entry:
  store ptr getelementptr inbounds ({ [6 x ptr] }, ptr @_ZTVN5folly23MuxIOThreadPoolExecutor14EventFdHandlerE, i64 0, inrange i32 0, i64 2), ptr %this, align 8, !tbaa !29
  %fd = getelementptr inbounds %"struct.folly::MuxIOThreadPoolExecutor::Handler", ptr %this, i64 0, i32 2
  %0 = load i32, ptr %fd, align 8, !tbaa !207
  %call = invoke i32 @close(i32 noundef %0)
          to label %invoke.cont unwind label %terminate.lpad

invoke.cont:                                      ; preds = %entry
  ret void

terminate.lpad:                                   ; preds = %entry
  %1 = landingpad { ptr, i32 }
          catch ptr null
  %2 = extractvalue { ptr, i32 } %1, 0
  tail call void @__clang_call_terminate(ptr %2) #39
  unreachable
}

declare i32 @close(i32 noundef) local_unnamed_addr #3

; Function Attrs: mustprogress uwtable
define void @_ZN5folly23MuxIOThreadPoolExecutor14EventFdHandler8notifyFdEv(ptr nocapture noundef nonnull readonly align 8 dereferenceable(21) %this) local_unnamed_addr #2 align 2 personality ptr @__gxx_personality_v0 {
entry:
  %val = alloca i64, align 8
  %ref.tmp = alloca %"class.std::__cxx11::basic_string", align 8
  call void @llvm.lifetime.start.p0(i64 8, ptr nonnull %val) #32
  store i64 1, ptr %val, align 8, !tbaa !75
  %fd = getelementptr inbounds %"struct.folly::MuxIOThreadPoolExecutor::Handler", ptr %this, i64 0, i32 2
  %0 = load i32, ptr %fd, align 8, !tbaa !207
  %call = call i64 @write(i32 noundef %0, ptr noundef nonnull %val, i64 noundef 8)
  %cmp.not = icmp eq i64 %call, 8
  br i1 %cmp.not, label %if.end, label %if.then

if.then:                                          ; preds = %entry
  %exception = tail call ptr @__cxa_allocate_exception(i64 16) #32
  call void @llvm.lifetime.start.p0(i64 32, ptr nonnull %ref.tmp) #32
  %call2 = tail call ptr @__errno_location() #43
  %1 = load i32, ptr %call2, align 4, !tbaa !54
  invoke void @_ZN5folly8errnoStrB5cxx11Ei(ptr nonnull sret(%"class.std::__cxx11::basic_string") align 8 %ref.tmp, i32 noundef %1)
          to label %invoke.cont unwind label %ehcleanup.thread

invoke.cont:                                      ; preds = %if.then
  invoke void @_ZNSt13runtime_errorC1ERKNSt7__cxx1112basic_stringIcSt11char_traitsIcESaIcEEE(ptr noundef nonnull align 8 dereferenceable(16) %exception, ptr noundef nonnull align 8 dereferenceable(32) %ref.tmp)
          to label %invoke.cont4 unwind label %lpad3

invoke.cont4:                                     ; preds = %invoke.cont
  invoke void @__cxa_throw(ptr nonnull %exception, ptr nonnull @_ZTISt13runtime_error, ptr nonnull @_ZNSt13runtime_errorD1Ev) #42
          to label %unreachable unwind label %lpad3

ehcleanup.thread:                                 ; preds = %if.then
  %2 = landingpad { ptr, i32 }
          cleanup
  call void @llvm.lifetime.end.p0(i64 32, ptr nonnull %ref.tmp) #32
  br label %cleanup.action

lpad3:                                            ; preds = %invoke.cont4, %invoke.cont
  %cleanup.isactive.0 = phi i1 [ false, %invoke.cont4 ], [ true, %invoke.cont ]
  %3 = landingpad { ptr, i32 }
          cleanup
  %4 = load ptr, ptr %ref.tmp, align 8, !tbaa !209
  %5 = getelementptr inbounds %"class.std::__cxx11::basic_string", ptr %ref.tmp, i64 0, i32 2
  %cmp.i.i.i = icmp eq ptr %4, %5
  br i1 %cmp.i.i.i, label %_ZNKSt7__cxx1112basic_stringIcSt11char_traitsIcESaIcEE11_M_is_localEv.exit.thread.i.i, label %ehcleanup

_ZNKSt7__cxx1112basic_stringIcSt11char_traitsIcESaIcEE11_M_is_localEv.exit.thread.i.i: ; preds = %lpad3
  %_M_string_length.i.i.i = getelementptr inbounds %"class.std::__cxx11::basic_string", ptr %ref.tmp, i64 0, i32 1
  %6 = load i64, ptr %_M_string_length.i.i.i, align 8, !tbaa !212
  %cmp3.i.i.i = icmp ult i64 %6, 16
  call void @llvm.assume(i1 %cmp3.i.i.i)
  call void @llvm.lifetime.end.p0(i64 32, ptr nonnull %ref.tmp) #32
  br i1 %cleanup.isactive.0, label %cleanup.action, label %cleanup.done

ehcleanup:                                        ; preds = %lpad3
  call void @_ZdlPv(ptr noundef %4) #40
  call void @llvm.lifetime.end.p0(i64 32, ptr nonnull %ref.tmp) #32
  br i1 %cleanup.isactive.0, label %cleanup.action, label %cleanup.done

cleanup.action:                                   ; preds = %ehcleanup, %_ZNKSt7__cxx1112basic_stringIcSt11char_traitsIcESaIcEE11_M_is_localEv.exit.thread.i.i, %ehcleanup.thread
  %.pn13 = phi { ptr, i32 } [ %2, %ehcleanup.thread ], [ %3, %ehcleanup ], [ %3, %_ZNKSt7__cxx1112basic_stringIcSt11char_traitsIcESaIcEE11_M_is_localEv.exit.thread.i.i ]
  call void @__cxa_free_exception(ptr %exception) #32
  br label %cleanup.done

cleanup.done:                                     ; preds = %cleanup.action, %ehcleanup, %_ZNKSt7__cxx1112basic_stringIcSt11char_traitsIcESaIcEE11_M_is_localEv.exit.thread.i.i
  %.pn12 = phi { ptr, i32 } [ %.pn13, %cleanup.action ], [ %3, %ehcleanup ], [ %3, %_ZNKSt7__cxx1112basic_stringIcSt11char_traitsIcESaIcEE11_M_is_localEv.exit.thread.i.i ]
  call void @llvm.lifetime.end.p0(i64 8, ptr nonnull %val) #32
  resume { ptr, i32 } %.pn12

if.end:                                           ; preds = %entry
  call void @llvm.lifetime.end.p0(i64 8, ptr nonnull %val) #32
  ret void

unreachable:                                      ; preds = %invoke.cont4
  unreachable
}

; Function Attrs: nofree
declare noundef i64 @write(i32 noundef, ptr nocapture noundef readonly, i64 noundef) local_unnamed_addr #17

; Function Attrs: mustprogress nofree uwtable
define void @_ZN5folly23MuxIOThreadPoolExecutor14EventFdHandler7drainFdEv(ptr nocapture noundef nonnull readonly align 8 dereferenceable(21) %this) local_unnamed_addr #18 align 2 {
entry:
  %data = alloca i64, align 8
  call void @llvm.lifetime.start.p0(i64 8, ptr nonnull %data) #32
  store i64 0, ptr %data, align 8, !tbaa !75
  %fd = getelementptr inbounds %"struct.folly::MuxIOThreadPoolExecutor::Handler", ptr %this, i64 0, i32 2
  br label %do.body

do.body:                                          ; preds = %land.rhs, %entry
  %0 = load i32, ptr %fd, align 8, !tbaa !207
  %call = call i64 @read(i32 noundef %0, ptr noundef nonnull %data, i64 noundef 8)
  %1 = and i64 %call, 2147483648
  %cmp.not = icmp eq i64 %1, 0
  br i1 %cmp.not, label %do.end, label %land.rhs

land.rhs:                                         ; preds = %do.body
  %call2 = tail call ptr @__errno_location() #43
  %2 = load i32, ptr %call2, align 4, !tbaa !54
  %cmp3 = icmp eq i32 %2, 4
  br i1 %cmp3, label %do.body, label %do.end, !llvm.loop !213

do.end:                                           ; preds = %land.rhs, %do.body
  call void @llvm.lifetime.end.p0(i64 8, ptr nonnull %data) #32
  ret void
}

; Function Attrs: nofree
declare noundef i64 @read(i32 noundef, ptr nocapture noundef, i64 noundef) local_unnamed_addr #17

; Function Attrs: mustprogress uwtable
define void @_ZN5folly23MuxIOThreadPoolExecutor13handleDequeueEv(ptr nocapture noundef nonnull align 64 dereferenceable(768) %this) local_unnamed_addr #2 align 2 personality ptr @__gxx_personality_v0 {
entry:
  %comb.i = alloca %"class.google::base::CheckOpMessageBuilder", align 8
  %event.i = alloca %struct.epoll_event, align 4
  %_result.i = alloca %"struct.google::CheckOpString", align 8
  %ref.tmp34.i = alloca %"class.google::LogMessageFatal", align 8
  %data.i.i = alloca i64, align 8
  call void @llvm.lifetime.start.p0(i64 8, ptr nonnull %data.i.i) #32
  store i64 0, ptr %data.i.i, align 8, !tbaa !75
  %fd.i.i = getelementptr inbounds %"class.folly::MuxIOThreadPoolExecutor", ptr %this, i64 0, i32 15, i32 0, i32 2
  br label %do.body.i.i

do.body.i.i:                                      ; preds = %land.rhs.i.i, %entry
  %0 = load i32, ptr %fd.i.i, align 8, !tbaa !207
  %call.i.i = call i64 @read(i32 noundef %0, ptr noundef nonnull %data.i.i, i64 noundef 8)
  %1 = and i64 %call.i.i, 2147483648
  %cmp.not.i.i = icmp eq i64 %1, 0
  br i1 %cmp.not.i.i, label %_ZN5folly23MuxIOThreadPoolExecutor7drainFdEv.exit, label %land.rhs.i.i

land.rhs.i.i:                                     ; preds = %do.body.i.i
  %call2.i.i = tail call ptr @__errno_location() #43
  %2 = load i32, ptr %call2.i.i, align 4, !tbaa !54
  %cmp3.i.i = icmp eq i32 %2, 4
  br i1 %cmp3.i.i, label %do.body.i.i, label %_ZN5folly23MuxIOThreadPoolExecutor7drainFdEv.exit, !llvm.loop !214

_ZN5folly23MuxIOThreadPoolExecutor7drainFdEv.exit: ; preds = %land.rhs.i.i, %do.body.i.i
  call void @llvm.lifetime.end.p0(i64 8, ptr nonnull %data.i.i) #32
  %returnList_ = getelementptr inbounds %"class.folly::MuxIOThreadPoolExecutor", ptr %this, i64 0, i32 14
  %data.i = getelementptr inbounds %struct.epoll_event, ptr %event.i, i64 0, i32 1
  %epFd_.i = getelementptr inbounds %"class.folly::MuxIOThreadPoolExecutor", ptr %this, i64 0, i32 6
  br label %while.cond

while.cond.loopexit:                              ; preds = %_ZN5folly23MuxIOThreadPoolExecutor10addHandlerEPNS0_7HandlerEbb.exit
  br label %while.cond, !llvm.loop !215

while.cond:                                       ; preds = %while.cond.loopexit, %_ZN5folly23MuxIOThreadPoolExecutor7drainFdEv.exit
  %3 = load atomic i64, ptr %returnList_ monotonic, align 32
  br label %do.body.i

do.body.i:                                        ; preds = %cond.end.i, %while.cond
  %oldHead.0.in.i = phi i64 [ %3, %while.cond ], [ %oldHead.3.in.i, %cond.end.i ]
  %oldHead.0.i = inttoptr i64 %oldHead.0.in.i to ptr
  %switch.i = icmp ult ptr %oldHead.0.i, inttoptr (i64 2 to ptr)
  br i1 %switch.i, label %cond.true.split.i, label %lor.lhs.false.split.i

lor.lhs.false.split.i:                            ; preds = %do.body.i
  %4 = cmpxchg ptr %returnList_, i64 %oldHead.0.in.i, i64 0 acq_rel monotonic, align 8
  %5 = extractvalue { i64, i1 } %4, 1
  br i1 %5, label %_ZN5folly25AtomicIntrusiveLinkedListINS_23MuxIOThreadPoolExecutor7HandlerEXadL_ZNS2_5hook_EEEE3armEv.exit, label %cond.end.i

cond.true.split.i:                                ; preds = %do.body.i
  %6 = cmpxchg ptr %returnList_, i64 %oldHead.0.in.i, i64 1 acq_rel monotonic, align 8
  %7 = extractvalue { i64, i1 } %6, 1
  br i1 %7, label %_ZN5folly25AtomicIntrusiveLinkedListINS_23MuxIOThreadPoolExecutor7HandlerEXadL_ZNS2_5hook_EEEE3armEv.exit, label %cond.end.i

cond.end.i:                                       ; preds = %cond.true.split.i, %lor.lhs.false.split.i
  %.pn.i = phi { i64, i1 } [ %4, %lor.lhs.false.split.i ], [ %6, %cond.true.split.i ]
  %oldHead.3.in.i = extractvalue { i64, i1 } %.pn.i, 0
  br label %do.body.i, !llvm.loop !216

_ZN5folly25AtomicIntrusiveLinkedListINS_23MuxIOThreadPoolExecutor7HandlerEXadL_ZNS2_5hook_EEEE3armEv.exit: ; preds = %cond.true.split.i, %lor.lhs.false.split.i
  %cmp7.i = icmp eq ptr %oldHead.0.i, inttoptr (i64 1 to ptr)
  %tobool.not15 = icmp eq i64 %oldHead.0.in.i, 0
  %tobool.not = or i1 %tobool.not15, %cmp7.i
  br i1 %tobool.not, label %while.end7, label %while.body4

while.body4:                                      ; preds = %_ZN5folly25AtomicIntrusiveLinkedListINS_23MuxIOThreadPoolExecutor7HandlerEXadL_ZNS2_5hook_EEEE3armEv.exit, %_ZN5folly23MuxIOThreadPoolExecutor10addHandlerEPNS0_7HandlerEbb.exit
  %handler.017 = phi ptr [ %8, %_ZN5folly23MuxIOThreadPoolExecutor10addHandlerEPNS0_7HandlerEbb.exit ], [ %oldHead.0.i, %_ZN5folly25AtomicIntrusiveLinkedListINS_23MuxIOThreadPoolExecutor7HandlerEXadL_ZNS2_5hook_EEEE3armEv.exit ]
  %hook_.i = getelementptr inbounds %"struct.folly::MuxIOThreadPoolExecutor::Handler", ptr %handler.017, i64 0, i32 1
  %8 = load ptr, ptr %hook_.i, align 8, !tbaa !55
  store ptr null, ptr %hook_.i, align 8, !tbaa !55
  call void @llvm.lifetime.start.p0(i64 12, ptr nonnull %event.i) #32
  store ptr %handler.017, ptr %data.i, align 4, !tbaa !53
  store i32 1073741825, ptr %event.i, align 4, !tbaa !217
  %fd21.i = getelementptr inbounds %"struct.folly::MuxIOThreadPoolExecutor::Handler", ptr %handler.017, i64 0, i32 2
  %9 = load i32, ptr %fd21.i, align 8, !tbaa !207
  %10 = load i32, ptr %epFd_.i, align 8, !tbaa !219
  %call27.i = call i32 @epoll_ctl(i32 noundef %10, i32 noundef 3, i32 noundef %9, ptr noundef nonnull %event.i) #32
  call void @llvm.lifetime.start.p0(i64 8, ptr nonnull %_result.i) #32
  %cmp.i.i.i = icmp eq i32 %call27.i, 0
  br i1 %cmp.i.i.i, label %_ZN5folly23MuxIOThreadPoolExecutor10addHandlerEPNS0_7HandlerEbb.exit, label %_ZN6google12Check_EQImplB5cxx11EiiPKc.exit.i, !prof !220

_ZN6google12Check_EQImplB5cxx11EiiPKc.exit.i:     ; preds = %while.body4
  call void @llvm.lifetime.start.p0(i64 8, ptr nonnull %comb.i) #32
  call void @_ZN6google4base21CheckOpMessageBuilderC1EPKc(ptr noundef nonnull align 8 dereferenceable(8) %comb.i, ptr noundef nonnull @.str.100)
  %11 = load ptr, ptr %comb.i, align 8, !tbaa !221
  %call.i8.i = invoke noundef nonnull align 8 dereferenceable(8) ptr @_ZNSolsEi(ptr noundef nonnull align 8 dereferenceable(8) %11, i32 noundef %call27.i)
          to label %invoke.cont1.i unwind label %lpad.i

invoke.cont1.i:                                   ; preds = %_ZN6google12Check_EQImplB5cxx11EiiPKc.exit.i
  %call3.i = invoke noundef ptr @_ZN6google4base21CheckOpMessageBuilder7ForVar2Ev(ptr noundef nonnull align 8 dereferenceable(8) %comb.i)
          to label %invoke.cont2.i unwind label %lpad.i

invoke.cont2.i:                                   ; preds = %invoke.cont1.i
  %call.i9.i = invoke noundef nonnull align 8 dereferenceable(8) ptr @_ZNSolsEi(ptr noundef nonnull align 8 dereferenceable(8) %call3.i, i32 noundef 0)
          to label %invoke.cont4.i unwind label %lpad.i

invoke.cont4.i:                                   ; preds = %invoke.cont2.i
  %call6.i = invoke noundef ptr @_ZN6google4base21CheckOpMessageBuilder9NewStringB5cxx11Ev(ptr noundef nonnull align 8 dereferenceable(8) %comb.i)
          to label %_ZN6google17MakeCheckOpStringIiiEEPNSt7__cxx1112basic_stringIcSt11char_traitsIcESaIcEEERKT_RKT0_PKc.exit unwind label %lpad.i

lpad.i:                                           ; preds = %invoke.cont4.i, %invoke.cont2.i, %invoke.cont1.i, %_ZN6google12Check_EQImplB5cxx11EiiPKc.exit.i
  %12 = landingpad { ptr, i32 }
          cleanup
  call void @_ZN6google4base21CheckOpMessageBuilderD1Ev(ptr noundef nonnull align 8 dereferenceable(8) %comb.i) #32
  call void @llvm.lifetime.end.p0(i64 8, ptr nonnull %comb.i) #32
  resume { ptr, i32 } %12

_ZN6google17MakeCheckOpStringIiiEEPNSt7__cxx1112basic_stringIcSt11char_traitsIcESaIcEEERKT_RKT0_PKc.exit: ; preds = %invoke.cont4.i
  call void @_ZN6google4base21CheckOpMessageBuilderD1Ev(ptr noundef nonnull align 8 dereferenceable(8) %comb.i) #32
  call void @llvm.lifetime.end.p0(i64 8, ptr nonnull %comb.i) #32
  store ptr %call6.i, ptr %_result.i, align 8, !tbaa !223
  %cmp.i.not.i = icmp eq ptr %call6.i, null
  br i1 %cmp.i.not.i, label %_ZN5folly23MuxIOThreadPoolExecutor10addHandlerEPNS0_7HandlerEbb.exit, label %while.body.i

while.body.i:                                     ; preds = %_ZN6google17MakeCheckOpStringIiiEEPNSt7__cxx1112basic_stringIcSt11char_traitsIcESaIcEEERKT_RKT0_PKc.exit
  call void @llvm.lifetime.start.p0(i64 16, ptr nonnull %ref.tmp34.i) #32
  call void @_ZN6google15LogMessageFatalC1EPKciRKNS_13CheckOpStringE(ptr noundef nonnull align 8 dereferenceable(16) %ref.tmp34.i, ptr noundef nonnull @.str.96, i32 noundef 213, ptr noundef nonnull align 8 dereferenceable(8) %_result.i)
  %call37.i = invoke noundef nonnull align 8 dereferenceable(8) ptr @_ZN6google10LogMessage6streamEv(ptr noundef nonnull align 8 dereferenceable(16) %ref.tmp34.i)
          to label %invoke.cont36.i unwind label %lpad35.i

invoke.cont36.i:                                  ; preds = %while.body.i
  call void @_ZN6google15LogMessageFatalD1Ev(ptr noundef nonnull align 8 dereferenceable(16) %ref.tmp34.i) #39
  unreachable

lpad35.i:                                         ; preds = %while.body.i
  %13 = landingpad { ptr, i32 }
          cleanup
  call void @_ZN6google15LogMessageFatalD1Ev(ptr noundef nonnull align 8 dereferenceable(16) %ref.tmp34.i) #39
  unreachable

_ZN5folly23MuxIOThreadPoolExecutor10addHandlerEPNS0_7HandlerEbb.exit: ; preds = %while.body4, %_ZN6google17MakeCheckOpStringIiiEEPNSt7__cxx1112basic_stringIcSt11char_traitsIcESaIcEEERKT_RKT0_PKc.exit
  call void @llvm.lifetime.end.p0(i64 8, ptr nonnull %_result.i) #32
  call void @llvm.lifetime.end.p0(i64 12, ptr nonnull %event.i) #32
  %tobool3.not = icmp eq ptr %8, null
  br i1 %tobool3.not, label %while.cond.loopexit, label %while.body4, !llvm.loop !215

while.end7:                                       ; preds = %_ZN5folly25AtomicIntrusiveLinkedListINS_23MuxIOThreadPoolExecutor7HandlerEXadL_ZNS2_5hook_EEEE3armEv.exit
  ret void
}

; Function Attrs: mustprogress uwtable
define void @_ZN5folly23MuxIOThreadPoolExecutorC2EmNS0_7OptionsESt10shared_ptrINS_13ThreadFactoryEEPNS_16EventBaseManagerE(ptr noundef nonnull align 64 dereferenceable(768) %this, ptr noundef %vtt, i64 noundef %numThreads, ptr nocapture noundef readonly byval(%"struct.folly::MuxIOThreadPoolExecutor::Options") align 8 %options, ptr nocapture noundef %threadFactory, ptr noundef %ebm) unnamed_addr #2 align 2 personality ptr @__gxx_personality_v0 {
entry:
  %agg.tmp.i.i = alloca %"class.std::unique_ptr.408", align 8
  %opts.i = alloca %"struct.folly::EventBase::Options", align 8
  %agg.tmp = alloca %"class.std::shared_ptr.6", align 16
  %ref.tmp = alloca %"class.std::__cxx11::basic_string", align 8
  %evb = alloca %"class.std::unique_ptr.151", align 8
  %agg.tmp61 = alloca %"class.folly::Function", align 16
  %_M_refcount4.i.i = getelementptr inbounds %"class.std::__shared_ptr.7", ptr %threadFactory, i64 0, i32 1
  %0 = load <2 x ptr>, ptr %threadFactory, align 8, !tbaa !55
  store ptr null, ptr %_M_refcount4.i.i, align 8, !tbaa !52
  store <2 x ptr> %0, ptr %agg.tmp, align 16, !tbaa !55
  store ptr null, ptr %threadFactory, align 8, !tbaa !225
  %1 = getelementptr inbounds ptr, ptr %vtt, i64 2
  invoke void @_ZN5folly18ThreadPoolExecutorC2EmmSt10shared_ptrINS_13ThreadFactoryEE(ptr noundef nonnull align 64 dereferenceable(481) %this, ptr noundef nonnull %1, i64 noundef %numThreads, i64 noundef %numThreads, ptr noundef nonnull %agg.tmp)
          to label %invoke.cont unwind label %lpad

invoke.cont:                                      ; preds = %entry
  %_M_refcount.i.i = getelementptr inbounds %"class.std::__shared_ptr.7", ptr %agg.tmp, i64 0, i32 1
  %2 = getelementptr inbounds ptr, ptr %vtt, i64 1
  %3 = getelementptr inbounds i8, ptr %this, i64 488
  %4 = getelementptr inbounds ptr, ptr %vtt, i64 6
  %5 = load ptr, ptr %4, align 8
  store ptr %5, ptr %3, align 8, !tbaa !29
  %6 = getelementptr inbounds ptr, ptr %vtt, i64 7
  %7 = load ptr, ptr %6, align 8
  %vbase.offset.ptr.i.i = getelementptr i8, ptr %5, i64 -72
  %vbase.offset.i.i = load i64, ptr %vbase.offset.ptr.i.i, align 8
  %add.ptr.i.i = getelementptr inbounds i8, ptr %3, i64 %vbase.offset.i.i
  store ptr %7, ptr %add.ptr.i.i, align 8, !tbaa !29
  %8 = getelementptr inbounds i8, ptr %this, i64 496
  store ptr getelementptr inbounds ({ [5 x ptr] }, ptr @_ZTVN5folly20GetThreadIdCollectorE, i64 0, inrange i32 0, i64 2), ptr %8, align 16, !tbaa !29
  %9 = load ptr, ptr %2, align 8
  store ptr %9, ptr %this, align 64, !tbaa !29
  %10 = getelementptr inbounds ptr, ptr %vtt, i64 8
  %11 = load ptr, ptr %10, align 8
  %vbase.offset.ptr.i = getelementptr i8, ptr %9, i64 -72
  %vbase.offset.i = load i64, ptr %vbase.offset.ptr.i, align 8
  %add.ptr.i = getelementptr inbounds i8, ptr %this, i64 %vbase.offset.i
  store ptr %11, ptr %add.ptr.i, align 8, !tbaa !29
  %12 = getelementptr inbounds ptr, ptr %vtt, i64 9
  %13 = load ptr, ptr %12, align 8
  store ptr %13, ptr %3, align 8, !tbaa !29
  store ptr getelementptr inbounds ({ [27 x ptr], [17 x ptr], [5 x ptr] }, ptr @_ZTVN5folly24IOThreadPoolExecutorBaseE, i64 0, inrange i32 2, i64 2), ptr %8, align 16, !tbaa !29
  %14 = load ptr, ptr %_M_refcount.i.i, align 8, !tbaa !52
  %cmp.not.i.i = icmp eq ptr %14, null
  br i1 %cmp.not.i.i, label %invoke.cont8, label %if.then.i.i

if.then.i.i:                                      ; preds = %invoke.cont
  %_M_use_count.i.i.i = getelementptr inbounds %"class.std::_Sp_counted_base", ptr %14, i64 0, i32 1
  %15 = load atomic i64, ptr %_M_use_count.i.i.i acquire, align 8
  %cmp.i.i.i = icmp eq i64 %15, 4294967297
  %16 = trunc i64 %15 to i32
  br i1 %cmp.i.i.i, label %if.then.i.i.i, label %if.end.i.i.i

if.then.i.i.i:                                    ; preds = %if.then.i.i
  store i32 0, ptr %_M_use_count.i.i.i, align 8, !tbaa !26
  %_M_weak_count.i.i.i = getelementptr inbounds %"class.std::_Sp_counted_base", ptr %14, i64 0, i32 2
  store i32 0, ptr %_M_weak_count.i.i.i, align 4, !tbaa !28
  %vtable.i.i.i = load ptr, ptr %14, align 8, !tbaa !29
  %vfn.i.i.i = getelementptr inbounds ptr, ptr %vtable.i.i.i, i64 2
  %17 = load ptr, ptr %vfn.i.i.i, align 8
  call void %17(ptr noundef nonnull align 8 dereferenceable(16) %14) #32
  %vtable3.i.i.i = load ptr, ptr %14, align 8, !tbaa !29
  %vfn4.i.i.i = getelementptr inbounds ptr, ptr %vtable3.i.i.i, i64 3
  %18 = load ptr, ptr %vfn4.i.i.i, align 8
  call void %18(ptr noundef nonnull align 8 dereferenceable(16) %14) #32
  br label %invoke.cont8

if.end.i.i.i:                                     ; preds = %if.then.i.i
  %19 = load i8, ptr @__libc_single_threaded, align 1, !tbaa !53
  %tobool.i.not.i.i.i = icmp eq i8 %19, 0
  br i1 %tobool.i.not.i.i.i, label %if.else.i.i.i.i, label %if.then.i.i.i.i

if.then.i.i.i.i:                                  ; preds = %if.end.i.i.i
  %add.i.i.i.i = add nsw i32 %16, -1
  store i32 %add.i.i.i.i, ptr %_M_use_count.i.i.i, align 4, !tbaa !54
  br label %invoke.cont.i.i.i

if.else.i.i.i.i:                                  ; preds = %if.end.i.i.i
  %20 = atomicrmw volatile add ptr %_M_use_count.i.i.i, i32 -1 acq_rel, align 4
  br label %invoke.cont.i.i.i

invoke.cont.i.i.i:                                ; preds = %if.else.i.i.i.i, %if.then.i.i.i.i
  %retval.0.i.i.i.i = phi i32 [ %16, %if.then.i.i.i.i ], [ %20, %if.else.i.i.i.i ]
  %cmp6.i.i.i = icmp eq i32 %retval.0.i.i.i.i, 1
  br i1 %cmp6.i.i.i, label %if.then7.i.i.i, label %invoke.cont8, !prof !77

if.then7.i.i.i:                                   ; preds = %invoke.cont.i.i.i
  call void @_ZNSt16_Sp_counted_baseILN9__gnu_cxx12_Lock_policyE2EE24_M_release_last_use_coldEv(ptr noundef nonnull align 8 dereferenceable(16) %14) #32
  br label %invoke.cont8

invoke.cont8:                                     ; preds = %if.then7.i.i.i, %invoke.cont.i.i.i, %if.then.i.i.i, %invoke.cont
  %21 = load ptr, ptr %vtt, align 8
  store ptr %21, ptr %this, align 64, !tbaa !29
  %22 = getelementptr inbounds ptr, ptr %vtt, i64 10
  %23 = load ptr, ptr %22, align 8
  %vbase.offset.ptr = getelementptr i8, ptr %21, i64 -72
  %vbase.offset = load i64, ptr %vbase.offset.ptr, align 8
  %add.ptr = getelementptr inbounds i8, ptr %this, i64 %vbase.offset
  store ptr %23, ptr %add.ptr, align 8, !tbaa !29
  %24 = getelementptr inbounds ptr, ptr %vtt, i64 11
  %25 = load ptr, ptr %24, align 8
  store ptr %25, ptr %3, align 8, !tbaa !29
  store ptr getelementptr inbounds ({ [28 x ptr], [17 x ptr], [5 x ptr] }, ptr @_ZTVN5folly23MuxIOThreadPoolExecutorE, i64 0, inrange i32 2, i64 2), ptr %8, align 16, !tbaa !29
  %options_ = getelementptr inbounds %"class.folly::MuxIOThreadPoolExecutor", ptr %this, i64 0, i32 1
  call void @llvm.memcpy.p0.p0.i64(ptr noundef nonnull align 8 dereferenceable(32) %options_, ptr noundef nonnull align 8 dereferenceable(32) %options, i64 32, i1 false), !tbaa.struct !226
  %nextEVB_ = getelementptr inbounds %"class.folly::MuxIOThreadPoolExecutor", ptr %this, i64 0, i32 2
  store i64 0, ptr %nextEVB_, align 8, !tbaa !49
  %thisThread_ = getelementptr inbounds %"class.folly::MuxIOThreadPoolExecutor", ptr %this, i64 0, i32 3
  store i32 -1, ptr %thisThread_, align 32, !tbaa !50
  %constructor_.i = getelementptr inbounds %"class.folly::MuxIOThreadPoolExecutor", ptr %this, i64 0, i32 3, i32 1
  %_M_manager.i.i.i = getelementptr inbounds %"class.folly::MuxIOThreadPoolExecutor", ptr %this, i64 0, i32 3, i32 1, i32 0, i32 1
  %_M_invoker.i.i = getelementptr inbounds %"class.folly::MuxIOThreadPoolExecutor", ptr %this, i64 0, i32 3, i32 1, i32 1
  call void @llvm.memset.p0.i64(ptr noundef nonnull align 8 dereferenceable(16) %constructor_.i, i8 0, i64 16, i1 false)
  store ptr @_ZNSt17_Function_handlerIFPvvEZN5folly11ThreadLocalISt10shared_ptrINS2_24IOThreadPoolExecutorBase8IOThreadEEvvEC1EvEUlvE_E9_M_invokeERKSt9_Any_data, ptr %_M_invoker.i.i, align 64, !tbaa !228
  store ptr @_ZNSt17_Function_handlerIFPvvEZN5folly11ThreadLocalISt10shared_ptrINS2_24IOThreadPoolExecutorBase8IOThreadEEvvEC1EvEUlvE_E10_M_managerERSt9_Any_dataRKSB_St18_Manager_operation, ptr %_M_manager.i.i.i, align 8, !tbaa !229
  %eventBaseManager_ = getelementptr inbounds %"class.folly::MuxIOThreadPoolExecutor", ptr %this, i64 0, i32 4
  store ptr %ebm, ptr %eventBaseManager_, align 8, !tbaa !89
  %threadIdCollector_ = getelementptr inbounds %"class.folly::MuxIOThreadPoolExecutor", ptr %this, i64 0, i32 5
  store ptr null, ptr %threadIdCollector_, align 16, !tbaa !230
  %epFd_ = getelementptr inbounds %"class.folly::MuxIOThreadPoolExecutor", ptr %this, i64 0, i32 6
  store i32 -1, ptr %epFd_, align 8, !tbaa !219
  %evbs_ = getelementptr inbounds %"class.folly::MuxIOThreadPoolExecutor", ptr %this, i64 0, i32 7
  %handlers_ = getelementptr inbounds %"class.folly::MuxIOThreadPoolExecutor", ptr %this, i64 0, i32 8
  %mainThread_ = getelementptr inbounds %"class.folly::MuxIOThreadPoolExecutor", ptr %this, i64 0, i32 9
  %pendingTasks_ = getelementptr inbounds %"class.folly::MuxIOThreadPoolExecutor", ptr %this, i64 0, i32 11
  %queue_ = getelementptr inbounds %"class.folly::MuxIOThreadPoolExecutor", ptr %this, i64 0, i32 12
  %stats_ = getelementptr inbounds %"class.folly::MuxIOThreadPoolExecutor", ptr %this, i64 0, i32 13
  call void @llvm.memset.p0.i64(ptr noundef nonnull align 32 dereferenceable(57) %evbs_, i8 0, i64 57, i1 false)
  call void @llvm.memset.p0.i64(ptr noundef nonnull align 32 dereferenceable(16) %pendingTasks_, i8 0, i64 16, i1 false)
  store i32 -1, ptr %stats_, align 16, !tbaa !203
  %maxNumEvents.i = getelementptr inbounds %"class.folly::MuxIOThreadPoolExecutor", ptr %this, i64 0, i32 13, i32 1
  store i32 -1, ptr %maxNumEvents.i, align 4, !tbaa !204
  %totalNumEvents.i = getelementptr inbounds %"class.folly::MuxIOThreadPoolExecutor", ptr %this, i64 0, i32 13, i32 2
  %returnList_ = getelementptr inbounds %"class.folly::MuxIOThreadPoolExecutor", ptr %this, i64 0, i32 14
  %returnEvfd_ = getelementptr inbounds %"class.folly::MuxIOThreadPoolExecutor", ptr %this, i64 0, i32 15
  call void @llvm.memset.p0.i64(ptr noundef nonnull align 8 dereferenceable(48) %totalNumEvents.i, i8 0, i64 48, i1 false)
  invoke void @_ZN5folly23MuxIOThreadPoolExecutor14EventFdHandlerC1Ev(ptr noundef nonnull align 8 dereferenceable(21) %returnEvfd_)
          to label %invoke.cont11 unwind label %lpad10

invoke.cont11:                                    ; preds = %invoke.cont8
  %26 = load atomic i64, ptr %returnList_ monotonic, align 32
  br label %do.body.i

do.body.i:                                        ; preds = %cond.end.i, %invoke.cont11
  %oldHead.0.in.i = phi i64 [ %26, %invoke.cont11 ], [ %oldHead.3.in.i, %cond.end.i ]
  %oldHead.0.i = inttoptr i64 %oldHead.0.in.i to ptr
  %switch.i = icmp ult ptr %oldHead.0.i, inttoptr (i64 2 to ptr)
  br i1 %switch.i, label %cond.true.split.i, label %lor.lhs.false.split.i

lor.lhs.false.split.i:                            ; preds = %do.body.i
  %27 = cmpxchg ptr %returnList_, i64 %oldHead.0.in.i, i64 0 acq_rel monotonic, align 8
  %28 = extractvalue { i64, i1 } %27, 1
  br i1 %28, label %_ZN5folly25AtomicIntrusiveLinkedListINS_23MuxIOThreadPoolExecutor7HandlerEXadL_ZNS2_5hook_EEEE3armEv.exit, label %cond.end.i

cond.true.split.i:                                ; preds = %do.body.i
  %29 = cmpxchg ptr %returnList_, i64 %oldHead.0.in.i, i64 1 acq_rel monotonic, align 8
  %30 = extractvalue { i64, i1 } %29, 1
  br i1 %30, label %_ZN5folly25AtomicIntrusiveLinkedListINS_23MuxIOThreadPoolExecutor7HandlerEXadL_ZNS2_5hook_EEEE3armEv.exit, label %cond.end.i

cond.end.i:                                       ; preds = %cond.true.split.i, %lor.lhs.false.split.i
  %.pn.i = phi { i64, i1 } [ %27, %lor.lhs.false.split.i ], [ %29, %cond.true.split.i ]
  %oldHead.3.in.i = extractvalue { i64, i1 } %.pn.i, 0
  br label %do.body.i, !llvm.loop !231

_ZN5folly25AtomicIntrusiveLinkedListINS_23MuxIOThreadPoolExecutor7HandlerEXadL_ZNS2_5hook_EEEE3armEv.exit: ; preds = %cond.true.split.i, %lor.lhs.false.split.i
  %call15 = call i32 @epoll_create1(i32 noundef 524288) #32
  store i32 %call15, ptr %epFd_, align 8, !tbaa !219
  %cmp = icmp slt i32 %call15, 0
  br i1 %cmp, label %if.then, label %if.end

if.then:                                          ; preds = %_ZN5folly25AtomicIntrusiveLinkedListINS_23MuxIOThreadPoolExecutor7HandlerEXadL_ZNS2_5hook_EEEE3armEv.exit
  %exception = call ptr @__cxa_allocate_exception(i64 16) #32
  call void @llvm.lifetime.start.p0(i64 32, ptr nonnull %ref.tmp) #32
  %call18 = tail call ptr @__errno_location() #43
  %31 = load i32, ptr %call18, align 4, !tbaa !54
  invoke void @_ZN5folly8errnoStrB5cxx11Ei(ptr nonnull sret(%"class.std::__cxx11::basic_string") align 8 %ref.tmp, i32 noundef %31)
          to label %invoke.cont20 unwind label %ehcleanup.thread

invoke.cont20:                                    ; preds = %if.then
  invoke void @_ZNSt13runtime_errorC1ERKNSt7__cxx1112basic_stringIcSt11char_traitsIcESaIcEEE(ptr noundef nonnull align 8 dereferenceable(16) %exception, ptr noundef nonnull align 8 dereferenceable(32) %ref.tmp)
          to label %invoke.cont22 unwind label %lpad21

invoke.cont22:                                    ; preds = %invoke.cont20
  invoke void @__cxa_throw(ptr nonnull %exception, ptr nonnull @_ZTISt13runtime_error, ptr nonnull @_ZNSt13runtime_errorD1Ev) #42
          to label %unreachable unwind label %lpad21

lpad:                                             ; preds = %entry
  %32 = landingpad { ptr, i32 }
          cleanup
  call void @_ZNSt12__shared_ptrIN5folly13ThreadFactoryELN9__gnu_cxx12_Lock_policyE2EED2Ev(ptr noundef nonnull align 8 dereferenceable(16) %agg.tmp) #32
  br label %eh.resume

lpad10:                                           ; preds = %invoke.cont8
  %33 = landingpad { ptr, i32 }
          cleanup
  br label %ehcleanup98

lpad13:                                           ; preds = %if.end
  %34 = landingpad { ptr, i32 }
          cleanup
  br label %ehcleanup96

ehcleanup.thread:                                 ; preds = %if.then
  %35 = landingpad { ptr, i32 }
          cleanup
  call void @llvm.lifetime.end.p0(i64 32, ptr nonnull %ref.tmp) #32
  br label %cleanup.action

lpad21:                                           ; preds = %invoke.cont22, %invoke.cont20
  %cleanup.isactive.0 = phi i1 [ false, %invoke.cont22 ], [ true, %invoke.cont20 ]
  %36 = landingpad { ptr, i32 }
          cleanup
  %37 = load ptr, ptr %ref.tmp, align 8, !tbaa !209
  %38 = getelementptr inbounds %"class.std::__cxx11::basic_string", ptr %ref.tmp, i64 0, i32 2
  %cmp.i.i.i122 = icmp eq ptr %37, %38
  br i1 %cmp.i.i.i122, label %_ZNKSt7__cxx1112basic_stringIcSt11char_traitsIcESaIcEE11_M_is_localEv.exit.thread.i.i, label %ehcleanup

_ZNKSt7__cxx1112basic_stringIcSt11char_traitsIcESaIcEE11_M_is_localEv.exit.thread.i.i: ; preds = %lpad21
  %_M_string_length.i.i.i = getelementptr inbounds %"class.std::__cxx11::basic_string", ptr %ref.tmp, i64 0, i32 1
  %39 = load i64, ptr %_M_string_length.i.i.i, align 8, !tbaa !212
  %cmp3.i.i.i = icmp ult i64 %39, 16
  call void @llvm.assume(i1 %cmp3.i.i.i)
  call void @llvm.lifetime.end.p0(i64 32, ptr nonnull %ref.tmp) #32
  br i1 %cleanup.isactive.0, label %cleanup.action, label %ehcleanup96

ehcleanup:                                        ; preds = %lpad21
  call void @_ZdlPv(ptr noundef %37) #40
  call void @llvm.lifetime.end.p0(i64 32, ptr nonnull %ref.tmp) #32
  br i1 %cleanup.isactive.0, label %cleanup.action, label %ehcleanup96

cleanup.action:                                   ; preds = %ehcleanup, %_ZNKSt7__cxx1112basic_stringIcSt11char_traitsIcESaIcEE11_M_is_localEv.exit.thread.i.i, %ehcleanup.thread
  %.pn115280 = phi { ptr, i32 } [ %35, %ehcleanup.thread ], [ %36, %ehcleanup ], [ %36, %_ZNKSt7__cxx1112basic_stringIcSt11char_traitsIcESaIcEE11_M_is_localEv.exit.thread.i.i ]
  call void @__cxa_free_exception(ptr %exception) #32
  br label %ehcleanup96

if.end:                                           ; preds = %_ZN5folly25AtomicIntrusiveLinkedListINS_23MuxIOThreadPoolExecutor7HandlerEXadL_ZNS2_5hook_EEEE3armEv.exit
  invoke void @_ZN5folly23MuxIOThreadPoolExecutor10addHandlerEPNS0_7HandlerEbb(ptr noundef nonnull align 64 dereferenceable(768) %this, ptr noundef nonnull %returnEvfd_, i1 noundef zeroext true, i1 noundef zeroext true)
          to label %invoke.cont25 unwind label %lpad13

invoke.cont25:                                    ; preds = %if.end
  %numEvbs = getelementptr inbounds %"class.folly::MuxIOThreadPoolExecutor", ptr %this, i64 0, i32 1, i32 1
  %40 = load i64, ptr %numEvbs, align 64, !tbaa !232
  %cmp27 = icmp eq i64 %40, 0
  br i1 %cmp27, label %if.then28, label %if.end31

if.then28:                                        ; preds = %invoke.cont25
  store i64 %numThreads, ptr %numEvbs, align 64, !tbaa !232
  br label %if.end31

if.end31:                                         ; preds = %if.then28, %invoke.cont25
  %wakeUpInterval = getelementptr inbounds %"class.folly::MuxIOThreadPoolExecutor", ptr %this, i64 0, i32 1, i32 2
  %41 = load i64, ptr %wakeUpInterval, align 8, !tbaa !75
  %call.i124 = invoke noalias noundef nonnull align 128 dereferenceable(512) ptr @_ZnwmSt11align_val_t(i64 noundef 512, i64 noundef 128) #41
          to label %call.i.noexc unwind label %lpad35

call.i.noexc:                                     ; preds = %if.end31
  store ptr getelementptr inbounds ({ [10 x ptr] }, ptr @_ZTVN5folly22UnboundedBlockingQueueINS_23MuxIOThreadPoolExecutor11HandlerTaskENS_16ThrottledLifoSemEEE, i64 0, inrange i32 0, i64 2), ptr %call.i124, align 128, !tbaa !29, !noalias !233
  %sem_.i.i = getelementptr inbounds %"class.folly::UnboundedBlockingQueue", ptr %call.i124, i64 0, i32 2
  store i64 %41, ptr %sem_.i.i, align 64, !tbaa !75, !noalias !233
  %state_.i.i.i = getelementptr inbounds %"class.folly::UnboundedBlockingQueue", ptr %call.i124, i64 0, i32 2, i32 2
  store i64 0, ptr %state_.i.i.i, align 128, !tbaa !49, !noalias !233
  %mutex_.i.i.i = getelementptr inbounds %"class.folly::UnboundedBlockingQueue", ptr %call.i124, i64 0, i32 2, i32 3
  invoke void @_ZN5folly6detail17distributed_mutex16DistributedMutexISt6atomicLb1EEC1Ev(ptr noundef nonnull align 8 dereferenceable(8) %mutex_.i.i.i)
          to label %.noexc.i unwind label %lpad.i, !noalias !233

.noexc.i:                                         ; preds = %call.i.noexc
  %waiters_.i.i.i = getelementptr inbounds %"class.folly::UnboundedBlockingQueue", ptr %call.i124, i64 0, i32 2, i32 4
  %m_header.i.i.i.i.i.i.i = getelementptr inbounds %"class.folly::UnboundedBlockingQueue", ptr %call.i124, i64 0, i32 2, i32 4, i32 0, i32 0, i32 0, i32 1
  store i64 0, ptr %waiters_.i.i.i, align 16, !noalias !233
  store ptr %m_header.i.i.i.i.i.i.i, ptr %m_header.i.i.i.i.i.i.i, align 8, !tbaa !236, !noalias !233
  %prev_.i.i.i.i.i.i.i = getelementptr inbounds %"class.folly::UnboundedBlockingQueue", ptr %call.i124, i64 0, i32 2, i32 4, i32 0, i32 0, i32 0, i32 1, i32 0, i32 1
  store ptr %m_header.i.i.i.i.i.i.i, ptr %prev_.i.i.i.i.i.i.i, align 32, !tbaa !238, !noalias !233
  %lastWakeup_.i.i.i = getelementptr inbounds %"class.folly::UnboundedBlockingQueue", ptr %call.i124, i64 0, i32 2, i32 6
  store i64 0, ptr %lastWakeup_.i.i.i, align 64, !noalias !233
  %queue_.i.i = getelementptr inbounds %"class.folly::UnboundedBlockingQueue", ptr %call.i124, i64 0, i32 3
  invoke void @_ZN5folly14UnboundedQueueINS_23MuxIOThreadPoolExecutor11HandlerTaskELb0ELb0ELb0ELm6ELm7ESt6atomicEC2Ev(ptr noundef nonnull align 128 dereferenceable(144) %queue_.i.i)
          to label %invoke.cont36 unwind label %lpad2.i.i, !noalias !233

lpad2.i.i:                                        ; preds = %.noexc.i
  %42 = landingpad { ptr, i32 }
          cleanup
  %43 = load ptr, ptr %m_header.i.i.i.i.i.i.i, align 8, !tbaa !236, !noalias !239
  %cmp.i.i.not13.i.i.i.i.i.i = icmp eq ptr %43, %m_header.i.i.i.i.i.i.i
  br i1 %cmp.i.i.not13.i.i.i.i.i.i, label %_ZN5folly16ThrottledLifoSemD2Ev.exit.i.i, label %while.body.i.i.i.i.i.i

while.body.i.i.i.i.i.i:                           ; preds = %lpad2.i.i, %while.body.i.i.i.i.i.i
  %it.sroa.0.014.i.i.i.i.i.i = phi ptr [ %44, %while.body.i.i.i.i.i.i ], [ %43, %lpad2.i.i ]
  %44 = load ptr, ptr %it.sroa.0.014.i.i.i.i.i.i, align 8, !tbaa !236, !noalias !233
  call void @llvm.memset.p0.i64(ptr noundef nonnull align 8 dereferenceable(16) %it.sroa.0.014.i.i.i.i.i.i, i8 0, i64 16, i1 false), !noalias !233
  %cmp.i.i.not.i.i.i.i.i.i = icmp eq ptr %44, %m_header.i.i.i.i.i.i.i
  br i1 %cmp.i.i.not.i.i.i.i.i.i, label %_ZN5folly16ThrottledLifoSemD2Ev.exit.i.i, label %while.body.i.i.i.i.i.i, !llvm.loop !242

_ZN5folly16ThrottledLifoSemD2Ev.exit.i.i:         ; preds = %while.body.i.i.i.i.i.i, %lpad2.i.i
  call void @llvm.memset.p0.i64(ptr noundef nonnull align 16 dereferenceable(24) %waiters_.i.i.i, i8 0, i64 24, i1 false), !noalias !233
  br label %lpad.body.i

lpad.i:                                           ; preds = %call.i.noexc
  %45 = landingpad { ptr, i32 }
          cleanup
  br label %lpad.body.i

lpad.body.i:                                      ; preds = %lpad.i, %_ZN5folly16ThrottledLifoSemD2Ev.exit.i.i
  %eh.lpad-body.i = phi { ptr, i32 } [ %45, %lpad.i ], [ %42, %_ZN5folly16ThrottledLifoSemD2Ev.exit.i.i ]
  call void @_ZdlPvSt11align_val_t(ptr noundef nonnull %call.i124, i64 noundef 128) #40, !noalias !233
  br label %ehcleanup96

invoke.cont36:                                    ; preds = %.noexc.i
  %46 = load ptr, ptr %queue_, align 8, !tbaa !55
  store ptr %call.i124, ptr %queue_, align 8, !tbaa !55
  %tobool.not.i.i.i.i = icmp eq ptr %46, null
  br i1 %tobool.not.i.i.i.i, label %_ZNSt10unique_ptrIN5folly22UnboundedBlockingQueueINS0_23MuxIOThreadPoolExecutor11HandlerTaskENS0_16ThrottledLifoSemEEESt14default_deleteIS5_EED2Ev.exit, label %_ZNKSt14default_deleteIN5folly22UnboundedBlockingQueueINS0_23MuxIOThreadPoolExecutor11HandlerTaskENS0_16ThrottledLifoSemEEEEclEPS5_.exit.i.i.i.i

_ZNKSt14default_deleteIN5folly22UnboundedBlockingQueueINS0_23MuxIOThreadPoolExecutor11HandlerTaskENS0_16ThrottledLifoSemEEEEclEPS5_.exit.i.i.i.i: ; preds = %invoke.cont36
  %vtable.i.i.i.i.i = load ptr, ptr %46, align 128, !tbaa !29
  %vfn.i.i.i.i.i = getelementptr inbounds ptr, ptr %vtable.i.i.i.i.i, i64 1
  %47 = load ptr, ptr %vfn.i.i.i.i.i, align 8
  call void %47(ptr noundef nonnull align 128 dereferenceable(512) %46) #32
  br label %_ZNSt10unique_ptrIN5folly22UnboundedBlockingQueueINS0_23MuxIOThreadPoolExecutor11HandlerTaskENS0_16ThrottledLifoSemEEESt14default_deleteIS5_EED2Ev.exit

_ZNSt10unique_ptrIN5folly22UnboundedBlockingQueueINS0_23MuxIOThreadPoolExecutor11HandlerTaskENS0_16ThrottledLifoSemEEESt14default_deleteIS5_EED2Ev.exit: ; preds = %_ZNKSt14default_deleteIN5folly22UnboundedBlockingQueueINS0_23MuxIOThreadPoolExecutor11HandlerTaskENS0_16ThrottledLifoSemEEEEclEPS5_.exit.i.i.i.i, %invoke.cont36
  %48 = load i64, ptr %numEvbs, align 64, !tbaa !232
  %cmp.i = icmp ugt i64 %48, 1152921504606846975
  br i1 %cmp.i, label %if.then.i, label %if.end.i

if.then.i:                                        ; preds = %_ZNSt10unique_ptrIN5folly22UnboundedBlockingQueueINS0_23MuxIOThreadPoolExecutor11HandlerTaskENS0_16ThrottledLifoSemEEESt14default_deleteIS5_EED2Ev.exit
  invoke void @_ZSt20__throw_length_errorPKc(ptr noundef nonnull @.str.94) #42
          to label %.noexc unwind label %lpad43

.noexc:                                           ; preds = %if.then.i
  unreachable

if.end.i:                                         ; preds = %_ZNSt10unique_ptrIN5folly22UnboundedBlockingQueueINS0_23MuxIOThreadPoolExecutor11HandlerTaskENS0_16ThrottledLifoSemEEESt14default_deleteIS5_EED2Ev.exit
  %_M_end_of_storage.i.i = getelementptr inbounds %"class.folly::MuxIOThreadPoolExecutor", ptr %this, i64 0, i32 7, i32 0, i32 0, i32 0, i32 2
  %49 = load ptr, ptr %_M_end_of_storage.i.i, align 16, !tbaa !243
  %50 = load ptr, ptr %evbs_, align 32, !tbaa !61
  %sub.ptr.lhs.cast.i.i = ptrtoint ptr %49 to i64
  %sub.ptr.rhs.cast.i.i = ptrtoint ptr %50 to i64
  %sub.ptr.sub.i.i = sub i64 %sub.ptr.lhs.cast.i.i, %sub.ptr.rhs.cast.i.i
  %sub.ptr.div.i.i = ashr exact i64 %sub.ptr.sub.i.i, 3
  %cmp3.i = icmp ult i64 %sub.ptr.div.i.i, %48
  br i1 %cmp3.i, label %_ZNSt12_Vector_baseISt10unique_ptrIN5folly9EventBaseESt14default_deleteIS2_EESaIS5_EE11_M_allocateEm.exit.i, label %_ZNSt6vectorISt10unique_ptrIN5folly9EventBaseESt14default_deleteIS2_EESaIS5_EE7reserveEm.exit

_ZNSt12_Vector_baseISt10unique_ptrIN5folly9EventBaseESt14default_deleteIS2_EESaIS5_EE11_M_allocateEm.exit.i: ; preds = %if.end.i
  %_M_finish.i.i = getelementptr inbounds %"class.folly::MuxIOThreadPoolExecutor", ptr %this, i64 0, i32 7, i32 0, i32 0, i32 0, i32 1
  %51 = load ptr, ptr %_M_finish.i.i, align 8, !tbaa !59
  %sub.ptr.lhs.cast.i30.i = ptrtoint ptr %51 to i64
  %sub.ptr.sub.i32.i = sub i64 %sub.ptr.lhs.cast.i30.i, %sub.ptr.rhs.cast.i.i
  %mul.i.i.i.i = shl nuw nsw i64 %48, 3
  %call5.i.i.i.i127 = invoke noalias noundef nonnull ptr @_Znwm(i64 noundef %mul.i.i.i.i) #41
          to label %call5.i.i.i.i.noexc unwind label %lpad43

call5.i.i.i.i.noexc:                              ; preds = %_ZNSt12_Vector_baseISt10unique_ptrIN5folly9EventBaseESt14default_deleteIS2_EESaIS5_EE11_M_allocateEm.exit.i
  %cmp.not6.i.i.i.i = icmp eq ptr %50, %51
  br i1 %cmp.not6.i.i.i.i, label %_ZNSt6vectorISt10unique_ptrIN5folly9EventBaseESt14default_deleteIS2_EESaIS5_EE11_S_relocateEPS5_S8_S8_RS6_.exit.i, label %for.body.i.i.i.i.preheader

for.body.i.i.i.i.preheader:                       ; preds = %call5.i.i.i.i.noexc
  %52 = add i64 %sub.ptr.sub.i32.i, -8
  %53 = lshr i64 %52, 3
  %54 = add nuw nsw i64 %53, 1
  %min.iters.check = icmp ult i64 %52, 24
  br i1 %min.iters.check, label %for.body.i.i.i.i.preheader107, label %vector.ph

vector.ph:                                        ; preds = %for.body.i.i.i.i.preheader
  %n.vec = and i64 %54, 4611686018427387900
  %55 = shl i64 %n.vec, 3
  %ind.end = getelementptr i8, ptr %call5.i.i.i.i127, i64 %55
  br label %vector.body

vector.body:                                      ; preds = %vector.body, %vector.ph
  %index = phi i64 [ 0, %vector.ph ], [ %index.next, %vector.body ]
  %56 = shl i64 %index, 3
  %next.gep = getelementptr i8, ptr %call5.i.i.i.i127, i64 %56
  %next.gep372 = getelementptr i8, ptr %50, i64 %56
  call void @llvm.experimental.noalias.scope.decl(metadata !244)
  call void @llvm.experimental.noalias.scope.decl(metadata !247)
  %wide.load = load <2 x i64>, ptr %next.gep372, align 8, !tbaa !55, !alias.scope !247, !noalias !244
  %57 = getelementptr i64, ptr %next.gep372, i64 2
  %wide.load374 = load <2 x i64>, ptr %57, align 8, !tbaa !55, !alias.scope !247, !noalias !244
  store <2 x i64> %wide.load, ptr %next.gep, align 8, !tbaa !55, !alias.scope !244, !noalias !247
  %58 = getelementptr i64, ptr %next.gep, i64 2
  store <2 x i64> %wide.load374, ptr %58, align 8, !tbaa !55, !alias.scope !244, !noalias !247
  %index.next = add nuw i64 %index, 4
  %59 = icmp eq i64 %index.next, %n.vec
  call void @llvm.memset.p0.i64(ptr noundef nonnull align 8 dereferenceable(32) %next.gep372, i8 0, i64 32, i1 false)
  br i1 %59, label %middle.block, label %vector.body, !llvm.loop !249

middle.block:                                     ; preds = %vector.body
  %ind.end369 = getelementptr i8, ptr %50, i64 %55
  %cmp.n = icmp eq i64 %54, %n.vec
  br i1 %cmp.n, label %_ZNSt6vectorISt10unique_ptrIN5folly9EventBaseESt14default_deleteIS2_EESaIS5_EE11_S_relocateEPS5_S8_S8_RS6_.exit.loopexit.i, label %for.body.i.i.i.i.preheader107

for.body.i.i.i.i.preheader107:                    ; preds = %middle.block, %for.body.i.i.i.i.preheader
  %__cur.08.i.i.i.i.ph = phi ptr [ %ind.end, %middle.block ], [ %call5.i.i.i.i127, %for.body.i.i.i.i.preheader ]
  %__first.addr.07.i.i.i.i.ph = phi ptr [ %ind.end369, %middle.block ], [ %50, %for.body.i.i.i.i.preheader ]
  br label %for.body.i.i.i.i

for.body.i.i.i.i:                                 ; preds = %for.body.i.i.i.i.preheader107, %for.body.i.i.i.i
  %__cur.08.i.i.i.i = phi ptr [ %incdec.ptr1.i.i.i.i, %for.body.i.i.i.i ], [ %__cur.08.i.i.i.i.ph, %for.body.i.i.i.i.preheader107 ]
  %__first.addr.07.i.i.i.i = phi ptr [ %incdec.ptr.i.i.i.i, %for.body.i.i.i.i ], [ %__first.addr.07.i.i.i.i.ph, %for.body.i.i.i.i.preheader107 ]
  call void @llvm.experimental.noalias.scope.decl(metadata !244)
  call void @llvm.experimental.noalias.scope.decl(metadata !247)
  %60 = load i64, ptr %__first.addr.07.i.i.i.i, align 8, !tbaa !55, !alias.scope !247, !noalias !244
  store i64 %60, ptr %__cur.08.i.i.i.i, align 8, !tbaa !55, !alias.scope !244, !noalias !247
  store ptr null, ptr %__first.addr.07.i.i.i.i, align 8, !tbaa !55, !alias.scope !247, !noalias !244
  %incdec.ptr.i.i.i.i = getelementptr inbounds %"class.std::unique_ptr.151", ptr %__first.addr.07.i.i.i.i, i64 1
  %incdec.ptr1.i.i.i.i = getelementptr inbounds %"class.std::unique_ptr.151", ptr %__cur.08.i.i.i.i, i64 1
  %cmp.not.i.i.i.i = icmp eq ptr %incdec.ptr.i.i.i.i, %51
  br i1 %cmp.not.i.i.i.i, label %_ZNSt6vectorISt10unique_ptrIN5folly9EventBaseESt14default_deleteIS2_EESaIS5_EE11_S_relocateEPS5_S8_S8_RS6_.exit.loopexit.i, label %for.body.i.i.i.i, !llvm.loop !252

_ZNSt6vectorISt10unique_ptrIN5folly9EventBaseESt14default_deleteIS2_EESaIS5_EE11_S_relocateEPS5_S8_S8_RS6_.exit.loopexit.i: ; preds = %for.body.i.i.i.i, %middle.block
  %.pre.i = load ptr, ptr %evbs_, align 32, !tbaa !61
  br label %_ZNSt6vectorISt10unique_ptrIN5folly9EventBaseESt14default_deleteIS2_EESaIS5_EE11_S_relocateEPS5_S8_S8_RS6_.exit.i

_ZNSt6vectorISt10unique_ptrIN5folly9EventBaseESt14default_deleteIS2_EESaIS5_EE11_S_relocateEPS5_S8_S8_RS6_.exit.i: ; preds = %_ZNSt6vectorISt10unique_ptrIN5folly9EventBaseESt14default_deleteIS2_EESaIS5_EE11_S_relocateEPS5_S8_S8_RS6_.exit.loopexit.i, %call5.i.i.i.i.noexc
  %61 = phi ptr [ %.pre.i, %_ZNSt6vectorISt10unique_ptrIN5folly9EventBaseESt14default_deleteIS2_EESaIS5_EE11_S_relocateEPS5_S8_S8_RS6_.exit.loopexit.i ], [ %50, %call5.i.i.i.i.noexc ]
  %tobool.not.i.i = icmp eq ptr %61, null
  br i1 %tobool.not.i.i, label %_ZNSt12_Vector_baseISt10unique_ptrIN5folly9EventBaseESt14default_deleteIS2_EESaIS5_EE13_M_deallocateEPS5_m.exit.i, label %if.then.i.i125

if.then.i.i125:                                   ; preds = %_ZNSt6vectorISt10unique_ptrIN5folly9EventBaseESt14default_deleteIS2_EESaIS5_EE11_S_relocateEPS5_S8_S8_RS6_.exit.i
  call void @_ZdlPv(ptr noundef nonnull %61) #40
  %.pre.pre = load i64, ptr %numEvbs, align 64, !tbaa !232
  br label %_ZNSt12_Vector_baseISt10unique_ptrIN5folly9EventBaseESt14default_deleteIS2_EESaIS5_EE13_M_deallocateEPS5_m.exit.i

_ZNSt12_Vector_baseISt10unique_ptrIN5folly9EventBaseESt14default_deleteIS2_EESaIS5_EE13_M_deallocateEPS5_m.exit.i: ; preds = %if.then.i.i125, %_ZNSt6vectorISt10unique_ptrIN5folly9EventBaseESt14default_deleteIS2_EESaIS5_EE11_S_relocateEPS5_S8_S8_RS6_.exit.i
  %.pre = phi i64 [ %.pre.pre, %if.then.i.i125 ], [ %48, %_ZNSt6vectorISt10unique_ptrIN5folly9EventBaseESt14default_deleteIS2_EESaIS5_EE11_S_relocateEPS5_S8_S8_RS6_.exit.i ]
  store ptr %call5.i.i.i.i127, ptr %evbs_, align 32, !tbaa !61
  %add.ptr.i126 = getelementptr inbounds i8, ptr %call5.i.i.i.i127, i64 %sub.ptr.sub.i32.i
  store ptr %add.ptr.i126, ptr %_M_finish.i.i, align 8, !tbaa !59
  %add.ptr21.i = getelementptr inbounds %"class.std::unique_ptr.151", ptr %call5.i.i.i.i127, i64 %48
  store ptr %add.ptr21.i, ptr %_M_end_of_storage.i.i, align 16, !tbaa !243
  br label %_ZNSt6vectorISt10unique_ptrIN5folly9EventBaseESt14default_deleteIS2_EESaIS5_EE7reserveEm.exit

_ZNSt6vectorISt10unique_ptrIN5folly9EventBaseESt14default_deleteIS2_EESaIS5_EE7reserveEm.exit: ; preds = %_ZNSt12_Vector_baseISt10unique_ptrIN5folly9EventBaseESt14default_deleteIS2_EESaIS5_EE13_M_deallocateEPS5_m.exit.i, %if.end.i
  %62 = phi i64 [ %48, %if.end.i ], [ %.pre, %_ZNSt12_Vector_baseISt10unique_ptrIN5folly9EventBaseESt14default_deleteIS2_EESaIS5_EE13_M_deallocateEPS5_m.exit.i ]
  %cmp47324.not = icmp eq i64 %62, 0
  br i1 %cmp47324.not, label %for.cond.cleanup, label %for.body.lr.ph

for.body.lr.ph:                                   ; preds = %_ZNSt6vectorISt10unique_ptrIN5folly9EventBaseESt14default_deleteIS2_EESaIS5_EE7reserveEm.exit
  %backendFactory.i.i = getelementptr inbounds %"struct.folly::EventBase::Options", ptr %opts.i, i64 0, i32 2
  %timerTickInterval.i.i = getelementptr inbounds %"struct.folly::EventBase::Options", ptr %opts.i, i64 0, i32 3
  %strictLoopThread.i.i = getelementptr inbounds %"struct.folly::EventBase::Options", ptr %opts.i, i64 0, i32 4
  %_M_manager3.i.i.i.i = getelementptr inbounds %"struct.folly::EventBase::Options", ptr %opts.i, i64 0, i32 2, i32 0, i32 1
  %_M_invoker4.i.i.i.i = getelementptr inbounds %"struct.folly::EventBase::Options", ptr %opts.i, i64 0, i32 2, i32 1
  %_M_finish.i = getelementptr inbounds %"class.folly::MuxIOThreadPoolExecutor", ptr %this, i64 0, i32 7, i32 0, i32 0, i32 0, i32 1
  %call_.i = getelementptr inbounds %"class.folly::Function", ptr %agg.tmp61, i64 0, i32 1
  %exec_.i = getelementptr inbounds %"class.folly::Function", ptr %agg.tmp61, i64 0, i32 2
  %_M_finish.i141 = getelementptr inbounds %"class.folly::MuxIOThreadPoolExecutor", ptr %this, i64 0, i32 8, i32 0, i32 0, i32 0, i32 1
  %_M_end_of_storage.i142 = getelementptr inbounds %"class.folly::MuxIOThreadPoolExecutor", ptr %this, i64 0, i32 8, i32 0, i32 0, i32 0, i32 2
  br label %for.body

for.cond.cleanup:                                 ; preds = %_ZNSt10unique_ptrIN5folly9EventBaseESt14default_deleteIS1_EED2Ev.exit, %_ZNSt6vectorISt10unique_ptrIN5folly9EventBaseESt14default_deleteIS2_EESaIS5_EE7reserveEm.exit
  invoke void @_ZN5folly18ThreadPoolExecutor13setNumThreadsEm(ptr noundef nonnull align 64 dereferenceable(481) %this, i64 noundef %numThreads)
          to label %invoke.cont77 unwind label %lpad43

lpad35:                                           ; preds = %if.end31
  %63 = landingpad { ptr, i32 }
          cleanup
  br label %ehcleanup96

lpad43:                                           ; preds = %invoke.cont77, %for.cond.cleanup, %_ZNSt12_Vector_baseISt10unique_ptrIN5folly9EventBaseESt14default_deleteIS2_EESaIS5_EE11_M_allocateEm.exit.i, %if.then.i
  %64 = landingpad { ptr, i32 }
          cleanup
  br label %ehcleanup96

for.body:                                         ; preds = %_ZNSt10unique_ptrIN5folly9EventBaseESt14default_deleteIS1_EED2Ev.exit, %for.body.lr.ph
  %i.0325 = phi i64 [ 0, %for.body.lr.ph ], [ %inc, %_ZNSt10unique_ptrIN5folly9EventBaseESt14default_deleteIS1_EED2Ev.exit ]
  call void @llvm.lifetime.start.p0(i64 8, ptr nonnull %evb) #32
  call void @llvm.lifetime.start.p0(i64 56, ptr nonnull %opts.i) #32, !noalias !253
  store i8 0, ptr %opts.i, align 8, !tbaa !256, !noalias !253
  %65 = load i32, ptr @_ZN5folly16HHWheelTimerBaseINSt6chrono8durationIlSt5ratioILl1ELl1000EEEEE21DEFAULT_TICK_INTERVALE, align 4, !tbaa !54, !noalias !253
  %conv.i.i.i = sext i32 %65 to i64
  store i64 %conv.i.i.i, ptr %timerTickInterval.i.i, align 8, !tbaa !259, !noalias !253
  call void @llvm.memset.p0.i64(ptr noundef nonnull align 8 dereferenceable(16) %backendFactory.i.i, i8 0, i64 16, i1 false), !noalias !253
  store ptr @"_ZNSt17_Function_handlerIFSt10unique_ptrIN5folly20EventBaseBackendBaseESt14default_deleteIS2_EEvEZNS1_23MuxIOThreadPoolExecutor13makeEventBaseEvE3$_0E10_M_managerERSt9_Any_dataRKSA_St18_Manager_operation", ptr %_M_manager3.i.i.i.i, align 8, !tbaa !55, !noalias !253
  store ptr @"_ZNSt17_Function_handlerIFSt10unique_ptrIN5folly20EventBaseBackendBaseESt14default_deleteIS2_EEvEZNS1_23MuxIOThreadPoolExecutor13makeEventBaseEvE3$_0E9_M_invokeERKSt9_Any_data", ptr %_M_invoker4.i.i.i.i, align 8, !tbaa !55, !noalias !253
  store i8 1, ptr %strictLoopThread.i.i, align 8, !tbaa !260, !noalias !253
  invoke void @_ZSt11make_uniqueIN5folly9EventBaseEJRNS1_7OptionsEEENSt8__detail9_MakeUniqIT_E15__single_objectEDpOT0_(ptr nonnull sret(%"class.std::unique_ptr.151") align 8 %evb, ptr noundef nonnull align 8 dereferenceable(49) %opts.i)
          to label %_ZNSt14_Function_baseD2Ev.exit.i unwind label %_ZNSt14_Function_baseD2Ev.exit15.i

_ZNSt14_Function_baseD2Ev.exit.i:                 ; preds = %for.body
  %.pre23.i = load ptr, ptr %_M_manager3.i.i.i.i, align 8, !tbaa !229, !noalias !253
  %tobool.not.i.i.i = icmp eq ptr %.pre23.i, null
  br i1 %tobool.not.i.i.i, label %invoke.cont49, label %if.then.i.i.i129

if.then.i.i.i129:                                 ; preds = %_ZNSt14_Function_baseD2Ev.exit.i
  %call.i.i.i = invoke noundef zeroext i1 %.pre23.i(ptr noundef nonnull align 8 dereferenceable(16) %backendFactory.i.i, ptr noundef nonnull align 8 dereferenceable(16) %backendFactory.i.i, i32 noundef 3)
          to label %invoke.cont49 unwind label %terminate.lpad.i.i.i

terminate.lpad.i.i.i:                             ; preds = %if.then.i.i.i129
  %66 = landingpad { ptr, i32 }
          catch ptr null
  %67 = extractvalue { ptr, i32 } %66, 0
  call void @__clang_call_terminate(ptr %67) #39
  unreachable

_ZNSt14_Function_baseD2Ev.exit15.i:               ; preds = %for.body
  %68 = landingpad { ptr, i32 }
          cleanup
  %.pre.i128 = load ptr, ptr %_M_manager3.i.i.i.i, align 8, !tbaa !229, !noalias !253
  %tobool.not.i.i17.i = icmp eq ptr %.pre.i128, null
  br i1 %tobool.not.i.i17.i, label %_ZN5folly9EventBase7OptionsD2Ev.exit22.i, label %if.then.i.i18.i

if.then.i.i18.i:                                  ; preds = %_ZNSt14_Function_baseD2Ev.exit15.i
  %call.i.i20.i = invoke noundef zeroext i1 %.pre.i128(ptr noundef nonnull align 8 dereferenceable(16) %backendFactory.i.i, ptr noundef nonnull align 8 dereferenceable(16) %backendFactory.i.i, i32 noundef 3)
          to label %_ZN5folly9EventBase7OptionsD2Ev.exit22.i unwind label %terminate.lpad.i.i21.i

terminate.lpad.i.i21.i:                           ; preds = %if.then.i.i18.i
  %69 = landingpad { ptr, i32 }
          catch ptr null
  %70 = extractvalue { ptr, i32 } %69, 0
  call void @__clang_call_terminate(ptr %70) #39
  unreachable

_ZN5folly9EventBase7OptionsD2Ev.exit22.i:         ; preds = %if.then.i.i18.i, %_ZNSt14_Function_baseD2Ev.exit15.i
  call void @llvm.lifetime.end.p0(i64 56, ptr nonnull %opts.i) #32, !noalias !253
  br label %ehcleanup75

invoke.cont49:                                    ; preds = %if.then.i.i.i129, %_ZNSt14_Function_baseD2Ev.exit.i
  call void @llvm.lifetime.end.p0(i64 56, ptr nonnull %opts.i) #32, !noalias !253
  %71 = load ptr, ptr %evb, align 8, !tbaa !55
  %call.i133 = invoke noalias noundef nonnull dereferenceable(32) ptr @_Znwm(i64 noundef 32) #41
          to label %call.i.noexc132 unwind label %lpad52

call.i.noexc132:                                  ; preds = %invoke.cont49
  invoke void @_ZN5folly23MuxIOThreadPoolExecutor10EvbHandlerC1EPNS_9EventBaseE(ptr noundef nonnull align 8 dereferenceable(32) %call.i133, ptr noundef %71)
          to label %invoke.cont53 unwind label %lpad.i131, !noalias !261

lpad.i131:                                        ; preds = %call.i.noexc132
  %72 = landingpad { ptr, i32 }
          cleanup
  call void @_ZdlPv(ptr noundef nonnull %call.i133) #40, !noalias !261
  br label %ehcleanup73thread-pre-split

invoke.cont53:                                    ; preds = %call.i.noexc132
  %73 = load ptr, ptr %_M_finish.i, align 8, !tbaa !55
  %74 = ptrtoint ptr %73 to i64
  %75 = load ptr, ptr %_M_end_of_storage.i.i, align 16, !tbaa !243
  %cmp.not.i135 = icmp eq ptr %73, %75
  br i1 %cmp.not.i135, label %if.else.i, label %if.then.i136

if.then.i136:                                     ; preds = %invoke.cont53
  %76 = load i64, ptr %evb, align 8, !tbaa !55
  store i64 %76, ptr %73, align 8, !tbaa !55
  store ptr null, ptr %evb, align 8, !tbaa !55
  %77 = load ptr, ptr %_M_finish.i, align 8, !tbaa !59
  %incdec.ptr.i = getelementptr inbounds %"class.std::unique_ptr.151", ptr %77, i64 1
  store ptr %incdec.ptr.i, ptr %_M_finish.i, align 8, !tbaa !59
  br label %invoke.cont57

if.else.i:                                        ; preds = %invoke.cont53
  %78 = load ptr, ptr %evbs_, align 32, !tbaa !55
  %79 = ptrtoint ptr %78 to i64
  %sub.ptr.sub.i.i.i = sub i64 %74, %79
  %cmp.i.i = icmp eq i64 %sub.ptr.sub.i.i.i, 9223372036854775800
  br i1 %cmp.i.i, label %if.then.i.i223, label %_ZNKSt6vectorISt10unique_ptrIN5folly9EventBaseESt14default_deleteIS2_EESaIS5_EE12_M_check_lenEmPKc.exit.i

if.then.i.i223:                                   ; preds = %if.else.i
  invoke void @_ZSt20__throw_length_errorPKc(ptr noundef nonnull @.str.95) #42
          to label %.noexc224 unwind label %ehcleanup72.thread.loopexit.split-lp

.noexc224:                                        ; preds = %if.then.i.i223
  unreachable

_ZNKSt6vectorISt10unique_ptrIN5folly9EventBaseESt14default_deleteIS2_EESaIS5_EE12_M_check_lenEmPKc.exit.i: ; preds = %if.else.i
  %sub.ptr.div.i.i.i = ashr exact i64 %sub.ptr.sub.i.i.i, 3
  %.sroa.speculated.i.i = call i64 @llvm.umax.i64(i64 %sub.ptr.div.i.i.i, i64 1)
  %add.i.i = add i64 %.sroa.speculated.i.i, %sub.ptr.div.i.i.i
  %cmp7.i.i = icmp ult i64 %add.i.i, %sub.ptr.div.i.i.i
  %80 = call i64 @llvm.umin.i64(i64 %add.i.i, i64 1152921504606846975)
  %cond.i.i = select i1 %cmp7.i.i, i64 1152921504606846975, i64 %80
  %cmp.not.i.i207 = icmp eq i64 %cond.i.i, 0
  br i1 %cmp.not.i.i207, label %_ZNSt12_Vector_baseISt10unique_ptrIN5folly9EventBaseESt14default_deleteIS2_EESaIS5_EE11_M_allocateEm.exit.i209, label %_ZNSt16allocator_traitsISaISt10unique_ptrIN5folly9EventBaseESt14default_deleteIS2_EEEE8allocateERS6_m.exit.i.i

_ZNSt16allocator_traitsISaISt10unique_ptrIN5folly9EventBaseESt14default_deleteIS2_EEEE8allocateERS6_m.exit.i.i: ; preds = %_ZNKSt6vectorISt10unique_ptrIN5folly9EventBaseESt14default_deleteIS2_EESaIS5_EE12_M_check_lenEmPKc.exit.i
  %mul.i.i.i.i208 = shl nuw nsw i64 %cond.i.i, 3
  %call5.i.i.i.i226 = invoke noalias noundef nonnull ptr @_Znwm(i64 noundef %mul.i.i.i.i208) #41
          to label %_ZNSt12_Vector_baseISt10unique_ptrIN5folly9EventBaseESt14default_deleteIS2_EESaIS5_EE11_M_allocateEm.exit.i209 unwind label %ehcleanup72.thread.loopexit

_ZNSt12_Vector_baseISt10unique_ptrIN5folly9EventBaseESt14default_deleteIS2_EESaIS5_EE11_M_allocateEm.exit.i209: ; preds = %_ZNSt16allocator_traitsISaISt10unique_ptrIN5folly9EventBaseESt14default_deleteIS2_EEEE8allocateERS6_m.exit.i.i, %_ZNKSt6vectorISt10unique_ptrIN5folly9EventBaseESt14default_deleteIS2_EESaIS5_EE12_M_check_lenEmPKc.exit.i
  %cond.i31.i = phi ptr [ null, %_ZNKSt6vectorISt10unique_ptrIN5folly9EventBaseESt14default_deleteIS2_EESaIS5_EE12_M_check_lenEmPKc.exit.i ], [ %call5.i.i.i.i226, %_ZNSt16allocator_traitsISaISt10unique_ptrIN5folly9EventBaseESt14default_deleteIS2_EEEE8allocateERS6_m.exit.i.i ]
  %add.ptr.i210 = getelementptr inbounds %"class.std::unique_ptr.151", ptr %cond.i31.i, i64 %sub.ptr.div.i.i.i
  %81 = load i64, ptr %evb, align 8, !tbaa !55
  store i64 %81, ptr %add.ptr.i210, align 8, !tbaa !55
  store ptr null, ptr %evb, align 8, !tbaa !55
  %cmp.not6.i.i.i.i211 = icmp eq ptr %78, %73
  br i1 %cmp.not6.i.i.i.i211, label %_ZNSt6vectorISt10unique_ptrIN5folly9EventBaseESt14default_deleteIS2_EESaIS5_EE11_S_relocateEPS5_S8_S8_RS6_.exit40.i, label %for.body.i.i.i.i212.preheader

for.body.i.i.i.i212.preheader:                    ; preds = %_ZNSt12_Vector_baseISt10unique_ptrIN5folly9EventBaseESt14default_deleteIS2_EESaIS5_EE11_M_allocateEm.exit.i209
  %82 = add i64 %74, -8
  %83 = sub i64 %82, %79
  %84 = lshr i64 %83, 3
  %85 = add nuw nsw i64 %84, 1
  %min.iters.check397 = icmp ult i64 %83, 24
  br i1 %min.iters.check397, label %for.body.i.i.i.i212.preheader92, label %vector.ph398

for.body.i.i.i.i212.preheader92:                  ; preds = %middle.block395, %for.body.i.i.i.i212.preheader
  %__cur.08.i.i.i.i213.ph = phi ptr [ %ind.end401, %middle.block395 ], [ %cond.i31.i, %for.body.i.i.i.i212.preheader ]
  %__first.addr.07.i.i.i.i214.ph = phi ptr [ %ind.end403, %middle.block395 ], [ %78, %for.body.i.i.i.i212.preheader ]
  br label %for.body.i.i.i.i212

vector.ph398:                                     ; preds = %for.body.i.i.i.i212.preheader
  %n.vec400 = and i64 %85, 4611686018427387900
  %86 = shl i64 %n.vec400, 3
  %ind.end401 = getelementptr i8, ptr %cond.i31.i, i64 %86
  br label %vector.body406

vector.body406:                                   ; preds = %vector.body406, %vector.ph398
  %index407 = phi i64 [ 0, %vector.ph398 ], [ %index.next414, %vector.body406 ]
  %87 = shl i64 %index407, 3
  %next.gep408 = getelementptr i8, ptr %cond.i31.i, i64 %87
  %next.gep410 = getelementptr i8, ptr %78, i64 %87
  call void @llvm.experimental.noalias.scope.decl(metadata !264)
  call void @llvm.experimental.noalias.scope.decl(metadata !267)
  %wide.load412 = load <2 x i64>, ptr %next.gep410, align 8, !tbaa !55, !alias.scope !267, !noalias !264
  %88 = getelementptr i64, ptr %next.gep410, i64 2
  %wide.load413 = load <2 x i64>, ptr %88, align 8, !tbaa !55, !alias.scope !267, !noalias !264
  store <2 x i64> %wide.load412, ptr %next.gep408, align 8, !tbaa !55, !alias.scope !264, !noalias !267
  %89 = getelementptr i64, ptr %next.gep408, i64 2
  store <2 x i64> %wide.load413, ptr %89, align 8, !tbaa !55, !alias.scope !264, !noalias !267
  %index.next414 = add nuw i64 %index407, 4
  %90 = icmp eq i64 %index.next414, %n.vec400
  call void @llvm.memset.p0.i64(ptr noundef nonnull align 8 dereferenceable(32) %next.gep410, i8 0, i64 32, i1 false)
  br i1 %90, label %middle.block395, label %vector.body406, !llvm.loop !269

middle.block395:                                  ; preds = %vector.body406
  %ind.end403 = getelementptr i8, ptr %78, i64 %86
  %cmp.n405 = icmp eq i64 %85, %n.vec400
  br i1 %cmp.n405, label %_ZNSt6vectorISt10unique_ptrIN5folly9EventBaseESt14default_deleteIS2_EESaIS5_EE11_S_relocateEPS5_S8_S8_RS6_.exit40.i.thread, label %for.body.i.i.i.i212.preheader92

_ZNSt6vectorISt10unique_ptrIN5folly9EventBaseESt14default_deleteIS2_EESaIS5_EE11_S_relocateEPS5_S8_S8_RS6_.exit40.i.thread: ; preds = %middle.block395
  %incdec.ptr.i21925 = getelementptr %"class.std::unique_ptr.151", ptr %ind.end401, i64 1
  br label %if.then.i41.i

for.body.i.i.i.i212:                              ; preds = %for.body.i.i.i.i212.preheader92, %for.body.i.i.i.i212
  %__cur.08.i.i.i.i213 = phi ptr [ %incdec.ptr1.i.i.i.i216, %for.body.i.i.i.i212 ], [ %__cur.08.i.i.i.i213.ph, %for.body.i.i.i.i212.preheader92 ]
  %__first.addr.07.i.i.i.i214 = phi ptr [ %incdec.ptr.i.i.i.i215, %for.body.i.i.i.i212 ], [ %__first.addr.07.i.i.i.i214.ph, %for.body.i.i.i.i212.preheader92 ]
  call void @llvm.experimental.noalias.scope.decl(metadata !264)
  call void @llvm.experimental.noalias.scope.decl(metadata !267)
  %91 = load i64, ptr %__first.addr.07.i.i.i.i214, align 8, !tbaa !55, !alias.scope !267, !noalias !264
  store i64 %91, ptr %__cur.08.i.i.i.i213, align 8, !tbaa !55, !alias.scope !264, !noalias !267
  store ptr null, ptr %__first.addr.07.i.i.i.i214, align 8, !tbaa !55, !alias.scope !267, !noalias !264
  %incdec.ptr.i.i.i.i215 = getelementptr inbounds %"class.std::unique_ptr.151", ptr %__first.addr.07.i.i.i.i214, i64 1
  %incdec.ptr1.i.i.i.i216 = getelementptr inbounds %"class.std::unique_ptr.151", ptr %__cur.08.i.i.i.i213, i64 1
  %cmp.not.i.i.i.i217 = icmp eq ptr %incdec.ptr.i.i.i.i215, %73
  br i1 %cmp.not.i.i.i.i217, label %_ZNSt6vectorISt10unique_ptrIN5folly9EventBaseESt14default_deleteIS2_EESaIS5_EE11_S_relocateEPS5_S8_S8_RS6_.exit40.i, label %for.body.i.i.i.i212, !llvm.loop !270

_ZNSt6vectorISt10unique_ptrIN5folly9EventBaseESt14default_deleteIS2_EESaIS5_EE11_S_relocateEPS5_S8_S8_RS6_.exit40.i: ; preds = %for.body.i.i.i.i212, %_ZNSt12_Vector_baseISt10unique_ptrIN5folly9EventBaseESt14default_deleteIS2_EESaIS5_EE11_M_allocateEm.exit.i209
  %__cur.0.lcssa.i.i.i.i = phi ptr [ %cond.i31.i, %_ZNSt12_Vector_baseISt10unique_ptrIN5folly9EventBaseESt14default_deleteIS2_EESaIS5_EE11_M_allocateEm.exit.i209 ], [ %incdec.ptr1.i.i.i.i216, %for.body.i.i.i.i212 ]
  %incdec.ptr.i219 = getelementptr %"class.std::unique_ptr.151", ptr %__cur.0.lcssa.i.i.i.i, i64 1
  %tobool.not.i.i220 = icmp eq ptr %78, null
  br i1 %tobool.not.i.i220, label %.noexc139, label %if.then.i41.i

if.then.i41.i:                                    ; preds = %_ZNSt6vectorISt10unique_ptrIN5folly9EventBaseESt14default_deleteIS2_EESaIS5_EE11_S_relocateEPS5_S8_S8_RS6_.exit40.i.thread, %_ZNSt6vectorISt10unique_ptrIN5folly9EventBaseESt14default_deleteIS2_EESaIS5_EE11_S_relocateEPS5_S8_S8_RS6_.exit40.i
  %incdec.ptr.i21927 = phi ptr [ %incdec.ptr.i21925, %_ZNSt6vectorISt10unique_ptrIN5folly9EventBaseESt14default_deleteIS2_EESaIS5_EE11_S_relocateEPS5_S8_S8_RS6_.exit40.i.thread ], [ %incdec.ptr.i219, %_ZNSt6vectorISt10unique_ptrIN5folly9EventBaseESt14default_deleteIS2_EESaIS5_EE11_S_relocateEPS5_S8_S8_RS6_.exit40.i ]
  call void @_ZdlPv(ptr noundef nonnull %78) #40
  br label %.noexc139

.noexc139:                                        ; preds = %if.then.i41.i, %_ZNSt6vectorISt10unique_ptrIN5folly9EventBaseESt14default_deleteIS2_EESaIS5_EE11_S_relocateEPS5_S8_S8_RS6_.exit40.i
  %incdec.ptr.i21928 = phi ptr [ %incdec.ptr.i21927, %if.then.i41.i ], [ %incdec.ptr.i219, %_ZNSt6vectorISt10unique_ptrIN5folly9EventBaseESt14default_deleteIS2_EESaIS5_EE11_S_relocateEPS5_S8_S8_RS6_.exit40.i ]
  store ptr %cond.i31.i, ptr %evbs_, align 32, !tbaa !61
  store ptr %incdec.ptr.i21928, ptr %_M_finish.i, align 8, !tbaa !59
  %add.ptr19.i = getelementptr inbounds %"class.std::unique_ptr.151", ptr %cond.i31.i, i64 %cond.i.i
  store ptr %add.ptr19.i, ptr %_M_end_of_storage.i.i, align 16, !tbaa !243
  br label %invoke.cont57

invoke.cont57:                                    ; preds = %.noexc139, %if.then.i136
  %evb60 = getelementptr inbounds %"struct.folly::MuxIOThreadPoolExecutor::EvbHandler", ptr %call.i133, i64 0, i32 1
  %92 = load ptr, ptr %evb60, align 8, !tbaa !7
  store ptr null, ptr %agg.tmp61, align 16, !tbaa !53
  store ptr @"_ZN5folly6detail8function14FunctionTraitsIFvvEE9callSmallIZNS_23MuxIOThreadPoolExecutorC1EmNS6_7OptionsESt10shared_ptrINS_13ThreadFactoryEEPNS_16EventBaseManagerEE3$_0EEvRNS1_4DataE", ptr %call_.i, align 16, !tbaa !56
  store ptr @_ZN5folly6detail8function20DispatchSmallTrivial5exec_ILm16EEEmNS1_2OpEPNS1_4DataES6_, ptr %exec_.i, align 8, !tbaa !58
  call void @_ZN5folly9EventBase20runInEventBaseThreadENS_8FunctionIFvvEEE(ptr noundef nonnull align 16 dereferenceable(584) %92, ptr noundef nonnull %agg.tmp61) #32
  %93 = load ptr, ptr %exec_.i, align 8, !tbaa !58
  %tobool.not.i.i140 = icmp eq ptr %93, null
  br i1 %tobool.not.i.i140, label %_ZN5folly8FunctionIFvvEED2Ev.exit, label %if.end.i.i

if.end.i.i:                                       ; preds = %invoke.cont57
  %call.i.i = call noundef i64 %93(i32 noundef 1, ptr noundef nonnull %agg.tmp61, ptr noundef null) #32
  br label %_ZN5folly8FunctionIFvvEED2Ev.exit

_ZN5folly8FunctionIFvvEED2Ev.exit:                ; preds = %if.end.i.i, %invoke.cont57
  %vtable64 = load ptr, ptr %call.i133, align 8, !tbaa !29
  %vfn = getelementptr inbounds ptr, ptr %vtable64, i64 2
  %94 = load ptr, ptr %vfn, align 8
  invoke void %94(ptr noundef nonnull align 8 dereferenceable(32) %call.i133, ptr noundef nonnull %this)
          to label %invoke.cont66 unwind label %ehcleanup72.thread287.loopexit

invoke.cont66:                                    ; preds = %_ZN5folly8FunctionIFvvEED2Ev.exit
  %95 = load ptr, ptr %_M_finish.i141, align 64, !tbaa !55
  %96 = ptrtoint ptr %95 to i64
  %97 = load ptr, ptr %_M_end_of_storage.i142, align 8, !tbaa !271
  %cmp.not.i143 = icmp eq ptr %95, %97
  br i1 %cmp.not.i143, label %if.else.i148, label %if.then.i144

if.then.i144:                                     ; preds = %invoke.cont66
  %98 = ptrtoint ptr %call.i133 to i64
  store i64 %98, ptr %95, align 8, !tbaa !55
  %99 = load ptr, ptr %_M_finish.i141, align 64, !tbaa !272
  %incdec.ptr.i145 = getelementptr inbounds %"class.std::unique_ptr.159", ptr %99, i64 1
  store ptr %incdec.ptr.i145, ptr %_M_finish.i141, align 64, !tbaa !272
  br label %invoke.cont68

if.else.i148:                                     ; preds = %invoke.cont66
  %100 = load ptr, ptr %handlers_, align 8, !tbaa !55
  %101 = ptrtoint ptr %100 to i64
  %sub.ptr.sub.i.i.i230 = sub i64 %96, %101
  %cmp.i.i231 = icmp eq i64 %sub.ptr.sub.i.i.i230, 9223372036854775800
  br i1 %cmp.i.i231, label %if.then.i.i267, label %_ZNKSt6vectorISt10unique_ptrIN5folly23MuxIOThreadPoolExecutor10EvbHandlerESt14default_deleteIS3_EESaIS6_EE12_M_check_lenEmPKc.exit.i

if.then.i.i267:                                   ; preds = %if.else.i148
  invoke void @_ZSt20__throw_length_errorPKc(ptr noundef nonnull @.str.95) #42
          to label %.noexc268 unwind label %ehcleanup72.thread287.loopexit.split-lp

.noexc268:                                        ; preds = %if.then.i.i267
  unreachable

_ZNKSt6vectorISt10unique_ptrIN5folly23MuxIOThreadPoolExecutor10EvbHandlerESt14default_deleteIS3_EESaIS6_EE12_M_check_lenEmPKc.exit.i: ; preds = %if.else.i148
  %sub.ptr.div.i.i.i232 = ashr exact i64 %sub.ptr.sub.i.i.i230, 3
  %.sroa.speculated.i.i233 = call i64 @llvm.umax.i64(i64 %sub.ptr.div.i.i.i232, i64 1)
  %add.i.i234 = add i64 %.sroa.speculated.i.i233, %sub.ptr.div.i.i.i232
  %cmp7.i.i235 = icmp ult i64 %add.i.i234, %sub.ptr.div.i.i.i232
  %102 = call i64 @llvm.umin.i64(i64 %add.i.i234, i64 1152921504606846975)
  %cond.i.i238 = select i1 %cmp7.i.i235, i64 1152921504606846975, i64 %102
  %cmp.not.i.i242 = icmp eq i64 %cond.i.i238, 0
  br i1 %cmp.not.i.i242, label %_ZNSt12_Vector_baseISt10unique_ptrIN5folly23MuxIOThreadPoolExecutor10EvbHandlerESt14default_deleteIS3_EESaIS6_EE11_M_allocateEm.exit.i, label %_ZNSt16allocator_traitsISaISt10unique_ptrIN5folly23MuxIOThreadPoolExecutor10EvbHandlerESt14default_deleteIS3_EEEE8allocateERS7_m.exit.i.i

_ZNSt16allocator_traitsISaISt10unique_ptrIN5folly23MuxIOThreadPoolExecutor10EvbHandlerESt14default_deleteIS3_EEEE8allocateERS7_m.exit.i.i: ; preds = %_ZNKSt6vectorISt10unique_ptrIN5folly23MuxIOThreadPoolExecutor10EvbHandlerESt14default_deleteIS3_EESaIS6_EE12_M_check_lenEmPKc.exit.i
  %mul.i.i.i.i243 = shl nuw nsw i64 %cond.i.i238, 3
  %call5.i.i.i.i270 = invoke noalias noundef nonnull ptr @_Znwm(i64 noundef %mul.i.i.i.i243) #41
          to label %_ZNSt12_Vector_baseISt10unique_ptrIN5folly23MuxIOThreadPoolExecutor10EvbHandlerESt14default_deleteIS3_EESaIS6_EE11_M_allocateEm.exit.i unwind label %ehcleanup72.thread287.loopexit

_ZNSt12_Vector_baseISt10unique_ptrIN5folly23MuxIOThreadPoolExecutor10EvbHandlerESt14default_deleteIS3_EESaIS6_EE11_M_allocateEm.exit.i: ; preds = %_ZNSt16allocator_traitsISaISt10unique_ptrIN5folly23MuxIOThreadPoolExecutor10EvbHandlerESt14default_deleteIS3_EEEE8allocateERS7_m.exit.i.i, %_ZNKSt6vectorISt10unique_ptrIN5folly23MuxIOThreadPoolExecutor10EvbHandlerESt14default_deleteIS3_EESaIS6_EE12_M_check_lenEmPKc.exit.i
  %cond.i31.i244 = phi ptr [ null, %_ZNKSt6vectorISt10unique_ptrIN5folly23MuxIOThreadPoolExecutor10EvbHandlerESt14default_deleteIS3_EESaIS6_EE12_M_check_lenEmPKc.exit.i ], [ %call5.i.i.i.i270, %_ZNSt16allocator_traitsISaISt10unique_ptrIN5folly23MuxIOThreadPoolExecutor10EvbHandlerESt14default_deleteIS3_EEEE8allocateERS7_m.exit.i.i ]
  %add.ptr.i245 = getelementptr inbounds %"class.std::unique_ptr.159", ptr %cond.i31.i244, i64 %sub.ptr.div.i.i.i232
  %103 = ptrtoint ptr %call.i133 to i64
  store i64 %103, ptr %add.ptr.i245, align 8, !tbaa !55
  %cmp.not6.i.i.i.i246 = icmp eq ptr %100, %95
  br i1 %cmp.not6.i.i.i.i246, label %_ZNSt6vectorISt10unique_ptrIN5folly23MuxIOThreadPoolExecutor10EvbHandlerESt14default_deleteIS3_EESaIS6_EE11_S_relocateEPS6_S9_S9_RS7_.exit40.i, label %for.body.i.i.i.i247.preheader

for.body.i.i.i.i247.preheader:                    ; preds = %_ZNSt12_Vector_baseISt10unique_ptrIN5folly23MuxIOThreadPoolExecutor10EvbHandlerESt14default_deleteIS3_EESaIS6_EE11_M_allocateEm.exit.i
  %104 = add i64 %96, -8
  %105 = sub i64 %104, %101
  %106 = lshr i64 %105, 3
  %107 = add nuw nsw i64 %106, 1
  %min.iters.check377 = icmp ult i64 %105, 24
  br i1 %min.iters.check377, label %for.body.i.i.i.i247.preheader91, label %vector.ph378

for.body.i.i.i.i247.preheader91:                  ; preds = %middle.block375, %for.body.i.i.i.i247.preheader
  %__cur.08.i.i.i.i248.ph = phi ptr [ %ind.end381, %middle.block375 ], [ %cond.i31.i244, %for.body.i.i.i.i247.preheader ]
  %__first.addr.07.i.i.i.i249.ph = phi ptr [ %ind.end383, %middle.block375 ], [ %100, %for.body.i.i.i.i247.preheader ]
  br label %for.body.i.i.i.i247

vector.ph378:                                     ; preds = %for.body.i.i.i.i247.preheader
  %n.vec380 = and i64 %107, 4611686018427387900
  %108 = shl i64 %n.vec380, 3
  %ind.end381 = getelementptr i8, ptr %cond.i31.i244, i64 %108
  br label %vector.body386

vector.body386:                                   ; preds = %vector.body386, %vector.ph378
  %index387 = phi i64 [ 0, %vector.ph378 ], [ %index.next394, %vector.body386 ]
  %109 = shl i64 %index387, 3
  %next.gep388 = getelementptr i8, ptr %cond.i31.i244, i64 %109
  %next.gep390 = getelementptr i8, ptr %100, i64 %109
  call void @llvm.experimental.noalias.scope.decl(metadata !273)
  call void @llvm.experimental.noalias.scope.decl(metadata !276)
  %wide.load392 = load <2 x i64>, ptr %next.gep390, align 8, !tbaa !55, !alias.scope !276, !noalias !273
  %110 = getelementptr i64, ptr %next.gep390, i64 2
  %wide.load393 = load <2 x i64>, ptr %110, align 8, !tbaa !55, !alias.scope !276, !noalias !273
  store <2 x i64> %wide.load392, ptr %next.gep388, align 8, !tbaa !55, !alias.scope !273, !noalias !276
  %111 = getelementptr i64, ptr %next.gep388, i64 2
  store <2 x i64> %wide.load393, ptr %111, align 8, !tbaa !55, !alias.scope !273, !noalias !276
  %index.next394 = add nuw i64 %index387, 4
  %112 = icmp eq i64 %index.next394, %n.vec380
  call void @llvm.memset.p0.i64(ptr noundef nonnull align 8 dereferenceable(32) %next.gep390, i8 0, i64 32, i1 false)
  br i1 %112, label %middle.block375, label %vector.body386, !llvm.loop !278

middle.block375:                                  ; preds = %vector.body386
  %ind.end383 = getelementptr i8, ptr %100, i64 %108
  %cmp.n385 = icmp eq i64 %107, %n.vec380
  br i1 %cmp.n385, label %_ZNSt6vectorISt10unique_ptrIN5folly23MuxIOThreadPoolExecutor10EvbHandlerESt14default_deleteIS3_EESaIS6_EE11_S_relocateEPS6_S9_S9_RS7_.exit40.i.thread, label %for.body.i.i.i.i247.preheader91

_ZNSt6vectorISt10unique_ptrIN5folly23MuxIOThreadPoolExecutor10EvbHandlerESt14default_deleteIS3_EESaIS6_EE11_S_relocateEPS6_S9_S9_RS7_.exit40.i.thread: ; preds = %middle.block375
  %incdec.ptr.i25430 = getelementptr %"class.std::unique_ptr.159", ptr %ind.end381, i64 1
  br label %if.then.i41.i264

for.body.i.i.i.i247:                              ; preds = %for.body.i.i.i.i247.preheader91, %for.body.i.i.i.i247
  %__cur.08.i.i.i.i248 = phi ptr [ %incdec.ptr1.i.i.i.i251, %for.body.i.i.i.i247 ], [ %__cur.08.i.i.i.i248.ph, %for.body.i.i.i.i247.preheader91 ]
  %__first.addr.07.i.i.i.i249 = phi ptr [ %incdec.ptr.i.i.i.i250, %for.body.i.i.i.i247 ], [ %__first.addr.07.i.i.i.i249.ph, %for.body.i.i.i.i247.preheader91 ]
  call void @llvm.experimental.noalias.scope.decl(metadata !273)
  call void @llvm.experimental.noalias.scope.decl(metadata !276)
  %113 = load i64, ptr %__first.addr.07.i.i.i.i249, align 8, !tbaa !55, !alias.scope !276, !noalias !273
  store i64 %113, ptr %__cur.08.i.i.i.i248, align 8, !tbaa !55, !alias.scope !273, !noalias !276
  store ptr null, ptr %__first.addr.07.i.i.i.i249, align 8, !tbaa !55, !alias.scope !276, !noalias !273
  %incdec.ptr.i.i.i.i250 = getelementptr inbounds %"class.std::unique_ptr.159", ptr %__first.addr.07.i.i.i.i249, i64 1
  %incdec.ptr1.i.i.i.i251 = getelementptr inbounds %"class.std::unique_ptr.159", ptr %__cur.08.i.i.i.i248, i64 1
  %cmp.not.i.i.i.i252 = icmp eq ptr %incdec.ptr.i.i.i.i250, %95
  br i1 %cmp.not.i.i.i.i252, label %_ZNSt6vectorISt10unique_ptrIN5folly23MuxIOThreadPoolExecutor10EvbHandlerESt14default_deleteIS3_EESaIS6_EE11_S_relocateEPS6_S9_S9_RS7_.exit40.i, label %for.body.i.i.i.i247, !llvm.loop !279

_ZNSt6vectorISt10unique_ptrIN5folly23MuxIOThreadPoolExecutor10EvbHandlerESt14default_deleteIS3_EESaIS6_EE11_S_relocateEPS6_S9_S9_RS7_.exit40.i: ; preds = %for.body.i.i.i.i247, %_ZNSt12_Vector_baseISt10unique_ptrIN5folly23MuxIOThreadPoolExecutor10EvbHandlerESt14default_deleteIS3_EESaIS6_EE11_M_allocateEm.exit.i
  %__cur.0.lcssa.i.i.i.i253 = phi ptr [ %cond.i31.i244, %_ZNSt12_Vector_baseISt10unique_ptrIN5folly23MuxIOThreadPoolExecutor10EvbHandlerESt14default_deleteIS3_EESaIS6_EE11_M_allocateEm.exit.i ], [ %incdec.ptr1.i.i.i.i251, %for.body.i.i.i.i247 ]
  %incdec.ptr.i254 = getelementptr %"class.std::unique_ptr.159", ptr %__cur.0.lcssa.i.i.i.i253, i64 1
  %tobool.not.i.i263 = icmp eq ptr %100, null
  br i1 %tobool.not.i.i263, label %.noexc150, label %if.then.i41.i264

if.then.i41.i264:                                 ; preds = %_ZNSt6vectorISt10unique_ptrIN5folly23MuxIOThreadPoolExecutor10EvbHandlerESt14default_deleteIS3_EESaIS6_EE11_S_relocateEPS6_S9_S9_RS7_.exit40.i.thread, %_ZNSt6vectorISt10unique_ptrIN5folly23MuxIOThreadPoolExecutor10EvbHandlerESt14default_deleteIS3_EESaIS6_EE11_S_relocateEPS6_S9_S9_RS7_.exit40.i
  %incdec.ptr.i25432 = phi ptr [ %incdec.ptr.i25430, %_ZNSt6vectorISt10unique_ptrIN5folly23MuxIOThreadPoolExecutor10EvbHandlerESt14default_deleteIS3_EESaIS6_EE11_S_relocateEPS6_S9_S9_RS7_.exit40.i.thread ], [ %incdec.ptr.i254, %_ZNSt6vectorISt10unique_ptrIN5folly23MuxIOThreadPoolExecutor10EvbHandlerESt14default_deleteIS3_EESaIS6_EE11_S_relocateEPS6_S9_S9_RS7_.exit40.i ]
  call void @_ZdlPv(ptr noundef nonnull %100) #40
  br label %.noexc150

.noexc150:                                        ; preds = %if.then.i41.i264, %_ZNSt6vectorISt10unique_ptrIN5folly23MuxIOThreadPoolExecutor10EvbHandlerESt14default_deleteIS3_EESaIS6_EE11_S_relocateEPS6_S9_S9_RS7_.exit40.i
  %incdec.ptr.i25433 = phi ptr [ %incdec.ptr.i25432, %if.then.i41.i264 ], [ %incdec.ptr.i254, %_ZNSt6vectorISt10unique_ptrIN5folly23MuxIOThreadPoolExecutor10EvbHandlerESt14default_deleteIS3_EESaIS6_EE11_S_relocateEPS6_S9_S9_RS7_.exit40.i ]
  store ptr %cond.i31.i244, ptr %handlers_, align 8, !tbaa !280
  store ptr %incdec.ptr.i25433, ptr %_M_finish.i141, align 64, !tbaa !272
  %add.ptr19.i266 = getelementptr inbounds %"class.std::unique_ptr.159", ptr %cond.i31.i244, i64 %cond.i.i238
  store ptr %add.ptr19.i266, ptr %_M_end_of_storage.i142, align 8, !tbaa !271
  br label %invoke.cont68

invoke.cont68:                                    ; preds = %.noexc150, %if.then.i144
  invoke void @_ZN5folly23MuxIOThreadPoolExecutor10addHandlerEPNS0_7HandlerEbb(ptr noundef nonnull align 64 dereferenceable(768) %this, ptr noundef nonnull %call.i133, i1 noundef zeroext true, i1 noundef zeroext false)
          to label %_ZNSt10unique_ptrIN5folly23MuxIOThreadPoolExecutor10EvbHandlerESt14default_deleteIS2_EED2Ev.exit unwind label %ehcleanup72

_ZNSt10unique_ptrIN5folly23MuxIOThreadPoolExecutor10EvbHandlerESt14default_deleteIS2_EED2Ev.exit: ; preds = %invoke.cont68
  %114 = load ptr, ptr %evb, align 8, !tbaa !55
  %cmp.not.i155 = icmp eq ptr %114, null
  br i1 %cmp.not.i155, label %_ZNSt10unique_ptrIN5folly9EventBaseESt14default_deleteIS1_EED2Ev.exit, label %_ZNKSt14default_deleteIN5folly9EventBaseEEclEPS1_.exit.i

_ZNKSt14default_deleteIN5folly9EventBaseEEclEPS1_.exit.i: ; preds = %_ZNSt10unique_ptrIN5folly23MuxIOThreadPoolExecutor10EvbHandlerESt14default_deleteIS2_EED2Ev.exit
  %vtable.i.i156 = load ptr, ptr %114, align 16, !tbaa !29
  %vfn.i.i157 = getelementptr inbounds ptr, ptr %vtable.i.i156, i64 1
  %115 = load ptr, ptr %vfn.i.i157, align 8
  call void %115(ptr noundef nonnull align 16 dereferenceable(584) %114) #32
  br label %_ZNSt10unique_ptrIN5folly9EventBaseESt14default_deleteIS1_EED2Ev.exit

_ZNSt10unique_ptrIN5folly9EventBaseESt14default_deleteIS1_EED2Ev.exit: ; preds = %_ZNKSt14default_deleteIN5folly9EventBaseEEclEPS1_.exit.i, %_ZNSt10unique_ptrIN5folly23MuxIOThreadPoolExecutor10EvbHandlerESt14default_deleteIS2_EED2Ev.exit
  call void @llvm.lifetime.end.p0(i64 8, ptr nonnull %evb) #32
  %inc = add nuw i64 %i.0325, 1
  %116 = load i64, ptr %numEvbs, align 64, !tbaa !232
  %cmp47 = icmp ult i64 %inc, %116
  br i1 %cmp47, label %for.body, label %for.cond.cleanup, !llvm.loop !281

lpad52:                                           ; preds = %invoke.cont49
  %117 = landingpad { ptr, i32 }
          cleanup
  br label %ehcleanup73

ehcleanup72.thread.loopexit:                      ; preds = %_ZNSt16allocator_traitsISaISt10unique_ptrIN5folly9EventBaseESt14default_deleteIS2_EEEE8allocateERS6_m.exit.i.i
  %lpad.loopexit = landingpad { ptr, i32 }
          cleanup
  br label %_ZNKSt14default_deleteIN5folly23MuxIOThreadPoolExecutor10EvbHandlerEEclEPS2_.exit.i160

ehcleanup72.thread.loopexit.split-lp:             ; preds = %if.then.i.i223
  %lpad.loopexit.split-lp = landingpad { ptr, i32 }
          cleanup
  br label %_ZNKSt14default_deleteIN5folly23MuxIOThreadPoolExecutor10EvbHandlerEEclEPS2_.exit.i160

ehcleanup72.thread287.loopexit:                   ; preds = %_ZNSt16allocator_traitsISaISt10unique_ptrIN5folly23MuxIOThreadPoolExecutor10EvbHandlerESt14default_deleteIS3_EEEE8allocateERS7_m.exit.i.i, %_ZN5folly8FunctionIFvvEED2Ev.exit
  %lpad.loopexit291 = landingpad { ptr, i32 }
          cleanup
  br label %_ZNKSt14default_deleteIN5folly23MuxIOThreadPoolExecutor10EvbHandlerEEclEPS2_.exit.i160

ehcleanup72.thread287.loopexit.split-lp:          ; preds = %if.then.i.i267
  %lpad.loopexit.split-lp292 = landingpad { ptr, i32 }
          cleanup
  br label %_ZNKSt14default_deleteIN5folly23MuxIOThreadPoolExecutor10EvbHandlerEEclEPS2_.exit.i160

ehcleanup72:                                      ; preds = %invoke.cont68
  %lpad.thr_comm.split-lp = landingpad { ptr, i32 }
          cleanup
  br label %ehcleanup73thread-pre-split

_ZNKSt14default_deleteIN5folly23MuxIOThreadPoolExecutor10EvbHandlerEEclEPS2_.exit.i160: ; preds = %ehcleanup72.thread287.loopexit.split-lp, %ehcleanup72.thread287.loopexit, %ehcleanup72.thread.loopexit.split-lp, %ehcleanup72.thread.loopexit
  %.pn285 = phi { ptr, i32 } [ %lpad.loopexit, %ehcleanup72.thread.loopexit ], [ %lpad.loopexit.split-lp, %ehcleanup72.thread.loopexit.split-lp ], [ %lpad.loopexit291, %ehcleanup72.thread287.loopexit ], [ %lpad.loopexit.split-lp292, %ehcleanup72.thread287.loopexit.split-lp ]
  %vtable.i.i161 = load ptr, ptr %call.i133, align 8, !tbaa !29
  %vfn.i.i162 = getelementptr inbounds ptr, ptr %vtable.i.i161, i64 1
  %118 = load ptr, ptr %vfn.i.i162, align 8
  call void %118(ptr noundef nonnull align 8 dereferenceable(32) %call.i133) #32
  br label %ehcleanup73thread-pre-split

ehcleanup73thread-pre-split:                      ; preds = %_ZNKSt14default_deleteIN5folly23MuxIOThreadPoolExecutor10EvbHandlerEEclEPS2_.exit.i160, %ehcleanup72, %lpad.i131
  %.pn.pn.ph = phi { ptr, i32 } [ %.pn285, %_ZNKSt14default_deleteIN5folly23MuxIOThreadPoolExecutor10EvbHandlerEEclEPS2_.exit.i160 ], [ %lpad.thr_comm.split-lp, %ehcleanup72 ], [ %72, %lpad.i131 ]
  %.pr = load ptr, ptr %evb, align 8, !tbaa !55
  br label %ehcleanup73

ehcleanup73:                                      ; preds = %ehcleanup73thread-pre-split, %lpad52
  %119 = phi ptr [ %.pr, %ehcleanup73thread-pre-split ], [ %71, %lpad52 ]
  %.pn.pn = phi { ptr, i32 } [ %.pn.pn.ph, %ehcleanup73thread-pre-split ], [ %117, %lpad52 ]
  %cmp.not.i165 = icmp eq ptr %119, null
  br i1 %cmp.not.i165, label %ehcleanup75, label %_ZNKSt14default_deleteIN5folly9EventBaseEEclEPS1_.exit.i166

_ZNKSt14default_deleteIN5folly9EventBaseEEclEPS1_.exit.i166: ; preds = %ehcleanup73
  %vtable.i.i167 = load ptr, ptr %119, align 16, !tbaa !29
  %vfn.i.i168 = getelementptr inbounds ptr, ptr %vtable.i.i167, i64 1
  %120 = load ptr, ptr %vfn.i.i168, align 8
  call void %120(ptr noundef nonnull align 16 dereferenceable(584) %119) #32
  br label %ehcleanup75

ehcleanup75:                                      ; preds = %_ZNKSt14default_deleteIN5folly9EventBaseEEclEPS1_.exit.i166, %ehcleanup73, %_ZN5folly9EventBase7OptionsD2Ev.exit22.i
  %.pn.pn.pn = phi { ptr, i32 } [ %68, %_ZN5folly9EventBase7OptionsD2Ev.exit22.i ], [ %.pn.pn, %ehcleanup73 ], [ %.pn.pn, %_ZNKSt14default_deleteIN5folly9EventBaseEEclEPS1_.exit.i166 ]
  call void @llvm.lifetime.end.p0(i64 8, ptr nonnull %evb) #32
  br label %ehcleanup96

invoke.cont77:                                    ; preds = %for.cond.cleanup
  invoke void @_ZN5folly18ThreadPoolExecutor26registerThreadPoolExecutorEPS0_(ptr noundef nonnull %this)
          to label %invoke.cont78 unwind label %lpad43

invoke.cont78:                                    ; preds = %invoke.cont77
  %121 = load i8, ptr %options, align 8, !tbaa !282, !range !173, !noundef !174
  %tobool.not = icmp eq i8 %121, 0
  br i1 %tobool.not, label %if.end86, label %if.then79

if.then79:                                        ; preds = %invoke.cont78
  %call.i172 = invoke noalias noundef nonnull dereferenceable(80) ptr @_Znwm(i64 noundef 80) #41
          to label %invoke.cont82 unwind label %lpad81

invoke.cont82:                                    ; preds = %if.then79
  %122 = getelementptr inbounds i8, ptr %call.i172, i64 32
  call void @llvm.memset.p0.i64(ptr noundef nonnull align 16 dereferenceable(80) %122, i8 0, i64 48, i1 false), !noalias !283
  store ptr getelementptr inbounds ({ [5 x ptr] }, ptr @_ZTVN5folly22ThreadIdWorkerProviderE, i64 0, inrange i32 0, i64 2), ptr %call.i172, align 8, !tbaa !29, !noalias !283
  %osThreadIds_.i.i = getelementptr inbounds %"class.folly::ThreadIdWorkerProvider", ptr %call.i172, i64 0, i32 1
  %_M_single_bucket.i.i.i.i.i = getelementptr inbounds %"class.folly::ThreadIdWorkerProvider", ptr %call.i172, i64 0, i32 1, i32 0, i32 0, i32 5
  store ptr %_M_single_bucket.i.i.i.i.i, ptr %osThreadIds_.i.i, align 8, !tbaa !286, !noalias !283
  %_M_bucket_count.i.i.i.i.i = getelementptr inbounds %"class.folly::ThreadIdWorkerProvider", ptr %call.i172, i64 0, i32 1, i32 0, i32 0, i32 1
  store i64 1, ptr %_M_bucket_count.i.i.i.i.i, align 8, !tbaa !291, !noalias !283
  %_M_before_begin.i.i.i.i.i = getelementptr inbounds %"class.folly::ThreadIdWorkerProvider", ptr %call.i172, i64 0, i32 1, i32 0, i32 0, i32 2
  %_M_rehash_policy.i.i.i.i.i = getelementptr inbounds %"class.folly::ThreadIdWorkerProvider", ptr %call.i172, i64 0, i32 1, i32 0, i32 0, i32 4
  call void @llvm.memset.p0.i64(ptr noundef nonnull align 8 dereferenceable(16) %_M_before_begin.i.i.i.i.i, i8 0, i64 16, i1 false), !noalias !283
  store float 1.000000e+00, ptr %_M_rehash_policy.i.i.i.i.i, align 8, !tbaa !292, !noalias !283
  %_M_next_resize.i.i.i.i.i.i = getelementptr inbounds %"class.folly::ThreadIdWorkerProvider", ptr %call.i172, i64 0, i32 1, i32 0, i32 0, i32 4, i32 1
  call void @llvm.memset.p0.i64(ptr noundef nonnull align 8 dereferenceable(20) %_M_next_resize.i.i.i.i.i.i, i8 0, i64 20, i1 false), !noalias !283
  %123 = load ptr, ptr %threadIdCollector_, align 16, !tbaa !55
  store ptr %call.i172, ptr %threadIdCollector_, align 16, !tbaa !55
  %tobool.not.i.i.i.i173 = icmp eq ptr %123, null
  br i1 %tobool.not.i.i.i.i173, label %if.end86, label %_ZNKSt14default_deleteIN5folly22ThreadIdWorkerProviderEEclEPS1_.exit.i.i.i.i

_ZNKSt14default_deleteIN5folly22ThreadIdWorkerProviderEEclEPS1_.exit.i.i.i.i: ; preds = %invoke.cont82
  %vtable.i.i.i.i.i174 = load ptr, ptr %123, align 8, !tbaa !29
  %vfn.i.i.i.i.i175 = getelementptr inbounds ptr, ptr %vtable.i.i.i.i.i174, i64 1
  %124 = load ptr, ptr %vfn.i.i.i.i.i175, align 8
  call void %124(ptr noundef nonnull align 8 dereferenceable(76) %123) #32
  br label %if.end86

lpad81:                                           ; preds = %if.then79
  %125 = landingpad { ptr, i32 }
          cleanup
  br label %ehcleanup96

if.end86:                                         ; preds = %_ZNKSt14default_deleteIN5folly22ThreadIdWorkerProviderEEclEPS1_.exit.i.i.i.i, %invoke.cont82, %invoke.cont78
  %126 = ptrtoint ptr %this to i64
  %call.i185 = invoke noalias noundef nonnull dereferenceable(8) ptr @_Znwm(i64 noundef 8) #41
          to label %call.i.noexc184 unwind label %lpad89

call.i.noexc184:                                  ; preds = %if.end86
  call void @llvm.lifetime.start.p0(i64 8, ptr nonnull %agg.tmp.i.i), !noalias !293
  store i64 0, ptr %call.i185, align 8, !tbaa !47, !noalias !293
  %call.i2.i = invoke noalias noundef nonnull dereferenceable(16) ptr @_Znwm(i64 noundef 16) #41
          to label %call.i.noexc.i unwind label %lpad.i180, !noalias !293

call.i.noexc.i:                                   ; preds = %call.i.noexc184
  store ptr getelementptr inbounds ({ [5 x ptr] }, ptr @"_ZTVNSt6thread11_State_implINS_8_InvokerISt5tupleIJZN5folly23MuxIOThreadPoolExecutorC1EmNS4_7OptionsESt10shared_ptrINS3_13ThreadFactoryEEPNS3_16EventBaseManagerEE3$_1EEEEEE", i64 0, inrange i32 0, i64 2), ptr %call.i2.i, align 8, !tbaa !29, !noalias !293
  %_M_func.i.i.i = getelementptr inbounds %"struct.std::thread::_State_impl", ptr %call.i2.i, i64 0, i32 1
  store i64 %126, ptr %_M_func.i.i.i, align 8, !tbaa !55, !noalias !293
  store ptr %call.i2.i, ptr %agg.tmp.i.i, align 8, !tbaa !55, !noalias !293
  invoke void @_ZNSt6thread15_M_start_threadESt10unique_ptrINS_6_StateESt14default_deleteIS1_EEPFvvE(ptr noundef nonnull align 8 dereferenceable(8) %call.i185, ptr noundef nonnull %agg.tmp.i.i, ptr noundef null)
          to label %invoke.cont3.i.i unwind label %lpad2.i.i183, !noalias !293

invoke.cont3.i.i:                                 ; preds = %call.i.noexc.i
  %127 = load ptr, ptr %agg.tmp.i.i, align 8, !tbaa !55, !noalias !293
  %cmp.not.i.i.i = icmp eq ptr %127, null
  br i1 %cmp.not.i.i.i, label %invoke.cont90, label %_ZNKSt14default_deleteINSt6thread6_StateEEclEPS1_.exit.i.i.i

_ZNKSt14default_deleteINSt6thread6_StateEEclEPS1_.exit.i.i.i: ; preds = %invoke.cont3.i.i
  %vtable.i.i.i.i = load ptr, ptr %127, align 8, !tbaa !29, !noalias !293
  %vfn.i.i.i.i = getelementptr inbounds ptr, ptr %vtable.i.i.i.i, i64 1
  %128 = load ptr, ptr %vfn.i.i.i.i, align 8, !noalias !293
  call void %128(ptr noundef nonnull align 8 dereferenceable(8) %127) #32, !noalias !293
  br label %invoke.cont90

lpad2.i.i183:                                     ; preds = %call.i.noexc.i
  %129 = landingpad { ptr, i32 }
          cleanup
  %130 = load ptr, ptr %agg.tmp.i.i, align 8, !tbaa !55, !noalias !293
  %cmp.not.i6.i.i = icmp eq ptr %130, null
  br i1 %cmp.not.i6.i.i, label %lpad.body.i181, label %_ZNKSt14default_deleteINSt6thread6_StateEEclEPS1_.exit.i7.i.i

_ZNKSt14default_deleteINSt6thread6_StateEEclEPS1_.exit.i7.i.i: ; preds = %lpad2.i.i183
  %vtable.i.i8.i.i = load ptr, ptr %130, align 8, !tbaa !29, !noalias !293
  %vfn.i.i9.i.i = getelementptr inbounds ptr, ptr %vtable.i.i8.i.i, i64 1
  %131 = load ptr, ptr %vfn.i.i9.i.i, align 8, !noalias !293
  call void %131(ptr noundef nonnull align 8 dereferenceable(8) %130) #32, !noalias !293
  br label %lpad.body.i181

lpad.i180:                                        ; preds = %call.i.noexc184
  %132 = landingpad { ptr, i32 }
          cleanup
  br label %lpad.body.i181

lpad.body.i181:                                   ; preds = %lpad.i180, %_ZNKSt14default_deleteINSt6thread6_StateEEclEPS1_.exit.i7.i.i, %lpad2.i.i183
  %eh.lpad-body.i182 = phi { ptr, i32 } [ %132, %lpad.i180 ], [ %129, %_ZNKSt14default_deleteINSt6thread6_StateEEclEPS1_.exit.i7.i.i ], [ %129, %lpad2.i.i183 ]
  call void @_ZdlPv(ptr noundef nonnull %call.i185) #40, !noalias !293
  br label %ehcleanup96

invoke.cont90:                                    ; preds = %_ZNKSt14default_deleteINSt6thread6_StateEEclEPS1_.exit.i.i.i, %invoke.cont3.i.i
  call void @llvm.lifetime.end.p0(i64 8, ptr nonnull %agg.tmp.i.i), !noalias !293
  %133 = load ptr, ptr %mainThread_, align 16, !tbaa !55
  store ptr %call.i185, ptr %mainThread_, align 16, !tbaa !55
  %tobool.not.i.i.i.i187 = icmp eq ptr %133, null
  br i1 %tobool.not.i.i.i.i187, label %_ZNSt10unique_ptrISt6threadSt14default_deleteIS0_EED2Ev.exit, label %delete.notnull.i.i.i.i.i

delete.notnull.i.i.i.i.i:                         ; preds = %invoke.cont90
  %agg.tmp.sroa.0.0.copyload.i.i.i.i.i.i.i = load i64, ptr %133, align 8, !tbaa.struct !296
  %cmp.i.i.not.i.i.i.i.i.i188 = icmp eq i64 %agg.tmp.sroa.0.0.copyload.i.i.i.i.i.i.i, 0
  br i1 %cmp.i.i.not.i.i.i.i.i.i188, label %_ZNKSt14default_deleteISt6threadEclEPS0_.exit.i.i.i.i, label %if.then.i.i.i.i.i.i

if.then.i.i.i.i.i.i:                              ; preds = %delete.notnull.i.i.i.i.i
  call void @_ZSt9terminatev() #39
  unreachable

_ZNKSt14default_deleteISt6threadEclEPS0_.exit.i.i.i.i: ; preds = %delete.notnull.i.i.i.i.i
  call void @_ZdlPv(ptr noundef nonnull %133) #40
  br label %_ZNSt10unique_ptrISt6threadSt14default_deleteIS0_EED2Ev.exit

_ZNSt10unique_ptrISt6threadSt14default_deleteIS0_EED2Ev.exit: ; preds = %_ZNKSt14default_deleteISt6threadEclEPS0_.exit.i.i.i.i, %invoke.cont90
  ret void

lpad89:                                           ; preds = %if.end86
  %134 = landingpad { ptr, i32 }
          cleanup
  br label %ehcleanup96

ehcleanup96:                                      ; preds = %lpad89, %lpad.body.i181, %lpad81, %ehcleanup75, %lpad43, %lpad35, %lpad.body.i, %cleanup.action, %ehcleanup, %_ZNKSt7__cxx1112basic_stringIcSt11char_traitsIcESaIcEE11_M_is_localEv.exit.thread.i.i, %lpad13
  %.pn115.pn = phi { ptr, i32 } [ %.pn115280, %cleanup.action ], [ %36, %ehcleanup ], [ %34, %lpad13 ], [ %36, %_ZNKSt7__cxx1112basic_stringIcSt11char_traitsIcESaIcEE11_M_is_localEv.exit.thread.i.i ], [ %.pn.pn.pn, %ehcleanup75 ], [ %125, %lpad81 ], [ %64, %lpad43 ], [ %63, %lpad35 ], [ %eh.lpad-body.i, %lpad.body.i ], [ %134, %lpad89 ], [ %eh.lpad-body.i182, %lpad.body.i181 ]
  call void @_ZN5folly23MuxIOThreadPoolExecutor14EventFdHandlerD1Ev(ptr noundef nonnull align 8 dereferenceable(21) %returnEvfd_) #32
  br label %ehcleanup98

ehcleanup98:                                      ; preds = %ehcleanup96, %lpad10
  %.pn115.pn.pn.pn = phi { ptr, i32 } [ %.pn115.pn, %ehcleanup96 ], [ %33, %lpad10 ]
  %135 = load ptr, ptr %queue_, align 8, !tbaa !55
  %cmp.not.i192 = icmp eq ptr %135, null
  br i1 %cmp.not.i192, label %_ZNSt10unique_ptrIN5folly22UnboundedBlockingQueueINS0_23MuxIOThreadPoolExecutor11HandlerTaskENS0_16ThrottledLifoSemEEESt14default_deleteIS5_EED2Ev.exit197, label %_ZNKSt14default_deleteIN5folly22UnboundedBlockingQueueINS0_23MuxIOThreadPoolExecutor11HandlerTaskENS0_16ThrottledLifoSemEEEEclEPS5_.exit.i193

_ZNKSt14default_deleteIN5folly22UnboundedBlockingQueueINS0_23MuxIOThreadPoolExecutor11HandlerTaskENS0_16ThrottledLifoSemEEEEclEPS5_.exit.i193: ; preds = %ehcleanup98
  %vtable.i.i194 = load ptr, ptr %135, align 128, !tbaa !29
  %vfn.i.i195 = getelementptr inbounds ptr, ptr %vtable.i.i194, i64 1
  %136 = load ptr, ptr %vfn.i.i195, align 8
  call void %136(ptr noundef nonnull align 128 dereferenceable(512) %135) #32
  br label %_ZNSt10unique_ptrIN5folly22UnboundedBlockingQueueINS0_23MuxIOThreadPoolExecutor11HandlerTaskENS0_16ThrottledLifoSemEEESt14default_deleteIS5_EED2Ev.exit197

_ZNSt10unique_ptrIN5folly22UnboundedBlockingQueueINS0_23MuxIOThreadPoolExecutor11HandlerTaskENS0_16ThrottledLifoSemEEESt14default_deleteIS5_EED2Ev.exit197: ; preds = %_ZNKSt14default_deleteIN5folly22UnboundedBlockingQueueINS0_23MuxIOThreadPoolExecutor11HandlerTaskENS0_16ThrottledLifoSemEEEEclEPS5_.exit.i193, %ehcleanup98
  store ptr null, ptr %queue_, align 8, !tbaa !55
  call void @_ZNSt10unique_ptrISt6threadSt14default_deleteIS0_EED2Ev(ptr noundef nonnull align 8 dereferenceable(8) %mainThread_) #32
  call void @_ZNSt6vectorISt10unique_ptrIN5folly23MuxIOThreadPoolExecutor10EvbHandlerESt14default_deleteIS3_EESaIS6_EED2Ev(ptr noundef nonnull align 8 dereferenceable(24) %handlers_) #32
  call void @_ZNSt6vectorISt10unique_ptrIN5folly9EventBaseESt14default_deleteIS2_EESaIS5_EED2Ev(ptr noundef nonnull align 8 dereferenceable(24) %evbs_) #32
  %137 = load ptr, ptr %threadIdCollector_, align 16, !tbaa !55
  %cmp.not.i198 = icmp eq ptr %137, null
  br i1 %cmp.not.i198, label %_ZNSt10unique_ptrIN5folly22ThreadIdWorkerProviderESt14default_deleteIS1_EED2Ev.exit203, label %_ZNKSt14default_deleteIN5folly22ThreadIdWorkerProviderEEclEPS1_.exit.i199

_ZNKSt14default_deleteIN5folly22ThreadIdWorkerProviderEEclEPS1_.exit.i199: ; preds = %_ZNSt10unique_ptrIN5folly22UnboundedBlockingQueueINS0_23MuxIOThreadPoolExecutor11HandlerTaskENS0_16ThrottledLifoSemEEESt14default_deleteIS5_EED2Ev.exit197
  %vtable.i.i200 = load ptr, ptr %137, align 8, !tbaa !29
  %vfn.i.i201 = getelementptr inbounds ptr, ptr %vtable.i.i200, i64 1
  %138 = load ptr, ptr %vfn.i.i201, align 8
  call void %138(ptr noundef nonnull align 8 dereferenceable(76) %137) #32
  br label %_ZNSt10unique_ptrIN5folly22ThreadIdWorkerProviderESt14default_deleteIS1_EED2Ev.exit203

_ZNSt10unique_ptrIN5folly22ThreadIdWorkerProviderESt14default_deleteIS1_EED2Ev.exit203: ; preds = %_ZNKSt14default_deleteIN5folly22ThreadIdWorkerProviderEEclEPS1_.exit.i199, %_ZNSt10unique_ptrIN5folly22UnboundedBlockingQueueINS0_23MuxIOThreadPoolExecutor11HandlerTaskENS0_16ThrottledLifoSemEEESt14default_deleteIS5_EED2Ev.exit197
  store ptr null, ptr %threadIdCollector_, align 16, !tbaa !55
  call void @_ZN5folly11ThreadLocalISt10shared_ptrINS_24IOThreadPoolExecutorBase8IOThreadEEvvED2Ev(ptr noundef nonnull align 8 dereferenceable(40) %thisThread_) #32
  call void @_ZN5folly18ThreadPoolExecutorD2Ev(ptr noundef nonnull align 64 dereferenceable(481) %this, ptr noundef nonnull %1) #32
  br label %eh.resume

eh.resume:                                        ; preds = %_ZNSt10unique_ptrIN5folly22ThreadIdWorkerProviderESt14default_deleteIS1_EED2Ev.exit203, %lpad
  %.pn115.pn.pn.pn.pn.pn = phi { ptr, i32 } [ %.pn115.pn.pn.pn, %_ZNSt10unique_ptrIN5folly22ThreadIdWorkerProviderESt14default_deleteIS1_EED2Ev.exit203 ], [ %32, %lpad ]
  resume { ptr, i32 } %.pn115.pn.pn.pn.pn.pn

unreachable:                                      ; preds = %invoke.cont22
  unreachable
}

; Function Attrs: mustprogress nounwind uwtable
define linkonce_odr void @_ZNSt12__shared_ptrIN5folly13ThreadFactoryELN9__gnu_cxx12_Lock_policyE2EED2Ev(ptr noundef nonnull align 8 dereferenceable(16) %this) unnamed_addr #1 comdat align 2 personality ptr @__gxx_personality_v0 {
entry:
  %_M_refcount = getelementptr inbounds %"class.std::__shared_ptr.7", ptr %this, i64 0, i32 1
  %0 = load ptr, ptr %_M_refcount, align 8, !tbaa !52
  %cmp.not.i = icmp eq ptr %0, null
  br i1 %cmp.not.i, label %_ZNSt14__shared_countILN9__gnu_cxx12_Lock_policyE2EED2Ev.exit, label %if.then.i

if.then.i:                                        ; preds = %entry
  %_M_use_count.i.i = getelementptr inbounds %"class.std::_Sp_counted_base", ptr %0, i64 0, i32 1
  %1 = load atomic i64, ptr %_M_use_count.i.i acquire, align 8
  %cmp.i.i = icmp eq i64 %1, 4294967297
  %2 = trunc i64 %1 to i32
  br i1 %cmp.i.i, label %if.then.i.i, label %if.end.i.i

if.then.i.i:                                      ; preds = %if.then.i
  store i32 0, ptr %_M_use_count.i.i, align 8, !tbaa !26
  %_M_weak_count.i.i = getelementptr inbounds %"class.std::_Sp_counted_base", ptr %0, i64 0, i32 2
  store i32 0, ptr %_M_weak_count.i.i, align 4, !tbaa !28
  %vtable.i.i = load ptr, ptr %0, align 8, !tbaa !29
  %vfn.i.i = getelementptr inbounds ptr, ptr %vtable.i.i, i64 2
  %3 = load ptr, ptr %vfn.i.i, align 8
  tail call void %3(ptr noundef nonnull align 8 dereferenceable(16) %0) #32
  %vtable3.i.i = load ptr, ptr %0, align 8, !tbaa !29
  %vfn4.i.i = getelementptr inbounds ptr, ptr %vtable3.i.i, i64 3
  %4 = load ptr, ptr %vfn4.i.i, align 8
  tail call void %4(ptr noundef nonnull align 8 dereferenceable(16) %0) #32
  br label %_ZNSt14__shared_countILN9__gnu_cxx12_Lock_policyE2EED2Ev.exit

if.end.i.i:                                       ; preds = %if.then.i
  %5 = load i8, ptr @__libc_single_threaded, align 1, !tbaa !53
  %tobool.i.not.i.i = icmp eq i8 %5, 0
  br i1 %tobool.i.not.i.i, label %if.else.i.i.i, label %if.then.i.i.i

if.then.i.i.i:                                    ; preds = %if.end.i.i
  %add.i.i.i = add nsw i32 %2, -1
  store i32 %add.i.i.i, ptr %_M_use_count.i.i, align 4, !tbaa !54
  br label %invoke.cont.i.i

if.else.i.i.i:                                    ; preds = %if.end.i.i
  %6 = atomicrmw volatile add ptr %_M_use_count.i.i, i32 -1 acq_rel, align 4
  br label %invoke.cont.i.i

invoke.cont.i.i:                                  ; preds = %if.else.i.i.i, %if.then.i.i.i
  %retval.0.i.i.i = phi i32 [ %2, %if.then.i.i.i ], [ %6, %if.else.i.i.i ]
  %cmp6.i.i = icmp eq i32 %retval.0.i.i.i, 1
  br i1 %cmp6.i.i, label %if.then7.i.i, label %_ZNSt14__shared_countILN9__gnu_cxx12_Lock_policyE2EED2Ev.exit, !prof !77

if.then7.i.i:                                     ; preds = %invoke.cont.i.i
  tail call void @_ZNSt16_Sp_counted_baseILN9__gnu_cxx12_Lock_policyE2EE24_M_release_last_use_coldEv(ptr noundef nonnull align 8 dereferenceable(16) %0) #32
  br label %_ZNSt14__shared_countILN9__gnu_cxx12_Lock_policyE2EED2Ev.exit

_ZNSt14__shared_countILN9__gnu_cxx12_Lock_policyE2EED2Ev.exit: ; preds = %if.then7.i.i, %invoke.cont.i.i, %if.then.i.i, %entry
  ret void
}

; Function Attrs: nounwind
declare i32 @epoll_create1(i32 noundef) local_unnamed_addr #5

; Function Attrs: mustprogress uwtable
define void @_ZN5folly23MuxIOThreadPoolExecutor10addHandlerEPNS0_7HandlerEbb(ptr nocapture noundef nonnull readonly align 64 dereferenceable(768) %this, ptr noundef %handler, i1 noundef zeroext %first, i1 noundef zeroext %persist) local_unnamed_addr #2 align 2 personality ptr @__gxx_personality_v0 {
entry:
  %v1.addr.i = alloca i32, align 4
  %v2.addr.i = alloca i32, align 4
  %ref.tmp7 = alloca %"class.google::LogMessageFatal", align 8
  %event = alloca %struct.epoll_event, align 4
  %_result = alloca %"struct.google::CheckOpString", align 8
  %ref.tmp34 = alloca %"class.google::LogMessageFatal", align 8
  %lnot = xor i1 %first, true
  %0 = and i1 %lnot, %persist
  br i1 %0, label %cond.false, label %cleanup.done16, !prof !77

cond.false:                                       ; preds = %entry
  call void @llvm.lifetime.start.p0(i64 16, ptr nonnull %ref.tmp7) #32
  call void @_ZN6google15LogMessageFatalC1EPKci(ptr noundef nonnull align 8 dereferenceable(16) %ref.tmp7, ptr noundef nonnull @.str.96, i32 noundef 202)
  %call = invoke noundef nonnull align 8 dereferenceable(8) ptr @_ZN6google10LogMessage6streamEv(ptr noundef nonnull align 8 dereferenceable(16) %ref.tmp7)
          to label %invoke.cont unwind label %lpad

invoke.cont:                                      ; preds = %cond.false
  %call1.i43 = invoke noundef nonnull align 8 dereferenceable(8) ptr @_ZSt16__ostream_insertIcSt11char_traitsIcEERSt13basic_ostreamIT_T0_ES6_PKS3_l(ptr noundef nonnull align 8 dereferenceable(8) %call, ptr noundef nonnull @.str.99, i64 noundef 35)
          to label %cleanup.action unwind label %lpad

cleanup.action:                                   ; preds = %invoke.cont
  call void @_ZN6google15LogMessageFatalD1Ev(ptr noundef nonnull align 8 dereferenceable(16) %ref.tmp7) #39
  unreachable

lpad:                                             ; preds = %invoke.cont, %cond.false
  %1 = landingpad { ptr, i32 }
          cleanup
  call void @_ZN6google15LogMessageFatalD1Ev(ptr noundef nonnull align 8 dereferenceable(16) %ref.tmp7) #39
  unreachable

cleanup.done16:                                   ; preds = %entry
  call void @llvm.lifetime.start.p0(i64 12, ptr nonnull %event) #32
  %data = getelementptr inbounds %struct.epoll_event, ptr %event, i64 0, i32 1
  store ptr %handler, ptr %data, align 4, !tbaa !53
  %or = select i1 %persist, i32 1, i32 1073741825
  store i32 %or, ptr %event, align 4, !tbaa !217
  %fd21 = getelementptr inbounds %"struct.folly::MuxIOThreadPoolExecutor::Handler", ptr %handler, i64 0, i32 2
  %2 = load i32, ptr %fd21, align 8, !tbaa !207
  %epFd_ = getelementptr inbounds %"class.folly::MuxIOThreadPoolExecutor", ptr %this, i64 0, i32 6
  %3 = load i32, ptr %epFd_, align 8, !tbaa !219
  %. = select i1 %first, i32 1, i32 3
  %call27 = call i32 @epoll_ctl(i32 noundef %3, i32 noundef %., i32 noundef %2, ptr noundef nonnull %event) #32
  call void @llvm.lifetime.start.p0(i64 8, ptr nonnull %_result) #32
  call void @llvm.lifetime.start.p0(i64 4, ptr nonnull %v1.addr.i)
  call void @llvm.lifetime.start.p0(i64 4, ptr nonnull %v2.addr.i)
  store i32 %call27, ptr %v1.addr.i, align 4, !tbaa !54
  store i32 0, ptr %v2.addr.i, align 4, !tbaa !54
  %cmp.i.i = icmp eq i32 %call27, 0
  br i1 %cmp.i.i, label %_ZN6google12Check_EQImplB5cxx11EiiPKc.exit.thread, label %_ZN6google12Check_EQImplB5cxx11EiiPKc.exit, !prof !220

_ZN6google12Check_EQImplB5cxx11EiiPKc.exit.thread: ; preds = %cleanup.done16
  call void @llvm.lifetime.end.p0(i64 4, ptr nonnull %v1.addr.i)
  call void @llvm.lifetime.end.p0(i64 4, ptr nonnull %v2.addr.i)
  br label %while.exit

_ZN6google12Check_EQImplB5cxx11EiiPKc.exit:       ; preds = %cleanup.done16
  %call.i.i44 = call noundef ptr @_ZN6google17MakeCheckOpStringIiiEEPNSt7__cxx1112basic_stringIcSt11char_traitsIcESaIcEEERKT_RKT0_PKc(ptr noundef nonnull align 4 dereferenceable(4) %v1.addr.i, ptr noundef nonnull align 4 dereferenceable(4) %v2.addr.i, ptr noundef nonnull @.str.100)
  call void @llvm.lifetime.end.p0(i64 4, ptr nonnull %v1.addr.i)
  call void @llvm.lifetime.end.p0(i64 4, ptr nonnull %v2.addr.i)
  store ptr %call.i.i44, ptr %_result, align 8, !tbaa !223
  %cmp.i.not = icmp eq ptr %call.i.i44, null
  br i1 %cmp.i.not, label %while.exit, label %while.body

while.exit:                                       ; preds = %_ZN6google12Check_EQImplB5cxx11EiiPKc.exit, %_ZN6google12Check_EQImplB5cxx11EiiPKc.exit.thread
  call void @llvm.lifetime.end.p0(i64 8, ptr nonnull %_result) #32
  call void @llvm.lifetime.end.p0(i64 12, ptr nonnull %event) #32
  ret void

while.body:                                       ; preds = %_ZN6google12Check_EQImplB5cxx11EiiPKc.exit
  call void @llvm.lifetime.start.p0(i64 16, ptr nonnull %ref.tmp34) #32
  call void @_ZN6google15LogMessageFatalC1EPKciRKNS_13CheckOpStringE(ptr noundef nonnull align 8 dereferenceable(16) %ref.tmp34, ptr noundef nonnull @.str.96, i32 noundef 213, ptr noundef nonnull align 8 dereferenceable(8) %_result)
  %call37 = invoke noundef nonnull align 8 dereferenceable(8) ptr @_ZN6google10LogMessage6streamEv(ptr noundef nonnull align 8 dereferenceable(16) %ref.tmp34)
          to label %invoke.cont36 unwind label %lpad35

invoke.cont36:                                    ; preds = %while.body
  call void @_ZN6google15LogMessageFatalD1Ev(ptr noundef nonnull align 8 dereferenceable(16) %ref.tmp34) #39
  unreachable

lpad35:                                           ; preds = %while.body
  %4 = landingpad { ptr, i32 }
          cleanup
  call void @_ZN6google15LogMessageFatalD1Ev(ptr noundef nonnull align 8 dereferenceable(16) %ref.tmp34) #39
  unreachable
}

; Function Attrs: mustprogress uwtable
define void @_ZN5folly23MuxIOThreadPoolExecutor13makeEventBaseEv(ptr noalias sret(%"class.std::unique_ptr.151") align 8 %agg.result, ptr nocapture noundef nonnull readnone align 64 dereferenceable(768) %this) local_unnamed_addr #2 align 2 personality ptr @__gxx_personality_v0 {
_ZN5folly9EventBase7Options17setBackendFactoryESt8functionIFSt10unique_ptrINS_20EventBaseBackendBaseESt14default_deleteIS4_EEvEE.exit:
  %opts = alloca %"struct.folly::EventBase::Options", align 8
  call void @llvm.lifetime.start.p0(i64 56, ptr nonnull %opts) #32
  store i8 0, ptr %opts, align 8, !tbaa !256
  %backendFactory.i = getelementptr inbounds %"struct.folly::EventBase::Options", ptr %opts, i64 0, i32 2
  %timerTickInterval.i = getelementptr inbounds %"struct.folly::EventBase::Options", ptr %opts, i64 0, i32 3
  %0 = load i32, ptr @_ZN5folly16HHWheelTimerBaseINSt6chrono8durationIlSt5ratioILl1ELl1000EEEEE21DEFAULT_TICK_INTERVALE, align 4, !tbaa !54
  %conv.i.i = sext i32 %0 to i64
  store i64 %conv.i.i, ptr %timerTickInterval.i, align 8, !tbaa !259
  %strictLoopThread.i = getelementptr inbounds %"struct.folly::EventBase::Options", ptr %opts, i64 0, i32 4
  call void @llvm.memset.p0.i64(ptr noundef nonnull align 8 dereferenceable(16) %backendFactory.i, i8 0, i64 16, i1 false)
  %_M_manager3.i.i.i = getelementptr inbounds %"struct.folly::EventBase::Options", ptr %opts, i64 0, i32 2, i32 0, i32 1
  store ptr @"_ZNSt17_Function_handlerIFSt10unique_ptrIN5folly20EventBaseBackendBaseESt14default_deleteIS2_EEvEZNS1_23MuxIOThreadPoolExecutor13makeEventBaseEvE3$_0E10_M_managerERSt9_Any_dataRKSA_St18_Manager_operation", ptr %_M_manager3.i.i.i, align 8, !tbaa !55
  %_M_invoker4.i.i.i = getelementptr inbounds %"struct.folly::EventBase::Options", ptr %opts, i64 0, i32 2, i32 1
  store ptr @"_ZNSt17_Function_handlerIFSt10unique_ptrIN5folly20EventBaseBackendBaseESt14default_deleteIS2_EEvEZNS1_23MuxIOThreadPoolExecutor13makeEventBaseEvE3$_0E9_M_invokeERKSt9_Any_data", ptr %_M_invoker4.i.i.i, align 8, !tbaa !55
  store i8 1, ptr %strictLoopThread.i, align 8, !tbaa !260
  invoke void @_ZSt11make_uniqueIN5folly9EventBaseEJRNS1_7OptionsEEENSt8__detail9_MakeUniqIT_E15__single_objectEDpOT0_(ptr sret(%"class.std::unique_ptr.151") align 8 %agg.result, ptr noundef nonnull align 8 dereferenceable(49) %opts)
          to label %_ZNSt14_Function_baseD2Ev.exit unwind label %_ZNSt14_Function_baseD2Ev.exit15

_ZNSt14_Function_baseD2Ev.exit:                   ; preds = %_ZN5folly9EventBase7Options17setBackendFactoryESt8functionIFSt10unique_ptrINS_20EventBaseBackendBaseESt14default_deleteIS4_EEvEE.exit
  %.pre23 = load ptr, ptr %_M_manager3.i.i.i, align 8, !tbaa !229
  %tobool.not.i.i = icmp eq ptr %.pre23, null
  br i1 %tobool.not.i.i, label %_ZN5folly9EventBase7OptionsD2Ev.exit, label %if.then.i.i

if.then.i.i:                                      ; preds = %_ZNSt14_Function_baseD2Ev.exit
  %call.i.i = invoke noundef zeroext i1 %.pre23(ptr noundef nonnull align 8 dereferenceable(16) %backendFactory.i, ptr noundef nonnull align 8 dereferenceable(16) %backendFactory.i, i32 noundef 3)
          to label %_ZN5folly9EventBase7OptionsD2Ev.exit unwind label %terminate.lpad.i.i

terminate.lpad.i.i:                               ; preds = %if.then.i.i
  %1 = landingpad { ptr, i32 }
          catch ptr null
  %2 = extractvalue { ptr, i32 } %1, 0
  call void @__clang_call_terminate(ptr %2) #39
  unreachable

_ZN5folly9EventBase7OptionsD2Ev.exit:             ; preds = %if.then.i.i, %_ZNSt14_Function_baseD2Ev.exit
  call void @llvm.lifetime.end.p0(i64 56, ptr nonnull %opts) #32
  ret void

_ZNSt14_Function_baseD2Ev.exit15:                 ; preds = %_ZN5folly9EventBase7Options17setBackendFactoryESt8functionIFSt10unique_ptrINS_20EventBaseBackendBaseESt14default_deleteIS4_EEvEE.exit
  %3 = landingpad { ptr, i32 }
          cleanup
  %.pre = load ptr, ptr %_M_manager3.i.i.i, align 8, !tbaa !229
  %tobool.not.i.i17 = icmp eq ptr %.pre, null
  br i1 %tobool.not.i.i17, label %_ZN5folly9EventBase7OptionsD2Ev.exit22, label %if.then.i.i18

if.then.i.i18:                                    ; preds = %_ZNSt14_Function_baseD2Ev.exit15
  %call.i.i20 = invoke noundef zeroext i1 %.pre(ptr noundef nonnull align 8 dereferenceable(16) %backendFactory.i, ptr noundef nonnull align 8 dereferenceable(16) %backendFactory.i, i32 noundef 3)
          to label %_ZN5folly9EventBase7OptionsD2Ev.exit22 unwind label %terminate.lpad.i.i21

terminate.lpad.i.i21:                             ; preds = %if.then.i.i18
  %4 = landingpad { ptr, i32 }
          catch ptr null
  %5 = extractvalue { ptr, i32 } %4, 0
  call void @__clang_call_terminate(ptr %5) #39
  unreachable

_ZN5folly9EventBase7OptionsD2Ev.exit22:           ; preds = %if.then.i.i18, %_ZNSt14_Function_baseD2Ev.exit15
  call void @llvm.lifetime.end.p0(i64 56, ptr nonnull %opts) #32
  resume { ptr, i32 } %3
}

; Function Attrs: nounwind
declare void @_ZN5folly9EventBase20runInEventBaseThreadENS_8FunctionIFvvEEE(ptr noundef nonnull align 16 dereferenceable(584), ptr noundef) local_unnamed_addr #5

declare void @_ZN5folly18ThreadPoolExecutor13setNumThreadsEm(ptr noundef nonnull align 64 dereferenceable(481), i64 noundef) local_unnamed_addr #3

declare void @_ZN5folly18ThreadPoolExecutor26registerThreadPoolExecutorEPS0_(ptr noundef) local_unnamed_addr #3

; Function Attrs: mustprogress nounwind uwtable
define linkonce_odr void @_ZNSt10unique_ptrISt6threadSt14default_deleteIS0_EED2Ev(ptr noundef nonnull align 8 dereferenceable(8) %this) unnamed_addr #1 comdat align 2 {
entry:
  %0 = load ptr, ptr %this, align 8, !tbaa !55
  %cmp.not = icmp eq ptr %0, null
  br i1 %cmp.not, label %if.end, label %delete.notnull.i

delete.notnull.i:                                 ; preds = %entry
  %agg.tmp.sroa.0.0.copyload.i.i.i = load i64, ptr %0, align 8, !tbaa.struct !296
  %cmp.i.i.not.i.i = icmp eq i64 %agg.tmp.sroa.0.0.copyload.i.i.i, 0
  br i1 %cmp.i.i.not.i.i, label %_ZNKSt14default_deleteISt6threadEclEPS0_.exit, label %if.then.i.i

if.then.i.i:                                      ; preds = %delete.notnull.i
  tail call void @_ZSt9terminatev() #39
  unreachable

_ZNKSt14default_deleteISt6threadEclEPS0_.exit:    ; preds = %delete.notnull.i
  tail call void @_ZdlPv(ptr noundef nonnull %0) #40
  br label %if.end

if.end:                                           ; preds = %_ZNKSt14default_deleteISt6threadEclEPS0_.exit, %entry
  store ptr null, ptr %this, align 8, !tbaa !55
  ret void
}

; Function Attrs: mustprogress nounwind uwtable
define linkonce_odr void @_ZNSt6vectorISt10unique_ptrIN5folly23MuxIOThreadPoolExecutor10EvbHandlerESt14default_deleteIS3_EESaIS6_EED2Ev(ptr noundef nonnull align 8 dereferenceable(24) %this) unnamed_addr #1 comdat align 2 personality ptr @__gxx_personality_v0 {
entry:
  %0 = load ptr, ptr %this, align 8, !tbaa !280
  %_M_finish = getelementptr inbounds %"struct.std::_Vector_base<std::unique_ptr<folly::MuxIOThreadPoolExecutor::EvbHandler>, std::allocator<std::unique_ptr<folly::MuxIOThreadPoolExecutor::EvbHandler>>>::_Vector_impl_data", ptr %this, i64 0, i32 1
  %1 = load ptr, ptr %_M_finish, align 8, !tbaa !272
  %cmp.not3.i.i.i = icmp eq ptr %0, %1
  br i1 %cmp.not3.i.i.i, label %invoke.cont, label %for.body.i.i.i

for.body.i.i.i:                                   ; preds = %entry, %_ZSt8_DestroyISt10unique_ptrIN5folly23MuxIOThreadPoolExecutor10EvbHandlerESt14default_deleteIS3_EEEvPT_.exit.i.i.i
  %__first.addr.04.i.i.i = phi ptr [ %incdec.ptr.i.i.i, %_ZSt8_DestroyISt10unique_ptrIN5folly23MuxIOThreadPoolExecutor10EvbHandlerESt14default_deleteIS3_EEEvPT_.exit.i.i.i ], [ %0, %entry ]
  %2 = load ptr, ptr %__first.addr.04.i.i.i, align 8, !tbaa !55
  %cmp.not.i.i.i.i.i = icmp eq ptr %2, null
  br i1 %cmp.not.i.i.i.i.i, label %_ZSt8_DestroyISt10unique_ptrIN5folly23MuxIOThreadPoolExecutor10EvbHandlerESt14default_deleteIS3_EEEvPT_.exit.i.i.i, label %_ZNKSt14default_deleteIN5folly23MuxIOThreadPoolExecutor10EvbHandlerEEclEPS2_.exit.i.i.i.i.i

_ZNKSt14default_deleteIN5folly23MuxIOThreadPoolExecutor10EvbHandlerEEclEPS2_.exit.i.i.i.i.i: ; preds = %for.body.i.i.i
  %vtable.i.i.i.i.i.i = load ptr, ptr %2, align 8, !tbaa !29
  %vfn.i.i.i.i.i.i = getelementptr inbounds ptr, ptr %vtable.i.i.i.i.i.i, i64 1
  %3 = load ptr, ptr %vfn.i.i.i.i.i.i, align 8
  tail call void %3(ptr noundef nonnull align 8 dereferenceable(32) %2) #32
  br label %_ZSt8_DestroyISt10unique_ptrIN5folly23MuxIOThreadPoolExecutor10EvbHandlerESt14default_deleteIS3_EEEvPT_.exit.i.i.i

_ZSt8_DestroyISt10unique_ptrIN5folly23MuxIOThreadPoolExecutor10EvbHandlerESt14default_deleteIS3_EEEvPT_.exit.i.i.i: ; preds = %_ZNKSt14default_deleteIN5folly23MuxIOThreadPoolExecutor10EvbHandlerEEclEPS2_.exit.i.i.i.i.i, %for.body.i.i.i
  store ptr null, ptr %__first.addr.04.i.i.i, align 8, !tbaa !55
  %incdec.ptr.i.i.i = getelementptr inbounds %"class.std::unique_ptr.159", ptr %__first.addr.04.i.i.i, i64 1
  %cmp.not.i.i.i = icmp eq ptr %incdec.ptr.i.i.i, %1
  br i1 %cmp.not.i.i.i, label %invoke.contthread-pre-split, label %for.body.i.i.i, !llvm.loop !297

invoke.contthread-pre-split:                      ; preds = %_ZSt8_DestroyISt10unique_ptrIN5folly23MuxIOThreadPoolExecutor10EvbHandlerESt14default_deleteIS3_EEEvPT_.exit.i.i.i
  %.pr = load ptr, ptr %this, align 8, !tbaa !280
  br label %invoke.cont

invoke.cont:                                      ; preds = %invoke.contthread-pre-split, %entry
  %4 = phi ptr [ %.pr, %invoke.contthread-pre-split ], [ %0, %entry ]
  %tobool.not.i.i = icmp eq ptr %4, null
  br i1 %tobool.not.i.i, label %_ZNSt12_Vector_baseISt10unique_ptrIN5folly23MuxIOThreadPoolExecutor10EvbHandlerESt14default_deleteIS3_EESaIS6_EED2Ev.exit, label %if.then.i.i

if.then.i.i:                                      ; preds = %invoke.cont
  tail call void @_ZdlPv(ptr noundef nonnull %4) #40
  br label %_ZNSt12_Vector_baseISt10unique_ptrIN5folly23MuxIOThreadPoolExecutor10EvbHandlerESt14default_deleteIS3_EESaIS6_EED2Ev.exit

_ZNSt12_Vector_baseISt10unique_ptrIN5folly23MuxIOThreadPoolExecutor10EvbHandlerESt14default_deleteIS3_EESaIS6_EED2Ev.exit: ; preds = %if.then.i.i, %invoke.cont
  ret void
}

; Function Attrs: mustprogress nounwind uwtable
define linkonce_odr void @_ZNSt6vectorISt10unique_ptrIN5folly9EventBaseESt14default_deleteIS2_EESaIS5_EED2Ev(ptr noundef nonnull align 8 dereferenceable(24) %this) unnamed_addr #1 comdat align 2 personality ptr @__gxx_personality_v0 {
entry:
  %0 = load ptr, ptr %this, align 8, !tbaa !61
  %_M_finish = getelementptr inbounds %"struct.std::_Vector_base<std::unique_ptr<folly::EventBase>, std::allocator<std::unique_ptr<folly::EventBase>>>::_Vector_impl_data", ptr %this, i64 0, i32 1
  %1 = load ptr, ptr %_M_finish, align 8, !tbaa !59
  %cmp.not3.i.i.i = icmp eq ptr %0, %1
  br i1 %cmp.not3.i.i.i, label %invoke.cont, label %for.body.i.i.i

for.body.i.i.i:                                   ; preds = %entry, %_ZSt8_DestroyISt10unique_ptrIN5folly9EventBaseESt14default_deleteIS2_EEEvPT_.exit.i.i.i
  %__first.addr.04.i.i.i = phi ptr [ %incdec.ptr.i.i.i, %_ZSt8_DestroyISt10unique_ptrIN5folly9EventBaseESt14default_deleteIS2_EEEvPT_.exit.i.i.i ], [ %0, %entry ]
  %2 = load ptr, ptr %__first.addr.04.i.i.i, align 8, !tbaa !55
  %cmp.not.i.i.i.i.i = icmp eq ptr %2, null
  br i1 %cmp.not.i.i.i.i.i, label %_ZSt8_DestroyISt10unique_ptrIN5folly9EventBaseESt14default_deleteIS2_EEEvPT_.exit.i.i.i, label %_ZNKSt14default_deleteIN5folly9EventBaseEEclEPS1_.exit.i.i.i.i.i

_ZNKSt14default_deleteIN5folly9EventBaseEEclEPS1_.exit.i.i.i.i.i: ; preds = %for.body.i.i.i
  %vtable.i.i.i.i.i.i = load ptr, ptr %2, align 16, !tbaa !29
  %vfn.i.i.i.i.i.i = getelementptr inbounds ptr, ptr %vtable.i.i.i.i.i.i, i64 1
  %3 = load ptr, ptr %vfn.i.i.i.i.i.i, align 8
  tail call void %3(ptr noundef nonnull align 16 dereferenceable(584) %2) #32
  br label %_ZSt8_DestroyISt10unique_ptrIN5folly9EventBaseESt14default_deleteIS2_EEEvPT_.exit.i.i.i

_ZSt8_DestroyISt10unique_ptrIN5folly9EventBaseESt14default_deleteIS2_EEEvPT_.exit.i.i.i: ; preds = %_ZNKSt14default_deleteIN5folly9EventBaseEEclEPS1_.exit.i.i.i.i.i, %for.body.i.i.i
  store ptr null, ptr %__first.addr.04.i.i.i, align 8, !tbaa !55
  %incdec.ptr.i.i.i = getelementptr inbounds %"class.std::unique_ptr.151", ptr %__first.addr.04.i.i.i, i64 1
  %cmp.not.i.i.i = icmp eq ptr %incdec.ptr.i.i.i, %1
  br i1 %cmp.not.i.i.i, label %invoke.contthread-pre-split, label %for.body.i.i.i, !llvm.loop !298

invoke.contthread-pre-split:                      ; preds = %_ZSt8_DestroyISt10unique_ptrIN5folly9EventBaseESt14default_deleteIS2_EEEvPT_.exit.i.i.i
  %.pr = load ptr, ptr %this, align 8, !tbaa !61
  br label %invoke.cont

invoke.cont:                                      ; preds = %invoke.contthread-pre-split, %entry
  %4 = phi ptr [ %.pr, %invoke.contthread-pre-split ], [ %0, %entry ]
  %tobool.not.i.i = icmp eq ptr %4, null
  br i1 %tobool.not.i.i, label %_ZNSt12_Vector_baseISt10unique_ptrIN5folly9EventBaseESt14default_deleteIS2_EESaIS5_EED2Ev.exit, label %if.then.i.i

if.then.i.i:                                      ; preds = %invoke.cont
  tail call void @_ZdlPv(ptr noundef nonnull %4) #40
  br label %_ZNSt12_Vector_baseISt10unique_ptrIN5folly9EventBaseESt14default_deleteIS2_EESaIS5_EED2Ev.exit

_ZNSt12_Vector_baseISt10unique_ptrIN5folly9EventBaseESt14default_deleteIS2_EESaIS5_EED2Ev.exit: ; preds = %if.then.i.i, %invoke.cont
  ret void
}

; Function Attrs: inlinehint mustprogress nounwind uwtable
define linkonce_odr void @_ZN5folly11ThreadLocalISt10shared_ptrINS_24IOThreadPoolExecutorBase8IOThreadEEvvED2Ev(ptr noundef nonnull align 8 dereferenceable(40) %this) unnamed_addr #19 comdat align 2 personality ptr @__gxx_personality_v0 {
entry:
  %_M_manager.i = getelementptr inbounds %"class.folly::ThreadLocal", ptr %this, i64 0, i32 1, i32 0, i32 1
  %0 = load ptr, ptr %_M_manager.i, align 8, !tbaa !229
  %tobool.not.i = icmp eq ptr %0, null
  br i1 %tobool.not.i, label %_ZNSt14_Function_baseD2Ev.exit, label %if.then.i

if.then.i:                                        ; preds = %entry
  %constructor_ = getelementptr inbounds %"class.folly::ThreadLocal", ptr %this, i64 0, i32 1
  %call.i = invoke noundef zeroext i1 %0(ptr noundef nonnull align 8 dereferenceable(16) %constructor_, ptr noundef nonnull align 8 dereferenceable(16) %constructor_, i32 noundef 3)
          to label %_ZNSt14_Function_baseD2Ev.exit unwind label %terminate.lpad.i

terminate.lpad.i:                                 ; preds = %if.then.i
  %1 = landingpad { ptr, i32 }
          catch ptr null
  %2 = extractvalue { ptr, i32 } %1, 0
  tail call void @__clang_call_terminate(ptr %2) #39
  unreachable

_ZNSt14_Function_baseD2Ev.exit:                   ; preds = %if.then.i, %entry
  %3 = load atomic i64, ptr @_ZZN5folly6detail30StaticSingletonManagerWithRtti6createINS_18threadlocal_detail10StaticMetaIvvEEvEERT_vE3arg acquire, align 8
  %atomic-temp.0.i.i.i.i.i = inttoptr i64 %3 to ptr
  %tobool.not.i.i.i.i = icmp eq i64 %3, 0
  br i1 %tobool.not.i.i.i.i, label %cond.false.i.i.i.i, label %_ZN5folly18threadlocal_detail10StaticMetaIvvE8instanceEv.exit.i.i, !prof !77

cond.false.i.i.i.i:                               ; preds = %_ZNSt14_Function_baseD2Ev.exit
  %call3.i.i.i2.i = invoke noundef ptr @_ZN5folly6detail30StaticSingletonManagerWithRtti7create_ILb0EEEPvRNS1_3ArgE(ptr noundef nonnull align 8 dereferenceable(32) @_ZZN5folly6detail30StaticSingletonManagerWithRtti6createINS_18threadlocal_detail10StaticMetaIvvEEvEERT_vE3arg)
          to label %_ZN5folly18threadlocal_detail10StaticMetaIvvE8instanceEv.exit.i.i unwind label %terminate.lpad.i2

_ZN5folly18threadlocal_detail10StaticMetaIvvE8instanceEv.exit.i.i: ; preds = %cond.false.i.i.i.i, %_ZNSt14_Function_baseD2Ev.exit
  %cond.i.i.i.i = phi ptr [ %atomic-temp.0.i.i.i.i.i, %_ZNSt14_Function_baseD2Ev.exit ], [ %call3.i.i.i2.i, %cond.false.i.i.i.i ]
  invoke void @_ZN5folly18threadlocal_detail14StaticMetaBase7destroyEPNS1_7EntryIDE(ptr noundef nonnull align 8 dereferenceable(153) %cond.i.i.i.i, ptr noundef nonnull %this)
          to label %_ZN5folly14ThreadLocalPtrISt10shared_ptrINS_24IOThreadPoolExecutorBase8IOThreadEEvvED2Ev.exit unwind label %terminate.lpad.i2

terminate.lpad.i2:                                ; preds = %_ZN5folly18threadlocal_detail10StaticMetaIvvE8instanceEv.exit.i.i, %cond.false.i.i.i.i
  %4 = landingpad { ptr, i32 }
          catch ptr null
  %5 = extractvalue { ptr, i32 } %4, 0
  tail call void @__clang_call_terminate(ptr %5) #39
  unreachable

_ZN5folly14ThreadLocalPtrISt10shared_ptrINS_24IOThreadPoolExecutorBase8IOThreadEEvvED2Ev.exit: ; preds = %_ZN5folly18threadlocal_detail10StaticMetaIvvE8instanceEv.exit.i.i
  ret void
}

declare void @_ZN5folly18ThreadPoolExecutorC2EmmSt10shared_ptrINS_13ThreadFactoryEE(ptr noundef nonnull align 64 dereferenceable(481), ptr noundef, i64 noundef, i64 noundef, ptr noundef) unnamed_addr #3

; Function Attrs: nounwind uwtable
define linkonce_odr void @_ZThn496_N5folly24IOThreadPoolExecutorBaseD1Ev(ptr noundef %this) unnamed_addr #4 comdat align 2 {
entry:
  tail call void @llvm.trap() #39
  unreachable
}

; Function Attrs: nounwind uwtable
define linkonce_odr void @_ZThn496_N5folly24IOThreadPoolExecutorBaseD0Ev(ptr noundef %this) unnamed_addr #4 comdat align 2 {
entry:
  tail call void @llvm.trap() #39
  unreachable
}

; Function Attrs: mustprogress nounwind uwtable
define linkonce_odr void @_ZN5folly20GetThreadIdCollectorD2Ev(ptr noundef nonnull align 8 dereferenceable(8) %this) unnamed_addr #1 comdat align 2 {
entry:
  ret void
}

; Function Attrs: mustprogress nounwind uwtable
define linkonce_odr void @_ZN5folly20GetThreadIdCollectorD0Ev(ptr noundef nonnull align 8 dereferenceable(8) %this) unnamed_addr #1 comdat align 2 {
entry:
  tail call void @llvm.trap() #39
  unreachable
}

; Function Attrs: mustprogress nounwind uwtable
define linkonce_odr void @_ZNSt16_Sp_counted_baseILN9__gnu_cxx12_Lock_policyE2EE24_M_release_last_use_coldEv(ptr noundef nonnull align 8 dereferenceable(16) %this) local_unnamed_addr #1 comdat align 2 personality ptr @__gxx_personality_v0 {
entry:
  %vtable.i = load ptr, ptr %this, align 8, !tbaa !29
  %vfn.i = getelementptr inbounds ptr, ptr %vtable.i, i64 2
  %0 = load ptr, ptr %vfn.i, align 8
  tail call void %0(ptr noundef nonnull align 8 dereferenceable(16) %this) #32
  %_M_weak_count.i = getelementptr inbounds %"class.std::_Sp_counted_base", ptr %this, i64 0, i32 2
  %1 = load i8, ptr @__libc_single_threaded, align 1, !tbaa !53
  %tobool.i.not.i = icmp eq i8 %1, 0
  br i1 %tobool.i.not.i, label %if.else.i.i, label %if.then.i.i

if.then.i.i:                                      ; preds = %entry
  %2 = load i32, ptr %_M_weak_count.i, align 4, !tbaa !54
  %add.i.i = add nsw i32 %2, -1
  store i32 %add.i.i, ptr %_M_weak_count.i, align 4, !tbaa !54
  br label %invoke.cont.i

if.else.i.i:                                      ; preds = %entry
  %3 = atomicrmw volatile add ptr %_M_weak_count.i, i32 -1 acq_rel, align 4
  br label %invoke.cont.i

invoke.cont.i:                                    ; preds = %if.else.i.i, %if.then.i.i
  %retval.0.i.i = phi i32 [ %2, %if.then.i.i ], [ %3, %if.else.i.i ]
  %cmp.i = icmp eq i32 %retval.0.i.i, 1
  br i1 %cmp.i, label %if.then.i, label %_ZNSt16_Sp_counted_baseILN9__gnu_cxx12_Lock_policyE2EE19_M_release_last_useEv.exit

if.then.i:                                        ; preds = %invoke.cont.i
  %vtable2.i = load ptr, ptr %this, align 8, !tbaa !29
  %vfn3.i = getelementptr inbounds ptr, ptr %vtable2.i, i64 3
  %4 = load ptr, ptr %vfn3.i, align 8
  tail call void %4(ptr noundef nonnull align 8 dereferenceable(16) %this) #32
  br label %_ZNSt16_Sp_counted_baseILN9__gnu_cxx12_Lock_policyE2EE19_M_release_last_useEv.exit

_ZNSt16_Sp_counted_baseILN9__gnu_cxx12_Lock_policyE2EE19_M_release_last_useEv.exit: ; preds = %if.then.i, %invoke.cont.i
  ret void
}

; Function Attrs: mustprogress nocallback nofree nounwind willreturn memory(argmem: write)
declare void @llvm.memset.p0.i64(ptr nocapture writeonly, i8, i64, i1 immarg) #20

; Function Attrs: mustprogress uwtable
define linkonce_odr noundef ptr @_ZNSt17_Function_handlerIFPvvEZN5folly11ThreadLocalISt10shared_ptrINS2_24IOThreadPoolExecutorBase8IOThreadEEvvEC1EvEUlvE_E9_M_invokeERKSt9_Any_data(ptr noundef nonnull align 8 dereferenceable(16) %__functor) #2 comdat align 2 {
entry:
  %call.i.i.i = tail call noalias noundef nonnull dereferenceable(16) ptr @_Znwm(i64 noundef 16) #41
  tail call void @llvm.memset.p0.i64(ptr noundef nonnull align 8 dereferenceable(16) %call.i.i.i, i8 0, i64 16, i1 false)
  ret ptr %call.i.i.i
}

; Function Attrs: mustprogress uwtable
define linkonce_odr noundef zeroext i1 @_ZNSt17_Function_handlerIFPvvEZN5folly11ThreadLocalISt10shared_ptrINS2_24IOThreadPoolExecutorBase8IOThreadEEvvEC1EvEUlvE_E10_M_managerERSt9_Any_dataRKSB_St18_Manager_operation(ptr noundef nonnull align 8 dereferenceable(16) %__dest, ptr noundef nonnull align 8 dereferenceable(16) %__source, i32 noundef %__op) #2 comdat align 2 personality ptr @__gxx_personality_v0 {
entry:
  switch i32 %__op, label %sw.epilog [
    i32 0, label %sw.epilog.sink.split
    i32 1, label %sw.bb1
  ]

sw.bb1:                                           ; preds = %entry
  br label %sw.epilog.sink.split

sw.epilog.sink.split:                             ; preds = %sw.bb1, %entry
  %__source.sink = phi ptr [ %__source, %sw.bb1 ], [ @_ZTIZN5folly11ThreadLocalISt10shared_ptrINS_24IOThreadPoolExecutorBase8IOThreadEEvvEC1EvEUlvE_, %entry ]
  store ptr %__source.sink, ptr %__dest, align 8, !tbaa !55
  br label %sw.epilog

sw.epilog:                                        ; preds = %sw.epilog.sink.split, %entry
  ret i1 false
}

; Function Attrs: nobuiltin allocsize(0)
declare noundef nonnull ptr @_Znwm(i64 noundef) local_unnamed_addr #21

; Function Attrs: nobuiltin allocsize(0)
declare noalias noundef nonnull ptr @_ZnwmSt11align_val_t(i64 noundef, i64 noundef) local_unnamed_addr #21

; Function Attrs: nobuiltin nounwind
declare void @_ZdlPvSt11align_val_t(ptr noundef, i64 noundef) local_unnamed_addr #13

; Function Attrs: mustprogress uwtable
define linkonce_odr void @_ZN5folly14UnboundedQueueINS_23MuxIOThreadPoolExecutor11HandlerTaskELb0ELb0ELb0ELm6ELm7ESt6atomicEC2Ev(ptr noundef nonnull align 128 dereferenceable(144) %this) unnamed_addr #2 comdat align 2 personality ptr @__gxx_personality_v0 {
entry:
  %call = tail call noalias noundef nonnull align 128 dereferenceable(1152) ptr @_ZnwmSt11align_val_t(i64 noundef 1152, i64 noundef 128) #41
  %next_.i.i.i.i = getelementptr inbounds %"class.folly::hazptr_obj", ptr %call, i64 0, i32 1
  store ptr %call, ptr %next_.i.i.i.i, align 8, !tbaa !299
  %cohort_tag_.i.i.i.i = getelementptr inbounds %"class.folly::hazptr_obj", ptr %call, i64 0, i32 2
  %arrayctor.cur.ptr.i = getelementptr inbounds i8, ptr %call, i64 128
  store i32 0, ptr %arrayctor.cur.ptr.i, align 128, !tbaa !50
  %arrayctor.cur.ptr.1.i = getelementptr inbounds i8, ptr %call, i64 144
  store i32 0, ptr %arrayctor.cur.ptr.1.i, align 16, !tbaa !50
  %arrayctor.cur.ptr.2.i = getelementptr inbounds i8, ptr %call, i64 160
  store i32 0, ptr %arrayctor.cur.ptr.2.i, align 32, !tbaa !50
  %arrayctor.cur.ptr.3.i = getelementptr inbounds i8, ptr %call, i64 176
  store i32 0, ptr %arrayctor.cur.ptr.3.i, align 16, !tbaa !50
  %arrayctor.cur.ptr.4.i = getelementptr inbounds i8, ptr %call, i64 192
  store i32 0, ptr %arrayctor.cur.ptr.4.i, align 64, !tbaa !50
  %arrayctor.cur.ptr.5.i = getelementptr inbounds i8, ptr %call, i64 208
  store i32 0, ptr %arrayctor.cur.ptr.5.i, align 16, !tbaa !50
  %arrayctor.cur.ptr.6.i = getelementptr inbounds i8, ptr %call, i64 224
  store i32 0, ptr %arrayctor.cur.ptr.6.i, align 32, !tbaa !50
  %arrayctor.cur.ptr.7.i = getelementptr inbounds i8, ptr %call, i64 240
  store i32 0, ptr %arrayctor.cur.ptr.7.i, align 16, !tbaa !50
  %arrayctor.cur.ptr.8.i = getelementptr inbounds i8, ptr %call, i64 256
  store i32 0, ptr %arrayctor.cur.ptr.8.i, align 128, !tbaa !50
  %arrayctor.cur.ptr.9.i = getelementptr inbounds i8, ptr %call, i64 272
  store i32 0, ptr %arrayctor.cur.ptr.9.i, align 16, !tbaa !50
  %arrayctor.cur.ptr.10.i = getelementptr inbounds i8, ptr %call, i64 288
  store i32 0, ptr %arrayctor.cur.ptr.10.i, align 32, !tbaa !50
  %arrayctor.cur.ptr.11.i = getelementptr inbounds i8, ptr %call, i64 304
  store i32 0, ptr %arrayctor.cur.ptr.11.i, align 16, !tbaa !50
  %arrayctor.cur.ptr.12.i = getelementptr inbounds i8, ptr %call, i64 320
  store i32 0, ptr %arrayctor.cur.ptr.12.i, align 64, !tbaa !50
  %arrayctor.cur.ptr.13.i = getelementptr inbounds i8, ptr %call, i64 336
  store i32 0, ptr %arrayctor.cur.ptr.13.i, align 16, !tbaa !50
  %arrayctor.cur.ptr.14.i = getelementptr inbounds i8, ptr %call, i64 352
  store i32 0, ptr %arrayctor.cur.ptr.14.i, align 32, !tbaa !50
  %arrayctor.cur.ptr.15.i = getelementptr inbounds i8, ptr %call, i64 368
  store i32 0, ptr %arrayctor.cur.ptr.15.i, align 16, !tbaa !50
  %arrayctor.cur.ptr.16.i = getelementptr inbounds i8, ptr %call, i64 384
  store i32 0, ptr %arrayctor.cur.ptr.16.i, align 128, !tbaa !50
  %arrayctor.cur.ptr.17.i = getelementptr inbounds i8, ptr %call, i64 400
  store i32 0, ptr %arrayctor.cur.ptr.17.i, align 16, !tbaa !50
  %arrayctor.cur.ptr.18.i = getelementptr inbounds i8, ptr %call, i64 416
  store i32 0, ptr %arrayctor.cur.ptr.18.i, align 32, !tbaa !50
  %arrayctor.cur.ptr.19.i = getelementptr inbounds i8, ptr %call, i64 432
  store i32 0, ptr %arrayctor.cur.ptr.19.i, align 16, !tbaa !50
  %arrayctor.cur.ptr.20.i = getelementptr inbounds i8, ptr %call, i64 448
  store i32 0, ptr %arrayctor.cur.ptr.20.i, align 64, !tbaa !50
  %arrayctor.cur.ptr.21.i = getelementptr inbounds i8, ptr %call, i64 464
  store i32 0, ptr %arrayctor.cur.ptr.21.i, align 16, !tbaa !50
  %arrayctor.cur.ptr.22.i = getelementptr inbounds i8, ptr %call, i64 480
  store i32 0, ptr %arrayctor.cur.ptr.22.i, align 32, !tbaa !50
  %arrayctor.cur.ptr.23.i = getelementptr inbounds i8, ptr %call, i64 496
  store i32 0, ptr %arrayctor.cur.ptr.23.i, align 16, !tbaa !50
  %arrayctor.cur.ptr.24.i = getelementptr inbounds i8, ptr %call, i64 512
  store i32 0, ptr %arrayctor.cur.ptr.24.i, align 128, !tbaa !50
  %arrayctor.cur.ptr.25.i = getelementptr inbounds i8, ptr %call, i64 528
  store i32 0, ptr %arrayctor.cur.ptr.25.i, align 16, !tbaa !50
  %arrayctor.cur.ptr.26.i = getelementptr inbounds i8, ptr %call, i64 544
  store i32 0, ptr %arrayctor.cur.ptr.26.i, align 32, !tbaa !50
  %arrayctor.cur.ptr.27.i = getelementptr inbounds i8, ptr %call, i64 560
  store i32 0, ptr %arrayctor.cur.ptr.27.i, align 16, !tbaa !50
  %arrayctor.cur.ptr.28.i = getelementptr inbounds i8, ptr %call, i64 576
  store i32 0, ptr %arrayctor.cur.ptr.28.i, align 64, !tbaa !50
  %arrayctor.cur.ptr.29.i = getelementptr inbounds i8, ptr %call, i64 592
  store i32 0, ptr %arrayctor.cur.ptr.29.i, align 16, !tbaa !50
  %arrayctor.cur.ptr.30.i = getelementptr inbounds i8, ptr %call, i64 608
  store i32 0, ptr %arrayctor.cur.ptr.30.i, align 32, !tbaa !50
  %arrayctor.cur.ptr.31.i = getelementptr inbounds i8, ptr %call, i64 624
  store i32 0, ptr %arrayctor.cur.ptr.31.i, align 16, !tbaa !50
  %arrayctor.cur.ptr.32.i = getelementptr inbounds i8, ptr %call, i64 640
  store i32 0, ptr %arrayctor.cur.ptr.32.i, align 128, !tbaa !50
  %arrayctor.cur.ptr.33.i = getelementptr inbounds i8, ptr %call, i64 656
  store i32 0, ptr %arrayctor.cur.ptr.33.i, align 16, !tbaa !50
  %arrayctor.cur.ptr.34.i = getelementptr inbounds i8, ptr %call, i64 672
  store i32 0, ptr %arrayctor.cur.ptr.34.i, align 32, !tbaa !50
  %arrayctor.cur.ptr.35.i = getelementptr inbounds i8, ptr %call, i64 688
  store i32 0, ptr %arrayctor.cur.ptr.35.i, align 16, !tbaa !50
  %arrayctor.cur.ptr.36.i = getelementptr inbounds i8, ptr %call, i64 704
  store i32 0, ptr %arrayctor.cur.ptr.36.i, align 64, !tbaa !50
  %arrayctor.cur.ptr.37.i = getelementptr inbounds i8, ptr %call, i64 720
  store i32 0, ptr %arrayctor.cur.ptr.37.i, align 16, !tbaa !50
  %arrayctor.cur.ptr.38.i = getelementptr inbounds i8, ptr %call, i64 736
  store i32 0, ptr %arrayctor.cur.ptr.38.i, align 32, !tbaa !50
  %arrayctor.cur.ptr.39.i = getelementptr inbounds i8, ptr %call, i64 752
  store i32 0, ptr %arrayctor.cur.ptr.39.i, align 16, !tbaa !50
  %arrayctor.cur.ptr.40.i = getelementptr inbounds i8, ptr %call, i64 768
  store i32 0, ptr %arrayctor.cur.ptr.40.i, align 128, !tbaa !50
  %arrayctor.cur.ptr.41.i = getelementptr inbounds i8, ptr %call, i64 784
  store i32 0, ptr %arrayctor.cur.ptr.41.i, align 16, !tbaa !50
  %arrayctor.cur.ptr.42.i = getelementptr inbounds i8, ptr %call, i64 800
  store i32 0, ptr %arrayctor.cur.ptr.42.i, align 32, !tbaa !50
  %arrayctor.cur.ptr.43.i = getelementptr inbounds i8, ptr %call, i64 816
  store i32 0, ptr %arrayctor.cur.ptr.43.i, align 16, !tbaa !50
  %arrayctor.cur.ptr.44.i = getelementptr inbounds i8, ptr %call, i64 832
  store i32 0, ptr %arrayctor.cur.ptr.44.i, align 64, !tbaa !50
  %arrayctor.cur.ptr.45.i = getelementptr inbounds i8, ptr %call, i64 848
  store i32 0, ptr %arrayctor.cur.ptr.45.i, align 16, !tbaa !50
  %arrayctor.cur.ptr.46.i = getelementptr inbounds i8, ptr %call, i64 864
  store i32 0, ptr %arrayctor.cur.ptr.46.i, align 32, !tbaa !50
  %arrayctor.cur.ptr.47.i = getelementptr inbounds i8, ptr %call, i64 880
  store i32 0, ptr %arrayctor.cur.ptr.47.i, align 16, !tbaa !50
  %arrayctor.cur.ptr.48.i = getelementptr inbounds i8, ptr %call, i64 896
  store i32 0, ptr %arrayctor.cur.ptr.48.i, align 128, !tbaa !50
  %arrayctor.cur.ptr.49.i = getelementptr inbounds i8, ptr %call, i64 912
  store i32 0, ptr %arrayctor.cur.ptr.49.i, align 16, !tbaa !50
  %arrayctor.cur.ptr.50.i = getelementptr inbounds i8, ptr %call, i64 928
  store i32 0, ptr %arrayctor.cur.ptr.50.i, align 32, !tbaa !50
  %arrayctor.cur.ptr.51.i = getelementptr inbounds i8, ptr %call, i64 944
  store i32 0, ptr %arrayctor.cur.ptr.51.i, align 16, !tbaa !50
  %arrayctor.cur.ptr.52.i = getelementptr inbounds i8, ptr %call, i64 960
  store i32 0, ptr %arrayctor.cur.ptr.52.i, align 64, !tbaa !50
  %arrayctor.cur.ptr.53.i = getelementptr inbounds i8, ptr %call, i64 976
  store i32 0, ptr %arrayctor.cur.ptr.53.i, align 16, !tbaa !50
  %arrayctor.cur.ptr.54.i = getelementptr inbounds i8, ptr %call, i64 992
  store i32 0, ptr %arrayctor.cur.ptr.54.i, align 32, !tbaa !50
  %arrayctor.cur.ptr.55.i = getelementptr inbounds i8, ptr %call, i64 1008
  store i32 0, ptr %arrayctor.cur.ptr.55.i, align 16, !tbaa !50
  %arrayctor.cur.ptr.56.i = getelementptr inbounds i8, ptr %call, i64 1024
  store i32 0, ptr %arrayctor.cur.ptr.56.i, align 128, !tbaa !50
  %arrayctor.cur.ptr.57.i = getelementptr inbounds i8, ptr %call, i64 1040
  store i32 0, ptr %arrayctor.cur.ptr.57.i, align 16, !tbaa !50
  %arrayctor.cur.ptr.58.i = getelementptr inbounds i8, ptr %call, i64 1056
  store i32 0, ptr %arrayctor.cur.ptr.58.i, align 32, !tbaa !50
  %arrayctor.cur.ptr.59.i = getelementptr inbounds i8, ptr %call, i64 1072
  store i32 0, ptr %arrayctor.cur.ptr.59.i, align 16, !tbaa !50
  %arrayctor.cur.ptr.60.i = getelementptr inbounds i8, ptr %call, i64 1088
  store i32 0, ptr %arrayctor.cur.ptr.60.i, align 64, !tbaa !50
  %arrayctor.cur.ptr.61.i = getelementptr inbounds i8, ptr %call, i64 1104
  store i32 0, ptr %arrayctor.cur.ptr.61.i, align 16, !tbaa !50
  %arrayctor.cur.ptr.62.i = getelementptr inbounds i8, ptr %call, i64 1120
  store i32 0, ptr %arrayctor.cur.ptr.62.i, align 32, !tbaa !50
  %arrayctor.cur.ptr.63.i = getelementptr inbounds i8, ptr %call, i64 1136
  store i32 0, ptr %arrayctor.cur.ptr.63.i, align 16, !tbaa !50
  tail call void @llvm.memset.p0.i64(ptr noundef nonnull align 16 dereferenceable(32) %cohort_tag_.i.i.i.i, i8 0, i64 32, i1 false)
  store ptr %call, ptr %this, align 128, !tbaa !301
  %ticket.i = getelementptr inbounds %"struct.folly::UnboundedQueue<folly::MuxIOThreadPoolExecutor::HandlerTask, false, false, false, 6>::Consumer", ptr %this, i64 0, i32 1
  %cohort.i = getelementptr inbounds %"struct.folly::UnboundedQueue<folly::MuxIOThreadPoolExecutor::HandlerTask, false, false, false, 6>::Consumer", ptr %this, i64 0, i32 2
  %active_.i.i = getelementptr inbounds %"struct.folly::UnboundedQueue<folly::MuxIOThreadPoolExecutor::HandlerTask, false, false, false, 6>::Consumer", ptr %this, i64 0, i32 2, i32 2
  tail call void @llvm.memset.p0.i64(ptr noundef nonnull align 8 dereferenceable(28) %ticket.i, i8 0, i64 28, i1 false)
  store i8 1, ptr %active_.i.i, align 4, !tbaa !48
  %pushed_to_domain_tagged_.i.i = getelementptr inbounds %"struct.folly::UnboundedQueue<folly::MuxIOThreadPoolExecutor::HandlerTask, false, false, false, 6>::Consumer", ptr %this, i64 0, i32 2, i32 3
  store i8 0, ptr %pushed_to_domain_tagged_.i.i, align 1, !tbaa !48
  %safe_list_top_.i.i = getelementptr inbounds %"struct.folly::UnboundedQueue<folly::MuxIOThreadPoolExecutor::HandlerTask, false, false, false, 6>::Consumer", ptr %this, i64 0, i32 2, i32 4
  store ptr null, ptr %safe_list_top_.i.i, align 8, !tbaa !303
  %0 = ptrtoint ptr %cohort.i to i64
  store i64 %0, ptr %cohort_tag_.i.i.i.i, align 16, !tbaa !305
  %p_ = getelementptr inbounds %"class.folly::UnboundedQueue", ptr %this, i64 0, i32 2
  %1 = load atomic i64, ptr %this monotonic, align 128
  %atomic-temp.0.i.i = inttoptr i64 %1 to ptr
  store ptr %atomic-temp.0.i.i, ptr %p_, align 128, !tbaa !301
  %ticket.i5 = getelementptr inbounds %"class.folly::UnboundedQueue", ptr %this, i64 0, i32 2, i32 1
  store i64 0, ptr %ticket.i5, align 8, !tbaa !49
  ret void
}

; Function Attrs: inlinehint mustprogress nounwind uwtable
define linkonce_odr void @_ZN5folly22UnboundedBlockingQueueINS_23MuxIOThreadPoolExecutor11HandlerTaskENS_16ThrottledLifoSemEED2Ev(ptr noundef nonnull align 128 dereferenceable(512) %this) unnamed_addr #19 comdat align 2 personality ptr @__gxx_personality_v0 {
entry:
  store ptr getelementptr inbounds ({ [10 x ptr] }, ptr @_ZTVN5folly22UnboundedBlockingQueueINS_23MuxIOThreadPoolExecutor11HandlerTaskENS_16ThrottledLifoSemEEE, i64 0, inrange i32 0, i64 2), ptr %this, align 128, !tbaa !29
  %queue_ = getelementptr inbounds %"class.folly::UnboundedBlockingQueue", ptr %this, i64 0, i32 3
  tail call void @_ZN5folly14UnboundedQueueINS_23MuxIOThreadPoolExecutor11HandlerTaskELb0ELb0ELb0ELm6ELm7ESt6atomicED2Ev(ptr noundef nonnull align 128 dereferenceable(144) %queue_) #32
  %m_header.i.i.i.i.i.i = getelementptr inbounds %"class.folly::UnboundedBlockingQueue", ptr %this, i64 0, i32 2, i32 4, i32 0, i32 0, i32 0, i32 1
  %0 = load ptr, ptr %m_header.i.i.i.i.i.i, align 8, !tbaa !236, !noalias !306
  %cmp.i.i.not13.i.i.i.i = icmp eq ptr %0, %m_header.i.i.i.i.i.i
  br i1 %cmp.i.i.not13.i.i.i.i, label %_ZN5folly16ThrottledLifoSemD2Ev.exit, label %while.body.i.i.i.i

while.body.i.i.i.i:                               ; preds = %entry, %while.body.i.i.i.i
  %it.sroa.0.014.i.i.i.i = phi ptr [ %1, %while.body.i.i.i.i ], [ %0, %entry ]
  %1 = load ptr, ptr %it.sroa.0.014.i.i.i.i, align 8, !tbaa !236
  tail call void @llvm.memset.p0.i64(ptr noundef nonnull align 8 dereferenceable(16) %it.sroa.0.014.i.i.i.i, i8 0, i64 16, i1 false)
  %cmp.i.i.not.i.i.i.i = icmp eq ptr %1, %m_header.i.i.i.i.i.i
  br i1 %cmp.i.i.not.i.i.i.i, label %_ZN5folly16ThrottledLifoSemD2Ev.exit, label %while.body.i.i.i.i, !llvm.loop !309

_ZN5folly16ThrottledLifoSemD2Ev.exit:             ; preds = %while.body.i.i.i.i, %entry
  %waiters_56.i = getelementptr inbounds %"class.folly::UnboundedBlockingQueue", ptr %this, i64 0, i32 2, i32 4
  tail call void @llvm.memset.p0.i64(ptr noundef nonnull align 16 dereferenceable(24) %waiters_56.i, i8 0, i64 24, i1 false)
  ret void
}

; Function Attrs: inlinehint mustprogress nounwind uwtable
define linkonce_odr void @_ZN5folly22UnboundedBlockingQueueINS_23MuxIOThreadPoolExecutor11HandlerTaskENS_16ThrottledLifoSemEED0Ev(ptr noundef nonnull align 128 dereferenceable(512) %this) unnamed_addr #19 comdat align 2 personality ptr @__gxx_personality_v0 {
entry:
  store ptr getelementptr inbounds ({ [10 x ptr] }, ptr @_ZTVN5folly22UnboundedBlockingQueueINS_23MuxIOThreadPoolExecutor11HandlerTaskENS_16ThrottledLifoSemEEE, i64 0, inrange i32 0, i64 2), ptr %this, align 128, !tbaa !29
  %queue_.i = getelementptr inbounds %"class.folly::UnboundedBlockingQueue", ptr %this, i64 0, i32 3
  tail call void @_ZN5folly14UnboundedQueueINS_23MuxIOThreadPoolExecutor11HandlerTaskELb0ELb0ELb0ELm6ELm7ESt6atomicED2Ev(ptr noundef nonnull align 128 dereferenceable(144) %queue_.i) #32
  %m_header.i.i.i.i.i.i.i = getelementptr inbounds %"class.folly::UnboundedBlockingQueue", ptr %this, i64 0, i32 2, i32 4, i32 0, i32 0, i32 0, i32 1
  %0 = load ptr, ptr %m_header.i.i.i.i.i.i.i, align 8, !tbaa !236, !noalias !310
  %cmp.i.i.not13.i.i.i.i.i = icmp eq ptr %0, %m_header.i.i.i.i.i.i.i
  br i1 %cmp.i.i.not13.i.i.i.i.i, label %_ZN5folly22UnboundedBlockingQueueINS_23MuxIOThreadPoolExecutor11HandlerTaskENS_16ThrottledLifoSemEED2Ev.exit, label %while.body.i.i.i.i.i

while.body.i.i.i.i.i:                             ; preds = %entry, %while.body.i.i.i.i.i
  %it.sroa.0.014.i.i.i.i.i = phi ptr [ %1, %while.body.i.i.i.i.i ], [ %0, %entry ]
  %1 = load ptr, ptr %it.sroa.0.014.i.i.i.i.i, align 8, !tbaa !236
  tail call void @llvm.memset.p0.i64(ptr noundef nonnull align 8 dereferenceable(16) %it.sroa.0.014.i.i.i.i.i, i8 0, i64 16, i1 false)
  %cmp.i.i.not.i.i.i.i.i = icmp eq ptr %1, %m_header.i.i.i.i.i.i.i
  br i1 %cmp.i.i.not.i.i.i.i.i, label %_ZN5folly22UnboundedBlockingQueueINS_23MuxIOThreadPoolExecutor11HandlerTaskENS_16ThrottledLifoSemEED2Ev.exit, label %while.body.i.i.i.i.i, !llvm.loop !313

_ZN5folly22UnboundedBlockingQueueINS_23MuxIOThreadPoolExecutor11HandlerTaskENS_16ThrottledLifoSemEED2Ev.exit: ; preds = %while.body.i.i.i.i.i, %entry
  tail call void @_ZdlPvSt11align_val_t(ptr noundef nonnull %this, i64 noundef 128) #40
  ret void
}

; Function Attrs: mustprogress uwtable
define linkonce_odr i8 @_ZN5folly22UnboundedBlockingQueueINS_23MuxIOThreadPoolExecutor11HandlerTaskENS_16ThrottledLifoSemEE3addES2_(ptr noundef nonnull align 128 dereferenceable(512) %this, ptr %item.coerce) unnamed_addr #2 comdat align 2 personality ptr @__gxx_personality_v0 {
entry:
  %queue_ = getelementptr inbounds %"class.folly::UnboundedBlockingQueue", ptr %this, i64 0, i32 3
  %0 = tail call align 8 ptr @llvm.threadlocal.address.p0(ptr align 8 @_ZZN5folly20SingletonThreadLocalINS_9hazptr_tcISt6atomicEENS_17hazptr_tc_tls_tagENS_6detail11DefaultMakeIS3_EES4_E3getEvE5cache)
  %1 = load ptr, ptr %0, align 8, !tbaa !314, !noalias !316
  %2 = icmp eq ptr %1, null
  br i1 %2, label %cond.false.i, label %cond.true.i, !prof !77

cond.true.i:                                      ; preds = %entry
  %sub.ptr.i = getelementptr inbounds i8, ptr %1, i64 -80
  br label %_ZN5folly20SingletonThreadLocalINS_9hazptr_tcISt6atomicEENS_17hazptr_tc_tls_tagENS_6detail11DefaultMakeIS3_EES4_E3getEv.exit

cond.false.i:                                     ; preds = %entry
  %call.i28 = tail call noundef nonnull align 8 dereferenceable(192) ptr @_ZN5folly20SingletonThreadLocalINS_9hazptr_tcISt6atomicEENS_17hazptr_tc_tls_tagENS_6detail11DefaultMakeIS3_EES4_E7getSlowERNS5_25SingletonThreadLocalState10LocalCacheE(ptr noundef nonnull align 8 dereferenceable(8) %0), !noalias !316
  br label %_ZN5folly20SingletonThreadLocalINS_9hazptr_tcISt6atomicEENS_17hazptr_tc_tls_tagENS_6detail11DefaultMakeIS3_EES4_E3getEv.exit

_ZN5folly20SingletonThreadLocalINS_9hazptr_tcISt6atomicEENS_17hazptr_tc_tls_tagENS_6detail11DefaultMakeIS3_EES4_E3getEv.exit: ; preds = %cond.false.i, %cond.true.i
  %cond-lvalue.i = phi ptr [ %sub.ptr.i, %cond.true.i ], [ %call.i28, %cond.false.i ]
  %count_.i = getelementptr inbounds %"class.folly::hazptr_tc", ptr %cond-lvalue.i, i64 0, i32 1
  %3 = load i8, ptr %count_.i, align 8, !tbaa !319, !noalias !316
  %cmp.not.i25 = icmp eq i8 %3, 0
  br i1 %cmp.not.i25, label %if.end8.i, label %_ZN5folly9hazptr_tcISt6atomicE7try_getEv.exit, !prof !77

_ZN5folly9hazptr_tcISt6atomicE7try_getEv.exit:    ; preds = %_ZN5folly20SingletonThreadLocalINS_9hazptr_tcISt6atomicEENS_17hazptr_tc_tls_tagENS_6detail11DefaultMakeIS3_EES4_E3getEv.exit
  %dec.i = add i8 %3, -1
  store i8 %dec.i, ptr %count_.i, align 8, !tbaa !319, !noalias !316
  %idxprom.i = zext i8 %dec.i to i64
  %arrayidx.i = getelementptr inbounds [9 x %"class.folly::hazptr_tc_entry"], ptr %cond-lvalue.i, i64 0, i64 %idxprom.i
  %4 = load ptr, ptr %arrayidx.i, align 8, !tbaa !321, !noalias !316
  %cmp3.not.i.not = icmp eq ptr %4, null
  br i1 %cmp3.not.i.not, label %if.end8.i, label %_ZN5folly19make_hazard_pointerISt6atomicEENS_13hazptr_holderIT_EERNS_13hazptr_domainIS3_EE.exit

if.end8.i:                                        ; preds = %_ZN5folly9hazptr_tcISt6atomicE7try_getEv.exit, %_ZN5folly20SingletonThreadLocalINS_9hazptr_tcISt6atomicEENS_17hazptr_tc_tls_tagENS_6detail11DefaultMakeIS3_EES4_E3getEv.exit
  %call10.i = tail call noundef ptr @_ZN5folly13hazptr_domainISt6atomicE14acquire_hprecsEh(ptr noundef nonnull align 8 dereferenceable(444) @_ZN5folly14default_domainE, i8 noundef zeroext 1)
  br label %_ZN5folly19make_hazard_pointerISt6atomicEENS_13hazptr_holderIT_EERNS_13hazptr_domainIS3_EE.exit

_ZN5folly19make_hazard_pointerISt6atomicEENS_13hazptr_holderIT_EERNS_13hazptr_domainIS3_EE.exit: ; preds = %if.end8.i, %_ZN5folly9hazptr_tcISt6atomicE7try_getEv.exit
  %hptr.i.sroa.0.1 = phi ptr [ %call10.i, %if.end8.i ], [ %4, %_ZN5folly9hazptr_tcISt6atomicE7try_getEv.exit ]
  %p_.i = getelementptr inbounds %"class.folly::UnboundedBlockingQueue", ptr %this, i64 0, i32 3, i32 2
  %5 = load atomic i64, ptr %p_.i monotonic, align 128
  %atomic-temp.0.i.i = inttoptr i64 %5 to ptr
  store atomic i64 %5, ptr %hptr.i.sroa.0.1 release, align 8
  tail call void asm sideeffect "", "~{memory},~{dirflag},~{fpsr},~{flags}"() #32, !srcloc !323
  %6 = load atomic i64, ptr %p_.i acquire, align 128
  %atomic-temp.0.i.i71106 = inttoptr i64 %6 to ptr
  %cmp.not.i48107 = icmp eq ptr %atomic-temp.0.i.i, %atomic-temp.0.i.i71106
  br i1 %cmp.not.i48107, label %_ZN5folly13hazptr_holderISt6atomicE7protectINS_14UnboundedQueueINS_23MuxIOThreadPoolExecutor11HandlerTaskELb0ELb0ELb0ELm6ELm7ES1_E7SegmentEZNS2_7protectIS8_EEPT_RKS1_ISB_EEUlPS8_E_EESB_SE_T0_.exit, label %_ZN5folly13hazptr_holderISt6atomicE11try_protectINS_14UnboundedQueueINS_23MuxIOThreadPoolExecutor11HandlerTaskELb0ELb0ELb0ELm6ELm7ES1_E7SegmentEZNS2_7protectIS8_EEPT_RKS1_ISB_EEUlPS8_E_EEbRSB_SE_T0_.exit, !prof !324

_ZN5folly13hazptr_holderISt6atomicE11try_protectINS_14UnboundedQueueINS_23MuxIOThreadPoolExecutor11HandlerTaskELb0ELb0ELb0ELm6ELm7ES1_E7SegmentEZNS2_7protectIS8_EEPT_RKS1_ISB_EEUlPS8_E_EEbRSB_SE_T0_.exit: ; preds = %_ZN5folly19make_hazard_pointerISt6atomicEENS_13hazptr_holderIT_EERNS_13hazptr_domainIS3_EE.exit, %_ZN5folly13hazptr_holderISt6atomicE11try_protectINS_14UnboundedQueueINS_23MuxIOThreadPoolExecutor11HandlerTaskELb0ELb0ELb0ELm6ELm7ES1_E7SegmentEZNS2_7protectIS8_EEPT_RKS1_ISB_EEUlPS8_E_EEbRSB_SE_T0_.exit
  %atomic-temp.0.i.i71108 = phi ptr [ %atomic-temp.0.i.i71, %_ZN5folly13hazptr_holderISt6atomicE11try_protectINS_14UnboundedQueueINS_23MuxIOThreadPoolExecutor11HandlerTaskELb0ELb0ELb0ELm6ELm7ES1_E7SegmentEZNS2_7protectIS8_EEPT_RKS1_ISB_EEUlPS8_E_EEbRSB_SE_T0_.exit ], [ %atomic-temp.0.i.i71106, %_ZN5folly19make_hazard_pointerISt6atomicEENS_13hazptr_holderIT_EERNS_13hazptr_domainIS3_EE.exit ]
  store atomic i64 0, ptr %hptr.i.sroa.0.1 release, align 8
  %7 = ptrtoint ptr %atomic-temp.0.i.i71108 to i64
  store atomic i64 %7, ptr %hptr.i.sroa.0.1 release, align 8
  tail call void asm sideeffect "", "~{memory},~{dirflag},~{fpsr},~{flags}"() #32, !srcloc !323
  %8 = load atomic i64, ptr %p_.i acquire, align 128
  %atomic-temp.0.i.i71 = inttoptr i64 %8 to ptr
  %cmp.not.i48 = icmp eq ptr %atomic-temp.0.i.i71108, %atomic-temp.0.i.i71
  br i1 %cmp.not.i48, label %_ZN5folly13hazptr_holderISt6atomicE7protectINS_14UnboundedQueueINS_23MuxIOThreadPoolExecutor11HandlerTaskELb0ELb0ELb0ELm6ELm7ES1_E7SegmentEZNS2_7protectIS8_EEPT_RKS1_ISB_EEUlPS8_E_EESB_SE_T0_.exit, label %_ZN5folly13hazptr_holderISt6atomicE11try_protectINS_14UnboundedQueueINS_23MuxIOThreadPoolExecutor11HandlerTaskELb0ELb0ELb0ELm6ELm7ES1_E7SegmentEZNS2_7protectIS8_EEPT_RKS1_ISB_EEUlPS8_E_EEbRSB_SE_T0_.exit, !prof !325

_ZN5folly13hazptr_holderISt6atomicE7protectINS_14UnboundedQueueINS_23MuxIOThreadPoolExecutor11HandlerTaskELb0ELb0ELb0ELm6ELm7ES1_E7SegmentEZNS2_7protectIS8_EEPT_RKS1_ISB_EEUlPS8_E_EESB_SE_T0_.exit: ; preds = %_ZN5folly13hazptr_holderISt6atomicE11try_protectINS_14UnboundedQueueINS_23MuxIOThreadPoolExecutor11HandlerTaskELb0ELb0ELb0ELm6ELm7ES1_E7SegmentEZNS2_7protectIS8_EEPT_RKS1_ISB_EEUlPS8_E_EEbRSB_SE_T0_.exit, %_ZN5folly19make_hazard_pointerISt6atomicEENS_13hazptr_holderIT_EERNS_13hazptr_domainIS3_EE.exit
  %atomic-temp.0.i.i71.lcssa = phi ptr [ %atomic-temp.0.i.i, %_ZN5folly19make_hazard_pointerISt6atomicEENS_13hazptr_holderIT_EERNS_13hazptr_domainIS3_EE.exit ], [ %atomic-temp.0.i.i71108, %_ZN5folly13hazptr_holderISt6atomicE11try_protectINS_14UnboundedQueueINS_23MuxIOThreadPoolExecutor11HandlerTaskELb0ELb0ELb0ELm6ELm7ES1_E7SegmentEZNS2_7protectIS8_EEPT_RKS1_ISB_EEUlPS8_E_EEbRSB_SE_T0_.exit ]
  %ticket.i = getelementptr inbounds %"class.folly::UnboundedBlockingQueue", ptr %this, i64 0, i32 3, i32 2, i32 1
  %9 = atomicrmw add ptr %ticket.i, i64 1 acq_rel, align 8
  %min_14.i.i110 = getelementptr inbounds %"class.folly::UnboundedQueue<folly::MuxIOThreadPoolExecutor::HandlerTask, false, false, false, 6>::Segment", ptr %atomic-temp.0.i.i71.lcssa, i64 0, i32 2
  %10 = load i64, ptr %min_14.i.i110, align 8, !tbaa !326
  %add.i111 = add i64 %10, 64
  %cmp.not.i52112 = icmp ugt i64 %add.i111, %9
  br i1 %cmp.not.i52112, label %_ZN5folly14UnboundedQueueINS_23MuxIOThreadPoolExecutor11HandlerTaskELb0ELb0ELb0ELm6ELm7ESt6atomicE11findSegmentEPNS4_7SegmentEm.exit, label %while.body.i, !prof !324

while.body.i:                                     ; preds = %_ZN5folly13hazptr_holderISt6atomicE7protectINS_14UnboundedQueueINS_23MuxIOThreadPoolExecutor11HandlerTaskELb0ELb0ELb0ELm6ELm7ES1_E7SegmentEZNS2_7protectIS8_EEPT_RKS1_ISB_EEUlPS8_E_EESB_SE_T0_.exit, %while.body.i
  %s.addr.0.i113 = phi ptr [ %call2.i53, %while.body.i ], [ %atomic-temp.0.i.i71.lcssa, %_ZN5folly13hazptr_holderISt6atomicE7protectINS_14UnboundedQueueINS_23MuxIOThreadPoolExecutor11HandlerTaskELb0ELb0ELb0ELm6ELm7ES1_E7SegmentEZNS2_7protectIS8_EEPT_RKS1_ISB_EEUlPS8_E_EESB_SE_T0_.exit ]
  %call2.i53 = tail call noundef ptr @_ZN5folly14UnboundedQueueINS_23MuxIOThreadPoolExecutor11HandlerTaskELb0ELb0ELb0ELm6ELm7ESt6atomicE19getAllocNextSegmentEPNS4_7SegmentEm(ptr noundef nonnull align 128 dereferenceable(144) %queue_, ptr noundef nonnull %s.addr.0.i113, i64 noundef %9) #32
  %min_14.i.i = getelementptr inbounds %"class.folly::UnboundedQueue<folly::MuxIOThreadPoolExecutor::HandlerTask, false, false, false, 6>::Segment", ptr %call2.i53, i64 0, i32 2
  %11 = load i64, ptr %min_14.i.i, align 8, !tbaa !326
  %add.i = add i64 %11, 64
  %cmp.not.i52 = icmp ugt i64 %add.i, %9
  br i1 %cmp.not.i52, label %_ZN5folly14UnboundedQueueINS_23MuxIOThreadPoolExecutor11HandlerTaskELb0ELb0ELb0ELm6ELm7ESt6atomicE11findSegmentEPNS4_7SegmentEm.exit, label %while.body.i, !prof !325, !llvm.loop !331

_ZN5folly14UnboundedQueueINS_23MuxIOThreadPoolExecutor11HandlerTaskELb0ELb0ELb0ELm6ELm7ESt6atomicE11findSegmentEPNS4_7SegmentEm.exit: ; preds = %while.body.i, %_ZN5folly13hazptr_holderISt6atomicE7protectINS_14UnboundedQueueINS_23MuxIOThreadPoolExecutor11HandlerTaskELb0ELb0ELb0ELm6ELm7ES1_E7SegmentEZNS2_7protectIS8_EEPT_RKS1_ISB_EEUlPS8_E_EESB_SE_T0_.exit
  %12 = phi i64 [ %10, %_ZN5folly13hazptr_holderISt6atomicE7protectINS_14UnboundedQueueINS_23MuxIOThreadPoolExecutor11HandlerTaskELb0ELb0ELb0ELm6ELm7ES1_E7SegmentEZNS2_7protectIS8_EEPT_RKS1_ISB_EEUlPS8_E_EESB_SE_T0_.exit ], [ %11, %while.body.i ]
  %s.addr.0.i.lcssa109 = phi ptr [ %atomic-temp.0.i.i71.lcssa, %_ZN5folly13hazptr_holderISt6atomicE7protectINS_14UnboundedQueueINS_23MuxIOThreadPoolExecutor11HandlerTaskELb0ELb0ELb0ELm6ELm7ES1_E7SegmentEZNS2_7protectIS8_EEPT_RKS1_ISB_EEUlPS8_E_EESB_SE_T0_.exit ], [ %call2.i53, %while.body.i ]
  %mul.i.i = mul i64 %9, 27
  %and.i.i = and i64 %mul.i.i, 63
  %arrayidx.i.i = getelementptr inbounds %"class.folly::UnboundedQueue<folly::MuxIOThreadPoolExecutor::HandlerTask, false, false, false, 6>::Segment", ptr %s.addr.0.i.lcssa109, i64 0, i32 4, i64 %and.i.i
  %item_.i = getelementptr inbounds %"class.folly::UnboundedQueue<folly::MuxIOThreadPoolExecutor::HandlerTask, false, false, false, 6>::Segment", ptr %s.addr.0.i.lcssa109, i64 0, i32 4, i64 %and.i.i, i32 2
  %13 = ptrtoint ptr %item.coerce to i64
  store i64 %13, ptr %item_.i, align 8, !tbaa !55
  store atomic i32 1, ptr %arrayidx.i.i release, align 4
  %and.i = and i64 %9, 63
  switch i64 %and.i, label %if.then.i6 [
    i64 0, label %if.then.i
    i64 63, label %if.then38.i
  ]

if.then.i:                                        ; preds = %_ZN5folly14UnboundedQueueINS_23MuxIOThreadPoolExecutor11HandlerTaskELb0ELb0ELb0ELm6ELm7ESt6atomicE11findSegmentEPNS4_7SegmentEm.exit
  %call36.i5 = invoke noundef ptr @_ZN5folly14UnboundedQueueINS_23MuxIOThreadPoolExecutor11HandlerTaskELb0ELb0ELb0ELm6ELm7ESt6atomicE16allocNextSegmentEPNS4_7SegmentE(ptr noundef nonnull align 128 dereferenceable(144) %queue_, ptr noundef nonnull %s.addr.0.i.lcssa109)
          to label %if.then.i6 unwind label %if.then.i9

if.then38.i:                                      ; preds = %_ZN5folly14UnboundedQueueINS_23MuxIOThreadPoolExecutor11HandlerTaskELb0ELb0ELb0ELm6ELm7ESt6atomicE11findSegmentEPNS4_7SegmentEm.exit
  %add.i73 = add i64 %12, 64
  %14 = load atomic i64, ptr %p_.i acquire, align 128
  %storemerge28.i.i = inttoptr i64 %14 to ptr
  %min_14.i29.i.i = getelementptr inbounds %"class.folly::UnboundedQueue<folly::MuxIOThreadPoolExecutor::HandlerTask, false, false, false, 6>::Segment", ptr %storemerge28.i.i, i64 0, i32 2
  %15 = load i64, ptr %min_14.i29.i.i, align 8, !tbaa !326
  %cmp30.i.i = icmp ult i64 %15, %add.i73
  br i1 %cmp30.i.i, label %while.body.i.i, label %if.then.i6

while.body.i.i:                                   ; preds = %if.then38.i, %while.end.i.i
  %storemerge32.i.i = phi ptr [ %storemerge.i.i, %while.end.i.i ], [ %storemerge28.i.i, %if.then38.i ]
  %storemerge.in31.i.i = phi i64 [ %19, %while.end.i.i ], [ %14, %if.then38.i ]
  %next_.i.i.i = getelementptr inbounds %"class.folly::UnboundedQueue<folly::MuxIOThreadPoolExecutor::HandlerTask, false, false, false, 6>::Segment", ptr %storemerge32.i.i, i64 0, i32 1
  %16 = load atomic i64, ptr %next_.i.i.i acquire, align 8
  %atomic-temp.0.i.i.i.i.i = inttoptr i64 %16 to ptr
  %tobool.not.i.i = icmp eq i64 %16, 0
  br i1 %tobool.not.i.i, label %if.then.i.i, label %while.end.i.i

if.then.i.i:                                      ; preds = %while.body.i.i
  %call4.i.i = invoke noundef ptr @_ZN5folly14UnboundedQueueINS_23MuxIOThreadPoolExecutor11HandlerTaskELb0ELb0ELb0ELm6ELm7ESt6atomicE16allocNextSegmentEPNS4_7SegmentE(ptr noundef nonnull align 128 dereferenceable(144) %queue_, ptr noundef nonnull %storemerge32.i.i)
          to label %while.end.i.i unwind label %terminate.lpad.i.i

while.end.i.i:                                    ; preds = %if.then.i.i, %while.body.i.i
  %next.0.i.i = phi ptr [ %atomic-temp.0.i.i.i.i.i, %while.body.i.i ], [ %call4.i.i, %if.then.i.i ]
  %17 = ptrtoint ptr %next.0.i.i to i64
  %18 = cmpxchg ptr %p_.i, i64 %storemerge.in31.i.i, i64 %17 release monotonic, align 8
  %19 = load atomic i64, ptr %p_.i acquire, align 128
  %storemerge.i.i = inttoptr i64 %19 to ptr
  %min_14.i.i.i = getelementptr inbounds %"class.folly::UnboundedQueue<folly::MuxIOThreadPoolExecutor::HandlerTask, false, false, false, 6>::Segment", ptr %storemerge.i.i, i64 0, i32 2
  %20 = load i64, ptr %min_14.i.i.i, align 8, !tbaa !326
  %cmp.i.i = icmp ult i64 %20, %add.i73
  br i1 %cmp.i.i, label %while.body.i.i, label %if.then.i6, !llvm.loop !332

terminate.lpad.i.i:                               ; preds = %if.then.i.i
  %21 = landingpad { ptr, i32 }
          catch ptr null
  %22 = extractvalue { ptr, i32 } %21, 0
  tail call void @__clang_call_terminate(ptr %22) #39
  unreachable

if.then.i9:                                       ; preds = %if.then.i
  %23 = landingpad { ptr, i32 }
          cleanup
  store atomic i64 0, ptr %hptr.i.sroa.0.1 release, align 8
  %domain_.i = getelementptr inbounds %"class.folly::hazptr_rec", ptr %hptr.i.sroa.0.1, i64 0, i32 1
  %24 = load ptr, ptr %domain_.i, align 8, !tbaa !333
  %cmp6.i11 = icmp eq ptr %24, @_ZN5folly14default_domainE
  br i1 %cmp6.i11, label %if.then10.i13, label %if.end19.i12, !prof !220

if.then10.i13:                                    ; preds = %if.then.i9
  %25 = load ptr, ptr %0, align 8, !tbaa !314
  %26 = icmp eq ptr %25, null
  br i1 %26, label %cond.false.i41, label %cond.true.i37, !prof !77

cond.true.i37:                                    ; preds = %if.then10.i13
  %sub.ptr.i38 = getelementptr inbounds i8, ptr %25, i64 -80
  br label %invoke.cont11.i16

cond.false.i41:                                   ; preds = %if.then10.i13
  %call.i4243 = invoke noundef nonnull align 8 dereferenceable(192) ptr @_ZN5folly20SingletonThreadLocalINS_9hazptr_tcISt6atomicEENS_17hazptr_tc_tls_tagENS_6detail11DefaultMakeIS3_EES4_E7getSlowERNS5_25SingletonThreadLocalState10LocalCacheE(ptr noundef nonnull align 8 dereferenceable(8) %0)
          to label %invoke.cont11.i16 unwind label %terminate.lpad.i15

invoke.cont11.i16:                                ; preds = %cond.false.i41, %cond.true.i37
  %cond-lvalue.i39 = phi ptr [ %sub.ptr.i38, %cond.true.i37 ], [ %call.i4243, %cond.false.i41 ]
  %count_.i57 = getelementptr inbounds %"class.folly::hazptr_tc", ptr %cond-lvalue.i39, i64 0, i32 1
  %27 = load i8, ptr %count_.i57, align 8, !tbaa !319
  %cmp.i59 = icmp ult i8 %27, 9
  br i1 %cmp.i59, label %_ZN5folly9hazptr_tcISt6atomicE7try_putEPNS_10hazptr_recIS1_EE.exit.thread, label %if.end19.i12, !prof !220

_ZN5folly9hazptr_tcISt6atomicE7try_putEPNS_10hazptr_recIS1_EE.exit.thread: ; preds = %invoke.cont11.i16
  %inc.i = add nuw nsw i8 %27, 1
  store i8 %inc.i, ptr %count_.i57, align 8, !tbaa !319
  %idxprom.i61 = zext nneg i8 %27 to i64
  %arrayidx.i62 = getelementptr inbounds [9 x %"class.folly::hazptr_tc_entry"], ptr %cond-lvalue.i39, i64 0, i64 %idxprom.i61
  store ptr %hptr.i.sroa.0.1, ptr %arrayidx.i62, align 8, !tbaa !321
  br label %_ZN5folly13hazptr_holderISt6atomicED2Ev.exit18

if.end19.i12:                                     ; preds = %invoke.cont11.i16, %if.then.i9
  %28 = ptrtoint ptr %hptr.i.sroa.0.1 to i64
  %avail_.i.i.i = getelementptr inbounds %"class.folly::hazptr_domain", ptr %24, i64 0, i32 1
  %nextAvail_.i.i.i = getelementptr inbounds %"class.folly::hazptr_rec", ptr %hptr.i.sroa.0.1, i64 0, i32 3
  br label %while.cond96.i.i

while.cond96.i.i:                                 ; preds = %while.cond96.i.i.backedge, %if.end19.i12
  %29 = load atomic i64, ptr %avail_.i.i.i acquire, align 8
  %and99.i.i = and i64 %29, 1
  %cmp100.i.i = icmp eq i64 %and99.i.i, 0
  br i1 %cmp100.i.i, label %if.then.i.i74, label %if.else.i.i

if.then.i.i74:                                    ; preds = %while.cond96.i.i
  %30 = inttoptr i64 %29 to ptr
  store ptr %30, ptr %nextAvail_.i.i.i, align 8, !tbaa !337
  %31 = cmpxchg weak ptr %avail_.i.i.i, i64 %29, i64 %28 acq_rel acquire, align 8
  %32 = extractvalue { i64, i1 } %31, 1
  br i1 %32, label %_ZN5folly13hazptr_holderISt6atomicED2Ev.exit18, label %while.cond96.i.i.backedge

if.else.i.i:                                      ; preds = %while.cond96.i.i
  %call.i.i.i.i = tail call noundef i32 @sched_yield() #32
  br label %while.cond96.i.i.backedge

while.cond96.i.i.backedge:                        ; preds = %if.else.i.i, %if.then.i.i74
  br label %while.cond96.i.i

terminate.lpad.i15:                               ; preds = %cond.false.i41
  %33 = landingpad { ptr, i32 }
          catch ptr null
  %34 = extractvalue { ptr, i32 } %33, 0
  tail call void @__clang_call_terminate(ptr %34) #39
  unreachable

_ZN5folly13hazptr_holderISt6atomicED2Ev.exit18:   ; preds = %if.then.i.i74, %_ZN5folly9hazptr_tcISt6atomicE7try_putEPNS_10hazptr_recIS1_EE.exit.thread
  resume { ptr, i32 } %23

if.then.i6:                                       ; preds = %while.end.i.i, %if.then38.i, %if.then.i, %_ZN5folly14UnboundedQueueINS_23MuxIOThreadPoolExecutor11HandlerTaskELb0ELb0ELb0ELm6ELm7ESt6atomicE11findSegmentEPNS4_7SegmentEm.exit
  store atomic i64 0, ptr %hptr.i.sroa.0.1 release, align 8
  %domain_.i56 = getelementptr inbounds %"class.folly::hazptr_rec", ptr %hptr.i.sroa.0.1, i64 0, i32 1
  %35 = load ptr, ptr %domain_.i56, align 8, !tbaa !333
  %cmp6.i = icmp eq ptr %35, @_ZN5folly14default_domainE
  br i1 %cmp6.i, label %if.then10.i, label %if.end19.i, !prof !220

if.then10.i:                                      ; preds = %if.then.i6
  %36 = load ptr, ptr %0, align 8, !tbaa !314
  %37 = icmp eq ptr %36, null
  br i1 %37, label %cond.false.i33, label %cond.true.i29, !prof !77

cond.true.i29:                                    ; preds = %if.then10.i
  %sub.ptr.i30 = getelementptr inbounds i8, ptr %36, i64 -80
  br label %invoke.cont11.i

cond.false.i33:                                   ; preds = %if.then10.i
  %call.i3435 = invoke noundef nonnull align 8 dereferenceable(192) ptr @_ZN5folly20SingletonThreadLocalINS_9hazptr_tcISt6atomicEENS_17hazptr_tc_tls_tagENS_6detail11DefaultMakeIS3_EES4_E7getSlowERNS5_25SingletonThreadLocalState10LocalCacheE(ptr noundef nonnull align 8 dereferenceable(8) %0)
          to label %invoke.cont11.i unwind label %terminate.lpad.i

invoke.cont11.i:                                  ; preds = %cond.false.i33, %cond.true.i29
  %cond-lvalue.i31 = phi ptr [ %sub.ptr.i30, %cond.true.i29 ], [ %call.i3435, %cond.false.i33 ]
  %count_.i63 = getelementptr inbounds %"class.folly::hazptr_tc", ptr %cond-lvalue.i31, i64 0, i32 1
  %38 = load i8, ptr %count_.i63, align 8, !tbaa !319
  %cmp.i65 = icmp ult i8 %38, 9
  br i1 %cmp.i65, label %_ZN5folly9hazptr_tcISt6atomicE7try_putEPNS_10hazptr_recIS1_EE.exit70.thread, label %if.end19.i, !prof !220

_ZN5folly9hazptr_tcISt6atomicE7try_putEPNS_10hazptr_recIS1_EE.exit70.thread: ; preds = %invoke.cont11.i
  %inc.i67 = add nuw nsw i8 %38, 1
  store i8 %inc.i67, ptr %count_.i63, align 8, !tbaa !319
  %idxprom.i68 = zext nneg i8 %38 to i64
  %arrayidx.i69 = getelementptr inbounds [9 x %"class.folly::hazptr_tc_entry"], ptr %cond-lvalue.i31, i64 0, i64 %idxprom.i68
  store ptr %hptr.i.sroa.0.1, ptr %arrayidx.i69, align 8, !tbaa !321
  br label %_ZN5folly13hazptr_holderISt6atomicED2Ev.exit

if.end19.i:                                       ; preds = %invoke.cont11.i, %if.then.i6
  %39 = ptrtoint ptr %hptr.i.sroa.0.1 to i64
  %avail_.i.i.i75 = getelementptr inbounds %"class.folly::hazptr_domain", ptr %35, i64 0, i32 1
  %nextAvail_.i.i.i76 = getelementptr inbounds %"class.folly::hazptr_rec", ptr %hptr.i.sroa.0.1, i64 0, i32 3
  br label %while.cond96.i.i77

while.cond96.i.i77:                               ; preds = %while.cond96.i.i77.backedge, %if.end19.i
  %40 = load atomic i64, ptr %avail_.i.i.i75 acquire, align 8
  %and99.i.i78 = and i64 %40, 1
  %cmp100.i.i79 = icmp eq i64 %and99.i.i78, 0
  br i1 %cmp100.i.i79, label %if.then.i.i83, label %if.else.i.i80

if.then.i.i83:                                    ; preds = %while.cond96.i.i77
  %41 = inttoptr i64 %40 to ptr
  store ptr %41, ptr %nextAvail_.i.i.i76, align 8, !tbaa !337
  %42 = cmpxchg weak ptr %avail_.i.i.i75, i64 %40, i64 %39 acq_rel acquire, align 8
  %43 = extractvalue { i64, i1 } %42, 1
  br i1 %43, label %_ZN5folly13hazptr_holderISt6atomicED2Ev.exit, label %while.cond96.i.i77.backedge

if.else.i.i80:                                    ; preds = %while.cond96.i.i77
  %call.i.i.i.i81 = tail call noundef i32 @sched_yield() #32
  br label %while.cond96.i.i77.backedge

while.cond96.i.i77.backedge:                      ; preds = %if.else.i.i80, %if.then.i.i83
  br label %while.cond96.i.i77

terminate.lpad.i:                                 ; preds = %cond.false.i33
  %44 = landingpad { ptr, i32 }
          catch ptr null
  %45 = extractvalue { ptr, i32 } %44, 0
  tail call void @__clang_call_terminate(ptr %45) #39
  unreachable

_ZN5folly13hazptr_holderISt6atomicED2Ev.exit:     ; preds = %if.then.i.i83, %_ZN5folly9hazptr_tcISt6atomicE7try_putEPNS_10hazptr_recIS1_EE.exit70.thread
  %sem_ = getelementptr inbounds %"class.folly::UnboundedBlockingQueue", ptr %this, i64 0, i32 2
  %state_.i = getelementptr inbounds %"class.folly::UnboundedBlockingQueue", ptr %this, i64 0, i32 2, i32 2
  %46 = load atomic i64, ptr %state_.i monotonic, align 128
  %and28.i = and i64 %46, 4294967295
  %add29.i = add nuw nsw i64 %and28.i, 1
  %.sroa.speculated30.i = tail call i64 @llvm.umin.i64(i64 %add29.i, i64 4294967295)
  %and731.i = and i64 %46, -4294967296
  %or32.i = or disjoint i64 %.sroa.speculated30.i, %and731.i
  %47 = cmpxchg weak ptr %state_.i, i64 %46, i64 %or32.i seq_cst monotonic, align 8
  %48 = extractvalue { i64, i1 } %47, 1
  br i1 %48, label %while.end.i, label %_ZN5folly16ThrottledLifoSem8casStateERmm.exit.i

_ZN5folly16ThrottledLifoSem8casStateERmm.exit.i:  ; preds = %_ZN5folly13hazptr_holderISt6atomicED2Ev.exit, %_ZN5folly16ThrottledLifoSem8casStateERmm.exit.i
  %49 = phi { i64, i1 } [ %51, %_ZN5folly16ThrottledLifoSem8casStateERmm.exit.i ], [ %47, %_ZN5folly13hazptr_holderISt6atomicED2Ev.exit ]
  %50 = extractvalue { i64, i1 } %49, 0
  %and.i85 = and i64 %50, 4294967295
  %add.i86 = add nuw nsw i64 %and.i85, 1
  %.sroa.speculated.i = tail call i64 @llvm.umin.i64(i64 %add.i86, i64 4294967295)
  %and7.i = and i64 %50, -4294967296
  %or.i = or disjoint i64 %.sroa.speculated.i, %and7.i
  %51 = cmpxchg weak ptr %state_.i, i64 %50, i64 %or.i seq_cst monotonic, align 8
  %52 = extractvalue { i64, i1 } %51, 1
  br i1 %52, label %while.end.i, label %_ZN5folly16ThrottledLifoSem8casStateERmm.exit.i

while.end.i:                                      ; preds = %_ZN5folly16ThrottledLifoSem8casStateERmm.exit.i, %_ZN5folly13hazptr_holderISt6atomicED2Ev.exit
  %oldState.0.lcssa.i = phi i64 [ %46, %_ZN5folly13hazptr_holderISt6atomicED2Ev.exit ], [ %50, %_ZN5folly16ThrottledLifoSem8casStateERmm.exit.i ]
  %add.lcssa.i = phi i64 [ %add29.i, %_ZN5folly13hazptr_holderISt6atomicED2Ev.exit ], [ %add.i86, %_ZN5folly16ThrottledLifoSem8casStateERmm.exit.i ]
  %cmp.not.i87 = icmp ugt i64 %oldState.0.lcssa.i, 8589934591
  %and10.i = and i64 %oldState.0.lcssa.i, 4294967296
  %tobool.not.i = icmp eq i64 %and10.i, 0
  %or.cond.i = and i1 %cmp.not.i87, %tobool.not.i
  br i1 %or.cond.i, label %if.then11.i, label %_ZN5folly16ThrottledLifoSem4postEj.exit

if.then11.i:                                      ; preds = %while.end.i
  %mutex_.i = getelementptr inbounds %"class.folly::UnboundedBlockingQueue", ptr %this, i64 0, i32 2, i32 3
  %call.i = tail call noundef ptr @_ZN5folly6detail17distributed_mutex16DistributedMutexISt6atomicLb1EE12lock_combineIZNS_16ThrottledLifoSem21maybeStartWakingChainEvEUlvE_EENS_13invoke_detail6traitsIRKT_E6resultIEESA_(ptr noundef nonnull align 8 dereferenceable(8) %mutex_.i, ptr nonnull %sem_)
  %tobool.not.i7 = icmp eq ptr %call.i, null
  br i1 %tobool.not.i7, label %_ZN5folly16ThrottledLifoSem4postEj.exit, label %if.then.i8

if.then.i8:                                       ; preds = %if.then11.i
  %53 = cmpxchg ptr %call.i, i32 0, i32 1 release monotonic, align 4
  %54 = extractvalue { i32, i1 } %53, 1
  br i1 %54, label %_ZN5folly16ThrottledLifoSem4postEj.exit, label %if.end.i.i

if.end.i.i:                                       ; preds = %if.then.i8
  %55 = extractvalue { i32, i1 } %53, 0
  br label %while.cond.i.i

while.cond.i.i:                                   ; preds = %while.cond.i.i.backedge, %if.end.i.i
  %before.addr.0.i.i = phi i32 [ %55, %if.end.i.i ], [ %before.addr.0.i.i.be, %while.cond.i.i.backedge ]
  %cmp.i.i9 = icmp eq i32 %before.addr.0.i.i, 0
  br i1 %cmp.i.i9, label %if.then.i.i11, label %if.end3.i.i

if.then.i.i11:                                    ; preds = %while.cond.i.i
  %56 = cmpxchg ptr %call.i, i32 0, i32 1 release monotonic, align 4
  %57 = extractvalue { i32, i1 } %56, 1
  br i1 %57, label %_ZN5folly16ThrottledLifoSem4postEj.exit, label %_ZNSt13__atomic_baseIjE23compare_exchange_strongERjjSt12memory_orderS2_.exit37.i.i

_ZNSt13__atomic_baseIjE23compare_exchange_strongERjjSt12memory_orderS2_.exit37.i.i: ; preds = %if.then.i.i11
  %58 = extractvalue { i32, i1 } %56, 0
  br label %if.end3.i.i

if.end3.i.i:                                      ; preds = %_ZNSt13__atomic_baseIjE23compare_exchange_strongERjjSt12memory_orderS2_.exit37.i.i, %while.cond.i.i
  %before.addr.2.i.i = phi i32 [ %58, %_ZNSt13__atomic_baseIjE23compare_exchange_strongERjjSt12memory_orderS2_.exit37.i.i ], [ %before.addr.0.i.i, %while.cond.i.i ]
  %cmp4.i.i = icmp eq i32 %before.addr.2.i.i, 1
  br i1 %cmp4.i.i, label %if.then5.i.i, label %while.end27.i.i

if.then5.i.i:                                     ; preds = %if.end3.i.i
  fence seq_cst
  %59 = load atomic i32, ptr %call.i monotonic, align 4
  %cmp8.i.i = icmp eq i32 %59, 1
  br i1 %cmp8.i.i, label %_ZN5folly16ThrottledLifoSem4postEj.exit, label %while.cond.i.i.backedge

while.end27.i.i:                                  ; preds = %if.end3.i.i
  %60 = cmpxchg ptr %call.i, i32 %before.addr.2.i.i, i32 1 release monotonic, align 4
  %61 = extractvalue { i32, i1 } %60, 1
  br i1 %61, label %if.then30.i.i, label %_ZNSt13__atomic_baseIjE23compare_exchange_strongERjjSt12memory_orderS2_.exit.i.i

_ZNSt13__atomic_baseIjE23compare_exchange_strongERjjSt12memory_orderS2_.exit.i.i: ; preds = %while.end27.i.i
  %62 = extractvalue { i32, i1 } %60, 0
  br label %while.cond.i.i.backedge

while.cond.i.i.backedge:                          ; preds = %_ZNSt13__atomic_baseIjE23compare_exchange_strongERjjSt12memory_orderS2_.exit.i.i, %if.then5.i.i
  %before.addr.0.i.i.be = phi i32 [ %59, %if.then5.i.i ], [ %62, %_ZNSt13__atomic_baseIjE23compare_exchange_strongERjjSt12memory_orderS2_.exit.i.i ]
  br label %while.cond.i.i, !llvm.loop !338

if.then30.i.i:                                    ; preds = %while.end27.i.i
  %call.i38.i.i = invoke noundef i32 @_ZN5folly6detail13futexWakeImplEPKSt6atomicIjEij(ptr noundef nonnull %call.i, i32 noundef 2147483647, i32 noundef -1)
          to label %_ZN5folly16ThrottledLifoSem4postEj.exit unwind label %terminate.lpad.i.i10

terminate.lpad.i.i10:                             ; preds = %if.then30.i.i
  %63 = landingpad { ptr, i32 }
          catch ptr null
  %64 = extractvalue { ptr, i32 } %63, 0
  tail call void @__clang_call_terminate(ptr %64) #39
  unreachable

_ZN5folly16ThrottledLifoSem4postEj.exit:          ; preds = %if.then5.i.i, %if.then.i.i11, %if.then30.i.i, %if.then.i8, %if.then11.i, %while.end.i
  %shr.i = lshr i64 %oldState.0.lcssa.i, 33
  %cmp14.i = icmp ule i64 %add.lcssa.i, %shr.i
  %frombool.i = zext i1 %cmp14.i to i8
  ret i8 %frombool.i
}

; Function Attrs: mustprogress uwtable
define linkonce_odr i8 @_ZN5folly13BlockingQueueINS_23MuxIOThreadPoolExecutor11HandlerTaskEE15addWithPriorityES2_a(ptr noundef nonnull align 8 dereferenceable(8) %this, ptr %item.coerce, i8 noundef signext %0) unnamed_addr #2 comdat align 2 {
entry:
  %vtable = load ptr, ptr %this, align 8, !tbaa !29
  %vfn = getelementptr inbounds ptr, ptr %vtable, i64 2
  %1 = load ptr, ptr %vfn, align 8
  %call = tail call i8 %1(ptr noundef nonnull align 8 dereferenceable(8) %this, ptr %item.coerce)
  ret i8 %call
}

; Function Attrs: mustprogress nounwind uwtable
define linkonce_odr noundef zeroext i8 @_ZN5folly13BlockingQueueINS_23MuxIOThreadPoolExecutor11HandlerTaskEE16getNumPrioritiesEv(ptr noundef nonnull align 8 dereferenceable(8) %this) unnamed_addr #1 comdat align 2 {
entry:
  ret i8 1
}

; Function Attrs: mustprogress uwtable
define linkonce_odr ptr @_ZN5folly22UnboundedBlockingQueueINS_23MuxIOThreadPoolExecutor11HandlerTaskENS_16ThrottledLifoSemEE4takeEv(ptr noundef nonnull align 128 dereferenceable(512) %this) unnamed_addr #2 comdat align 2 personality ptr @__gxx_personality_v0 {
if.end.i.i.i:
  %deadline.i = alloca %"class.std::chrono::time_point", align 8
  %ref.tmp.i7 = alloca %"class.std::chrono::time_point", align 8
  %ref.tmp.i = alloca %"class.folly::WaitOptions", align 8
  %sem_ = getelementptr inbounds %"class.folly::UnboundedBlockingQueue", ptr %this, i64 0, i32 2
  call void @llvm.lifetime.start.p0(i64 8, ptr nonnull %deadline.i) #32
  store i64 9223372036854775807, ptr %deadline.i, align 8
  %state_.i.i.i.i.i = getelementptr inbounds %"class.folly::UnboundedBlockingQueue", ptr %this, i64 0, i32 2, i32 2
  %0 = load atomic i64, ptr %state_.i.i.i.i.i monotonic, align 128
  %success.0.in.in19.i.i.i.i.i = and i64 %0, 4294967295
  %success.0.in20.not.i.i.i.i.i = icmp eq i64 %success.0.in.in19.i.i.i.i.i, 0
  br i1 %success.0.in20.not.i.i.i.i.i, label %if.end14.i.i.i, label %while.body.i.i.i.i.i

while.body.i.i.i.i.i:                             ; preds = %if.end.i.i.i, %_ZN5folly16ThrottledLifoSem8casStateERmm.exit.i.i.i.i.i
  %oldState.021.i.i.i.i.i = phi i64 [ %3, %_ZN5folly16ThrottledLifoSem8casStateERmm.exit.i.i.i.i.i ], [ %0, %if.end.i.i.i ]
  %sub.i.i.i.i.i = add i64 %oldState.021.i.i.i.i.i, -1
  %1 = cmpxchg weak ptr %state_.i.i.i.i.i, i64 %oldState.021.i.i.i.i.i, i64 %sub.i.i.i.i.i seq_cst monotonic, align 8
  %2 = extractvalue { i64, i1 } %1, 1
  br i1 %2, label %_ZN5folly16ThrottledLifoSem4waitERKNS_11WaitOptionsE.exit, label %_ZN5folly16ThrottledLifoSem8casStateERmm.exit.i.i.i.i.i

_ZN5folly16ThrottledLifoSem8casStateERmm.exit.i.i.i.i.i: ; preds = %while.body.i.i.i.i.i
  %3 = extractvalue { i64, i1 } %1, 0
  %success.0.in.in.i.i.i.i.i = and i64 %3, 4294967295
  %success.0.in.not.i.i.i.i.i = icmp eq i64 %success.0.in.in.i.i.i.i.i, 0
  br i1 %success.0.in.not.i.i.i.i.i, label %if.end11.i.i.i, label %while.body.i.i.i.i.i

if.end11.i.i.i:                                   ; preds = %_ZN5folly16ThrottledLifoSem8casStateERmm.exit.i.i.i.i.i
  %retval.sroa.0.0.copyload.i.i.i.i.pre.i = load i64, ptr %deadline.i, align 8
  %cmp.i.i44.i.i.i = icmp eq i64 %retval.sroa.0.0.copyload.i.i.i.i.pre.i, -9223372036854775808
  br i1 %cmp.i.i44.i.i.i, label %_ZN5folly16ThrottledLifoSem4waitERKNS_11WaitOptionsE.exit, label %if.end14.i.i.i

if.end14.i.i.i:                                   ; preds = %if.end11.i.i.i, %if.end.i.i.i
  %retval.sroa.0.0.copyload.i.i.i.i13.i = phi i64 [ %retval.sroa.0.0.copyload.i.i.i.i.pre.i, %if.end11.i.i.i ], [ 9223372036854775807, %if.end.i.i.i ]
  %call15.i.i.i = tail call i64 @_ZNSt6chrono3_V212steady_clock3nowEv() #32
  br label %while.cond.i.i.i

while.cond.i.i.i:                                 ; preds = %cleanup.i.i.i, %if.end14.i.i.i
  %retval.sroa.0.0.copyload.i5.i.i.i.i9.i = phi i64 [ %retval.sroa.0.0.copyload.i.i.i.i13.i, %if.end14.i.i.i ], [ %retval.sroa.0.0.copyload.i5.i.i.i.i.i, %cleanup.i.i.i ]
  %tbegin.sroa.0.0.i.i.i = phi i64 [ %call15.i.i.i, %if.end14.i.i.i ], [ %.sroa.speculated.i.i.i, %cleanup.i.i.i ]
  %4 = load atomic i64, ptr %state_.i.i.i.i.i monotonic, align 128
  %success.0.in.in19.i.i46.i.i.i = and i64 %4, 4294967295
  %success.0.in20.not.i.i47.i.i.i = icmp eq i64 %success.0.in.in19.i.i46.i.i.i, 0
  br i1 %success.0.in20.not.i.i47.i.i.i, label %if.end20.i.i.i, label %while.body.i.i48.i.i.i

while.body.i.i48.i.i.i:                           ; preds = %while.cond.i.i.i, %_ZN5folly16ThrottledLifoSem8casStateERmm.exit.i.i51.i.i.i
  %oldState.021.i.i49.i.i.i = phi i64 [ %7, %_ZN5folly16ThrottledLifoSem8casStateERmm.exit.i.i51.i.i.i ], [ %4, %while.cond.i.i.i ]
  %sub.i.i50.i.i.i = add i64 %oldState.021.i.i49.i.i.i, -1
  %5 = cmpxchg weak ptr %state_.i.i.i.i.i, i64 %oldState.021.i.i49.i.i.i, i64 %sub.i.i50.i.i.i seq_cst monotonic, align 8
  %6 = extractvalue { i64, i1 } %5, 1
  br i1 %6, label %_ZN5folly16ThrottledLifoSem4waitERKNS_11WaitOptionsE.exit, label %_ZN5folly16ThrottledLifoSem8casStateERmm.exit.i.i51.i.i.i

_ZN5folly16ThrottledLifoSem8casStateERmm.exit.i.i51.i.i.i: ; preds = %while.body.i.i48.i.i.i
  %7 = extractvalue { i64, i1 } %5, 0
  %success.0.in.in.i.i52.i.i.i = and i64 %7, 4294967295
  %success.0.in.not.i.i53.i.i.i = icmp eq i64 %success.0.in.in.i.i52.i.i.i, 0
  br i1 %success.0.in.not.i.i53.i.i.i, label %if.end20.i.i.loopexit.i, label %while.body.i.i48.i.i.i

if.end20.i.i.loopexit.i:                          ; preds = %_ZN5folly16ThrottledLifoSem8casStateERmm.exit.i.i51.i.i.i
  %retval.sroa.0.0.copyload.i5.i.i.i.i.pre.i = load i64, ptr %deadline.i, align 8, !tbaa.struct !296
  br label %if.end20.i.i.i

if.end20.i.i.i:                                   ; preds = %if.end20.i.i.loopexit.i, %while.cond.i.i.i
  %retval.sroa.0.0.copyload.i5.i.i.i.i.i = phi i64 [ %retval.sroa.0.0.copyload.i5.i.i.i.i.pre.i, %if.end20.i.i.loopexit.i ], [ %retval.sroa.0.0.copyload.i5.i.i.i.i9.i, %while.cond.i.i.i ]
  %call21.i.i.i = tail call i64 @_ZNSt6chrono3_V212steady_clock3nowEv() #32
  %cmp.i.i.i.not.i.i.i = icmp slt i64 %call21.i.i.i, %retval.sroa.0.0.copyload.i5.i.i.i.i.i
  br i1 %cmp.i.i.i.not.i.i.i, label %if.end26.i.i.i, label %_ZN5folly16ThrottledLifoSem4waitERKNS_11WaitOptionsE.exit

if.end26.i.i.i:                                   ; preds = %if.end20.i.i.i
  %.sroa.speculated.i.i.i = tail call i64 @llvm.smin.i64(i64 %call21.i.i.i, i64 %tbegin.sroa.0.0.i.i.i)
  %add.i.i.i.i.i = add nsw i64 %.sroa.speculated.i.i.i, 2000
  %cmp.i.i.i63.not.i.i.i = icmp slt i64 %call21.i.i.i, %add.i.i.i.i.i
  br i1 %cmp.i.i.i63.not.i.i.i, label %cleanup.i.i.i, label %sw.epilog.i.i

cleanup.i.i.i:                                    ; preds = %if.end26.i.i.i
  tail call void asm sideeffect "pause", "~{dirflag},~{fpsr},~{flags}"() #32, !srcloc !339
  br label %while.cond.i.i.i, !llvm.loop !340

sw.epilog.i.i:                                    ; preds = %if.end26.i.i.i
  %call3.i.i11 = call noundef zeroext i1 @_ZN5folly16ThrottledLifoSem16tryWaitUntilSlowINSt6chrono3_V212steady_clockENS2_8durationIlSt5ratioILl1ELl1000000000EEEEEEbRKNS2_10time_pointIT_T0_EE(ptr noundef nonnull align 64 dereferenceable(136) %sem_, ptr noundef nonnull align 8 dereferenceable(8) %deadline.i)
  br label %_ZN5folly16ThrottledLifoSem4waitERKNS_11WaitOptionsE.exit

_ZN5folly16ThrottledLifoSem4waitERKNS_11WaitOptionsE.exit: ; preds = %while.body.i.i.i.i.i, %if.end20.i.i.i, %while.body.i.i48.i.i.i, %sw.epilog.i.i, %if.end11.i.i.i
  call void @llvm.lifetime.end.p0(i64 8, ptr nonnull %deadline.i) #32
  %queue_ = getelementptr inbounds %"class.folly::UnboundedBlockingQueue", ptr %this, i64 0, i32 3
  %8 = call align 8 ptr @llvm.threadlocal.address.p0(ptr align 8 @_ZZN5folly20SingletonThreadLocalINS_9hazptr_tcISt6atomicEENS_17hazptr_tc_tls_tagENS_6detail11DefaultMakeIS3_EES4_E3getEvE5cache)
  %9 = load ptr, ptr %8, align 8, !tbaa !314
  %10 = icmp eq ptr %9, null
  br i1 %10, label %cond.false.i.i, label %cond.true.i.i, !prof !77

cond.true.i.i:                                    ; preds = %_ZN5folly16ThrottledLifoSem4waitERKNS_11WaitOptionsE.exit
  %sub.ptr.i.i = getelementptr inbounds i8, ptr %9, i64 -80
  br label %_ZN5folly20SingletonThreadLocalINS_9hazptr_tcISt6atomicEENS_17hazptr_tc_tls_tagENS_6detail11DefaultMakeIS3_EES4_E3getEv.exit.i

cond.false.i.i:                                   ; preds = %_ZN5folly16ThrottledLifoSem4waitERKNS_11WaitOptionsE.exit
  %call.i1718.i = invoke noundef nonnull align 8 dereferenceable(192) ptr @_ZN5folly20SingletonThreadLocalINS_9hazptr_tcISt6atomicEENS_17hazptr_tc_tls_tagENS_6detail11DefaultMakeIS3_EES4_E7getSlowERNS5_25SingletonThreadLocalState10LocalCacheE(ptr noundef nonnull align 8 dereferenceable(8) %8)
          to label %_ZN5folly20SingletonThreadLocalINS_9hazptr_tcISt6atomicEENS_17hazptr_tc_tls_tagENS_6detail11DefaultMakeIS3_EES4_E3getEv.exit.i unwind label %terminate.lpad.i

_ZN5folly20SingletonThreadLocalINS_9hazptr_tcISt6atomicEENS_17hazptr_tc_tls_tagENS_6detail11DefaultMakeIS3_EES4_E3getEv.exit.i: ; preds = %cond.false.i.i, %cond.true.i.i
  %cond-lvalue.i.i = phi ptr [ %sub.ptr.i.i, %cond.true.i.i ], [ %call.i1718.i, %cond.false.i.i ]
  %count_.i.i = getelementptr inbounds %"class.folly::hazptr_tc", ptr %cond-lvalue.i.i, i64 0, i32 1
  %11 = load i8, ptr %count_.i.i, align 8, !tbaa !319, !noalias !341
  %cmp.not.i14.i = icmp eq i8 %11, 0
  br i1 %cmp.not.i14.i, label %if.end8.i.i, label %_ZN5folly9hazptr_tcISt6atomicE7try_getEv.exit.i, !prof !77

_ZN5folly9hazptr_tcISt6atomicE7try_getEv.exit.i:  ; preds = %_ZN5folly20SingletonThreadLocalINS_9hazptr_tcISt6atomicEENS_17hazptr_tc_tls_tagENS_6detail11DefaultMakeIS3_EES4_E3getEv.exit.i
  %dec.i.i = add i8 %11, -1
  store i8 %dec.i.i, ptr %count_.i.i, align 8, !tbaa !319, !noalias !341
  %idxprom.i.i = zext i8 %dec.i.i to i64
  %arrayidx.i.i = getelementptr inbounds [9 x %"class.folly::hazptr_tc_entry"], ptr %cond-lvalue.i.i, i64 0, i64 %idxprom.i.i
  %12 = load ptr, ptr %arrayidx.i.i, align 8, !tbaa !321, !noalias !341
  %cmp3.not.i.i.not = icmp eq ptr %12, null
  br i1 %cmp3.not.i.i.not, label %if.end8.i.i, label %_ZN5folly19make_hazard_pointerISt6atomicEENS_13hazptr_holderIT_EERNS_13hazptr_domainIS3_EE.exit.i

if.end8.i.i:                                      ; preds = %_ZN5folly9hazptr_tcISt6atomicE7try_getEv.exit.i, %_ZN5folly20SingletonThreadLocalINS_9hazptr_tcISt6atomicEENS_17hazptr_tc_tls_tagENS_6detail11DefaultMakeIS3_EES4_E3getEv.exit.i
  %call10.i7.i = invoke noundef ptr @_ZN5folly13hazptr_domainISt6atomicE14acquire_hprecsEh(ptr noundef nonnull align 8 dereferenceable(444) @_ZN5folly14default_domainE, i8 noundef zeroext 1)
          to label %_ZN5folly19make_hazard_pointerISt6atomicEENS_13hazptr_holderIT_EERNS_13hazptr_domainIS3_EE.exit.i unwind label %terminate.lpad.i

_ZN5folly19make_hazard_pointerISt6atomicEENS_13hazptr_holderIT_EERNS_13hazptr_domainIS3_EE.exit.i: ; preds = %if.end8.i.i, %_ZN5folly9hazptr_tcISt6atomicE7try_getEv.exit.i
  %hptr.i.sroa.0.1 = phi ptr [ %12, %_ZN5folly9hazptr_tcISt6atomicE7try_getEv.exit.i ], [ %call10.i7.i, %if.end8.i.i ]
  %13 = load atomic i64, ptr %queue_ monotonic, align 128
  %atomic-temp.0.i.i = inttoptr i64 %13 to ptr
  store atomic i64 %13, ptr %hptr.i.sroa.0.1 release, align 8
  call void asm sideeffect "", "~{memory},~{dirflag},~{fpsr},~{flags}"() #32, !srcloc !323
  %14 = load atomic i64, ptr %queue_ acquire, align 128
  %atomic-temp.0.i.i1231 = inttoptr i64 %14 to ptr
  %cmp.not.i29.i32 = icmp eq ptr %atomic-temp.0.i.i, %atomic-temp.0.i.i1231
  br i1 %cmp.not.i29.i32, label %_ZN5folly13hazptr_holderISt6atomicE7protectINS_14UnboundedQueueINS_23MuxIOThreadPoolExecutor11HandlerTaskELb0ELb0ELb0ELm6ELm7ES1_E7SegmentEZNS2_7protectIS8_EEPT_RKS1_ISB_EEUlPS8_E_EESB_SE_T0_.exit.i, label %_ZN5folly13hazptr_holderISt6atomicE11try_protectINS_14UnboundedQueueINS_23MuxIOThreadPoolExecutor11HandlerTaskELb0ELb0ELb0ELm6ELm7ES1_E7SegmentEZNS2_7protectIS8_EEPT_RKS1_ISB_EEUlPS8_E_EEbRSB_SE_T0_.exit.i, !prof !324

_ZN5folly13hazptr_holderISt6atomicE11try_protectINS_14UnboundedQueueINS_23MuxIOThreadPoolExecutor11HandlerTaskELb0ELb0ELb0ELm6ELm7ES1_E7SegmentEZNS2_7protectIS8_EEPT_RKS1_ISB_EEUlPS8_E_EEbRSB_SE_T0_.exit.i: ; preds = %_ZN5folly19make_hazard_pointerISt6atomicEENS_13hazptr_holderIT_EERNS_13hazptr_domainIS3_EE.exit.i, %_ZN5folly13hazptr_holderISt6atomicE11try_protectINS_14UnboundedQueueINS_23MuxIOThreadPoolExecutor11HandlerTaskELb0ELb0ELb0ELm6ELm7ES1_E7SegmentEZNS2_7protectIS8_EEPT_RKS1_ISB_EEUlPS8_E_EEbRSB_SE_T0_.exit.i
  %atomic-temp.0.i.i1233 = phi ptr [ %atomic-temp.0.i.i12, %_ZN5folly13hazptr_holderISt6atomicE11try_protectINS_14UnboundedQueueINS_23MuxIOThreadPoolExecutor11HandlerTaskELb0ELb0ELb0ELm6ELm7ES1_E7SegmentEZNS2_7protectIS8_EEPT_RKS1_ISB_EEUlPS8_E_EEbRSB_SE_T0_.exit.i ], [ %atomic-temp.0.i.i1231, %_ZN5folly19make_hazard_pointerISt6atomicEENS_13hazptr_holderIT_EERNS_13hazptr_domainIS3_EE.exit.i ]
  store atomic i64 0, ptr %hptr.i.sroa.0.1 release, align 8
  %15 = ptrtoint ptr %atomic-temp.0.i.i1233 to i64
  store atomic i64 %15, ptr %hptr.i.sroa.0.1 release, align 8
  call void asm sideeffect "", "~{memory},~{dirflag},~{fpsr},~{flags}"() #32, !srcloc !323
  %16 = load atomic i64, ptr %queue_ acquire, align 128
  %atomic-temp.0.i.i12 = inttoptr i64 %16 to ptr
  %cmp.not.i29.i = icmp eq ptr %atomic-temp.0.i.i1233, %atomic-temp.0.i.i12
  br i1 %cmp.not.i29.i, label %_ZN5folly13hazptr_holderISt6atomicE7protectINS_14UnboundedQueueINS_23MuxIOThreadPoolExecutor11HandlerTaskELb0ELb0ELb0ELm6ELm7ES1_E7SegmentEZNS2_7protectIS8_EEPT_RKS1_ISB_EEUlPS8_E_EESB_SE_T0_.exit.i, label %_ZN5folly13hazptr_holderISt6atomicE11try_protectINS_14UnboundedQueueINS_23MuxIOThreadPoolExecutor11HandlerTaskELb0ELb0ELb0ELm6ELm7ES1_E7SegmentEZNS2_7protectIS8_EEPT_RKS1_ISB_EEUlPS8_E_EEbRSB_SE_T0_.exit.i, !prof !325

_ZN5folly13hazptr_holderISt6atomicE7protectINS_14UnboundedQueueINS_23MuxIOThreadPoolExecutor11HandlerTaskELb0ELb0ELb0ELm6ELm7ES1_E7SegmentEZNS2_7protectIS8_EEPT_RKS1_ISB_EEUlPS8_E_EESB_SE_T0_.exit.i: ; preds = %_ZN5folly13hazptr_holderISt6atomicE11try_protectINS_14UnboundedQueueINS_23MuxIOThreadPoolExecutor11HandlerTaskELb0ELb0ELb0ELm6ELm7ES1_E7SegmentEZNS2_7protectIS8_EEPT_RKS1_ISB_EEUlPS8_E_EEbRSB_SE_T0_.exit.i, %_ZN5folly19make_hazard_pointerISt6atomicEENS_13hazptr_holderIT_EERNS_13hazptr_domainIS3_EE.exit.i
  %atomic-temp.0.i.i12.lcssa = phi ptr [ %atomic-temp.0.i.i, %_ZN5folly19make_hazard_pointerISt6atomicEENS_13hazptr_holderIT_EERNS_13hazptr_domainIS3_EE.exit.i ], [ %atomic-temp.0.i.i1233, %_ZN5folly13hazptr_holderISt6atomicE11try_protectINS_14UnboundedQueueINS_23MuxIOThreadPoolExecutor11HandlerTaskELb0ELb0ELb0ELm6ELm7ES1_E7SegmentEZNS2_7protectIS8_EEPT_RKS1_ISB_EEUlPS8_E_EEbRSB_SE_T0_.exit.i ]
  %ticket.i = getelementptr inbounds %"class.folly::UnboundedBlockingQueue", ptr %this, i64 0, i32 3, i32 0, i32 1
  %17 = atomicrmw add ptr %ticket.i, i64 1 acq_rel, align 8
  %min_14.i.i.i35 = getelementptr inbounds %"class.folly::UnboundedQueue<folly::MuxIOThreadPoolExecutor::HandlerTask, false, false, false, 6>::Segment", ptr %atomic-temp.0.i.i12.lcssa, i64 0, i32 2
  %18 = load i64, ptr %min_14.i.i.i35, align 8, !tbaa !326
  %add.i.i36 = add i64 %18, 64
  %cmp.not.i.i437 = icmp ugt i64 %add.i.i36, %17
  br i1 %cmp.not.i.i437, label %_ZN5folly14UnboundedQueueINS_23MuxIOThreadPoolExecutor11HandlerTaskELb0ELb0ELb0ELm6ELm7ESt6atomicE11findSegmentEPNS4_7SegmentEm.exit.i, label %while.body.i.i, !prof !324

while.body.i.i:                                   ; preds = %_ZN5folly13hazptr_holderISt6atomicE7protectINS_14UnboundedQueueINS_23MuxIOThreadPoolExecutor11HandlerTaskELb0ELb0ELb0ELm6ELm7ES1_E7SegmentEZNS2_7protectIS8_EEPT_RKS1_ISB_EEUlPS8_E_EESB_SE_T0_.exit.i, %while.body.i.i
  %s.addr.0.i.i38 = phi ptr [ %call2.i.i, %while.body.i.i ], [ %atomic-temp.0.i.i12.lcssa, %_ZN5folly13hazptr_holderISt6atomicE7protectINS_14UnboundedQueueINS_23MuxIOThreadPoolExecutor11HandlerTaskELb0ELb0ELb0ELm6ELm7ES1_E7SegmentEZNS2_7protectIS8_EEPT_RKS1_ISB_EEUlPS8_E_EESB_SE_T0_.exit.i ]
  %call2.i.i = call noundef ptr @_ZN5folly14UnboundedQueueINS_23MuxIOThreadPoolExecutor11HandlerTaskELb0ELb0ELb0ELm6ELm7ESt6atomicE19getAllocNextSegmentEPNS4_7SegmentEm(ptr noundef nonnull align 128 dereferenceable(144) %queue_, ptr noundef nonnull %s.addr.0.i.i38, i64 noundef %17) #32
  %min_14.i.i.i = getelementptr inbounds %"class.folly::UnboundedQueue<folly::MuxIOThreadPoolExecutor::HandlerTask, false, false, false, 6>::Segment", ptr %call2.i.i, i64 0, i32 2
  %19 = load i64, ptr %min_14.i.i.i, align 8, !tbaa !326
  %add.i.i = add i64 %19, 64
  %cmp.not.i.i4 = icmp ugt i64 %add.i.i, %17
  br i1 %cmp.not.i.i4, label %_ZN5folly14UnboundedQueueINS_23MuxIOThreadPoolExecutor11HandlerTaskELb0ELb0ELb0ELm6ELm7ESt6atomicE11findSegmentEPNS4_7SegmentEm.exit.i, label %while.body.i.i, !prof !325, !llvm.loop !344

_ZN5folly14UnboundedQueueINS_23MuxIOThreadPoolExecutor11HandlerTaskELb0ELb0ELb0ELm6ELm7ESt6atomicE11findSegmentEPNS4_7SegmentEm.exit.i: ; preds = %while.body.i.i, %_ZN5folly13hazptr_holderISt6atomicE7protectINS_14UnboundedQueueINS_23MuxIOThreadPoolExecutor11HandlerTaskELb0ELb0ELb0ELm6ELm7ES1_E7SegmentEZNS2_7protectIS8_EEPT_RKS1_ISB_EEUlPS8_E_EESB_SE_T0_.exit.i
  %s.addr.0.i.i.lcssa34 = phi ptr [ %atomic-temp.0.i.i12.lcssa, %_ZN5folly13hazptr_holderISt6atomicE7protectINS_14UnboundedQueueINS_23MuxIOThreadPoolExecutor11HandlerTaskELb0ELb0ELb0ELm6ELm7ES1_E7SegmentEZNS2_7protectIS8_EEPT_RKS1_ISB_EEUlPS8_E_EESB_SE_T0_.exit.i ], [ %call2.i.i, %while.body.i.i ]
  %min_14.i.i.i.le = getelementptr inbounds %"class.folly::UnboundedQueue<folly::MuxIOThreadPoolExecutor::HandlerTask, false, false, false, 6>::Segment", ptr %s.addr.0.i.i.lcssa34, i64 0, i32 2
  %mul.i.i = mul i64 %17, 27
  %and.i.i = and i64 %mul.i.i, 63
  %arrayidx.i.i5 = getelementptr inbounds %"class.folly::UnboundedQueue<folly::MuxIOThreadPoolExecutor::HandlerTask, false, false, false, 6>::Segment", ptr %s.addr.0.i.i.lcssa34, i64 0, i32 4, i64 %and.i.i
  call void @llvm.lifetime.start.p0(i64 16, ptr nonnull %ref.tmp.i) #32
  store i64 2000, ptr %ref.tmp.i, align 8
  %20 = getelementptr inbounds { i64, i8 }, ptr %ref.tmp.i, i64 0, i32 1
  store i8 1, ptr %20, align 8
  call void @llvm.lifetime.start.p0(i64 8, ptr nonnull %ref.tmp.i7) #32
  store i64 9223372036854775807, ptr %ref.tmp.i7, align 8
  %21 = load atomic i32, ptr %arrayidx.i.i5 acquire, align 4
  %cmp.i = icmp eq i32 %21, 1
  br i1 %cmp.i, label %_ZN5folly19SaturatingSemaphoreILb0ESt6atomicE14try_wait_untilINSt6chrono3_V212steady_clockENS4_8durationIlSt5ratioILl1ELl1000000000EEEEEEbRKNS4_10time_pointIT_T0_EERKNS_11WaitOptionsE.exit, label %if.end.i, !prof !220

if.end.i:                                         ; preds = %_ZN5folly14UnboundedQueueINS_23MuxIOThreadPoolExecutor11HandlerTaskELb0ELb0ELb0ELm6ELm7ESt6atomicE11findSegmentEPNS4_7SegmentEm.exit.i
  %call2.i = call noundef zeroext i1 @_ZN5folly19SaturatingSemaphoreILb0ESt6atomicE11tryWaitSlowINSt6chrono3_V212steady_clockENS4_8durationIlSt5ratioILl1ELl1000000000EEEEEEbRKNS4_10time_pointIT_T0_EERKNS_11WaitOptionsE(ptr noundef nonnull align 4 dereferenceable(4) %arrayidx.i.i5, ptr noundef nonnull align 8 dereferenceable(8) %ref.tmp.i7, ptr noundef nonnull align 8 dereferenceable(9) %ref.tmp.i) #32
  br label %_ZN5folly19SaturatingSemaphoreILb0ESt6atomicE14try_wait_untilINSt6chrono3_V212steady_clockENS4_8durationIlSt5ratioILl1ELl1000000000EEEEEEbRKNS4_10time_pointIT_T0_EERKNS_11WaitOptionsE.exit

_ZN5folly19SaturatingSemaphoreILb0ESt6atomicE14try_wait_untilINSt6chrono3_V212steady_clockENS4_8durationIlSt5ratioILl1ELl1000000000EEEEEEbRKNS4_10time_pointIT_T0_EERKNS_11WaitOptionsE.exit: ; preds = %if.end.i, %_ZN5folly14UnboundedQueueINS_23MuxIOThreadPoolExecutor11HandlerTaskELb0ELb0ELb0ELm6ELm7ESt6atomicE11findSegmentEPNS4_7SegmentEm.exit.i
  call void @llvm.lifetime.end.p0(i64 8, ptr nonnull %ref.tmp.i7) #32
  call void @llvm.lifetime.end.p0(i64 16, ptr nonnull %ref.tmp.i) #32
  %item_.i2.i = getelementptr inbounds %"class.folly::UnboundedQueue<folly::MuxIOThreadPoolExecutor::HandlerTask, false, false, false, 6>::Segment", ptr %s.addr.0.i.i.lcssa34, i64 0, i32 4, i64 %and.i.i, i32 2
  %retval.sroa.0.0.copyload.i = load ptr, ptr %item_.i2.i, align 8, !tbaa.struct !171
  %and.i12.i = and i64 %17, 63
  %cmp.i.i6 = icmp eq i64 %and.i12.i, 63
  br i1 %cmp.i.i6, label %if.then.i, label %if.then.i.i

if.then.i:                                        ; preds = %_ZN5folly19SaturatingSemaphoreILb0ESt6atomicE14try_wait_untilINSt6chrono3_V212steady_clockENS4_8durationIlSt5ratioILl1ELl1000000000EEEEEEbRKNS4_10time_pointIT_T0_EERKNS_11WaitOptionsE.exit
  %22 = load i64, ptr %min_14.i.i.i.le, align 8, !tbaa !326
  %add.i = add i64 %22, 64
  call void @_ZN5folly14UnboundedQueueINS_23MuxIOThreadPoolExecutor11HandlerTaskELb0ELb0ELb0ELm6ELm7ESt6atomicE19advanceHeadToTicketEm(ptr noundef nonnull align 128 dereferenceable(144) %queue_, i64 noundef %add.i) #32
  br label %if.then.i.i

if.then.i.i:                                      ; preds = %if.then.i, %_ZN5folly19SaturatingSemaphoreILb0ESt6atomicE14try_wait_untilINSt6chrono3_V212steady_clockENS4_8durationIlSt5ratioILl1ELl1000000000EEEEEEbRKNS4_10time_pointIT_T0_EERKNS_11WaitOptionsE.exit
  store atomic i64 0, ptr %hptr.i.sroa.0.1 release, align 8
  %domain_.i.i = getelementptr inbounds %"class.folly::hazptr_rec", ptr %hptr.i.sroa.0.1, i64 0, i32 1
  %23 = load ptr, ptr %domain_.i.i, align 8, !tbaa !333
  %cmp6.i.i = icmp eq ptr %23, @_ZN5folly14default_domainE
  br i1 %cmp6.i.i, label %if.then10.i.i, label %if.end19.i.i, !prof !220

if.then10.i.i:                                    ; preds = %if.then.i.i
  %24 = load ptr, ptr %8, align 8, !tbaa !314
  %25 = icmp eq ptr %24, null
  br i1 %25, label %cond.false.i23.i, label %cond.true.i19.i, !prof !77

cond.true.i19.i:                                  ; preds = %if.then10.i.i
  %sub.ptr.i20.i = getelementptr inbounds i8, ptr %24, i64 -80
  br label %_ZN5folly20SingletonThreadLocalINS_9hazptr_tcISt6atomicEENS_17hazptr_tc_tls_tagENS_6detail11DefaultMakeIS3_EES4_E3getEv.exit26.i

cond.false.i23.i:                                 ; preds = %if.then10.i.i
  %call.i2425.i = invoke noundef nonnull align 8 dereferenceable(192) ptr @_ZN5folly20SingletonThreadLocalINS_9hazptr_tcISt6atomicEENS_17hazptr_tc_tls_tagENS_6detail11DefaultMakeIS3_EES4_E7getSlowERNS5_25SingletonThreadLocalState10LocalCacheE(ptr noundef nonnull align 8 dereferenceable(8) %8)
          to label %_ZN5folly20SingletonThreadLocalINS_9hazptr_tcISt6atomicEENS_17hazptr_tc_tls_tagENS_6detail11DefaultMakeIS3_EES4_E3getEv.exit26.i unwind label %terminate.lpad.i.i

_ZN5folly20SingletonThreadLocalINS_9hazptr_tcISt6atomicEENS_17hazptr_tc_tls_tagENS_6detail11DefaultMakeIS3_EES4_E3getEv.exit26.i: ; preds = %cond.false.i23.i, %cond.true.i19.i
  %cond-lvalue.i21.i = phi ptr [ %sub.ptr.i20.i, %cond.true.i19.i ], [ %call.i2425.i, %cond.false.i23.i ]
  %count_.i32.i = getelementptr inbounds %"class.folly::hazptr_tc", ptr %cond-lvalue.i21.i, i64 0, i32 1
  %26 = load i8, ptr %count_.i32.i, align 8, !tbaa !319
  %cmp.i.i = icmp ult i8 %26, 9
  br i1 %cmp.i.i, label %_ZN5folly9hazptr_tcISt6atomicE7try_putEPNS_10hazptr_recIS1_EE.exit.i.thread, label %if.end19.i.i, !prof !220

_ZN5folly9hazptr_tcISt6atomicE7try_putEPNS_10hazptr_recIS1_EE.exit.i.thread: ; preds = %_ZN5folly20SingletonThreadLocalINS_9hazptr_tcISt6atomicEENS_17hazptr_tc_tls_tagENS_6detail11DefaultMakeIS3_EES4_E3getEv.exit26.i
  %inc.i.i = add nuw nsw i8 %26, 1
  store i8 %inc.i.i, ptr %count_.i32.i, align 8, !tbaa !319
  %idxprom.i35.i = zext nneg i8 %26 to i64
  %arrayidx.i36.i = getelementptr inbounds [9 x %"class.folly::hazptr_tc_entry"], ptr %cond-lvalue.i21.i, i64 0, i64 %idxprom.i35.i
  store ptr %hptr.i.sroa.0.1, ptr %arrayidx.i36.i, align 8, !tbaa !321
  br label %_ZN5folly14UnboundedQueueINS_23MuxIOThreadPoolExecutor11HandlerTaskELb0ELb0ELb0ELm6ELm7ESt6atomicE11dequeueImplEv.exit

if.end19.i.i:                                     ; preds = %_ZN5folly20SingletonThreadLocalINS_9hazptr_tcISt6atomicEENS_17hazptr_tc_tls_tagENS_6detail11DefaultMakeIS3_EES4_E3getEv.exit26.i, %if.then.i.i
  %27 = ptrtoint ptr %hptr.i.sroa.0.1 to i64
  %avail_.i.i.i = getelementptr inbounds %"class.folly::hazptr_domain", ptr %23, i64 0, i32 1
  %nextAvail_.i.i.i = getelementptr inbounds %"class.folly::hazptr_rec", ptr %hptr.i.sroa.0.1, i64 0, i32 3
  br label %while.cond96.i.i

while.cond96.i.i:                                 ; preds = %while.cond96.i.i.backedge, %if.end19.i.i
  %28 = load atomic i64, ptr %avail_.i.i.i acquire, align 8
  %and99.i.i = and i64 %28, 1
  %cmp100.i.i = icmp eq i64 %and99.i.i, 0
  br i1 %cmp100.i.i, label %if.then.i.i14, label %if.else.i.i

if.then.i.i14:                                    ; preds = %while.cond96.i.i
  %29 = inttoptr i64 %28 to ptr
  store ptr %29, ptr %nextAvail_.i.i.i, align 8, !tbaa !337
  %30 = cmpxchg weak ptr %avail_.i.i.i, i64 %28, i64 %27 acq_rel acquire, align 8
  %31 = extractvalue { i64, i1 } %30, 1
  br i1 %31, label %_ZN5folly14UnboundedQueueINS_23MuxIOThreadPoolExecutor11HandlerTaskELb0ELb0ELb0ELm6ELm7ESt6atomicE11dequeueImplEv.exit, label %while.cond96.i.i.backedge

if.else.i.i:                                      ; preds = %while.cond96.i.i
  %call.i.i.i.i = call noundef i32 @sched_yield() #32
  br label %while.cond96.i.i.backedge

while.cond96.i.i.backedge:                        ; preds = %if.else.i.i, %if.then.i.i14
  br label %while.cond96.i.i

terminate.lpad.i.i:                               ; preds = %cond.false.i23.i
  %32 = landingpad { ptr, i32 }
          catch ptr null
  %33 = extractvalue { ptr, i32 } %32, 0
  call void @__clang_call_terminate(ptr %33) #39
  unreachable

terminate.lpad.i:                                 ; preds = %if.end8.i.i, %cond.false.i.i
  %34 = landingpad { ptr, i32 }
          catch ptr null
  %35 = extractvalue { ptr, i32 } %34, 0
  call void @__clang_call_terminate(ptr %35) #39
  unreachable

_ZN5folly14UnboundedQueueINS_23MuxIOThreadPoolExecutor11HandlerTaskELb0ELb0ELb0ELm6ELm7ESt6atomicE11dequeueImplEv.exit: ; preds = %if.then.i.i14, %_ZN5folly9hazptr_tcISt6atomicE7try_putEPNS_10hazptr_recIS1_EE.exit.i.thread
  ret ptr %retval.sroa.0.0.copyload.i
}

; Function Attrs: mustprogress uwtable
define linkonce_odr void @_ZN5folly22UnboundedBlockingQueueINS_23MuxIOThreadPoolExecutor11HandlerTaskENS_16ThrottledLifoSemEE12try_take_forENSt6chrono8durationIlSt5ratioILl1ELl1000EEEE(ptr noalias sret(%"class.folly::Optional") align 8 %agg.result, ptr noundef nonnull align 128 dereferenceable(512) %this, i64 %time.coerce) unnamed_addr #2 comdat align 2 personality ptr @__gxx_personality_v0 {
entry:
  %ref.tmp.i9 = alloca %"class.std::chrono::time_point", align 8
  %ref.tmp.i = alloca %"class.folly::WaitOptions", align 8
  %time = alloca %"class.std::chrono::duration", align 8
  %ref.tmp = alloca %"class.folly::WaitOptions", align 8
  store i64 %time.coerce, ptr %time, align 8
  %sem_ = getelementptr inbounds %"class.folly::UnboundedBlockingQueue", ptr %this, i64 0, i32 2
  call void @llvm.lifetime.start.p0(i64 16, ptr nonnull %ref.tmp) #32
  %0 = getelementptr inbounds i8, ptr %ref.tmp, i64 8
  store i64 1, ptr %0, align 8
  store i64 2000, ptr %ref.tmp, align 8, !tbaa !75
  %call = call noundef zeroext i1 @_ZN5folly16ThrottledLifoSem12try_wait_forIlSt5ratioILl1ELl1000EEEEbRKNSt6chrono8durationIT_T0_EERKNS_11WaitOptionsE(ptr noundef nonnull align 64 dereferenceable(136) %sem_, ptr noundef nonnull align 8 dereferenceable(8) %time, ptr noundef nonnull align 8 dereferenceable(9) %ref.tmp)
  call void @llvm.lifetime.end.p0(i64 16, ptr nonnull %ref.tmp) #32
  br i1 %call, label %if.end, label %if.then

if.then:                                          ; preds = %entry
  store i8 0, ptr %agg.result, align 8, !tbaa !53
  %hasValue.i.i = getelementptr inbounds %"struct.folly::Optional<folly::MuxIOThreadPoolExecutor::HandlerTask>::StorageTriviallyDestructible", ptr %agg.result, i64 0, i32 1
  store i8 0, ptr %hasValue.i.i, align 8, !tbaa !345
  br label %return

if.end:                                           ; preds = %entry
  %queue_ = getelementptr inbounds %"class.folly::UnboundedBlockingQueue", ptr %this, i64 0, i32 3
  %1 = call align 8 ptr @llvm.threadlocal.address.p0(ptr align 8 @_ZZN5folly20SingletonThreadLocalINS_9hazptr_tcISt6atomicEENS_17hazptr_tc_tls_tagENS_6detail11DefaultMakeIS3_EES4_E3getEvE5cache)
  %2 = load ptr, ptr %1, align 8, !tbaa !314
  %3 = icmp eq ptr %2, null
  br i1 %3, label %cond.false.i.i, label %cond.true.i.i, !prof !77

cond.true.i.i:                                    ; preds = %if.end
  %sub.ptr.i.i = getelementptr inbounds i8, ptr %2, i64 -80
  br label %_ZN5folly20SingletonThreadLocalINS_9hazptr_tcISt6atomicEENS_17hazptr_tc_tls_tagENS_6detail11DefaultMakeIS3_EES4_E3getEv.exit.i

cond.false.i.i:                                   ; preds = %if.end
  %call.i1718.i = invoke noundef nonnull align 8 dereferenceable(192) ptr @_ZN5folly20SingletonThreadLocalINS_9hazptr_tcISt6atomicEENS_17hazptr_tc_tls_tagENS_6detail11DefaultMakeIS3_EES4_E7getSlowERNS5_25SingletonThreadLocalState10LocalCacheE(ptr noundef nonnull align 8 dereferenceable(8) %1)
          to label %_ZN5folly20SingletonThreadLocalINS_9hazptr_tcISt6atomicEENS_17hazptr_tc_tls_tagENS_6detail11DefaultMakeIS3_EES4_E3getEv.exit.i unwind label %terminate.lpad.i

_ZN5folly20SingletonThreadLocalINS_9hazptr_tcISt6atomicEENS_17hazptr_tc_tls_tagENS_6detail11DefaultMakeIS3_EES4_E3getEv.exit.i: ; preds = %cond.false.i.i, %cond.true.i.i
  %cond-lvalue.i.i = phi ptr [ %sub.ptr.i.i, %cond.true.i.i ], [ %call.i1718.i, %cond.false.i.i ]
  %count_.i.i = getelementptr inbounds %"class.folly::hazptr_tc", ptr %cond-lvalue.i.i, i64 0, i32 1
  %4 = load i8, ptr %count_.i.i, align 8, !tbaa !319, !noalias !347
  %cmp.not.i14.i = icmp eq i8 %4, 0
  br i1 %cmp.not.i14.i, label %if.end8.i.i, label %_ZN5folly9hazptr_tcISt6atomicE7try_getEv.exit.i, !prof !77

_ZN5folly9hazptr_tcISt6atomicE7try_getEv.exit.i:  ; preds = %_ZN5folly20SingletonThreadLocalINS_9hazptr_tcISt6atomicEENS_17hazptr_tc_tls_tagENS_6detail11DefaultMakeIS3_EES4_E3getEv.exit.i
  %dec.i.i = add i8 %4, -1
  store i8 %dec.i.i, ptr %count_.i.i, align 8, !tbaa !319, !noalias !347
  %idxprom.i.i = zext i8 %dec.i.i to i64
  %arrayidx.i.i = getelementptr inbounds [9 x %"class.folly::hazptr_tc_entry"], ptr %cond-lvalue.i.i, i64 0, i64 %idxprom.i.i
  %5 = load ptr, ptr %arrayidx.i.i, align 8, !tbaa !321, !noalias !347
  %cmp3.not.i.i.not = icmp eq ptr %5, null
  br i1 %cmp3.not.i.i.not, label %if.end8.i.i, label %_ZN5folly19make_hazard_pointerISt6atomicEENS_13hazptr_holderIT_EERNS_13hazptr_domainIS3_EE.exit.i

if.end8.i.i:                                      ; preds = %_ZN5folly9hazptr_tcISt6atomicE7try_getEv.exit.i, %_ZN5folly20SingletonThreadLocalINS_9hazptr_tcISt6atomicEENS_17hazptr_tc_tls_tagENS_6detail11DefaultMakeIS3_EES4_E3getEv.exit.i
  %call10.i7.i = invoke noundef ptr @_ZN5folly13hazptr_domainISt6atomicE14acquire_hprecsEh(ptr noundef nonnull align 8 dereferenceable(444) @_ZN5folly14default_domainE, i8 noundef zeroext 1)
          to label %_ZN5folly19make_hazard_pointerISt6atomicEENS_13hazptr_holderIT_EERNS_13hazptr_domainIS3_EE.exit.i unwind label %terminate.lpad.i

_ZN5folly19make_hazard_pointerISt6atomicEENS_13hazptr_holderIT_EERNS_13hazptr_domainIS3_EE.exit.i: ; preds = %if.end8.i.i, %_ZN5folly9hazptr_tcISt6atomicE7try_getEv.exit.i
  %hptr.i.sroa.0.1 = phi ptr [ %5, %_ZN5folly9hazptr_tcISt6atomicE7try_getEv.exit.i ], [ %call10.i7.i, %if.end8.i.i ]
  %6 = load atomic i64, ptr %queue_ monotonic, align 128
  %atomic-temp.0.i.i = inttoptr i64 %6 to ptr
  store atomic i64 %6, ptr %hptr.i.sroa.0.1 release, align 8
  call void asm sideeffect "", "~{memory},~{dirflag},~{fpsr},~{flags}"() #32, !srcloc !323
  %7 = load atomic i64, ptr %queue_ acquire, align 128
  %atomic-temp.0.i.i1330 = inttoptr i64 %7 to ptr
  %cmp.not.i29.i31 = icmp eq ptr %atomic-temp.0.i.i, %atomic-temp.0.i.i1330
  br i1 %cmp.not.i29.i31, label %_ZN5folly13hazptr_holderISt6atomicE7protectINS_14UnboundedQueueINS_23MuxIOThreadPoolExecutor11HandlerTaskELb0ELb0ELb0ELm6ELm7ES1_E7SegmentEZNS2_7protectIS8_EEPT_RKS1_ISB_EEUlPS8_E_EESB_SE_T0_.exit.i, label %_ZN5folly13hazptr_holderISt6atomicE11try_protectINS_14UnboundedQueueINS_23MuxIOThreadPoolExecutor11HandlerTaskELb0ELb0ELb0ELm6ELm7ES1_E7SegmentEZNS2_7protectIS8_EEPT_RKS1_ISB_EEUlPS8_E_EEbRSB_SE_T0_.exit.i, !prof !324

_ZN5folly13hazptr_holderISt6atomicE11try_protectINS_14UnboundedQueueINS_23MuxIOThreadPoolExecutor11HandlerTaskELb0ELb0ELb0ELm6ELm7ES1_E7SegmentEZNS2_7protectIS8_EEPT_RKS1_ISB_EEUlPS8_E_EEbRSB_SE_T0_.exit.i: ; preds = %_ZN5folly19make_hazard_pointerISt6atomicEENS_13hazptr_holderIT_EERNS_13hazptr_domainIS3_EE.exit.i, %_ZN5folly13hazptr_holderISt6atomicE11try_protectINS_14UnboundedQueueINS_23MuxIOThreadPoolExecutor11HandlerTaskELb0ELb0ELb0ELm6ELm7ES1_E7SegmentEZNS2_7protectIS8_EEPT_RKS1_ISB_EEUlPS8_E_EEbRSB_SE_T0_.exit.i
  %atomic-temp.0.i.i1332 = phi ptr [ %atomic-temp.0.i.i13, %_ZN5folly13hazptr_holderISt6atomicE11try_protectINS_14UnboundedQueueINS_23MuxIOThreadPoolExecutor11HandlerTaskELb0ELb0ELb0ELm6ELm7ES1_E7SegmentEZNS2_7protectIS8_EEPT_RKS1_ISB_EEUlPS8_E_EEbRSB_SE_T0_.exit.i ], [ %atomic-temp.0.i.i1330, %_ZN5folly19make_hazard_pointerISt6atomicEENS_13hazptr_holderIT_EERNS_13hazptr_domainIS3_EE.exit.i ]
  store atomic i64 0, ptr %hptr.i.sroa.0.1 release, align 8
  %8 = ptrtoint ptr %atomic-temp.0.i.i1332 to i64
  store atomic i64 %8, ptr %hptr.i.sroa.0.1 release, align 8
  call void asm sideeffect "", "~{memory},~{dirflag},~{fpsr},~{flags}"() #32, !srcloc !323
  %9 = load atomic i64, ptr %queue_ acquire, align 128
  %atomic-temp.0.i.i13 = inttoptr i64 %9 to ptr
  %cmp.not.i29.i = icmp eq ptr %atomic-temp.0.i.i1332, %atomic-temp.0.i.i13
  br i1 %cmp.not.i29.i, label %_ZN5folly13hazptr_holderISt6atomicE7protectINS_14UnboundedQueueINS_23MuxIOThreadPoolExecutor11HandlerTaskELb0ELb0ELb0ELm6ELm7ES1_E7SegmentEZNS2_7protectIS8_EEPT_RKS1_ISB_EEUlPS8_E_EESB_SE_T0_.exit.i, label %_ZN5folly13hazptr_holderISt6atomicE11try_protectINS_14UnboundedQueueINS_23MuxIOThreadPoolExecutor11HandlerTaskELb0ELb0ELb0ELm6ELm7ES1_E7SegmentEZNS2_7protectIS8_EEPT_RKS1_ISB_EEUlPS8_E_EEbRSB_SE_T0_.exit.i, !prof !325

