; ModuleID = 'bench/folly/original/TestUtil.cpp.ll'
source_filename = "bench/folly/original/TestUtil.cpp.ll"
target datalayout = "e-m:e-p270:32:32-p271:32:32-p272:64:64-i64:64-i128:128-f80:128-n8:16:32:64-S128"
target triple = "x86_64-unknown-linux-gnu"

%"class.boost::static_mutex" = type { %union.pthread_mutex_t }
%union.pthread_mutex_t = type { %struct.__pthread_mutex_s }
%struct.__pthread_mutex_s = type { i32, i32, i32, i32, i32, i16, i16, %struct.__pthread_internal_list }
%struct.__pthread_internal_list = type { ptr, ptr }
%"struct.boost::object_cache<boost::re_detail_107400::cpp_regex_traits_base<char>, boost::re_detail_107400::cpp_regex_traits_implementation<char>>::data" = type { %"class.std::__cxx11::list", %"class.std::map.88" }
%"class.std::__cxx11::list" = type { %"class.std::__cxx11::_List_base" }
%"class.std::__cxx11::_List_base" = type { %"struct.std::__cxx11::_List_base<std::pair<boost::shared_ptr<const boost::re_detail_107400::cpp_regex_traits_implementation<char>>, const boost::re_detail_107400::cpp_regex_traits_base<char> *>, std::allocator<std::pair<boost::shared_ptr<const boost::re_detail_107400::cpp_regex_traits_implementation<char>>, const boost::re_detail_107400::cpp_regex_traits_base<char> *>>>::_List_impl" }
%"struct.std::__cxx11::_List_base<std::pair<boost::shared_ptr<const boost::re_detail_107400::cpp_regex_traits_implementation<char>>, const boost::re_detail_107400::cpp_regex_traits_base<char> *>, std::allocator<std::pair<boost::shared_ptr<const boost::re_detail_107400::cpp_regex_traits_implementation<char>>, const boost::re_detail_107400::cpp_regex_traits_base<char> *>>>::_List_impl" = type { %"struct.std::__detail::_List_node_header" }
%"struct.std::__detail::_List_node_header" = type { %"struct.std::__detail::_List_node_base", i64 }
%"struct.std::__detail::_List_node_base" = type { ptr, ptr }
%"class.std::map.88" = type { %"class.std::_Rb_tree.89" }
%"class.std::_Rb_tree.89" = type { %"struct.std::_Rb_tree<boost::re_detail_107400::cpp_regex_traits_base<char>, std::pair<const boost::re_detail_107400::cpp_regex_traits_base<char>, std::_List_iterator<std::pair<boost::shared_ptr<const boost::re_detail_107400::cpp_regex_traits_implementation<char>>, const boost::re_detail_107400::cpp_regex_traits_base<char> *>>>, std::_Select1st<std::pair<const boost::re_detail_107400::cpp_regex_traits_base<char>, std::_List_iterator<std::pair<boost::shared_ptr<const boost::re_detail_107400::cpp_regex_traits_implementation<char>>, const boost::re_detail_107400::cpp_regex_traits_base<char> *>>>>, std::less<boost::re_detail_107400::cpp_regex_traits_base<char>>>::_Rb_tree_impl" }
%"struct.std::_Rb_tree<boost::re_detail_107400::cpp_regex_traits_base<char>, std::pair<const boost::re_detail_107400::cpp_regex_traits_base<char>, std::_List_iterator<std::pair<boost::shared_ptr<const boost::re_detail_107400::cpp_regex_traits_implementation<char>>, const boost::re_detail_107400::cpp_regex_traits_base<char> *>>>, std::_Select1st<std::pair<const boost::re_detail_107400::cpp_regex_traits_base<char>, std::_List_iterator<std::pair<boost::shared_ptr<const boost::re_detail_107400::cpp_regex_traits_implementation<char>>, const boost::re_detail_107400::cpp_regex_traits_base<char> *>>>>, std::less<boost::re_detail_107400::cpp_regex_traits_base<char>>>::_Rb_tree_impl" = type { %"struct.std::_Rb_tree_key_compare.93", %"struct.std::_Rb_tree_header" }
%"struct.std::_Rb_tree_key_compare.93" = type { %"struct.std::less.94" }
%"struct.std::less.94" = type { i8 }
%"struct.std::_Rb_tree_header" = type { %"struct.std::_Rb_tree_node_base", i64 }
%"struct.std::_Rb_tree_node_base" = type { i32, ptr, ptr, ptr }
%"class.std::__cxx11::basic_string" = type { %"struct.std::__cxx11::basic_string<char>::_Alloc_hider", i64, %union.anon }
%"struct.std::__cxx11::basic_string<char>::_Alloc_hider" = type { ptr }
%union.anon = type { i64, [8 x i8] }
%"struct.std::piecewise_construct_t" = type { i8 }
%"struct.boost::re_detail_107400::character_pointer_range" = type { ptr, ptr }
%"class.boost::system::error_category" = type { ptr, i64 }
%"class.boost::system::error_condition" = type { i32, i8, ptr }
%"class.boost::system::error_code" = type { i32, i8, ptr }
%"class.boost::filesystem::path" = type { %"class.std::__cxx11::basic_string" }
%"class.google::LogMessage" = type { ptr, ptr }
%"class.folly::test::TemporaryFile" = type { i32, i8, i32, %"class.boost::filesystem::path" }
%"class.std::ios_base" = type { ptr, i64, i64, i32, i32, i32, ptr, %"struct.std::ios_base::_Words", [8 x %"struct.std::ios_base::_Words"], i32, ptr, %"class.std::locale" }
%"struct.std::ios_base::_Words" = type { ptr, i64 }
%"class.std::locale" = type { ptr }
%"class.std::system_error" = type { %"class.std::runtime_error", %"class.std::error_code" }
%"class.std::runtime_error" = type { %"class.std::exception", %"struct.std::__cow_string" }
%"class.std::exception" = type { ptr }
%"struct.std::__cow_string" = type { %union.anon.0 }
%union.anon.0 = type { ptr }
%"class.std::error_code" = type { i32, ptr }
%"class.google::ErrnoLogMessage" = type { %"class.google::LogMessage" }
%"class.google::LogMessageFatal" = type { %"class.google::LogMessage" }
%"class.folly::test::TemporaryDirectory" = type { i32, %"class.std::unique_ptr.12" }
%"class.std::unique_ptr.12" = type { %"struct.std::__uniq_ptr_data.13" }
%"struct.std::__uniq_ptr_data.13" = type { %"class.std::__uniq_ptr_impl.14" }
%"class.std::__uniq_ptr_impl.14" = type { %"class.std::tuple.15" }
%"class.std::tuple.15" = type { %"struct.std::_Tuple_impl.16" }
%"struct.std::_Tuple_impl.16" = type { %"struct.std::_Head_base.19" }
%"struct.std::_Head_base.19" = type { ptr }
%"class.folly::test::ChangeToTempDir" = type { %"class.folly::test::TemporaryDirectory", %"class.boost::filesystem::path" }
%"class.boost::match_results" = type <{ %"class.std::vector", ptr, %"struct.boost::sub_match", %"class.boost::shared_ptr.27", i32, i8, [3 x i8] }>
%"class.std::vector" = type { %"struct.std::_Vector_base" }
%"struct.std::_Vector_base" = type { %"struct.std::_Vector_base<boost::sub_match<const char *>, std::allocator<boost::sub_match<const char *>>>::_Vector_impl" }
%"struct.std::_Vector_base<boost::sub_match<const char *>, std::allocator<boost::sub_match<const char *>>>::_Vector_impl" = type { %"struct.std::_Vector_base<boost::sub_match<const char *>, std::allocator<boost::sub_match<const char *>>>::_Vector_impl_data" }
%"struct.std::_Vector_base<boost::sub_match<const char *>, std::allocator<boost::sub_match<const char *>>>::_Vector_impl_data" = type { ptr, ptr, ptr }
%"struct.boost::sub_match" = type <{ %"struct.std::pair.25", i8, [7 x i8] }>
%"struct.std::pair.25" = type { ptr, ptr }
%"class.boost::shared_ptr.27" = type { ptr, %"class.boost::detail::shared_count" }
%"class.boost::detail::shared_count" = type { ptr }
%"class.boost::basic_regex" = type { %"class.boost::shared_ptr" }
%"class.boost::shared_ptr" = type { ptr, %"class.boost::detail::shared_count" }
%"class.boost::detail::sp_counted_base" = type { ptr, i32, i32 }
%"class.boost::re_detail_107400::perl_matcher" = type <{ ptr, %"class.boost::scoped_ptr", ptr, ptr, ptr, ptr, ptr, ptr, ptr, ptr, ptr, ptr, i32, [4 x i8], i64, i64, i8, i8, i8, i8, [4 x i8], ptr, %"class.boost::re_detail_107400::repeater_count", i32, i8, [3 x i8], %"class.std::vector.28", ptr, ptr, i32, i8, i8, i8, i8, i32, [4 x i8] }>
%"class.boost::scoped_ptr" = type { ptr }
%"class.boost::re_detail_107400::repeater_count" = type { ptr, ptr, i32, i64, ptr }
%"class.std::vector.28" = type { %"struct.std::_Vector_base.29" }
%"struct.std::_Vector_base.29" = type { %"struct.std::_Vector_base<boost::re_detail_107400::recursion_info<boost::match_results<const char *>>, std::allocator<boost::re_detail_107400::recursion_info<boost::match_results<const char *>>>>::_Vector_impl" }
%"struct.std::_Vector_base<boost::re_detail_107400::recursion_info<boost::match_results<const char *>>, std::allocator<boost::re_detail_107400::recursion_info<boost::match_results<const char *>>>>::_Vector_impl" = type { %"struct.std::_Vector_base<boost::re_detail_107400::recursion_info<boost::match_results<const char *>>, std::allocator<boost::re_detail_107400::recursion_info<boost::match_results<const char *>>>>::_Vector_impl_data" }
%"struct.std::_Vector_base<boost::re_detail_107400::recursion_info<boost::match_results<const char *>>, std::allocator<boost::re_detail_107400::recursion_info<boost::match_results<const char *>>>>::_Vector_impl_data" = type { ptr, ptr, ptr }
%"struct.boost::re_detail_107400::regex_data" = type <{ %"class.boost::re_detail_107400::named_subexpressions", %"class.boost::shared_ptr.39", i32, i32, ptr, i64, i64, ptr, i32, [256 x i8], i32, %"class.boost::re_detail_107400::raw_storage", i32, [4 x i8], %"class.std::vector.40", i8, i8, [6 x i8] }>
%"class.boost::re_detail_107400::named_subexpressions" = type { %"class.std::vector.34" }
%"class.std::vector.34" = type { %"struct.std::_Vector_base.35" }
%"struct.std::_Vector_base.35" = type { %"struct.std::_Vector_base<boost::re_detail_107400::named_subexpressions::name, std::allocator<boost::re_detail_107400::named_subexpressions::name>>::_Vector_impl" }
%"struct.std::_Vector_base<boost::re_detail_107400::named_subexpressions::name, std::allocator<boost::re_detail_107400::named_subexpressions::name>>::_Vector_impl" = type { %"struct.std::_Vector_base<boost::re_detail_107400::named_subexpressions::name, std::allocator<boost::re_detail_107400::named_subexpressions::name>>::_Vector_impl_data" }
%"struct.std::_Vector_base<boost::re_detail_107400::named_subexpressions::name, std::allocator<boost::re_detail_107400::named_subexpressions::name>>::_Vector_impl_data" = type { ptr, ptr, ptr }
%"class.boost::shared_ptr.39" = type { ptr, %"class.boost::detail::shared_count" }
%"class.boost::re_detail_107400::raw_storage" = type { ptr, ptr, ptr }
%"class.std::vector.40" = type { %"struct.std::_Vector_base.41" }
%"struct.std::_Vector_base.41" = type { %"struct.std::_Vector_base<std::pair<unsigned long, unsigned long>, std::allocator<std::pair<unsigned long, unsigned long>>>::_Vector_impl" }
%"struct.std::_Vector_base<std::pair<unsigned long, unsigned long>, std::allocator<std::pair<unsigned long, unsigned long>>>::_Vector_impl" = type { %"struct.std::_Vector_base<std::pair<unsigned long, unsigned long>, std::allocator<std::pair<unsigned long, unsigned long>>>::_Vector_impl_data" }
%"struct.std::_Vector_base<std::pair<unsigned long, unsigned long>, std::allocator<std::pair<unsigned long, unsigned long>>>::_Vector_impl_data" = type { ptr, ptr, ptr }
%"struct.boost::re_detail_107400::recursion_info" = type { i32, ptr, %"class.boost::match_results", ptr, ptr }
%"class.std::invalid_argument" = type { %"class.std::logic_error" }
%"class.std::logic_error" = type { %"class.std::exception", %"struct.std::__cow_string" }
%"class.boost::exception_detail::refcount_ptr" = type { ptr }
%"class.boost::exception" = type <{ ptr, %"class.boost::exception_detail::refcount_ptr", ptr, ptr, i32, [4 x i8] }>
%"struct.boost::re_detail_107400::save_state_init" = type { ptr }
%"struct.boost::re_detail_107400::saved_state" = type { %union.anon.45 }
%union.anon.45 = type { i64 }
%"struct.boost::re_detail_107400::re_brace" = type <{ %"struct.boost::re_detail_107400::re_syntax_base", i32, i8, [3 x i8] }>
%"struct.boost::re_detail_107400::re_syntax_base" = type { i32, %"union.boost::re_detail_107400::offset_type" }
%"union.boost::re_detail_107400::offset_type" = type { ptr }
%"struct.boost::re_detail_107400::re_jump" = type { %"struct.boost::re_detail_107400::re_syntax_base", %"union.boost::re_detail_107400::offset_type" }
%"struct.boost::re_detail_107400::saved_assertion" = type <{ %"struct.boost::re_detail_107400::saved_position", i8, [7 x i8] }>
%"struct.boost::re_detail_107400::saved_position" = type { %"struct.boost::re_detail_107400::saved_state", ptr, ptr }
%"struct.boost::re_detail_107400::saved_matched_paren" = type { %"struct.boost::re_detail_107400::saved_state", i32, [4 x i8], %"struct.boost::sub_match" }
%"struct.boost::re_detail_107400::saved_recursion" = type { %"struct.boost::re_detail_107400::saved_state", i32, ptr, %"class.boost::match_results", %"class.boost::match_results" }
%"struct.boost::re_detail_107400::saved_repeater" = type { %"struct.boost::re_detail_107400::saved_state", %"class.boost::re_detail_107400::repeater_count" }
%"struct.boost::re_detail_107400::re_literal" = type <{ %"struct.boost::re_detail_107400::re_syntax_base", i32, [4 x i8] }>
%"struct.boost::re_detail_107400::cpp_regex_traits_base" = type { %"class.std::locale", ptr, ptr, ptr }
%"struct.boost::re_detail_107400::re_dot" = type <{ %"struct.boost::re_detail_107400::re_syntax_base", i8, [7 x i8] }>
%"class.std::ctype" = type <{ %"class.std::locale::facet.base", [4 x i8], ptr, i8, [7 x i8], ptr, ptr, ptr, i8, [256 x i8], [256 x i8], i8, [6 x i8] }>
%"class.std::locale::facet.base" = type <{ ptr, i32 }>
%"struct.boost::re_detail_107400::named_subexpressions::name" = type { i32, i32 }
%"struct.boost::re_detail_107400::re_set" = type { %"struct.boost::re_detail_107400::re_syntax_base", [256 x i8] }
%"struct.boost::re_detail_107400::re_alt" = type <{ %"struct.boost::re_detail_107400::re_jump", [256 x i8], i32, [4 x i8] }>
%"struct.boost::re_detail_107400::re_repeat" = type <{ %"struct.boost::re_detail_107400::re_alt.base", [4 x i8], i64, i64, i32, i8, i8, [2 x i8] }>
%"struct.boost::re_detail_107400::re_alt.base" = type <{ %"struct.boost::re_detail_107400::re_jump", [256 x i8], i32 }>
%"struct.boost::re_detail_107400::saved_single_repeat" = type { %"struct.boost::re_detail_107400::saved_state", i64, ptr, ptr }
%"struct.boost::re_detail_107400::saved_change_case" = type <{ %"struct.boost::re_detail_107400::saved_state", i8, [7 x i8] }>
%"struct.boost::re_detail_107400::re_case" = type <{ %"struct.boost::re_detail_107400::re_syntax_base", i8, [7 x i8] }>
%"struct.boost::re_detail_107400::re_commit" = type <{ %"struct.boost::re_detail_107400::re_syntax_base", i32, [4 x i8] }>
%"struct.boost::re_detail_107400::re_set_long" = type <{ %"struct.boost::re_detail_107400::re_syntax_base", i32, i32, i32, i32, i32, i8, i8, [2 x i8] }>
%"class.boost::re_detail_107400::cpp_regex_traits_implementation" = type <{ %"class.boost::re_detail_107400::cpp_regex_traits_char_layer", %"class.std::map.49", %"class.std::map.57", %"class.std::map.65", i32, i8, [3 x i8] }>
%"class.boost::re_detail_107400::cpp_regex_traits_char_layer" = type { %"struct.boost::re_detail_107400::cpp_regex_traits_base", [256 x i8] }
%"class.std::map.49" = type { %"class.std::_Rb_tree.50" }
%"class.std::_Rb_tree.50" = type { %"struct.std::_Rb_tree<int, std::pair<const int, std::__cxx11::basic_string<char>>, std::_Select1st<std::pair<const int, std::__cxx11::basic_string<char>>>, std::less<int>>::_Rb_tree_impl" }
%"struct.std::_Rb_tree<int, std::pair<const int, std::__cxx11::basic_string<char>>, std::_Select1st<std::pair<const int, std::__cxx11::basic_string<char>>>, std::less<int>>::_Rb_tree_impl" = type { %"struct.std::_Rb_tree_key_compare.54", %"struct.std::_Rb_tree_header" }
%"struct.std::_Rb_tree_key_compare.54" = type { %"struct.std::less.55" }
%"struct.std::less.55" = type { i8 }
%"class.std::map.57" = type { %"class.std::_Rb_tree.58" }
%"class.std::_Rb_tree.58" = type { %"struct.std::_Rb_tree<std::__cxx11::basic_string<char>, std::pair<const std::__cxx11::basic_string<char>, unsigned int>, std::_Select1st<std::pair<const std::__cxx11::basic_string<char>, unsigned int>>, std::less<std::__cxx11::basic_string<char>>>::_Rb_tree_impl" }
%"struct.std::_Rb_tree<std::__cxx11::basic_string<char>, std::pair<const std::__cxx11::basic_string<char>, unsigned int>, std::_Select1st<std::pair<const std::__cxx11::basic_string<char>, unsigned int>>, std::less<std::__cxx11::basic_string<char>>>::_Rb_tree_impl" = type { %"struct.std::_Rb_tree_key_compare.62", %"struct.std::_Rb_tree_header" }
%"struct.std::_Rb_tree_key_compare.62" = type { %"struct.std::less.63" }
%"struct.std::less.63" = type { i8 }
%"class.std::map.65" = type { %"class.std::_Rb_tree.66" }
%"class.std::_Rb_tree.66" = type { %"struct.std::_Rb_tree<std::__cxx11::basic_string<char>, std::pair<const std::__cxx11::basic_string<char>, std::__cxx11::basic_string<char>>, std::_Select1st<std::pair<const std::__cxx11::basic_string<char>, std::__cxx11::basic_string<char>>>, std::less<std::__cxx11::basic_string<char>>>::_Rb_tree_impl" }
%"struct.std::_Rb_tree<std::__cxx11::basic_string<char>, std::pair<const std::__cxx11::basic_string<char>, std::__cxx11::basic_string<char>>, std::_Select1st<std::pair<const std::__cxx11::basic_string<char>, std::__cxx11::basic_string<char>>>, std::less<std::__cxx11::basic_string<char>>>::_Rb_tree_impl" = type { %"struct.std::_Rb_tree_key_compare.62", %"struct.std::_Rb_tree_header" }
%"struct.std::_Rb_tree_node.79" = type { %"struct.std::_Rb_tree_node_base", %"struct.__gnu_cxx::__aligned_membuf.80" }
%"struct.__gnu_cxx::__aligned_membuf.80" = type { [40 x i8] }
%"struct.boost::re_detail_107400::saved_extra_block" = type { %"struct.boost::re_detail_107400::saved_state", ptr, ptr }
%"class.boost::detail::sp_counted_impl_p.139" = type { %"class.boost::detail::sp_counted_base", ptr }
%"class.boost::re_detail_107400::basic_regex_parser" = type { %"class.boost::re_detail_107400::basic_regex_creator.base", { i64, i64 }, ptr, ptr, ptr, i32, i32, i32, i64, i64, i8, i32, %"class.std::vector.152" }
%"class.boost::re_detail_107400::basic_regex_creator.base" = type <{ ptr, ptr, ptr, i8, [3 x i8], i32, i8, [7 x i8], %"class.boost::re_detail_107400::indexed_bit_flag", i64, i8, [7 x i8], %"class.std::vector.147", i32, i32, i32, i32, i32 }>
%"class.boost::re_detail_107400::indexed_bit_flag" = type { i64, %"class.std::set" }
%"class.std::set" = type { %"class.std::_Rb_tree.140" }
%"class.std::_Rb_tree.140" = type { %"struct.std::_Rb_tree<unsigned long, unsigned long, std::_Identity<unsigned long>, std::less<unsigned long>>::_Rb_tree_impl" }
%"struct.std::_Rb_tree<unsigned long, unsigned long, std::_Identity<unsigned long>, std::less<unsigned long>>::_Rb_tree_impl" = type { %"struct.std::_Rb_tree_key_compare.144", %"struct.std::_Rb_tree_header" }
%"struct.std::_Rb_tree_key_compare.144" = type { %"struct.std::less.145" }
%"struct.std::less.145" = type { i8 }
%"class.std::vector.147" = type { %"struct.std::_Vector_base.148" }
%"struct.std::_Vector_base.148" = type { %"struct.std::_Vector_base<unsigned char, std::allocator<unsigned char>>::_Vector_impl" }
%"struct.std::_Vector_base<unsigned char, std::allocator<unsigned char>>::_Vector_impl" = type { %"struct.std::_Vector_base<unsigned char, std::allocator<unsigned char>>::_Vector_impl_data" }
%"struct.std::_Vector_base<unsigned char, std::allocator<unsigned char>>::_Vector_impl_data" = type { ptr, ptr, ptr }
%"class.std::vector.152" = type { %"struct.std::_Vector_base.153" }
%"struct.std::_Vector_base.153" = type { %"struct.std::_Vector_base<long, std::allocator<long>>::_Vector_impl" }
%"struct.std::_Vector_base<long, std::allocator<long>>::_Vector_impl" = type { %"struct.std::_Vector_base<long, std::allocator<long>>::_Vector_impl_data" }
%"struct.std::_Vector_base<long, std::allocator<long>>::_Vector_impl_data" = type { ptr, ptr, ptr }
%"class.boost::re_detail_107400::basic_regex_creator" = type <{ ptr, ptr, ptr, i8, [3 x i8], i32, i8, [7 x i8], %"class.boost::re_detail_107400::indexed_bit_flag", i64, i8, [7 x i8], %"class.std::vector.147", i32, i32, i32, i32, i32, [4 x i8] }>
%"class.boost::shared_ptr.33" = type { ptr, %"class.boost::detail::shared_count" }
%"class.boost::scoped_static_mutex_lock" = type <{ ptr, i8, [7 x i8] }>
%"struct.std::pair.99" = type { %"class.boost::shared_ptr.33", ptr }
%"struct.std::pair.104" = type { %"struct.boost::re_detail_107400::cpp_regex_traits_base", %"struct.std::_List_iterator" }
%"struct.std::_List_iterator" = type { ptr }
%"struct.std::_Rb_tree_node.106" = type { %"struct.std::_Rb_tree_node_base", %"struct.__gnu_cxx::__aligned_membuf.107" }
%"struct.__gnu_cxx::__aligned_membuf.107" = type { [40 x i8] }
%"struct.std::_List_node" = type { %"struct.std::__detail::_List_node_base", %"struct.__gnu_cxx::__aligned_membuf.110" }
%"struct.__gnu_cxx::__aligned_membuf.110" = type { [24 x i8] }
%"class.std::tuple.112" = type { %"struct.std::_Tuple_impl.113" }
%"struct.std::_Tuple_impl.113" = type { %"struct.std::_Head_base.114" }
%"struct.std::_Head_base.114" = type { ptr }
%"class.std::tuple.115" = type { i8 }
%"class.std::tuple.122" = type { %"struct.std::_Tuple_impl.123" }
%"struct.std::_Tuple_impl.123" = type { %"struct.std::_Head_base.124" }
%"struct.std::_Head_base.124" = type { ptr }
%"struct.std::_Rb_tree_node.125" = type { %"struct.std::_Rb_tree_node_base", %"struct.__gnu_cxx::__aligned_membuf.126" }
%"struct.__gnu_cxx::__aligned_membuf.126" = type { [40 x i8] }
%"struct.std::_Rb_tree<int, std::pair<const int, std::__cxx11::basic_string<char>>, std::_Select1st<std::pair<const int, std::__cxx11::basic_string<char>>>, std::less<int>>::_Auto_node" = type { ptr, ptr }
%"struct.std::_Rb_tree<std::__cxx11::basic_string<char>, std::pair<const std::__cxx11::basic_string<char>, unsigned int>, std::_Select1st<std::pair<const std::__cxx11::basic_string<char>, unsigned int>>, std::less<std::__cxx11::basic_string<char>>>::_Auto_node" = type { ptr, ptr }
%"struct.std::_Rb_tree_node.129" = type { %"struct.std::_Rb_tree_node_base", %"struct.__gnu_cxx::__aligned_membuf.130" }
%"struct.__gnu_cxx::__aligned_membuf.130" = type { [64 x i8] }
%"class.boost::detail::sp_counted_impl_p" = type { %"class.boost::detail::sp_counted_base", ptr }
%"struct.std::_Rb_tree<boost::re_detail_107400::cpp_regex_traits_base<char>, std::pair<const boost::re_detail_107400::cpp_regex_traits_base<char>, std::_List_iterator<std::pair<boost::shared_ptr<const boost::re_detail_107400::cpp_regex_traits_implementation<char>>, const boost::re_detail_107400::cpp_regex_traits_base<char> *>>>, std::_Select1st<std::pair<const boost::re_detail_107400::cpp_regex_traits_base<char>, std::_List_iterator<std::pair<boost::shared_ptr<const boost::re_detail_107400::cpp_regex_traits_implementation<char>>, const boost::re_detail_107400::cpp_regex_traits_base<char> *>>>>, std::less<boost::re_detail_107400::cpp_regex_traits_base<char>>>::_Auto_node" = type { ptr, ptr }
%"class.boost::detail::sp_counted_impl_p.138" = type { %"class.boost::detail::sp_counted_base", ptr }
%"struct.std::pair.159" = type { i64, i64 }
%"struct.std::_Rb_tree_node.157" = type { %"struct.std::_Rb_tree_node_base", %"struct.__gnu_cxx::__aligned_membuf.158" }
%"struct.__gnu_cxx::__aligned_membuf.158" = type { [8 x i8] }
%"class.boost::re_detail_107400::basic_char_set" = type { %"class.std::set.174", %"class.std::vector.182", i8, i8, i32, i32, i8, %"class.std::set.174" }
%"class.std::vector.182" = type { %"struct.std::_Vector_base.183" }
%"struct.std::_Vector_base.183" = type { %"struct.std::_Vector_base<boost::re_detail_107400::digraph<char>, std::allocator<boost::re_detail_107400::digraph<char>>>::_Vector_impl" }
%"struct.std::_Vector_base<boost::re_detail_107400::digraph<char>, std::allocator<boost::re_detail_107400::digraph<char>>>::_Vector_impl" = type { %"struct.std::_Vector_base<boost::re_detail_107400::digraph<char>, std::allocator<boost::re_detail_107400::digraph<char>>>::_Vector_impl_data" }
%"struct.std::_Vector_base<boost::re_detail_107400::digraph<char>, std::allocator<boost::re_detail_107400::digraph<char>>>::_Vector_impl_data" = type { ptr, ptr, ptr }
%"class.std::set.174" = type { %"class.std::_Rb_tree.175" }
%"class.std::_Rb_tree.175" = type { %"struct.std::_Rb_tree<boost::re_detail_107400::digraph<char>, boost::re_detail_107400::digraph<char>, std::_Identity<boost::re_detail_107400::digraph<char>>, std::less<boost::re_detail_107400::digraph<char>>>::_Rb_tree_impl" }
%"struct.std::_Rb_tree<boost::re_detail_107400::digraph<char>, boost::re_detail_107400::digraph<char>, std::_Identity<boost::re_detail_107400::digraph<char>>, std::less<boost::re_detail_107400::digraph<char>>>::_Rb_tree_impl" = type { %"struct.std::_Rb_tree_key_compare.179", %"struct.std::_Rb_tree_header" }
%"struct.std::_Rb_tree_key_compare.179" = type { %"struct.std::less.180" }
%"struct.std::less.180" = type { i8 }
%"class.std::allocator" = type { i8 }
%"struct.boost::re_detail_107400::re_recurse" = type <{ %"struct.boost::re_detail_107400::re_jump", i32, [4 x i8] }>
%"class.boost::re_detail_107400::parser_buf" = type { %"class.std::basic_streambuf" }
%"class.std::basic_streambuf" = type { ptr, ptr, ptr, ptr, ptr, ptr, ptr, %"class.std::locale" }
%"class.std::basic_istream" = type { ptr, i64, %"class.std::basic_ios" }
%"class.std::basic_ios" = type { %"class.std::ios_base", ptr, i8, i8, ptr, ptr, ptr, ptr }
%"struct.std::_Rb_tree_node.191" = type <{ %"struct.std::_Rb_tree_node_base", %"struct.__gnu_cxx::__aligned_membuf.192", [6 x i8] }>
%"struct.__gnu_cxx::__aligned_membuf.192" = type { [2 x i8] }
%"struct.std::pair.189" = type { i8, i8 }
%"struct.boost::re_detail_107400::digraph" = type { %"struct.std::pair.189" }
%"class.boost::regex_error" = type { %"class.std::runtime_error", i32, i64 }
%"struct.std::pair.214" = type { i8, ptr }
%"class.std::function" = type { %"class.std::_Function_base", ptr }
%"class.std::_Function_base" = type { %"union.std::_Any_data", ptr }
%"union.std::_Any_data" = type { %"union.std::_Nocopy_types" }
%"union.std::_Nocopy_types" = type { { i64, i64 } }
%"class.folly::test::CaptureFD" = type { %"class.std::function", %"class.folly::test::TemporaryFile", i32, i32, i64 }
%"class.folly::Range" = type { ptr, ptr }
%"class.folly::File" = type <{ i32, i8, [3 x i8] }>
%"class.folly::detail::ScopeGuardImpl" = type { %"class.folly::detail::ScopeGuardImplBase", %class.anon }
%"class.folly::detail::ScopeGuardImplBase" = type { i8 }
%class.anon = type { ptr }
%"class.folly::detail::ScopeGuardImpl.220" = type { %"class.folly::detail::ScopeGuardImplBase", %class.anon.221 }
%class.anon.221 = type { ptr, ptr }
%struct.stat = type { i64, i64, i64, i32, i32, i32, i32, i64, i64, i64, i64, %struct.timespec, %struct.timespec, %struct.timespec, [3 x i64] }
%struct.timespec = type { i64, i64 }
%"class.boost::filesystem::file_status" = type { i32, i32 }
%"class.std::vector.233" = type { %"struct.std::_Vector_base.234" }
%"struct.std::_Vector_base.234" = type { %"struct.std::_Vector_base<boost::filesystem::path, std::allocator<boost::filesystem::path>>::_Vector_impl" }
%"struct.std::_Vector_base<boost::filesystem::path, std::allocator<boost::filesystem::path>>::_Vector_impl" = type { %"struct.std::_Vector_base<boost::filesystem::path, std::allocator<boost::filesystem::path>>::_Vector_impl_data" }
%"struct.std::_Vector_base<boost::filesystem::path, std::allocator<boost::filesystem::path>>::_Vector_impl_data" = type { ptr, ptr, ptr }

$_ZNK5boost6system14error_category23default_error_conditionEi = comdat any

$_ZNK5boost6system14error_category10equivalentEiRKNS0_15error_conditionE = comdat any

$_ZNK5boost6system14error_category10equivalentERKNS0_10error_codeEi = comdat any

$_ZNK5boost6system14error_category6failedEi = comdat any

$_ZNK5boost6system6detail22generic_error_category4nameEv = comdat any

$_ZNK5boost6system6detail22generic_error_category7messageB5cxx11Ei = comdat any

$_ZNK5boost6system6detail22generic_error_category7messageEiPcm = comdat any

$_ZNK5boost6system6detail21system_error_category4nameEv = comdat any

$_ZNK5boost6system6detail21system_error_category23default_error_conditionEi = comdat any

$_ZNK5boost6system6detail21system_error_category7messageB5cxx11Ei = comdat any

$_ZNK5boost6system6detail21system_error_category7messageEiPcm = comdat any

$__clang_call_terminate = comdat any

$_ZNSt7__cxx1112basic_stringIcSt11char_traitsIcESaIcEEC2IS3_EEPKcRKS3_ = comdat any

$_ZN5folly16throwSystemErrorIJRA12_KcEEEvDpOT_ = comdat any

$_ZN5folly24throwSystemErrorExplicitEiPKc = comdat any

$_ZN5folly15throw_exceptionISt12system_errorEEvOT_ = comdat any

$_ZNSt12system_errorC2ERKS_ = comdat any

$_ZNSt12system_errorC2ESt10error_codePKc = comdat any

$_ZNSt10unique_ptrIN5boost10filesystem4pathESt14default_deleteIS2_EED2Ev = comdat any

$_ZN5boost11basic_regexIcNS_12regex_traitsIcNS_16cpp_regex_traitsIcEEEEED2Ev = comdat any

$_ZN5boost11regex_matchIPKcSaINS_9sub_matchIS2_EEEcNS_12regex_traitsIcNS_16cpp_regex_traitsIcEEEEEEbT_SA_RNS_13match_resultsISA_T0_EERKNS_11basic_regexIT1_T2_EENS_15regex_constants12_match_flagsE = comdat any

$_ZN5boost13match_resultsIPKcSaINS_9sub_matchIS2_EEEED2Ev = comdat any

$_ZN5boost16re_detail_10740012perl_matcherIPKcSaINS_9sub_matchIS3_EEENS_12regex_traitsIcNS_16cpp_regex_traitsIcEEEEED2Ev = comdat any

$_ZN5boost16re_detail_10740012perl_matcherIPKcSaINS_9sub_matchIS3_EEENS_12regex_traitsIcNS_16cpp_regex_traitsIcEEEEE14construct_initERKNS_11basic_regexIcSA_EENS_15regex_constants12_match_flagsE = comdat any

$_ZNSt6vectorIN5boost16re_detail_10740014recursion_infoINS0_13match_resultsIPKcSaINS0_9sub_matchIS5_EEEEEEESaISA_EED2Ev = comdat any

$_ZN5boost10scoped_ptrINS_13match_resultsIPKcSaINS_9sub_matchIS3_EEEEEED2Ev = comdat any

$_ZN5boost15throw_exceptionISt16invalid_argumentEEvRKT_ = comdat any

$_ZN5boost10wrapexceptISt16invalid_argumentEC2ERKS1_ = comdat any

$_ZN5boost10wrapexceptISt16invalid_argumentED2Ev = comdat any

$_ZNK5boost10wrapexceptISt16invalid_argumentE5cloneEv = comdat any

$_ZNK5boost10wrapexceptISt16invalid_argumentE7rethrowEv = comdat any

$_ZN5boost10wrapexceptISt16invalid_argumentED0Ev = comdat any

$_ZThn8_N5boost10wrapexceptISt16invalid_argumentED1Ev = comdat any

$_ZThn8_N5boost10wrapexceptISt16invalid_argumentED0Ev = comdat any

$_ZThn24_N5boost10wrapexceptISt16invalid_argumentED1Ev = comdat any

$_ZThn24_N5boost10wrapexceptISt16invalid_argumentED0Ev = comdat any

$_ZN5boost16exception_detail10clone_baseD2Ev = comdat any

$_ZN5boost16exception_detail10clone_baseD0Ev = comdat any

$_ZN5boost10wrapexceptISt16invalid_argumentEC2ERKS2_ = comdat any

$_ZN5boost16exception_detail20copy_boost_exceptionEPNS_9exceptionEPKS1_ = comdat any

$_ZSt8_DestroyIPN5boost16re_detail_10740014recursion_infoINS0_13match_resultsIPKcSaINS0_9sub_matchIS5_EEEEEEESA_EvT_SC_RSaIT0_E = comdat any

$_ZSt8_DestroyIPN5boost16re_detail_10740014recursion_infoINS0_13match_resultsIPKcSaINS0_9sub_matchIS5_EEEEEEEEvT_SC_ = comdat any

$_ZN5boost16re_detail_10740014recursion_infoINS_13match_resultsIPKcSaINS_9sub_matchIS4_EEEEEED2Ev = comdat any

$_ZN5boost16re_detail_10740012perl_matcherIPKcSaINS_9sub_matchIS3_EEENS_12regex_traitsIcNS_16cpp_regex_traitsIcEEEEE9match_impEv = comdat any

$_ZN5boost13match_resultsIPKcSaINS_9sub_matchIS2_EEEE8set_sizeEmS2_S2_ = comdat any

$_ZN5boost16re_detail_10740012perl_matcherIPKcSaINS_9sub_matchIS3_EEENS_12regex_traitsIcNS_16cpp_regex_traitsIcEEEEE12match_prefixEv = comdat any

$_ZN5boost16re_detail_10740015save_state_initD2Ev = comdat any

$_ZNSt6vectorIN5boost9sub_matchIPKcEESaIS4_EE14_M_fill_insertEN9__gnu_cxx17__normal_iteratorIPS4_S6_EEmRKS4_ = comdat any

$_ZN5boost6detail12shared_countD2Ev = comdat any

$_ZNSt6vectorIN5boost9sub_matchIPKcEESaIS4_EEaSERKS6_ = comdat any

$_ZN5boost16re_detail_10740012perl_matcherIPKcSaINS_9sub_matchIS3_EEENS_12regex_traitsIcNS_16cpp_regex_traitsIcEEEEE16match_all_statesEv = comdat any

$_ZN5boost13match_resultsIPKcSaINS_9sub_matchIS2_EEEE12maybe_assignERKS6_ = comdat any

$_ZN5boost16re_detail_10740012perl_matcherIPKcSaINS_9sub_matchIS3_EEENS_12regex_traitsIcNS_16cpp_regex_traitsIcEEEEE15match_startmarkEv = comdat any

$_ZN5boost16re_detail_10740012perl_matcherIPKcSaINS_9sub_matchIS3_EEENS_12regex_traitsIcNS_16cpp_regex_traitsIcEEEEE13match_endmarkEv = comdat any

$_ZN5boost16re_detail_10740012perl_matcherIPKcSaINS_9sub_matchIS3_EEENS_12regex_traitsIcNS_16cpp_regex_traitsIcEEEEE13match_literalEv = comdat any

$_ZN5boost16re_detail_10740012perl_matcherIPKcSaINS_9sub_matchIS3_EEENS_12regex_traitsIcNS_16cpp_regex_traitsIcEEEEE16match_start_lineEv = comdat any

$_ZN5boost16re_detail_10740012perl_matcherIPKcSaINS_9sub_matchIS3_EEENS_12regex_traitsIcNS_16cpp_regex_traitsIcEEEEE14match_end_lineEv = comdat any

$_ZN5boost16re_detail_10740012perl_matcherIPKcSaINS_9sub_matchIS3_EEENS_12regex_traitsIcNS_16cpp_regex_traitsIcEEEEE10match_wildEv = comdat any

$_ZN5boost16re_detail_10740012perl_matcherIPKcSaINS_9sub_matchIS3_EEENS_12regex_traitsIcNS_16cpp_regex_traitsIcEEEEE11match_matchEv = comdat any

$_ZN5boost16re_detail_10740012perl_matcherIPKcSaINS_9sub_matchIS3_EEENS_12regex_traitsIcNS_16cpp_regex_traitsIcEEEEE19match_word_boundaryEv = comdat any

$_ZN5boost16re_detail_10740012perl_matcherIPKcSaINS_9sub_matchIS3_EEENS_12regex_traitsIcNS_16cpp_regex_traitsIcEEEEE17match_within_wordEv = comdat any

$_ZN5boost16re_detail_10740012perl_matcherIPKcSaINS_9sub_matchIS3_EEENS_12regex_traitsIcNS_16cpp_regex_traitsIcEEEEE16match_word_startEv = comdat any

$_ZN5boost16re_detail_10740012perl_matcherIPKcSaINS_9sub_matchIS3_EEENS_12regex_traitsIcNS_16cpp_regex_traitsIcEEEEE14match_word_endEv = comdat any

$_ZN5boost16re_detail_10740012perl_matcherIPKcSaINS_9sub_matchIS3_EEENS_12regex_traitsIcNS_16cpp_regex_traitsIcEEEEE18match_buffer_startEv = comdat any

$_ZN5boost16re_detail_10740012perl_matcherIPKcSaINS_9sub_matchIS3_EEENS_12regex_traitsIcNS_16cpp_regex_traitsIcEEEEE16match_buffer_endEv = comdat any

$_ZN5boost16re_detail_10740012perl_matcherIPKcSaINS_9sub_matchIS3_EEENS_12regex_traitsIcNS_16cpp_regex_traitsIcEEEEE13match_backrefEv = comdat any

$_ZN5boost16re_detail_10740012perl_matcherIPKcSaINS_9sub_matchIS3_EEENS_12regex_traitsIcNS_16cpp_regex_traitsIcEEEEE14match_long_setEv = comdat any

$_ZN5boost16re_detail_10740012perl_matcherIPKcSaINS_9sub_matchIS3_EEENS_12regex_traitsIcNS_16cpp_regex_traitsIcEEEEE9match_setEv = comdat any

$_ZN5boost16re_detail_10740012perl_matcherIPKcSaINS_9sub_matchIS3_EEENS_12regex_traitsIcNS_16cpp_regex_traitsIcEEEEE10match_jumpEv = comdat any

$_ZN5boost16re_detail_10740012perl_matcherIPKcSaINS_9sub_matchIS3_EEENS_12regex_traitsIcNS_16cpp_regex_traitsIcEEEEE9match_altEv = comdat any

$_ZN5boost16re_detail_10740012perl_matcherIPKcSaINS_9sub_matchIS3_EEENS_12regex_traitsIcNS_16cpp_regex_traitsIcEEEEE9match_repEv = comdat any

$_ZN5boost16re_detail_10740012perl_matcherIPKcSaINS_9sub_matchIS3_EEENS_12regex_traitsIcNS_16cpp_regex_traitsIcEEEEE15match_combiningEv = comdat any

$_ZN5boost16re_detail_10740012perl_matcherIPKcSaINS_9sub_matchIS3_EEENS_12regex_traitsIcNS_16cpp_regex_traitsIcEEEEE21match_soft_buffer_endEv = comdat any

$_ZN5boost16re_detail_10740012perl_matcherIPKcSaINS_9sub_matchIS3_EEENS_12regex_traitsIcNS_16cpp_regex_traitsIcEEEEE22match_restart_continueEv = comdat any

$_ZN5boost16re_detail_10740012perl_matcherIPKcSaINS_9sub_matchIS3_EEENS_12regex_traitsIcNS_16cpp_regex_traitsIcEEEEE25match_dot_repeat_dispatchEv = comdat any

$_ZN5boost16re_detail_10740012perl_matcherIPKcSaINS_9sub_matchIS3_EEENS_12regex_traitsIcNS_16cpp_regex_traitsIcEEEEE17match_char_repeatEv = comdat any

$_ZN5boost16re_detail_10740012perl_matcherIPKcSaINS_9sub_matchIS3_EEENS_12regex_traitsIcNS_16cpp_regex_traitsIcEEEEE16match_set_repeatEv = comdat any

$_ZN5boost16re_detail_10740012perl_matcherIPKcSaINS_9sub_matchIS3_EEENS_12regex_traitsIcNS_16cpp_regex_traitsIcEEEEE21match_long_set_repeatEv = comdat any

$_ZN5boost16re_detail_10740012perl_matcherIPKcSaINS_9sub_matchIS3_EEENS_12regex_traitsIcNS_16cpp_regex_traitsIcEEEEE14match_backstepEv = comdat any

$_ZN5boost16re_detail_10740012perl_matcherIPKcSaINS_9sub_matchIS3_EEENS_12regex_traitsIcNS_16cpp_regex_traitsIcEEEEE20match_assert_backrefEv = comdat any

$_ZN5boost16re_detail_10740012perl_matcherIPKcSaINS_9sub_matchIS3_EEENS_12regex_traitsIcNS_16cpp_regex_traitsIcEEEEE17match_toggle_caseEv = comdat any

$_ZN5boost16re_detail_10740012perl_matcherIPKcSaINS_9sub_matchIS3_EEENS_12regex_traitsIcNS_16cpp_regex_traitsIcEEEEE15match_recursionEv = comdat any

$_ZN5boost16re_detail_10740012perl_matcherIPKcSaINS_9sub_matchIS3_EEENS_12regex_traitsIcNS_16cpp_regex_traitsIcEEEEE10match_failEv = comdat any

$_ZN5boost16re_detail_10740012perl_matcherIPKcSaINS_9sub_matchIS3_EEENS_12regex_traitsIcNS_16cpp_regex_traitsIcEEEEE12match_acceptEv = comdat any

$_ZN5boost16re_detail_10740012perl_matcherIPKcSaINS_9sub_matchIS3_EEENS_12regex_traitsIcNS_16cpp_regex_traitsIcEEEEE12match_commitEv = comdat any

$_ZN5boost16re_detail_10740012perl_matcherIPKcSaINS_9sub_matchIS3_EEENS_12regex_traitsIcNS_16cpp_regex_traitsIcEEEEE10match_thenEv = comdat any

$_ZN5boost16re_detail_10740011raise_errorINS_20regex_traits_wrapperINS_12regex_traitsIcNS_16cpp_regex_traitsIcEEEEEEEEvRKT_NS_15regex_constants10error_typeE = comdat any

$_ZNSt16allocator_traitsISaIN5boost16re_detail_10740014recursion_infoINS0_13match_resultsIPKcSaINS0_9sub_matchIS5_EEEEEEEEE7destroyISA_EEvRSB_PT_ = comdat any

$_ZN5boost16re_detail_10740014repeater_countIPKcE12unwind_untilEiPS4_i = comdat any

$_ZN5boost16re_detail_10740016re_is_set_memberIPKccNS_12regex_traitsIcNS_16cpp_regex_traitsIcEEEEjEET_S8_S8_PKNS0_11re_set_longIT2_EERKNS0_10regex_dataIT0_T1_EEb = comdat any

$_ZNK5boost16re_detail_10740031cpp_regex_traits_implementationIcE9transformB5cxx11EPKcS4_ = comdat any

$_ZNK5boost16re_detail_10740031cpp_regex_traits_implementationIcE17transform_primaryB5cxx11EPKcS4_ = comdat any

$_ZN5boost16re_detail_10740012perl_matcherIPKcSaINS_9sub_matchIS3_EEENS_12regex_traitsIcNS_16cpp_regex_traitsIcEEEEE21match_dot_repeat_fastEv = comdat any

$_ZN5boost16re_detail_10740012perl_matcherIPKcSaINS_9sub_matchIS3_EEENS_12regex_traitsIcNS_16cpp_regex_traitsIcEEEEE21match_dot_repeat_slowEv = comdat any

$_ZNSt6vectorIN5boost16re_detail_10740014recursion_infoINS0_13match_resultsIPKcSaINS0_9sub_matchIS5_EEEEEEESaISA_EE7reserveEm = comdat any

$_ZNSt6vectorIN5boost16re_detail_10740014recursion_infoINS0_13match_resultsIPKcSaINS0_9sub_matchIS5_EEEEEEESaISA_EE20_M_allocate_and_copyIPKSA_EEPSA_mT_SH_ = comdat any

$_ZNSt6vectorIN5boost16re_detail_10740014recursion_infoINS0_13match_resultsIPKcSaINS0_9sub_matchIS5_EEEEEEESaISA_EE17_M_realloc_insertIJSA_EEEvN9__gnu_cxx17__normal_iteratorIPSA_SC_EEDpOT_ = comdat any

$_ZN5boost16re_detail_10740012perl_matcherIPKcSaINS_9sub_matchIS3_EEENS_12regex_traitsIcNS_16cpp_regex_traitsIcEEEEE16skip_until_parenEib = comdat any

$_ZNK5boost16re_detail_10740031cpp_regex_traits_implementationIcE12error_stringB5cxx11ENS_15regex_constants10error_typeE = comdat any

$_ZN5boost15throw_exceptionISt11logic_errorEEvRKT_ = comdat any

$_ZN5boost10wrapexceptISt11logic_errorEC2ERKS1_ = comdat any

$_ZN5boost10wrapexceptISt11logic_errorED2Ev = comdat any

$_ZNK5boost10wrapexceptISt11logic_errorE5cloneEv = comdat any

$_ZNK5boost10wrapexceptISt11logic_errorE7rethrowEv = comdat any

$_ZN5boost10wrapexceptISt11logic_errorED0Ev = comdat any

$_ZThn8_N5boost10wrapexceptISt11logic_errorED1Ev = comdat any

$_ZThn8_N5boost10wrapexceptISt11logic_errorED0Ev = comdat any

$_ZThn24_N5boost10wrapexceptISt11logic_errorED1Ev = comdat any

$_ZThn24_N5boost10wrapexceptISt11logic_errorED0Ev = comdat any

$_ZN5boost10wrapexceptISt11logic_errorEC2ERKS2_ = comdat any

$_ZN5boost16re_detail_10740012perl_matcherIPKcSaINS_9sub_matchIS3_EEENS_12regex_traitsIcNS_16cpp_regex_traitsIcEEEEE10unwind_endEb = comdat any

$_ZN5boost16re_detail_10740012perl_matcherIPKcSaINS_9sub_matchIS3_EEENS_12regex_traitsIcNS_16cpp_regex_traitsIcEEEEE12unwind_parenEb = comdat any

$_ZN5boost16re_detail_10740012perl_matcherIPKcSaINS_9sub_matchIS3_EEENS_12regex_traitsIcNS_16cpp_regex_traitsIcEEEEE24unwind_recursion_stopperEb = comdat any

$_ZN5boost16re_detail_10740012perl_matcherIPKcSaINS_9sub_matchIS3_EEENS_12regex_traitsIcNS_16cpp_regex_traitsIcEEEEE16unwind_assertionEb = comdat any

$_ZN5boost16re_detail_10740012perl_matcherIPKcSaINS_9sub_matchIS3_EEENS_12regex_traitsIcNS_16cpp_regex_traitsIcEEEEE10unwind_altEb = comdat any

$_ZN5boost16re_detail_10740012perl_matcherIPKcSaINS_9sub_matchIS3_EEENS_12regex_traitsIcNS_16cpp_regex_traitsIcEEEEE23unwind_repeater_counterEb = comdat any

$_ZN5boost16re_detail_10740012perl_matcherIPKcSaINS_9sub_matchIS3_EEENS_12regex_traitsIcNS_16cpp_regex_traitsIcEEEEE18unwind_extra_blockEb = comdat any

$_ZN5boost16re_detail_10740012perl_matcherIPKcSaINS_9sub_matchIS3_EEENS_12regex_traitsIcNS_16cpp_regex_traitsIcEEEEE27unwind_greedy_single_repeatEb = comdat any

$_ZN5boost16re_detail_10740012perl_matcherIPKcSaINS_9sub_matchIS3_EEENS_12regex_traitsIcNS_16cpp_regex_traitsIcEEEEE22unwind_slow_dot_repeatEb = comdat any

$_ZN5boost16re_detail_10740012perl_matcherIPKcSaINS_9sub_matchIS3_EEENS_12regex_traitsIcNS_16cpp_regex_traitsIcEEEEE22unwind_fast_dot_repeatEb = comdat any

$_ZN5boost16re_detail_10740012perl_matcherIPKcSaINS_9sub_matchIS3_EEENS_12regex_traitsIcNS_16cpp_regex_traitsIcEEEEE18unwind_char_repeatEb = comdat any

$_ZN5boost16re_detail_10740012perl_matcherIPKcSaINS_9sub_matchIS3_EEENS_12regex_traitsIcNS_16cpp_regex_traitsIcEEEEE23unwind_short_set_repeatEb = comdat any

$_ZN5boost16re_detail_10740012perl_matcherIPKcSaINS_9sub_matchIS3_EEENS_12regex_traitsIcNS_16cpp_regex_traitsIcEEEEE22unwind_long_set_repeatEb = comdat any

$_ZN5boost16re_detail_10740012perl_matcherIPKcSaINS_9sub_matchIS3_EEENS_12regex_traitsIcNS_16cpp_regex_traitsIcEEEEE24unwind_non_greedy_repeatEb = comdat any

$_ZN5boost16re_detail_10740012perl_matcherIPKcSaINS_9sub_matchIS3_EEENS_12regex_traitsIcNS_16cpp_regex_traitsIcEEEEE16unwind_recursionEb = comdat any

$_ZN5boost16re_detail_10740012perl_matcherIPKcSaINS_9sub_matchIS3_EEENS_12regex_traitsIcNS_16cpp_regex_traitsIcEEEEE20unwind_recursion_popEb = comdat any

$_ZN5boost16re_detail_10740012perl_matcherIPKcSaINS_9sub_matchIS3_EEENS_12regex_traitsIcNS_16cpp_regex_traitsIcEEEEE13unwind_commitEb = comdat any

$_ZN5boost16re_detail_10740012perl_matcherIPKcSaINS_9sub_matchIS3_EEENS_12regex_traitsIcNS_16cpp_regex_traitsIcEEEEE11unwind_thenEb = comdat any

$_ZN5boost16re_detail_10740012perl_matcherIPKcSaINS_9sub_matchIS3_EEENS_12regex_traitsIcNS_16cpp_regex_traitsIcEEEEE11unwind_caseEb = comdat any

$_ZN5boost10shared_ptrINS_16re_detail_10740026basic_regex_implementationIcNS_12regex_traitsIcNS_16cpp_regex_traitsIcEEEEEEED2Ev = comdat any

$_ZN5boost11basic_regexIcNS_12regex_traitsIcNS_16cpp_regex_traitsIcEEEEE9do_assignEPKcS7_j = comdat any

$_ZN5boost16re_detail_10740026basic_regex_implementationIcNS_12regex_traitsIcNS_16cpp_regex_traitsIcEEEEE6assignEPKcS8_j = comdat any

$_ZN5boost16cpp_regex_traitsIcEC2Ev = comdat any

$_ZN5boost16re_detail_10740021cpp_regex_traits_baseIcEC2ERKSt6locale = comdat any

$_ZN5boost12object_cacheINS_16re_detail_10740021cpp_regex_traits_baseIcEENS1_31cpp_regex_traits_implementationIcEEE3getERKS3_m = comdat any

$_ZN5boost12object_cacheINS_16re_detail_10740021cpp_regex_traits_baseIcEENS1_31cpp_regex_traits_implementationIcEEE6do_getERKS3_m = comdat any

$_ZN5boost15throw_exceptionISt13runtime_errorEEvRKT_ = comdat any

$_ZN5boost12object_cacheINS_16re_detail_10740021cpp_regex_traits_baseIcEENS1_31cpp_regex_traits_implementationIcEEE4dataD2Ev = comdat any

$_ZN5boost16re_detail_10740031cpp_regex_traits_implementationIcEC2ERKNS0_21cpp_regex_traits_baseIcEE = comdat any

$_ZNSt4pairIN5boost10shared_ptrIKNS0_16re_detail_10740031cpp_regex_traits_implementationIcEEEEPKNS2_21cpp_regex_traits_baseIcEEED2Ev = comdat any

$_ZN5boost10shared_ptrIKNS_16re_detail_10740031cpp_regex_traits_implementationIcEEED2Ev = comdat any

$_ZNSt8_Rb_treeIN5boost16re_detail_10740021cpp_regex_traits_baseIcEESt4pairIKS3_St14_List_iteratorIS4_INS0_10shared_ptrIKNS1_31cpp_regex_traits_implementationIcEEEEPS5_EEESt10_Select1stISF_ESt4lessIS3_ESaISF_EE8_M_eraseEPSt13_Rb_tree_nodeISF_E = comdat any

$_ZN5boost16re_detail_10740031cpp_regex_traits_implementationIcE4initEv = comdat any

$_ZNSt3mapINSt7__cxx1112basic_stringIcSt11char_traitsIcESaIcEEES5_St4lessIS5_ESaISt4pairIKS5_S5_EEED2Ev = comdat any

$_ZNSt3mapINSt7__cxx1112basic_stringIcSt11char_traitsIcESaIcEEEjSt4lessIS5_ESaISt4pairIKS5_jEEED2Ev = comdat any

$_ZNSt3mapIiNSt7__cxx1112basic_stringIcSt11char_traitsIcESaIcEEESt4lessIiESaISt4pairIKiS5_EEED2Ev = comdat any

$_ZN5boost16cpp_regex_traitsIcE16get_catalog_nameB5cxx11Ev = comdat any

$_ZStplIcSt11char_traitsIcESaIcEENSt7__cxx1112basic_stringIT_T0_T1_EERKS8_SA_ = comdat any

$_ZNSt3mapINSt7__cxx1112basic_stringIcSt11char_traitsIcESaIcEEEjSt4lessIS5_ESaISt4pairIKS5_jEEEixERS9_ = comdat any

$_ZN5boost16re_detail_10740016find_sort_syntaxINS0_31cpp_regex_traits_implementationIcEEcEEjPKT_PT0_ = comdat any

$_ZNSt8_Rb_treeIiSt4pairIKiNSt7__cxx1112basic_stringIcSt11char_traitsIcESaIcEEEESt10_Select1stIS8_ESt4lessIiESaIS8_EE22_M_emplace_hint_uniqueIJRKSt21piecewise_construct_tSt5tupleIJOiEESJ_IJEEEEESt17_Rb_tree_iteratorIS8_ESt23_Rb_tree_const_iteratorIS8_EDpOT_ = comdat any

$_ZNSt8_Rb_treeIiSt4pairIKiNSt7__cxx1112basic_stringIcSt11char_traitsIcESaIcEEEESt10_Select1stIS8_ESt4lessIiESaIS8_EE29_M_get_insert_hint_unique_posESt23_Rb_tree_const_iteratorIS8_ERS1_ = comdat any

$_ZNSt8_Rb_treeIiSt4pairIKiNSt7__cxx1112basic_stringIcSt11char_traitsIcESaIcEEEESt10_Select1stIS8_ESt4lessIiESaIS8_EE10_Auto_nodeD2Ev = comdat any

$_ZNSt8_Rb_treeINSt7__cxx1112basic_stringIcSt11char_traitsIcESaIcEEESt4pairIKS5_jESt10_Select1stIS8_ESt4lessIS5_ESaIS8_EE22_M_emplace_hint_uniqueIJRKSt21piecewise_construct_tSt5tupleIJRS7_EESJ_IJEEEEESt17_Rb_tree_iteratorIS8_ESt23_Rb_tree_const_iteratorIS8_EDpOT_ = comdat any

$_ZNSt8_Rb_treeINSt7__cxx1112basic_stringIcSt11char_traitsIcESaIcEEESt4pairIKS5_jESt10_Select1stIS8_ESt4lessIS5_ESaIS8_EE29_M_get_insert_hint_unique_posESt23_Rb_tree_const_iteratorIS8_ERS7_ = comdat any

$_ZNSt8_Rb_treeINSt7__cxx1112basic_stringIcSt11char_traitsIcESaIcEEESt4pairIKS5_jESt10_Select1stIS8_ESt4lessIS5_ESaIS8_EE10_Auto_nodeD2Ev = comdat any

$_ZNSt8_Rb_treeINSt7__cxx1112basic_stringIcSt11char_traitsIcESaIcEEESt4pairIKS5_jESt10_Select1stIS8_ESt4lessIS5_ESaIS8_EE17_M_construct_nodeIJRKSt21piecewise_construct_tSt5tupleIJRS7_EESJ_IJEEEEEvPSt13_Rb_tree_nodeIS8_EDpOT_ = comdat any

$_ZNSt8_Rb_treeINSt7__cxx1112basic_stringIcSt11char_traitsIcESaIcEEESt4pairIKS5_jESt10_Select1stIS8_ESt4lessIS5_ESaIS8_EE24_M_get_insert_unique_posERS7_ = comdat any

$_ZNSt8_Rb_treeINSt7__cxx1112basic_stringIcSt11char_traitsIcESaIcEEESt4pairIKS5_S5_ESt10_Select1stIS8_ESt4lessIS5_ESaIS8_EE8_M_eraseEPSt13_Rb_tree_nodeIS8_E = comdat any

$_ZNSt8_Rb_treeINSt7__cxx1112basic_stringIcSt11char_traitsIcESaIcEEESt4pairIKS5_jESt10_Select1stIS8_ESt4lessIS5_ESaIS8_EE8_M_eraseEPSt13_Rb_tree_nodeIS8_E = comdat any

$_ZNSt8_Rb_treeIiSt4pairIKiNSt7__cxx1112basic_stringIcSt11char_traitsIcESaIcEEEESt10_Select1stIS8_ESt4lessIiESaIS8_EE8_M_eraseEPSt13_Rb_tree_nodeIS8_E = comdat any

$_ZN5boost6detail20sp_pointer_constructIKNS_16re_detail_10740031cpp_regex_traits_implementationIcEES4_EEvPNS_10shared_ptrIT_EEPT0_RNS0_12shared_countE = comdat any

$_ZN5boost14checked_deleteINS_16re_detail_10740031cpp_regex_traits_implementationIcEEEEvPT_ = comdat any

$_ZN5boost6detail17sp_counted_impl_pINS_16re_detail_10740031cpp_regex_traits_implementationIcEEED0Ev = comdat any

$_ZN5boost6detail17sp_counted_impl_pINS_16re_detail_10740031cpp_regex_traits_implementationIcEEE7disposeEv = comdat any

$_ZN5boost6detail15sp_counted_base7destroyEv = comdat any

$_ZN5boost6detail17sp_counted_impl_pINS_16re_detail_10740031cpp_regex_traits_implementationIcEEE11get_deleterERKSt9type_info = comdat any

$_ZN5boost6detail17sp_counted_impl_pINS_16re_detail_10740031cpp_regex_traits_implementationIcEEE17get_local_deleterERKSt9type_info = comdat any

$_ZN5boost6detail17sp_counted_impl_pINS_16re_detail_10740031cpp_regex_traits_implementationIcEEE19get_untyped_deleterEv = comdat any

$_ZNSt8_Rb_treeIN5boost16re_detail_10740021cpp_regex_traits_baseIcEESt4pairIKS3_St14_List_iteratorIS4_INS0_10shared_ptrIKNS1_31cpp_regex_traits_implementationIcEEEEPS5_EEESt10_Select1stISF_ESt4lessIS3_ESaISF_EE22_M_emplace_hint_uniqueIJS4_IS3_SE_EEEESt17_Rb_tree_iteratorISF_ESt23_Rb_tree_const_iteratorISF_EDpOT_ = comdat any

$_ZNSt8_Rb_treeIN5boost16re_detail_10740021cpp_regex_traits_baseIcEESt4pairIKS3_St14_List_iteratorIS4_INS0_10shared_ptrIKNS1_31cpp_regex_traits_implementationIcEEEEPS5_EEESt10_Select1stISF_ESt4lessIS3_ESaISF_EE29_M_get_insert_hint_unique_posESt23_Rb_tree_const_iteratorISF_ERS5_ = comdat any

$_ZNSt8_Rb_treeIN5boost16re_detail_10740021cpp_regex_traits_baseIcEESt4pairIKS3_St14_List_iteratorIS4_INS0_10shared_ptrIKNS1_31cpp_regex_traits_implementationIcEEEEPS5_EEESt10_Select1stISF_ESt4lessIS3_ESaISF_EE10_Auto_nodeD2Ev = comdat any

$_ZNSt8_Rb_treeIN5boost16re_detail_10740021cpp_regex_traits_baseIcEESt4pairIKS3_St14_List_iteratorIS4_INS0_10shared_ptrIKNS1_31cpp_regex_traits_implementationIcEEEEPS5_EEESt10_Select1stISF_ESt4lessIS3_ESaISF_EE11equal_rangeERS5_ = comdat any

$_ZNSt8_Rb_treeIN5boost16re_detail_10740021cpp_regex_traits_baseIcEESt4pairIKS3_St14_List_iteratorIS4_INS0_10shared_ptrIKNS1_31cpp_regex_traits_implementationIcEEEEPS5_EEESt10_Select1stISF_ESt4lessIS3_ESaISF_EE12_M_erase_auxESt23_Rb_tree_const_iteratorISF_ESN_ = comdat any

$_ZN5boost10wrapexceptISt13runtime_errorEC2ERKS1_ = comdat any

$_ZN5boost10wrapexceptISt13runtime_errorED2Ev = comdat any

$_ZNK5boost10wrapexceptISt13runtime_errorE5cloneEv = comdat any

$_ZNK5boost10wrapexceptISt13runtime_errorE7rethrowEv = comdat any

$_ZN5boost10wrapexceptISt13runtime_errorED0Ev = comdat any

$_ZThn8_N5boost10wrapexceptISt13runtime_errorED1Ev = comdat any

$_ZThn8_N5boost10wrapexceptISt13runtime_errorED0Ev = comdat any

$_ZThn24_N5boost10wrapexceptISt13runtime_errorED1Ev = comdat any

$_ZThn24_N5boost10wrapexceptISt13runtime_errorED0Ev = comdat any

$_ZN5boost10wrapexceptISt13runtime_errorEC2ERKS2_ = comdat any

$_ZN5boost6detail20sp_pointer_constructINS_20regex_traits_wrapperINS_12regex_traitsIcNS_16cpp_regex_traitsIcEEEEEES7_EEvPNS_10shared_ptrIT_EEPT0_RNS0_12shared_countE = comdat any

$_ZN5boost14checked_deleteINS_20regex_traits_wrapperINS_12regex_traitsIcNS_16cpp_regex_traitsIcEEEEEEEEvPT_ = comdat any

$_ZN5boost6detail17sp_counted_impl_pINS_20regex_traits_wrapperINS_12regex_traitsIcNS_16cpp_regex_traitsIcEEEEEEED0Ev = comdat any

$_ZN5boost6detail17sp_counted_impl_pINS_20regex_traits_wrapperINS_12regex_traitsIcNS_16cpp_regex_traitsIcEEEEEEE7disposeEv = comdat any

$_ZN5boost6detail17sp_counted_impl_pINS_20regex_traits_wrapperINS_12regex_traitsIcNS_16cpp_regex_traitsIcEEEEEEE11get_deleterERKSt9type_info = comdat any

$_ZN5boost6detail17sp_counted_impl_pINS_20regex_traits_wrapperINS_12regex_traitsIcNS_16cpp_regex_traitsIcEEEEEEE17get_local_deleterERKSt9type_info = comdat any

$_ZN5boost6detail17sp_counted_impl_pINS_20regex_traits_wrapperINS_12regex_traitsIcNS_16cpp_regex_traitsIcEEEEEEE19get_untyped_deleterEv = comdat any

$_ZN5boost14checked_deleteINS_16re_detail_10740026basic_regex_implementationIcNS_12regex_traitsIcNS_16cpp_regex_traitsIcEEEEEEEEvPT_ = comdat any

$_ZN5boost6detail15sp_counted_baseD2Ev = comdat any

$_ZN5boost6detail17sp_counted_impl_pINS_16re_detail_10740026basic_regex_implementationIcNS_12regex_traitsIcNS_16cpp_regex_traitsIcEEEEEEED0Ev = comdat any

$_ZN5boost6detail17sp_counted_impl_pINS_16re_detail_10740026basic_regex_implementationIcNS_12regex_traitsIcNS_16cpp_regex_traitsIcEEEEEEE7disposeEv = comdat any

$_ZN5boost6detail17sp_counted_impl_pINS_16re_detail_10740026basic_regex_implementationIcNS_12regex_traitsIcNS_16cpp_regex_traitsIcEEEEEEE11get_deleterERKSt9type_info = comdat any

$_ZN5boost6detail17sp_counted_impl_pINS_16re_detail_10740026basic_regex_implementationIcNS_12regex_traitsIcNS_16cpp_regex_traitsIcEEEEEEE17get_local_deleterERKSt9type_info = comdat any

$_ZN5boost6detail17sp_counted_impl_pINS_16re_detail_10740026basic_regex_implementationIcNS_12regex_traitsIcNS_16cpp_regex_traitsIcEEEEEEE19get_untyped_deleterEv = comdat any

$_ZN5boost16re_detail_10740018basic_regex_parserIcNS_12regex_traitsIcNS_16cpp_regex_traitsIcEEEEE5parseEPKcS8_j = comdat any

$_ZN5boost16re_detail_10740018basic_regex_parserIcNS_12regex_traitsIcNS_16cpp_regex_traitsIcEEEEED2Ev = comdat any

$_ZN5boost16re_detail_10740019basic_regex_creatorIcNS_12regex_traitsIcNS_16cpp_regex_traitsIcEEEEEC2EPNS0_10regex_dataIcS5_EE = comdat any

$_ZN5boost16re_detail_10740016indexed_bit_flagD2Ev = comdat any

$_ZNK5boost16re_detail_10740031cpp_regex_traits_implementationIcE16lookup_classnameEPKcS4_ = comdat any

$_ZNK5boost16re_detail_10740031cpp_regex_traits_implementationIcE20lookup_classname_impEPKcS4_ = comdat any

$_ZNSt8_Rb_treeImmSt9_IdentityImESt4lessImESaImEE8_M_eraseEPSt13_Rb_tree_nodeImE = comdat any

$_ZN5boost16re_detail_10740018basic_regex_parserIcNS_12regex_traitsIcNS_16cpp_regex_traitsIcEEEEE4failENS_15regex_constants10error_typeEl = comdat any

$_ZN5boost16re_detail_10740018basic_regex_parserIcNS_12regex_traitsIcNS_16cpp_regex_traitsIcEEEEE14parse_extendedEv = comdat any

$_ZN5boost16re_detail_10740019basic_regex_creatorIcNS_12regex_traitsIcNS_16cpp_regex_traitsIcEEEEE12append_stateENS0_19syntax_element_typeEm = comdat any

$_ZN5boost16re_detail_10740018basic_regex_parserIcNS_12regex_traitsIcNS_16cpp_regex_traitsIcEEEEE11parse_basicEv = comdat any

$_ZN5boost16re_detail_10740018basic_regex_parserIcNS_12regex_traitsIcNS_16cpp_regex_traitsIcEEEEE13parse_literalEv = comdat any

$_ZN5boost16re_detail_10740018basic_regex_parserIcNS_12regex_traitsIcNS_16cpp_regex_traitsIcEEEEE4failENS_15regex_constants10error_typeElRKNSt7__cxx1112basic_stringIcSt11char_traitsIcESaIcEEE = comdat any

$_ZN5boost16re_detail_10740018basic_regex_parserIcNS_12regex_traitsIcNS_16cpp_regex_traitsIcEEEEE9parse_allEv = comdat any

$_ZN5boost16re_detail_10740018basic_regex_parserIcNS_12regex_traitsIcNS_16cpp_regex_traitsIcEEEEE11unwind_altsEl = comdat any

$_ZN5boost16re_detail_10740019basic_regex_creatorIcNS_12regex_traitsIcNS_16cpp_regex_traitsIcEEEEE8finalizeEPKcS8_ = comdat any

$_ZN5boost16re_detail_10740018basic_regex_parserIcNS_12regex_traitsIcNS_16cpp_regex_traitsIcEEEEE16parse_open_parenEv = comdat any

$_ZN5boost16re_detail_10740018basic_regex_parserIcNS_12regex_traitsIcNS_16cpp_regex_traitsIcEEEEE21parse_extended_escapeEv = comdat any

$_ZN5boost16re_detail_10740018basic_regex_parserIcNS_12regex_traitsIcNS_16cpp_regex_traitsIcEEEEE12parse_repeatEmm = comdat any

$_ZN5boost16re_detail_10740018basic_regex_parserIcNS_12regex_traitsIcNS_16cpp_regex_traitsIcEEEEE18parse_repeat_rangeEb = comdat any

$_ZN5boost16re_detail_10740018basic_regex_parserIcNS_12regex_traitsIcNS_16cpp_regex_traitsIcEEEEE9parse_altEv = comdat any

$_ZN5boost16re_detail_10740018basic_regex_parserIcNS_12regex_traitsIcNS_16cpp_regex_traitsIcEEEEE9parse_setEv = comdat any

$_ZN5boost16re_detail_10740018basic_regex_parserIcNS_12regex_traitsIcNS_16cpp_regex_traitsIcEEEEE20parse_perl_extensionEv = comdat any

$_ZN5boost16re_detail_10740018basic_regex_parserIcNS_12regex_traitsIcNS_16cpp_regex_traitsIcEEEEE15parse_perl_verbEv = comdat any

$_ZNSt6vectorISt4pairImmESaIS1_EE9push_backEOS1_ = comdat any

$_ZNK5boost16cpp_regex_traitsIcE3toiERPKcS3_i = comdat any

$_ZN5boost16re_detail_10740020named_subexpressions8set_nameIcEEvPKT_S5_i = comdat any

$_ZN5boost16re_detail_10740018basic_regex_parserIcNS_12regex_traitsIcNS_16cpp_regex_traitsIcEEEEE13parse_optionsEv = comdat any

$_ZN5boost16re_detail_10740019basic_regex_creatorIcNS_12regex_traitsIcNS_16cpp_regex_traitsIcEEEEE12insert_stateElNS0_19syntax_element_typeEm = comdat any

$_ZN5boost16re_detail_10740010parser_bufIcSt11char_traitsIcEED0Ev = comdat any

$_ZN5boost16re_detail_10740010parser_bufIcSt11char_traitsIcEE6setbufEPcl = comdat any

$_ZN5boost16re_detail_10740010parser_bufIcSt11char_traitsIcEE7seekoffElSt12_Ios_SeekdirSt13_Ios_Openmode = comdat any

$_ZN5boost16re_detail_10740010parser_bufIcSt11char_traitsIcEE7seekposESt4fposI11__mbstate_tESt13_Ios_Openmode = comdat any

$_ZN5boost16re_detail_10740018basic_regex_parserIcNS_12regex_traitsIcNS_16cpp_regex_traitsIcEEEEE10match_verbEPKc = comdat any

$_ZN5boost16re_detail_10740019basic_regex_creatorIcNS_12regex_traitsIcNS_16cpp_regex_traitsIcEEEEE10append_setERKNS0_14basic_char_setIcS5_EE = comdat any

$_ZN5boost16re_detail_10740014basic_char_setIcNS_12regex_traitsIcNS_16cpp_regex_traitsIcEEEEED2Ev = comdat any

$_ZN5boost16re_detail_10740019basic_regex_creatorIcNS_12regex_traitsIcNS_16cpp_regex_traitsIcEEEEE14append_literalEc = comdat any

$_ZN5boost16re_detail_10740018basic_regex_parserIcNS_12regex_traitsIcNS_16cpp_regex_traitsIcEEEEE18unescape_characterEv = comdat any

$_ZN5boost16re_detail_10740018basic_regex_parserIcNS_12regex_traitsIcNS_16cpp_regex_traitsIcEEEEE13parse_backrefEv = comdat any

$_ZN5boost16re_detail_10740018basic_regex_parserIcNS_12regex_traitsIcNS_16cpp_regex_traitsIcEEEEE8parse_QEEv = comdat any

$_ZN5boost16re_detail_10740016indexed_bit_flag4testEm = comdat any

$_ZNK5boost16re_detail_10740020named_subexpressions6get_idEi = comdat any

$_ZN5boost16re_detail_10740019basic_regex_creatorIcNS_12regex_traitsIcNS_16cpp_regex_traitsIcEEEEE10append_setERKNS0_14basic_char_setIcS5_EEPN4mpl_5bool_ILb0EEE = comdat any

$_ZN5boost16re_detail_10740019basic_regex_creatorIcNS_12regex_traitsIcNS_16cpp_regex_traitsIcEEEEE10append_setERKNS0_14basic_char_setIcS5_EEPN4mpl_5bool_ILb1EEE = comdat any

$_ZNSt8_Rb_treeIN5boost16re_detail_1074007digraphIcEES3_St9_IdentityIS3_ESt4lessIS3_ESaIS3_EE8_M_eraseEPSt13_Rb_tree_nodeIS3_E = comdat any

$_ZNK5boost16re_detail_10740031cpp_regex_traits_implementationIcE18lookup_collatenameB5cxx11EPKcS4_ = comdat any

$_ZN5boost16re_detail_10740018basic_regex_parserIcNS_12regex_traitsIcNS_16cpp_regex_traitsIcEEEEE17parse_set_literalERNS0_14basic_char_setIcS5_EE = comdat any

$_ZN5boost16re_detail_10740018basic_regex_parserIcNS_12regex_traitsIcNS_16cpp_regex_traitsIcEEEEE15parse_inner_setERNS0_14basic_char_setIcS5_EE = comdat any

$_ZN5boost16re_detail_10740018basic_regex_parserIcNS_12regex_traitsIcNS_16cpp_regex_traitsIcEEEEE20get_next_set_literalERNS0_14basic_char_setIcS5_EE = comdat any

$_ZN5boost16re_detail_10740014basic_char_setIcNS_12regex_traitsIcNS_16cpp_regex_traitsIcEEEEE9add_rangeERKNS0_7digraphIcEESA_ = comdat any

$_ZNSt6vectorIN5boost16re_detail_1074007digraphIcEESaIS3_EE17_M_realloc_insertIJRKS3_EEEvN9__gnu_cxx17__normal_iteratorIPS3_S5_EEDpOT_ = comdat any

$_ZNSt8_Rb_treeIN5boost16re_detail_1074007digraphIcEES3_St9_IdentityIS3_ESt4lessIS3_ESaIS3_EE16_M_insert_uniqueIRKS3_EESt4pairISt17_Rb_tree_iteratorIS3_EbEOT_ = comdat any

$_ZN5boost16re_detail_10740014basic_char_setIcNS_12regex_traitsIcNS_16cpp_regex_traitsIcEEEEE14add_equivalentERKNS0_7digraphIcEE = comdat any

$_ZN5boost16re_detail_10740018basic_regex_parserIcNS_12regex_traitsIcNS_16cpp_regex_traitsIcEEEEE18parse_basic_escapeEv = comdat any

$_ZN5boost16re_detail_10740018basic_regex_parserIcNS_12regex_traitsIcNS_16cpp_regex_traitsIcEEEEE14add_emacs_codeEb = comdat any

$_ZN5boost16re_detail_10740018basic_regex_parserIcNS_12regex_traitsIcNS_16cpp_regex_traitsIcEEEEE4failENS_15regex_constants10error_typeElNSt7__cxx1112basic_stringIcSt11char_traitsIcESaIcEEEl = comdat any

$_ZN5boost16re_detail_10740019basic_regex_creatorIcNS_12regex_traitsIcNS_16cpp_regex_traitsIcEEEEE16fixup_recursionsEPNS0_14re_syntax_baseE = comdat any

$_ZN5boost16re_detail_10740019basic_regex_creatorIcNS_12regex_traitsIcNS_16cpp_regex_traitsIcEEEEE16create_startmapsEPNS0_14re_syntax_baseE = comdat any

$_ZN5boost16re_detail_10740019basic_regex_creatorIcNS_12regex_traitsIcNS_16cpp_regex_traitsIcEEEEE15create_startmapEPNS0_14re_syntax_baseEPhPjh = comdat any

$_ZN5boost16re_detail_10740019basic_regex_creatorIcNS_12regex_traitsIcNS_16cpp_regex_traitsIcEEEEE18calculate_backstepEPNS0_14re_syntax_baseE = comdat any

$_ZN5boost16re_detail_10740016re_is_set_memberIPccNS_12regex_traitsIcNS_16cpp_regex_traitsIcEEEEjEET_S7_S7_PKNS0_11re_set_longIT2_EERKNS0_10regex_dataIT0_T1_EEb = comdat any

$_ZN5folly8readFileINSt7__cxx1112basic_stringIcSt11char_traitsIcESaIcEEEEEbiRT_m = comdat any

$_ZN5folly6detail14ScopeGuardImplIZNS_8readFileINSt7__cxx1112basic_stringIcSt11char_traitsIcESaIcEEEEEbPKcRT_mEUlvE_Lb1EED2Ev = comdat any

$_ZN5folly6detail14ScopeGuardImplIZNS_8readFileINSt7__cxx1112basic_stringIcSt11char_traitsIcESaIcEEEEEbiRT_mEUlvE_Lb1EED2Ev = comdat any

$_ZStplIcSt11char_traitsIcESaIcEENSt7__cxx1112basic_stringIT_T0_T1_EEPKS5_RKS8_ = comdat any

$_ZNSt6vectorIN5boost10filesystem4pathESaIS2_EED2Ev = comdat any

$_ZSt16__do_uninit_copyIPKN5boost10filesystem4pathEPS2_ET0_T_S7_S6_ = comdat any

$_ZTSN5boost6system14error_categoryE = comdat any

$_ZTIN5boost6system14error_categoryE = comdat any

$_ZTVN5boost6system6detail22generic_error_categoryE = comdat any

$_ZTSN5boost6system6detail22generic_error_categoryE = comdat any

$_ZTIN5boost6system6detail22generic_error_categoryE = comdat any

$_ZTVN5boost6system6detail21system_error_categoryE = comdat any

$_ZTSN5boost6system6detail21system_error_categoryE = comdat any

$_ZTIN5boost6system6detail21system_error_categoryE = comdat any

$_ZN5boost6system6detail10cat_holderIvE24system_category_instanceE = comdat any

$_ZN5boost6system6detail10cat_holderIvE25generic_category_instanceE = comdat any

$_ZZN5boost6system6detail16is_generic_valueEiE3gen = comdat any

$_ZTSN5boost10wrapexceptISt16invalid_argumentEE = comdat any

$_ZTSN5boost16exception_detail10clone_baseE = comdat any

$_ZTIN5boost16exception_detail10clone_baseE = comdat any

$_ZTSN5boost9exceptionE = comdat any

$_ZTIN5boost9exceptionE = comdat any

$_ZTIN5boost10wrapexceptISt16invalid_argumentEE = comdat any

$_ZTVN5boost10wrapexceptISt16invalid_argumentEE = comdat any

$_ZTVN5boost16exception_detail10clone_baseE = comdat any

$_ZTVN5boost9exceptionE = comdat any

$_ZZN5boost16re_detail_10740012perl_matcherIPKcSaINS_9sub_matchIS3_EEENS_12regex_traitsIcNS_16cpp_regex_traitsIcEEEEE16match_all_statesEvE14s_match_vtable = comdat any

$_ZTSN5boost10wrapexceptISt11logic_errorEE = comdat any

$_ZTIN5boost10wrapexceptISt11logic_errorEE = comdat any

$_ZTVN5boost10wrapexceptISt11logic_errorEE = comdat any

$_ZZN5boost16re_detail_10740012perl_matcherIPKcSaINS_9sub_matchIS3_EEENS_12regex_traitsIcNS_16cpp_regex_traitsIcEEEEE6unwindEbE14s_unwind_table = comdat any

$_ZZN5boost12object_cacheINS_16re_detail_10740021cpp_regex_traits_baseIcEENS1_31cpp_regex_traits_implementationIcEEE3getERKS3_mE3mut = comdat any

$_ZZN5boost12object_cacheINS_16re_detail_10740021cpp_regex_traits_baseIcEENS1_31cpp_regex_traits_implementationIcEEE6do_getERKS3_mE6s_data = comdat any

$_ZGVZN5boost12object_cacheINS_16re_detail_10740021cpp_regex_traits_baseIcEENS1_31cpp_regex_traits_implementationIcEEE6do_getERKS3_mE6s_data = comdat any

$_ZZN5boost16re_detail_10740031cpp_regex_traits_implementationIcE4initEvE5masks = comdat any

$_ZZN5boost16re_detail_10740031cpp_regex_traits_implementationIcE4initEvE11null_stringB5cxx11 = comdat any

$_ZGVZN5boost16re_detail_10740031cpp_regex_traits_implementationIcE4initEvE11null_stringB5cxx11 = comdat any

$_ZZN5boost16cpp_regex_traitsIcE14get_mutex_instEvE7s_mutex = comdat any

$_ZZN5boost16cpp_regex_traitsIcE21get_catalog_name_instB5cxx11EvE6s_nameB5cxx11 = comdat any

$_ZGVZN5boost16cpp_regex_traitsIcE21get_catalog_name_instB5cxx11EvE6s_nameB5cxx11 = comdat any

$_ZSt19piecewise_construct = comdat any

$_ZTVN5boost6detail17sp_counted_impl_pINS_16re_detail_10740031cpp_regex_traits_implementationIcEEEE = comdat any

$_ZTSN5boost6detail17sp_counted_impl_pINS_16re_detail_10740031cpp_regex_traits_implementationIcEEEE = comdat any

$_ZTSN5boost6detail15sp_counted_baseE = comdat any

$_ZTIN5boost6detail15sp_counted_baseE = comdat any

$_ZTIN5boost6detail17sp_counted_impl_pINS_16re_detail_10740031cpp_regex_traits_implementationIcEEEE = comdat any

$_ZTSN5boost10wrapexceptISt13runtime_errorEE = comdat any

$_ZTIN5boost10wrapexceptISt13runtime_errorEE = comdat any

$_ZTVN5boost10wrapexceptISt13runtime_errorEE = comdat any

$_ZTVN5boost6detail17sp_counted_impl_pINS_20regex_traits_wrapperINS_12regex_traitsIcNS_16cpp_regex_traitsIcEEEEEEEE = comdat any

$_ZTSN5boost6detail17sp_counted_impl_pINS_20regex_traits_wrapperINS_12regex_traitsIcNS_16cpp_regex_traitsIcEEEEEEEE = comdat any

$_ZTIN5boost6detail17sp_counted_impl_pINS_20regex_traits_wrapperINS_12regex_traitsIcNS_16cpp_regex_traitsIcEEEEEEEE = comdat any

$_ZTVN5boost6detail17sp_counted_impl_pINS_16re_detail_10740026basic_regex_implementationIcNS_12regex_traitsIcNS_16cpp_regex_traitsIcEEEEEEEE = comdat any

$_ZTSN5boost6detail17sp_counted_impl_pINS_16re_detail_10740026basic_regex_implementationIcNS_12regex_traitsIcNS_16cpp_regex_traitsIcEEEEEEEE = comdat any

$_ZTIN5boost6detail17sp_counted_impl_pINS_16re_detail_10740026basic_regex_implementationIcNS_12regex_traitsIcNS_16cpp_regex_traitsIcEEEEEEEE = comdat any

$_ZZN5boost16re_detail_10740019basic_regex_creatorIcNS_12regex_traitsIcNS_16cpp_regex_traitsIcEEEEEC1EPNS0_10regex_dataIcS5_EEE1w = comdat any

$_ZZN5boost16re_detail_10740019basic_regex_creatorIcNS_12regex_traitsIcNS_16cpp_regex_traitsIcEEEEEC1EPNS0_10regex_dataIcS5_EEE1s = comdat any

$_ZZN5boost16re_detail_10740019basic_regex_creatorIcNS_12regex_traitsIcNS_16cpp_regex_traitsIcEEEEEC1EPNS0_10regex_dataIcS5_EEE1l = comdat any

$_ZZN5boost16re_detail_10740019basic_regex_creatorIcNS_12regex_traitsIcNS_16cpp_regex_traitsIcEEEEEC1EPNS0_10regex_dataIcS5_EEE1u = comdat any

$_ZZN5boost16re_detail_10740019basic_regex_creatorIcNS_12regex_traitsIcNS_16cpp_regex_traitsIcEEEEEC1EPNS0_10regex_dataIcS5_EEE1a = comdat any

$_ZZNK5boost16re_detail_10740031cpp_regex_traits_implementationIcE20lookup_classname_impEPKcS4_E5masks = comdat any

$_ZZN5boost16re_detail_10740020get_default_class_idIcEEiPKT_S4_E4data = comdat any

$_ZZN5boost16re_detail_10740020get_default_class_idIcEEiPKT_S4_E6ranges = comdat any

$_ZTVN5boost16re_detail_10740010parser_bufIcSt11char_traitsIcEEE = comdat any

$_ZTSN5boost16re_detail_10740010parser_bufIcSt11char_traitsIcEEE = comdat any

$_ZTIN5boost16re_detail_10740010parser_bufIcSt11char_traitsIcEEE = comdat any

$_ZZN5boost16re_detail_10740018basic_regex_parserIcNS_12regex_traitsIcNS_16cpp_regex_traitsIcEEEEE21parse_extended_escapeEvE18incomplete_message = comdat any

$_ZZN5boost16re_detail_10740019get_escape_R_stringIcEENS_12disable_if_cIXgtstT_Li1EEPKS3_E4typeEvE2e2 = comdat any

$_ZZN5boost16re_detail_10740018basic_regex_parserIcNS_12regex_traitsIcNS_16cpp_regex_traitsIcEEEEE18parse_repeat_rangeEbE18incomplete_message = comdat any

$_ZZN5boost16re_detail_10740018basic_regex_parserIcNS_12regex_traitsIcNS_16cpp_regex_traitsIcEEEEE9parse_setEvE18incomplete_message = comdat any

$_ZZN5boost16re_detail_10740018basic_regex_parserIcNS_12regex_traitsIcNS_16cpp_regex_traitsIcEEEEE15parse_inner_setERNS0_14basic_char_setIcS5_EEE18incomplete_message = comdat any

$_ZZN5boost16re_detail_10740018basic_regex_parserIcNS_12regex_traitsIcNS_16cpp_regex_traitsIcEEEEE14add_emacs_codeEbE7s_punct = comdat any

@_ZTVN10__cxxabiv117__class_type_infoE = external global [0 x ptr]
@_ZTSN5boost6system14error_categoryE = linkonce_odr constant [32 x i8] c"N5boost6system14error_categoryE\00", comdat, align 1
@_ZTIN5boost6system14error_categoryE = linkonce_odr constant { ptr, ptr } { ptr getelementptr inbounds (ptr, ptr @_ZTVN10__cxxabiv117__class_type_infoE, i64 2), ptr @_ZTSN5boost6system14error_categoryE }, comdat, align 8
@_ZTVN5boost6system6detail22generic_error_categoryE = linkonce_odr unnamed_addr constant { [9 x ptr] } { [9 x ptr] [ptr null, ptr @_ZTIN5boost6system6detail22generic_error_categoryE, ptr @_ZNK5boost6system6detail22generic_error_category4nameEv, ptr @_ZNK5boost6system14error_category23default_error_conditionEi, ptr @_ZNK5boost6system14error_category10equivalentEiRKNS0_15error_conditionE, ptr @_ZNK5boost6system14error_category10equivalentERKNS0_10error_codeEi, ptr @_ZNK5boost6system6detail22generic_error_category7messageB5cxx11Ei, ptr @_ZNK5boost6system6detail22generic_error_category7messageEiPcm, ptr @_ZNK5boost6system14error_category6failedEi] }, comdat, align 8
@_ZTVN10__cxxabiv120__si_class_type_infoE = external global [0 x ptr]
@_ZTSN5boost6system6detail22generic_error_categoryE = linkonce_odr constant [47 x i8] c"N5boost6system6detail22generic_error_categoryE\00", comdat, align 1
@_ZTIN5boost6system6detail22generic_error_categoryE = linkonce_odr constant { ptr, ptr, ptr } { ptr getelementptr inbounds (ptr, ptr @_ZTVN10__cxxabiv120__si_class_type_infoE, i64 2), ptr @_ZTSN5boost6system6detail22generic_error_categoryE, ptr @_ZTIN5boost6system14error_categoryE }, comdat, align 8
@_ZTVN5boost6system6detail21system_error_categoryE = linkonce_odr unnamed_addr constant { [9 x ptr] } { [9 x ptr] [ptr null, ptr @_ZTIN5boost6system6detail21system_error_categoryE, ptr @_ZNK5boost6system6detail21system_error_category4nameEv, ptr @_ZNK5boost6system6detail21system_error_category23default_error_conditionEi, ptr @_ZNK5boost6system14error_category10equivalentEiRKNS0_15error_conditionE, ptr @_ZNK5boost6system14error_category10equivalentERKNS0_10error_codeEi, ptr @_ZNK5boost6system6detail21system_error_category7messageB5cxx11Ei, ptr @_ZNK5boost6system6detail21system_error_category7messageEiPcm, ptr @_ZNK5boost6system14error_category6failedEi] }, comdat, align 8
@_ZTSN5boost6system6detail21system_error_categoryE = linkonce_odr constant [46 x i8] c"N5boost6system6detail21system_error_categoryE\00", comdat, align 1
@_ZTIN5boost6system6detail21system_error_categoryE = linkonce_odr constant { ptr, ptr, ptr } { ptr getelementptr inbounds (ptr, ptr @_ZTVN10__cxxabiv120__si_class_type_infoE, i64 2), ptr @_ZTSN5boost6system6detail21system_error_categoryE, ptr @_ZTIN5boost6system14error_categoryE }, comdat, align 8
@_ZTISt13runtime_error = external constant ptr
@_ZN5boost6system6detail10cat_holderIvE24system_category_instanceE = linkonce_odr constant { ptr, i64 } { ptr getelementptr inbounds ({ [9 x ptr] }, ptr @_ZTVN5boost6system6detail21system_error_categoryE, i32 0, inrange i32 0, i32 2), i64 -8093018978436915045 }, comdat, align 8
@_ZN5boost6system6detail10cat_holderIvE25generic_category_instanceE = linkonce_odr constant { ptr, i64 } { ptr getelementptr inbounds ({ [9 x ptr] }, ptr @_ZTVN5boost6system6detail22generic_error_categoryE, i32 0, inrange i32 0, i32 2), i64 -5572340897628102899 }, comdat, align 8
@.str = private unnamed_addr constant [50 x i8] c"basic_string: construction from null is not valid\00", align 1
@_ZZN5boost6system6detail16is_generic_valueEiE3gen = linkonce_odr local_unnamed_addr constant [79 x i32] [i32 0, i32 97, i32 98, i32 99, i32 106, i32 7, i32 33, i32 14, i32 9, i32 74, i32 32, i32 103, i32 114, i32 111, i32 104, i32 18, i32 89, i32 16, i32 39, i32 8, i32 17, i32 27, i32 36, i32 38, i32 113, i32 43, i32 84, i32 25, i32 4, i32 22, i32 29, i32 5, i32 21, i32 90, i32 100, i32 102, i32 101, i32 105, i32 10, i32 67, i32 37, i32 61, i32 42, i32 92, i32 28, i32 63, i32 6, i32 19, i32 2, i32 3, i32 20, i32 88, i32 60, i32 107, i32 12, i32 95, i32 125, i32 115, i32 1, i32 95, i32 11, i32 130, i32 13, i32 71, i32 93, i32 30, i32 35, i32 11, i32 34, i32 131, i32 62, i32 26, i32 110, i32 23, i32 24, i32 31, i32 40, i32 75, i32 91], comdat, align 16
@__dso_handle = external hidden global i8
@.str.3 = private unnamed_addr constant [3 x i8] c": \00", align 1
@.str.4 = private unnamed_addr constant [21 x i8] c"basic_string::append\00", align 1
@.str.5 = private unnamed_addr constant [12 x i8] c"open failed\00", align 1
@.str.6 = private unnamed_addr constant [121 x i8] c"generated/home/dtcxzyw/WorkSpace/Projects/compilers/llvm-opt-benchmark/bench/folly/folly/folly/experimental/TestUtil.cpp\00", align 1
@.str.7 = private unnamed_addr constant [32 x i8] c"unlink on construction failed: \00", align 1
@.str.8 = private unnamed_addr constant [20 x i8] c"%%%%-%%%%-%%%%-%%%%\00", align 1
@.str.9 = private unnamed_addr constant [21 x i8] c".%%%%-%%%%-%%%%-%%%%\00", align 1
@_ZTISt12system_error = external constant ptr
@_ZTVSt12system_error = external unnamed_addr constant { [5 x ptr] }, align 8
@.str.11 = private unnamed_addr constant [55 x i8] c"%s: __pos (which is %zu) > this->size() (which is %zu)\00", align 1
@.str.12 = private unnamed_addr constant [13 x i8] c"close failed\00", align 1
@.str.13 = private unnamed_addr constant [51 x i8] c"Check failed: scope_ != Scope::UNLINK_IMMEDIATELY \00", align 1
@.str.15 = private unnamed_addr constant [20 x i8] c"close failed (fd = \00", align 1
@.str.16 = private unnamed_addr constant [4 x i8] c"): \00", align 1
@.str.17 = private unnamed_addr constant [31 x i8] c"unlink on destruction failed: \00", align 1
@.str.18 = private unnamed_addr constant [41 x i8] c"recursive delete on destruction failed: \00", align 1
@.str.19 = private unnamed_addr constant [34 x i8] c"Invalid regular expression object\00", align 1
@_ZTVN10__cxxabiv121__vmi_class_type_infoE = external global [0 x ptr]
@_ZTSN5boost10wrapexceptISt16invalid_argumentEE = linkonce_odr constant [43 x i8] c"N5boost10wrapexceptISt16invalid_argumentEE\00", comdat, align 1
@_ZTSN5boost16exception_detail10clone_baseE = linkonce_odr constant [39 x i8] c"N5boost16exception_detail10clone_baseE\00", comdat, align 1
@_ZTIN5boost16exception_detail10clone_baseE = linkonce_odr constant { ptr, ptr } { ptr getelementptr inbounds (ptr, ptr @_ZTVN10__cxxabiv117__class_type_infoE, i64 2), ptr @_ZTSN5boost16exception_detail10clone_baseE }, comdat, align 8
@_ZTISt16invalid_argument = external constant ptr
@_ZTSN5boost9exceptionE = linkonce_odr constant [19 x i8] c"N5boost9exceptionE\00", comdat, align 1
@_ZTIN5boost9exceptionE = linkonce_odr constant { ptr, ptr } { ptr getelementptr inbounds (ptr, ptr @_ZTVN10__cxxabiv117__class_type_infoE, i64 2), ptr @_ZTSN5boost9exceptionE }, comdat, align 8
@_ZTIN5boost10wrapexceptISt16invalid_argumentEE = linkonce_odr constant { ptr, ptr, i32, i32, ptr, i64, ptr, i64, ptr, i64 } { ptr getelementptr inbounds (ptr, ptr @_ZTVN10__cxxabiv121__vmi_class_type_infoE, i64 2), ptr @_ZTSN5boost10wrapexceptISt16invalid_argumentEE, i32 0, i32 3, ptr @_ZTIN5boost16exception_detail10clone_baseE, i64 2, ptr @_ZTISt16invalid_argument, i64 2050, ptr @_ZTIN5boost9exceptionE, i64 6146 }, comdat, align 8
@_ZTVN5boost10wrapexceptISt16invalid_argumentEE = linkonce_odr unnamed_addr constant { [6 x ptr], [5 x ptr], [4 x ptr] } { [6 x ptr] [ptr null, ptr @_ZTIN5boost10wrapexceptISt16invalid_argumentEE, ptr @_ZNK5boost10wrapexceptISt16invalid_argumentE5cloneEv, ptr @_ZNK5boost10wrapexceptISt16invalid_argumentE7rethrowEv, ptr @_ZN5boost10wrapexceptISt16invalid_argumentED2Ev, ptr @_ZN5boost10wrapexceptISt16invalid_argumentED0Ev], [5 x ptr] [ptr inttoptr (i64 -8 to ptr), ptr @_ZTIN5boost10wrapexceptISt16invalid_argumentEE, ptr @_ZThn8_N5boost10wrapexceptISt16invalid_argumentED1Ev, ptr @_ZThn8_N5boost10wrapexceptISt16invalid_argumentED0Ev, ptr @_ZNKSt11logic_error4whatEv], [4 x ptr] [ptr inttoptr (i64 -24 to ptr), ptr @_ZTIN5boost10wrapexceptISt16invalid_argumentEE, ptr @_ZThn24_N5boost10wrapexceptISt16invalid_argumentED1Ev, ptr @_ZThn24_N5boost10wrapexceptISt16invalid_argumentED0Ev] }, comdat, align 8
@_ZTVN5boost16exception_detail10clone_baseE = linkonce_odr unnamed_addr constant { [6 x ptr] } { [6 x ptr] [ptr null, ptr @_ZTIN5boost16exception_detail10clone_baseE, ptr @__cxa_pure_virtual, ptr @__cxa_pure_virtual, ptr @_ZN5boost16exception_detail10clone_baseD2Ev, ptr @_ZN5boost16exception_detail10clone_baseD0Ev] }, comdat, align 8
@_ZTVSt16invalid_argument = external unnamed_addr constant { [5 x ptr] }, align 8
@_ZTVN5boost9exceptionE = linkonce_odr unnamed_addr constant { [4 x ptr] } { [4 x ptr] [ptr null, ptr @_ZTIN5boost9exceptionE, ptr @__cxa_pure_virtual, ptr @__cxa_pure_virtual] }, comdat, align 8
@.str.20 = private unnamed_addr constant [23 x i8] c"vector::_M_fill_insert\00", align 1
@_ZZN5boost16re_detail_10740012perl_matcherIPKcSaINS_9sub_matchIS3_EEENS_12regex_traitsIcNS_16cpp_regex_traitsIcEEEEE16match_all_statesEvE14s_match_vtable = linkonce_odr local_unnamed_addr constant [34 x { i64, i64 }] [{ i64, i64 } { i64 ptrtoint (ptr @_ZN5boost16re_detail_10740012perl_matcherIPKcSaINS_9sub_matchIS3_EEENS_12regex_traitsIcNS_16cpp_regex_traitsIcEEEEE15match_startmarkEv to i64), i64 0 }, { i64, i64 } { i64 ptrtoint (ptr @_ZN5boost16re_detail_10740012perl_matcherIPKcSaINS_9sub_matchIS3_EEENS_12regex_traitsIcNS_16cpp_regex_traitsIcEEEEE13match_endmarkEv to i64), i64 0 }, { i64, i64 } { i64 ptrtoint (ptr @_ZN5boost16re_detail_10740012perl_matcherIPKcSaINS_9sub_matchIS3_EEENS_12regex_traitsIcNS_16cpp_regex_traitsIcEEEEE13match_literalEv to i64), i64 0 }, { i64, i64 } { i64 ptrtoint (ptr @_ZN5boost16re_detail_10740012perl_matcherIPKcSaINS_9sub_matchIS3_EEENS_12regex_traitsIcNS_16cpp_regex_traitsIcEEEEE16match_start_lineEv to i64), i64 0 }, { i64, i64 } { i64 ptrtoint (ptr @_ZN5boost16re_detail_10740012perl_matcherIPKcSaINS_9sub_matchIS3_EEENS_12regex_traitsIcNS_16cpp_regex_traitsIcEEEEE14match_end_lineEv to i64), i64 0 }, { i64, i64 } { i64 ptrtoint (ptr @_ZN5boost16re_detail_10740012perl_matcherIPKcSaINS_9sub_matchIS3_EEENS_12regex_traitsIcNS_16cpp_regex_traitsIcEEEEE10match_wildEv to i64), i64 0 }, { i64, i64 } { i64 ptrtoint (ptr @_ZN5boost16re_detail_10740012perl_matcherIPKcSaINS_9sub_matchIS3_EEENS_12regex_traitsIcNS_16cpp_regex_traitsIcEEEEE11match_matchEv to i64), i64 0 }, { i64, i64 } { i64 ptrtoint (ptr @_ZN5boost16re_detail_10740012perl_matcherIPKcSaINS_9sub_matchIS3_EEENS_12regex_traitsIcNS_16cpp_regex_traitsIcEEEEE19match_word_boundaryEv to i64), i64 0 }, { i64, i64 } { i64 ptrtoint (ptr @_ZN5boost16re_detail_10740012perl_matcherIPKcSaINS_9sub_matchIS3_EEENS_12regex_traitsIcNS_16cpp_regex_traitsIcEEEEE17match_within_wordEv to i64), i64 0 }, { i64, i64 } { i64 ptrtoint (ptr @_ZN5boost16re_detail_10740012perl_matcherIPKcSaINS_9sub_matchIS3_EEENS_12regex_traitsIcNS_16cpp_regex_traitsIcEEEEE16match_word_startEv to i64), i64 0 }, { i64, i64 } { i64 ptrtoint (ptr @_ZN5boost16re_detail_10740012perl_matcherIPKcSaINS_9sub_matchIS3_EEENS_12regex_traitsIcNS_16cpp_regex_traitsIcEEEEE14match_word_endEv to i64), i64 0 }, { i64, i64 } { i64 ptrtoint (ptr @_ZN5boost16re_detail_10740012perl_matcherIPKcSaINS_9sub_matchIS3_EEENS_12regex_traitsIcNS_16cpp_regex_traitsIcEEEEE18match_buffer_startEv to i64), i64 0 }, { i64, i64 } { i64 ptrtoint (ptr @_ZN5boost16re_detail_10740012perl_matcherIPKcSaINS_9sub_matchIS3_EEENS_12regex_traitsIcNS_16cpp_regex_traitsIcEEEEE16match_buffer_endEv to i64), i64 0 }, { i64, i64 } { i64 ptrtoint (ptr @_ZN5boost16re_detail_10740012perl_matcherIPKcSaINS_9sub_matchIS3_EEENS_12regex_traitsIcNS_16cpp_regex_traitsIcEEEEE13match_backrefEv to i64), i64 0 }, { i64, i64 } { i64 ptrtoint (ptr @_ZN5boost16re_detail_10740012perl_matcherIPKcSaINS_9sub_matchIS3_EEENS_12regex_traitsIcNS_16cpp_regex_traitsIcEEEEE14match_long_setEv to i64), i64 0 }, { i64, i64 } { i64 ptrtoint (ptr @_ZN5boost16re_detail_10740012perl_matcherIPKcSaINS_9sub_matchIS3_EEENS_12regex_traitsIcNS_16cpp_regex_traitsIcEEEEE9match_setEv to i64), i64 0 }, { i64, i64 } { i64 ptrtoint (ptr @_ZN5boost16re_detail_10740012perl_matcherIPKcSaINS_9sub_matchIS3_EEENS_12regex_traitsIcNS_16cpp_regex_traitsIcEEEEE10match_jumpEv to i64), i64 0 }, { i64, i64 } { i64 ptrtoint (ptr @_ZN5boost16re_detail_10740012perl_matcherIPKcSaINS_9sub_matchIS3_EEENS_12regex_traitsIcNS_16cpp_regex_traitsIcEEEEE9match_altEv to i64), i64 0 }, { i64, i64 } { i64 ptrtoint (ptr @_ZN5boost16re_detail_10740012perl_matcherIPKcSaINS_9sub_matchIS3_EEENS_12regex_traitsIcNS_16cpp_regex_traitsIcEEEEE9match_repEv to i64), i64 0 }, { i64, i64 } { i64 ptrtoint (ptr @_ZN5boost16re_detail_10740012perl_matcherIPKcSaINS_9sub_matchIS3_EEENS_12regex_traitsIcNS_16cpp_regex_traitsIcEEEEE15match_combiningEv to i64), i64 0 }, { i64, i64 } { i64 ptrtoint (ptr @_ZN5boost16re_detail_10740012perl_matcherIPKcSaINS_9sub_matchIS3_EEENS_12regex_traitsIcNS_16cpp_regex_traitsIcEEEEE21match_soft_buffer_endEv to i64), i64 0 }, { i64, i64 } { i64 ptrtoint (ptr @_ZN5boost16re_detail_10740012perl_matcherIPKcSaINS_9sub_matchIS3_EEENS_12regex_traitsIcNS_16cpp_regex_traitsIcEEEEE22match_restart_continueEv to i64), i64 0 }, { i64, i64 } { i64 ptrtoint (ptr @_ZN5boost16re_detail_10740012perl_matcherIPKcSaINS_9sub_matchIS3_EEENS_12regex_traitsIcNS_16cpp_regex_traitsIcEEEEE25match_dot_repeat_dispatchEv to i64), i64 0 }, { i64, i64 } { i64 ptrtoint (ptr @_ZN5boost16re_detail_10740012perl_matcherIPKcSaINS_9sub_matchIS3_EEENS_12regex_traitsIcNS_16cpp_regex_traitsIcEEEEE17match_char_repeatEv to i64), i64 0 }, { i64, i64 } { i64 ptrtoint (ptr @_ZN5boost16re_detail_10740012perl_matcherIPKcSaINS_9sub_matchIS3_EEENS_12regex_traitsIcNS_16cpp_regex_traitsIcEEEEE16match_set_repeatEv to i64), i64 0 }, { i64, i64 } { i64 ptrtoint (ptr @_ZN5boost16re_detail_10740012perl_matcherIPKcSaINS_9sub_matchIS3_EEENS_12regex_traitsIcNS_16cpp_regex_traitsIcEEEEE21match_long_set_repeatEv to i64), i64 0 }, { i64, i64 } { i64 ptrtoint (ptr @_ZN5boost16re_detail_10740012perl_matcherIPKcSaINS_9sub_matchIS3_EEENS_12regex_traitsIcNS_16cpp_regex_traitsIcEEEEE14match_backstepEv to i64), i64 0 }, { i64, i64 } { i64 ptrtoint (ptr @_ZN5boost16re_detail_10740012perl_matcherIPKcSaINS_9sub_matchIS3_EEENS_12regex_traitsIcNS_16cpp_regex_traitsIcEEEEE20match_assert_backrefEv to i64), i64 0 }, { i64, i64 } { i64 ptrtoint (ptr @_ZN5boost16re_detail_10740012perl_matcherIPKcSaINS_9sub_matchIS3_EEENS_12regex_traitsIcNS_16cpp_regex_traitsIcEEEEE17match_toggle_caseEv to i64), i64 0 }, { i64, i64 } { i64 ptrtoint (ptr @_ZN5boost16re_detail_10740012perl_matcherIPKcSaINS_9sub_matchIS3_EEENS_12regex_traitsIcNS_16cpp_regex_traitsIcEEEEE15match_recursionEv to i64), i64 0 }, { i64, i64 } { i64 ptrtoint (ptr @_ZN5boost16re_detail_10740012perl_matcherIPKcSaINS_9sub_matchIS3_EEENS_12regex_traitsIcNS_16cpp_regex_traitsIcEEEEE10match_failEv to i64), i64 0 }, { i64, i64 } { i64 ptrtoint (ptr @_ZN5boost16re_detail_10740012perl_matcherIPKcSaINS_9sub_matchIS3_EEENS_12regex_traitsIcNS_16cpp_regex_traitsIcEEEEE12match_acceptEv to i64), i64 0 }, { i64, i64 } { i64 ptrtoint (ptr @_ZN5boost16re_detail_10740012perl_matcherIPKcSaINS_9sub_matchIS3_EEENS_12regex_traitsIcNS_16cpp_regex_traitsIcEEEEE12match_commitEv to i64), i64 0 }, { i64, i64 } { i64 ptrtoint (ptr @_ZN5boost16re_detail_10740012perl_matcherIPKcSaINS_9sub_matchIS3_EEENS_12regex_traitsIcNS_16cpp_regex_traitsIcEEEEE10match_thenEv to i64), i64 0 }], comdat, align 16
@.str.21 = private unnamed_addr constant [20 x i8] c"basic_string::erase\00", align 1
@.str.22 = private unnamed_addr constant [16 x i8] c"vector::reserve\00", align 1
@.str.23 = private unnamed_addr constant [26 x i8] c"vector::_M_realloc_insert\00", align 1
@.str.24 = private unnamed_addr constant [65 x i8] c"Attempt to access an uninitialized boost::match_results<> class.\00", align 1
@_ZTSN5boost10wrapexceptISt11logic_errorEE = linkonce_odr constant [38 x i8] c"N5boost10wrapexceptISt11logic_errorEE\00", comdat, align 1
@_ZTISt11logic_error = external constant ptr
@_ZTIN5boost10wrapexceptISt11logic_errorEE = linkonce_odr constant { ptr, ptr, i32, i32, ptr, i64, ptr, i64, ptr, i64 } { ptr getelementptr inbounds (ptr, ptr @_ZTVN10__cxxabiv121__vmi_class_type_infoE, i64 2), ptr @_ZTSN5boost10wrapexceptISt11logic_errorEE, i32 0, i32 3, ptr @_ZTIN5boost16exception_detail10clone_baseE, i64 2, ptr @_ZTISt11logic_error, i64 2050, ptr @_ZTIN5boost9exceptionE, i64 6146 }, comdat, align 8
@_ZTVN5boost10wrapexceptISt11logic_errorEE = linkonce_odr unnamed_addr constant { [6 x ptr], [5 x ptr], [4 x ptr] } { [6 x ptr] [ptr null, ptr @_ZTIN5boost10wrapexceptISt11logic_errorEE, ptr @_ZNK5boost10wrapexceptISt11logic_errorE5cloneEv, ptr @_ZNK5boost10wrapexceptISt11logic_errorE7rethrowEv, ptr @_ZN5boost10wrapexceptISt11logic_errorED2Ev, ptr @_ZN5boost10wrapexceptISt11logic_errorED0Ev], [5 x ptr] [ptr inttoptr (i64 -8 to ptr), ptr @_ZTIN5boost10wrapexceptISt11logic_errorEE, ptr @_ZThn8_N5boost10wrapexceptISt11logic_errorED1Ev, ptr @_ZThn8_N5boost10wrapexceptISt11logic_errorED0Ev, ptr @_ZNKSt11logic_error4whatEv], [4 x ptr] [ptr inttoptr (i64 -24 to ptr), ptr @_ZTIN5boost10wrapexceptISt11logic_errorEE, ptr @_ZThn24_N5boost10wrapexceptISt11logic_errorED1Ev, ptr @_ZThn24_N5boost10wrapexceptISt11logic_errorED0Ev] }, comdat, align 8
@_ZZN5boost16re_detail_10740012perl_matcherIPKcSaINS_9sub_matchIS3_EEENS_12regex_traitsIcNS_16cpp_regex_traitsIcEEEEE6unwindEbE14s_unwind_table = linkonce_odr local_unnamed_addr constant [19 x { i64, i64 }] [{ i64, i64 } { i64 ptrtoint (ptr @_ZN5boost16re_detail_10740012perl_matcherIPKcSaINS_9sub_matchIS3_EEENS_12regex_traitsIcNS_16cpp_regex_traitsIcEEEEE10unwind_endEb to i64), i64 0 }, { i64, i64 } { i64 ptrtoint (ptr @_ZN5boost16re_detail_10740012perl_matcherIPKcSaINS_9sub_matchIS3_EEENS_12regex_traitsIcNS_16cpp_regex_traitsIcEEEEE12unwind_parenEb to i64), i64 0 }, { i64, i64 } { i64 ptrtoint (ptr @_ZN5boost16re_detail_10740012perl_matcherIPKcSaINS_9sub_matchIS3_EEENS_12regex_traitsIcNS_16cpp_regex_traitsIcEEEEE24unwind_recursion_stopperEb to i64), i64 0 }, { i64, i64 } { i64 ptrtoint (ptr @_ZN5boost16re_detail_10740012perl_matcherIPKcSaINS_9sub_matchIS3_EEENS_12regex_traitsIcNS_16cpp_regex_traitsIcEEEEE16unwind_assertionEb to i64), i64 0 }, { i64, i64 } { i64 ptrtoint (ptr @_ZN5boost16re_detail_10740012perl_matcherIPKcSaINS_9sub_matchIS3_EEENS_12regex_traitsIcNS_16cpp_regex_traitsIcEEEEE10unwind_altEb to i64), i64 0 }, { i64, i64 } { i64 ptrtoint (ptr @_ZN5boost16re_detail_10740012perl_matcherIPKcSaINS_9sub_matchIS3_EEENS_12regex_traitsIcNS_16cpp_regex_traitsIcEEEEE23unwind_repeater_counterEb to i64), i64 0 }, { i64, i64 } { i64 ptrtoint (ptr @_ZN5boost16re_detail_10740012perl_matcherIPKcSaINS_9sub_matchIS3_EEENS_12regex_traitsIcNS_16cpp_regex_traitsIcEEEEE18unwind_extra_blockEb to i64), i64 0 }, { i64, i64 } { i64 ptrtoint (ptr @_ZN5boost16re_detail_10740012perl_matcherIPKcSaINS_9sub_matchIS3_EEENS_12regex_traitsIcNS_16cpp_regex_traitsIcEEEEE27unwind_greedy_single_repeatEb to i64), i64 0 }, { i64, i64 } { i64 ptrtoint (ptr @_ZN5boost16re_detail_10740012perl_matcherIPKcSaINS_9sub_matchIS3_EEENS_12regex_traitsIcNS_16cpp_regex_traitsIcEEEEE22unwind_slow_dot_repeatEb to i64), i64 0 }, { i64, i64 } { i64 ptrtoint (ptr @_ZN5boost16re_detail_10740012perl_matcherIPKcSaINS_9sub_matchIS3_EEENS_12regex_traitsIcNS_16cpp_regex_traitsIcEEEEE22unwind_fast_dot_repeatEb to i64), i64 0 }, { i64, i64 } { i64 ptrtoint (ptr @_ZN5boost16re_detail_10740012perl_matcherIPKcSaINS_9sub_matchIS3_EEENS_12regex_traitsIcNS_16cpp_regex_traitsIcEEEEE18unwind_char_repeatEb to i64), i64 0 }, { i64, i64 } { i64 ptrtoint (ptr @_ZN5boost16re_detail_10740012perl_matcherIPKcSaINS_9sub_matchIS3_EEENS_12regex_traitsIcNS_16cpp_regex_traitsIcEEEEE23unwind_short_set_repeatEb to i64), i64 0 }, { i64, i64 } { i64 ptrtoint (ptr @_ZN5boost16re_detail_10740012perl_matcherIPKcSaINS_9sub_matchIS3_EEENS_12regex_traitsIcNS_16cpp_regex_traitsIcEEEEE22unwind_long_set_repeatEb to i64), i64 0 }, { i64, i64 } { i64 ptrtoint (ptr @_ZN5boost16re_detail_10740012perl_matcherIPKcSaINS_9sub_matchIS3_EEENS_12regex_traitsIcNS_16cpp_regex_traitsIcEEEEE24unwind_non_greedy_repeatEb to i64), i64 0 }, { i64, i64 } { i64 ptrtoint (ptr @_ZN5boost16re_detail_10740012perl_matcherIPKcSaINS_9sub_matchIS3_EEENS_12regex_traitsIcNS_16cpp_regex_traitsIcEEEEE16unwind_recursionEb to i64), i64 0 }, { i64, i64 } { i64 ptrtoint (ptr @_ZN5boost16re_detail_10740012perl_matcherIPKcSaINS_9sub_matchIS3_EEENS_12regex_traitsIcNS_16cpp_regex_traitsIcEEEEE20unwind_recursion_popEb to i64), i64 0 }, { i64, i64 } { i64 ptrtoint (ptr @_ZN5boost16re_detail_10740012perl_matcherIPKcSaINS_9sub_matchIS3_EEENS_12regex_traitsIcNS_16cpp_regex_traitsIcEEEEE13unwind_commitEb to i64), i64 0 }, { i64, i64 } { i64 ptrtoint (ptr @_ZN5boost16re_detail_10740012perl_matcherIPKcSaINS_9sub_matchIS3_EEENS_12regex_traitsIcNS_16cpp_regex_traitsIcEEEEE11unwind_thenEb to i64), i64 0 }, { i64, i64 } { i64 ptrtoint (ptr @_ZN5boost16re_detail_10740012perl_matcherIPKcSaINS_9sub_matchIS3_EEENS_12regex_traitsIcNS_16cpp_regex_traitsIcEEEEE11unwind_caseEb to i64), i64 0 }], comdat, align 16
@_ZZN5boost12object_cacheINS_16re_detail_10740021cpp_regex_traits_baseIcEENS1_31cpp_regex_traits_implementationIcEEE3getERKS3_mE3mut = linkonce_odr global %"class.boost::static_mutex" zeroinitializer, comdat, align 8
@.str.25 = private unnamed_addr constant [54 x i8] c"Error in thread safety code: could not acquire a lock\00", align 1
@_ZZN5boost12object_cacheINS_16re_detail_10740021cpp_regex_traits_baseIcEENS1_31cpp_regex_traits_implementationIcEEE6do_getERKS3_mE6s_data = linkonce_odr global %"struct.boost::object_cache<boost::re_detail_107400::cpp_regex_traits_base<char>, boost::re_detail_107400::cpp_regex_traits_implementation<char>>::data" zeroinitializer, comdat, align 8
@_ZGVZN5boost12object_cacheINS_16re_detail_10740021cpp_regex_traits_baseIcEENS1_31cpp_regex_traits_implementationIcEEE6do_getERKS3_mE6s_data = linkonce_odr global i64 0, comdat, align 8
@.str.26 = private unnamed_addr constant [33 x i8] c"Unable to open message catalog: \00", align 1
@_ZZN5boost16re_detail_10740031cpp_regex_traits_implementationIcE4initEvE5masks = linkonce_odr local_unnamed_addr constant [16 x i32] [i32 3072, i32 1024, i32 2, i32 2048, i32 3076, i32 134217728, i32 512, i32 16384, i32 4, i32 8192, i32 256, i32 268435456, i32 4096, i32 16777216, i32 33554432, i32 67108864], comdat, align 16
@_ZZN5boost16re_detail_10740031cpp_regex_traits_implementationIcE4initEvE11null_stringB5cxx11 = linkonce_odr global %"class.std::__cxx11::basic_string" zeroinitializer, comdat, align 8
@_ZGVZN5boost16re_detail_10740031cpp_regex_traits_implementationIcE4initEvE11null_stringB5cxx11 = linkonce_odr global i64 0, comdat, align 8
@_ZZN5boost16cpp_regex_traitsIcE14get_mutex_instEvE7s_mutex = linkonce_odr global %"class.boost::static_mutex" zeroinitializer, comdat, align 8
@_ZZN5boost16cpp_regex_traitsIcE21get_catalog_name_instB5cxx11EvE6s_nameB5cxx11 = linkonce_odr global %"class.std::__cxx11::basic_string" zeroinitializer, comdat, align 8
@_ZGVZN5boost16cpp_regex_traitsIcE21get_catalog_name_instB5cxx11EvE6s_nameB5cxx11 = linkonce_odr global i64 0, comdat, align 8
@_ZSt19piecewise_construct = linkonce_odr constant %"struct.std::piecewise_construct_t" zeroinitializer, comdat, align 1
@_ZTVN5boost6detail17sp_counted_impl_pINS_16re_detail_10740031cpp_regex_traits_implementationIcEEEE = linkonce_odr unnamed_addr constant { [9 x ptr] } { [9 x ptr] [ptr null, ptr @_ZTIN5boost6detail17sp_counted_impl_pINS_16re_detail_10740031cpp_regex_traits_implementationIcEEEE, ptr @_ZN5boost6detail15sp_counted_baseD2Ev, ptr @_ZN5boost6detail17sp_counted_impl_pINS_16re_detail_10740031cpp_regex_traits_implementationIcEEED0Ev, ptr @_ZN5boost6detail17sp_counted_impl_pINS_16re_detail_10740031cpp_regex_traits_implementationIcEEE7disposeEv, ptr @_ZN5boost6detail15sp_counted_base7destroyEv, ptr @_ZN5boost6detail17sp_counted_impl_pINS_16re_detail_10740031cpp_regex_traits_implementationIcEEE11get_deleterERKSt9type_info, ptr @_ZN5boost6detail17sp_counted_impl_pINS_16re_detail_10740031cpp_regex_traits_implementationIcEEE17get_local_deleterERKSt9type_info, ptr @_ZN5boost6detail17sp_counted_impl_pINS_16re_detail_10740031cpp_regex_traits_implementationIcEEE19get_untyped_deleterEv] }, comdat, align 8
@_ZTSN5boost6detail17sp_counted_impl_pINS_16re_detail_10740031cpp_regex_traits_implementationIcEEEE = linkonce_odr constant [95 x i8] c"N5boost6detail17sp_counted_impl_pINS_16re_detail_10740031cpp_regex_traits_implementationIcEEEE\00", comdat, align 1
@_ZTSN5boost6detail15sp_counted_baseE = linkonce_odr constant [33 x i8] c"N5boost6detail15sp_counted_baseE\00", comdat, align 1
@_ZTIN5boost6detail15sp_counted_baseE = linkonce_odr constant { ptr, ptr } { ptr getelementptr inbounds (ptr, ptr @_ZTVN10__cxxabiv117__class_type_infoE, i64 2), ptr @_ZTSN5boost6detail15sp_counted_baseE }, comdat, align 8
@_ZTIN5boost6detail17sp_counted_impl_pINS_16re_detail_10740031cpp_regex_traits_implementationIcEEEE = linkonce_odr constant { ptr, ptr, ptr } { ptr getelementptr inbounds (ptr, ptr @_ZTVN10__cxxabiv120__si_class_type_infoE, i64 2), ptr @_ZTSN5boost6detail17sp_counted_impl_pINS_16re_detail_10740031cpp_regex_traits_implementationIcEEEE, ptr @_ZTIN5boost6detail15sp_counted_baseE }, comdat, align 8
@_ZTSN5boost10wrapexceptISt13runtime_errorEE = linkonce_odr constant [40 x i8] c"N5boost10wrapexceptISt13runtime_errorEE\00", comdat, align 1
@_ZTIN5boost10wrapexceptISt13runtime_errorEE = linkonce_odr constant { ptr, ptr, i32, i32, ptr, i64, ptr, i64, ptr, i64 } { ptr getelementptr inbounds (ptr, ptr @_ZTVN10__cxxabiv121__vmi_class_type_infoE, i64 2), ptr @_ZTSN5boost10wrapexceptISt13runtime_errorEE, i32 0, i32 3, ptr @_ZTIN5boost16exception_detail10clone_baseE, i64 2, ptr @_ZTISt13runtime_error, i64 2050, ptr @_ZTIN5boost9exceptionE, i64 6146 }, comdat, align 8
@_ZTVN5boost10wrapexceptISt13runtime_errorEE = linkonce_odr unnamed_addr constant { [6 x ptr], [5 x ptr], [4 x ptr] } { [6 x ptr] [ptr null, ptr @_ZTIN5boost10wrapexceptISt13runtime_errorEE, ptr @_ZNK5boost10wrapexceptISt13runtime_errorE5cloneEv, ptr @_ZNK5boost10wrapexceptISt13runtime_errorE7rethrowEv, ptr @_ZN5boost10wrapexceptISt13runtime_errorED2Ev, ptr @_ZN5boost10wrapexceptISt13runtime_errorED0Ev], [5 x ptr] [ptr inttoptr (i64 -8 to ptr), ptr @_ZTIN5boost10wrapexceptISt13runtime_errorEE, ptr @_ZThn8_N5boost10wrapexceptISt13runtime_errorED1Ev, ptr @_ZThn8_N5boost10wrapexceptISt13runtime_errorED0Ev, ptr @_ZNKSt13runtime_error4whatEv], [4 x ptr] [ptr inttoptr (i64 -24 to ptr), ptr @_ZTIN5boost10wrapexceptISt13runtime_errorEE, ptr @_ZThn24_N5boost10wrapexceptISt13runtime_errorED1Ev, ptr @_ZThn24_N5boost10wrapexceptISt13runtime_errorED0Ev] }, comdat, align 8
@_ZTVN5boost6detail17sp_counted_impl_pINS_20regex_traits_wrapperINS_12regex_traitsIcNS_16cpp_regex_traitsIcEEEEEEEE = linkonce_odr unnamed_addr constant { [9 x ptr] } { [9 x ptr] [ptr null, ptr @_ZTIN5boost6detail17sp_counted_impl_pINS_20regex_traits_wrapperINS_12regex_traitsIcNS_16cpp_regex_traitsIcEEEEEEEE, ptr @_ZN5boost6detail15sp_counted_baseD2Ev, ptr @_ZN5boost6detail17sp_counted_impl_pINS_20regex_traits_wrapperINS_12regex_traitsIcNS_16cpp_regex_traitsIcEEEEEEED0Ev, ptr @_ZN5boost6detail17sp_counted_impl_pINS_20regex_traits_wrapperINS_12regex_traitsIcNS_16cpp_regex_traitsIcEEEEEEE7disposeEv, ptr @_ZN5boost6detail15sp_counted_base7destroyEv, ptr @_ZN5boost6detail17sp_counted_impl_pINS_20regex_traits_wrapperINS_12regex_traitsIcNS_16cpp_regex_traitsIcEEEEEEE11get_deleterERKSt9type_info, ptr @_ZN5boost6detail17sp_counted_impl_pINS_20regex_traits_wrapperINS_12regex_traitsIcNS_16cpp_regex_traitsIcEEEEEEE17get_local_deleterERKSt9type_info, ptr @_ZN5boost6detail17sp_counted_impl_pINS_20regex_traits_wrapperINS_12regex_traitsIcNS_16cpp_regex_traitsIcEEEEEEE19get_untyped_deleterEv] }, comdat, align 8
@_ZTSN5boost6detail17sp_counted_impl_pINS_20regex_traits_wrapperINS_12regex_traitsIcNS_16cpp_regex_traitsIcEEEEEEEE = linkonce_odr constant [111 x i8] c"N5boost6detail17sp_counted_impl_pINS_20regex_traits_wrapperINS_12regex_traitsIcNS_16cpp_regex_traitsIcEEEEEEEE\00", comdat, align 1
@_ZTIN5boost6detail17sp_counted_impl_pINS_20regex_traits_wrapperINS_12regex_traitsIcNS_16cpp_regex_traitsIcEEEEEEEE = linkonce_odr constant { ptr, ptr, ptr } { ptr getelementptr inbounds (ptr, ptr @_ZTVN10__cxxabiv120__si_class_type_infoE, i64 2), ptr @_ZTSN5boost6detail17sp_counted_impl_pINS_20regex_traits_wrapperINS_12regex_traitsIcNS_16cpp_regex_traitsIcEEEEEEEE, ptr @_ZTIN5boost6detail15sp_counted_baseE }, comdat, align 8
@_ZTVN5boost6detail17sp_counted_impl_pINS_16re_detail_10740026basic_regex_implementationIcNS_12regex_traitsIcNS_16cpp_regex_traitsIcEEEEEEEE = linkonce_odr unnamed_addr constant { [9 x ptr] } { [9 x ptr] [ptr null, ptr @_ZTIN5boost6detail17sp_counted_impl_pINS_16re_detail_10740026basic_regex_implementationIcNS_12regex_traitsIcNS_16cpp_regex_traitsIcEEEEEEEE, ptr @_ZN5boost6detail15sp_counted_baseD2Ev, ptr @_ZN5boost6detail17sp_counted_impl_pINS_16re_detail_10740026basic_regex_implementationIcNS_12regex_traitsIcNS_16cpp_regex_traitsIcEEEEEEED0Ev, ptr @_ZN5boost6detail17sp_counted_impl_pINS_16re_detail_10740026basic_regex_implementationIcNS_12regex_traitsIcNS_16cpp_regex_traitsIcEEEEEEE7disposeEv, ptr @_ZN5boost6detail15sp_counted_base7destroyEv, ptr @_ZN5boost6detail17sp_counted_impl_pINS_16re_detail_10740026basic_regex_implementationIcNS_12regex_traitsIcNS_16cpp_regex_traitsIcEEEEEEE11get_deleterERKSt9type_info, ptr @_ZN5boost6detail17sp_counted_impl_pINS_16re_detail_10740026basic_regex_implementationIcNS_12regex_traitsIcNS_16cpp_regex_traitsIcEEEEEEE17get_local_deleterERKSt9type_info, ptr @_ZN5boost6detail17sp_counted_impl_pINS_16re_detail_10740026basic_regex_implementationIcNS_12regex_traitsIcNS_16cpp_regex_traitsIcEEEEEEE19get_untyped_deleterEv] }, comdat, align 8
@_ZTSN5boost6detail17sp_counted_impl_pINS_16re_detail_10740026basic_regex_implementationIcNS_12regex_traitsIcNS_16cpp_regex_traitsIcEEEEEEEE = linkonce_odr constant [136 x i8] c"N5boost6detail17sp_counted_impl_pINS_16re_detail_10740026basic_regex_implementationIcNS_12regex_traitsIcNS_16cpp_regex_traitsIcEEEEEEEE\00", comdat, align 1
@_ZTIN5boost6detail17sp_counted_impl_pINS_16re_detail_10740026basic_regex_implementationIcNS_12regex_traitsIcNS_16cpp_regex_traitsIcEEEEEEEE = linkonce_odr constant { ptr, ptr, ptr } { ptr getelementptr inbounds (ptr, ptr @_ZTVN10__cxxabiv120__si_class_type_infoE, i64 2), ptr @_ZTSN5boost6detail17sp_counted_impl_pINS_16re_detail_10740026basic_regex_implementationIcNS_12regex_traitsIcNS_16cpp_regex_traitsIcEEEEEEEE, ptr @_ZTIN5boost6detail15sp_counted_baseE }, comdat, align 8
@_ZZN5boost16re_detail_10740019basic_regex_creatorIcNS_12regex_traitsIcNS_16cpp_regex_traitsIcEEEEEC1EPNS0_10regex_dataIcS5_EEE1w = linkonce_odr constant i8 119, comdat, align 1
@_ZZN5boost16re_detail_10740019basic_regex_creatorIcNS_12regex_traitsIcNS_16cpp_regex_traitsIcEEEEEC1EPNS0_10regex_dataIcS5_EEE1s = linkonce_odr constant i8 115, comdat, align 1
@_ZZN5boost16re_detail_10740019basic_regex_creatorIcNS_12regex_traitsIcNS_16cpp_regex_traitsIcEEEEEC1EPNS0_10regex_dataIcS5_EEE1l = linkonce_odr constant [5 x i8] c"lower", comdat, align 1
@_ZZN5boost16re_detail_10740019basic_regex_creatorIcNS_12regex_traitsIcNS_16cpp_regex_traitsIcEEEEEC1EPNS0_10regex_dataIcS5_EEE1u = linkonce_odr constant [5 x i8] c"upper", comdat, align 1
@_ZZN5boost16re_detail_10740019basic_regex_creatorIcNS_12regex_traitsIcNS_16cpp_regex_traitsIcEEEEEC1EPNS0_10regex_dataIcS5_EEE1a = linkonce_odr constant [5 x i8] c"alpha", comdat, align 1
@_ZZNK5boost16re_detail_10740031cpp_regex_traits_implementationIcE20lookup_classname_impEPKcS4_E5masks = linkonce_odr local_unnamed_addr constant [22 x i32] [i32 0, i32 3072, i32 1024, i32 16777216, i32 2, i32 2048, i32 2048, i32 3076, i32 134217728, i32 512, i32 512, i32 16384, i32 4, i32 8192, i32 8192, i32 256, i32 67108864, i32 256, i32 268435456, i32 33557504, i32 33557504, i32 4096], comdat, align 16
@_ZZN5boost16re_detail_10740020get_default_class_idIcEEiPKT_S4_E4data = linkonce_odr constant [73 x i8] c"alnumalphablankcntrldigitgraphlowerprintpunctspaceunicodeuppervwordxdigit", comdat, align 16
@_ZZN5boost16re_detail_10740020get_default_class_idIcEEiPKT_S4_E6ranges = linkonce_odr constant [21 x %"struct.boost::re_detail_107400::character_pointer_range"] [%"struct.boost::re_detail_107400::character_pointer_range" { ptr @_ZZN5boost16re_detail_10740020get_default_class_idIcEEiPKT_S4_E4data, ptr getelementptr (i8, ptr @_ZZN5boost16re_detail_10740020get_default_class_idIcEEiPKT_S4_E4data, i64 5) }, %"struct.boost::re_detail_107400::character_pointer_range" { ptr getelementptr (i8, ptr @_ZZN5boost16re_detail_10740020get_default_class_idIcEEiPKT_S4_E4data, i64 5), ptr getelementptr (i8, ptr @_ZZN5boost16re_detail_10740020get_default_class_idIcEEiPKT_S4_E4data, i64 10) }, %"struct.boost::re_detail_107400::character_pointer_range" { ptr getelementptr (i8, ptr @_ZZN5boost16re_detail_10740020get_default_class_idIcEEiPKT_S4_E4data, i64 10), ptr getelementptr (i8, ptr @_ZZN5boost16re_detail_10740020get_default_class_idIcEEiPKT_S4_E4data, i64 15) }, %"struct.boost::re_detail_107400::character_pointer_range" { ptr getelementptr (i8, ptr @_ZZN5boost16re_detail_10740020get_default_class_idIcEEiPKT_S4_E4data, i64 15), ptr getelementptr (i8, ptr @_ZZN5boost16re_detail_10740020get_default_class_idIcEEiPKT_S4_E4data, i64 20) }, %"struct.boost::re_detail_107400::character_pointer_range" { ptr getelementptr (i8, ptr @_ZZN5boost16re_detail_10740020get_default_class_idIcEEiPKT_S4_E4data, i64 20), ptr getelementptr (i8, ptr @_ZZN5boost16re_detail_10740020get_default_class_idIcEEiPKT_S4_E4data, i64 21) }, %"struct.boost::re_detail_107400::character_pointer_range" { ptr getelementptr (i8, ptr @_ZZN5boost16re_detail_10740020get_default_class_idIcEEiPKT_S4_E4data, i64 20), ptr getelementptr (i8, ptr @_ZZN5boost16re_detail_10740020get_default_class_idIcEEiPKT_S4_E4data, i64 25) }, %"struct.boost::re_detail_107400::character_pointer_range" { ptr getelementptr (i8, ptr @_ZZN5boost16re_detail_10740020get_default_class_idIcEEiPKT_S4_E4data, i64 25), ptr getelementptr (i8, ptr @_ZZN5boost16re_detail_10740020get_default_class_idIcEEiPKT_S4_E4data, i64 30) }, %"struct.boost::re_detail_107400::character_pointer_range" { ptr getelementptr (i8, ptr @_ZZN5boost16re_detail_10740020get_default_class_idIcEEiPKT_S4_E4data, i64 29), ptr getelementptr (i8, ptr @_ZZN5boost16re_detail_10740020get_default_class_idIcEEiPKT_S4_E4data, i64 30) }, %"struct.boost::re_detail_107400::character_pointer_range" { ptr getelementptr (i8, ptr @_ZZN5boost16re_detail_10740020get_default_class_idIcEEiPKT_S4_E4data, i64 30), ptr getelementptr (i8, ptr @_ZZN5boost16re_detail_10740020get_default_class_idIcEEiPKT_S4_E4data, i64 31) }, %"struct.boost::re_detail_107400::character_pointer_range" { ptr getelementptr (i8, ptr @_ZZN5boost16re_detail_10740020get_default_class_idIcEEiPKT_S4_E4data, i64 30), ptr getelementptr (i8, ptr @_ZZN5boost16re_detail_10740020get_default_class_idIcEEiPKT_S4_E4data, i64 35) }, %"struct.boost::re_detail_107400::character_pointer_range" { ptr getelementptr (i8, ptr @_ZZN5boost16re_detail_10740020get_default_class_idIcEEiPKT_S4_E4data, i64 35), ptr getelementptr (i8, ptr @_ZZN5boost16re_detail_10740020get_default_class_idIcEEiPKT_S4_E4data, i64 40) }, %"struct.boost::re_detail_107400::character_pointer_range" { ptr getelementptr (i8, ptr @_ZZN5boost16re_detail_10740020get_default_class_idIcEEiPKT_S4_E4data, i64 40), ptr getelementptr (i8, ptr @_ZZN5boost16re_detail_10740020get_default_class_idIcEEiPKT_S4_E4data, i64 45) }, %"struct.boost::re_detail_107400::character_pointer_range" { ptr getelementptr (i8, ptr @_ZZN5boost16re_detail_10740020get_default_class_idIcEEiPKT_S4_E4data, i64 45), ptr getelementptr (i8, ptr @_ZZN5boost16re_detail_10740020get_default_class_idIcEEiPKT_S4_E4data, i64 46) }, %"struct.boost::re_detail_107400::character_pointer_range" { ptr getelementptr (i8, ptr @_ZZN5boost16re_detail_10740020get_default_class_idIcEEiPKT_S4_E4data, i64 45), ptr getelementptr (i8, ptr @_ZZN5boost16re_detail_10740020get_default_class_idIcEEiPKT_S4_E4data, i64 50) }, %"struct.boost::re_detail_107400::character_pointer_range" { ptr getelementptr (i8, ptr @_ZZN5boost16re_detail_10740020get_default_class_idIcEEiPKT_S4_E4data, i64 57), ptr getelementptr (i8, ptr @_ZZN5boost16re_detail_10740020get_default_class_idIcEEiPKT_S4_E4data, i64 58) }, %"struct.boost::re_detail_107400::character_pointer_range" { ptr getelementptr (i8, ptr @_ZZN5boost16re_detail_10740020get_default_class_idIcEEiPKT_S4_E4data, i64 50), ptr getelementptr (i8, ptr @_ZZN5boost16re_detail_10740020get_default_class_idIcEEiPKT_S4_E4data, i64 57) }, %"struct.boost::re_detail_107400::character_pointer_range" { ptr getelementptr (i8, ptr @_ZZN5boost16re_detail_10740020get_default_class_idIcEEiPKT_S4_E4data, i64 57), ptr getelementptr (i8, ptr @_ZZN5boost16re_detail_10740020get_default_class_idIcEEiPKT_S4_E4data, i64 62) }, %"struct.boost::re_detail_107400::character_pointer_range" { ptr getelementptr (i8, ptr @_ZZN5boost16re_detail_10740020get_default_class_idIcEEiPKT_S4_E4data, i64 62), ptr getelementptr (i8, ptr @_ZZN5boost16re_detail_10740020get_default_class_idIcEEiPKT_S4_E4data, i64 63) }, %"struct.boost::re_detail_107400::character_pointer_range" { ptr getelementptr (i8, ptr @_ZZN5boost16re_detail_10740020get_default_class_idIcEEiPKT_S4_E4data, i64 63), ptr getelementptr (i8, ptr @_ZZN5boost16re_detail_10740020get_default_class_idIcEEiPKT_S4_E4data, i64 64) }, %"struct.boost::re_detail_107400::character_pointer_range" { ptr getelementptr (i8, ptr @_ZZN5boost16re_detail_10740020get_default_class_idIcEEiPKT_S4_E4data, i64 63), ptr getelementptr (i8, ptr @_ZZN5boost16re_detail_10740020get_default_class_idIcEEiPKT_S4_E4data, i64 67) }, %"struct.boost::re_detail_107400::character_pointer_range" { ptr getelementptr (i8, ptr @_ZZN5boost16re_detail_10740020get_default_class_idIcEEiPKT_S4_E4data, i64 67), ptr getelementptr (i8, ptr @_ZZN5boost16re_detail_10740020get_default_class_idIcEEiPKT_S4_E4data, i64 73) }], comdat, align 16
@.str.27 = private unnamed_addr constant [68 x i8] c"An invalid combination of regular expression syntax flags was used.\00", align 1
@.str.28 = private unnamed_addr constant [61 x i8] c"Found a closing ) with no corresponding opening parenthesis.\00", align 1
@.str.29 = private unnamed_addr constant [59 x i8] c"The repeat operator \22*\22 cannot start a regular expression.\00", align 1
@.str.30 = private unnamed_addr constant [59 x i8] c"The repeat operator \22?\22 cannot start a regular expression.\00", align 1
@.str.31 = private unnamed_addr constant [59 x i8] c"The repeat operator \22+\22 cannot start a regular expression.\00", align 1
@.str.32 = private unnamed_addr constant [63 x i8] c"Found a closing repetition operator } with no corresponding {.\00", align 1
@.str.33 = private unnamed_addr constant [85 x i8] c"The recursive sub-expression refers to an invalid marking group, or is unterminated.\00", align 1
@.str.34 = private unnamed_addr constant [53 x i8] c"An invalid or unterminated recursive sub-expression.\00", align 1
@.str.35 = private unnamed_addr constant [28 x i8] c"Unterminated named capture.\00", align 1
@.str.37 = private unnamed_addr constant [51 x i8] c"Invalid alternation operators within (?...) block.\00", align 1
@.str.38 = private unnamed_addr constant [39 x i8] c"Invalid or empty zero width assertion.\00", align 1
@.str.39 = private unnamed_addr constant [86 x i8] c"More than one alternation operator | was encountered inside a conditional expression.\00", align 1
@.str.40 = private unnamed_addr constant [61 x i8] c"Alternation operators are not allowed inside a DEFINE block.\00", align 1
@.str.41 = private unnamed_addr constant [67 x i8] c"A repetition operator cannot be applied to a zero-width assertion.\00", align 1
@_ZTVN5boost16re_detail_10740010parser_bufIcSt11char_traitsIcEEE = linkonce_odr unnamed_addr constant { [16 x ptr] } { [16 x ptr] [ptr null, ptr @_ZTIN5boost16re_detail_10740010parser_bufIcSt11char_traitsIcEEE, ptr @_ZNSt15basic_streambufIcSt11char_traitsIcEED2Ev, ptr @_ZN5boost16re_detail_10740010parser_bufIcSt11char_traitsIcEED0Ev, ptr @_ZNSt15basic_streambufIcSt11char_traitsIcEE5imbueERKSt6locale, ptr @_ZN5boost16re_detail_10740010parser_bufIcSt11char_traitsIcEE6setbufEPcl, ptr @_ZN5boost16re_detail_10740010parser_bufIcSt11char_traitsIcEE7seekoffElSt12_Ios_SeekdirSt13_Ios_Openmode, ptr @_ZN5boost16re_detail_10740010parser_bufIcSt11char_traitsIcEE7seekposESt4fposI11__mbstate_tESt13_Ios_Openmode, ptr @_ZNSt15basic_streambufIcSt11char_traitsIcEE4syncEv, ptr @_ZNSt15basic_streambufIcSt11char_traitsIcEE9showmanycEv, ptr @_ZNSt15basic_streambufIcSt11char_traitsIcEE6xsgetnEPcl, ptr @_ZNSt15basic_streambufIcSt11char_traitsIcEE9underflowEv, ptr @_ZNSt15basic_streambufIcSt11char_traitsIcEE5uflowEv, ptr @_ZNSt15basic_streambufIcSt11char_traitsIcEE9pbackfailEi, ptr @_ZNSt15basic_streambufIcSt11char_traitsIcEE6xsputnEPKcl, ptr @_ZNSt15basic_streambufIcSt11char_traitsIcEE8overflowEi] }, comdat, align 8
@_ZTSN5boost16re_detail_10740010parser_bufIcSt11char_traitsIcEEE = linkonce_odr constant [60 x i8] c"N5boost16re_detail_10740010parser_bufIcSt11char_traitsIcEEE\00", comdat, align 1
@_ZTISt15basic_streambufIcSt11char_traitsIcEE = external constant ptr
@_ZTIN5boost16re_detail_10740010parser_bufIcSt11char_traitsIcEEE = linkonce_odr constant { ptr, ptr, ptr } { ptr getelementptr inbounds (ptr, ptr @_ZTVN10__cxxabiv120__si_class_type_infoE, i64 2), ptr @_ZTSN5boost16re_detail_10740010parser_bufIcSt11char_traitsIcEEE, ptr @_ZTISt15basic_streambufIcSt11char_traitsIcEE }, comdat, align 8
@_ZTVSt15basic_streambufIcSt11char_traitsIcEE = external unnamed_addr constant { [16 x ptr] }, align 8
@_ZTVSi = external unnamed_addr constant { [5 x ptr], [5 x ptr] }, align 8
@_ZTTSi = external unnamed_addr constant [2 x ptr], align 8
@.str.42 = private unnamed_addr constant [4 x i8] c"AIL\00", align 1
@.str.43 = private unnamed_addr constant [6 x i8] c"CCEPT\00", align 1
@.str.44 = private unnamed_addr constant [6 x i8] c"OMMIT\00", align 1
@.str.45 = private unnamed_addr constant [5 x i8] c"RUNE\00", align 1
@.str.46 = private unnamed_addr constant [4 x i8] c"KIP\00", align 1
@.str.47 = private unnamed_addr constant [4 x i8] c"HEN\00", align 1
@.str.48 = private unnamed_addr constant [74 x i8] c"vector::_M_range_check: __n (which is %zu) >= this->size() (which is %zu)\00", align 1
@.str.49 = private unnamed_addr constant [34 x i8] c"Incomplete escape sequence found.\00", align 1
@.str.50 = private unnamed_addr constant [34 x i8] c"Incomplete property escape found.\00", align 1
@.str.51 = private unnamed_addr constant [49 x i8] c"Closing } missing from property escape sequence.\00", align 1
@.str.52 = private unnamed_addr constant [79 x i8] c"Escape sequence was neither a valid property nor a valid character class name.\00", align 1
@_ZZN5boost16re_detail_10740018basic_regex_parserIcNS_12regex_traitsIcNS_16cpp_regex_traitsIcEEEEE21parse_extended_escapeEvE18incomplete_message = linkonce_odr constant [28 x i8] c"Incomplete \\g escape found.\00", comdat, align 16
@.str.53 = private unnamed_addr constant [40 x i8] c"Escape sequence terminated prematurely.\00", align 1
@.str.54 = private unnamed_addr constant [46 x i8] c"ASCII escape sequence terminated prematurely.\00", align 1
@.str.55 = private unnamed_addr constant [52 x i8] c"Hexadecimal escape sequence terminated prematurely.\00", align 1
@.str.56 = private unnamed_addr constant [42 x i8] c"Missing } in hexadecimal escape sequence.\00", align 1
@.str.57 = private unnamed_addr constant [41 x i8] c"Hexadecimal escape sequence was invalid.\00", align 1
@.str.58 = private unnamed_addr constant [50 x i8] c"Escape sequence did not encode a valid character.\00", align 1
@.str.59 = private unnamed_addr constant [31 x i8] c"Invalid octal escape sequence.\00", align 1
@.str.60 = private unnamed_addr constant [34 x i8] c"Octal escape sequence is invalid.\00", align 1
@.str.61 = private unnamed_addr constant [31 x i8] c"Unterminated \\Q...\\E sequence.\00", align 1
@_ZZN5boost16re_detail_10740019get_escape_R_stringIcEENS_12disable_if_cIXgtstT_Li1EEPKS3_E4typeEvE2e2 = linkonce_odr constant [21 x i8] c"(?-x:(?>\0D\0A?|[\0A\0B\0C\85]))\00", comdat, align 16
@.str.62 = private unnamed_addr constant [19 x i8] c"Nothing to repeat.\00", align 1
@_ZZN5boost16re_detail_10740018basic_regex_parserIcNS_12regex_traitsIcNS_16cpp_regex_traitsIcEEEEE18parse_repeat_rangeEbE18incomplete_message = linkonce_odr constant [36 x i8] c"Missing } in quantified repetition.\00", comdat, align 16
@.str.63 = private unnamed_addr constant [67 x i8] c"A regular expression cannot start with the alternation operator |.\00", align 1
@_ZZN5boost16re_detail_10740018basic_regex_parserIcNS_12regex_traitsIcNS_16cpp_regex_traitsIcEEEEE9parse_setEvE18incomplete_message = linkonce_odr local_unnamed_addr constant [116 x i8] c"Character set declaration starting with [ terminated prematurely - either no ] was found or the set had no content.\00", comdat, align 16
@_ZZN5boost16re_detail_10740018basic_regex_parserIcNS_12regex_traitsIcNS_16cpp_regex_traitsIcEEEEE15parse_inner_setERNS0_14basic_char_setIcS5_EEE18incomplete_message = linkonce_odr constant [118 x i8] c"Character class declaration starting with [ terminated prematurely - either no ] was found or the set had no content.\00", comdat, align 16
@.str.64 = private unnamed_addr constant [114 x i8] c"The \\c and \\C escape sequences are not supported by POSIX basic regular expressions: try the Perl syntax instead.\00", align 1
@_ZZN5boost16re_detail_10740018basic_regex_parserIcNS_12regex_traitsIcNS_16cpp_regex_traitsIcEEEEE14add_emacs_codeEbE7s_punct = linkonce_odr constant [5 x i8] c"punct", comdat, align 1
@.str.65 = private unnamed_addr constant [70 x i8] c"  The error occurred while parsing the regular expression fragment: '\00", align 1
@.str.66 = private unnamed_addr constant [61 x i8] c"  The error occurred while parsing the regular expression: '\00", align 1
@.str.67 = private unnamed_addr constant [11 x i8] c">>>HERE>>>\00", align 1
@.str.68 = private unnamed_addr constant [3 x i8] c"'.\00", align 1
@.str.69 = private unnamed_addr constant [29 x i8] c"Exceeded nested brace limit.\00", align 1
@.str.70 = private unnamed_addr constant [65 x i8] c"Can't terminate a sub-expression with an alternation operator |.\00", align 1
@.str.71 = private unnamed_addr constant [80 x i8] c"Encountered a forward reference to a marked sub-expression that does not exist.\00", align 1
@.str.72 = private unnamed_addr constant [83 x i8] c"Encountered a forward reference to a recursive sub-expression that does not exist.\00", align 1
@.str.73 = private unnamed_addr constant [68 x i8] c"Invalid lookbehind assertion encountered in the regular expression.\00", align 1
@.str.74 = private unnamed_addr constant [49 x i8] c"cannot create std::vector larger than max_size()\00", align 1
@.str.75 = private unnamed_addr constant [35 x i8] c"Encountered an infinite recursion.\00", align 1
@.str.76 = private unnamed_addr constant [32 x i8] c"Check failed: oldFDCopy_ != -1 \00", align 1
@.str.77 = private unnamed_addr constant [19 x i8] c"Could not copy FD \00", align 1
@.str.78 = private unnamed_addr constant [40 x i8] c"Check failed: dup2(file_fd, fd_) != -1 \00", align 1
@.str.79 = private unnamed_addr constant [22 x i8] c"Could not replace FD \00", align 1
@.str.80 = private unnamed_addr constant [7 x i8] c" with \00", align 1
@.str.81 = private unnamed_addr constant [36 x i8] c"Check failed: close(file_fd) != -1 \00", align 1
@.str.82 = private unnamed_addr constant [17 x i8] c"Could not close \00", align 1
@.str.83 = private unnamed_addr constant [43 x i8] c"Check failed: dup2(oldFDCopy_, fd_) != -1 \00", align 1
@.str.84 = private unnamed_addr constant [26 x i8] c"Could not restore old FD \00", align 1
@.str.85 = private unnamed_addr constant [7 x i8] c" into \00", align 1
@.str.86 = private unnamed_addr constant [39 x i8] c"Check failed: close(oldFDCopy_) != -1 \00", align 1
@.str.87 = private unnamed_addr constant [59 x i8] c"Check failed: folly::readFile(filename.c_str(), contents) \00", align 1
@.str.88 = private unnamed_addr constant [43 x i8] c"Check failed: ssize_t(size) == bytes_read \00", align 1
@.str.89 = private unnamed_addr constant [10 x i8] c"invalid: \00", align 1
@_ZN5folly3ext18test_find_resourceB5cxx11E = external local_unnamed_addr global ptr, align 8
@.str.90 = private unnamed_addr constant [10 x i8] c"missing: \00", align 1
@.str.91 = private unnamed_addr constant [21 x i8] c"basic_string::substr\00", align 1
@.str.94 = private unnamed_addr constant [8 x i8] c"generic\00", align 1
@.str.95 = private unnamed_addr constant [7 x i8] c"system\00", align 1

@_ZN5folly4test13TemporaryFileC1ENS_5RangeIPKcEEN5boost10filesystem4pathENS1_5ScopeEb = unnamed_addr alias void (ptr, ptr, ptr, ptr, i32, i1), ptr @_ZN5folly4test13TemporaryFileC2ENS_5RangeIPKcEEN5boost10filesystem4pathENS1_5ScopeEb
@_ZN5folly4test13TemporaryFileD1Ev = unnamed_addr alias void (ptr), ptr @_ZN5folly4test13TemporaryFileD2Ev
@_ZN5folly4test18TemporaryDirectoryC1ENS_5RangeIPKcEEN5boost10filesystem4pathENS1_5ScopeE = unnamed_addr alias void (ptr, ptr, ptr, ptr, i32), ptr @_ZN5folly4test18TemporaryDirectoryC2ENS_5RangeIPKcEEN5boost10filesystem4pathENS1_5ScopeE
@_ZN5folly4test18TemporaryDirectoryD1Ev = unnamed_addr alias void (ptr), ptr @_ZN5folly4test18TemporaryDirectoryD2Ev
@_ZN5folly4test15ChangeToTempDirC1Ev = unnamed_addr alias void (ptr), ptr @_ZN5folly4test15ChangeToTempDirC2Ev
@_ZN5folly4test15ChangeToTempDirD1Ev = unnamed_addr alias void (ptr), ptr @_ZN5folly4test15ChangeToTempDirD2Ev
@_ZN5folly4test9CaptureFDC1EiSt8functionIFvNS_5RangeIPKcEEEE = unnamed_addr alias void (ptr, i32, ptr), ptr @_ZN5folly4test9CaptureFDC2EiSt8functionIFvNS_5RangeIPKcEEEE
@_ZN5folly4test9CaptureFDD1Ev = unnamed_addr alias void (ptr), ptr @_ZN5folly4test9CaptureFDD2Ev

declare void @__cxa_pure_virtual() unnamed_addr

; Function Attrs: inlinehint mustprogress nounwind uwtable
define linkonce_odr { i64, ptr } @_ZNK5boost6system14error_category23default_error_conditionEi(ptr noundef nonnull align 8 dereferenceable(16) %this, i32 noundef %ev) unnamed_addr #0 comdat align 2 personality ptr @__gxx_personality_v0 {
entry:
  %id_3.i.i.i = getelementptr inbounds %"class.boost::system::error_category", ptr %this, i64 0, i32 1
  %0 = load i64, ptr %id_3.i.i.i, align 8
  switch i64 %0, label %if.else.i.i [
    i64 -8093018978436915045, label %if.then.i.i
    i64 -5572340897628102899, label %if.then.i.i
  ]

if.then.i.i:                                      ; preds = %entry, %entry
  %cmp.i.i = icmp ne i32 %ev, 0
  br label %_ZN5boost6system15error_conditionC2EiRKNS0_14error_categoryE.exit

if.else.i.i:                                      ; preds = %entry
  %vtable.i.i = load ptr, ptr %this, align 8, !tbaa !7
  %vfn.i.i = getelementptr inbounds ptr, ptr %vtable.i.i, i64 6
  %1 = load ptr, ptr %vfn.i.i, align 8
  %call4.i.i = tail call noundef zeroext i1 %1(ptr noundef nonnull align 8 dereferenceable(16) %this, i32 noundef %ev) #30
  br label %_ZN5boost6system15error_conditionC2EiRKNS0_14error_categoryE.exit

_ZN5boost6system15error_conditionC2EiRKNS0_14error_categoryE.exit: ; preds = %if.else.i.i, %if.then.i.i
  %retval.0.i.i = phi i1 [ %cmp.i.i, %if.then.i.i ], [ %call4.i.i, %if.else.i.i ]
  %retval.sroa.2.0.insert.shift = select i1 %retval.0.i.i, i64 4294967296, i64 0
  %retval.sroa.0.0.insert.ext = zext i32 %ev to i64
  %retval.sroa.0.0.insert.insert = or disjoint i64 %retval.sroa.2.0.insert.shift, %retval.sroa.0.0.insert.ext
  %.fca.0.insert = insertvalue { i64, ptr } poison, i64 %retval.sroa.0.0.insert.insert, 0
  %.fca.1.insert = insertvalue { i64, ptr } %.fca.0.insert, ptr %this, 1
  ret { i64, ptr } %.fca.1.insert
}

; Function Attrs: inlinehint mustprogress nounwind uwtable
define linkonce_odr noundef zeroext i1 @_ZNK5boost6system14error_category10equivalentEiRKNS0_15error_conditionE(ptr noundef nonnull align 8 dereferenceable(16) %this, i32 noundef %code, ptr noundef nonnull align 8 dereferenceable(16) %condition) unnamed_addr #0 comdat align 2 {
entry:
  %vtable = load ptr, ptr %this, align 8, !tbaa !7
  %vfn = getelementptr inbounds ptr, ptr %vtable, i64 1
  %0 = load ptr, ptr %vfn, align 8
  %call = tail call { i64, ptr } %0(ptr noundef nonnull align 8 dereferenceable(16) %this, i32 noundef %code) #30
  %1 = extractvalue { i64, ptr } %call, 0
  %ref.tmp.sroa.0.0.extract.trunc = trunc i64 %1 to i32
  %2 = load i32, ptr %condition, align 8, !tbaa !10
  %cmp.i = icmp eq i32 %2, %ref.tmp.sroa.0.0.extract.trunc
  br i1 %cmp.i, label %land.rhs.i, label %_ZN5boost6systemeqERKNS0_15error_conditionES3_.exit

land.rhs.i:                                       ; preds = %entry
  %3 = extractvalue { i64, ptr } %call, 1
  %cat_2.i = getelementptr inbounds %"class.boost::system::error_condition", ptr %condition, i64 0, i32 2
  %4 = load ptr, ptr %cat_2.i, align 8, !tbaa !16
  %id_.i.i = getelementptr inbounds %"class.boost::system::error_category", ptr %4, i64 0, i32 1
  %5 = load i64, ptr %id_.i.i, align 8, !tbaa !17
  %cmp.i.i = icmp eq i64 %5, 0
  %cmp2.i.i = icmp eq ptr %3, %4
  %id_3.i.i = getelementptr inbounds %"class.boost::system::error_category", ptr %3, i64 0, i32 1
  %6 = load i64, ptr %id_3.i.i, align 8
  %cmp5.i.i = icmp eq i64 %6, %5
  %cond.i.i = select i1 %cmp.i.i, i1 %cmp2.i.i, i1 %cmp5.i.i
  br label %_ZN5boost6systemeqERKNS0_15error_conditionES3_.exit

_ZN5boost6systemeqERKNS0_15error_conditionES3_.exit: ; preds = %land.rhs.i, %entry
  %7 = phi i1 [ false, %entry ], [ %cond.i.i, %land.rhs.i ]
  ret i1 %7
}

; Function Attrs: inlinehint mustprogress nounwind uwtable
define linkonce_odr noundef zeroext i1 @_ZNK5boost6system14error_category10equivalentERKNS0_10error_codeEi(ptr noundef nonnull align 8 dereferenceable(16) %this, ptr noundef nonnull align 8 dereferenceable(16) %code, i32 noundef %condition) unnamed_addr #0 comdat align 2 {
entry:
  %cat_.i = getelementptr inbounds %"class.boost::system::error_code", ptr %code, i64 0, i32 2
  %0 = load ptr, ptr %cat_.i, align 8, !tbaa !20
  %id_.i = getelementptr inbounds %"class.boost::system::error_category", ptr %0, i64 0, i32 1
  %1 = load i64, ptr %id_.i, align 8, !tbaa !17
  %cmp.i = icmp eq i64 %1, 0
  %cmp2.i = icmp eq ptr %0, %this
  %id_3.i = getelementptr inbounds %"class.boost::system::error_category", ptr %this, i64 0, i32 1
  %2 = load i64, ptr %id_3.i, align 8
  %cmp5.i = icmp eq i64 %2, %1
  %cond.i = select i1 %cmp.i, i1 %cmp2.i, i1 %cmp5.i
  %3 = load i32, ptr %code, align 8
  %cmp = icmp eq i32 %3, %condition
  %4 = select i1 %cond.i, i1 %cmp, i1 false
  ret i1 %4
}

; Function Attrs: inlinehint mustprogress nounwind uwtable
define linkonce_odr noundef zeroext i1 @_ZNK5boost6system14error_category6failedEi(ptr noundef nonnull align 8 dereferenceable(16) %this, i32 noundef %ev) unnamed_addr #0 comdat align 2 {
entry:
  %cmp = icmp ne i32 %ev, 0
  ret i1 %cmp
}

; Function Attrs: mustprogress nounwind uwtable
define linkonce_odr noundef ptr @_ZNK5boost6system6detail22generic_error_category4nameEv(ptr noundef nonnull align 8 dereferenceable(16) %this) unnamed_addr #1 comdat align 2 {
entry:
  ret ptr @.str.94
}

; Function Attrs: inlinehint mustprogress uwtable
define linkonce_odr void @_ZNK5boost6system6detail22generic_error_category7messageB5cxx11Ei(ptr noalias sret(%"class.std::__cxx11::basic_string") align 8 %agg.result, ptr noundef nonnull align 8 dereferenceable(16) %this, i32 noundef %ev) unnamed_addr #2 comdat align 2 personality ptr @__gxx_personality_v0 {
entry:
  %__dnew.i.i.i = alloca i64, align 8
  %buffer.i = alloca [128 x i8], align 16
  tail call void @llvm.experimental.noalias.scope.decl(metadata !22)
  call void @llvm.lifetime.start.p0(i64 128, ptr nonnull %buffer.i) #30, !noalias !22
  %call.i.i = call noundef ptr @strerror_r(i32 noundef %ev, ptr noundef nonnull %buffer.i, i64 noundef 128) #30, !noalias !22
  %0 = getelementptr inbounds %"class.std::__cxx11::basic_string", ptr %agg.result, i64 0, i32 2
  store ptr %0, ptr %agg.result, align 8, !tbaa !25, !alias.scope !22
  %cmp.i.i = icmp eq ptr %call.i.i, null
  br i1 %cmp.i.i, label %if.then.i.i, label %if.end.i.i

if.then.i.i:                                      ; preds = %entry
  call void @_ZSt19__throw_logic_errorPKc(ptr noundef nonnull @.str) #31
  unreachable

if.end.i.i:                                       ; preds = %entry
  %call.i.i.i = call noundef i64 @strlen(ptr noundef nonnull dereferenceable(1) %call.i.i) #30
  call void @llvm.lifetime.start.p0(i64 8, ptr nonnull %__dnew.i.i.i) #30, !noalias !22
  store i64 %call.i.i.i, ptr %__dnew.i.i.i, align 8, !tbaa !27, !noalias !22
  %cmp.i.i.i = icmp ugt i64 %call.i.i.i, 15
  br i1 %cmp.i.i.i, label %if.then.i.i.i, label %if.end.i.i.i

if.then.i.i.i:                                    ; preds = %if.end.i.i
  %call2.i11.i2.i = call noundef ptr @_ZNSt7__cxx1112basic_stringIcSt11char_traitsIcESaIcEE9_M_createERmm(ptr noundef nonnull align 8 dereferenceable(32) %agg.result, ptr noundef nonnull align 8 dereferenceable(8) %__dnew.i.i.i, i64 noundef 0)
  store ptr %call2.i11.i2.i, ptr %agg.result, align 8, !tbaa !29, !alias.scope !22
  %1 = load i64, ptr %__dnew.i.i.i, align 8, !tbaa !27, !noalias !22
  store i64 %1, ptr %0, align 8, !tbaa !31, !alias.scope !22
  br label %if.end.i.i.i

if.end.i.i.i:                                     ; preds = %if.then.i.i.i, %if.end.i.i
  %2 = phi ptr [ %call2.i11.i2.i, %if.then.i.i.i ], [ %0, %if.end.i.i ]
  switch i64 %call.i.i.i, label %if.end.i.i.i.i.i.i [
    i64 1, label %if.then.i.i.i.i.i
    i64 0, label %_ZN5boost6system6detail30generic_error_category_messageB5cxx11Ei.exit
  ]

if.then.i.i.i.i.i:                                ; preds = %if.end.i.i.i
  %3 = load i8, ptr %call.i.i, align 1, !tbaa !31
  store i8 %3, ptr %2, align 1, !tbaa !31
  br label %_ZN5boost6system6detail30generic_error_category_messageB5cxx11Ei.exit

if.end.i.i.i.i.i.i:                               ; preds = %if.end.i.i.i
  call void @llvm.memcpy.p0.p0.i64(ptr align 1 %2, ptr nonnull align 1 %call.i.i, i64 %call.i.i.i, i1 false)
  br label %_ZN5boost6system6detail30generic_error_category_messageB5cxx11Ei.exit

_ZN5boost6system6detail30generic_error_category_messageB5cxx11Ei.exit: ; preds = %if.end.i.i.i.i.i.i, %if.then.i.i.i.i.i, %if.end.i.i.i
  %4 = load i64, ptr %__dnew.i.i.i, align 8, !tbaa !27, !noalias !22
  %_M_string_length.i.i.i.i.i = getelementptr inbounds %"class.std::__cxx11::basic_string", ptr %agg.result, i64 0, i32 1
  store i64 %4, ptr %_M_string_length.i.i.i.i.i, align 8, !tbaa !32, !alias.scope !22
  %5 = load ptr, ptr %agg.result, align 8, !tbaa !29, !alias.scope !22
  %arrayidx.i.i.i.i = getelementptr inbounds i8, ptr %5, i64 %4
  store i8 0, ptr %arrayidx.i.i.i.i, align 1, !tbaa !31
  call void @llvm.lifetime.end.p0(i64 8, ptr nonnull %__dnew.i.i.i) #30, !noalias !22
  call void @llvm.lifetime.end.p0(i64 128, ptr nonnull %buffer.i) #30, !noalias !22
  ret void
}

; Function Attrs: inlinehint mustprogress nounwind uwtable
define linkonce_odr noundef ptr @_ZNK5boost6system6detail22generic_error_category7messageEiPcm(ptr noundef nonnull align 8 dereferenceable(16) %this, i32 noundef %ev, ptr noundef %buffer, i64 noundef %len) unnamed_addr #0 comdat align 2 {
entry:
  %call.i = tail call noundef ptr @strerror_r(i32 noundef %ev, ptr noundef %buffer, i64 noundef %len) #30
  ret ptr %call.i
}

; Function Attrs: mustprogress nounwind uwtable
define linkonce_odr noundef ptr @_ZNK5boost6system6detail21system_error_category4nameEv(ptr noundef nonnull align 8 dereferenceable(16) %this) unnamed_addr #1 comdat align 2 {
entry:
  ret ptr @.str.95
}

; Function Attrs: inlinehint mustprogress nounwind uwtable
define linkonce_odr { i64, ptr } @_ZNK5boost6system6detail21system_error_category23default_error_conditionEi(ptr noundef nonnull align 8 dereferenceable(16) %this, i32 noundef %ev) unnamed_addr #0 comdat align 2 personality ptr @__gxx_personality_v0 {
entry:
  %cmp1.i10.i = icmp eq i32 %ev, 0
  br i1 %cmp1.i10.i, label %_ZN5boost6system6detail45system_category_default_error_condition_posixEi.exit, label %for.cond.i.i

for.cond.i.i:                                     ; preds = %entry, %for.body.i.i.3
  %indvars.iv.i11.i = phi i64 [ %indvars.iv.next.i.i.3, %for.body.i.i.3 ], [ 0, %entry ]
  %indvars.iv.next.i.i = or disjoint i64 %indvars.iv.i11.i, 1
  %arrayidx.i.i = getelementptr inbounds [79 x i32], ptr @_ZZN5boost6system6detail16is_generic_valueEiE3gen, i64 0, i64 %indvars.iv.next.i.i
  %0 = load i32, ptr %arrayidx.i.i, align 4, !tbaa !33
  %cmp1.i.i = icmp eq i32 %0, %ev
  br i1 %cmp1.i.i, label %_ZN5boost6system6detail16is_generic_valueEi.exit.loopexit.i, label %for.cond.i.i.1, !llvm.loop !34

for.cond.i.i.1:                                   ; preds = %for.cond.i.i
  %indvars.iv.next.i.i.1 = or disjoint i64 %indvars.iv.i11.i, 2
  %arrayidx.i.i.1 = getelementptr inbounds [79 x i32], ptr @_ZZN5boost6system6detail16is_generic_valueEiE3gen, i64 0, i64 %indvars.iv.next.i.i.1
  %1 = load i32, ptr %arrayidx.i.i.1, align 8, !tbaa !33
  %cmp1.i.i.1 = icmp eq i32 %1, %ev
  br i1 %cmp1.i.i.1, label %_ZN5boost6system6detail16is_generic_valueEi.exit.loopexit.i, label %for.cond.i.i.2, !llvm.loop !34

for.cond.i.i.2:                                   ; preds = %for.cond.i.i.1
  %indvars.iv.next.i.i.2 = or disjoint i64 %indvars.iv.i11.i, 3
  %exitcond.not.i.i.2 = icmp eq i64 %indvars.iv.next.i.i.2, 79
  br i1 %exitcond.not.i.i.2, label %_ZN5boost6system6detail45system_category_default_error_condition_posixEi.exit, label %for.body.i.i.2, !llvm.loop !36

for.body.i.i.2:                                   ; preds = %for.cond.i.i.2
  %arrayidx.i.i.2 = getelementptr inbounds [79 x i32], ptr @_ZZN5boost6system6detail16is_generic_valueEiE3gen, i64 0, i64 %indvars.iv.next.i.i.2
  %2 = load i32, ptr %arrayidx.i.i.2, align 4, !tbaa !33
  %cmp1.i.i.2 = icmp eq i32 %2, %ev
  br i1 %cmp1.i.i.2, label %_ZN5boost6system6detail16is_generic_valueEi.exit.loopexit.i, label %for.body.i.i.3, !llvm.loop !34

for.body.i.i.3:                                   ; preds = %for.body.i.i.2
  %indvars.iv.next.i.i.3 = add nuw nsw i64 %indvars.iv.i11.i, 4
  %arrayidx.i.i.3 = getelementptr inbounds [79 x i32], ptr @_ZZN5boost6system6detail16is_generic_valueEiE3gen, i64 0, i64 %indvars.iv.next.i.i.3
  %3 = load i32, ptr %arrayidx.i.i.3, align 16, !tbaa !33
  %cmp1.i.i.3 = icmp eq i32 %3, %ev
  br i1 %cmp1.i.i.3, label %_ZN5boost6system6detail16is_generic_valueEi.exit.loopexit.i, label %for.cond.i.i, !llvm.loop !34

_ZN5boost6system6detail16is_generic_valueEi.exit.loopexit.i: ; preds = %for.body.i.i.3, %for.body.i.i.2, %for.cond.i.i.1, %for.cond.i.i
  %indvars.iv.i11.i.lcssa7 = phi i64 [ %indvars.iv.i11.i, %for.cond.i.i ], [ %indvars.iv.next.i.i, %for.cond.i.i.1 ], [ %indvars.iv.next.i.i.1, %for.body.i.i.2 ], [ %indvars.iv.next.i.i.2, %for.body.i.i.3 ]
  %cmp.i.le.i = icmp ult i64 %indvars.iv.i11.i.lcssa7, 78
  %spec.select = select i1 %cmp.i.le.i, ptr @_ZN5boost6system6detail10cat_holderIvE25generic_category_instanceE, ptr @_ZN5boost6system6detail10cat_holderIvE24system_category_instanceE
  br label %_ZN5boost6system6detail45system_category_default_error_condition_posixEi.exit

_ZN5boost6system6detail45system_category_default_error_condition_posixEi.exit: ; preds = %for.cond.i.i.2, %_ZN5boost6system6detail16is_generic_valueEi.exit.loopexit.i, %entry
  %retval.sroa.3.0.insert.shift.i = phi i64 [ 0, %entry ], [ 4294967296, %_ZN5boost6system6detail16is_generic_valueEi.exit.loopexit.i ], [ 4294967296, %for.cond.i.i.2 ]
  %cmp.lcssa.i.i = phi ptr [ @_ZN5boost6system6detail10cat_holderIvE25generic_category_instanceE, %entry ], [ %spec.select, %_ZN5boost6system6detail16is_generic_valueEi.exit.loopexit.i ], [ @_ZN5boost6system6detail10cat_holderIvE24system_category_instanceE, %for.cond.i.i.2 ]
  %retval.sroa.0.0.insert.ext.i = zext i32 %ev to i64
  %retval.sroa.0.0.insert.insert.i = or disjoint i64 %retval.sroa.3.0.insert.shift.i, %retval.sroa.0.0.insert.ext.i
  %.fca.0.insert.i = insertvalue { i64, ptr } poison, i64 %retval.sroa.0.0.insert.insert.i, 0
  %.fca.1.insert.i = insertvalue { i64, ptr } %.fca.0.insert.i, ptr %cmp.lcssa.i.i, 1
  ret { i64, ptr } %.fca.1.insert.i
}

; Function Attrs: inlinehint mustprogress uwtable
define linkonce_odr void @_ZNK5boost6system6detail21system_error_category7messageB5cxx11Ei(ptr noalias sret(%"class.std::__cxx11::basic_string") align 8 %agg.result, ptr noundef nonnull align 8 dereferenceable(16) %this, i32 noundef %ev) unnamed_addr #2 comdat align 2 personality ptr @__gxx_personality_v0 {
entry:
  %__dnew.i.i.i = alloca i64, align 8
  %buffer.i = alloca [128 x i8], align 16
  tail call void @llvm.experimental.noalias.scope.decl(metadata !37)
  call void @llvm.lifetime.start.p0(i64 128, ptr nonnull %buffer.i) #30, !noalias !37
  %call.i.i = call noundef ptr @strerror_r(i32 noundef %ev, ptr noundef nonnull %buffer.i, i64 noundef 128) #30, !noalias !37
  %0 = getelementptr inbounds %"class.std::__cxx11::basic_string", ptr %agg.result, i64 0, i32 2
  store ptr %0, ptr %agg.result, align 8, !tbaa !25, !alias.scope !37
  %cmp.i.i = icmp eq ptr %call.i.i, null
  br i1 %cmp.i.i, label %if.then.i.i, label %if.end.i.i

if.then.i.i:                                      ; preds = %entry
  call void @_ZSt19__throw_logic_errorPKc(ptr noundef nonnull @.str) #31
  unreachable

if.end.i.i:                                       ; preds = %entry
  %call.i.i.i = call noundef i64 @strlen(ptr noundef nonnull dereferenceable(1) %call.i.i) #30
  call void @llvm.lifetime.start.p0(i64 8, ptr nonnull %__dnew.i.i.i) #30, !noalias !37
  store i64 %call.i.i.i, ptr %__dnew.i.i.i, align 8, !tbaa !27, !noalias !37
  %cmp.i.i.i = icmp ugt i64 %call.i.i.i, 15
  br i1 %cmp.i.i.i, label %if.then.i.i.i, label %if.end.i.i.i

if.then.i.i.i:                                    ; preds = %if.end.i.i
  %call2.i11.i2.i = call noundef ptr @_ZNSt7__cxx1112basic_stringIcSt11char_traitsIcESaIcEE9_M_createERmm(ptr noundef nonnull align 8 dereferenceable(32) %agg.result, ptr noundef nonnull align 8 dereferenceable(8) %__dnew.i.i.i, i64 noundef 0)
  store ptr %call2.i11.i2.i, ptr %agg.result, align 8, !tbaa !29, !alias.scope !37
  %1 = load i64, ptr %__dnew.i.i.i, align 8, !tbaa !27, !noalias !37
  store i64 %1, ptr %0, align 8, !tbaa !31, !alias.scope !37
  br label %if.end.i.i.i

if.end.i.i.i:                                     ; preds = %if.then.i.i.i, %if.end.i.i
  %2 = phi ptr [ %call2.i11.i2.i, %if.then.i.i.i ], [ %0, %if.end.i.i ]
  switch i64 %call.i.i.i, label %if.end.i.i.i.i.i.i [
    i64 1, label %if.then.i.i.i.i.i
    i64 0, label %_ZN5boost6system6detail30generic_error_category_messageB5cxx11Ei.exit
  ]

if.then.i.i.i.i.i:                                ; preds = %if.end.i.i.i
  %3 = load i8, ptr %call.i.i, align 1, !tbaa !31
  store i8 %3, ptr %2, align 1, !tbaa !31
  br label %_ZN5boost6system6detail30generic_error_category_messageB5cxx11Ei.exit

if.end.i.i.i.i.i.i:                               ; preds = %if.end.i.i.i
  call void @llvm.memcpy.p0.p0.i64(ptr align 1 %2, ptr nonnull align 1 %call.i.i, i64 %call.i.i.i, i1 false)
  br label %_ZN5boost6system6detail30generic_error_category_messageB5cxx11Ei.exit

_ZN5boost6system6detail30generic_error_category_messageB5cxx11Ei.exit: ; preds = %if.end.i.i.i.i.i.i, %if.then.i.i.i.i.i, %if.end.i.i.i
  %4 = load i64, ptr %__dnew.i.i.i, align 8, !tbaa !27, !noalias !37
  %_M_string_length.i.i.i.i.i = getelementptr inbounds %"class.std::__cxx11::basic_string", ptr %agg.result, i64 0, i32 1
  store i64 %4, ptr %_M_string_length.i.i.i.i.i, align 8, !tbaa !32, !alias.scope !37
  %5 = load ptr, ptr %agg.result, align 8, !tbaa !29, !alias.scope !37
  %arrayidx.i.i.i.i = getelementptr inbounds i8, ptr %5, i64 %4
  store i8 0, ptr %arrayidx.i.i.i.i, align 1, !tbaa !31
  call void @llvm.lifetime.end.p0(i64 8, ptr nonnull %__dnew.i.i.i) #30, !noalias !37
  call void @llvm.lifetime.end.p0(i64 128, ptr nonnull %buffer.i) #30, !noalias !37
  ret void
}

; Function Attrs: inlinehint mustprogress nounwind uwtable
define linkonce_odr noundef ptr @_ZNK5boost6system6detail21system_error_category7messageEiPcm(ptr noundef nonnull align 8 dereferenceable(16) %this, i32 noundef %ev, ptr noundef %buffer, i64 noundef %len) unnamed_addr #0 comdat align 2 {
entry:
  %call.i = tail call noundef ptr @strerror_r(i32 noundef %ev, ptr noundef %buffer, i64 noundef %len) #30
  ret ptr %call.i
}

declare i32 @__gxx_personality_v0(...)

; Function Attrs: noreturn nounwind uwtable
define linkonce_odr hidden void @__clang_call_terminate(ptr noundef %0) local_unnamed_addr #3 comdat {
  %2 = tail call ptr @__cxa_begin_catch(ptr %0) #30
  tail call void @_ZSt9terminatev() #32
  unreachable
}

declare ptr @__cxa_begin_catch(ptr) local_unnamed_addr

declare void @_ZSt9terminatev() local_unnamed_addr

; Function Attrs: mustprogress nocallback nofree nosync nounwind willreturn memory(argmem: readwrite)
declare void @llvm.lifetime.start.p0(i64 immarg, ptr nocapture) #4

; Function Attrs: mustprogress uwtable
define linkonce_odr void @_ZNSt7__cxx1112basic_stringIcSt11char_traitsIcESaIcEEC2IS3_EEPKcRKS3_(ptr noundef nonnull align 8 dereferenceable(32) %this, ptr noundef %__s, ptr noundef nonnull align 1 dereferenceable(1) %__a) unnamed_addr #5 comdat align 2 personality ptr @__gxx_personality_v0 {
entry:
  %__dnew.i = alloca i64, align 8
  %0 = getelementptr inbounds %"class.std::__cxx11::basic_string", ptr %this, i64 0, i32 2
  store ptr %0, ptr %this, align 8, !tbaa !25
  %cmp = icmp eq ptr %__s, null
  br i1 %cmp, label %if.then, label %if.end

if.then:                                          ; preds = %entry
  tail call void @_ZSt19__throw_logic_errorPKc(ptr noundef nonnull @.str) #31
  unreachable

if.end:                                           ; preds = %entry
  %call.i = tail call noundef i64 @strlen(ptr noundef nonnull dereferenceable(1) %__s) #30
  call void @llvm.lifetime.start.p0(i64 8, ptr nonnull %__dnew.i) #30
  store i64 %call.i, ptr %__dnew.i, align 8, !tbaa !27
  %cmp.i = icmp ugt i64 %call.i, 15
  br i1 %cmp.i, label %if.then.i, label %if.end.i

if.then.i:                                        ; preds = %if.end
  %call2.i11 = call noundef ptr @_ZNSt7__cxx1112basic_stringIcSt11char_traitsIcESaIcEE9_M_createERmm(ptr noundef nonnull align 8 dereferenceable(32) %this, ptr noundef nonnull align 8 dereferenceable(8) %__dnew.i, i64 noundef 0)
  store ptr %call2.i11, ptr %this, align 8, !tbaa !29
  %1 = load i64, ptr %__dnew.i, align 8, !tbaa !27
  store i64 %1, ptr %0, align 8, !tbaa !31
  br label %if.end.i

if.end.i:                                         ; preds = %if.then.i, %if.end
  %2 = phi ptr [ %call2.i11, %if.then.i ], [ %0, %if.end ]
  switch i64 %call.i, label %if.end.i.i.i.i [
    i64 1, label %if.then.i.i.i
    i64 0, label %invoke.cont5
  ]

if.then.i.i.i:                                    ; preds = %if.end.i
  %3 = load i8, ptr %__s, align 1, !tbaa !31
  store i8 %3, ptr %2, align 1, !tbaa !31
  br label %invoke.cont5

if.end.i.i.i.i:                                   ; preds = %if.end.i
  call void @llvm.memcpy.p0.p0.i64(ptr align 1 %2, ptr nonnull align 1 %__s, i64 %call.i, i1 false)
  br label %invoke.cont5

invoke.cont5:                                     ; preds = %if.end.i.i.i.i, %if.then.i.i.i, %if.end.i
  %4 = load i64, ptr %__dnew.i, align 8, !tbaa !27
  %_M_string_length.i.i.i = getelementptr inbounds %"class.std::__cxx11::basic_string", ptr %this, i64 0, i32 1
  store i64 %4, ptr %_M_string_length.i.i.i, align 8, !tbaa !32
  %5 = load ptr, ptr %this, align 8, !tbaa !29
  %arrayidx.i.i = getelementptr inbounds i8, ptr %5, i64 %4
  store i8 0, ptr %arrayidx.i.i, align 1, !tbaa !31
  call void @llvm.lifetime.end.p0(i64 8, ptr nonnull %__dnew.i) #30
  ret void
}

; Function Attrs: mustprogress nocallback nofree nosync nounwind willreturn memory(argmem: readwrite)
declare void @llvm.lifetime.end.p0(i64 immarg, ptr nocapture) #4

; Function Attrs: nounwind
declare ptr @strerror_r(i32 noundef, ptr noundef, i64 noundef) local_unnamed_addr #6

; Function Attrs: noreturn
declare void @_ZSt19__throw_logic_errorPKc(ptr noundef) local_unnamed_addr #7

; Function Attrs: mustprogress nofree nounwind willreturn memory(argmem: read)
declare i64 @strlen(ptr nocapture noundef) local_unnamed_addr #8

declare noundef ptr @_ZNSt7__cxx1112basic_stringIcSt11char_traitsIcESaIcEE9_M_createERmm(ptr noundef nonnull align 8 dereferenceable(32), ptr noundef nonnull align 8 dereferenceable(8), i64 noundef) local_unnamed_addr #9

; Function Attrs: mustprogress nocallback nofree nounwind willreturn memory(argmem: readwrite)
declare void @llvm.memcpy.p0.p0.i64(ptr noalias nocapture writeonly, ptr noalias nocapture readonly, i64, i1 immarg) #10

; Function Attrs: nobuiltin nounwind
declare void @_ZdlPv(ptr noundef) local_unnamed_addr #11

; Function Attrs: nofree nounwind
declare i32 @__cxa_guard_acquire(ptr) local_unnamed_addr #12

; Function Attrs: nofree nounwind
declare i32 @__cxa_atexit(ptr, ptr, ptr) local_unnamed_addr #12

; Function Attrs: nofree nounwind
declare void @__cxa_guard_release(ptr) local_unnamed_addr #12

; Function Attrs: nobuiltin allocsize(0)
declare noundef nonnull ptr @_Znwm(i64 noundef) local_unnamed_addr #13

; Function Attrs: mustprogress nofree nounwind willreturn memory(read)
declare noundef ptr @_ZSt18_Rb_tree_decrementPSt18_Rb_tree_node_base(ptr noundef) local_unnamed_addr #14

; Function Attrs: nounwind
declare void @_ZSt29_Rb_tree_insert_and_rebalancebPSt18_Rb_tree_node_baseS0_RS_(i1 noundef zeroext, ptr noundef, ptr noundef, ptr noundef nonnull align 8 dereferenceable(32)) local_unnamed_addr #6

; Function Attrs: noreturn
declare void @_ZSt28__throw_bad_array_new_lengthv() local_unnamed_addr #7

; Function Attrs: noreturn
declare void @_ZSt17__throw_bad_allocv() local_unnamed_addr #7

; Function Attrs: nounwind
declare noundef ptr @_ZNKSt13runtime_error4whatEv(ptr noundef nonnull align 8 dereferenceable(16)) unnamed_addr #6

; Function Attrs: mustprogress nounwind uwtable
declare void @_ZNSt7__cxx1112basic_stringIcSt11char_traitsIcESaIcEED2Ev(ptr noundef nonnull align 8 dereferenceable(32)) unnamed_addr #1 align 2

declare void @__cxa_end_catch() local_unnamed_addr

declare noundef nonnull align 8 dereferenceable(32) ptr @_ZNSt7__cxx1112basic_stringIcSt11char_traitsIcESaIcEE10_M_replaceEmmPKcm(ptr noundef nonnull align 8 dereferenceable(32), i64 noundef, i64 noundef, ptr noundef, i64 noundef) local_unnamed_addr #9

declare noundef nonnull align 8 dereferenceable(32) ptr @_ZNSt7__cxx1112basic_stringIcSt11char_traitsIcESaIcEE9_M_appendEPKcm(ptr noundef nonnull align 8 dereferenceable(32), ptr noundef, i64 noundef) local_unnamed_addr #9

; Function Attrs: noreturn
declare void @_ZSt20__throw_length_errorPKc(ptr noundef) local_unnamed_addr #7

; Function Attrs: mustprogress uwtable
define void @_ZN5folly4test13TemporaryFileC2ENS_5RangeIPKcEEN5boost10filesystem4pathENS1_5ScopeEb(ptr noundef nonnull align 8 dereferenceable(48) %this, ptr %namePrefix.coerce0, ptr %namePrefix.coerce1, ptr noundef %dir, i32 noundef %scope, i1 noundef zeroext %closeOnDestruction) unnamed_addr #5 align 2 personality ptr @__gxx_personality_v0 {
entry:
  %__c.addr.i.i = alloca i8, align 1
  %agg.tmp = alloca %"class.boost::filesystem::path", align 8
  %ec = alloca %"class.boost::system::error_code", align 8
  %ref.tmp = alloca %"class.google::LogMessage", align 8
  %frombool = zext i1 %closeOnDestruction to i8
  store i32 %scope, ptr %this, align 8, !tbaa !40
  %closeOnDestruction_ = getelementptr inbounds %"class.folly::test::TemporaryFile", ptr %this, i64 0, i32 1
  store i8 %frombool, ptr %closeOnDestruction_, align 4, !tbaa !44
  %fd_ = getelementptr inbounds %"class.folly::test::TemporaryFile", ptr %this, i64 0, i32 2
  store i32 -1, ptr %fd_, align 8, !tbaa !45
  %path_ = getelementptr inbounds %"class.folly::test::TemporaryFile", ptr %this, i64 0, i32 3
  %0 = getelementptr inbounds %"class.std::__cxx11::basic_string", ptr %agg.tmp, i64 0, i32 2
  store ptr %0, ptr %agg.tmp, align 8, !tbaa !25
  %1 = load ptr, ptr %dir, align 8, !tbaa !29
  %2 = getelementptr inbounds %"class.std::__cxx11::basic_string", ptr %dir, i64 0, i32 2
  %cmp.i.i.i = icmp eq ptr %1, %2
  br i1 %cmp.i.i.i, label %if.then.i.i, label %if.else.i.i

if.then.i.i:                                      ; preds = %entry
  %_M_string_length.i.i.i = getelementptr inbounds %"class.std::__cxx11::basic_string", ptr %dir, i64 0, i32 1
  %3 = load i64, ptr %_M_string_length.i.i.i, align 8, !tbaa !32
  %cmp3.i.i.i = icmp ult i64 %3, 16
  call void @llvm.assume(i1 %cmp3.i.i.i)
  %add.i.i = add nuw nsw i64 %3, 1
  call void @llvm.memcpy.p0.p0.i64(ptr noundef nonnull align 8 dereferenceable(1) %0, ptr noundef nonnull align 8 dereferenceable(1) %1, i64 %add.i.i, i1 false)
  br label %_ZN5boost10filesystem4pathC2EOS1_.exit

if.else.i.i:                                      ; preds = %entry
  store ptr %1, ptr %agg.tmp, align 8, !tbaa !29
  %4 = load i64, ptr %2, align 8, !tbaa !31
  store i64 %4, ptr %0, align 8, !tbaa !31
  %_M_string_length.i23.i.i.phi.trans.insert = getelementptr inbounds %"class.std::__cxx11::basic_string", ptr %dir, i64 0, i32 1
  %.pre = load i64, ptr %_M_string_length.i23.i.i.phi.trans.insert, align 8, !tbaa !32
  br label %_ZN5boost10filesystem4pathC2EOS1_.exit

_ZN5boost10filesystem4pathC2EOS1_.exit:           ; preds = %if.else.i.i, %if.then.i.i
  %5 = phi i64 [ %3, %if.then.i.i ], [ %.pre, %if.else.i.i ]
  %_M_string_length.i23.i.i = getelementptr inbounds %"class.std::__cxx11::basic_string", ptr %dir, i64 0, i32 1
  %_M_string_length.i24.i.i = getelementptr inbounds %"class.std::__cxx11::basic_string", ptr %agg.tmp, i64 0, i32 1
  store i64 %5, ptr %_M_string_length.i24.i.i, align 8, !tbaa !32
  store ptr %2, ptr %dir, align 8, !tbaa !29
  store i64 0, ptr %_M_string_length.i23.i.i, align 8, !tbaa !32
  store i8 0, ptr %2, align 1, !tbaa !31
  invoke fastcc void @_ZN5folly4test12_GLOBAL__N_118generateUniquePathEN5boost10filesystem4pathENS_5RangeIPKcEE(ptr noalias nonnull align 8 %path_, ptr noundef nonnull %agg.tmp, ptr %namePrefix.coerce0, ptr %namePrefix.coerce1)
          to label %invoke.cont unwind label %lpad

invoke.cont:                                      ; preds = %_ZN5boost10filesystem4pathC2EOS1_.exit
  %6 = load ptr, ptr %agg.tmp, align 8, !tbaa !29
  %cmp.i.i.i.i = icmp eq ptr %6, %0
  br i1 %cmp.i.i.i.i, label %_ZNKSt7__cxx1112basic_stringIcSt11char_traitsIcESaIcEE11_M_is_localEv.exit.thread.i.i.i, label %if.then.i.i.i

_ZNKSt7__cxx1112basic_stringIcSt11char_traitsIcESaIcEE11_M_is_localEv.exit.thread.i.i.i: ; preds = %invoke.cont
  %7 = load i64, ptr %_M_string_length.i24.i.i, align 8, !tbaa !32
  %cmp3.i.i.i.i = icmp ult i64 %7, 16
  call void @llvm.assume(i1 %cmp3.i.i.i.i)
  br label %_ZN5boost10filesystem4pathD2Ev.exit

if.then.i.i.i:                                    ; preds = %invoke.cont
  call void @_ZdlPv(ptr noundef %6) #33
  br label %_ZN5boost10filesystem4pathD2Ev.exit

_ZN5boost10filesystem4pathD2Ev.exit:              ; preds = %if.then.i.i.i, %_ZNKSt7__cxx1112basic_stringIcSt11char_traitsIcESaIcEE11_M_is_localEv.exit.thread.i.i.i
  %8 = load ptr, ptr %path_, align 8, !tbaa !29
  %call9 = invoke i32 (ptr, i32, ...) @open(ptr noundef %8, i32 noundef 194, i32 noundef 438)
          to label %invoke.cont8 unwind label %lpad5

invoke.cont8:                                     ; preds = %_ZN5boost10filesystem4pathD2Ev.exit
  store i32 %call9, ptr %fd_, align 8, !tbaa !45
  %cmp.i = icmp eq i32 %call9, -1
  br i1 %cmp.i, label %if.then.i, label %invoke.cont12, !prof !46

if.then.i:                                        ; preds = %invoke.cont8
  invoke void @_ZN5folly16throwSystemErrorIJRA12_KcEEEvDpOT_(ptr noundef nonnull align 1 dereferenceable(12) @.str.5) #31
          to label %.noexc unwind label %lpad5

.noexc:                                           ; preds = %if.then.i
  unreachable

invoke.cont12:                                    ; preds = %invoke.cont8
  %9 = load i32, ptr %this, align 8, !tbaa !40
  %cmp = icmp eq i32 %9, 1
  br i1 %cmp, label %if.then, label %if.end30

if.then:                                          ; preds = %invoke.cont12
  call void @llvm.lifetime.start.p0(i64 16, ptr nonnull %ec) #30
  store i32 0, ptr %ec, align 8, !tbaa !47
  %failed_.i = getelementptr inbounds %"class.boost::system::error_code", ptr %ec, i64 0, i32 1
  store i8 0, ptr %failed_.i, align 4, !tbaa !48
  %cat_.i = getelementptr inbounds %"class.boost::system::error_code", ptr %ec, i64 0, i32 2
  store ptr @_ZN5boost6system6detail10cat_holderIvE24system_category_instanceE, ptr %cat_.i, align 8, !tbaa !20
  %call.i = invoke noundef zeroext i1 @_ZN5boost10filesystem6detail6removeERKNS0_4pathEPNS_6system10error_codeE(ptr noundef nonnull align 8 dereferenceable(32) %path_, ptr noundef nonnull %ec)
          to label %_ZN5boost10filesystem6removeERKNS0_4pathERNS_6system10error_codeE.exit unwind label %terminate.lpad.i

terminate.lpad.i:                                 ; preds = %if.then
  %10 = landingpad { ptr, i32 }
          catch ptr null
  %11 = extractvalue { ptr, i32 } %10, 0
  call void @__clang_call_terminate(ptr %11) #32
  unreachable

_ZN5boost10filesystem6removeERKNS0_4pathERNS_6system10error_codeE.exit: ; preds = %if.then
  %12 = load i8, ptr %failed_.i, align 4, !tbaa !48, !range !49, !noundef !50
  %tobool.i.not = icmp eq i8 %12, 0
  br i1 %tobool.i.not, label %if.else, label %if.then17

if.then17:                                        ; preds = %_ZN5boost10filesystem6removeERKNS0_4pathERNS_6system10error_codeE.exit
  call void @llvm.lifetime.start.p0(i64 16, ptr nonnull %ref.tmp) #30
  invoke void @_ZN6google10LogMessageC1EPKcii(ptr noundef nonnull align 8 dereferenceable(16) %ref.tmp, ptr noundef nonnull @.str.6, i32 noundef 74, i32 noundef 1)
          to label %invoke.cont19 unwind label %lpad18

invoke.cont19:                                    ; preds = %if.then17
  %call22 = invoke noundef nonnull align 8 dereferenceable(8) ptr @_ZN6google10LogMessage6streamEv(ptr noundef nonnull align 8 dereferenceable(16) %ref.tmp)
          to label %invoke.cont21 unwind label %lpad20

invoke.cont21:                                    ; preds = %invoke.cont19
  %call1.i37 = invoke noundef nonnull align 8 dereferenceable(8) ptr @_ZSt16__ostream_insertIcSt11char_traitsIcEERSt13basic_ostreamIT_T0_ES6_PKS3_l(ptr noundef nonnull align 8 dereferenceable(8) %call22, ptr noundef nonnull @.str.7, i64 noundef 31)
          to label %invoke.cont23 unwind label %lpad20

invoke.cont23:                                    ; preds = %invoke.cont21
  %agg.tmp25.sroa.0.0.copyload = load i64, ptr %ec, align 8, !tbaa.struct !51
  %agg.tmp25.sroa.2.0.copyload = load ptr, ptr %cat_.i, align 8, !tbaa.struct !54
  %vtable.i = load ptr, ptr %agg.tmp25.sroa.2.0.copyload, align 8, !tbaa !7
  %13 = load ptr, ptr %vtable.i, align 8
  %call1.i = call noundef ptr %13(ptr noundef nonnull align 8 dereferenceable(16) %agg.tmp25.sroa.2.0.copyload) #30
  %tobool.not.i.i = icmp eq ptr %call1.i, null
  br i1 %tobool.not.i.i, label %if.then.i.i39, label %if.else.i.i38

if.then.i.i39:                                    ; preds = %invoke.cont23
  %vtable.i.i = load ptr, ptr %call22, align 8, !tbaa !7
  %vbase.offset.ptr.i.i = getelementptr i8, ptr %vtable.i.i, i64 -24
  %vbase.offset.i.i = load i64, ptr %vbase.offset.ptr.i.i, align 8
  %add.ptr.i.i = getelementptr inbounds i8, ptr %call22, i64 %vbase.offset.i.i
  %_M_streambuf_state.i.i.i.i = getelementptr inbounds %"class.std::ios_base", ptr %add.ptr.i.i, i64 0, i32 5
  %14 = load i32, ptr %_M_streambuf_state.i.i.i.i, align 8, !tbaa !55
  %or.i.i.i.i = or i32 %14, 1
  invoke void @_ZNSt9basic_iosIcSt11char_traitsIcEE5clearESt12_Ios_Iostate(ptr noundef nonnull align 8 dereferenceable(264) %add.ptr.i.i, i32 noundef %or.i.i.i.i)
          to label %_ZStlsISt11char_traitsIcEERSt13basic_ostreamIcT_ES5_PKc.exit.i unwind label %lpad20

if.else.i.i38:                                    ; preds = %invoke.cont23
  %call.i.i.i = call noundef i64 @strlen(ptr noundef nonnull dereferenceable(1) %call1.i) #30
  %call1.i.i41 = invoke noundef nonnull align 8 dereferenceable(8) ptr @_ZSt16__ostream_insertIcSt11char_traitsIcEERSt13basic_ostreamIT_T0_ES6_PKS3_l(ptr noundef nonnull align 8 dereferenceable(8) %call22, ptr noundef nonnull %call1.i, i64 noundef %call.i.i.i)
          to label %_ZStlsISt11char_traitsIcEERSt13basic_ostreamIcT_ES5_PKc.exit.i unwind label %lpad20

_ZStlsISt11char_traitsIcEERSt13basic_ostreamIcT_ES5_PKc.exit.i: ; preds = %if.else.i.i38, %if.then.i.i39
  call void @llvm.lifetime.start.p0(i64 1, ptr nonnull %__c.addr.i.i)
  store i8 58, ptr %__c.addr.i.i, align 1, !tbaa !31
  %vtable.i7.i = load ptr, ptr %call22, align 8, !tbaa !7
  %vbase.offset.ptr.i8.i = getelementptr i8, ptr %vtable.i7.i, i64 -24
  %vbase.offset.i9.i = load i64, ptr %vbase.offset.ptr.i8.i, align 8
  %add.ptr.i10.i = getelementptr inbounds i8, ptr %call22, i64 %vbase.offset.i9.i
  %_M_width.i.i.i = getelementptr inbounds %"class.std::ios_base", ptr %add.ptr.i10.i, i64 0, i32 2
  %15 = load i64, ptr %_M_width.i.i.i, align 8, !tbaa !61
  %cmp.not.i.i = icmp eq i64 %15, 0
  br i1 %cmp.not.i.i, label %if.end.i.i, label %if.then.i11.i

if.then.i11.i:                                    ; preds = %_ZStlsISt11char_traitsIcEERSt13basic_ostreamIcT_ES5_PKc.exit.i
  %call1.i12.i42 = invoke noundef nonnull align 8 dereferenceable(8) ptr @_ZSt16__ostream_insertIcSt11char_traitsIcEERSt13basic_ostreamIT_T0_ES6_PKS3_l(ptr noundef nonnull align 8 dereferenceable(8) %call22, ptr noundef nonnull %__c.addr.i.i, i64 noundef 1)
          to label %_ZStlsISt11char_traitsIcEERSt13basic_ostreamIcT_ES5_c.exit.i unwind label %lpad20

if.end.i.i:                                       ; preds = %_ZStlsISt11char_traitsIcEERSt13basic_ostreamIcT_ES5_PKc.exit.i
  %call2.i.i43 = invoke noundef nonnull align 8 dereferenceable(8) ptr @_ZNSo3putEc(ptr noundef nonnull align 8 dereferenceable(8) %call22, i8 noundef signext 58)
          to label %_ZStlsISt11char_traitsIcEERSt13basic_ostreamIcT_ES5_c.exit.i unwind label %lpad20

_ZStlsISt11char_traitsIcEERSt13basic_ostreamIcT_ES5_c.exit.i: ; preds = %if.end.i.i, %if.then.i11.i
  %retval.0.i.i = phi ptr [ %call1.i12.i42, %if.then.i11.i ], [ %call22, %if.end.i.i ]
  %ec.sroa.0.0.extract.trunc.i = trunc i64 %agg.tmp25.sroa.0.0.copyload to i32
  call void @llvm.lifetime.end.p0(i64 1, ptr nonnull %__c.addr.i.i)
  %call5.i44 = invoke noundef nonnull align 8 dereferenceable(8) ptr @_ZNSolsEi(ptr noundef nonnull align 8 dereferenceable(8) %retval.0.i.i, i32 noundef %ec.sroa.0.0.extract.trunc.i)
          to label %invoke.cont26 unwind label %lpad20

invoke.cont26:                                    ; preds = %_ZStlsISt11char_traitsIcEERSt13basic_ostreamIcT_ES5_c.exit.i
  call void @_ZN6google10LogMessageD1Ev(ptr noundef nonnull align 8 dereferenceable(16) %ref.tmp) #30
  call void @llvm.lifetime.end.p0(i64 16, ptr nonnull %ref.tmp) #30
  br label %if.end

lpad:                                             ; preds = %_ZN5boost10filesystem4pathC2EOS1_.exit
  %16 = landingpad { ptr, i32 }
          cleanup
  %17 = load ptr, ptr %agg.tmp, align 8, !tbaa !29
  %cmp.i.i.i.i45 = icmp eq ptr %17, %0
  br i1 %cmp.i.i.i.i45, label %_ZNKSt7__cxx1112basic_stringIcSt11char_traitsIcESaIcEE11_M_is_localEv.exit.thread.i.i.i47, label %if.then.i.i.i46

_ZNKSt7__cxx1112basic_stringIcSt11char_traitsIcESaIcEE11_M_is_localEv.exit.thread.i.i.i47: ; preds = %lpad
  %18 = load i64, ptr %_M_string_length.i24.i.i, align 8, !tbaa !32
  %cmp3.i.i.i.i49 = icmp ult i64 %18, 16
  call void @llvm.assume(i1 %cmp3.i.i.i.i49)
  br label %eh.resume

if.then.i.i.i46:                                  ; preds = %lpad
  call void @_ZdlPv(ptr noundef %17) #33
  br label %eh.resume

lpad5:                                            ; preds = %if.then.i, %_ZN5boost10filesystem4pathD2Ev.exit
  %19 = landingpad { ptr, i32 }
          cleanup
  br label %ehcleanup31

lpad18:                                           ; preds = %if.then17
  %20 = landingpad { ptr, i32 }
          cleanup
  br label %ehcleanup

lpad20:                                           ; preds = %_ZStlsISt11char_traitsIcEERSt13basic_ostreamIcT_ES5_c.exit.i, %if.end.i.i, %if.then.i11.i, %if.else.i.i38, %if.then.i.i39, %invoke.cont21, %invoke.cont19
  %21 = landingpad { ptr, i32 }
          cleanup
  call void @_ZN6google10LogMessageD1Ev(ptr noundef nonnull align 8 dereferenceable(16) %ref.tmp) #30
  br label %ehcleanup

ehcleanup:                                        ; preds = %lpad20, %lpad18
  %.pn = phi { ptr, i32 } [ %21, %lpad20 ], [ %20, %lpad18 ]
  call void @llvm.lifetime.end.p0(i64 16, ptr nonnull %ref.tmp) #30
  call void @llvm.lifetime.end.p0(i64 16, ptr nonnull %ec) #30
  br label %ehcleanup31

if.else:                                          ; preds = %_ZN5boost10filesystem6removeERKNS0_4pathERNS_6system10error_codeE.exit
  %_M_string_length.i.i.i.i51 = getelementptr inbounds %"class.folly::test::TemporaryFile", ptr %this, i64 0, i32 3, i32 0, i32 1
  store i64 0, ptr %_M_string_length.i.i.i.i51, align 8, !tbaa !32
  %22 = load ptr, ptr %path_, align 8, !tbaa !29
  store i8 0, ptr %22, align 1, !tbaa !31
  br label %if.end

if.end:                                           ; preds = %if.else, %invoke.cont26
  call void @llvm.lifetime.end.p0(i64 16, ptr nonnull %ec) #30
  br label %if.end30

if.end30:                                         ; preds = %if.end, %invoke.cont12
  ret void

ehcleanup31:                                      ; preds = %ehcleanup, %lpad5
  %.pn.pn = phi { ptr, i32 } [ %.pn, %ehcleanup ], [ %19, %lpad5 ]
  %23 = load ptr, ptr %path_, align 8, !tbaa !29
  %24 = getelementptr inbounds %"class.folly::test::TemporaryFile", ptr %this, i64 0, i32 3, i32 0, i32 2
  %cmp.i.i.i.i52 = icmp eq ptr %23, %24
  br i1 %cmp.i.i.i.i52, label %_ZNKSt7__cxx1112basic_stringIcSt11char_traitsIcESaIcEE11_M_is_localEv.exit.thread.i.i.i54, label %if.then.i.i.i53

_ZNKSt7__cxx1112basic_stringIcSt11char_traitsIcESaIcEE11_M_is_localEv.exit.thread.i.i.i54: ; preds = %ehcleanup31
  %_M_string_length.i.i.i.i55 = getelementptr inbounds %"class.folly::test::TemporaryFile", ptr %this, i64 0, i32 3, i32 0, i32 1
  %25 = load i64, ptr %_M_string_length.i.i.i.i55, align 8, !tbaa !32
  %cmp3.i.i.i.i56 = icmp ult i64 %25, 16
  call void @llvm.assume(i1 %cmp3.i.i.i.i56)
  br label %eh.resume

if.then.i.i.i53:                                  ; preds = %ehcleanup31
  call void @_ZdlPv(ptr noundef %23) #33
  br label %eh.resume

eh.resume:                                        ; preds = %if.then.i.i.i53, %_ZNKSt7__cxx1112basic_stringIcSt11char_traitsIcESaIcEE11_M_is_localEv.exit.thread.i.i.i54, %if.then.i.i.i46, %_ZNKSt7__cxx1112basic_stringIcSt11char_traitsIcESaIcEE11_M_is_localEv.exit.thread.i.i.i47
  %.pn.pn.pn = phi { ptr, i32 } [ %16, %_ZNKSt7__cxx1112basic_stringIcSt11char_traitsIcESaIcEE11_M_is_localEv.exit.thread.i.i.i47 ], [ %16, %if.then.i.i.i46 ], [ %.pn.pn, %_ZNKSt7__cxx1112basic_stringIcSt11char_traitsIcESaIcEE11_M_is_localEv.exit.thread.i.i.i54 ], [ %.pn.pn, %if.then.i.i.i53 ]
  resume { ptr, i32 } %.pn.pn.pn
}

; Function Attrs: mustprogress uwtable
define internal fastcc void @_ZN5folly4test12_GLOBAL__N_118generateUniquePathEN5boost10filesystem4pathENS_5RangeIPKcEE(ptr noalias align 8 %agg.result, ptr noundef %path, ptr %namePrefix.coerce0, ptr %namePrefix.coerce1) unnamed_addr #5 personality ptr @__gxx_personality_v0 {
entry:
  %__dnew.i.i.i68 = alloca i64, align 8
  %__dnew.i.i.i = alloca i64, align 8
  %ref.tmp = alloca %"class.boost::filesystem::path", align 8
  %ref.tmp4 = alloca %"class.boost::filesystem::path", align 8
  %ref.tmp5 = alloca %"class.boost::filesystem::path", align 8
  %ref.tmp11 = alloca %"class.boost::filesystem::path", align 8
  %ref.tmp12 = alloca %"class.boost::filesystem::path", align 8
  %ref.tmp13 = alloca %"class.std::__cxx11::basic_string", align 8
  %_M_string_length.i.i.i = getelementptr inbounds %"class.std::__cxx11::basic_string", ptr %path, i64 0, i32 1
  %0 = load i64, ptr %_M_string_length.i.i.i, align 8, !tbaa !32
  %cmp.i.i = icmp eq i64 %0, 0
  br i1 %cmp.i.i, label %if.then, label %if.end

if.then:                                          ; preds = %entry
  call void @llvm.lifetime.start.p0(i64 32, ptr nonnull %ref.tmp) #30
  call void @_ZN5boost10filesystem6detail19temp_directory_pathEPNS_6system10error_codeE(ptr nonnull sret(%"class.boost::filesystem::path") align 8 %ref.tmp, ptr noundef null)
  %1 = load ptr, ptr %path, align 8, !tbaa !29
  %2 = getelementptr inbounds %"class.std::__cxx11::basic_string", ptr %path, i64 0, i32 2
  %cmp.i.i.i = icmp eq ptr %1, %2
  br i1 %cmp.i.i.i, label %if.end.i.i, label %if.end.thread.i.i

if.end.i.i:                                       ; preds = %if.then
  %3 = load i64, ptr %_M_string_length.i.i.i, align 8, !tbaa !32
  %cmp3.i.i.i = icmp ult i64 %3, 16
  call void @llvm.assume(i1 %cmp3.i.i.i)
  %4 = load ptr, ptr %ref.tmp, align 8, !tbaa !29
  %5 = getelementptr inbounds %"class.std::__cxx11::basic_string", ptr %ref.tmp, i64 0, i32 2
  %cmp.i56.i.i = icmp eq ptr %4, %5
  br i1 %cmp.i56.i.i, label %if.then15.i.i, label %if.end32.thread.i.i

if.end.thread.i.i:                                ; preds = %if.then
  %6 = load ptr, ptr %ref.tmp, align 8, !tbaa !29
  %7 = getelementptr inbounds %"class.std::__cxx11::basic_string", ptr %ref.tmp, i64 0, i32 2
  %cmp.i5678.i.i = icmp eq ptr %6, %7
  br i1 %cmp.i5678.i.i, label %if.then15.i.i, label %if.end32.i.i

if.then15.i.i:                                    ; preds = %if.end.thread.i.i, %if.end.i.i
  %8 = phi ptr [ %6, %if.end.thread.i.i ], [ %5, %if.end.i.i ]
  %_M_string_length.i58.i.i = getelementptr inbounds %"class.std::__cxx11::basic_string", ptr %ref.tmp, i64 0, i32 1
  %9 = load i64, ptr %_M_string_length.i58.i.i, align 8, !tbaa !32
  %cmp3.i59.i.i = icmp ult i64 %9, 16
  call void @llvm.assume(i1 %cmp3.i59.i.i)
  %cmp.not.i.i = icmp eq ptr %ref.tmp, %path
  br i1 %cmp.not.i.i, label %_ZN5boost10filesystem4pathaSEOS1_.exit, label %if.then16.i.i, !prof !46

if.then16.i.i:                                    ; preds = %if.then15.i.i
  switch i64 %9, label %if.end.i.i.i.i [
    i64 0, label %if.end24.i.i
    i64 1, label %if.then.i63.i.i
  ]

if.then.i63.i.i:                                  ; preds = %if.then16.i.i
  %10 = load i8, ptr %8, align 1, !tbaa !31
  store i8 %10, ptr %1, align 1, !tbaa !31
  br label %if.end24.i.i

if.end.i.i.i.i:                                   ; preds = %if.then16.i.i
  call void @llvm.memcpy.p0.p0.i64(ptr align 1 %1, ptr align 1 %8, i64 %9, i1 false)
  br label %if.end24.i.i

if.end24.i.i:                                     ; preds = %if.end.i.i.i.i, %if.then.i63.i.i, %if.then16.i.i
  %11 = load i64, ptr %_M_string_length.i58.i.i, align 8, !tbaa !32
  store i64 %11, ptr %_M_string_length.i.i.i, align 8, !tbaa !32
  %12 = load ptr, ptr %path, align 8, !tbaa !29
  %arrayidx.i.i.i = getelementptr inbounds i8, ptr %12, i64 %11
  store i8 0, ptr %arrayidx.i.i.i, align 1, !tbaa !31
  %.pre.i.i = load ptr, ptr %ref.tmp, align 8, !tbaa !29
  br label %_ZN5boost10filesystem4pathaSEOS1_.exit

if.end32.thread.i.i:                              ; preds = %if.end.i.i
  store ptr %4, ptr %path, align 8, !tbaa !29
  %_M_string_length.i7175.i.i = getelementptr inbounds %"class.std::__cxx11::basic_string", ptr %ref.tmp, i64 0, i32 1
  %13 = load i64, ptr %_M_string_length.i7175.i.i, align 8, !tbaa !32
  store i64 %13, ptr %_M_string_length.i.i.i, align 8, !tbaa !32
  %14 = load i64, ptr %5, align 8, !tbaa !31
  store i64 %14, ptr %1, align 8, !tbaa !31
  br label %if.else37.i.i

if.end32.i.i:                                     ; preds = %if.end.thread.i.i
  %15 = load i64, ptr %2, align 8, !tbaa !31
  store ptr %6, ptr %path, align 8, !tbaa !29
  %_M_string_length.i71.i.i = getelementptr inbounds %"class.std::__cxx11::basic_string", ptr %ref.tmp, i64 0, i32 1
  %16 = load <2 x i64>, ptr %_M_string_length.i71.i.i, align 8, !tbaa !31
  store <2 x i64> %16, ptr %_M_string_length.i.i.i, align 8, !tbaa !31
  %tobool35.not.i.i = icmp eq ptr %1, null
  br i1 %tobool35.not.i.i, label %if.else37.i.i, label %if.then36.i.i

if.then36.i.i:                                    ; preds = %if.end32.i.i
  store ptr %1, ptr %ref.tmp, align 8, !tbaa !29
  store i64 %15, ptr %7, align 8, !tbaa !31
  br label %_ZN5boost10filesystem4pathaSEOS1_.exit

if.else37.i.i:                                    ; preds = %if.end32.i.i, %if.end32.thread.i.i
  %17 = phi ptr [ %5, %if.end32.thread.i.i ], [ %7, %if.end32.i.i ]
  store ptr %17, ptr %ref.tmp, align 8, !tbaa !29
  br label %_ZN5boost10filesystem4pathaSEOS1_.exit

_ZN5boost10filesystem4pathaSEOS1_.exit:           ; preds = %if.else37.i.i, %if.then36.i.i, %if.end24.i.i, %if.then15.i.i
  %18 = phi ptr [ %.pre.i.i, %if.end24.i.i ], [ %1, %if.then36.i.i ], [ %17, %if.else37.i.i ], [ %8, %if.then15.i.i ]
  %_M_string_length.i.i.i.i.i = getelementptr inbounds %"class.std::__cxx11::basic_string", ptr %ref.tmp, i64 0, i32 1
  store i64 0, ptr %_M_string_length.i.i.i.i.i, align 8, !tbaa !32
  store i8 0, ptr %18, align 1, !tbaa !31
  %19 = load ptr, ptr %ref.tmp, align 8, !tbaa !29
  %20 = getelementptr inbounds %"class.std::__cxx11::basic_string", ptr %ref.tmp, i64 0, i32 2
  %cmp.i.i.i.i = icmp eq ptr %19, %20
  br i1 %cmp.i.i.i.i, label %_ZNKSt7__cxx1112basic_stringIcSt11char_traitsIcESaIcEE11_M_is_localEv.exit.thread.i.i.i, label %if.then.i.i.i

_ZNKSt7__cxx1112basic_stringIcSt11char_traitsIcESaIcEE11_M_is_localEv.exit.thread.i.i.i: ; preds = %_ZN5boost10filesystem4pathaSEOS1_.exit
  %21 = load i64, ptr %_M_string_length.i.i.i.i.i, align 8, !tbaa !32
  %cmp3.i.i.i.i = icmp ult i64 %21, 16
  call void @llvm.assume(i1 %cmp3.i.i.i.i)
  br label %_ZN5boost10filesystem4pathD2Ev.exit

if.then.i.i.i:                                    ; preds = %_ZN5boost10filesystem4pathaSEOS1_.exit
  call void @_ZdlPv(ptr noundef %19) #33
  br label %_ZN5boost10filesystem4pathD2Ev.exit

_ZN5boost10filesystem4pathD2Ev.exit:              ; preds = %if.then.i.i.i, %_ZNKSt7__cxx1112basic_stringIcSt11char_traitsIcESaIcEE11_M_is_localEv.exit.thread.i.i.i
  call void @llvm.lifetime.end.p0(i64 32, ptr nonnull %ref.tmp) #30
  br label %if.end

if.end:                                           ; preds = %_ZN5boost10filesystem4pathD2Ev.exit, %entry
  %cmp.i = icmp eq ptr %namePrefix.coerce0, %namePrefix.coerce1
  br i1 %cmp.i, label %if.then3, label %if.else

if.then3:                                         ; preds = %if.end
  call void @llvm.lifetime.start.p0(i64 32, ptr nonnull %ref.tmp4) #30
  call void @llvm.lifetime.start.p0(i64 32, ptr nonnull %ref.tmp5) #30
  %22 = getelementptr inbounds %"class.std::__cxx11::basic_string", ptr %ref.tmp5, i64 0, i32 2
  store ptr %22, ptr %ref.tmp5, align 8, !tbaa !25
  call void @llvm.lifetime.start.p0(i64 8, ptr nonnull %__dnew.i.i.i) #30
  store i64 19, ptr %__dnew.i.i.i, align 8, !tbaa !27
  %call2.i11.i3.i = call noundef ptr @_ZNSt7__cxx1112basic_stringIcSt11char_traitsIcESaIcEE9_M_createERmm(ptr noundef nonnull align 8 dereferenceable(32) %ref.tmp5, ptr noundef nonnull align 8 dereferenceable(8) %__dnew.i.i.i, i64 noundef 0)
  store ptr %call2.i11.i3.i, ptr %ref.tmp5, align 8, !tbaa !29
  %23 = load i64, ptr %__dnew.i.i.i, align 8, !tbaa !27
  store i64 %23, ptr %22, align 8, !tbaa !31
  call void @llvm.memcpy.p0.p0.i64(ptr noundef nonnull align 1 dereferenceable(19) %call2.i11.i3.i, ptr noundef nonnull align 1 dereferenceable(19) @.str.8, i64 19, i1 false)
  %_M_string_length.i.i.i.i.i37 = getelementptr inbounds %"class.std::__cxx11::basic_string", ptr %ref.tmp5, i64 0, i32 1
  store i64 %23, ptr %_M_string_length.i.i.i.i.i37, align 8, !tbaa !32
  %24 = load ptr, ptr %ref.tmp5, align 8, !tbaa !29
  %arrayidx.i.i.i.i = getelementptr inbounds i8, ptr %24, i64 %23
  store i8 0, ptr %arrayidx.i.i.i.i, align 1, !tbaa !31
  call void @llvm.lifetime.end.p0(i64 8, ptr nonnull %__dnew.i.i.i) #30
  invoke void @_ZN5boost10filesystem6detail11unique_pathERKNS0_4pathEPNS_6system10error_codeE(ptr nonnull sret(%"class.boost::filesystem::path") align 8 %ref.tmp4, ptr noundef nonnull align 8 dereferenceable(32) %ref.tmp5, ptr noundef null)
          to label %invoke.cont unwind label %lpad

invoke.cont:                                      ; preds = %if.then3
  %call8 = invoke noundef nonnull align 8 dereferenceable(32) ptr @_ZN5boost10filesystem4pathdVERKS1_(ptr noundef nonnull align 8 dereferenceable(32) %path, ptr noundef nonnull align 8 dereferenceable(32) %ref.tmp4)
          to label %invoke.cont7 unwind label %lpad6

invoke.cont7:                                     ; preds = %invoke.cont
  %25 = load ptr, ptr %ref.tmp4, align 8, !tbaa !29
  %26 = getelementptr inbounds %"class.std::__cxx11::basic_string", ptr %ref.tmp4, i64 0, i32 2
  %cmp.i.i.i.i39 = icmp eq ptr %25, %26
  br i1 %cmp.i.i.i.i39, label %_ZNKSt7__cxx1112basic_stringIcSt11char_traitsIcESaIcEE11_M_is_localEv.exit.thread.i.i.i41, label %if.then.i.i.i40

_ZNKSt7__cxx1112basic_stringIcSt11char_traitsIcESaIcEE11_M_is_localEv.exit.thread.i.i.i41: ; preds = %invoke.cont7
  %_M_string_length.i.i.i.i42 = getelementptr inbounds %"class.std::__cxx11::basic_string", ptr %ref.tmp4, i64 0, i32 1
  %27 = load i64, ptr %_M_string_length.i.i.i.i42, align 8, !tbaa !32
  %cmp3.i.i.i.i43 = icmp ult i64 %27, 16
  call void @llvm.assume(i1 %cmp3.i.i.i.i43)
  br label %_ZN5boost10filesystem4pathD2Ev.exit44

if.then.i.i.i40:                                  ; preds = %invoke.cont7
  call void @_ZdlPv(ptr noundef %25) #33
  br label %_ZN5boost10filesystem4pathD2Ev.exit44

_ZN5boost10filesystem4pathD2Ev.exit44:            ; preds = %if.then.i.i.i40, %_ZNKSt7__cxx1112basic_stringIcSt11char_traitsIcESaIcEE11_M_is_localEv.exit.thread.i.i.i41
  %28 = load ptr, ptr %ref.tmp5, align 8, !tbaa !29
  %cmp.i.i.i.i45 = icmp eq ptr %28, %22
  br i1 %cmp.i.i.i.i45, label %_ZNKSt7__cxx1112basic_stringIcSt11char_traitsIcESaIcEE11_M_is_localEv.exit.thread.i.i.i47, label %if.then.i.i.i46

_ZNKSt7__cxx1112basic_stringIcSt11char_traitsIcESaIcEE11_M_is_localEv.exit.thread.i.i.i47: ; preds = %_ZN5boost10filesystem4pathD2Ev.exit44
  %29 = load i64, ptr %_M_string_length.i.i.i.i.i37, align 8, !tbaa !32
  %cmp3.i.i.i.i49 = icmp ult i64 %29, 16
  call void @llvm.assume(i1 %cmp3.i.i.i.i49)
  br label %_ZN5boost10filesystem4pathD2Ev.exit50

if.then.i.i.i46:                                  ; preds = %_ZN5boost10filesystem4pathD2Ev.exit44
  call void @_ZdlPv(ptr noundef %28) #33
  br label %_ZN5boost10filesystem4pathD2Ev.exit50

_ZN5boost10filesystem4pathD2Ev.exit50:            ; preds = %if.then.i.i.i46, %_ZNKSt7__cxx1112basic_stringIcSt11char_traitsIcESaIcEE11_M_is_localEv.exit.thread.i.i.i47
  call void @llvm.lifetime.end.p0(i64 32, ptr nonnull %ref.tmp5) #30
  call void @llvm.lifetime.end.p0(i64 32, ptr nonnull %ref.tmp4) #30
  br label %if.end27

lpad:                                             ; preds = %if.then3
  %30 = landingpad { ptr, i32 }
          cleanup
  br label %ehcleanup

lpad6:                                            ; preds = %invoke.cont
  %31 = landingpad { ptr, i32 }
          cleanup
  %32 = load ptr, ptr %ref.tmp4, align 8, !tbaa !29
  %33 = getelementptr inbounds %"class.std::__cxx11::basic_string", ptr %ref.tmp4, i64 0, i32 2
  %cmp.i.i.i.i51 = icmp eq ptr %32, %33
  br i1 %cmp.i.i.i.i51, label %_ZNKSt7__cxx1112basic_stringIcSt11char_traitsIcESaIcEE11_M_is_localEv.exit.thread.i.i.i53, label %if.then.i.i.i52

_ZNKSt7__cxx1112basic_stringIcSt11char_traitsIcESaIcEE11_M_is_localEv.exit.thread.i.i.i53: ; preds = %lpad6
  %_M_string_length.i.i.i.i54 = getelementptr inbounds %"class.std::__cxx11::basic_string", ptr %ref.tmp4, i64 0, i32 1
  %34 = load i64, ptr %_M_string_length.i.i.i.i54, align 8, !tbaa !32
  %cmp3.i.i.i.i55 = icmp ult i64 %34, 16
  call void @llvm.assume(i1 %cmp3.i.i.i.i55)
  br label %ehcleanup

if.then.i.i.i52:                                  ; preds = %lpad6
  call void @_ZdlPv(ptr noundef %32) #33
  br label %ehcleanup

ehcleanup:                                        ; preds = %if.then.i.i.i52, %_ZNKSt7__cxx1112basic_stringIcSt11char_traitsIcESaIcEE11_M_is_localEv.exit.thread.i.i.i53, %lpad
  %.pn31 = phi { ptr, i32 } [ %30, %lpad ], [ %31, %_ZNKSt7__cxx1112basic_stringIcSt11char_traitsIcESaIcEE11_M_is_localEv.exit.thread.i.i.i53 ], [ %31, %if.then.i.i.i52 ]
  %35 = load ptr, ptr %ref.tmp5, align 8, !tbaa !29
  %cmp.i.i.i.i57 = icmp eq ptr %35, %22
  br i1 %cmp.i.i.i.i57, label %_ZNKSt7__cxx1112basic_stringIcSt11char_traitsIcESaIcEE11_M_is_localEv.exit.thread.i.i.i59, label %if.then.i.i.i58

_ZNKSt7__cxx1112basic_stringIcSt11char_traitsIcESaIcEE11_M_is_localEv.exit.thread.i.i.i59: ; preds = %ehcleanup
  %36 = load i64, ptr %_M_string_length.i.i.i.i.i37, align 8, !tbaa !32
  %cmp3.i.i.i.i61 = icmp ult i64 %36, 16
  call void @llvm.assume(i1 %cmp3.i.i.i.i61)
  br label %_ZN5boost10filesystem4pathD2Ev.exit62

if.then.i.i.i58:                                  ; preds = %ehcleanup
  call void @_ZdlPv(ptr noundef %35) #33
  br label %_ZN5boost10filesystem4pathD2Ev.exit62

_ZN5boost10filesystem4pathD2Ev.exit62:            ; preds = %if.then.i.i.i58, %_ZNKSt7__cxx1112basic_stringIcSt11char_traitsIcESaIcEE11_M_is_localEv.exit.thread.i.i.i59
  call void @llvm.lifetime.end.p0(i64 32, ptr nonnull %ref.tmp5) #30
  call void @llvm.lifetime.end.p0(i64 32, ptr nonnull %ref.tmp4) #30
  br label %common.resume

if.else:                                          ; preds = %if.end
  call void @llvm.lifetime.start.p0(i64 32, ptr nonnull %ref.tmp11) #30
  call void @llvm.lifetime.start.p0(i64 32, ptr nonnull %ref.tmp12) #30
  call void @llvm.lifetime.start.p0(i64 32, ptr nonnull %ref.tmp13) #30
  %37 = getelementptr inbounds %"class.std::__cxx11::basic_string", ptr %ref.tmp13, i64 0, i32 2
  store ptr %37, ptr %ref.tmp13, align 8, !tbaa !25, !alias.scope !62
  %_M_string_length.i.i.i.i63 = getelementptr inbounds %"class.std::__cxx11::basic_string", ptr %ref.tmp13, i64 0, i32 1
  store i64 0, ptr %_M_string_length.i.i.i.i63, align 8, !tbaa !32, !alias.scope !62
  store i8 0, ptr %37, align 8, !tbaa !31, !alias.scope !62
  %sub.ptr.lhs.cast.i.i.i.i.i = ptrtoint ptr %namePrefix.coerce1 to i64
  %sub.ptr.rhs.cast.i.i.i.i.i = ptrtoint ptr %namePrefix.coerce0 to i64
  %reass.sub.i = sub i64 %sub.ptr.lhs.cast.i.i.i.i.i, %sub.ptr.rhs.cast.i.i.i.i.i
  %add.1.i.i.i = add i64 %reass.sub.i, 21
  invoke void @_ZNSt7__cxx1112basic_stringIcSt11char_traitsIcESaIcEE7reserveEm(ptr noundef nonnull align 8 dereferenceable(32) %ref.tmp13, i64 noundef %add.1.i.i.i)
          to label %.noexc unwind label %lpad.i

.noexc:                                           ; preds = %if.else
  %38 = load i64, ptr %_M_string_length.i.i.i.i63, align 8, !tbaa !32
  %sub3.i.i.i.i.i.i = sub i64 4611686018427387903, %38
  %cmp.i.i.i.i.i.i = icmp ult i64 %sub3.i.i.i.i.i.i, %reass.sub.i
  br i1 %cmp.i.i.i.i.i.i, label %if.then.i.i.i19.i.i.i.invoke, label %_ZN5folly8toAppendINSt7__cxx1112basic_stringIcSt11char_traitsIcESaIcEEEEENSt9enable_ifIXsr12IsSomeStringIT_EE5valueEvE4typeENS_5RangeIPKcEEPS8_.exit.i.i.i

_ZN5folly8toAppendINSt7__cxx1112basic_stringIcSt11char_traitsIcESaIcEEEEENSt9enable_ifIXsr12IsSomeStringIT_EE5valueEvE4typeENS_5RangeIPKcEEPS8_.exit.i.i.i: ; preds = %.noexc
  %call.i.i.i.i.i121 = invoke noundef nonnull align 8 dereferenceable(32) ptr @_ZNSt7__cxx1112basic_stringIcSt11char_traitsIcESaIcEE9_M_appendEPKcm(ptr noundef nonnull align 8 dereferenceable(32) %ref.tmp13, ptr noundef %namePrefix.coerce0, i64 noundef %reass.sub.i)
          to label %call.i.i.i.i.i.noexc unwind label %lpad.i

call.i.i.i.i.i.noexc:                             ; preds = %_ZN5folly8toAppendINSt7__cxx1112basic_stringIcSt11char_traitsIcESaIcEEEEENSt9enable_ifIXsr12IsSomeStringIT_EE5valueEvE4typeENS_5RangeIPKcEEPS8_.exit.i.i.i
  %39 = load i64, ptr %_M_string_length.i.i.i.i63, align 8, !tbaa !32
  %40 = add i64 %39, -4611686018427387884
  %cmp.i.i.i18.i.i.i = icmp ult i64 %40, 20
  br i1 %cmp.i.i.i18.i.i.i, label %if.then.i.i.i19.i.i.i.invoke, label %_ZN5folly8toAppendIJNS_5RangeIPKcEEA21_cPNSt7__cxx1112basic_stringIcSt11char_traitsIcESaIcEEEEEENSt9enable_ifIXaagesZT_Li3Esr12IsSomeStringINSt14remove_pointerI19__type_pack_elementIXmisPDpT_ELi1EEJSH_EEE4typeEEE5valueEvE4typeEDpRKSG_.exit.i

if.then.i.i.i19.i.i.i.invoke:                     ; preds = %call.i.i.i.i.i.noexc, %.noexc
  invoke void @_ZSt20__throw_length_errorPKc(ptr noundef nonnull @.str.4) #31
          to label %if.then.i.i.i19.i.i.i.cont unwind label %lpad.i

if.then.i.i.i19.i.i.i.cont:                       ; preds = %if.then.i.i.i19.i.i.i.invoke
  unreachable

_ZN5folly8toAppendIJNS_5RangeIPKcEEA21_cPNSt7__cxx1112basic_stringIcSt11char_traitsIcESaIcEEEEEENSt9enable_ifIXaagesZT_Li3Esr12IsSomeStringINSt14remove_pointerI19__type_pack_elementIXmisPDpT_ELi1EEJSH_EEE4typeEEE5valueEvE4typeEDpRKSG_.exit.i: ; preds = %call.i.i.i.i.i.noexc
  %call2.i.i.i.i.i123 = invoke noundef nonnull align 8 dereferenceable(32) ptr @_ZNSt7__cxx1112basic_stringIcSt11char_traitsIcESaIcEE9_M_appendEPKcm(ptr noundef nonnull align 8 dereferenceable(32) %ref.tmp13, ptr noundef nonnull @.str.9, i64 noundef 20)
          to label %_ZN5folly2toINSt7__cxx1112basic_stringIcSt11char_traitsIcESaIcEEEJNS_5RangeIPKcEEA21_cEEENSt9enable_ifIXaasr12IsSomeStringIT_EE5valueoonesZT0_Li1Entsr3std7is_sameISD_19__type_pack_elementIXmisPvDpT0_ELi1EEJvSG_EEEE5valueESD_E4typeEDpRKSF_.exit unwind label %lpad.i

lpad.i:                                           ; preds = %_ZN5folly8toAppendIJNS_5RangeIPKcEEA21_cPNSt7__cxx1112basic_stringIcSt11char_traitsIcESaIcEEEEEENSt9enable_ifIXaagesZT_Li3Esr12IsSomeStringINSt14remove_pointerI19__type_pack_elementIXmisPDpT_ELi1EEJSH_EEE4typeEEE5valueEvE4typeEDpRKSG_.exit.i, %if.then.i.i.i19.i.i.i.invoke, %_ZN5folly8toAppendINSt7__cxx1112basic_stringIcSt11char_traitsIcESaIcEEEEENSt9enable_ifIXsr12IsSomeStringIT_EE5valueEvE4typeENS_5RangeIPKcEEPS8_.exit.i.i.i, %if.else
  %41 = landingpad { ptr, i32 }
          cleanup
  %42 = load ptr, ptr %ref.tmp13, align 8, !tbaa !29, !alias.scope !62
  %cmp.i.i.i.i64 = icmp eq ptr %42, %37
  br i1 %cmp.i.i.i.i64, label %_ZNKSt7__cxx1112basic_stringIcSt11char_traitsIcESaIcEE11_M_is_localEv.exit.thread.i.i.i66, label %if.then.i.i.i65

_ZNKSt7__cxx1112basic_stringIcSt11char_traitsIcESaIcEE11_M_is_localEv.exit.thread.i.i.i66: ; preds = %lpad.i
  %43 = load i64, ptr %_M_string_length.i.i.i.i63, align 8, !tbaa !32, !alias.scope !62
  %cmp3.i.i.i.i67 = icmp ult i64 %43, 16
  call void @llvm.assume(i1 %cmp3.i.i.i.i67)
  br label %common.resume

if.then.i.i.i65:                                  ; preds = %lpad.i
  call void @_ZdlPv(ptr noundef %42) #33
  br label %common.resume

common.resume:                                    ; preds = %_ZNSt7__cxx1112basic_stringIcSt11char_traitsIcESaIcEED2Ev.exit115, %if.then.i.i.i65, %_ZNKSt7__cxx1112basic_stringIcSt11char_traitsIcESaIcEE11_M_is_localEv.exit.thread.i.i.i66, %_ZN5boost10filesystem4pathD2Ev.exit62
  %common.resume.op = phi { ptr, i32 } [ %41, %if.then.i.i.i65 ], [ %41, %_ZNKSt7__cxx1112basic_stringIcSt11char_traitsIcESaIcEE11_M_is_localEv.exit.thread.i.i.i66 ], [ %.pn31, %_ZN5boost10filesystem4pathD2Ev.exit62 ], [ %.pn.pn, %_ZNSt7__cxx1112basic_stringIcSt11char_traitsIcESaIcEED2Ev.exit115 ]
  resume { ptr, i32 } %common.resume.op

_ZN5folly2toINSt7__cxx1112basic_stringIcSt11char_traitsIcESaIcEEEJNS_5RangeIPKcEEA21_cEEENSt9enable_ifIXaasr12IsSomeStringIT_EE5valueoonesZT0_Li1Entsr3std7is_sameISD_19__type_pack_elementIXmisPvDpT0_ELi1EEJvSG_EEEE5valueESD_E4typeEDpRKSF_.exit: ; preds = %_ZN5folly8toAppendIJNS_5RangeIPKcEEA21_cPNSt7__cxx1112basic_stringIcSt11char_traitsIcESaIcEEEEEENSt9enable_ifIXaagesZT_Li3Esr12IsSomeStringINSt14remove_pointerI19__type_pack_elementIXmisPDpT_ELi1EEJSH_EEE4typeEEE5valueEvE4typeEDpRKSG_.exit.i
  %44 = getelementptr inbounds %"class.std::__cxx11::basic_string", ptr %ref.tmp12, i64 0, i32 2
  store ptr %44, ptr %ref.tmp12, align 8, !tbaa !25
  %45 = load ptr, ptr %ref.tmp13, align 8, !tbaa !29
  %46 = load i64, ptr %_M_string_length.i.i.i.i63, align 8, !tbaa !32
  call void @llvm.lifetime.start.p0(i64 8, ptr nonnull %__dnew.i.i.i68) #30
  store i64 %46, ptr %__dnew.i.i.i68, align 8, !tbaa !27
  %cmp.i.i.i70 = icmp ugt i64 %46, 15
  br i1 %cmp.i.i.i70, label %if.then.i.i.i76, label %if.end.i.i.i71

if.then.i.i.i76:                                  ; preds = %_ZN5folly2toINSt7__cxx1112basic_stringIcSt11char_traitsIcESaIcEEEJNS_5RangeIPKcEEA21_cEEENSt9enable_ifIXaasr12IsSomeStringIT_EE5valueoonesZT0_Li1Entsr3std7is_sameISD_19__type_pack_elementIXmisPvDpT0_ELi1EEJvSG_EEEE5valueESD_E4typeEDpRKSF_.exit
  %call2.i12.i.i77 = invoke noundef ptr @_ZNSt7__cxx1112basic_stringIcSt11char_traitsIcESaIcEE9_M_createERmm(ptr noundef nonnull align 8 dereferenceable(32) %ref.tmp12, ptr noundef nonnull align 8 dereferenceable(8) %__dnew.i.i.i68, i64 noundef 0)
          to label %call2.i12.i.i.noexc unwind label %lpad14

call2.i12.i.i.noexc:                              ; preds = %if.then.i.i.i76
  store ptr %call2.i12.i.i77, ptr %ref.tmp12, align 8, !tbaa !29
  %47 = load i64, ptr %__dnew.i.i.i68, align 8, !tbaa !27
  store i64 %47, ptr %44, align 8, !tbaa !31
  br label %if.end.i.i.i71

if.end.i.i.i71:                                   ; preds = %call2.i12.i.i.noexc, %_ZN5folly2toINSt7__cxx1112basic_stringIcSt11char_traitsIcESaIcEEEJNS_5RangeIPKcEEA21_cEEENSt9enable_ifIXaasr12IsSomeStringIT_EE5valueoonesZT0_Li1Entsr3std7is_sameISD_19__type_pack_elementIXmisPvDpT0_ELi1EEJvSG_EEEE5valueESD_E4typeEDpRKSF_.exit
  %48 = phi ptr [ %call2.i12.i.i77, %call2.i12.i.i.noexc ], [ %44, %_ZN5folly2toINSt7__cxx1112basic_stringIcSt11char_traitsIcESaIcEEEJNS_5RangeIPKcEEA21_cEEENSt9enable_ifIXaasr12IsSomeStringIT_EE5valueoonesZT0_Li1Entsr3std7is_sameISD_19__type_pack_elementIXmisPvDpT0_ELi1EEJvSG_EEEE5valueESD_E4typeEDpRKSF_.exit ]
  switch i64 %46, label %if.end.i.i.i.i.i.i75 [
    i64 1, label %if.then.i.i.i.i.i74
    i64 0, label %invoke.cont15
  ]

if.then.i.i.i.i.i74:                              ; preds = %if.end.i.i.i71
  %49 = load i8, ptr %45, align 1, !tbaa !31
  store i8 %49, ptr %48, align 1, !tbaa !31
  br label %invoke.cont15

if.end.i.i.i.i.i.i75:                             ; preds = %if.end.i.i.i71
  call void @llvm.memcpy.p0.p0.i64(ptr align 1 %48, ptr align 1 %45, i64 %46, i1 false)
  br label %invoke.cont15

invoke.cont15:                                    ; preds = %if.end.i.i.i.i.i.i75, %if.then.i.i.i.i.i74, %if.end.i.i.i71
  %50 = load i64, ptr %__dnew.i.i.i68, align 8, !tbaa !27
  %_M_string_length.i.i.i.i.i72 = getelementptr inbounds %"class.std::__cxx11::basic_string", ptr %ref.tmp12, i64 0, i32 1
  store i64 %50, ptr %_M_string_length.i.i.i.i.i72, align 8, !tbaa !32
  %51 = load ptr, ptr %ref.tmp12, align 8, !tbaa !29
  %arrayidx.i.i.i.i73 = getelementptr inbounds i8, ptr %51, i64 %50
  store i8 0, ptr %arrayidx.i.i.i.i73, align 1, !tbaa !31
  call void @llvm.lifetime.end.p0(i64 8, ptr nonnull %__dnew.i.i.i68) #30
  invoke void @_ZN5boost10filesystem6detail11unique_pathERKNS0_4pathEPNS_6system10error_codeE(ptr nonnull sret(%"class.boost::filesystem::path") align 8 %ref.tmp11, ptr noundef nonnull align 8 dereferenceable(32) %ref.tmp12, ptr noundef null)
          to label %invoke.cont17 unwind label %lpad16

invoke.cont17:                                    ; preds = %invoke.cont15
  %call20 = invoke noundef nonnull align 8 dereferenceable(32) ptr @_ZN5boost10filesystem4pathdVERKS1_(ptr noundef nonnull align 8 dereferenceable(32) %path, ptr noundef nonnull align 8 dereferenceable(32) %ref.tmp11)
          to label %invoke.cont19 unwind label %lpad18

invoke.cont19:                                    ; preds = %invoke.cont17
  %52 = load ptr, ptr %ref.tmp11, align 8, !tbaa !29
  %53 = getelementptr inbounds %"class.std::__cxx11::basic_string", ptr %ref.tmp11, i64 0, i32 2
  %cmp.i.i.i.i79 = icmp eq ptr %52, %53
  br i1 %cmp.i.i.i.i79, label %_ZNKSt7__cxx1112basic_stringIcSt11char_traitsIcESaIcEE11_M_is_localEv.exit.thread.i.i.i82, label %if.then.i.i.i80

_ZNKSt7__cxx1112basic_stringIcSt11char_traitsIcESaIcEE11_M_is_localEv.exit.thread.i.i.i82: ; preds = %invoke.cont19
  %_M_string_length.i.i.i.i83 = getelementptr inbounds %"class.std::__cxx11::basic_string", ptr %ref.tmp11, i64 0, i32 1
  %54 = load i64, ptr %_M_string_length.i.i.i.i83, align 8, !tbaa !32
  %cmp3.i.i.i.i84 = icmp ult i64 %54, 16
  call void @llvm.assume(i1 %cmp3.i.i.i.i84)
  br label %_ZN5boost10filesystem4pathD2Ev.exit85

if.then.i.i.i80:                                  ; preds = %invoke.cont19
  call void @_ZdlPv(ptr noundef %52) #33
  br label %_ZN5boost10filesystem4pathD2Ev.exit85

_ZN5boost10filesystem4pathD2Ev.exit85:            ; preds = %if.then.i.i.i80, %_ZNKSt7__cxx1112basic_stringIcSt11char_traitsIcESaIcEE11_M_is_localEv.exit.thread.i.i.i82
  %55 = load ptr, ptr %ref.tmp12, align 8, !tbaa !29
  %cmp.i.i.i.i86 = icmp eq ptr %55, %44
  br i1 %cmp.i.i.i.i86, label %_ZNKSt7__cxx1112basic_stringIcSt11char_traitsIcESaIcEE11_M_is_localEv.exit.thread.i.i.i89, label %if.then.i.i.i87

_ZNKSt7__cxx1112basic_stringIcSt11char_traitsIcESaIcEE11_M_is_localEv.exit.thread.i.i.i89: ; preds = %_ZN5boost10filesystem4pathD2Ev.exit85
  %56 = load i64, ptr %_M_string_length.i.i.i.i.i72, align 8, !tbaa !32
  %cmp3.i.i.i.i91 = icmp ult i64 %56, 16
  call void @llvm.assume(i1 %cmp3.i.i.i.i91)
  br label %_ZN5boost10filesystem4pathD2Ev.exit92

if.then.i.i.i87:                                  ; preds = %_ZN5boost10filesystem4pathD2Ev.exit85
  call void @_ZdlPv(ptr noundef %55) #33
  br label %_ZN5boost10filesystem4pathD2Ev.exit92

_ZN5boost10filesystem4pathD2Ev.exit92:            ; preds = %if.then.i.i.i87, %_ZNKSt7__cxx1112basic_stringIcSt11char_traitsIcESaIcEE11_M_is_localEv.exit.thread.i.i.i89
  %57 = load ptr, ptr %ref.tmp13, align 8, !tbaa !29
  %cmp.i.i.i93 = icmp eq ptr %57, %37
  br i1 %cmp.i.i.i93, label %_ZNKSt7__cxx1112basic_stringIcSt11char_traitsIcESaIcEE11_M_is_localEv.exit.thread.i.i, label %if.then.i.i

_ZNKSt7__cxx1112basic_stringIcSt11char_traitsIcESaIcEE11_M_is_localEv.exit.thread.i.i: ; preds = %_ZN5boost10filesystem4pathD2Ev.exit92
  %58 = load i64, ptr %_M_string_length.i.i.i.i63, align 8, !tbaa !32
  %cmp3.i.i.i95 = icmp ult i64 %58, 16
  call void @llvm.assume(i1 %cmp3.i.i.i95)
  br label %_ZNSt7__cxx1112basic_stringIcSt11char_traitsIcESaIcEED2Ev.exit

if.then.i.i:                                      ; preds = %_ZN5boost10filesystem4pathD2Ev.exit92
  call void @_ZdlPv(ptr noundef %57) #33
  br label %_ZNSt7__cxx1112basic_stringIcSt11char_traitsIcESaIcEED2Ev.exit

_ZNSt7__cxx1112basic_stringIcSt11char_traitsIcESaIcEED2Ev.exit: ; preds = %if.then.i.i, %_ZNKSt7__cxx1112basic_stringIcSt11char_traitsIcESaIcEE11_M_is_localEv.exit.thread.i.i
  call void @llvm.lifetime.end.p0(i64 32, ptr nonnull %ref.tmp13) #30
  call void @llvm.lifetime.end.p0(i64 32, ptr nonnull %ref.tmp12) #30
  call void @llvm.lifetime.end.p0(i64 32, ptr nonnull %ref.tmp11) #30
  br label %if.end27

lpad14:                                           ; preds = %if.then.i.i.i76
  %59 = landingpad { ptr, i32 }
          cleanup
  br label %ehcleanup23

lpad16:                                           ; preds = %invoke.cont15
  %60 = landingpad { ptr, i32 }
          cleanup
  br label %ehcleanup22

lpad18:                                           ; preds = %invoke.cont17
  %61 = landingpad { ptr, i32 }
          cleanup
  %62 = load ptr, ptr %ref.tmp11, align 8, !tbaa !29
  %63 = getelementptr inbounds %"class.std::__cxx11::basic_string", ptr %ref.tmp11, i64 0, i32 2
  %cmp.i.i.i.i96 = icmp eq ptr %62, %63
  br i1 %cmp.i.i.i.i96, label %_ZNKSt7__cxx1112basic_stringIcSt11char_traitsIcESaIcEE11_M_is_localEv.exit.thread.i.i.i99, label %if.then.i.i.i97

_ZNKSt7__cxx1112basic_stringIcSt11char_traitsIcESaIcEE11_M_is_localEv.exit.thread.i.i.i99: ; preds = %lpad18
  %_M_string_length.i.i.i.i100 = getelementptr inbounds %"class.std::__cxx11::basic_string", ptr %ref.tmp11, i64 0, i32 1
  %64 = load i64, ptr %_M_string_length.i.i.i.i100, align 8, !tbaa !32
  %cmp3.i.i.i.i101 = icmp ult i64 %64, 16
  call void @llvm.assume(i1 %cmp3.i.i.i.i101)
  br label %ehcleanup22

if.then.i.i.i97:                                  ; preds = %lpad18
  call void @_ZdlPv(ptr noundef %62) #33
  br label %ehcleanup22

ehcleanup22:                                      ; preds = %if.then.i.i.i97, %_ZNKSt7__cxx1112basic_stringIcSt11char_traitsIcESaIcEE11_M_is_localEv.exit.thread.i.i.i99, %lpad16
  %.pn = phi { ptr, i32 } [ %60, %lpad16 ], [ %61, %_ZNKSt7__cxx1112basic_stringIcSt11char_traitsIcESaIcEE11_M_is_localEv.exit.thread.i.i.i99 ], [ %61, %if.then.i.i.i97 ]
  %65 = load ptr, ptr %ref.tmp12, align 8, !tbaa !29
  %cmp.i.i.i.i103 = icmp eq ptr %65, %44
  br i1 %cmp.i.i.i.i103, label %_ZNKSt7__cxx1112basic_stringIcSt11char_traitsIcESaIcEE11_M_is_localEv.exit.thread.i.i.i106, label %if.then.i.i.i104

_ZNKSt7__cxx1112basic_stringIcSt11char_traitsIcESaIcEE11_M_is_localEv.exit.thread.i.i.i106: ; preds = %ehcleanup22
  %66 = load i64, ptr %_M_string_length.i.i.i.i.i72, align 8, !tbaa !32
  %cmp3.i.i.i.i108 = icmp ult i64 %66, 16
  call void @llvm.assume(i1 %cmp3.i.i.i.i108)
  br label %ehcleanup23

if.then.i.i.i104:                                 ; preds = %ehcleanup22
  call void @_ZdlPv(ptr noundef %65) #33
  br label %ehcleanup23

ehcleanup23:                                      ; preds = %if.then.i.i.i104, %_ZNKSt7__cxx1112basic_stringIcSt11char_traitsIcESaIcEE11_M_is_localEv.exit.thread.i.i.i106, %lpad14
  %.pn.pn = phi { ptr, i32 } [ %59, %lpad14 ], [ %.pn, %_ZNKSt7__cxx1112basic_stringIcSt11char_traitsIcESaIcEE11_M_is_localEv.exit.thread.i.i.i106 ], [ %.pn, %if.then.i.i.i104 ]
  %67 = load ptr, ptr %ref.tmp13, align 8, !tbaa !29
  %cmp.i.i.i110 = icmp eq ptr %67, %37
  br i1 %cmp.i.i.i110, label %_ZNKSt7__cxx1112basic_stringIcSt11char_traitsIcESaIcEE11_M_is_localEv.exit.thread.i.i112, label %if.then.i.i111

_ZNKSt7__cxx1112basic_stringIcSt11char_traitsIcESaIcEE11_M_is_localEv.exit.thread.i.i112: ; preds = %ehcleanup23
  %68 = load i64, ptr %_M_string_length.i.i.i.i63, align 8, !tbaa !32
  %cmp3.i.i.i114 = icmp ult i64 %68, 16
  call void @llvm.assume(i1 %cmp3.i.i.i114)
  br label %_ZNSt7__cxx1112basic_stringIcSt11char_traitsIcESaIcEED2Ev.exit115

if.then.i.i111:                                   ; preds = %ehcleanup23
  call void @_ZdlPv(ptr noundef %67) #33
  br label %_ZNSt7__cxx1112basic_stringIcSt11char_traitsIcESaIcEED2Ev.exit115

_ZNSt7__cxx1112basic_stringIcSt11char_traitsIcESaIcEED2Ev.exit115: ; preds = %if.then.i.i111, %_ZNKSt7__cxx1112basic_stringIcSt11char_traitsIcESaIcEE11_M_is_localEv.exit.thread.i.i112
  call void @llvm.lifetime.end.p0(i64 32, ptr nonnull %ref.tmp13) #30
  call void @llvm.lifetime.end.p0(i64 32, ptr nonnull %ref.tmp12) #30
  call void @llvm.lifetime.end.p0(i64 32, ptr nonnull %ref.tmp11) #30
  br label %common.resume

if.end27:                                         ; preds = %_ZNSt7__cxx1112basic_stringIcSt11char_traitsIcESaIcEED2Ev.exit, %_ZN5boost10filesystem4pathD2Ev.exit50
  %69 = getelementptr inbounds %"class.std::__cxx11::basic_string", ptr %agg.result, i64 0, i32 2
  store ptr %69, ptr %agg.result, align 8, !tbaa !25
  %70 = load ptr, ptr %path, align 8, !tbaa !29
  %71 = getelementptr inbounds %"class.std::__cxx11::basic_string", ptr %path, i64 0, i32 2
  %cmp.i.i.i116 = icmp eq ptr %70, %71
  br i1 %cmp.i.i.i116, label %if.then.i.i117, label %if.else.i.i

if.then.i.i117:                                   ; preds = %if.end27
  %72 = load i64, ptr %_M_string_length.i.i.i, align 8, !tbaa !32
  %cmp3.i.i.i119 = icmp ult i64 %72, 16
  call void @llvm.assume(i1 %cmp3.i.i.i119)
  %add.i.i = add nuw nsw i64 %72, 1
  call void @llvm.memcpy.p0.p0.i64(ptr noundef nonnull align 8 dereferenceable(1) %69, ptr noundef nonnull align 8 dereferenceable(1) %71, i64 %add.i.i, i1 false)
  br label %_ZN5boost10filesystem4pathC2EOS1_.exit

if.else.i.i:                                      ; preds = %if.end27
  store ptr %70, ptr %agg.result, align 8, !tbaa !29
  %73 = load i64, ptr %71, align 8, !tbaa !31
  store i64 %73, ptr %69, align 8, !tbaa !31
  %.pre = load i64, ptr %_M_string_length.i.i.i, align 8, !tbaa !32
  br label %_ZN5boost10filesystem4pathC2EOS1_.exit

_ZN5boost10filesystem4pathC2EOS1_.exit:           ; preds = %if.else.i.i, %if.then.i.i117
  %74 = phi i64 [ %72, %if.then.i.i117 ], [ %.pre, %if.else.i.i ]
  %_M_string_length.i24.i.i = getelementptr inbounds %"class.std::__cxx11::basic_string", ptr %agg.result, i64 0, i32 1
  store i64 %74, ptr %_M_string_length.i24.i.i, align 8, !tbaa !32
  store ptr %71, ptr %path, align 8, !tbaa !29
  store i64 0, ptr %_M_string_length.i.i.i, align 8, !tbaa !32
  store i8 0, ptr %71, align 1, !tbaa !31
  ret void
}

; Function Attrs: nofree
declare noundef i32 @open(ptr nocapture noundef readonly, i32 noundef, ...) local_unnamed_addr #15

declare void @_ZN6google10LogMessageC1EPKcii(ptr noundef nonnull align 8 dereferenceable(16), ptr noundef, i32 noundef, i32 noundef) unnamed_addr #9

declare noundef nonnull align 8 dereferenceable(8) ptr @_ZN6google10LogMessage6streamEv(ptr noundef nonnull align 8 dereferenceable(16)) local_unnamed_addr #9

; Function Attrs: nounwind
declare void @_ZN6google10LogMessageD1Ev(ptr noundef nonnull align 8 dereferenceable(16)) unnamed_addr #6

declare noundef nonnull align 8 dereferenceable(32) ptr @_ZN5boost10filesystem4pathdVERKS1_(ptr noundef nonnull align 8 dereferenceable(32), ptr noundef nonnull align 8 dereferenceable(32)) local_unnamed_addr #9

declare void @_ZN5boost10filesystem6detail19temp_directory_pathEPNS_6system10error_codeE(ptr sret(%"class.boost::filesystem::path") align 8, ptr noundef) local_unnamed_addr #9

declare void @_ZN5boost10filesystem6detail11unique_pathERKNS0_4pathEPNS_6system10error_codeE(ptr sret(%"class.boost::filesystem::path") align 8, ptr noundef nonnull align 8 dereferenceable(32), ptr noundef) local_unnamed_addr #9

declare void @_ZNSt7__cxx1112basic_stringIcSt11char_traitsIcESaIcEE7reserveEm(ptr noundef nonnull align 8 dereferenceable(32), i64 noundef) local_unnamed_addr #9

; Function Attrs: mustprogress noreturn uwtable
define linkonce_odr void @_ZN5folly16throwSystemErrorIJRA12_KcEEEvDpOT_(ptr noundef nonnull align 1 dereferenceable(12) %args) local_unnamed_addr #16 comdat {
entry:
  %call = tail call ptr @__errno_location() #34
  %0 = load i32, ptr %call, align 4, !tbaa !33
  tail call void @_ZN5folly24throwSystemErrorExplicitEiPKc(i32 noundef %0, ptr noundef nonnull %args) #31
  unreachable
}

; Function Attrs: inlinehint mustprogress noreturn uwtable
define linkonce_odr void @_ZN5folly24throwSystemErrorExplicitEiPKc(i32 noundef %err, ptr noundef %msg) local_unnamed_addr #17 comdat personality ptr @__gxx_personality_v0 {
entry:
  %ref.tmp = alloca %"class.std::system_error", align 8
  call void @llvm.lifetime.start.p0(i64 32, ptr nonnull %ref.tmp) #30
  %call.i.i = tail call noundef nonnull align 8 dereferenceable(8) ptr @_ZNSt3_V215system_categoryEv() #34
  call void @_ZNSt12system_errorC2ESt10error_codePKc(ptr noundef nonnull align 8 dereferenceable(32) %ref.tmp, i32 %err, ptr nonnull %call.i.i, ptr noundef %msg)
  invoke void @_ZN5folly15throw_exceptionISt12system_errorEEvOT_(ptr noundef nonnull align 8 dereferenceable(32) %ref.tmp) #35
          to label %invoke.cont unwind label %lpad

invoke.cont:                                      ; preds = %entry
  unreachable

lpad:                                             ; preds = %entry
  %0 = landingpad { ptr, i32 }
          cleanup
  call void @_ZNSt12system_errorD1Ev(ptr noundef nonnull align 8 dereferenceable(32) %ref.tmp) #30
  call void @llvm.lifetime.end.p0(i64 32, ptr nonnull %ref.tmp) #30
  resume { ptr, i32 } %0
}

; Function Attrs: mustprogress nofree nosync nounwind willreturn memory(none)
declare ptr @__errno_location() local_unnamed_addr #18

; Function Attrs: cold mustprogress noreturn optsize uwtable
define linkonce_odr void @_ZN5folly15throw_exceptionISt12system_errorEEvOT_(ptr noundef nonnull align 8 dereferenceable(32) %ex) local_unnamed_addr #19 comdat {
entry:
  %exception = tail call ptr @__cxa_allocate_exception(i64 32) #30
  tail call void @_ZNSt12system_errorC2ERKS_(ptr noundef nonnull align 8 dereferenceable(32) %exception, ptr noundef nonnull align 8 dereferenceable(32) %ex) #30
  tail call void @__cxa_throw(ptr nonnull %exception, ptr nonnull @_ZTISt12system_error, ptr nonnull @_ZNSt12system_errorD1Ev) #31
  unreachable
}

; Function Attrs: nounwind
declare void @_ZNSt12system_errorD1Ev(ptr noundef nonnull align 8 dereferenceable(32)) unnamed_addr #6

declare ptr @__cxa_allocate_exception(i64) local_unnamed_addr

; Function Attrs: mustprogress nounwind uwtable
define linkonce_odr void @_ZNSt12system_errorC2ERKS_(ptr noundef nonnull align 8 dereferenceable(32) %this, ptr noundef nonnull align 8 dereferenceable(32) %0) unnamed_addr #1 comdat align 2 {
entry:
  tail call void @_ZNSt13runtime_errorC2ERKS_(ptr noundef nonnull align 8 dereferenceable(16) %this, ptr noundef nonnull align 8 dereferenceable(16) %0) #30
  store ptr getelementptr inbounds ({ [5 x ptr] }, ptr @_ZTVSt12system_error, i64 0, inrange i32 0, i64 2), ptr %this, align 8, !tbaa !7
  %_M_code = getelementptr inbounds %"class.std::system_error", ptr %this, i64 0, i32 1
  %_M_code2 = getelementptr inbounds %"class.std::system_error", ptr %0, i64 0, i32 1
  tail call void @llvm.memcpy.p0.p0.i64(ptr noundef nonnull align 8 dereferenceable(16) %_M_code, ptr noundef nonnull align 8 dereferenceable(16) %_M_code2, i64 16, i1 false), !tbaa.struct !65
  ret void
}

declare void @__cxa_throw(ptr, ptr, ptr) local_unnamed_addr

; Function Attrs: nounwind
declare void @_ZNSt13runtime_errorC2ERKS_(ptr noundef nonnull align 8 dereferenceable(16), ptr noundef nonnull align 8 dereferenceable(16)) unnamed_addr #6

; Function Attrs: mustprogress nofree nosync nounwind willreturn memory(none)
declare noundef nonnull align 8 dereferenceable(8) ptr @_ZNSt3_V215system_categoryEv() local_unnamed_addr #18

; Function Attrs: mustprogress uwtable
define linkonce_odr void @_ZNSt12system_errorC2ESt10error_codePKc(ptr noundef nonnull align 8 dereferenceable(32) %this, i32 %__ec.coerce0, ptr %__ec.coerce1, ptr noundef %__what) unnamed_addr #5 comdat align 2 personality ptr @__gxx_personality_v0 {
entry:
  %ref.tmp = alloca %"class.std::__cxx11::basic_string", align 8
  %ref.tmp2 = alloca %"class.std::__cxx11::basic_string", align 8
  %ref.tmp3 = alloca %"class.std::__cxx11::basic_string", align 8
  call void @llvm.lifetime.start.p0(i64 32, ptr nonnull %ref.tmp) #30
  call void @llvm.lifetime.start.p0(i64 32, ptr nonnull %ref.tmp2) #30
  call void @llvm.lifetime.start.p0(i64 32, ptr nonnull %ref.tmp3) #30
  %vtable.i = load ptr, ptr %__ec.coerce1, align 8, !tbaa !7, !noalias !66
  %vfn.i = getelementptr inbounds ptr, ptr %vtable.i, i64 4
  %0 = load ptr, ptr %vfn.i, align 8, !noalias !66
  call void %0(ptr nonnull sret(%"class.std::__cxx11::basic_string") align 8 %ref.tmp3, ptr noundef nonnull align 8 dereferenceable(8) %__ec.coerce1, i32 noundef %__ec.coerce0)
  %call3.i.i.i15 = invoke noundef nonnull align 8 dereferenceable(32) ptr @_ZNSt7__cxx1112basic_stringIcSt11char_traitsIcESaIcEE10_M_replaceEmmPKcm(ptr noundef nonnull align 8 dereferenceable(32) %ref.tmp3, i64 noundef 0, i64 noundef 0, ptr noundef nonnull @.str.3, i64 noundef 2)
          to label %call3.i.i.i.noexc unwind label %lpad

call3.i.i.i.noexc:                                ; preds = %entry
  %1 = getelementptr inbounds %"class.std::__cxx11::basic_string", ptr %ref.tmp2, i64 0, i32 2
  store ptr %1, ptr %ref.tmp2, align 8, !tbaa !25, !alias.scope !69
  %2 = load ptr, ptr %call3.i.i.i15, align 8, !tbaa !29
  %3 = getelementptr inbounds %"class.std::__cxx11::basic_string", ptr %call3.i.i.i15, i64 0, i32 2
  %cmp.i.i.i = icmp eq ptr %2, %3
  br i1 %cmp.i.i.i, label %if.then.i.i, label %if.else.i.i

if.then.i.i:                                      ; preds = %call3.i.i.i.noexc
  %_M_string_length.i.i.i = getelementptr inbounds %"class.std::__cxx11::basic_string", ptr %call3.i.i.i15, i64 0, i32 1
  %4 = load i64, ptr %_M_string_length.i.i.i, align 8, !tbaa !32
  %cmp3.i.i.i = icmp ult i64 %4, 16
  call void @llvm.assume(i1 %cmp3.i.i.i)
  %add.i.i = add nuw nsw i64 %4, 1
  call void @llvm.memcpy.p0.p0.i64(ptr noundef nonnull align 8 dereferenceable(1) %1, ptr noundef nonnull align 8 dereferenceable(1) %2, i64 %add.i.i, i1 false)
  br label %invoke.cont

if.else.i.i:                                      ; preds = %call3.i.i.i.noexc
  store ptr %2, ptr %ref.tmp2, align 8, !tbaa !29, !alias.scope !69
  %5 = load i64, ptr %3, align 8, !tbaa !31
  store i64 %5, ptr %1, align 8, !tbaa !31, !alias.scope !69
  %_M_string_length.i23.i.phi.trans.insert.i = getelementptr inbounds %"class.std::__cxx11::basic_string", ptr %call3.i.i.i15, i64 0, i32 1
  %.pre.i = load i64, ptr %_M_string_length.i23.i.phi.trans.insert.i, align 8, !tbaa !32
  br label %invoke.cont

invoke.cont:                                      ; preds = %if.else.i.i, %if.then.i.i
  %6 = phi i64 [ %4, %if.then.i.i ], [ %.pre.i, %if.else.i.i ]
  %_M_string_length.i23.i.i = getelementptr inbounds %"class.std::__cxx11::basic_string", ptr %call3.i.i.i15, i64 0, i32 1
  %_M_string_length.i24.i.i = getelementptr inbounds %"class.std::__cxx11::basic_string", ptr %ref.tmp2, i64 0, i32 1
  store i64 %6, ptr %_M_string_length.i24.i.i, align 8, !tbaa !32, !alias.scope !69
  store ptr %3, ptr %call3.i.i.i15, align 8, !tbaa !29
  store i64 0, ptr %_M_string_length.i23.i.i, align 8, !tbaa !32
  store i8 0, ptr %3, align 8, !tbaa !31
  call void @llvm.experimental.noalias.scope.decl(metadata !72)
  %call.i.i.i16 = call noundef i64 @strlen(ptr noundef nonnull dereferenceable(1) %__what) #30, !noalias !72
  %call3.i.i.i28 = invoke noundef nonnull align 8 dereferenceable(32) ptr @_ZNSt7__cxx1112basic_stringIcSt11char_traitsIcESaIcEE10_M_replaceEmmPKcm(ptr noundef nonnull align 8 dereferenceable(32) %ref.tmp2, i64 noundef 0, i64 noundef 0, ptr noundef %__what, i64 noundef %call.i.i.i16)
          to label %call3.i.i.i.noexc27 unwind label %lpad4

call3.i.i.i.noexc27:                              ; preds = %invoke.cont
  %7 = getelementptr inbounds %"class.std::__cxx11::basic_string", ptr %ref.tmp, i64 0, i32 2
  store ptr %7, ptr %ref.tmp, align 8, !tbaa !25, !alias.scope !72
  %8 = load ptr, ptr %call3.i.i.i28, align 8, !tbaa !29
  %9 = getelementptr inbounds %"class.std::__cxx11::basic_string", ptr %call3.i.i.i28, i64 0, i32 2
  %cmp.i.i.i17 = icmp eq ptr %8, %9
  br i1 %cmp.i.i.i17, label %if.then.i.i23, label %if.else.i.i18

if.then.i.i23:                                    ; preds = %call3.i.i.i.noexc27
  %_M_string_length.i.i.i24 = getelementptr inbounds %"class.std::__cxx11::basic_string", ptr %call3.i.i.i28, i64 0, i32 1
  %10 = load i64, ptr %_M_string_length.i.i.i24, align 8, !tbaa !32
  %cmp3.i.i.i25 = icmp ult i64 %10, 16
  call void @llvm.assume(i1 %cmp3.i.i.i25)
  %add.i.i26 = add nuw nsw i64 %10, 1
  call void @llvm.memcpy.p0.p0.i64(ptr noundef nonnull align 8 dereferenceable(1) %7, ptr noundef nonnull align 8 dereferenceable(1) %8, i64 %add.i.i26, i1 false)
  br label %invoke.cont5

if.else.i.i18:                                    ; preds = %call3.i.i.i.noexc27
  store ptr %8, ptr %ref.tmp, align 8, !tbaa !29, !alias.scope !72
  %11 = load i64, ptr %9, align 8, !tbaa !31
  store i64 %11, ptr %7, align 8, !tbaa !31, !alias.scope !72
  %_M_string_length.i23.i.phi.trans.insert.i19 = getelementptr inbounds %"class.std::__cxx11::basic_string", ptr %call3.i.i.i28, i64 0, i32 1
  %.pre.i20 = load i64, ptr %_M_string_length.i23.i.phi.trans.insert.i19, align 8, !tbaa !32
  br label %invoke.cont5

invoke.cont5:                                     ; preds = %if.else.i.i18, %if.then.i.i23
  %12 = phi i64 [ %10, %if.then.i.i23 ], [ %.pre.i20, %if.else.i.i18 ]
  %_M_string_length.i23.i.i21 = getelementptr inbounds %"class.std::__cxx11::basic_string", ptr %call3.i.i.i28, i64 0, i32 1
  %_M_string_length.i24.i.i22 = getelementptr inbounds %"class.std::__cxx11::basic_string", ptr %ref.tmp, i64 0, i32 1
  store i64 %12, ptr %_M_string_length.i24.i.i22, align 8, !tbaa !32, !alias.scope !72
  store ptr %9, ptr %call3.i.i.i28, align 8, !tbaa !29
  store i64 0, ptr %_M_string_length.i23.i.i21, align 8, !tbaa !32
  store i8 0, ptr %9, align 8, !tbaa !31
  invoke void @_ZNSt13runtime_errorC2ERKNSt7__cxx1112basic_stringIcSt11char_traitsIcESaIcEEE(ptr noundef nonnull align 8 dereferenceable(16) %this, ptr noundef nonnull align 8 dereferenceable(32) %ref.tmp)
          to label %invoke.cont7 unwind label %lpad6

invoke.cont7:                                     ; preds = %invoke.cont5
  %13 = load ptr, ptr %ref.tmp, align 8, !tbaa !29
  %cmp.i.i.i30 = icmp eq ptr %13, %7
  br i1 %cmp.i.i.i30, label %_ZNKSt7__cxx1112basic_stringIcSt11char_traitsIcESaIcEE11_M_is_localEv.exit.thread.i.i, label %if.then.i.i31

_ZNKSt7__cxx1112basic_stringIcSt11char_traitsIcESaIcEE11_M_is_localEv.exit.thread.i.i: ; preds = %invoke.cont7
  %14 = load i64, ptr %_M_string_length.i24.i.i22, align 8, !tbaa !32
  %cmp3.i.i.i33 = icmp ult i64 %14, 16
  call void @llvm.assume(i1 %cmp3.i.i.i33)
  br label %_ZNSt7__cxx1112basic_stringIcSt11char_traitsIcESaIcEED2Ev.exit

if.then.i.i31:                                    ; preds = %invoke.cont7
  call void @_ZdlPv(ptr noundef %13) #33
  br label %_ZNSt7__cxx1112basic_stringIcSt11char_traitsIcESaIcEED2Ev.exit

_ZNSt7__cxx1112basic_stringIcSt11char_traitsIcESaIcEED2Ev.exit: ; preds = %if.then.i.i31, %_ZNKSt7__cxx1112basic_stringIcSt11char_traitsIcESaIcEE11_M_is_localEv.exit.thread.i.i
  %15 = load ptr, ptr %ref.tmp2, align 8, !tbaa !29
  %cmp.i.i.i34 = icmp eq ptr %15, %1
  br i1 %cmp.i.i.i34, label %_ZNKSt7__cxx1112basic_stringIcSt11char_traitsIcESaIcEE11_M_is_localEv.exit.thread.i.i36, label %if.then.i.i35

_ZNKSt7__cxx1112basic_stringIcSt11char_traitsIcESaIcEE11_M_is_localEv.exit.thread.i.i36: ; preds = %_ZNSt7__cxx1112basic_stringIcSt11char_traitsIcESaIcEED2Ev.exit
  %16 = load i64, ptr %_M_string_length.i24.i.i, align 8, !tbaa !32
  %cmp3.i.i.i38 = icmp ult i64 %16, 16
  call void @llvm.assume(i1 %cmp3.i.i.i38)
  br label %_ZNSt7__cxx1112basic_stringIcSt11char_traitsIcESaIcEED2Ev.exit39

if.then.i.i35:                                    ; preds = %_ZNSt7__cxx1112basic_stringIcSt11char_traitsIcESaIcEED2Ev.exit
  call void @_ZdlPv(ptr noundef %15) #33
  br label %_ZNSt7__cxx1112basic_stringIcSt11char_traitsIcESaIcEED2Ev.exit39

_ZNSt7__cxx1112basic_stringIcSt11char_traitsIcESaIcEED2Ev.exit39: ; preds = %if.then.i.i35, %_ZNKSt7__cxx1112basic_stringIcSt11char_traitsIcESaIcEE11_M_is_localEv.exit.thread.i.i36
  %17 = load ptr, ptr %ref.tmp3, align 8, !tbaa !29
  %18 = getelementptr inbounds %"class.std::__cxx11::basic_string", ptr %ref.tmp3, i64 0, i32 2
  %cmp.i.i.i40 = icmp eq ptr %17, %18
  br i1 %cmp.i.i.i40, label %_ZNKSt7__cxx1112basic_stringIcSt11char_traitsIcESaIcEE11_M_is_localEv.exit.thread.i.i42, label %if.then.i.i41

_ZNKSt7__cxx1112basic_stringIcSt11char_traitsIcESaIcEE11_M_is_localEv.exit.thread.i.i42: ; preds = %_ZNSt7__cxx1112basic_stringIcSt11char_traitsIcESaIcEED2Ev.exit39
  %_M_string_length.i.i.i43 = getelementptr inbounds %"class.std::__cxx11::basic_string", ptr %ref.tmp3, i64 0, i32 1
  %19 = load i64, ptr %_M_string_length.i.i.i43, align 8, !tbaa !32
  %cmp3.i.i.i44 = icmp ult i64 %19, 16
  call void @llvm.assume(i1 %cmp3.i.i.i44)
  br label %_ZNSt7__cxx1112basic_stringIcSt11char_traitsIcESaIcEED2Ev.exit45

if.then.i.i41:                                    ; preds = %_ZNSt7__cxx1112basic_stringIcSt11char_traitsIcESaIcEED2Ev.exit39
  call void @_ZdlPv(ptr noundef %17) #33
  br label %_ZNSt7__cxx1112basic_stringIcSt11char_traitsIcESaIcEED2Ev.exit45

_ZNSt7__cxx1112basic_stringIcSt11char_traitsIcESaIcEED2Ev.exit45: ; preds = %if.then.i.i41, %_ZNKSt7__cxx1112basic_stringIcSt11char_traitsIcESaIcEE11_M_is_localEv.exit.thread.i.i42
  call void @llvm.lifetime.end.p0(i64 32, ptr nonnull %ref.tmp3) #30
  call void @llvm.lifetime.end.p0(i64 32, ptr nonnull %ref.tmp2) #30
  call void @llvm.lifetime.end.p0(i64 32, ptr nonnull %ref.tmp) #30
  store ptr getelementptr inbounds ({ [5 x ptr] }, ptr @_ZTVSt12system_error, i64 0, inrange i32 0, i64 2), ptr %this, align 8, !tbaa !7
  %_M_code = getelementptr inbounds %"class.std::system_error", ptr %this, i64 0, i32 1
  store i32 %__ec.coerce0, ptr %_M_code, align 8, !tbaa.struct !65
  %__ec.sroa.364.0._M_code.sroa_idx = getelementptr inbounds %"class.std::system_error", ptr %this, i64 0, i32 1, i32 1
  store ptr %__ec.coerce1, ptr %__ec.sroa.364.0._M_code.sroa_idx, align 8, !tbaa.struct !54
  ret void

lpad:                                             ; preds = %entry
  %20 = landingpad { ptr, i32 }
          cleanup
  br label %ehcleanup8

lpad4:                                            ; preds = %invoke.cont
  %21 = landingpad { ptr, i32 }
          cleanup
  br label %ehcleanup

lpad6:                                            ; preds = %invoke.cont5
  %22 = landingpad { ptr, i32 }
          cleanup
  %23 = load ptr, ptr %ref.tmp, align 8, !tbaa !29
  %cmp.i.i.i46 = icmp eq ptr %23, %7
  br i1 %cmp.i.i.i46, label %_ZNKSt7__cxx1112basic_stringIcSt11char_traitsIcESaIcEE11_M_is_localEv.exit.thread.i.i48, label %if.then.i.i47

_ZNKSt7__cxx1112basic_stringIcSt11char_traitsIcESaIcEE11_M_is_localEv.exit.thread.i.i48: ; preds = %lpad6
  %24 = load i64, ptr %_M_string_length.i24.i.i22, align 8, !tbaa !32
  %cmp3.i.i.i50 = icmp ult i64 %24, 16
  call void @llvm.assume(i1 %cmp3.i.i.i50)
  br label %ehcleanup

if.then.i.i47:                                    ; preds = %lpad6
  call void @_ZdlPv(ptr noundef %23) #33
  br label %ehcleanup

ehcleanup:                                        ; preds = %if.then.i.i47, %_ZNKSt7__cxx1112basic_stringIcSt11char_traitsIcESaIcEE11_M_is_localEv.exit.thread.i.i48, %lpad4
  %.pn = phi { ptr, i32 } [ %21, %lpad4 ], [ %22, %_ZNKSt7__cxx1112basic_stringIcSt11char_traitsIcESaIcEE11_M_is_localEv.exit.thread.i.i48 ], [ %22, %if.then.i.i47 ]
  %25 = load ptr, ptr %ref.tmp2, align 8, !tbaa !29
  %cmp.i.i.i52 = icmp eq ptr %25, %1
  br i1 %cmp.i.i.i52, label %_ZNKSt7__cxx1112basic_stringIcSt11char_traitsIcESaIcEE11_M_is_localEv.exit.thread.i.i54, label %if.then.i.i53

_ZNKSt7__cxx1112basic_stringIcSt11char_traitsIcESaIcEE11_M_is_localEv.exit.thread.i.i54: ; preds = %ehcleanup
  %26 = load i64, ptr %_M_string_length.i24.i.i, align 8, !tbaa !32
  %cmp3.i.i.i56 = icmp ult i64 %26, 16
  call void @llvm.assume(i1 %cmp3.i.i.i56)
  br label %ehcleanup8

if.then.i.i53:                                    ; preds = %ehcleanup
  call void @_ZdlPv(ptr noundef %25) #33
  br label %ehcleanup8

ehcleanup8:                                       ; preds = %if.then.i.i53, %_ZNKSt7__cxx1112basic_stringIcSt11char_traitsIcESaIcEE11_M_is_localEv.exit.thread.i.i54, %lpad
  %.pn.pn = phi { ptr, i32 } [ %20, %lpad ], [ %.pn, %_ZNKSt7__cxx1112basic_stringIcSt11char_traitsIcESaIcEE11_M_is_localEv.exit.thread.i.i54 ], [ %.pn, %if.then.i.i53 ]
  %27 = load ptr, ptr %ref.tmp3, align 8, !tbaa !29
  %28 = getelementptr inbounds %"class.std::__cxx11::basic_string", ptr %ref.tmp3, i64 0, i32 2
  %cmp.i.i.i58 = icmp eq ptr %27, %28
  br i1 %cmp.i.i.i58, label %_ZNKSt7__cxx1112basic_stringIcSt11char_traitsIcESaIcEE11_M_is_localEv.exit.thread.i.i60, label %if.then.i.i59

_ZNKSt7__cxx1112basic_stringIcSt11char_traitsIcESaIcEE11_M_is_localEv.exit.thread.i.i60: ; preds = %ehcleanup8
  %_M_string_length.i.i.i61 = getelementptr inbounds %"class.std::__cxx11::basic_string", ptr %ref.tmp3, i64 0, i32 1
  %29 = load i64, ptr %_M_string_length.i.i.i61, align 8, !tbaa !32
  %cmp3.i.i.i62 = icmp ult i64 %29, 16
  call void @llvm.assume(i1 %cmp3.i.i.i62)
  br label %_ZNSt7__cxx1112basic_stringIcSt11char_traitsIcESaIcEED2Ev.exit63

if.then.i.i59:                                    ; preds = %ehcleanup8
  call void @_ZdlPv(ptr noundef %27) #33
  br label %_ZNSt7__cxx1112basic_stringIcSt11char_traitsIcESaIcEED2Ev.exit63

_ZNSt7__cxx1112basic_stringIcSt11char_traitsIcESaIcEED2Ev.exit63: ; preds = %if.then.i.i59, %_ZNKSt7__cxx1112basic_stringIcSt11char_traitsIcESaIcEE11_M_is_localEv.exit.thread.i.i60
  call void @llvm.lifetime.end.p0(i64 32, ptr nonnull %ref.tmp3) #30
  call void @llvm.lifetime.end.p0(i64 32, ptr nonnull %ref.tmp2) #30
  call void @llvm.lifetime.end.p0(i64 32, ptr nonnull %ref.tmp) #30
  resume { ptr, i32 } %.pn.pn
}

declare void @_ZNSt13runtime_errorC2ERKNSt7__cxx1112basic_stringIcSt11char_traitsIcESaIcEEE(ptr noundef nonnull align 8 dereferenceable(16), ptr noundef nonnull align 8 dereferenceable(32)) unnamed_addr #9

; Function Attrs: noreturn
declare void @_ZSt24__throw_out_of_range_fmtPKcz(ptr noundef, ...) local_unnamed_addr #7

declare noundef zeroext i1 @_ZN5boost10filesystem6detail6removeERKNS0_4pathEPNS_6system10error_codeE(ptr noundef nonnull align 8 dereferenceable(32), ptr noundef) local_unnamed_addr #9

declare noundef nonnull align 8 dereferenceable(8) ptr @_ZNSolsEi(ptr noundef nonnull align 8 dereferenceable(8), i32 noundef) local_unnamed_addr #9

declare noundef nonnull align 8 dereferenceable(8) ptr @_ZSt16__ostream_insertIcSt11char_traitsIcEERSt13basic_ostreamIT_T0_ES6_PKS3_l(ptr noundef nonnull align 8 dereferenceable(8), ptr noundef, i64 noundef) local_unnamed_addr #9

declare noundef nonnull align 8 dereferenceable(8) ptr @_ZNSo3putEc(ptr noundef nonnull align 8 dereferenceable(8), i8 noundef signext) local_unnamed_addr #9

declare void @_ZNSt9basic_iosIcSt11char_traitsIcEE5clearESt12_Ios_Iostate(ptr noundef nonnull align 8 dereferenceable(264), i32 noundef) local_unnamed_addr #9

; Function Attrs: mustprogress uwtable
define void @_ZN5folly4test13TemporaryFile5closeEv(ptr nocapture noundef nonnull align 8 dereferenceable(48) %this) local_unnamed_addr #5 align 2 personality ptr @__gxx_personality_v0 {
entry:
  %ref.tmp = alloca %"class.google::ErrnoLogMessage", align 8
  %indirect-arg-temp = alloca { i64, i64 }, align 8
  %fd_ = getelementptr inbounds %"class.folly::test::TemporaryFile", ptr %this, i64 0, i32 2
  %0 = load i32, ptr %fd_, align 8, !tbaa !45
  %call = tail call i32 @close(i32 noundef %0)
  %cmp = icmp eq i32 %call, -1
  br i1 %cmp, label %if.then, label %if.end

if.then:                                          ; preds = %entry
  call void @llvm.lifetime.start.p0(i64 16, ptr nonnull %ref.tmp) #30
  store i64 ptrtoint (ptr @_ZN6google10LogMessage9SendToLogEv to i64), ptr %indirect-arg-temp, align 8, !tbaa !31
  %.fca.1.gep = getelementptr inbounds { i64, i64 }, ptr %indirect-arg-temp, i64 0, i32 1
  store i64 0, ptr %.fca.1.gep, align 8, !tbaa !31
  call void @_ZN6google15ErrnoLogMessageC1EPKciiiMNS_10LogMessageEFvvE(ptr noundef nonnull align 8 dereferenceable(16) %ref.tmp, ptr noundef nonnull @.str.6, i32 noundef 83, i32 noundef 2, i32 noundef 0, ptr noundef nonnull byval({ i64, i64 }) align 8 %indirect-arg-temp)
  %call2 = invoke noundef nonnull align 8 dereferenceable(8) ptr @_ZN6google10LogMessage6streamEv(ptr noundef nonnull align 8 dereferenceable(16) %ref.tmp)
          to label %invoke.cont unwind label %lpad

invoke.cont:                                      ; preds = %if.then
  %call1.i7 = invoke noundef nonnull align 8 dereferenceable(8) ptr @_ZSt16__ostream_insertIcSt11char_traitsIcEERSt13basic_ostreamIT_T0_ES6_PKS3_l(ptr noundef nonnull align 8 dereferenceable(8) %call2, ptr noundef nonnull @.str.12, i64 noundef 12)
          to label %invoke.cont3 unwind label %lpad

invoke.cont3:                                     ; preds = %invoke.cont
  call void @_ZN6google15ErrnoLogMessageD1Ev(ptr noundef nonnull align 8 dereferenceable(16) %ref.tmp) #30
  call void @llvm.lifetime.end.p0(i64 16, ptr nonnull %ref.tmp) #30
  br label %if.end

lpad:                                             ; preds = %invoke.cont, %if.then
  %1 = landingpad { ptr, i32 }
          cleanup
  call void @_ZN6google15ErrnoLogMessageD1Ev(ptr noundef nonnull align 8 dereferenceable(16) %ref.tmp) #30
  call void @llvm.lifetime.end.p0(i64 16, ptr nonnull %ref.tmp) #30
  resume { ptr, i32 } %1

if.end:                                           ; preds = %invoke.cont3, %entry
  store i32 -1, ptr %fd_, align 8, !tbaa !45
  ret void
}

declare i32 @close(i32 noundef) local_unnamed_addr #9

declare void @_ZN6google10LogMessage9SendToLogEv(ptr noundef nonnull align 8 dereferenceable(16)) #9

declare void @_ZN6google15ErrnoLogMessageC1EPKciiiMNS_10LogMessageEFvvE(ptr noundef nonnull align 8 dereferenceable(16), ptr noundef, i32 noundef, i32 noundef, i32 noundef, ptr noundef byval({ i64, i64 }) align 8) unnamed_addr #9

; Function Attrs: nounwind
declare void @_ZN6google15ErrnoLogMessageD1Ev(ptr noundef nonnull align 8 dereferenceable(16)) unnamed_addr #6

; Function Attrs: mustprogress uwtable
define noundef nonnull align 8 dereferenceable(32) ptr @_ZNK5folly4test13TemporaryFile4pathEv(ptr noundef nonnull readonly align 8 dereferenceable(48) %this) local_unnamed_addr #5 align 2 personality ptr @__gxx_personality_v0 {
entry:
  %ref.tmp2 = alloca %"class.google::LogMessageFatal", align 8
  %0 = load i32, ptr %this, align 8, !tbaa !40
  %cmp.not = icmp eq i32 %0, 1
  br i1 %cmp.not, label %cond.false, label %cleanup.done12, !prof !46

cond.false:                                       ; preds = %entry
  call void @llvm.lifetime.start.p0(i64 16, ptr nonnull %ref.tmp2) #30
  call void @_ZN6google15LogMessageFatalC1EPKci(ptr noundef nonnull align 8 dereferenceable(16) %ref.tmp2, ptr noundef nonnull @.str.6, i32 noundef 89)
  %call = invoke noundef nonnull align 8 dereferenceable(8) ptr @_ZN6google10LogMessage6streamEv(ptr noundef nonnull align 8 dereferenceable(16) %ref.tmp2)
          to label %invoke.cont unwind label %lpad

invoke.cont:                                      ; preds = %cond.false
  %call1.i49 = invoke noundef nonnull align 8 dereferenceable(8) ptr @_ZSt16__ostream_insertIcSt11char_traitsIcEERSt13basic_ostreamIT_T0_ES6_PKS3_l(ptr noundef nonnull align 8 dereferenceable(8) %call, ptr noundef nonnull @.str.13, i64 noundef 50)
          to label %cleanup.action unwind label %lpad

cleanup.action:                                   ; preds = %invoke.cont
  call void @_ZN6google15LogMessageFatalD1Ev(ptr noundef nonnull align 8 dereferenceable(16) %ref.tmp2) #32
  unreachable

lpad:                                             ; preds = %invoke.cont, %cond.false
  %1 = landingpad { ptr, i32 }
          cleanup
  call void @_ZN6google15LogMessageFatalD1Ev(ptr noundef nonnull align 8 dereferenceable(16) %ref.tmp2) #32
  unreachable

cleanup.done12:                                   ; preds = %entry
  %path_47 = getelementptr inbounds %"class.folly::test::TemporaryFile", ptr %this, i64 0, i32 3
  ret ptr %path_47
}

declare void @_ZN6google15LogMessageFatalC1EPKci(ptr noundef nonnull align 8 dereferenceable(16), ptr noundef, i32 noundef) unnamed_addr #9

; Function Attrs: noreturn nounwind
declare void @_ZN6google15LogMessageFatalD1Ev(ptr noundef nonnull align 8 dereferenceable(16)) unnamed_addr #20

; Function Attrs: mustprogress uwtable
define void @_ZN5folly4test13TemporaryFile5resetEv(ptr noundef nonnull align 8 dereferenceable(48) %this) local_unnamed_addr #5 align 2 personality ptr @__gxx_personality_v0 {
entry:
  %__c.addr.i.i = alloca i8, align 1
  %ref.tmp = alloca %"class.google::ErrnoLogMessage", align 8
  %indirect-arg-temp = alloca { i64, i64 }, align 8
  %ec = alloca %"class.boost::system::error_code", align 8
  %ref.tmp22 = alloca %"class.google::LogMessage", align 8
  %fd_ = getelementptr inbounds %"class.folly::test::TemporaryFile", ptr %this, i64 0, i32 2
  %0 = load i32, ptr %fd_, align 8, !tbaa !45
  %cmp.not = icmp eq i32 %0, -1
  %closeOnDestruction_ = getelementptr inbounds %"class.folly::test::TemporaryFile", ptr %this, i64 0, i32 1
  %1 = load i8, ptr %closeOnDestruction_, align 4, !range !49
  %tobool.not = icmp eq i8 %1, 0
  %or.cond = select i1 %cmp.not, i1 true, i1 %tobool.not
  br i1 %or.cond, label %if.end13, label %if.then

if.then:                                          ; preds = %entry
  %call = tail call i32 @close(i32 noundef %0)
  %cmp3 = icmp eq i32 %call, -1
  br i1 %cmp3, label %if.then4, label %if.end13

if.then4:                                         ; preds = %if.then
  call void @llvm.lifetime.start.p0(i64 16, ptr nonnull %ref.tmp) #30
  store i64 ptrtoint (ptr @_ZN6google10LogMessage9SendToLogEv to i64), ptr %indirect-arg-temp, align 8, !tbaa !31
  %.fca.1.gep = getelementptr inbounds { i64, i64 }, ptr %indirect-arg-temp, i64 0, i32 1
  store i64 0, ptr %.fca.1.gep, align 8, !tbaa !31
  call void @_ZN6google15ErrnoLogMessageC1EPKciiiMNS_10LogMessageEFvvE(ptr noundef nonnull align 8 dereferenceable(16) %ref.tmp, ptr noundef nonnull @.str.6, i32 noundef 97, i32 noundef 2, i32 noundef 0, ptr noundef nonnull byval({ i64, i64 }) align 8 %indirect-arg-temp)
  %call5 = invoke noundef nonnull align 8 dereferenceable(8) ptr @_ZN6google10LogMessage6streamEv(ptr noundef nonnull align 8 dereferenceable(16) %ref.tmp)
          to label %invoke.cont unwind label %lpad

invoke.cont:                                      ; preds = %if.then4
  %call1.i34 = invoke noundef nonnull align 8 dereferenceable(8) ptr @_ZSt16__ostream_insertIcSt11char_traitsIcEERSt13basic_ostreamIT_T0_ES6_PKS3_l(ptr noundef nonnull align 8 dereferenceable(8) %call5, ptr noundef nonnull @.str.15, i64 noundef 19)
          to label %invoke.cont6 unwind label %lpad

invoke.cont6:                                     ; preds = %invoke.cont
  %2 = load i32, ptr %fd_, align 8, !tbaa !45
  %call10 = invoke noundef nonnull align 8 dereferenceable(8) ptr @_ZNSolsEi(ptr noundef nonnull align 8 dereferenceable(8) %call5, i32 noundef %2)
          to label %invoke.cont9 unwind label %lpad

invoke.cont9:                                     ; preds = %invoke.cont6
  %call1.i36 = invoke noundef nonnull align 8 dereferenceable(8) ptr @_ZSt16__ostream_insertIcSt11char_traitsIcEERSt13basic_ostreamIT_T0_ES6_PKS3_l(ptr noundef nonnull align 8 dereferenceable(8) %call10, ptr noundef nonnull @.str.16, i64 noundef 3)
          to label %invoke.cont11 unwind label %lpad

invoke.cont11:                                    ; preds = %invoke.cont9
  call void @_ZN6google15ErrnoLogMessageD1Ev(ptr noundef nonnull align 8 dereferenceable(16) %ref.tmp) #30
  call void @llvm.lifetime.end.p0(i64 16, ptr nonnull %ref.tmp) #30
  br label %if.end13

lpad:                                             ; preds = %invoke.cont9, %invoke.cont6, %invoke.cont, %if.then4
  %3 = landingpad { ptr, i32 }
          cleanup
  call void @_ZN6google15ErrnoLogMessageD1Ev(ptr noundef nonnull align 8 dereferenceable(16) %ref.tmp) #30
  call void @llvm.lifetime.end.p0(i64 16, ptr nonnull %ref.tmp) #30
  br label %eh.resume

if.end13:                                         ; preds = %invoke.cont11, %if.then, %entry
  %4 = load i32, ptr %this, align 8, !tbaa !40
  %cmp14.not = icmp eq i32 %4, 0
  %_M_string_length.i.i.i = getelementptr inbounds %"class.folly::test::TemporaryFile", ptr %this, i64 0, i32 3, i32 0, i32 1
  %5 = load i64, ptr %_M_string_length.i.i.i, align 8
  %cmp.i.i = icmp eq i64 %5, 0
  %or.cond46 = select i1 %cmp14.not, i1 true, i1 %cmp.i.i
  br i1 %or.cond46, label %if.end31, label %if.then17

if.then17:                                        ; preds = %if.end13
  %path_ = getelementptr inbounds %"class.folly::test::TemporaryFile", ptr %this, i64 0, i32 3
  call void @llvm.lifetime.start.p0(i64 16, ptr nonnull %ec) #30
  store i32 0, ptr %ec, align 8, !tbaa !47
  %failed_.i = getelementptr inbounds %"class.boost::system::error_code", ptr %ec, i64 0, i32 1
  store i8 0, ptr %failed_.i, align 4, !tbaa !48
  %cat_.i = getelementptr inbounds %"class.boost::system::error_code", ptr %ec, i64 0, i32 2
  store ptr @_ZN5boost6system6detail10cat_holderIvE24system_category_instanceE, ptr %cat_.i, align 8, !tbaa !20
  %call.i = invoke noundef zeroext i1 @_ZN5boost10filesystem6detail6removeERKNS0_4pathEPNS_6system10error_codeE(ptr noundef nonnull align 8 dereferenceable(32) %path_, ptr noundef nonnull %ec)
          to label %_ZN5boost10filesystem6removeERKNS0_4pathERNS_6system10error_codeE.exit unwind label %terminate.lpad.i

terminate.lpad.i:                                 ; preds = %if.then17
  %6 = landingpad { ptr, i32 }
          catch ptr null
  %7 = extractvalue { ptr, i32 } %6, 0
  call void @__clang_call_terminate(ptr %7) #32
  unreachable

_ZN5boost10filesystem6removeERKNS0_4pathERNS_6system10error_codeE.exit: ; preds = %if.then17
  %8 = load i8, ptr %failed_.i, align 4, !tbaa !48, !range !49, !noundef !50
  %tobool.i.not = icmp eq i8 %8, 0
  br i1 %tobool.i.not, label %if.end30, label %if.then21

if.then21:                                        ; preds = %_ZN5boost10filesystem6removeERKNS0_4pathERNS_6system10error_codeE.exit
  call void @llvm.lifetime.start.p0(i64 16, ptr nonnull %ref.tmp22) #30
  call void @_ZN6google10LogMessageC1EPKcii(ptr noundef nonnull align 8 dereferenceable(16) %ref.tmp22, ptr noundef nonnull @.str.6, i32 noundef 107, i32 noundef 1)
  %call25 = invoke noundef nonnull align 8 dereferenceable(8) ptr @_ZN6google10LogMessage6streamEv(ptr noundef nonnull align 8 dereferenceable(16) %ref.tmp22)
          to label %invoke.cont24 unwind label %lpad23

invoke.cont24:                                    ; preds = %if.then21
  %call1.i40 = invoke noundef nonnull align 8 dereferenceable(8) ptr @_ZSt16__ostream_insertIcSt11char_traitsIcEERSt13basic_ostreamIT_T0_ES6_PKS3_l(ptr noundef nonnull align 8 dereferenceable(8) %call25, ptr noundef nonnull @.str.17, i64 noundef 30)
          to label %invoke.cont26 unwind label %lpad23

invoke.cont26:                                    ; preds = %invoke.cont24
  %agg.tmp.sroa.0.0.copyload = load i64, ptr %ec, align 8, !tbaa.struct !51
  %agg.tmp.sroa.2.0.copyload = load ptr, ptr %cat_.i, align 8, !tbaa.struct !54
  %vtable.i = load ptr, ptr %agg.tmp.sroa.2.0.copyload, align 8, !tbaa !7
  %9 = load ptr, ptr %vtable.i, align 8
  %call1.i = call noundef ptr %9(ptr noundef nonnull align 8 dereferenceable(16) %agg.tmp.sroa.2.0.copyload) #30
  %tobool.not.i.i = icmp eq ptr %call1.i, null
  br i1 %tobool.not.i.i, label %if.then.i.i, label %if.else.i.i

if.then.i.i:                                      ; preds = %invoke.cont26
  %vtable.i.i = load ptr, ptr %call25, align 8, !tbaa !7
  %vbase.offset.ptr.i.i = getelementptr i8, ptr %vtable.i.i, i64 -24
  %vbase.offset.i.i = load i64, ptr %vbase.offset.ptr.i.i, align 8
  %add.ptr.i.i = getelementptr inbounds i8, ptr %call25, i64 %vbase.offset.i.i
  %_M_streambuf_state.i.i.i.i = getelementptr inbounds %"class.std::ios_base", ptr %add.ptr.i.i, i64 0, i32 5
  %10 = load i32, ptr %_M_streambuf_state.i.i.i.i, align 8, !tbaa !55
  %or.i.i.i.i = or i32 %10, 1
  invoke void @_ZNSt9basic_iosIcSt11char_traitsIcEE5clearESt12_Ios_Iostate(ptr noundef nonnull align 8 dereferenceable(264) %add.ptr.i.i, i32 noundef %or.i.i.i.i)
          to label %_ZStlsISt11char_traitsIcEERSt13basic_ostreamIcT_ES5_PKc.exit.i unwind label %lpad23

if.else.i.i:                                      ; preds = %invoke.cont26
  %call.i.i.i = call noundef i64 @strlen(ptr noundef nonnull dereferenceable(1) %call1.i) #30
  %call1.i.i42 = invoke noundef nonnull align 8 dereferenceable(8) ptr @_ZSt16__ostream_insertIcSt11char_traitsIcEERSt13basic_ostreamIT_T0_ES6_PKS3_l(ptr noundef nonnull align 8 dereferenceable(8) %call25, ptr noundef nonnull %call1.i, i64 noundef %call.i.i.i)
          to label %_ZStlsISt11char_traitsIcEERSt13basic_ostreamIcT_ES5_PKc.exit.i unwind label %lpad23

_ZStlsISt11char_traitsIcEERSt13basic_ostreamIcT_ES5_PKc.exit.i: ; preds = %if.else.i.i, %if.then.i.i
  call void @llvm.lifetime.start.p0(i64 1, ptr nonnull %__c.addr.i.i)
  store i8 58, ptr %__c.addr.i.i, align 1, !tbaa !31
  %vtable.i7.i = load ptr, ptr %call25, align 8, !tbaa !7
  %vbase.offset.ptr.i8.i = getelementptr i8, ptr %vtable.i7.i, i64 -24
  %vbase.offset.i9.i = load i64, ptr %vbase.offset.ptr.i8.i, align 8
  %add.ptr.i10.i = getelementptr inbounds i8, ptr %call25, i64 %vbase.offset.i9.i
  %_M_width.i.i.i = getelementptr inbounds %"class.std::ios_base", ptr %add.ptr.i10.i, i64 0, i32 2
  %11 = load i64, ptr %_M_width.i.i.i, align 8, !tbaa !61
  %cmp.not.i.i = icmp eq i64 %11, 0
  br i1 %cmp.not.i.i, label %if.end.i.i, label %if.then.i11.i

if.then.i11.i:                                    ; preds = %_ZStlsISt11char_traitsIcEERSt13basic_ostreamIcT_ES5_PKc.exit.i
  %call1.i12.i43 = invoke noundef nonnull align 8 dereferenceable(8) ptr @_ZSt16__ostream_insertIcSt11char_traitsIcEERSt13basic_ostreamIT_T0_ES6_PKS3_l(ptr noundef nonnull align 8 dereferenceable(8) %call25, ptr noundef nonnull %__c.addr.i.i, i64 noundef 1)
          to label %_ZStlsISt11char_traitsIcEERSt13basic_ostreamIcT_ES5_c.exit.i unwind label %lpad23

if.end.i.i:                                       ; preds = %_ZStlsISt11char_traitsIcEERSt13basic_ostreamIcT_ES5_PKc.exit.i
  %call2.i.i44 = invoke noundef nonnull align 8 dereferenceable(8) ptr @_ZNSo3putEc(ptr noundef nonnull align 8 dereferenceable(8) %call25, i8 noundef signext 58)
          to label %_ZStlsISt11char_traitsIcEERSt13basic_ostreamIcT_ES5_c.exit.i unwind label %lpad23

_ZStlsISt11char_traitsIcEERSt13basic_ostreamIcT_ES5_c.exit.i: ; preds = %if.end.i.i, %if.then.i11.i
  %retval.0.i.i = phi ptr [ %call1.i12.i43, %if.then.i11.i ], [ %call25, %if.end.i.i ]
  %ec.sroa.0.0.extract.trunc.i = trunc i64 %agg.tmp.sroa.0.0.copyload to i32
  call void @llvm.lifetime.end.p0(i64 1, ptr nonnull %__c.addr.i.i)
  %call5.i45 = invoke noundef nonnull align 8 dereferenceable(8) ptr @_ZNSolsEi(ptr noundef nonnull align 8 dereferenceable(8) %retval.0.i.i, i32 noundef %ec.sroa.0.0.extract.trunc.i)
          to label %invoke.cont28 unwind label %lpad23

invoke.cont28:                                    ; preds = %_ZStlsISt11char_traitsIcEERSt13basic_ostreamIcT_ES5_c.exit.i
  call void @_ZN6google10LogMessageD1Ev(ptr noundef nonnull align 8 dereferenceable(16) %ref.tmp22) #30
  call void @llvm.lifetime.end.p0(i64 16, ptr nonnull %ref.tmp22) #30
  br label %if.end30

lpad23:                                           ; preds = %_ZStlsISt11char_traitsIcEERSt13basic_ostreamIcT_ES5_c.exit.i, %if.end.i.i, %if.then.i11.i, %if.else.i.i, %if.then.i.i, %invoke.cont24, %if.then21
  %12 = landingpad { ptr, i32 }
          cleanup
  call void @_ZN6google10LogMessageD1Ev(ptr noundef nonnull align 8 dereferenceable(16) %ref.tmp22) #30
  call void @llvm.lifetime.end.p0(i64 16, ptr nonnull %ref.tmp22) #30
  call void @llvm.lifetime.end.p0(i64 16, ptr nonnull %ec) #30
  br label %eh.resume

if.end30:                                         ; preds = %invoke.cont28, %_ZN5boost10filesystem6removeERKNS0_4pathERNS_6system10error_codeE.exit
  call void @llvm.lifetime.end.p0(i64 16, ptr nonnull %ec) #30
  br label %if.end31

if.end31:                                         ; preds = %if.end30, %if.end13
  ret void

eh.resume:                                        ; preds = %lpad23, %lpad
  %.pn = phi { ptr, i32 } [ %12, %lpad23 ], [ %3, %lpad ]
  resume { ptr, i32 } %.pn
}

; Function Attrs: mustprogress nounwind uwtable
define void @_ZN5folly4test13TemporaryFileD2Ev(ptr noundef nonnull align 8 dereferenceable(48) %this) unnamed_addr #1 align 2 personality ptr @__gxx_personality_v0 {
entry:
  invoke void @_ZN5folly4test13TemporaryFile5resetEv(ptr noundef nonnull align 8 dereferenceable(48) %this)
          to label %invoke.cont unwind label %terminate.lpad

invoke.cont:                                      ; preds = %entry
  %path_ = getelementptr inbounds %"class.folly::test::TemporaryFile", ptr %this, i64 0, i32 3
  %0 = load ptr, ptr %path_, align 8, !tbaa !29
  %1 = getelementptr inbounds %"class.folly::test::TemporaryFile", ptr %this, i64 0, i32 3, i32 0, i32 2
  %cmp.i.i.i.i = icmp eq ptr %0, %1
  br i1 %cmp.i.i.i.i, label %_ZNKSt7__cxx1112basic_stringIcSt11char_traitsIcESaIcEE11_M_is_localEv.exit.thread.i.i.i, label %if.then.i.i.i

_ZNKSt7__cxx1112basic_stringIcSt11char_traitsIcESaIcEE11_M_is_localEv.exit.thread.i.i.i: ; preds = %invoke.cont
  %_M_string_length.i.i.i.i = getelementptr inbounds %"class.folly::test::TemporaryFile", ptr %this, i64 0, i32 3, i32 0, i32 1
  %2 = load i64, ptr %_M_string_length.i.i.i.i, align 8, !tbaa !32
  %cmp3.i.i.i.i = icmp ult i64 %2, 16
  tail call void @llvm.assume(i1 %cmp3.i.i.i.i)
  br label %_ZN5boost10filesystem4pathD2Ev.exit

if.then.i.i.i:                                    ; preds = %invoke.cont
  tail call void @_ZdlPv(ptr noundef %0) #33
  br label %_ZN5boost10filesystem4pathD2Ev.exit

_ZN5boost10filesystem4pathD2Ev.exit:              ; preds = %if.then.i.i.i, %_ZNKSt7__cxx1112basic_stringIcSt11char_traitsIcESaIcEE11_M_is_localEv.exit.thread.i.i.i
  ret void

terminate.lpad:                                   ; preds = %entry
  %3 = landingpad { ptr, i32 }
          catch ptr null
  %4 = extractvalue { ptr, i32 } %3, 0
  tail call void @__clang_call_terminate(ptr %4) #32
  unreachable
}

; Function Attrs: mustprogress uwtable
define void @_ZN5folly4test18TemporaryDirectoryC2ENS_5RangeIPKcEEN5boost10filesystem4pathENS1_5ScopeE(ptr noundef nonnull align 8 dereferenceable(16) %this, ptr %namePrefix.coerce0, ptr %namePrefix.coerce1, ptr noundef %dir, i32 noundef %scope) unnamed_addr #5 align 2 personality ptr @__gxx_personality_v0 {
entry:
  %ref.tmp = alloca %"class.boost::filesystem::path", align 8
  %agg.tmp = alloca %"class.boost::filesystem::path", align 8
  store i32 %scope, ptr %this, align 8, !tbaa !75
  %path_ = getelementptr inbounds %"class.folly::test::TemporaryDirectory", ptr %this, i64 0, i32 1
  call void @llvm.lifetime.start.p0(i64 32, ptr nonnull %ref.tmp) #30
  %0 = getelementptr inbounds %"class.std::__cxx11::basic_string", ptr %agg.tmp, i64 0, i32 2
  store ptr %0, ptr %agg.tmp, align 8, !tbaa !25
  %1 = load ptr, ptr %dir, align 8, !tbaa !29
  %2 = getelementptr inbounds %"class.std::__cxx11::basic_string", ptr %dir, i64 0, i32 2
  %cmp.i.i.i = icmp eq ptr %1, %2
  br i1 %cmp.i.i.i, label %if.then.i.i, label %if.else.i.i

if.then.i.i:                                      ; preds = %entry
  %_M_string_length.i.i.i = getelementptr inbounds %"class.std::__cxx11::basic_string", ptr %dir, i64 0, i32 1
  %3 = load i64, ptr %_M_string_length.i.i.i, align 8, !tbaa !32
  %cmp3.i.i.i = icmp ult i64 %3, 16
  call void @llvm.assume(i1 %cmp3.i.i.i)
  %add.i.i = add nuw nsw i64 %3, 1
  call void @llvm.memcpy.p0.p0.i64(ptr noundef nonnull align 8 dereferenceable(1) %0, ptr noundef nonnull align 8 dereferenceable(1) %1, i64 %add.i.i, i1 false)
  br label %_ZN5boost10filesystem4pathC2EOS1_.exit

if.else.i.i:                                      ; preds = %entry
  store ptr %1, ptr %agg.tmp, align 8, !tbaa !29
  %4 = load i64, ptr %2, align 8, !tbaa !31
  store i64 %4, ptr %0, align 8, !tbaa !31
  %_M_string_length.i23.i.i.phi.trans.insert = getelementptr inbounds %"class.std::__cxx11::basic_string", ptr %dir, i64 0, i32 1
  %.pre = load i64, ptr %_M_string_length.i23.i.i.phi.trans.insert, align 8, !tbaa !32
  br label %_ZN5boost10filesystem4pathC2EOS1_.exit

_ZN5boost10filesystem4pathC2EOS1_.exit:           ; preds = %if.else.i.i, %if.then.i.i
  %5 = phi i64 [ %3, %if.then.i.i ], [ %.pre, %if.else.i.i ]
  %_M_string_length.i23.i.i = getelementptr inbounds %"class.std::__cxx11::basic_string", ptr %dir, i64 0, i32 1
  %_M_string_length.i24.i.i = getelementptr inbounds %"class.std::__cxx11::basic_string", ptr %agg.tmp, i64 0, i32 1
  store i64 %5, ptr %_M_string_length.i24.i.i, align 8, !tbaa !32
  store ptr %2, ptr %dir, align 8, !tbaa !29
  store i64 0, ptr %_M_string_length.i23.i.i, align 8, !tbaa !32
  store i8 0, ptr %2, align 1, !tbaa !31
  invoke fastcc void @_ZN5folly4test12_GLOBAL__N_118generateUniquePathEN5boost10filesystem4pathENS_5RangeIPKcEE(ptr noalias nonnull align 8 %ref.tmp, ptr noundef nonnull %agg.tmp, ptr %namePrefix.coerce0, ptr %namePrefix.coerce1)
          to label %invoke.cont unwind label %lpad

invoke.cont:                                      ; preds = %_ZN5boost10filesystem4pathC2EOS1_.exit
  call void @llvm.experimental.noalias.scope.decl(metadata !84)
  %call.i15 = invoke noalias noundef nonnull dereferenceable(32) ptr @_Znwm(i64 noundef 32) #36
          to label %call.i.noexc unwind label %lpad3

call.i.noexc:                                     ; preds = %invoke.cont
  %6 = getelementptr inbounds %"class.std::__cxx11::basic_string", ptr %call.i15, i64 0, i32 2
  store ptr %6, ptr %call.i15, align 8, !tbaa !25, !noalias !84
  %7 = load ptr, ptr %ref.tmp, align 8, !tbaa !29, !noalias !84
  %8 = getelementptr inbounds %"class.std::__cxx11::basic_string", ptr %ref.tmp, i64 0, i32 2
  %cmp.i.i.i.i = icmp eq ptr %7, %8
  br i1 %cmp.i.i.i.i, label %if.then.i.i.i, label %if.else.i.i.i

if.then.i.i.i:                                    ; preds = %call.i.noexc
  %_M_string_length.i.i.i.i = getelementptr inbounds %"class.std::__cxx11::basic_string", ptr %ref.tmp, i64 0, i32 1
  %9 = load i64, ptr %_M_string_length.i.i.i.i, align 8, !tbaa !32, !noalias !84
  %cmp3.i.i.i.i = icmp ult i64 %9, 16
  call void @llvm.assume(i1 %cmp3.i.i.i.i)
  %add.i.i.i = add nuw nsw i64 %9, 1
  call void @llvm.memcpy.p0.p0.i64(ptr noundef nonnull align 8 dereferenceable(1) %6, ptr noundef nonnull align 8 dereferenceable(1) %8, i64 %add.i.i.i, i1 false), !noalias !84
  br label %_ZN5boost10filesystem4pathD2Ev.exit

if.else.i.i.i:                                    ; preds = %call.i.noexc
  store ptr %7, ptr %call.i15, align 8, !tbaa !29, !noalias !84
  %10 = load i64, ptr %8, align 8, !tbaa !31, !noalias !84
  store i64 %10, ptr %6, align 8, !tbaa !31, !noalias !84
  %_M_string_length.i23.i.i.phi.trans.insert.i = getelementptr inbounds %"class.std::__cxx11::basic_string", ptr %ref.tmp, i64 0, i32 1
  %.pre.i = load i64, ptr %_M_string_length.i23.i.i.phi.trans.insert.i, align 8, !tbaa !32, !noalias !84
  br label %_ZN5boost10filesystem4pathD2Ev.exit

_ZN5boost10filesystem4pathD2Ev.exit:              ; preds = %if.else.i.i.i, %if.then.i.i.i
  %11 = phi i64 [ %9, %if.then.i.i.i ], [ %.pre.i, %if.else.i.i.i ]
  %_M_string_length.i23.i.i.i = getelementptr inbounds %"class.std::__cxx11::basic_string", ptr %ref.tmp, i64 0, i32 1
  %_M_string_length.i24.i.i.i = getelementptr inbounds %"class.std::__cxx11::basic_string", ptr %call.i15, i64 0, i32 1
  store i64 %11, ptr %_M_string_length.i24.i.i.i, align 8, !tbaa !32, !noalias !84
  store ptr %8, ptr %ref.tmp, align 8, !tbaa !29, !noalias !84
  store i64 0, ptr %_M_string_length.i23.i.i.i, align 8, !tbaa !32, !noalias !84
  store i8 0, ptr %8, align 8, !tbaa !31, !noalias !84
  store ptr %call.i15, ptr %path_, align 8, !tbaa !53, !alias.scope !84
  %12 = load ptr, ptr %agg.tmp, align 8, !tbaa !29
  %cmp.i.i.i.i20 = icmp eq ptr %12, %0
  br i1 %cmp.i.i.i.i20, label %_ZNKSt7__cxx1112basic_stringIcSt11char_traitsIcESaIcEE11_M_is_localEv.exit.thread.i.i.i22, label %if.then.i.i.i21

_ZNKSt7__cxx1112basic_stringIcSt11char_traitsIcESaIcEE11_M_is_localEv.exit.thread.i.i.i22: ; preds = %_ZN5boost10filesystem4pathD2Ev.exit
  %13 = load i64, ptr %_M_string_length.i24.i.i, align 8, !tbaa !32
  %cmp3.i.i.i.i24 = icmp ult i64 %13, 16
  call void @llvm.assume(i1 %cmp3.i.i.i.i24)
  br label %_ZN5boost10filesystem4pathD2Ev.exit25

if.then.i.i.i21:                                  ; preds = %_ZN5boost10filesystem4pathD2Ev.exit
  call void @_ZdlPv(ptr noundef %12) #33
  %.pre40 = load ptr, ptr %path_, align 8, !tbaa !53
  br label %_ZN5boost10filesystem4pathD2Ev.exit25

_ZN5boost10filesystem4pathD2Ev.exit25:            ; preds = %if.then.i.i.i21, %_ZNKSt7__cxx1112basic_stringIcSt11char_traitsIcESaIcEE11_M_is_localEv.exit.thread.i.i.i22
  %14 = phi ptr [ %call.i15, %_ZNKSt7__cxx1112basic_stringIcSt11char_traitsIcESaIcEE11_M_is_localEv.exit.thread.i.i.i22 ], [ %.pre40, %if.then.i.i.i21 ]
  call void @llvm.lifetime.end.p0(i64 32, ptr nonnull %ref.tmp) #30
  %call.i27 = invoke noundef zeroext i1 @_ZN5boost10filesystem6detail16create_directoryERKNS0_4pathEPS3_PNS_6system10error_codeE(ptr noundef nonnull align 8 dereferenceable(32) %14, ptr noundef null, ptr noundef null)
          to label %invoke.cont8 unwind label %lpad6

invoke.cont8:                                     ; preds = %_ZN5boost10filesystem4pathD2Ev.exit25
  ret void

lpad:                                             ; preds = %_ZN5boost10filesystem4pathC2EOS1_.exit
  %15 = landingpad { ptr, i32 }
          cleanup
  br label %ehcleanup

lpad3:                                            ; preds = %invoke.cont
  %16 = landingpad { ptr, i32 }
          cleanup
  %17 = load ptr, ptr %ref.tmp, align 8, !tbaa !29
  %18 = getelementptr inbounds %"class.std::__cxx11::basic_string", ptr %ref.tmp, i64 0, i32 2
  %cmp.i.i.i.i28 = icmp eq ptr %17, %18
  br i1 %cmp.i.i.i.i28, label %_ZNKSt7__cxx1112basic_stringIcSt11char_traitsIcESaIcEE11_M_is_localEv.exit.thread.i.i.i30, label %if.then.i.i.i29

_ZNKSt7__cxx1112basic_stringIcSt11char_traitsIcESaIcEE11_M_is_localEv.exit.thread.i.i.i30: ; preds = %lpad3
  %_M_string_length.i.i.i.i31 = getelementptr inbounds %"class.std::__cxx11::basic_string", ptr %ref.tmp, i64 0, i32 1
  %19 = load i64, ptr %_M_string_length.i.i.i.i31, align 8, !tbaa !32
  %cmp3.i.i.i.i32 = icmp ult i64 %19, 16
  call void @llvm.assume(i1 %cmp3.i.i.i.i32)
  br label %ehcleanup

if.then.i.i.i29:                                  ; preds = %lpad3
  call void @_ZdlPv(ptr noundef %17) #33
  br label %ehcleanup

ehcleanup:                                        ; preds = %if.then.i.i.i29, %_ZNKSt7__cxx1112basic_stringIcSt11char_traitsIcESaIcEE11_M_is_localEv.exit.thread.i.i.i30, %lpad
  %.pn = phi { ptr, i32 } [ %15, %lpad ], [ %16, %_ZNKSt7__cxx1112basic_stringIcSt11char_traitsIcESaIcEE11_M_is_localEv.exit.thread.i.i.i30 ], [ %16, %if.then.i.i.i29 ]
  %20 = load ptr, ptr %agg.tmp, align 8, !tbaa !29
  %cmp.i.i.i.i34 = icmp eq ptr %20, %0
  br i1 %cmp.i.i.i.i34, label %_ZNKSt7__cxx1112basic_stringIcSt11char_traitsIcESaIcEE11_M_is_localEv.exit.thread.i.i.i36, label %if.then.i.i.i35

_ZNKSt7__cxx1112basic_stringIcSt11char_traitsIcESaIcEE11_M_is_localEv.exit.thread.i.i.i36: ; preds = %ehcleanup
  %21 = load i64, ptr %_M_string_length.i24.i.i, align 8, !tbaa !32
  %cmp3.i.i.i.i38 = icmp ult i64 %21, 16
  call void @llvm.assume(i1 %cmp3.i.i.i.i38)
  br label %_ZN5boost10filesystem4pathD2Ev.exit39

if.then.i.i.i35:                                  ; preds = %ehcleanup
  call void @_ZdlPv(ptr noundef %20) #33
  br label %_ZN5boost10filesystem4pathD2Ev.exit39

_ZN5boost10filesystem4pathD2Ev.exit39:            ; preds = %if.then.i.i.i35, %_ZNKSt7__cxx1112basic_stringIcSt11char_traitsIcESaIcEE11_M_is_localEv.exit.thread.i.i.i36
  call void @llvm.lifetime.end.p0(i64 32, ptr nonnull %ref.tmp) #30
  br label %eh.resume

lpad6:                                            ; preds = %_ZN5boost10filesystem4pathD2Ev.exit25
  %22 = landingpad { ptr, i32 }
          cleanup
  call void @_ZNSt10unique_ptrIN5boost10filesystem4pathESt14default_deleteIS2_EED2Ev(ptr noundef nonnull align 8 dereferenceable(8) %path_) #30
  br label %eh.resume

eh.resume:                                        ; preds = %lpad6, %_ZN5boost10filesystem4pathD2Ev.exit39
  %.pn13 = phi { ptr, i32 } [ %22, %lpad6 ], [ %.pn, %_ZN5boost10filesystem4pathD2Ev.exit39 ]
  resume { ptr, i32 } %.pn13
}

; Function Attrs: mustprogress nounwind uwtable
define linkonce_odr void @_ZNSt10unique_ptrIN5boost10filesystem4pathESt14default_deleteIS2_EED2Ev(ptr noundef nonnull align 8 dereferenceable(8) %this) unnamed_addr #1 comdat align 2 personality ptr @__gxx_personality_v0 {
entry:
  %0 = load ptr, ptr %this, align 8, !tbaa !53
  %cmp.not = icmp eq ptr %0, null
  br i1 %cmp.not, label %if.end, label %delete.notnull.i

delete.notnull.i:                                 ; preds = %entry
  %1 = load ptr, ptr %0, align 8, !tbaa !29
  %2 = getelementptr inbounds %"class.std::__cxx11::basic_string", ptr %0, i64 0, i32 2
  %cmp.i.i.i.i.i = icmp eq ptr %1, %2
  br i1 %cmp.i.i.i.i.i, label %_ZNKSt7__cxx1112basic_stringIcSt11char_traitsIcESaIcEE11_M_is_localEv.exit.thread.i.i.i.i, label %if.then.i.i.i.i

_ZNKSt7__cxx1112basic_stringIcSt11char_traitsIcESaIcEE11_M_is_localEv.exit.thread.i.i.i.i: ; preds = %delete.notnull.i
  %_M_string_length.i.i.i.i.i = getelementptr inbounds %"class.std::__cxx11::basic_string", ptr %0, i64 0, i32 1
  %3 = load i64, ptr %_M_string_length.i.i.i.i.i, align 8, !tbaa !32
  %cmp3.i.i.i.i.i = icmp ult i64 %3, 16
  tail call void @llvm.assume(i1 %cmp3.i.i.i.i.i)
  br label %_ZNKSt14default_deleteIN5boost10filesystem4pathEEclEPS2_.exit

if.then.i.i.i.i:                                  ; preds = %delete.notnull.i
  tail call void @_ZdlPv(ptr noundef %1) #33
  br label %_ZNKSt14default_deleteIN5boost10filesystem4pathEEclEPS2_.exit

_ZNKSt14default_deleteIN5boost10filesystem4pathEEclEPS2_.exit: ; preds = %if.then.i.i.i.i, %_ZNKSt7__cxx1112basic_stringIcSt11char_traitsIcESaIcEE11_M_is_localEv.exit.thread.i.i.i.i
  tail call void @_ZdlPv(ptr noundef nonnull %0) #33
  br label %if.end

if.end:                                           ; preds = %_ZNKSt14default_deleteIN5boost10filesystem4pathEEclEPS2_.exit, %entry
  store ptr null, ptr %this, align 8, !tbaa !53
  ret void
}

declare noundef zeroext i1 @_ZN5boost10filesystem6detail16create_directoryERKNS0_4pathEPS3_PNS_6system10error_codeE(ptr noundef nonnull align 8 dereferenceable(32), ptr noundef, ptr noundef) local_unnamed_addr #9

; Function Attrs: mustprogress nounwind uwtable
define void @_ZN5folly4test18TemporaryDirectoryD2Ev(ptr nocapture noundef nonnull align 8 dereferenceable(16) %this) unnamed_addr #1 align 2 personality ptr @__gxx_personality_v0 {
entry:
  %__c.addr.i.i = alloca i8, align 1
  %ec = alloca %"class.boost::system::error_code", align 8
  %ref.tmp = alloca %"class.google::LogMessage", align 8
  %0 = load i32, ptr %this, align 8, !tbaa !75
  %cmp = icmp eq i32 %0, 1
  br i1 %cmp, label %land.lhs.true, label %if.end12

land.lhs.true:                                    ; preds = %entry
  %path_ = getelementptr inbounds %"class.folly::test::TemporaryDirectory", ptr %this, i64 0, i32 1
  %1 = load ptr, ptr %path_, align 8, !tbaa !53
  %cmp.i.i.not = icmp eq ptr %1, null
  br i1 %cmp.i.i.not, label %if.end12, label %if.then

if.then:                                          ; preds = %land.lhs.true
  call void @llvm.lifetime.start.p0(i64 16, ptr nonnull %ec) #30
  store i32 0, ptr %ec, align 8, !tbaa !47
  %failed_.i = getelementptr inbounds %"class.boost::system::error_code", ptr %ec, i64 0, i32 1
  store i8 0, ptr %failed_.i, align 4, !tbaa !48
  %cat_.i = getelementptr inbounds %"class.boost::system::error_code", ptr %ec, i64 0, i32 2
  store ptr @_ZN5boost6system6detail10cat_holderIvE24system_category_instanceE, ptr %cat_.i, align 8, !tbaa !20
  %call.i = invoke noundef i64 @_ZN5boost10filesystem6detail10remove_allERKNS0_4pathEPNS_6system10error_codeE(ptr noundef nonnull align 8 dereferenceable(32) %1, ptr noundef nonnull %ec)
          to label %_ZN5boost10filesystem10remove_allERKNS0_4pathERNS_6system10error_codeE.exit unwind label %terminate.lpad.i

terminate.lpad.i:                                 ; preds = %if.then
  %2 = landingpad { ptr, i32 }
          catch ptr null
  %3 = extractvalue { ptr, i32 } %2, 0
  call void @__clang_call_terminate(ptr %3) #32
  unreachable

_ZN5boost10filesystem10remove_allERKNS0_4pathERNS_6system10error_codeE.exit: ; preds = %if.then
  %4 = load i8, ptr %failed_.i, align 4, !tbaa !48, !range !49, !noundef !50
  %tobool.i.not = icmp eq i8 %4, 0
  br i1 %tobool.i.not, label %if.end, label %if.then5

if.then5:                                         ; preds = %_ZN5boost10filesystem10remove_allERKNS0_4pathERNS_6system10error_codeE.exit
  call void @llvm.lifetime.start.p0(i64 16, ptr nonnull %ref.tmp) #30
  invoke void @_ZN6google10LogMessageC1EPKcii(ptr noundef nonnull align 8 dereferenceable(16) %ref.tmp, ptr noundef nonnull @.str.6, i32 noundef 129, i32 noundef 1)
          to label %invoke.cont unwind label %terminate.lpad

invoke.cont:                                      ; preds = %if.then5
  %call7 = invoke noundef nonnull align 8 dereferenceable(8) ptr @_ZN6google10LogMessage6streamEv(ptr noundef nonnull align 8 dereferenceable(16) %ref.tmp)
          to label %invoke.cont6 unwind label %terminate.lpad

invoke.cont6:                                     ; preds = %invoke.cont
  %call1.i15 = invoke noundef nonnull align 8 dereferenceable(8) ptr @_ZSt16__ostream_insertIcSt11char_traitsIcEERSt13basic_ostreamIT_T0_ES6_PKS3_l(ptr noundef nonnull align 8 dereferenceable(8) %call7, ptr noundef nonnull @.str.18, i64 noundef 40)
          to label %invoke.cont8 unwind label %terminate.lpad

invoke.cont8:                                     ; preds = %invoke.cont6
  %agg.tmp.sroa.0.0.copyload = load i64, ptr %ec, align 8, !tbaa.struct !51
  %agg.tmp.sroa.2.0.copyload = load ptr, ptr %cat_.i, align 8, !tbaa.struct !54
  %vtable.i = load ptr, ptr %agg.tmp.sroa.2.0.copyload, align 8, !tbaa !7
  %5 = load ptr, ptr %vtable.i, align 8
  %call1.i = call noundef ptr %5(ptr noundef nonnull align 8 dereferenceable(16) %agg.tmp.sroa.2.0.copyload) #30
  %tobool.not.i.i = icmp eq ptr %call1.i, null
  br i1 %tobool.not.i.i, label %if.then.i.i, label %if.else.i.i

if.then.i.i:                                      ; preds = %invoke.cont8
  %vtable.i.i = load ptr, ptr %call7, align 8, !tbaa !7
  %vbase.offset.ptr.i.i = getelementptr i8, ptr %vtable.i.i, i64 -24
  %vbase.offset.i.i = load i64, ptr %vbase.offset.ptr.i.i, align 8
  %add.ptr.i.i = getelementptr inbounds i8, ptr %call7, i64 %vbase.offset.i.i
  %_M_streambuf_state.i.i.i.i = getelementptr inbounds %"class.std::ios_base", ptr %add.ptr.i.i, i64 0, i32 5
  %6 = load i32, ptr %_M_streambuf_state.i.i.i.i, align 8, !tbaa !55
  %or.i.i.i.i = or i32 %6, 1
  invoke void @_ZNSt9basic_iosIcSt11char_traitsIcEE5clearESt12_Ios_Iostate(ptr noundef nonnull align 8 dereferenceable(264) %add.ptr.i.i, i32 noundef %or.i.i.i.i)
          to label %_ZStlsISt11char_traitsIcEERSt13basic_ostreamIcT_ES5_PKc.exit.i unwind label %terminate.lpad

if.else.i.i:                                      ; preds = %invoke.cont8
  %call.i.i.i = call noundef i64 @strlen(ptr noundef nonnull dereferenceable(1) %call1.i) #30
  %call1.i.i16 = invoke noundef nonnull align 8 dereferenceable(8) ptr @_ZSt16__ostream_insertIcSt11char_traitsIcEERSt13basic_ostreamIT_T0_ES6_PKS3_l(ptr noundef nonnull align 8 dereferenceable(8) %call7, ptr noundef nonnull %call1.i, i64 noundef %call.i.i.i)
          to label %_ZStlsISt11char_traitsIcEERSt13basic_ostreamIcT_ES5_PKc.exit.i unwind label %terminate.lpad

_ZStlsISt11char_traitsIcEERSt13basic_ostreamIcT_ES5_PKc.exit.i: ; preds = %if.else.i.i, %if.then.i.i
  call void @llvm.lifetime.start.p0(i64 1, ptr nonnull %__c.addr.i.i)
  store i8 58, ptr %__c.addr.i.i, align 1, !tbaa !31
  %vtable.i7.i = load ptr, ptr %call7, align 8, !tbaa !7
  %vbase.offset.ptr.i8.i = getelementptr i8, ptr %vtable.i7.i, i64 -24
  %vbase.offset.i9.i = load i64, ptr %vbase.offset.ptr.i8.i, align 8
  %add.ptr.i10.i = getelementptr inbounds i8, ptr %call7, i64 %vbase.offset.i9.i
  %_M_width.i.i.i = getelementptr inbounds %"class.std::ios_base", ptr %add.ptr.i10.i, i64 0, i32 2
  %7 = load i64, ptr %_M_width.i.i.i, align 8, !tbaa !61
  %cmp.not.i.i = icmp eq i64 %7, 0
  br i1 %cmp.not.i.i, label %if.end.i.i, label %if.then.i11.i

if.then.i11.i:                                    ; preds = %_ZStlsISt11char_traitsIcEERSt13basic_ostreamIcT_ES5_PKc.exit.i
  %call1.i12.i17 = invoke noundef nonnull align 8 dereferenceable(8) ptr @_ZSt16__ostream_insertIcSt11char_traitsIcEERSt13basic_ostreamIT_T0_ES6_PKS3_l(ptr noundef nonnull align 8 dereferenceable(8) %call7, ptr noundef nonnull %__c.addr.i.i, i64 noundef 1)
          to label %_ZStlsISt11char_traitsIcEERSt13basic_ostreamIcT_ES5_c.exit.i unwind label %terminate.lpad

if.end.i.i:                                       ; preds = %_ZStlsISt11char_traitsIcEERSt13basic_ostreamIcT_ES5_PKc.exit.i
  %call2.i.i18 = invoke noundef nonnull align 8 dereferenceable(8) ptr @_ZNSo3putEc(ptr noundef nonnull align 8 dereferenceable(8) %call7, i8 noundef signext 58)
          to label %_ZStlsISt11char_traitsIcEERSt13basic_ostreamIcT_ES5_c.exit.i unwind label %terminate.lpad

_ZStlsISt11char_traitsIcEERSt13basic_ostreamIcT_ES5_c.exit.i: ; preds = %if.end.i.i, %if.then.i11.i
  %retval.0.i.i = phi ptr [ %call1.i12.i17, %if.then.i11.i ], [ %call7, %if.end.i.i ]
  %ec.sroa.0.0.extract.trunc.i = trunc i64 %agg.tmp.sroa.0.0.copyload to i32
  call void @llvm.lifetime.end.p0(i64 1, ptr nonnull %__c.addr.i.i)
  %call5.i19 = invoke noundef nonnull align 8 dereferenceable(8) ptr @_ZNSolsEi(ptr noundef nonnull align 8 dereferenceable(8) %retval.0.i.i, i32 noundef %ec.sroa.0.0.extract.trunc.i)
          to label %invoke.cont10 unwind label %terminate.lpad

invoke.cont10:                                    ; preds = %_ZStlsISt11char_traitsIcEERSt13basic_ostreamIcT_ES5_c.exit.i
  call void @_ZN6google10LogMessageD1Ev(ptr noundef nonnull align 8 dereferenceable(16) %ref.tmp) #30
  call void @llvm.lifetime.end.p0(i64 16, ptr nonnull %ref.tmp) #30
  br label %if.end

if.end:                                           ; preds = %invoke.cont10, %_ZN5boost10filesystem10remove_allERKNS0_4pathERNS_6system10error_codeE.exit
  call void @llvm.lifetime.end.p0(i64 16, ptr nonnull %ec) #30
  br label %if.end12

if.end12:                                         ; preds = %if.end, %land.lhs.true, %entry
  %path_13 = getelementptr inbounds %"class.folly::test::TemporaryDirectory", ptr %this, i64 0, i32 1
  %8 = load ptr, ptr %path_13, align 8, !tbaa !53
  %cmp.not.i = icmp eq ptr %8, null
  br i1 %cmp.not.i, label %_ZNSt10unique_ptrIN5boost10filesystem4pathESt14default_deleteIS2_EED2Ev.exit, label %delete.notnull.i.i

delete.notnull.i.i:                               ; preds = %if.end12
  %9 = load ptr, ptr %8, align 8, !tbaa !29
  %10 = getelementptr inbounds %"class.std::__cxx11::basic_string", ptr %8, i64 0, i32 2
  %cmp.i.i.i.i.i.i = icmp eq ptr %9, %10
  br i1 %cmp.i.i.i.i.i.i, label %_ZNKSt7__cxx1112basic_stringIcSt11char_traitsIcESaIcEE11_M_is_localEv.exit.thread.i.i.i.i.i, label %if.then.i.i.i.i.i

_ZNKSt7__cxx1112basic_stringIcSt11char_traitsIcESaIcEE11_M_is_localEv.exit.thread.i.i.i.i.i: ; preds = %delete.notnull.i.i
  %_M_string_length.i.i.i.i.i.i = getelementptr inbounds %"class.std::__cxx11::basic_string", ptr %8, i64 0, i32 1
  %11 = load i64, ptr %_M_string_length.i.i.i.i.i.i, align 8, !tbaa !32
  %cmp3.i.i.i.i.i.i = icmp ult i64 %11, 16
  call void @llvm.assume(i1 %cmp3.i.i.i.i.i.i)
  br label %_ZNKSt14default_deleteIN5boost10filesystem4pathEEclEPS2_.exit.i

if.then.i.i.i.i.i:                                ; preds = %delete.notnull.i.i
  call void @_ZdlPv(ptr noundef %9) #33
  br label %_ZNKSt14default_deleteIN5boost10filesystem4pathEEclEPS2_.exit.i

_ZNKSt14default_deleteIN5boost10filesystem4pathEEclEPS2_.exit.i: ; preds = %if.then.i.i.i.i.i, %_ZNKSt7__cxx1112basic_stringIcSt11char_traitsIcESaIcEE11_M_is_localEv.exit.thread.i.i.i.i.i
  call void @_ZdlPv(ptr noundef nonnull %8) #33
  br label %_ZNSt10unique_ptrIN5boost10filesystem4pathESt14default_deleteIS2_EED2Ev.exit

_ZNSt10unique_ptrIN5boost10filesystem4pathESt14default_deleteIS2_EED2Ev.exit: ; preds = %_ZNKSt14default_deleteIN5boost10filesystem4pathEEclEPS2_.exit.i, %if.end12
  store ptr null, ptr %path_13, align 8, !tbaa !53
  ret void

terminate.lpad:                                   ; preds = %_ZStlsISt11char_traitsIcEERSt13basic_ostreamIcT_ES5_c.exit.i, %if.end.i.i, %if.then.i11.i, %if.else.i.i, %if.then.i.i, %invoke.cont6, %invoke.cont, %if.then5
  %12 = landingpad { ptr, i32 }
          catch ptr null
  %13 = extractvalue { ptr, i32 } %12, 0
  call void @__clang_call_terminate(ptr %13) #32
  unreachable
}

declare noundef i64 @_ZN5boost10filesystem6detail10remove_allERKNS0_4pathEPNS_6system10error_codeE(ptr noundef nonnull align 8 dereferenceable(32), ptr noundef) local_unnamed_addr #9

; Function Attrs: mustprogress uwtable
define void @_ZN5folly4test15ChangeToTempDirC2Ev(ptr noundef nonnull align 8 dereferenceable(48) %this) unnamed_addr #5 align 2 personality ptr @__gxx_personality_v0 {
entry:
  %agg.tmp2 = alloca %"class.boost::filesystem::path", align 8
  %ref.tmp = alloca %"class.boost::filesystem::path", align 8
  %0 = getelementptr inbounds %"class.std::__cxx11::basic_string", ptr %agg.tmp2, i64 0, i32 2
  store ptr %0, ptr %agg.tmp2, align 8, !tbaa !25
  %_M_string_length.i.i.i.i = getelementptr inbounds %"class.std::__cxx11::basic_string", ptr %agg.tmp2, i64 0, i32 1
  store i64 0, ptr %_M_string_length.i.i.i.i, align 8, !tbaa !32
  store i8 0, ptr %0, align 8, !tbaa !31
  invoke void @_ZN5folly4test18TemporaryDirectoryC1ENS_5RangeIPKcEEN5boost10filesystem4pathENS1_5ScopeE(ptr noundef nonnull align 8 dereferenceable(16) %this, ptr null, ptr null, ptr noundef nonnull %agg.tmp2, i32 noundef 1)
          to label %invoke.cont unwind label %lpad

invoke.cont:                                      ; preds = %entry
  %1 = load ptr, ptr %agg.tmp2, align 8, !tbaa !29
  %cmp.i.i.i.i = icmp eq ptr %1, %0
  br i1 %cmp.i.i.i.i, label %_ZNKSt7__cxx1112basic_stringIcSt11char_traitsIcESaIcEE11_M_is_localEv.exit.thread.i.i.i, label %if.then.i.i.i

_ZNKSt7__cxx1112basic_stringIcSt11char_traitsIcESaIcEE11_M_is_localEv.exit.thread.i.i.i: ; preds = %invoke.cont
  %2 = load i64, ptr %_M_string_length.i.i.i.i, align 8, !tbaa !32
  %cmp3.i.i.i.i = icmp ult i64 %2, 16
  call void @llvm.assume(i1 %cmp3.i.i.i.i)
  br label %_ZN5boost10filesystem4pathD2Ev.exit

if.then.i.i.i:                                    ; preds = %invoke.cont
  call void @_ZdlPv(ptr noundef %1) #33
  br label %_ZN5boost10filesystem4pathD2Ev.exit

_ZN5boost10filesystem4pathD2Ev.exit:              ; preds = %if.then.i.i.i, %_ZNKSt7__cxx1112basic_stringIcSt11char_traitsIcESaIcEE11_M_is_localEv.exit.thread.i.i.i
  %orig_ = getelementptr inbounds %"class.folly::test::ChangeToTempDir", ptr %this, i64 0, i32 1
  %3 = getelementptr inbounds %"class.folly::test::ChangeToTempDir", ptr %this, i64 0, i32 1, i32 0, i32 2
  store ptr %3, ptr %orig_, align 8, !tbaa !25
  %_M_string_length.i.i.i.i15 = getelementptr inbounds %"class.folly::test::ChangeToTempDir", ptr %this, i64 0, i32 1, i32 0, i32 1
  store i64 0, ptr %_M_string_length.i.i.i.i15, align 8, !tbaa !32
  store i8 0, ptr %3, align 8, !tbaa !31
  call void @llvm.lifetime.start.p0(i64 32, ptr nonnull %ref.tmp) #30
  invoke void @_ZN5boost10filesystem6detail12current_pathEPNS_6system10error_codeE(ptr nonnull sret(%"class.boost::filesystem::path") align 8 %ref.tmp, ptr noundef null)
          to label %invoke.cont4 unwind label %lpad3

invoke.cont4:                                     ; preds = %_ZN5boost10filesystem4pathD2Ev.exit
  %4 = load ptr, ptr %orig_, align 8, !tbaa !29
  %cmp.i.i.i = icmp eq ptr %4, %3
  br i1 %cmp.i.i.i, label %if.end.i.i, label %if.end.thread.i.i

if.end.i.i:                                       ; preds = %invoke.cont4
  %5 = load i64, ptr %_M_string_length.i.i.i.i15, align 8, !tbaa !32
  %cmp3.i.i.i = icmp ult i64 %5, 16
  call void @llvm.assume(i1 %cmp3.i.i.i)
  %6 = load ptr, ptr %ref.tmp, align 8, !tbaa !29
  %7 = getelementptr inbounds %"class.std::__cxx11::basic_string", ptr %ref.tmp, i64 0, i32 2
  %cmp.i56.i.i = icmp eq ptr %6, %7
  br i1 %cmp.i56.i.i, label %if.then15.i.i, label %if.end32.thread.i.i

if.end.thread.i.i:                                ; preds = %invoke.cont4
  %8 = load ptr, ptr %ref.tmp, align 8, !tbaa !29
  %9 = getelementptr inbounds %"class.std::__cxx11::basic_string", ptr %ref.tmp, i64 0, i32 2
  %cmp.i5678.i.i = icmp eq ptr %8, %9
  br i1 %cmp.i5678.i.i, label %if.then15.i.i, label %if.end32.i.i

if.then15.i.i:                                    ; preds = %if.end.thread.i.i, %if.end.i.i
  %10 = phi ptr [ %8, %if.end.thread.i.i ], [ %7, %if.end.i.i ]
  %_M_string_length.i58.i.i = getelementptr inbounds %"class.std::__cxx11::basic_string", ptr %ref.tmp, i64 0, i32 1
  %11 = load i64, ptr %_M_string_length.i58.i.i, align 8, !tbaa !32
  %cmp3.i59.i.i = icmp ult i64 %11, 16
  call void @llvm.assume(i1 %cmp3.i59.i.i)
  %cmp.not.i.i = icmp eq ptr %ref.tmp, %orig_
  br i1 %cmp.not.i.i, label %_ZN5boost10filesystem4pathaSEOS1_.exit, label %if.then16.i.i, !prof !46

if.then16.i.i:                                    ; preds = %if.then15.i.i
  switch i64 %11, label %if.end.i.i.i.i [
    i64 0, label %if.end24.i.i
    i64 1, label %if.then.i63.i.i
  ]

if.then.i63.i.i:                                  ; preds = %if.then16.i.i
  %12 = load i8, ptr %10, align 1, !tbaa !31
  store i8 %12, ptr %4, align 1, !tbaa !31
  br label %if.end24.i.i

if.end.i.i.i.i:                                   ; preds = %if.then16.i.i
  call void @llvm.memcpy.p0.p0.i64(ptr align 1 %4, ptr align 1 %10, i64 %11, i1 false)
  br label %if.end24.i.i

if.end24.i.i:                                     ; preds = %if.end.i.i.i.i, %if.then.i63.i.i, %if.then16.i.i
  %13 = load i64, ptr %_M_string_length.i58.i.i, align 8, !tbaa !32
  store i64 %13, ptr %_M_string_length.i.i.i.i15, align 8, !tbaa !32
  %14 = load ptr, ptr %orig_, align 8, !tbaa !29
  %arrayidx.i.i.i = getelementptr inbounds i8, ptr %14, i64 %13
  store i8 0, ptr %arrayidx.i.i.i, align 1, !tbaa !31
  %.pre.i.i = load ptr, ptr %ref.tmp, align 8, !tbaa !29
  br label %_ZN5boost10filesystem4pathaSEOS1_.exit

if.end32.thread.i.i:                              ; preds = %if.end.i.i
  store ptr %6, ptr %orig_, align 8, !tbaa !29
  %_M_string_length.i7175.i.i = getelementptr inbounds %"class.std::__cxx11::basic_string", ptr %ref.tmp, i64 0, i32 1
  %15 = load <2 x i64>, ptr %_M_string_length.i7175.i.i, align 8, !tbaa !31
  store <2 x i64> %15, ptr %_M_string_length.i.i.i.i15, align 8, !tbaa !31
  br label %if.else37.i.i

if.end32.i.i:                                     ; preds = %if.end.thread.i.i
  %16 = load i64, ptr %3, align 8, !tbaa !31
  store ptr %8, ptr %orig_, align 8, !tbaa !29
  %_M_string_length.i71.i.i = getelementptr inbounds %"class.std::__cxx11::basic_string", ptr %ref.tmp, i64 0, i32 1
  %17 = load <2 x i64>, ptr %_M_string_length.i71.i.i, align 8, !tbaa !31
  store <2 x i64> %17, ptr %_M_string_length.i.i.i.i15, align 8, !tbaa !31
  %tobool35.not.i.i = icmp eq ptr %4, null
  br i1 %tobool35.not.i.i, label %if.else37.i.i, label %if.then36.i.i

if.then36.i.i:                                    ; preds = %if.end32.i.i
  store ptr %4, ptr %ref.tmp, align 8, !tbaa !29
  store i64 %16, ptr %9, align 8, !tbaa !31
  br label %_ZN5boost10filesystem4pathaSEOS1_.exit

if.else37.i.i:                                    ; preds = %if.end32.i.i, %if.end32.thread.i.i
  %18 = phi ptr [ %7, %if.end32.thread.i.i ], [ %9, %if.end32.i.i ]
  store ptr %18, ptr %ref.tmp, align 8, !tbaa !29
  br label %_ZN5boost10filesystem4pathaSEOS1_.exit

_ZN5boost10filesystem4pathaSEOS1_.exit:           ; preds = %if.else37.i.i, %if.then36.i.i, %if.end24.i.i, %if.then15.i.i
  %19 = phi ptr [ %.pre.i.i, %if.end24.i.i ], [ %4, %if.then36.i.i ], [ %18, %if.else37.i.i ], [ %10, %if.then15.i.i ]
  %_M_string_length.i.i.i.i.i = getelementptr inbounds %"class.std::__cxx11::basic_string", ptr %ref.tmp, i64 0, i32 1
  store i64 0, ptr %_M_string_length.i.i.i.i.i, align 8, !tbaa !32
  store i8 0, ptr %19, align 1, !tbaa !31
  %20 = load ptr, ptr %ref.tmp, align 8, !tbaa !29
  %21 = getelementptr inbounds %"class.std::__cxx11::basic_string", ptr %ref.tmp, i64 0, i32 2
  %cmp.i.i.i.i16 = icmp eq ptr %20, %21
  br i1 %cmp.i.i.i.i16, label %_ZNKSt7__cxx1112basic_stringIcSt11char_traitsIcESaIcEE11_M_is_localEv.exit.thread.i.i.i18, label %if.then.i.i.i17

_ZNKSt7__cxx1112basic_stringIcSt11char_traitsIcESaIcEE11_M_is_localEv.exit.thread.i.i.i18: ; preds = %_ZN5boost10filesystem4pathaSEOS1_.exit
  %22 = load i64, ptr %_M_string_length.i.i.i.i.i, align 8, !tbaa !32
  %cmp3.i.i.i.i20 = icmp ult i64 %22, 16
  call void @llvm.assume(i1 %cmp3.i.i.i.i20)
  br label %_ZN5boost10filesystem4pathD2Ev.exit21

if.then.i.i.i17:                                  ; preds = %_ZN5boost10filesystem4pathaSEOS1_.exit
  call void @_ZdlPv(ptr noundef %20) #33
  br label %_ZN5boost10filesystem4pathD2Ev.exit21

_ZN5boost10filesystem4pathD2Ev.exit21:            ; preds = %if.then.i.i.i17, %_ZNKSt7__cxx1112basic_stringIcSt11char_traitsIcESaIcEE11_M_is_localEv.exit.thread.i.i.i18
  call void @llvm.lifetime.end.p0(i64 32, ptr nonnull %ref.tmp) #30
  %path_.i.i = getelementptr inbounds %"class.folly::test::TemporaryDirectory", ptr %this, i64 0, i32 1
  %23 = load ptr, ptr %path_.i.i, align 8, !tbaa !53
  invoke void @_ZN5boost10filesystem6detail12current_pathERKNS0_4pathEPNS_6system10error_codeE(ptr noundef nonnull align 8 dereferenceable(32) %23, ptr noundef null)
          to label %invoke.cont9 unwind label %lpad6

invoke.cont9:                                     ; preds = %_ZN5boost10filesystem4pathD2Ev.exit21
  ret void

lpad:                                             ; preds = %entry
  %24 = landingpad { ptr, i32 }
          cleanup
  %25 = load ptr, ptr %agg.tmp2, align 8, !tbaa !29
  %cmp.i.i.i.i22 = icmp eq ptr %25, %0
  br i1 %cmp.i.i.i.i22, label %_ZNKSt7__cxx1112basic_stringIcSt11char_traitsIcESaIcEE11_M_is_localEv.exit.thread.i.i.i24, label %if.then.i.i.i23

_ZNKSt7__cxx1112basic_stringIcSt11char_traitsIcESaIcEE11_M_is_localEv.exit.thread.i.i.i24: ; preds = %lpad
  %26 = load i64, ptr %_M_string_length.i.i.i.i, align 8, !tbaa !32
  %cmp3.i.i.i.i26 = icmp ult i64 %26, 16
  call void @llvm.assume(i1 %cmp3.i.i.i.i26)
  br label %eh.resume

if.then.i.i.i23:                                  ; preds = %lpad
  call void @_ZdlPv(ptr noundef %25) #33
  br label %eh.resume

lpad3:                                            ; preds = %_ZN5boost10filesystem4pathD2Ev.exit
  %27 = landingpad { ptr, i32 }
          cleanup
  call void @llvm.lifetime.end.p0(i64 32, ptr nonnull %ref.tmp) #30
  br label %ehcleanup

lpad6:                                            ; preds = %_ZN5boost10filesystem4pathD2Ev.exit21
  %28 = landingpad { ptr, i32 }
          cleanup
  br label %ehcleanup

ehcleanup:                                        ; preds = %lpad6, %lpad3
  %.pn = phi { ptr, i32 } [ %28, %lpad6 ], [ %27, %lpad3 ]
  %29 = load ptr, ptr %orig_, align 8, !tbaa !29
  %cmp.i.i.i.i28 = icmp eq ptr %29, %3
  br i1 %cmp.i.i.i.i28, label %_ZNKSt7__cxx1112basic_stringIcSt11char_traitsIcESaIcEE11_M_is_localEv.exit.thread.i.i.i30, label %if.then.i.i.i29

_ZNKSt7__cxx1112basic_stringIcSt11char_traitsIcESaIcEE11_M_is_localEv.exit.thread.i.i.i30: ; preds = %ehcleanup
  %30 = load i64, ptr %_M_string_length.i.i.i.i15, align 8, !tbaa !32
  %cmp3.i.i.i.i32 = icmp ult i64 %30, 16
  call void @llvm.assume(i1 %cmp3.i.i.i.i32)
  br label %_ZN5boost10filesystem4pathD2Ev.exit33

if.then.i.i.i29:                                  ; preds = %ehcleanup
  call void @_ZdlPv(ptr noundef %29) #33
  br label %_ZN5boost10filesystem4pathD2Ev.exit33

_ZN5boost10filesystem4pathD2Ev.exit33:            ; preds = %if.then.i.i.i29, %_ZNKSt7__cxx1112basic_stringIcSt11char_traitsIcESaIcEE11_M_is_localEv.exit.thread.i.i.i30
  call void @_ZN5folly4test18TemporaryDirectoryD1Ev(ptr noundef nonnull align 8 dereferenceable(16) %this) #30
  br label %eh.resume

eh.resume:                                        ; preds = %_ZN5boost10filesystem4pathD2Ev.exit33, %if.then.i.i.i23, %_ZNKSt7__cxx1112basic_stringIcSt11char_traitsIcESaIcEE11_M_is_localEv.exit.thread.i.i.i24
  %.pn.pn = phi { ptr, i32 } [ %.pn, %_ZN5boost10filesystem4pathD2Ev.exit33 ], [ %24, %_ZNKSt7__cxx1112basic_stringIcSt11char_traitsIcESaIcEE11_M_is_localEv.exit.thread.i.i.i24 ], [ %24, %if.then.i.i.i23 ]
  resume { ptr, i32 } %.pn.pn
}

declare void @_ZN5boost10filesystem6detail12current_pathEPNS_6system10error_codeE(ptr sret(%"class.boost::filesystem::path") align 8, ptr noundef) local_unnamed_addr #9

declare void @_ZN5boost10filesystem6detail12current_pathERKNS0_4pathEPNS_6system10error_codeE(ptr noundef nonnull align 8 dereferenceable(32), ptr noundef) local_unnamed_addr #9

; Function Attrs: mustprogress nounwind uwtable
define void @_ZN5folly4test15ChangeToTempDirD2Ev(ptr noundef nonnull align 8 dereferenceable(48) %this) unnamed_addr #1 align 2 personality ptr @__gxx_personality_v0 {
entry:
  %orig_ = getelementptr inbounds %"class.folly::test::ChangeToTempDir", ptr %this, i64 0, i32 1
  %_M_string_length.i.i.i = getelementptr inbounds %"class.folly::test::ChangeToTempDir", ptr %this, i64 0, i32 1, i32 0, i32 1
  %0 = load i64, ptr %_M_string_length.i.i.i, align 8, !tbaa !32
  %cmp.i.i = icmp eq i64 %0, 0
  br i1 %cmp.i.i, label %if.end, label %if.then

if.then:                                          ; preds = %entry
  invoke void @_ZN5boost10filesystem6detail12current_pathERKNS0_4pathEPNS_6system10error_codeE(ptr noundef nonnull align 8 dereferenceable(32) %orig_, ptr noundef null)
          to label %if.end unwind label %terminate.lpad

if.end:                                           ; preds = %if.then, %entry
  %1 = load ptr, ptr %orig_, align 8, !tbaa !29
  %2 = getelementptr inbounds %"class.folly::test::ChangeToTempDir", ptr %this, i64 0, i32 1, i32 0, i32 2
  %cmp.i.i.i.i = icmp eq ptr %1, %2
  br i1 %cmp.i.i.i.i, label %_ZNKSt7__cxx1112basic_stringIcSt11char_traitsIcESaIcEE11_M_is_localEv.exit.thread.i.i.i, label %if.then.i.i.i

_ZNKSt7__cxx1112basic_stringIcSt11char_traitsIcESaIcEE11_M_is_localEv.exit.thread.i.i.i: ; preds = %if.end
  %3 = load i64, ptr %_M_string_length.i.i.i, align 8, !tbaa !32
  %cmp3.i.i.i.i = icmp ult i64 %3, 16
  tail call void @llvm.assume(i1 %cmp3.i.i.i.i)
  br label %_ZN5boost10filesystem4pathD2Ev.exit

if.then.i.i.i:                                    ; preds = %if.end
  tail call void @_ZdlPv(ptr noundef %1) #33
  br label %_ZN5boost10filesystem4pathD2Ev.exit

_ZN5boost10filesystem4pathD2Ev.exit:              ; preds = %if.then.i.i.i, %_ZNKSt7__cxx1112basic_stringIcSt11char_traitsIcESaIcEE11_M_is_localEv.exit.thread.i.i.i
  tail call void @_ZN5folly4test18TemporaryDirectoryD1Ev(ptr noundef nonnull align 8 dereferenceable(16) %this) #30
  ret void

terminate.lpad:                                   ; preds = %if.then
  %4 = landingpad { ptr, i32 }
          catch ptr null
  %5 = extractvalue { ptr, i32 } %4, 0
  tail call void @__clang_call_terminate(ptr %5) #32
  unreachable
}

; Function Attrs: mustprogress nofree norecurse nosync nounwind willreturn memory(none) uwtable
define { ptr, i32 } @_ZN5folly4test6detail24disableInvalidParametersEv() local_unnamed_addr #21 {
entry:
  ret { ptr, i32 } zeroinitializer
}

; Function Attrs: mustprogress nocallback nofree nounwind willreturn memory(argmem: write)
declare void @llvm.memset.p0.i64(ptr nocapture writeonly, i8, i64, i1 immarg) #22

; Function Attrs: mustprogress nofree norecurse nosync nounwind willreturn memory(none) uwtable
define void @_ZN5folly4test6detail23enableInvalidParametersENS1_10SavedStateE(ptr nocapture readnone %.coerce0, i32 %.coerce1) local_unnamed_addr #21 {
entry:
  ret void
}

; Function Attrs: mustprogress uwtable
define noundef zeroext i1 @_ZN5folly4test6detail19hasPCREPatternMatchENS_5RangeIPKcEES5_(ptr %pattern.coerce0, ptr %pattern.coerce1, ptr %target.coerce0, ptr %target.coerce1) local_unnamed_addr #5 personality ptr @__gxx_personality_v0 {
entry:
  %m.i = alloca %"class.boost::match_results", align 8
  %ref.tmp = alloca %"class.boost::basic_regex", align 8
  call void @llvm.lifetime.start.p0(i64 16, ptr nonnull %ref.tmp) #30
  call void @llvm.memset.p0.i64(ptr noundef nonnull align 8 dereferenceable(16) %ref.tmp, i8 0, i64 16, i1 false)
  %call.i3.i = invoke noundef nonnull align 8 dereferenceable(16) ptr @_ZN5boost11basic_regexIcNS_12regex_traitsIcNS_16cpp_regex_traitsIcEEEEE9do_assignEPKcS7_j(ptr noundef nonnull align 8 dereferenceable(16) %ref.tmp, ptr noundef %pattern.coerce0, ptr noundef %pattern.coerce1, i32 noundef 0)
          to label %_ZN5boost11basic_regexIcNS_12regex_traitsIcNS_16cpp_regex_traitsIcEEEEEC2EPKcS7_j.exit unwind label %lpad.i

common.resume:                                    ; preds = %lpad1.i, %lpad.i
  %common.resume.op = phi { ptr, i32 } [ %0, %lpad.i ], [ %9, %lpad1.i ]
  resume { ptr, i32 } %common.resume.op

lpad.i:                                           ; preds = %entry
  %0 = landingpad { ptr, i32 }
          cleanup
  call void @_ZN5boost10shared_ptrINS_16re_detail_10740026basic_regex_implementationIcNS_12regex_traitsIcNS_16cpp_regex_traitsIcEEEEEEED2Ev(ptr noundef nonnull align 8 dereferenceable(16) %ref.tmp) #30
  br label %common.resume

_ZN5boost11basic_regexIcNS_12regex_traitsIcNS_16cpp_regex_traitsIcEEEEEC2EPKcS7_j.exit: ; preds = %entry
  call void @llvm.lifetime.start.p0(i64 80, ptr nonnull %m.i) #30
  %m_named_subs.i.i = getelementptr inbounds %"class.boost::match_results", ptr %m.i, i64 0, i32 3
  %m_is_singular.i.i = getelementptr inbounds %"class.boost::match_results", ptr %m.i, i64 0, i32 5
  call void @llvm.memset.p0.i64(ptr noundef nonnull align 8 dereferenceable(49) %m.i, i8 0, i64 49, i1 false)
  call void @llvm.memset.p0.i64(ptr noundef nonnull align 8 dereferenceable(20) %m_named_subs.i.i, i8 0, i64 20, i1 false)
  store i8 1, ptr %m_is_singular.i.i, align 4, !tbaa !87
  %call4.i = invoke noundef zeroext i1 @_ZN5boost11regex_matchIPKcSaINS_9sub_matchIS2_EEEcNS_12regex_traitsIcNS_16cpp_regex_traitsIcEEEEEEbT_SA_RNS_13match_resultsISA_T0_EERKNS_11basic_regexIT1_T2_EENS_15regex_constants12_match_flagsE(ptr noundef %target.coerce0, ptr noundef %target.coerce1, ptr noundef nonnull align 8 dereferenceable(77) %m.i, ptr noundef nonnull align 8 dereferenceable(16) %ref.tmp, i32 noundef 1024)
          to label %invoke.cont3.i unwind label %lpad1.i

invoke.cont3.i:                                   ; preds = %_ZN5boost11basic_regexIcNS_12regex_traitsIcNS_16cpp_regex_traitsIcEEEEEC2EPKcS7_j.exit
  %pn.i.i.i = getelementptr inbounds %"class.boost::match_results", ptr %m.i, i64 0, i32 3, i32 1
  %1 = load ptr, ptr %pn.i.i.i, align 8, !tbaa !97
  %cmp.not.i.i.i.i = icmp eq ptr %1, null
  br i1 %cmp.not.i.i.i.i, label %_ZN5boost10shared_ptrINS_16re_detail_10740020named_subexpressionsEED2Ev.exit.i.i, label %if.then.i.i.i.i

if.then.i.i.i.i:                                  ; preds = %invoke.cont3.i
  %use_count_.i.i.i.i.i = getelementptr inbounds %"class.boost::detail::sp_counted_base", ptr %1, i64 0, i32 1
  %2 = atomicrmw sub ptr %use_count_.i.i.i.i.i, i32 1 acq_rel, align 4
  %cmp.i.i.i.i.i = icmp eq i32 %2, 1
  br i1 %cmp.i.i.i.i.i, label %if.then.i.i.i.i.i, label %_ZN5boost10shared_ptrINS_16re_detail_10740020named_subexpressionsEED2Ev.exit.i.i

if.then.i.i.i.i.i:                                ; preds = %if.then.i.i.i.i
  %vtable.i.i.i.i.i = load ptr, ptr %1, align 8, !tbaa !7
  %vfn.i.i.i.i.i = getelementptr inbounds ptr, ptr %vtable.i.i.i.i.i, i64 2
  %3 = load ptr, ptr %vfn.i.i.i.i.i, align 8
  invoke void %3(ptr noundef nonnull align 8 dereferenceable(16) %1)
          to label %.noexc.i.i.i.i unwind label %terminate.lpad.i.i.i.i

.noexc.i.i.i.i:                                   ; preds = %if.then.i.i.i.i.i
  %weak_count_.i.i.i.i.i.i = getelementptr inbounds %"class.boost::detail::sp_counted_base", ptr %1, i64 0, i32 2
  %4 = atomicrmw sub ptr %weak_count_.i.i.i.i.i.i, i32 1 acq_rel, align 4
  %cmp.i.i.i.i.i.i = icmp eq i32 %4, 1
  br i1 %cmp.i.i.i.i.i.i, label %if.then.i.i.i.i.i.i, label %_ZN5boost10shared_ptrINS_16re_detail_10740020named_subexpressionsEED2Ev.exit.i.i

if.then.i.i.i.i.i.i:                              ; preds = %.noexc.i.i.i.i
  %vtable.i.i.i.i.i.i = load ptr, ptr %1, align 8, !tbaa !7
  %vfn.i.i.i.i.i.i = getelementptr inbounds ptr, ptr %vtable.i.i.i.i.i.i, i64 3
  %5 = load ptr, ptr %vfn.i.i.i.i.i.i, align 8
  invoke void %5(ptr noundef nonnull align 8 dereferenceable(16) %1)
          to label %_ZN5boost10shared_ptrINS_16re_detail_10740020named_subexpressionsEED2Ev.exit.i.i unwind label %terminate.lpad.i.i.i.i

terminate.lpad.i.i.i.i:                           ; preds = %if.then.i.i.i.i.i.i, %if.then.i.i.i.i.i
  %6 = landingpad { ptr, i32 }
          catch ptr null
  %7 = extractvalue { ptr, i32 } %6, 0
  call void @__clang_call_terminate(ptr %7) #32
  unreachable

_ZN5boost10shared_ptrINS_16re_detail_10740020named_subexpressionsEED2Ev.exit.i.i: ; preds = %if.then.i.i.i.i.i.i, %.noexc.i.i.i.i, %if.then.i.i.i.i, %invoke.cont3.i
  %8 = load ptr, ptr %m.i, align 8, !tbaa !98
  %tobool.not.i.i.i.i.i = icmp eq ptr %8, null
  br i1 %tobool.not.i.i.i.i.i, label %invoke.cont, label %if.then.i.i.i2.i.i

if.then.i.i.i2.i.i:                               ; preds = %_ZN5boost10shared_ptrINS_16re_detail_10740020named_subexpressionsEED2Ev.exit.i.i
  call void @_ZdlPv(ptr noundef nonnull %8) #33
  br label %invoke.cont

lpad1.i:                                          ; preds = %_ZN5boost11basic_regexIcNS_12regex_traitsIcNS_16cpp_regex_traitsIcEEEEEC2EPKcS7_j.exit
  %9 = landingpad { ptr, i32 }
          cleanup
  call void @_ZN5boost13match_resultsIPKcSaINS_9sub_matchIS2_EEEED2Ev(ptr noundef nonnull align 8 dereferenceable(77) %m.i) #30
  call void @llvm.lifetime.end.p0(i64 80, ptr nonnull %m.i) #30
  call void @_ZN5boost11basic_regexIcNS_12regex_traitsIcNS_16cpp_regex_traitsIcEEEEED2Ev(ptr noundef nonnull align 8 dereferenceable(16) %ref.tmp) #30
  call void @llvm.lifetime.end.p0(i64 16, ptr nonnull %ref.tmp) #30
  br label %common.resume

invoke.cont:                                      ; preds = %if.then.i.i.i2.i.i, %_ZN5boost10shared_ptrINS_16re_detail_10740020named_subexpressionsEED2Ev.exit.i.i
  call void @llvm.lifetime.end.p0(i64 80, ptr nonnull %m.i) #30
  %pn.i.i = getelementptr inbounds %"class.boost::shared_ptr", ptr %ref.tmp, i64 0, i32 1
  %10 = load ptr, ptr %pn.i.i, align 8, !tbaa !97
  %cmp.not.i.i.i = icmp eq ptr %10, null
  br i1 %cmp.not.i.i.i, label %_ZN5boost11basic_regexIcNS_12regex_traitsIcNS_16cpp_regex_traitsIcEEEEED2Ev.exit, label %if.then.i.i.i

if.then.i.i.i:                                    ; preds = %invoke.cont
  %use_count_.i.i.i.i = getelementptr inbounds %"class.boost::detail::sp_counted_base", ptr %10, i64 0, i32 1
  %11 = atomicrmw sub ptr %use_count_.i.i.i.i, i32 1 acq_rel, align 4
  %cmp.i.i.i.i = icmp eq i32 %11, 1
  br i1 %cmp.i.i.i.i, label %if.then.i.i.i.i7, label %_ZN5boost11basic_regexIcNS_12regex_traitsIcNS_16cpp_regex_traitsIcEEEEED2Ev.exit

if.then.i.i.i.i7:                                 ; preds = %if.then.i.i.i
  %vtable.i.i.i.i = load ptr, ptr %10, align 8, !tbaa !7
  %vfn.i.i.i.i = getelementptr inbounds ptr, ptr %vtable.i.i.i.i, i64 2
  %12 = load ptr, ptr %vfn.i.i.i.i, align 8
  invoke void %12(ptr noundef nonnull align 8 dereferenceable(16) %10)
          to label %.noexc.i.i.i unwind label %terminate.lpad.i.i.i

.noexc.i.i.i:                                     ; preds = %if.then.i.i.i.i7
  %weak_count_.i.i.i.i.i = getelementptr inbounds %"class.boost::detail::sp_counted_base", ptr %10, i64 0, i32 2
  %13 = atomicrmw sub ptr %weak_count_.i.i.i.i.i, i32 1 acq_rel, align 4
  %cmp.i.i.i.i.i8 = icmp eq i32 %13, 1
  br i1 %cmp.i.i.i.i.i8, label %if.then.i.i.i.i.i9, label %_ZN5boost11basic_regexIcNS_12regex_traitsIcNS_16cpp_regex_traitsIcEEEEED2Ev.exit

if.then.i.i.i.i.i9:                               ; preds = %.noexc.i.i.i
  %vtable.i.i.i.i.i10 = load ptr, ptr %10, align 8, !tbaa !7
  %vfn.i.i.i.i.i11 = getelementptr inbounds ptr, ptr %vtable.i.i.i.i.i10, i64 3
  %14 = load ptr, ptr %vfn.i.i.i.i.i11, align 8
  invoke void %14(ptr noundef nonnull align 8 dereferenceable(16) %10)
          to label %_ZN5boost11basic_regexIcNS_12regex_traitsIcNS_16cpp_regex_traitsIcEEEEED2Ev.exit unwind label %terminate.lpad.i.i.i

terminate.lpad.i.i.i:                             ; preds = %if.then.i.i.i.i.i9, %if.then.i.i.i.i7
  %15 = landingpad { ptr, i32 }
          catch ptr null
  %16 = extractvalue { ptr, i32 } %15, 0
  call void @__clang_call_terminate(ptr %16) #32
  unreachable

_ZN5boost11basic_regexIcNS_12regex_traitsIcNS_16cpp_regex_traitsIcEEEEED2Ev.exit: ; preds = %if.then.i.i.i.i.i9, %.noexc.i.i.i, %if.then.i.i.i, %invoke.cont
  call void @llvm.lifetime.end.p0(i64 16, ptr nonnull %ref.tmp) #30
  ret i1 %call4.i
}

; Function Attrs: mustprogress nounwind uwtable
define linkonce_odr void @_ZN5boost11basic_regexIcNS_12regex_traitsIcNS_16cpp_regex_traitsIcEEEEED2Ev(ptr noundef nonnull align 8 dereferenceable(16) %this) unnamed_addr #1 comdat align 2 personality ptr @__gxx_personality_v0 {
entry:
  %pn.i = getelementptr inbounds %"class.boost::shared_ptr", ptr %this, i64 0, i32 1
  %0 = load ptr, ptr %pn.i, align 8, !tbaa !97
  %cmp.not.i.i = icmp eq ptr %0, null
  br i1 %cmp.not.i.i, label %_ZN5boost10shared_ptrINS_16re_detail_10740026basic_regex_implementationIcNS_12regex_traitsIcNS_16cpp_regex_traitsIcEEEEEEED2Ev.exit, label %if.then.i.i

if.then.i.i:                                      ; preds = %entry
  %use_count_.i.i.i = getelementptr inbounds %"class.boost::detail::sp_counted_base", ptr %0, i64 0, i32 1
  %1 = atomicrmw sub ptr %use_count_.i.i.i, i32 1 acq_rel, align 4
  %cmp.i.i.i = icmp eq i32 %1, 1
  br i1 %cmp.i.i.i, label %if.then.i.i.i, label %_ZN5boost10shared_ptrINS_16re_detail_10740026basic_regex_implementationIcNS_12regex_traitsIcNS_16cpp_regex_traitsIcEEEEEEED2Ev.exit

if.then.i.i.i:                                    ; preds = %if.then.i.i
  %vtable.i.i.i = load ptr, ptr %0, align 8, !tbaa !7
  %vfn.i.i.i = getelementptr inbounds ptr, ptr %vtable.i.i.i, i64 2
  %2 = load ptr, ptr %vfn.i.i.i, align 8
  invoke void %2(ptr noundef nonnull align 8 dereferenceable(16) %0)
          to label %.noexc.i.i unwind label %terminate.lpad.i.i

.noexc.i.i:                                       ; preds = %if.then.i.i.i
  %weak_count_.i.i.i.i = getelementptr inbounds %"class.boost::detail::sp_counted_base", ptr %0, i64 0, i32 2
  %3 = atomicrmw sub ptr %weak_count_.i.i.i.i, i32 1 acq_rel, align 4
  %cmp.i.i.i.i = icmp eq i32 %3, 1
  br i1 %cmp.i.i.i.i, label %if.then.i.i.i.i, label %_ZN5boost10shared_ptrINS_16re_detail_10740026basic_regex_implementationIcNS_12regex_traitsIcNS_16cpp_regex_traitsIcEEEEEEED2Ev.exit

if.then.i.i.i.i:                                  ; preds = %.noexc.i.i
  %vtable.i.i.i.i = load ptr, ptr %0, align 8, !tbaa !7
  %vfn.i.i.i.i = getelementptr inbounds ptr, ptr %vtable.i.i.i.i, i64 3
  %4 = load ptr, ptr %vfn.i.i.i.i, align 8
  invoke void %4(ptr noundef nonnull align 8 dereferenceable(16) %0)
          to label %_ZN5boost10shared_ptrINS_16re_detail_10740026basic_regex_implementationIcNS_12regex_traitsIcNS_16cpp_regex_traitsIcEEEEEEED2Ev.exit unwind label %terminate.lpad.i.i

terminate.lpad.i.i:                               ; preds = %if.then.i.i.i.i, %if.then.i.i.i
  %5 = landingpad { ptr, i32 }
          catch ptr null
  %6 = extractvalue { ptr, i32 } %5, 0
  tail call void @__clang_call_terminate(ptr %6) #32
  unreachable

_ZN5boost10shared_ptrINS_16re_detail_10740026basic_regex_implementationIcNS_12regex_traitsIcNS_16cpp_regex_traitsIcEEEEEEED2Ev.exit: ; preds = %if.then.i.i.i.i, %.noexc.i.i, %if.then.i.i, %entry
  ret void
}

; Function Attrs: mustprogress uwtable
define linkonce_odr noundef zeroext i1 @_ZN5boost11regex_matchIPKcSaINS_9sub_matchIS2_EEEcNS_12regex_traitsIcNS_16cpp_regex_traitsIcEEEEEEbT_SA_RNS_13match_resultsISA_T0_EERKNS_11basic_regexIT1_T2_EENS_15regex_constants12_match_flagsE(ptr noundef %first, ptr noundef %last, ptr noundef nonnull align 8 dereferenceable(77) %m, ptr noundef nonnull align 8 dereferenceable(16) %e, i32 noundef %flags) local_unnamed_addr #5 comdat personality ptr @__gxx_personality_v0 {
entry:
  %matcher = alloca %"class.boost::re_detail_107400::perl_matcher", align 8
  call void @llvm.lifetime.start.p0(i64 240, ptr nonnull %matcher) #30
  store ptr %m, ptr %matcher, align 8, !tbaa !53
  %m_temp_match.i = getelementptr inbounds %"class.boost::re_detail_107400::perl_matcher", ptr %matcher, i64 0, i32 1
  store ptr null, ptr %m_temp_match.i, align 8, !tbaa !99
  %base.i = getelementptr inbounds %"class.boost::re_detail_107400::perl_matcher", ptr %matcher, i64 0, i32 3
  store ptr %first, ptr %base.i, align 8, !tbaa !101
  %last.i = getelementptr inbounds %"class.boost::re_detail_107400::perl_matcher", ptr %matcher, i64 0, i32 4
  store ptr %last, ptr %last.i, align 8, !tbaa !109
  %position.i = getelementptr inbounds %"class.boost::re_detail_107400::perl_matcher", ptr %matcher, i64 0, i32 5
  store ptr %first, ptr %position.i, align 8, !tbaa !110
  %backstop.i = getelementptr inbounds %"class.boost::re_detail_107400::perl_matcher", ptr %matcher, i64 0, i32 8
  store ptr %first, ptr %backstop.i, align 8, !tbaa !111
  %re.i = getelementptr inbounds %"class.boost::re_detail_107400::perl_matcher", ptr %matcher, i64 0, i32 9
  store ptr %e, ptr %re.i, align 8, !tbaa !53
  %0 = load ptr, ptr %e, align 8, !tbaa !112
  %m_ptraits.i.i.i = getelementptr inbounds %"struct.boost::re_detail_107400::regex_data", ptr %0, i64 0, i32 1
  %1 = load ptr, ptr %m_ptraits.i.i.i, align 8, !tbaa !114
  %traits_inst.i = getelementptr inbounds %"class.boost::re_detail_107400::perl_matcher", ptr %matcher, i64 0, i32 10
  store ptr %1, ptr %traits_inst.i, align 8, !tbaa !53
  %m_independent.i = getelementptr inbounds %"class.boost::re_detail_107400::perl_matcher", ptr %matcher, i64 0, i32 19
  store i8 0, ptr %m_independent.i, align 1, !tbaa !116
  %next_count.i = getelementptr inbounds %"class.boost::re_detail_107400::perl_matcher", ptr %matcher, i64 0, i32 21
  %rep_obj.i = getelementptr inbounds %"class.boost::re_detail_107400::perl_matcher", ptr %matcher, i64 0, i32 22
  store ptr %rep_obj.i, ptr %next_count.i, align 8, !tbaa !117
  store ptr %next_count.i, ptr %rep_obj.i, align 8, !tbaa !118
  %next.i.i = getelementptr inbounds %"class.boost::re_detail_107400::perl_matcher", ptr %matcher, i64 0, i32 22, i32 1
  store ptr null, ptr %next.i.i, align 8, !tbaa !119
  %state_id.i.i = getelementptr inbounds %"class.boost::re_detail_107400::perl_matcher", ptr %matcher, i64 0, i32 22, i32 2
  store i32 -1, ptr %state_id.i.i, align 8, !tbaa !120
  %count.i.i = getelementptr inbounds %"class.boost::re_detail_107400::perl_matcher", ptr %matcher, i64 0, i32 22, i32 3
  call void @llvm.memset.p0.i64(ptr noundef nonnull align 8 dereferenceable(16) %count.i.i, i8 0, i64 16, i1 false)
  %recursion_stack.i = getelementptr inbounds %"class.boost::re_detail_107400::perl_matcher", ptr %matcher, i64 0, i32 26
  call void @llvm.memset.p0.i64(ptr noundef nonnull align 8 dereferenceable(24) %recursion_stack.i, i8 0, i64 24, i1 false)
  %m_recursions.i = getelementptr inbounds %"class.boost::re_detail_107400::perl_matcher", ptr %matcher, i64 0, i32 34
  store i32 0, ptr %m_recursions.i, align 8, !tbaa !121
  invoke void @_ZN5boost16re_detail_10740012perl_matcherIPKcSaINS_9sub_matchIS3_EEENS_12regex_traitsIcNS_16cpp_regex_traitsIcEEEEE14construct_initERKNS_11basic_regexIcSA_EENS_15regex_constants12_match_flagsE(ptr noundef nonnull align 8 dereferenceable(236) %matcher, ptr noundef nonnull align 8 dereferenceable(16) %e, i32 noundef %flags)
          to label %_ZN5boost16re_detail_10740012perl_matcherIPKcSaINS_9sub_matchIS3_EEENS_12regex_traitsIcNS_16cpp_regex_traitsIcEEEEEC2ES3_S3_RNS_13match_resultsIS3_S6_EERKNS_11basic_regexIcSA_EENS_15regex_constants12_match_flagsES3_.exit unwind label %lpad5.i

lpad5.i:                                          ; preds = %entry
  %2 = landingpad { ptr, i32 }
          cleanup
  call void @_ZNSt6vectorIN5boost16re_detail_10740014recursion_infoINS0_13match_resultsIPKcSaINS0_9sub_matchIS5_EEEEEEESaISA_EED2Ev(ptr noundef nonnull align 8 dereferenceable(24) %recursion_stack.i) #30
  %3 = load ptr, ptr %next.i.i, align 8, !tbaa !119
  %tobool.not.i.i = icmp eq ptr %3, null
  br i1 %tobool.not.i.i, label %ehcleanup.i, label %if.then.i.i

if.then.i.i:                                      ; preds = %lpad5.i
  %4 = load ptr, ptr %rep_obj.i, align 8, !tbaa !118
  store ptr %3, ptr %4, align 8, !tbaa !53
  br label %ehcleanup.i

common.resume:                                    ; preds = %lpad, %ehcleanup.i
  %common.resume.op = phi { ptr, i32 } [ %2, %ehcleanup.i ], [ %5, %lpad ]
  resume { ptr, i32 } %common.resume.op

ehcleanup.i:                                      ; preds = %if.then.i.i, %lpad5.i
  call void @_ZN5boost10scoped_ptrINS_13match_resultsIPKcSaINS_9sub_matchIS3_EEEEEED2Ev(ptr noundef nonnull align 8 dereferenceable(8) %m_temp_match.i) #30
  br label %common.resume

_ZN5boost16re_detail_10740012perl_matcherIPKcSaINS_9sub_matchIS3_EEENS_12regex_traitsIcNS_16cpp_regex_traitsIcEEEEEC2ES3_S3_RNS_13match_resultsIS3_S6_EERKNS_11basic_regexIcSA_EENS_15regex_constants12_match_flagsES3_.exit: ; preds = %entry
  %call.i3 = invoke noundef zeroext i1 @_ZN5boost16re_detail_10740012perl_matcherIPKcSaINS_9sub_matchIS3_EEENS_12regex_traitsIcNS_16cpp_regex_traitsIcEEEEE9match_impEv(ptr noundef nonnull align 8 dereferenceable(236) %matcher)
          to label %invoke.cont unwind label %lpad

invoke.cont:                                      ; preds = %_ZN5boost16re_detail_10740012perl_matcherIPKcSaINS_9sub_matchIS3_EEENS_12regex_traitsIcNS_16cpp_regex_traitsIcEEEEEC2ES3_S3_RNS_13match_resultsIS3_S6_EERKNS_11basic_regexIcSA_EENS_15regex_constants12_match_flagsES3_.exit
  call void @_ZN5boost16re_detail_10740012perl_matcherIPKcSaINS_9sub_matchIS3_EEENS_12regex_traitsIcNS_16cpp_regex_traitsIcEEEEED2Ev(ptr noundef nonnull align 8 dereferenceable(236) %matcher) #30
  call void @llvm.lifetime.end.p0(i64 240, ptr nonnull %matcher) #30
  ret i1 %call.i3

lpad:                                             ; preds = %_ZN5boost16re_detail_10740012perl_matcherIPKcSaINS_9sub_matchIS3_EEENS_12regex_traitsIcNS_16cpp_regex_traitsIcEEEEEC2ES3_S3_RNS_13match_resultsIS3_S6_EERKNS_11basic_regexIcSA_EENS_15regex_constants12_match_flagsES3_.exit
  %5 = landingpad { ptr, i32 }
          cleanup
  call void @_ZN5boost16re_detail_10740012perl_matcherIPKcSaINS_9sub_matchIS3_EEENS_12regex_traitsIcNS_16cpp_regex_traitsIcEEEEED2Ev(ptr noundef nonnull align 8 dereferenceable(236) %matcher) #30
  call void @llvm.lifetime.end.p0(i64 240, ptr nonnull %matcher) #30
  br label %common.resume
}

; Function Attrs: mustprogress nounwind uwtable
define linkonce_odr void @_ZN5boost13match_resultsIPKcSaINS_9sub_matchIS2_EEEED2Ev(ptr noundef nonnull align 8 dereferenceable(77) %this) unnamed_addr #1 comdat align 2 personality ptr @__gxx_personality_v0 {
entry:
  %pn.i = getelementptr inbounds %"class.boost::match_results", ptr %this, i64 0, i32 3, i32 1
  %0 = load ptr, ptr %pn.i, align 8, !tbaa !97
  %cmp.not.i.i = icmp eq ptr %0, null
  br i1 %cmp.not.i.i, label %_ZN5boost10shared_ptrINS_16re_detail_10740020named_subexpressionsEED2Ev.exit, label %if.then.i.i

if.then.i.i:                                      ; preds = %entry
  %use_count_.i.i.i = getelementptr inbounds %"class.boost::detail::sp_counted_base", ptr %0, i64 0, i32 1
  %1 = atomicrmw sub ptr %use_count_.i.i.i, i32 1 acq_rel, align 4
  %cmp.i.i.i = icmp eq i32 %1, 1
  br i1 %cmp.i.i.i, label %if.then.i.i.i, label %_ZN5boost10shared_ptrINS_16re_detail_10740020named_subexpressionsEED2Ev.exit

if.then.i.i.i:                                    ; preds = %if.then.i.i
  %vtable.i.i.i = load ptr, ptr %0, align 8, !tbaa !7
  %vfn.i.i.i = getelementptr inbounds ptr, ptr %vtable.i.i.i, i64 2
  %2 = load ptr, ptr %vfn.i.i.i, align 8
  invoke void %2(ptr noundef nonnull align 8 dereferenceable(16) %0)
          to label %.noexc.i.i unwind label %terminate.lpad.i.i

.noexc.i.i:                                       ; preds = %if.then.i.i.i
  %weak_count_.i.i.i.i = getelementptr inbounds %"class.boost::detail::sp_counted_base", ptr %0, i64 0, i32 2
  %3 = atomicrmw sub ptr %weak_count_.i.i.i.i, i32 1 acq_rel, align 4
  %cmp.i.i.i.i = icmp eq i32 %3, 1
  br i1 %cmp.i.i.i.i, label %if.then.i.i.i.i, label %_ZN5boost10shared_ptrINS_16re_detail_10740020named_subexpressionsEED2Ev.exit

if.then.i.i.i.i:                                  ; preds = %.noexc.i.i
  %vtable.i.i.i.i = load ptr, ptr %0, align 8, !tbaa !7
  %vfn.i.i.i.i = getelementptr inbounds ptr, ptr %vtable.i.i.i.i, i64 3
  %4 = load ptr, ptr %vfn.i.i.i.i, align 8
  invoke void %4(ptr noundef nonnull align 8 dereferenceable(16) %0)
          to label %_ZN5boost10shared_ptrINS_16re_detail_10740020named_subexpressionsEED2Ev.exit unwind label %terminate.lpad.i.i

terminate.lpad.i.i:                               ; preds = %if.then.i.i.i.i, %if.then.i.i.i
  %5 = landingpad { ptr, i32 }
          catch ptr null
  %6 = extractvalue { ptr, i32 } %5, 0
  tail call void @__clang_call_terminate(ptr %6) #32
  unreachable

_ZN5boost10shared_ptrINS_16re_detail_10740020named_subexpressionsEED2Ev.exit: ; preds = %if.then.i.i.i.i, %.noexc.i.i, %if.then.i.i, %entry
  %7 = load ptr, ptr %this, align 8, !tbaa !98
  %tobool.not.i.i.i = icmp eq ptr %7, null
  br i1 %tobool.not.i.i.i, label %_ZNSt6vectorIN5boost9sub_matchIPKcEESaIS4_EED2Ev.exit, label %if.then.i.i.i2

if.then.i.i.i2:                                   ; preds = %_ZN5boost10shared_ptrINS_16re_detail_10740020named_subexpressionsEED2Ev.exit
  tail call void @_ZdlPv(ptr noundef nonnull %7) #33
  br label %_ZNSt6vectorIN5boost9sub_matchIPKcEESaIS4_EED2Ev.exit

_ZNSt6vectorIN5boost9sub_matchIPKcEESaIS4_EED2Ev.exit: ; preds = %if.then.i.i.i2, %_ZN5boost10shared_ptrINS_16re_detail_10740020named_subexpressionsEED2Ev.exit
  ret void
}

; Function Attrs: inlinehint mustprogress nounwind uwtable
define linkonce_odr void @_ZN5boost16re_detail_10740012perl_matcherIPKcSaINS_9sub_matchIS3_EEENS_12regex_traitsIcNS_16cpp_regex_traitsIcEEEEED2Ev(ptr noundef nonnull align 8 dereferenceable(236) %this) unnamed_addr #0 comdat align 2 personality ptr @__gxx_personality_v0 {
entry:
  %recursion_stack = getelementptr inbounds %"class.boost::re_detail_107400::perl_matcher", ptr %this, i64 0, i32 26
  %0 = load ptr, ptr %recursion_stack, align 8, !tbaa !122
  %_M_finish.i = getelementptr inbounds %"class.boost::re_detail_107400::perl_matcher", ptr %this, i64 0, i32 26, i32 0, i32 0, i32 0, i32 1
  %1 = load ptr, ptr %_M_finish.i, align 8, !tbaa !123
  %cmp.not3.i.i.i.i = icmp eq ptr %0, %1
  br i1 %cmp.not3.i.i.i.i, label %invoke.cont.i, label %for.body.i.i.i.i

for.body.i.i.i.i:                                 ; preds = %entry, %_ZSt8_DestroyIN5boost16re_detail_10740014recursion_infoINS0_13match_resultsIPKcSaINS0_9sub_matchIS5_EEEEEEEEvPT_.exit.i.i.i.i
  %__first.addr.04.i.i.i.i = phi ptr [ %incdec.ptr.i.i.i.i, %_ZSt8_DestroyIN5boost16re_detail_10740014recursion_infoINS0_13match_resultsIPKcSaINS0_9sub_matchIS5_EEEEEEEEvPT_.exit.i.i.i.i ], [ %0, %entry ]
  %results.i.i.i.i.i.i = getelementptr inbounds %"struct.boost::re_detail_107400::recursion_info", ptr %__first.addr.04.i.i.i.i, i64 0, i32 2
  %pn.i.i.i.i.i.i.i.i = getelementptr inbounds %"struct.boost::re_detail_107400::recursion_info", ptr %__first.addr.04.i.i.i.i, i64 0, i32 2, i32 3, i32 1
  %2 = load ptr, ptr %pn.i.i.i.i.i.i.i.i, align 8, !tbaa !97
  %cmp.not.i.i.i.i.i.i.i.i.i = icmp eq ptr %2, null
  br i1 %cmp.not.i.i.i.i.i.i.i.i.i, label %_ZN5boost10shared_ptrINS_16re_detail_10740020named_subexpressionsEED2Ev.exit.i.i.i.i.i.i.i, label %if.then.i.i.i.i.i.i.i.i.i

if.then.i.i.i.i.i.i.i.i.i:                        ; preds = %for.body.i.i.i.i
  %use_count_.i.i.i.i.i.i.i.i.i.i = getelementptr inbounds %"class.boost::detail::sp_counted_base", ptr %2, i64 0, i32 1
  %3 = atomicrmw sub ptr %use_count_.i.i.i.i.i.i.i.i.i.i, i32 1 acq_rel, align 4
  %cmp.i.i.i.i.i.i.i.i.i.i = icmp eq i32 %3, 1
  br i1 %cmp.i.i.i.i.i.i.i.i.i.i, label %if.then.i.i.i.i.i.i.i.i.i.i, label %_ZN5boost10shared_ptrINS_16re_detail_10740020named_subexpressionsEED2Ev.exit.i.i.i.i.i.i.i

if.then.i.i.i.i.i.i.i.i.i.i:                      ; preds = %if.then.i.i.i.i.i.i.i.i.i
  %vtable.i.i.i.i.i.i.i.i.i.i = load ptr, ptr %2, align 8, !tbaa !7
  %vfn.i.i.i.i.i.i.i.i.i.i = getelementptr inbounds ptr, ptr %vtable.i.i.i.i.i.i.i.i.i.i, i64 2
  %4 = load ptr, ptr %vfn.i.i.i.i.i.i.i.i.i.i, align 8
  invoke void %4(ptr noundef nonnull align 8 dereferenceable(16) %2)
          to label %.noexc.i.i.i.i.i.i.i.i.i unwind label %terminate.lpad.i.i.i.i.i.i.i.i.i

.noexc.i.i.i.i.i.i.i.i.i:                         ; preds = %if.then.i.i.i.i.i.i.i.i.i.i
  %weak_count_.i.i.i.i.i.i.i.i.i.i.i = getelementptr inbounds %"class.boost::detail::sp_counted_base", ptr %2, i64 0, i32 2
  %5 = atomicrmw sub ptr %weak_count_.i.i.i.i.i.i.i.i.i.i.i, i32 1 acq_rel, align 4
  %cmp.i.i.i.i.i.i.i.i.i.i.i = icmp eq i32 %5, 1
  br i1 %cmp.i.i.i.i.i.i.i.i.i.i.i, label %if.then.i.i.i.i.i.i.i.i.i.i.i, label %_ZN5boost10shared_ptrINS_16re_detail_10740020named_subexpressionsEED2Ev.exit.i.i.i.i.i.i.i

if.then.i.i.i.i.i.i.i.i.i.i.i:                    ; preds = %.noexc.i.i.i.i.i.i.i.i.i
  %vtable.i.i.i.i.i.i.i.i.i.i.i = load ptr, ptr %2, align 8, !tbaa !7
  %vfn.i.i.i.i.i.i.i.i.i.i.i = getelementptr inbounds ptr, ptr %vtable.i.i.i.i.i.i.i.i.i.i.i, i64 3
  %6 = load ptr, ptr %vfn.i.i.i.i.i.i.i.i.i.i.i, align 8
  invoke void %6(ptr noundef nonnull align 8 dereferenceable(16) %2)
          to label %_ZN5boost10shared_ptrINS_16re_detail_10740020named_subexpressionsEED2Ev.exit.i.i.i.i.i.i.i unwind label %terminate.lpad.i.i.i.i.i.i.i.i.i

terminate.lpad.i.i.i.i.i.i.i.i.i:                 ; preds = %if.then.i.i.i.i.i.i.i.i.i.i.i, %if.then.i.i.i.i.i.i.i.i.i.i
  %7 = landingpad { ptr, i32 }
          catch ptr null
  %8 = extractvalue { ptr, i32 } %7, 0
  tail call void @__clang_call_terminate(ptr %8) #32
  unreachable

_ZN5boost10shared_ptrINS_16re_detail_10740020named_subexpressionsEED2Ev.exit.i.i.i.i.i.i.i: ; preds = %if.then.i.i.i.i.i.i.i.i.i.i.i, %.noexc.i.i.i.i.i.i.i.i.i, %if.then.i.i.i.i.i.i.i.i.i, %for.body.i.i.i.i
  %9 = load ptr, ptr %results.i.i.i.i.i.i, align 8, !tbaa !98
  %tobool.not.i.i.i.i.i.i.i.i.i.i = icmp eq ptr %9, null
  br i1 %tobool.not.i.i.i.i.i.i.i.i.i.i, label %_ZSt8_DestroyIN5boost16re_detail_10740014recursion_infoINS0_13match_resultsIPKcSaINS0_9sub_matchIS5_EEEEEEEEvPT_.exit.i.i.i.i, label %if.then.i.i.i2.i.i.i.i.i.i.i

if.then.i.i.i2.i.i.i.i.i.i.i:                     ; preds = %_ZN5boost10shared_ptrINS_16re_detail_10740020named_subexpressionsEED2Ev.exit.i.i.i.i.i.i.i
  tail call void @_ZdlPv(ptr noundef nonnull %9) #33
  br label %_ZSt8_DestroyIN5boost16re_detail_10740014recursion_infoINS0_13match_resultsIPKcSaINS0_9sub_matchIS5_EEEEEEEEvPT_.exit.i.i.i.i

_ZSt8_DestroyIN5boost16re_detail_10740014recursion_infoINS0_13match_resultsIPKcSaINS0_9sub_matchIS5_EEEEEEEEvPT_.exit.i.i.i.i: ; preds = %if.then.i.i.i2.i.i.i.i.i.i.i, %_ZN5boost10shared_ptrINS_16re_detail_10740020named_subexpressionsEED2Ev.exit.i.i.i.i.i.i.i
  %incdec.ptr.i.i.i.i = getelementptr inbounds %"struct.boost::re_detail_107400::recursion_info", ptr %__first.addr.04.i.i.i.i, i64 1
  %cmp.not.i.i.i.i = icmp eq ptr %incdec.ptr.i.i.i.i, %1
  br i1 %cmp.not.i.i.i.i, label %invoke.contthread-pre-split.i, label %for.body.i.i.i.i, !llvm.loop !124

invoke.contthread-pre-split.i:                    ; preds = %_ZSt8_DestroyIN5boost16re_detail_10740014recursion_infoINS0_13match_resultsIPKcSaINS0_9sub_matchIS5_EEEEEEEEvPT_.exit.i.i.i.i
  %.pr.i = load ptr, ptr %recursion_stack, align 8, !tbaa !122
  br label %invoke.cont.i

invoke.cont.i:                                    ; preds = %invoke.contthread-pre-split.i, %entry
  %10 = phi ptr [ %.pr.i, %invoke.contthread-pre-split.i ], [ %0, %entry ]
  %tobool.not.i.i.i = icmp eq ptr %10, null
  br i1 %tobool.not.i.i.i, label %_ZNSt6vectorIN5boost16re_detail_10740014recursion_infoINS0_13match_resultsIPKcSaINS0_9sub_matchIS5_EEEEEEESaISA_EED2Ev.exit, label %if.then.i.i.i

if.then.i.i.i:                                    ; preds = %invoke.cont.i
  tail call void @_ZdlPv(ptr noundef nonnull %10) #33
  br label %_ZNSt6vectorIN5boost16re_detail_10740014recursion_infoINS0_13match_resultsIPKcSaINS0_9sub_matchIS5_EEEEEEESaISA_EED2Ev.exit

_ZNSt6vectorIN5boost16re_detail_10740014recursion_infoINS0_13match_resultsIPKcSaINS0_9sub_matchIS5_EEEEEEESaISA_EED2Ev.exit: ; preds = %if.then.i.i.i, %invoke.cont.i
  %next.i = getelementptr inbounds %"class.boost::re_detail_107400::perl_matcher", ptr %this, i64 0, i32 22, i32 1
  %11 = load ptr, ptr %next.i, align 8, !tbaa !119
  %tobool.not.i = icmp eq ptr %11, null
  br i1 %tobool.not.i, label %_ZN5boost16re_detail_10740014repeater_countIPKcED2Ev.exit, label %if.then.i

if.then.i:                                        ; preds = %_ZNSt6vectorIN5boost16re_detail_10740014recursion_infoINS0_13match_resultsIPKcSaINS0_9sub_matchIS5_EEEEEEESaISA_EED2Ev.exit
  %rep_obj = getelementptr inbounds %"class.boost::re_detail_107400::perl_matcher", ptr %this, i64 0, i32 22
  %12 = load ptr, ptr %rep_obj, align 8, !tbaa !118
  store ptr %11, ptr %12, align 8, !tbaa !53
  br label %_ZN5boost16re_detail_10740014repeater_countIPKcED2Ev.exit

_ZN5boost16re_detail_10740014repeater_countIPKcED2Ev.exit: ; preds = %if.then.i, %_ZNSt6vectorIN5boost16re_detail_10740014recursion_infoINS0_13match_resultsIPKcSaINS0_9sub_matchIS5_EEEEEEESaISA_EED2Ev.exit
  %m_temp_match = getelementptr inbounds %"class.boost::re_detail_107400::perl_matcher", ptr %this, i64 0, i32 1
  %13 = load ptr, ptr %m_temp_match, align 8, !tbaa !99
  %isnull.i.i = icmp eq ptr %13, null
  br i1 %isnull.i.i, label %_ZN5boost10scoped_ptrINS_13match_resultsIPKcSaINS_9sub_matchIS3_EEEEEED2Ev.exit, label %delete.notnull.i.i

delete.notnull.i.i:                               ; preds = %_ZN5boost16re_detail_10740014repeater_countIPKcED2Ev.exit
  %pn.i.i.i.i = getelementptr inbounds %"class.boost::match_results", ptr %13, i64 0, i32 3, i32 1
  %14 = load ptr, ptr %pn.i.i.i.i, align 8, !tbaa !97
  %cmp.not.i.i.i.i.i = icmp eq ptr %14, null
  br i1 %cmp.not.i.i.i.i.i, label %_ZN5boost10shared_ptrINS_16re_detail_10740020named_subexpressionsEED2Ev.exit.i.i.i, label %if.then.i.i.i.i.i

if.then.i.i.i.i.i:                                ; preds = %delete.notnull.i.i
  %use_count_.i.i.i.i.i.i = getelementptr inbounds %"class.boost::detail::sp_counted_base", ptr %14, i64 0, i32 1
  %15 = atomicrmw sub ptr %use_count_.i.i.i.i.i.i, i32 1 acq_rel, align 4
  %cmp.i.i.i.i.i.i = icmp eq i32 %15, 1
  br i1 %cmp.i.i.i.i.i.i, label %if.then.i.i.i.i.i.i, label %_ZN5boost10shared_ptrINS_16re_detail_10740020named_subexpressionsEED2Ev.exit.i.i.i

if.then.i.i.i.i.i.i:                              ; preds = %if.then.i.i.i.i.i
  %vtable.i.i.i.i.i.i = load ptr, ptr %14, align 8, !tbaa !7
  %vfn.i.i.i.i.i.i = getelementptr inbounds ptr, ptr %vtable.i.i.i.i.i.i, i64 2
  %16 = load ptr, ptr %vfn.i.i.i.i.i.i, align 8
  invoke void %16(ptr noundef nonnull align 8 dereferenceable(16) %14)
          to label %.noexc.i.i.i.i.i unwind label %terminate.lpad.i.i.i.i.i

.noexc.i.i.i.i.i:                                 ; preds = %if.then.i.i.i.i.i.i
  %weak_count_.i.i.i.i.i.i.i = getelementptr inbounds %"class.boost::detail::sp_counted_base", ptr %14, i64 0, i32 2
  %17 = atomicrmw sub ptr %weak_count_.i.i.i.i.i.i.i, i32 1 acq_rel, align 4
  %cmp.i.i.i.i.i.i.i = icmp eq i32 %17, 1
  br i1 %cmp.i.i.i.i.i.i.i, label %if.then.i.i.i.i.i.i.i, label %_ZN5boost10shared_ptrINS_16re_detail_10740020named_subexpressionsEED2Ev.exit.i.i.i

if.then.i.i.i.i.i.i.i:                            ; preds = %.noexc.i.i.i.i.i
  %vtable.i.i.i.i.i.i.i = load ptr, ptr %14, align 8, !tbaa !7
  %vfn.i.i.i.i.i.i.i = getelementptr inbounds ptr, ptr %vtable.i.i.i.i.i.i.i, i64 3
  %18 = load ptr, ptr %vfn.i.i.i.i.i.i.i, align 8
  invoke void %18(ptr noundef nonnull align 8 dereferenceable(16) %14)
          to label %_ZN5boost10shared_ptrINS_16re_detail_10740020named_subexpressionsEED2Ev.exit.i.i.i unwind label %terminate.lpad.i.i.i.i.i

terminate.lpad.i.i.i.i.i:                         ; preds = %if.then.i.i.i.i.i.i.i, %if.then.i.i.i.i.i.i
  %19 = landingpad { ptr, i32 }
          catch ptr null
  %20 = extractvalue { ptr, i32 } %19, 0
  tail call void @__clang_call_terminate(ptr %20) #32
  unreachable

_ZN5boost10shared_ptrINS_16re_detail_10740020named_subexpressionsEED2Ev.exit.i.i.i: ; preds = %if.then.i.i.i.i.i.i.i, %.noexc.i.i.i.i.i, %if.then.i.i.i.i.i, %delete.notnull.i.i
  %21 = load ptr, ptr %13, align 8, !tbaa !98
  %tobool.not.i.i.i.i.i.i = icmp eq ptr %21, null
  br i1 %tobool.not.i.i.i.i.i.i, label %_ZN5boost13match_resultsIPKcSaINS_9sub_matchIS2_EEEED2Ev.exit.i.i, label %if.then.i.i.i2.i.i.i

if.then.i.i.i2.i.i.i:                             ; preds = %_ZN5boost10shared_ptrINS_16re_detail_10740020named_subexpressionsEED2Ev.exit.i.i.i
  tail call void @_ZdlPv(ptr noundef nonnull %21) #33
  br label %_ZN5boost13match_resultsIPKcSaINS_9sub_matchIS2_EEEED2Ev.exit.i.i

_ZN5boost13match_resultsIPKcSaINS_9sub_matchIS2_EEEED2Ev.exit.i.i: ; preds = %if.then.i.i.i2.i.i.i, %_ZN5boost10shared_ptrINS_16re_detail_10740020named_subexpressionsEED2Ev.exit.i.i.i
  tail call void @_ZdlPv(ptr noundef nonnull %13) #33
  br label %_ZN5boost10scoped_ptrINS_13match_resultsIPKcSaINS_9sub_matchIS3_EEEEEED2Ev.exit

_ZN5boost10scoped_ptrINS_13match_resultsIPKcSaINS_9sub_matchIS3_EEEEEED2Ev.exit: ; preds = %_ZN5boost13match_resultsIPKcSaINS_9sub_matchIS2_EEEED2Ev.exit.i.i, %_ZN5boost16re_detail_10740014repeater_countIPKcED2Ev.exit
  ret void
}

; Function Attrs: mustprogress uwtable
define linkonce_odr void @_ZN5boost16re_detail_10740012perl_matcherIPKcSaINS_9sub_matchIS3_EEENS_12regex_traitsIcNS_16cpp_regex_traitsIcEEEEE14construct_initERKNS_11basic_regexIcSA_EENS_15regex_constants12_match_flagsE(ptr noundef nonnull align 8 dereferenceable(236) %this, ptr noundef nonnull align 8 dereferenceable(16) %e, i32 noundef %f) local_unnamed_addr #5 comdat align 2 personality ptr @__gxx_personality_v0 {
entry:
  %ex = alloca %"class.std::invalid_argument", align 8
  %0 = load ptr, ptr %e, align 8, !tbaa !112
  %tobool.not.i = icmp eq ptr %0, null
  br i1 %tobool.not.i, label %if.then, label %_ZNK5boost11basic_regexIcNS_12regex_traitsIcNS_16cpp_regex_traitsIcEEEEE5emptyEv.exit

_ZNK5boost11basic_regexIcNS_12regex_traitsIcNS_16cpp_regex_traitsIcEEEEE5emptyEv.exit: ; preds = %entry
  %m_status.i.i = getelementptr inbounds %"struct.boost::re_detail_107400::regex_data", ptr %0, i64 0, i32 3
  %1 = load i32, ptr %m_status.i.i, align 4, !tbaa !125
  %cmp.i.not = icmp eq i32 %1, 0
  br i1 %cmp.i.not, label %if.end, label %if.then

if.then:                                          ; preds = %_ZNK5boost11basic_regexIcNS_12regex_traitsIcNS_16cpp_regex_traitsIcEEEEE5emptyEv.exit, %entry
  call void @llvm.lifetime.start.p0(i64 16, ptr nonnull %ex) #30
  call void @_ZNSt16invalid_argumentC1EPKc(ptr noundef nonnull align 8 dereferenceable(16) %ex, ptr noundef nonnull @.str.19)
  invoke void @_ZN5boost15throw_exceptionISt16invalid_argumentEEvRKT_(ptr noundef nonnull align 8 dereferenceable(16) %ex) #31
          to label %invoke.cont unwind label %lpad

invoke.cont:                                      ; preds = %if.then
  unreachable

lpad:                                             ; preds = %if.then
  %2 = landingpad { ptr, i32 }
          cleanup
  call void @_ZNSt16invalid_argumentD1Ev(ptr noundef nonnull align 8 dereferenceable(16) %ex) #30
  call void @llvm.lifetime.end.p0(i64 16, ptr nonnull %ex) #30
  resume { ptr, i32 } %2

if.end:                                           ; preds = %_ZNK5boost11basic_regexIcNS_12regex_traitsIcNS_16cpp_regex_traitsIcEEEEE5emptyEv.exit
  %pstate = getelementptr inbounds %"class.boost::re_detail_107400::perl_matcher", ptr %this, i64 0, i32 11
  store ptr null, ptr %pstate, align 8, !tbaa !137
  %m_match_flags = getelementptr inbounds %"class.boost::re_detail_107400::perl_matcher", ptr %this, i64 0, i32 12
  store i32 %f, ptr %m_match_flags, align 8, !tbaa !138
  %base.i = getelementptr inbounds %"class.boost::re_detail_107400::perl_matcher", ptr %this, i64 0, i32 3
  %3 = load ptr, ptr %base.i, align 8, !tbaa !101
  %last.i = getelementptr inbounds %"class.boost::re_detail_107400::perl_matcher", ptr %this, i64 0, i32 4
  %4 = load ptr, ptr %last.i, align 8, !tbaa !109
  %sub.ptr.lhs.cast.i.i.i = ptrtoint ptr %4 to i64
  %sub.ptr.rhs.cast.i.i.i = ptrtoint ptr %3 to i64
  %sub.ptr.sub.i.i.i = sub i64 %sub.ptr.lhs.cast.i.i.i, %sub.ptr.rhs.cast.i.i.i
  %spec.store.select.i = tail call i64 @llvm.umax.i64(i64 %sub.ptr.sub.i.i.i, i64 1)
  %re.i = getelementptr inbounds %"class.boost::re_detail_107400::perl_matcher", ptr %this, i64 0, i32 9
  %5 = load ptr, ptr %re.i, align 8, !tbaa !139
  %6 = load ptr, ptr %5, align 8, !tbaa !112
  %tobool.not.i.i = icmp eq ptr %6, null
  br i1 %tobool.not.i.i, label %_ZNK5boost11basic_regexIcNS_12regex_traitsIcNS_16cpp_regex_traitsIcEEEEE4sizeEv.exit.i, label %cond.true.i.i

cond.true.i.i:                                    ; preds = %if.end
  %m_expression_len.i.i.i = getelementptr inbounds %"struct.boost::re_detail_107400::regex_data", ptr %6, i64 0, i32 5
  %7 = load i64, ptr %m_expression_len.i.i.i, align 8, !tbaa !140
  br label %_ZNK5boost11basic_regexIcNS_12regex_traitsIcNS_16cpp_regex_traitsIcEEEEE4sizeEv.exit.i

_ZNK5boost11basic_regexIcNS_12regex_traitsIcNS_16cpp_regex_traitsIcEEEEE4sizeEv.exit.i: ; preds = %cond.true.i.i, %if.end
  %cond.i.i = phi i64 [ %7, %cond.true.i.i ], [ 0, %if.end ]
  %spec.store.select71.i = tail call i64 @llvm.umax.i64(i64 %cond.i.i, i64 1)
  %div.i = sdiv i64 9223372036854775807, %spec.store.select71.i
  %cmp7.i = icmp slt i64 %div.i, %spec.store.select71.i
  br i1 %cmp7.i, label %if.then8.i, label %if.end12.i

if.then8.i:                                       ; preds = %_ZNK5boost11basic_regexIcNS_12regex_traitsIcNS_16cpp_regex_traitsIcEEEEE4sizeEv.exit.i
  %max_state_count.i = getelementptr inbounds %"class.boost::re_detail_107400::perl_matcher", ptr %this, i64 0, i32 15
  store i64 100000000, ptr %max_state_count.i, align 8, !tbaa !141
  br label %_ZN5boost16re_detail_10740012perl_matcherIPKcSaINS_9sub_matchIS3_EEENS_12regex_traitsIcNS_16cpp_regex_traitsIcEEEEE24estimate_max_state_countEPSt26random_access_iterator_tag.exit

if.end12.i:                                       ; preds = %_ZNK5boost11basic_regexIcNS_12regex_traitsIcNS_16cpp_regex_traitsIcEEEEE4sizeEv.exit.i
  %mul.i = mul nsw i64 %spec.store.select71.i, %spec.store.select71.i
  %div14.i = sdiv i64 9223372036854775807, %spec.store.select.i
  %cmp15.i = icmp slt i64 %div14.i, %mul.i
  br i1 %cmp15.i, label %if.then16.i, label %if.end23.i

if.then16.i:                                      ; preds = %if.end12.i
  %max_state_count22.i = getelementptr inbounds %"class.boost::re_detail_107400::perl_matcher", ptr %this, i64 0, i32 15
  store i64 100000000, ptr %max_state_count22.i, align 8, !tbaa !141
  br label %_ZN5boost16re_detail_10740012perl_matcherIPKcSaINS_9sub_matchIS3_EEENS_12regex_traitsIcNS_16cpp_regex_traitsIcEEEEE24estimate_max_state_countEPSt26random_access_iterator_tag.exit

if.end23.i:                                       ; preds = %if.end12.i
  %mul24.i = mul nsw i64 %mul.i, %spec.store.select.i
  %cmp27.i = icmp sgt i64 %mul24.i, 9223372036854675807
  br i1 %cmp27.i, label %if.then28.i, label %if.end35.i

if.then28.i:                                      ; preds = %if.end23.i
  %max_state_count34.i = getelementptr inbounds %"class.boost::re_detail_107400::perl_matcher", ptr %this, i64 0, i32 15
  store i64 100000000, ptr %max_state_count34.i, align 8, !tbaa !141
  br label %_ZN5boost16re_detail_10740012perl_matcherIPKcSaINS_9sub_matchIS3_EEENS_12regex_traitsIcNS_16cpp_regex_traitsIcEEEEE24estimate_max_state_countEPSt26random_access_iterator_tag.exit

if.end35.i:                                       ; preds = %if.end23.i
  %add.i = add nsw i64 %mul24.i, 100000
  %max_state_count36.i = getelementptr inbounds %"class.boost::re_detail_107400::perl_matcher", ptr %this, i64 0, i32 15
  store i64 %add.i, ptr %max_state_count36.i, align 8, !tbaa !141
  %cmp39.i = icmp slt i64 %div14.i, %spec.store.select.i
  br i1 %cmp39.i, label %if.then40.i, label %if.end47.i

if.then40.i:                                      ; preds = %if.end35.i
  store i64 100000000, ptr %max_state_count36.i, align 8, !tbaa !141
  br label %_ZN5boost16re_detail_10740012perl_matcherIPKcSaINS_9sub_matchIS3_EEENS_12regex_traitsIcNS_16cpp_regex_traitsIcEEEEE24estimate_max_state_countEPSt26random_access_iterator_tag.exit

if.end47.i:                                       ; preds = %if.end35.i
  %mul48.i = mul nsw i64 %spec.store.select.i, %spec.store.select.i
  %cmp51.i = icmp ugt i64 %mul48.i, 9223372036854675807
  br i1 %cmp51.i, label %if.then52.i, label %if.end59.i

if.then52.i:                                      ; preds = %if.end47.i
  store i64 100000000, ptr %max_state_count36.i, align 8, !tbaa !141
  br label %_ZN5boost16re_detail_10740012perl_matcherIPKcSaINS_9sub_matchIS3_EEENS_12regex_traitsIcNS_16cpp_regex_traitsIcEEEEE24estimate_max_state_countEPSt26random_access_iterator_tag.exit

if.end59.i:                                       ; preds = %if.end47.i
  %8 = tail call i64 @llvm.umin.i64(i64 %mul48.i, i64 99900000)
  %cmp65.i = icmp sgt i64 %8, %mul24.i
  br i1 %cmp65.i, label %if.then66.i, label %_ZN5boost16re_detail_10740012perl_matcherIPKcSaINS_9sub_matchIS3_EEENS_12regex_traitsIcNS_16cpp_regex_traitsIcEEEEE24estimate_max_state_countEPSt26random_access_iterator_tag.exit

if.then66.i:                                      ; preds = %if.end59.i
  %spec.store.select70.i = add nuw nsw i64 %8, 100000
  store i64 %spec.store.select70.i, ptr %max_state_count36.i, align 8, !tbaa !141
  br label %_ZN5boost16re_detail_10740012perl_matcherIPKcSaINS_9sub_matchIS3_EEENS_12regex_traitsIcNS_16cpp_regex_traitsIcEEEEE24estimate_max_state_countEPSt26random_access_iterator_tag.exit

_ZN5boost16re_detail_10740012perl_matcherIPKcSaINS_9sub_matchIS3_EEENS_12regex_traitsIcNS_16cpp_regex_traitsIcEEEEE24estimate_max_state_countEPSt26random_access_iterator_tag.exit: ; preds = %if.then66.i, %if.end59.i, %if.then52.i, %if.then40.i, %if.then28.i, %if.then16.i, %if.then8.i
  br i1 %tobool.not.i.i, label %_ZNK5boost11basic_regexIcNS_12regex_traitsIcNS_16cpp_regex_traitsIcEEEEE5flagsEv.exit, label %cond.true.i61

cond.true.i61:                                    ; preds = %_ZN5boost16re_detail_10740012perl_matcherIPKcSaINS_9sub_matchIS3_EEENS_12regex_traitsIcNS_16cpp_regex_traitsIcEEEEE24estimate_max_state_countEPSt26random_access_iterator_tag.exit
  %m_flags.i.i = getelementptr inbounds %"struct.boost::re_detail_107400::regex_data", ptr %6, i64 0, i32 2
  %9 = load i32, ptr %m_flags.i.i, align 8, !tbaa !142
  br label %_ZNK5boost11basic_regexIcNS_12regex_traitsIcNS_16cpp_regex_traitsIcEEEEE5flagsEv.exit

_ZNK5boost11basic_regexIcNS_12regex_traitsIcNS_16cpp_regex_traitsIcEEEEE5flagsEv.exit: ; preds = %cond.true.i61, %_ZN5boost16re_detail_10740012perl_matcherIPKcSaINS_9sub_matchIS3_EEENS_12regex_traitsIcNS_16cpp_regex_traitsIcEEEEE24estimate_max_state_countEPSt26random_access_iterator_tag.exit
  %cond.i62 = phi i32 [ %9, %cond.true.i61 ], [ 0, %_ZN5boost16re_detail_10740012perl_matcherIPKcSaINS_9sub_matchIS3_EEENS_12regex_traitsIcNS_16cpp_regex_traitsIcEEEEE24estimate_max_state_countEPSt26random_access_iterator_tag.exit ]
  %icase = getelementptr inbounds %"class.boost::re_detail_107400::perl_matcher", ptr %this, i64 0, i32 16
  %and = lshr i32 %cond.i62, 20
  %10 = trunc i32 %and to i8
  %frombool = and i8 %10, 1
  store i8 %frombool, ptr %icase, align 8, !tbaa !143
  %and.i = and i32 %f, 196608
  %tobool6.not = icmp eq i32 %and.i, 0
  br i1 %tobool6.not, label %if.then7, label %if.end29

if.then7:                                         ; preds = %_ZNK5boost11basic_regexIcNS_12regex_traitsIcNS_16cpp_regex_traitsIcEEEEE5flagsEv.exit
  %and8 = and i32 %cond.i62, 515
  %cmp = icmp eq i32 %and8, 0
  %and12 = and i32 %cond.i62, 4099
  %cmp13 = icmp eq i32 %and12, 4097
  %or.cond = or i1 %cmp, %cmp13
  %and18 = and i32 %cond.i62, 3
  %cmp19 = icmp eq i32 %and18, 2
  %11 = select i1 %or.cond, i1 true, i1 %cmp19
  %.sink75 = select i1 %11, i32 65536, i32 131072
  %or.i.i63 = or disjoint i32 %.sink75, %f
  store i32 %or.i.i63, ptr %m_match_flags, align 8, !tbaa !144
  br label %if.end29

if.end29:                                         ; preds = %if.then7, %_ZNK5boost11basic_regexIcNS_12regex_traitsIcNS_16cpp_regex_traitsIcEEEEE5flagsEv.exit
  %12 = phi i32 [ %f, %_ZNK5boost11basic_regexIcNS_12regex_traitsIcNS_16cpp_regex_traitsIcEEEEE5flagsEv.exit ], [ %or.i.i63, %if.then7 ]
  %and.i66 = and i32 %12, 131072
  %tobool32.not = icmp eq i32 %and.i66, 0
  br i1 %tobool32.not, label %if.else39, label %invoke.cont36

invoke.cont36:                                    ; preds = %if.end29
  %call34 = tail call noalias noundef nonnull dereferenceable(80) ptr @_Znwm(i64 noundef 80) #36
  %m_named_subs.i = getelementptr inbounds %"class.boost::match_results", ptr %call34, i64 0, i32 3
  %m_is_singular.i = getelementptr inbounds %"class.boost::match_results", ptr %call34, i64 0, i32 5
  tail call void @llvm.memset.p0.i64(ptr noundef nonnull align 8 dereferenceable(49) %call34, i8 0, i64 49, i1 false)
  tail call void @llvm.memset.p0.i64(ptr noundef nonnull align 8 dereferenceable(20) %m_named_subs.i, i8 0, i64 20, i1 false)
  store i8 1, ptr %m_is_singular.i, align 4, !tbaa !87
  %m_temp_match = getelementptr inbounds %"class.boost::re_detail_107400::perl_matcher", ptr %this, i64 0, i32 1
  %13 = load ptr, ptr %m_temp_match, align 8, !tbaa !99
  store ptr %call34, ptr %m_temp_match, align 8, !tbaa !99
  %isnull.i.i.i = icmp eq ptr %13, null
  br i1 %isnull.i.i.i, label %if.end41, label %delete.notnull.i.i.i

delete.notnull.i.i.i:                             ; preds = %invoke.cont36
  %pn.i.i.i.i.i = getelementptr inbounds %"class.boost::match_results", ptr %13, i64 0, i32 3, i32 1
  %14 = load ptr, ptr %pn.i.i.i.i.i, align 8, !tbaa !97
  %cmp.not.i.i.i.i.i.i = icmp eq ptr %14, null
  br i1 %cmp.not.i.i.i.i.i.i, label %_ZN5boost10shared_ptrINS_16re_detail_10740020named_subexpressionsEED2Ev.exit.i.i.i.i, label %if.then.i.i.i.i.i.i

if.then.i.i.i.i.i.i:                              ; preds = %delete.notnull.i.i.i
  %use_count_.i.i.i.i.i.i.i = getelementptr inbounds %"class.boost::detail::sp_counted_base", ptr %14, i64 0, i32 1
  %15 = atomicrmw sub ptr %use_count_.i.i.i.i.i.i.i, i32 1 acq_rel, align 4
  %cmp.i.i.i.i.i.i.i = icmp eq i32 %15, 1
  br i1 %cmp.i.i.i.i.i.i.i, label %if.then.i.i.i.i.i.i.i, label %_ZN5boost10shared_ptrINS_16re_detail_10740020named_subexpressionsEED2Ev.exit.i.i.i.i

if.then.i.i.i.i.i.i.i:                            ; preds = %if.then.i.i.i.i.i.i
  %vtable.i.i.i.i.i.i.i = load ptr, ptr %14, align 8, !tbaa !7
  %vfn.i.i.i.i.i.i.i = getelementptr inbounds ptr, ptr %vtable.i.i.i.i.i.i.i, i64 2
  %16 = load ptr, ptr %vfn.i.i.i.i.i.i.i, align 8
  invoke void %16(ptr noundef nonnull align 8 dereferenceable(16) %14)
          to label %.noexc.i.i.i.i.i.i unwind label %terminate.lpad.i.i.i.i.i.i

.noexc.i.i.i.i.i.i:                               ; preds = %if.then.i.i.i.i.i.i.i
  %weak_count_.i.i.i.i.i.i.i.i = getelementptr inbounds %"class.boost::detail::sp_counted_base", ptr %14, i64 0, i32 2
  %17 = atomicrmw sub ptr %weak_count_.i.i.i.i.i.i.i.i, i32 1 acq_rel, align 4
  %cmp.i.i.i.i.i.i.i.i = icmp eq i32 %17, 1
  br i1 %cmp.i.i.i.i.i.i.i.i, label %if.then.i.i.i.i.i.i.i.i, label %_ZN5boost10shared_ptrINS_16re_detail_10740020named_subexpressionsEED2Ev.exit.i.i.i.i

if.then.i.i.i.i.i.i.i.i:                          ; preds = %.noexc.i.i.i.i.i.i
  %vtable.i.i.i.i.i.i.i.i = load ptr, ptr %14, align 8, !tbaa !7
  %vfn.i.i.i.i.i.i.i.i = getelementptr inbounds ptr, ptr %vtable.i.i.i.i.i.i.i.i, i64 3
  %18 = load ptr, ptr %vfn.i.i.i.i.i.i.i.i, align 8
  invoke void %18(ptr noundef nonnull align 8 dereferenceable(16) %14)
          to label %_ZN5boost10shared_ptrINS_16re_detail_10740020named_subexpressionsEED2Ev.exit.i.i.i.i unwind label %terminate.lpad.i.i.i.i.i.i

terminate.lpad.i.i.i.i.i.i:                       ; preds = %if.then.i.i.i.i.i.i.i.i, %if.then.i.i.i.i.i.i.i
  %19 = landingpad { ptr, i32 }
          catch ptr null
  %20 = extractvalue { ptr, i32 } %19, 0
  tail call void @__clang_call_terminate(ptr %20) #32
  unreachable

_ZN5boost10shared_ptrINS_16re_detail_10740020named_subexpressionsEED2Ev.exit.i.i.i.i: ; preds = %if.then.i.i.i.i.i.i.i.i, %.noexc.i.i.i.i.i.i, %if.then.i.i.i.i.i.i, %delete.notnull.i.i.i
  %21 = load ptr, ptr %13, align 8, !tbaa !98
  %tobool.not.i.i.i.i.i.i.i = icmp eq ptr %21, null
  br i1 %tobool.not.i.i.i.i.i.i.i, label %_ZN5boost13match_resultsIPKcSaINS_9sub_matchIS2_EEEED2Ev.exit.i.i.i, label %if.then.i.i.i2.i.i.i.i

if.then.i.i.i2.i.i.i.i:                           ; preds = %_ZN5boost10shared_ptrINS_16re_detail_10740020named_subexpressionsEED2Ev.exit.i.i.i.i
  tail call void @_ZdlPv(ptr noundef nonnull %21) #33
  br label %_ZN5boost13match_resultsIPKcSaINS_9sub_matchIS2_EEEED2Ev.exit.i.i.i

_ZN5boost13match_resultsIPKcSaINS_9sub_matchIS2_EEEED2Ev.exit.i.i.i: ; preds = %if.then.i.i.i2.i.i.i.i, %_ZN5boost10shared_ptrINS_16re_detail_10740020named_subexpressionsEED2Ev.exit.i.i.i.i
  tail call void @_ZdlPv(ptr noundef nonnull %13) #33
  %.pre = load ptr, ptr %m_temp_match, align 8, !tbaa !99
  %.pre69.pre = load ptr, ptr %re.i, align 8, !tbaa !139
  %.pre70.pre = load ptr, ptr %.pre69.pre, align 8, !tbaa !112
  %.pre71.pre = load ptr, ptr %e, align 8, !tbaa !112
  br label %if.end41

if.else39:                                        ; preds = %if.end29
  %22 = load ptr, ptr %this, align 8, !tbaa !145
  br label %if.end41

if.end41:                                         ; preds = %if.else39, %_ZN5boost13match_resultsIPKcSaINS_9sub_matchIS2_EEEED2Ev.exit.i.i.i, %invoke.cont36
  %.sink = phi ptr [ %22, %if.else39 ], [ %call34, %invoke.cont36 ], [ %.pre, %_ZN5boost13match_resultsIPKcSaINS_9sub_matchIS2_EEEED2Ev.exit.i.i.i ]
  %23 = phi ptr [ %0, %if.else39 ], [ %0, %invoke.cont36 ], [ %.pre71.pre, %_ZN5boost13match_resultsIPKcSaINS_9sub_matchIS2_EEEED2Ev.exit.i.i.i ]
  %24 = phi ptr [ %6, %if.else39 ], [ %6, %invoke.cont36 ], [ %.pre70.pre, %_ZN5boost13match_resultsIPKcSaINS_9sub_matchIS2_EEEED2Ev.exit.i.i.i ]
  %m_presult40 = getelementptr inbounds %"class.boost::re_detail_107400::perl_matcher", ptr %this, i64 0, i32 2
  store ptr %.sink, ptr %m_presult40, align 8, !tbaa !146
  %m_stack_base = getelementptr inbounds %"class.boost::re_detail_107400::perl_matcher", ptr %this, i64 0, i32 27
  %m_word_mask = getelementptr inbounds %"struct.boost::re_detail_107400::regex_data", ptr %24, i64 0, i32 12
  tail call void @llvm.memset.p0.i64(ptr noundef nonnull align 8 dereferenceable(16) %m_stack_base, i8 0, i64 16, i1 false)
  %25 = load i32, ptr %m_word_mask, align 8, !tbaa !147
  %m_word_mask44 = getelementptr inbounds %"class.boost::re_detail_107400::perl_matcher", ptr %this, i64 0, i32 23
  store i32 %25, ptr %m_word_mask44, align 8, !tbaa !148
  %and.i67 = and i32 %f, 64
  %tobool46.not = icmp eq i32 %and.i67, 0
  %conv = select i1 %tobool46.not, i8 3, i8 2
  %match_any_mask = getelementptr inbounds %"class.boost::re_detail_107400::perl_matcher", ptr %this, i64 0, i32 24
  store i8 %conv, ptr %match_any_mask, align 4, !tbaa !149
  %m_disable_match_any = getelementptr inbounds %"struct.boost::re_detail_107400::regex_data", ptr %23, i64 0, i32 16
  %26 = load i8, ptr %m_disable_match_any, align 1, !tbaa !150, !range !49, !noundef !50
  %tobool48.not = icmp eq i8 %26, 0
  br i1 %tobool48.not, label %if.end52, label %if.then49

if.then49:                                        ; preds = %if.end41
  %27 = load i32, ptr %m_match_flags, align 8, !tbaa !144
  %and.i.i = and i32 %27, 1073740799
  store i32 %and.i.i, ptr %m_match_flags, align 8, !tbaa !144
  br label %if.end52

if.end52:                                         ; preds = %if.then49, %if.end41
  ret void
}

; Function Attrs: mustprogress nounwind uwtable
define linkonce_odr void @_ZNSt6vectorIN5boost16re_detail_10740014recursion_infoINS0_13match_resultsIPKcSaINS0_9sub_matchIS5_EEEEEEESaISA_EED2Ev(ptr noundef nonnull align 8 dereferenceable(24) %this) unnamed_addr #1 comdat align 2 personality ptr @__gxx_personality_v0 {
entry:
  %0 = load ptr, ptr %this, align 8, !tbaa !122
  %_M_finish = getelementptr inbounds %"struct.std::_Vector_base<boost::re_detail_107400::recursion_info<boost::match_results<const char *>>, std::allocator<boost::re_detail_107400::recursion_info<boost::match_results<const char *>>>>::_Vector_impl_data", ptr %this, i64 0, i32 1
  %1 = load ptr, ptr %_M_finish, align 8, !tbaa !123
  %cmp.not3.i.i.i = icmp eq ptr %0, %1
  br i1 %cmp.not3.i.i.i, label %invoke.cont, label %for.body.i.i.i

for.body.i.i.i:                                   ; preds = %entry, %_ZSt8_DestroyIN5boost16re_detail_10740014recursion_infoINS0_13match_resultsIPKcSaINS0_9sub_matchIS5_EEEEEEEEvPT_.exit.i.i.i
  %__first.addr.04.i.i.i = phi ptr [ %incdec.ptr.i.i.i, %_ZSt8_DestroyIN5boost16re_detail_10740014recursion_infoINS0_13match_resultsIPKcSaINS0_9sub_matchIS5_EEEEEEEEvPT_.exit.i.i.i ], [ %0, %entry ]
  %results.i.i.i.i.i = getelementptr inbounds %"struct.boost::re_detail_107400::recursion_info", ptr %__first.addr.04.i.i.i, i64 0, i32 2
  %pn.i.i.i.i.i.i.i = getelementptr inbounds %"struct.boost::re_detail_107400::recursion_info", ptr %__first.addr.04.i.i.i, i64 0, i32 2, i32 3, i32 1
  %2 = load ptr, ptr %pn.i.i.i.i.i.i.i, align 8, !tbaa !97
  %cmp.not.i.i.i.i.i.i.i.i = icmp eq ptr %2, null
  br i1 %cmp.not.i.i.i.i.i.i.i.i, label %_ZN5boost10shared_ptrINS_16re_detail_10740020named_subexpressionsEED2Ev.exit.i.i.i.i.i.i, label %if.then.i.i.i.i.i.i.i.i

if.then.i.i.i.i.i.i.i.i:                          ; preds = %for.body.i.i.i
  %use_count_.i.i.i.i.i.i.i.i.i = getelementptr inbounds %"class.boost::detail::sp_counted_base", ptr %2, i64 0, i32 1
  %3 = atomicrmw sub ptr %use_count_.i.i.i.i.i.i.i.i.i, i32 1 acq_rel, align 4
  %cmp.i.i.i.i.i.i.i.i.i = icmp eq i32 %3, 1
  br i1 %cmp.i.i.i.i.i.i.i.i.i, label %if.then.i.i.i.i.i.i.i.i.i, label %_ZN5boost10shared_ptrINS_16re_detail_10740020named_subexpressionsEED2Ev.exit.i.i.i.i.i.i

if.then.i.i.i.i.i.i.i.i.i:                        ; preds = %if.then.i.i.i.i.i.i.i.i
  %vtable.i.i.i.i.i.i.i.i.i = load ptr, ptr %2, align 8, !tbaa !7
  %vfn.i.i.i.i.i.i.i.i.i = getelementptr inbounds ptr, ptr %vtable.i.i.i.i.i.i.i.i.i, i64 2
  %4 = load ptr, ptr %vfn.i.i.i.i.i.i.i.i.i, align 8
  invoke void %4(ptr noundef nonnull align 8 dereferenceable(16) %2)
          to label %.noexc.i.i.i.i.i.i.i.i unwind label %terminate.lpad.i.i.i.i.i.i.i.i

.noexc.i.i.i.i.i.i.i.i:                           ; preds = %if.then.i.i.i.i.i.i.i.i.i
  %weak_count_.i.i.i.i.i.i.i.i.i.i = getelementptr inbounds %"class.boost::detail::sp_counted_base", ptr %2, i64 0, i32 2
  %5 = atomicrmw sub ptr %weak_count_.i.i.i.i.i.i.i.i.i.i, i32 1 acq_rel, align 4
  %cmp.i.i.i.i.i.i.i.i.i.i = icmp eq i32 %5, 1
  br i1 %cmp.i.i.i.i.i.i.i.i.i.i, label %if.then.i.i.i.i.i.i.i.i.i.i, label %_ZN5boost10shared_ptrINS_16re_detail_10740020named_subexpressionsEED2Ev.exit.i.i.i.i.i.i

if.then.i.i.i.i.i.i.i.i.i.i:                      ; preds = %.noexc.i.i.i.i.i.i.i.i
  %vtable.i.i.i.i.i.i.i.i.i.i = load ptr, ptr %2, align 8, !tbaa !7
  %vfn.i.i.i.i.i.i.i.i.i.i = getelementptr inbounds ptr, ptr %vtable.i.i.i.i.i.i.i.i.i.i, i64 3
  %6 = load ptr, ptr %vfn.i.i.i.i.i.i.i.i.i.i, align 8
  invoke void %6(ptr noundef nonnull align 8 dereferenceable(16) %2)
          to label %_ZN5boost10shared_ptrINS_16re_detail_10740020named_subexpressionsEED2Ev.exit.i.i.i.i.i.i unwind label %terminate.lpad.i.i.i.i.i.i.i.i

terminate.lpad.i.i.i.i.i.i.i.i:                   ; preds = %if.then.i.i.i.i.i.i.i.i.i.i, %if.then.i.i.i.i.i.i.i.i.i
  %7 = landingpad { ptr, i32 }
          catch ptr null
  %8 = extractvalue { ptr, i32 } %7, 0
  tail call void @__clang_call_terminate(ptr %8) #32
  unreachable

_ZN5boost10shared_ptrINS_16re_detail_10740020named_subexpressionsEED2Ev.exit.i.i.i.i.i.i: ; preds = %if.then.i.i.i.i.i.i.i.i.i.i, %.noexc.i.i.i.i.i.i.i.i, %if.then.i.i.i.i.i.i.i.i, %for.body.i.i.i
  %9 = load ptr, ptr %results.i.i.i.i.i, align 8, !tbaa !98
  %tobool.not.i.i.i.i.i.i.i.i.i = icmp eq ptr %9, null
  br i1 %tobool.not.i.i.i.i.i.i.i.i.i, label %_ZSt8_DestroyIN5boost16re_detail_10740014recursion_infoINS0_13match_resultsIPKcSaINS0_9sub_matchIS5_EEEEEEEEvPT_.exit.i.i.i, label %if.then.i.i.i2.i.i.i.i.i.i

if.then.i.i.i2.i.i.i.i.i.i:                       ; preds = %_ZN5boost10shared_ptrINS_16re_detail_10740020named_subexpressionsEED2Ev.exit.i.i.i.i.i.i
  tail call void @_ZdlPv(ptr noundef nonnull %9) #33
  br label %_ZSt8_DestroyIN5boost16re_detail_10740014recursion_infoINS0_13match_resultsIPKcSaINS0_9sub_matchIS5_EEEEEEEEvPT_.exit.i.i.i

_ZSt8_DestroyIN5boost16re_detail_10740014recursion_infoINS0_13match_resultsIPKcSaINS0_9sub_matchIS5_EEEEEEEEvPT_.exit.i.i.i: ; preds = %if.then.i.i.i2.i.i.i.i.i.i, %_ZN5boost10shared_ptrINS_16re_detail_10740020named_subexpressionsEED2Ev.exit.i.i.i.i.i.i
  %incdec.ptr.i.i.i = getelementptr inbounds %"struct.boost::re_detail_107400::recursion_info", ptr %__first.addr.04.i.i.i, i64 1
  %cmp.not.i.i.i = icmp eq ptr %incdec.ptr.i.i.i, %1
  br i1 %cmp.not.i.i.i, label %invoke.contthread-pre-split, label %for.body.i.i.i, !llvm.loop !151

invoke.contthread-pre-split:                      ; preds = %_ZSt8_DestroyIN5boost16re_detail_10740014recursion_infoINS0_13match_resultsIPKcSaINS0_9sub_matchIS5_EEEEEEEEvPT_.exit.i.i.i
  %.pr = load ptr, ptr %this, align 8, !tbaa !122
  br label %invoke.cont

invoke.cont:                                      ; preds = %invoke.contthread-pre-split, %entry
  %10 = phi ptr [ %.pr, %invoke.contthread-pre-split ], [ %0, %entry ]
  %tobool.not.i.i = icmp eq ptr %10, null
  br i1 %tobool.not.i.i, label %_ZNSt12_Vector_baseIN5boost16re_detail_10740014recursion_infoINS0_13match_resultsIPKcSaINS0_9sub_matchIS5_EEEEEEESaISA_EED2Ev.exit, label %if.then.i.i

if.then.i.i:                                      ; preds = %invoke.cont
  tail call void @_ZdlPv(ptr noundef nonnull %10) #33
  br label %_ZNSt12_Vector_baseIN5boost16re_detail_10740014recursion_infoINS0_13match_resultsIPKcSaINS0_9sub_matchIS5_EEEEEEESaISA_EED2Ev.exit

_ZNSt12_Vector_baseIN5boost16re_detail_10740014recursion_infoINS0_13match_resultsIPKcSaINS0_9sub_matchIS5_EEEEEEESaISA_EED2Ev.exit: ; preds = %if.then.i.i, %invoke.cont
  ret void
}

; Function Attrs: mustprogress nounwind uwtable
define linkonce_odr void @_ZN5boost10scoped_ptrINS_13match_resultsIPKcSaINS_9sub_matchIS3_EEEEEED2Ev(ptr noundef nonnull align 8 dereferenceable(8) %this) unnamed_addr #1 comdat align 2 personality ptr @__gxx_personality_v0 {
entry:
  %0 = load ptr, ptr %this, align 8, !tbaa !99
  %isnull.i = icmp eq ptr %0, null
  br i1 %isnull.i, label %_ZN5boost14checked_deleteINS_13match_resultsIPKcSaINS_9sub_matchIS3_EEEEEEEvPT_.exit, label %delete.notnull.i

delete.notnull.i:                                 ; preds = %entry
  %pn.i.i.i = getelementptr inbounds %"class.boost::match_results", ptr %0, i64 0, i32 3, i32 1
  %1 = load ptr, ptr %pn.i.i.i, align 8, !tbaa !97
  %cmp.not.i.i.i.i = icmp eq ptr %1, null
  br i1 %cmp.not.i.i.i.i, label %_ZN5boost10shared_ptrINS_16re_detail_10740020named_subexpressionsEED2Ev.exit.i.i, label %if.then.i.i.i.i

if.then.i.i.i.i:                                  ; preds = %delete.notnull.i
  %use_count_.i.i.i.i.i = getelementptr inbounds %"class.boost::detail::sp_counted_base", ptr %1, i64 0, i32 1
  %2 = atomicrmw sub ptr %use_count_.i.i.i.i.i, i32 1 acq_rel, align 4
  %cmp.i.i.i.i.i = icmp eq i32 %2, 1
  br i1 %cmp.i.i.i.i.i, label %if.then.i.i.i.i.i, label %_ZN5boost10shared_ptrINS_16re_detail_10740020named_subexpressionsEED2Ev.exit.i.i

if.then.i.i.i.i.i:                                ; preds = %if.then.i.i.i.i
  %vtable.i.i.i.i.i = load ptr, ptr %1, align 8, !tbaa !7
  %vfn.i.i.i.i.i = getelementptr inbounds ptr, ptr %vtable.i.i.i.i.i, i64 2
  %3 = load ptr, ptr %vfn.i.i.i.i.i, align 8
  invoke void %3(ptr noundef nonnull align 8 dereferenceable(16) %1)
          to label %.noexc.i.i.i.i unwind label %terminate.lpad.i.i.i.i

.noexc.i.i.i.i:                                   ; preds = %if.then.i.i.i.i.i
  %weak_count_.i.i.i.i.i.i = getelementptr inbounds %"class.boost::detail::sp_counted_base", ptr %1, i64 0, i32 2
  %4 = atomicrmw sub ptr %weak_count_.i.i.i.i.i.i, i32 1 acq_rel, align 4
  %cmp.i.i.i.i.i.i = icmp eq i32 %4, 1
  br i1 %cmp.i.i.i.i.i.i, label %if.then.i.i.i.i.i.i, label %_ZN5boost10shared_ptrINS_16re_detail_10740020named_subexpressionsEED2Ev.exit.i.i

if.then.i.i.i.i.i.i:                              ; preds = %.noexc.i.i.i.i
  %vtable.i.i.i.i.i.i = load ptr, ptr %1, align 8, !tbaa !7
  %vfn.i.i.i.i.i.i = getelementptr inbounds ptr, ptr %vtable.i.i.i.i.i.i, i64 3
  %5 = load ptr, ptr %vfn.i.i.i.i.i.i, align 8
  invoke void %5(ptr noundef nonnull align 8 dereferenceable(16) %1)
          to label %_ZN5boost10shared_ptrINS_16re_detail_10740020named_subexpressionsEED2Ev.exit.i.i unwind label %terminate.lpad.i.i.i.i

terminate.lpad.i.i.i.i:                           ; preds = %if.then.i.i.i.i.i.i, %if.then.i.i.i.i.i
  %6 = landingpad { ptr, i32 }
          catch ptr null
  %7 = extractvalue { ptr, i32 } %6, 0
  tail call void @__clang_call_terminate(ptr %7) #32
  unreachable

_ZN5boost10shared_ptrINS_16re_detail_10740020named_subexpressionsEED2Ev.exit.i.i: ; preds = %if.then.i.i.i.i.i.i, %.noexc.i.i.i.i, %if.then.i.i.i.i, %delete.notnull.i
  %8 = load ptr, ptr %0, align 8, !tbaa !98
  %tobool.not.i.i.i.i.i = icmp eq ptr %8, null
  br i1 %tobool.not.i.i.i.i.i, label %_ZN5boost13match_resultsIPKcSaINS_9sub_matchIS2_EEEED2Ev.exit.i, label %if.then.i.i.i2.i.i

if.then.i.i.i2.i.i:                               ; preds = %_ZN5boost10shared_ptrINS_16re_detail_10740020named_subexpressionsEED2Ev.exit.i.i
  tail call void @_ZdlPv(ptr noundef nonnull %8) #33
  br label %_ZN5boost13match_resultsIPKcSaINS_9sub_matchIS2_EEEED2Ev.exit.i

_ZN5boost13match_resultsIPKcSaINS_9sub_matchIS2_EEEED2Ev.exit.i: ; preds = %if.then.i.i.i2.i.i, %_ZN5boost10shared_ptrINS_16re_detail_10740020named_subexpressionsEED2Ev.exit.i.i
  tail call void @_ZdlPv(ptr noundef nonnull %0) #33
  br label %_ZN5boost14checked_deleteINS_13match_resultsIPKcSaINS_9sub_matchIS3_EEEEEEEvPT_.exit

_ZN5boost14checked_deleteINS_13match_resultsIPKcSaINS_9sub_matchIS3_EEEEEEEvPT_.exit: ; preds = %_ZN5boost13match_resultsIPKcSaINS_9sub_matchIS2_EEEED2Ev.exit.i, %entry
  ret void
}

declare void @_ZNSt16invalid_argumentC1EPKc(ptr noundef nonnull align 8 dereferenceable(16), ptr noundef) unnamed_addr #9

; Function Attrs: mustprogress noreturn uwtable
define linkonce_odr void @_ZN5boost15throw_exceptionISt16invalid_argumentEEvRKT_(ptr noundef nonnull align 8 dereferenceable(16) %e) local_unnamed_addr #16 comdat personality ptr @__gxx_personality_v0 {
entry:
  %exception = tail call ptr @__cxa_allocate_exception(i64 64) #30
  invoke void @_ZN5boost10wrapexceptISt16invalid_argumentEC2ERKS1_(ptr noundef nonnull align 8 dereferenceable(60) %exception, ptr noundef nonnull align 8 dereferenceable(16) %e)
          to label %invoke.cont unwind label %lpad

invoke.cont:                                      ; preds = %entry
  tail call void @__cxa_throw(ptr nonnull %exception, ptr nonnull @_ZTIN5boost10wrapexceptISt16invalid_argumentEE, ptr nonnull @_ZN5boost10wrapexceptISt16invalid_argumentED2Ev) #31
  unreachable

lpad:                                             ; preds = %entry
  %0 = landingpad { ptr, i32 }
          cleanup
  tail call void @__cxa_free_exception(ptr %exception) #30
  resume { ptr, i32 } %0
}

; Function Attrs: nounwind
declare void @_ZNSt16invalid_argumentD1Ev(ptr noundef nonnull align 8 dereferenceable(16)) unnamed_addr #6

; Function Attrs: mustprogress uwtable
define linkonce_odr void @_ZN5boost10wrapexceptISt16invalid_argumentEC2ERKS1_(ptr noundef nonnull align 8 dereferenceable(60) %this, ptr noundef nonnull align 8 dereferenceable(16) %e) unnamed_addr #5 comdat align 2 personality ptr @__gxx_personality_v0 {
invoke.cont:
  store ptr getelementptr inbounds ({ [6 x ptr] }, ptr @_ZTVN5boost16exception_detail10clone_baseE, i64 0, inrange i32 0, i64 2), ptr %this, align 8, !tbaa !7
  %0 = getelementptr inbounds i8, ptr %this, i64 8
  tail call void @_ZNSt11logic_errorC2ERKS_(ptr noundef nonnull align 8 dereferenceable(16) %0, ptr noundef nonnull align 8 dereferenceable(16) %e) #30
  %1 = getelementptr inbounds i8, ptr %this, i64 24
  %data_.i = getelementptr inbounds i8, ptr %this, i64 32
  %throw_line_.i = getelementptr inbounds i8, ptr %this, i64 56
  tail call void @llvm.memset.p0.i64(ptr noundef nonnull align 8 dereferenceable(24) %data_.i, i8 0, i64 24, i1 false)
  store i32 -1, ptr %throw_line_.i, align 8, !tbaa !152
  store ptr getelementptr inbounds ({ [6 x ptr], [5 x ptr], [4 x ptr] }, ptr @_ZTVN5boost10wrapexceptISt16invalid_argumentEE, i64 0, inrange i32 0, i64 2), ptr %this, align 8, !tbaa !7
  store ptr getelementptr inbounds ({ [6 x ptr], [5 x ptr], [4 x ptr] }, ptr @_ZTVN5boost10wrapexceptISt16invalid_argumentEE, i64 0, inrange i32 1, i64 2), ptr %0, align 8, !tbaa !7
  store ptr getelementptr inbounds ({ [6 x ptr], [5 x ptr], [4 x ptr] }, ptr @_ZTVN5boost10wrapexceptISt16invalid_argumentEE, i64 0, inrange i32 2, i64 2), ptr %1, align 8, !tbaa !7
  ret void
}

declare void @__cxa_free_exception(ptr) local_unnamed_addr

; Function Attrs: inlinehint mustprogress nounwind uwtable
define linkonce_odr void @_ZN5boost10wrapexceptISt16invalid_argumentED2Ev(ptr noundef nonnull align 8 dereferenceable(60) %this) unnamed_addr #0 comdat align 2 personality ptr @__gxx_personality_v0 {
entry:
  %0 = getelementptr inbounds i8, ptr %this, i64 24
  store ptr getelementptr inbounds ({ [4 x ptr] }, ptr @_ZTVN5boost9exceptionE, i64 0, inrange i32 0, i64 2), ptr %0, align 8, !tbaa !7
  %data_.i = getelementptr inbounds i8, ptr %this, i64 32
  %1 = load ptr, ptr %data_.i, align 8, !tbaa !155
  %tobool.not.i.i.i = icmp eq ptr %1, null
  br i1 %tobool.not.i.i.i, label %_ZN5boost9exceptionD2Ev.exit, label %land.lhs.true.i.i.i

land.lhs.true.i.i.i:                              ; preds = %entry
  %vtable.i.i.i = load ptr, ptr %1, align 8, !tbaa !7
  %vfn.i.i.i = getelementptr inbounds ptr, ptr %vtable.i.i.i, i64 4
  %2 = load ptr, ptr %vfn.i.i.i, align 8
  %call.i2.i.i = invoke noundef zeroext i1 %2(ptr noundef nonnull align 8 dereferenceable(8) %1)
          to label %call.i.noexc.i.i unwind label %terminate.lpad.i.i

call.i.noexc.i.i:                                 ; preds = %land.lhs.true.i.i.i
  br i1 %call.i2.i.i, label %if.then.i.i.i, label %_ZN5boost9exceptionD2Ev.exit

if.then.i.i.i:                                    ; preds = %call.i.noexc.i.i
  store ptr null, ptr %data_.i, align 8, !tbaa !155
  br label %_ZN5boost9exceptionD2Ev.exit

terminate.lpad.i.i:                               ; preds = %land.lhs.true.i.i.i
  %3 = landingpad { ptr, i32 }
          catch ptr null
  %4 = extractvalue { ptr, i32 } %3, 0
  tail call void @__clang_call_terminate(ptr %4) #32
  unreachable

_ZN5boost9exceptionD2Ev.exit:                     ; preds = %if.then.i.i.i, %call.i.noexc.i.i, %entry
  %5 = getelementptr inbounds i8, ptr %this, i64 8
  tail call void @_ZNSt16invalid_argumentD2Ev(ptr noundef nonnull align 8 dereferenceable(16) %5) #30
  ret void
}

; Function Attrs: nounwind
declare void @_ZNSt16invalid_argumentD2Ev(ptr noundef nonnull align 8 dereferenceable(16)) unnamed_addr #6

; Function Attrs: mustprogress uwtable
define linkonce_odr noundef ptr @_ZNK5boost10wrapexceptISt16invalid_argumentE5cloneEv(ptr noundef nonnull align 8 dereferenceable(60) %this) unnamed_addr #5 comdat align 2 personality ptr @__gxx_personality_v0 {
entry:
  %call = tail call noalias noundef nonnull dereferenceable(64) ptr @_Znwm(i64 noundef 64) #36
  store ptr getelementptr inbounds ({ [6 x ptr] }, ptr @_ZTVN5boost16exception_detail10clone_baseE, i64 0, inrange i32 0, i64 2), ptr %call, align 8, !tbaa !7
  %0 = getelementptr inbounds i8, ptr %call, i64 8
  %add.ptr.i = getelementptr inbounds i8, ptr %this, i64 8
  tail call void @_ZNSt11logic_errorC2ERKS_(ptr noundef nonnull align 8 dereferenceable(16) %0, ptr noundef nonnull align 8 dereferenceable(16) %add.ptr.i) #30
  store ptr getelementptr inbounds ({ [5 x ptr] }, ptr @_ZTVSt16invalid_argument, i64 0, inrange i32 0, i64 2), ptr %0, align 8, !tbaa !7
  %1 = getelementptr inbounds i8, ptr %call, i64 24
  store ptr getelementptr inbounds ({ [4 x ptr] }, ptr @_ZTVN5boost9exceptionE, i64 0, inrange i32 0, i64 2), ptr %1, align 8, !tbaa !7
  %data_.i.i = getelementptr inbounds i8, ptr %call, i64 32
  %data_2.i.i = getelementptr inbounds i8, ptr %this, i64 32
  %2 = load ptr, ptr %data_2.i.i, align 8, !tbaa !155
  store ptr %2, ptr %data_.i.i, align 8, !tbaa !155
  %tobool.not.i.i.i.i = icmp eq ptr %2, null
  br i1 %tobool.not.i.i.i.i, label %invoke.cont, label %if.then.i.i.i.i

if.then.i.i.i.i:                                  ; preds = %entry
  %vtable.i.i.i.i = load ptr, ptr %2, align 8, !tbaa !7
  %vfn.i.i.i.i = getelementptr inbounds ptr, ptr %vtable.i.i.i.i, i64 3
  %3 = load ptr, ptr %vfn.i.i.i.i, align 8
  invoke void %3(ptr noundef nonnull align 8 dereferenceable(8) %2)
          to label %invoke.cont unwind label %lpad.i

lpad.i:                                           ; preds = %if.then.i.i.i.i
  %4 = landingpad { ptr, i32 }
          cleanup
  tail call void @_ZNSt16invalid_argumentD2Ev(ptr noundef nonnull align 8 dereferenceable(16) %0) #30
  tail call void @_ZdlPv(ptr noundef nonnull %call) #33
  br label %ehcleanup

invoke.cont:                                      ; preds = %if.then.i.i.i.i, %entry
  %throw_function_.i.i = getelementptr inbounds i8, ptr %call, i64 40
  %throw_function_3.i.i = getelementptr inbounds i8, ptr %this, i64 40
  tail call void @llvm.memcpy.p0.p0.i64(ptr noundef nonnull align 8 dereferenceable(20) %throw_function_.i.i, ptr noundef nonnull align 8 dereferenceable(20) %throw_function_3.i.i, i64 20, i1 false)
  store ptr getelementptr inbounds ({ [6 x ptr], [5 x ptr], [4 x ptr] }, ptr @_ZTVN5boost10wrapexceptISt16invalid_argumentEE, i64 0, inrange i32 0, i64 2), ptr %call, align 8, !tbaa !7
  store ptr getelementptr inbounds ({ [6 x ptr], [5 x ptr], [4 x ptr] }, ptr @_ZTVN5boost10wrapexceptISt16invalid_argumentEE, i64 0, inrange i32 1, i64 2), ptr %0, align 8, !tbaa !7
  store ptr getelementptr inbounds ({ [6 x ptr], [5 x ptr], [4 x ptr] }, ptr @_ZTVN5boost10wrapexceptISt16invalid_argumentEE, i64 0, inrange i32 2, i64 2), ptr %1, align 8, !tbaa !7
  %add.ptr2 = getelementptr inbounds i8, ptr %this, i64 24
  invoke void @_ZN5boost16exception_detail20copy_boost_exceptionEPNS_9exceptionEPKS1_(ptr noundef nonnull %1, ptr noundef nonnull %add.ptr2)
          to label %_ZN5boost10wrapexceptISt16invalid_argumentE7deleterD2Ev.exit unwind label %_ZN5boost10wrapexceptISt16invalid_argumentE7deleterD2Ev.exit14

_ZN5boost10wrapexceptISt16invalid_argumentE7deleterD2Ev.exit: ; preds = %invoke.cont
  ret ptr %call

_ZN5boost10wrapexceptISt16invalid_argumentE7deleterD2Ev.exit14: ; preds = %invoke.cont
  %5 = landingpad { ptr, i32 }
          cleanup
  %vtable.i12 = load ptr, ptr %call, align 8, !tbaa !7
  %vfn.i13 = getelementptr inbounds ptr, ptr %vtable.i12, i64 3
  %6 = load ptr, ptr %vfn.i13, align 8
  tail call void %6(ptr noundef nonnull align 8 dereferenceable(60) %call) #30
  br label %ehcleanup

ehcleanup:                                        ; preds = %_ZN5boost10wrapexceptISt16invalid_argumentE7deleterD2Ev.exit14, %lpad.i
  %.pn = phi { ptr, i32 } [ %5, %_ZN5boost10wrapexceptISt16invalid_argumentE7deleterD2Ev.exit14 ], [ %4, %lpad.i ]
  resume { ptr, i32 } %.pn
}

; Function Attrs: mustprogress uwtable
define linkonce_odr void @_ZNK5boost10wrapexceptISt16invalid_argumentE7rethrowEv(ptr noundef nonnull align 8 dereferenceable(60) %this) unnamed_addr #5 comdat align 2 personality ptr @__gxx_personality_v0 {
entry:
  %exception = tail call ptr @__cxa_allocate_exception(i64 64) #30
  invoke void @_ZN5boost10wrapexceptISt16invalid_argumentEC2ERKS2_(ptr noundef nonnull align 8 dereferenceable(60) %exception, ptr noundef nonnull align 8 dereferenceable(60) %this)
          to label %invoke.cont unwind label %lpad

invoke.cont:                                      ; preds = %entry
  tail call void @__cxa_throw(ptr nonnull %exception, ptr nonnull @_ZTIN5boost10wrapexceptISt16invalid_argumentEE, ptr nonnull @_ZN5boost10wrapexceptISt16invalid_argumentED2Ev) #31
  unreachable

lpad:                                             ; preds = %entry
  %0 = landingpad { ptr, i32 }
          cleanup
  tail call void @__cxa_free_exception(ptr %exception) #30
  resume { ptr, i32 } %0
}

; Function Attrs: inlinehint mustprogress nounwind uwtable
define linkonce_odr void @_ZN5boost10wrapexceptISt16invalid_argumentED0Ev(ptr noundef nonnull align 8 dereferenceable(60) %this) unnamed_addr #0 comdat align 2 personality ptr @__gxx_personality_v0 {
entry:
  %0 = getelementptr inbounds i8, ptr %this, i64 24
  store ptr getelementptr inbounds ({ [4 x ptr] }, ptr @_ZTVN5boost9exceptionE, i64 0, inrange i32 0, i64 2), ptr %0, align 8, !tbaa !7
  %data_.i.i = getelementptr inbounds i8, ptr %this, i64 32
  %1 = load ptr, ptr %data_.i.i, align 8, !tbaa !155
  %tobool.not.i.i.i.i = icmp eq ptr %1, null
  br i1 %tobool.not.i.i.i.i, label %_ZN5boost10wrapexceptISt16invalid_argumentED2Ev.exit, label %land.lhs.true.i.i.i.i

land.lhs.true.i.i.i.i:                            ; preds = %entry
  %vtable.i.i.i.i = load ptr, ptr %1, align 8, !tbaa !7
  %vfn.i.i.i.i = getelementptr inbounds ptr, ptr %vtable.i.i.i.i, i64 4
  %2 = load ptr, ptr %vfn.i.i.i.i, align 8
  %call.i2.i.i.i = invoke noundef zeroext i1 %2(ptr noundef nonnull align 8 dereferenceable(8) %1)
          to label %call.i.noexc.i.i.i unwind label %terminate.lpad.i.i.i

call.i.noexc.i.i.i:                               ; preds = %land.lhs.true.i.i.i.i
  br i1 %call.i2.i.i.i, label %if.then.i.i.i.i, label %_ZN5boost10wrapexceptISt16invalid_argumentED2Ev.exit

if.then.i.i.i.i:                                  ; preds = %call.i.noexc.i.i.i
  store ptr null, ptr %data_.i.i, align 8, !tbaa !155
  br label %_ZN5boost10wrapexceptISt16invalid_argumentED2Ev.exit

terminate.lpad.i.i.i:                             ; preds = %land.lhs.true.i.i.i.i
  %3 = landingpad { ptr, i32 }
          catch ptr null
  %4 = extractvalue { ptr, i32 } %3, 0
  tail call void @__clang_call_terminate(ptr %4) #32
  unreachable

_ZN5boost10wrapexceptISt16invalid_argumentED2Ev.exit: ; preds = %if.then.i.i.i.i, %call.i.noexc.i.i.i, %entry
  %5 = getelementptr inbounds i8, ptr %this, i64 8
  tail call void @_ZNSt16invalid_argumentD2Ev(ptr noundef nonnull align 8 dereferenceable(16) %5) #30
  tail call void @_ZdlPv(ptr noundef nonnull %this) #33
  ret void
}

; Function Attrs: inlinehint nounwind uwtable
define linkonce_odr void @_ZThn8_N5boost10wrapexceptISt16invalid_argumentED1Ev(ptr noundef %this) unnamed_addr #23 comdat align 2 personality ptr @__gxx_personality_v0 {
entry:
  %0 = getelementptr inbounds i8, ptr %this, i64 16
  store ptr getelementptr inbounds ({ [4 x ptr] }, ptr @_ZTVN5boost9exceptionE, i64 0, inrange i32 0, i64 2), ptr %0, align 8, !tbaa !7
  %data_.i.i = getelementptr inbounds i8, ptr %this, i64 24
  %1 = load ptr, ptr %data_.i.i, align 8, !tbaa !155
  %tobool.not.i.i.i.i = icmp eq ptr %1, null
  br i1 %tobool.not.i.i.i.i, label %_ZN5boost10wrapexceptISt16invalid_argumentED2Ev.exit, label %land.lhs.true.i.i.i.i

land.lhs.true.i.i.i.i:                            ; preds = %entry
  %vtable.i.i.i.i = load ptr, ptr %1, align 8, !tbaa !7
  %vfn.i.i.i.i = getelementptr inbounds ptr, ptr %vtable.i.i.i.i, i64 4
  %2 = load ptr, ptr %vfn.i.i.i.i, align 8
  %call.i2.i.i.i = invoke noundef zeroext i1 %2(ptr noundef nonnull align 8 dereferenceable(8) %1)
          to label %call.i.noexc.i.i.i unwind label %terminate.lpad.i.i.i

call.i.noexc.i.i.i:                               ; preds = %land.lhs.true.i.i.i.i
  br i1 %call.i2.i.i.i, label %if.then.i.i.i.i, label %_ZN5boost10wrapexceptISt16invalid_argumentED2Ev.exit

if.then.i.i.i.i:                                  ; preds = %call.i.noexc.i.i.i
  store ptr null, ptr %data_.i.i, align 8, !tbaa !155
  br label %_ZN5boost10wrapexceptISt16invalid_argumentED2Ev.exit

terminate.lpad.i.i.i:                             ; preds = %land.lhs.true.i.i.i.i
  %3 = landingpad { ptr, i32 }
          catch ptr null
  %4 = extractvalue { ptr, i32 } %3, 0
  tail call void @__clang_call_terminate(ptr %4) #32
  unreachable

_ZN5boost10wrapexceptISt16invalid_argumentED2Ev.exit: ; preds = %if.then.i.i.i.i, %call.i.noexc.i.i.i, %entry
  tail call void @_ZNSt16invalid_argumentD2Ev(ptr noundef nonnull align 8 dereferenceable(16) %this) #30
  ret void
}

; Function Attrs: inlinehint nounwind uwtable
define linkonce_odr void @_ZThn8_N5boost10wrapexceptISt16invalid_argumentED0Ev(ptr noundef %this) unnamed_addr #23 comdat align 2 personality ptr @__gxx_personality_v0 {
entry:
  %0 = getelementptr inbounds i8, ptr %this, i64 16
  store ptr getelementptr inbounds ({ [4 x ptr] }, ptr @_ZTVN5boost9exceptionE, i64 0, inrange i32 0, i64 2), ptr %0, align 8, !tbaa !7
  %data_.i.i.i = getelementptr inbounds i8, ptr %this, i64 24
  %1 = load ptr, ptr %data_.i.i.i, align 8, !tbaa !155
  %tobool.not.i.i.i.i.i = icmp eq ptr %1, null
  br i1 %tobool.not.i.i.i.i.i, label %_ZN5boost10wrapexceptISt16invalid_argumentED0Ev.exit, label %land.lhs.true.i.i.i.i.i

land.lhs.true.i.i.i.i.i:                          ; preds = %entry
  %vtable.i.i.i.i.i = load ptr, ptr %1, align 8, !tbaa !7
  %vfn.i.i.i.i.i = getelementptr inbounds ptr, ptr %vtable.i.i.i.i.i, i64 4
  %2 = load ptr, ptr %vfn.i.i.i.i.i, align 8
  %call.i2.i.i.i.i = invoke noundef zeroext i1 %2(ptr noundef nonnull align 8 dereferenceable(8) %1)
          to label %call.i.noexc.i.i.i.i unwind label %terminate.lpad.i.i.i.i

call.i.noexc.i.i.i.i:                             ; preds = %land.lhs.true.i.i.i.i.i
  br i1 %call.i2.i.i.i.i, label %if.then.i.i.i.i.i, label %_ZN5boost10wrapexceptISt16invalid_argumentED0Ev.exit

if.then.i.i.i.i.i:                                ; preds = %call.i.noexc.i.i.i.i
  store ptr null, ptr %data_.i.i.i, align 8, !tbaa !155
  br label %_ZN5boost10wrapexceptISt16invalid_argumentED0Ev.exit

terminate.lpad.i.i.i.i:                           ; preds = %land.lhs.true.i.i.i.i.i
  %3 = landingpad { ptr, i32 }
          catch ptr null
  %4 = extractvalue { ptr, i32 } %3, 0
  tail call void @__clang_call_terminate(ptr %4) #32
  unreachable

_ZN5boost10wrapexceptISt16invalid_argumentED0Ev.exit: ; preds = %if.then.i.i.i.i.i, %call.i.noexc.i.i.i.i, %entry
  %5 = getelementptr inbounds i8, ptr %this, i64 -8
  tail call void @_ZNSt16invalid_argumentD2Ev(ptr noundef nonnull align 8 dereferenceable(16) %this) #30
  tail call void @_ZdlPv(ptr noundef nonnull %5) #33
  ret void
}

; Function Attrs: nounwind
declare noundef ptr @_ZNKSt11logic_error4whatEv(ptr noundef nonnull align 8 dereferenceable(16)) unnamed_addr #6

; Function Attrs: inlinehint nounwind uwtable
define linkonce_odr void @_ZThn24_N5boost10wrapexceptISt16invalid_argumentED1Ev(ptr noundef %this) unnamed_addr #23 comdat align 2 personality ptr @__gxx_personality_v0 {
entry:
  store ptr getelementptr inbounds ({ [4 x ptr] }, ptr @_ZTVN5boost9exceptionE, i64 0, inrange i32 0, i64 2), ptr %this, align 8, !tbaa !7
  %data_.i.i = getelementptr inbounds i8, ptr %this, i64 8
  %0 = load ptr, ptr %data_.i.i, align 8, !tbaa !155
  %tobool.not.i.i.i.i = icmp eq ptr %0, null
  br i1 %tobool.not.i.i.i.i, label %_ZN5boost10wrapexceptISt16invalid_argumentED2Ev.exit, label %land.lhs.true.i.i.i.i

land.lhs.true.i.i.i.i:                            ; preds = %entry
  %vtable.i.i.i.i = load ptr, ptr %0, align 8, !tbaa !7
  %vfn.i.i.i.i = getelementptr inbounds ptr, ptr %vtable.i.i.i.i, i64 4
  %1 = load ptr, ptr %vfn.i.i.i.i, align 8
  %call.i2.i.i.i = invoke noundef zeroext i1 %1(ptr noundef nonnull align 8 dereferenceable(8) %0)
          to label %call.i.noexc.i.i.i unwind label %terminate.lpad.i.i.i

call.i.noexc.i.i.i:                               ; preds = %land.lhs.true.i.i.i.i
  br i1 %call.i2.i.i.i, label %if.then.i.i.i.i, label %_ZN5boost10wrapexceptISt16invalid_argumentED2Ev.exit

if.then.i.i.i.i:                                  ; preds = %call.i.noexc.i.i.i
  store ptr null, ptr %data_.i.i, align 8, !tbaa !155
  br label %_ZN5boost10wrapexceptISt16invalid_argumentED2Ev.exit

terminate.lpad.i.i.i:                             ; preds = %land.lhs.true.i.i.i.i
  %2 = landingpad { ptr, i32 }
          catch ptr null
  %3 = extractvalue { ptr, i32 } %2, 0
  tail call void @__clang_call_terminate(ptr %3) #32
  unreachable

_ZN5boost10wrapexceptISt16invalid_argumentED2Ev.exit: ; preds = %if.then.i.i.i.i, %call.i.noexc.i.i.i, %entry
  %4 = getelementptr inbounds i8, ptr %this, i64 -16
  tail call void @_ZNSt16invalid_argumentD2Ev(ptr noundef nonnull align 8 dereferenceable(16) %4) #30
  ret void
}

; Function Attrs: inlinehint nounwind uwtable
define linkonce_odr void @_ZThn24_N5boost10wrapexceptISt16invalid_argumentED0Ev(ptr noundef %this) unnamed_addr #23 comdat align 2 personality ptr @__gxx_personality_v0 {
entry:
  store ptr getelementptr inbounds ({ [4 x ptr] }, ptr @_ZTVN5boost9exceptionE, i64 0, inrange i32 0, i64 2), ptr %this, align 8, !tbaa !7
  %data_.i.i.i = getelementptr inbounds i8, ptr %this, i64 8
  %0 = load ptr, ptr %data_.i.i.i, align 8, !tbaa !155
  %tobool.not.i.i.i.i.i = icmp eq ptr %0, null
  br i1 %tobool.not.i.i.i.i.i, label %_ZN5boost10wrapexceptISt16invalid_argumentED0Ev.exit, label %land.lhs.true.i.i.i.i.i

land.lhs.true.i.i.i.i.i:                          ; preds = %entry
  %vtable.i.i.i.i.i = load ptr, ptr %0, align 8, !tbaa !7
  %vfn.i.i.i.i.i = getelementptr inbounds ptr, ptr %vtable.i.i.i.i.i, i64 4
  %1 = load ptr, ptr %vfn.i.i.i.i.i, align 8
  %call.i2.i.i.i.i = invoke noundef zeroext i1 %1(ptr noundef nonnull align 8 dereferenceable(8) %0)
          to label %call.i.noexc.i.i.i.i unwind label %terminate.lpad.i.i.i.i

call.i.noexc.i.i.i.i:                             ; preds = %land.lhs.true.i.i.i.i.i
  br i1 %call.i2.i.i.i.i, label %if.then.i.i.i.i.i, label %_ZN5boost10wrapexceptISt16invalid_argumentED0Ev.exit

if.then.i.i.i.i.i:                                ; preds = %call.i.noexc.i.i.i.i
  store ptr null, ptr %data_.i.i.i, align 8, !tbaa !155
  br label %_ZN5boost10wrapexceptISt16invalid_argumentED0Ev.exit

terminate.lpad.i.i.i.i:                           ; preds = %land.lhs.true.i.i.i.i.i
  %2 = landingpad { ptr, i32 }
          catch ptr null
  %3 = extractvalue { ptr, i32 } %2, 0
  tail call void @__clang_call_terminate(ptr %3) #32
  unreachable

_ZN5boost10wrapexceptISt16invalid_argumentED0Ev.exit: ; preds = %if.then.i.i.i.i.i, %call.i.noexc.i.i.i.i, %entry
  %4 = getelementptr inbounds i8, ptr %this, i64 -24
  %5 = getelementptr inbounds i8, ptr %this, i64 -16
  tail call void @_ZNSt16invalid_argumentD2Ev(ptr noundef nonnull align 8 dereferenceable(16) %5) #30
  tail call void @_ZdlPv(ptr noundef nonnull %4) #33
  ret void
}

; Function Attrs: mustprogress nounwind uwtable
define linkonce_odr void @_ZN5boost16exception_detail10clone_baseD2Ev(ptr noundef nonnull align 8 dereferenceable(8) %this) unnamed_addr #1 comdat align 2 {
entry:
  ret void
}

; Function Attrs: mustprogress nounwind uwtable
define linkonce_odr void @_ZN5boost16exception_detail10clone_baseD0Ev(ptr noundef nonnull align 8 dereferenceable(8) %this) unnamed_addr #1 comdat align 2 {
entry:
  tail call void @llvm.trap() #32
  unreachable
}

; Function Attrs: cold noreturn nounwind memory(inaccessiblemem: write)
declare void @llvm.trap() #24

; Function Attrs: nounwind
declare void @_ZNSt11logic_errorC2ERKS_(ptr noundef nonnull align 8 dereferenceable(16), ptr noundef nonnull align 8 dereferenceable(16)) unnamed_addr #6

; Function Attrs: inlinehint mustprogress uwtable
define linkonce_odr void @_ZN5boost10wrapexceptISt16invalid_argumentEC2ERKS2_(ptr noundef nonnull align 8 dereferenceable(60) %this, ptr noundef nonnull align 8 dereferenceable(60) %0) unnamed_addr #2 comdat align 2 personality ptr @__gxx_personality_v0 {
entry:
  store ptr getelementptr inbounds ({ [6 x ptr] }, ptr @_ZTVN5boost16exception_detail10clone_baseE, i64 0, inrange i32 0, i64 2), ptr %this, align 8, !tbaa !7
  %1 = getelementptr inbounds i8, ptr %this, i64 8
  %add.ptr = getelementptr inbounds i8, ptr %0, i64 8
  tail call void @_ZNSt11logic_errorC2ERKS_(ptr noundef nonnull align 8 dereferenceable(16) %1, ptr noundef nonnull align 8 dereferenceable(16) %add.ptr) #30
  store ptr getelementptr inbounds ({ [5 x ptr] }, ptr @_ZTVSt16invalid_argument, i64 0, inrange i32 0, i64 2), ptr %1, align 8, !tbaa !7
  %2 = getelementptr inbounds i8, ptr %this, i64 24
  store ptr getelementptr inbounds ({ [4 x ptr] }, ptr @_ZTVN5boost9exceptionE, i64 0, inrange i32 0, i64 2), ptr %2, align 8, !tbaa !7
  %data_.i = getelementptr inbounds i8, ptr %this, i64 32
  %data_2.i = getelementptr inbounds i8, ptr %0, i64 32
  %3 = load ptr, ptr %data_2.i, align 8, !tbaa !155
  store ptr %3, ptr %data_.i, align 8, !tbaa !155
  %tobool.not.i.i.i = icmp eq ptr %3, null
  br i1 %tobool.not.i.i.i, label %invoke.cont, label %if.then.i.i.i

if.then.i.i.i:                                    ; preds = %entry
  %vtable.i.i.i = load ptr, ptr %3, align 8, !tbaa !7
  %vfn.i.i.i = getelementptr inbounds ptr, ptr %vtable.i.i.i, i64 3
  %4 = load ptr, ptr %vfn.i.i.i, align 8
  invoke void %4(ptr noundef nonnull align 8 dereferenceable(8) %3)
          to label %invoke.cont unwind label %lpad

invoke.cont:                                      ; preds = %if.then.i.i.i, %entry
  %throw_function_.i = getelementptr inbounds i8, ptr %this, i64 40
  %throw_function_3.i = getelementptr inbounds i8, ptr %0, i64 40
  tail call void @llvm.memcpy.p0.p0.i64(ptr noundef nonnull align 8 dereferenceable(20) %throw_function_.i, ptr noundef nonnull align 8 dereferenceable(20) %throw_function_3.i, i64 20, i1 false)
  store ptr getelementptr inbounds ({ [6 x ptr], [5 x ptr], [4 x ptr] }, ptr @_ZTVN5boost10wrapexceptISt16invalid_argumentEE, i64 0, inrange i32 0, i64 2), ptr %this, align 8, !tbaa !7
  store ptr getelementptr inbounds ({ [6 x ptr], [5 x ptr], [4 x ptr] }, ptr @_ZTVN5boost10wrapexceptISt16invalid_argumentEE, i64 0, inrange i32 1, i64 2), ptr %1, align 8, !tbaa !7
  store ptr getelementptr inbounds ({ [6 x ptr], [5 x ptr], [4 x ptr] }, ptr @_ZTVN5boost10wrapexceptISt16invalid_argumentEE, i64 0, inrange i32 2, i64 2), ptr %2, align 8, !tbaa !7
  ret void

lpad:                                             ; preds = %if.then.i.i.i
  %5 = landingpad { ptr, i32 }
          cleanup
  tail call void @_ZNSt16invalid_argumentD2Ev(ptr noundef nonnull align 8 dereferenceable(16) %1) #30
  resume { ptr, i32 } %5
}

; Function Attrs: inlinehint mustprogress uwtable
define linkonce_odr void @_ZN5boost16exception_detail20copy_boost_exceptionEPNS_9exceptionEPKS1_(ptr noundef %a, ptr noundef %b) local_unnamed_addr #2 comdat personality ptr @__gxx_personality_v0 {
entry:
  %ref.tmp = alloca %"class.boost::exception_detail::refcount_ptr", align 8
  %data_ = getelementptr inbounds %"class.boost::exception", ptr %b, i64 0, i32 1
  %0 = load ptr, ptr %data_, align 8, !tbaa !155
  %tobool.not = icmp eq ptr %0, null
  br i1 %tobool.not, label %if.end, label %if.then

if.then:                                          ; preds = %entry
  call void @llvm.lifetime.start.p0(i64 8, ptr nonnull %ref.tmp) #30
  %vtable = load ptr, ptr %0, align 8, !tbaa !7
  %vfn = getelementptr inbounds ptr, ptr %vtable, i64 5
  %1 = load ptr, ptr %vfn, align 8
  invoke void %1(ptr nonnull sret(%"class.boost::exception_detail::refcount_ptr") align 8 %ref.tmp, ptr noundef nonnull align 8 dereferenceable(8) %0)
          to label %_ZN5boost16exception_detail12refcount_ptrINS0_20error_info_containerEE7releaseEv.exit.i.i unwind label %lpad1

_ZN5boost16exception_detail12refcount_ptrINS0_20error_info_containerEE7releaseEv.exit.i.i: ; preds = %if.then
  %2 = load ptr, ptr %ref.tmp, align 8, !tbaa !155
  %tobool.not.i2.i.i = icmp eq ptr %2, null
  br i1 %tobool.not.i2.i.i, label %_ZN5boost16exception_detail12refcount_ptrINS0_20error_info_containerEED2Ev.exit, label %if.then.i3.i.i

if.then.i3.i.i:                                   ; preds = %_ZN5boost16exception_detail12refcount_ptrINS0_20error_info_containerEE7releaseEv.exit.i.i
  %vtable.i4.i.i = load ptr, ptr %2, align 8, !tbaa !7
  %vfn.i5.i.i = getelementptr inbounds ptr, ptr %vtable.i4.i.i, i64 3
  %3 = load ptr, ptr %vfn.i5.i.i, align 8
  invoke void %3(ptr noundef nonnull align 8 dereferenceable(8) %2)
          to label %invoke.cont4 unwind label %lpad3

invoke.cont4:                                     ; preds = %if.then.i3.i.i
  %.pr = load ptr, ptr %ref.tmp, align 8, !tbaa !155
  %tobool.not.i.i = icmp eq ptr %.pr, null
  br i1 %tobool.not.i.i, label %_ZN5boost16exception_detail12refcount_ptrINS0_20error_info_containerEED2Ev.exit, label %land.lhs.true.i.i

land.lhs.true.i.i:                                ; preds = %invoke.cont4
  %vtable.i.i = load ptr, ptr %.pr, align 8, !tbaa !7
  %vfn.i.i = getelementptr inbounds ptr, ptr %vtable.i.i, i64 4
  %4 = load ptr, ptr %vfn.i.i, align 8
  %call.i2.i = invoke noundef zeroext i1 %4(ptr noundef nonnull align 8 dereferenceable(8) %.pr)
          to label %_ZN5boost16exception_detail12refcount_ptrINS0_20error_info_containerEED2Ev.exit unwind label %terminate.lpad.i

terminate.lpad.i:                                 ; preds = %land.lhs.true.i.i
  %5 = landingpad { ptr, i32 }
          catch ptr null
  %6 = extractvalue { ptr, i32 } %5, 0
  call void @__clang_call_terminate(ptr %6) #32
  unreachable

_ZN5boost16exception_detail12refcount_ptrINS0_20error_info_containerEED2Ev.exit: ; preds = %land.lhs.true.i.i, %invoke.cont4, %_ZN5boost16exception_detail12refcount_ptrINS0_20error_info_containerEE7releaseEv.exit.i.i
  call void @llvm.lifetime.end.p0(i64 8, ptr nonnull %ref.tmp) #30
  br label %if.end

lpad1:                                            ; preds = %if.then
  %7 = landingpad { ptr, i32 }
          cleanup
  br label %ehcleanup

lpad3:                                            ; preds = %if.then.i3.i.i
  %8 = landingpad { ptr, i32 }
          cleanup
  %9 = load ptr, ptr %ref.tmp, align 8, !tbaa !155
  %tobool.not.i.i28 = icmp eq ptr %9, null
  br i1 %tobool.not.i.i28, label %ehcleanup, label %land.lhs.true.i.i29

land.lhs.true.i.i29:                              ; preds = %lpad3
  %vtable.i.i30 = load ptr, ptr %9, align 8, !tbaa !7
  %vfn.i.i31 = getelementptr inbounds ptr, ptr %vtable.i.i30, i64 4
  %10 = load ptr, ptr %vfn.i.i31, align 8
  %call.i2.i32 = invoke noundef zeroext i1 %10(ptr noundef nonnull align 8 dereferenceable(8) %9)
          to label %ehcleanup unwind label %terminate.lpad.i33

terminate.lpad.i33:                               ; preds = %land.lhs.true.i.i29
  %11 = landingpad { ptr, i32 }
          catch ptr null
  %12 = extractvalue { ptr, i32 } %11, 0
  call void @__clang_call_terminate(ptr %12) #32
  unreachable

ehcleanup:                                        ; preds = %land.lhs.true.i.i29, %lpad3, %lpad1
  %data.sroa.0.1 = phi ptr [ null, %lpad1 ], [ %2, %lpad3 ], [ %2, %land.lhs.true.i.i29 ]
  %.pn = phi { ptr, i32 } [ %7, %lpad1 ], [ %8, %lpad3 ], [ %8, %land.lhs.true.i.i29 ]
  call void @llvm.lifetime.end.p0(i64 8, ptr nonnull %ref.tmp) #30
  br label %ehcleanup14

if.end:                                           ; preds = %_ZN5boost16exception_detail12refcount_ptrINS0_20error_info_containerEED2Ev.exit, %entry
  %data.sroa.0.2 = phi ptr [ null, %entry ], [ %2, %_ZN5boost16exception_detail12refcount_ptrINS0_20error_info_containerEED2Ev.exit ]
  %throw_line_ = getelementptr inbounds %"class.boost::exception", ptr %b, i64 0, i32 4
  %13 = load i32, ptr %throw_line_, align 8, !tbaa !152
  %throw_line_8 = getelementptr inbounds %"class.boost::exception", ptr %a, i64 0, i32 4
  store i32 %13, ptr %throw_line_8, align 8, !tbaa !152
  %throw_function_ = getelementptr inbounds %"class.boost::exception", ptr %b, i64 0, i32 2
  %throw_function_9 = getelementptr inbounds %"class.boost::exception", ptr %a, i64 0, i32 2
  %14 = load <2 x ptr>, ptr %throw_function_, align 8, !tbaa !53
  store <2 x ptr> %14, ptr %throw_function_9, align 8, !tbaa !53
  %data_10 = getelementptr inbounds %"class.boost::exception", ptr %a, i64 0, i32 1
  %15 = load ptr, ptr %data_10, align 8, !tbaa !155
  %tobool.not.i.i.i37 = icmp eq ptr %15, null
  br i1 %tobool.not.i.i.i37, label %_ZN5boost16exception_detail12refcount_ptrINS0_20error_info_containerEE7releaseEv.exit.i.i41, label %land.lhs.true.i.i.i38

land.lhs.true.i.i.i38:                            ; preds = %if.end
  %vtable.i.i.i39 = load ptr, ptr %15, align 8, !tbaa !7
  %vfn.i.i.i40 = getelementptr inbounds ptr, ptr %vtable.i.i.i39, i64 4
  %16 = load ptr, ptr %vfn.i.i.i40, align 8
  %call.i.i.i47 = invoke noundef zeroext i1 %16(ptr noundef nonnull align 8 dereferenceable(8) %15)
          to label %_ZN5boost16exception_detail12refcount_ptrINS0_20error_info_containerEE7releaseEv.exit.i.i41 unwind label %lpad11

_ZN5boost16exception_detail12refcount_ptrINS0_20error_info_containerEE7releaseEv.exit.i.i41: ; preds = %land.lhs.true.i.i.i38, %if.end
  store ptr %data.sroa.0.2, ptr %data_10, align 8, !tbaa !155
  %tobool.not.i2.i.i42 = icmp eq ptr %data.sroa.0.2, null
  br i1 %tobool.not.i2.i.i42, label %_ZN5boost16exception_detail12refcount_ptrINS0_20error_info_containerEED2Ev.exit58, label %if.then.i3.i.i43

if.then.i3.i.i43:                                 ; preds = %_ZN5boost16exception_detail12refcount_ptrINS0_20error_info_containerEE7releaseEv.exit.i.i41
  %vtable.i4.i.i44 = load ptr, ptr %data.sroa.0.2, align 8, !tbaa !7
  %vfn.i5.i.i45 = getelementptr inbounds ptr, ptr %vtable.i4.i.i44, i64 3
  %17 = load ptr, ptr %vfn.i5.i.i45, align 8
  invoke void %17(ptr noundef nonnull align 8 dereferenceable(8) %data.sroa.0.2)
          to label %land.lhs.true.i.i51 unwind label %lpad11

land.lhs.true.i.i51:                              ; preds = %if.then.i3.i.i43
  %vtable.i.i52 = load ptr, ptr %data.sroa.0.2, align 8, !tbaa !7
  %vfn.i.i53 = getelementptr inbounds ptr, ptr %vtable.i.i52, i64 4
  %18 = load ptr, ptr %vfn.i.i53, align 8
  %call.i2.i54 = invoke noundef zeroext i1 %18(ptr noundef nonnull align 8 dereferenceable(8) %data.sroa.0.2)
          to label %_ZN5boost16exception_detail12refcount_ptrINS0_20error_info_containerEED2Ev.exit58 unwind label %terminate.lpad.i55

terminate.lpad.i55:                               ; preds = %land.lhs.true.i.i51
  %19 = landingpad { ptr, i32 }
          catch ptr null
  %20 = extractvalue { ptr, i32 } %19, 0
  call void @__clang_call_terminate(ptr %20) #32
  unreachable

_ZN5boost16exception_detail12refcount_ptrINS0_20error_info_containerEED2Ev.exit58: ; preds = %land.lhs.true.i.i51, %_ZN5boost16exception_detail12refcount_ptrINS0_20error_info_containerEE7releaseEv.exit.i.i41
  ret void

lpad11:                                           ; preds = %if.then.i3.i.i43, %land.lhs.true.i.i.i38
  %21 = landingpad { ptr, i32 }
          cleanup
  br label %ehcleanup14

ehcleanup14:                                      ; preds = %lpad11, %ehcleanup
  %data.sroa.0.3 = phi ptr [ %data.sroa.0.2, %lpad11 ], [ %data.sroa.0.1, %ehcleanup ]
  %.pn25 = phi { ptr, i32 } [ %21, %lpad11 ], [ %.pn, %ehcleanup ]
  %tobool.not.i.i59 = icmp eq ptr %data.sroa.0.3, null
  br i1 %tobool.not.i.i59, label %_ZN5boost16exception_detail12refcount_ptrINS0_20error_info_containerEED2Ev.exit67, label %land.lhs.true.i.i60

land.lhs.true.i.i60:                              ; preds = %ehcleanup14
  %vtable.i.i61 = load ptr, ptr %data.sroa.0.3, align 8, !tbaa !7
  %vfn.i.i62 = getelementptr inbounds ptr, ptr %vtable.i.i61, i64 4
  %22 = load ptr, ptr %vfn.i.i62, align 8
  %call.i2.i63 = invoke noundef zeroext i1 %22(ptr noundef nonnull align 8 dereferenceable(8) %data.sroa.0.3)
          to label %_ZN5boost16exception_detail12refcount_ptrINS0_20error_info_containerEED2Ev.exit67 unwind label %terminate.lpad.i64

terminate.lpad.i64:                               ; preds = %land.lhs.true.i.i60
  %23 = landingpad { ptr, i32 }
          catch ptr null
  %24 = extractvalue { ptr, i32 } %23, 0
  call void @__clang_call_terminate(ptr %24) #32
  unreachable

_ZN5boost16exception_detail12refcount_ptrINS0_20error_info_containerEED2Ev.exit67: ; preds = %land.lhs.true.i.i60, %ehcleanup14
  resume { ptr, i32 } %.pn25
}

; Function Attrs: inlinehint mustprogress uwtable
define linkonce_odr void @_ZSt8_DestroyIPN5boost16re_detail_10740014recursion_infoINS0_13match_resultsIPKcSaINS0_9sub_matchIS5_EEEEEEESA_EvT_SC_RSaIT0_E(ptr noundef %__first, ptr noundef %__last, ptr noundef nonnull align 1 dereferenceable(1) %0) local_unnamed_addr #2 comdat personality ptr @__gxx_personality_v0 {
entry:
  %cmp.not3.i.i = icmp eq ptr %__first, %__last
  br i1 %cmp.not3.i.i, label %_ZSt8_DestroyIPN5boost16re_detail_10740014recursion_infoINS0_13match_resultsIPKcSaINS0_9sub_matchIS5_EEEEEEEEvT_SC_.exit, label %for.body.i.i

for.body.i.i:                                     ; preds = %entry, %_ZSt8_DestroyIN5boost16re_detail_10740014recursion_infoINS0_13match_resultsIPKcSaINS0_9sub_matchIS5_EEEEEEEEvPT_.exit.i.i
  %__first.addr.04.i.i = phi ptr [ %incdec.ptr.i.i, %_ZSt8_DestroyIN5boost16re_detail_10740014recursion_infoINS0_13match_resultsIPKcSaINS0_9sub_matchIS5_EEEEEEEEvPT_.exit.i.i ], [ %__first, %entry ]
  %results.i.i.i.i = getelementptr inbounds %"struct.boost::re_detail_107400::recursion_info", ptr %__first.addr.04.i.i, i64 0, i32 2
  %pn.i.i.i.i.i.i = getelementptr inbounds %"struct.boost::re_detail_107400::recursion_info", ptr %__first.addr.04.i.i, i64 0, i32 2, i32 3, i32 1
  %1 = load ptr, ptr %pn.i.i.i.i.i.i, align 8, !tbaa !97
  %cmp.not.i.i.i.i.i.i.i = icmp eq ptr %1, null
  br i1 %cmp.not.i.i.i.i.i.i.i, label %_ZN5boost10shared_ptrINS_16re_detail_10740020named_subexpressionsEED2Ev.exit.i.i.i.i.i, label %if.then.i.i.i.i.i.i.i

if.then.i.i.i.i.i.i.i:                            ; preds = %for.body.i.i
  %use_count_.i.i.i.i.i.i.i.i = getelementptr inbounds %"class.boost::detail::sp_counted_base", ptr %1, i64 0, i32 1
  %2 = atomicrmw sub ptr %use_count_.i.i.i.i.i.i.i.i, i32 1 acq_rel, align 4
  %cmp.i.i.i.i.i.i.i.i = icmp eq i32 %2, 1
  br i1 %cmp.i.i.i.i.i.i.i.i, label %if.then.i.i.i.i.i.i.i.i, label %_ZN5boost10shared_ptrINS_16re_detail_10740020named_subexpressionsEED2Ev.exit.i.i.i.i.i

if.then.i.i.i.i.i.i.i.i:                          ; preds = %if.then.i.i.i.i.i.i.i
  %vtable.i.i.i.i.i.i.i.i = load ptr, ptr %1, align 8, !tbaa !7
  %vfn.i.i.i.i.i.i.i.i = getelementptr inbounds ptr, ptr %vtable.i.i.i.i.i.i.i.i, i64 2
  %3 = load ptr, ptr %vfn.i.i.i.i.i.i.i.i, align 8
  invoke void %3(ptr noundef nonnull align 8 dereferenceable(16) %1)
          to label %.noexc.i.i.i.i.i.i.i unwind label %terminate.lpad.i.i.i.i.i.i.i

.noexc.i.i.i.i.i.i.i:                             ; preds = %if.then.i.i.i.i.i.i.i.i
  %weak_count_.i.i.i.i.i.i.i.i.i = getelementptr inbounds %"class.boost::detail::sp_counted_base", ptr %1, i64 0, i32 2
  %4 = atomicrmw sub ptr %weak_count_.i.i.i.i.i.i.i.i.i, i32 1 acq_rel, align 4
  %cmp.i.i.i.i.i.i.i.i.i = icmp eq i32 %4, 1
  br i1 %cmp.i.i.i.i.i.i.i.i.i, label %if.then.i.i.i.i.i.i.i.i.i, label %_ZN5boost10shared_ptrINS_16re_detail_10740020named_subexpressionsEED2Ev.exit.i.i.i.i.i

if.then.i.i.i.i.i.i.i.i.i:                        ; preds = %.noexc.i.i.i.i.i.i.i
  %vtable.i.i.i.i.i.i.i.i.i = load ptr, ptr %1, align 8, !tbaa !7
  %vfn.i.i.i.i.i.i.i.i.i = getelementptr inbounds ptr, ptr %vtable.i.i.i.i.i.i.i.i.i, i64 3
  %5 = load ptr, ptr %vfn.i.i.i.i.i.i.i.i.i, align 8
  invoke void %5(ptr noundef nonnull align 8 dereferenceable(16) %1)
          to label %_ZN5boost10shared_ptrINS_16re_detail_10740020named_subexpressionsEED2Ev.exit.i.i.i.i.i unwind label %terminate.lpad.i.i.i.i.i.i.i

terminate.lpad.i.i.i.i.i.i.i:                     ; preds = %if.then.i.i.i.i.i.i.i.i.i, %if.then.i.i.i.i.i.i.i.i
  %6 = landingpad { ptr, i32 }
          catch ptr null
  %7 = extractvalue { ptr, i32 } %6, 0
  tail call void @__clang_call_terminate(ptr %7) #32
  unreachable

_ZN5boost10shared_ptrINS_16re_detail_10740020named_subexpressionsEED2Ev.exit.i.i.i.i.i: ; preds = %if.then.i.i.i.i.i.i.i.i.i, %.noexc.i.i.i.i.i.i.i, %if.then.i.i.i.i.i.i.i, %for.body.i.i
  %8 = load ptr, ptr %results.i.i.i.i, align 8, !tbaa !98
  %tobool.not.i.i.i.i.i.i.i.i = icmp eq ptr %8, null
  br i1 %tobool.not.i.i.i.i.i.i.i.i, label %_ZSt8_DestroyIN5boost16re_detail_10740014recursion_infoINS0_13match_resultsIPKcSaINS0_9sub_matchIS5_EEEEEEEEvPT_.exit.i.i, label %if.then.i.i.i2.i.i.i.i.i

if.then.i.i.i2.i.i.i.i.i:                         ; preds = %_ZN5boost10shared_ptrINS_16re_detail_10740020named_subexpressionsEED2Ev.exit.i.i.i.i.i
  tail call void @_ZdlPv(ptr noundef nonnull %8) #33
  br label %_ZSt8_DestroyIN5boost16re_detail_10740014recursion_infoINS0_13match_resultsIPKcSaINS0_9sub_matchIS5_EEEEEEEEvPT_.exit.i.i

_ZSt8_DestroyIN5boost16re_detail_10740014recursion_infoINS0_13match_resultsIPKcSaINS0_9sub_matchIS5_EEEEEEEEvPT_.exit.i.i: ; preds = %if.then.i.i.i2.i.i.i.i.i, %_ZN5boost10shared_ptrINS_16re_detail_10740020named_subexpressionsEED2Ev.exit.i.i.i.i.i
  %incdec.ptr.i.i = getelementptr inbounds %"struct.boost::re_detail_107400::recursion_info", ptr %__first.addr.04.i.i, i64 1
  %cmp.not.i.i = icmp eq ptr %incdec.ptr.i.i, %__last
  br i1 %cmp.not.i.i, label %_ZSt8_DestroyIPN5boost16re_detail_10740014recursion_infoINS0_13match_resultsIPKcSaINS0_9sub_matchIS5_EEEEEEEEvT_SC_.exit, label %for.body.i.i, !llvm.loop !156

_ZSt8_DestroyIPN5boost16re_detail_10740014recursion_infoINS0_13match_resultsIPKcSaINS0_9sub_matchIS5_EEEEEEEEvT_SC_.exit: ; preds = %_ZSt8_DestroyIN5boost16re_detail_10740014recursion_infoINS0_13match_resultsIPKcSaINS0_9sub_matchIS5_EEEEEEEEvPT_.exit.i.i, %entry
  ret void
}

; Function Attrs: inlinehint mustprogress uwtable
define linkonce_odr void @_ZSt8_DestroyIPN5boost16re_detail_10740014recursion_infoINS0_13match_resultsIPKcSaINS0_9sub_matchIS5_EEEEEEEEvT_SC_(ptr noundef %__first, ptr noundef %__last) local_unnamed_addr #2 comdat personality ptr @__gxx_personality_v0 {
entry:
  %cmp.not3.i = icmp eq ptr %__first, %__last
  br i1 %cmp.not3.i, label %_ZNSt12_Destroy_auxILb0EE9__destroyIPN5boost16re_detail_10740014recursion_infoINS2_13match_resultsIPKcSaINS2_9sub_matchIS7_EEEEEEEEEvT_SE_.exit, label %for.body.i

for.body.i:                                       ; preds = %entry, %_ZSt8_DestroyIN5boost16re_detail_10740014recursion_infoINS0_13match_resultsIPKcSaINS0_9sub_matchIS5_EEEEEEEEvPT_.exit.i
  %__first.addr.04.i = phi ptr [ %incdec.ptr.i, %_ZSt8_DestroyIN5boost16re_detail_10740014recursion_infoINS0_13match_resultsIPKcSaINS0_9sub_matchIS5_EEEEEEEEvPT_.exit.i ], [ %__first, %entry ]
  %results.i.i.i = getelementptr inbounds %"struct.boost::re_detail_107400::recursion_info", ptr %__first.addr.04.i, i64 0, i32 2
  %pn.i.i.i.i.i = getelementptr inbounds %"struct.boost::re_detail_107400::recursion_info", ptr %__first.addr.04.i, i64 0, i32 2, i32 3, i32 1
  %0 = load ptr, ptr %pn.i.i.i.i.i, align 8, !tbaa !97
  %cmp.not.i.i.i.i.i.i = icmp eq ptr %0, null
  br i1 %cmp.not.i.i.i.i.i.i, label %_ZN5boost10shared_ptrINS_16re_detail_10740020named_subexpressionsEED2Ev.exit.i.i.i.i, label %if.then.i.i.i.i.i.i

if.then.i.i.i.i.i.i:                              ; preds = %for.body.i
  %use_count_.i.i.i.i.i.i.i = getelementptr inbounds %"class.boost::detail::sp_counted_base", ptr %0, i64 0, i32 1
  %1 = atomicrmw sub ptr %use_count_.i.i.i.i.i.i.i, i32 1 acq_rel, align 4
  %cmp.i.i.i.i.i.i.i = icmp eq i32 %1, 1
  br i1 %cmp.i.i.i.i.i.i.i, label %if.then.i.i.i.i.i.i.i, label %_ZN5boost10shared_ptrINS_16re_detail_10740020named_subexpressionsEED2Ev.exit.i.i.i.i

if.then.i.i.i.i.i.i.i:                            ; preds = %if.then.i.i.i.i.i.i
  %vtable.i.i.i.i.i.i.i = load ptr, ptr %0, align 8, !tbaa !7
  %vfn.i.i.i.i.i.i.i = getelementptr inbounds ptr, ptr %vtable.i.i.i.i.i.i.i, i64 2
  %2 = load ptr, ptr %vfn.i.i.i.i.i.i.i, align 8
  invoke void %2(ptr noundef nonnull align 8 dereferenceable(16) %0)
          to label %.noexc.i.i.i.i.i.i unwind label %terminate.lpad.i.i.i.i.i.i

.noexc.i.i.i.i.i.i:                               ; preds = %if.then.i.i.i.i.i.i.i
  %weak_count_.i.i.i.i.i.i.i.i = getelementptr inbounds %"class.boost::detail::sp_counted_base", ptr %0, i64 0, i32 2
  %3 = atomicrmw sub ptr %weak_count_.i.i.i.i.i.i.i.i, i32 1 acq_rel, align 4
  %cmp.i.i.i.i.i.i.i.i = icmp eq i32 %3, 1
  br i1 %cmp.i.i.i.i.i.i.i.i, label %if.then.i.i.i.i.i.i.i.i, label %_ZN5boost10shared_ptrINS_16re_detail_10740020named_subexpressionsEED2Ev.exit.i.i.i.i

if.then.i.i.i.i.i.i.i.i:                          ; preds = %.noexc.i.i.i.i.i.i
  %vtable.i.i.i.i.i.i.i.i = load ptr, ptr %0, align 8, !tbaa !7
  %vfn.i.i.i.i.i.i.i.i = getelementptr inbounds ptr, ptr %vtable.i.i.i.i.i.i.i.i, i64 3
  %4 = load ptr, ptr %vfn.i.i.i.i.i.i.i.i, align 8
  invoke void %4(ptr noundef nonnull align 8 dereferenceable(16) %0)
          to label %_ZN5boost10shared_ptrINS_16re_detail_10740020named_subexpressionsEED2Ev.exit.i.i.i.i unwind label %terminate.lpad.i.i.i.i.i.i

terminate.lpad.i.i.i.i.i.i:                       ; preds = %if.then.i.i.i.i.i.i.i.i, %if.then.i.i.i.i.i.i.i
  %5 = landingpad { ptr, i32 }
          catch ptr null
  %6 = extractvalue { ptr, i32 } %5, 0
  tail call void @__clang_call_terminate(ptr %6) #32
  unreachable

_ZN5boost10shared_ptrINS_16re_detail_10740020named_subexpressionsEED2Ev.exit.i.i.i.i: ; preds = %if.then.i.i.i.i.i.i.i.i, %.noexc.i.i.i.i.i.i, %if.then.i.i.i.i.i.i, %for.body.i
  %7 = load ptr, ptr %results.i.i.i, align 8, !tbaa !98
  %tobool.not.i.i.i.i.i.i.i = icmp eq ptr %7, null
  br i1 %tobool.not.i.i.i.i.i.i.i, label %_ZSt8_DestroyIN5boost16re_detail_10740014recursion_infoINS0_13match_resultsIPKcSaINS0_9sub_matchIS5_EEEEEEEEvPT_.exit.i, label %if.then.i.i.i2.i.i.i.i

if.then.i.i.i2.i.i.i.i:                           ; preds = %_ZN5boost10shared_ptrINS_16re_detail_10740020named_subexpressionsEED2Ev.exit.i.i.i.i
  tail call void @_ZdlPv(ptr noundef nonnull %7) #33
  br label %_ZSt8_DestroyIN5boost16re_detail_10740014recursion_infoINS0_13match_resultsIPKcSaINS0_9sub_matchIS5_EEEEEEEEvPT_.exit.i

_ZSt8_DestroyIN5boost16re_detail_10740014recursion_infoINS0_13match_resultsIPKcSaINS0_9sub_matchIS5_EEEEEEEEvPT_.exit.i: ; preds = %if.then.i.i.i2.i.i.i.i, %_ZN5boost10shared_ptrINS_16re_detail_10740020named_subexpressionsEED2Ev.exit.i.i.i.i
  %incdec.ptr.i = getelementptr inbounds %"struct.boost::re_detail_107400::recursion_info", ptr %__first.addr.04.i, i64 1
  %cmp.not.i = icmp eq ptr %incdec.ptr.i, %__last
  br i1 %cmp.not.i, label %_ZNSt12_Destroy_auxILb0EE9__destroyIPN5boost16re_detail_10740014recursion_infoINS2_13match_resultsIPKcSaINS2_9sub_matchIS7_EEEEEEEEEvT_SE_.exit, label %for.body.i, !llvm.loop !157

_ZNSt12_Destroy_auxILb0EE9__destroyIPN5boost16re_detail_10740014recursion_infoINS2_13match_resultsIPKcSaINS2_9sub_matchIS7_EEEEEEEEEvT_SE_.exit: ; preds = %_ZSt8_DestroyIN5boost16re_detail_10740014recursion_infoINS0_13match_resultsIPKcSaINS0_9sub_matchIS5_EEEEEEEEvPT_.exit.i, %entry
  ret void
}

; Function Attrs: inlinehint mustprogress nounwind uwtable
define linkonce_odr void @_ZN5boost16re_detail_10740014recursion_infoINS_13match_resultsIPKcSaINS_9sub_matchIS4_EEEEEED2Ev(ptr noundef nonnull align 8 dereferenceable(112) %this) unnamed_addr #0 comdat align 2 personality ptr @__gxx_personality_v0 {
entry:
  %results = getelementptr inbounds %"struct.boost::re_detail_107400::recursion_info", ptr %this, i64 0, i32 2
  %pn.i.i = getelementptr inbounds %"struct.boost::re_detail_107400::recursion_info", ptr %this, i64 0, i32 2, i32 3, i32 1
  %0 = load ptr, ptr %pn.i.i, align 8, !tbaa !97
  %cmp.not.i.i.i = icmp eq ptr %0, null
  br i1 %cmp.not.i.i.i, label %_ZN5boost10shared_ptrINS_16re_detail_10740020named_subexpressionsEED2Ev.exit.i, label %if.then.i.i.i

if.then.i.i.i:                                    ; preds = %entry
  %use_count_.i.i.i.i = getelementptr inbounds %"class.boost::detail::sp_counted_base", ptr %0, i64 0, i32 1
  %1 = atomicrmw sub ptr %use_count_.i.i.i.i, i32 1 acq_rel, align 4
  %cmp.i.i.i.i = icmp eq i32 %1, 1
  br i1 %cmp.i.i.i.i, label %if.then.i.i.i.i, label %_ZN5boost10shared_ptrINS_16re_detail_10740020named_subexpressionsEED2Ev.exit.i

if.then.i.i.i.i:                                  ; preds = %if.then.i.i.i
  %vtable.i.i.i.i = load ptr, ptr %0, align 8, !tbaa !7
  %vfn.i.i.i.i = getelementptr inbounds ptr, ptr %vtable.i.i.i.i, i64 2
  %2 = load ptr, ptr %vfn.i.i.i.i, align 8
  invoke void %2(ptr noundef nonnull align 8 dereferenceable(16) %0)
          to label %.noexc.i.i.i unwind label %terminate.lpad.i.i.i

.noexc.i.i.i:                                     ; preds = %if.then.i.i.i.i
  %weak_count_.i.i.i.i.i = getelementptr inbounds %"class.boost::detail::sp_counted_base", ptr %0, i64 0, i32 2
  %3 = atomicrmw sub ptr %weak_count_.i.i.i.i.i, i32 1 acq_rel, align 4
  %cmp.i.i.i.i.i = icmp eq i32 %3, 1
  br i1 %cmp.i.i.i.i.i, label %if.then.i.i.i.i.i, label %_ZN5boost10shared_ptrINS_16re_detail_10740020named_subexpressionsEED2Ev.exit.i

if.then.i.i.i.i.i:                                ; preds = %.noexc.i.i.i
  %vtable.i.i.i.i.i = load ptr, ptr %0, align 8, !tbaa !7
  %vfn.i.i.i.i.i = getelementptr inbounds ptr, ptr %vtable.i.i.i.i.i, i64 3
  %4 = load ptr, ptr %vfn.i.i.i.i.i, align 8
  invoke void %4(ptr noundef nonnull align 8 dereferenceable(16) %0)
          to label %_ZN5boost10shared_ptrINS_16re_detail_10740020named_subexpressionsEED2Ev.exit.i unwind label %terminate.lpad.i.i.i

terminate.lpad.i.i.i:                             ; preds = %if.then.i.i.i.i.i, %if.then.i.i.i.i
  %5 = landingpad { ptr, i32 }
          catch ptr null
  %6 = extractvalue { ptr, i32 } %5, 0
  tail call void @__clang_call_terminate(ptr %6) #32
  unreachable

_ZN5boost10shared_ptrINS_16re_detail_10740020named_subexpressionsEED2Ev.exit.i: ; preds = %if.then.i.i.i.i.i, %.noexc.i.i.i, %if.then.i.i.i, %entry
  %7 = load ptr, ptr %results, align 8, !tbaa !98
  %tobool.not.i.i.i.i = icmp eq ptr %7, null
  br i1 %tobool.not.i.i.i.i, label %_ZN5boost13match_resultsIPKcSaINS_9sub_matchIS2_EEEED2Ev.exit, label %if.then.i.i.i2.i

if.then.i.i.i2.i:                                 ; preds = %_ZN5boost10shared_ptrINS_16re_detail_10740020named_subexpressionsEED2Ev.exit.i
  tail call void @_ZdlPv(ptr noundef nonnull %7) #33
  br label %_ZN5boost13match_resultsIPKcSaINS_9sub_matchIS2_EEEED2Ev.exit

_ZN5boost13match_resultsIPKcSaINS_9sub_matchIS2_EEEED2Ev.exit: ; preds = %if.then.i.i.i2.i, %_ZN5boost10shared_ptrINS_16re_detail_10740020named_subexpressionsEED2Ev.exit.i
  ret void
}

; Function Attrs: mustprogress uwtable
define linkonce_odr noundef zeroext i1 @_ZN5boost16re_detail_10740012perl_matcherIPKcSaINS_9sub_matchIS3_EEENS_12regex_traitsIcNS_16cpp_regex_traitsIcEEEEE9match_impEv(ptr noundef nonnull align 8 dereferenceable(236) %this) local_unnamed_addr #5 comdat align 2 personality ptr @__gxx_personality_v0 {
invoke.cont:
  %e.i.i87 = alloca %"class.std::logic_error", align 8
  %e.i.i = alloca %"class.std::logic_error", align 8
  %init = alloca %"struct.boost::re_detail_107400::save_state_init", align 8
  call void @llvm.lifetime.start.p0(i64 8, ptr nonnull %init) #30
  %m_stack_base = getelementptr inbounds %"class.boost::re_detail_107400::perl_matcher", ptr %this, i64 0, i32 27
  %m_backup_state = getelementptr inbounds %"class.boost::re_detail_107400::perl_matcher", ptr %this, i64 0, i32 28
  store ptr %m_stack_base, ptr %init, align 8, !tbaa !158
  %call.i = tail call noundef ptr @_ZN5boost16re_detail_10740013get_mem_blockEv()
  store ptr %call.i, ptr %m_stack_base, align 8, !tbaa !53
  %incdec.ptr.i = getelementptr inbounds i8, ptr %call.i, i64 4088
  store ptr %incdec.ptr.i, ptr %m_backup_state, align 8, !tbaa !53
  store i32 0, ptr %incdec.ptr.i, align 8, !tbaa !31
  %used_block_count = getelementptr inbounds %"class.boost::re_detail_107400::perl_matcher", ptr %this, i64 0, i32 29
  store i32 1024, ptr %used_block_count, align 8, !tbaa !160
  %base = getelementptr inbounds %"class.boost::re_detail_107400::perl_matcher", ptr %this, i64 0, i32 3
  %0 = load ptr, ptr %base, align 8, !tbaa !101
  %position = getelementptr inbounds %"class.boost::re_detail_107400::perl_matcher", ptr %this, i64 0, i32 5
  store ptr %0, ptr %position, align 8, !tbaa !110
  %search_base = getelementptr inbounds %"class.boost::re_detail_107400::perl_matcher", ptr %this, i64 0, i32 7
  store ptr %0, ptr %search_base, align 8, !tbaa !161
  %state_count = getelementptr inbounds %"class.boost::re_detail_107400::perl_matcher", ptr %this, i64 0, i32 14
  store i64 0, ptr %state_count, align 8, !tbaa !162
  %m_match_flags = getelementptr inbounds %"class.boost::re_detail_107400::perl_matcher", ptr %this, i64 0, i32 12
  %1 = load i32, ptr %m_match_flags, align 8, !tbaa !144
  %or.i.i = or i32 %1, 32768
  store i32 %or.i.i, ptr %m_match_flags, align 8, !tbaa !144
  %m_presult = getelementptr inbounds %"class.boost::re_detail_107400::perl_matcher", ptr %this, i64 0, i32 2
  %2 = load ptr, ptr %m_presult, align 8, !tbaa !146
  %and.i = and i32 %1, 262144
  %tobool.not = icmp eq i32 %and.i, 0
  br i1 %tobool.not, label %cond.false, label %cond.end

cond.false:                                       ; preds = %invoke.cont
  %re = getelementptr inbounds %"class.boost::re_detail_107400::perl_matcher", ptr %this, i64 0, i32 9
  %3 = load ptr, ptr %re, align 8, !tbaa !139
  %4 = load ptr, ptr %3, align 8, !tbaa !112
  %tobool.not.i = icmp eq ptr %4, null
  br i1 %tobool.not.i, label %cond.end, label %cond.true.i

cond.true.i:                                      ; preds = %cond.false
  %m_mark_count.i.i = getelementptr inbounds %"struct.boost::re_detail_107400::regex_data", ptr %4, i64 0, i32 6
  %5 = load i64, ptr %m_mark_count.i.i, align 8, !tbaa !163
  br label %cond.end

cond.end:                                         ; preds = %cond.true.i, %cond.false, %invoke.cont
  %cond = phi i64 [ 1, %invoke.cont ], [ %5, %cond.true.i ], [ 1, %cond.false ]
  %last = getelementptr inbounds %"class.boost::re_detail_107400::perl_matcher", ptr %this, i64 0, i32 4
  %6 = load ptr, ptr %last, align 8, !tbaa !109
  invoke void @_ZN5boost13match_resultsIPKcSaINS_9sub_matchIS2_EEEE8set_sizeEmS2_S2_(ptr noundef nonnull align 8 dereferenceable(77) %2, i64 noundef %cond, ptr noundef %0, ptr noundef %6)
          to label %invoke.cont8 unwind label %lpad

invoke.cont8:                                     ; preds = %cond.end
  %7 = load ptr, ptr %m_presult, align 8, !tbaa !146
  %8 = load ptr, ptr %base, align 8, !tbaa !101
  %m_base.i = getelementptr inbounds %"class.boost::match_results", ptr %7, i64 0, i32 1
  store ptr %8, ptr %m_base.i, align 8, !tbaa !164
  %re13 = getelementptr inbounds %"class.boost::re_detail_107400::perl_matcher", ptr %this, i64 0, i32 9
  %9 = load ptr, ptr %re13, align 8, !tbaa !139
  %10 = load ptr, ptr %9, align 8, !tbaa !112, !noalias !165
  %pn3.i.i = getelementptr inbounds %"class.boost::shared_ptr", ptr %9, i64 0, i32 1
  %11 = load ptr, ptr %pn3.i.i, align 8, !tbaa !97, !noalias !165
  %cmp.not.i.i.i = icmp eq ptr %11, null
  br i1 %cmp.not.i.i.i, label %_ZN5boost10shared_ptrINS_16re_detail_10740020named_subexpressionsEEC2ERKS3_.exit.i.i, label %if.then.i.i.i.i

if.then.i.i.i.i:                                  ; preds = %invoke.cont8
  %use_count_.i.i.i.i = getelementptr inbounds %"class.boost::detail::sp_counted_base", ptr %11, i64 0, i32 1
  %12 = atomicrmw add ptr %use_count_.i.i.i.i, i32 1 monotonic, align 4, !noalias !165
  %13 = atomicrmw add ptr %use_count_.i.i.i.i, i32 1 monotonic, align 4
  br label %_ZN5boost10shared_ptrINS_16re_detail_10740020named_subexpressionsEEC2ERKS3_.exit.i.i

_ZN5boost10shared_ptrINS_16re_detail_10740020named_subexpressionsEEC2ERKS3_.exit.i.i: ; preds = %if.then.i.i.i.i, %invoke.cont8
  %m_named_subs.i115 = getelementptr inbounds %"class.boost::match_results", ptr %7, i64 0, i32 3
  store ptr %10, ptr %m_named_subs.i115, align 8, !tbaa !53
  %pn3.i3.i.i = getelementptr inbounds %"class.boost::match_results", ptr %7, i64 0, i32 3, i32 1
  %14 = load ptr, ptr %pn3.i3.i.i, align 8, !tbaa !97
  store ptr %11, ptr %pn3.i3.i.i, align 8, !tbaa !97
  %cmp.not.i.i5.i.i = icmp eq ptr %14, null
  br i1 %cmp.not.i.i5.i.i, label %_ZN5boost13match_resultsIPKcSaINS_9sub_matchIS2_EEEE14set_named_subsENS_10shared_ptrINS_16re_detail_10740020named_subexpressionsEEE.exit, label %if.then.i.i6.i.i

if.then.i.i6.i.i:                                 ; preds = %_ZN5boost10shared_ptrINS_16re_detail_10740020named_subexpressionsEEC2ERKS3_.exit.i.i
  %use_count_.i.i.i7.i.i = getelementptr inbounds %"class.boost::detail::sp_counted_base", ptr %14, i64 0, i32 1
  %15 = atomicrmw sub ptr %use_count_.i.i.i7.i.i, i32 1 acq_rel, align 4
  %cmp.i.i.i.i.i = icmp eq i32 %15, 1
  br i1 %cmp.i.i.i.i.i, label %if.then.i.i.i.i.i, label %_ZN5boost13match_resultsIPKcSaINS_9sub_matchIS2_EEEE14set_named_subsENS_10shared_ptrINS_16re_detail_10740020named_subexpressionsEEE.exit

if.then.i.i.i.i.i:                                ; preds = %if.then.i.i6.i.i
  %vtable.i.i.i.i.i = load ptr, ptr %14, align 8, !tbaa !7
  %vfn.i.i.i.i.i = getelementptr inbounds ptr, ptr %vtable.i.i.i.i.i, i64 2
  %16 = load ptr, ptr %vfn.i.i.i.i.i, align 8
  invoke void %16(ptr noundef nonnull align 8 dereferenceable(16) %14)
          to label %.noexc.i.i.i.i unwind label %terminate.lpad.i.i.i.i

.noexc.i.i.i.i:                                   ; preds = %if.then.i.i.i.i.i
  %weak_count_.i.i.i.i.i.i = getelementptr inbounds %"class.boost::detail::sp_counted_base", ptr %14, i64 0, i32 2
  %17 = atomicrmw sub ptr %weak_count_.i.i.i.i.i.i, i32 1 acq_rel, align 4
  %cmp.i.i.i.i.i.i = icmp eq i32 %17, 1
  br i1 %cmp.i.i.i.i.i.i, label %if.then.i.i.i.i.i.i, label %_ZN5boost13match_resultsIPKcSaINS_9sub_matchIS2_EEEE14set_named_subsENS_10shared_ptrINS_16re_detail_10740020named_subexpressionsEEE.exit

if.then.i.i.i.i.i.i:                              ; preds = %.noexc.i.i.i.i
  %vtable.i.i.i.i.i.i = load ptr, ptr %14, align 8, !tbaa !7
  %vfn.i.i.i.i.i.i = getelementptr inbounds ptr, ptr %vtable.i.i.i.i.i.i, i64 3
  %18 = load ptr, ptr %vfn.i.i.i.i.i.i, align 8
  invoke void %18(ptr noundef nonnull align 8 dereferenceable(16) %14)
          to label %_ZN5boost13match_resultsIPKcSaINS_9sub_matchIS2_EEEE14set_named_subsENS_10shared_ptrINS_16re_detail_10740020named_subexpressionsEEE.exit unwind label %terminate.lpad.i.i.i.i

terminate.lpad.i.i.i.i:                           ; preds = %if.then.i.i.i.i.i.i, %if.then.i.i.i.i.i
  %19 = landingpad { ptr, i32 }
          catch ptr null
  %20 = extractvalue { ptr, i32 } %19, 0
  tail call void @__clang_call_terminate(ptr %20) #32
  unreachable

_ZN5boost13match_resultsIPKcSaINS_9sub_matchIS2_EEEE14set_named_subsENS_10shared_ptrINS_16re_detail_10740020named_subexpressionsEEE.exit: ; preds = %if.then.i.i.i.i.i.i, %.noexc.i.i.i.i, %if.then.i.i6.i.i, %_ZN5boost10shared_ptrINS_16re_detail_10740020named_subexpressionsEEC2ERKS3_.exit.i.i
  br i1 %cmp.not.i.i.i, label %_ZN5boost10shared_ptrINS_16re_detail_10740020named_subexpressionsEED2Ev.exit, label %if.then.i.i

if.then.i.i:                                      ; preds = %_ZN5boost13match_resultsIPKcSaINS_9sub_matchIS2_EEEE14set_named_subsENS_10shared_ptrINS_16re_detail_10740020named_subexpressionsEEE.exit
  %use_count_.i.i.i = getelementptr inbounds %"class.boost::detail::sp_counted_base", ptr %11, i64 0, i32 1
  %21 = atomicrmw sub ptr %use_count_.i.i.i, i32 1 acq_rel, align 4
  %cmp.i.i.i = icmp eq i32 %21, 1
  br i1 %cmp.i.i.i, label %if.then.i.i.i49, label %_ZN5boost10shared_ptrINS_16re_detail_10740020named_subexpressionsEED2Ev.exit

if.then.i.i.i49:                                  ; preds = %if.then.i.i
  %vtable.i.i.i = load ptr, ptr %11, align 8, !tbaa !7
  %vfn.i.i.i = getelementptr inbounds ptr, ptr %vtable.i.i.i, i64 2
  %22 = load ptr, ptr %vfn.i.i.i, align 8
  invoke void %22(ptr noundef nonnull align 8 dereferenceable(16) %11)
          to label %.noexc.i.i unwind label %terminate.lpad.i.i

.noexc.i.i:                                       ; preds = %if.then.i.i.i49
  %weak_count_.i.i.i.i = getelementptr inbounds %"class.boost::detail::sp_counted_base", ptr %11, i64 0, i32 2
  %23 = atomicrmw sub ptr %weak_count_.i.i.i.i, i32 1 acq_rel, align 4
  %cmp.i.i.i.i = icmp eq i32 %23, 1
  br i1 %cmp.i.i.i.i, label %if.then.i.i.i.i50, label %_ZN5boost10shared_ptrINS_16re_detail_10740020named_subexpressionsEED2Ev.exit

if.then.i.i.i.i50:                                ; preds = %.noexc.i.i
  %vtable.i.i.i.i = load ptr, ptr %11, align 8, !tbaa !7
  %vfn.i.i.i.i = getelementptr inbounds ptr, ptr %vtable.i.i.i.i, i64 3
  %24 = load ptr, ptr %vfn.i.i.i.i, align 8
  invoke void %24(ptr noundef nonnull align 8 dereferenceable(16) %11)
          to label %_ZN5boost10shared_ptrINS_16re_detail_10740020named_subexpressionsEED2Ev.exit unwind label %terminate.lpad.i.i

terminate.lpad.i.i:                               ; preds = %if.then.i.i.i.i50, %if.then.i.i.i49
  %25 = landingpad { ptr, i32 }
          catch ptr null
  %26 = extractvalue { ptr, i32 } %25, 0
  tail call void @__clang_call_terminate(ptr %26) #32
  unreachable

_ZN5boost10shared_ptrINS_16re_detail_10740020named_subexpressionsEED2Ev.exit: ; preds = %if.then.i.i.i.i50, %.noexc.i.i, %if.then.i.i, %_ZN5boost13match_resultsIPKcSaINS_9sub_matchIS2_EEEE14set_named_subsENS_10shared_ptrINS_16re_detail_10740020named_subexpressionsEEE.exit
  %27 = load i32, ptr %m_match_flags, align 8, !tbaa !138
  %and.i51 = and i32 %27, 131072
  %tobool19.not = icmp eq i32 %and.i51, 0
  br i1 %tobool19.not, label %if.end, label %if.then

if.then:                                          ; preds = %_ZN5boost10shared_ptrINS_16re_detail_10740020named_subexpressionsEED2Ev.exit
  %28 = load ptr, ptr %m_presult, align 8, !tbaa !146
  %29 = load ptr, ptr %this, align 8, !tbaa !145
  %call.i5276 = invoke noundef nonnull align 8 dereferenceable(24) ptr @_ZNSt6vectorIN5boost9sub_matchIPKcEESaIS4_EEaSERKS6_(ptr noundef nonnull align 8 dereferenceable(24) %29, ptr noundef nonnull align 8 dereferenceable(24) %28)
          to label %call.i52.noexc unwind label %lpad

call.i52.noexc:                                   ; preds = %if.then
  %m_named_subs.i53 = getelementptr inbounds %"class.boost::match_results", ptr %28, i64 0, i32 3
  %m_named_subs3.i = getelementptr inbounds %"class.boost::match_results", ptr %29, i64 0, i32 3
  %30 = load ptr, ptr %m_named_subs.i53, align 8, !tbaa !168
  %pn3.i.i.i54 = getelementptr inbounds %"class.boost::match_results", ptr %28, i64 0, i32 3, i32 1
  %31 = load ptr, ptr %pn3.i.i.i54, align 8, !tbaa !97
  %cmp.not.i.i.i.i55 = icmp eq ptr %31, null
  br i1 %cmp.not.i.i.i.i55, label %_ZN5boost10shared_ptrINS_16re_detail_10740020named_subexpressionsEEC2ERKS3_.exit.i.i58, label %if.then.i.i.i.i56

if.then.i.i.i.i56:                                ; preds = %call.i52.noexc
  %use_count_.i.i.i.i.i57 = getelementptr inbounds %"class.boost::detail::sp_counted_base", ptr %31, i64 0, i32 1
  %32 = atomicrmw add ptr %use_count_.i.i.i.i.i57, i32 1 monotonic, align 4
  br label %_ZN5boost10shared_ptrINS_16re_detail_10740020named_subexpressionsEEC2ERKS3_.exit.i.i58

_ZN5boost10shared_ptrINS_16re_detail_10740020named_subexpressionsEEC2ERKS3_.exit.i.i58: ; preds = %if.then.i.i.i.i56, %call.i52.noexc
  store ptr %30, ptr %m_named_subs3.i, align 8, !tbaa !53
  %pn3.i3.i.i59 = getelementptr inbounds %"class.boost::match_results", ptr %29, i64 0, i32 3, i32 1
  %33 = load ptr, ptr %pn3.i3.i.i59, align 8, !tbaa !97
  store ptr %31, ptr %pn3.i3.i.i59, align 8, !tbaa !97
  %cmp.not.i.i5.i.i60 = icmp eq ptr %33, null
  br i1 %cmp.not.i.i5.i.i60, label %_ZN5boost10shared_ptrINS_16re_detail_10740020named_subexpressionsEEaSERKS3_.exit.i, label %if.then.i.i6.i.i61

if.then.i.i6.i.i61:                               ; preds = %_ZN5boost10shared_ptrINS_16re_detail_10740020named_subexpressionsEEC2ERKS3_.exit.i.i58
  %use_count_.i.i.i7.i.i62 = getelementptr inbounds %"class.boost::detail::sp_counted_base", ptr %33, i64 0, i32 1
  %34 = atomicrmw sub ptr %use_count_.i.i.i7.i.i62, i32 1 acq_rel, align 4
  %cmp.i.i.i.i.i63 = icmp eq i32 %34, 1
  br i1 %cmp.i.i.i.i.i63, label %if.then.i.i.i.i.i66, label %_ZN5boost10shared_ptrINS_16re_detail_10740020named_subexpressionsEEaSERKS3_.exit.i

if.then.i.i.i.i.i66:                              ; preds = %if.then.i.i6.i.i61
  %vtable.i.i.i.i.i67 = load ptr, ptr %33, align 8, !tbaa !7
  %vfn.i.i.i.i.i68 = getelementptr inbounds ptr, ptr %vtable.i.i.i.i.i67, i64 2
  %35 = load ptr, ptr %vfn.i.i.i.i.i68, align 8
  invoke void %35(ptr noundef nonnull align 8 dereferenceable(16) %33)
          to label %.noexc.i.i.i.i70 unwind label %terminate.lpad.i.i.i.i69

.noexc.i.i.i.i70:                                 ; preds = %if.then.i.i.i.i.i66
  %weak_count_.i.i.i.i.i.i71 = getelementptr inbounds %"class.boost::detail::sp_counted_base", ptr %33, i64 0, i32 2
  %36 = atomicrmw sub ptr %weak_count_.i.i.i.i.i.i71, i32 1 acq_rel, align 4
  %cmp.i.i.i.i.i.i72 = icmp eq i32 %36, 1
  br i1 %cmp.i.i.i.i.i.i72, label %if.then.i.i.i.i.i.i73, label %_ZN5boost10shared_ptrINS_16re_detail_10740020named_subexpressionsEEaSERKS3_.exit.i

if.then.i.i.i.i.i.i73:                            ; preds = %.noexc.i.i.i.i70
  %vtable.i.i.i.i.i.i74 = load ptr, ptr %33, align 8, !tbaa !7
  %vfn.i.i.i.i.i.i75 = getelementptr inbounds ptr, ptr %vtable.i.i.i.i.i.i74, i64 3
  %37 = load ptr, ptr %vfn.i.i.i.i.i.i75, align 8
  invoke void %37(ptr noundef nonnull align 8 dereferenceable(16) %33)
          to label %_ZN5boost10shared_ptrINS_16re_detail_10740020named_subexpressionsEEaSERKS3_.exit.i unwind label %terminate.lpad.i.i.i.i69

terminate.lpad.i.i.i.i69:                         ; preds = %if.then.i.i.i.i.i.i73, %if.then.i.i.i.i.i66
  %38 = landingpad { ptr, i32 }
          catch ptr null
  %39 = extractvalue { ptr, i32 } %38, 0
  tail call void @__clang_call_terminate(ptr %39) #32
  unreachable

_ZN5boost10shared_ptrINS_16re_detail_10740020named_subexpressionsEEaSERKS3_.exit.i: ; preds = %if.then.i.i.i.i.i.i73, %.noexc.i.i.i.i70, %if.then.i.i6.i.i61, %_ZN5boost10shared_ptrINS_16re_detail_10740020named_subexpressionsEEC2ERKS3_.exit.i.i58
  %m_last_closed_paren.i = getelementptr inbounds %"class.boost::match_results", ptr %28, i64 0, i32 4
  %40 = load i32, ptr %m_last_closed_paren.i, align 8, !tbaa !169
  %m_last_closed_paren5.i = getelementptr inbounds %"class.boost::match_results", ptr %29, i64 0, i32 4
  store i32 %40, ptr %m_last_closed_paren5.i, align 8, !tbaa !169
  %m_is_singular.i = getelementptr inbounds %"class.boost::match_results", ptr %28, i64 0, i32 5
  %41 = load i8, ptr %m_is_singular.i, align 4, !tbaa !87, !range !49, !noundef !50
  %tobool.not.i64 = icmp eq i8 %41, 0
  %m_is_singular6.i = getelementptr inbounds %"class.boost::match_results", ptr %29, i64 0, i32 5
  store i8 %41, ptr %m_is_singular6.i, align 4, !tbaa !87
  br i1 %tobool.not.i64, label %if.then.i, label %if.end

if.then.i:                                        ; preds = %_ZN5boost10shared_ptrINS_16re_detail_10740020named_subexpressionsEEaSERKS3_.exit.i
  %m_base.i65 = getelementptr inbounds %"class.boost::match_results", ptr %28, i64 0, i32 1
  %m_base9.i = getelementptr inbounds %"class.boost::match_results", ptr %29, i64 0, i32 1
  %42 = load <2 x ptr>, ptr %m_base.i65, align 8, !tbaa !53
  store <2 x ptr> %42, ptr %m_base9.i, align 8, !tbaa !53
  %second.i.i = getelementptr inbounds %"class.boost::match_results", ptr %28, i64 0, i32 2, i32 0, i32 1
  %43 = load ptr, ptr %second.i.i, align 8, !tbaa !170
  %second3.i.i = getelementptr inbounds %"class.boost::match_results", ptr %29, i64 0, i32 2, i32 0, i32 1
  store ptr %43, ptr %second3.i.i, align 8, !tbaa !170
  %matched.i.i = getelementptr inbounds %"class.boost::match_results", ptr %28, i64 0, i32 2, i32 1
  %44 = load i8, ptr %matched.i.i, align 8, !tbaa !171, !range !49, !noundef !50
  %matched4.i.i = getelementptr inbounds %"class.boost::match_results", ptr %29, i64 0, i32 2, i32 1
  store i8 %44, ptr %matched4.i.i, align 8, !tbaa !171
  br label %if.end

lpad:                                             ; preds = %if.then.i102, %if.then.i86, %invoke.cont27, %invoke.cont24, %if.then, %cond.end
  %45 = landingpad { ptr, i32 }
          catch ptr null
  br label %lpad.body

lpad.body:                                        ; preds = %lpad.i.i103, %lpad.i.i, %lpad
  %eh.lpad-body = phi { ptr, i32 } [ %64, %lpad.i.i ], [ %45, %lpad ], [ %67, %lpad.i.i103 ]
  %46 = extractvalue { ptr, i32 } %eh.lpad-body, 0
  %47 = call ptr @__cxa_begin_catch(ptr %46) #30
  %m_recursive_result.i = getelementptr inbounds %"class.boost::re_detail_107400::perl_matcher", ptr %this, i64 0, i32 30
  %m_unwound_lookahead.i = getelementptr inbounds %"class.boost::re_detail_107400::perl_matcher", ptr %this, i64 0, i32 31
  %m_unwound_alt.i = getelementptr inbounds %"class.boost::re_detail_107400::perl_matcher", ptr %this, i64 0, i32 32
  %pstate.i = getelementptr inbounds %"class.boost::re_detail_107400::perl_matcher", ptr %this, i64 0, i32 11
  br label %while.cond

while.cond:                                       ; preds = %invoke.cont43, %lpad.body
  store i8 1, ptr %m_recursive_result.i, align 4, !tbaa !172
  store i8 0, ptr %m_unwound_lookahead.i, align 1, !tbaa !173
  store i8 0, ptr %m_unwound_alt.i, align 2, !tbaa !174
  br label %do.body.i

do.body.i:                                        ; preds = %call.i77.noexc, %while.cond
  %48 = load ptr, ptr %m_backup_state, align 8, !tbaa !175
  %49 = load i32, ptr %48, align 8, !tbaa !31
  %idxprom.i = zext i32 %49 to i64
  %arrayidx.i = getelementptr inbounds [19 x { i64, i64 }], ptr @_ZZN5boost16re_detail_10740012perl_matcherIPKcSaINS_9sub_matchIS3_EEENS_12regex_traitsIcNS_16cpp_regex_traitsIcEEEEE6unwindEbE14s_unwind_table, i64 0, i64 %idxprom.i
  %.unpack.i = load i64, ptr %arrayidx.i, align 16, !tbaa !31
  %50 = and i64 %.unpack.i, 1
  %memptr.isvirtual.not.i = icmp eq i64 %50, 0
  br i1 %memptr.isvirtual.not.i, label %memptr.nonvirtual.i, label %memptr.virtual.i

memptr.virtual.i:                                 ; preds = %do.body.i
  %vtable.i = load ptr, ptr %this, align 8, !tbaa !7
  %51 = getelementptr i8, ptr %vtable.i, i64 %.unpack.i
  %52 = getelementptr i8, ptr %51, i64 -1
  %memptr.virtualfn.i = load ptr, ptr %52, align 8, !nosanitize !50
  br label %memptr.end.i

memptr.nonvirtual.i:                              ; preds = %do.body.i
  %memptr.nonvirtualfn.i = inttoptr i64 %.unpack.i to ptr
  br label %memptr.end.i

memptr.end.i:                                     ; preds = %memptr.nonvirtual.i, %memptr.virtual.i
  %53 = phi ptr [ %memptr.virtualfn.i, %memptr.virtual.i ], [ %memptr.nonvirtualfn.i, %memptr.nonvirtual.i ]
  %54 = load i8, ptr %m_recursive_result.i, align 4, !tbaa !172, !range !49, !noundef !50
  %tobool4.i = icmp ne i8 %54, 0
  %call.i7778 = invoke noundef zeroext i1 %53(ptr noundef nonnull align 8 dereferenceable(236) %this, i1 noundef zeroext %tobool4.i)
          to label %call.i77.noexc unwind label %lpad42.loopexit

call.i77.noexc:                                   ; preds = %memptr.end.i
  br i1 %call.i7778, label %do.body.i, label %invoke.cont43, !llvm.loop !176

invoke.cont43:                                    ; preds = %call.i77.noexc
  %55 = load ptr, ptr %pstate.i, align 8, !tbaa !137
  %tobool7.i.not = icmp eq ptr %55, null
  br i1 %tobool7.i.not, label %while.end, label %while.cond, !llvm.loop !177

if.end:                                           ; preds = %if.then.i, %_ZN5boost10shared_ptrINS_16re_detail_10740020named_subexpressionsEEaSERKS3_.exit.i, %_ZN5boost10shared_ptrINS_16re_detail_10740020named_subexpressionsEED2Ev.exit
  %56 = load ptr, ptr %re13, align 8, !tbaa !139
  %57 = load ptr, ptr %56, align 8, !tbaa !112
  %tobool.not.i79 = icmp eq ptr %57, null
  br i1 %tobool.not.i79, label %invoke.cont24, label %cond.true.i80

cond.true.i80:                                    ; preds = %if.end
  %m_flags.i.i = getelementptr inbounds %"struct.boost::re_detail_107400::regex_data", ptr %57, i64 0, i32 2
  %58 = load i32, ptr %m_flags.i.i, align 8, !tbaa !142
  br label %invoke.cont24

invoke.cont24:                                    ; preds = %cond.true.i80, %if.end
  %cond.i81 = phi i32 [ %58, %cond.true.i80 ], [ 0, %if.end ]
  %59 = load i32, ptr %m_match_flags, align 8, !tbaa !138
  invoke void @_ZN5boost16re_detail_10740014verify_optionsEjNS_15regex_constants12_match_flagsE(i32 noundef %cond.i81, i32 noundef %59)
          to label %invoke.cont27 unwind label %lpad

invoke.cont27:                                    ; preds = %invoke.cont24
  %call29 = invoke noundef zeroext i1 @_ZN5boost16re_detail_10740012perl_matcherIPKcSaINS_9sub_matchIS3_EEENS_12regex_traitsIcNS_16cpp_regex_traitsIcEEEEE12match_prefixEv(ptr noundef nonnull align 8 dereferenceable(236) %this)
          to label %invoke.cont28 unwind label %lpad

invoke.cont28:                                    ; preds = %invoke.cont27
  br i1 %call29, label %if.end31, label %cleanup

if.end31:                                         ; preds = %invoke.cont28
  %60 = load ptr, ptr %this, align 8, !tbaa !145
  %m_is_singular.i82 = getelementptr inbounds %"class.boost::match_results", ptr %60, i64 0, i32 5
  %61 = load i8, ptr %m_is_singular.i82, align 4, !tbaa !87, !range !49, !noundef !50
  %tobool.not.i83 = icmp ne i8 %61, 0
  br i1 %tobool.not.i83, label %land.lhs.true.i, label %entry.if.end_crit_edge.i

entry.if.end_crit_edge.i:                         ; preds = %if.end31
  %_M_finish.i.phi.trans.insert.i = getelementptr inbounds %"struct.std::_Vector_base<boost::sub_match<const char *>, std::allocator<boost::sub_match<const char *>>>::_Vector_impl_data", ptr %60, i64 0, i32 1
  %.pre.i = load ptr, ptr %_M_finish.i.phi.trans.insert.i, align 8, !tbaa !53
  %.pre14.i = load ptr, ptr %60, align 8, !tbaa !53
  br label %invoke.cont33

land.lhs.true.i:                                  ; preds = %if.end31
  %62 = load ptr, ptr %60, align 8, !tbaa !53
  %_M_finish.i.i.i = getelementptr inbounds %"struct.std::_Vector_base<boost::sub_match<const char *>, std::allocator<boost::sub_match<const char *>>>::_Vector_impl_data", ptr %60, i64 0, i32 1
  %63 = load ptr, ptr %_M_finish.i.i.i, align 8, !tbaa !53
  %cmp.i.i.i84 = icmp eq ptr %62, %63
  br i1 %cmp.i.i.i84, label %if.then.i86, label %invoke.cont33

if.then.i86:                                      ; preds = %land.lhs.true.i
  call void @llvm.lifetime.start.p0(i64 16, ptr nonnull %e.i.i) #30
  invoke void @_ZNSt11logic_errorC1EPKc(ptr noundef nonnull align 8 dereferenceable(16) %e.i.i, ptr noundef nonnull @.str.24)
          to label %.noexc unwind label %lpad

.noexc:                                           ; preds = %if.then.i86
  invoke void @_ZN5boost15throw_exceptionISt11logic_errorEEvRKT_(ptr noundef nonnull align 8 dereferenceable(16) %e.i.i) #31
          to label %invoke.cont.i.i unwind label %lpad.i.i

invoke.cont.i.i:                                  ; preds = %.noexc
  unreachable

lpad.i.i:                                         ; preds = %.noexc
  %64 = landingpad { ptr, i32 }
          catch ptr null
  call void @_ZNSt11logic_errorD1Ev(ptr noundef nonnull align 8 dereferenceable(16) %e.i.i) #30
  call void @llvm.lifetime.end.p0(i64 16, ptr nonnull %e.i.i) #30
  br label %lpad.body

invoke.cont33:                                    ; preds = %land.lhs.true.i, %entry.if.end_crit_edge.i
  %.pre14.i108 = phi ptr [ %.pre14.i, %entry.if.end_crit_edge.i ], [ %62, %land.lhs.true.i ]
  %.pre.i107 = phi ptr [ %.pre.i, %entry.if.end_crit_edge.i ], [ %63, %land.lhs.true.i ]
  %sub.ptr.lhs.cast.i.i = ptrtoint ptr %.pre.i107 to i64
  %sub.ptr.rhs.cast.i.i = ptrtoint ptr %.pre14.i108 to i64
  %sub.ptr.sub.i.i = sub i64 %sub.ptr.lhs.cast.i.i, %sub.ptr.rhs.cast.i.i
  %sub.ptr.div.i.i = sdiv exact i64 %sub.ptr.sub.i.i, 24
  %conv.i = trunc i64 %sub.ptr.div.i.i to i32
  %cmp.i = icmp sgt i32 %conv.i, 2
  %add.ptr.i.i = getelementptr inbounds %"struct.boost::sub_match", ptr %.pre14.i108, i64 2
  %m_null.i85 = getelementptr inbounds %"class.boost::match_results", ptr %60, i64 0, i32 2
  %retval.0.i = select i1 %cmp.i, ptr %add.ptr.i.i, ptr %m_null.i85
  %second = getelementptr inbounds %"struct.std::pair.25", ptr %retval.0.i, i64 0, i32 1
  %65 = load ptr, ptr %second, align 8, !tbaa !170
  %66 = load ptr, ptr %last, align 8, !tbaa !109
  %cmp36 = icmp eq ptr %65, %66
  br i1 %cmp36, label %land.rhs, label %cleanup

land.rhs:                                         ; preds = %invoke.cont33
  %cmp.i.i.i92 = icmp eq ptr %.pre14.i108, %.pre.i107
  %or.cond = and i1 %tobool.not.i83, %cmp.i.i.i92
  br i1 %or.cond, label %if.then.i102, label %invoke.cont38

if.then.i102:                                     ; preds = %land.rhs
  call void @llvm.lifetime.start.p0(i64 16, ptr nonnull %e.i.i87) #30
  invoke void @_ZNSt11logic_errorC1EPKc(ptr noundef nonnull align 8 dereferenceable(16) %e.i.i87, ptr noundef nonnull @.str.24)
          to label %.noexc109 unwind label %lpad

.noexc109:                                        ; preds = %if.then.i102
  invoke void @_ZN5boost15throw_exceptionISt11logic_errorEEvRKT_(ptr noundef nonnull align 8 dereferenceable(16) %e.i.i87) #31
          to label %invoke.cont.i.i104 unwind label %lpad.i.i103

invoke.cont.i.i104:                               ; preds = %.noexc109
  unreachable

lpad.i.i103:                                      ; preds = %.noexc109
  %67 = landingpad { ptr, i32 }
          catch ptr null
  call void @_ZNSt11logic_errorD1Ev(ptr noundef nonnull align 8 dereferenceable(16) %e.i.i87) #30
  call void @llvm.lifetime.end.p0(i64 16, ptr nonnull %e.i.i87) #30
  br label %lpad.body

invoke.cont38:                                    ; preds = %land.rhs
  %68 = load ptr, ptr %retval.0.i, align 8, !tbaa !178
  %69 = load ptr, ptr %base, align 8, !tbaa !101
  %cmp41 = icmp eq ptr %68, %69
  br label %cleanup

lpad42.loopexit:                                  ; preds = %memptr.end.i
  %lpad.loopexit = landingpad { ptr, i32 }
          cleanup
  br label %lpad42

lpad42.loopexit.split-lp:                         ; preds = %while.end
  %lpad.loopexit.split-lp = landingpad { ptr, i32 }
          cleanup
  br label %lpad42

lpad42:                                           ; preds = %lpad42.loopexit.split-lp, %lpad42.loopexit
  %lpad.phi = phi { ptr, i32 } [ %lpad.loopexit, %lpad42.loopexit ], [ %lpad.loopexit.split-lp, %lpad42.loopexit.split-lp ]
  invoke void @__cxa_end_catch()
          to label %invoke.cont45 unwind label %terminate.lpad

while.end:                                        ; preds = %invoke.cont43
  invoke void @__cxa_rethrow() #31
          to label %unreachable unwind label %lpad42.loopexit.split-lp

invoke.cont45:                                    ; preds = %lpad42
  call void @_ZN5boost16re_detail_10740015save_state_initD2Ev(ptr noundef nonnull align 8 dereferenceable(8) %init) #30
  call void @llvm.lifetime.end.p0(i64 8, ptr nonnull %init) #30
  resume { ptr, i32 } %lpad.phi

cleanup:                                          ; preds = %invoke.cont38, %invoke.cont33, %invoke.cont28
  %retval.0 = phi i1 [ false, %invoke.cont28 ], [ false, %invoke.cont33 ], [ %cmp41, %invoke.cont38 ]
  %70 = load ptr, ptr %init, align 8, !tbaa !158
  %71 = load ptr, ptr %70, align 8, !tbaa !53
  invoke void @_ZN5boost16re_detail_10740013put_mem_blockEPv(ptr noundef %71)
          to label %_ZN5boost16re_detail_10740015save_state_initD2Ev.exit unwind label %terminate.lpad.i

terminate.lpad.i:                                 ; preds = %cleanup
  %72 = landingpad { ptr, i32 }
          catch ptr null
  %73 = extractvalue { ptr, i32 } %72, 0
  tail call void @__clang_call_terminate(ptr %73) #32
  unreachable

_ZN5boost16re_detail_10740015save_state_initD2Ev.exit: ; preds = %cleanup
  store ptr null, ptr %70, align 8, !tbaa !53
  call void @llvm.lifetime.end.p0(i64 8, ptr nonnull %init) #30
  ret i1 %retval.0

terminate.lpad:                                   ; preds = %lpad42
  %74 = landingpad { ptr, i32 }
          catch ptr null
  %75 = extractvalue { ptr, i32 } %74, 0
  call void @__clang_call_terminate(ptr %75) #32
  unreachable

unreachable:                                      ; preds = %while.end
  unreachable
}

; Function Attrs: mustprogress uwtable
define linkonce_odr void @_ZN5boost13match_resultsIPKcSaINS_9sub_matchIS2_EEEE8set_sizeEmS2_S2_(ptr noundef nonnull align 8 dereferenceable(77) %this, i64 noundef %n, ptr noundef %i, ptr noundef %j) local_unnamed_addr #5 comdat align 2 personality ptr @__gxx_personality_v0 {
entry:
  %v = alloca %"struct.boost::sub_match", align 8
  call void @llvm.lifetime.start.p0(i64 24, ptr nonnull %v) #30
  store ptr %j, ptr %v, align 8, !tbaa !178
  %second.i.i = getelementptr inbounds %"struct.std::pair.25", ptr %v, i64 0, i32 1
  store ptr %j, ptr %second.i.i, align 8, !tbaa !170
  %matched.i = getelementptr inbounds %"struct.boost::sub_match", ptr %v, i64 0, i32 1
  store i8 0, ptr %matched.i, align 8, !tbaa !171
  %_M_finish.i = getelementptr inbounds %"struct.std::_Vector_base<boost::sub_match<const char *>, std::allocator<boost::sub_match<const char *>>>::_Vector_impl_data", ptr %this, i64 0, i32 1
  %0 = load ptr, ptr %_M_finish.i, align 8, !tbaa !53
  %1 = load ptr, ptr %this, align 8, !tbaa !53
  %sub.ptr.lhs.cast.i = ptrtoint ptr %0 to i64
  %sub.ptr.rhs.cast.i = ptrtoint ptr %1 to i64
  %sub.ptr.sub.i = sub i64 %sub.ptr.lhs.cast.i, %sub.ptr.rhs.cast.i
  %sub.ptr.div.i = sdiv exact i64 %sub.ptr.sub.i, 24
  %add = add i64 %n, 2
  %cmp = icmp ugt i64 %sub.ptr.div.i, %add
  br i1 %cmp, label %if.then, label %if.else

if.then:                                          ; preds = %entry
  %add.ptr.i = getelementptr inbounds %"struct.boost::sub_match", ptr %1, i64 %n
  %add.ptr.i62 = getelementptr inbounds %"struct.boost::sub_match", ptr %add.ptr.i, i64 2
  %add.ptr.i22.i = getelementptr inbounds %"struct.boost::sub_match", ptr %1, i64 %sub.ptr.div.i
  %cmp.i.not.i.i = icmp eq ptr %add.ptr.i62, %0
  br i1 %cmp.i.not.i.i, label %_ZNSt6vectorIN5boost9sub_matchIPKcEESaIS4_EE5eraseEN9__gnu_cxx17__normal_iteratorIPKS4_S6_EESB_.exit, label %if.then.i.i

if.then.i.i:                                      ; preds = %if.then
  %cmp.i23.not.i.i = icmp eq ptr %0, %add.ptr.i22.i
  br i1 %cmp.i23.not.i.i, label %if.end.i.i, label %if.then6.i.i

if.then6.i.i:                                     ; preds = %if.then.i.i
  %sub.ptr.rhs.cast.i.i.i.i.i.i.i = ptrtoint ptr %add.ptr.i22.i to i64
  %sub.ptr.sub.i.i.i.i.i.i.i = sub i64 %sub.ptr.lhs.cast.i, %sub.ptr.rhs.cast.i.i.i.i.i.i.i
  %cmp7.i.i.i.i.i.i.i = icmp sgt i64 %sub.ptr.sub.i.i.i.i.i.i.i, 0
  br i1 %cmp7.i.i.i.i.i.i.i, label %for.body.preheader.i.i.i.i.i.i.i, label %if.end.i.i

for.body.preheader.i.i.i.i.i.i.i:                 ; preds = %if.then6.i.i
  %sub.ptr.div11.i.i.i.i.i.i.i = udiv exact i64 %sub.ptr.sub.i.i.i.i.i.i.i, 24
  br label %for.body.i.i.i.i.i.i.i

for.body.i.i.i.i.i.i.i:                           ; preds = %for.body.i.i.i.i.i.i.i, %for.body.preheader.i.i.i.i.i.i.i
  %__n.010.i.i.i.i.i.i.i = phi i64 [ %dec.i.i.i.i.i.i.i, %for.body.i.i.i.i.i.i.i ], [ %sub.ptr.div11.i.i.i.i.i.i.i, %for.body.preheader.i.i.i.i.i.i.i ]
  %__result.addr.09.i.i.i.i.i.i.i = phi ptr [ %incdec.ptr1.i.i.i.i.i.i.i, %for.body.i.i.i.i.i.i.i ], [ %add.ptr.i62, %for.body.preheader.i.i.i.i.i.i.i ]
  %__first.addr.08.i.i.i.i.i.i.i = phi ptr [ %incdec.ptr.i.i.i.i.i.i.i, %for.body.i.i.i.i.i.i.i ], [ %add.ptr.i22.i, %for.body.preheader.i.i.i.i.i.i.i ]
  %2 = load <2 x ptr>, ptr %__first.addr.08.i.i.i.i.i.i.i, align 8, !tbaa !53
  store <2 x ptr> %2, ptr %__result.addr.09.i.i.i.i.i.i.i, align 8, !tbaa !53
  %matched.i.i.i.i.i.i.i.i = getelementptr inbounds %"struct.boost::sub_match", ptr %__first.addr.08.i.i.i.i.i.i.i, i64 0, i32 1
  %3 = load i8, ptr %matched.i.i.i.i.i.i.i.i, align 8, !tbaa !171, !range !49, !noundef !50
  %matched4.i.i.i.i.i.i.i.i = getelementptr inbounds %"struct.boost::sub_match", ptr %__result.addr.09.i.i.i.i.i.i.i, i64 0, i32 1
  store i8 %3, ptr %matched4.i.i.i.i.i.i.i.i, align 8, !tbaa !171
  %incdec.ptr.i.i.i.i.i.i.i = getelementptr inbounds %"struct.boost::sub_match", ptr %__first.addr.08.i.i.i.i.i.i.i, i64 1
  %incdec.ptr1.i.i.i.i.i.i.i = getelementptr inbounds %"struct.boost::sub_match", ptr %__result.addr.09.i.i.i.i.i.i.i, i64 1
  %dec.i.i.i.i.i.i.i = add nsw i64 %__n.010.i.i.i.i.i.i.i, -1
  %cmp.i.i.i.i.i.i.i = icmp ugt i64 %__n.010.i.i.i.i.i.i.i, 1
  br i1 %cmp.i.i.i.i.i.i.i, label %for.body.i.i.i.i.i.i.i, label %if.end.loopexit.i.i, !llvm.loop !179

if.end.loopexit.i.i:                              ; preds = %for.body.i.i.i.i.i.i.i
  %.pre.i.i = load ptr, ptr %_M_finish.i, align 8, !tbaa !53
  %.pre31.i.i = ptrtoint ptr %.pre.i.i to i64
  br label %if.end.i.i

if.end.i.i:                                       ; preds = %if.end.loopexit.i.i, %if.then6.i.i, %if.then.i.i
  %sub.ptr.lhs.cast.i.pre-phi.i.i = phi i64 [ %.pre31.i.i, %if.end.loopexit.i.i ], [ %sub.ptr.lhs.cast.i, %if.then6.i.i ], [ %sub.ptr.lhs.cast.i, %if.then.i.i ]
  %sub.ptr.rhs.cast.i.pre-phi.i.i = phi i64 [ %sub.ptr.rhs.cast.i.i.i.i.i.i.i, %if.end.loopexit.i.i ], [ %sub.ptr.rhs.cast.i.i.i.i.i.i.i, %if.then6.i.i ], [ %sub.ptr.lhs.cast.i, %if.then.i.i ]
  %4 = phi ptr [ %.pre.i.i, %if.end.loopexit.i.i ], [ %0, %if.then6.i.i ], [ %0, %if.then.i.i ]
  %sub.ptr.sub.i.i.i = sub i64 %sub.ptr.lhs.cast.i.pre-phi.i.i, %sub.ptr.rhs.cast.i.pre-phi.i.i
  %sub.ptr.div.i.i.i = sdiv exact i64 %sub.ptr.sub.i.i.i, 24
  %add.ptr.i23.i = getelementptr inbounds %"struct.boost::sub_match", ptr %add.ptr.i62, i64 %sub.ptr.div.i.i.i
  %tobool.not.i.i.i = icmp eq ptr %4, %add.ptr.i23.i
  br i1 %tobool.not.i.i.i, label %_ZNSt6vectorIN5boost9sub_matchIPKcEESaIS4_EE5eraseEN9__gnu_cxx17__normal_iteratorIPKS4_S6_EESB_.exit, label %invoke.cont.i.i.i

invoke.cont.i.i.i:                                ; preds = %if.end.i.i
  store ptr %add.ptr.i23.i, ptr %_M_finish.i, align 8, !tbaa !180
  br label %_ZNSt6vectorIN5boost9sub_matchIPKcEESaIS4_EE5eraseEN9__gnu_cxx17__normal_iteratorIPKS4_S6_EESB_.exit

_ZNSt6vectorIN5boost9sub_matchIPKcEESaIS4_EE5eraseEN9__gnu_cxx17__normal_iteratorIPKS4_S6_EESB_.exit: ; preds = %invoke.cont.i.i.i, %if.end.i.i, %if.then
  %5 = phi ptr [ %0, %if.then ], [ %4, %if.end.i.i ], [ %add.ptr.i23.i, %invoke.cont.i.i.i ]
  %6 = load ptr, ptr %this, align 8, !tbaa !53
  %cmp.not3.i.i.i.i = icmp eq ptr %6, %5
  br i1 %cmp.not3.i.i.i.i, label %if.end54, label %for.body.i.i.i.i

for.body.i.i.i.i:                                 ; preds = %_ZNSt6vectorIN5boost9sub_matchIPKcEESaIS4_EE5eraseEN9__gnu_cxx17__normal_iteratorIPKS4_S6_EESB_.exit, %for.body.i.i.i.i
  %__first.addr.04.i.i.i.i = phi ptr [ %incdec.ptr.i.i.i.i, %for.body.i.i.i.i ], [ %6, %_ZNSt6vectorIN5boost9sub_matchIPKcEESaIS4_EE5eraseEN9__gnu_cxx17__normal_iteratorIPKS4_S6_EESB_.exit ]
  store ptr %j, ptr %__first.addr.04.i.i.i.i, align 8, !tbaa !178
  %second3.i.i.i.i.i = getelementptr inbounds %"struct.std::pair.25", ptr %__first.addr.04.i.i.i.i, i64 0, i32 1
  store ptr %j, ptr %second3.i.i.i.i.i, align 8, !tbaa !170
  %matched4.i.i.i.i.i = getelementptr inbounds %"struct.boost::sub_match", ptr %__first.addr.04.i.i.i.i, i64 0, i32 1
  store i8 0, ptr %matched4.i.i.i.i.i, align 8, !tbaa !171
  %incdec.ptr.i.i.i.i = getelementptr inbounds %"struct.boost::sub_match", ptr %__first.addr.04.i.i.i.i, i64 1
  %cmp.not.i.i.i.i = icmp eq ptr %incdec.ptr.i.i.i.i, %5
  br i1 %cmp.not.i.i.i.i, label %if.end54, label %for.body.i.i.i.i, !llvm.loop !181

if.else:                                          ; preds = %entry
  %cmp.not3.i.i.i.i66 = icmp eq ptr %1, %0
  br i1 %cmp.not3.i.i.i.i66, label %_ZSt4fillIN9__gnu_cxx17__normal_iteratorIPN5boost9sub_matchIPKcEESt6vectorIS6_SaIS6_EEEES6_EvT_SC_RKT0_.exit79, label %for.body.i.i.i.i73

for.body.i.i.i.i73:                               ; preds = %if.else, %for.body.i.i.i.i73
  %__first.addr.04.i.i.i.i74 = phi ptr [ %incdec.ptr.i.i.i.i77, %for.body.i.i.i.i73 ], [ %1, %if.else ]
  store ptr %j, ptr %__first.addr.04.i.i.i.i74, align 8, !tbaa !178
  %second3.i.i.i.i.i75 = getelementptr inbounds %"struct.std::pair.25", ptr %__first.addr.04.i.i.i.i74, i64 0, i32 1
  store ptr %j, ptr %second3.i.i.i.i.i75, align 8, !tbaa !170
  %matched4.i.i.i.i.i76 = getelementptr inbounds %"struct.boost::sub_match", ptr %__first.addr.04.i.i.i.i74, i64 0, i32 1
  store i8 0, ptr %matched4.i.i.i.i.i76, align 8, !tbaa !171
  %incdec.ptr.i.i.i.i77 = getelementptr inbounds %"struct.boost::sub_match", ptr %__first.addr.04.i.i.i.i74, i64 1
  %cmp.not.i.i.i.i78 = icmp eq ptr %incdec.ptr.i.i.i.i77, %0
  br i1 %cmp.not.i.i.i.i78, label %_ZSt4fillIN9__gnu_cxx17__normal_iteratorIPN5boost9sub_matchIPKcEESt6vectorIS6_SaIS6_EEEES6_EvT_SC_RKT0_.exit79, label %for.body.i.i.i.i73, !llvm.loop !182

_ZSt4fillIN9__gnu_cxx17__normal_iteratorIPN5boost9sub_matchIPKcEESt6vectorIS6_SaIS6_EEEES6_EvT_SC_RKT0_.exit79: ; preds = %for.body.i.i.i.i73, %if.else
  %cmp41.not = icmp eq i64 %add, %sub.ptr.div.i
  br i1 %cmp41.not, label %if.end54, label %if.then42

if.then42:                                        ; preds = %_ZSt4fillIN9__gnu_cxx17__normal_iteratorIPN5boost9sub_matchIPKcEESt6vectorIS6_SaIS6_EEEES6_EvT_SC_RKT0_.exit79
  %7 = load ptr, ptr %_M_finish.i, align 8, !tbaa !53
  %sub = sub i64 %add, %sub.ptr.div.i
  %8 = load ptr, ptr %this, align 8, !tbaa !53
  %sub.ptr.lhs.cast.i.i81 = ptrtoint ptr %7 to i64
  %sub.ptr.rhs.cast.i.i82 = ptrtoint ptr %8 to i64
  %sub.ptr.sub.i.i83 = sub i64 %sub.ptr.lhs.cast.i.i81, %sub.ptr.rhs.cast.i.i82
  %sub.ptr.div.i.i84 = sdiv exact i64 %sub.ptr.sub.i.i83, 24
  %add.ptr.i.i85 = getelementptr inbounds %"struct.boost::sub_match", ptr %8, i64 %sub.ptr.div.i.i84
  call void @_ZNSt6vectorIN5boost9sub_matchIPKcEESaIS4_EE14_M_fill_insertEN9__gnu_cxx17__normal_iteratorIPS4_S6_EEmRKS4_(ptr noundef nonnull align 8 dereferenceable(24) %this, ptr %add.ptr.i.i85, i64 noundef %sub, ptr noundef nonnull align 8 dereferenceable(17) %v)
  br label %if.end54

if.end54:                                         ; preds = %for.body.i.i.i.i, %if.then42, %_ZSt4fillIN9__gnu_cxx17__normal_iteratorIPN5boost9sub_matchIPKcEESt6vectorIS6_SaIS6_EEEES6_EvT_SC_RKT0_.exit79, %_ZNSt6vectorIN5boost9sub_matchIPKcEESaIS4_EE5eraseEN9__gnu_cxx17__normal_iteratorIPKS4_S6_EESB_.exit
  %9 = load ptr, ptr %this, align 8, !tbaa !98
  %add.ptr.i86 = getelementptr inbounds %"struct.boost::sub_match", ptr %9, i64 1
  store ptr %i, ptr %add.ptr.i86, align 8, !tbaa !178
  %m_last_closed_paren = getelementptr inbounds %"class.boost::match_results", ptr %this, i64 0, i32 4
  store i32 0, ptr %m_last_closed_paren, align 8, !tbaa !169
  call void @llvm.lifetime.end.p0(i64 24, ptr nonnull %v) #30
  ret void
}

declare void @_ZN5boost16re_detail_10740014verify_optionsEjNS_15regex_constants12_match_flagsE(i32 noundef, i32 noundef) local_unnamed_addr #9

; Function Attrs: mustprogress uwtable
define linkonce_odr noundef zeroext i1 @_ZN5boost16re_detail_10740012perl_matcherIPKcSaINS_9sub_matchIS3_EEENS_12regex_traitsIcNS_16cpp_regex_traitsIcEEEEE12match_prefixEv(ptr noundef nonnull align 8 dereferenceable(236) %this) local_unnamed_addr #5 comdat align 2 {
entry:
  %m_has_partial_match = getelementptr inbounds %"class.boost::re_detail_107400::perl_matcher", ptr %this, i64 0, i32 17
  store i8 0, ptr %m_has_partial_match, align 1, !tbaa !183
  %m_has_found_match = getelementptr inbounds %"class.boost::re_detail_107400::perl_matcher", ptr %this, i64 0, i32 18
  store i8 0, ptr %m_has_found_match, align 2, !tbaa !184
  %re = getelementptr inbounds %"class.boost::re_detail_107400::perl_matcher", ptr %this, i64 0, i32 9
  %0 = load ptr, ptr %re, align 8, !tbaa !139
  %1 = load ptr, ptr %0, align 8, !tbaa !112
  %m_first_state.i.i = getelementptr inbounds %"struct.boost::re_detail_107400::regex_data", ptr %1, i64 0, i32 7
  %2 = load ptr, ptr %m_first_state.i.i, align 8, !tbaa !185
  %pstate = getelementptr inbounds %"class.boost::re_detail_107400::perl_matcher", ptr %this, i64 0, i32 11
  store ptr %2, ptr %pstate, align 8, !tbaa !137
  %m_presult = getelementptr inbounds %"class.boost::re_detail_107400::perl_matcher", ptr %this, i64 0, i32 2
  %3 = load ptr, ptr %m_presult, align 8, !tbaa !146
  %position = getelementptr inbounds %"class.boost::re_detail_107400::perl_matcher", ptr %this, i64 0, i32 5
  %4 = load ptr, ptr %position, align 8, !tbaa !110
  %5 = load ptr, ptr %3, align 8, !tbaa !98
  %add.ptr.i.i = getelementptr inbounds %"struct.boost::sub_match", ptr %5, i64 1
  %second.i = getelementptr inbounds %"struct.boost::sub_match", ptr %5, i64 1, i32 0, i32 1
  store ptr %4, ptr %second.i, align 8, !tbaa !170
  %6 = load ptr, ptr %add.ptr.i.i, align 8, !tbaa !178
  %cmp.i = icmp ne ptr %6, %4
  %matched.i = getelementptr inbounds %"struct.boost::sub_match", ptr %5, i64 1, i32 1
  %frombool.i = zext i1 %cmp.i to i8
  store i8 %frombool.i, ptr %matched.i, align 8, !tbaa !171
  %add.ptr.i32.i = getelementptr inbounds %"struct.boost::sub_match", ptr %5, i64 2
  store ptr %4, ptr %add.ptr.i32.i, align 8, !tbaa !178
  %_M_finish.i.i = getelementptr inbounds %"struct.std::_Vector_base<boost::sub_match<const char *>, std::allocator<boost::sub_match<const char *>>>::_Vector_impl_data", ptr %3, i64 0, i32 1
  %7 = load ptr, ptr %_M_finish.i.i, align 8, !tbaa !180
  %sub.ptr.lhs.cast.i.i = ptrtoint ptr %7 to i64
  %sub.ptr.rhs.cast.i.i = ptrtoint ptr %5 to i64
  %sub.ptr.sub.i.i = sub i64 %sub.ptr.lhs.cast.i.i, %sub.ptr.rhs.cast.i.i
  %sub.ptr.div.i.i = sdiv exact i64 %sub.ptr.sub.i.i, 24
  %cmp1136.i = icmp ugt i64 %sub.ptr.div.i.i, 3
  br i1 %cmp1136.i, label %for.body.lr.ph.i, label %_ZN5boost13match_resultsIPKcSaINS_9sub_matchIS2_EEEE9set_firstES2_.exit

for.body.lr.ph.i:                                 ; preds = %entry
  %second14.i = getelementptr inbounds %"struct.std::pair.25", ptr %5, i64 0, i32 1
  %.pre.i = load ptr, ptr %second14.i, align 8, !tbaa !170
  %8 = add nsw i64 %sub.ptr.div.i.i, -3
  %xtraiter = and i64 %8, 1
  %9 = icmp eq i64 %sub.ptr.sub.i.i, 96
  br i1 %9, label %_ZN5boost13match_resultsIPKcSaINS_9sub_matchIS2_EEEE9set_firstES2_.exit.loopexit.unr-lcssa, label %for.body.lr.ph.i.new

for.body.lr.ph.i.new:                             ; preds = %for.body.lr.ph.i
  %unroll_iter = and i64 %8, -2
  br label %for.body.i

for.body.i:                                       ; preds = %for.body.i, %for.body.lr.ph.i.new
  %n.037.i = phi i64 [ 3, %for.body.lr.ph.i.new ], [ %inc.i.1, %for.body.i ]
  %niter = phi i64 [ 0, %for.body.lr.ph.i.new ], [ %niter.next.1, %for.body.i ]
  %add.ptr.i33.i = getelementptr inbounds %"struct.boost::sub_match", ptr %5, i64 %n.037.i
  %second17.i = getelementptr inbounds %"struct.std::pair.25", ptr %add.ptr.i33.i, i64 0, i32 1
  store ptr %.pre.i, ptr %second17.i, align 8, !tbaa !170
  store ptr %.pre.i, ptr %add.ptr.i33.i, align 8, !tbaa !178
  %matched23.i = getelementptr inbounds %"struct.boost::sub_match", ptr %5, i64 %n.037.i, i32 1
  store i8 0, ptr %matched23.i, align 8, !tbaa !171
  %inc.i = add nuw i64 %n.037.i, 1
  %add.ptr.i33.i.1 = getelementptr inbounds %"struct.boost::sub_match", ptr %5, i64 %inc.i
  %second17.i.1 = getelementptr inbounds %"struct.std::pair.25", ptr %add.ptr.i33.i.1, i64 0, i32 1
  store ptr %.pre.i, ptr %second17.i.1, align 8, !tbaa !170
  store ptr %.pre.i, ptr %add.ptr.i33.i.1, align 8, !tbaa !178
  %matched23.i.1 = getelementptr inbounds %"struct.boost::sub_match", ptr %5, i64 %inc.i, i32 1
  store i8 0, ptr %matched23.i.1, align 8, !tbaa !171
  %inc.i.1 = add nuw i64 %n.037.i, 2
  %niter.next.1 = add i64 %niter, 2
  %niter.ncmp.1 = icmp eq i64 %niter.next.1, %unroll_iter
  br i1 %niter.ncmp.1, label %_ZN5boost13match_resultsIPKcSaINS_9sub_matchIS2_EEEE9set_firstES2_.exit.loopexit.unr-lcssa, label %for.body.i, !llvm.loop !186

_ZN5boost13match_resultsIPKcSaINS_9sub_matchIS2_EEEE9set_firstES2_.exit.loopexit.unr-lcssa: ; preds = %for.body.i, %for.body.lr.ph.i
  %n.037.i.unr = phi i64 [ 3, %for.body.lr.ph.i ], [ %inc.i.1, %for.body.i ]
  %lcmp.mod.not = icmp eq i64 %xtraiter, 0
  br i1 %lcmp.mod.not, label %_ZN5boost13match_resultsIPKcSaINS_9sub_matchIS2_EEEE9set_firstES2_.exit, label %for.body.i.epil

for.body.i.epil:                                  ; preds = %_ZN5boost13match_resultsIPKcSaINS_9sub_matchIS2_EEEE9set_firstES2_.exit.loopexit.unr-lcssa
  %add.ptr.i33.i.epil = getelementptr inbounds %"struct.boost::sub_match", ptr %5, i64 %n.037.i.unr
  %second17.i.epil = getelementptr inbounds %"struct.std::pair.25", ptr %add.ptr.i33.i.epil, i64 0, i32 1
  store ptr %.pre.i, ptr %second17.i.epil, align 8, !tbaa !170
  store ptr %.pre.i, ptr %add.ptr.i33.i.epil, align 8, !tbaa !178
  %matched23.i.epil = getelementptr inbounds %"struct.boost::sub_match", ptr %5, i64 %n.037.i.unr, i32 1
  store i8 0, ptr %matched23.i.epil, align 8, !tbaa !171
  br label %_ZN5boost13match_resultsIPKcSaINS_9sub_matchIS2_EEEE9set_firstES2_.exit

_ZN5boost13match_resultsIPKcSaINS_9sub_matchIS2_EEEE9set_firstES2_.exit: ; preds = %for.body.i.epil, %_ZN5boost13match_resultsIPKcSaINS_9sub_matchIS2_EEEE9set_firstES2_.exit.loopexit.unr-lcssa, %entry
  %restart = getelementptr inbounds %"class.boost::re_detail_107400::perl_matcher", ptr %this, i64 0, i32 6
  store ptr %4, ptr %restart, align 8, !tbaa !187
  %call3 = tail call noundef zeroext i1 @_ZN5boost16re_detail_10740012perl_matcherIPKcSaINS_9sub_matchIS3_EEENS_12regex_traitsIcNS_16cpp_regex_traitsIcEEEEE16match_all_statesEv(ptr noundef nonnull align 8 dereferenceable(236) %this)
  %10 = load i8, ptr %m_has_found_match, align 2, !tbaa !184, !range !49, !noundef !50
  %tobool.not = icmp ne i8 %10, 0
  %11 = load i8, ptr %m_has_partial_match, align 1, !range !49
  %tobool6.not = icmp eq i8 %11, 0
  %or.cond = select i1 %tobool.not, i1 true, i1 %tobool6.not
  br i1 %or.cond, label %if.end18, label %land.lhs.true7

land.lhs.true7:                                   ; preds = %_ZN5boost13match_resultsIPKcSaINS_9sub_matchIS2_EEEE9set_firstES2_.exit
  %m_match_flags = getelementptr inbounds %"class.boost::re_detail_107400::perl_matcher", ptr %this, i64 0, i32 12
  %12 = load i32, ptr %m_match_flags, align 8, !tbaa !138
  %and.i = and i32 %12, 8192
  %tobool9.not = icmp eq i32 %and.i, 0
  br i1 %tobool9.not, label %if.then21, label %if.then

if.then:                                          ; preds = %land.lhs.true7
  store i8 1, ptr %m_has_found_match, align 2, !tbaa !184
  %13 = load ptr, ptr %m_presult, align 8, !tbaa !146
  %last = getelementptr inbounds %"class.boost::re_detail_107400::perl_matcher", ptr %this, i64 0, i32 4
  %14 = load ptr, ptr %last, align 8, !tbaa !109
  %15 = load ptr, ptr %13, align 8, !tbaa !98
  %second.i27 = getelementptr %"struct.boost::sub_match", ptr %15, i64 2, i32 0, i32 1
  store ptr %14, ptr %second.i27, align 8, !tbaa !170
  %matched.i28 = getelementptr %"struct.boost::sub_match", ptr %15, i64 2, i32 1
  store i8 0, ptr %matched.i28, align 8, !tbaa !171
  store ptr %14, ptr %15, align 8, !tbaa !178
  %second16.i = getelementptr inbounds %"struct.std::pair.25", ptr %15, i64 0, i32 1
  %16 = load ptr, ptr %second16.i, align 8, !tbaa !170
  %cmp17.i = icmp ne ptr %16, %14
  %matched20.i = getelementptr inbounds %"struct.boost::sub_match", ptr %15, i64 0, i32 1
  %frombool21.i = zext i1 %cmp17.i to i8
  store i8 %frombool21.i, ptr %matched20.i, align 8, !tbaa !171
  %m_null.i = getelementptr inbounds %"class.boost::match_results", ptr %13, i64 0, i32 2
  store ptr %14, ptr %m_null.i, align 8, !tbaa !178
  %second24.i = getelementptr inbounds %"class.boost::match_results", ptr %13, i64 0, i32 2, i32 0, i32 1
  store ptr %14, ptr %second24.i, align 8, !tbaa !170
  %matched26.i = getelementptr inbounds %"class.boost::match_results", ptr %13, i64 0, i32 2, i32 1
  store i8 0, ptr %matched26.i, align 8, !tbaa !188
  %m_is_singular.i = getelementptr inbounds %"class.boost::match_results", ptr %13, i64 0, i32 5
  store i8 0, ptr %m_is_singular.i, align 4, !tbaa !87
  store ptr %14, ptr %position, align 8, !tbaa !110
  %and.i29 = and i32 %12, 131072
  %cmp.not = icmp eq i32 %and.i29, 0
  br i1 %cmp.not, label %if.end24, label %if.then16

if.then16:                                        ; preds = %if.then
  %17 = load ptr, ptr %this, align 8, !tbaa !145
  tail call void @_ZN5boost13match_resultsIPKcSaINS_9sub_matchIS2_EEEE12maybe_assignERKS6_(ptr noundef nonnull align 8 dereferenceable(77) %17, ptr noundef nonnull align 8 dereferenceable(77) %13)
  %.pr.pre = load i8, ptr %m_has_found_match, align 2, !tbaa !184
  br label %if.end18

if.end18:                                         ; preds = %if.then16, %_ZN5boost13match_resultsIPKcSaINS_9sub_matchIS2_EEEE9set_firstES2_.exit
  %18 = phi i8 [ %10, %_ZN5boost13match_resultsIPKcSaINS_9sub_matchIS2_EEEE9set_firstES2_.exit ], [ %.pr.pre, %if.then16 ]
  %tobool20.not = icmp eq i8 %18, 0
  br i1 %tobool20.not, label %if.then21, label %if.end24

if.then21:                                        ; preds = %if.end18, %land.lhs.true7
  %19 = load ptr, ptr %restart, align 8, !tbaa !187
  store ptr %19, ptr %position, align 8, !tbaa !110
  br label %if.end24

if.end24:                                         ; preds = %if.then21, %if.end18, %if.then
  %tobool26 = phi i1 [ false, %if.then21 ], [ true, %if.end18 ], [ true, %if.then ]
  ret i1 %tobool26
}

declare void @__cxa_rethrow() local_unnamed_addr

; Function Attrs: mustprogress nounwind uwtable
define linkonce_odr void @_ZN5boost16re_detail_10740015save_state_initD2Ev(ptr noundef nonnull align 8 dereferenceable(8) %this) unnamed_addr #1 comdat align 2 personality ptr @__gxx_personality_v0 {
entry:
  %0 = load ptr, ptr %this, align 8, !tbaa !158
  %1 = load ptr, ptr %0, align 8, !tbaa !53
  invoke void @_ZN5boost16re_detail_10740013put_mem_blockEPv(ptr noundef %1)
          to label %invoke.cont unwind label %terminate.lpad

invoke.cont:                                      ; preds = %entry
  %2 = load ptr, ptr %this, align 8, !tbaa !158
  store ptr null, ptr %2, align 8, !tbaa !53
  ret void

terminate.lpad:                                   ; preds = %entry
  %3 = landingpad { ptr, i32 }
          catch ptr null
  %4 = extractvalue { ptr, i32 } %3, 0
  tail call void @__clang_call_terminate(ptr %4) #32
  unreachable
}

declare noundef ptr @_ZN5boost16re_detail_10740013get_mem_blockEv() local_unnamed_addr #9

; Function Attrs: mustprogress uwtable
define linkonce_odr void @_ZNSt6vectorIN5boost9sub_matchIPKcEESaIS4_EE14_M_fill_insertEN9__gnu_cxx17__normal_iteratorIPS4_S6_EEmRKS4_(ptr noundef nonnull align 8 dereferenceable(24) %this, ptr %__position.coerce, i64 noundef %__n, ptr noundef nonnull align 8 dereferenceable(17) %__x) local_unnamed_addr #5 comdat align 2 personality ptr @__gxx_personality_v0 {
entry:
  %cmp.not = icmp eq i64 %__n, 0
  br i1 %cmp.not, label %if.end94, label %if.then

if.then:                                          ; preds = %entry
  %_M_end_of_storage = getelementptr inbounds %"struct.std::_Vector_base<boost::sub_match<const char *>, std::allocator<boost::sub_match<const char *>>>::_Vector_impl_data", ptr %this, i64 0, i32 2
  %0 = load ptr, ptr %_M_end_of_storage, align 8, !tbaa !189
  %_M_finish = getelementptr inbounds %"struct.std::_Vector_base<boost::sub_match<const char *>, std::allocator<boost::sub_match<const char *>>>::_Vector_impl_data", ptr %this, i64 0, i32 1
  %1 = load ptr, ptr %_M_finish, align 8, !tbaa !53
  %sub.ptr.lhs.cast = ptrtoint ptr %0 to i64
  %sub.ptr.rhs.cast = ptrtoint ptr %1 to i64
  %sub.ptr.sub = sub i64 %sub.ptr.lhs.cast, %sub.ptr.rhs.cast
  %sub.ptr.div = sdiv exact i64 %sub.ptr.sub, 24
  %cmp3.not = icmp ult i64 %sub.ptr.div, %__n
  br i1 %cmp3.not, label %if.else42, label %if.then4

if.then4:                                         ; preds = %if.then
  %__tmp.sroa.4.8.copyload = load ptr, ptr %__x, align 8
  %__tmp.sroa.9.8.__x.sroa_idx = getelementptr inbounds i8, ptr %__x, i64 8
  %__tmp.sroa.9.8.copyload = load ptr, ptr %__tmp.sroa.9.8.__x.sroa_idx, align 8
  %matched2.i.i.i.i = getelementptr inbounds %"struct.boost::sub_match", ptr %__x, i64 0, i32 1
  %2 = load i8, ptr %matched2.i.i.i.i, align 8, !tbaa !171, !range !49, !noundef !50
  %sub.ptr.rhs.cast.i = ptrtoint ptr %__position.coerce to i64
  %sub.ptr.sub.i = sub i64 %sub.ptr.rhs.cast, %sub.ptr.rhs.cast.i
  %sub.ptr.div.i = sdiv exact i64 %sub.ptr.sub.i, 24
  %cmp10 = icmp ugt i64 %sub.ptr.div.i, %__n
  br i1 %cmp10, label %if.then11, label %if.else

if.then11:                                        ; preds = %if.then4
  %idx.neg = sub i64 0, %__n
  %add.ptr = getelementptr inbounds %"struct.boost::sub_match", ptr %1, i64 %idx.neg
  %add.ptr.idx = mul i64 %__n, -24
  %cmp.i.i.not18.i.i.i.i.i = icmp eq i64 %add.ptr.idx, 0
  br i1 %cmp.i.i.not18.i.i.i.i.i, label %invoke.cont, label %for.inc.i.i.i.i.i

for.inc.i.i.i.i.i:                                ; preds = %if.then11, %for.inc.i.i.i.i.i
  %__cur.020.i.i.i.i.i = phi ptr [ %incdec.ptr.i.i.i.i.i, %for.inc.i.i.i.i.i ], [ %1, %if.then11 ]
  %__first.sroa.0.019.i.i.i.i.i = phi ptr [ %incdec.ptr.i.i.i.i.i.i, %for.inc.i.i.i.i.i ], [ %add.ptr, %if.then11 ]
  tail call void @llvm.memcpy.p0.p0.i64(ptr noundef nonnull align 8 dereferenceable(16) %__cur.020.i.i.i.i.i, ptr noundef nonnull align 8 dereferenceable(16) %__first.sroa.0.019.i.i.i.i.i, i64 16, i1 false)
  %matched.i.i.i.i.i.i.i = getelementptr inbounds %"struct.boost::sub_match", ptr %__cur.020.i.i.i.i.i, i64 0, i32 1
  %matched2.i.i.i.i.i.i.i = getelementptr inbounds %"struct.boost::sub_match", ptr %__first.sroa.0.019.i.i.i.i.i, i64 0, i32 1
  %3 = load i8, ptr %matched2.i.i.i.i.i.i.i, align 8, !tbaa !171, !range !49, !noundef !50
  store i8 %3, ptr %matched.i.i.i.i.i.i.i, align 8, !tbaa !171
  %incdec.ptr.i.i.i.i.i.i = getelementptr inbounds %"struct.boost::sub_match", ptr %__first.sroa.0.019.i.i.i.i.i, i64 1
  %incdec.ptr.i.i.i.i.i = getelementptr inbounds %"struct.boost::sub_match", ptr %__cur.020.i.i.i.i.i, i64 1
  %cmp.i.i.not.i.i.i.i.i = icmp eq ptr %incdec.ptr.i.i.i.i.i.i, %1
  br i1 %cmp.i.i.not.i.i.i.i.i, label %invoke.cont.loopexit, label %for.inc.i.i.i.i.i, !llvm.loop !190

invoke.cont.loopexit:                             ; preds = %for.inc.i.i.i.i.i
  %.pre = load ptr, ptr %_M_finish, align 8, !tbaa !180
  br label %invoke.cont

invoke.cont:                                      ; preds = %invoke.cont.loopexit, %if.then11
  %4 = phi ptr [ %.pre, %invoke.cont.loopexit ], [ %1, %if.then11 ]
  %add.ptr16 = getelementptr inbounds %"struct.boost::sub_match", ptr %4, i64 %__n
  store ptr %add.ptr16, ptr %_M_finish, align 8, !tbaa !180
  %sub.ptr.lhs.cast.i.i.i.i.i = ptrtoint ptr %add.ptr to i64
  %sub.ptr.sub.i.i.i.i.i = sub i64 %sub.ptr.lhs.cast.i.i.i.i.i, %sub.ptr.rhs.cast.i
  %cmp5.i.i.i.i.i = icmp sgt i64 %sub.ptr.sub.i.i.i.i.i, 0
  br i1 %cmp5.i.i.i.i.i, label %for.body.preheader.i.i.i.i.i, label %invoke.cont20

for.body.preheader.i.i.i.i.i:                     ; preds = %invoke.cont
  %sub.ptr.div9.i.i.i.i.i = udiv exact i64 %sub.ptr.sub.i.i.i.i.i, 24
  br label %for.body.i.i.i.i.i

for.body.i.i.i.i.i:                               ; preds = %for.body.i.i.i.i.i, %for.body.preheader.i.i.i.i.i
  %__n.08.i.i.i.i.i = phi i64 [ %dec.i.i.i.i.i, %for.body.i.i.i.i.i ], [ %sub.ptr.div9.i.i.i.i.i, %for.body.preheader.i.i.i.i.i ]
  %__result.addr.07.i.i.i.i.i = phi ptr [ %incdec.ptr1.i.i.i.i.i, %for.body.i.i.i.i.i ], [ %1, %for.body.preheader.i.i.i.i.i ]
  %__last.addr.06.i.i.i.i.i = phi ptr [ %incdec.ptr.i.i.i.i.i145, %for.body.i.i.i.i.i ], [ %add.ptr, %for.body.preheader.i.i.i.i.i ]
  %incdec.ptr.i.i.i.i.i145 = getelementptr inbounds %"struct.boost::sub_match", ptr %__last.addr.06.i.i.i.i.i, i64 -1
  %incdec.ptr1.i.i.i.i.i = getelementptr inbounds %"struct.boost::sub_match", ptr %__result.addr.07.i.i.i.i.i, i64 -1
  %5 = load <2 x ptr>, ptr %incdec.ptr.i.i.i.i.i145, align 8, !tbaa !53
  store <2 x ptr> %5, ptr %incdec.ptr1.i.i.i.i.i, align 8, !tbaa !53
  %matched.i.i.i.i.i.i = getelementptr %"struct.boost::sub_match", ptr %__last.addr.06.i.i.i.i.i, i64 -1, i32 1
  %6 = load i8, ptr %matched.i.i.i.i.i.i, align 8, !tbaa !171, !range !49, !noundef !50
  %matched4.i.i.i.i.i.i = getelementptr %"struct.boost::sub_match", ptr %__result.addr.07.i.i.i.i.i, i64 -1, i32 1
  store i8 %6, ptr %matched4.i.i.i.i.i.i, align 8, !tbaa !171
  %dec.i.i.i.i.i = add nsw i64 %__n.08.i.i.i.i.i, -1
  %cmp.i.i.i.i.i = icmp ugt i64 %__n.08.i.i.i.i.i, 1
  br i1 %cmp.i.i.i.i.i, label %for.body.i.i.i.i.i, label %invoke.cont20, !llvm.loop !191

invoke.cont20:                                    ; preds = %for.body.i.i.i.i.i, %invoke.cont
  %add.ptr24 = getelementptr inbounds %"struct.boost::sub_match", ptr %__position.coerce, i64 %__n
  br label %for.body.i.i.i

for.body.i.i.i:                                   ; preds = %for.body.i.i.i, %invoke.cont20
  %__first.addr.04.i.i.i = phi ptr [ %incdec.ptr.i.i.i, %for.body.i.i.i ], [ %__position.coerce, %invoke.cont20 ]
  store ptr %__tmp.sroa.4.8.copyload, ptr %__first.addr.04.i.i.i, align 8, !tbaa !178
  %second3.i.i.i.i = getelementptr inbounds %"struct.std::pair.25", ptr %__first.addr.04.i.i.i, i64 0, i32 1
  store ptr %__tmp.sroa.9.8.copyload, ptr %second3.i.i.i.i, align 8, !tbaa !170
  %matched4.i.i.i.i = getelementptr inbounds %"struct.boost::sub_match", ptr %__first.addr.04.i.i.i, i64 0, i32 1
  store i8 %2, ptr %matched4.i.i.i.i, align 8, !tbaa !171
  %incdec.ptr.i.i.i = getelementptr inbounds %"struct.boost::sub_match", ptr %__first.addr.04.i.i.i, i64 1
  %cmp.not.i.i.i = icmp eq ptr %incdec.ptr.i.i.i, %add.ptr24
  br i1 %cmp.not.i.i.i, label %if.end94, label %for.body.i.i.i, !llvm.loop !192

if.else:                                          ; preds = %if.then4
  %sub = sub i64 %__n, %sub.ptr.div.i
  %cmp.not11.i.i.i.i = icmp eq i64 %sub, 0
  br i1 %cmp.not11.i.i.i.i, label %invoke.cont27, label %for.inc.i.i.i.i.preheader

for.inc.i.i.i.i.preheader:                        ; preds = %if.else
  %xtraiter = and i64 %sub, 3
  %lcmp.mod.not = icmp eq i64 %xtraiter, 0
  br i1 %lcmp.mod.not, label %for.inc.i.i.i.i.prol.loopexit, label %for.inc.i.i.i.i.prol

for.inc.i.i.i.i.prol:                             ; preds = %for.inc.i.i.i.i.preheader, %for.inc.i.i.i.i.prol
  %__cur.013.i.i.i.i.prol = phi ptr [ %incdec.ptr.i.i.i.i.prol, %for.inc.i.i.i.i.prol ], [ %1, %for.inc.i.i.i.i.preheader ]
  %__n.addr.012.i.i.i.i.prol = phi i64 [ %dec.i.i.i.i.prol, %for.inc.i.i.i.i.prol ], [ %sub, %for.inc.i.i.i.i.preheader ]
  %prol.iter = phi i64 [ %prol.iter.next, %for.inc.i.i.i.i.prol ], [ 0, %for.inc.i.i.i.i.preheader ]
  store ptr %__tmp.sroa.4.8.copyload, ptr %__cur.013.i.i.i.i.prol, align 8
  %__tmp.sroa.9.8.__cur.013.i.i.i.i.sroa_idx.prol = getelementptr inbounds i8, ptr %__cur.013.i.i.i.i.prol, i64 8
  store ptr %__tmp.sroa.9.8.copyload, ptr %__tmp.sroa.9.8.__cur.013.i.i.i.i.sroa_idx.prol, align 8
  %matched.i.i.i.i.i.i147.prol = getelementptr inbounds %"struct.boost::sub_match", ptr %__cur.013.i.i.i.i.prol, i64 0, i32 1
  store i8 %2, ptr %matched.i.i.i.i.i.i147.prol, align 8, !tbaa !171
  %dec.i.i.i.i.prol = add i64 %__n.addr.012.i.i.i.i.prol, -1
  %incdec.ptr.i.i.i.i.prol = getelementptr inbounds %"struct.boost::sub_match", ptr %__cur.013.i.i.i.i.prol, i64 1
  %prol.iter.next = add nuw nsw i64 %prol.iter, 1
  %prol.iter.cmp.not = icmp eq i64 %prol.iter.next, %xtraiter
  br i1 %prol.iter.cmp.not, label %for.inc.i.i.i.i.prol.loopexit, label %for.inc.i.i.i.i.prol, !llvm.loop !193

for.inc.i.i.i.i.prol.loopexit:                    ; preds = %for.inc.i.i.i.i.prol, %for.inc.i.i.i.i.preheader
  %incdec.ptr.i.i.i.i.lcssa.unr = phi ptr [ undef, %for.inc.i.i.i.i.preheader ], [ %incdec.ptr.i.i.i.i.prol, %for.inc.i.i.i.i.prol ]
  %__cur.013.i.i.i.i.unr = phi ptr [ %1, %for.inc.i.i.i.i.preheader ], [ %incdec.ptr.i.i.i.i.prol, %for.inc.i.i.i.i.prol ]
  %__n.addr.012.i.i.i.i.unr = phi i64 [ %sub, %for.inc.i.i.i.i.preheader ], [ %dec.i.i.i.i.prol, %for.inc.i.i.i.i.prol ]
  %7 = sub i64 %sub.ptr.div.i, %__n
  %8 = icmp ugt i64 %7, -4
  br i1 %8, label %invoke.cont27, label %for.inc.i.i.i.i

for.inc.i.i.i.i:                                  ; preds = %for.inc.i.i.i.i.prol.loopexit, %for.inc.i.i.i.i
  %__cur.013.i.i.i.i = phi ptr [ %incdec.ptr.i.i.i.i.3, %for.inc.i.i.i.i ], [ %__cur.013.i.i.i.i.unr, %for.inc.i.i.i.i.prol.loopexit ]
  %__n.addr.012.i.i.i.i = phi i64 [ %dec.i.i.i.i.3, %for.inc.i.i.i.i ], [ %__n.addr.012.i.i.i.i.unr, %for.inc.i.i.i.i.prol.loopexit ]
  store ptr %__tmp.sroa.4.8.copyload, ptr %__cur.013.i.i.i.i, align 8
  %__tmp.sroa.9.8.__cur.013.i.i.i.i.sroa_idx = getelementptr inbounds i8, ptr %__cur.013.i.i.i.i, i64 8
  store ptr %__tmp.sroa.9.8.copyload, ptr %__tmp.sroa.9.8.__cur.013.i.i.i.i.sroa_idx, align 8
  %matched.i.i.i.i.i.i147 = getelementptr inbounds %"struct.boost::sub_match", ptr %__cur.013.i.i.i.i, i64 0, i32 1
  store i8 %2, ptr %matched.i.i.i.i.i.i147, align 8, !tbaa !171
  %incdec.ptr.i.i.i.i = getelementptr inbounds %"struct.boost::sub_match", ptr %__cur.013.i.i.i.i, i64 1
  store ptr %__tmp.sroa.4.8.copyload, ptr %incdec.ptr.i.i.i.i, align 8
  %__tmp.sroa.9.8.__cur.013.i.i.i.i.sroa_idx.1 = getelementptr inbounds %"struct.boost::sub_match", ptr %__cur.013.i.i.i.i, i64 1, i32 0, i32 1
  store ptr %__tmp.sroa.9.8.copyload, ptr %__tmp.sroa.9.8.__cur.013.i.i.i.i.sroa_idx.1, align 8
  %matched.i.i.i.i.i.i147.1 = getelementptr inbounds %"struct.boost::sub_match", ptr %__cur.013.i.i.i.i, i64 1, i32 1
  store i8 %2, ptr %matched.i.i.i.i.i.i147.1, align 8, !tbaa !171
  %incdec.ptr.i.i.i.i.1 = getelementptr inbounds %"struct.boost::sub_match", ptr %__cur.013.i.i.i.i, i64 2
  store ptr %__tmp.sroa.4.8.copyload, ptr %incdec.ptr.i.i.i.i.1, align 8
  %__tmp.sroa.9.8.__cur.013.i.i.i.i.sroa_idx.2 = getelementptr inbounds %"struct.boost::sub_match", ptr %__cur.013.i.i.i.i, i64 2, i32 0, i32 1
  store ptr %__tmp.sroa.9.8.copyload, ptr %__tmp.sroa.9.8.__cur.013.i.i.i.i.sroa_idx.2, align 8
  %matched.i.i.i.i.i.i147.2 = getelementptr inbounds %"struct.boost::sub_match", ptr %__cur.013.i.i.i.i, i64 2, i32 1
  store i8 %2, ptr %matched.i.i.i.i.i.i147.2, align 8, !tbaa !171
  %incdec.ptr.i.i.i.i.2 = getelementptr inbounds %"struct.boost::sub_match", ptr %__cur.013.i.i.i.i, i64 3
  store ptr %__tmp.sroa.4.8.copyload, ptr %incdec.ptr.i.i.i.i.2, align 8
  %__tmp.sroa.9.8.__cur.013.i.i.i.i.sroa_idx.3 = getelementptr inbounds %"struct.boost::sub_match", ptr %__cur.013.i.i.i.i, i64 3, i32 0, i32 1
  store ptr %__tmp.sroa.9.8.copyload, ptr %__tmp.sroa.9.8.__cur.013.i.i.i.i.sroa_idx.3, align 8
  %matched.i.i.i.i.i.i147.3 = getelementptr inbounds %"struct.boost::sub_match", ptr %__cur.013.i.i.i.i, i64 3, i32 1
  store i8 %2, ptr %matched.i.i.i.i.i.i147.3, align 8, !tbaa !171
  %dec.i.i.i.i.3 = add i64 %__n.addr.012.i.i.i.i, -4
  %incdec.ptr.i.i.i.i.3 = getelementptr inbounds %"struct.boost::sub_match", ptr %__cur.013.i.i.i.i, i64 4
  %cmp.not.i.i.i.i.3 = icmp eq i64 %dec.i.i.i.i.3, 0
  br i1 %cmp.not.i.i.i.i.3, label %invoke.cont27, label %for.inc.i.i.i.i, !llvm.loop !195

invoke.cont27:                                    ; preds = %for.inc.i.i.i.i, %for.inc.i.i.i.i.prol.loopexit, %if.else
  %9 = phi ptr [ %1, %if.else ], [ %incdec.ptr.i.i.i.i.lcssa.unr, %for.inc.i.i.i.i.prol.loopexit ], [ %incdec.ptr.i.i.i.i.3, %for.inc.i.i.i.i ]
  store ptr %9, ptr %_M_finish, align 8, !tbaa !180
  %cmp.i.i.not18.i.i.i.i.i148 = icmp eq ptr %1, %__position.coerce
  br i1 %cmp.i.i.not18.i.i.i.i.i148, label %invoke.cont35.thread, label %for.inc.i.i.i.i.i149

invoke.cont35.thread:                             ; preds = %invoke.cont27
  %add.ptr39217 = getelementptr inbounds %"struct.boost::sub_match", ptr %9, i64 %sub.ptr.div.i
  store ptr %add.ptr39217, ptr %_M_finish, align 8, !tbaa !180
  br label %if.end94

for.inc.i.i.i.i.i149:                             ; preds = %invoke.cont27, %for.inc.i.i.i.i.i149
  %__cur.020.i.i.i.i.i150 = phi ptr [ %incdec.ptr.i.i.i.i.i155, %for.inc.i.i.i.i.i149 ], [ %9, %invoke.cont27 ]
  %__first.sroa.0.019.i.i.i.i.i151 = phi ptr [ %incdec.ptr.i.i.i.i.i.i154, %for.inc.i.i.i.i.i149 ], [ %__position.coerce, %invoke.cont27 ]
  tail call void @llvm.memcpy.p0.p0.i64(ptr noundef nonnull align 8 dereferenceable(16) %__cur.020.i.i.i.i.i150, ptr noundef nonnull align 8 dereferenceable(16) %__first.sroa.0.019.i.i.i.i.i151, i64 16, i1 false)
  %matched.i.i.i.i.i.i.i152 = getelementptr inbounds %"struct.boost::sub_match", ptr %__cur.020.i.i.i.i.i150, i64 0, i32 1
  %matched2.i.i.i.i.i.i.i153 = getelementptr inbounds %"struct.boost::sub_match", ptr %__first.sroa.0.019.i.i.i.i.i151, i64 0, i32 1
  %10 = load i8, ptr %matched2.i.i.i.i.i.i.i153, align 8, !tbaa !171, !range !49, !noundef !50
  store i8 %10, ptr %matched.i.i.i.i.i.i.i152, align 8, !tbaa !171
  %incdec.ptr.i.i.i.i.i.i154 = getelementptr inbounds %"struct.boost::sub_match", ptr %__first.sroa.0.019.i.i.i.i.i151, i64 1
  %incdec.ptr.i.i.i.i.i155 = getelementptr inbounds %"struct.boost::sub_match", ptr %__cur.020.i.i.i.i.i150, i64 1
  %cmp.i.i.not.i.i.i.i.i156 = icmp eq ptr %incdec.ptr.i.i.i.i.i.i154, %1
  br i1 %cmp.i.i.not.i.i.i.i.i156, label %for.body.i.i.i166.preheader, label %for.inc.i.i.i.i.i149, !llvm.loop !196

for.body.i.i.i166.preheader:                      ; preds = %for.inc.i.i.i.i.i149
  %11 = load ptr, ptr %_M_finish, align 8, !tbaa !180
  %add.ptr39 = getelementptr inbounds %"struct.boost::sub_match", ptr %11, i64 %sub.ptr.div.i
  store ptr %add.ptr39, ptr %_M_finish, align 8, !tbaa !180
  br label %for.body.i.i.i166

for.body.i.i.i166:                                ; preds = %for.body.i.i.i166, %for.body.i.i.i166.preheader
  %__first.addr.04.i.i.i167 = phi ptr [ %incdec.ptr.i.i.i170, %for.body.i.i.i166 ], [ %__position.coerce, %for.body.i.i.i166.preheader ]
  store ptr %__tmp.sroa.4.8.copyload, ptr %__first.addr.04.i.i.i167, align 8, !tbaa !178
  %second3.i.i.i.i168 = getelementptr inbounds %"struct.std::pair.25", ptr %__first.addr.04.i.i.i167, i64 0, i32 1
  store ptr %__tmp.sroa.9.8.copyload, ptr %second3.i.i.i.i168, align 8, !tbaa !170
  %matched4.i.i.i.i169 = getelementptr inbounds %"struct.boost::sub_match", ptr %__first.addr.04.i.i.i167, i64 0, i32 1
  store i8 %2, ptr %matched4.i.i.i.i169, align 8, !tbaa !171
  %incdec.ptr.i.i.i170 = getelementptr inbounds %"struct.boost::sub_match", ptr %__first.addr.04.i.i.i167, i64 1
  %cmp.not.i.i.i171 = icmp eq ptr %incdec.ptr.i.i.i170, %1
  br i1 %cmp.not.i.i.i171, label %if.end94, label %for.body.i.i.i166, !llvm.loop !197

if.else42:                                        ; preds = %if.then
  %12 = load ptr, ptr %this, align 8, !tbaa !98
  %sub.ptr.rhs.cast.i.i = ptrtoint ptr %12 to i64
  %sub.ptr.sub.i.i = sub i64 %sub.ptr.rhs.cast, %sub.ptr.rhs.cast.i.i
  %sub.ptr.div.i.i = sdiv exact i64 %sub.ptr.sub.i.i, 24
  %sub.i = sub nsw i64 384307168202282325, %sub.ptr.div.i.i
  %cmp.i = icmp ult i64 %sub.i, %__n
  br i1 %cmp.i, label %if.then.i, label %_ZNKSt6vectorIN5boost9sub_matchIPKcEESaIS4_EE12_M_check_lenEmS3_.exit

if.then.i:                                        ; preds = %if.else42
  tail call void @_ZSt20__throw_length_errorPKc(ptr noundef nonnull @.str.20) #31
  unreachable

_ZNKSt6vectorIN5boost9sub_matchIPKcEESaIS4_EE12_M_check_lenEmS3_.exit: ; preds = %if.else42
  %.sroa.speculated.i = tail call i64 @llvm.umax.i64(i64 %sub.ptr.div.i.i, i64 %__n)
  %add.i = add i64 %.sroa.speculated.i, %sub.ptr.div.i.i
  %cmp7.i = icmp ult i64 %add.i, %sub.ptr.div.i.i
  %cmp9.i = icmp ugt i64 %add.i, 384307168202282325
  %or.cond.i = or i1 %cmp7.i, %cmp9.i
  %cond.i = select i1 %or.cond.i, i64 384307168202282325, i64 %add.i
  %sub.ptr.lhs.cast49 = ptrtoint ptr %__position.coerce to i64
  %sub.ptr.sub51 = sub i64 %sub.ptr.lhs.cast49, %sub.ptr.rhs.cast.i.i
  %sub.ptr.div52 = sdiv exact i64 %sub.ptr.sub51, 24
  %cmp.not.i = icmp eq i64 %cond.i, 0
  br i1 %cmp.not.i, label %for.inc.lr.ph.i.i.i.i175, label %_ZNSt16allocator_traitsISaIN5boost9sub_matchIPKcEEEE8allocateERS5_m.exit.i

_ZNSt16allocator_traitsISaIN5boost9sub_matchIPKcEEEE8allocateERS5_m.exit.i: ; preds = %_ZNKSt6vectorIN5boost9sub_matchIPKcEESaIS4_EE12_M_check_lenEmS3_.exit
  %mul.i.i.i = mul nuw nsw i64 %cond.i, 24
  %call5.i.i.i = tail call noalias noundef nonnull ptr @_Znwm(i64 noundef %mul.i.i.i) #36
  br label %for.inc.lr.ph.i.i.i.i175

for.inc.lr.ph.i.i.i.i175:                         ; preds = %_ZNSt16allocator_traitsISaIN5boost9sub_matchIPKcEEEE8allocateERS5_m.exit.i, %_ZNKSt6vectorIN5boost9sub_matchIPKcEESaIS4_EE12_M_check_lenEmS3_.exit
  %cond.i173 = phi ptr [ %call5.i.i.i, %_ZNSt16allocator_traitsISaIN5boost9sub_matchIPKcEEEE8allocateERS5_m.exit.i ], [ null, %_ZNKSt6vectorIN5boost9sub_matchIPKcEESaIS4_EE12_M_check_lenEmS3_.exit ]
  %add.ptr54 = getelementptr inbounds %"struct.boost::sub_match", ptr %cond.i173, i64 %sub.ptr.div52
  %matched2.i.i.i.i.i.i176 = getelementptr inbounds %"struct.boost::sub_match", ptr %__x, i64 0, i32 1
  %.pre220 = load i8, ptr %matched2.i.i.i.i.i.i176, align 8, !tbaa !171, !range !49
  %xtraiter224 = and i64 %__n, 3
  %lcmp.mod225.not = icmp eq i64 %xtraiter224, 0
  br i1 %lcmp.mod225.not, label %for.inc.i.i.i.i177.prol.loopexit, label %for.inc.i.i.i.i177.prol.preheader

for.inc.i.i.i.i177.prol.preheader:                ; preds = %for.inc.lr.ph.i.i.i.i175
  %13 = and i64 %__n, -4
  br label %for.inc.i.i.i.i177.prol

for.inc.i.i.i.i177.prol:                          ; preds = %for.inc.i.i.i.i177.prol.preheader, %for.inc.i.i.i.i177.prol
  %__cur.013.i.i.i.i178.prol = phi ptr [ %incdec.ptr.i.i.i.i182.prol, %for.inc.i.i.i.i177.prol ], [ %add.ptr54, %for.inc.i.i.i.i177.prol.preheader ]
  %prol.iter226 = phi i64 [ %prol.iter226.next, %for.inc.i.i.i.i177.prol ], [ 0, %for.inc.i.i.i.i177.prol.preheader ]
  tail call void @llvm.memcpy.p0.p0.i64(ptr noundef nonnull align 8 dereferenceable(16) %__cur.013.i.i.i.i178.prol, ptr noundef nonnull align 8 dereferenceable(16) %__x, i64 16, i1 false)
  %matched.i.i.i.i.i.i180.prol = getelementptr inbounds %"struct.boost::sub_match", ptr %__cur.013.i.i.i.i178.prol, i64 0, i32 1
  store i8 %.pre220, ptr %matched.i.i.i.i.i.i180.prol, align 8, !tbaa !171
  %incdec.ptr.i.i.i.i182.prol = getelementptr inbounds %"struct.boost::sub_match", ptr %__cur.013.i.i.i.i178.prol, i64 1
  %prol.iter226.next = add nuw nsw i64 %prol.iter226, 1
  %prol.iter226.cmp.not = icmp eq i64 %prol.iter226.next, %xtraiter224
  br i1 %prol.iter226.cmp.not, label %for.inc.i.i.i.i177.prol.loopexit, label %for.inc.i.i.i.i177.prol, !llvm.loop !198

for.inc.i.i.i.i177.prol.loopexit:                 ; preds = %for.inc.i.i.i.i177.prol, %for.inc.lr.ph.i.i.i.i175
  %__cur.013.i.i.i.i178.unr = phi ptr [ %add.ptr54, %for.inc.lr.ph.i.i.i.i175 ], [ %incdec.ptr.i.i.i.i182.prol, %for.inc.i.i.i.i177.prol ]
  %__n.addr.012.i.i.i.i179.unr = phi i64 [ %__n, %for.inc.lr.ph.i.i.i.i175 ], [ %13, %for.inc.i.i.i.i177.prol ]
  %14 = icmp ult i64 %__n, 4
  br i1 %14, label %invoke.cont57, label %for.inc.i.i.i.i177

for.inc.i.i.i.i177:                               ; preds = %for.inc.i.i.i.i177.prol.loopexit, %for.inc.i.i.i.i177
  %__cur.013.i.i.i.i178 = phi ptr [ %incdec.ptr.i.i.i.i182.3, %for.inc.i.i.i.i177 ], [ %__cur.013.i.i.i.i178.unr, %for.inc.i.i.i.i177.prol.loopexit ]
  %__n.addr.012.i.i.i.i179 = phi i64 [ %dec.i.i.i.i181.3, %for.inc.i.i.i.i177 ], [ %__n.addr.012.i.i.i.i179.unr, %for.inc.i.i.i.i177.prol.loopexit ]
  tail call void @llvm.memcpy.p0.p0.i64(ptr noundef nonnull align 8 dereferenceable(16) %__cur.013.i.i.i.i178, ptr noundef nonnull align 8 dereferenceable(16) %__x, i64 16, i1 false)
  %matched.i.i.i.i.i.i180 = getelementptr inbounds %"struct.boost::sub_match", ptr %__cur.013.i.i.i.i178, i64 0, i32 1
  store i8 %.pre220, ptr %matched.i.i.i.i.i.i180, align 8, !tbaa !171
  %incdec.ptr.i.i.i.i182 = getelementptr inbounds %"struct.boost::sub_match", ptr %__cur.013.i.i.i.i178, i64 1
  tail call void @llvm.memcpy.p0.p0.i64(ptr noundef nonnull align 8 dereferenceable(16) %incdec.ptr.i.i.i.i182, ptr noundef nonnull align 8 dereferenceable(16) %__x, i64 16, i1 false)
  %matched.i.i.i.i.i.i180.1 = getelementptr inbounds %"struct.boost::sub_match", ptr %__cur.013.i.i.i.i178, i64 1, i32 1
  store i8 %.pre220, ptr %matched.i.i.i.i.i.i180.1, align 8, !tbaa !171
  %incdec.ptr.i.i.i.i182.1 = getelementptr inbounds %"struct.boost::sub_match", ptr %__cur.013.i.i.i.i178, i64 2
  tail call void @llvm.memcpy.p0.p0.i64(ptr noundef nonnull align 8 dereferenceable(16) %incdec.ptr.i.i.i.i182.1, ptr noundef nonnull align 8 dereferenceable(16) %__x, i64 16, i1 false)
  %matched.i.i.i.i.i.i180.2 = getelementptr inbounds %"struct.boost::sub_match", ptr %__cur.013.i.i.i.i178, i64 2, i32 1
  store i8 %.pre220, ptr %matched.i.i.i.i.i.i180.2, align 8, !tbaa !171
  %incdec.ptr.i.i.i.i182.2 = getelementptr inbounds %"struct.boost::sub_match", ptr %__cur.013.i.i.i.i178, i64 3
  tail call void @llvm.memcpy.p0.p0.i64(ptr noundef nonnull align 8 dereferenceable(16) %incdec.ptr.i.i.i.i182.2, ptr noundef nonnull align 8 dereferenceable(16) %__x, i64 16, i1 false)
  %matched.i.i.i.i.i.i180.3 = getelementptr inbounds %"struct.boost::sub_match", ptr %__cur.013.i.i.i.i178, i64 3, i32 1
  store i8 %.pre220, ptr %matched.i.i.i.i.i.i180.3, align 8, !tbaa !171
  %dec.i.i.i.i181.3 = add i64 %__n.addr.012.i.i.i.i179, -4
  %incdec.ptr.i.i.i.i182.3 = getelementptr inbounds %"struct.boost::sub_match", ptr %__cur.013.i.i.i.i178, i64 4
  %cmp.not.i.i.i.i183.3 = icmp eq i64 %dec.i.i.i.i181.3, 0
  br i1 %cmp.not.i.i.i.i183.3, label %invoke.cont57, label %for.inc.i.i.i.i177, !llvm.loop !199

invoke.cont57:                                    ; preds = %for.inc.i.i.i.i177, %for.inc.i.i.i.i177.prol.loopexit
  %cmp.not13.i.i.i.i.i = icmp eq ptr %12, %__position.coerce
  br i1 %cmp.not13.i.i.i.i.i, label %invoke.cont60, label %for.inc.i.i.i.i.i186

for.inc.i.i.i.i.i186:                             ; preds = %invoke.cont57, %for.inc.i.i.i.i.i186
  %__cur.015.i.i.i.i.i = phi ptr [ %incdec.ptr1.i.i.i.i.i190, %for.inc.i.i.i.i.i186 ], [ %cond.i173, %invoke.cont57 ]
  %__first.addr.014.i.i.i.i.i = phi ptr [ %incdec.ptr.i.i.i.i.i189, %for.inc.i.i.i.i.i186 ], [ %12, %invoke.cont57 ]
  tail call void @llvm.memcpy.p0.p0.i64(ptr noundef nonnull align 8 dereferenceable(16) %__cur.015.i.i.i.i.i, ptr noundef nonnull align 8 dereferenceable(16) %__first.addr.014.i.i.i.i.i, i64 16, i1 false)
  %matched.i.i.i.i.i.i.i187 = getelementptr inbounds %"struct.boost::sub_match", ptr %__cur.015.i.i.i.i.i, i64 0, i32 1
  %matched2.i.i.i.i.i.i.i188 = getelementptr inbounds %"struct.boost::sub_match", ptr %__first.addr.014.i.i.i.i.i, i64 0, i32 1
  %15 = load i8, ptr %matched2.i.i.i.i.i.i.i188, align 8, !tbaa !171, !range !49, !noundef !50
  store i8 %15, ptr %matched.i.i.i.i.i.i.i187, align 8, !tbaa !171
  %incdec.ptr.i.i.i.i.i189 = getelementptr inbounds %"struct.boost::sub_match", ptr %__first.addr.014.i.i.i.i.i, i64 1
  %incdec.ptr1.i.i.i.i.i190 = getelementptr inbounds %"struct.boost::sub_match", ptr %__cur.015.i.i.i.i.i, i64 1
  %cmp.not.i.i.i.i.i = icmp eq ptr %incdec.ptr.i.i.i.i.i189, %__position.coerce
  br i1 %cmp.not.i.i.i.i.i, label %invoke.cont60, label %for.inc.i.i.i.i.i186, !llvm.loop !200

invoke.cont60:                                    ; preds = %for.inc.i.i.i.i.i186, %invoke.cont57
  %__cur.0.lcssa.i.i.i.i.i191 = phi ptr [ %cond.i173, %invoke.cont57 ], [ %incdec.ptr1.i.i.i.i.i190, %for.inc.i.i.i.i.i186 ]
  %add.ptr62 = getelementptr inbounds %"struct.boost::sub_match", ptr %__cur.0.lcssa.i.i.i.i.i191, i64 %__n
  %cmp.not13.i.i.i.i.i192 = icmp eq ptr %1, %__position.coerce
  br i1 %cmp.not13.i.i.i.i.i192, label %invoke.cont64, label %for.inc.i.i.i.i.i193

for.inc.i.i.i.i.i193:                             ; preds = %invoke.cont60, %for.inc.i.i.i.i.i193
  %__cur.015.i.i.i.i.i194 = phi ptr [ %incdec.ptr1.i.i.i.i.i199, %for.inc.i.i.i.i.i193 ], [ %add.ptr62, %invoke.cont60 ]
  %__first.addr.014.i.i.i.i.i195 = phi ptr [ %incdec.ptr.i.i.i.i.i198, %for.inc.i.i.i.i.i193 ], [ %__position.coerce, %invoke.cont60 ]
  tail call void @llvm.memcpy.p0.p0.i64(ptr noundef nonnull align 8 dereferenceable(16) %__cur.015.i.i.i.i.i194, ptr noundef nonnull align 8 dereferenceable(16) %__first.addr.014.i.i.i.i.i195, i64 16, i1 false)
  %matched.i.i.i.i.i.i.i196 = getelementptr inbounds %"struct.boost::sub_match", ptr %__cur.015.i.i.i.i.i194, i64 0, i32 1
  %matched2.i.i.i.i.i.i.i197 = getelementptr inbounds %"struct.boost::sub_match", ptr %__first.addr.014.i.i.i.i.i195, i64 0, i32 1
  %16 = load i8, ptr %matched2.i.i.i.i.i.i.i197, align 8, !tbaa !171, !range !49, !noundef !50
  store i8 %16, ptr %matched.i.i.i.i.i.i.i196, align 8, !tbaa !171
  %incdec.ptr.i.i.i.i.i198 = getelementptr inbounds %"struct.boost::sub_match", ptr %__first.addr.014.i.i.i.i.i195, i64 1
  %incdec.ptr1.i.i.i.i.i199 = getelementptr inbounds %"struct.boost::sub_match", ptr %__cur.015.i.i.i.i.i194, i64 1
  %cmp.not.i.i.i.i.i200 = icmp eq ptr %incdec.ptr.i.i.i.i.i198, %1
  br i1 %cmp.not.i.i.i.i.i200, label %invoke.cont64, label %for.inc.i.i.i.i.i193, !llvm.loop !201

invoke.cont64:                                    ; preds = %for.inc.i.i.i.i.i193, %invoke.cont60
  %__cur.0.lcssa.i.i.i.i.i201 = phi ptr [ %add.ptr62, %invoke.cont60 ], [ %incdec.ptr1.i.i.i.i.i199, %for.inc.i.i.i.i.i193 ]
  %tobool.not.i = icmp eq ptr %12, null
  br i1 %tobool.not.i, label %_ZNSt12_Vector_baseIN5boost9sub_matchIPKcEESaIS4_EE13_M_deallocateEPS4_m.exit, label %if.then.i203

if.then.i203:                                     ; preds = %invoke.cont64
  tail call void @_ZdlPv(ptr noundef nonnull %12) #33
  br label %_ZNSt12_Vector_baseIN5boost9sub_matchIPKcEESaIS4_EE13_M_deallocateEPS4_m.exit

_ZNSt12_Vector_baseIN5boost9sub_matchIPKcEESaIS4_EE13_M_deallocateEPS4_m.exit: ; preds = %if.then.i203, %invoke.cont64
  store ptr %cond.i173, ptr %this, align 8, !tbaa !98
  store ptr %__cur.0.lcssa.i.i.i.i.i201, ptr %_M_finish, align 8, !tbaa !180
  %add.ptr90 = getelementptr inbounds %"struct.boost::sub_match", ptr %cond.i173, i64 %cond.i
  store ptr %add.ptr90, ptr %_M_end_of_storage, align 8, !tbaa !189
  br label %if.end94

if.end94:                                         ; preds = %for.body.i.i.i166, %for.body.i.i.i, %_ZNSt12_Vector_baseIN5boost9sub_matchIPKcEESaIS4_EE13_M_deallocateEPS4_m.exit, %invoke.cont35.thread, %entry
  ret void
}

; Function Attrs: mustprogress nounwind uwtable
define linkonce_odr void @_ZN5boost6detail12shared_countD2Ev(ptr noundef nonnull align 8 dereferenceable(8) %this) unnamed_addr #1 comdat align 2 personality ptr @__gxx_personality_v0 {
entry:
  %0 = load ptr, ptr %this, align 8, !tbaa !97
  %cmp.not = icmp eq ptr %0, null
  br i1 %cmp.not, label %if.end, label %if.then

if.then:                                          ; preds = %entry
  %use_count_.i = getelementptr inbounds %"class.boost::detail::sp_counted_base", ptr %0, i64 0, i32 1
  %1 = atomicrmw sub ptr %use_count_.i, i32 1 acq_rel, align 4
  %cmp.i = icmp eq i32 %1, 1
  br i1 %cmp.i, label %if.then.i, label %if.end

if.then.i:                                        ; preds = %if.then
  %vtable.i = load ptr, ptr %0, align 8, !tbaa !7
  %vfn.i = getelementptr inbounds ptr, ptr %vtable.i, i64 2
  %2 = load ptr, ptr %vfn.i, align 8
  invoke void %2(ptr noundef nonnull align 8 dereferenceable(16) %0)
          to label %.noexc unwind label %terminate.lpad

.noexc:                                           ; preds = %if.then.i
  %weak_count_.i.i = getelementptr inbounds %"class.boost::detail::sp_counted_base", ptr %0, i64 0, i32 2
  %3 = atomicrmw sub ptr %weak_count_.i.i, i32 1 acq_rel, align 4
  %cmp.i.i = icmp eq i32 %3, 1
  br i1 %cmp.i.i, label %if.then.i.i, label %if.end

if.then.i.i:                                      ; preds = %.noexc
  %vtable.i.i = load ptr, ptr %0, align 8, !tbaa !7
  %vfn.i.i = getelementptr inbounds ptr, ptr %vtable.i.i, i64 3
  %4 = load ptr, ptr %vfn.i.i, align 8
  invoke void %4(ptr noundef nonnull align 8 dereferenceable(16) %0)
          to label %if.end unwind label %terminate.lpad

if.end:                                           ; preds = %if.then.i.i, %.noexc, %if.then, %entry
  ret void

terminate.lpad:                                   ; preds = %if.then.i.i, %if.then.i
  %5 = landingpad { ptr, i32 }
          catch ptr null
  %6 = extractvalue { ptr, i32 } %5, 0
  tail call void @__clang_call_terminate(ptr %6) #32
  unreachable
}

; Function Attrs: mustprogress uwtable
define linkonce_odr noundef nonnull align 8 dereferenceable(24) ptr @_ZNSt6vectorIN5boost9sub_matchIPKcEESaIS4_EEaSERKS6_(ptr noundef nonnull align 8 dereferenceable(24) %this, ptr noundef nonnull align 8 dereferenceable(24) %__x) local_unnamed_addr #5 comdat align 2 personality ptr @__gxx_personality_v0 {
entry:
  %cmp.not = icmp eq ptr %__x, %this
  br i1 %cmp.not, label %if.end75, label %if.then

if.then:                                          ; preds = %entry
  %_M_finish.i = getelementptr inbounds %"struct.std::_Vector_base<boost::sub_match<const char *>, std::allocator<boost::sub_match<const char *>>>::_Vector_impl_data", ptr %__x, i64 0, i32 1
  %0 = load ptr, ptr %_M_finish.i, align 8, !tbaa !53
  %1 = load ptr, ptr %__x, align 8, !tbaa !53
  %sub.ptr.lhs.cast.i = ptrtoint ptr %0 to i64
  %sub.ptr.rhs.cast.i = ptrtoint ptr %1 to i64
  %sub.ptr.sub.i = sub i64 %sub.ptr.lhs.cast.i, %sub.ptr.rhs.cast.i
  %sub.ptr.div.i = sdiv exact i64 %sub.ptr.sub.i, 24
  %_M_end_of_storage.i = getelementptr inbounds %"struct.std::_Vector_base<boost::sub_match<const char *>, std::allocator<boost::sub_match<const char *>>>::_Vector_impl_data", ptr %this, i64 0, i32 2
  %2 = load ptr, ptr %_M_end_of_storage.i, align 8, !tbaa !189
  %3 = load ptr, ptr %this, align 8, !tbaa !53
  %sub.ptr.lhs.cast.i89 = ptrtoint ptr %2 to i64
  %sub.ptr.rhs.cast.i90 = ptrtoint ptr %3 to i64
  %sub.ptr.sub.i91 = sub i64 %sub.ptr.lhs.cast.i89, %sub.ptr.rhs.cast.i90
  %sub.ptr.div.i92 = sdiv exact i64 %sub.ptr.sub.i91, 24
  %cmp3 = icmp ugt i64 %sub.ptr.div.i, %sub.ptr.div.i92
  br i1 %cmp3, label %cond.true.i.i, label %if.else

cond.true.i.i:                                    ; preds = %if.then
  %cmp.i.i.i.i = icmp ugt i64 %sub.ptr.div.i, 384307168202282325
  br i1 %cmp.i.i.i.i, label %if.then3.i.i.i.i, label %_ZNSt12_Vector_baseIN5boost9sub_matchIPKcEESaIS4_EE11_M_allocateEm.exit.i, !prof !46

if.then3.i.i.i.i:                                 ; preds = %cond.true.i.i
  tail call void @_ZSt28__throw_bad_array_new_lengthv() #31
  unreachable

_ZNSt12_Vector_baseIN5boost9sub_matchIPKcEESaIS4_EE11_M_allocateEm.exit.i: ; preds = %cond.true.i.i
  %call5.i.i.i.i = tail call noalias noundef nonnull ptr @_Znwm(i64 noundef %sub.ptr.sub.i) #36
  %cmp.i.not15.i.i.i.i.i = icmp eq ptr %1, %0
  br i1 %cmp.i.not15.i.i.i.i.i, label %_ZNSt6vectorIN5boost9sub_matchIPKcEESaIS4_EE20_M_allocate_and_copyIN9__gnu_cxx17__normal_iteratorIPKS4_S6_EEEEPS4_mT_SE_.exit, label %for.inc.i.i.i.i.i

for.inc.i.i.i.i.i:                                ; preds = %_ZNSt12_Vector_baseIN5boost9sub_matchIPKcEESaIS4_EE11_M_allocateEm.exit.i, %for.inc.i.i.i.i.i
  %__cur.017.i.i.i.i.i = phi ptr [ %incdec.ptr.i.i.i.i.i, %for.inc.i.i.i.i.i ], [ %call5.i.i.i.i, %_ZNSt12_Vector_baseIN5boost9sub_matchIPKcEESaIS4_EE11_M_allocateEm.exit.i ]
  %__first.sroa.0.016.i.i.i.i.i = phi ptr [ %incdec.ptr.i.i.i.i.i.i, %for.inc.i.i.i.i.i ], [ %1, %_ZNSt12_Vector_baseIN5boost9sub_matchIPKcEESaIS4_EE11_M_allocateEm.exit.i ]
  tail call void @llvm.memcpy.p0.p0.i64(ptr noundef nonnull align 8 dereferenceable(16) %__cur.017.i.i.i.i.i, ptr noundef nonnull align 8 dereferenceable(16) %__first.sroa.0.016.i.i.i.i.i, i64 16, i1 false)
  %matched.i.i.i.i.i.i.i = getelementptr inbounds %"struct.boost::sub_match", ptr %__cur.017.i.i.i.i.i, i64 0, i32 1
  %matched2.i.i.i.i.i.i.i = getelementptr inbounds %"struct.boost::sub_match", ptr %__first.sroa.0.016.i.i.i.i.i, i64 0, i32 1
  %4 = load i8, ptr %matched2.i.i.i.i.i.i.i, align 8, !tbaa !171, !range !49, !noundef !50
  store i8 %4, ptr %matched.i.i.i.i.i.i.i, align 8, !tbaa !171
  %incdec.ptr.i.i.i.i.i.i = getelementptr inbounds %"struct.boost::sub_match", ptr %__first.sroa.0.016.i.i.i.i.i, i64 1
  %incdec.ptr.i.i.i.i.i = getelementptr inbounds %"struct.boost::sub_match", ptr %__cur.017.i.i.i.i.i, i64 1
  %cmp.i.not.i.i.i.i.i = icmp eq ptr %incdec.ptr.i.i.i.i.i.i, %0
  br i1 %cmp.i.not.i.i.i.i.i, label %_ZNSt6vectorIN5boost9sub_matchIPKcEESaIS4_EE20_M_allocate_and_copyIN9__gnu_cxx17__normal_iteratorIPKS4_S6_EEEEPS4_mT_SE_.exit, label %for.inc.i.i.i.i.i, !llvm.loop !202

_ZNSt6vectorIN5boost9sub_matchIPKcEESaIS4_EE20_M_allocate_and_copyIN9__gnu_cxx17__normal_iteratorIPKS4_S6_EEEEPS4_mT_SE_.exit: ; preds = %for.inc.i.i.i.i.i, %_ZNSt12_Vector_baseIN5boost9sub_matchIPKcEESaIS4_EE11_M_allocateEm.exit.i
  %tobool.not.i = icmp eq ptr %3, null
  br i1 %tobool.not.i, label %_ZNSt12_Vector_baseIN5boost9sub_matchIPKcEESaIS4_EE13_M_deallocateEPS4_m.exit, label %if.then.i

if.then.i:                                        ; preds = %_ZNSt6vectorIN5boost9sub_matchIPKcEESaIS4_EE20_M_allocate_and_copyIN9__gnu_cxx17__normal_iteratorIPKS4_S6_EEEEPS4_mT_SE_.exit
  tail call void @_ZdlPv(ptr noundef nonnull %3) #33
  br label %_ZNSt12_Vector_baseIN5boost9sub_matchIPKcEESaIS4_EE13_M_deallocateEPS4_m.exit

_ZNSt12_Vector_baseIN5boost9sub_matchIPKcEESaIS4_EE13_M_deallocateEPS4_m.exit: ; preds = %if.then.i, %_ZNSt6vectorIN5boost9sub_matchIPKcEESaIS4_EE20_M_allocate_and_copyIN9__gnu_cxx17__normal_iteratorIPKS4_S6_EEEEPS4_mT_SE_.exit
  store ptr %call5.i.i.i.i, ptr %this, align 8, !tbaa !98
  %add.ptr = getelementptr inbounds %"struct.boost::sub_match", ptr %call5.i.i.i.i, i64 %sub.ptr.div.i
  store ptr %add.ptr, ptr %_M_end_of_storage.i, align 8, !tbaa !189
  br label %if.end69

if.else:                                          ; preds = %if.then
  %_M_finish.i94 = getelementptr inbounds %"struct.std::_Vector_base<boost::sub_match<const char *>, std::allocator<boost::sub_match<const char *>>>::_Vector_impl_data", ptr %this, i64 0, i32 1
  %5 = load ptr, ptr %_M_finish.i94, align 8, !tbaa !180
  %sub.ptr.lhs.cast.i95 = ptrtoint ptr %5 to i64
  %sub.ptr.sub.i97 = sub i64 %sub.ptr.lhs.cast.i95, %sub.ptr.rhs.cast.i90
  %sub.ptr.div.i98 = sdiv exact i64 %sub.ptr.sub.i97, 24
  %cmp26.not = icmp ult i64 %sub.ptr.div.i98, %sub.ptr.div.i
  br i1 %cmp26.not, label %if.else49, label %if.then27

if.then27:                                        ; preds = %if.else
  %cmp7.i.i.i.i.i = icmp sgt i64 %sub.ptr.sub.i, 0
  br i1 %cmp7.i.i.i.i.i, label %for.body.preheader.i.i.i.i.i, label %if.end69

for.body.preheader.i.i.i.i.i:                     ; preds = %if.then27
  %sub.ptr.div11.i.i.i.i.i = udiv exact i64 %sub.ptr.sub.i, 24
  br label %for.body.i.i.i.i.i

for.body.i.i.i.i.i:                               ; preds = %for.body.i.i.i.i.i, %for.body.preheader.i.i.i.i.i
  %__n.010.i.i.i.i.i = phi i64 [ %dec.i.i.i.i.i, %for.body.i.i.i.i.i ], [ %sub.ptr.div11.i.i.i.i.i, %for.body.preheader.i.i.i.i.i ]
  %__result.addr.09.i.i.i.i.i = phi ptr [ %incdec.ptr1.i.i.i.i.i, %for.body.i.i.i.i.i ], [ %3, %for.body.preheader.i.i.i.i.i ]
  %__first.addr.08.i.i.i.i.i = phi ptr [ %incdec.ptr.i.i.i.i.i100, %for.body.i.i.i.i.i ], [ %1, %for.body.preheader.i.i.i.i.i ]
  %6 = load <2 x ptr>, ptr %__first.addr.08.i.i.i.i.i, align 8, !tbaa !53
  store <2 x ptr> %6, ptr %__result.addr.09.i.i.i.i.i, align 8, !tbaa !53
  %matched.i.i.i.i.i.i = getelementptr inbounds %"struct.boost::sub_match", ptr %__first.addr.08.i.i.i.i.i, i64 0, i32 1
  %7 = load i8, ptr %matched.i.i.i.i.i.i, align 8, !tbaa !171, !range !49, !noundef !50
  %matched4.i.i.i.i.i.i = getelementptr inbounds %"struct.boost::sub_match", ptr %__result.addr.09.i.i.i.i.i, i64 0, i32 1
  store i8 %7, ptr %matched4.i.i.i.i.i.i, align 8, !tbaa !171
  %incdec.ptr.i.i.i.i.i100 = getelementptr inbounds %"struct.boost::sub_match", ptr %__first.addr.08.i.i.i.i.i, i64 1
  %incdec.ptr1.i.i.i.i.i = getelementptr inbounds %"struct.boost::sub_match", ptr %__result.addr.09.i.i.i.i.i, i64 1
  %dec.i.i.i.i.i = add nsw i64 %__n.010.i.i.i.i.i, -1
  %cmp.i.i.i.i.i = icmp ugt i64 %__n.010.i.i.i.i.i, 1
  br i1 %cmp.i.i.i.i.i, label %for.body.i.i.i.i.i, label %if.end69, !llvm.loop !203

if.else49:                                        ; preds = %if.else
  %add.ptr55 = getelementptr inbounds %"struct.boost::sub_match", ptr %1, i64 %sub.ptr.div.i98
  %cmp7.i.i.i.i.i110 = icmp sgt i64 %sub.ptr.sub.i97, 0
  br i1 %cmp7.i.i.i.i.i110, label %for.body.preheader.i.i.i.i.i112, label %_ZSt4copyIPN5boost9sub_matchIPKcEES5_ET0_T_S7_S6_.exit

for.body.preheader.i.i.i.i.i112:                  ; preds = %if.else49
  %sub.ptr.div11.i.i.i.i.i113 = udiv exact i64 %sub.ptr.sub.i97, 24
  br label %for.body.i.i.i.i.i114

for.body.i.i.i.i.i114:                            ; preds = %for.body.i.i.i.i.i114, %for.body.preheader.i.i.i.i.i112
  %__n.010.i.i.i.i.i115 = phi i64 [ %dec.i.i.i.i.i124, %for.body.i.i.i.i.i114 ], [ %sub.ptr.div11.i.i.i.i.i113, %for.body.preheader.i.i.i.i.i112 ]
  %__result.addr.09.i.i.i.i.i116 = phi ptr [ %incdec.ptr1.i.i.i.i.i123, %for.body.i.i.i.i.i114 ], [ %3, %for.body.preheader.i.i.i.i.i112 ]
  %__first.addr.08.i.i.i.i.i117 = phi ptr [ %incdec.ptr.i.i.i.i.i122, %for.body.i.i.i.i.i114 ], [ %1, %for.body.preheader.i.i.i.i.i112 ]
  %8 = load <2 x ptr>, ptr %__first.addr.08.i.i.i.i.i117, align 8, !tbaa !53
  store <2 x ptr> %8, ptr %__result.addr.09.i.i.i.i.i116, align 8, !tbaa !53
  %matched.i.i.i.i.i.i120 = getelementptr inbounds %"struct.boost::sub_match", ptr %__first.addr.08.i.i.i.i.i117, i64 0, i32 1
  %9 = load i8, ptr %matched.i.i.i.i.i.i120, align 8, !tbaa !171, !range !49, !noundef !50
  %matched4.i.i.i.i.i.i121 = getelementptr inbounds %"struct.boost::sub_match", ptr %__result.addr.09.i.i.i.i.i116, i64 0, i32 1
  store i8 %9, ptr %matched4.i.i.i.i.i.i121, align 8, !tbaa !171
  %incdec.ptr.i.i.i.i.i122 = getelementptr inbounds %"struct.boost::sub_match", ptr %__first.addr.08.i.i.i.i.i117, i64 1
  %incdec.ptr1.i.i.i.i.i123 = getelementptr inbounds %"struct.boost::sub_match", ptr %__result.addr.09.i.i.i.i.i116, i64 1
  %dec.i.i.i.i.i124 = add nsw i64 %__n.010.i.i.i.i.i115, -1
  %cmp.i.i.i.i.i125 = icmp ugt i64 %__n.010.i.i.i.i.i115, 1
  br i1 %cmp.i.i.i.i.i125, label %for.body.i.i.i.i.i114, label %_ZSt4copyIPN5boost9sub_matchIPKcEES5_ET0_T_S7_S6_.exit, !llvm.loop !204

_ZSt4copyIPN5boost9sub_matchIPKcEES5_ET0_T_S7_S6_.exit: ; preds = %for.body.i.i.i.i.i114, %if.else49
  %cmp.not13.i.i.i.i = icmp eq ptr %add.ptr55, %0
  br i1 %cmp.not13.i.i.i.i, label %if.end69, label %for.inc.i.i.i.i

for.inc.i.i.i.i:                                  ; preds = %_ZSt4copyIPN5boost9sub_matchIPKcEES5_ET0_T_S7_S6_.exit, %for.inc.i.i.i.i
  %__cur.015.i.i.i.i = phi ptr [ %incdec.ptr1.i.i.i.i, %for.inc.i.i.i.i ], [ %5, %_ZSt4copyIPN5boost9sub_matchIPKcEES5_ET0_T_S7_S6_.exit ]
  %__first.addr.014.i.i.i.i = phi ptr [ %incdec.ptr.i.i.i.i, %for.inc.i.i.i.i ], [ %add.ptr55, %_ZSt4copyIPN5boost9sub_matchIPKcEES5_ET0_T_S7_S6_.exit ]
  tail call void @llvm.memcpy.p0.p0.i64(ptr noundef nonnull align 8 dereferenceable(16) %__cur.015.i.i.i.i, ptr noundef nonnull align 8 dereferenceable(16) %__first.addr.014.i.i.i.i, i64 16, i1 false)
  %matched.i.i.i.i.i.i131 = getelementptr inbounds %"struct.boost::sub_match", ptr %__cur.015.i.i.i.i, i64 0, i32 1
  %matched2.i.i.i.i.i.i = getelementptr inbounds %"struct.boost::sub_match", ptr %__first.addr.014.i.i.i.i, i64 0, i32 1
  %10 = load i8, ptr %matched2.i.i.i.i.i.i, align 8, !tbaa !171, !range !49, !noundef !50
  store i8 %10, ptr %matched.i.i.i.i.i.i131, align 8, !tbaa !171
  %incdec.ptr.i.i.i.i = getelementptr inbounds %"struct.boost::sub_match", ptr %__first.addr.014.i.i.i.i, i64 1
  %incdec.ptr1.i.i.i.i = getelementptr inbounds %"struct.boost::sub_match", ptr %__cur.015.i.i.i.i, i64 1
  %cmp.not.i.i.i.i = icmp eq ptr %incdec.ptr.i.i.i.i, %0
  br i1 %cmp.not.i.i.i.i, label %if.end69, label %for.inc.i.i.i.i, !llvm.loop !205

if.end69:                                         ; preds = %for.body.i.i.i.i.i, %for.inc.i.i.i.i, %_ZSt4copyIPN5boost9sub_matchIPKcEES5_ET0_T_S7_S6_.exit, %if.then27, %_ZNSt12_Vector_baseIN5boost9sub_matchIPKcEESaIS4_EE13_M_deallocateEPS4_m.exit
  %11 = load ptr, ptr %this, align 8, !tbaa !98
  %add.ptr72 = getelementptr inbounds %"struct.boost::sub_match", ptr %11, i64 %sub.ptr.div.i
  %_M_finish74 = getelementptr inbounds %"struct.std::_Vector_base<boost::sub_match<const char *>, std::allocator<boost::sub_match<const char *>>>::_Vector_impl_data", ptr %this, i64 0, i32 1
  store ptr %add.ptr72, ptr %_M_finish74, align 8, !tbaa !180
  br label %if.end75

if.end75:                                         ; preds = %if.end69, %entry
  ret ptr %this
}

; Function Attrs: mustprogress uwtable
define linkonce_odr noundef zeroext i1 @_ZN5boost16re_detail_10740012perl_matcherIPKcSaINS_9sub_matchIS3_EEENS_12regex_traitsIcNS_16cpp_regex_traitsIcEEEEE16match_all_statesEv(ptr noundef nonnull align 8 dereferenceable(236) %this) local_unnamed_addr #5 comdat align 2 personality ptr @__gxx_personality_v0 {
entry:
  %m_recursions = getelementptr inbounds %"class.boost::re_detail_107400::perl_matcher", ptr %this, i64 0, i32 34
  %0 = load i32, ptr %m_recursions, align 8, !tbaa !33
  %inc.i = add i32 %0, 1
  store i32 %inc.i, ptr %m_recursions, align 8, !tbaa !33
  %cmp.i = icmp ugt i32 %inc.i, 80
  br i1 %cmp.i, label %if.then, label %if.end

if.then:                                          ; preds = %entry
  %traits_inst = getelementptr inbounds %"class.boost::re_detail_107400::perl_matcher", ptr %this, i64 0, i32 10
  %1 = load ptr, ptr %traits_inst, align 8, !tbaa !206
  invoke void @_ZN5boost16re_detail_10740011raise_errorINS_20regex_traits_wrapperINS_12regex_traitsIcNS_16cpp_regex_traitsIcEEEEEEEEvRKT_NS_15regex_constants10error_typeE(ptr noundef nonnull align 8 dereferenceable(16) %1, i32 noundef 18)
          to label %if.end unwind label %lpad.loopexit.split-lp

lpad.loopexit:                                    ; preds = %memptr.end.i86
  %lpad.loopexit98 = landingpad { ptr, i32 }
          cleanup
  br label %ehcleanup54

lpad.loopexit.split-lp:                           ; preds = %if.else.i.i, %if.then.i.i, %if.then
  %lpad.loopexit.split-lp99 = landingpad { ptr, i32 }
          cleanup
  br label %ehcleanup54

if.end:                                           ; preds = %if.then, %entry
  %m_backup_state.i = getelementptr inbounds %"class.boost::re_detail_107400::perl_matcher", ptr %this, i64 0, i32 28
  %2 = load ptr, ptr %m_backup_state.i, align 8, !tbaa !175
  %incdec.ptr.i = getelementptr inbounds %"struct.boost::re_detail_107400::saved_state", ptr %2, i64 -1
  %m_stack_base.i = getelementptr inbounds %"class.boost::re_detail_107400::perl_matcher", ptr %this, i64 0, i32 27
  %3 = load ptr, ptr %m_stack_base.i, align 8, !tbaa !207
  %cmp.i69 = icmp ult ptr %incdec.ptr.i, %3
  br i1 %cmp.i69, label %if.then.i, label %_ZN5boost16re_detail_10740012perl_matcherIPKcSaINS_9sub_matchIS3_EEENS_12regex_traitsIcNS_16cpp_regex_traitsIcEEEEE22push_recursion_stopperEv.exit

if.then.i:                                        ; preds = %if.end
  %used_block_count.i.i = getelementptr inbounds %"class.boost::re_detail_107400::perl_matcher", ptr %this, i64 0, i32 29
  %4 = load i32, ptr %used_block_count.i.i, align 8, !tbaa !160
  %tobool.not.i.i = icmp eq i32 %4, 0
  br i1 %tobool.not.i.i, label %if.else.i.i, label %if.then.i.i

if.then.i.i:                                      ; preds = %if.then.i
  %dec.i.i = add i32 %4, -1
  store i32 %dec.i.i, ptr %used_block_count.i.i, align 8, !tbaa !160
  %call.i.i70 = invoke noundef ptr @_ZN5boost16re_detail_10740013get_mem_blockEv()
          to label %call.i.i.noexc unwind label %lpad.loopexit.split-lp

call.i.i.noexc:                                   ; preds = %if.then.i.i
  %incdec.ptr.i.i = getelementptr inbounds i8, ptr %call.i.i70, i64 4072
  %base.i.i.i = getelementptr inbounds i8, ptr %call.i.i70, i64 4080
  %5 = load <2 x ptr>, ptr %m_stack_base.i, align 8, !tbaa !53
  store i32 6, ptr %incdec.ptr.i.i, align 8, !tbaa !31
  store <2 x ptr> %5, ptr %base.i.i.i, align 8, !tbaa !53
  store ptr %call.i.i70, ptr %m_stack_base.i, align 8, !tbaa !207
  br label %_ZN5boost16re_detail_10740012perl_matcherIPKcSaINS_9sub_matchIS3_EEENS_12regex_traitsIcNS_16cpp_regex_traitsIcEEEEE12extend_stackEv.exit.i

if.else.i.i:                                      ; preds = %if.then.i
  %traits_inst.i.i = getelementptr inbounds %"class.boost::re_detail_107400::perl_matcher", ptr %this, i64 0, i32 10
  %6 = load ptr, ptr %traits_inst.i.i, align 8, !tbaa !206
  invoke void @_ZN5boost16re_detail_10740011raise_errorINS_20regex_traits_wrapperINS_12regex_traitsIcNS_16cpp_regex_traitsIcEEEEEEEEvRKT_NS_15regex_constants10error_typeE(ptr noundef nonnull align 8 dereferenceable(16) %6, i32 noundef 19)
          to label %.noexc unwind label %lpad.loopexit.split-lp

.noexc:                                           ; preds = %if.else.i.i
  %.pre.i = load ptr, ptr %m_backup_state.i, align 8, !tbaa !175
  br label %_ZN5boost16re_detail_10740012perl_matcherIPKcSaINS_9sub_matchIS3_EEENS_12regex_traitsIcNS_16cpp_regex_traitsIcEEEEE12extend_stackEv.exit.i

_ZN5boost16re_detail_10740012perl_matcherIPKcSaINS_9sub_matchIS3_EEENS_12regex_traitsIcNS_16cpp_regex_traitsIcEEEEE12extend_stackEv.exit.i: ; preds = %.noexc, %call.i.i.noexc
  %7 = phi ptr [ %incdec.ptr.i.i, %call.i.i.noexc ], [ %.pre.i, %.noexc ]
  %incdec.ptr3.i = getelementptr inbounds %"struct.boost::re_detail_107400::saved_state", ptr %7, i64 -1
  br label %_ZN5boost16re_detail_10740012perl_matcherIPKcSaINS_9sub_matchIS3_EEENS_12regex_traitsIcNS_16cpp_regex_traitsIcEEEEE22push_recursion_stopperEv.exit

_ZN5boost16re_detail_10740012perl_matcherIPKcSaINS_9sub_matchIS3_EEENS_12regex_traitsIcNS_16cpp_regex_traitsIcEEEEE22push_recursion_stopperEv.exit: ; preds = %_ZN5boost16re_detail_10740012perl_matcherIPKcSaINS_9sub_matchIS3_EEENS_12regex_traitsIcNS_16cpp_regex_traitsIcEEEEE12extend_stackEv.exit.i, %if.end
  %pmp.0.i = phi ptr [ %incdec.ptr3.i, %_ZN5boost16re_detail_10740012perl_matcherIPKcSaINS_9sub_matchIS3_EEENS_12regex_traitsIcNS_16cpp_regex_traitsIcEEEEE12extend_stackEv.exit.i ], [ %incdec.ptr.i, %if.end ]
  store i32 2, ptr %pmp.0.i, align 8, !tbaa !31
  store ptr %pmp.0.i, ptr %m_backup_state.i, align 8, !tbaa !175
  %pstate = getelementptr inbounds %"class.boost::re_detail_107400::perl_matcher", ptr %this, i64 0, i32 11
  %state_count = getelementptr inbounds %"class.boost::re_detail_107400::perl_matcher", ptr %this, i64 0, i32 14
  %max_state_count = getelementptr inbounds %"class.boost::re_detail_107400::perl_matcher", ptr %this, i64 0, i32 15
  %traits_inst12 = getelementptr inbounds %"class.boost::re_detail_107400::perl_matcher", ptr %this, i64 0, i32 10
  %m_match_flags = getelementptr inbounds %"class.boost::re_detail_107400::perl_matcher", ptr %this, i64 0, i32 12
  %position = getelementptr inbounds %"class.boost::re_detail_107400::perl_matcher", ptr %this, i64 0, i32 5
  %last = getelementptr inbounds %"class.boost::re_detail_107400::perl_matcher", ptr %this, i64 0, i32 4
  %search_base = getelementptr inbounds %"class.boost::re_detail_107400::perl_matcher", ptr %this, i64 0, i32 7
  %m_has_partial_match = getelementptr inbounds %"class.boost::re_detail_107400::perl_matcher", ptr %this, i64 0, i32 17
  %m_recursive_result.i = getelementptr inbounds %"class.boost::re_detail_107400::perl_matcher", ptr %this, i64 0, i32 30
  %m_unwound_lookahead.i = getelementptr inbounds %"class.boost::re_detail_107400::perl_matcher", ptr %this, i64 0, i32 31
  %m_unwound_alt.i = getelementptr inbounds %"class.boost::re_detail_107400::perl_matcher", ptr %this, i64 0, i32 32
  %.pre = load ptr, ptr %pstate, align 8, !tbaa !137
  br label %do.body

do.body:                                          ; preds = %invoke.cont49, %_ZN5boost16re_detail_10740012perl_matcherIPKcSaINS_9sub_matchIS3_EEENS_12regex_traitsIcNS_16cpp_regex_traitsIcEEEEE22push_recursion_stopperEv.exit
  %8 = phi ptr [ %.pre, %_ZN5boost16re_detail_10740012perl_matcherIPKcSaINS_9sub_matchIS3_EEENS_12regex_traitsIcNS_16cpp_regex_traitsIcEEEEE22push_recursion_stopperEv.exit ], [ %45, %invoke.cont49 ]
  %tobool.not106 = icmp eq ptr %8, null
  br i1 %tobool.not106, label %do.cond, label %while.body

while.body:                                       ; preds = %do.body, %while.cond.backedge
  %9 = phi ptr [ %37, %while.cond.backedge ], [ %8, %do.body ]
  %10 = load i32, ptr %9, align 8, !tbaa !208
  %idxprom = zext i32 %10 to i64
  %arrayidx = getelementptr inbounds [34 x { i64, i64 }], ptr @_ZZN5boost16re_detail_10740012perl_matcherIPKcSaINS_9sub_matchIS3_EEENS_12regex_traitsIcNS_16cpp_regex_traitsIcEEEEE16match_all_statesEvE14s_match_vtable, i64 0, i64 %idxprom
  %.unpack = load i64, ptr %arrayidx, align 16, !tbaa !31
  %11 = load i64, ptr %state_count, align 8, !tbaa !162
  %inc5 = add nsw i64 %11, 1
  store i64 %inc5, ptr %state_count, align 8, !tbaa !162
  %12 = and i64 %.unpack, 1
  %memptr.isvirtual.not = icmp eq i64 %12, 0
  br i1 %memptr.isvirtual.not, label %memptr.nonvirtual, label %memptr.virtual

memptr.virtual:                                   ; preds = %while.body
  %vtable = load ptr, ptr %this, align 8, !tbaa !7
  %13 = getelementptr i8, ptr %vtable, i64 %.unpack
  %14 = getelementptr i8, ptr %13, i64 -1
  %memptr.virtualfn = load ptr, ptr %14, align 8, !nosanitize !50
  br label %memptr.end

memptr.nonvirtual:                                ; preds = %while.body
  %memptr.nonvirtualfn = inttoptr i64 %.unpack to ptr
  br label %memptr.end

memptr.end:                                       ; preds = %memptr.nonvirtual, %memptr.virtual
  %15 = phi ptr [ %memptr.virtualfn, %memptr.virtual ], [ %memptr.nonvirtualfn, %memptr.nonvirtual ]
  %call8 = invoke noundef zeroext i1 %15(ptr noundef nonnull align 8 dereferenceable(236) %this)
          to label %invoke.cont7 unwind label %lpad6

invoke.cont7:                                     ; preds = %memptr.end
  br i1 %call8, label %invoke.cont7.while.cond.backedge_crit_edge, label %if.then9

invoke.cont7.while.cond.backedge_crit_edge:       ; preds = %invoke.cont7
  %.pre108 = load ptr, ptr %pstate, align 8, !tbaa !137
  br label %while.cond.backedge

if.then9:                                         ; preds = %invoke.cont7
  %16 = load i64, ptr %state_count, align 8, !tbaa !162
  %17 = load i64, ptr %max_state_count, align 8, !tbaa !141
  %cmp = icmp sgt i64 %16, %17
  br i1 %cmp, label %if.then11, label %if.end14

if.then11:                                        ; preds = %if.then9
  %18 = load ptr, ptr %traits_inst12, align 8, !tbaa !206
  invoke void @_ZN5boost16re_detail_10740011raise_errorINS_20regex_traits_wrapperINS_12regex_traitsIcNS_16cpp_regex_traitsIcEEEEEEEEvRKT_NS_15regex_constants10error_typeE(ptr noundef nonnull align 8 dereferenceable(16) %18, i32 noundef 18)
          to label %if.end14 unwind label %lpad6

lpad6:                                            ; preds = %if.then11, %memptr.end
  %19 = landingpad { ptr, i32 }
          cleanup
  br label %ehcleanup54

if.end14:                                         ; preds = %if.then11, %if.then9
  %20 = load i32, ptr %m_match_flags, align 8, !tbaa !138
  %and.i = and i32 %20, 8192
  %tobool16.not = icmp eq i32 %and.i, 0
  br i1 %tobool16.not, label %if.end22, label %land.lhs.true

land.lhs.true:                                    ; preds = %if.end14
  %21 = load ptr, ptr %position, align 8, !tbaa !110
  %22 = load ptr, ptr %last, align 8, !tbaa !109
  %cmp17 = icmp ne ptr %21, %22
  %23 = load ptr, ptr %search_base, align 8
  %cmp20.not = icmp eq ptr %21, %23
  %or.cond = select i1 %cmp17, i1 true, i1 %cmp20.not
  br i1 %or.cond, label %if.end22, label %if.then21

if.then21:                                        ; preds = %land.lhs.true
  store i8 1, ptr %m_has_partial_match, align 1, !tbaa !183
  br label %if.end22

if.end22:                                         ; preds = %if.then21, %land.lhs.true, %if.end14
  store i8 0, ptr %m_recursive_result.i, align 4, !tbaa !172
  store i8 0, ptr %m_unwound_lookahead.i, align 1, !tbaa !173
  store i8 0, ptr %m_unwound_alt.i, align 2, !tbaa !174
  br label %do.body.i

do.body.i:                                        ; preds = %call.i.noexc, %if.end22
  %24 = load ptr, ptr %m_backup_state.i, align 8, !tbaa !175
  %25 = load i32, ptr %24, align 8, !tbaa !31
  %idxprom.i = zext i32 %25 to i64
  %arrayidx.i = getelementptr inbounds [19 x { i64, i64 }], ptr @_ZZN5boost16re_detail_10740012perl_matcherIPKcSaINS_9sub_matchIS3_EEENS_12regex_traitsIcNS_16cpp_regex_traitsIcEEEEE6unwindEbE14s_unwind_table, i64 0, i64 %idxprom.i
  %.unpack.i = load i64, ptr %arrayidx.i, align 16, !tbaa !31
  %26 = and i64 %.unpack.i, 1
  %memptr.isvirtual.not.i = icmp eq i64 %26, 0
  br i1 %memptr.isvirtual.not.i, label %memptr.nonvirtual.i, label %memptr.virtual.i

memptr.virtual.i:                                 ; preds = %do.body.i
  %vtable.i = load ptr, ptr %this, align 8, !tbaa !7
  %27 = getelementptr i8, ptr %vtable.i, i64 %.unpack.i
  %28 = getelementptr i8, ptr %27, i64 -1
  %memptr.virtualfn.i = load ptr, ptr %28, align 8, !nosanitize !50
  br label %memptr.end.i

memptr.nonvirtual.i:                              ; preds = %do.body.i
  %memptr.nonvirtualfn.i = inttoptr i64 %.unpack.i to ptr
  br label %memptr.end.i

memptr.end.i:                                     ; preds = %memptr.nonvirtual.i, %memptr.virtual.i
  %29 = phi ptr [ %memptr.virtualfn.i, %memptr.virtual.i ], [ %memptr.nonvirtualfn.i, %memptr.nonvirtual.i ]
  %30 = load i8, ptr %m_recursive_result.i, align 4, !tbaa !172, !range !49, !noundef !50
  %tobool4.i = icmp ne i8 %30, 0
  %call.i72 = invoke noundef zeroext i1 %29(ptr noundef nonnull align 8 dereferenceable(236) %this, i1 noundef zeroext %tobool4.i)
          to label %call.i.noexc unwind label %lpad23

call.i.noexc:                                     ; preds = %memptr.end.i
  br i1 %call.i72, label %do.body.i, label %invoke.cont24, !llvm.loop !211

invoke.cont24:                                    ; preds = %call.i.noexc
  %31 = load ptr, ptr %pstate, align 8, !tbaa !137
  %tobool7.i.not = icmp eq ptr %31, null
  %32 = load i32, ptr %m_match_flags, align 8, !tbaa !138
  %and.i73 = and i32 %32, 8192
  %tobool28.not = icmp eq i32 %and.i73, 0
  br i1 %tobool28.not, label %if.end39, label %land.lhs.true29

land.lhs.true29:                                  ; preds = %invoke.cont24
  %33 = load ptr, ptr %position, align 8, !tbaa !110
  %34 = load ptr, ptr %last, align 8, !tbaa !109
  %cmp32 = icmp ne ptr %33, %34
  %35 = load ptr, ptr %search_base, align 8
  %cmp36.not = icmp eq ptr %33, %35
  %or.cond68 = select i1 %cmp32, i1 true, i1 %cmp36.not
  br i1 %or.cond68, label %if.end39, label %if.then37

if.then37:                                        ; preds = %land.lhs.true29
  store i8 1, ptr %m_has_partial_match, align 1, !tbaa !183
  br label %if.end39

lpad23:                                           ; preds = %memptr.end.i
  %36 = landingpad { ptr, i32 }
          cleanup
  br label %ehcleanup54

if.end39:                                         ; preds = %if.then37, %land.lhs.true29, %invoke.cont24
  br i1 %tobool7.i.not, label %cleanup53, label %while.cond.backedge

while.cond.backedge:                              ; preds = %if.end39, %invoke.cont7.while.cond.backedge_crit_edge
  %37 = phi ptr [ %.pre108, %invoke.cont7.while.cond.backedge_crit_edge ], [ %31, %if.end39 ]
  %tobool.not = icmp eq ptr %37, null
  br i1 %tobool.not, label %do.cond, label %while.body, !llvm.loop !212

do.cond:                                          ; preds = %while.cond.backedge, %do.body
  store i8 1, ptr %m_recursive_result.i, align 4, !tbaa !172
  store i8 0, ptr %m_unwound_lookahead.i, align 1, !tbaa !173
  store i8 0, ptr %m_unwound_alt.i, align 2, !tbaa !174
  br label %do.body.i78

do.body.i78:                                      ; preds = %call.i.noexc92, %do.cond
  %38 = load ptr, ptr %m_backup_state.i, align 8, !tbaa !175
  %39 = load i32, ptr %38, align 8, !tbaa !31
  %idxprom.i79 = zext i32 %39 to i64
  %arrayidx.i80 = getelementptr inbounds [19 x { i64, i64 }], ptr @_ZZN5boost16re_detail_10740012perl_matcherIPKcSaINS_9sub_matchIS3_EEENS_12regex_traitsIcNS_16cpp_regex_traitsIcEEEEE6unwindEbE14s_unwind_table, i64 0, i64 %idxprom.i79
  %.unpack.i81 = load i64, ptr %arrayidx.i80, align 16, !tbaa !31
  %40 = and i64 %.unpack.i81, 1
  %memptr.isvirtual.not.i82 = icmp eq i64 %40, 0
  br i1 %memptr.isvirtual.not.i82, label %memptr.nonvirtual.i90, label %memptr.virtual.i83

memptr.virtual.i83:                               ; preds = %do.body.i78
  %vtable.i84 = load ptr, ptr %this, align 8, !tbaa !7
  %41 = getelementptr i8, ptr %vtable.i84, i64 %.unpack.i81
  %42 = getelementptr i8, ptr %41, i64 -1
  %memptr.virtualfn.i85 = load ptr, ptr %42, align 8, !nosanitize !50
  br label %memptr.end.i86

memptr.nonvirtual.i90:                            ; preds = %do.body.i78
  %memptr.nonvirtualfn.i91 = inttoptr i64 %.unpack.i81 to ptr
  br label %memptr.end.i86

memptr.end.i86:                                   ; preds = %memptr.nonvirtual.i90, %memptr.virtual.i83
  %43 = phi ptr [ %memptr.virtualfn.i85, %memptr.virtual.i83 ], [ %memptr.nonvirtualfn.i91, %memptr.nonvirtual.i90 ]
  %44 = load i8, ptr %m_recursive_result.i, align 4, !tbaa !172, !range !49, !noundef !50
  %tobool4.i87 = icmp ne i8 %44, 0
  %call.i93 = invoke noundef zeroext i1 %43(ptr noundef nonnull align 8 dereferenceable(236) %this, i1 noundef zeroext %tobool4.i87)
          to label %call.i.noexc92 unwind label %lpad.loopexit

call.i.noexc92:                                   ; preds = %memptr.end.i86
  br i1 %call.i93, label %do.body.i78, label %invoke.cont49, !llvm.loop !213

invoke.cont49:                                    ; preds = %call.i.noexc92
  %45 = load ptr, ptr %pstate, align 8, !tbaa !137
  %tobool7.i89.not = icmp eq ptr %45, null
  br i1 %tobool7.i89.not, label %cleanup53, label %do.body, !llvm.loop !214

cleanup53:                                        ; preds = %invoke.cont49, %if.end39
  %retval.5.in = load i8, ptr %m_recursive_result.i, align 4, !range !49
  %retval.5 = icmp ne i8 %retval.5.in, 0
  %46 = load i32, ptr %m_recursions, align 8, !tbaa !33
  %dec.i = add i32 %46, -1
  store i32 %dec.i, ptr %m_recursions, align 8, !tbaa !33
  ret i1 %retval.5

ehcleanup54:                                      ; preds = %lpad23, %lpad6, %lpad.loopexit.split-lp, %lpad.loopexit
  %.pn.pn = phi { ptr, i32 } [ %36, %lpad23 ], [ %19, %lpad6 ], [ %lpad.loopexit98, %lpad.loopexit ], [ %lpad.loopexit.split-lp99, %lpad.loopexit.split-lp ]
  %47 = load i32, ptr %m_recursions, align 8, !tbaa !33
  %dec.i95 = add i32 %47, -1
  store i32 %dec.i95, ptr %m_recursions, align 8, !tbaa !33
  resume { ptr, i32 } %.pn.pn
}

; Function Attrs: mustprogress uwtable
define linkonce_odr void @_ZN5boost13match_resultsIPKcSaINS_9sub_matchIS2_EEEE12maybe_assignERKS6_(ptr noundef nonnull align 8 dereferenceable(77) %this, ptr noundef nonnull align 8 dereferenceable(77) %m) local_unnamed_addr #5 comdat align 2 personality ptr @__gxx_personality_v0 {
entry:
  %m_is_singular = getelementptr inbounds %"class.boost::match_results", ptr %this, i64 0, i32 5
  %0 = load i8, ptr %m_is_singular, align 4, !tbaa !87, !range !49, !noundef !50
  %tobool.not = icmp eq i8 %0, 0
  br i1 %tobool.not, label %_ZNK5boost13match_resultsIPKcSaINS_9sub_matchIS2_EEEE6suffixEv.exit, label %if.then

if.then:                                          ; preds = %entry
  %call.i = tail call noundef nonnull align 8 dereferenceable(24) ptr @_ZNSt6vectorIN5boost9sub_matchIPKcEESaIS4_EEaSERKS6_(ptr noundef nonnull align 8 dereferenceable(24) %this, ptr noundef nonnull align 8 dereferenceable(24) %m)
  %m_named_subs.i = getelementptr inbounds %"class.boost::match_results", ptr %m, i64 0, i32 3
  %m_named_subs3.i = getelementptr inbounds %"class.boost::match_results", ptr %this, i64 0, i32 3
  %1 = load ptr, ptr %m_named_subs.i, align 8, !tbaa !168
  %pn3.i.i.i = getelementptr inbounds %"class.boost::match_results", ptr %m, i64 0, i32 3, i32 1
  %2 = load ptr, ptr %pn3.i.i.i, align 8, !tbaa !97
  %cmp.not.i.i.i.i = icmp eq ptr %2, null
  br i1 %cmp.not.i.i.i.i, label %_ZN5boost10shared_ptrINS_16re_detail_10740020named_subexpressionsEEC2ERKS3_.exit.i.i, label %if.then.i.i.i.i

if.then.i.i.i.i:                                  ; preds = %if.then
  %use_count_.i.i.i.i.i = getelementptr inbounds %"class.boost::detail::sp_counted_base", ptr %2, i64 0, i32 1
  %3 = atomicrmw add ptr %use_count_.i.i.i.i.i, i32 1 monotonic, align 4
  br label %_ZN5boost10shared_ptrINS_16re_detail_10740020named_subexpressionsEEC2ERKS3_.exit.i.i

_ZN5boost10shared_ptrINS_16re_detail_10740020named_subexpressionsEEC2ERKS3_.exit.i.i: ; preds = %if.then.i.i.i.i, %if.then
  store ptr %1, ptr %m_named_subs3.i, align 8, !tbaa !53
  %pn3.i3.i.i = getelementptr inbounds %"class.boost::match_results", ptr %this, i64 0, i32 3, i32 1
  %4 = load ptr, ptr %pn3.i3.i.i, align 8, !tbaa !97
  store ptr %2, ptr %pn3.i3.i.i, align 8, !tbaa !97
  %cmp.not.i.i5.i.i = icmp eq ptr %4, null
  br i1 %cmp.not.i.i5.i.i, label %_ZN5boost10shared_ptrINS_16re_detail_10740020named_subexpressionsEEaSERKS3_.exit.i, label %if.then.i.i6.i.i

if.then.i.i6.i.i:                                 ; preds = %_ZN5boost10shared_ptrINS_16re_detail_10740020named_subexpressionsEEC2ERKS3_.exit.i.i
  %use_count_.i.i.i7.i.i = getelementptr inbounds %"class.boost::detail::sp_counted_base", ptr %4, i64 0, i32 1
  %5 = atomicrmw sub ptr %use_count_.i.i.i7.i.i, i32 1 acq_rel, align 4
  %cmp.i.i.i.i.i = icmp eq i32 %5, 1
  br i1 %cmp.i.i.i.i.i, label %if.then.i.i.i.i.i, label %_ZN5boost10shared_ptrINS_16re_detail_10740020named_subexpressionsEEaSERKS3_.exit.i

if.then.i.i.i.i.i:                                ; preds = %if.then.i.i6.i.i
  %vtable.i.i.i.i.i = load ptr, ptr %4, align 8, !tbaa !7
  %vfn.i.i.i.i.i = getelementptr inbounds ptr, ptr %vtable.i.i.i.i.i, i64 2
  %6 = load ptr, ptr %vfn.i.i.i.i.i, align 8
  invoke void %6(ptr noundef nonnull align 8 dereferenceable(16) %4)
          to label %.noexc.i.i.i.i unwind label %terminate.lpad.i.i.i.i

.noexc.i.i.i.i:                                   ; preds = %if.then.i.i.i.i.i
  %weak_count_.i.i.i.i.i.i = getelementptr inbounds %"class.boost::detail::sp_counted_base", ptr %4, i64 0, i32 2
  %7 = atomicrmw sub ptr %weak_count_.i.i.i.i.i.i, i32 1 acq_rel, align 4
  %cmp.i.i.i.i.i.i = icmp eq i32 %7, 1
  br i1 %cmp.i.i.i.i.i.i, label %if.then.i.i.i.i.i.i, label %_ZN5boost10shared_ptrINS_16re_detail_10740020named_subexpressionsEEaSERKS3_.exit.i

if.then.i.i.i.i.i.i:                              ; preds = %.noexc.i.i.i.i
  %vtable.i.i.i.i.i.i = load ptr, ptr %4, align 8, !tbaa !7
  %vfn.i.i.i.i.i.i = getelementptr inbounds ptr, ptr %vtable.i.i.i.i.i.i, i64 3
  %8 = load ptr, ptr %vfn.i.i.i.i.i.i, align 8
  invoke void %8(ptr noundef nonnull align 8 dereferenceable(16) %4)
          to label %_ZN5boost10shared_ptrINS_16re_detail_10740020named_subexpressionsEEaSERKS3_.exit.i unwind label %terminate.lpad.i.i.i.i

terminate.lpad.i.i.i.i:                           ; preds = %if.then.i.i.i.i.i.i, %if.then.i.i.i.i.i
  %9 = landingpad { ptr, i32 }
          catch ptr null
  %10 = extractvalue { ptr, i32 } %9, 0
  tail call void @__clang_call_terminate(ptr %10) #32
  unreachable

_ZN5boost10shared_ptrINS_16re_detail_10740020named_subexpressionsEEaSERKS3_.exit.i: ; preds = %if.then.i.i.i.i.i.i, %.noexc.i.i.i.i, %if.then.i.i6.i.i, %_ZN5boost10shared_ptrINS_16re_detail_10740020named_subexpressionsEEC2ERKS3_.exit.i.i
  %m_last_closed_paren.i = getelementptr inbounds %"class.boost::match_results", ptr %m, i64 0, i32 4
  %11 = load i32, ptr %m_last_closed_paren.i, align 8, !tbaa !169
  %m_last_closed_paren5.i = getelementptr inbounds %"class.boost::match_results", ptr %this, i64 0, i32 4
  store i32 %11, ptr %m_last_closed_paren5.i, align 8, !tbaa !169
  %m_is_singular.i = getelementptr inbounds %"class.boost::match_results", ptr %m, i64 0, i32 5
  %12 = load i8, ptr %m_is_singular.i, align 4, !tbaa !87, !range !49, !noundef !50
  %tobool.not.i = icmp eq i8 %12, 0
  store i8 %12, ptr %m_is_singular, align 4, !tbaa !87
  br i1 %tobool.not.i, label %if.then.i, label %cleanup.cont

if.then.i:                                        ; preds = %_ZN5boost10shared_ptrINS_16re_detail_10740020named_subexpressionsEEaSERKS3_.exit.i
  %m_base.i = getelementptr inbounds %"class.boost::match_results", ptr %m, i64 0, i32 1
  %13 = load ptr, ptr %m_base.i, align 8, !tbaa !164
  %m_base9.i = getelementptr inbounds %"class.boost::match_results", ptr %this, i64 0, i32 1
  store ptr %13, ptr %m_base9.i, align 8, !tbaa !164
  %m_null10.i = getelementptr inbounds %"class.boost::match_results", ptr %this, i64 0, i32 2
  br label %cleanup.cont.sink.split

_ZNK5boost13match_resultsIPKcSaINS_9sub_matchIS2_EEEE6suffixEv.exit: ; preds = %entry
