; ModuleID = 'bench/protobuf/original/code_generator.cc.ll'
source_filename = "bench/protobuf/original/code_generator.cc.ll"
target datalayout = "e-m:e-p270:32:32-p271:32:32-p272:64:64-i64:64-i128:128-f80:128-n8:16:32:64-S128"
target triple = "x86_64-unknown-linux-gnu"

%"class.std::ios_base::Init" = type { i8 }
%"struct.google::protobuf::FeatureSetDefaultTypeInternal" = type opaque
%"class.std::__cxx11::basic_string" = type { %"struct.std::__cxx11::basic_string<char>::_Alloc_hider", i64, %union.anon }
%"struct.std::__cxx11::basic_string<char>::_Alloc_hider" = type { ptr }
%union.anon = type { i64, [8 x i8] }
%"class.absl::lts_20230802::AlphaNum" = type { %"class.std::basic_string_view", [32 x i8] }
%"class.std::basic_string_view" = type { i64, ptr }
%"struct.std::_Vector_base<const google::protobuf::FileDescriptor *, std::allocator<const google::protobuf::FileDescriptor *>>::_Vector_impl_data" = type { ptr, ptr, ptr }
%"class.google::protobuf::FileDescriptor" = type { %"class.google::protobuf::internal::SymbolBase", i8, i8, i32, ptr, ptr, ptr, i32, ptr, i32, i32, i32, i32, i32, i32, ptr, ptr, ptr, ptr, ptr, ptr, ptr, ptr, ptr, ptr, ptr, ptr }
%"class.google::protobuf::internal::SymbolBase" = type { i8 }
%"class.absl::lts_20230802::StatusOr" = type { %"class.absl::lts_20230802::internal_statusor::StatusOrData" }
%"class.absl::lts_20230802::internal_statusor::StatusOrData" = type { %union.anon.3, %union.anon.4 }
%union.anon.3 = type { %"class.absl::lts_20230802::Status" }
%"class.absl::lts_20230802::Status" = type { i64 }
%union.anon.4 = type { %"class.google::protobuf::FeatureSetDefaults" }
%"class.google::protobuf::FeatureSetDefaults" = type { %"class.google::protobuf::Message", %union.anon.5 }
%"class.google::protobuf::Message" = type { %"class.google::protobuf::MessageLite" }
%"class.google::protobuf::MessageLite" = type { ptr, %"class.google::protobuf::internal::InternalMetadata" }
%"class.google::protobuf::internal::InternalMetadata" = type { i64 }
%union.anon.5 = type { %"struct.google::protobuf::FeatureSetDefaults::Impl_" }
%"struct.google::protobuf::FeatureSetDefaults::Impl_" = type { %"class.google::protobuf::internal::HasBits", %"class.google::protobuf::internal::CachedSize", %"class.google::protobuf::RepeatedPtrField", i32, i32 }
%"class.google::protobuf::internal::HasBits" = type { [1 x i32] }
%"class.google::protobuf::internal::CachedSize" = type { i32 }
%"class.google::protobuf::RepeatedPtrField" = type { %"class.google::protobuf::internal::RepeatedPtrFieldBase" }
%"class.google::protobuf::internal::RepeatedPtrFieldBase" = type { ptr, i32, i32, ptr }
%"class.std::vector.6" = type { %"struct.std::_Vector_base.7" }
%"struct.std::_Vector_base.7" = type { %"struct.std::_Vector_base<const google::protobuf::FieldDescriptor *, std::allocator<const google::protobuf::FieldDescriptor *>>::_Vector_impl" }
%"struct.std::_Vector_base<const google::protobuf::FieldDescriptor *, std::allocator<const google::protobuf::FieldDescriptor *>>::_Vector_impl" = type { %"struct.std::_Vector_base<const google::protobuf::FieldDescriptor *, std::allocator<const google::protobuf::FieldDescriptor *>>::_Vector_impl_data" }
%"struct.std::_Vector_base<const google::protobuf::FieldDescriptor *, std::allocator<const google::protobuf::FieldDescriptor *>>::_Vector_impl_data" = type { ptr, ptr, ptr }
%"class.absl::lts_20230802::log_internal::LogMessageFatal" = type { %"class.absl::lts_20230802::log_internal::LogMessage" }
%"class.absl::lts_20230802::log_internal::LogMessage" = type { %"class.absl::lts_20230802::base_internal::ErrnoSaver", %"class.std::unique_ptr" }
%"class.absl::lts_20230802::base_internal::ErrnoSaver" = type { i32 }
%"class.std::unique_ptr" = type { %"struct.std::__uniq_ptr_data" }
%"struct.std::__uniq_ptr_data" = type { %"class.std::__uniq_ptr_impl" }
%"class.std::__uniq_ptr_impl" = type { %"class.std::tuple" }
%"class.std::tuple" = type { %"struct.std::_Tuple_impl" }
%"struct.std::_Tuple_impl" = type { %"struct.std::_Head_base.12" }
%"struct.std::_Head_base.12" = type { ptr }
%"class.google::protobuf::compiler::Version" = type { %"class.google::protobuf::Message", %union.anon.13 }
%union.anon.13 = type { %"struct.google::protobuf::compiler::Version::Impl_" }
%"struct.google::protobuf::compiler::Version::Impl_" = type <{ %"class.google::protobuf::internal::HasBits", %"class.google::protobuf::internal::CachedSize", %"struct.google::protobuf::internal::ArenaStringPtr", i32, i32, i32, [4 x i8] }>
%"struct.google::protobuf::internal::ArenaStringPtr" = type { %"class.google::protobuf::internal::TaggedStringPtr" }
%"class.google::protobuf::internal::TaggedStringPtr" = type { ptr }
%"struct.absl::lts_20230802::strings_internal::Splitter<absl::lts_20230802::ByChar, absl::lts_20230802::SkipEmpty, std::basic_string_view<char>>::ConvertToContainer" = type { i8 }
%"class.std::vector.14" = type { %"struct.std::_Vector_base.15" }
%"struct.std::_Vector_base.15" = type { %"struct.std::_Vector_base<std::basic_string_view<char>, std::allocator<std::basic_string_view<char>>>::_Vector_impl" }
%"struct.std::_Vector_base<std::basic_string_view<char>, std::allocator<std::basic_string_view<char>>>::_Vector_impl" = type { %"struct.std::_Vector_base<std::basic_string_view<char>, std::allocator<std::basic_string_view<char>>>::_Vector_impl_data" }
%"struct.std::_Vector_base<std::basic_string_view<char>, std::allocator<std::basic_string_view<char>>>::_Vector_impl_data" = type { ptr, ptr, ptr }
%"class.absl::lts_20230802::strings_internal::Splitter" = type <{ %"class.std::basic_string_view", %"class.absl::lts_20230802::ByChar", %"struct.absl::lts_20230802::SkipEmpty", [6 x i8] }>
%"class.absl::lts_20230802::ByChar" = type { i8 }
%"struct.absl::lts_20230802::SkipEmpty" = type { i8 }
%"struct.std::_Vector_base<std::pair<std::__cxx11::basic_string<char>, std::__cxx11::basic_string<char>>, std::allocator<std::pair<std::__cxx11::basic_string<char>, std::__cxx11::basic_string<char>>>>::_Vector_impl_data" = type { ptr, ptr, ptr }
%"struct.std::pair" = type { %"class.std::__cxx11::basic_string", %"class.std::__cxx11::basic_string" }
%"struct.std::__cxx11::basic_string<char>::__sv_wrapper" = type { %"class.std::basic_string_view" }
%"class.std::allocator.0" = type { i8 }
%"struct.std::array" = type { [16 x %struct.raw_view] }
%struct.raw_view = type { ptr, i64 }
%"class.absl::lts_20230802::strings_internal::SplitIterator" = type <{ i64, i32, [4 x i8], %"class.std::basic_string_view", ptr, %"class.absl::lts_20230802::ByChar", %"struct.absl::lts_20230802::SkipEmpty", [6 x i8] }>
%struct._Guard = type { ptr }

$_ZN4absl12lts_2023080212log_internal10LogMessagelsILi50EEERS2_RAT__Kc = comdat any

$_ZN4absl12lts_2023080212log_internal10LogMessagelsILi55EEERS2_RAT__Kc = comdat any

$_ZNK6google8protobuf8compiler13CodeGenerator20GetSupportedFeaturesEv = comdat any

$_ZNK6google8protobuf8compiler13CodeGenerator14HasGenerateAllEv = comdat any

$_ZNK6google8protobuf8compiler13CodeGenerator20GetFeatureExtensionsEv = comdat any

$_ZNK6google8protobuf8compiler13CodeGenerator17GetMinimumEditionEv = comdat any

$_ZNK6google8protobuf8compiler13CodeGenerator17GetMaximumEditionEv = comdat any

$__clang_call_terminate = comdat any

$_ZNK4absl12lts_2023080216strings_internal8SplitterINS0_6ByCharENS0_9SkipEmptyESt17basic_string_viewIcSt11char_traitsIcEEE18ConvertToContainerISt6vectorIS8_SaIS8_EES8_Lb0EEclERKS9_ = comdat any

$_ZNSt6vectorISt17basic_string_viewIcSt11char_traitsIcEESaIS3_EE15_M_range_insertIPZNK4absl12lts_2023080216strings_internal8SplitterINS8_6ByCharENS8_9SkipEmptyES3_E18ConvertToContainerIS5_S3_Lb0EEclERKSD_E8raw_viewEEvN9__gnu_cxx17__normal_iteratorIPS3_S5_EET_SO_St20forward_iterator_tag = comdat any

$_ZNSt6vectorISt4pairINSt7__cxx1112basic_stringIcSt11char_traitsIcESaIcEEES6_ESaIS7_EE17_M_realloc_insertIJRSt17basic_string_viewIcS4_ERA1_KcEEEvN9__gnu_cxx17__normal_iteratorIPS7_S9_EEDpOT_ = comdat any

$_ZNSt4pairINSt7__cxx1112basic_stringIcSt11char_traitsIcESaIcEEES5_EC2IRSt17basic_string_viewIcS3_ERA1_KcTnNSt9enable_ifIXaaclsr5_PCCPE22_MoveConstructiblePairIT_T0_EEntclsr5_PCCPE30_ImplicitlyMoveConvertiblePairISF_SG_EEEbE4typeELb0EEEOSF_OSG_ = comdat any

$_ZNSt7__cxx1112basic_stringIcSt11char_traitsIcESaIcEE12_M_constructIPKcEEvT_S8_St20forward_iterator_tag = comdat any

$_ZZNSt7__cxx1112basic_stringIcSt11char_traitsIcESaIcEE12_M_constructIPKcEEvT_S8_St20forward_iterator_tagEN6_GuardD2Ev = comdat any

$_ZNSt6vectorISt4pairINSt7__cxx1112basic_stringIcSt11char_traitsIcESaIcEEES6_ESaIS7_EE17_M_realloc_insertIJSt17basic_string_viewIcS4_ESC_EEEvN9__gnu_cxx17__normal_iteratorIPS7_S9_EEDpOT_ = comdat any

$_ZNSt4pairINSt7__cxx1112basic_stringIcSt11char_traitsIcESaIcEEES5_EC2ISt17basic_string_viewIcS3_ES9_TnNSt9enable_ifIXaaclsr5_PCCPE22_MoveConstructiblePairIT_T0_EEntclsr5_PCCPE30_ImplicitlyMoveConvertiblePairISB_SC_EEEbE4typeELb0EEEOSB_OSC_ = comdat any

@_ZStL8__ioinit = internal global %"class.std::ios_base::Init" zeroinitializer, align 1
@__dso_handle = external hidden global i8
@.str = private unnamed_addr constant [65 x i8] c"Code generator returned false but provided no error description.\00", align 1
@.str.1 = private unnamed_addr constant [3 x i8] c": \00", align 1
@.str.2 = private unnamed_addr constant [142 x i8] c"generated/home/dtcxzyw/WorkSpace/Projects/compilers/llvm-opt-benchmark/bench/protobuf/protobuf/src/google/protobuf/compiler/code_generator.cc\00", align 1
@.str.3 = private unnamed_addr constant [50 x i8] c"This GeneratorContext does not support insertion.\00", align 1
@.str.4 = private unnamed_addr constant [55 x i8] c"This GeneratorContext does not support ListParsedFiles\00", align 1
@.str.5 = private unnamed_addr constant [1 x i8] zeroinitializer, align 1
@.str.6 = private unnamed_addr constant [12 x i8] c".protodevel\00", align 1
@.str.7 = private unnamed_addr constant [7 x i8] c".proto\00", align 1
@.str.8 = private unnamed_addr constant [35 x i8] c"google/protobuf/cpp_features.proto\00", align 1
@.str.9 = private unnamed_addr constant [36 x i8] c"google/protobuf/java_features.proto\00", align 1
@_ZTVN6google8protobuf8compiler13CodeGeneratorE = unnamed_addr constant { [11 x ptr] } { [11 x ptr] [ptr null, ptr @_ZTIN6google8protobuf8compiler13CodeGeneratorE, ptr @_ZN6google8protobuf8compiler13CodeGeneratorD1Ev, ptr @_ZN6google8protobuf8compiler13CodeGeneratorD0Ev, ptr @__cxa_pure_virtual, ptr @_ZNK6google8protobuf8compiler13CodeGenerator11GenerateAllERKSt6vectorIPKNS0_14FileDescriptorESaIS6_EERKNSt7__cxx1112basic_stringIcSt11char_traitsIcESaIcEEEPNS1_16GeneratorContextEPSG_, ptr @_ZNK6google8protobuf8compiler13CodeGenerator20GetSupportedFeaturesEv, ptr @_ZNK6google8protobuf8compiler13CodeGenerator14HasGenerateAllEv, ptr @_ZNK6google8protobuf8compiler13CodeGenerator20GetFeatureExtensionsEv, ptr @_ZNK6google8protobuf8compiler13CodeGenerator17GetMinimumEditionEv, ptr @_ZNK6google8protobuf8compiler13CodeGenerator17GetMaximumEditionEv] }, align 8
@_ZTVN10__cxxabiv117__class_type_infoE = external global [0 x ptr]
@_ZTSN6google8protobuf8compiler13CodeGeneratorE = constant [43 x i8] c"N6google8protobuf8compiler13CodeGeneratorE\00", align 1
@_ZTIN6google8protobuf8compiler13CodeGeneratorE = constant { ptr, ptr } { ptr getelementptr inbounds (ptr, ptr @_ZTVN10__cxxabiv117__class_type_infoE, i64 2), ptr @_ZTSN6google8protobuf8compiler13CodeGeneratorE }, align 8
@_ZTVN6google8protobuf8compiler16GeneratorContextE = unnamed_addr constant { [10 x ptr] } { [10 x ptr] [ptr null, ptr @_ZTIN6google8protobuf8compiler16GeneratorContextE, ptr @_ZN6google8protobuf8compiler16GeneratorContextD1Ev, ptr @_ZN6google8protobuf8compiler16GeneratorContextD0Ev, ptr @__cxa_pure_virtual, ptr @_ZN6google8protobuf8compiler16GeneratorContext13OpenForAppendERKNSt7__cxx1112basic_stringIcSt11char_traitsIcESaIcEEE, ptr @_ZN6google8protobuf8compiler16GeneratorContext13OpenForInsertERKNSt7__cxx1112basic_stringIcSt11char_traitsIcESaIcEEESA_, ptr @_ZN6google8protobuf8compiler16GeneratorContext34OpenForInsertWithGeneratedCodeInfoERKNSt7__cxx1112basic_stringIcSt11char_traitsIcESaIcEEESA_RKNS0_17GeneratedCodeInfoE, ptr @_ZN6google8protobuf8compiler16GeneratorContext15ListParsedFilesEPSt6vectorIPKNS0_14FileDescriptorESaIS6_EE, ptr @_ZNK6google8protobuf8compiler16GeneratorContext18GetCompilerVersionEPNS1_7VersionE] }, align 8
@_ZTSN6google8protobuf8compiler16GeneratorContextE = constant [46 x i8] c"N6google8protobuf8compiler16GeneratorContextE\00", align 1
@_ZTIN6google8protobuf8compiler16GeneratorContextE = constant { ptr, ptr } { ptr getelementptr inbounds (ptr, ptr @_ZTVN10__cxxabiv117__class_type_infoE, i64 2), ptr @_ZTSN6google8protobuf8compiler16GeneratorContextE }, align 8
@_ZN6google8protobuf29_FeatureSet_default_instance_E = external global %"struct.google::protobuf::FeatureSetDefaultTypeInternal", align 1
@.str.10 = private unnamed_addr constant [26 x i8] c"basic_string_view::substr\00", align 1
@.str.11 = private unnamed_addr constant [49 x i8] c"%s: __pos (which is %zu) > __size (which is %zu)\00", align 1
@.str.12 = private unnamed_addr constant [24 x i8] c"vector::_M_range_insert\00", align 1
@.str.14 = private unnamed_addr constant [26 x i8] c"vector::_M_realloc_insert\00", align 1
@llvm.global_ctors = appending global [1 x { i32, ptr, ptr }] [{ i32, ptr, ptr } { i32 65535, ptr @_GLOBAL__sub_I_code_generator.cc, ptr null }]

@_ZN6google8protobuf8compiler13CodeGeneratorD1Ev = unnamed_addr alias void (ptr), ptr @_ZN6google8protobuf8compiler13CodeGeneratorD2Ev
@_ZN6google8protobuf8compiler16GeneratorContextD1Ev = unnamed_addr alias void (ptr), ptr @_ZN6google8protobuf8compiler16GeneratorContextD2Ev

declare void @_ZNSt8ios_base4InitC1Ev(ptr noundef nonnull align 1 dereferenceable(1)) unnamed_addr #0

; Function Attrs: nounwind
declare void @_ZNSt8ios_base4InitD1Ev(ptr noundef nonnull align 1 dereferenceable(1)) unnamed_addr #1

; Function Attrs: nofree nounwind
declare i32 @__cxa_atexit(ptr, ptr, ptr) local_unnamed_addr #2

; Function Attrs: mustprogress nofree norecurse nosync nounwind willreturn memory(none) uwtable
define void @_ZN6google8protobuf8compiler13CodeGeneratorD2Ev(ptr nocapture nonnull readnone align 8 %this) unnamed_addr #3 align 2 {
entry:
  ret void
}

; Function Attrs: mustprogress noreturn nounwind memory(inaccessiblemem: write) uwtable
define void @_ZN6google8protobuf8compiler13CodeGeneratorD0Ev(ptr nocapture nonnull readnone align 8 %this) unnamed_addr #4 align 2 {
entry:
  tail call void @llvm.trap() #24
  unreachable
}

; Function Attrs: cold noreturn nounwind memory(inaccessiblemem: write)
declare void @llvm.trap() #5

; Function Attrs: mustprogress uwtable
define noundef zeroext i1 @_ZNK6google8protobuf8compiler13CodeGenerator11GenerateAllERKSt6vectorIPKNS0_14FileDescriptorESaIS6_EERKNSt7__cxx1112basic_stringIcSt11char_traitsIcESaIcEEEPNS1_16GeneratorContextEPSG_(ptr noundef nonnull align 8 dereferenceable(8) %this, ptr nocapture noundef nonnull readonly align 8 dereferenceable(24) %files, ptr noundef nonnull align 8 dereferenceable(32) %parameter, ptr noundef %generator_context, ptr noundef %error) unnamed_addr #6 align 2 personality ptr @__gxx_personality_v0 {
entry:
  %ref.tmp = alloca %"class.std::__cxx11::basic_string", align 8
  %ref.tmp13 = alloca %"class.absl::lts_20230802::AlphaNum", align 8
  %ref.tmp15 = alloca %"class.absl::lts_20230802::AlphaNum", align 8
  %ref.tmp16 = alloca %"class.absl::lts_20230802::AlphaNum", align 8
  %_M_finish.i = getelementptr inbounds %"struct.std::_Vector_base<const google::protobuf::FileDescriptor *, std::allocator<const google::protobuf::FileDescriptor *>>::_Vector_impl_data", ptr %files, i64 0, i32 1
  %0 = load ptr, ptr %_M_finish.i, align 8
  %1 = load ptr, ptr %files, align 8
  %cmp19.not = icmp eq ptr %0, %1
  br i1 %cmp19.not, label %for.end, label %for.body.lr.ph

for.body.lr.ph:                                   ; preds = %entry
  %tobool5 = icmp eq ptr %error, null
  br i1 %tobool5, label %for.body.us, label %for.body

for.body.us:                                      ; preds = %for.body.lr.ph, %for.cond.us
  %indvars.iv31 = phi i64 [ %indvars.iv.next32, %for.cond.us ], [ 0, %for.body.lr.ph ]
  %2 = phi ptr [ %6, %for.cond.us ], [ %1, %for.body.lr.ph ]
  %add.ptr.i.us = getelementptr inbounds ptr, ptr %2, i64 %indvars.iv31
  %3 = load ptr, ptr %add.ptr.i.us, align 8
  %vtable.us = load ptr, ptr %this, align 8
  %vfn.us = getelementptr inbounds ptr, ptr %vtable.us, i64 2
  %4 = load ptr, ptr %vfn.us, align 8
  %call4.us = tail call noundef zeroext i1 %4(ptr noundef nonnull align 8 dereferenceable(8) %this, ptr noundef %3, ptr noundef nonnull align 8 dereferenceable(32) %parameter, ptr noundef %generator_context, ptr noundef null)
  br i1 %call4.us, label %for.cond.us, label %for.end

for.cond.us:                                      ; preds = %for.body.us
  %indvars.iv.next32 = add nuw i64 %indvars.iv31, 1
  %5 = load ptr, ptr %_M_finish.i, align 8
  %6 = load ptr, ptr %files, align 8
  %sub.ptr.lhs.cast.i.us = ptrtoint ptr %5 to i64
  %sub.ptr.rhs.cast.i.us = ptrtoint ptr %6 to i64
  %sub.ptr.sub.i.us = sub i64 %sub.ptr.lhs.cast.i.us, %sub.ptr.rhs.cast.i.us
  %sub.ptr.div.i.us = ashr exact i64 %sub.ptr.sub.i.us, 3
  %cmp.us = icmp ugt i64 %sub.ptr.div.i.us, %indvars.iv.next32
  br i1 %cmp.us, label %for.body.us, label %for.end, !llvm.loop !4

for.cond:                                         ; preds = %land.lhs.true10.thread, %if.end18
  %indvars.iv.next = add nuw i64 %indvars.iv, 1
  %7 = load ptr, ptr %_M_finish.i, align 8
  %8 = load ptr, ptr %files, align 8
  %sub.ptr.lhs.cast.i = ptrtoint ptr %7 to i64
  %sub.ptr.rhs.cast.i = ptrtoint ptr %8 to i64
  %sub.ptr.sub.i = sub i64 %sub.ptr.lhs.cast.i, %sub.ptr.rhs.cast.i
  %sub.ptr.div.i = ashr exact i64 %sub.ptr.sub.i, 3
  %cmp = icmp ugt i64 %sub.ptr.div.i, %indvars.iv.next
  br i1 %cmp, label %for.body, label %for.end, !llvm.loop !4

for.body:                                         ; preds = %for.body.lr.ph, %for.cond
  %indvars.iv = phi i64 [ %indvars.iv.next, %for.cond ], [ 0, %for.body.lr.ph ]
  %9 = phi ptr [ %8, %for.cond ], [ %1, %for.body.lr.ph ]
  %add.ptr.i = getelementptr inbounds ptr, ptr %9, i64 %indvars.iv
  %10 = load ptr, ptr %add.ptr.i, align 8
  %vtable = load ptr, ptr %this, align 8
  %vfn = getelementptr inbounds ptr, ptr %vtable, i64 2
  %11 = load ptr, ptr %vfn, align 8
  %call4 = tail call noundef zeroext i1 %11(ptr noundef nonnull align 8 dereferenceable(8) %this, ptr noundef %10, ptr noundef nonnull align 8 dereferenceable(32) %parameter, ptr noundef %generator_context, ptr noundef nonnull %error)
  %call1134 = tail call noundef zeroext i1 @_ZNKSt7__cxx1112basic_stringIcSt11char_traitsIcESaIcEE5emptyEv(ptr noundef nonnull align 8 dereferenceable(32) %error) #25
  br i1 %call4, label %land.lhs.true10.thread, label %land.lhs.true6

land.lhs.true6:                                   ; preds = %for.body
  br i1 %call1134, label %if.then, label %land.lhs.true10

if.then:                                          ; preds = %land.lhs.true6
  %call8 = tail call noundef nonnull align 8 dereferenceable(32) ptr @_ZNSt7__cxx1112basic_stringIcSt11char_traitsIcESaIcEEaSEPKc(ptr noundef nonnull align 8 dereferenceable(32) %error, ptr noundef nonnull @.str)
  br label %land.lhs.true10

land.lhs.true10:                                  ; preds = %land.lhs.true6, %if.then
  %call11 = tail call noundef zeroext i1 @_ZNKSt7__cxx1112basic_stringIcSt11char_traitsIcESaIcEE5emptyEv(ptr noundef nonnull align 8 dereferenceable(32) %error) #25
  br i1 %call11, label %if.end18, label %if.then12

land.lhs.true10.thread:                           ; preds = %for.body
  br i1 %call1134, label %for.cond, label %if.then12

if.then12:                                        ; preds = %land.lhs.true10.thread, %land.lhs.true10
  %name_.i = getelementptr inbounds %"class.google::protobuf::FileDescriptor", ptr %10, i64 0, i32 4
  %12 = load ptr, ptr %name_.i, align 8
  %call.i = tail call { i64, ptr } @_ZNKSt7__cxx1112basic_stringIcSt11char_traitsIcESaIcEEcvSt17basic_string_viewIcS2_EEv(ptr noundef nonnull align 8 dereferenceable(32) %12) #25
  %13 = extractvalue { i64, ptr } %call.i, 0
  store i64 %13, ptr %ref.tmp13, align 8
  %14 = getelementptr inbounds { i64, ptr }, ptr %ref.tmp13, i64 0, i32 1
  %15 = extractvalue { i64, ptr } %call.i, 1
  store ptr %15, ptr %14, align 8
  store i64 2, ptr %ref.tmp15, align 8
  %16 = getelementptr inbounds { i64, ptr }, ptr %ref.tmp15, i64 0, i32 1
  store ptr @.str.1, ptr %16, align 8
  %call.i14 = tail call { i64, ptr } @_ZNKSt7__cxx1112basic_stringIcSt11char_traitsIcESaIcEEcvSt17basic_string_viewIcS2_EEv(ptr noundef nonnull align 8 dereferenceable(32) %error) #25
  %17 = extractvalue { i64, ptr } %call.i14, 0
  store i64 %17, ptr %ref.tmp16, align 8
  %18 = getelementptr inbounds { i64, ptr }, ptr %ref.tmp16, i64 0, i32 1
  %19 = extractvalue { i64, ptr } %call.i14, 1
  store ptr %19, ptr %18, align 8
  call void @_ZN4absl12lts_202308026StrCatB5cxx11ERKNS0_8AlphaNumES3_S3_(ptr nonnull sret(%"class.std::__cxx11::basic_string") align 8 %ref.tmp, ptr noundef nonnull align 8 dereferenceable(48) %ref.tmp13, ptr noundef nonnull align 8 dereferenceable(48) %ref.tmp15, ptr noundef nonnull align 8 dereferenceable(48) %ref.tmp16)
  %call17 = call noundef nonnull align 8 dereferenceable(32) ptr @_ZNSt7__cxx1112basic_stringIcSt11char_traitsIcESaIcEEaSEOS4_(ptr noundef nonnull align 8 dereferenceable(32) %error, ptr noundef nonnull align 8 dereferenceable(32) %ref.tmp) #25
  call void @_ZNSt7__cxx1112basic_stringIcSt11char_traitsIcESaIcEED1Ev(ptr noundef nonnull align 8 dereferenceable(32) %ref.tmp) #25
  br label %for.end

if.end18:                                         ; preds = %land.lhs.true10
  br i1 %call4, label %for.cond, label %for.end

for.end:                                          ; preds = %for.cond, %if.end18, %for.cond.us, %for.body.us, %entry, %if.then12
  %succeeded.1 = phi i1 [ %call4, %if.then12 ], [ true, %entry ], [ %call4.us, %for.body.us ], [ %call4.us, %for.cond.us ], [ true, %for.cond ], [ false, %if.end18 ]
  ret i1 %succeeded.1
}

; Function Attrs: nounwind
declare noundef zeroext i1 @_ZNKSt7__cxx1112basic_stringIcSt11char_traitsIcESaIcEE5emptyEv(ptr noundef nonnull align 8 dereferenceable(32)) local_unnamed_addr #1

declare noundef nonnull align 8 dereferenceable(32) ptr @_ZNSt7__cxx1112basic_stringIcSt11char_traitsIcESaIcEEaSEPKc(ptr noundef nonnull align 8 dereferenceable(32), ptr noundef) local_unnamed_addr #0

declare void @_ZN4absl12lts_202308026StrCatB5cxx11ERKNS0_8AlphaNumES3_S3_(ptr sret(%"class.std::__cxx11::basic_string") align 8, ptr noundef nonnull align 8 dereferenceable(48), ptr noundef nonnull align 8 dereferenceable(48), ptr noundef nonnull align 8 dereferenceable(48)) local_unnamed_addr #0

; Function Attrs: nounwind
declare noundef nonnull align 8 dereferenceable(32) ptr @_ZNSt7__cxx1112basic_stringIcSt11char_traitsIcESaIcEEaSEOS4_(ptr noundef nonnull align 8 dereferenceable(32), ptr noundef nonnull align 8 dereferenceable(32)) local_unnamed_addr #1

; Function Attrs: nounwind
declare void @_ZNSt7__cxx1112basic_stringIcSt11char_traitsIcESaIcEED1Ev(ptr noundef nonnull align 8 dereferenceable(32)) unnamed_addr #1

; Function Attrs: mustprogress uwtable
define void @_ZNK6google8protobuf8compiler13CodeGenerator23BuildFeatureSetDefaultsEv(ptr noalias sret(%"class.absl::lts_20230802::StatusOr") align 8 %agg.result, ptr noundef nonnull align 8 dereferenceable(8) %this) local_unnamed_addr #6 align 2 personality ptr @__gxx_personality_v0 {
entry:
  %ref.tmp = alloca %"class.std::vector.6", align 8
  %ref.tmp7 = alloca %"class.std::vector.6", align 8
  %vtable = load ptr, ptr %this, align 8
  %vfn = getelementptr inbounds ptr, ptr %vtable, i64 4
  %0 = load ptr, ptr %vfn, align 8
  %call = tail call noundef i64 %0(ptr noundef nonnull align 8 dereferenceable(8) %this)
  %and = and i64 %call, 2
  %cmp = icmp eq i64 %and, 0
  %call1.i.i = tail call { ptr, ptr } @_ZNK6google8protobuf10FeatureSet11GetMetadataEv(ptr noundef nonnull align 8 dereferenceable(72) @_ZN6google8protobuf29_FeatureSet_default_instance_E)
  %1 = extractvalue { ptr, ptr } %call1.i.i, 0
  %vtable3 = load ptr, ptr %this, align 8
  %vfn4 = getelementptr inbounds ptr, ptr %vtable3, i64 6
  %2 = load ptr, ptr %vfn4, align 8
  br i1 %cmp, label %if.then, label %if.end

if.then:                                          ; preds = %entry
  call void %2(ptr nonnull sret(%"class.std::vector.6") align 8 %ref.tmp, ptr noundef nonnull align 8 dereferenceable(8) %this)
  %3 = load ptr, ptr %ref.tmp, align 8
  %_M_finish.i.i = getelementptr inbounds %"struct.std::_Vector_base<const google::protobuf::FieldDescriptor *, std::allocator<const google::protobuf::FieldDescriptor *>>::_Vector_impl_data", ptr %ref.tmp, i64 0, i32 1
  %4 = load ptr, ptr %_M_finish.i.i, align 8
  %sub.ptr.lhs.cast.i.i = ptrtoint ptr %4 to i64
  %sub.ptr.rhs.cast.i.i = ptrtoint ptr %3 to i64
  %sub.ptr.sub.i.i = sub i64 %sub.ptr.lhs.cast.i.i, %sub.ptr.rhs.cast.i.i
  %sub.ptr.div.i.i = ashr exact i64 %sub.ptr.sub.i.i, 3
  invoke void @_ZN6google8protobuf15FeatureResolver15CompileDefaultsEPKNS0_10DescriptorEN4absl12lts_202308024SpanIKPKNS0_15FieldDescriptorEEENS0_7EditionESD_(ptr sret(%"class.absl::lts_20230802::StatusOr") align 8 %agg.result, ptr noundef %1, ptr %3, i64 %sub.ptr.div.i.i, i32 noundef 998, i32 noundef 1000)
          to label %invoke.cont unwind label %lpad

invoke.cont:                                      ; preds = %if.then
  %5 = load ptr, ptr %ref.tmp, align 8
  %tobool.not.i.i.i = icmp eq ptr %5, null
  br i1 %tobool.not.i.i.i, label %return, label %return.sink.split

lpad:                                             ; preds = %if.then
  %6 = landingpad { ptr, i32 }
          cleanup
  %7 = load ptr, ptr %ref.tmp, align 8
  %tobool.not.i.i.i2 = icmp eq ptr %7, null
  br i1 %tobool.not.i.i.i2, label %eh.resume, label %eh.resume.sink.split

if.end:                                           ; preds = %entry
  call void %2(ptr nonnull sret(%"class.std::vector.6") align 8 %ref.tmp7, ptr noundef nonnull align 8 dereferenceable(8) %this)
  %8 = load ptr, ptr %ref.tmp7, align 8
  %_M_finish.i.i6 = getelementptr inbounds %"struct.std::_Vector_base<const google::protobuf::FieldDescriptor *, std::allocator<const google::protobuf::FieldDescriptor *>>::_Vector_impl_data", ptr %ref.tmp7, i64 0, i32 1
  %9 = load ptr, ptr %_M_finish.i.i6, align 8
  %sub.ptr.lhs.cast.i.i7 = ptrtoint ptr %9 to i64
  %sub.ptr.rhs.cast.i.i8 = ptrtoint ptr %8 to i64
  %sub.ptr.sub.i.i9 = sub i64 %sub.ptr.lhs.cast.i.i7, %sub.ptr.rhs.cast.i.i8
  %sub.ptr.div.i.i10 = ashr exact i64 %sub.ptr.sub.i.i9, 3
  %vtable10 = load ptr, ptr %this, align 8
  %vfn11 = getelementptr inbounds ptr, ptr %vtable10, i64 7
  %10 = load ptr, ptr %vfn11, align 8
  %call14 = invoke noundef i32 %10(ptr noundef nonnull align 8 dereferenceable(8) %this)
          to label %invoke.cont13 unwind label %lpad12

invoke.cont13:                                    ; preds = %if.end
  %vtable15 = load ptr, ptr %this, align 8
  %vfn16 = getelementptr inbounds ptr, ptr %vtable15, i64 8
  %11 = load ptr, ptr %vfn16, align 8
  %call18 = invoke noundef i32 %11(ptr noundef nonnull align 8 dereferenceable(8) %this)
          to label %invoke.cont17 unwind label %lpad12

invoke.cont17:                                    ; preds = %invoke.cont13
  invoke void @_ZN6google8protobuf15FeatureResolver15CompileDefaultsEPKNS0_10DescriptorEN4absl12lts_202308024SpanIKPKNS0_15FieldDescriptorEEENS0_7EditionESD_(ptr sret(%"class.absl::lts_20230802::StatusOr") align 8 %agg.result, ptr noundef %1, ptr %8, i64 %sub.ptr.div.i.i10, i32 noundef %call14, i32 noundef %call18)
          to label %invoke.cont19 unwind label %lpad12

invoke.cont19:                                    ; preds = %invoke.cont17
  %12 = load ptr, ptr %ref.tmp7, align 8
  %tobool.not.i.i.i12 = icmp eq ptr %12, null
  br i1 %tobool.not.i.i.i12, label %return, label %return.sink.split

lpad12:                                           ; preds = %invoke.cont17, %invoke.cont13, %if.end
  %13 = landingpad { ptr, i32 }
          cleanup
  %14 = load ptr, ptr %ref.tmp7, align 8
  %tobool.not.i.i.i15 = icmp eq ptr %14, null
  br i1 %tobool.not.i.i.i15, label %eh.resume, label %eh.resume.sink.split

return.sink.split:                                ; preds = %invoke.cont19, %invoke.cont
  %.sink = phi ptr [ %5, %invoke.cont ], [ %12, %invoke.cont19 ]
  call void @_ZdlPv(ptr noundef nonnull %.sink) #26
  br label %return

return:                                           ; preds = %return.sink.split, %invoke.cont19, %invoke.cont
  ret void

eh.resume.sink.split:                             ; preds = %lpad12, %lpad
  %.sink18 = phi ptr [ %7, %lpad ], [ %14, %lpad12 ]
  %.pn.ph = phi { ptr, i32 } [ %6, %lpad ], [ %13, %lpad12 ]
  call void @_ZdlPv(ptr noundef nonnull %.sink18) #26
  br label %eh.resume

eh.resume:                                        ; preds = %eh.resume.sink.split, %lpad12, %lpad
  %.pn = phi { ptr, i32 } [ %6, %lpad ], [ %13, %lpad12 ], [ %.pn.ph, %eh.resume.sink.split ]
  resume { ptr, i32 } %.pn
}

declare void @_ZN6google8protobuf15FeatureResolver15CompileDefaultsEPKNS0_10DescriptorEN4absl12lts_202308024SpanIKPKNS0_15FieldDescriptorEEENS0_7EditionESD_(ptr sret(%"class.absl::lts_20230802::StatusOr") align 8, ptr noundef, ptr, i64, i32 noundef, i32 noundef) local_unnamed_addr #0

declare i32 @__gxx_personality_v0(...)

; Function Attrs: mustprogress nofree norecurse nosync nounwind willreturn memory(none) uwtable
define void @_ZN6google8protobuf8compiler16GeneratorContextD2Ev(ptr nocapture nonnull readnone align 8 %this) unnamed_addr #3 align 2 {
entry:
  ret void
}

; Function Attrs: mustprogress noreturn nounwind memory(inaccessiblemem: write) uwtable
define void @_ZN6google8protobuf8compiler16GeneratorContextD0Ev(ptr nocapture nonnull readnone align 8 %this) unnamed_addr #4 align 2 {
entry:
  tail call void @llvm.trap() #24
  unreachable
}

; Function Attrs: mustprogress nofree norecurse nosync nounwind willreturn memory(none) uwtable
define noalias noundef ptr @_ZN6google8protobuf8compiler16GeneratorContext13OpenForAppendERKNSt7__cxx1112basic_stringIcSt11char_traitsIcESaIcEEE(ptr nocapture nonnull readnone align 8 %this, ptr nocapture nonnull readnone align 8 %filename) unnamed_addr #3 align 2 {
entry:
  ret ptr null
}

; Function Attrs: mustprogress noreturn uwtable
define noalias noundef nonnull ptr @_ZN6google8protobuf8compiler16GeneratorContext13OpenForInsertERKNSt7__cxx1112basic_stringIcSt11char_traitsIcESaIcEEESA_(ptr nocapture nonnull readnone align 8 %this, ptr nocapture nonnull readnone align 8 %filename, ptr nocapture nonnull readnone align 8 %insertion_point) unnamed_addr #7 align 2 personality ptr @__gxx_personality_v0 {
entry:
  %ref.tmp2 = alloca %"class.absl::lts_20230802::log_internal::LogMessageFatal", align 8
  call void @_ZN4absl12lts_2023080212log_internal15LogMessageFatalC1EPKci(ptr noundef nonnull align 8 dereferenceable(16) %ref.tmp2, ptr noundef nonnull @.str.2, i32 noundef 85) #27
  %call4 = invoke noundef nonnull align 8 dereferenceable(16) ptr @_ZN4absl12lts_2023080212log_internal10LogMessagelsILi50EEERS2_RAT__Kc(ptr noundef nonnull align 8 dereferenceable(16) %ref.tmp2, ptr noundef nonnull align 1 dereferenceable(50) @.str.3)
          to label %invoke.cont3 unwind label %lpad

invoke.cont3:                                     ; preds = %entry
  call void @_ZN4absl12lts_2023080212log_internal15LogMessageFatalD1Ev(ptr noundef nonnull align 8 dereferenceable(16) %ref.tmp2) #24
  unreachable

lpad:                                             ; preds = %entry
  %0 = landingpad { ptr, i32 }
          cleanup
  call void @_ZN4absl12lts_2023080212log_internal15LogMessageFatalD1Ev(ptr noundef nonnull align 8 dereferenceable(16) %ref.tmp2) #24
  unreachable
}

; Function Attrs: cold
declare void @_ZN4absl12lts_2023080212log_internal15LogMessageFatalC1EPKci(ptr noundef nonnull align 8 dereferenceable(16), ptr noundef, i32 noundef) unnamed_addr #8

; Function Attrs: mustprogress uwtable
define linkonce_odr hidden noundef nonnull align 8 dereferenceable(16) ptr @_ZN4absl12lts_2023080212log_internal10LogMessagelsILi50EEERS2_RAT__Kc(ptr noundef nonnull align 8 dereferenceable(16) %this, ptr noundef nonnull align 1 dereferenceable(50) %buf) local_unnamed_addr #6 comdat align 2 personality ptr @__gxx_personality_v0 {
entry:
  %call.i.i = tail call noundef i64 @strlen(ptr noundef nonnull dereferenceable(1) %buf) #25
  tail call void @_ZN4absl12lts_2023080212log_internal10LogMessage19CopyToEncodedBufferILNS2_10StringTypeE0EEEvSt17basic_string_viewIcSt11char_traitsIcEE(ptr noundef nonnull align 8 dereferenceable(16) %this, i64 %call.i.i, ptr nonnull %buf)
  ret ptr %this
}

; Function Attrs: noreturn nounwind
declare void @_ZN4absl12lts_2023080212log_internal15LogMessageFatalD1Ev(ptr noundef nonnull align 8 dereferenceable(16)) unnamed_addr #9

; Function Attrs: mustprogress uwtable
define noundef ptr @_ZN6google8protobuf8compiler16GeneratorContext34OpenForInsertWithGeneratedCodeInfoERKNSt7__cxx1112basic_stringIcSt11char_traitsIcESaIcEEESA_RKNS0_17GeneratedCodeInfoE(ptr noundef nonnull align 8 dereferenceable(8) %this, ptr noundef nonnull align 8 dereferenceable(32) %filename, ptr noundef nonnull align 8 dereferenceable(32) %insertion_point, ptr nocapture nonnull readnone align 8 %0) unnamed_addr #6 align 2 {
entry:
  %vtable = load ptr, ptr %this, align 8
  %vfn = getelementptr inbounds ptr, ptr %vtable, i64 4
  %1 = load ptr, ptr %vfn, align 8
  %call = tail call noundef ptr %1(ptr noundef nonnull align 8 dereferenceable(8) %this, ptr noundef nonnull align 8 dereferenceable(32) %filename, ptr noundef nonnull align 8 dereferenceable(32) %insertion_point)
  ret ptr %call
}

; Function Attrs: mustprogress noreturn uwtable
define void @_ZN6google8protobuf8compiler16GeneratorContext15ListParsedFilesEPSt6vectorIPKNS0_14FileDescriptorESaIS6_EE(ptr nocapture nonnull readnone align 8 %this, ptr nocapture readnone %output) unnamed_addr #7 align 2 personality ptr @__gxx_personality_v0 {
entry:
  %ref.tmp2 = alloca %"class.absl::lts_20230802::log_internal::LogMessageFatal", align 8
  call void @_ZN4absl12lts_2023080212log_internal15LogMessageFatalC1EPKci(ptr noundef nonnull align 8 dereferenceable(16) %ref.tmp2, ptr noundef nonnull @.str.2, i32 noundef 97) #27
  %call4 = invoke noundef nonnull align 8 dereferenceable(16) ptr @_ZN4absl12lts_2023080212log_internal10LogMessagelsILi55EEERS2_RAT__Kc(ptr noundef nonnull align 8 dereferenceable(16) %ref.tmp2, ptr noundef nonnull align 1 dereferenceable(55) @.str.4)
          to label %invoke.cont3 unwind label %lpad

invoke.cont3:                                     ; preds = %entry
  call void @_ZN4absl12lts_2023080212log_internal15LogMessageFatalD1Ev(ptr noundef nonnull align 8 dereferenceable(16) %ref.tmp2) #24
  unreachable

lpad:                                             ; preds = %entry
  %0 = landingpad { ptr, i32 }
          cleanup
  call void @_ZN4absl12lts_2023080212log_internal15LogMessageFatalD1Ev(ptr noundef nonnull align 8 dereferenceable(16) %ref.tmp2) #24
  unreachable
}

; Function Attrs: mustprogress uwtable
define linkonce_odr hidden noundef nonnull align 8 dereferenceable(16) ptr @_ZN4absl12lts_2023080212log_internal10LogMessagelsILi55EEERS2_RAT__Kc(ptr noundef nonnull align 8 dereferenceable(16) %this, ptr noundef nonnull align 1 dereferenceable(55) %buf) local_unnamed_addr #6 comdat align 2 personality ptr @__gxx_personality_v0 {
entry:
  %call.i.i = tail call noundef i64 @strlen(ptr noundef nonnull dereferenceable(1) %buf) #25
  tail call void @_ZN4absl12lts_2023080212log_internal10LogMessage19CopyToEncodedBufferILNS2_10StringTypeE0EEEvSt17basic_string_viewIcSt11char_traitsIcEE(ptr noundef nonnull align 8 dereferenceable(16) %this, i64 %call.i.i, ptr nonnull %buf)
  ret ptr %this
}

; Function Attrs: mustprogress uwtable
define void @_ZNK6google8protobuf8compiler16GeneratorContext18GetCompilerVersionEPNS1_7VersionE(ptr nocapture nonnull readnone align 8 %this, ptr noundef %version) unnamed_addr #6 align 2 personality ptr @__gxx_personality_v0 {
entry:
  %major_.i.i = getelementptr inbounds %"class.google::protobuf::compiler::Version", ptr %version, i64 0, i32 1, i32 0, i32 3
  store i32 4, ptr %major_.i.i, align 8
  %0 = getelementptr inbounds %"class.google::protobuf::compiler::Version", ptr %version, i64 0, i32 1
  %1 = load i32, ptr %0, align 4
  %minor_.i.i = getelementptr inbounds %"class.google::protobuf::compiler::Version", ptr %version, i64 0, i32 1, i32 0, i32 4
  store i32 26, ptr %minor_.i.i, align 4
  %patch_.i.i = getelementptr inbounds %"class.google::protobuf::compiler::Version", ptr %version, i64 0, i32 1, i32 0, i32 5
  store i32 0, ptr %patch_.i.i, align 8
  %or.i = or i32 %1, 15
  store i32 %or.i, ptr %0, align 4
  %_internal_metadata_.i = getelementptr inbounds %"class.google::protobuf::MessageLite", ptr %version, i64 0, i32 1
  %2 = load i64, ptr %_internal_metadata_.i, align 8
  %and.i.i = and i64 %2, 1
  %tobool.i.not.i = icmp eq i64 %and.i.i, 0
  br i1 %tobool.i.not.i, label %if.else.i.i, label %if.then.i.i

if.then.i.i:                                      ; preds = %entry
  %and.i1.i = and i64 %2, -2
  %3 = inttoptr i64 %and.i1.i to ptr
  %4 = load ptr, ptr %3, align 8
  br label %_ZNK6google8protobuf11MessageLite8GetArenaEv.exit

if.else.i.i:                                      ; preds = %entry
  %5 = inttoptr i64 %2 to ptr
  br label %_ZNK6google8protobuf11MessageLite8GetArenaEv.exit

_ZNK6google8protobuf11MessageLite8GetArenaEv.exit: ; preds = %if.then.i.i, %if.else.i.i
  %retval.i.0.i = phi ptr [ %4, %if.then.i.i ], [ %5, %if.else.i.i ]
  %suffix_.i = getelementptr inbounds %"class.google::protobuf::compiler::Version", ptr %version, i64 0, i32 1, i32 0, i32 2
  tail call void @_ZN6google8protobuf8internal14ArenaStringPtr3SetESt17basic_string_viewIcSt11char_traitsIcEEPNS0_5ArenaE(ptr noundef nonnull align 8 dereferenceable(8) %suffix_.i, i64 0, ptr nonnull @.str.5, ptr noundef %retval.i.0.i)
  ret void
}

; Function Attrs: mustprogress uwtable
define void @_ZN6google8protobuf8compiler23ParseGeneratorParameterESt17basic_string_viewIcSt11char_traitsIcEEPSt6vectorISt4pairINSt7__cxx1112basic_stringIcS4_SaIcEEESB_ESaISC_EE(i64 %text.coerce0, ptr %text.coerce1, ptr noundef %output) local_unnamed_addr #6 personality ptr @__gxx_personality_v0 {
entry:
  %ref.tmp.i = alloca %"struct.absl::lts_20230802::strings_internal::Splitter<absl::lts_20230802::ByChar, absl::lts_20230802::SkipEmpty, std::basic_string_view<char>>::ConvertToContainer", align 1
  %parts = alloca %"class.std::vector.14", align 8
  %ref.tmp = alloca %"class.absl::lts_20230802::strings_internal::Splitter", align 8
  %part = alloca %"class.std::basic_string_view", align 8
  %ref.tmp9 = alloca %"class.std::basic_string_view", align 8
  %ref.tmp12 = alloca %"class.std::basic_string_view", align 8
  store i64 %text.coerce0, ptr %ref.tmp, align 8, !alias.scope !6
  %input_text.sroa.2.0.text_.sroa_idx.i.i = getelementptr inbounds i8, ptr %ref.tmp, i64 8
  store ptr %text.coerce1, ptr %input_text.sroa.2.0.text_.sroa_idx.i.i, align 8, !alias.scope !6
  %delimiter_.i.i = getelementptr inbounds %"class.absl::lts_20230802::strings_internal::Splitter", ptr %ref.tmp, i64 0, i32 1
  store i8 44, ptr %delimiter_.i.i, align 8, !alias.scope !6
  call void @llvm.lifetime.start.p0(i64 1, ptr nonnull %ref.tmp.i)
  call void @_ZNK4absl12lts_2023080216strings_internal8SplitterINS0_6ByCharENS0_9SkipEmptyESt17basic_string_viewIcSt11char_traitsIcEEE18ConvertToContainerISt6vectorIS8_SaIS8_EES8_Lb0EEclERKS9_(ptr nonnull sret(%"class.std::vector.14") align 8 %parts, ptr noundef nonnull align 1 dereferenceable(1) %ref.tmp.i, ptr noundef nonnull align 8 dereferenceable(18) %ref.tmp)
  call void @llvm.lifetime.end.p0(i64 1, ptr nonnull %ref.tmp.i)
  %0 = load ptr, ptr %parts, align 8
  %_M_finish.i = getelementptr inbounds %"struct.std::_Vector_base<std::basic_string_view<char>, std::allocator<std::basic_string_view<char>>>::_Vector_impl_data", ptr %parts, i64 0, i32 1
  %1 = load ptr, ptr %_M_finish.i, align 8
  %cmp.i.not34 = icmp eq ptr %0, %1
  br i1 %cmp.i.not34, label %for.end, label %for.body.lr.ph

for.body.lr.ph:                                   ; preds = %entry
  %_M_str.i.i = getelementptr inbounds %"class.std::basic_string_view", ptr %part, i64 0, i32 1
  %2 = getelementptr inbounds { i64, ptr }, ptr %ref.tmp9, i64 0, i32 1
  %3 = getelementptr inbounds { i64, ptr }, ptr %ref.tmp12, i64 0, i32 1
  %_M_finish.i13 = getelementptr inbounds %"struct.std::_Vector_base<std::pair<std::__cxx11::basic_string<char>, std::__cxx11::basic_string<char>>, std::allocator<std::pair<std::__cxx11::basic_string<char>, std::__cxx11::basic_string<char>>>>::_Vector_impl_data", ptr %output, i64 0, i32 1
  %_M_end_of_storage.i14 = getelementptr inbounds %"struct.std::_Vector_base<std::pair<std::__cxx11::basic_string<char>, std::__cxx11::basic_string<char>>, std::allocator<std::pair<std::__cxx11::basic_string<char>, std::__cxx11::basic_string<char>>>>::_Vector_impl_data", ptr %output, i64 0, i32 2
  br label %for.body

for.body:                                         ; preds = %for.body.lr.ph, %for.inc
  %__begin2.sroa.0.035 = phi ptr [ %0, %for.body.lr.ph ], [ %incdec.ptr.i23, %for.inc ]
  call void @llvm.memcpy.p0.p0.i64(ptr noundef nonnull align 8 dereferenceable(16) %part, ptr noundef nonnull align 8 dereferenceable(16) %__begin2.sroa.0.035, i64 16, i1 false)
  %4 = load i64, ptr %part, align 8
  %cmp.i.i.not = icmp eq i64 %4, 0
  br i1 %cmp.i.i.not, label %if.then, label %if.then.i.i

if.then.i.i:                                      ; preds = %for.body
  %5 = load ptr, ptr %_M_str.i.i, align 8
  %call.i.i.i = call ptr @memchr(ptr noundef %5, i32 noundef 61, i64 noundef %4) #25
  %tobool.not.i.i = icmp eq ptr %call.i.i.i, null
  br i1 %tobool.not.i.i, label %if.then, label %_ZNKSt17basic_string_viewIcSt11char_traitsIcEE13find_first_ofEcm.exit

_ZNKSt17basic_string_viewIcSt11char_traitsIcEE13find_first_ofEcm.exit: ; preds = %if.then.i.i
  %sub.ptr.lhs.cast.i.i = ptrtoint ptr %call.i.i.i to i64
  %sub.ptr.rhs.cast.i.i = ptrtoint ptr %5 to i64
  %sub.ptr.sub.i.i = sub i64 %sub.ptr.lhs.cast.i.i, %sub.ptr.rhs.cast.i.i
  %cmp = icmp eq i64 %sub.ptr.sub.i.i, -1
  br i1 %cmp, label %if.then, label %invoke.cont10

if.then:                                          ; preds = %for.body, %if.then.i.i, %_ZNKSt17basic_string_viewIcSt11char_traitsIcEE13find_first_ofEcm.exit
  %6 = load ptr, ptr %_M_finish.i13, align 8
  %7 = load ptr, ptr %_M_end_of_storage.i14, align 8
  %cmp.not.i = icmp eq ptr %6, %7
  br i1 %cmp.not.i, label %if.else.i, label %if.then.i

if.then.i:                                        ; preds = %if.then
  invoke void @_ZNSt4pairINSt7__cxx1112basic_stringIcSt11char_traitsIcESaIcEEES5_EC2IRSt17basic_string_viewIcS3_ERA1_KcTnNSt9enable_ifIXaaclsr5_PCCPE22_MoveConstructiblePairIT_T0_EEntclsr5_PCCPE30_ImplicitlyMoveConvertiblePairISF_SG_EEEbE4typeELb0EEEOSF_OSG_(ptr noundef nonnull align 8 dereferenceable(64) %6, ptr noundef nonnull align 8 dereferenceable(16) %part, ptr noundef nonnull align 1 dereferenceable(1) @.str.5)
          to label %for.inc.sink.split unwind label %lpad.loopexit

if.else.i:                                        ; preds = %if.then
  invoke void @_ZNSt6vectorISt4pairINSt7__cxx1112basic_stringIcSt11char_traitsIcESaIcEEES6_ESaIS7_EE17_M_realloc_insertIJRSt17basic_string_viewIcS4_ERA1_KcEEEvN9__gnu_cxx17__normal_iteratorIPS7_S9_EEDpOT_(ptr noundef nonnull align 8 dereferenceable(24) %output, ptr %6, ptr noundef nonnull align 8 dereferenceable(16) %part, ptr noundef nonnull align 1 dereferenceable(1) @.str.5)
          to label %for.inc unwind label %lpad.loopexit

lpad.loopexit:                                    ; preds = %if.then.i, %if.else.i, %if.then.i16, %if.else.i19
  %lpad.loopexit31 = landingpad { ptr, i32 }
          cleanup
  br label %lpad

lpad.loopexit.split-lp:                           ; preds = %if.then.i.i11
  %lpad.loopexit.split-lp32 = landingpad { ptr, i32 }
          cleanup
  br label %lpad

lpad:                                             ; preds = %lpad.loopexit.split-lp, %lpad.loopexit
  %lpad.phi = phi { ptr, i32 } [ %lpad.loopexit31, %lpad.loopexit ], [ %lpad.loopexit.split-lp32, %lpad.loopexit.split-lp ]
  %8 = load ptr, ptr %parts, align 8
  %tobool.not.i.i.i = icmp eq ptr %8, null
  br i1 %tobool.not.i.i.i, label %_ZNSt6vectorISt17basic_string_viewIcSt11char_traitsIcEESaIS3_EED2Ev.exit, label %if.then.i.i.i

if.then.i.i.i:                                    ; preds = %lpad
  call void @_ZdlPv(ptr noundef nonnull %8) #26
  br label %_ZNSt6vectorISt17basic_string_viewIcSt11char_traitsIcEESaIS3_EED2Ev.exit

_ZNSt6vectorISt17basic_string_viewIcSt11char_traitsIcEESaIS3_EED2Ev.exit: ; preds = %lpad, %if.then.i.i.i
  resume { ptr, i32 } %lpad.phi

invoke.cont10:                                    ; preds = %_ZNKSt17basic_string_viewIcSt11char_traitsIcEE13find_first_ofEcm.exit
  %.sroa.speculated.i = call i64 @llvm.umin.i64(i64 %4, i64 %sub.ptr.sub.i.i)
  store i64 %.sroa.speculated.i, ptr %ref.tmp9, align 8
  store ptr %5, ptr %2, align 8
  %add = add nuw i64 %sub.ptr.sub.i.i, 1
  %cmp.i.i7.not = icmp ugt i64 %4, %sub.ptr.sub.i.i
  br i1 %cmp.i.i7.not, label %invoke.cont13, label %if.then.i.i11

if.then.i.i11:                                    ; preds = %invoke.cont10
  invoke void (ptr, ...) @_ZSt24__throw_out_of_range_fmtPKcz(ptr noundef nonnull @.str.11, ptr noundef nonnull @.str.10, i64 noundef %add, i64 noundef %4) #28
          to label %.noexc12 unwind label %lpad.loopexit.split-lp

.noexc12:                                         ; preds = %if.then.i.i11
  unreachable

invoke.cont13:                                    ; preds = %invoke.cont10
  %sub.i = sub i64 %4, %add
  %add.ptr.i = getelementptr inbounds i8, ptr %5, i64 %add
  store i64 %sub.i, ptr %ref.tmp12, align 8
  store ptr %add.ptr.i, ptr %3, align 8
  %9 = load ptr, ptr %_M_finish.i13, align 8
  %10 = load ptr, ptr %_M_end_of_storage.i14, align 8
  %cmp.not.i15 = icmp eq ptr %9, %10
  br i1 %cmp.not.i15, label %if.else.i19, label %if.then.i16

if.then.i16:                                      ; preds = %invoke.cont13
  invoke void @_ZNSt4pairINSt7__cxx1112basic_stringIcSt11char_traitsIcESaIcEEES5_EC2ISt17basic_string_viewIcS3_ES9_TnNSt9enable_ifIXaaclsr5_PCCPE22_MoveConstructiblePairIT_T0_EEntclsr5_PCCPE30_ImplicitlyMoveConvertiblePairISB_SC_EEEbE4typeELb0EEEOSB_OSC_(ptr noundef nonnull align 8 dereferenceable(64) %9, ptr noundef nonnull align 8 dereferenceable(16) %ref.tmp9, ptr noundef nonnull align 8 dereferenceable(16) %ref.tmp12)
          to label %for.inc.sink.split unwind label %lpad.loopexit

if.else.i19:                                      ; preds = %invoke.cont13
  invoke void @_ZNSt6vectorISt4pairINSt7__cxx1112basic_stringIcSt11char_traitsIcESaIcEEES6_ESaIS7_EE17_M_realloc_insertIJSt17basic_string_viewIcS4_ESC_EEEvN9__gnu_cxx17__normal_iteratorIPS7_S9_EEDpOT_(ptr noundef nonnull align 8 dereferenceable(24) %output, ptr %9, ptr noundef nonnull align 8 dereferenceable(16) %ref.tmp9, ptr noundef nonnull align 8 dereferenceable(16) %ref.tmp12)
          to label %for.inc unwind label %lpad.loopexit

for.inc.sink.split:                               ; preds = %if.then.i16, %if.then.i
  %11 = load ptr, ptr %_M_finish.i13, align 8
  %incdec.ptr.i17 = getelementptr inbounds %"struct.std::pair", ptr %11, i64 1
  store ptr %incdec.ptr.i17, ptr %_M_finish.i13, align 8
  br label %for.inc

for.inc:                                          ; preds = %for.inc.sink.split, %if.else.i19, %if.else.i
  %incdec.ptr.i23 = getelementptr inbounds %"class.std::basic_string_view", ptr %__begin2.sroa.0.035, i64 1
  %cmp.i.not = icmp eq ptr %incdec.ptr.i23, %1
  br i1 %cmp.i.not, label %for.end.loopexit, label %for.body

for.end.loopexit:                                 ; preds = %for.inc
  %.pre = load ptr, ptr %parts, align 8
  br label %for.end

for.end:                                          ; preds = %for.end.loopexit, %entry
  %12 = phi ptr [ %.pre, %for.end.loopexit ], [ %0, %entry ]
  %tobool.not.i.i.i24 = icmp eq ptr %12, null
  br i1 %tobool.not.i.i.i24, label %_ZNSt6vectorISt17basic_string_viewIcSt11char_traitsIcEESaIS3_EED2Ev.exit26, label %if.then.i.i.i25

if.then.i.i.i25:                                  ; preds = %for.end
  call void @_ZdlPv(ptr noundef nonnull %12) #26
  br label %_ZNSt6vectorISt17basic_string_viewIcSt11char_traitsIcEESaIS3_EED2Ev.exit26

_ZNSt6vectorISt17basic_string_viewIcSt11char_traitsIcEESaIS3_EED2Ev.exit26: ; preds = %for.end, %if.then.i.i.i25
  ret void
}

; Function Attrs: mustprogress nocallback nofree nounwind willreturn memory(argmem: readwrite)
declare void @llvm.memcpy.p0.p0.i64(ptr noalias nocapture writeonly, ptr noalias nocapture readonly, i64, i1 immarg) #10

; Function Attrs: mustprogress uwtable
define void @_ZN6google8protobuf8compiler10StripProtoB5cxx11ESt17basic_string_viewIcSt11char_traitsIcEE(ptr noalias sret(%"class.std::__cxx11::basic_string") align 8 %agg.result, i64 %filename.coerce0, ptr %filename.coerce1) local_unnamed_addr #6 personality ptr @__gxx_personality_v0 {
entry:
  %agg.tmp.i23 = alloca %"struct.std::__cxx11::basic_string<char>::__sv_wrapper", align 8
  %agg.tmp.i = alloca %"struct.std::__cxx11::basic_string<char>::__sv_wrapper", align 8
  %ref.tmp5 = alloca %"class.std::allocator.0", align 1
  %ref.tmp10 = alloca %"class.std::allocator.0", align 1
  %cmp.not.i = icmp ult i64 %filename.coerce0, 11
  br i1 %cmp.not.i, label %lor.rhs.i.i9, label %_ZN4absl12lts_202308028EndsWithESt17basic_string_viewIcSt11char_traitsIcEES4_.exit

_ZN4absl12lts_202308028EndsWithESt17basic_string_viewIcSt11char_traitsIcEES4_.exit: ; preds = %entry
  %0 = getelementptr i8, ptr %filename.coerce1, i64 %filename.coerce0
  %add.ptr.i = getelementptr i8, ptr %0, i64 -11
  %bcmp.i = tail call i32 @bcmp(ptr noundef nonnull dereferenceable(11) %add.ptr.i, ptr noundef nonnull dereferenceable(11) @.str.6, i64 11)
  %cmp9.i = icmp eq i32 %bcmp.i, 0
  br i1 %cmp9.i, label %_ZN4absl12lts_202308028EndsWithESt17basic_string_viewIcSt11char_traitsIcEES4_.exit.i, label %_ZN4absl12lts_202308028EndsWithESt17basic_string_viewIcSt11char_traitsIcEES4_.exit.i11

_ZN4absl12lts_202308028EndsWithESt17basic_string_viewIcSt11char_traitsIcEES4_.exit.i: ; preds = %_ZN4absl12lts_202308028EndsWithESt17basic_string_viewIcSt11char_traitsIcEES4_.exit
  %sub.i.i = add i64 %filename.coerce0, -11
  %add.ptr.i.i = getelementptr inbounds i8, ptr %filename.coerce1, i64 %sub.i.i
  %bcmp.i.i = tail call i32 @bcmp(ptr noundef nonnull dereferenceable(11) %add.ptr.i.i, ptr noundef nonnull dereferenceable(11) @.str.6, i64 11)
  %cmp9.i.i = icmp eq i32 %bcmp.i.i, 0
  %spec.select.i = select i1 %cmp9.i.i, i64 %sub.i.i, i64 %filename.coerce0
  call void @_ZNSaIcEC1Ev(ptr noundef nonnull align 1 dereferenceable(1) %ref.tmp5) #25
  call void @llvm.lifetime.start.p0(i64 16, ptr nonnull %agg.tmp.i)
  %call.i = call { i64, ptr } @_ZNSt7__cxx1112basic_stringIcSt11char_traitsIcESaIcEE17_S_to_string_viewESt17basic_string_viewIcS2_E(i64 %spec.select.i, ptr %filename.coerce1) #25
  %1 = extractvalue { i64, ptr } %call.i, 0
  %2 = extractvalue { i64, ptr } %call.i, 1
  call void @_ZNSt7__cxx1112basic_stringIcSt11char_traitsIcESaIcEE12__sv_wrapperC1ESt17basic_string_viewIcS2_E(ptr noundef nonnull align 8 dereferenceable(16) %agg.tmp.i, i64 %1, ptr %2) #25
  %3 = load i64, ptr %agg.tmp.i, align 8
  %4 = getelementptr inbounds { i64, ptr }, ptr %agg.tmp.i, i64 0, i32 1
  %5 = load ptr, ptr %4, align 8
  invoke void @_ZNSt7__cxx1112basic_stringIcSt11char_traitsIcESaIcEEC2ENS4_12__sv_wrapperERKS3_(ptr noundef nonnull align 8 dereferenceable(32) %agg.result, i64 %3, ptr %5, ptr noundef nonnull align 1 dereferenceable(1) %ref.tmp5)
          to label %invoke.cont unwind label %lpad

invoke.cont:                                      ; preds = %_ZN4absl12lts_202308028EndsWithESt17basic_string_viewIcSt11char_traitsIcEES4_.exit.i
  call void @llvm.lifetime.end.p0(i64 16, ptr nonnull %agg.tmp.i)
  br label %return

lpad:                                             ; preds = %_ZN4absl12lts_202308028EndsWithESt17basic_string_viewIcSt11char_traitsIcEES4_.exit.i
  %6 = landingpad { ptr, i32 }
          cleanup
  br label %eh.resume

lor.rhs.i.i9:                                     ; preds = %entry
  %cmp.not.i.i10 = icmp ult i64 %filename.coerce0, 6
  br i1 %cmp.not.i.i10, label %_ZN4absl12lts_2023080211StripSuffixESt17basic_string_viewIcSt11char_traitsIcEES4_.exit22, label %_ZN4absl12lts_202308028EndsWithESt17basic_string_viewIcSt11char_traitsIcEES4_.exit.i11

_ZN4absl12lts_202308028EndsWithESt17basic_string_viewIcSt11char_traitsIcEES4_.exit.i11: ; preds = %_ZN4absl12lts_202308028EndsWithESt17basic_string_viewIcSt11char_traitsIcEES4_.exit, %lor.rhs.i.i9
  %sub.i.i12 = add i64 %filename.coerce0, -6
  %add.ptr.i.i13 = getelementptr inbounds i8, ptr %filename.coerce1, i64 %sub.i.i12
  %bcmp.i.i14 = tail call i32 @bcmp(ptr noundef nonnull dereferenceable(6) %add.ptr.i.i13, ptr noundef nonnull dereferenceable(6) @.str.7, i64 6)
  %cmp9.i.i15 = icmp eq i32 %bcmp.i.i14, 0
  %spec.select.i16 = select i1 %cmp9.i.i15, i64 %sub.i.i12, i64 %filename.coerce0
  br label %_ZN4absl12lts_2023080211StripSuffixESt17basic_string_viewIcSt11char_traitsIcEES4_.exit22

_ZN4absl12lts_2023080211StripSuffixESt17basic_string_viewIcSt11char_traitsIcEES4_.exit22: ; preds = %lor.rhs.i.i9, %_ZN4absl12lts_202308028EndsWithESt17basic_string_viewIcSt11char_traitsIcEES4_.exit.i11
  %str.sroa.0.0.i17 = phi i64 [ %filename.coerce0, %lor.rhs.i.i9 ], [ %spec.select.i16, %_ZN4absl12lts_202308028EndsWithESt17basic_string_viewIcSt11char_traitsIcEES4_.exit.i11 ]
  call void @_ZNSaIcEC1Ev(ptr noundef nonnull align 1 dereferenceable(1) %ref.tmp10) #25
  call void @llvm.lifetime.start.p0(i64 16, ptr nonnull %agg.tmp.i23)
  %call.i27 = call { i64, ptr } @_ZNSt7__cxx1112basic_stringIcSt11char_traitsIcESaIcEE17_S_to_string_viewESt17basic_string_viewIcS2_E(i64 %str.sroa.0.0.i17, ptr %filename.coerce1) #25
  %7 = extractvalue { i64, ptr } %call.i27, 0
  %8 = extractvalue { i64, ptr } %call.i27, 1
  call void @_ZNSt7__cxx1112basic_stringIcSt11char_traitsIcESaIcEE12__sv_wrapperC1ESt17basic_string_viewIcS2_E(ptr noundef nonnull align 8 dereferenceable(16) %agg.tmp.i23, i64 %7, ptr %8) #25
  %9 = load i64, ptr %agg.tmp.i23, align 8
  %10 = getelementptr inbounds { i64, ptr }, ptr %agg.tmp.i23, i64 0, i32 1
  %11 = load ptr, ptr %10, align 8
  invoke void @_ZNSt7__cxx1112basic_stringIcSt11char_traitsIcESaIcEEC2ENS4_12__sv_wrapperERKS3_(ptr noundef nonnull align 8 dereferenceable(32) %agg.result, i64 %9, ptr %11, ptr noundef nonnull align 1 dereferenceable(1) %ref.tmp10)
          to label %invoke.cont12 unwind label %lpad11

invoke.cont12:                                    ; preds = %_ZN4absl12lts_2023080211StripSuffixESt17basic_string_viewIcSt11char_traitsIcEES4_.exit22
  call void @llvm.lifetime.end.p0(i64 16, ptr nonnull %agg.tmp.i23)
  br label %return

lpad11:                                           ; preds = %_ZN4absl12lts_2023080211StripSuffixESt17basic_string_viewIcSt11char_traitsIcEES4_.exit22
  %12 = landingpad { ptr, i32 }
          cleanup
  br label %eh.resume

return:                                           ; preds = %invoke.cont12, %invoke.cont
  %ref.tmp10.sink = phi ptr [ %ref.tmp10, %invoke.cont12 ], [ %ref.tmp5, %invoke.cont ]
  call void @_ZNSaIcED1Ev(ptr noundef nonnull align 1 dereferenceable(1) %ref.tmp10.sink) #25
  ret void

eh.resume:                                        ; preds = %lpad11, %lpad
  %ref.tmp10.sink31 = phi ptr [ %ref.tmp10, %lpad11 ], [ %ref.tmp5, %lpad ]
  %.pn = phi { ptr, i32 } [ %12, %lpad11 ], [ %6, %lpad ]
  call void @_ZNSaIcED1Ev(ptr noundef nonnull align 1 dereferenceable(1) %ref.tmp10.sink31) #25
  resume { ptr, i32 } %.pn
}

; Function Attrs: nounwind
declare void @_ZNSaIcEC1Ev(ptr noundef nonnull align 1 dereferenceable(1)) unnamed_addr #1

; Function Attrs: nounwind
declare void @_ZNSaIcED1Ev(ptr noundef nonnull align 1 dereferenceable(1)) unnamed_addr #1

; Function Attrs: mustprogress nofree nounwind willreturn memory(argmem: read) uwtable
define noundef zeroext i1 @_ZN6google8protobuf8compiler19IsKnownFeatureProtoESt17basic_string_viewIcSt11char_traitsIcEE(i64 %filename.coerce0, ptr nocapture readonly %filename.coerce1) local_unnamed_addr #11 personality ptr @__gxx_personality_v0 {
entry:
  switch i64 %filename.coerce0, label %return [
    i64 34, label %_ZNSt11char_traitsIcE7compareEPKcS2_m.exit.i.i
    i64 35, label %_ZNSt11char_traitsIcE7compareEPKcS2_m.exit.i.i7
  ]

_ZNSt11char_traitsIcE7compareEPKcS2_m.exit.i.i:   ; preds = %entry
  %bcmp.i = tail call i32 @bcmp(ptr noundef nonnull dereferenceable(34) %filename.coerce1, ptr noundef nonnull dereferenceable(34) @.str.8, i64 34)
  %cmp.i.i = icmp eq i32 %bcmp.i, 0
  br label %return

_ZNSt11char_traitsIcE7compareEPKcS2_m.exit.i.i7:  ; preds = %entry
  %bcmp.i8 = tail call i32 @bcmp(ptr noundef nonnull dereferenceable(35) %filename.coerce1, ptr noundef nonnull dereferenceable(35) @.str.9, i64 35)
  %cmp.i.i9 = icmp eq i32 %bcmp.i8, 0
  br label %return

return:                                           ; preds = %_ZNSt11char_traitsIcE7compareEPKcS2_m.exit.i.i, %_ZNSt11char_traitsIcE7compareEPKcS2_m.exit.i.i7, %entry
  %retval.0 = phi i1 [ false, %entry ], [ %cmp.i.i9, %_ZNSt11char_traitsIcE7compareEPKcS2_m.exit.i.i7 ], [ %cmp.i.i, %_ZNSt11char_traitsIcE7compareEPKcS2_m.exit.i.i ]
  ret i1 %retval.0
}

declare void @__cxa_pure_virtual() unnamed_addr

; Function Attrs: mustprogress nounwind uwtable
define linkonce_odr hidden noundef i64 @_ZNK6google8protobuf8compiler13CodeGenerator20GetSupportedFeaturesEv(ptr noundef nonnull align 8 dereferenceable(8) %this) unnamed_addr #12 comdat align 2 {
entry:
  ret i64 0
}

; Function Attrs: mustprogress nounwind uwtable
define linkonce_odr hidden noundef zeroext i1 @_ZNK6google8protobuf8compiler13CodeGenerator14HasGenerateAllEv(ptr noundef nonnull align 8 dereferenceable(8) %this) unnamed_addr #12 comdat align 2 {
entry:
  ret i1 true
}

; Function Attrs: mustprogress nounwind uwtable
define linkonce_odr hidden void @_ZNK6google8protobuf8compiler13CodeGenerator20GetFeatureExtensionsEv(ptr noalias sret(%"class.std::vector.6") align 8 %agg.result, ptr noundef nonnull align 8 dereferenceable(8) %this) unnamed_addr #12 comdat align 2 {
entry:
  tail call void @llvm.memset.p0.i64(ptr noundef nonnull align 8 dereferenceable(24) %agg.result, i8 0, i64 24, i1 false)
  ret void
}

; Function Attrs: mustprogress nounwind uwtable
define linkonce_odr hidden noundef i32 @_ZNK6google8protobuf8compiler13CodeGenerator17GetMinimumEditionEv(ptr noundef nonnull align 8 dereferenceable(8) %this) unnamed_addr #12 comdat align 2 {
entry:
  ret i32 0
}

; Function Attrs: mustprogress nounwind uwtable
define linkonce_odr hidden noundef i32 @_ZNK6google8protobuf8compiler13CodeGenerator17GetMaximumEditionEv(ptr noundef nonnull align 8 dereferenceable(8) %this) unnamed_addr #12 comdat align 2 {
entry:
  ret i32 0
}

declare { ptr, ptr } @_ZNK6google8protobuf10FeatureSet11GetMetadataEv(ptr noundef nonnull align 8 dereferenceable(72)) unnamed_addr #0

; Function Attrs: noreturn nounwind uwtable
define linkonce_odr hidden void @__clang_call_terminate(ptr noundef %0) local_unnamed_addr #13 comdat {
  %2 = tail call ptr @__cxa_begin_catch(ptr %0) #25
  tail call void @_ZSt9terminatev() #24
  unreachable
}

declare ptr @__cxa_begin_catch(ptr) local_unnamed_addr

declare void @_ZSt9terminatev() local_unnamed_addr

; Function Attrs: mustprogress nofree nounwind willreturn memory(argmem: read)
declare ptr @memchr(ptr noundef, i32 noundef, i64 noundef) local_unnamed_addr #14

; Function Attrs: noreturn
declare void @_ZSt24__throw_out_of_range_fmtPKcz(ptr noundef, ...) local_unnamed_addr #15

; Function Attrs: mustprogress nofree nounwind willreturn memory(argmem: read)
declare i64 @strlen(ptr nocapture noundef) local_unnamed_addr #14

; Function Attrs: mustprogress nocallback nofree nounwind willreturn memory(argmem: write)
declare void @llvm.memset.p0.i64(ptr nocapture writeonly, i8, i64, i1 immarg) #16

; Function Attrs: nounwind
declare { i64, ptr } @_ZNSt7__cxx1112basic_stringIcSt11char_traitsIcESaIcEE17_S_to_string_viewESt17basic_string_viewIcS2_E(i64, ptr) local_unnamed_addr #1

; Function Attrs: nounwind
declare void @_ZNSt7__cxx1112basic_stringIcSt11char_traitsIcESaIcEE12__sv_wrapperC1ESt17basic_string_viewIcS2_E(ptr noundef nonnull align 8 dereferenceable(16), i64, ptr) unnamed_addr #1

declare void @_ZNSt7__cxx1112basic_stringIcSt11char_traitsIcESaIcEEC2ENS4_12__sv_wrapperERKS3_(ptr noundef nonnull align 8 dereferenceable(32), i64, ptr, ptr noundef nonnull align 1 dereferenceable(1)) unnamed_addr #0

; Function Attrs: nounwind
declare { i64, ptr } @_ZNKSt7__cxx1112basic_stringIcSt11char_traitsIcESaIcEEcvSt17basic_string_viewIcS2_EEv(ptr noundef nonnull align 8 dereferenceable(32)) local_unnamed_addr #1

; Function Attrs: nobuiltin nounwind
declare void @_ZdlPv(ptr noundef) local_unnamed_addr #17

declare void @_ZN4absl12lts_2023080212log_internal10LogMessage19CopyToEncodedBufferILNS2_10StringTypeE0EEEvSt17basic_string_viewIcSt11char_traitsIcEE(ptr noundef nonnull align 8 dereferenceable(16), i64, ptr) local_unnamed_addr #0

declare void @_ZN6google8protobuf8internal14ArenaStringPtr3SetESt17basic_string_viewIcSt11char_traitsIcEEPNS0_5ArenaE(ptr noundef nonnull align 8 dereferenceable(8), i64, ptr, ptr noundef) local_unnamed_addr #0

; Function Attrs: mustprogress uwtable
define linkonce_odr hidden void @_ZNK4absl12lts_2023080216strings_internal8SplitterINS0_6ByCharENS0_9SkipEmptyESt17basic_string_viewIcSt11char_traitsIcEEE18ConvertToContainerISt6vectorIS8_SaIS8_EES8_Lb0EEclERKS9_(ptr noalias sret(%"class.std::vector.14") align 8 %agg.result, ptr noundef nonnull align 1 dereferenceable(1) %this, ptr noundef nonnull align 8 dereferenceable(18) %splitter) local_unnamed_addr #6 comdat align 2 personality ptr @__gxx_personality_v0 {
entry:
  %ar = alloca %"struct.std::array", align 8
  %it = alloca %"class.absl::lts_20230802::strings_internal::SplitIterator", align 8
  tail call void @llvm.memset.p0.i64(ptr noundef nonnull align 8 dereferenceable(24) %agg.result, i8 0, i64 24, i1 false)
  tail call void @llvm.experimental.noalias.scope.decl(metadata !9)
  store i64 0, ptr %it, align 8, !alias.scope !9
  %state_.i.i = getelementptr inbounds %"class.absl::lts_20230802::strings_internal::SplitIterator", ptr %it, i64 0, i32 1
  store i32 0, ptr %state_.i.i, align 8, !alias.scope !9
  %curr_.i.i = getelementptr inbounds %"class.absl::lts_20230802::strings_internal::SplitIterator", ptr %it, i64 0, i32 3
  call void @llvm.memset.p0.i64(ptr noundef nonnull align 8 dereferenceable(16) %curr_.i.i, i8 0, i64 16, i1 false), !alias.scope !9
  %splitter_.i.i = getelementptr inbounds %"class.absl::lts_20230802::strings_internal::SplitIterator", ptr %it, i64 0, i32 4
  store ptr %splitter, ptr %splitter_.i.i, align 8, !alias.scope !9
  %delimiter_.i.i = getelementptr inbounds %"class.absl::lts_20230802::strings_internal::SplitIterator", ptr %it, i64 0, i32 5
  %delimiter_.i.i.i = getelementptr inbounds %"class.absl::lts_20230802::strings_internal::Splitter", ptr %splitter, i64 0, i32 1
  %0 = load i8, ptr %delimiter_.i.i.i, align 8, !noalias !9
  store i8 %0, ptr %delimiter_.i.i, align 8, !alias.scope !9
  %retval.sroa.2.0.text_.sroa_idx.i.i.i = getelementptr inbounds i8, ptr %splitter, i64 8
  %retval.sroa.2.0.copyload.i.i.i = load ptr, ptr %retval.sroa.2.0.text_.sroa_idx.i.i.i, align 8, !noalias !9
  %cmp.i.i = icmp eq ptr %retval.sroa.2.0.copyload.i.i.i, null
  br i1 %cmp.i.i, label %if.then.i.i, label %if.end.i.i

if.then.i.i:                                      ; preds = %entry
  store i32 2, ptr %state_.i.i, align 8, !alias.scope !9
  %retval.sroa.0.0.copyload.i3.i.i = load i64, ptr %splitter, align 8, !noalias !9
  store i64 %retval.sroa.0.0.copyload.i3.i.i, ptr %it, align 8, !alias.scope !9
  br label %_ZNK4absl12lts_2023080216strings_internal8SplitterINS0_6ByCharENS0_9SkipEmptyESt17basic_string_viewIcSt11char_traitsIcEEE5beginEv.exit

if.end.i.i:                                       ; preds = %entry
  %ref.tmp.sroa.2.0.curr_.sroa_idx.i.i.i = getelementptr inbounds %"class.absl::lts_20230802::strings_internal::SplitIterator", ptr %it, i64 0, i32 3, i32 1
  br label %do.body.i.i.i

do.body.i.i.i:                                    ; preds = %_ZNKSt17basic_string_viewIcSt11char_traitsIcEE6substrEmm.exit.i.i.i, %if.end.i.i
  %1 = phi i64 [ %add21.i.i.i, %_ZNKSt17basic_string_viewIcSt11char_traitsIcEE6substrEmm.exit.i.i.i ], [ 0, %if.end.i.i ]
  %2 = load i32, ptr %state_.i.i, align 8, !alias.scope !9
  %cmp.i.i.i = icmp eq i32 %2, 1
  br i1 %cmp.i.i.i, label %if.then.i.i.i, label %if.end.i.i.i

if.then.i.i.i:                                    ; preds = %do.body.i.i.i
  store i32 2, ptr %state_.i.i, align 8, !alias.scope !9
  br label %_ZNK4absl12lts_2023080216strings_internal8SplitterINS0_6ByCharENS0_9SkipEmptyESt17basic_string_viewIcSt11char_traitsIcEEE5beginEv.exit

if.end.i.i.i:                                     ; preds = %do.body.i.i.i
  %3 = load ptr, ptr %splitter_.i.i, align 8, !alias.scope !9
  %retval.sroa.0.0.copyload.i.i.i.i = load i64, ptr %3, align 8
  %retval.sroa.2.0.text_.sroa_idx.i.i.i.i = getelementptr inbounds i8, ptr %3, i64 8
  %retval.sroa.2.0.copyload.i.i.i.i = load ptr, ptr %retval.sroa.2.0.text_.sroa_idx.i.i.i.i, align 8
  %call3.i.i.i4 = invoke { i64, ptr } @_ZNK4absl12lts_202308026ByChar4FindESt17basic_string_viewIcSt11char_traitsIcEEm(ptr noundef nonnull align 1 dereferenceable(1) %delimiter_.i.i, i64 %retval.sroa.0.0.copyload.i.i.i.i, ptr %retval.sroa.2.0.copyload.i.i.i.i, i64 noundef %1)
          to label %call3.i.i.i.noexc unwind label %lpad.loopexit.split-lp.loopexit.split-lp.loopexit

call3.i.i.i.noexc:                                ; preds = %if.end.i.i.i
  %4 = extractvalue { i64, ptr } %call3.i.i.i4, 0
  %5 = extractvalue { i64, ptr } %call3.i.i.i4, 1
  %add.ptr.i.i.i = getelementptr inbounds i8, ptr %retval.sroa.2.0.copyload.i.i.i.i, i64 %retval.sroa.0.0.copyload.i.i.i.i
  %cmp7.i.i.i = icmp eq ptr %5, %add.ptr.i.i.i
  br i1 %cmp7.i.i.i, label %if.then8.i.i.i, label %if.end10.i.i.i

if.then8.i.i.i:                                   ; preds = %call3.i.i.i.noexc
  store i32 1, ptr %state_.i.i, align 8, !alias.scope !9
  br label %if.end10.i.i.i

if.end10.i.i.i:                                   ; preds = %if.then8.i.i.i, %call3.i.i.i.noexc
  %6 = load i64, ptr %it, align 8, !alias.scope !9
  %cmp.i.i.i.i.i = icmp ult i64 %retval.sroa.0.0.copyload.i.i.i.i, %6
  br i1 %cmp.i.i.i.i.i, label %if.then.i.i.i.i.i.invoke, label %_ZNKSt17basic_string_viewIcSt11char_traitsIcEE6substrEmm.exit.i.i.i

if.then.i.i.i.i.i.invoke:                         ; preds = %if.end10.i.i.i, %if.end10.i
  %7 = phi i64 [ %17, %if.end10.i ], [ %6, %if.end10.i.i.i ]
  %8 = phi i64 [ %retval.sroa.0.0.copyload.i.i, %if.end10.i ], [ %retval.sroa.0.0.copyload.i.i.i.i, %if.end10.i.i.i ]
  invoke void (ptr, ...) @_ZSt24__throw_out_of_range_fmtPKcz(ptr noundef nonnull @.str.11, ptr noundef nonnull @.str.10, i64 noundef %7, i64 noundef %8) #28
          to label %if.then.i.i.i.i.i.cont unwind label %lpad.loopexit.split-lp.loopexit.split-lp.loopexit.split-lp

if.then.i.i.i.i.i.cont:                           ; preds = %if.then.i.i.i.i.i.invoke
  unreachable

_ZNKSt17basic_string_viewIcSt11char_traitsIcEE6substrEmm.exit.i.i.i: ; preds = %if.end10.i.i.i
  %sub.ptr.lhs.cast.i.i.i = ptrtoint ptr %5 to i64
  %add.ptr15.i.i.i = getelementptr inbounds i8, ptr %retval.sroa.2.0.copyload.i.i.i.i, i64 %6
  %sub.ptr.rhs.cast.i.i.i = ptrtoint ptr %add.ptr15.i.i.i to i64
  %sub.ptr.sub.i.i.i = sub i64 %sub.ptr.lhs.cast.i.i.i, %sub.ptr.rhs.cast.i.i.i
  %sub.i.i.i.i = sub i64 %retval.sroa.0.0.copyload.i.i.i.i, %6
  %.sroa.speculated.i.i.i.i = call i64 @llvm.umin.i64(i64 %sub.i.i.i.i, i64 %sub.ptr.sub.i.i.i)
  store i64 %.sroa.speculated.i.i.i.i, ptr %curr_.i.i, align 8, !alias.scope !9
  store ptr %add.ptr15.i.i.i, ptr %ref.tmp.sroa.2.0.curr_.sroa_idx.i.i.i, align 8, !alias.scope !9
  %add.i.i.i = add i64 %6, %4
  %add21.i.i.i = add i64 %add.i.i.i, %.sroa.speculated.i.i.i.i
  store i64 %add21.i.i.i, ptr %it, align 8, !alias.scope !9
  %cmp.i.i7.not.i.i.i = icmp eq i64 %.sroa.speculated.i.i.i.i, 0
  br i1 %cmp.i.i7.not.i.i.i, label %do.body.i.i.i, label %_ZNK4absl12lts_2023080216strings_internal8SplitterINS0_6ByCharENS0_9SkipEmptyESt17basic_string_viewIcSt11char_traitsIcEEE5beginEv.exit, !llvm.loop !12

_ZNK4absl12lts_2023080216strings_internal8SplitterINS0_6ByCharENS0_9SkipEmptyESt17basic_string_viewIcSt11char_traitsIcEEE5beginEv.exit: ; preds = %_ZNKSt17basic_string_viewIcSt11char_traitsIcEE6substrEmm.exit.i.i.i, %if.then.i.i, %if.then.i.i.i
  %_M_str.i = getelementptr inbounds %"class.absl::lts_20230802::strings_internal::SplitIterator", ptr %it, i64 0, i32 3, i32 1
  %_M_finish.i = getelementptr inbounds %"struct.std::_Vector_base<std::basic_string_view<char>, std::allocator<std::basic_string_view<char>>>::_Vector_impl_data", ptr %agg.result, i64 0, i32 1
  br label %for.cond

for.cond:                                         ; preds = %do.end, %_ZNK4absl12lts_2023080216strings_internal8SplitterINS0_6ByCharENS0_9SkipEmptyESt17basic_string_viewIcSt11char_traitsIcEEE5beginEv.exit
  %9 = load i32, ptr %state_.i.i, align 8
  %cmp.i = icmp eq i32 %9, 2
  br i1 %cmp.i, label %nrvo.skipdtor, label %do.body.preheader

do.body.preheader:                                ; preds = %for.cond
  %.pre = load ptr, ptr %_M_str.i, align 8
  %.pre40 = load i64, ptr %curr_.i.i, align 8
  br label %do.body

do.body:                                          ; preds = %do.body.preheader, %do.cond
  %10 = phi i64 [ %.sroa.speculated.i.i, %do.cond ], [ %.pre40, %do.body.preheader ]
  %11 = phi ptr [ %add.ptr15.i, %do.cond ], [ %.pre, %do.body.preheader ]
  %index.0 = phi i64 [ %inc, %do.cond ], [ 0, %do.body.preheader ]
  %arrayidx.i.i = getelementptr inbounds [16 x %struct.raw_view], ptr %ar, i64 0, i64 %index.0
  store ptr %11, ptr %arrayidx.i.i, align 8
  %size = getelementptr inbounds [16 x %struct.raw_view], ptr %ar, i64 0, i64 %index.0, i32 1
  store i64 %10, ptr %size, align 8
  br label %do.body.i

do.body.i:                                        ; preds = %_ZNKSt17basic_string_viewIcSt11char_traitsIcEE6substrEmm.exit.i, %do.body
  %12 = load i32, ptr %state_.i.i, align 8
  %cmp.i9 = icmp eq i32 %12, 1
  br i1 %cmp.i9, label %do.cond.thread, label %if.end.i

do.cond.thread:                                   ; preds = %do.body.i
  store i32 2, ptr %state_.i.i, align 8
  %inc42 = add nuw nsw i64 %index.0, 1
  br label %do.end

if.end.i:                                         ; preds = %do.body.i
  %13 = load ptr, ptr %splitter_.i.i, align 8
  %retval.sroa.0.0.copyload.i.i = load i64, ptr %13, align 8
  %retval.sroa.2.0.text_.sroa_idx.i.i = getelementptr inbounds i8, ptr %13, i64 8
  %retval.sroa.2.0.copyload.i.i = load ptr, ptr %retval.sroa.2.0.text_.sroa_idx.i.i, align 8
  %14 = load i64, ptr %it, align 8
  %call3.i12 = invoke { i64, ptr } @_ZNK4absl12lts_202308026ByChar4FindESt17basic_string_viewIcSt11char_traitsIcEEm(ptr noundef nonnull align 1 dereferenceable(1) %delimiter_.i.i, i64 %retval.sroa.0.0.copyload.i.i, ptr %retval.sroa.2.0.copyload.i.i, i64 noundef %14)
          to label %call3.i.noexc unwind label %lpad.loopexit

call3.i.noexc:                                    ; preds = %if.end.i
  %15 = extractvalue { i64, ptr } %call3.i12, 0
  %16 = extractvalue { i64, ptr } %call3.i12, 1
  %add.ptr.i = getelementptr inbounds i8, ptr %retval.sroa.2.0.copyload.i.i, i64 %retval.sroa.0.0.copyload.i.i
  %cmp7.i = icmp eq ptr %16, %add.ptr.i
  br i1 %cmp7.i, label %if.then8.i, label %if.end10.i

if.then8.i:                                       ; preds = %call3.i.noexc
  store i32 1, ptr %state_.i.i, align 8
  br label %if.end10.i

if.end10.i:                                       ; preds = %if.then8.i, %call3.i.noexc
  %17 = load i64, ptr %it, align 8
  %cmp.i.i.i10 = icmp ult i64 %retval.sroa.0.0.copyload.i.i, %17
  br i1 %cmp.i.i.i10, label %if.then.i.i.i.i.i.invoke, label %_ZNKSt17basic_string_viewIcSt11char_traitsIcEE6substrEmm.exit.i

_ZNKSt17basic_string_viewIcSt11char_traitsIcEE6substrEmm.exit.i: ; preds = %if.end10.i
  %sub.ptr.lhs.cast.i = ptrtoint ptr %16 to i64
  %add.ptr15.i = getelementptr inbounds i8, ptr %retval.sroa.2.0.copyload.i.i, i64 %17
  %sub.ptr.rhs.cast.i = ptrtoint ptr %add.ptr15.i to i64
  %sub.ptr.sub.i = sub i64 %sub.ptr.lhs.cast.i, %sub.ptr.rhs.cast.i
  %sub.i.i = sub i64 %retval.sroa.0.0.copyload.i.i, %17
  %.sroa.speculated.i.i = call i64 @llvm.umin.i64(i64 %sub.i.i, i64 %sub.ptr.sub.i)
  store i64 %.sroa.speculated.i.i, ptr %curr_.i.i, align 8
  store ptr %add.ptr15.i, ptr %_M_str.i, align 8
  %add.i = add i64 %17, %15
  %add21.i = add i64 %add.i, %.sroa.speculated.i.i
  store i64 %add21.i, ptr %it, align 8
  %cmp.i.i7.not.i = icmp eq i64 %.sroa.speculated.i.i, 0
  br i1 %cmp.i.i7.not.i, label %do.body.i, label %do.cond, !llvm.loop !12

do.cond:                                          ; preds = %_ZNKSt17basic_string_viewIcSt11char_traitsIcEE6substrEmm.exit.i
  %.pre41 = load i32, ptr %state_.i.i, align 8
  %inc = add nuw nsw i64 %index.0, 1
  %cmp.not = icmp eq i64 %inc, 16
  %cmp.i15 = icmp eq i32 %.pre41, 2
  %or.cond = select i1 %cmp.not, i1 true, i1 %cmp.i15
  br i1 %or.cond, label %do.end, label %do.body, !llvm.loop !13

do.end:                                           ; preds = %do.cond, %do.cond.thread
  %inc46 = phi i64 [ %inc42, %do.cond.thread ], [ %inc, %do.cond ]
  %18 = load ptr, ptr %_M_finish.i, align 8
  %add.ptr = getelementptr inbounds %struct.raw_view, ptr %ar, i64 %inc46
  %19 = load ptr, ptr %agg.result, align 8
  %sub.ptr.lhs.cast.i.i = ptrtoint ptr %18 to i64
  %sub.ptr.rhs.cast.i.i = ptrtoint ptr %19 to i64
  %sub.ptr.sub.i.i = sub i64 %sub.ptr.lhs.cast.i.i, %sub.ptr.rhs.cast.i.i
  %sub.ptr.div.i.i = ashr exact i64 %sub.ptr.sub.i.i, 4
  %add.ptr.i.i = getelementptr inbounds %"class.std::basic_string_view", ptr %19, i64 %sub.ptr.div.i.i
  invoke void @_ZNSt6vectorISt17basic_string_viewIcSt11char_traitsIcEESaIS3_EE15_M_range_insertIPZNK4absl12lts_2023080216strings_internal8SplitterINS8_6ByCharENS8_9SkipEmptyES3_E18ConvertToContainerIS5_S3_Lb0EEclERKSD_E8raw_viewEEvN9__gnu_cxx17__normal_iteratorIPS3_S5_EET_SO_St20forward_iterator_tag(ptr noundef nonnull align 8 dereferenceable(24) %agg.result, ptr %add.ptr.i.i, ptr noundef nonnull %ar, ptr noundef nonnull %add.ptr)
          to label %for.cond unwind label %lpad.loopexit.split-lp.loopexit

lpad.loopexit:                                    ; preds = %if.end.i
  %lpad.loopexit18 = landingpad { ptr, i32 }
          cleanup
  br label %lpad

lpad.loopexit.split-lp.loopexit:                  ; preds = %do.end
  %lpad.loopexit20 = landingpad { ptr, i32 }
          cleanup
  br label %lpad

lpad.loopexit.split-lp.loopexit.split-lp.loopexit: ; preds = %if.end.i.i.i
  %lpad.loopexit23 = landingpad { ptr, i32 }
          cleanup
  br label %lpad

lpad.loopexit.split-lp.loopexit.split-lp.loopexit.split-lp: ; preds = %if.then.i.i.i.i.i.invoke
  %lpad.loopexit.split-lp24 = landingpad { ptr, i32 }
          cleanup
  br label %lpad

lpad:                                             ; preds = %lpad.loopexit.split-lp.loopexit, %lpad.loopexit.split-lp.loopexit.split-lp.loopexit.split-lp, %lpad.loopexit.split-lp.loopexit.split-lp.loopexit, %lpad.loopexit
  %lpad.phi = phi { ptr, i32 } [ %lpad.loopexit18, %lpad.loopexit ], [ %lpad.loopexit20, %lpad.loopexit.split-lp.loopexit ], [ %lpad.loopexit23, %lpad.loopexit.split-lp.loopexit.split-lp.loopexit ], [ %lpad.loopexit.split-lp24, %lpad.loopexit.split-lp.loopexit.split-lp.loopexit.split-lp ]
  %20 = load ptr, ptr %agg.result, align 8
  %tobool.not.i.i.i = icmp eq ptr %20, null
  br i1 %tobool.not.i.i.i, label %_ZNSt6vectorISt17basic_string_viewIcSt11char_traitsIcEESaIS3_EED2Ev.exit, label %if.then.i.i.i17

if.then.i.i.i17:                                  ; preds = %lpad
  call void @_ZdlPv(ptr noundef nonnull %20) #26
  br label %_ZNSt6vectorISt17basic_string_viewIcSt11char_traitsIcEESaIS3_EED2Ev.exit

_ZNSt6vectorISt17basic_string_viewIcSt11char_traitsIcEESaIS3_EED2Ev.exit: ; preds = %lpad, %if.then.i.i.i17
  resume { ptr, i32 } %lpad.phi

nrvo.skipdtor:                                    ; preds = %for.cond
  ret void
}

declare { i64, ptr } @_ZNK4absl12lts_202308026ByChar4FindESt17basic_string_viewIcSt11char_traitsIcEEm(ptr noundef nonnull align 1 dereferenceable(1), i64, ptr, i64 noundef) local_unnamed_addr #0

; Function Attrs: mustprogress uwtable
define linkonce_odr hidden void @_ZNSt6vectorISt17basic_string_viewIcSt11char_traitsIcEESaIS3_EE15_M_range_insertIPZNK4absl12lts_2023080216strings_internal8SplitterINS8_6ByCharENS8_9SkipEmptyES3_E18ConvertToContainerIS5_S3_Lb0EEclERKSD_E8raw_viewEEvN9__gnu_cxx17__normal_iteratorIPS3_S5_EET_SO_St20forward_iterator_tag(ptr noundef nonnull align 8 dereferenceable(24) %this, ptr %__position.coerce, ptr noundef %__first, ptr noundef %__last) local_unnamed_addr #6 comdat align 2 personality ptr @__gxx_personality_v0 {
entry:
  %cmp.not = icmp eq ptr %__first, %__last
  br i1 %cmp.not, label %if.end87, label %if.then

if.then:                                          ; preds = %entry
  %sub.ptr.lhs.cast.i.i = ptrtoint ptr %__last to i64
  %sub.ptr.rhs.cast.i.i = ptrtoint ptr %__first to i64
  %sub.ptr.sub.i.i = sub i64 %sub.ptr.lhs.cast.i.i, %sub.ptr.rhs.cast.i.i
  %sub.ptr.div.i.i = ashr exact i64 %sub.ptr.sub.i.i, 4
  %_M_end_of_storage = getelementptr inbounds %"struct.std::_Vector_base<std::basic_string_view<char>, std::allocator<std::basic_string_view<char>>>::_Vector_impl_data", ptr %this, i64 0, i32 2
  %0 = load ptr, ptr %_M_end_of_storage, align 8
  %_M_finish = getelementptr inbounds %"struct.std::_Vector_base<std::basic_string_view<char>, std::allocator<std::basic_string_view<char>>>::_Vector_impl_data", ptr %this, i64 0, i32 1
  %1 = load ptr, ptr %_M_finish, align 8
  %sub.ptr.lhs.cast = ptrtoint ptr %0 to i64
  %sub.ptr.rhs.cast = ptrtoint ptr %1 to i64
  %sub.ptr.sub = sub i64 %sub.ptr.lhs.cast, %sub.ptr.rhs.cast
  %sub.ptr.div = ashr exact i64 %sub.ptr.sub, 4
  %cmp3.not = icmp ult i64 %sub.ptr.div, %sub.ptr.div.i.i
  br i1 %cmp3.not, label %if.else50, label %if.then4

if.then4:                                         ; preds = %if.then
  %sub.ptr.rhs.cast.i = ptrtoint ptr %__position.coerce to i64
  %sub.ptr.sub.i = sub i64 %sub.ptr.rhs.cast, %sub.ptr.rhs.cast.i
  %sub.ptr.div.i = ashr exact i64 %sub.ptr.sub.i, 4
  %cmp10 = icmp ugt i64 %sub.ptr.div.i, %sub.ptr.div.i.i
  br i1 %cmp10, label %for.body.i.i.i.i.i.preheader, label %_ZSt7advanceIPZNK4absl12lts_2023080216strings_internal8SplitterINS1_6ByCharENS1_9SkipEmptyESt17basic_string_viewIcSt11char_traitsIcEEE18ConvertToContainerISt6vectorIS9_SaIS9_EES9_Lb0EEclERKSA_E8raw_viewmEvRT_T0_.exit

for.body.i.i.i.i.i.preheader:                     ; preds = %if.then4
  %idx.neg = sub nsw i64 0, %sub.ptr.div.i.i
  %add.ptr = getelementptr %"class.std::basic_string_view", ptr %1, i64 %idx.neg
  br label %for.body.i.i.i.i.i

for.body.i.i.i.i.i:                               ; preds = %for.body.i.i.i.i.i.preheader, %for.body.i.i.i.i.i
  %__cur.09.i.i.i.i.i = phi ptr [ %incdec.ptr.i.i.i.i.i, %for.body.i.i.i.i.i ], [ %1, %for.body.i.i.i.i.i.preheader ]
  %__first.sroa.0.08.i.i.i.i.i = phi ptr [ %incdec.ptr.i.i.i.i.i.i, %for.body.i.i.i.i.i ], [ %add.ptr, %for.body.i.i.i.i.i.preheader ]
  tail call void @llvm.memcpy.p0.p0.i64(ptr noundef nonnull align 8 dereferenceable(16) %__cur.09.i.i.i.i.i, ptr noundef nonnull align 8 dereferenceable(16) %__first.sroa.0.08.i.i.i.i.i, i64 16, i1 false)
  %incdec.ptr.i.i.i.i.i.i = getelementptr inbounds %"class.std::basic_string_view", ptr %__first.sroa.0.08.i.i.i.i.i, i64 1
  %incdec.ptr.i.i.i.i.i = getelementptr inbounds %"class.std::basic_string_view", ptr %__cur.09.i.i.i.i.i, i64 1
  %cmp.i.i.not.i.i.i.i.i = icmp eq ptr %incdec.ptr.i.i.i.i.i.i, %1
  br i1 %cmp.i.i.not.i.i.i.i.i, label %_ZSt22__uninitialized_move_aIPSt17basic_string_viewIcSt11char_traitsIcEES4_SaIS3_EET0_T_S7_S6_RT1_.exit, label %for.body.i.i.i.i.i, !llvm.loop !14

_ZSt22__uninitialized_move_aIPSt17basic_string_viewIcSt11char_traitsIcEES4_SaIS3_EET0_T_S7_S6_RT1_.exit: ; preds = %for.body.i.i.i.i.i
  %.pre119 = load ptr, ptr %_M_finish, align 8
  %add.ptr22 = getelementptr inbounds %"class.std::basic_string_view", ptr %.pre119, i64 %sub.ptr.div.i.i
  store ptr %add.ptr22, ptr %_M_finish, align 8
  %tobool.not.i.i.i.i.i = icmp eq ptr %add.ptr, %__position.coerce
  br i1 %tobool.not.i.i.i.i.i, label %_ZSt13move_backwardIPSt17basic_string_viewIcSt11char_traitsIcEES4_ET0_T_S6_S5_.exit, label %if.then.i.i.i.i.i

if.then.i.i.i.i.i:                                ; preds = %_ZSt22__uninitialized_move_aIPSt17basic_string_viewIcSt11char_traitsIcEES4_SaIS3_EET0_T_S7_S6_RT1_.exit
  %sub.ptr.lhs.cast.i.i.i.i.i = ptrtoint ptr %add.ptr to i64
  %sub.ptr.sub.i.i.i.i.i = sub i64 %sub.ptr.lhs.cast.i.i.i.i.i, %sub.ptr.rhs.cast.i
  %sub.ptr.div.i.i.i.i.i = ashr exact i64 %sub.ptr.sub.i.i.i.i.i, 4
  %.pre.i.i.i.i.i = sub nsw i64 0, %sub.ptr.div.i.i.i.i.i
  %add.ptr.i.i.i.i.i = getelementptr inbounds %"class.std::basic_string_view", ptr %1, i64 %.pre.i.i.i.i.i
  tail call void @llvm.memmove.p0.p0.i64(ptr align 8 %add.ptr.i.i.i.i.i, ptr align 8 %__position.coerce, i64 %sub.ptr.sub.i.i.i.i.i, i1 false)
  br label %_ZSt13move_backwardIPSt17basic_string_viewIcSt11char_traitsIcEES4_ET0_T_S6_S5_.exit

_ZSt13move_backwardIPSt17basic_string_viewIcSt11char_traitsIcEES4_ET0_T_S6_S5_.exit: ; preds = %_ZSt22__uninitialized_move_aIPSt17basic_string_viewIcSt11char_traitsIcEES4_SaIS3_EET0_T_S7_S6_RT1_.exit, %if.then.i.i.i.i.i
  %cmp6.i.i.i.i.i = icmp sgt i64 %sub.ptr.div.i.i, 0
  br i1 %cmp6.i.i.i.i.i, label %for.body.i.i.i.i.i39, label %if.end87

for.body.i.i.i.i.i39:                             ; preds = %_ZSt13move_backwardIPSt17basic_string_viewIcSt11char_traitsIcEES4_ET0_T_S6_S5_.exit, %for.body.i.i.i.i.i39
  %__first.addr.09.i.i.i.i.i = phi ptr [ %incdec.ptr.i.i.i.i.i40, %for.body.i.i.i.i.i39 ], [ %__first, %_ZSt13move_backwardIPSt17basic_string_viewIcSt11char_traitsIcEES4_ET0_T_S6_S5_.exit ]
  %__result.addr.08.i.i.i.i.i = phi ptr [ %incdec.ptr1.i.i.i.i.i, %for.body.i.i.i.i.i39 ], [ %__position.coerce, %_ZSt13move_backwardIPSt17basic_string_viewIcSt11char_traitsIcEES4_ET0_T_S6_S5_.exit ]
  %__n.07.i.i.i.i.i = phi i64 [ %dec.i.i.i.i.i, %for.body.i.i.i.i.i39 ], [ %sub.ptr.div.i.i, %_ZSt13move_backwardIPSt17basic_string_viewIcSt11char_traitsIcEES4_ET0_T_S6_S5_.exit ]
  %2 = load ptr, ptr %__first.addr.09.i.i.i.i.i, align 8
  %size.i.i.i.i.i.i = getelementptr inbounds %struct.raw_view, ptr %__first.addr.09.i.i.i.i.i, i64 0, i32 1
  %3 = load i64, ptr %size.i.i.i.i.i.i, align 8
  store i64 %3, ptr %__result.addr.08.i.i.i.i.i, align 8
  %ref.tmp.sroa.2.0..sroa_idx.i.i.i.i.i = getelementptr inbounds i8, ptr %__result.addr.08.i.i.i.i.i, i64 8
  store ptr %2, ptr %ref.tmp.sroa.2.0..sroa_idx.i.i.i.i.i, align 8
  %incdec.ptr.i.i.i.i.i40 = getelementptr inbounds %struct.raw_view, ptr %__first.addr.09.i.i.i.i.i, i64 1
  %incdec.ptr1.i.i.i.i.i = getelementptr inbounds %"class.std::basic_string_view", ptr %__result.addr.08.i.i.i.i.i, i64 1
  %dec.i.i.i.i.i = add nsw i64 %__n.07.i.i.i.i.i, -1
  %cmp.i.i.i.i.i = icmp ugt i64 %__n.07.i.i.i.i.i, 1
  br i1 %cmp.i.i.i.i.i, label %for.body.i.i.i.i.i39, label %if.end87, !llvm.loop !15

_ZSt7advanceIPZNK4absl12lts_2023080216strings_internal8SplitterINS1_6ByCharENS1_9SkipEmptyESt17basic_string_viewIcSt11char_traitsIcEEE18ConvertToContainerISt6vectorIS9_SaIS9_EES9_Lb0EEclERKSA_E8raw_viewmEvRT_T0_.exit: ; preds = %if.then4
  %incdec.ptr.i.i = getelementptr inbounds %struct.raw_view, ptr %__first, i64 %sub.ptr.div.i
  %cmp.not5.i.i.i.i = icmp eq ptr %incdec.ptr.i.i, %__last
  br i1 %cmp.not5.i.i.i.i, label %_ZSt22__uninitialized_copy_aIPZNK4absl12lts_2023080216strings_internal8SplitterINS1_6ByCharENS1_9SkipEmptyESt17basic_string_viewIcSt11char_traitsIcEEE18ConvertToContainerISt6vectorIS9_SaIS9_EES9_Lb0EEclERKSA_E8raw_viewPS9_S9_ET0_T_SM_SL_RSaIT1_E.exit, label %for.body.i.i.i.i

for.body.i.i.i.i:                                 ; preds = %_ZSt7advanceIPZNK4absl12lts_2023080216strings_internal8SplitterINS1_6ByCharENS1_9SkipEmptyESt17basic_string_viewIcSt11char_traitsIcEEE18ConvertToContainerISt6vectorIS9_SaIS9_EES9_Lb0EEclERKSA_E8raw_viewmEvRT_T0_.exit, %for.body.i.i.i.i
  %__cur.07.i.i.i.i = phi ptr [ %incdec.ptr1.i.i.i.i, %for.body.i.i.i.i ], [ %1, %_ZSt7advanceIPZNK4absl12lts_2023080216strings_internal8SplitterINS1_6ByCharENS1_9SkipEmptyESt17basic_string_viewIcSt11char_traitsIcEEE18ConvertToContainerISt6vectorIS9_SaIS9_EES9_Lb0EEclERKSA_E8raw_viewmEvRT_T0_.exit ]
  %__first.addr.06.i.i.i.i = phi ptr [ %incdec.ptr.i.i.i.i, %for.body.i.i.i.i ], [ %incdec.ptr.i.i, %_ZSt7advanceIPZNK4absl12lts_2023080216strings_internal8SplitterINS1_6ByCharENS1_9SkipEmptyESt17basic_string_viewIcSt11char_traitsIcEEE18ConvertToContainerISt6vectorIS9_SaIS9_EES9_Lb0EEclERKSA_E8raw_viewmEvRT_T0_.exit ]
  %4 = load ptr, ptr %__first.addr.06.i.i.i.i, align 8
  %size.i.i.i.i.i.i41 = getelementptr inbounds %struct.raw_view, ptr %__first.addr.06.i.i.i.i, i64 0, i32 1
  %5 = load i64, ptr %size.i.i.i.i.i.i41, align 8
  store i64 %5, ptr %__cur.07.i.i.i.i, align 8
  %6 = getelementptr inbounds { i64, ptr }, ptr %__cur.07.i.i.i.i, i64 0, i32 1
  store ptr %4, ptr %6, align 8
  %incdec.ptr.i.i.i.i = getelementptr inbounds %struct.raw_view, ptr %__first.addr.06.i.i.i.i, i64 1
  %incdec.ptr1.i.i.i.i = getelementptr inbounds %"class.std::basic_string_view", ptr %__cur.07.i.i.i.i, i64 1
  %cmp.not.i.i.i.i = icmp eq ptr %incdec.ptr.i.i.i.i, %__last
  br i1 %cmp.not.i.i.i.i, label %_ZSt22__uninitialized_copy_aIPZNK4absl12lts_2023080216strings_internal8SplitterINS1_6ByCharENS1_9SkipEmptyESt17basic_string_viewIcSt11char_traitsIcEEE18ConvertToContainerISt6vectorIS9_SaIS9_EES9_Lb0EEclERKSA_E8raw_viewPS9_S9_ET0_T_SM_SL_RSaIT1_E.exit.loopexit, label %for.body.i.i.i.i, !llvm.loop !16

_ZSt22__uninitialized_copy_aIPZNK4absl12lts_2023080216strings_internal8SplitterINS1_6ByCharENS1_9SkipEmptyESt17basic_string_viewIcSt11char_traitsIcEEE18ConvertToContainerISt6vectorIS9_SaIS9_EES9_Lb0EEclERKSA_E8raw_viewPS9_S9_ET0_T_SM_SL_RSaIT1_E.exit.loopexit: ; preds = %for.body.i.i.i.i
  %.pre = load ptr, ptr %_M_finish, align 8
  br label %_ZSt22__uninitialized_copy_aIPZNK4absl12lts_2023080216strings_internal8SplitterINS1_6ByCharENS1_9SkipEmptyESt17basic_string_viewIcSt11char_traitsIcEEE18ConvertToContainerISt6vectorIS9_SaIS9_EES9_Lb0EEclERKSA_E8raw_viewPS9_S9_ET0_T_SM_SL_RSaIT1_E.exit

_ZSt22__uninitialized_copy_aIPZNK4absl12lts_2023080216strings_internal8SplitterINS1_6ByCharENS1_9SkipEmptyESt17basic_string_viewIcSt11char_traitsIcEEE18ConvertToContainerISt6vectorIS9_SaIS9_EES9_Lb0EEclERKSA_E8raw_viewPS9_S9_ET0_T_SM_SL_RSaIT1_E.exit: ; preds = %_ZSt22__uninitialized_copy_aIPZNK4absl12lts_2023080216strings_internal8SplitterINS1_6ByCharENS1_9SkipEmptyESt17basic_string_viewIcSt11char_traitsIcEEE18ConvertToContainerISt6vectorIS9_SaIS9_EES9_Lb0EEclERKSA_E8raw_viewPS9_S9_ET0_T_SM_SL_RSaIT1_E.exit.loopexit, %_ZSt7advanceIPZNK4absl12lts_2023080216strings_internal8SplitterINS1_6ByCharENS1_9SkipEmptyESt17basic_string_viewIcSt11char_traitsIcEEE18ConvertToContainerISt6vectorIS9_SaIS9_EES9_Lb0EEclERKSA_E8raw_viewmEvRT_T0_.exit
  %7 = phi ptr [ %.pre, %_ZSt22__uninitialized_copy_aIPZNK4absl12lts_2023080216strings_internal8SplitterINS1_6ByCharENS1_9SkipEmptyESt17basic_string_viewIcSt11char_traitsIcEEE18ConvertToContainerISt6vectorIS9_SaIS9_EES9_Lb0EEclERKSA_E8raw_viewPS9_S9_ET0_T_SM_SL_RSaIT1_E.exit.loopexit ], [ %1, %_ZSt7advanceIPZNK4absl12lts_2023080216strings_internal8SplitterINS1_6ByCharENS1_9SkipEmptyESt17basic_string_viewIcSt11char_traitsIcEEE18ConvertToContainerISt6vectorIS9_SaIS9_EES9_Lb0EEclERKSA_E8raw_viewmEvRT_T0_.exit ]
  %sub = sub nsw i64 %sub.ptr.div.i.i, %sub.ptr.div.i
  %add.ptr36 = getelementptr %"class.std::basic_string_view", ptr %7, i64 %sub
  store ptr %add.ptr36, ptr %_M_finish, align 8
  %cmp.i.i.not7.i.i.i.i.i42 = icmp eq ptr %1, %__position.coerce
  br i1 %cmp.i.i.not7.i.i.i.i.i42, label %_ZSt22__uninitialized_move_aIPSt17basic_string_viewIcSt11char_traitsIcEES4_SaIS3_EET0_T_S7_S6_RT1_.exit50, label %for.body.i.i.i.i.i43

for.body.i.i.i.i.i43:                             ; preds = %_ZSt22__uninitialized_copy_aIPZNK4absl12lts_2023080216strings_internal8SplitterINS1_6ByCharENS1_9SkipEmptyESt17basic_string_viewIcSt11char_traitsIcEEE18ConvertToContainerISt6vectorIS9_SaIS9_EES9_Lb0EEclERKSA_E8raw_viewPS9_S9_ET0_T_SM_SL_RSaIT1_E.exit, %for.body.i.i.i.i.i43
  %__cur.09.i.i.i.i.i44 = phi ptr [ %incdec.ptr.i.i.i.i.i47, %for.body.i.i.i.i.i43 ], [ %add.ptr36, %_ZSt22__uninitialized_copy_aIPZNK4absl12lts_2023080216strings_internal8SplitterINS1_6ByCharENS1_9SkipEmptyESt17basic_string_viewIcSt11char_traitsIcEEE18ConvertToContainerISt6vectorIS9_SaIS9_EES9_Lb0EEclERKSA_E8raw_viewPS9_S9_ET0_T_SM_SL_RSaIT1_E.exit ]
  %__first.sroa.0.08.i.i.i.i.i45 = phi ptr [ %incdec.ptr.i.i.i.i.i.i46, %for.body.i.i.i.i.i43 ], [ %__position.coerce, %_ZSt22__uninitialized_copy_aIPZNK4absl12lts_2023080216strings_internal8SplitterINS1_6ByCharENS1_9SkipEmptyESt17basic_string_viewIcSt11char_traitsIcEEE18ConvertToContainerISt6vectorIS9_SaIS9_EES9_Lb0EEclERKSA_E8raw_viewPS9_S9_ET0_T_SM_SL_RSaIT1_E.exit ]
  tail call void @llvm.memcpy.p0.p0.i64(ptr noundef nonnull align 8 dereferenceable(16) %__cur.09.i.i.i.i.i44, ptr noundef nonnull align 8 dereferenceable(16) %__first.sroa.0.08.i.i.i.i.i45, i64 16, i1 false)
  %incdec.ptr.i.i.i.i.i.i46 = getelementptr inbounds %"class.std::basic_string_view", ptr %__first.sroa.0.08.i.i.i.i.i45, i64 1
  %incdec.ptr.i.i.i.i.i47 = getelementptr inbounds %"class.std::basic_string_view", ptr %__cur.09.i.i.i.i.i44, i64 1
  %cmp.i.i.not.i.i.i.i.i48 = icmp eq ptr %incdec.ptr.i.i.i.i.i.i46, %1
  br i1 %cmp.i.i.not.i.i.i.i.i48, label %_ZSt22__uninitialized_move_aIPSt17basic_string_viewIcSt11char_traitsIcEES4_SaIS3_EET0_T_S7_S6_RT1_.exit50.loopexit, label %for.body.i.i.i.i.i43, !llvm.loop !14

_ZSt22__uninitialized_move_aIPSt17basic_string_viewIcSt11char_traitsIcEES4_SaIS3_EET0_T_S7_S6_RT1_.exit50.loopexit: ; preds = %for.body.i.i.i.i.i43
  %.pre118 = load ptr, ptr %_M_finish, align 8
  br label %_ZSt22__uninitialized_move_aIPSt17basic_string_viewIcSt11char_traitsIcEES4_SaIS3_EET0_T_S7_S6_RT1_.exit50

_ZSt22__uninitialized_move_aIPSt17basic_string_viewIcSt11char_traitsIcEES4_SaIS3_EET0_T_S7_S6_RT1_.exit50: ; preds = %_ZSt22__uninitialized_move_aIPSt17basic_string_viewIcSt11char_traitsIcEES4_SaIS3_EET0_T_S7_S6_RT1_.exit50.loopexit, %_ZSt22__uninitialized_copy_aIPZNK4absl12lts_2023080216strings_internal8SplitterINS1_6ByCharENS1_9SkipEmptyESt17basic_string_viewIcSt11char_traitsIcEEE18ConvertToContainerISt6vectorIS9_SaIS9_EES9_Lb0EEclERKSA_E8raw_viewPS9_S9_ET0_T_SM_SL_RSaIT1_E.exit
  %8 = phi ptr [ %.pre118, %_ZSt22__uninitialized_move_aIPSt17basic_string_viewIcSt11char_traitsIcEES4_SaIS3_EET0_T_S7_S6_RT1_.exit50.loopexit ], [ %add.ptr36, %_ZSt22__uninitialized_copy_aIPZNK4absl12lts_2023080216strings_internal8SplitterINS1_6ByCharENS1_9SkipEmptyESt17basic_string_viewIcSt11char_traitsIcEEE18ConvertToContainerISt6vectorIS9_SaIS9_EES9_Lb0EEclERKSA_E8raw_viewPS9_S9_ET0_T_SM_SL_RSaIT1_E.exit ]
  %add.ptr44 = getelementptr inbounds %"class.std::basic_string_view", ptr %8, i64 %sub.ptr.div.i
  store ptr %add.ptr44, ptr %_M_finish, align 8
  %cmp6.i.i.i.i.i55 = icmp sgt i64 %sub.ptr.div.i, 0
  br i1 %cmp6.i.i.i.i.i55, label %for.body.i.i.i.i.i62, label %if.end87

for.body.i.i.i.i.i62:                             ; preds = %_ZSt22__uninitialized_move_aIPSt17basic_string_viewIcSt11char_traitsIcEES4_SaIS3_EET0_T_S7_S6_RT1_.exit50, %for.body.i.i.i.i.i62
  %__first.addr.09.i.i.i.i.i63 = phi ptr [ %incdec.ptr.i.i.i.i.i68, %for.body.i.i.i.i.i62 ], [ %__first, %_ZSt22__uninitialized_move_aIPSt17basic_string_viewIcSt11char_traitsIcEES4_SaIS3_EET0_T_S7_S6_RT1_.exit50 ]
  %__result.addr.08.i.i.i.i.i64 = phi ptr [ %incdec.ptr1.i.i.i.i.i69, %for.body.i.i.i.i.i62 ], [ %__position.coerce, %_ZSt22__uninitialized_move_aIPSt17basic_string_viewIcSt11char_traitsIcEES4_SaIS3_EET0_T_S7_S6_RT1_.exit50 ]
  %__n.07.i.i.i.i.i65 = phi i64 [ %dec.i.i.i.i.i70, %for.body.i.i.i.i.i62 ], [ %sub.ptr.div.i, %_ZSt22__uninitialized_move_aIPSt17basic_string_viewIcSt11char_traitsIcEES4_SaIS3_EET0_T_S7_S6_RT1_.exit50 ]
  %9 = load ptr, ptr %__first.addr.09.i.i.i.i.i63, align 8
  %size.i.i.i.i.i.i66 = getelementptr inbounds %struct.raw_view, ptr %__first.addr.09.i.i.i.i.i63, i64 0, i32 1
  %10 = load i64, ptr %size.i.i.i.i.i.i66, align 8
  store i64 %10, ptr %__result.addr.08.i.i.i.i.i64, align 8
  %ref.tmp.sroa.2.0..sroa_idx.i.i.i.i.i67 = getelementptr inbounds i8, ptr %__result.addr.08.i.i.i.i.i64, i64 8
  store ptr %9, ptr %ref.tmp.sroa.2.0..sroa_idx.i.i.i.i.i67, align 8
  %incdec.ptr.i.i.i.i.i68 = getelementptr inbounds %struct.raw_view, ptr %__first.addr.09.i.i.i.i.i63, i64 1
  %incdec.ptr1.i.i.i.i.i69 = getelementptr inbounds %"class.std::basic_string_view", ptr %__result.addr.08.i.i.i.i.i64, i64 1
  %dec.i.i.i.i.i70 = add nsw i64 %__n.07.i.i.i.i.i65, -1
  %cmp.i.i.i.i.i71 = icmp ugt i64 %__n.07.i.i.i.i.i65, 1
  br i1 %cmp.i.i.i.i.i71, label %for.body.i.i.i.i.i62, label %if.end87, !llvm.loop !15

if.else50:                                        ; preds = %if.then
  %11 = load ptr, ptr %this, align 8
  %sub.ptr.rhs.cast.i.i74 = ptrtoint ptr %11 to i64
  %sub.ptr.sub.i.i75 = sub i64 %sub.ptr.rhs.cast, %sub.ptr.rhs.cast.i.i74
  %sub.ptr.div.i.i76 = ashr exact i64 %sub.ptr.sub.i.i75, 4
  %sub.i = sub nsw i64 576460752303423487, %sub.ptr.div.i.i76
  %cmp.i = icmp ult i64 %sub.i, %sub.ptr.div.i.i
  br i1 %cmp.i, label %if.then.i, label %_ZNKSt6vectorISt17basic_string_viewIcSt11char_traitsIcEESaIS3_EE12_M_check_lenEmPKc.exit

if.then.i:                                        ; preds = %if.else50
  tail call void @_ZSt20__throw_length_errorPKc(ptr noundef nonnull @.str.12) #28
  unreachable

_ZNKSt6vectorISt17basic_string_viewIcSt11char_traitsIcEESaIS3_EE12_M_check_lenEmPKc.exit: ; preds = %if.else50
  %.sroa.speculated.i = tail call i64 @llvm.umax.i64(i64 %sub.ptr.div.i.i76, i64 %sub.ptr.div.i.i)
  %add.i = add nsw i64 %.sroa.speculated.i, %sub.ptr.div.i.i76
  %cmp7.i = icmp ult i64 %add.i, %sub.ptr.div.i.i76
  %cmp9.i = icmp ugt i64 %add.i, 576460752303423487
  %or.cond.i = or i1 %cmp7.i, %cmp9.i
  %cond.i = select i1 %or.cond.i, i64 576460752303423487, i64 %add.i
  %cmp.not.i = icmp eq i64 %cond.i, 0
  br i1 %cmp.not.i, label %_ZNSt12_Vector_baseISt17basic_string_viewIcSt11char_traitsIcEESaIS3_EE11_M_allocateEm.exit, label %_ZNSt16allocator_traitsISaISt17basic_string_viewIcSt11char_traitsIcEEEE8allocateERS4_m.exit.i

_ZNSt16allocator_traitsISaISt17basic_string_viewIcSt11char_traitsIcEEEE8allocateERS4_m.exit.i: ; preds = %_ZNKSt6vectorISt17basic_string_viewIcSt11char_traitsIcEESaIS3_EE12_M_check_lenEmPKc.exit
  %mul.i.i.i = shl nuw nsw i64 %cond.i, 4
  %call5.i.i.i = tail call noalias noundef nonnull ptr @_Znwm(i64 noundef %mul.i.i.i) #29
  br label %_ZNSt12_Vector_baseISt17basic_string_viewIcSt11char_traitsIcEESaIS3_EE11_M_allocateEm.exit

_ZNSt12_Vector_baseISt17basic_string_viewIcSt11char_traitsIcEESaIS3_EE11_M_allocateEm.exit: ; preds = %_ZNKSt6vectorISt17basic_string_viewIcSt11char_traitsIcEESaIS3_EE12_M_check_lenEmPKc.exit, %_ZNSt16allocator_traitsISaISt17basic_string_viewIcSt11char_traitsIcEEEE8allocateERS4_m.exit.i
  %cond.i77 = phi ptr [ %call5.i.i.i, %_ZNSt16allocator_traitsISaISt17basic_string_viewIcSt11char_traitsIcEEEE8allocateERS4_m.exit.i ], [ null, %_ZNKSt6vectorISt17basic_string_viewIcSt11char_traitsIcEESaIS3_EE12_M_check_lenEmPKc.exit ]
  %cmp.i.i.not7.i.i.i.i.i78 = icmp eq ptr %11, %__position.coerce
  br i1 %cmp.i.i.not7.i.i.i.i.i78, label %for.body.i.i.i.i87.preheader, label %for.body.i.i.i.i.i79

for.body.i.i.i.i.i79:                             ; preds = %_ZNSt12_Vector_baseISt17basic_string_viewIcSt11char_traitsIcEESaIS3_EE11_M_allocateEm.exit, %for.body.i.i.i.i.i79
  %__cur.09.i.i.i.i.i80 = phi ptr [ %incdec.ptr.i.i.i.i.i83, %for.body.i.i.i.i.i79 ], [ %cond.i77, %_ZNSt12_Vector_baseISt17basic_string_viewIcSt11char_traitsIcEESaIS3_EE11_M_allocateEm.exit ]
  %__first.sroa.0.08.i.i.i.i.i81 = phi ptr [ %incdec.ptr.i.i.i.i.i.i82, %for.body.i.i.i.i.i79 ], [ %11, %_ZNSt12_Vector_baseISt17basic_string_viewIcSt11char_traitsIcEESaIS3_EE11_M_allocateEm.exit ]
  tail call void @llvm.memcpy.p0.p0.i64(ptr noundef nonnull align 8 dereferenceable(16) %__cur.09.i.i.i.i.i80, ptr noundef nonnull align 8 dereferenceable(16) %__first.sroa.0.08.i.i.i.i.i81, i64 16, i1 false)
  %incdec.ptr.i.i.i.i.i.i82 = getelementptr inbounds %"class.std::basic_string_view", ptr %__first.sroa.0.08.i.i.i.i.i81, i64 1
  %incdec.ptr.i.i.i.i.i83 = getelementptr inbounds %"class.std::basic_string_view", ptr %__cur.09.i.i.i.i.i80, i64 1
  %cmp.i.i.not.i.i.i.i.i84 = icmp eq ptr %incdec.ptr.i.i.i.i.i.i82, %__position.coerce
  br i1 %cmp.i.i.not.i.i.i.i.i84, label %for.body.i.i.i.i87.preheader, label %for.body.i.i.i.i.i79, !llvm.loop !14

for.body.i.i.i.i87.preheader:                     ; preds = %for.body.i.i.i.i.i79, %_ZNSt12_Vector_baseISt17basic_string_viewIcSt11char_traitsIcEESaIS3_EE11_M_allocateEm.exit
  %__cur.07.i.i.i.i88.ph = phi ptr [ %cond.i77, %_ZNSt12_Vector_baseISt17basic_string_viewIcSt11char_traitsIcEESaIS3_EE11_M_allocateEm.exit ], [ %incdec.ptr.i.i.i.i.i83, %for.body.i.i.i.i.i79 ]
  br label %for.body.i.i.i.i87

for.body.i.i.i.i87:                               ; preds = %for.body.i.i.i.i87.preheader, %for.body.i.i.i.i87
  %__cur.07.i.i.i.i88 = phi ptr [ %incdec.ptr1.i.i.i.i92, %for.body.i.i.i.i87 ], [ %__cur.07.i.i.i.i88.ph, %for.body.i.i.i.i87.preheader ]
  %__first.addr.06.i.i.i.i89 = phi ptr [ %incdec.ptr.i.i.i.i91, %for.body.i.i.i.i87 ], [ %__first, %for.body.i.i.i.i87.preheader ]
  %12 = load ptr, ptr %__first.addr.06.i.i.i.i89, align 8
  %size.i.i.i.i.i.i90 = getelementptr inbounds %struct.raw_view, ptr %__first.addr.06.i.i.i.i89, i64 0, i32 1
  %13 = load i64, ptr %size.i.i.i.i.i.i90, align 8
  store i64 %13, ptr %__cur.07.i.i.i.i88, align 8
  %14 = getelementptr inbounds { i64, ptr }, ptr %__cur.07.i.i.i.i88, i64 0, i32 1
  store ptr %12, ptr %14, align 8
  %incdec.ptr.i.i.i.i91 = getelementptr inbounds %struct.raw_view, ptr %__first.addr.06.i.i.i.i89, i64 1
  %incdec.ptr1.i.i.i.i92 = getelementptr %"class.std::basic_string_view", ptr %__cur.07.i.i.i.i88, i64 1
  %cmp.not.i.i.i.i93 = icmp eq ptr %incdec.ptr.i.i.i.i91, %__last
  br i1 %cmp.not.i.i.i.i93, label %invoke.cont61, label %for.body.i.i.i.i87, !llvm.loop !16

invoke.cont61:                                    ; preds = %for.body.i.i.i.i87
  %cmp.i.i.not7.i.i.i.i.i96 = icmp eq ptr %1, %__position.coerce
  br i1 %cmp.i.i.not7.i.i.i.i.i96, label %invoke.cont65, label %for.body.i.i.i.i.i97

for.body.i.i.i.i.i97:                             ; preds = %invoke.cont61, %for.body.i.i.i.i.i97
  %__cur.09.i.i.i.i.i98 = phi ptr [ %incdec.ptr.i.i.i.i.i101, %for.body.i.i.i.i.i97 ], [ %incdec.ptr1.i.i.i.i92, %invoke.cont61 ]
  %__first.sroa.0.08.i.i.i.i.i99 = phi ptr [ %incdec.ptr.i.i.i.i.i.i100, %for.body.i.i.i.i.i97 ], [ %__position.coerce, %invoke.cont61 ]
  tail call void @llvm.memcpy.p0.p0.i64(ptr noundef nonnull align 8 dereferenceable(16) %__cur.09.i.i.i.i.i98, ptr noundef nonnull align 8 dereferenceable(16) %__first.sroa.0.08.i.i.i.i.i99, i64 16, i1 false)
  %incdec.ptr.i.i.i.i.i.i100 = getelementptr inbounds %"class.std::basic_string_view", ptr %__first.sroa.0.08.i.i.i.i.i99, i64 1
  %incdec.ptr.i.i.i.i.i101 = getelementptr inbounds %"class.std::basic_string_view", ptr %__cur.09.i.i.i.i.i98, i64 1
  %cmp.i.i.not.i.i.i.i.i102 = icmp eq ptr %incdec.ptr.i.i.i.i.i.i100, %1
  br i1 %cmp.i.i.not.i.i.i.i.i102, label %invoke.cont65, label %for.body.i.i.i.i.i97, !llvm.loop !14

invoke.cont65:                                    ; preds = %for.body.i.i.i.i.i97, %invoke.cont61
  %__cur.0.lcssa.i.i.i.i.i103 = phi ptr [ %incdec.ptr1.i.i.i.i92, %invoke.cont61 ], [ %incdec.ptr.i.i.i.i.i101, %for.body.i.i.i.i.i97 ]
  %tobool.not.i = icmp eq ptr %11, null
  br i1 %tobool.not.i, label %_ZNSt12_Vector_baseISt17basic_string_viewIcSt11char_traitsIcEESaIS3_EE13_M_deallocateEPS3_m.exit, label %if.then.i105

if.then.i105:                                     ; preds = %invoke.cont65
  tail call void @_ZdlPv(ptr noundef nonnull %11) #26
  br label %_ZNSt12_Vector_baseISt17basic_string_viewIcSt11char_traitsIcEESaIS3_EE13_M_deallocateEPS3_m.exit

_ZNSt12_Vector_baseISt17basic_string_viewIcSt11char_traitsIcEESaIS3_EE13_M_deallocateEPS3_m.exit: ; preds = %invoke.cont65, %if.then.i105
  store ptr %cond.i77, ptr %this, align 8
  store ptr %__cur.0.lcssa.i.i.i.i.i103, ptr %_M_finish, align 8
  %add.ptr83 = getelementptr inbounds %"class.std::basic_string_view", ptr %cond.i77, i64 %cond.i
  store ptr %add.ptr83, ptr %_M_end_of_storage, align 8
  br label %if.end87

if.end87:                                         ; preds = %for.body.i.i.i.i.i62, %for.body.i.i.i.i.i39, %_ZSt22__uninitialized_move_aIPSt17basic_string_viewIcSt11char_traitsIcEES4_SaIS3_EET0_T_S7_S6_RT1_.exit50, %_ZSt13move_backwardIPSt17basic_string_viewIcSt11char_traitsIcEES4_ET0_T_S6_S5_.exit, %_ZNSt12_Vector_baseISt17basic_string_viewIcSt11char_traitsIcEESaIS3_EE13_M_deallocateEPS3_m.exit, %entry
  ret void
}

declare void @__cxa_rethrow() local_unnamed_addr

declare void @__cxa_end_catch() local_unnamed_addr

; Function Attrs: mustprogress nocallback nofree nounwind willreturn memory(argmem: readwrite)
declare void @llvm.memmove.p0.p0.i64(ptr nocapture writeonly, ptr nocapture readonly, i64, i1 immarg) #10

; Function Attrs: noreturn
declare void @_ZSt20__throw_length_errorPKc(ptr noundef) local_unnamed_addr #15

; Function Attrs: nobuiltin allocsize(0)
declare noundef nonnull ptr @_Znwm(i64 noundef) local_unnamed_addr #18

; Function Attrs: mustprogress uwtable
define linkonce_odr void @_ZNSt6vectorISt4pairINSt7__cxx1112basic_stringIcSt11char_traitsIcESaIcEEES6_ESaIS7_EE17_M_realloc_insertIJRSt17basic_string_viewIcS4_ERA1_KcEEEvN9__gnu_cxx17__normal_iteratorIPS7_S9_EEDpOT_(ptr noundef nonnull align 8 dereferenceable(24) %this, ptr %__position.coerce, ptr noundef nonnull align 8 dereferenceable(16) %__args, ptr noundef nonnull align 1 dereferenceable(1) %__args1) local_unnamed_addr #6 comdat align 2 personality ptr @__gxx_personality_v0 {
entry:
  %_M_finish.i.i = getelementptr inbounds %"struct.std::_Vector_base<std::pair<std::__cxx11::basic_string<char>, std::__cxx11::basic_string<char>>, std::allocator<std::pair<std::__cxx11::basic_string<char>, std::__cxx11::basic_string<char>>>>::_Vector_impl_data", ptr %this, i64 0, i32 1
  %0 = load ptr, ptr %_M_finish.i.i, align 8
  %1 = load ptr, ptr %this, align 8
  %sub.ptr.lhs.cast.i.i = ptrtoint ptr %0 to i64
  %sub.ptr.rhs.cast.i.i = ptrtoint ptr %1 to i64
  %sub.ptr.sub.i.i = sub i64 %sub.ptr.lhs.cast.i.i, %sub.ptr.rhs.cast.i.i
  %cmp.i = icmp eq i64 %sub.ptr.sub.i.i, 9223372036854775744
  br i1 %cmp.i, label %if.then.i, label %_ZNKSt6vectorISt4pairINSt7__cxx1112basic_stringIcSt11char_traitsIcESaIcEEES6_ESaIS7_EE12_M_check_lenEmPKc.exit

if.then.i:                                        ; preds = %entry
  tail call void @_ZSt20__throw_length_errorPKc(ptr noundef nonnull @.str.14) #28
  unreachable

_ZNKSt6vectorISt4pairINSt7__cxx1112basic_stringIcSt11char_traitsIcESaIcEEES6_ESaIS7_EE12_M_check_lenEmPKc.exit: ; preds = %entry
  %sub.ptr.div.i.i = ashr exact i64 %sub.ptr.sub.i.i, 6
  %.sroa.speculated.i = tail call i64 @llvm.umax.i64(i64 %sub.ptr.div.i.i, i64 1)
  %add.i = add i64 %.sroa.speculated.i, %sub.ptr.div.i.i
  %cmp7.i = icmp ult i64 %add.i, %sub.ptr.div.i.i
  %cmp9.i = icmp ugt i64 %add.i, 144115188075855871
  %or.cond.i = or i1 %cmp7.i, %cmp9.i
  %cond.i = select i1 %or.cond.i, i64 144115188075855871, i64 %add.i
  %sub.ptr.lhs.cast.i = ptrtoint ptr %__position.coerce to i64
  %sub.ptr.sub.i = sub i64 %sub.ptr.lhs.cast.i, %sub.ptr.rhs.cast.i.i
  %sub.ptr.div.i = ashr exact i64 %sub.ptr.sub.i, 6
  %cmp.not.i = icmp eq i64 %cond.i, 0
  br i1 %cmp.not.i, label %_ZNSt12_Vector_baseISt4pairINSt7__cxx1112basic_stringIcSt11char_traitsIcESaIcEEES6_ESaIS7_EE11_M_allocateEm.exit, label %_ZNSt16allocator_traitsISaISt4pairINSt7__cxx1112basic_stringIcSt11char_traitsIcESaIcEEES6_EEE8allocateERS8_m.exit.i

_ZNSt16allocator_traitsISaISt4pairINSt7__cxx1112basic_stringIcSt11char_traitsIcESaIcEEES6_EEE8allocateERS8_m.exit.i: ; preds = %_ZNKSt6vectorISt4pairINSt7__cxx1112basic_stringIcSt11char_traitsIcESaIcEEES6_ESaIS7_EE12_M_check_lenEmPKc.exit
  %mul.i.i.i = shl nuw nsw i64 %cond.i, 6
  %call5.i.i.i = tail call noalias noundef nonnull ptr @_Znwm(i64 noundef %mul.i.i.i) #29
  br label %_ZNSt12_Vector_baseISt4pairINSt7__cxx1112basic_stringIcSt11char_traitsIcESaIcEEES6_ESaIS7_EE11_M_allocateEm.exit

_ZNSt12_Vector_baseISt4pairINSt7__cxx1112basic_stringIcSt11char_traitsIcESaIcEEES6_ESaIS7_EE11_M_allocateEm.exit: ; preds = %_ZNKSt6vectorISt4pairINSt7__cxx1112basic_stringIcSt11char_traitsIcESaIcEEES6_ESaIS7_EE12_M_check_lenEmPKc.exit, %_ZNSt16allocator_traitsISaISt4pairINSt7__cxx1112basic_stringIcSt11char_traitsIcESaIcEEES6_EEE8allocateERS8_m.exit.i
  %cond.i17 = phi ptr [ %call5.i.i.i, %_ZNSt16allocator_traitsISaISt4pairINSt7__cxx1112basic_stringIcSt11char_traitsIcESaIcEEES6_EEE8allocateERS8_m.exit.i ], [ null, %_ZNKSt6vectorISt4pairINSt7__cxx1112basic_stringIcSt11char_traitsIcESaIcEEES6_ESaIS7_EE12_M_check_lenEmPKc.exit ]
  %add.ptr = getelementptr inbounds %"struct.std::pair", ptr %cond.i17, i64 %sub.ptr.div.i
  invoke void @_ZNSt4pairINSt7__cxx1112basic_stringIcSt11char_traitsIcESaIcEEES5_EC2IRSt17basic_string_viewIcS3_ERA1_KcTnNSt9enable_ifIXaaclsr5_PCCPE22_MoveConstructiblePairIT_T0_EEntclsr5_PCCPE30_ImplicitlyMoveConvertiblePairISF_SG_EEEbE4typeELb0EEEOSF_OSG_(ptr noundef nonnull align 8 dereferenceable(64) %add.ptr, ptr noundef nonnull align 8 dereferenceable(16) %__args, ptr noundef nonnull align 1 dereferenceable(1) %__args1)
          to label %invoke.cont unwind label %lpad

invoke.cont:                                      ; preds = %_ZNSt12_Vector_baseISt4pairINSt7__cxx1112basic_stringIcSt11char_traitsIcESaIcEEES6_ESaIS7_EE11_M_allocateEm.exit
  %cmp.not5.i.i.i = icmp eq ptr %1, %__position.coerce
  br i1 %cmp.not5.i.i.i, label %_ZNSt6vectorISt4pairINSt7__cxx1112basic_stringIcSt11char_traitsIcESaIcEEES6_ESaIS7_EE11_S_relocateEPS7_SA_SA_RS8_.exit, label %for.body.i.i.i

for.body.i.i.i:                                   ; preds = %invoke.cont, %for.body.i.i.i
  %__cur.07.i.i.i = phi ptr [ %incdec.ptr1.i.i.i, %for.body.i.i.i ], [ %cond.i17, %invoke.cont ]
  %__first.addr.06.i.i.i = phi ptr [ %incdec.ptr.i.i.i, %for.body.i.i.i ], [ %1, %invoke.cont ]
  tail call void @_ZNSt7__cxx1112basic_stringIcSt11char_traitsIcESaIcEEC1EOS4_(ptr noundef nonnull align 8 dereferenceable(32) %__cur.07.i.i.i, ptr noundef nonnull align 8 dereferenceable(32) %__first.addr.06.i.i.i) #25
  %second.i.i.i.i.i.i.i = getelementptr inbounds %"struct.std::pair", ptr %__cur.07.i.i.i, i64 0, i32 1
  %second3.i.i.i.i.i.i.i = getelementptr inbounds %"struct.std::pair", ptr %__first.addr.06.i.i.i, i64 0, i32 1
  tail call void @_ZNSt7__cxx1112basic_stringIcSt11char_traitsIcESaIcEEC1EOS4_(ptr noundef nonnull align 8 dereferenceable(32) %second.i.i.i.i.i.i.i, ptr noundef nonnull align 8 dereferenceable(32) %second3.i.i.i.i.i.i.i) #25
  tail call void @_ZNSt7__cxx1112basic_stringIcSt11char_traitsIcESaIcEED1Ev(ptr noundef nonnull align 8 dereferenceable(32) %second3.i.i.i.i.i.i.i) #25
  tail call void @_ZNSt7__cxx1112basic_stringIcSt11char_traitsIcESaIcEED1Ev(ptr noundef nonnull align 8 dereferenceable(32) %__first.addr.06.i.i.i) #25
  %incdec.ptr.i.i.i = getelementptr inbounds %"struct.std::pair", ptr %__first.addr.06.i.i.i, i64 1
  %incdec.ptr1.i.i.i = getelementptr inbounds %"struct.std::pair", ptr %__cur.07.i.i.i, i64 1
  %cmp.not.i.i.i = icmp eq ptr %incdec.ptr.i.i.i, %__position.coerce
  br i1 %cmp.not.i.i.i, label %_ZNSt6vectorISt4pairINSt7__cxx1112basic_stringIcSt11char_traitsIcESaIcEEES6_ESaIS7_EE11_S_relocateEPS7_SA_SA_RS8_.exit, label %for.body.i.i.i, !llvm.loop !17

_ZNSt6vectorISt4pairINSt7__cxx1112basic_stringIcSt11char_traitsIcESaIcEEES6_ESaIS7_EE11_S_relocateEPS7_SA_SA_RS8_.exit: ; preds = %for.body.i.i.i, %invoke.cont
  %__cur.0.lcssa.i.i.i = phi ptr [ %cond.i17, %invoke.cont ], [ %incdec.ptr1.i.i.i, %for.body.i.i.i ]
  %incdec.ptr = getelementptr inbounds %"struct.std::pair", ptr %__cur.0.lcssa.i.i.i, i64 1
  %cmp.not5.i.i.i18 = icmp eq ptr %0, %__position.coerce
  br i1 %cmp.not5.i.i.i18, label %_ZNSt6vectorISt4pairINSt7__cxx1112basic_stringIcSt11char_traitsIcESaIcEEES6_ESaIS7_EE11_S_relocateEPS7_SA_SA_RS8_.exit28, label %for.body.i.i.i19

for.body.i.i.i19:                                 ; preds = %_ZNSt6vectorISt4pairINSt7__cxx1112basic_stringIcSt11char_traitsIcESaIcEEES6_ESaIS7_EE11_S_relocateEPS7_SA_SA_RS8_.exit, %for.body.i.i.i19
  %__cur.07.i.i.i20 = phi ptr [ %incdec.ptr1.i.i.i25, %for.body.i.i.i19 ], [ %incdec.ptr, %_ZNSt6vectorISt4pairINSt7__cxx1112basic_stringIcSt11char_traitsIcESaIcEEES6_ESaIS7_EE11_S_relocateEPS7_SA_SA_RS8_.exit ]
  %__first.addr.06.i.i.i21 = phi ptr [ %incdec.ptr.i.i.i24, %for.body.i.i.i19 ], [ %__position.coerce, %_ZNSt6vectorISt4pairINSt7__cxx1112basic_stringIcSt11char_traitsIcESaIcEEES6_ESaIS7_EE11_S_relocateEPS7_SA_SA_RS8_.exit ]
  tail call void @_ZNSt7__cxx1112basic_stringIcSt11char_traitsIcESaIcEEC1EOS4_(ptr noundef nonnull align 8 dereferenceable(32) %__cur.07.i.i.i20, ptr noundef nonnull align 8 dereferenceable(32) %__first.addr.06.i.i.i21) #25
  %second.i.i.i.i.i.i.i22 = getelementptr inbounds %"struct.std::pair", ptr %__cur.07.i.i.i20, i64 0, i32 1
  %second3.i.i.i.i.i.i.i23 = getelementptr inbounds %"struct.std::pair", ptr %__first.addr.06.i.i.i21, i64 0, i32 1
  tail call void @_ZNSt7__cxx1112basic_stringIcSt11char_traitsIcESaIcEEC1EOS4_(ptr noundef nonnull align 8 dereferenceable(32) %second.i.i.i.i.i.i.i22, ptr noundef nonnull align 8 dereferenceable(32) %second3.i.i.i.i.i.i.i23) #25
  tail call void @_ZNSt7__cxx1112basic_stringIcSt11char_traitsIcESaIcEED1Ev(ptr noundef nonnull align 8 dereferenceable(32) %second3.i.i.i.i.i.i.i23) #25
  tail call void @_ZNSt7__cxx1112basic_stringIcSt11char_traitsIcESaIcEED1Ev(ptr noundef nonnull align 8 dereferenceable(32) %__first.addr.06.i.i.i21) #25
  %incdec.ptr.i.i.i24 = getelementptr inbounds %"struct.std::pair", ptr %__first.addr.06.i.i.i21, i64 1
  %incdec.ptr1.i.i.i25 = getelementptr inbounds %"struct.std::pair", ptr %__cur.07.i.i.i20, i64 1
  %cmp.not.i.i.i26 = icmp eq ptr %incdec.ptr.i.i.i24, %0
  br i1 %cmp.not.i.i.i26, label %_ZNSt6vectorISt4pairINSt7__cxx1112basic_stringIcSt11char_traitsIcESaIcEEES6_ESaIS7_EE11_S_relocateEPS7_SA_SA_RS8_.exit28, label %for.body.i.i.i19, !llvm.loop !17

_ZNSt6vectorISt4pairINSt7__cxx1112basic_stringIcSt11char_traitsIcESaIcEEES6_ESaIS7_EE11_S_relocateEPS7_SA_SA_RS8_.exit28: ; preds = %for.body.i.i.i19, %_ZNSt6vectorISt4pairINSt7__cxx1112basic_stringIcSt11char_traitsIcESaIcEEES6_ESaIS7_EE11_S_relocateEPS7_SA_SA_RS8_.exit
  %__cur.0.lcssa.i.i.i27 = phi ptr [ %incdec.ptr, %_ZNSt6vectorISt4pairINSt7__cxx1112basic_stringIcSt11char_traitsIcESaIcEEES6_ESaIS7_EE11_S_relocateEPS7_SA_SA_RS8_.exit ], [ %incdec.ptr1.i.i.i25, %for.body.i.i.i19 ]
  %tobool.not.i = icmp eq ptr %1, null
  br i1 %tobool.not.i, label %_ZNSt12_Vector_baseISt4pairINSt7__cxx1112basic_stringIcSt11char_traitsIcESaIcEEES6_ESaIS7_EE13_M_deallocateEPS7_m.exit, label %if.then.i29

if.then.i29:                                      ; preds = %_ZNSt6vectorISt4pairINSt7__cxx1112basic_stringIcSt11char_traitsIcESaIcEEES6_ESaIS7_EE11_S_relocateEPS7_SA_SA_RS8_.exit28
  tail call void @_ZdlPv(ptr noundef nonnull %1) #26
  br label %_ZNSt12_Vector_baseISt4pairINSt7__cxx1112basic_stringIcSt11char_traitsIcESaIcEEES6_ESaIS7_EE13_M_deallocateEPS7_m.exit

_ZNSt12_Vector_baseISt4pairINSt7__cxx1112basic_stringIcSt11char_traitsIcESaIcEEES6_ESaIS7_EE13_M_deallocateEPS7_m.exit: ; preds = %_ZNSt6vectorISt4pairINSt7__cxx1112basic_stringIcSt11char_traitsIcESaIcEEES6_ESaIS7_EE11_S_relocateEPS7_SA_SA_RS8_.exit28, %if.then.i29
  %_M_end_of_storage = getelementptr inbounds %"struct.std::_Vector_base<std::pair<std::__cxx11::basic_string<char>, std::__cxx11::basic_string<char>>, std::allocator<std::pair<std::__cxx11::basic_string<char>, std::__cxx11::basic_string<char>>>>::_Vector_impl_data", ptr %this, i64 0, i32 2
  store ptr %cond.i17, ptr %this, align 8
  store ptr %__cur.0.lcssa.i.i.i27, ptr %_M_finish.i.i, align 8
  %add.ptr28 = getelementptr inbounds %"struct.std::pair", ptr %cond.i17, i64 %cond.i
  store ptr %add.ptr28, ptr %_M_end_of_storage, align 8
  ret void

lpad:                                             ; preds = %_ZNSt12_Vector_baseISt4pairINSt7__cxx1112basic_stringIcSt11char_traitsIcESaIcEEES6_ESaIS7_EE11_M_allocateEm.exit
  %2 = landingpad { ptr, i32 }
          catch ptr null
  %3 = extractvalue { ptr, i32 } %2, 0
  %4 = tail call ptr @__cxa_begin_catch(ptr %3) #25
  %tobool.not = icmp eq ptr %cond.i17, null
  br i1 %tobool.not, label %if.end.thread, label %if.then.i31

if.end.thread:                                    ; preds = %lpad
  %second.i.i.i = getelementptr inbounds %"struct.std::pair", ptr null, i64 %sub.ptr.div.i, i32 1
  tail call void @_ZNSt7__cxx1112basic_stringIcSt11char_traitsIcESaIcEED1Ev(ptr noundef nonnull align 8 dereferenceable(32) %second.i.i.i) #25
  tail call void @_ZNSt7__cxx1112basic_stringIcSt11char_traitsIcESaIcEED1Ev(ptr noundef nonnull align 8 dereferenceable(32) %add.ptr) #25
  br label %invoke.cont21

lpad19:                                           ; preds = %invoke.cont21
  %5 = landingpad { ptr, i32 }
          cleanup
  invoke void @__cxa_end_catch()
          to label %eh.resume unwind label %terminate.lpad

if.then.i31:                                      ; preds = %lpad
  tail call void @_ZdlPv(ptr noundef nonnull %cond.i17) #26
  br label %invoke.cont21

invoke.cont21:                                    ; preds = %if.then.i31, %if.end.thread
  invoke void @__cxa_rethrow() #28
          to label %unreachable unwind label %lpad19

eh.resume:                                        ; preds = %lpad19
  resume { ptr, i32 } %5

terminate.lpad:                                   ; preds = %lpad19
  %6 = landingpad { ptr, i32 }
          catch ptr null
  %7 = extractvalue { ptr, i32 } %6, 0
  tail call void @__clang_call_terminate(ptr %7) #24
  unreachable

unreachable:                                      ; preds = %invoke.cont21
  unreachable
}

; Function Attrs: mustprogress uwtable
define linkonce_odr hidden void @_ZNSt4pairINSt7__cxx1112basic_stringIcSt11char_traitsIcESaIcEEES5_EC2IRSt17basic_string_viewIcS3_ERA1_KcTnNSt9enable_ifIXaaclsr5_PCCPE22_MoveConstructiblePairIT_T0_EEntclsr5_PCCPE30_ImplicitlyMoveConvertiblePairISF_SG_EEEbE4typeELb0EEEOSF_OSG_(ptr noundef nonnull align 8 dereferenceable(64) %this, ptr noundef nonnull align 8 dereferenceable(16) %__x, ptr noundef nonnull align 1 dereferenceable(1) %__y) unnamed_addr #6 comdat align 2 personality ptr @__gxx_personality_v0 {
entry:
  %agg.tmp.i = alloca %"struct.std::__cxx11::basic_string<char>::__sv_wrapper", align 8
  %ref.tmp = alloca %"class.std::allocator.0", align 1
  %ref.tmp2 = alloca %"class.std::allocator.0", align 1
  call void @_ZNSaIcEC1Ev(ptr noundef nonnull align 1 dereferenceable(1) %ref.tmp) #25
  call void @llvm.lifetime.start.p0(i64 16, ptr nonnull %agg.tmp.i)
  %agg.tmp3.sroa.0.0.copyload.i = load i64, ptr %__x, align 8
  %agg.tmp3.sroa.2.0..sroa_idx.i = getelementptr inbounds i8, ptr %__x, i64 8
  %agg.tmp3.sroa.2.0.copyload.i = load ptr, ptr %agg.tmp3.sroa.2.0..sroa_idx.i, align 8
  %call.i = call { i64, ptr } @_ZNSt7__cxx1112basic_stringIcSt11char_traitsIcESaIcEE17_S_to_string_viewESt17basic_string_viewIcS2_E(i64 %agg.tmp3.sroa.0.0.copyload.i, ptr %agg.tmp3.sroa.2.0.copyload.i) #25
  %0 = extractvalue { i64, ptr } %call.i, 0
  %1 = extractvalue { i64, ptr } %call.i, 1
  call void @_ZNSt7__cxx1112basic_stringIcSt11char_traitsIcESaIcEE12__sv_wrapperC1ESt17basic_string_viewIcS2_E(ptr noundef nonnull align 8 dereferenceable(16) %agg.tmp.i, i64 %0, ptr %1) #25
  %2 = load i64, ptr %agg.tmp.i, align 8
  %3 = getelementptr inbounds { i64, ptr }, ptr %agg.tmp.i, i64 0, i32 1
  %4 = load ptr, ptr %3, align 8
  invoke void @_ZNSt7__cxx1112basic_stringIcSt11char_traitsIcESaIcEEC2ENS4_12__sv_wrapperERKS3_(ptr noundef nonnull align 8 dereferenceable(32) %this, i64 %2, ptr %4, ptr noundef nonnull align 1 dereferenceable(1) %ref.tmp)
          to label %invoke.cont unwind label %lpad

invoke.cont:                                      ; preds = %entry
  call void @llvm.lifetime.end.p0(i64 16, ptr nonnull %agg.tmp.i)
  call void @_ZNSaIcED1Ev(ptr noundef nonnull align 1 dereferenceable(1) %ref.tmp) #25
  %second = getelementptr inbounds %"struct.std::pair", ptr %this, i64 0, i32 1
  call void @_ZNSaIcEC1Ev(ptr noundef nonnull align 1 dereferenceable(1) %ref.tmp2) #25
  %call.i23 = invoke noundef ptr @_ZNSt7__cxx1112basic_stringIcSt11char_traitsIcESaIcEE13_M_local_dataEv(ptr noundef nonnull align 8 dereferenceable(32) %second)
          to label %call.i2.noexc unwind label %lpad3

call.i2.noexc:                                    ; preds = %invoke.cont
  invoke void @_ZNSt7__cxx1112basic_stringIcSt11char_traitsIcESaIcEE12_Alloc_hiderC1EPcRKS3_(ptr noundef nonnull align 8 dereferenceable(8) %second, ptr noundef %call.i23, ptr noundef nonnull align 1 dereferenceable(1) %ref.tmp2)
          to label %.noexc unwind label %lpad3

.noexc:                                           ; preds = %call.i2.noexc
  %call.i.i = call noundef i64 @strlen(ptr noundef nonnull dereferenceable(1) %__y) #25
  %add.ptr.i = getelementptr inbounds i8, ptr %__y, i64 %call.i.i
  invoke void @_ZNSt7__cxx1112basic_stringIcSt11char_traitsIcESaIcEE12_M_constructIPKcEEvT_S8_St20forward_iterator_tag(ptr noundef nonnull align 8 dereferenceable(32) %second, ptr noundef nonnull %__y, ptr noundef nonnull %add.ptr.i)
          to label %invoke.cont4 unwind label %lpad.i

lpad.i:                                           ; preds = %.noexc
  %5 = landingpad { ptr, i32 }
          cleanup
  call void @_ZNSaIcED2Ev(ptr noundef nonnull align 1 dereferenceable(1) %second) #25
  br label %lpad3.body

invoke.cont4:                                     ; preds = %.noexc
  call void @_ZNSaIcED1Ev(ptr noundef nonnull align 1 dereferenceable(1) %ref.tmp2) #25
  ret void

lpad:                                             ; preds = %entry
  %6 = landingpad { ptr, i32 }
          cleanup
  call void @_ZNSaIcED1Ev(ptr noundef nonnull align 1 dereferenceable(1) %ref.tmp) #25
  br label %eh.resume

lpad3:                                            ; preds = %call.i2.noexc, %invoke.cont
  %7 = landingpad { ptr, i32 }
          cleanup
  br label %lpad3.body

lpad3.body:                                       ; preds = %lpad.i, %lpad3
  %eh.lpad-body = phi { ptr, i32 } [ %7, %lpad3 ], [ %5, %lpad.i ]
  call void @_ZNSaIcED1Ev(ptr noundef nonnull align 1 dereferenceable(1) %ref.tmp2) #25
  call void @_ZNSt7__cxx1112basic_stringIcSt11char_traitsIcESaIcEED1Ev(ptr noundef nonnull align 8 dereferenceable(32) %this) #25
  br label %eh.resume

eh.resume:                                        ; preds = %lpad3.body, %lpad
  %.pn = phi { ptr, i32 } [ %eh.lpad-body, %lpad3.body ], [ %6, %lpad ]
  resume { ptr, i32 } %.pn
}

declare noundef ptr @_ZNSt7__cxx1112basic_stringIcSt11char_traitsIcESaIcEE13_M_local_dataEv(ptr noundef nonnull align 8 dereferenceable(32)) local_unnamed_addr #0

declare void @_ZNSt7__cxx1112basic_stringIcSt11char_traitsIcESaIcEE12_Alloc_hiderC1EPcRKS3_(ptr noundef nonnull align 8 dereferenceable(8), ptr noundef, ptr noundef nonnull align 1 dereferenceable(1)) unnamed_addr #0

; Function Attrs: mustprogress uwtable
define linkonce_odr void @_ZNSt7__cxx1112basic_stringIcSt11char_traitsIcESaIcEE12_M_constructIPKcEEvT_S8_St20forward_iterator_tag(ptr noundef nonnull align 8 dereferenceable(32) %this, ptr noundef %__beg, ptr noundef %__end) local_unnamed_addr #6 comdat align 2 personality ptr @__gxx_personality_v0 {
entry:
  %__dnew = alloca i64, align 8
  %__guard = alloca %struct._Guard, align 8
  %sub.ptr.lhs.cast.i.i = ptrtoint ptr %__end to i64
  %sub.ptr.rhs.cast.i.i = ptrtoint ptr %__beg to i64
  %sub.ptr.sub.i.i = sub i64 %sub.ptr.lhs.cast.i.i, %sub.ptr.rhs.cast.i.i
  store i64 %sub.ptr.sub.i.i, ptr %__dnew, align 8
  %cmp = icmp ugt i64 %sub.ptr.sub.i.i, 15
  br i1 %cmp, label %if.then, label %if.else

if.then:                                          ; preds = %entry
  %call2 = call noundef ptr @_ZNSt7__cxx1112basic_stringIcSt11char_traitsIcESaIcEE9_M_createERmm(ptr noundef nonnull align 8 dereferenceable(32) %this, ptr noundef nonnull align 8 dereferenceable(8) %__dnew, i64 noundef 0)
  call void @_ZNSt7__cxx1112basic_stringIcSt11char_traitsIcESaIcEE7_M_dataEPc(ptr noundef nonnull align 8 dereferenceable(32) %this, ptr noundef %call2)
  %0 = load i64, ptr %__dnew, align 8
  call void @_ZNSt7__cxx1112basic_stringIcSt11char_traitsIcESaIcEE11_M_capacityEm(ptr noundef nonnull align 8 dereferenceable(32) %this, i64 noundef %0)
  br label %if.end

if.else:                                          ; preds = %entry
  %call.i = invoke noundef ptr @_ZNSt7__cxx1112basic_stringIcSt11char_traitsIcESaIcEE13_M_local_dataEv(ptr noundef nonnull align 8 dereferenceable(32) %this)
          to label %if.end unwind label %terminate.lpad.i

terminate.lpad.i:                                 ; preds = %if.else
  %1 = landingpad { ptr, i32 }
          catch ptr null
  %2 = extractvalue { ptr, i32 } %1, 0
  tail call void @__clang_call_terminate(ptr %2) #24
  unreachable

if.end:                                           ; preds = %if.else, %if.then
  store ptr %this, ptr %__guard, align 8
  %call4 = invoke noundef ptr @_ZNKSt7__cxx1112basic_stringIcSt11char_traitsIcESaIcEE7_M_dataEv(ptr noundef nonnull align 8 dereferenceable(32) %this)
          to label %invoke.cont unwind label %lpad

invoke.cont:                                      ; preds = %if.end
  call void @_ZNSt7__cxx1112basic_stringIcSt11char_traitsIcESaIcEE13_S_copy_charsEPcPKcS7_(ptr noundef %call4, ptr noundef %__beg, ptr noundef %__end) #25
  store ptr null, ptr %__guard, align 8
  %3 = load i64, ptr %__dnew, align 8
  invoke void @_ZNSt7__cxx1112basic_stringIcSt11char_traitsIcESaIcEE13_M_set_lengthEm(ptr noundef nonnull align 8 dereferenceable(32) %this, i64 noundef %3)
          to label %_ZZNSt7__cxx1112basic_stringIcSt11char_traitsIcESaIcEE12_M_constructIPKcEEvT_S8_St20forward_iterator_tagEN6_GuardD2Ev.exit unwind label %lpad

_ZZNSt7__cxx1112basic_stringIcSt11char_traitsIcESaIcEE12_M_constructIPKcEEvT_S8_St20forward_iterator_tagEN6_GuardD2Ev.exit: ; preds = %invoke.cont
  ret void

lpad:                                             ; preds = %invoke.cont, %if.end
  %4 = landingpad { ptr, i32 }
          cleanup
  call void @_ZZNSt7__cxx1112basic_stringIcSt11char_traitsIcESaIcEE12_M_constructIPKcEEvT_S8_St20forward_iterator_tagEN6_GuardD2Ev(ptr noundef nonnull align 8 dereferenceable(8) %__guard) #25
  resume { ptr, i32 } %4
}

declare void @_ZNSt7__cxx1112basic_stringIcSt11char_traitsIcESaIcEE7_M_dataEPc(ptr noundef nonnull align 8 dereferenceable(32), ptr noundef) local_unnamed_addr #0

declare noundef ptr @_ZNSt7__cxx1112basic_stringIcSt11char_traitsIcESaIcEE9_M_createERmm(ptr noundef nonnull align 8 dereferenceable(32), ptr noundef nonnull align 8 dereferenceable(8), i64 noundef) local_unnamed_addr #0

declare void @_ZNSt7__cxx1112basic_stringIcSt11char_traitsIcESaIcEE11_M_capacityEm(ptr noundef nonnull align 8 dereferenceable(32), i64 noundef) local_unnamed_addr #0

; Function Attrs: nounwind
declare void @_ZNSt7__cxx1112basic_stringIcSt11char_traitsIcESaIcEE13_S_copy_charsEPcPKcS7_(ptr noundef, ptr noundef, ptr noundef) local_unnamed_addr #1

declare noundef ptr @_ZNKSt7__cxx1112basic_stringIcSt11char_traitsIcESaIcEE7_M_dataEv(ptr noundef nonnull align 8 dereferenceable(32)) local_unnamed_addr #0

declare void @_ZNSt7__cxx1112basic_stringIcSt11char_traitsIcESaIcEE13_M_set_lengthEm(ptr noundef nonnull align 8 dereferenceable(32), i64 noundef) local_unnamed_addr #0

; Function Attrs: mustprogress nounwind uwtable
define linkonce_odr hidden void @_ZZNSt7__cxx1112basic_stringIcSt11char_traitsIcESaIcEE12_M_constructIPKcEEvT_S8_St20forward_iterator_tagEN6_GuardD2Ev(ptr noundef nonnull align 8 dereferenceable(8) %this) unnamed_addr #12 comdat align 2 personality ptr @__gxx_personality_v0 {
entry:
  %0 = load ptr, ptr %this, align 8
  %tobool.not = icmp eq ptr %0, null
  br i1 %tobool.not, label %if.end, label %if.then

if.then:                                          ; preds = %entry
  invoke void @_ZNSt7__cxx1112basic_stringIcSt11char_traitsIcESaIcEE10_M_disposeEv(ptr noundef nonnull align 8 dereferenceable(32) %0)
          to label %if.end unwind label %terminate.lpad

if.end:                                           ; preds = %if.then, %entry
  ret void

terminate.lpad:                                   ; preds = %if.then
  %1 = landingpad { ptr, i32 }
          catch ptr null
  %2 = extractvalue { ptr, i32 } %1, 0
  tail call void @__clang_call_terminate(ptr %2) #24
  unreachable
}

declare void @_ZNSt7__cxx1112basic_stringIcSt11char_traitsIcESaIcEE10_M_disposeEv(ptr noundef nonnull align 8 dereferenceable(32)) local_unnamed_addr #0

; Function Attrs: nounwind
declare void @_ZNSaIcED2Ev(ptr noundef nonnull align 1 dereferenceable(1)) unnamed_addr #1

; Function Attrs: nounwind
declare void @_ZNSt7__cxx1112basic_stringIcSt11char_traitsIcESaIcEEC1EOS4_(ptr noundef nonnull align 8 dereferenceable(32), ptr noundef nonnull align 8 dereferenceable(32)) unnamed_addr #1

; Function Attrs: mustprogress uwtable
define linkonce_odr void @_ZNSt6vectorISt4pairINSt7__cxx1112basic_stringIcSt11char_traitsIcESaIcEEES6_ESaIS7_EE17_M_realloc_insertIJSt17basic_string_viewIcS4_ESC_EEEvN9__gnu_cxx17__normal_iteratorIPS7_S9_EEDpOT_(ptr noundef nonnull align 8 dereferenceable(24) %this, ptr %__position.coerce, ptr noundef nonnull align 8 dereferenceable(16) %__args, ptr noundef nonnull align 8 dereferenceable(16) %__args1) local_unnamed_addr #6 comdat align 2 personality ptr @__gxx_personality_v0 {
entry:
  %_M_finish.i.i = getelementptr inbounds %"struct.std::_Vector_base<std::pair<std::__cxx11::basic_string<char>, std::__cxx11::basic_string<char>>, std::allocator<std::pair<std::__cxx11::basic_string<char>, std::__cxx11::basic_string<char>>>>::_Vector_impl_data", ptr %this, i64 0, i32 1
  %0 = load ptr, ptr %_M_finish.i.i, align 8
  %1 = load ptr, ptr %this, align 8
  %sub.ptr.lhs.cast.i.i = ptrtoint ptr %0 to i64
  %sub.ptr.rhs.cast.i.i = ptrtoint ptr %1 to i64
  %sub.ptr.sub.i.i = sub i64 %sub.ptr.lhs.cast.i.i, %sub.ptr.rhs.cast.i.i
  %cmp.i = icmp eq i64 %sub.ptr.sub.i.i, 9223372036854775744
  br i1 %cmp.i, label %if.then.i, label %_ZNKSt6vectorISt4pairINSt7__cxx1112basic_stringIcSt11char_traitsIcESaIcEEES6_ESaIS7_EE12_M_check_lenEmPKc.exit

if.then.i:                                        ; preds = %entry
  tail call void @_ZSt20__throw_length_errorPKc(ptr noundef nonnull @.str.14) #28
  unreachable

_ZNKSt6vectorISt4pairINSt7__cxx1112basic_stringIcSt11char_traitsIcESaIcEEES6_ESaIS7_EE12_M_check_lenEmPKc.exit: ; preds = %entry
  %sub.ptr.div.i.i = ashr exact i64 %sub.ptr.sub.i.i, 6
  %.sroa.speculated.i = tail call i64 @llvm.umax.i64(i64 %sub.ptr.div.i.i, i64 1)
  %add.i = add i64 %.sroa.speculated.i, %sub.ptr.div.i.i
  %cmp7.i = icmp ult i64 %add.i, %sub.ptr.div.i.i
  %cmp9.i = icmp ugt i64 %add.i, 144115188075855871
  %or.cond.i = or i1 %cmp7.i, %cmp9.i
  %cond.i = select i1 %or.cond.i, i64 144115188075855871, i64 %add.i
  %sub.ptr.lhs.cast.i = ptrtoint ptr %__position.coerce to i64
  %sub.ptr.sub.i = sub i64 %sub.ptr.lhs.cast.i, %sub.ptr.rhs.cast.i.i
  %sub.ptr.div.i = ashr exact i64 %sub.ptr.sub.i, 6
  %cmp.not.i = icmp eq i64 %cond.i, 0
  br i1 %cmp.not.i, label %_ZNSt12_Vector_baseISt4pairINSt7__cxx1112basic_stringIcSt11char_traitsIcESaIcEEES6_ESaIS7_EE11_M_allocateEm.exit, label %_ZNSt16allocator_traitsISaISt4pairINSt7__cxx1112basic_stringIcSt11char_traitsIcESaIcEEES6_EEE8allocateERS8_m.exit.i

_ZNSt16allocator_traitsISaISt4pairINSt7__cxx1112basic_stringIcSt11char_traitsIcESaIcEEES6_EEE8allocateERS8_m.exit.i: ; preds = %_ZNKSt6vectorISt4pairINSt7__cxx1112basic_stringIcSt11char_traitsIcESaIcEEES6_ESaIS7_EE12_M_check_lenEmPKc.exit
  %mul.i.i.i = shl nuw nsw i64 %cond.i, 6
  %call5.i.i.i = tail call noalias noundef nonnull ptr @_Znwm(i64 noundef %mul.i.i.i) #29
  br label %_ZNSt12_Vector_baseISt4pairINSt7__cxx1112basic_stringIcSt11char_traitsIcESaIcEEES6_ESaIS7_EE11_M_allocateEm.exit

_ZNSt12_Vector_baseISt4pairINSt7__cxx1112basic_stringIcSt11char_traitsIcESaIcEEES6_ESaIS7_EE11_M_allocateEm.exit: ; preds = %_ZNKSt6vectorISt4pairINSt7__cxx1112basic_stringIcSt11char_traitsIcESaIcEEES6_ESaIS7_EE12_M_check_lenEmPKc.exit, %_ZNSt16allocator_traitsISaISt4pairINSt7__cxx1112basic_stringIcSt11char_traitsIcESaIcEEES6_EEE8allocateERS8_m.exit.i
  %cond.i17 = phi ptr [ %call5.i.i.i, %_ZNSt16allocator_traitsISaISt4pairINSt7__cxx1112basic_stringIcSt11char_traitsIcESaIcEEES6_EEE8allocateERS8_m.exit.i ], [ null, %_ZNKSt6vectorISt4pairINSt7__cxx1112basic_stringIcSt11char_traitsIcESaIcEEES6_ESaIS7_EE12_M_check_lenEmPKc.exit ]
  %add.ptr = getelementptr inbounds %"struct.std::pair", ptr %cond.i17, i64 %sub.ptr.div.i
  invoke void @_ZNSt4pairINSt7__cxx1112basic_stringIcSt11char_traitsIcESaIcEEES5_EC2ISt17basic_string_viewIcS3_ES9_TnNSt9enable_ifIXaaclsr5_PCCPE22_MoveConstructiblePairIT_T0_EEntclsr5_PCCPE30_ImplicitlyMoveConvertiblePairISB_SC_EEEbE4typeELb0EEEOSB_OSC_(ptr noundef nonnull align 8 dereferenceable(64) %add.ptr, ptr noundef nonnull align 8 dereferenceable(16) %__args, ptr noundef nonnull align 8 dereferenceable(16) %__args1)
          to label %invoke.cont unwind label %lpad

invoke.cont:                                      ; preds = %_ZNSt12_Vector_baseISt4pairINSt7__cxx1112basic_stringIcSt11char_traitsIcESaIcEEES6_ESaIS7_EE11_M_allocateEm.exit
  %cmp.not5.i.i.i = icmp eq ptr %1, %__position.coerce
  br i1 %cmp.not5.i.i.i, label %_ZNSt6vectorISt4pairINSt7__cxx1112basic_stringIcSt11char_traitsIcESaIcEEES6_ESaIS7_EE11_S_relocateEPS7_SA_SA_RS8_.exit, label %for.body.i.i.i

for.body.i.i.i:                                   ; preds = %invoke.cont, %for.body.i.i.i
  %__cur.07.i.i.i = phi ptr [ %incdec.ptr1.i.i.i, %for.body.i.i.i ], [ %cond.i17, %invoke.cont ]
  %__first.addr.06.i.i.i = phi ptr [ %incdec.ptr.i.i.i, %for.body.i.i.i ], [ %1, %invoke.cont ]
  tail call void @_ZNSt7__cxx1112basic_stringIcSt11char_traitsIcESaIcEEC1EOS4_(ptr noundef nonnull align 8 dereferenceable(32) %__cur.07.i.i.i, ptr noundef nonnull align 8 dereferenceable(32) %__first.addr.06.i.i.i) #25
  %second.i.i.i.i.i.i.i = getelementptr inbounds %"struct.std::pair", ptr %__cur.07.i.i.i, i64 0, i32 1
  %second3.i.i.i.i.i.i.i = getelementptr inbounds %"struct.std::pair", ptr %__first.addr.06.i.i.i, i64 0, i32 1
  tail call void @_ZNSt7__cxx1112basic_stringIcSt11char_traitsIcESaIcEEC1EOS4_(ptr noundef nonnull align 8 dereferenceable(32) %second.i.i.i.i.i.i.i, ptr noundef nonnull align 8 dereferenceable(32) %second3.i.i.i.i.i.i.i) #25
  tail call void @_ZNSt7__cxx1112basic_stringIcSt11char_traitsIcESaIcEED1Ev(ptr noundef nonnull align 8 dereferenceable(32) %second3.i.i.i.i.i.i.i) #25
  tail call void @_ZNSt7__cxx1112basic_stringIcSt11char_traitsIcESaIcEED1Ev(ptr noundef nonnull align 8 dereferenceable(32) %__first.addr.06.i.i.i) #25
  %incdec.ptr.i.i.i = getelementptr inbounds %"struct.std::pair", ptr %__first.addr.06.i.i.i, i64 1
  %incdec.ptr1.i.i.i = getelementptr inbounds %"struct.std::pair", ptr %__cur.07.i.i.i, i64 1
  %cmp.not.i.i.i = icmp eq ptr %incdec.ptr.i.i.i, %__position.coerce
  br i1 %cmp.not.i.i.i, label %_ZNSt6vectorISt4pairINSt7__cxx1112basic_stringIcSt11char_traitsIcESaIcEEES6_ESaIS7_EE11_S_relocateEPS7_SA_SA_RS8_.exit, label %for.body.i.i.i, !llvm.loop !17

_ZNSt6vectorISt4pairINSt7__cxx1112basic_stringIcSt11char_traitsIcESaIcEEES6_ESaIS7_EE11_S_relocateEPS7_SA_SA_RS8_.exit: ; preds = %for.body.i.i.i, %invoke.cont
  %__cur.0.lcssa.i.i.i = phi ptr [ %cond.i17, %invoke.cont ], [ %incdec.ptr1.i.i.i, %for.body.i.i.i ]
  %incdec.ptr = getelementptr inbounds %"struct.std::pair", ptr %__cur.0.lcssa.i.i.i, i64 1
  %cmp.not5.i.i.i18 = icmp eq ptr %0, %__position.coerce
  br i1 %cmp.not5.i.i.i18, label %_ZNSt6vectorISt4pairINSt7__cxx1112basic_stringIcSt11char_traitsIcESaIcEEES6_ESaIS7_EE11_S_relocateEPS7_SA_SA_RS8_.exit28, label %for.body.i.i.i19

for.body.i.i.i19:                                 ; preds = %_ZNSt6vectorISt4pairINSt7__cxx1112basic_stringIcSt11char_traitsIcESaIcEEES6_ESaIS7_EE11_S_relocateEPS7_SA_SA_RS8_.exit, %for.body.i.i.i19
  %__cur.07.i.i.i20 = phi ptr [ %incdec.ptr1.i.i.i25, %for.body.i.i.i19 ], [ %incdec.ptr, %_ZNSt6vectorISt4pairINSt7__cxx1112basic_stringIcSt11char_traitsIcESaIcEEES6_ESaIS7_EE11_S_relocateEPS7_SA_SA_RS8_.exit ]
  %__first.addr.06.i.i.i21 = phi ptr [ %incdec.ptr.i.i.i24, %for.body.i.i.i19 ], [ %__position.coerce, %_ZNSt6vectorISt4pairINSt7__cxx1112basic_stringIcSt11char_traitsIcESaIcEEES6_ESaIS7_EE11_S_relocateEPS7_SA_SA_RS8_.exit ]
  tail call void @_ZNSt7__cxx1112basic_stringIcSt11char_traitsIcESaIcEEC1EOS4_(ptr noundef nonnull align 8 dereferenceable(32) %__cur.07.i.i.i20, ptr noundef nonnull align 8 dereferenceable(32) %__first.addr.06.i.i.i21) #25
  %second.i.i.i.i.i.i.i22 = getelementptr inbounds %"struct.std::pair", ptr %__cur.07.i.i.i20, i64 0, i32 1
  %second3.i.i.i.i.i.i.i23 = getelementptr inbounds %"struct.std::pair", ptr %__first.addr.06.i.i.i21, i64 0, i32 1
  tail call void @_ZNSt7__cxx1112basic_stringIcSt11char_traitsIcESaIcEEC1EOS4_(ptr noundef nonnull align 8 dereferenceable(32) %second.i.i.i.i.i.i.i22, ptr noundef nonnull align 8 dereferenceable(32) %second3.i.i.i.i.i.i.i23) #25
  tail call void @_ZNSt7__cxx1112basic_stringIcSt11char_traitsIcESaIcEED1Ev(ptr noundef nonnull align 8 dereferenceable(32) %second3.i.i.i.i.i.i.i23) #25
  tail call void @_ZNSt7__cxx1112basic_stringIcSt11char_traitsIcESaIcEED1Ev(ptr noundef nonnull align 8 dereferenceable(32) %__first.addr.06.i.i.i21) #25
  %incdec.ptr.i.i.i24 = getelementptr inbounds %"struct.std::pair", ptr %__first.addr.06.i.i.i21, i64 1
  %incdec.ptr1.i.i.i25 = getelementptr inbounds %"struct.std::pair", ptr %__cur.07.i.i.i20, i64 1
  %cmp.not.i.i.i26 = icmp eq ptr %incdec.ptr.i.i.i24, %0
  br i1 %cmp.not.i.i.i26, label %_ZNSt6vectorISt4pairINSt7__cxx1112basic_stringIcSt11char_traitsIcESaIcEEES6_ESaIS7_EE11_S_relocateEPS7_SA_SA_RS8_.exit28, label %for.body.i.i.i19, !llvm.loop !17

_ZNSt6vectorISt4pairINSt7__cxx1112basic_stringIcSt11char_traitsIcESaIcEEES6_ESaIS7_EE11_S_relocateEPS7_SA_SA_RS8_.exit28: ; preds = %for.body.i.i.i19, %_ZNSt6vectorISt4pairINSt7__cxx1112basic_stringIcSt11char_traitsIcESaIcEEES6_ESaIS7_EE11_S_relocateEPS7_SA_SA_RS8_.exit
  %__cur.0.lcssa.i.i.i27 = phi ptr [ %incdec.ptr, %_ZNSt6vectorISt4pairINSt7__cxx1112basic_stringIcSt11char_traitsIcESaIcEEES6_ESaIS7_EE11_S_relocateEPS7_SA_SA_RS8_.exit ], [ %incdec.ptr1.i.i.i25, %for.body.i.i.i19 ]
  %tobool.not.i = icmp eq ptr %1, null
  br i1 %tobool.not.i, label %_ZNSt12_Vector_baseISt4pairINSt7__cxx1112basic_stringIcSt11char_traitsIcESaIcEEES6_ESaIS7_EE13_M_deallocateEPS7_m.exit, label %if.then.i29

if.then.i29:                                      ; preds = %_ZNSt6vectorISt4pairINSt7__cxx1112basic_stringIcSt11char_traitsIcESaIcEEES6_ESaIS7_EE11_S_relocateEPS7_SA_SA_RS8_.exit28
  tail call void @_ZdlPv(ptr noundef nonnull %1) #26
  br label %_ZNSt12_Vector_baseISt4pairINSt7__cxx1112basic_stringIcSt11char_traitsIcESaIcEEES6_ESaIS7_EE13_M_deallocateEPS7_m.exit

_ZNSt12_Vector_baseISt4pairINSt7__cxx1112basic_stringIcSt11char_traitsIcESaIcEEES6_ESaIS7_EE13_M_deallocateEPS7_m.exit: ; preds = %_ZNSt6vectorISt4pairINSt7__cxx1112basic_stringIcSt11char_traitsIcESaIcEEES6_ESaIS7_EE11_S_relocateEPS7_SA_SA_RS8_.exit28, %if.then.i29
  %_M_end_of_storage = getelementptr inbounds %"struct.std::_Vector_base<std::pair<std::__cxx11::basic_string<char>, std::__cxx11::basic_string<char>>, std::allocator<std::pair<std::__cxx11::basic_string<char>, std::__cxx11::basic_string<char>>>>::_Vector_impl_data", ptr %this, i64 0, i32 2
  store ptr %cond.i17, ptr %this, align 8
  store ptr %__cur.0.lcssa.i.i.i27, ptr %_M_finish.i.i, align 8
  %add.ptr28 = getelementptr inbounds %"struct.std::pair", ptr %cond.i17, i64 %cond.i
  store ptr %add.ptr28, ptr %_M_end_of_storage, align 8
  ret void

lpad:                                             ; preds = %_ZNSt12_Vector_baseISt4pairINSt7__cxx1112basic_stringIcSt11char_traitsIcESaIcEEES6_ESaIS7_EE11_M_allocateEm.exit
  %2 = landingpad { ptr, i32 }
          catch ptr null
  %3 = extractvalue { ptr, i32 } %2, 0
  %4 = tail call ptr @__cxa_begin_catch(ptr %3) #25
  %tobool.not = icmp eq ptr %cond.i17, null
  br i1 %tobool.not, label %if.end.thread, label %if.then.i31

if.end.thread:                                    ; preds = %lpad
  %second.i.i.i = getelementptr inbounds %"struct.std::pair", ptr null, i64 %sub.ptr.div.i, i32 1
  tail call void @_ZNSt7__cxx1112basic_stringIcSt11char_traitsIcESaIcEED1Ev(ptr noundef nonnull align 8 dereferenceable(32) %second.i.i.i) #25
  tail call void @_ZNSt7__cxx1112basic_stringIcSt11char_traitsIcESaIcEED1Ev(ptr noundef nonnull align 8 dereferenceable(32) %add.ptr) #25
  br label %invoke.cont21

lpad19:                                           ; preds = %invoke.cont21
  %5 = landingpad { ptr, i32 }
          cleanup
  invoke void @__cxa_end_catch()
          to label %eh.resume unwind label %terminate.lpad

if.then.i31:                                      ; preds = %lpad
  tail call void @_ZdlPv(ptr noundef nonnull %cond.i17) #26
  br label %invoke.cont21

invoke.cont21:                                    ; preds = %if.then.i31, %if.end.thread
  invoke void @__cxa_rethrow() #28
          to label %unreachable unwind label %lpad19

eh.resume:                                        ; preds = %lpad19
  resume { ptr, i32 } %5

terminate.lpad:                                   ; preds = %lpad19
  %6 = landingpad { ptr, i32 }
          catch ptr null
  %7 = extractvalue { ptr, i32 } %6, 0
  tail call void @__clang_call_terminate(ptr %7) #24
  unreachable

unreachable:                                      ; preds = %invoke.cont21
  unreachable
}

; Function Attrs: mustprogress uwtable
define linkonce_odr hidden void @_ZNSt4pairINSt7__cxx1112basic_stringIcSt11char_traitsIcESaIcEEES5_EC2ISt17basic_string_viewIcS3_ES9_TnNSt9enable_ifIXaaclsr5_PCCPE22_MoveConstructiblePairIT_T0_EEntclsr5_PCCPE30_ImplicitlyMoveConvertiblePairISB_SC_EEEbE4typeELb0EEEOSB_OSC_(ptr noundef nonnull align 8 dereferenceable(64) %this, ptr noundef nonnull align 8 dereferenceable(16) %__x, ptr noundef nonnull align 8 dereferenceable(16) %__y) unnamed_addr #6 comdat align 2 personality ptr @__gxx_personality_v0 {
entry:
  %agg.tmp.i2 = alloca %"struct.std::__cxx11::basic_string<char>::__sv_wrapper", align 8
  %agg.tmp.i = alloca %"struct.std::__cxx11::basic_string<char>::__sv_wrapper", align 8
  %ref.tmp = alloca %"class.std::allocator.0", align 1
  %ref.tmp2 = alloca %"class.std::allocator.0", align 1
  call void @_ZNSaIcEC1Ev(ptr noundef nonnull align 1 dereferenceable(1) %ref.tmp) #25
  call void @llvm.lifetime.start.p0(i64 16, ptr nonnull %agg.tmp.i)
  %agg.tmp3.sroa.0.0.copyload.i = load i64, ptr %__x, align 8
  %agg.tmp3.sroa.2.0..sroa_idx.i = getelementptr inbounds i8, ptr %__x, i64 8
  %agg.tmp3.sroa.2.0.copyload.i = load ptr, ptr %agg.tmp3.sroa.2.0..sroa_idx.i, align 8
  %call.i = call { i64, ptr } @_ZNSt7__cxx1112basic_stringIcSt11char_traitsIcESaIcEE17_S_to_string_viewESt17basic_string_viewIcS2_E(i64 %agg.tmp3.sroa.0.0.copyload.i, ptr %agg.tmp3.sroa.2.0.copyload.i) #25
  %0 = extractvalue { i64, ptr } %call.i, 0
  %1 = extractvalue { i64, ptr } %call.i, 1
  call void @_ZNSt7__cxx1112basic_stringIcSt11char_traitsIcESaIcEE12__sv_wrapperC1ESt17basic_string_viewIcS2_E(ptr noundef nonnull align 8 dereferenceable(16) %agg.tmp.i, i64 %0, ptr %1) #25
  %2 = load i64, ptr %agg.tmp.i, align 8
  %3 = getelementptr inbounds { i64, ptr }, ptr %agg.tmp.i, i64 0, i32 1
  %4 = load ptr, ptr %3, align 8
  invoke void @_ZNSt7__cxx1112basic_stringIcSt11char_traitsIcESaIcEEC2ENS4_12__sv_wrapperERKS3_(ptr noundef nonnull align 8 dereferenceable(32) %this, i64 %2, ptr %4, ptr noundef nonnull align 1 dereferenceable(1) %ref.tmp)
          to label %invoke.cont unwind label %lpad

invoke.cont:                                      ; preds = %entry
  call void @llvm.lifetime.end.p0(i64 16, ptr nonnull %agg.tmp.i)
  call void @_ZNSaIcED1Ev(ptr noundef nonnull align 1 dereferenceable(1) %ref.tmp) #25
  %second = getelementptr inbounds %"struct.std::pair", ptr %this, i64 0, i32 1
  call void @_ZNSaIcEC1Ev(ptr noundef nonnull align 1 dereferenceable(1) %ref.tmp2) #25
  call void @llvm.lifetime.start.p0(i64 16, ptr nonnull %agg.tmp.i2)
  %agg.tmp3.sroa.0.0.copyload.i3 = load i64, ptr %__y, align 8
  %agg.tmp3.sroa.2.0..sroa_idx.i4 = getelementptr inbounds i8, ptr %__y, i64 8
  %agg.tmp3.sroa.2.0.copyload.i5 = load ptr, ptr %agg.tmp3.sroa.2.0..sroa_idx.i4, align 8
  %call.i6 = call { i64, ptr } @_ZNSt7__cxx1112basic_stringIcSt11char_traitsIcESaIcEE17_S_to_string_viewESt17basic_string_viewIcS2_E(i64 %agg.tmp3.sroa.0.0.copyload.i3, ptr %agg.tmp3.sroa.2.0.copyload.i5) #25
  %5 = extractvalue { i64, ptr } %call.i6, 0
  %6 = extractvalue { i64, ptr } %call.i6, 1
  call void @_ZNSt7__cxx1112basic_stringIcSt11char_traitsIcESaIcEE12__sv_wrapperC1ESt17basic_string_viewIcS2_E(ptr noundef nonnull align 8 dereferenceable(16) %agg.tmp.i2, i64 %5, ptr %6) #25
  %7 = load i64, ptr %agg.tmp.i2, align 8
  %8 = getelementptr inbounds { i64, ptr }, ptr %agg.tmp.i2, i64 0, i32 1
  %9 = load ptr, ptr %8, align 8
  invoke void @_ZNSt7__cxx1112basic_stringIcSt11char_traitsIcESaIcEEC2ENS4_12__sv_wrapperERKS3_(ptr noundef nonnull align 8 dereferenceable(32) %second, i64 %7, ptr %9, ptr noundef nonnull align 1 dereferenceable(1) %ref.tmp2)
          to label %invoke.cont4 unwind label %lpad3

invoke.cont4:                                     ; preds = %invoke.cont
  call void @llvm.lifetime.end.p0(i64 16, ptr nonnull %agg.tmp.i2)
  call void @_ZNSaIcED1Ev(ptr noundef nonnull align 1 dereferenceable(1) %ref.tmp2) #25
  ret void

lpad:                                             ; preds = %entry
  %10 = landingpad { ptr, i32 }
          cleanup
  call void @_ZNSaIcED1Ev(ptr noundef nonnull align 1 dereferenceable(1) %ref.tmp) #25
  br label %eh.resume

lpad3:                                            ; preds = %invoke.cont
  %11 = landingpad { ptr, i32 }
          cleanup
  call void @_ZNSaIcED1Ev(ptr noundef nonnull align 1 dereferenceable(1) %ref.tmp2) #25
  call void @_ZNSt7__cxx1112basic_stringIcSt11char_traitsIcESaIcEED1Ev(ptr noundef nonnull align 8 dereferenceable(32) %this) #25
  br label %eh.resume

eh.resume:                                        ; preds = %lpad3, %lpad
  %.pn = phi { ptr, i32 } [ %11, %lpad3 ], [ %10, %lpad ]
  resume { ptr, i32 } %.pn
}

; Function Attrs: uwtable
define internal void @_GLOBAL__sub_I_code_generator.cc() #19 section ".text.startup" {
entry:
  tail call void @_ZNSt8ios_base4InitC1Ev(ptr noundef nonnull align 1 dereferenceable(1) @_ZStL8__ioinit)
  %0 = tail call i32 @__cxa_atexit(ptr nonnull @_ZNSt8ios_base4InitD1Ev, ptr nonnull @_ZStL8__ioinit, ptr nonnull @__dso_handle) #25
  ret void
}

; Function Attrs: nofree nounwind willreturn memory(argmem: read)
declare i32 @bcmp(ptr nocapture, ptr nocapture, i64) local_unnamed_addr #20

; Function Attrs: nocallback nofree nosync nounwind speculatable willreturn memory(none)
declare i64 @llvm.umin.i64(i64, i64) #21

; Function Attrs: nocallback nofree nosync nounwind speculatable willreturn memory(none)
declare i64 @llvm.umax.i64(i64, i64) #21

; Function Attrs: nocallback nofree nosync nounwind willreturn memory(inaccessiblemem: readwrite)
declare void @llvm.experimental.noalias.scope.decl(metadata) #22

; Function Attrs: nocallback nofree nosync nounwind willreturn memory(argmem: readwrite)
declare void @llvm.lifetime.start.p0(i64 immarg, ptr nocapture) #23

; Function Attrs: nocallback nofree nosync nounwind willreturn memory(argmem: readwrite)
declare void @llvm.lifetime.end.p0(i64 immarg, ptr nocapture) #23

attributes #0 = { "frame-pointer"="all" "no-trapping-math"="true" "stack-protector-buffer-size"="8" "target-cpu"="x86-64" "target-features"="+cmov,+cx8,+fxsr,+mmx,+sse,+sse2,+x87" "tune-cpu"="generic" }
attributes #1 = { nounwind "frame-pointer"="all" "no-trapping-math"="true" "stack-protector-buffer-size"="8" "target-cpu"="x86-64" "target-features"="+cmov,+cx8,+fxsr,+mmx,+sse,+sse2,+x87" "tune-cpu"="generic" }
attributes #2 = { nofree nounwind }
attributes #3 = { mustprogress nofree norecurse nosync nounwind willreturn memory(none) uwtable "frame-pointer"="all" "min-legal-vector-width"="0" "no-trapping-math"="true" "stack-protector-buffer-size"="8" "target-cpu"="x86-64" "target-features"="+cmov,+cx8,+fxsr,+mmx,+sse,+sse2,+x87" "tune-cpu"="generic" }
attributes #4 = { mustprogress noreturn nounwind memory(inaccessiblemem: write) uwtable "frame-pointer"="all" "min-legal-vector-width"="0" "no-trapping-math"="true" "stack-protector-buffer-size"="8" "target-cpu"="x86-64" "target-features"="+cmov,+cx8,+fxsr,+mmx,+sse,+sse2,+x87" "tune-cpu"="generic" }
attributes #5 = { cold noreturn nounwind memory(inaccessiblemem: write) }
attributes #6 = { mustprogress uwtable "frame-pointer"="all" "min-legal-vector-width"="0" "no-trapping-math"="true" "stack-protector-buffer-size"="8" "target-cpu"="x86-64" "target-features"="+cmov,+cx8,+fxsr,+mmx,+sse,+sse2,+x87" "tune-cpu"="generic" }
attributes #7 = { mustprogress noreturn uwtable "frame-pointer"="all" "min-legal-vector-width"="0" "no-trapping-math"="true" "stack-protector-buffer-size"="8" "target-cpu"="x86-64" "target-features"="+cmov,+cx8,+fxsr,+mmx,+sse,+sse2,+x87" "tune-cpu"="generic" }
attributes #8 = { cold "frame-pointer"="all" "no-trapping-math"="true" "stack-protector-buffer-size"="8" "target-cpu"="x86-64" "target-features"="+cmov,+cx8,+fxsr,+mmx,+sse,+sse2,+x87" "tune-cpu"="generic" }
attributes #9 = { noreturn nounwind "frame-pointer"="all" "no-trapping-math"="true" "stack-protector-buffer-size"="8" "target-cpu"="x86-64" "target-features"="+cmov,+cx8,+fxsr,+mmx,+sse,+sse2,+x87" "tune-cpu"="generic" }
attributes #10 = { mustprogress nocallback nofree nounwind willreturn memory(argmem: readwrite) }
attributes #11 = { mustprogress nofree nounwind willreturn memory(argmem: read) uwtable "frame-pointer"="all" "min-legal-vector-width"="0" "no-trapping-math"="true" "stack-protector-buffer-size"="8" "target-cpu"="x86-64" "target-features"="+cmov,+cx8,+fxsr,+mmx,+sse,+sse2,+x87" "tune-cpu"="generic" }
attributes #12 = { mustprogress nounwind uwtable "frame-pointer"="all" "min-legal-vector-width"="0" "no-trapping-math"="true" "stack-protector-buffer-size"="8" "target-cpu"="x86-64" "target-features"="+cmov,+cx8,+fxsr,+mmx,+sse,+sse2,+x87" "tune-cpu"="generic" }
attributes #13 = { noreturn nounwind uwtable "frame-pointer"="all" "no-trapping-math"="true" "stack-protector-buffer-size"="8" "target-cpu"="x86-64" "target-features"="+cmov,+cx8,+fxsr,+mmx,+sse,+sse2,+x87" "tune-cpu"="generic" }
attributes #14 = { mustprogress nofree nounwind willreturn memory(argmem: read) "frame-pointer"="all" "no-trapping-math"="true" "stack-protector-buffer-size"="8" "target-cpu"="x86-64" "target-features"="+cmov,+cx8,+fxsr,+mmx,+sse,+sse2,+x87" "tune-cpu"="generic" }
attributes #15 = { noreturn "frame-pointer"="all" "no-trapping-math"="true" "stack-protector-buffer-size"="8" "target-cpu"="x86-64" "target-features"="+cmov,+cx8,+fxsr,+mmx,+sse,+sse2,+x87" "tune-cpu"="generic" }
attributes #16 = { mustprogress nocallback nofree nounwind willreturn memory(argmem: write) }
attributes #17 = { nobuiltin nounwind "frame-pointer"="all" "no-trapping-math"="true" "stack-protector-buffer-size"="8" "target-cpu"="x86-64" "target-features"="+cmov,+cx8,+fxsr,+mmx,+sse,+sse2,+x87" "tune-cpu"="generic" }
attributes #18 = { nobuiltin allocsize(0) "frame-pointer"="all" "no-trapping-math"="true" "stack-protector-buffer-size"="8" "target-cpu"="x86-64" "target-features"="+cmov,+cx8,+fxsr,+mmx,+sse,+sse2,+x87" "tune-cpu"="generic" }
attributes #19 = { uwtable "frame-pointer"="all" "min-legal-vector-width"="0" "no-trapping-math"="true" "stack-protector-buffer-size"="8" "target-cpu"="x86-64" "target-features"="+cmov,+cx8,+fxsr,+mmx,+sse,+sse2,+x87" "tune-cpu"="generic" }
attributes #20 = { nofree nounwind willreturn memory(argmem: read) }
attributes #21 = { nocallback nofree nosync nounwind speculatable willreturn memory(none) }
attributes #22 = { nocallback nofree nosync nounwind willreturn memory(inaccessiblemem: readwrite) }
attributes #23 = { nocallback nofree nosync nounwind willreturn memory(argmem: readwrite) }
attributes #24 = { noreturn nounwind }
attributes #25 = { nounwind }
attributes #26 = { builtin nounwind }
attributes #27 = { cold }
attributes #28 = { noreturn }
attributes #29 = { builtin allocsize(0) }

!llvm.module.flags = !{!0, !1, !2, !3}

!0 = !{i32 1, !"wchar_size", i32 4}
!1 = !{i32 8, !"PIC Level", i32 2}
!2 = !{i32 7, !"uwtable", i32 2}
!3 = !{i32 7, !"frame-pointer", i32 2}
!4 = distinct !{!4, !5}
!5 = !{!"llvm.loop.mustprogress"}
!6 = !{!7}
!7 = distinct !{!7, !8, !"_ZN4absl12lts_202308028StrSplitIcNS0_9SkipEmptyEEENS0_16strings_internal8SplitterINS3_15SelectDelimiterIT_E4typeET0_St17basic_string_viewIcSt11char_traitsIcEEEENS3_23ConvertibleToStringViewES6_S9_: %agg.result"}
!8 = distinct !{!8, !"_ZN4absl12lts_202308028StrSplitIcNS0_9SkipEmptyEEENS0_16strings_internal8SplitterINS3_15SelectDelimiterIT_E4typeET0_St17basic_string_viewIcSt11char_traitsIcEEEENS3_23ConvertibleToStringViewES6_S9_"}
!9 = !{!10}
!10 = distinct !{!10, !11, !"_ZNK4absl12lts_2023080216strings_internal8SplitterINS0_6ByCharENS0_9SkipEmptyESt17basic_string_viewIcSt11char_traitsIcEEE5beginEv: %agg.result"}
!11 = distinct !{!11, !"_ZNK4absl12lts_2023080216strings_internal8SplitterINS0_6ByCharENS0_9SkipEmptyESt17basic_string_viewIcSt11char_traitsIcEEE5beginEv"}
!12 = distinct !{!12, !5}
!13 = distinct !{!13, !5}
!14 = distinct !{!14, !5}
!15 = distinct !{!15, !5}
!16 = distinct !{!16, !5}
!17 = distinct !{!17, !5}
