; ModuleID = 'bench/protobuf/original/command_line_interface.cc.ll'
source_filename = "bench/protobuf/original/command_line_interface.cc.ll"
target datalayout = "e-m:e-p270:32:32-p271:32:32-p272:64:64-i64:64-i128:128-f80:128-n8:16:32:64-S128"
target triple = "x86_64-unknown-linux-gnu"

%"class.std::ios_base::Init" = type { i8 }
%"class.std::basic_ostream" = type { ptr, %"class.std::basic_ios" }
%"class.std::basic_ios" = type { %"class.std::ios_base", ptr, i8, i8, ptr, ptr, ptr, ptr }
%"class.std::ios_base" = type { ptr, i64, i64, i32, i32, i32, ptr, %"struct.std::ios_base::_Words", [8 x %"struct.std::ios_base::_Words"], i32, ptr, %"class.std::locale" }
%"struct.std::ios_base::_Words" = type { ptr, i64 }
%"class.std::locale" = type { ptr }
%"struct.google::protobuf::FeatureSetDefaultTypeInternal" = type opaque
%"struct.google::protobuf::GeneratedCodeInfoDefaultTypeInternal" = type opaque
%"struct.absl::lts_20230802::container_internal::PolicyFunctions" = type { i64, ptr, ptr, ptr }
%"struct.std::piecewise_construct_t" = type { i8 }
%"struct.absl::lts_20230802::base_internal::SpinLockWaitTransition" = type { i32, i32, i8 }
%"struct.google::protobuf::FileOptionsDefaultTypeInternal" = type opaque
%"struct.google::protobuf::MessageOptionsDefaultTypeInternal" = type opaque
%"struct.google::protobuf::OneofOptionsDefaultTypeInternal" = type opaque
%"struct.google::protobuf::ExtensionRangeOptionsDefaultTypeInternal" = type opaque
%"struct.google::protobuf::EnumOptionsDefaultTypeInternal" = type opaque
%"struct.google::protobuf::EnumValueOptionsDefaultTypeInternal" = type opaque
%"struct.google::protobuf::FieldOptionsDefaultTypeInternal" = type opaque
%"struct.google::protobuf::ServiceOptionsDefaultTypeInternal" = type opaque
%"struct.google::protobuf::MethodOptionsDefaultTypeInternal" = type opaque
%"struct.std::atomic.650" = type { %"struct.std::__atomic_base.651" }
%"struct.std::__atomic_base.651" = type { i8 }
%"struct.absl::lts_20230802::strings_internal::Splitter<absl::lts_20230802::ByAnyChar, absl::lts_20230802::SkipEmpty, std::basic_string_view<char>>::ConvertToContainer" = type { i8 }
%"class.absl::lts_20230802::ByAnyChar" = type { %"class.std::__cxx11::basic_string" }
%"class.std::__cxx11::basic_string" = type { %"struct.std::__cxx11::basic_string<char>::_Alloc_hider", i64, %union.anon.10 }
%"struct.std::__cxx11::basic_string<char>::_Alloc_hider" = type { ptr }
%union.anon.10 = type { i64, [8 x i8] }
%"class.std::vector.37" = type { %"struct.std::_Vector_base.38" }
%"struct.std::_Vector_base.38" = type { %"struct.std::_Vector_base<std::__cxx11::basic_string<char>, std::allocator<std::__cxx11::basic_string<char>>>::_Vector_impl" }
%"struct.std::_Vector_base<std::__cxx11::basic_string<char>, std::allocator<std::__cxx11::basic_string<char>>>::_Vector_impl" = type { %"struct.std::_Vector_base<std::__cxx11::basic_string<char>, std::allocator<std::__cxx11::basic_string<char>>>::_Vector_impl_data" }
%"struct.std::_Vector_base<std::__cxx11::basic_string<char>, std::allocator<std::__cxx11::basic_string<char>>>::_Vector_impl_data" = type { ptr, ptr, ptr }
%"class.absl::lts_20230802::strings_internal::Splitter" = type <{ %"class.std::basic_string_view", %"class.absl::lts_20230802::ByAnyChar", %"struct.absl::lts_20230802::SkipEmpty", [7 x i8] }>
%"class.std::basic_string_view" = type { i64, ptr }
%"struct.absl::lts_20230802::SkipEmpty" = type { i8 }
%"union.absl::lts_20230802::container_internal::map_slot_type" = type { %"struct.std::pair.96" }
%"struct.std::pair.96" = type { %"class.std::__cxx11::basic_string", %"class.std::__cxx11::basic_string" }
%"class.google::protobuf::io::FileOutputStream" = type { %"class.google::protobuf::io::CopyingOutputStreamAdaptor", %"class.google::protobuf::io::FileOutputStream::CopyingFileOutputStream" }
%"class.google::protobuf::io::CopyingOutputStreamAdaptor" = type { %"class.google::protobuf::io::ZeroCopyOutputStream", ptr, i8, i8, i64, %"class.std::unique_ptr.98", i32, i32 }
%"class.google::protobuf::io::ZeroCopyOutputStream" = type { ptr }
%"class.std::unique_ptr.98" = type { %"struct.std::__uniq_ptr_data.99" }
%"struct.std::__uniq_ptr_data.99" = type { %"class.std::__uniq_ptr_impl.100" }
%"class.std::__uniq_ptr_impl.100" = type { %"class.std::tuple.101" }
%"class.std::tuple.101" = type { %"struct.std::_Tuple_impl.102" }
%"struct.std::_Tuple_impl.102" = type { %"struct.std::_Head_base.105" }
%"struct.std::_Head_base.105" = type { ptr }
%"class.google::protobuf::io::FileOutputStream::CopyingFileOutputStream" = type <{ %"class.google::protobuf::io::CopyingOutputStream", i32, i8, i8, [2 x i8], i32, [4 x i8] }>
%"class.google::protobuf::io::CopyingOutputStream" = type { ptr }
%"class.google::protobuf::compiler::ZipWriter" = type { ptr, %"class.std::vector.106" }
%"class.std::vector.106" = type { %"struct.std::_Vector_base.107" }
%"struct.std::_Vector_base.107" = type { %"struct.std::_Vector_base<google::protobuf::compiler::ZipWriter::FileInfo, std::allocator<google::protobuf::compiler::ZipWriter::FileInfo>>::_Vector_impl" }
%"struct.std::_Vector_base<google::protobuf::compiler::ZipWriter::FileInfo, std::allocator<google::protobuf::compiler::ZipWriter::FileInfo>>::_Vector_impl" = type { %"struct.std::_Vector_base<google::protobuf::compiler::ZipWriter::FileInfo, std::allocator<google::protobuf::compiler::ZipWriter::FileInfo>>::_Vector_impl_data" }
%"struct.std::_Vector_base<google::protobuf::compiler::ZipWriter::FileInfo, std::allocator<google::protobuf::compiler::ZipWriter::FileInfo>>::_Vector_impl_data" = type { ptr, ptr, ptr }
%"struct.std::pair.111" = type { %"class.absl::lts_20230802::container_internal::btree_iterator", i8, [7 x i8] }
%"class.absl::lts_20230802::container_internal::btree_iterator" = type <{ ptr, i32, [4 x i8] }>
%"class.std::allocator.7" = type { i8 }
%"class.std::tuple.502" = type { %"struct.std::_Tuple_impl.503" }
%"struct.std::_Tuple_impl.503" = type { %"struct.std::_Head_base.504" }
%"struct.std::_Head_base.504" = type { ptr }
%"class.std::tuple.505" = type { %"struct.std::_Tuple_impl.506" }
%"struct.std::_Tuple_impl.506" = type { %"struct.std::_Head_base.507" }
%"struct.std::_Head_base.507" = type { ptr }
%"class.absl::lts_20230802::AlphaNum" = type { %"class.std::basic_string_view", [32 x i8] }
%"class.google::protobuf::GeneratedCodeInfo" = type { %"class.google::protobuf::Message", %union.anon.122 }
%"class.google::protobuf::Message" = type { %"class.google::protobuf::MessageLite" }
%"class.google::protobuf::MessageLite" = type { ptr, %"class.google::protobuf::internal::InternalMetadata" }
%"class.google::protobuf::internal::InternalMetadata" = type { i64 }
%union.anon.122 = type { %"struct.google::protobuf::GeneratedCodeInfo::Impl_" }
%"struct.google::protobuf::GeneratedCodeInfo::Impl_" = type <{ %"class.google::protobuf::RepeatedPtrField.123", %"class.google::protobuf::internal::CachedSize", [4 x i8] }>
%"class.google::protobuf::RepeatedPtrField.123" = type { %"class.google::protobuf::internal::RepeatedPtrFieldBase" }
%"class.google::protobuf::internal::RepeatedPtrFieldBase" = type { ptr, i32, i32, ptr }
%"class.google::protobuf::internal::CachedSize" = type { i32 }
%"class.absl::lts_20230802::log_internal::LogMessageFatal" = type { %"class.absl::lts_20230802::log_internal::LogMessage" }
%"class.absl::lts_20230802::log_internal::LogMessage" = type { %"class.absl::lts_20230802::base_internal::ErrnoSaver", %"class.std::unique_ptr.125" }
%"class.absl::lts_20230802::base_internal::ErrnoSaver" = type { i32 }
%"class.std::unique_ptr.125" = type { %"struct.std::__uniq_ptr_data.126" }
%"struct.std::__uniq_ptr_data.126" = type { %"class.std::__uniq_ptr_impl.127" }
%"class.std::__uniq_ptr_impl.127" = type { %"class.std::tuple.128" }
%"class.std::tuple.128" = type { %"struct.std::_Tuple_impl.129" }
%"struct.std::_Tuple_impl.129" = type { %"struct.std::_Head_base.132" }
%"struct.std::_Head_base.132" = type { ptr }
%"union.absl::lts_20230802::container_internal::map_slot_type.398" = type { %"struct.std::pair.302" }
%"struct.std::pair.302" = type { %"class.std::__cxx11::basic_string", %"struct.google::protobuf::compiler::CommandLineInterface::GeneratorInfo" }
%"struct.google::protobuf::compiler::CommandLineInterface::GeneratorInfo" = type { %"class.std::__cxx11::basic_string", %"class.std::__cxx11::basic_string", ptr, %"class.std::__cxx11::basic_string" }
%"class.std::tuple.513" = type { %"struct.std::_Tuple_impl.514" }
%"struct.std::_Tuple_impl.514" = type { %"struct.std::_Head_base.515" }
%"struct.std::_Head_base.515" = type { ptr }
%"class.std::tuple.516" = type { i8 }
%"struct.std::pair.510" = type { %"class.absl::lts_20230802::container_internal::btree_iterator.300", i8, [7 x i8] }
%"class.absl::lts_20230802::container_internal::btree_iterator.300" = type <{ ptr, i32, [4 x i8] }>
%"struct.google::protobuf::internal::VisitImpl.538" = type { %"struct.google::protobuf::internal::VisitorImpl.539" }
%"struct.google::protobuf::internal::VisitorImpl.539" = type { %class.anon.255 }
%class.anon.255 = type { ptr, ptr, ptr, ptr }
%"struct.google::protobuf::internal::VisitImpl" = type { %"struct.google::protobuf::internal::VisitorImpl" }
%"struct.google::protobuf::internal::VisitorImpl" = type { %class.anon }
%class.anon = type { ptr, ptr }
%"class.google::protobuf::FileDescriptorSet" = type { %"class.google::protobuf::Message", %union.anon.305 }
%union.anon.305 = type { %"struct.google::protobuf::FileDescriptorSet::Impl_" }
%"struct.google::protobuf::FileDescriptorSet::Impl_" = type <{ %"class.google::protobuf::RepeatedPtrField", %"class.google::protobuf::internal::CachedSize", [4 x i8] }>
%"class.google::protobuf::RepeatedPtrField" = type { %"class.google::protobuf::internal::RepeatedPtrFieldBase" }
%"class.google::protobuf::FileDescriptorProto" = type { %"class.google::protobuf::Message", %union.anon.79 }
%union.anon.79 = type { %"struct.google::protobuf::FileDescriptorProto::Impl_" }
%"struct.google::protobuf::FileDescriptorProto::Impl_" = type <{ %"class.google::protobuf::internal::HasBits", %"class.google::protobuf::internal::CachedSize", %"class.google::protobuf::RepeatedPtrField.80", %"class.google::protobuf::RepeatedPtrField.81", %"class.google::protobuf::RepeatedPtrField.82", %"class.google::protobuf::RepeatedPtrField.83", %"class.google::protobuf::RepeatedPtrField.84", %"class.google::protobuf::RepeatedField", %"class.google::protobuf::RepeatedField", %"struct.google::protobuf::internal::ArenaStringPtr", %"struct.google::protobuf::internal::ArenaStringPtr", %"struct.google::protobuf::internal::ArenaStringPtr", ptr, ptr, i32, [4 x i8] }>
%"class.google::protobuf::internal::HasBits" = type { [1 x i32] }
%"class.google::protobuf::RepeatedPtrField.80" = type { %"class.google::protobuf::internal::RepeatedPtrFieldBase" }
%"class.google::protobuf::RepeatedPtrField.81" = type { %"class.google::protobuf::internal::RepeatedPtrFieldBase" }
%"class.google::protobuf::RepeatedPtrField.82" = type { %"class.google::protobuf::internal::RepeatedPtrFieldBase" }
%"class.google::protobuf::RepeatedPtrField.83" = type { %"class.google::protobuf::internal::RepeatedPtrFieldBase" }
%"class.google::protobuf::RepeatedPtrField.84" = type { %"class.google::protobuf::internal::RepeatedPtrFieldBase" }
%"class.google::protobuf::RepeatedField" = type { i32, i32, ptr }
%"struct.google::protobuf::internal::ArenaStringPtr" = type { %"class.google::protobuf::internal::TaggedStringPtr" }
%"class.google::protobuf::internal::TaggedStringPtr" = type { ptr }
%"class.std::vector.94" = type { %"struct.std::_Vector_base.95" }
%"struct.std::_Vector_base.95" = type { %"struct.std::_Vector_base<const google::protobuf::FileDescriptor *, std::allocator<const google::protobuf::FileDescriptor *>>::_Vector_impl" }
%"struct.std::_Vector_base<const google::protobuf::FileDescriptor *, std::allocator<const google::protobuf::FileDescriptor *>>::_Vector_impl" = type { %"struct.std::_Vector_base<const google::protobuf::FileDescriptor *, std::allocator<const google::protobuf::FileDescriptor *>>::_Vector_impl_data" }
%"struct.std::_Vector_base<const google::protobuf::FileDescriptor *, std::allocator<const google::protobuf::FileDescriptor *>>::_Vector_impl_data" = type { ptr, ptr, ptr }
%"class.std::unique_ptr.141" = type { %"struct.std::__uniq_ptr_data.142" }
%"struct.std::__uniq_ptr_data.142" = type { %"class.std::__uniq_ptr_impl.143" }
%"class.std::__uniq_ptr_impl.143" = type { %"class.std::tuple.144" }
%"class.std::tuple.144" = type { %"struct.std::_Tuple_impl.145" }
%"struct.std::_Tuple_impl.145" = type { %"struct.std::_Head_base.148" }
%"struct.std::_Head_base.148" = type { ptr }
%"class.std::unique_ptr.149" = type { %"struct.std::__uniq_ptr_data.150" }
%"struct.std::__uniq_ptr_data.150" = type { %"class.std::__uniq_ptr_impl.151" }
%"class.std::__uniq_ptr_impl.151" = type { %"class.std::tuple.152" }
%"class.std::tuple.152" = type { %"struct.std::_Tuple_impl.153" }
%"struct.std::_Tuple_impl.153" = type { %"struct.std::_Head_base.156" }
%"struct.std::_Head_base.156" = type { ptr }
%"class.std::vector.157" = type { %"struct.std::_Vector_base.158" }
%"struct.std::_Vector_base.158" = type { %"struct.std::_Vector_base<std::unique_ptr<google::protobuf::SimpleDescriptorDatabase>, std::allocator<std::unique_ptr<google::protobuf::SimpleDescriptorDatabase>>>::_Vector_impl" }
%"struct.std::_Vector_base<std::unique_ptr<google::protobuf::SimpleDescriptorDatabase>, std::allocator<std::unique_ptr<google::protobuf::SimpleDescriptorDatabase>>>::_Vector_impl" = type { %"struct.std::_Vector_base<std::unique_ptr<google::protobuf::SimpleDescriptorDatabase>, std::allocator<std::unique_ptr<google::protobuf::SimpleDescriptorDatabase>>>::_Vector_impl_data" }
%"struct.std::_Vector_base<std::unique_ptr<google::protobuf::SimpleDescriptorDatabase>, std::allocator<std::unique_ptr<google::protobuf::SimpleDescriptorDatabase>>>::_Vector_impl_data" = type { ptr, ptr, ptr }
%"class.std::vector.186" = type { %"struct.std::_Vector_base.187" }
%"struct.std::_Vector_base.187" = type { %"struct.std::_Vector_base<google::protobuf::DescriptorDatabase *, std::allocator<google::protobuf::DescriptorDatabase *>>::_Vector_impl" }
%"struct.std::_Vector_base<google::protobuf::DescriptorDatabase *, std::allocator<google::protobuf::DescriptorDatabase *>>::_Vector_impl" = type { %"struct.std::_Vector_base<google::protobuf::DescriptorDatabase *, std::allocator<google::protobuf::DescriptorDatabase *>>::_Vector_impl_data" }
%"struct.std::_Vector_base<google::protobuf::DescriptorDatabase *, std::allocator<google::protobuf::DescriptorDatabase *>>::_Vector_impl_data" = type { ptr, ptr, ptr }
%"class.absl::lts_20230802::flat_hash_map.256" = type { %"class.absl::lts_20230802::container_internal::raw_hash_map.257" }
%"class.absl::lts_20230802::container_internal::raw_hash_map.257" = type { %"class.absl::lts_20230802::container_internal::raw_hash_set.258" }
%"class.absl::lts_20230802::container_internal::raw_hash_set.258" = type { %"class.absl::lts_20230802::container_internal::CompressedTuple.259" }
%"class.absl::lts_20230802::container_internal::CompressedTuple.259" = type { %"struct.absl::lts_20230802::container_internal::internal_compressed_tuple::CompressedTupleImpl.260" }
%"struct.absl::lts_20230802::container_internal::internal_compressed_tuple::CompressedTupleImpl.260" = type { %"struct.absl::lts_20230802::container_internal::internal_compressed_tuple::Storage" }
%"struct.absl::lts_20230802::container_internal::internal_compressed_tuple::Storage" = type { %"class.absl::lts_20230802::container_internal::CommonFields" }
%"class.absl::lts_20230802::container_internal::CommonFields" = type { ptr, ptr, i64, %"class.absl::lts_20230802::container_internal::CompressedTuple.0" }
%"class.absl::lts_20230802::container_internal::CompressedTuple.0" = type { %"struct.absl::lts_20230802::container_internal::internal_compressed_tuple::CompressedTupleImpl.1" }
%"struct.absl::lts_20230802::container_internal::internal_compressed_tuple::CompressedTupleImpl.1" = type { %"struct.absl::lts_20230802::container_internal::internal_compressed_tuple::Storage.2" }
%"struct.absl::lts_20230802::container_internal::internal_compressed_tuple::Storage.2" = type { i64 }
%"class.google::protobuf::DescriptorPool" = type { ptr, ptr, ptr, ptr, %"class.std::unique_ptr", %"class.std::unique_ptr.54", i8, i8, i8, i8, i8, i8, i8, i8, %"class.absl::lts_20230802::flat_hash_map.62", %"class.std::unique_ptr.71" }
%"class.std::unique_ptr" = type { %"struct.std::__uniq_ptr_data" }
%"struct.std::__uniq_ptr_data" = type { %"class.std::__uniq_ptr_impl" }
%"class.std::__uniq_ptr_impl" = type { %"class.std::tuple" }
%"class.std::tuple" = type { %"struct.std::_Tuple_impl" }
%"struct.std::_Tuple_impl" = type { %"struct.std::_Head_base.53" }
%"struct.std::_Head_base.53" = type { ptr }
%"class.std::unique_ptr.54" = type { %"struct.std::__uniq_ptr_data.55" }
%"struct.std::__uniq_ptr_data.55" = type { %"class.std::__uniq_ptr_impl.56" }
%"class.std::__uniq_ptr_impl.56" = type { %"class.std::tuple.57" }
%"class.std::tuple.57" = type { %"struct.std::_Tuple_impl.58" }
%"struct.std::_Tuple_impl.58" = type { %"struct.std::_Head_base.61" }
%"struct.std::_Head_base.61" = type { ptr }
%"class.absl::lts_20230802::flat_hash_map.62" = type { %"class.absl::lts_20230802::container_internal::raw_hash_map.63" }
%"class.absl::lts_20230802::container_internal::raw_hash_map.63" = type { %"class.absl::lts_20230802::container_internal::raw_hash_set.64" }
%"class.absl::lts_20230802::container_internal::raw_hash_set.64" = type { %"class.absl::lts_20230802::container_internal::CompressedTuple.65" }
%"class.absl::lts_20230802::container_internal::CompressedTuple.65" = type { %"struct.absl::lts_20230802::container_internal::internal_compressed_tuple::CompressedTupleImpl.66" }
%"struct.absl::lts_20230802::container_internal::internal_compressed_tuple::CompressedTupleImpl.66" = type { %"struct.absl::lts_20230802::container_internal::internal_compressed_tuple::Storage" }
%"class.std::unique_ptr.71" = type { %"struct.std::__uniq_ptr_data.72" }
%"struct.std::__uniq_ptr_data.72" = type { %"class.std::__uniq_ptr_impl.73" }
%"class.std::__uniq_ptr_impl.73" = type { %"class.std::tuple.74" }
%"class.std::tuple.74" = type { %"struct.std::_Tuple_impl.75" }
%"struct.std::_Tuple_impl.75" = type { %"struct.std::_Head_base.78" }
%"struct.std::_Head_base.78" = type { ptr }
%"class.std::unique_ptr.178" = type { %"struct.std::__uniq_ptr_data.179" }
%"struct.std::__uniq_ptr_data.179" = type { %"class.std::__uniq_ptr_impl.180" }
%"class.std::__uniq_ptr_impl.180" = type { %"class.std::tuple.181" }
%"class.std::tuple.181" = type { %"struct.std::_Tuple_impl.182" }
%"struct.std::_Tuple_impl.182" = type { %"struct.std::_Head_base.185" }
%"struct.std::_Head_base.185" = type { ptr }
%"class.google::protobuf::Descriptor" = type { %"class.google::protobuf::internal::SymbolBase", i8, i16, i32, ptr, ptr, ptr, ptr, ptr, ptr, ptr, ptr, ptr, ptr, ptr, ptr, ptr, ptr, i32, i32, i32, i32, i32, i32, i32, i32 }
%"class.google::protobuf::internal::SymbolBase" = type { i8 }
%"class.google::protobuf::FieldDescriptor" = type { %"class.google::protobuf::internal::SymbolBase", i8, i8, i8, i32, ptr, ptr, ptr, ptr, %union.anon.428, %union.anon.429, ptr, ptr, ptr, %union.anon.430 }
%union.anon.428 = type { ptr }
%union.anon.429 = type { ptr }
%union.anon.430 = type { i64 }
%"class.google::protobuf::EnumDescriptor" = type { %"class.google::protobuf::internal::SymbolBase", i8, i16, i32, ptr, ptr, ptr, ptr, ptr, ptr, ptr, i32, i32, ptr, ptr }
%"class.google::protobuf::ServiceDescriptor" = type <{ %"class.google::protobuf::internal::SymbolBase", [7 x i8], ptr, ptr, ptr, ptr, ptr, ptr, i32, [4 x i8] }>
%"struct.google::protobuf::compiler::CommandLineInterface::OutputDirective" = type { %"class.std::__cxx11::basic_string", ptr, %"class.std::__cxx11::basic_string", %"class.std::__cxx11::basic_string" }
%"union.absl::lts_20230802::container_internal::map_slot_type.411" = type { %"struct.std::pair.274" }
%"struct.std::pair.274" = type { %"class.std::__cxx11::basic_string", %"class.std::unique_ptr.265" }
%"class.std::unique_ptr.265" = type { %"struct.std::__uniq_ptr_data.266" }
%"struct.std::__uniq_ptr_data.266" = type { %"class.std::__uniq_ptr_impl.267" }
%"class.std::__uniq_ptr_impl.267" = type { %"class.std::tuple.268" }
%"class.std::tuple.268" = type { %"struct.std::_Tuple_impl.269" }
%"struct.std::_Tuple_impl.269" = type { %"struct.std::_Head_base.272" }
%"struct.std::_Head_base.272" = type { ptr }
%"struct.std::pair.280" = type { %"class.std::__cxx11::basic_string", %"class.std::__cxx11::basic_string" }
%"class.absl::lts_20230802::log_internal::LogMessage::OstreamView" = type { %"class.std::basic_streambuf", ptr, %"class.absl::lts_20230802::Span.574", %"class.absl::lts_20230802::Span.574", %"class.absl::lts_20230802::Span.574" }
%"class.std::basic_streambuf" = type { ptr, ptr, ptr, ptr, ptr, ptr, ptr, %"class.std::locale" }
%"class.absl::lts_20230802::Span.574" = type { ptr, i64 }
%"class.std::vector.282" = type { %"struct.std::_Vector_base.283" }
%"struct.std::_Vector_base.283" = type { %"struct.std::_Vector_base<const google::protobuf::FieldDescriptor *, std::allocator<const google::protobuf::FieldDescriptor *>>::_Vector_impl" }
%"struct.std::_Vector_base<const google::protobuf::FieldDescriptor *, std::allocator<const google::protobuf::FieldDescriptor *>>::_Vector_impl" = type { %"struct.std::_Vector_base<const google::protobuf::FieldDescriptor *, std::allocator<const google::protobuf::FieldDescriptor *>>::_Vector_impl_data" }
%"struct.std::_Vector_base<const google::protobuf::FieldDescriptor *, std::allocator<const google::protobuf::FieldDescriptor *>>::_Vector_impl_data" = type { ptr, ptr, ptr }
%"class.absl::lts_20230802::StatusOr" = type { %"class.absl::lts_20230802::internal_statusor::StatusOrData" }
%"class.absl::lts_20230802::internal_statusor::StatusOrData" = type { %union.anon.289, %union.anon.290 }
%union.anon.289 = type { %"class.absl::lts_20230802::Status" }
%"class.absl::lts_20230802::Status" = type { i64 }
%union.anon.290 = type { %"class.google::protobuf::FeatureSetDefaults" }
%"class.google::protobuf::FeatureSetDefaults" = type { %"class.google::protobuf::Message", %union.anon.291 }
%union.anon.291 = type { %"struct.google::protobuf::FeatureSetDefaults::Impl_" }
%"struct.google::protobuf::FeatureSetDefaults::Impl_" = type { %"class.google::protobuf::internal::HasBits", %"class.google::protobuf::internal::CachedSize", %"class.google::protobuf::RepeatedPtrField.292", i32, i32 }
%"class.google::protobuf::RepeatedPtrField.292" = type { %"class.google::protobuf::internal::RepeatedPtrFieldBase" }
%"struct.std::pair.294" = type { %"class.std::basic_string_view", %"class.std::basic_string_view" }
%"class.absl::lts_20230802::flat_hash_map.590" = type { %"class.absl::lts_20230802::container_internal::raw_hash_map.591" }
%"class.absl::lts_20230802::container_internal::raw_hash_map.591" = type { %"class.absl::lts_20230802::container_internal::raw_hash_set.592" }
%"class.absl::lts_20230802::container_internal::raw_hash_set.592" = type { %"class.absl::lts_20230802::container_internal::CompressedTuple.593" }
%"class.absl::lts_20230802::container_internal::CompressedTuple.593" = type { %"struct.absl::lts_20230802::container_internal::internal_compressed_tuple::CompressedTupleImpl.594" }
%"struct.absl::lts_20230802::container_internal::internal_compressed_tuple::CompressedTupleImpl.594" = type { %"struct.absl::lts_20230802::container_internal::internal_compressed_tuple::Storage" }
%"class.absl::lts_20230802::flat_hash_set" = type { %"class.absl::lts_20230802::container_internal::raw_hash_set" }
%"class.absl::lts_20230802::container_internal::raw_hash_set" = type { %"class.absl::lts_20230802::container_internal::CompressedTuple" }
%"class.absl::lts_20230802::container_internal::CompressedTuple" = type { %"struct.absl::lts_20230802::container_internal::internal_compressed_tuple::CompressedTupleImpl" }
%"struct.absl::lts_20230802::container_internal::internal_compressed_tuple::CompressedTupleImpl" = type { %"struct.absl::lts_20230802::container_internal::internal_compressed_tuple::Storage" }
%"struct.google::protobuf::compiler::TransitiveDependencyOptions" = type { i8, i8, i8 }
%"class.google::protobuf::io::Printer" = type { %"class.google::protobuf::io::zc_sink_internal::ZeroCopyStreamByteSink", %"struct.google::protobuf::io::Printer::Options", i64, i8, i8, i64, %"class.std::vector.306", %"class.std::vector.311", %"class.std::vector.316", %"class.absl::lts_20230802::flat_hash_map.321", %"class.std::vector.37" }
%"class.google::protobuf::io::zc_sink_internal::ZeroCopyStreamByteSink" = type <{ ptr, ptr, i64, i64, i8, [7 x i8] }>
%"struct.google::protobuf::io::Printer::Options" = type <{ i8, [7 x i8], ptr, %"class.std::basic_string_view", %"class.std::basic_string_view", i64, %"class.std::optional", [6 x i8] }>
%"class.std::optional" = type { %"struct.std::_Optional_base" }
%"struct.std::_Optional_base" = type { %"struct.std::_Optional_payload" }
%"struct.std::_Optional_payload" = type { %"struct.std::_Optional_payload_base" }
%"struct.std::_Optional_payload_base" = type { %"union.std::_Optional_payload_base<bool>::_Storage", i8 }
%"union.std::_Optional_payload_base<bool>::_Storage" = type { %"struct.std::_Optional_payload_base<bool>::_Empty_byte" }
%"struct.std::_Optional_payload_base<bool>::_Empty_byte" = type { i8 }
%"class.std::vector.306" = type { %"struct.std::_Vector_base.307" }
%"struct.std::_Vector_base.307" = type { %"struct.std::_Vector_base<unsigned long, std::allocator<unsigned long>>::_Vector_impl" }
%"struct.std::_Vector_base<unsigned long, std::allocator<unsigned long>>::_Vector_impl" = type { %"struct.std::_Vector_base<unsigned long, std::allocator<unsigned long>>::_Vector_impl_data" }
%"struct.std::_Vector_base<unsigned long, std::allocator<unsigned long>>::_Vector_impl_data" = type { ptr, ptr, ptr }
%"class.std::vector.311" = type { %"struct.std::_Vector_base.312" }
%"struct.std::_Vector_base.312" = type { %"struct.std::_Vector_base<std::function<std::optional<google::protobuf::io::Printer::ValueImpl<false>> (std::basic_string_view<char>)>, std::allocator<std::function<std::optional<google::protobuf::io::Printer::ValueImpl<false>> (std::basic_string_view<char>)>>>::_Vector_impl" }
%"struct.std::_Vector_base<std::function<std::optional<google::protobuf::io::Printer::ValueImpl<false>> (std::basic_string_view<char>)>, std::allocator<std::function<std::optional<google::protobuf::io::Printer::ValueImpl<false>> (std::basic_string_view<char>)>>>::_Vector_impl" = type { %"struct.std::_Vector_base<std::function<std::optional<google::protobuf::io::Printer::ValueImpl<false>> (std::basic_string_view<char>)>, std::allocator<std::function<std::optional<google::protobuf::io::Printer::ValueImpl<false>> (std::basic_string_view<char>)>>>::_Vector_impl_data" }
%"struct.std::_Vector_base<std::function<std::optional<google::protobuf::io::Printer::ValueImpl<false>> (std::basic_string_view<char>)>, std::allocator<std::function<std::optional<google::protobuf::io::Printer::ValueImpl<false>> (std::basic_string_view<char>)>>>::_Vector_impl_data" = type { ptr, ptr, ptr }
%"class.std::vector.316" = type { %"struct.std::_Vector_base.317" }
%"struct.std::_Vector_base.317" = type { %"struct.std::_Vector_base<std::function<std::optional<google::protobuf::io::Printer::AnnotationRecord> (std::basic_string_view<char>)>, std::allocator<std::function<std::optional<google::protobuf::io::Printer::AnnotationRecord> (std::basic_string_view<char>)>>>::_Vector_impl" }
%"struct.std::_Vector_base<std::function<std::optional<google::protobuf::io::Printer::AnnotationRecord> (std::basic_string_view<char>)>, std::allocator<std::function<std::optional<google::protobuf::io::Printer::AnnotationRecord> (std::basic_string_view<char>)>>>::_Vector_impl" = type { %"struct.std::_Vector_base<std::function<std::optional<google::protobuf::io::Printer::AnnotationRecord> (std::basic_string_view<char>)>, std::allocator<std::function<std::optional<google::protobuf::io::Printer::AnnotationRecord> (std::basic_string_view<char>)>>>::_Vector_impl_data" }
%"struct.std::_Vector_base<std::function<std::optional<google::protobuf::io::Printer::AnnotationRecord> (std::basic_string_view<char>)>, std::allocator<std::function<std::optional<google::protobuf::io::Printer::AnnotationRecord> (std::basic_string_view<char>)>>>::_Vector_impl_data" = type { ptr, ptr, ptr }
%"class.absl::lts_20230802::flat_hash_map.321" = type { %"class.absl::lts_20230802::container_internal::raw_hash_map.322" }
%"class.absl::lts_20230802::container_internal::raw_hash_map.322" = type { %"class.absl::lts_20230802::container_internal::raw_hash_set.323" }
%"class.absl::lts_20230802::container_internal::raw_hash_set.323" = type { %"class.absl::lts_20230802::container_internal::CompressedTuple.324" }
%"class.absl::lts_20230802::container_internal::CompressedTuple.324" = type { %"struct.absl::lts_20230802::container_internal::internal_compressed_tuple::CompressedTupleImpl.325" }
%"struct.absl::lts_20230802::container_internal::internal_compressed_tuple::CompressedTupleImpl.325" = type { %"struct.absl::lts_20230802::container_internal::internal_compressed_tuple::Storage" }
%"class.google::protobuf::io::CodedOutputStream" = type { %"class.google::protobuf::io::EpsCopyOutputStream", ptr, i64 }
%"class.google::protobuf::io::EpsCopyOutputStream" = type <{ ptr, ptr, [32 x i8], ptr, i8, i8, i8, i8, [4 x i8] }>
%"class.google::protobuf::DynamicMessageFactory" = type { %"class.google::protobuf::MessageFactory", ptr, i8, %"class.absl::lts_20230802::flat_hash_map.344", %"class.absl::lts_20230802::Mutex" }
%"class.google::protobuf::MessageFactory" = type { ptr }
%"class.absl::lts_20230802::flat_hash_map.344" = type { %"class.absl::lts_20230802::container_internal::raw_hash_map.345" }
%"class.absl::lts_20230802::container_internal::raw_hash_map.345" = type { %"class.absl::lts_20230802::container_internal::raw_hash_set.346" }
%"class.absl::lts_20230802::container_internal::raw_hash_set.346" = type { %"class.absl::lts_20230802::container_internal::CompressedTuple.347" }
%"class.absl::lts_20230802::container_internal::CompressedTuple.347" = type { %"struct.absl::lts_20230802::container_internal::internal_compressed_tuple::CompressedTupleImpl.348" }
%"struct.absl::lts_20230802::container_internal::internal_compressed_tuple::CompressedTupleImpl.348" = type { %"struct.absl::lts_20230802::container_internal::internal_compressed_tuple::Storage" }
%"class.absl::lts_20230802::Mutex" = type { %"struct.std::atomic" }
%"struct.std::atomic" = type { %"struct.std::__atomic_base" }
%"struct.std::__atomic_base" = type { i64 }
%"class.google::protobuf::io::FileInputStream" = type { %"class.google::protobuf::io::ZeroCopyInputStream", %"class.google::protobuf::io::FileInputStream::CopyingFileInputStream", %"class.google::protobuf::io::CopyingInputStreamAdaptor" }
%"class.google::protobuf::io::ZeroCopyInputStream" = type { ptr }
%"class.google::protobuf::io::FileInputStream::CopyingFileInputStream" = type <{ %"class.google::protobuf::io::CopyingInputStream", i32, i8, i8, [2 x i8], i32, i8, [3 x i8] }>
%"class.google::protobuf::io::CopyingInputStream" = type { ptr }
%"class.google::protobuf::io::CopyingInputStreamAdaptor" = type <{ %"class.google::protobuf::io::ZeroCopyInputStream", ptr, i8, i8, [6 x i8], i64, %"class.std::unique_ptr.98", i32, i32, i32, [4 x i8] }>
%"class.google::protobuf::compiler::CommandLineInterface::ErrorPrinter" = type <{ %"class.google::protobuf::compiler::MultiFileErrorCollector", %"class.google::protobuf::io::ErrorCollector", %"class.google::protobuf::DescriptorPool::ErrorCollector", i32, [4 x i8], ptr, i8, i8, [6 x i8] }>
%"class.google::protobuf::compiler::MultiFileErrorCollector" = type { ptr }
%"class.google::protobuf::io::ErrorCollector" = type { ptr }
%"class.google::protobuf::DescriptorPool::ErrorCollector" = type { ptr }
%"class.google::protobuf::TextFormat::Parser" = type { ptr, ptr, ptr, i8, i8, i8, i8, i8, i8, i8, i8, i32, ptr }
%"class.absl::lts_20230802::str_format_internal::FormatArgImpl" = type { %"union.absl::lts_20230802::str_format_internal::FormatArgImpl::Data", ptr }
%"union.absl::lts_20230802::str_format_internal::FormatArgImpl::Data" = type { ptr }
%"struct.std::pair.460" = type { i32, i32 }
%"struct.std::pair.455" = type { %"class.absl::lts_20230802::container_internal::btree_iterator.457", i8, [7 x i8] }
%"class.absl::lts_20230802::container_internal::btree_iterator.457" = type <{ ptr, i32, [4 x i8] }>
%"class.absl::lts_20230802::btree_set" = type { %"class.absl::lts_20230802::container_internal::btree_set_container.366" }
%"class.absl::lts_20230802::container_internal::btree_set_container.366" = type { %"class.absl::lts_20230802::container_internal::btree_container.367" }
%"class.absl::lts_20230802::container_internal::btree_container.367" = type { %"class.absl::lts_20230802::container_internal::btree.368" }
%"class.absl::lts_20230802::container_internal::btree.368" = type { ptr, %"class.absl::lts_20230802::container_internal::CompressedTuple.369", i64 }
%"class.absl::lts_20230802::container_internal::CompressedTuple.369" = type { %"struct.absl::lts_20230802::container_internal::internal_compressed_tuple::CompressedTupleImpl.370" }
%"struct.absl::lts_20230802::container_internal::internal_compressed_tuple::CompressedTupleImpl.370" = type { %"struct.absl::lts_20230802::container_internal::internal_compressed_tuple::Storage.379" }
%"struct.absl::lts_20230802::container_internal::internal_compressed_tuple::Storage.379" = type { ptr }
%"class.google::protobuf::Descriptor::ExtensionRange" = type { i32, i32, ptr, ptr, ptr, ptr }
%"struct.google::protobuf::Descriptor::ReservedRange" = type { i32, i32 }
%"class.absl::lts_20230802::log_internal::StringifySink" = type { ptr }
%"class.std::basic_ifstream" = type { %"class.std::basic_istream.base", %"class.std::basic_filebuf", %"class.std::basic_ios" }
%"class.std::basic_istream.base" = type { ptr, i64 }
%"class.std::basic_filebuf" = type { %"class.std::basic_streambuf", %union.pthread_mutex_t, %"class.std::__basic_file", i32, %struct.__mbstate_t, %struct.__mbstate_t, %struct.__mbstate_t, ptr, i64, i8, i8, i8, i8, ptr, ptr, i8, ptr, ptr, i64, ptr, ptr }
%union.pthread_mutex_t = type { %struct.__pthread_mutex_s }
%struct.__pthread_mutex_s = type { i32, i32, i32, i32, i32, i16, i16, %struct.__pthread_internal_list }
%struct.__pthread_internal_list = type { ptr, ptr }
%"class.std::__basic_file" = type <{ ptr, i8, [7 x i8] }>
%struct.__mbstate_t = type { i32, %union.anon.296 }
%union.anon.296 = type { i32 }
%"struct.absl::lts_20230802::strings_internal::Splitter<absl::lts_20230802::ByString, absl::lts_20230802::SkipEmpty, std::basic_string_view<char>>::ConvertToContainer" = type { i8 }
%"class.absl::lts_20230802::ByString" = type { %"class.std::__cxx11::basic_string" }
%"class.absl::lts_20230802::strings_internal::Splitter.298" = type <{ %"class.std::basic_string_view", %"class.absl::lts_20230802::ByString", %"struct.absl::lts_20230802::SkipEmpty", [7 x i8] }>
%"class.absl::lts_20230802::strings_internal::StringifySink" = type { %"class.std::__cxx11::basic_string" }
%"struct.absl::lts_20230802::strings_internal::Splitter<absl::lts_20230802::ByChar, absl::lts_20230802::AllowEmpty, std::basic_string_view<char>>::ConvertToContainer" = type { i8 }
%"class.absl::lts_20230802::strings_internal::Splitter.443" = type <{ %"class.std::basic_string_view", %"class.absl::lts_20230802::ByChar", %"struct.absl::lts_20230802::AllowEmpty", [6 x i8] }>
%"class.absl::lts_20230802::ByChar" = type { i8 }
%"struct.absl::lts_20230802::AllowEmpty" = type { i8 }
%"class.google::protobuf::compiler::CodeGeneratorRequest" = type { %"class.google::protobuf::Message", %union.anon.330 }
%union.anon.330 = type { %"struct.google::protobuf::compiler::CodeGeneratorRequest::Impl_" }
%"struct.google::protobuf::compiler::CodeGeneratorRequest::Impl_" = type { %"class.google::protobuf::internal::HasBits", %"class.google::protobuf::internal::CachedSize", %"class.google::protobuf::RepeatedPtrField.80", %"class.google::protobuf::RepeatedPtrField", %"class.google::protobuf::RepeatedPtrField", %"struct.google::protobuf::internal::ArenaStringPtr", ptr }
%"class.google::protobuf::compiler::CodeGeneratorResponse" = type { %"class.google::protobuf::Message", %union.anon.331 }
%union.anon.331 = type { %"struct.google::protobuf::compiler::CodeGeneratorResponse::Impl_" }
%"struct.google::protobuf::compiler::CodeGeneratorResponse::Impl_" = type { %"class.google::protobuf::internal::HasBits", %"class.google::protobuf::internal::CachedSize", %"class.google::protobuf::RepeatedPtrField.332", %"struct.google::protobuf::internal::ArenaStringPtr", i64, i32, i32 }
%"class.google::protobuf::RepeatedPtrField.332" = type { %"class.google::protobuf::internal::RepeatedPtrFieldBase" }
%"class.absl::lts_20230802::flat_hash_set.42" = type { %"class.absl::lts_20230802::container_internal::raw_hash_set.43" }
%"class.absl::lts_20230802::container_internal::raw_hash_set.43" = type { %"class.absl::lts_20230802::container_internal::CompressedTuple.44" }
%"class.absl::lts_20230802::container_internal::CompressedTuple.44" = type { %"struct.absl::lts_20230802::container_internal::internal_compressed_tuple::CompressedTupleImpl.45" }
%"struct.absl::lts_20230802::container_internal::internal_compressed_tuple::CompressedTupleImpl.45" = type { %"struct.absl::lts_20230802::container_internal::internal_compressed_tuple::Storage" }
%"struct.absl::lts_20230802::container_internal::StringHash" = type { i8 }
%"struct.absl::lts_20230802::container_internal::StringEq" = type { i8 }
%"class.std::allocator.39" = type { i8 }
%"class.google::protobuf::compiler::Subprocess" = type { i32, i32, i32 }
%"union.absl::lts_20230802::container_internal::map_slot_type.603" = type { %"struct.std::pair.604" }
%"struct.std::pair.604" = type { %"class.std::basic_string_view", %"class.std::basic_string_view" }
%"union.absl::lts_20230802::container_internal::map_slot_type.433" = type { %"struct.std::pair.434" }
%"struct.std::pair.434" = type { %"class.std::__cxx11::basic_string", %"struct.std::pair.436" }
%"struct.std::pair.436" = type { i64, i64 }
%"struct.std::__cxx11::basic_string<char>::__sv_wrapper" = type { %"class.std::basic_string_view" }
%"struct.absl::lts_20230802::strings_internal::Splitter<absl::lts_20230802::ByChar, absl::lts_20230802::AllowEmpty, std::basic_string_view<char>>::ConvertToContainer.451" = type { i8 }
%"class.std::vector.445" = type { %"struct.std::_Vector_base.446" }
%"struct.std::_Vector_base.446" = type { %"struct.std::_Vector_base<std::basic_string_view<char>, std::allocator<std::basic_string_view<char>>>::_Vector_impl" }
%"struct.std::_Vector_base<std::basic_string_view<char>, std::allocator<std::basic_string_view<char>>>::_Vector_impl" = type { %"struct.std::_Vector_base<std::basic_string_view<char>, std::allocator<std::basic_string_view<char>>>::_Vector_impl_data" }
%"struct.std::_Vector_base<std::basic_string_view<char>, std::allocator<std::basic_string_view<char>>>::_Vector_impl_data" = type { ptr, ptr, ptr }
%"struct.std::array" = type { [16 x %struct.raw_view] }
%struct.raw_view = type { ptr, i64 }
%"class.absl::lts_20230802::strings_internal::SplitIterator" = type <{ i64, i32, [4 x i8], %"class.std::basic_string_view", ptr, %"class.absl::lts_20230802::ByChar", %"struct.absl::lts_20230802::AllowEmpty", [6 x i8] }>
%struct._Guard = type { ptr }
%"struct.absl::lts_20230802::strings_internal::Splitter<absl::lts_20230802::ByAnyChar, absl::lts_20230802::SkipEmpty, std::basic_string_view<char>>::ConvertToContainer.479" = type { i8 }
%"struct.std::array.480" = type { [16 x %struct.raw_view.481] }
%struct.raw_view.481 = type { ptr, i64 }
%"class.absl::lts_20230802::strings_internal::SplitIterator.482" = type <{ i64, i32, [4 x i8], %"class.std::basic_string_view", ptr, %"class.absl::lts_20230802::ByAnyChar", %"struct.absl::lts_20230802::SkipEmpty", [7 x i8] }>
%class.anon.497 = type { ptr }
%class.anon.498 = type { ptr, ptr, ptr }
%class.anon.508 = type { ptr }
%class.anon.509 = type { ptr, ptr, ptr }
%"class.absl::lts_20230802::substitute_internal::Arg" = type { %"class.std::basic_string_view", [32 x i8] }
%"struct.absl::lts_20230802::strings_internal::Splitter<absl::lts_20230802::ByString, absl::lts_20230802::SkipEmpty, std::basic_string_view<char>>::ConvertToContainer.579" = type { i8 }
%"struct.std::array.580" = type { [16 x %struct.raw_view.581] }
%struct.raw_view.581 = type { ptr, i64 }
%"class.absl::lts_20230802::strings_internal::SplitIterator.582" = type <{ i64, i32, [4 x i8], %"class.std::basic_string_view", ptr, %"class.absl::lts_20230802::ByString", %"struct.absl::lts_20230802::SkipEmpty", [7 x i8] }>
%class.anon.623 = type { ptr }
%"class.absl::lts_20230802::Cleanup" = type { %"class.absl::lts_20230802::cleanup_internal::Storage" }
%"class.absl::lts_20230802::cleanup_internal::Storage" = type { i8, [7 x i8], [8 x i8] }
%"struct.google::protobuf::io::Printer::PrintOptions" = type { %"class.std::optional.616", i8, i8, i8, i8, i8, i8, i8 }
%"class.std::optional.616" = type { %"struct.std::_Optional_base.617" }
%"struct.std::_Optional_base.617" = type { %"struct.std::_Optional_payload.619" }
%"struct.std::_Optional_payload.619" = type { %"struct.std::_Optional_payload_base.620" }
%"struct.std::_Optional_payload_base.620" = type { %"union.std::_Optional_payload_base<google::protobuf::io::Printer::SourceLocation>::_Storage", i8 }
%"union.std::_Optional_payload_base<google::protobuf::io::Printer::SourceLocation>::_Storage" = type { %"struct.std::_Optional_payload_base<google::protobuf::io::Printer::SourceLocation>::_Empty_byte" }
%"struct.std::_Optional_payload_base<google::protobuf::io::Printer::SourceLocation>::_Empty_byte" = type { i8 }
%"class.std::function.440" = type { %"class.std::_Function_base", ptr }
%"class.std::_Function_base" = type { %"union.std::_Any_data", ptr }
%"union.std::_Any_data" = type { %"union.std::_Nocopy_types" }
%"union.std::_Nocopy_types" = type { { i64, i64 } }
%"class.std::optional.626" = type { %"struct.std::_Optional_base.627" }
%"struct.std::_Optional_base.627" = type { %"struct.std::_Optional_payload.629" }
%"struct.std::_Optional_payload.629" = type { %"struct.std::_Optional_payload.base", [7 x i8] }
%"struct.std::_Optional_payload.base" = type { %"struct.std::_Optional_payload_base.base" }
%"struct.std::_Optional_payload_base.base" = type { %"union.std::_Optional_payload_base<google::protobuf::io::Printer::ValueImpl<false>>::_Storage", i8 }
%"union.std::_Optional_payload_base<google::protobuf::io::Printer::ValueImpl<false>>::_Storage" = type { %"struct.google::protobuf::io::Printer::ValueImpl" }
%"struct.google::protobuf::io::Printer::ValueImpl" = type <{ %"class.std::variant", %"class.std::__cxx11::basic_string", i8, [7 x i8] }>
%"class.std::variant" = type { %"struct.std::__detail::__variant::_Variant_base.base", [7 x i8] }
%"struct.std::__detail::__variant::_Variant_base.base" = type { %"struct.std::__detail::__variant::_Move_assign_base.base" }
%"struct.std::__detail::__variant::_Move_assign_base.base" = type { %"struct.std::__detail::__variant::_Copy_assign_base.base" }
%"struct.std::__detail::__variant::_Copy_assign_base.base" = type { %"struct.std::__detail::__variant::_Move_ctor_base.base" }
%"struct.std::__detail::__variant::_Move_ctor_base.base" = type { %"struct.std::__detail::__variant::_Copy_ctor_base.base" }
%"struct.std::__detail::__variant::_Copy_ctor_base.base" = type { %"struct.std::__detail::__variant::_Variant_storage.base" }
%"struct.std::__detail::__variant::_Variant_storage.base" = type <{ %"union.std::__detail::__variant::_Variadic_union", i8 }>
%"union.std::__detail::__variant::_Variadic_union" = type { %"struct.std::__detail::__variant::_Uninitialized", [16 x i8] }
%"struct.std::__detail::__variant::_Uninitialized" = type { %"class.std::basic_string_view" }

$_ZNSt4pairIKNSt7__cxx1112basic_stringIcSt11char_traitsIcESaIcEEES5_EC2IRA21_KcRA1_S9_TnNSt9enable_ifIXaaclsr5_PCCPE22_MoveConstructiblePairIT_T0_EEclsr5_PCCPE30_ImplicitlyMoveConvertiblePairISF_SG_EEEbE4typeELb1EEEOSF_OSG_ = comdat any

$_ZNSt4pairIKNSt7__cxx1112basic_stringIcSt11char_traitsIcESaIcEEES5_EC2IRS5_RA1_KcTnNSt9enable_ifIXaaclsr5_PCCPE22_MoveConstructiblePairIT_T0_EEclsr5_PCCPE30_ImplicitlyMoveConvertiblePairISE_SF_EEEbE4typeELb1EEEOSE_OSF_ = comdat any

$__clang_call_terminate = comdat any

$_ZN4absl12lts_2023080213flat_hash_setINSt7__cxx1112basic_stringIcSt11char_traitsIcESaIcEEENS0_18container_internal10StringHashENS8_8StringEqESaIS7_EED2Ev = comdat any

$_ZNSt6vectorINSt7__cxx1112basic_stringIcSt11char_traitsIcESaIcEEESaIS5_EED2Ev = comdat any

$_ZNSt6vectorISt4pairINSt7__cxx1112basic_stringIcSt11char_traitsIcESaIcEEES6_ESaIS7_EED2Ev = comdat any

$_ZN4absl12lts_2023080213flat_hash_mapINSt7__cxx1112basic_stringIcSt11char_traitsIcESaIcEEES7_NS0_18container_internal10StringHashENS8_8StringEqESaISt4pairIKS7_S7_EEED2Ev = comdat any

$_ZN4absl12lts_2023080213flat_hash_mapINSt7__cxx1112basic_stringIcSt11char_traitsIcESaIcEEEN6google8protobuf8compiler20CommandLineInterface13GeneratorInfoENS0_18container_internal10StringHashENSD_8StringEqESaISt4pairIKS7_SC_EEED2Ev = comdat any

$_ZN4absl12lts_202308029btree_mapINSt7__cxx1112basic_stringIcSt11char_traitsIcESaIcEEEN6google8protobuf8compiler20CommandLineInterface13GeneratorInfoESt4lessIS7_ESaISt4pairIKS7_SC_EEED2Ev = comdat any

$_ZN6google8protobuf8compiler20CommandLineInterface13GeneratorInfoD2Ev = comdat any

$_ZN4absl12lts_2023080218container_internal12raw_hash_setINS1_17FlatHashMapPolicyINSt7__cxx1112basic_stringIcSt11char_traitsIcESaIcEEESt10unique_ptrIN6google8protobuf8compiler20CommandLineInterface20GeneratorContextImplESt14default_deleteISF_EEEENS1_10StringHashENS1_8StringEqESaISt4pairIKS9_SI_EEE5beginEv = comdat any

$_ZN4absl12lts_2023080213flat_hash_mapINSt7__cxx1112basic_stringIcSt11char_traitsIcESaIcEEESt10unique_ptrIN6google8protobuf8compiler20CommandLineInterface20GeneratorContextImplESt14default_deleteISD_EENS0_18container_internal10StringHashENSH_8StringEqESaISt4pairIKS7_SG_EEED2Ev = comdat any

$_ZNSt6vectorISt10unique_ptrIN6google8protobuf24SimpleDescriptorDatabaseESt14default_deleteIS3_EESaIS6_EED2Ev = comdat any

$_ZNSt10unique_ptrIN6google8protobuf14DescriptorPoolESt14default_deleteIS2_EED2Ev = comdat any

$_ZN4absl12lts_2023080212log_internal10LogMessagelsIN6google8protobuf7EditionETnNSt9enable_ifIXsr16strings_internal16HasAbslStringifyIT_EE5valueEiE4typeELi0EEERS2_RKS8_ = comdat any

$_ZN4absl12lts_202308026StatusD2Ev = comdat any

$_ZN4absl12lts_202308028StatusOrIN6google8protobuf18FeatureSetDefaultsEED2Ev = comdat any

$_ZNSt4pairINSt7__cxx1112basic_stringIcSt11char_traitsIcESaIcEEES5_EC2IRA1_KcRA2_S8_TnNSt9enable_ifIXaaclsr5_PCCPE22_MoveConstructiblePairIT_T0_EEclsr5_PCCPE30_ImplicitlyMoveConvertiblePairISE_SF_EEEbE4typeELb1EEEOSE_OSF_ = comdat any

$_ZN4absl12lts_2023080212log_internal10LogMessagelsIN6google8protobuf8compiler20CommandLineInterface4ModeETnNSt9enable_ifIXntsr16strings_internal16HasAbslStringifyIT_EE5valueEiE4typeELi0EEERS2_RKSA_ = comdat any

$_ZN4absl12lts_202308028StrSplitINS0_9ByAnyCharENS0_9SkipEmptyEEENS0_16strings_internal8SplitterINS4_15SelectDelimiterIT_E4typeET0_St17basic_string_viewIcSt11char_traitsIcEEEENS4_23ConvertibleToStringViewES7_SA_ = comdat any

$_ZNSt6vectorINSt7__cxx1112basic_stringIcSt11char_traitsIcESaIcEEESaIS5_EEaSEOS7_ = comdat any

$_ZN4absl12lts_2023080218container_internal12raw_hash_mapINS1_17FlatHashMapPolicyINSt7__cxx1112basic_stringIcSt11char_traitsIcESaIcEEES9_EENS1_10StringHashENS1_8StringEqESaISt4pairIKS9_S9_EEEixIS9_SA_EEDTclsrT0_5valueclL_ZSt9addressofISF_EPT_RSL_EclL_ZSt7declvalIRSF_EDTcl9__declvalISL_ELi0EEEvEEEEERKSL_ = comdat any

$_ZN6google8protobuf13Edition_ParseESt17basic_string_viewIcSt11char_traitsIcEEPNS0_7EditionE = comdat any

$_ZN4absl12lts_2023080218container_internal12raw_hash_mapINS1_17FlatHashMapPolicyINSt7__cxx1112basic_stringIcSt11char_traitsIcESaIcEEES9_EENS1_10StringHashENS1_8StringEqESaISt4pairIKS9_S9_EEEixIS9_SA_TnPT_LPS9_0EEEDTclsrT0_5valueclL_ZSt9addressofISF_ESK_RSJ_EclL_ZSt7declvalIRSF_EDTcl9__declvalISJ_ELi0EEEvEEEEEOSJ_ = comdat any

$_ZN6google8protobuf8compiler20CommandLineInterface15OutputDirectiveC2Ev = comdat any

$_ZNSt6vectorIN6google8protobuf8compiler20CommandLineInterface15OutputDirectiveESaIS4_EE9push_backERKS4_ = comdat any

$_ZN6google8protobuf8compiler20CommandLineInterface15OutputDirectiveD2Ev = comdat any

$_ZN6google8protobuf2io7Printer5PrintIJA10_cNSt7__cxx1112basic_stringIcSt11char_traitsIcESaIcEEEEEEvSt17basic_string_viewIcS8_EDpRKT_ = comdat any

$_ZN6google8protobuf2io7PrinterD2Ev = comdat any

$_ZN6google8protobuf8compiler20CommandLineInterface12ErrorPrinterD2Ev = comdat any

$_ZN6google8protobuf8compiler20CommandLineInterface20GeneratorContextImplD2Ev = comdat any

$_ZN6google8protobuf8compiler20CommandLineInterface20GeneratorContextImplD0Ev = comdat any

$_ZN6google8protobuf8compiler20CommandLineInterface20GeneratorContextImpl15ListParsedFilesEPSt6vectorIPKNS0_14FileDescriptorESaIS7_EE = comdat any

$_ZN6google8protobuf8compiler20CommandLineInterface18MemoryOutputStream4NextEPPvPi = comdat any

$_ZN6google8protobuf8compiler20CommandLineInterface18MemoryOutputStream6BackUpEi = comdat any

$_ZNK6google8protobuf8compiler20CommandLineInterface18MemoryOutputStream9ByteCountEv = comdat any

$_ZNK6google8protobuf2io20ZeroCopyOutputStream14AllowsAliasingEv = comdat any

$_ZN6google8protobuf5Arena16DefaultConstructINS0_28GeneratedCodeInfo_AnnotationEEEPvPS1_ = comdat any

$_ZN4absl12lts_2023080218container_internal12raw_hash_setINS1_17FlatHashSetPolicyINSt7__cxx1112basic_stringIcSt11char_traitsIcESaIcEEEEENS1_10StringHashENS1_8StringEqESaIS9_EED2Ev = comdat any

$_ZN4absl12lts_2023080218container_internal10btree_nodeINS1_10map_paramsINSt7__cxx1112basic_stringIcSt11char_traitsIcESaIcEEEN6google8protobuf8compiler20CommandLineInterface13GeneratorInfoESt4lessIS9_ESaISt4pairIKS9_SE_EELi256ELb0EEEE16clear_and_deleteEPSM_PSK_ = comdat any

$_ZN6google8protobuf8compiler20CommandLineInterface12ErrorPrinterD0Ev = comdat any

$_ZN6google8protobuf8compiler20CommandLineInterface12ErrorPrinter11RecordErrorESt17basic_string_viewIcSt11char_traitsIcEEiiS7_ = comdat any

$_ZN6google8protobuf8compiler20CommandLineInterface12ErrorPrinter13RecordWarningESt17basic_string_viewIcSt11char_traitsIcEEiiS7_ = comdat any

$_ZN6google8protobuf8compiler20CommandLineInterface12ErrorPrinter11RecordErrorEiiSt17basic_string_viewIcSt11char_traitsIcEE = comdat any

$_ZN6google8protobuf8compiler20CommandLineInterface12ErrorPrinter13RecordWarningEiiSt17basic_string_viewIcSt11char_traitsIcEE = comdat any

$_ZN6google8protobuf8compiler20CommandLineInterface12ErrorPrinter11RecordErrorESt17basic_string_viewIcSt11char_traitsIcEES7_PKNS0_7MessageENS0_14DescriptorPool14ErrorCollector13ErrorLocationES7_ = comdat any

$_ZN6google8protobuf8compiler20CommandLineInterface12ErrorPrinter13RecordWarningESt17basic_string_viewIcSt11char_traitsIcEES7_PKNS0_7MessageENS0_14DescriptorPool14ErrorCollector13ErrorLocationES7_ = comdat any

$_ZThn8_N6google8protobuf8compiler20CommandLineInterface12ErrorPrinterD1Ev = comdat any

$_ZThn8_N6google8protobuf8compiler20CommandLineInterface12ErrorPrinterD0Ev = comdat any

$_ZThn8_N6google8protobuf8compiler20CommandLineInterface12ErrorPrinter11RecordErrorEiiSt17basic_string_viewIcSt11char_traitsIcEE = comdat any

$_ZThn8_N6google8protobuf8compiler20CommandLineInterface12ErrorPrinter13RecordWarningEiiSt17basic_string_viewIcSt11char_traitsIcEE = comdat any

$_ZThn16_N6google8protobuf8compiler20CommandLineInterface12ErrorPrinterD1Ev = comdat any

$_ZThn16_N6google8protobuf8compiler20CommandLineInterface12ErrorPrinterD0Ev = comdat any

$_ZThn16_N6google8protobuf8compiler20CommandLineInterface12ErrorPrinter11RecordErrorESt17basic_string_viewIcSt11char_traitsIcEES7_PKNS0_7MessageENS0_14DescriptorPool14ErrorCollector13ErrorLocationES7_ = comdat any

$_ZThn16_N6google8protobuf8compiler20CommandLineInterface12ErrorPrinter13RecordWarningESt17basic_string_viewIcSt11char_traitsIcEES7_PKNS0_7MessageENS0_14DescriptorPool14ErrorCollector13ErrorLocationES7_ = comdat any

$_ZN6google8protobuf8compiler20CommandLineInterface12ErrorPrinter17AddErrorOrWarningESt17basic_string_viewIcSt11char_traitsIcEEiiS7_S7_RSo = comdat any

$_ZN6google8protobuf5Arena16DefaultConstructINS0_15DescriptorProtoEEEPvPS1_ = comdat any

$_ZNSt6vectorISt4pairINSt7__cxx1112basic_stringIcSt11char_traitsIcESaIcEEES6_ESaIS7_EE12emplace_backIJRA1_KcS6_EEERS7_DpOT_ = comdat any

$_ZNSt6vectorISt4pairINSt7__cxx1112basic_stringIcSt11char_traitsIcESaIcEEES6_ESaIS7_EE17_M_realloc_insertIJRA1_KcRSt17basic_string_viewIcS4_EEEEvN9__gnu_cxx17__normal_iteratorIPS7_S9_EEDpOT_ = comdat any

$_ZNSt4pairINSt7__cxx1112basic_stringIcSt11char_traitsIcESaIcEEES5_EC2IRA1_KcRSt17basic_string_viewIcS3_ETnNSt9enable_ifIXaaclsr5_PCCPE22_MoveConstructiblePairIT_T0_EEntclsr5_PCCPE30_ImplicitlyMoveConvertiblePairISF_SG_EEEbE4typeELb0EEEOSF_OSG_ = comdat any

$_ZNSt6vectorISt4pairINSt7__cxx1112basic_stringIcSt11char_traitsIcESaIcEEES6_ESaIS7_EE17_M_realloc_insertIJRA1_KcS6_EEEvN9__gnu_cxx17__normal_iteratorIPS7_S9_EEDpOT_ = comdat any

$_ZNSt4pairINSt7__cxx1112basic_stringIcSt11char_traitsIcESaIcEEES5_EC2IRA1_KcS5_TnNSt9enable_ifIXaaclsr5_PCCPE22_MoveConstructiblePairIT_T0_EEclsr5_PCCPE30_ImplicitlyMoveConvertiblePairISC_SD_EEEbE4typeELb1EEEOSC_OSD_ = comdat any

$_ZNK4absl12lts_2023080216strings_internal8SplitterINS0_6ByCharENS0_10AllowEmptyESt17basic_string_viewIcSt11char_traitsIcEEE18ConvertToContainerISt6vectorINSt7__cxx1112basic_stringIcS7_SaIcEEESaISF_EESF_Lb0EEclERKS9_ = comdat any

$_ZNK4absl12lts_2023080216strings_internal8SplitterINS0_6ByCharENS0_10AllowEmptyESt17basic_string_viewIcSt11char_traitsIcEEE18ConvertToContainerISt6vectorIS8_SaIS8_EES8_Lb0EEclERKS9_ = comdat any

$_ZNSt6vectorISt17basic_string_viewIcSt11char_traitsIcEESaIS3_EE15_M_range_insertIPZNK4absl12lts_2023080216strings_internal8SplitterINS8_6ByCharENS8_10AllowEmptyES3_E18ConvertToContainerIS5_S3_Lb0EEclERKSD_E8raw_viewEEvN9__gnu_cxx17__normal_iteratorIPS3_S5_EET_SO_St20forward_iterator_tag = comdat any

$_ZSt16__do_uninit_copyIN9__gnu_cxx17__normal_iteratorIPKSt17basic_string_viewIcSt11char_traitsIcEESt6vectorIS5_SaIS5_EEEEPNSt7__cxx1112basic_stringIcS4_SaIcEEEET0_T_SI_SH_ = comdat any

$_ZN4absl12lts_2023080218container_internal12raw_hash_setINS1_17FlatHashSetPolicyINSt7__cxx1112basic_stringIcSt11char_traitsIcESaIcEEEEENS1_10StringHashENS1_8StringEqESaIS9_EEC2IN9__gnu_cxx17__normal_iteratorIPS9_St6vectorIS9_SD_EEEEET_SM_mRKSB_RKSC_RKSD_ = comdat any

$_ZN4absl12lts_2023080218container_internal5btreeINS1_10set_paramsISt4pairIiiESt4lessIS5_ESaIS5_ELi256ELb0EEEE13insert_uniqueIS5_JS5_EEES4_INS1_14btree_iteratorINS1_10btree_nodeIS9_EERS5_PS5_EEbERKT_DpOT0_ = comdat any

$_ZN4absl12lts_2023080218container_internal5btreeINS1_10set_paramsISt4pairIiiESt4lessIS5_ESaIS5_ELi256ELb0EEEE16internal_emplaceIJS5_EEENS1_14btree_iteratorINS1_10btree_nodeIS9_EERS5_PS5_EESH_DpOT_ = comdat any

$_ZN4absl12lts_2023080218container_internal5btreeINS1_10set_paramsISt4pairIiiESt4lessIS5_ESaIS5_ELi256ELb0EEEE18rebalance_or_splitEPNS1_14btree_iteratorINS1_10btree_nodeIS9_EERS5_PS5_EE = comdat any

$_ZN4absl12lts_2023080218container_internal10btree_nodeINS1_10set_paramsISt4pairIiiESt4lessIS5_ESaIS5_ELi256ELb0EEEE23rebalance_right_to_leftEhPSA_PS8_ = comdat any

$_ZN4absl12lts_2023080218container_internal10btree_nodeINS1_10set_paramsISt4pairIiiESt4lessIS5_ESaIS5_ELi256ELb0EEEE23rebalance_left_to_rightEhPSA_PS8_ = comdat any

$_ZN4absl12lts_2023080218container_internal10btree_nodeINS1_10set_paramsISt4pairIiiESt4lessIS5_ESaIS5_ELi256ELb0EEEE5splitEiPSA_PS8_ = comdat any

$_ZN4absl12lts_2023080218container_internal5btreeINS1_10set_paramsISt4pairIiiESt4lessIS5_ESaIS5_ELi256ELb0EEEE5clearEv = comdat any

$_ZN4absl12lts_2023080218container_internal10btree_nodeINS1_10map_paramsINSt7__cxx1112basic_stringIcSt11char_traitsIcESaIcEEES9_St4lessIS9_ESaISt4pairIKS9_S9_EELi256ELb0EEEE16clear_and_deleteEPSH_PSF_ = comdat any

$_ZNSt6vectorIPKN6google8protobuf14FileDescriptorESaIS4_EEaSERKS6_ = comdat any

$_ZNSt7__cxx1112basic_stringIcSt11char_traitsIcESaIcEE12_M_constructIPKcEEvT_S8_St20forward_iterator_tag = comdat any

$_ZZNSt7__cxx1112basic_stringIcSt11char_traitsIcESaIcEE12_M_constructIPKcEEvT_S8_St20forward_iterator_tagEN6_GuardD2Ev = comdat any

$_ZN6google8protobuf5Arena16DefaultConstructINS0_19FileDescriptorProtoEEEPvPS1_ = comdat any

$_ZNK4absl12lts_2023080216strings_internal8SplitterINS0_9ByAnyCharENS0_9SkipEmptyESt17basic_string_viewIcSt11char_traitsIcEEE18ConvertToContainerISt6vectorINSt7__cxx1112basic_stringIcS7_SaIcEEESaISF_EESF_Lb0EEclERKS9_ = comdat any

$_ZNK4absl12lts_2023080216strings_internal8SplitterINS0_9ByAnyCharENS0_9SkipEmptyESt17basic_string_viewIcSt11char_traitsIcEEE18ConvertToContainerISt6vectorIS8_SaIS8_EES8_Lb0EEclERKS9_ = comdat any

$_ZN4absl12lts_2023080216strings_internal13SplitIteratorINS1_8SplitterINS0_9ByAnyCharENS0_9SkipEmptyESt17basic_string_viewIcSt11char_traitsIcEEEEEC2ENSB_5StateEPKSA_ = comdat any

$_ZNSt6vectorISt17basic_string_viewIcSt11char_traitsIcEESaIS3_EE15_M_range_insertIPZNK4absl12lts_2023080216strings_internal8SplitterINS8_9ByAnyCharENS8_9SkipEmptyES3_E18ConvertToContainerIS5_S3_Lb0EEclERKSD_E8raw_viewEEvN9__gnu_cxx17__normal_iteratorIPS3_S5_EET_SO_St20forward_iterator_tag = comdat any

$_ZN4absl12lts_2023080218container_internal12raw_hash_setINS1_17FlatHashSetPolicyIPKN6google8protobuf14FileDescriptorEEENS1_6HashEqIS8_vE4HashENSB_2EqESaIS8_EE14prepare_insertEm = comdat any

$_ZN4absl12lts_2023080213hash_internal15MixingHashState21CombineContiguousImplEmPKhmSt17integral_constantIiLi8EE = comdat any

$_ZN4absl12lts_2023080218container_internal12raw_hash_setINS1_17FlatHashSetPolicyIPKN6google8protobuf14FileDescriptorEEENS1_6HashEqIS8_vE4HashENSB_2EqESaIS8_EE6resizeEm = comdat any

$_ZN4absl12lts_2023080218container_internal12raw_hash_setINS1_17FlatHashSetPolicyIPKN6google8protobuf14FileDescriptorEEENS1_6HashEqIS8_vE4HashENSB_2EqESaIS8_EE12hash_slot_fnEPvSG_ = comdat any

$_ZN4absl12lts_2023080218container_internal19TransferRelocatableILm8EEEvPvS3_S3_ = comdat any

$_ZN4absl12lts_2023080218container_internal18DeallocateStandardILm8EEEvRNS1_12CommonFieldsERKNS1_15PolicyFunctionsE = comdat any

$_ZN4absl12lts_2023080218container_internal5btreeINS1_10map_paramsINSt7__cxx1112basic_stringIcSt11char_traitsIcESaIcEEES9_St4lessIS9_ESaISt4pairIKS9_S9_EELi256ELb0EEEE13insert_uniqueIS9_JSE_EEESC_INS1_14btree_iteratorINS1_10btree_nodeISG_EERSE_PSE_EEbERKT_DpOT0_ = comdat any

$_ZN4absl12lts_2023080218container_internal5btreeINS1_10map_paramsINSt7__cxx1112basic_stringIcSt11char_traitsIcESaIcEEES9_St4lessIS9_ESaISt4pairIKS9_S9_EELi256ELb0EEEE16internal_emplaceIJSE_EEENS1_14btree_iteratorINS1_10btree_nodeISG_EERSE_PSE_EESO_DpOT_ = comdat any

$_ZZN4absl12lts_2023080218container_internal5btreeINS1_10map_paramsINSt7__cxx1112basic_stringIcSt11char_traitsIcESaIcEEES9_St4lessIS9_ESaISt4pairIKS9_S9_EELi256ELb0EEEE16internal_emplaceIJSE_EEENS1_14btree_iteratorINS1_10btree_nodeISG_EERSE_PSE_EESO_DpOT_ENKUlhE_clEh = comdat any

$_ZN4absl12lts_2023080218container_internal5btreeINS1_10map_paramsINSt7__cxx1112basic_stringIcSt11char_traitsIcESaIcEEES9_St4lessIS9_ESaISt4pairIKS9_S9_EELi256ELb0EEEE18rebalance_or_splitEPNS1_14btree_iteratorINS1_10btree_nodeISG_EERSE_PSE_EE = comdat any

$_ZN4absl12lts_2023080218container_internal10btree_nodeINS1_10map_paramsINSt7__cxx1112basic_stringIcSt11char_traitsIcESaIcEEES9_St4lessIS9_ESaISt4pairIKS9_S9_EELi256ELb0EEEE13emplace_valueIJSE_EEEvhPSF_DpOT_ = comdat any

$_ZN4absl12lts_2023080218container_internal10btree_nodeINS1_10map_paramsINSt7__cxx1112basic_stringIcSt11char_traitsIcESaIcEEES9_St4lessIS9_ESaISt4pairIKS9_S9_EELi256ELb0EEEE23rebalance_right_to_leftEhPSH_PSF_ = comdat any

$_ZN4absl12lts_2023080218container_internal10btree_nodeINS1_10map_paramsINSt7__cxx1112basic_stringIcSt11char_traitsIcESaIcEEES9_St4lessIS9_ESaISt4pairIKS9_S9_EELi256ELb0EEEE23rebalance_left_to_rightEhPSH_PSF_ = comdat any

$_ZN4absl12lts_2023080218container_internal10btree_nodeINS1_10map_paramsINSt7__cxx1112basic_stringIcSt11char_traitsIcESaIcEEES9_St4lessIS9_ESaISt4pairIKS9_S9_EELi256ELb0EEEE5splitEiPSH_PSF_ = comdat any

$_ZN4absl12lts_2023080218container_internal10btree_nodeINS1_10map_paramsINSt7__cxx1112basic_stringIcSt11char_traitsIcESaIcEEES9_St4lessIS9_ESaISt4pairIKS9_S9_EELi256ELb0EEEE13emplace_valueIJPNS1_13map_slot_typeIS9_S9_EEEEEvhPSF_DpOT_ = comdat any

$_ZNSt6vectorINSt7__cxx1112basic_stringIcSt11char_traitsIcESaIcEEESaIS5_EE17_M_realloc_insertIJRKS5_EEEvN9__gnu_cxx17__normal_iteratorIPS5_S7_EEDpOT_ = comdat any

$_ZN4absl12lts_2023080218container_internal5btreeINS1_10map_paramsINSt7__cxx1112basic_stringIcSt11char_traitsIcESaIcEEES9_St4lessIS9_ESaISt4pairIKS9_S9_EELi256ELb0EEEE13insert_uniqueIS9_JRKSt21piecewise_construct_tSt5tupleIJOS9_EESM_IJRA1_KcEEEEESC_INS1_14btree_iteratorINS1_10btree_nodeISG_EERSE_PSE_EEbERKT_DpOT0_ = comdat any

$_ZN4absl12lts_2023080218container_internal5btreeINS1_10map_paramsINSt7__cxx1112basic_stringIcSt11char_traitsIcESaIcEEES9_St4lessIS9_ESaISt4pairIKS9_S9_EELi256ELb0EEEE16internal_emplaceIJRKSt21piecewise_construct_tSt5tupleIJOS9_EESM_IJRA1_KcEEEEENS1_14btree_iteratorINS1_10btree_nodeISG_EERSE_PSE_EESY_DpOT_ = comdat any

$_ZZN4absl12lts_2023080218container_internal5btreeINS1_10map_paramsINSt7__cxx1112basic_stringIcSt11char_traitsIcESaIcEEES9_St4lessIS9_ESaISt4pairIKS9_S9_EELi256ELb0EEEE16internal_emplaceIJRKSt21piecewise_construct_tSt5tupleIJOS9_EESM_IJRA1_KcEEEEENS1_14btree_iteratorINS1_10btree_nodeISG_EERSE_PSE_EESY_DpOT_ENKUlhE_clEh = comdat any

$_ZN4absl12lts_2023080218container_internal10btree_nodeINS1_10map_paramsINSt7__cxx1112basic_stringIcSt11char_traitsIcESaIcEEES9_St4lessIS9_ESaISt4pairIKS9_S9_EELi256ELb0EEEE13emplace_valueIJRKSt21piecewise_construct_tSt5tupleIJOS9_EESM_IJRA1_KcEEEEEvhPSF_DpOT_ = comdat any

$_ZNSt4pairINSt7__cxx1112basic_stringIcSt11char_traitsIcESaIcEEES5_EC2IJOS5_EJLm0EEJRA1_KcEJLm0EEEERSt5tupleIJDpT_EERSC_IJDpT1_EESt12_Index_tupleIJXspT0_EEESL_IJXspT2_EEE = comdat any

$_ZN4absl12lts_2023080218container_internal5btreeINS1_10map_paramsINSt7__cxx1112basic_stringIcSt11char_traitsIcESaIcEEEN6google8protobuf8compiler20CommandLineInterface13GeneratorInfoESt4lessIS9_ESaISt4pairIKS9_SE_EELi256ELb0EEEE13insert_uniqueIS9_JRKSt21piecewise_construct_tSt5tupleIJRSI_EESR_IJEEEEESH_INS1_14btree_iteratorINS1_10btree_nodeISL_EERSJ_PSJ_EEbERKT_DpOT0_ = comdat any

$_ZN4absl12lts_2023080218container_internal5btreeINS1_10map_paramsINSt7__cxx1112basic_stringIcSt11char_traitsIcESaIcEEEN6google8protobuf8compiler20CommandLineInterface13GeneratorInfoESt4lessIS9_ESaISt4pairIKS9_SE_EELi256ELb0EEEE16internal_emplaceIJRKSt21piecewise_construct_tSt5tupleIJRSI_EESR_IJEEEEENS1_14btree_iteratorINS1_10btree_nodeISL_EERSJ_PSJ_EES10_DpOT_ = comdat any

$_ZN4absl12lts_2023080218container_internal5btreeINS1_10map_paramsINSt7__cxx1112basic_stringIcSt11char_traitsIcESaIcEEEN6google8protobuf8compiler20CommandLineInterface13GeneratorInfoESt4lessIS9_ESaISt4pairIKS9_SE_EELi256ELb0EEEE18rebalance_or_splitEPNS1_14btree_iteratorINS1_10btree_nodeISL_EERSJ_PSJ_EE = comdat any

$_ZN4absl12lts_2023080218container_internal10btree_nodeINS1_10map_paramsINSt7__cxx1112basic_stringIcSt11char_traitsIcESaIcEEEN6google8protobuf8compiler20CommandLineInterface13GeneratorInfoESt4lessIS9_ESaISt4pairIKS9_SE_EELi256ELb0EEEE13emplace_valueIJRKSt21piecewise_construct_tSt5tupleIJRSI_EESR_IJEEEEEvhPSK_DpOT_ = comdat any

$_ZN4absl12lts_2023080218container_internal10btree_nodeINS1_10map_paramsINSt7__cxx1112basic_stringIcSt11char_traitsIcESaIcEEEN6google8protobuf8compiler20CommandLineInterface13GeneratorInfoESt4lessIS9_ESaISt4pairIKS9_SE_EELi256ELb0EEEE10transfer_nEmmmPSM_PSK_ = comdat any

$_ZN4absl12lts_2023080218container_internal10btree_nodeINS1_10map_paramsINSt7__cxx1112basic_stringIcSt11char_traitsIcESaIcEEEN6google8protobuf8compiler20CommandLineInterface13GeneratorInfoESt4lessIS9_ESaISt4pairIKS9_SE_EELi256ELb0EEEE23rebalance_right_to_leftEhPSM_PSK_ = comdat any

$_ZN4absl12lts_2023080218container_internal10btree_nodeINS1_10map_paramsINSt7__cxx1112basic_stringIcSt11char_traitsIcESaIcEEEN6google8protobuf8compiler20CommandLineInterface13GeneratorInfoESt4lessIS9_ESaISt4pairIKS9_SE_EELi256ELb0EEEE23rebalance_left_to_rightEhPSM_PSK_ = comdat any

$_ZN4absl12lts_2023080218container_internal10btree_nodeINS1_10map_paramsINSt7__cxx1112basic_stringIcSt11char_traitsIcESaIcEEEN6google8protobuf8compiler20CommandLineInterface13GeneratorInfoESt4lessIS9_ESaISt4pairIKS9_SE_EELi256ELb0EEEE5splitEiPSM_PSK_ = comdat any

$_ZN4absl12lts_2023080218container_internal10btree_nodeINS1_10map_paramsINSt7__cxx1112basic_stringIcSt11char_traitsIcESaIcEEEN6google8protobuf8compiler20CommandLineInterface13GeneratorInfoESt4lessIS9_ESaISt4pairIKS9_SE_EELi256ELb0EEEE19transfer_n_backwardEmmmPSM_PSK_ = comdat any

$_ZN4absl12lts_2023080218container_internal10btree_nodeINS1_10map_paramsINSt7__cxx1112basic_stringIcSt11char_traitsIcESaIcEEEN6google8protobuf8compiler20CommandLineInterface13GeneratorInfoESt4lessIS9_ESaISt4pairIKS9_SE_EELi256ELb0EEEE13emplace_valueIJPNS1_13map_slot_typeIS9_SE_EEEEEvhPSK_DpOT_ = comdat any

$_ZN4absl12lts_2023080218container_internal12raw_hash_setINS1_17FlatHashMapPolicyINSt7__cxx1112basic_stringIcSt11char_traitsIcESaIcEEEN6google8protobuf8compiler20CommandLineInterface13GeneratorInfoEEENS1_10StringHashENS1_8StringEqESaISt4pairIKS9_SE_EEE22find_or_prepare_insertIS9_EESI_ImbERKT_ = comdat any

$_ZN4absl12lts_2023080218container_internal12raw_hash_setINS1_17FlatHashMapPolicyINSt7__cxx1112basic_stringIcSt11char_traitsIcESaIcEEEN6google8protobuf8compiler20CommandLineInterface13GeneratorInfoEEENS1_10StringHashENS1_8StringEqESaISt4pairIKS9_SE_EEE14prepare_insertEm = comdat any

$_ZN4absl12lts_2023080218container_internal12raw_hash_setINS1_17FlatHashMapPolicyINSt7__cxx1112basic_stringIcSt11char_traitsIcESaIcEEEN6google8protobuf8compiler20CommandLineInterface13GeneratorInfoEEENS1_10StringHashENS1_8StringEqESaISt4pairIKS9_SE_EEE6resizeEm = comdat any

$_ZN4absl12lts_2023080218container_internal12raw_hash_setINS1_17FlatHashMapPolicyINSt7__cxx1112basic_stringIcSt11char_traitsIcESaIcEEEN6google8protobuf8compiler20CommandLineInterface13GeneratorInfoEEENS1_10StringHashENS1_8StringEqESaISt4pairIKS9_SE_EEE12hash_slot_fnEPvSN_ = comdat any

$_ZN4absl12lts_2023080218container_internal12raw_hash_setINS1_17FlatHashMapPolicyINSt7__cxx1112basic_stringIcSt11char_traitsIcESaIcEEEN6google8protobuf8compiler20CommandLineInterface13GeneratorInfoEEENS1_10StringHashENS1_8StringEqESaISt4pairIKS9_SE_EEE16transfer_slot_fnEPvSN_SN_ = comdat any

$_ZN4absl12lts_2023080218container_internal12raw_hash_setINS1_17FlatHashMapPolicyINSt7__cxx1112basic_stringIcSt11char_traitsIcESaIcEEESt10unique_ptrIN6google8protobuf8compiler20CommandLineInterface20GeneratorContextImplESt14default_deleteISF_EEEENS1_10StringHashENS1_8StringEqESaISt4pairIKS9_SI_EEE22find_or_prepare_insertIS9_EESM_ImbERKT_ = comdat any

$_ZN4absl12lts_2023080218container_internal12raw_hash_setINS1_17FlatHashMapPolicyINSt7__cxx1112basic_stringIcSt11char_traitsIcESaIcEEESt10unique_ptrIN6google8protobuf8compiler20CommandLineInterface20GeneratorContextImplESt14default_deleteISF_EEEENS1_10StringHashENS1_8StringEqESaISt4pairIKS9_SI_EEE14prepare_insertEm = comdat any

$_ZN4absl12lts_2023080218container_internal12raw_hash_setINS1_17FlatHashMapPolicyINSt7__cxx1112basic_stringIcSt11char_traitsIcESaIcEEESt10unique_ptrIN6google8protobuf8compiler20CommandLineInterface20GeneratorContextImplESt14default_deleteISF_EEEENS1_10StringHashENS1_8StringEqESaISt4pairIKS9_SI_EEE6resizeEm = comdat any

$_ZN4absl12lts_2023080218container_internal12raw_hash_setINS1_17FlatHashMapPolicyINSt7__cxx1112basic_stringIcSt11char_traitsIcESaIcEEESt10unique_ptrIN6google8protobuf8compiler20CommandLineInterface20GeneratorContextImplESt14default_deleteISF_EEEENS1_10StringHashENS1_8StringEqESaISt4pairIKS9_SI_EEE12hash_slot_fnEPvSR_ = comdat any

$_ZN4absl12lts_2023080218container_internal12raw_hash_setINS1_17FlatHashMapPolicyINSt7__cxx1112basic_stringIcSt11char_traitsIcESaIcEEESt10unique_ptrIN6google8protobuf8compiler20CommandLineInterface20GeneratorContextImplESt14default_deleteISF_EEEENS1_10StringHashENS1_8StringEqESaISt4pairIKS9_SI_EEE16transfer_slot_fnEPvSR_SR_ = comdat any

$_ZN4absl12lts_2023080219str_format_internal17FormatRawSinkImpl5FlushINS0_12log_internal13StringifySinkEEEvPvSt17basic_string_viewIcSt11char_traitsIcEE = comdat any

$_ZN4absl12lts_2023080218container_internal12raw_hash_setINS1_17FlatHashSetPolicyINSt7__cxx1112basic_stringIcSt11char_traitsIcESaIcEEEEENS1_10StringHashENS1_8StringEqESaIS9_EE4findIS9_EENSE_8iteratorERKT_m = comdat any

$_ZN4absl12lts_2023080218container_internal12raw_hash_setINS1_17FlatHashSetPolicyINSt7__cxx1112basic_stringIcSt11char_traitsIcESaIcEEEEENS1_10StringHashENS1_8StringEqESaIS9_EE12hash_slot_fnEPvSF_ = comdat any

$_ZN4absl12lts_2023080218container_internal12raw_hash_setINS1_17FlatHashSetPolicyINSt7__cxx1112basic_stringIcSt11char_traitsIcESaIcEEEEENS1_10StringHashENS1_8StringEqESaIS9_EE16transfer_slot_fnEPvSF_SF_ = comdat any

$_ZNSt6vectorINSt7__cxx1112basic_stringIcSt11char_traitsIcESaIcEEESaIS5_EE17_M_realloc_insertIJS5_EEEvN9__gnu_cxx17__normal_iteratorIPS5_S7_EEDpOT_ = comdat any

$_ZN4absl12lts_2023080218container_internal12raw_hash_setINS1_17FlatHashMapPolicyINSt7__cxx1112basic_stringIcSt11char_traitsIcESaIcEEES9_EENS1_10StringHashENS1_8StringEqESaISt4pairIKS9_S9_EEE4findIS9_EENSH_8iteratorERKT_m = comdat any

$_ZNSt6vectorISt4pairINSt7__cxx1112basic_stringIcSt11char_traitsIcESaIcEEES6_ESaIS7_EE17_M_realloc_insertIJS7_EEEvN9__gnu_cxx17__normal_iteratorIPS7_S9_EEDpOT_ = comdat any

$_ZNK4absl12lts_2023080216strings_internal8SplitterINS0_8ByStringENS0_9SkipEmptyESt17basic_string_viewIcSt11char_traitsIcEEE18ConvertToContainerISt6vectorINSt7__cxx1112basic_stringIcS7_SaIcEEESaISF_EESF_Lb0EEclERKS9_ = comdat any

$_ZNK4absl12lts_2023080216strings_internal8SplitterINS0_8ByStringENS0_9SkipEmptyESt17basic_string_viewIcSt11char_traitsIcEEE18ConvertToContainerISt6vectorIS8_SaIS8_EES8_Lb0EEclERKS9_ = comdat any

$_ZN4absl12lts_2023080216strings_internal13SplitIteratorINS1_8SplitterINS0_8ByStringENS0_9SkipEmptyESt17basic_string_viewIcSt11char_traitsIcEEEEEC2ENSB_5StateEPKSA_ = comdat any

$_ZNSt6vectorISt17basic_string_viewIcSt11char_traitsIcEESaIS3_EE15_M_range_insertIPZNK4absl12lts_2023080216strings_internal8SplitterINS8_8ByStringENS8_9SkipEmptyES3_E18ConvertToContainerIS5_S3_Lb0EEclERKSD_E8raw_viewEEvN9__gnu_cxx17__normal_iteratorIPS3_S5_EET_SO_St20forward_iterator_tag = comdat any

$_ZN4absl12lts_2023080218container_internal12raw_hash_setINS1_17FlatHashSetPolicyINSt7__cxx1112basic_stringIcSt11char_traitsIcESaIcEEEEENS1_10StringHashENS1_8StringEqESaIS9_EE22find_or_prepare_insertIS9_EESt4pairImbERKT_ = comdat any

$_ZN4absl12lts_2023080218container_internal12raw_hash_setINS1_17FlatHashSetPolicyINSt7__cxx1112basic_stringIcSt11char_traitsIcESaIcEEEEENS1_10StringHashENS1_8StringEqESaIS9_EE14prepare_insertEm = comdat any

$_ZN4absl12lts_2023080218container_internal12raw_hash_setINS1_17FlatHashSetPolicyINSt7__cxx1112basic_stringIcSt11char_traitsIcESaIcEEEEENS1_10StringHashENS1_8StringEqESaIS9_EE6resizeEm = comdat any

$_ZN4absl12lts_2023080218container_internal12raw_hash_setINS1_17FlatHashMapPolicyINSt7__cxx1112basic_stringIcSt11char_traitsIcESaIcEEES9_EENS1_10StringHashENS1_8StringEqESaISt4pairIKS9_S9_EEE22find_or_prepare_insertIS9_EESD_ImbERKT_ = comdat any

$_ZN4absl12lts_2023080218container_internal12raw_hash_setINS1_17FlatHashMapPolicyINSt7__cxx1112basic_stringIcSt11char_traitsIcESaIcEEES9_EENS1_10StringHashENS1_8StringEqESaISt4pairIKS9_S9_EEE14prepare_insertEm = comdat any

$_ZN4absl12lts_2023080218container_internal12raw_hash_setINS1_17FlatHashMapPolicyINSt7__cxx1112basic_stringIcSt11char_traitsIcESaIcEEES9_EENS1_10StringHashENS1_8StringEqESaISt4pairIKS9_S9_EEE6resizeEm = comdat any

$_ZN4absl12lts_2023080218container_internal12raw_hash_setINS1_17FlatHashMapPolicyINSt7__cxx1112basic_stringIcSt11char_traitsIcESaIcEEES9_EENS1_10StringHashENS1_8StringEqESaISt4pairIKS9_S9_EEE12hash_slot_fnEPvSI_ = comdat any

$_ZN4absl12lts_2023080218container_internal12raw_hash_setINS1_17FlatHashMapPolicyINSt7__cxx1112basic_stringIcSt11char_traitsIcESaIcEEES9_EENS1_10StringHashENS1_8StringEqESaISt4pairIKS9_S9_EEE16transfer_slot_fnEPvSI_SI_ = comdat any

$_ZNSt6vectorIN6google8protobuf8compiler20CommandLineInterface15OutputDirectiveESaIS4_EE17_M_realloc_insertIJRKS4_EEEvN9__gnu_cxx17__normal_iteratorIPS4_S6_EEDpOT_ = comdat any

$_ZNSt16allocator_traitsISaIN6google8protobuf8compiler20CommandLineInterface15OutputDirectiveEEE7destroyIS4_EEvRS5_PT_ = comdat any

$_ZN4absl12lts_2023080219str_format_internal17FormatRawSinkImpl5FlushINS0_16strings_internal13StringifySinkEEEvPvSt17basic_string_viewIcSt11char_traitsIcEE = comdat any

$_ZN6google8protobuf2io7Printer5PrintIN4absl12lts_2023080213flat_hash_mapISt17basic_string_viewIcSt11char_traitsIcEESA_NS5_18container_internal10StringHashENSB_8StringEqESaISt4pairIKSA_SA_EEEEEEvRKT_SA_ = comdat any

$_ZN4absl12lts_2023080218container_internal12raw_hash_setINS1_17FlatHashMapPolicyISt17basic_string_viewIcSt11char_traitsIcEES7_EENS1_10StringHashENS1_8StringEqESaISt4pairIKS7_S7_EEE6resizeEm = comdat any

$_ZN4absl12lts_2023080218container_internal12raw_hash_setINS1_17FlatHashMapPolicyISt17basic_string_viewIcSt11char_traitsIcEES7_EENS1_10StringHashENS1_8StringEqESaISt4pairIKS7_S7_EEE22find_or_prepare_insertIS7_EESB_ImbERKT_ = comdat any

$_ZN4absl12lts_2023080218container_internal12raw_hash_setINS1_17FlatHashMapPolicyISt17basic_string_viewIcSt11char_traitsIcEES7_EENS1_10StringHashENS1_8StringEqESaISt4pairIKS7_S7_EEE14prepare_insertEm = comdat any

$_ZN4absl12lts_2023080218container_internal12raw_hash_setINS1_17FlatHashMapPolicyISt17basic_string_viewIcSt11char_traitsIcEES7_EENS1_10StringHashENS1_8StringEqESaISt4pairIKS7_S7_EEE12hash_slot_fnEPvSG_ = comdat any

$_ZN4absl12lts_2023080218container_internal12raw_hash_setINS1_17FlatHashMapPolicyISt17basic_string_viewIcSt11char_traitsIcEES7_EENS1_10StringHashENS1_8StringEqESaISt4pairIKS7_S7_EEE16transfer_slot_fnEPvSG_SG_ = comdat any

$_ZN4absl12lts_202308027CleanupINS0_16cleanup_internal3TagEZN6google8protobuf2io7Printer8WithVarsINS0_13flat_hash_mapISt17basic_string_viewIcSt11char_traitsIcEESD_NS0_18container_internal10StringHashENSE_8StringEqESaISt4pairIKSD_SD_EEEEEEDaPKT_EUlvE_ED2Ev = comdat any

$_ZNSt6vectorISt8functionIFSt8optionalIN6google8protobuf2io7Printer9ValueImplILb0EEEESt17basic_string_viewIcSt11char_traitsIcEEEESaISE_EE17_M_realloc_insertIJZNS5_8WithVarsIN4absl12lts_2023080213flat_hash_mapISC_SC_NSK_18container_internal10StringHashENSM_8StringEqESaISt4pairIKSC_SC_EEEEEEDaPKT_EUlSC_E_EEEvN9__gnu_cxx17__normal_iteratorIPSE_SG_EEDpOT_ = comdat any

$_ZNSt17_Function_handlerIFSt8optionalIN6google8protobuf2io7Printer9ValueImplILb0EEEESt17basic_string_viewIcSt11char_traitsIcEEEZNS4_8WithVarsIN4absl12lts_2023080213flat_hash_mapISB_SB_NSF_18container_internal10StringHashENSH_8StringEqESaISt4pairIKSB_SB_EEEEEEDaPKT_EUlSB_E_E9_M_invokeERKSt9_Any_dataOSB_ = comdat any

$_ZNSt17_Function_handlerIFSt8optionalIN6google8protobuf2io7Printer9ValueImplILb0EEEESt17basic_string_viewIcSt11char_traitsIcEEEZNS4_8WithVarsIN4absl12lts_2023080213flat_hash_mapISB_SB_NSF_18container_internal10StringHashENSH_8StringEqESaISt4pairIKSB_SB_EEEEEEDaPKT_EUlSB_E_E10_M_managerERSt9_Any_dataRKSU_St18_Manager_operation = comdat any

$_ZZN6google8protobuf2io7Printer8WithVarsIN4absl12lts_2023080213flat_hash_mapISt17basic_string_viewIcSt11char_traitsIcEESA_NS5_18container_internal10StringHashENSB_8StringEqESaISt4pairIKSA_SA_EEEEEEDaPKT_ENKUlSA_E_clESA_ = comdat any

$_ZNK4absl12lts_2023080218container_internal12raw_hash_setINS1_17FlatHashMapPolicyISt17basic_string_viewIcSt11char_traitsIcEES7_EENS1_10StringHashENS1_8StringEqESaISt4pairIKS7_S7_EEE4findIS7_EENSF_14const_iteratorERKT_m = comdat any

$_ZNSt7variantIJSt17basic_string_viewIcSt11char_traitsIcEESt8functionIFbvEEEED2Ev = comdat any

$_ZN4absl12lts_2023080218container_internal12raw_hash_setINS1_17FlatHashMapPolicyINSt7__cxx1112basic_stringIcSt11char_traitsIcESaIcEEEN6google8protobuf8compiler20CommandLineInterface13GeneratorInfoEEENS1_10StringHashENS1_8StringEqESaISt4pairIKS9_SE_EEE4findIS9_EENSM_8iteratorERKT_m = comdat any

$_ZZN4absl12lts_2023080218container_internal5btreeINS1_10map_paramsINSt7__cxx1112basic_stringIcSt11char_traitsIcESaIcEEEN6google8protobuf8compiler20CommandLineInterface13GeneratorInfoESt4lessIS9_ESaISt4pairIKS9_SE_EELi256ELb0EEEE9EmptyNodeEvE10empty_nodeB5cxx11 = comdat any

$_ZTVN6google8protobuf8compiler20CommandLineInterface12ErrorPrinterE = comdat any

$_ZTSN6google8protobuf8compiler20CommandLineInterface12ErrorPrinterE = comdat any

$_ZTIN6google8protobuf8compiler20CommandLineInterface12ErrorPrinterE = comdat any

$_ZN4absl12lts_202308026Status16kMovedFromStringE = comdat any

$_ZZN4absl12lts_2023080218container_internal5btreeINS1_10set_paramsISt4pairIiiESt4lessIS5_ESaIS5_ELi256ELb0EEEE9EmptyNodeEvE10empty_node = comdat any

$_ZZN4absl12lts_2023080218container_internal5btreeINS1_10map_paramsINSt7__cxx1112basic_stringIcSt11char_traitsIcESaIcEEES9_St4lessIS9_ESaISt4pairIKS9_S9_EELi256ELb0EEEE9EmptyNodeEvE10empty_nodeB5cxx11 = comdat any

$_ZZN4absl12lts_2023080218container_internal12raw_hash_setINS1_17FlatHashSetPolicyIPKN6google8protobuf14FileDescriptorEEENS1_6HashEqIS8_vE4HashENSB_2EqESaIS8_EE18GetPolicyFunctionsEvE5value = comdat any

$_ZSt19piecewise_construct = comdat any

$_ZZN4absl12lts_2023080218container_internal12raw_hash_setINS1_17FlatHashMapPolicyINSt7__cxx1112basic_stringIcSt11char_traitsIcESaIcEEEN6google8protobuf8compiler20CommandLineInterface13GeneratorInfoEEENS1_10StringHashENS1_8StringEqESaISt4pairIKS9_SE_EEE18GetPolicyFunctionsEvE5value = comdat any

$_ZZN4absl12lts_2023080213base_internal12CallOnceImplIPFvPKN6google8protobuf15FieldDescriptorEEJS7_EEEvPSt6atomicIjENS1_14SchedulingModeEOT_DpOT0_E5trans = comdat any

$_ZZN4absl12lts_2023080218container_internal12raw_hash_setINS1_17FlatHashMapPolicyINSt7__cxx1112basic_stringIcSt11char_traitsIcESaIcEEESt10unique_ptrIN6google8protobuf8compiler20CommandLineInterface20GeneratorContextImplESt14default_deleteISF_EEEENS1_10StringHashENS1_8StringEqESaISt4pairIKS9_SI_EEE18GetPolicyFunctionsEvE5value = comdat any

$_ZZN4absl12lts_2023080218container_internal12raw_hash_setINS1_17FlatHashSetPolicyINSt7__cxx1112basic_stringIcSt11char_traitsIcESaIcEEEEENS1_10StringHashENS1_8StringEqESaIS9_EE18GetPolicyFunctionsEvE5value = comdat any

$_ZZN4absl12lts_2023080218container_internal12raw_hash_setINS1_17FlatHashMapPolicyINSt7__cxx1112basic_stringIcSt11char_traitsIcESaIcEEES9_EENS1_10StringHashENS1_8StringEqESaISt4pairIKS9_S9_EEE18GetPolicyFunctionsEvE5value = comdat any

$_ZZN4absl12lts_2023080218container_internal12raw_hash_setINS1_17FlatHashMapPolicyISt17basic_string_viewIcSt11char_traitsIcEES7_EENS1_10StringHashENS1_8StringEqESaISt4pairIKS7_S7_EEE18GetPolicyFunctionsEvE5value = comdat any

$_ZTSZN6google8protobuf2io7Printer8WithVarsIN4absl12lts_2023080213flat_hash_mapISt17basic_string_viewIcSt11char_traitsIcEESA_NS5_18container_internal10StringHashENSB_8StringEqESaISt4pairIKSA_SA_EEEEEEDaPKT_EUlSA_E_ = comdat any

$_ZTIZN6google8protobuf2io7Printer8WithVarsIN4absl12lts_2023080213flat_hash_mapISt17basic_string_viewIcSt11char_traitsIcEESA_NS5_18container_internal10StringHashENSB_8StringEqESaISt4pairIKSA_SA_EEEEEEDaPKT_EUlSA_E_ = comdat any

@_ZStL8__ioinit = internal global %"class.std::ios_base::Init" zeroinitializer, align 1
@__dso_handle = external hidden global i8
@_ZTVN6google8protobuf8compiler20CommandLineInterface20GeneratorContextImplE = unnamed_addr constant { [10 x ptr] } { [10 x ptr] [ptr null, ptr @_ZTIN6google8protobuf8compiler20CommandLineInterface20GeneratorContextImplE, ptr @_ZN6google8protobuf8compiler20CommandLineInterface20GeneratorContextImplD2Ev, ptr @_ZN6google8protobuf8compiler20CommandLineInterface20GeneratorContextImplD0Ev, ptr @_ZN6google8protobuf8compiler20CommandLineInterface20GeneratorContextImpl4OpenERKNSt7__cxx1112basic_stringIcSt11char_traitsIcESaIcEEE, ptr @_ZN6google8protobuf8compiler20CommandLineInterface20GeneratorContextImpl13OpenForAppendERKNSt7__cxx1112basic_stringIcSt11char_traitsIcESaIcEEE, ptr @_ZN6google8protobuf8compiler20CommandLineInterface20GeneratorContextImpl13OpenForInsertERKNSt7__cxx1112basic_stringIcSt11char_traitsIcESaIcEEESB_, ptr @_ZN6google8protobuf8compiler20CommandLineInterface20GeneratorContextImpl34OpenForInsertWithGeneratedCodeInfoERKNSt7__cxx1112basic_stringIcSt11char_traitsIcESaIcEEESB_RKNS0_17GeneratedCodeInfoE, ptr @_ZN6google8protobuf8compiler20CommandLineInterface20GeneratorContextImpl15ListParsedFilesEPSt6vectorIPKNS0_14FileDescriptorESaIS7_EE, ptr @_ZNK6google8protobuf8compiler16GeneratorContext18GetCompilerVersionEPNS1_7VersionE] }, align 8
@_ZSt4cerr = external global %"class.std::basic_ostream", align 8
@.str = private unnamed_addr constant [3 x i8] c": \00", align 1
@.str.1 = private unnamed_addr constant [10 x i8] c": write: \00", align 1
@.str.2 = private unnamed_addr constant [25 x i8] c": write() returned zero?\00", align 1
@.str.3 = private unnamed_addr constant [10 x i8] c": close: \00", align 1
@.str.4 = private unnamed_addr constant [21 x i8] c"META-INF/MANIFEST.MF\00", align 1
@.str.5 = private unnamed_addr constant [1 x i8] zeroinitializer, align 1
@.str.6 = private unnamed_addr constant [51 x i8] c"Manifest-Version: 1.0\0ACreated-By: 1.6.0 (protoc)\0A\0A\00", align 1
@_ZTVN6google8protobuf8compiler20CommandLineInterface18MemoryOutputStreamE = unnamed_addr constant { [10 x ptr] } { [10 x ptr] [ptr null, ptr @_ZTIN6google8protobuf8compiler20CommandLineInterface18MemoryOutputStreamE, ptr @_ZN6google8protobuf8compiler20CommandLineInterface18MemoryOutputStreamD1Ev, ptr @_ZN6google8protobuf8compiler20CommandLineInterface18MemoryOutputStreamD0Ev, ptr @_ZN6google8protobuf8compiler20CommandLineInterface18MemoryOutputStream4NextEPPvPi, ptr @_ZN6google8protobuf8compiler20CommandLineInterface18MemoryOutputStream6BackUpEi, ptr @_ZNK6google8protobuf8compiler20CommandLineInterface18MemoryOutputStream9ByteCountEv, ptr @_ZN6google8protobuf2io20ZeroCopyOutputStream15WriteAliasedRawEPKvi, ptr @_ZNK6google8protobuf2io20ZeroCopyOutputStream14AllowsAliasingEv, ptr @_ZN6google8protobuf2io20ZeroCopyOutputStream9WriteCordERKN4absl12lts_202308024CordE] }, align 8
@.str.7 = private unnamed_addr constant [9 x i8] c".pb.meta\00", align 1
@.str.8 = private unnamed_addr constant [59 x i8] c".pb.meta: Could not parse metadata as wire or text format.\00", align 1
@.str.9 = private unnamed_addr constant [38 x i8] c": Tried to write the same file twice.\00", align 1
@.str.10 = private unnamed_addr constant [48 x i8] c": Tried to insert into file that doesn't exist.\00", align 1
@.str.11 = private unnamed_addr constant [29 x i8] c"@@protoc_insertion_point($0)\00", align 1
@.str.12 = private unnamed_addr constant [20 x i8] c": insertion point \22\00", align 1
@.str.13 = private unnamed_addr constant [13 x i8] c"\22 not found.\00", align 1
@.str.14 = private unnamed_addr constant [3 x i8] c"/*\00", align 1
@.str.15 = private unnamed_addr constant [3 x i8] c" \09\00", align 1
@.str.16 = private unnamed_addr constant [59 x i8] c"target_ptr == &(*target)[pos] + data_.size() + indent_size\00", align 1
@.str.17 = private unnamed_addr constant [150 x i8] c"generated/home/dtcxzyw/WorkSpace/Projects/compilers/llvm-opt-benchmark/bench/protobuf/protobuf/src/google/protobuf/compiler/command_line_interface.cc\00", align 1
@.str.18 = private unnamed_addr constant [2 x i8] c":\00", align 1
@_ZN6google8protobuf8compiler20CommandLineInterface14kPathSeparatorE = local_unnamed_addr constant ptr @.str.18, align 8
@.str.19 = private unnamed_addr constant [5 x i8] c".zip\00", align 1
@.str.20 = private unnamed_addr constant [5 x i8] c".jar\00", align 1
@.str.21 = private unnamed_addr constant [8 x i8] c".srcjar\00", align 1
@.str.23 = private unnamed_addr constant [20 x i8] c"empty_message.proto\00", align 1
@.str.24 = private unnamed_addr constant [13 x i8] c"EmptyMessage\00", align 1
@.str.25 = private unnamed_addr constant [32 x i8] c"pool.BuildFile(file) != nullptr\00", align 1
@.str.26 = private unnamed_addr constant [94 x i8] c"If the code reaches here, it usually means a bug of flag parsing in the CommandLineInterface.\00", align 1
@.str.27 = private unnamed_addr constant [45 x i8] c"Could not find file in descriptor database: \00", align 1
@.str.28 = private unnamed_addr constant [65 x i8] c": This file contains services, but --disallow_services was used.\00", align 1
@.str.29 = private unnamed_addr constant [20 x i8] c"Built-in generator \00", align 1
@.str.30 = private unnamed_addr constant [30 x i8] c" specifies a minimum edition \00", align 1
@.str.31 = private unnamed_addr constant [34 x i8] c" which is not the protoc minimum \00", align 1
@.str.32 = private unnamed_addr constant [2 x i8] c".\00", align 1
@.str.33 = private unnamed_addr constant [30 x i8] c" specifies a maximum edition \00", align 1
@.str.34 = private unnamed_addr constant [34 x i8] c" which is not the protoc maximum \00", align 1
@.str.35 = private unnamed_addr constant [41 x i8] c" specifies an unknown feature extension.\00", align 1
@.str.36 = private unnamed_addr constant [12 x i8] c"status.ok()\00", align 1
@.str.37 = private unnamed_addr constant [17 x i8] c"google/protobuf/\00", align 1
@.str.38 = private unnamed_addr constant [5 x i8] c"upb/\00", align 1
@.str.39 = private unnamed_addr constant [128 x i8] c": This file uses editions, but --experimental_editions has not been enabled. This syntax is experimental and should be avoided.\00", align 1
@.str.40 = private unnamed_addr constant [3 x i8] c"%s\00", align 1
@.str.41 = private unnamed_addr constant [37 x i8] c"Could not make proto path relative: \00", align 1
@.str.42 = private unnamed_addr constant [45 x i8] c": Input is shadowed in the --proto_path by \22\00", align 1
@.str.43 = private unnamed_addr constant [121 x i8] c"\22.  Either use the latter file as your input or reorder the --proto_path so that the former file's location comes first.\00", align 1
@.str.44 = private unnamed_addr constant [32 x i8] c"Could not map to virtual file: \00", align 1
@.str.45 = private unnamed_addr constant [339 x i8] c": File does not reside within any path specified using --proto_path (or -I).  You must specify a --proto_path which encompasses this file.  Note that the proto_path must be an exact prefix of the .proto file names -- protoc is too dumb to figure out when two paths (e.g. absolute and relative) are equivalent (it's harder than you think).\00", align 1
@.str.46 = private unnamed_addr constant [31 x i8] c"Failed to open argument file: \00", align 1
@.str.47 = private unnamed_addr constant [25 x i8] c"Missing value for flag: \00", align 1
@.str.48 = private unnamed_addr constant [9 x i8] c"--decode\00", align 1
@.str.49 = private unnamed_addr constant [48 x i8] c"To decode an unknown message, use --decode_raw.\00", align 1
@.str.50 = private unnamed_addr constant [15 x i8] c"Unknown flag: \00", align 1
@.str.51 = private unnamed_addr constant [3 x i8] c"--\00", align 1
@.str.52 = private unnamed_addr constant [5 x i8] c"_opt\00", align 1
@.str.53 = private unnamed_addr constant [57 x i8] c"When using --decode_raw, no input files should be given.\00", align 1
@.str.54 = private unnamed_addr constant [18 x i8] c"Unexpected mode: \00", align 1
@.str.55 = private unnamed_addr constant [20 x i8] c"Missing input file.\00", align 1
@.str.56 = private unnamed_addr constant [27 x i8] c"Missing output directives.\00", align 1
@.str.57 = private unnamed_addr constant [57 x i8] c"Can only use --dependency_out=FILE when generating code.\00", align 1
@.str.58 = private unnamed_addr constant [51 x i8] c"Can only use --deterministic_output with --encode.\00", align 1
@.str.59 = private unnamed_addr constant [66 x i8] c"Can only process one input file when using --dependency_out=FILE.\00", align 1
@.str.60 = private unnamed_addr constant [76 x i8] c"--include_imports only makes sense when combined with --descriptor_set_out.\00", align 1
@.str.61 = private unnamed_addr constant [80 x i8] c"--include_source_info only makes sense when combined with --descriptor_set_out.\00", align 1
@.str.62 = private unnamed_addr constant [75 x i8] c"--retain_options only makes sense when combined with --descriptor_set_out.\00", align 1
@.str.63 = private unnamed_addr constant [3 x i8] c"-h\00", align 1
@.str.64 = private unnamed_addr constant [7 x i8] c"--help\00", align 1
@.str.65 = private unnamed_addr constant [20 x i8] c"--disallow_services\00", align 1
@.str.66 = private unnamed_addr constant [18 x i8] c"--include_imports\00", align 1
@.str.67 = private unnamed_addr constant [22 x i8] c"--include_source_info\00", align 1
@.str.68 = private unnamed_addr constant [17 x i8] c"--retain_options\00", align 1
@.str.69 = private unnamed_addr constant [10 x i8] c"--version\00", align 1
@.str.70 = private unnamed_addr constant [13 x i8] c"--decode_raw\00", align 1
@.str.71 = private unnamed_addr constant [24 x i8] c"--experimental_editions\00", align 1
@.str.72 = private unnamed_addr constant [27 x i8] c"--print_free_field_numbers\00", align 1
@.str.73 = private unnamed_addr constant [37 x i8] c"--experimental_allow_proto3_optional\00", align 1
@.str.74 = private unnamed_addr constant [23 x i8] c"--deterministic_output\00", align 1
@.str.75 = private unnamed_addr constant [17 x i8] c"--fatal_warnings\00", align 1
@.str.76 = private unnamed_addr constant [68 x i8] c"You seem to have passed an empty string as one of the arguments to \00", align 1
@.str.77 = private unnamed_addr constant [124 x i8] c".  This is actually sort of hard to do.  Congrats.  Unfortunately it is not valid input so the program is going to die now.\00", align 1
@.str.78 = private unnamed_addr constant [3 x i8] c"-I\00", align 1
@.str.79 = private unnamed_addr constant [13 x i8] c"--proto_path\00", align 1
@.str.80 = private unnamed_addr constant [76 x i8] c"--proto_path passed empty directory name.  (Use \22.\22 for current directory.)\00", align 1
@.str.81 = private unnamed_addr constant [37 x i8] c": warning: directory does not exist.\00", align 1
@.str.82 = private unnamed_addr constant [22 x i8] c"--direct_dependencies\00", align 1
@.str.83 = private unnamed_addr constant [121 x i8] c" may only be passed once. To specify multiple direct dependencies, pass them all as a single parameter separated by ':'.\00", align 1
@.str.84 = private unnamed_addr constant [36 x i8] c"--direct_dependencies_violation_msg\00", align 1
@.str.85 = private unnamed_addr constant [20 x i8] c"--descriptor_set_in\00", align 1
@.str.86 = private unnamed_addr constant [114 x i8] c" may only be passed once. To specify multiple descriptor sets, pass them all as a single parameter separated by '\00", align 1
@.str.87 = private unnamed_addr constant [3 x i8] c"'.\00", align 1
@.str.88 = private unnamed_addr constant [29 x i8] c" requires a non-empty value.\00", align 1
@.str.89 = private unnamed_addr constant [39 x i8] c" cannot be used with --dependency_out.\00", align 1
@.str.90 = private unnamed_addr constant [3 x i8] c"-o\00", align 1
@.str.91 = private unnamed_addr constant [21 x i8] c"--descriptor_set_out\00", align 1
@.str.92 = private unnamed_addr constant [26 x i8] c" may only be passed once.\00", align 1
@.str.93 = private unnamed_addr constant [75 x i8] c"Cannot use --encode or --decode and generate descriptors at the same time.\00", align 1
@.str.94 = private unnamed_addr constant [17 x i8] c"--dependency_out\00", align 1
@.str.95 = private unnamed_addr constant [42 x i8] c" cannot be used with --descriptor_set_in.\00", align 1
@_ZSt4cout = external global %"class.std::basic_ostream", align 8
@.str.96 = private unnamed_addr constant [11 x i8] c"libprotoc \00", align 1
@.str.97 = private unnamed_addr constant [9 x i8] c"--encode\00", align 1
@.str.98 = private unnamed_addr constant [52 x i8] c"Only one of --encode and --decode can be specified.\00", align 1
@.str.99 = private unnamed_addr constant [12 x i8] c"Cannot use \00", align 1
@.str.100 = private unnamed_addr constant [52 x i8] c" and generate code or descriptors at the same time.\00", align 1
@.str.101 = private unnamed_addr constant [15 x i8] c"Type name for \00", align 1
@.str.102 = private unnamed_addr constant [18 x i8] c" cannot be blank.\00", align 1
@.str.103 = private unnamed_addr constant [40 x i8] c"--decode_raw does not take a parameter.\00", align 1
@.str.104 = private unnamed_addr constant [15 x i8] c"--error_format\00", align 1
@.str.105 = private unnamed_addr constant [4 x i8] c"gcc\00", align 1
@.str.106 = private unnamed_addr constant [5 x i8] c"msvs\00", align 1
@.str.107 = private unnamed_addr constant [23 x i8] c"Unknown error format: \00", align 1
@.str.108 = private unnamed_addr constant [9 x i8] c"--plugin\00", align 1
@.str.109 = private unnamed_addr constant [40 x i8] c"This compiler does not support plugins.\00", align 1
@.str.110 = private unnamed_addr constant [38 x i8] c" and use --encode, --decode or print \00", align 1
@.str.111 = private unnamed_addr constant [29 x i8] c"other info at the same time.\00", align 1
@.str.112 = private unnamed_addr constant [23 x i8] c"--enable_codegen_trace\00", align 1
@.str.113 = private unnamed_addr constant [4 x i8] c"yes\00", align 1
@.str.114 = private unnamed_addr constant [36 x i8] c"--experimental_edition_defaults_out\00", align 1
@.str.115 = private unnamed_addr constant [72 x i8] c"Cannot use --encode or --decode and generate defaults at the same time.\00", align 1
@.str.116 = private unnamed_addr constant [40 x i8] c"--experimental_edition_defaults_minimum\00", align 1
@.str.117 = private unnamed_addr constant [9 x i8] c"EDITION_\00", align 1
@.str.118 = private unnamed_addr constant [19 x i8] c" unknown edition \22\00", align 1
@.str.119 = private unnamed_addr constant [3 x i8] c"\22.\00", align 1
@.str.120 = private unnamed_addr constant [40 x i8] c"--experimental_edition_defaults_maximum\00", align 1
@.str.121 = private unnamed_addr constant [5 x i8] c"_out\00", align 1
@.str.122 = private unnamed_addr constant [2 x i8] c",\00", align 1
@.str.123 = private unnamed_addr constant [87 x i8] c"Cannot use --encode, --decode or print .proto info and generate code at the same time.\00", align 1
@.str.124 = private unnamed_addr constant [8 x i8] c"Usage: \00", align 1
@.str.125 = private unnamed_addr constant [22 x i8] c" [OPTION] PROTO_FILES\00", align 1
@.str.126 = private unnamed_addr constant [4797 x i8] c"\0AParse PROTO_FILES and generate output based on the options given:\0A  -IPATH, --proto_path=PATH   Specify the directory in which to search for\0A                              imports.  May be specified multiple times;\0A                              directories will be searched in order.  If not\0A                              given, the current working directory is used.\0A                              If not found in any of the these directories,\0A                              the --descriptor_set_in descriptors will be\0A                              checked for required proto file.\0A  --version                   Show version info and exit.\0A  -h, --help                  Show this text and exit.\0A  --encode=MESSAGE_TYPE       Read a text-format message of the given type\0A                              from standard input and write it in binary\0A                              to standard output.  The message type must\0A                              be defined in PROTO_FILES or their imports.\0A  --deterministic_output      When using --encode, ensure map fields are\0A                              deterministically ordered. Note that this order\0A                              is not canonical, and changes across builds or\0A                              releases of protoc.\0A  --decode=MESSAGE_TYPE       Read a binary message of the given type from\0A                              standard input and write it in text format\0A                              to standard output.  The message type must\0A                              be defined in PROTO_FILES or their imports.\0A  --decode_raw                Read an arbitrary protocol message from\0A                              standard input and write the raw tag/value\0A                              pairs in text format to standard output.  No\0A                              PROTO_FILES should be given when using this\0A                              flag.\0A  --descriptor_set_in=FILES   Specifies a delimited list of FILES\0A                              each containing a FileDescriptorSet (a\0A                              protocol buffer defined in descriptor.proto).\0A                              The FileDescriptor for each of the PROTO_FILES\0A                              provided will be loaded from these\0A                              FileDescriptorSets. If a FileDescriptor\0A                              appears multiple times, the first occurrence\0A                              will be used.\0A  -oFILE,                     Writes a FileDescriptorSet (a protocol buffer,\0A    --descriptor_set_out=FILE defined in descriptor.proto) containing all of\0A                              the input files to FILE.\0A  --include_imports           When using --descriptor_set_out, also include\0A                              all dependencies of the input files in the\0A                              set, so that the set is self-contained.\0A  --include_source_info       When using --descriptor_set_out, do not strip\0A                              SourceCodeInfo from the FileDescriptorProto.\0A                              This results in vastly larger descriptors that\0A                              include information about the original\0A                              location of each decl in the source file as\0A                              well as surrounding comments.\0A  --retain_options            When using --descriptor_set_out, do not strip\0A                              any options from the FileDescriptorProto.\0A                              This results in potentially larger descriptors\0A                              that include information about options that were\0A                              only meant to be useful during compilation.\0A  --dependency_out=FILE       Write a dependency output file in the format\0A                              expected by make. This writes the transitive\0A                              set of input file paths to FILE\0A  --error_format=FORMAT       Set the format in which to print errors.\0A                              FORMAT may be 'gcc' (the default) or 'msvs'\0A                              (Microsoft Visual Studio format).\0A  --fatal_warnings            Make warnings be fatal (similar to -Werr in\0A                              gcc). This flag will make protoc return\0A                              with a non-zero exit code if any warnings\0A                              are generated.\0A  --print_free_field_numbers  Print the free field numbers of the messages\0A                              defined in the given proto files. Extension ranges\0A                              are counted as occupied fields numbers.\0A  --enable_codegen_trace      Enables tracing which parts of protoc are\0A                              responsible for what codegen output. Not supported\0A                              by all backends or on all platforms.\00", align 1
@.str.127 = private unnamed_addr constant [571 x i8] c"\0A  --plugin=EXECUTABLE         Specifies a plugin executable to use.\0A                              Normally, protoc searches the PATH for\0A                              plugins, but you may specify additional\0A                              executables not in the path using this flag.\0A                              Additionally, EXECUTABLE may be of the form\0A                              NAME=PATH, in which case the given plugin name\0A                              is mapped to the given executable even if\0A                              the executable's own name differs.\00", align 1
@.str.128 = private unnamed_addr constant [3 x i8] c"  \00", align 1
@.str.129 = private unnamed_addr constant [10 x i8] c"=OUT_DIR \00", align 1
@.str.130 = private unnamed_addr constant [865 x i8] c"\0A  @<filename>                 Read options and filenames from file. If a\0A                              relative file path is specified, the file\0A                              will be searched in the working directory.\0A                              The --proto_path option will not affect how\0A                              this argument file is searched. Content of\0A                              the file will be expanded in the position of\0A                              @<filename> as in the argument list. Note\0A                              that shell expansion is not applied to the\0A                              content of the file (i.e., you cannot use\0A                              quotes, wildcards, escapes, commands, etc.).\0A                              Each line corresponds to a single argument,\0A                              even if it contains spaces.\00", align 1
@.str.131 = private unnamed_addr constant [70 x i8] c": is a proto3 file that contains optional fields, but code generator \00", align 1
@.str.132 = private unnamed_addr constant [131 x i8] c" hasn't been updated to support optional fields in proto3. Please ask the owner of this code generator to support proto3 optional.\00", align 1
@.str.133 = private unnamed_addr constant [252 x i8] c"$0: is an editions file, but code generator $1 hasn't been updated to support editions yet.  Please ask the owner of this code generator to add support or switch back to proto2/proto3.\0A\0ASee https://protobuf.dev/editions/overview/ for more information.\00", align 1
@.str.134 = private unnamed_addr constant [126 x i8] c"$0: is a file using edition $2, which isn't supported by code generator $1.  Please upgrade your file to at least edition $3.\00", align 1
@.str.135 = private unnamed_addr constant [179 x i8] c"$0: is a file using edition $2, which isn't supported by code generator $1.  Please ask the owner of this code generator to add support or switch back to a maximum of edition $3.\00", align 1
@.str.136 = private unnamed_addr constant [95 x i8] c"absl::StartsWith(output_directive.name, \22--\22) && absl::EndsWith(output_directive.name, \22_out\22)\00", align 1
@.str.137 = private unnamed_addr constant [32 x i8] c"Bad name for plugin generator: \00", align 1
@.str.138 = private unnamed_addr constant [3 x i8] c"./\00", align 1
@.str.139 = private unnamed_addr constant [4 x i8] c" \\\0A\00", align 1
@.str.140 = private unnamed_addr constant [13 x i8] c" $disk_file$\00", align 1
@.str.141 = private unnamed_addr constant [10 x i8] c"disk_file\00", align 1
@.str.142 = private unnamed_addr constant [3 x i8] c"\\\0A\00", align 1
@.str.143 = private unnamed_addr constant [34 x i8] c"Unable to identify path for file \00", align 1
@.str.144 = private unnamed_addr constant [22 x i8] c"!parsed_files.empty()\00", align 1
@.str.145 = private unnamed_addr constant [7 x i8] c"$0: $1\00", align 1
@.str.146 = private unnamed_addr constant [69 x i8] c"$0: First file chunk returned by plugin did not specify a file name.\00", align 1
@.str.147 = private unnamed_addr constant [19 x i8] c"Type not defined: \00", align 1
@.str.148 = private unnamed_addr constant [23 x i8] c"Failed to parse input.\00", align 1
@.str.149 = private unnamed_addr constant [54 x i8] c"warning:  Input message is missing required fields:  \00", align 1
@.str.150 = private unnamed_addr constant [19 x i8] c"output: I/O error.\00", align 1
@.str.151 = private unnamed_addr constant [27 x i8] c"google.protobuf.FeatureSet\00", align 1
@.str.152 = private unnamed_addr constant [106 x i8] c": Could not find FeatureSet in descriptor pool.  Please make sure descriptor.proto is in your import path\00", align 1
@_ZTVN10__cxxabiv120__si_class_type_infoE = external global [0 x ptr]
@_ZTSN6google8protobuf8compiler20CommandLineInterface20GeneratorContextImplE = constant [72 x i8] c"N6google8protobuf8compiler20CommandLineInterface20GeneratorContextImplE\00", align 1
@_ZTIN6google8protobuf8compiler16GeneratorContextE = external constant ptr
@_ZTIN6google8protobuf8compiler20CommandLineInterface20GeneratorContextImplE = constant { ptr, ptr, ptr } { ptr getelementptr inbounds (ptr, ptr @_ZTVN10__cxxabiv120__si_class_type_infoE, i64 2), ptr @_ZTSN6google8protobuf8compiler20CommandLineInterface20GeneratorContextImplE, ptr @_ZTIN6google8protobuf8compiler16GeneratorContextE }, align 8
@_ZTSN6google8protobuf8compiler20CommandLineInterface18MemoryOutputStreamE = constant [70 x i8] c"N6google8protobuf8compiler20CommandLineInterface18MemoryOutputStreamE\00", align 1
@_ZTIN6google8protobuf2io20ZeroCopyOutputStreamE = external constant ptr
@_ZTIN6google8protobuf8compiler20CommandLineInterface18MemoryOutputStreamE = constant { ptr, ptr, ptr } { ptr getelementptr inbounds (ptr, ptr @_ZTVN10__cxxabiv120__si_class_type_infoE, i64 2), ptr @_ZTSN6google8protobuf8compiler20CommandLineInterface18MemoryOutputStreamE, ptr @_ZTIN6google8protobuf2io20ZeroCopyOutputStreamE }, align 8
@.str.153 = private unnamed_addr constant [3 x i8] c"/\\\00", align 1
@.str.154 = private unnamed_addr constant [36 x i8] c": while trying to create directory \00", align 1
@.str.155 = private unnamed_addr constant [63 x i8] c"File is imported but not declared in --direct_dependencies: %s\00", align 1
@_ZZN4absl12lts_2023080218container_internal5btreeINS1_10map_paramsINSt7__cxx1112basic_stringIcSt11char_traitsIcESaIcEEEN6google8protobuf8compiler20CommandLineInterface13GeneratorInfoESt4lessIS9_ESaISt4pairIKS9_SE_EELi256ELb0EEEE9EmptyNodeEvE10empty_nodeB5cxx11 = linkonce_odr hidden constant { ptr, i8, i8, i8, i8 } { ptr @_ZZN4absl12lts_2023080218container_internal5btreeINS1_10map_paramsINSt7__cxx1112basic_stringIcSt11char_traitsIcESaIcEEEN6google8protobuf8compiler20CommandLineInterface13GeneratorInfoESt4lessIS9_ESaISt4pairIKS9_SE_EELi256ELb0EEEE9EmptyNodeEvE10empty_nodeB5cxx11, i8 0, i8 0, i8 0, i8 1 }, comdat, align 8
@_ZTVN6google8protobuf8compiler20CommandLineInterface12ErrorPrinterE = linkonce_odr unnamed_addr constant { [10 x ptr], [6 x ptr], [6 x ptr] } { [10 x ptr] [ptr null, ptr @_ZTIN6google8protobuf8compiler20CommandLineInterface12ErrorPrinterE, ptr @_ZN6google8protobuf8compiler20CommandLineInterface12ErrorPrinterD2Ev, ptr @_ZN6google8protobuf8compiler20CommandLineInterface12ErrorPrinterD0Ev, ptr @_ZN6google8protobuf8compiler20CommandLineInterface12ErrorPrinter11RecordErrorESt17basic_string_viewIcSt11char_traitsIcEEiiS7_, ptr @_ZN6google8protobuf8compiler20CommandLineInterface12ErrorPrinter13RecordWarningESt17basic_string_viewIcSt11char_traitsIcEEiiS7_, ptr @_ZN6google8protobuf8compiler20CommandLineInterface12ErrorPrinter11RecordErrorEiiSt17basic_string_viewIcSt11char_traitsIcEE, ptr @_ZN6google8protobuf8compiler20CommandLineInterface12ErrorPrinter13RecordWarningEiiSt17basic_string_viewIcSt11char_traitsIcEE, ptr @_ZN6google8protobuf8compiler20CommandLineInterface12ErrorPrinter11RecordErrorESt17basic_string_viewIcSt11char_traitsIcEES7_PKNS0_7MessageENS0_14DescriptorPool14ErrorCollector13ErrorLocationES7_, ptr @_ZN6google8protobuf8compiler20CommandLineInterface12ErrorPrinter13RecordWarningESt17basic_string_viewIcSt11char_traitsIcEES7_PKNS0_7MessageENS0_14DescriptorPool14ErrorCollector13ErrorLocationES7_], [6 x ptr] [ptr inttoptr (i64 -8 to ptr), ptr @_ZTIN6google8protobuf8compiler20CommandLineInterface12ErrorPrinterE, ptr @_ZThn8_N6google8protobuf8compiler20CommandLineInterface12ErrorPrinterD1Ev, ptr @_ZThn8_N6google8protobuf8compiler20CommandLineInterface12ErrorPrinterD0Ev, ptr @_ZThn8_N6google8protobuf8compiler20CommandLineInterface12ErrorPrinter11RecordErrorEiiSt17basic_string_viewIcSt11char_traitsIcEE, ptr @_ZThn8_N6google8protobuf8compiler20CommandLineInterface12ErrorPrinter13RecordWarningEiiSt17basic_string_viewIcSt11char_traitsIcEE], [6 x ptr] [ptr inttoptr (i64 -16 to ptr), ptr @_ZTIN6google8protobuf8compiler20CommandLineInterface12ErrorPrinterE, ptr @_ZThn16_N6google8protobuf8compiler20CommandLineInterface12ErrorPrinterD1Ev, ptr @_ZThn16_N6google8protobuf8compiler20CommandLineInterface12ErrorPrinterD0Ev, ptr @_ZThn16_N6google8protobuf8compiler20CommandLineInterface12ErrorPrinter11RecordErrorESt17basic_string_viewIcSt11char_traitsIcEES7_PKNS0_7MessageENS0_14DescriptorPool14ErrorCollector13ErrorLocationES7_, ptr @_ZThn16_N6google8protobuf8compiler20CommandLineInterface12ErrorPrinter13RecordWarningESt17basic_string_viewIcSt11char_traitsIcEES7_PKNS0_7MessageENS0_14DescriptorPool14ErrorCollector13ErrorLocationES7_] }, comdat, align 8
@_ZTVN10__cxxabiv121__vmi_class_type_infoE = external global [0 x ptr]
@_ZTSN6google8protobuf8compiler20CommandLineInterface12ErrorPrinterE = linkonce_odr constant [64 x i8] c"N6google8protobuf8compiler20CommandLineInterface12ErrorPrinterE\00", comdat, align 1
@_ZTIN6google8protobuf8compiler23MultiFileErrorCollectorE = external constant ptr
@_ZTIN6google8protobuf2io14ErrorCollectorE = external constant ptr
@_ZTIN6google8protobuf14DescriptorPool14ErrorCollectorE = external constant ptr
@_ZTIN6google8protobuf8compiler20CommandLineInterface12ErrorPrinterE = linkonce_odr constant { ptr, ptr, i32, i32, ptr, i64, ptr, i64, ptr, i64 } { ptr getelementptr inbounds (ptr, ptr @_ZTVN10__cxxabiv121__vmi_class_type_infoE, i64 2), ptr @_ZTSN6google8protobuf8compiler20CommandLineInterface12ErrorPrinterE, i32 0, i32 3, ptr @_ZTIN6google8protobuf8compiler23MultiFileErrorCollectorE, i64 2, ptr @_ZTIN6google8protobuf2io14ErrorCollectorE, i64 2050, ptr @_ZTIN6google8protobuf14DescriptorPool14ErrorCollectorE, i64 4098 }, comdat, align 8
@.str.156 = private unnamed_addr constant [6 x i8] c"error\00", align 1
@.str.157 = private unnamed_addr constant [2 x i8] c"(\00", align 1
@.str.158 = private unnamed_addr constant [5 x i8] c") : \00", align 1
@.str.159 = private unnamed_addr constant [12 x i8] c" in column=\00", align 1
@.str.160 = private unnamed_addr constant [8 x i8] c"warning\00", align 1
@.str.161 = private unnamed_addr constant [12 x i8] c": warning: \00", align 1
@_ZSt4clog = external global %"class.std::basic_ostream", align 8
@.str.162 = private unnamed_addr constant [6 x i8] c"input\00", align 1
@.str.163 = private unnamed_addr constant [9 x i8] c"/include\00", align 1
@.str.164 = private unnamed_addr constant [15 x i8] c"/proc/self/exe\00", align 1
@.str.165 = private unnamed_addr constant [26 x i8] c"basic_string_view::substr\00", align 1
@.str.166 = private unnamed_addr constant [49 x i8] c"%s: __pos (which is %zu) > __size (which is %zu)\00", align 1
@.str.167 = private unnamed_addr constant [34 x i8] c"/google/protobuf/descriptor.proto\00", align 1
@.str.168 = private unnamed_addr constant [26 x i8] c"vector::_M_realloc_insert\00", align 1
@.str.169 = private unnamed_addr constant [19 x i8] c": Unable to parse.\00", align 1
@_ZN6google8protobuf29_FeatureSet_default_instance_E = external global %"struct.google::protobuf::FeatureSetDefaultTypeInternal", align 1
@_ZN4absl12lts_202308026Status16kMovedFromStringE = linkonce_odr hidden constant [28 x i8] c"Status accessed after move.\00", comdat, align 16
@.str.170 = private unnamed_addr constant [5 x i8] c"gen-\00", align 1
@.str.171 = private unnamed_addr constant [21 x i8] c"PROTOC_CODEGEN_TRACE\00", align 1
@.str.172 = private unnamed_addr constant [10 x i8] c"bootstrap\00", align 1
@.str.173 = private unnamed_addr constant [24 x i8] c"vector::_M_range_insert\00", align 1
@.str.174 = private unnamed_addr constant [49 x i8] c"cannot create std::vector larger than max_size()\00", align 1
@_ZN4absl12lts_2023080218container_internal11kEmptyGroupE = external constant [32 x i8], align 16
@_ZN6google8protobuf36_GeneratedCodeInfo_default_instance_E = external global %"struct.google::protobuf::GeneratedCodeInfoDefaultTypeInternal", align 1
@.str.175 = private unnamed_addr constant [12 x i8] c"%-35s free:\00", align 1
@.str.176 = private unnamed_addr constant [4 x i8] c" %d\00", align 1
@.str.177 = private unnamed_addr constant [7 x i8] c" %d-%d\00", align 1
@.str.178 = private unnamed_addr constant [8 x i8] c" %d-INF\00", align 1
@_ZZN4absl12lts_2023080218container_internal5btreeINS1_10set_paramsISt4pairIiiESt4lessIS5_ESaIS5_ELi256ELb0EEEE9EmptyNodeEvE10empty_node = linkonce_odr hidden constant { ptr, i8, i8, i8, i8 } { ptr @_ZZN4absl12lts_2023080218container_internal5btreeINS1_10set_paramsISt4pairIiiESt4lessIS5_ESaIS5_ELi256ELb0EEEE9EmptyNodeEvE10empty_node, i8 0, i8 0, i8 0, i8 1 }, comdat, align 8
@_ZZN4absl12lts_2023080218container_internal5btreeINS1_10map_paramsINSt7__cxx1112basic_stringIcSt11char_traitsIcESaIcEEES9_St4lessIS9_ESaISt4pairIKS9_S9_EELi256ELb0EEEE9EmptyNodeEvE10empty_nodeB5cxx11 = linkonce_odr hidden constant { ptr, i8, i8, i8, i8 } { ptr @_ZZN4absl12lts_2023080218container_internal5btreeINS1_10map_paramsINSt7__cxx1112basic_stringIcSt11char_traitsIcESaIcEEES9_St4lessIS9_ESaISt4pairIKS9_S9_EELi256ELb0EEEE9EmptyNodeEvE10empty_nodeB5cxx11, i8 0, i8 0, i8 0, i8 1 }, comdat, align 8
@.str.179 = private unnamed_addr constant [50 x i8] c"basic_string: construction from null is not valid\00", align 1
@_ZN4absl12lts_2023080213hash_internal15MixingHashState5kSeedE = external constant ptr, align 8
@_ZZN4absl12lts_2023080218container_internal12raw_hash_setINS1_17FlatHashSetPolicyIPKN6google8protobuf14FileDescriptorEEENS1_6HashEqIS8_vE4HashENSB_2EqESaIS8_EE18GetPolicyFunctionsEvE5value = linkonce_odr hidden constant %"struct.absl::lts_20230802::container_internal::PolicyFunctions" { i64 8, ptr @_ZN4absl12lts_2023080218container_internal12raw_hash_setINS1_17FlatHashSetPolicyIPKN6google8protobuf14FileDescriptorEEENS1_6HashEqIS8_vE4HashENSB_2EqESaIS8_EE12hash_slot_fnEPvSG_, ptr @_ZN4absl12lts_2023080218container_internal19TransferRelocatableILm8EEEvPvS3_S3_, ptr @_ZN4absl12lts_2023080218container_internal18DeallocateStandardILm8EEEvRNS1_12CommonFieldsERKNS1_15PolicyFunctionsE }, comdat, align 8
@_ZSt19piecewise_construct = linkonce_odr constant %"struct.std::piecewise_construct_t" zeroinitializer, comdat, align 1
@_ZZN4absl12lts_2023080218container_internal12raw_hash_setINS1_17FlatHashMapPolicyINSt7__cxx1112basic_stringIcSt11char_traitsIcESaIcEEEN6google8protobuf8compiler20CommandLineInterface13GeneratorInfoEEENS1_10StringHashENS1_8StringEqESaISt4pairIKS9_SE_EEE18GetPolicyFunctionsEvE5value = linkonce_odr hidden constant %"struct.absl::lts_20230802::container_internal::PolicyFunctions" { i64 136, ptr @_ZN4absl12lts_2023080218container_internal12raw_hash_setINS1_17FlatHashMapPolicyINSt7__cxx1112basic_stringIcSt11char_traitsIcESaIcEEEN6google8protobuf8compiler20CommandLineInterface13GeneratorInfoEEENS1_10StringHashENS1_8StringEqESaISt4pairIKS9_SE_EEE12hash_slot_fnEPvSN_, ptr @_ZN4absl12lts_2023080218container_internal12raw_hash_setINS1_17FlatHashMapPolicyINSt7__cxx1112basic_stringIcSt11char_traitsIcESaIcEEEN6google8protobuf8compiler20CommandLineInterface13GeneratorInfoEEENS1_10StringHashENS1_8StringEqESaISt4pairIKS9_SE_EEE16transfer_slot_fnEPvSN_SN_, ptr @_ZN4absl12lts_2023080218container_internal18DeallocateStandardILm8EEEvRNS1_12CommonFieldsERKNS1_15PolicyFunctionsE }, comdat, align 8
@.str.181 = private unnamed_addr constant [16 x i8] c"vector::reserve\00", align 1
@.str.182 = private unnamed_addr constant [89 x i8] c"Field numbers $0 through $1 are reserved for the protocol buffer library implementation.\00", align 1
@.str.183 = private unnamed_addr constant [51 x i8] c"Field number $0 is reserved for specific purposes.\00", align 1
@.str.186 = private unnamed_addr constant [39 x i8] c"options.SerializeToString(&serialized)\00", align 1
@.str.187 = private unnamed_addr constant [45 x i8] c"dynamic_message->ParseFromString(serialized)\00", align 1
@.str.188 = private unnamed_addr constant [8 x i8] c"Option \00", align 1
@.str.189 = private unnamed_addr constant [38 x i8] c" cannot be set on an entity of type `\00", align 1
@.str.190 = private unnamed_addr constant [3 x i8] c"`.\00", align 1
@.str.191 = private unnamed_addr constant [5 x i8] c"file\00", align 1
@.str.192 = private unnamed_addr constant [16 x i8] c"extension range\00", align 1
@.str.193 = private unnamed_addr constant [8 x i8] c"message\00", align 1
@.str.194 = private unnamed_addr constant [6 x i8] c"field\00", align 1
@.str.195 = private unnamed_addr constant [6 x i8] c"oneof\00", align 1
@.str.196 = private unnamed_addr constant [5 x i8] c"enum\00", align 1
@.str.197 = private unnamed_addr constant [11 x i8] c"enum entry\00", align 1
@.str.198 = private unnamed_addr constant [8 x i8] c"service\00", align 1
@.str.199 = private unnamed_addr constant [7 x i8] c"method\00", align 1
@.str.200 = private unnamed_addr constant [8 x i8] c"unknown\00", align 1
@_ZZN4absl12lts_2023080213base_internal12CallOnceImplIPFvPKN6google8protobuf15FieldDescriptorEEJS7_EEEvPSt6atomicIjENS1_14SchedulingModeEOT_DpOT0_E5trans = linkonce_odr hidden constant [3 x %"struct.absl::lts_20230802::base_internal::SpinLockWaitTransition"] [%"struct.absl::lts_20230802::base_internal::SpinLockWaitTransition" { i32 0, i32 1707250555, i8 1 }, %"struct.absl::lts_20230802::base_internal::SpinLockWaitTransition" { i32 1707250555, i32 94570706, i8 0 }, %"struct.absl::lts_20230802::base_internal::SpinLockWaitTransition" { i32 221, i32 221, i8 1 }], comdat, align 16
@_ZN6google8protobuf30_FileOptions_default_instance_E = external global %"struct.google::protobuf::FileOptionsDefaultTypeInternal", align 1
@_ZN6google8protobuf33_MessageOptions_default_instance_E = external global %"struct.google::protobuf::MessageOptionsDefaultTypeInternal", align 1
@_ZN6google8protobuf31_OneofOptions_default_instance_E = external global %"struct.google::protobuf::OneofOptionsDefaultTypeInternal", align 1
@_ZN6google8protobuf40_ExtensionRangeOptions_default_instance_E = external global %"struct.google::protobuf::ExtensionRangeOptionsDefaultTypeInternal", align 1
@_ZN6google8protobuf30_EnumOptions_default_instance_E = external global %"struct.google::protobuf::EnumOptionsDefaultTypeInternal", align 1
@_ZN6google8protobuf35_EnumValueOptions_default_instance_E = external global %"struct.google::protobuf::EnumValueOptionsDefaultTypeInternal", align 1
@_ZN6google8protobuf31_FieldOptions_default_instance_E = external global %"struct.google::protobuf::FieldOptionsDefaultTypeInternal", align 1
@_ZN6google8protobuf33_ServiceOptions_default_instance_E = external global %"struct.google::protobuf::ServiceOptionsDefaultTypeInternal", align 1
@_ZN6google8protobuf32_MethodOptions_default_instance_E = external global %"struct.google::protobuf::MethodOptionsDefaultTypeInternal", align 1
@_ZZN4absl12lts_2023080218container_internal12raw_hash_setINS1_17FlatHashMapPolicyINSt7__cxx1112basic_stringIcSt11char_traitsIcESaIcEEESt10unique_ptrIN6google8protobuf8compiler20CommandLineInterface20GeneratorContextImplESt14default_deleteISF_EEEENS1_10StringHashENS1_8StringEqESaISt4pairIKS9_SI_EEE18GetPolicyFunctionsEvE5value = linkonce_odr hidden constant %"struct.absl::lts_20230802::container_internal::PolicyFunctions" { i64 40, ptr @_ZN4absl12lts_2023080218container_internal12raw_hash_setINS1_17FlatHashMapPolicyINSt7__cxx1112basic_stringIcSt11char_traitsIcESaIcEEESt10unique_ptrIN6google8protobuf8compiler20CommandLineInterface20GeneratorContextImplESt14default_deleteISF_EEEENS1_10StringHashENS1_8StringEqESaISt4pairIKS9_SI_EEE12hash_slot_fnEPvSR_, ptr @_ZN4absl12lts_2023080218container_internal12raw_hash_setINS1_17FlatHashMapPolicyINSt7__cxx1112basic_stringIcSt11char_traitsIcESaIcEEESt10unique_ptrIN6google8protobuf8compiler20CommandLineInterface20GeneratorContextImplESt14default_deleteISF_EEEENS1_10StringHashENS1_8StringEqESaISt4pairIKS9_SI_EEE16transfer_slot_fnEPvSR_SR_, ptr @_ZN4absl12lts_2023080218container_internal18DeallocateStandardILm8EEEvRNS1_12CommonFieldsERKNS1_15PolicyFunctionsE }, comdat, align 8
@.str.202 = private unnamed_addr constant [3 x i8] c"%v\00", align 1
@_ZZN4absl12lts_2023080218container_internal12raw_hash_setINS1_17FlatHashSetPolicyINSt7__cxx1112basic_stringIcSt11char_traitsIcESaIcEEEEENS1_10StringHashENS1_8StringEqESaIS9_EE18GetPolicyFunctionsEvE5value = linkonce_odr hidden constant %"struct.absl::lts_20230802::container_internal::PolicyFunctions" { i64 32, ptr @_ZN4absl12lts_2023080218container_internal12raw_hash_setINS1_17FlatHashSetPolicyINSt7__cxx1112basic_stringIcSt11char_traitsIcESaIcEEEEENS1_10StringHashENS1_8StringEqESaIS9_EE12hash_slot_fnEPvSF_, ptr @_ZN4absl12lts_2023080218container_internal12raw_hash_setINS1_17FlatHashSetPolicyINSt7__cxx1112basic_stringIcSt11char_traitsIcESaIcEEEEENS1_10StringHashENS1_8StringEqESaIS9_EE16transfer_slot_fnEPvSF_SF_, ptr @_ZN4absl12lts_2023080218container_internal18DeallocateStandardILm8EEEvRNS1_12CommonFieldsERKNS1_15PolicyFunctionsE }, comdat, align 8
@_ZZN4absl12lts_2023080218container_internal12raw_hash_setINS1_17FlatHashMapPolicyINSt7__cxx1112basic_stringIcSt11char_traitsIcESaIcEEES9_EENS1_10StringHashENS1_8StringEqESaISt4pairIKS9_S9_EEE18GetPolicyFunctionsEvE5value = linkonce_odr hidden constant %"struct.absl::lts_20230802::container_internal::PolicyFunctions" { i64 64, ptr @_ZN4absl12lts_2023080218container_internal12raw_hash_setINS1_17FlatHashMapPolicyINSt7__cxx1112basic_stringIcSt11char_traitsIcESaIcEEES9_EENS1_10StringHashENS1_8StringEqESaISt4pairIKS9_S9_EEE12hash_slot_fnEPvSI_, ptr @_ZN4absl12lts_2023080218container_internal12raw_hash_setINS1_17FlatHashMapPolicyINSt7__cxx1112basic_stringIcSt11char_traitsIcESaIcEEES9_EENS1_10StringHashENS1_8StringEqESaISt4pairIKS9_S9_EEE16transfer_slot_fnEPvSI_SI_, ptr @_ZN4absl12lts_2023080218container_internal18DeallocateStandardILm8EEEvRNS1_12CommonFieldsERKNS1_15PolicyFunctionsE }, comdat, align 8
@_ZZN4absl12lts_2023080218container_internal12raw_hash_setINS1_17FlatHashMapPolicyISt17basic_string_viewIcSt11char_traitsIcEES7_EENS1_10StringHashENS1_8StringEqESaISt4pairIKS7_S7_EEE18GetPolicyFunctionsEvE5value = linkonce_odr hidden constant %"struct.absl::lts_20230802::container_internal::PolicyFunctions" { i64 32, ptr @_ZN4absl12lts_2023080218container_internal12raw_hash_setINS1_17FlatHashMapPolicyISt17basic_string_viewIcSt11char_traitsIcEES7_EENS1_10StringHashENS1_8StringEqESaISt4pairIKS7_S7_EEE12hash_slot_fnEPvSG_, ptr @_ZN4absl12lts_2023080218container_internal12raw_hash_setINS1_17FlatHashMapPolicyISt17basic_string_viewIcSt11char_traitsIcEES7_EENS1_10StringHashENS1_8StringEqESaISt4pairIKS7_S7_EEE16transfer_slot_fnEPvSG_SG_, ptr @_ZN4absl12lts_2023080218container_internal18DeallocateStandardILm8EEEvRNS1_12CommonFieldsERKNS1_15PolicyFunctionsE }, comdat, align 8
@.str.204 = private unnamed_addr constant [3 x i8] c";,\00", align 1
@_ZTVN10__cxxabiv117__class_type_infoE = external global [0 x ptr]
@_ZTSZN6google8protobuf2io7Printer8WithVarsIN4absl12lts_2023080213flat_hash_mapISt17basic_string_viewIcSt11char_traitsIcEESA_NS5_18container_internal10StringHashENSB_8StringEqESaISt4pairIKSA_SA_EEEEEEDaPKT_EUlSA_E_ = linkonce_odr hidden constant [210 x i8] c"ZN6google8protobuf2io7Printer8WithVarsIN4absl12lts_2023080213flat_hash_mapISt17basic_string_viewIcSt11char_traitsIcEESA_NS5_18container_internal10StringHashENSB_8StringEqESaISt4pairIKSA_SA_EEEEEEDaPKT_EUlSA_E_\00", comdat, align 1
@_ZTIZN6google8protobuf2io7Printer8WithVarsIN4absl12lts_2023080213flat_hash_mapISt17basic_string_viewIcSt11char_traitsIcEESA_NS5_18container_internal10StringHashENSB_8StringEqESaISt4pairIKSA_SA_EEEEEEDaPKT_EUlSA_E_ = linkonce_odr hidden constant { ptr, ptr } { ptr getelementptr inbounds (ptr, ptr @_ZTVN10__cxxabiv117__class_type_infoE, i64 2), ptr @_ZTSZN6google8protobuf2io7Printer8WithVarsIN4absl12lts_2023080213flat_hash_mapISt17basic_string_viewIcSt11char_traitsIcEESA_NS5_18container_internal10StringHashENSB_8StringEqESaISt4pairIKSA_SA_EEEEEEDaPKT_EUlSA_E_ }, comdat, align 8
@_ZN6google8protobuf2io17CodedOutputStream36default_serialization_deterministic_E = external local_unnamed_addr global %"struct.std::atomic.650", align 1
@llvm.global_ctors = appending global [1 x { i32, ptr, ptr }] [{ i32, ptr, ptr } { i32 65535, ptr @_GLOBAL__sub_I_command_line_interface.cc, ptr null }]
@switch.table._ZN6google8protobuf8compiler12_GLOBAL__N_134ValidateTargetConstraintsRecursiveERKNS0_7MessageERNS0_14DescriptorPool14ErrorCollectorESt17basic_string_viewIcSt11char_traitsIcEENS0_29FieldOptions_OptionTargetTypeE = private unnamed_addr constant [9 x ptr] [ptr @.str.191, ptr @.str.192, ptr @.str.193, ptr @.str.194, ptr @.str.195, ptr @.str.196, ptr @.str.197, ptr @.str.198, ptr @.str.199], align 8
@switch.table._ZN6google8protobuf8compiler12_GLOBAL__N_134ValidateTargetConstraintsRecursiveERKNS0_7MessageERNS0_14DescriptorPool14ErrorCollectorESt17basic_string_viewIcSt11char_traitsIcEENS0_29FieldOptions_OptionTargetTypeE.54 = private unnamed_addr constant [9 x i64] [i64 4, i64 15, i64 7, i64 5, i64 5, i64 4, i64 10, i64 7, i64 6], align 8

@_ZN6google8protobuf8compiler20CommandLineInterface20GeneratorContextImplC1ERKSt6vectorIPKNS0_14FileDescriptorESaIS7_EE = unnamed_addr alias void (ptr, ptr), ptr @_ZN6google8protobuf8compiler20CommandLineInterface20GeneratorContextImplC2ERKSt6vectorIPKNS0_14FileDescriptorESaIS7_EE
@_ZN6google8protobuf8compiler20CommandLineInterface18MemoryOutputStreamC1EPNS2_20GeneratorContextImplERKNSt7__cxx1112basic_stringIcSt11char_traitsIcESaIcEEEb = unnamed_addr alias void (ptr, ptr, ptr, i1), ptr @_ZN6google8protobuf8compiler20CommandLineInterface18MemoryOutputStreamC2EPNS2_20GeneratorContextImplERKNSt7__cxx1112basic_stringIcSt11char_traitsIcESaIcEEEb
@_ZN6google8protobuf8compiler20CommandLineInterface18MemoryOutputStreamC1EPNS2_20GeneratorContextImplERKNSt7__cxx1112basic_stringIcSt11char_traitsIcESaIcEEESD_ = unnamed_addr alias void (ptr, ptr, ptr, ptr), ptr @_ZN6google8protobuf8compiler20CommandLineInterface18MemoryOutputStreamC2EPNS2_20GeneratorContextImplERKNSt7__cxx1112basic_stringIcSt11char_traitsIcESaIcEEESD_
@_ZN6google8protobuf8compiler20CommandLineInterface18MemoryOutputStreamC1EPNS2_20GeneratorContextImplERKNSt7__cxx1112basic_stringIcSt11char_traitsIcESaIcEEESD_RKNS0_17GeneratedCodeInfoE = unnamed_addr alias void (ptr, ptr, ptr, ptr, ptr), ptr @_ZN6google8protobuf8compiler20CommandLineInterface18MemoryOutputStreamC2EPNS2_20GeneratorContextImplERKNSt7__cxx1112basic_stringIcSt11char_traitsIcESaIcEEESD_RKNS0_17GeneratedCodeInfoE
@_ZN6google8protobuf8compiler20CommandLineInterface18MemoryOutputStreamD1Ev = unnamed_addr alias void (ptr), ptr @_ZN6google8protobuf8compiler20CommandLineInterface18MemoryOutputStreamD2Ev
@_ZN6google8protobuf8compiler20CommandLineInterfaceC1Ev = unnamed_addr alias void (ptr), ptr @_ZN6google8protobuf8compiler20CommandLineInterfaceC2Ev
@_ZN6google8protobuf8compiler20CommandLineInterfaceD1Ev = unnamed_addr alias void (ptr), ptr @_ZN6google8protobuf8compiler20CommandLineInterfaceD2Ev

declare void @_ZNSt8ios_base4InitC1Ev(ptr noundef nonnull align 1 dereferenceable(1)) unnamed_addr #0

; Function Attrs: nounwind
declare void @_ZNSt8ios_base4InitD1Ev(ptr noundef nonnull align 1 dereferenceable(1)) unnamed_addr #1

; Function Attrs: nofree nounwind
declare i32 @__cxa_atexit(ptr, ptr, ptr) local_unnamed_addr #2

; Function Attrs: mustprogress uwtable
define void @_ZN6google8protobuf8compiler20CommandLineInterface25GetTransitiveDependenciesEPKNS0_14FileDescriptorEPN4absl12lts_2023080213flat_hash_setIS5_NS7_18container_internal6HashEqIS5_vE4HashENSB_2EqESaIS5_EEEPNS0_16RepeatedPtrFieldINS0_19FileDescriptorProtoEEERKNS1_27TransitiveDependencyOptionsE(ptr nocapture noundef nonnull readnone align 8 dereferenceable(574) %this, ptr noundef %file, ptr noundef %already_seen, ptr noundef %output, ptr nocapture noundef nonnull readonly align 1 dereferenceable(3) %options) local_unnamed_addr #3 align 2 personality ptr @__gxx_personality_v0 {
entry:
  %0 = load ptr, ptr %already_seen, align 8, !noalias !4
  tail call void @llvm.prefetch.p0(ptr %0, i32 0, i32 1, i32 1), !noalias !4
  %1 = ptrtoint ptr %file to i64
  %add.i.i.i.i.i.i.i.i.i.i.i.i.i.i.i = add i64 %1, ptrtoint (ptr @_ZN4absl12lts_2023080213hash_internal15MixingHashState5kSeedE to i64)
  %conv.i.i.i.i.i.i.i.i.i.i.i.i.i.i.i = zext i64 %add.i.i.i.i.i.i.i.i.i.i.i.i.i.i.i to i128
  %mul.i.i.i.i.i.i.i.i.i.i.i.i.i.i.i = mul nuw i128 %conv.i.i.i.i.i.i.i.i.i.i.i.i.i.i.i, 11376068507788127593
  %shr.i.i.i.i.i.i.i.i.i.i.i.i.i.i.i = lshr i128 %mul.i.i.i.i.i.i.i.i.i.i.i.i.i.i.i, 64
  %xor.i.i.i.i.i.i.i.i.i.i.i.i.i.i.i = xor i128 %shr.i.i.i.i.i.i.i.i.i.i.i.i.i.i.i, %mul.i.i.i.i.i.i.i.i.i.i.i.i.i.i.i
  %conv1.i.i.i.i.i.i.i.i.i.i.i.i.i.i.i = trunc i128 %xor.i.i.i.i.i.i.i.i.i.i.i.i.i.i.i to i64
  %add.i.i.i.i.i.i.i.i.i.i.i.i.i.i.i.i = add i64 %conv1.i.i.i.i.i.i.i.i.i.i.i.i.i.i.i, %1
  %conv.i.i.i.i.i.i.i.i.i.i.i.i.i.i.i.i = zext i64 %add.i.i.i.i.i.i.i.i.i.i.i.i.i.i.i.i to i128
  %mul.i.i.i.i.i.i.i.i.i.i.i.i.i.i.i.i = mul nuw i128 %conv.i.i.i.i.i.i.i.i.i.i.i.i.i.i.i.i, 11376068507788127593
  %shr.i.i.i.i.i.i.i.i.i.i.i.i.i.i.i.i = lshr i128 %mul.i.i.i.i.i.i.i.i.i.i.i.i.i.i.i.i, 64
  %xor.i.i.i.i.i.i.i.i.i.i.i.i.i.i.i.i = xor i128 %shr.i.i.i.i.i.i.i.i.i.i.i.i.i.i.i.i, %mul.i.i.i.i.i.i.i.i.i.i.i.i.i.i.i.i
  %conv1.i.i.i.i.i.i.i.i.i.i.i.i.i.i.i.i = trunc i128 %xor.i.i.i.i.i.i.i.i.i.i.i.i.i.i.i.i to i64
  %capacity_.i.i.i.i.i.i = getelementptr inbounds i8, ptr %already_seen, i64 16
  %2 = load i64, ptr %capacity_.i.i.i.i.i.i, align 8, !noalias !11
  %shr.i.i.i.i.i.i.i = lshr i64 %conv1.i.i.i.i.i.i.i.i.i.i.i.i.i.i.i.i, 7
  %3 = ptrtoint ptr %0 to i64
  %shr.i.i.i.i.i.i.i.i = lshr i64 %3, 12
  %xor.i.i.i.i.i.i.i = xor i64 %shr.i.i.i.i.i.i.i.i, %shr.i.i.i.i.i.i.i
  %4 = trunc i128 %xor.i.i.i.i.i.i.i.i.i.i.i.i.i.i.i.i to i8
  %conv.i.i.i.i.i = and i8 %4, 127
  %vecinit.i.i.i.i.i.i = insertelement <16 x i8> poison, i8 %conv.i.i.i.i.i, i64 0
  %vecinit15.i.i.i.i.i.i = shufflevector <16 x i8> %vecinit.i.i.i.i.i.i, <16 x i8> poison, <16 x i32> zeroinitializer
  %slots_.i.i.i.i.i.i = getelementptr inbounds i8, ptr %already_seen, i64 8
  %5 = load ptr, ptr %slots_.i.i.i.i.i.i, align 8, !noalias !4
  br label %while.body.i.i.i.i

while.body.i.i.i.i:                               ; preds = %if.end36.i.i.i.i, %entry
  %xor.i.i.i.pn.i.i.i.i = phi i64 [ %xor.i.i.i.i.i.i.i, %entry ], [ %add3.i.i.i.i.i, %if.end36.i.i.i.i ]
  %seq.sroa.10.0.i.i.i.i = phi i64 [ 0, %entry ], [ %add.i13.i.i.i.i, %if.end36.i.i.i.i ]
  %seq.sroa.4.0.i.i.i.i = and i64 %xor.i.i.i.pn.i.i.i.i, %2
  %add.ptr.i.i.i.i = getelementptr inbounds i8, ptr %0, i64 %seq.sroa.4.0.i.i.i.i
  %6 = load <16 x i8>, ptr %add.ptr.i.i.i.i, align 1, !noalias !4
  %cmp.i.i.i.i.i.i = icmp eq <16 x i8> %vecinit15.i.i.i.i.i.i, %6
  %7 = bitcast <16 x i1> %cmp.i.i.i.i.i.i to i16
  %cmp.i.not25.i.i.i.i = icmp eq i16 %7, 0
  br i1 %cmp.i.not25.i.i.i.i, label %for.end.i.i.i.i, label %for.body.preheader.i.i.i.i

for.body.preheader.i.i.i.i:                       ; preds = %while.body.i.i.i.i
  %8 = zext i16 %7 to i32
  br label %for.body.i.i.i.i

for.body.i.i.i.i:                                 ; preds = %for.inc.i.i.i.i, %for.body.preheader.i.i.i.i
  %__begin0.sroa.0.026.i.i.i.i = phi i32 [ %and.i10.i.i.i.i, %for.inc.i.i.i.i ], [ %8, %for.body.preheader.i.i.i.i ]
  %9 = tail call noundef i32 @llvm.cttz.i32(i32 %__begin0.sroa.0.026.i.i.i.i, i1 true), !range !14
  %conv.i.i.i.i = zext nneg i32 %9 to i64
  %add.i.i.i.i.i = add i64 %seq.sroa.4.0.i.i.i.i, %conv.i.i.i.i
  %and.i.i.i.i.i = and i64 %add.i.i.i.i.i, %2
  %add.ptr21.i.i.i.i = getelementptr inbounds ptr, ptr %5, i64 %and.i.i.i.i.i
  %10 = load ptr, ptr %add.ptr21.i.i.i.i, align 8, !noalias !4
  %cmp.i.i.i.i.i.i.i.i.i = icmp eq ptr %10, %file
  br i1 %cmp.i.i.i.i.i.i.i.i.i, label %if.end13, label %for.inc.i.i.i.i

for.inc.i.i.i.i:                                  ; preds = %for.body.i.i.i.i
  %sub.i.i.i.i.i = add nsw i32 %__begin0.sroa.0.026.i.i.i.i, -1
  %and.i10.i.i.i.i = and i32 %sub.i.i.i.i.i, %__begin0.sroa.0.026.i.i.i.i
  %cmp.i.not.i.i.i.i = icmp eq i32 %and.i10.i.i.i.i, 0
  br i1 %cmp.i.not.i.i.i.i, label %for.end.i.i.i.i, label %for.body.i.i.i.i

for.end.i.i.i.i:                                  ; preds = %for.inc.i.i.i.i, %while.body.i.i.i.i
  %cmp.i.i11.i.i.i.i = icmp eq <16 x i8> %6, <i8 -128, i8 -128, i8 -128, i8 -128, i8 -128, i8 -128, i8 -128, i8 -128, i8 -128, i8 -128, i8 -128, i8 -128, i8 -128, i8 -128, i8 -128, i8 -128>
  %11 = bitcast <16 x i1> %cmp.i.i11.i.i.i.i to i16
  %cmp.i12.not.i.i.i.i = icmp eq i16 %11, 0
  br i1 %cmp.i12.not.i.i.i.i, label %if.end36.i.i.i.i, label %_ZN4absl12lts_2023080218container_internal12raw_hash_setINS1_17FlatHashSetPolicyIPKN6google8protobuf14FileDescriptorEEENS1_6HashEqIS8_vE4HashENSB_2EqESaIS8_EE6insertIS8_TnNSt9enable_ifIXsr4absl11disjunctionISt14is_convertibleIRKT_S8_ENSF_22SameAsElementReferenceISL_EEEE5valueEiE4typeELi0ETnNSH_IXsr14IsDecomposableISL_EE5valueEiE4typeELi0EEESt4pairINSF_8iteratorEbESL_.exit

if.end36.i.i.i.i:                                 ; preds = %for.end.i.i.i.i
  %add.i13.i.i.i.i = add i64 %seq.sroa.10.0.i.i.i.i, 16
  %add3.i.i.i.i.i = add i64 %add.i13.i.i.i.i, %seq.sroa.4.0.i.i.i.i
  br label %while.body.i.i.i.i, !llvm.loop !15

_ZN4absl12lts_2023080218container_internal12raw_hash_setINS1_17FlatHashSetPolicyIPKN6google8protobuf14FileDescriptorEEENS1_6HashEqIS8_vE4HashENSB_2EqESaIS8_EE6insertIS8_TnNSt9enable_ifIXsr4absl11disjunctionISt14is_convertibleIRKT_S8_ENSF_22SameAsElementReferenceISL_EEEE5valueEiE4typeELi0ETnNSH_IXsr14IsDecomposableISL_EE5valueEiE4typeELi0EEESt4pairINSF_8iteratorEbESL_.exit: ; preds = %for.end.i.i.i.i
  %call38.i.i.i.i = tail call noundef i64 @_ZN4absl12lts_2023080218container_internal12raw_hash_setINS1_17FlatHashSetPolicyIPKN6google8protobuf14FileDescriptorEEENS1_6HashEqIS8_vE4HashENSB_2EqESaIS8_EE14prepare_insertEm(ptr noundef nonnull align 8 dereferenceable(32) %already_seen, i64 noundef %conv1.i.i.i.i.i.i.i.i.i.i.i.i.i.i.i.i), !noalias !4
  %12 = load ptr, ptr %slots_.i.i.i.i.i.i, align 8, !noalias !4
  %add.ptr.i2.i.i.i = getelementptr inbounds ptr, ptr %12, i64 %call38.i.i.i.i
  store ptr %file, ptr %add.ptr.i2.i.i.i, align 8, !noalias !4
  %dependency_count_.i = getelementptr inbounds i8, ptr %file, i64 48
  %13 = load i32, ptr %dependency_count_.i, align 8
  %cmp20 = icmp sgt i32 %13, 0
  br i1 %cmp20, label %for.body, label %for.end

for.body:                                         ; preds = %_ZN4absl12lts_2023080218container_internal12raw_hash_setINS1_17FlatHashSetPolicyIPKN6google8protobuf14FileDescriptorEEENS1_6HashEqIS8_vE4HashENSB_2EqESaIS8_EE6insertIS8_TnNSt9enable_ifIXsr4absl11disjunctionISt14is_convertibleIRKT_S8_ENSF_22SameAsElementReferenceISL_EEEE5valueEiE4typeELi0ETnNSH_IXsr14IsDecomposableISL_EE5valueEiE4typeELi0EEESt4pairINSF_8iteratorEbESL_.exit, %for.body
  %i.021 = phi i32 [ %inc, %for.body ], [ 0, %_ZN4absl12lts_2023080218container_internal12raw_hash_setINS1_17FlatHashSetPolicyIPKN6google8protobuf14FileDescriptorEEENS1_6HashEqIS8_vE4HashENSB_2EqESaIS8_EE6insertIS8_TnNSt9enable_ifIXsr4absl11disjunctionISt14is_convertibleIRKT_S8_ENSF_22SameAsElementReferenceISL_EEEE5valueEiE4typeELi0ETnNSH_IXsr14IsDecomposableISL_EE5valueEiE4typeELi0EEESt4pairINSF_8iteratorEbESL_.exit ]
  %call2 = tail call noundef ptr @_ZNK6google8protobuf14FileDescriptor10dependencyEi(ptr noundef nonnull align 8 dereferenceable(168) %file, i32 noundef %i.021)
  tail call void @_ZN6google8protobuf8compiler20CommandLineInterface25GetTransitiveDependenciesEPKNS0_14FileDescriptorEPN4absl12lts_2023080213flat_hash_setIS5_NS7_18container_internal6HashEqIS5_vE4HashENSB_2EqESaIS5_EEEPNS0_16RepeatedPtrFieldINS0_19FileDescriptorProtoEEERKNS1_27TransitiveDependencyOptionsE(ptr noundef nonnull align 8 dereferenceable(574) %this, ptr noundef %call2, ptr noundef nonnull %already_seen, ptr noundef %output, ptr noundef nonnull align 1 dereferenceable(3) %options)
  %inc = add nuw nsw i32 %i.021, 1
  %14 = load i32, ptr %dependency_count_.i, align 8
  %cmp = icmp slt i32 %inc, %14
  br i1 %cmp, label %for.body, label %for.end, !llvm.loop !17

for.end:                                          ; preds = %for.body, %_ZN4absl12lts_2023080218container_internal12raw_hash_setINS1_17FlatHashSetPolicyIPKN6google8protobuf14FileDescriptorEEENS1_6HashEqIS8_vE4HashENSB_2EqESaIS8_EE6insertIS8_TnNSt9enable_ifIXsr4absl11disjunctionISt14is_convertibleIRKT_S8_ENSF_22SameAsElementReferenceISL_EEEE5valueEiE4typeELi0ETnNSH_IXsr14IsDecomposableISL_EE5valueEiE4typeELi0EEESt4pairINSF_8iteratorEbESL_.exit
  %call2.i.i = tail call noundef ptr @_ZN6google8protobuf8internal20RepeatedPtrFieldBase18AddOutOfLineHelperEPFPvPNS0_5ArenaEE(ptr noundef nonnull align 8 dereferenceable(24) %output, ptr noundef nonnull @_ZN6google8protobuf5Arena16DefaultConstructINS0_19FileDescriptorProtoEEEPvPS1_)
  tail call void @_ZNK6google8protobuf14FileDescriptor6CopyToEPNS0_19FileDescriptorProtoE(ptr noundef nonnull align 8 dereferenceable(168) %file, ptr noundef %call2.i.i)
  %include_source_code_info = getelementptr inbounds i8, ptr %options, i64 1
  %15 = load i8, ptr %include_source_code_info, align 1
  %16 = and i8 %15, 1
  %tobool4.not = icmp eq i8 %16, 0
  br i1 %tobool4.not, label %if.end6, label %if.then5

if.then5:                                         ; preds = %for.end
  tail call void @_ZNK6google8protobuf14FileDescriptor20CopySourceCodeInfoToEPNS0_19FileDescriptorProtoE(ptr noundef nonnull align 8 dereferenceable(168) %file, ptr noundef %call2.i.i)
  br label %if.end6

if.end6:                                          ; preds = %if.then5, %for.end
  %retain_options = getelementptr inbounds i8, ptr %options, i64 2
  %17 = load i8, ptr %retain_options, align 1
  %18 = and i8 %17, 1
  %tobool7.not = icmp eq i8 %18, 0
  br i1 %tobool7.not, label %if.then8, label %if.end10

if.then8:                                         ; preds = %if.end6
  %pool_.i = getelementptr inbounds i8, ptr %file, i64 24
  %19 = load ptr, ptr %pool_.i, align 8
  tail call void @_ZN6google8protobuf8compiler27StripSourceRetentionOptionsERKNS0_14DescriptorPoolERNS0_19FileDescriptorProtoE(ptr noundef nonnull align 8 dereferenceable(96) %19, ptr noundef nonnull align 8 dereferenceable(224) %call2.i.i)
  br label %if.end10

if.end10:                                         ; preds = %if.then8, %if.end6
  %20 = load i8, ptr %options, align 1
  %21 = and i8 %20, 1
  %tobool11.not = icmp eq i8 %21, 0
  br i1 %tobool11.not, label %if.end13, label %if.then12

if.then12:                                        ; preds = %if.end10
  tail call void @_ZNK6google8protobuf14FileDescriptor14CopyJsonNameToEPNS0_19FileDescriptorProtoE(ptr noundef nonnull align 8 dereferenceable(168) %file, ptr noundef %call2.i.i)
  br label %if.end13

if.end13:                                         ; preds = %for.body.i.i.i.i, %if.then12, %if.end10
  ret void
}

declare noundef ptr @_ZNK6google8protobuf14FileDescriptor10dependencyEi(ptr noundef nonnull align 8 dereferenceable(168), i32 noundef) local_unnamed_addr #0

declare void @_ZNK6google8protobuf14FileDescriptor6CopyToEPNS0_19FileDescriptorProtoE(ptr noundef nonnull align 8 dereferenceable(168), ptr noundef) local_unnamed_addr #0

declare void @_ZNK6google8protobuf14FileDescriptor20CopySourceCodeInfoToEPNS0_19FileDescriptorProtoE(ptr noundef nonnull align 8 dereferenceable(168), ptr noundef) local_unnamed_addr #0

declare void @_ZN6google8protobuf8compiler27StripSourceRetentionOptionsERKNS0_14DescriptorPoolERNS0_19FileDescriptorProtoE(ptr noundef nonnull align 8 dereferenceable(96), ptr noundef nonnull align 8 dereferenceable(224)) local_unnamed_addr #0

declare void @_ZNK6google8protobuf14FileDescriptor14CopyJsonNameToEPNS0_19FileDescriptorProtoE(ptr noundef nonnull align 8 dereferenceable(168), ptr noundef) local_unnamed_addr #0

; Function Attrs: mustprogress nofree norecurse nosync nounwind willreturn memory(argmem: write) uwtable
define void @_ZN6google8protobuf8compiler20CommandLineInterface20GeneratorContextImplC2ERKSt6vectorIPKNS0_14FileDescriptorESaIS7_EE(ptr nocapture noundef nonnull writeonly align 8 dereferenceable(41) %this, ptr noundef nonnull align 8 dereferenceable(24) %parsed_files) unnamed_addr #4 align 2 personality ptr @__gxx_personality_v0 {
invoke.cont:
  store ptr getelementptr inbounds ({ [10 x ptr] }, ptr @_ZTVN6google8protobuf8compiler20CommandLineInterface20GeneratorContextImplE, i64 0, inrange i32 0, i64 2), ptr %this, align 8
  %files_ = getelementptr inbounds i8, ptr %this, i64 8
  store ptr @_ZZN4absl12lts_2023080218container_internal5btreeINS1_10map_paramsINSt7__cxx1112basic_stringIcSt11char_traitsIcESaIcEEES9_St4lessIS9_ESaISt4pairIKS9_S9_EELi256ELb0EEEE9EmptyNodeEvE10empty_nodeB5cxx11, ptr %files_, align 8
  %rightmost_.i.i.i.i.i = getelementptr inbounds i8, ptr %this, i64 16
  store ptr @_ZZN4absl12lts_2023080218container_internal5btreeINS1_10map_paramsINSt7__cxx1112basic_stringIcSt11char_traitsIcESaIcEEES9_St4lessIS9_ESaISt4pairIKS9_S9_EELi256ELb0EEEE9EmptyNodeEvE10empty_nodeB5cxx11, ptr %rightmost_.i.i.i.i.i, align 8
  %size_.i.i.i.i.i = getelementptr inbounds i8, ptr %this, i64 24
  store i64 0, ptr %size_.i.i.i.i.i, align 8
  %parsed_files_ = getelementptr inbounds i8, ptr %this, i64 32
  store ptr %parsed_files, ptr %parsed_files_, align 8
  %had_error_ = getelementptr inbounds i8, ptr %this, i64 40
  store i8 0, ptr %had_error_, align 8
  ret void
}

declare i32 @__gxx_personality_v0(...)

; Function Attrs: nounwind
declare void @_ZN6google8protobuf8compiler16GeneratorContextD2Ev(ptr noundef nonnull align 8 dereferenceable(8)) unnamed_addr #1

; Function Attrs: mustprogress uwtable
define noundef zeroext i1 @_ZN6google8protobuf8compiler20CommandLineInterface20GeneratorContextImpl14WriteAllToDiskERKNSt7__cxx1112basic_stringIcSt11char_traitsIcESaIcEEE(ptr nocapture noundef nonnull readonly align 8 dereferenceable(41) %this, ptr noundef nonnull align 8 dereferenceable(32) %prefix) local_unnamed_addr #5 align 2 personality ptr @__gxx_personality_v0 {
entry:
  %ref.tmp.i.i = alloca %"struct.absl::lts_20230802::strings_internal::Splitter<absl::lts_20230802::ByAnyChar, absl::lts_20230802::SkipEmpty, std::basic_string_view<char>>::ConvertToContainer", align 1
  %agg.tmp1.i.i = alloca %"class.absl::lts_20230802::ByAnyChar", align 8
  %parts.i = alloca %"class.std::vector.37", align 8
  %ref.tmp.i = alloca %"class.absl::lts_20230802::strings_internal::Splitter", align 8
  %agg.tmp1.i = alloca %"class.absl::lts_20230802::ByAnyChar", align 8
  %path_so_far.i = alloca %"class.std::__cxx11::basic_string", align 8
  %filename = alloca %"class.std::__cxx11::basic_string", align 8
  %had_error_ = getelementptr inbounds i8, ptr %this, i64 40
  %0 = load i8, ptr %had_error_, align 8
  %1 = and i8 %0, 1
  %tobool.not = icmp eq i8 %1, 0
  br i1 %tobool.not, label %if.end, label %return

if.end:                                           ; preds = %entry
  %call.i = tail call noundef zeroext i1 @_ZNKSt7__cxx1112basic_stringIcSt11char_traitsIcESaIcEE5emptyEv(ptr noundef nonnull align 8 dereferenceable(32) %prefix) #29
  br i1 %call.i, label %if.end3, label %if.end.i

if.end.i:                                         ; preds = %if.end
  %call1.i = tail call noundef ptr @_ZNKSt7__cxx1112basic_stringIcSt11char_traitsIcESaIcEE5c_strEv(ptr noundef nonnull align 8 dereferenceable(32) %prefix) #29
  %call2.i = tail call i32 @access(ptr noundef %call1.i, i32 noundef 0) #29
  %cmp.i = icmp eq i32 %call2.i, -1
  br i1 %cmp.i, label %_ZN6google8protobuf8compiler12_GLOBAL__N_121VerifyDirectoryExistsERKNSt7__cxx1112basic_stringIcSt11char_traitsIcESaIcEEE.exit, label %if.end3

_ZN6google8protobuf8compiler12_GLOBAL__N_121VerifyDirectoryExistsERKNSt7__cxx1112basic_stringIcSt11char_traitsIcESaIcEEE.exit: ; preds = %if.end.i
  %call4.i = tail call noundef nonnull align 8 dereferenceable(8) ptr @_ZStlsIcSt11char_traitsIcESaIcEERSt13basic_ostreamIT_T0_ES7_RKNSt7__cxx1112basic_stringIS4_S5_T1_EE(ptr noundef nonnull align 8 dereferenceable(8) @_ZSt4cerr, ptr noundef nonnull align 8 dereferenceable(32) %prefix)
  %call5.i = tail call noundef nonnull align 8 dereferenceable(8) ptr @_ZStlsISt11char_traitsIcEERSt13basic_ostreamIcT_ES5_PKc(ptr noundef nonnull align 8 dereferenceable(8) %call4.i, ptr noundef nonnull @.str)
  %call6.i = tail call ptr @__errno_location() #30
  %2 = load i32, ptr %call6.i, align 4
  %call7.i = tail call ptr @strerror(i32 noundef %2) #29
  %call8.i = tail call noundef nonnull align 8 dereferenceable(8) ptr @_ZStlsISt11char_traitsIcEERSt13basic_ostreamIcT_ES5_PKc(ptr noundef nonnull align 8 dereferenceable(8) %call5.i, ptr noundef %call7.i)
  %call9.i = tail call noundef nonnull align 8 dereferenceable(8) ptr @_ZNSolsEPFRSoS_E(ptr noundef nonnull align 8 dereferenceable(8) %call8.i, ptr noundef nonnull @_ZSt4endlIcSt11char_traitsIcEERSt13basic_ostreamIT_T0_ES6_)
  br label %return

if.end3:                                          ; preds = %if.end, %if.end.i
  %files_ = getelementptr inbounds i8, ptr %this, i64 8
  %3 = load ptr, ptr %files_, align 8
  %4 = load ptr, ptr %3, align 8
  %rightmost_.i.i.i = getelementptr inbounds i8, ptr %this, i64 16
  %5 = load ptr, ptr %rightmost_.i.i.i, align 8
  %arrayidx.i.i.i = getelementptr i8, ptr %5, i64 10
  %6 = load i8, ptr %arrayidx.i.i.i, align 1
  %conv.i.i = zext i8 %6 to i32
  %cmp.i.i68 = icmp ne ptr %4, %5
  %cmp6.i.i69 = icmp ne i8 %6, 0
  %.not.i70 = select i1 %cmp.i.i68, i1 true, i1 %cmp6.i.i69
  br i1 %.not.i70, label %for.body.lr.ph, label %return

for.body.lr.ph:                                   ; preds = %if.end3
  %input_text.sroa.2.0.text_.sroa_idx.i.i.i = getelementptr inbounds i8, ptr %ref.tmp.i, i64 8
  %delimiter_.i.i.i = getelementptr inbounds i8, ptr %ref.tmp.i, i64 16
  %_M_finish.i.i = getelementptr inbounds i8, ptr %parts.i, i64 8
  br label %for.body

for.body:                                         ; preds = %for.body.lr.ph, %_ZN4absl12lts_2023080218container_internal14btree_iteratorINS1_10btree_nodeINS1_10map_paramsINSt7__cxx1112basic_stringIcSt11char_traitsIcESaIcEEESA_St4lessISA_ESaISt4pairIKSA_SA_EELi256ELb0EEEEERSF_PSF_EppEv.exit
  %__begin2.sroa.8.072 = phi i32 [ 0, %for.body.lr.ph ], [ %__begin2.sroa.8.2, %_ZN4absl12lts_2023080218container_internal14btree_iteratorINS1_10btree_nodeINS1_10map_paramsINSt7__cxx1112basic_stringIcSt11char_traitsIcESaIcEEESA_St4lessISA_ESaISt4pairIKSA_SA_EELi256ELb0EEEEERSF_PSF_EppEv.exit ]
  %__begin2.sroa.0.071 = phi ptr [ %4, %for.body.lr.ph ], [ %__begin2.sroa.0.2, %_ZN4absl12lts_2023080218container_internal14btree_iteratorINS1_10btree_nodeINS1_10map_paramsINSt7__cxx1112basic_stringIcSt11char_traitsIcESaIcEEESA_St4lessISA_ESaISt4pairIKSA_SA_EELi256ELb0EEEEERSF_PSF_EppEv.exit ]
  %7 = and i32 %__begin2.sroa.8.072, 255
  %conv6.i = zext nneg i32 %7 to i64
  %add.ptr.i.i.i.i.i = getelementptr inbounds i8, ptr %__begin2.sroa.0.071, i64 16
  %arrayidx.i.i.i19 = getelementptr inbounds %"union.absl::lts_20230802::container_internal::map_slot_type", ptr %add.ptr.i.i.i.i.i, i64 %conv6.i
  %second = getelementptr inbounds i8, ptr %arrayidx.i.i.i19, i64 32
  %call8 = call noundef ptr @_ZNKSt7__cxx1112basic_stringIcSt11char_traitsIcESaIcEE4dataEv(ptr noundef nonnull align 8 dereferenceable(32) %second) #29
  %call10 = call noundef i64 @_ZNKSt7__cxx1112basic_stringIcSt11char_traitsIcESaIcEE4sizeEv(ptr noundef nonnull align 8 dereferenceable(32) %second) #29
  %conv = trunc i64 %call10 to i32
  call void @llvm.lifetime.start.p0(i64 24, ptr nonnull %parts.i)
  call void @llvm.lifetime.start.p0(i64 56, ptr nonnull %ref.tmp.i)
  call void @llvm.lifetime.start.p0(i64 32, ptr nonnull %agg.tmp1.i)
  call void @llvm.lifetime.start.p0(i64 32, ptr nonnull %path_so_far.i)
  %call.i.i = call { i64, ptr } @_ZNKSt7__cxx1112basic_stringIcSt11char_traitsIcESaIcEEcvSt17basic_string_viewIcS2_EEv(ptr noundef nonnull align 8 dereferenceable(32) %arrayidx.i.i.i19) #29
  call void @_ZN4absl12lts_202308029ByAnyCharC1ESt17basic_string_viewIcSt11char_traitsIcEE(ptr noundef nonnull align 8 dereferenceable(32) %agg.tmp1.i, i64 2, ptr nonnull @.str.153)
  call void @llvm.lifetime.start.p0(i64 32, ptr nonnull %agg.tmp1.i.i)
  invoke void @_ZNSt7__cxx1112basic_stringIcSt11char_traitsIcESaIcEEC1ERKS4_(ptr noundef nonnull align 8 dereferenceable(32) %agg.tmp1.i.i, ptr noundef nonnull align 8 dereferenceable(32) %agg.tmp1.i)
          to label %.noexc.i unwind label %lpad.i

.noexc.i:                                         ; preds = %for.body
  %8 = extractvalue { i64, ptr } %call.i.i, 1
  %9 = extractvalue { i64, ptr } %call.i.i, 0
  store i64 %9, ptr %ref.tmp.i, align 8, !alias.scope !18
  store ptr %8, ptr %input_text.sroa.2.0.text_.sroa_idx.i.i.i, align 8, !alias.scope !18
  invoke void @_ZNSt7__cxx1112basic_stringIcSt11char_traitsIcESaIcEEC1ERKS4_(ptr noundef nonnull align 8 dereferenceable(32) %delimiter_.i.i.i, ptr noundef nonnull align 8 dereferenceable(32) %agg.tmp1.i.i)
          to label %invoke.cont.i unwind label %lpad.i.i

lpad.i.i:                                         ; preds = %.noexc.i
  %10 = landingpad { ptr, i32 }
          cleanup
  call void @_ZNSt7__cxx1112basic_stringIcSt11char_traitsIcESaIcEED1Ev(ptr noundef nonnull align 8 dereferenceable(32) %agg.tmp1.i.i) #29
  br label %ehcleanup.i

invoke.cont.i:                                    ; preds = %.noexc.i
  call void @_ZNSt7__cxx1112basic_stringIcSt11char_traitsIcESaIcEED1Ev(ptr noundef nonnull align 8 dereferenceable(32) %agg.tmp1.i.i) #29
  call void @llvm.lifetime.end.p0(i64 32, ptr nonnull %agg.tmp1.i.i)
  call void @llvm.lifetime.start.p0(i64 1, ptr nonnull %ref.tmp.i.i)
  invoke void @_ZNK4absl12lts_2023080216strings_internal8SplitterINS0_9ByAnyCharENS0_9SkipEmptyESt17basic_string_viewIcSt11char_traitsIcEEE18ConvertToContainerISt6vectorINSt7__cxx1112basic_stringIcS7_SaIcEEESaISF_EESF_Lb0EEclERKS9_(ptr nonnull sret(%"class.std::vector.37") align 8 %parts.i, ptr noundef nonnull align 1 dereferenceable(1) %ref.tmp.i.i, ptr noundef nonnull align 8 dereferenceable(49) %ref.tmp.i)
          to label %invoke.cont5.i unwind label %lpad4.i

invoke.cont5.i:                                   ; preds = %invoke.cont.i
  call void @llvm.lifetime.end.p0(i64 1, ptr nonnull %ref.tmp.i.i)
  call void @_ZNSt7__cxx1112basic_stringIcSt11char_traitsIcESaIcEED1Ev(ptr noundef nonnull align 8 dereferenceable(32) %delimiter_.i.i.i) #29
  call void @_ZNSt7__cxx1112basic_stringIcSt11char_traitsIcESaIcEED1Ev(ptr noundef nonnull align 8 dereferenceable(32) %agg.tmp1.i) #29
  invoke void @_ZNSt7__cxx1112basic_stringIcSt11char_traitsIcESaIcEEC1ERKS4_(ptr noundef nonnull align 8 dereferenceable(32) %path_so_far.i, ptr noundef nonnull align 8 dereferenceable(32) %prefix)
          to label %for.cond.preheader.i unwind label %lpad6.i

for.cond.preheader.i:                             ; preds = %invoke.cont5.i
  %11 = load ptr, ptr %_M_finish.i.i, align 8
  %12 = load ptr, ptr %parts.i, align 8
  %sub.ptr.lhs.cast.i18.i = ptrtoint ptr %11 to i64
  %sub.ptr.rhs.cast.i19.i = ptrtoint ptr %12 to i64
  %sub.ptr.sub.i20.i = sub i64 %sub.ptr.lhs.cast.i18.i, %sub.ptr.rhs.cast.i19.i
  %cmp23.i = icmp eq i64 %sub.ptr.sub.i20.i, 32
  br i1 %cmp23.i, label %cleanup.i, label %for.body.i

for.body.i:                                       ; preds = %for.cond.preheader.i, %for.inc.i
  %indvars.iv.i = phi i64 [ %indvars.iv.next.i, %for.inc.i ], [ 0, %for.cond.preheader.i ]
  %13 = phi ptr [ %20, %for.inc.i ], [ %12, %for.cond.preheader.i ]
  %add.ptr.i.i = getelementptr inbounds %"class.std::__cxx11::basic_string", ptr %13, i64 %indvars.iv.i
  %call12.i = invoke noundef nonnull align 8 dereferenceable(32) ptr @_ZNSt7__cxx1112basic_stringIcSt11char_traitsIcESaIcEEpLERKS4_(ptr noundef nonnull align 8 dereferenceable(32) %path_so_far.i, ptr noundef nonnull align 8 dereferenceable(32) %add.ptr.i.i)
          to label %invoke.cont11.i unwind label %lpad10.loopexit.i

invoke.cont11.i:                                  ; preds = %for.body.i
  %call13.i = call noundef ptr @_ZNKSt7__cxx1112basic_stringIcSt11char_traitsIcESaIcEE5c_strEv(ptr noundef nonnull align 8 dereferenceable(32) %path_so_far.i) #29
  %call14.i = call i32 @mkdir(ptr noundef %call13.i, i32 noundef 511) #29
  %cmp15.not.i = icmp eq i32 %call14.i, 0
  br i1 %cmp15.not.i, label %if.end33.i, label %if.then.i

if.then.i:                                        ; preds = %invoke.cont11.i
  %call16.i = tail call ptr @__errno_location() #30
  %14 = load i32, ptr %call16.i, align 4
  %cmp17.not.i = icmp eq i32 %14, 17
  br i1 %cmp17.not.i, label %if.end33.i, label %if.then18.i

if.then18.i:                                      ; preds = %if.then.i
  %call20.i = invoke noundef nonnull align 8 dereferenceable(8) ptr @_ZStlsIcSt11char_traitsIcESaIcEERSt13basic_ostreamIT_T0_ES7_RKNSt7__cxx1112basic_stringIS4_S5_T1_EE(ptr noundef nonnull align 8 dereferenceable(8) @_ZSt4cerr, ptr noundef nonnull align 8 dereferenceable(32) %arrayidx.i.i.i19)
          to label %invoke.cont19.i unwind label %lpad10.loopexit.split-lp.i

invoke.cont19.i:                                  ; preds = %if.then18.i
  %call22.i = invoke noundef nonnull align 8 dereferenceable(8) ptr @_ZStlsISt11char_traitsIcEERSt13basic_ostreamIcT_ES5_PKc(ptr noundef nonnull align 8 dereferenceable(8) %call20.i, ptr noundef nonnull @.str.154)
          to label %invoke.cont21.i unwind label %lpad10.loopexit.split-lp.i

invoke.cont21.i:                                  ; preds = %invoke.cont19.i
  %call24.i = invoke noundef nonnull align 8 dereferenceable(8) ptr @_ZStlsIcSt11char_traitsIcESaIcEERSt13basic_ostreamIT_T0_ES7_RKNSt7__cxx1112basic_stringIS4_S5_T1_EE(ptr noundef nonnull align 8 dereferenceable(8) %call22.i, ptr noundef nonnull align 8 dereferenceable(32) %path_so_far.i)
          to label %invoke.cont23.i unwind label %lpad10.loopexit.split-lp.i

invoke.cont23.i:                                  ; preds = %invoke.cont21.i
  %call26.i = invoke noundef nonnull align 8 dereferenceable(8) ptr @_ZStlsISt11char_traitsIcEERSt13basic_ostreamIcT_ES5_PKc(ptr noundef nonnull align 8 dereferenceable(8) %call24.i, ptr noundef nonnull @.str)
          to label %invoke.cont25.i unwind label %lpad10.loopexit.split-lp.i

invoke.cont25.i:                                  ; preds = %invoke.cont23.i
  %15 = load i32, ptr %call16.i, align 4
  %call28.i = call ptr @strerror(i32 noundef %15) #29
  %call30.i = invoke noundef nonnull align 8 dereferenceable(8) ptr @_ZStlsISt11char_traitsIcEERSt13basic_ostreamIcT_ES5_PKc(ptr noundef nonnull align 8 dereferenceable(8) %call26.i, ptr noundef %call28.i)
          to label %invoke.cont29.i unwind label %lpad10.loopexit.split-lp.i

invoke.cont29.i:                                  ; preds = %invoke.cont25.i
  %call32.i = invoke noundef nonnull align 8 dereferenceable(8) ptr @_ZNSolsEPFRSoS_E(ptr noundef nonnull align 8 dereferenceable(8) %call30.i, ptr noundef nonnull @_ZSt4endlIcSt11char_traitsIcEERSt13basic_ostreamIT_T0_ES6_)
          to label %cleanup.i unwind label %lpad10.loopexit.split-lp.i

lpad.i:                                           ; preds = %for.body
  %16 = landingpad { ptr, i32 }
          cleanup
  br label %ehcleanup.i

lpad4.i:                                          ; preds = %invoke.cont.i
  %17 = landingpad { ptr, i32 }
          cleanup
  call void @_ZNSt7__cxx1112basic_stringIcSt11char_traitsIcESaIcEED1Ev(ptr noundef nonnull align 8 dereferenceable(32) %delimiter_.i.i.i) #29
  br label %ehcleanup.i

ehcleanup.i:                                      ; preds = %lpad4.i, %lpad.i, %lpad.i.i
  %.pn.i = phi { ptr, i32 } [ %17, %lpad4.i ], [ %16, %lpad.i ], [ %10, %lpad.i.i ]
  call void @_ZNSt7__cxx1112basic_stringIcSt11char_traitsIcESaIcEED1Ev(ptr noundef nonnull align 8 dereferenceable(32) %agg.tmp1.i) #29
  br label %common.resume

lpad6.i:                                          ; preds = %invoke.cont5.i
  %18 = landingpad { ptr, i32 }
          cleanup
  br label %ehcleanup38.i

lpad10.loopexit.i:                                ; preds = %if.end33.i, %for.body.i
  %lpad.loopexit.i = landingpad { ptr, i32 }
          cleanup
  br label %lpad10.i

lpad10.loopexit.split-lp.i:                       ; preds = %invoke.cont29.i, %invoke.cont25.i, %invoke.cont23.i, %invoke.cont21.i, %invoke.cont19.i, %if.then18.i
  %lpad.loopexit.split-lp.i = landingpad { ptr, i32 }
          cleanup
  br label %lpad10.i

lpad10.i:                                         ; preds = %lpad10.loopexit.split-lp.i, %lpad10.loopexit.i
  %lpad.phi.i = phi { ptr, i32 } [ %lpad.loopexit.i, %lpad10.loopexit.i ], [ %lpad.loopexit.split-lp.i, %lpad10.loopexit.split-lp.i ]
  call void @_ZNSt7__cxx1112basic_stringIcSt11char_traitsIcESaIcEED1Ev(ptr noundef nonnull align 8 dereferenceable(32) %path_so_far.i) #29
  br label %ehcleanup38.i

if.end33.i:                                       ; preds = %if.then.i, %invoke.cont11.i
  %call35.i = invoke noundef nonnull align 8 dereferenceable(32) ptr @_ZNSt7__cxx1112basic_stringIcSt11char_traitsIcESaIcEEpLEc(ptr noundef nonnull align 8 dereferenceable(32) %path_so_far.i, i8 noundef signext 47)
          to label %for.inc.i unwind label %lpad10.loopexit.i

for.inc.i:                                        ; preds = %if.end33.i
  %indvars.iv.next.i = add nuw i64 %indvars.iv.i, 1
  %19 = load ptr, ptr %_M_finish.i.i, align 8
  %20 = load ptr, ptr %parts.i, align 8
  %sub.ptr.lhs.cast.i.i = ptrtoint ptr %19 to i64
  %sub.ptr.rhs.cast.i.i = ptrtoint ptr %20 to i64
  %sub.ptr.sub.i.i = sub i64 %sub.ptr.lhs.cast.i.i, %sub.ptr.rhs.cast.i.i
  %sub.ptr.div.i.i = ashr exact i64 %sub.ptr.sub.i.i, 5
  %sub.i = add nsw i64 %sub.ptr.div.i.i, -1
  %cmp.not.i = icmp ugt i64 %sub.i, %indvars.iv.next.i
  br i1 %cmp.not.i, label %for.body.i, label %cleanup.i, !llvm.loop !21

cleanup.i:                                        ; preds = %for.inc.i, %invoke.cont29.i, %for.cond.preheader.i
  %cmp13.i = phi i1 [ false, %invoke.cont29.i ], [ true, %for.cond.preheader.i ], [ true, %for.inc.i ]
  call void @_ZNSt7__cxx1112basic_stringIcSt11char_traitsIcESaIcEED1Ev(ptr noundef nonnull align 8 dereferenceable(32) %path_so_far.i) #29
  %21 = load ptr, ptr %parts.i, align 8
  %22 = load ptr, ptr %_M_finish.i.i, align 8
  %cmp.not3.i.i.i.i.i = icmp eq ptr %21, %22
  br i1 %cmp.not3.i.i.i.i.i, label %invoke.cont.i.i, label %for.body.i.i.i.i.i

for.body.i.i.i.i.i:                               ; preds = %cleanup.i, %for.body.i.i.i.i.i
  %__first.addr.04.i.i.i.i.i = phi ptr [ %incdec.ptr.i.i.i.i.i, %for.body.i.i.i.i.i ], [ %21, %cleanup.i ]
  call void @_ZNSt7__cxx1112basic_stringIcSt11char_traitsIcESaIcEED1Ev(ptr noundef nonnull align 8 dereferenceable(32) %__first.addr.04.i.i.i.i.i) #29
  %incdec.ptr.i.i.i.i.i = getelementptr inbounds i8, ptr %__first.addr.04.i.i.i.i.i, i64 32
  %cmp.not.i.i.i.i.i = icmp eq ptr %incdec.ptr.i.i.i.i.i, %22
  br i1 %cmp.not.i.i.i.i.i, label %invoke.contthread-pre-split.i.i, label %for.body.i.i.i.i.i, !llvm.loop !22

invoke.contthread-pre-split.i.i:                  ; preds = %for.body.i.i.i.i.i
  %.pr.i.i = load ptr, ptr %parts.i, align 8
  br label %invoke.cont.i.i

invoke.cont.i.i:                                  ; preds = %invoke.contthread-pre-split.i.i, %cleanup.i
  %23 = phi ptr [ %.pr.i.i, %invoke.contthread-pre-split.i.i ], [ %21, %cleanup.i ]
  %tobool.not.i.i.i.i = icmp eq ptr %23, null
  br i1 %tobool.not.i.i.i.i, label %_ZN6google8protobuf8compiler12_GLOBAL__N_124TryCreateParentDirectoryERKNSt7__cxx1112basic_stringIcSt11char_traitsIcESaIcEEESA_.exit, label %if.then.i.i.i.i

if.then.i.i.i.i:                                  ; preds = %invoke.cont.i.i
  call void @_ZdlPv(ptr noundef nonnull %23) #31
  br label %_ZN6google8protobuf8compiler12_GLOBAL__N_124TryCreateParentDirectoryERKNSt7__cxx1112basic_stringIcSt11char_traitsIcESaIcEEESA_.exit

ehcleanup38.i:                                    ; preds = %lpad10.i, %lpad6.i
  %.pn5.i = phi { ptr, i32 } [ %lpad.phi.i, %lpad10.i ], [ %18, %lpad6.i ]
  call void @_ZNSt6vectorINSt7__cxx1112basic_stringIcSt11char_traitsIcESaIcEEESaIS5_EED2Ev(ptr noundef nonnull align 8 dereferenceable(24) %parts.i) #29
  br label %common.resume

common.resume:                                    ; preds = %ehcleanup.i, %ehcleanup38.i, %lpad, %lpad.i21
  %common.resume.op = phi { ptr, i32 } [ %24, %lpad.i21 ], [ %lpad.phi, %lpad ], [ %.pn5.i, %ehcleanup38.i ], [ %.pn.i, %ehcleanup.i ]
  resume { ptr, i32 } %common.resume.op

_ZN6google8protobuf8compiler12_GLOBAL__N_124TryCreateParentDirectoryERKNSt7__cxx1112basic_stringIcSt11char_traitsIcESaIcEEESA_.exit: ; preds = %invoke.cont.i.i, %if.then.i.i.i.i
  call void @llvm.lifetime.end.p0(i64 24, ptr nonnull %parts.i)
  call void @llvm.lifetime.end.p0(i64 56, ptr nonnull %ref.tmp.i)
  call void @llvm.lifetime.end.p0(i64 32, ptr nonnull %agg.tmp1.i)
  call void @llvm.lifetime.end.p0(i64 32, ptr nonnull %path_so_far.i)
  br i1 %cmp13.i, label %if.end13, label %return

if.end13:                                         ; preds = %_ZN6google8protobuf8compiler12_GLOBAL__N_124TryCreateParentDirectoryERKNSt7__cxx1112basic_stringIcSt11char_traitsIcESaIcEEESA_.exit
  call void @_ZNSt7__cxx1112basic_stringIcSt11char_traitsIcESaIcEEC1ERKS4_(ptr noundef nonnull align 8 dereferenceable(32) %filename, ptr noundef nonnull align 8 dereferenceable(32) %prefix)
  %call.i20 = invoke noundef nonnull align 8 dereferenceable(32) ptr @_ZNSt7__cxx1112basic_stringIcSt11char_traitsIcESaIcEE6appendERKS4_(ptr noundef nonnull align 8 dereferenceable(32) %filename, ptr noundef nonnull align 8 dereferenceable(32) %arrayidx.i.i.i19)
          to label %do.body unwind label %lpad.i21

lpad.i21:                                         ; preds = %if.end13
  %24 = landingpad { ptr, i32 }
          cleanup
  call void @_ZNSt7__cxx1112basic_stringIcSt11char_traitsIcESaIcEED1Ev(ptr noundef nonnull align 8 dereferenceable(32) %filename) #29
  br label %common.resume

do.body:                                          ; preds = %if.end13, %land.rhs
  %call14 = call noundef ptr @_ZNKSt7__cxx1112basic_stringIcSt11char_traitsIcESaIcEE5c_strEv(ptr noundef nonnull align 8 dereferenceable(32) %filename) #29
  %call15 = invoke i32 (ptr, i32, ...) @open(ptr noundef %call14, i32 noundef 577, i32 noundef 438)
          to label %invoke.cont unwind label %lpad.loopexit.split-lp.loopexit

invoke.cont:                                      ; preds = %do.body
  %cmp = icmp slt i32 %call15, 0
  br i1 %cmp, label %land.rhs, label %while.cond.preheader

while.cond.preheader:                             ; preds = %invoke.cont
  %cmp2961 = icmp sgt i32 %conv, 0
  br i1 %cmp2961, label %do.body30.preheader, label %while.end

land.rhs:                                         ; preds = %invoke.cont
  %call16 = tail call ptr @__errno_location() #30
  %25 = load i32, ptr %call16, align 4
  %cmp17 = icmp eq i32 %25, 4
  br i1 %cmp17, label %do.body, label %if.then19, !llvm.loop !23

if.then19:                                        ; preds = %land.rhs
  %call22 = invoke noundef nonnull align 8 dereferenceable(8) ptr @_ZStlsIcSt11char_traitsIcESaIcEERSt13basic_ostreamIT_T0_ES7_RKNSt7__cxx1112basic_stringIS4_S5_T1_EE(ptr noundef nonnull align 8 dereferenceable(8) @_ZSt4cerr, ptr noundef nonnull align 8 dereferenceable(32) %filename)
          to label %invoke.cont21 unwind label %lpad.loopexit.split-lp.loopexit.split-lp.loopexit.split-lp

invoke.cont21:                                    ; preds = %if.then19
  %call24 = invoke noundef nonnull align 8 dereferenceable(8) ptr @_ZStlsISt11char_traitsIcEERSt13basic_ostreamIcT_ES5_PKc(ptr noundef nonnull align 8 dereferenceable(8) %call22, ptr noundef nonnull @.str)
          to label %invoke.cont23.invoke unwind label %lpad.loopexit.split-lp.loopexit.split-lp.loopexit.split-lp

invoke.cont23.invoke:                             ; preds = %invoke.cont21, %invoke.cont69, %invoke.cont48
  %.sink = phi i32 [ %28, %invoke.cont48 ], [ %29, %invoke.cont69 ], [ %25, %invoke.cont21 ]
  %26 = phi ptr [ %call51, %invoke.cont48 ], [ %call72, %invoke.cont69 ], [ %call24, %invoke.cont21 ]
  %call73 = call ptr @strerror(i32 noundef %.sink) #29
  %27 = invoke noundef nonnull align 8 dereferenceable(8) ptr @_ZStlsISt11char_traitsIcEERSt13basic_ostreamIcT_ES5_PKc(ptr noundef nonnull align 8 dereferenceable(8) %26, ptr noundef %call73)
          to label %cleanup.thread unwind label %lpad.loopexit.split-lp.loopexit.split-lp.loopexit.split-lp

lpad.loopexit:                                    ; preds = %do.body30
  %lpad.loopexit37 = landingpad { ptr, i32 }
          cleanup
  br label %lpad

lpad.loopexit.split-lp.loopexit:                  ; preds = %do.body
  %lpad.loopexit40 = landingpad { ptr, i32 }
          cleanup
  br label %lpad

lpad.loopexit.split-lp.loopexit.split-lp.loopexit: ; preds = %while.end
  %lpad.loopexit43 = landingpad { ptr, i32 }
          cleanup
  br label %lpad

lpad.loopexit.split-lp.loopexit.split-lp.loopexit.split-lp: ; preds = %invoke.cont23.invoke, %if.then19, %invoke.cont21, %if.then45, %invoke.cont48, %if.else, %invoke.cont55, %invoke.cont57, %if.then66, %invoke.cont69
  %lpad.loopexit.split-lp44 = landingpad { ptr, i32 }
          cleanup
  br label %lpad

lpad:                                             ; preds = %lpad.loopexit.split-lp.loopexit, %lpad.loopexit.split-lp.loopexit.split-lp.loopexit.split-lp, %lpad.loopexit.split-lp.loopexit.split-lp.loopexit, %lpad.loopexit
  %lpad.phi = phi { ptr, i32 } [ %lpad.loopexit37, %lpad.loopexit ], [ %lpad.loopexit40, %lpad.loopexit.split-lp.loopexit ], [ %lpad.loopexit43, %lpad.loopexit.split-lp.loopexit.split-lp.loopexit ], [ %lpad.loopexit.split-lp44, %lpad.loopexit.split-lp.loopexit.split-lp.loopexit.split-lp ]
  call void @_ZNSt7__cxx1112basic_stringIcSt11char_traitsIcESaIcEED1Ev(ptr noundef nonnull align 8 dereferenceable(32) %filename) #29
  br label %common.resume

do.body30.preheader:                              ; preds = %while.cond.preheader, %if.end62
  %data.063 = phi ptr [ %add.ptr, %if.end62 ], [ %call8, %while.cond.preheader ]
  %size.062 = phi i32 [ %sub, %if.end62 ], [ %conv, %while.cond.preheader ]
  %conv31 = zext nneg i32 %size.062 to i64
  br label %do.body30

do.body30:                                        ; preds = %do.body30.preheader, %land.rhs37
  %call33 = invoke i64 @write(i32 noundef %call15, ptr noundef %data.063, i64 noundef %conv31)
          to label %invoke.cont32 unwind label %lpad.loopexit

invoke.cont32:                                    ; preds = %do.body30
  %conv34 = trunc i64 %call33 to i32
  %cmp36 = icmp slt i32 %conv34, 0
  br i1 %cmp36, label %land.rhs37, label %do.end41

land.rhs37:                                       ; preds = %invoke.cont32
  %call38 = tail call ptr @__errno_location() #30
  %28 = load i32, ptr %call38, align 4
  %cmp39 = icmp eq i32 %28, 4
  br i1 %cmp39, label %do.body30, label %if.then45, !llvm.loop !24

do.end41:                                         ; preds = %invoke.cont32
  %cmp42 = icmp eq i32 %conv34, 0
  br i1 %cmp42, label %if.else, label %if.end62

if.then45:                                        ; preds = %land.rhs37
  %call49 = invoke noundef nonnull align 8 dereferenceable(8) ptr @_ZStlsIcSt11char_traitsIcESaIcEERSt13basic_ostreamIT_T0_ES7_RKNSt7__cxx1112basic_stringIS4_S5_T1_EE(ptr noundef nonnull align 8 dereferenceable(8) @_ZSt4cerr, ptr noundef nonnull align 8 dereferenceable(32) %filename)
          to label %invoke.cont48 unwind label %lpad.loopexit.split-lp.loopexit.split-lp.loopexit.split-lp

invoke.cont48:                                    ; preds = %if.then45
  %call51 = invoke noundef nonnull align 8 dereferenceable(8) ptr @_ZStlsISt11char_traitsIcEERSt13basic_ostreamIcT_ES5_PKc(ptr noundef nonnull align 8 dereferenceable(8) %call49, ptr noundef nonnull @.str.1)
          to label %invoke.cont23.invoke unwind label %lpad.loopexit.split-lp.loopexit.split-lp.loopexit.split-lp

if.else:                                          ; preds = %do.end41
  %call56 = invoke noundef nonnull align 8 dereferenceable(8) ptr @_ZStlsIcSt11char_traitsIcESaIcEERSt13basic_ostreamIT_T0_ES7_RKNSt7__cxx1112basic_stringIS4_S5_T1_EE(ptr noundef nonnull align 8 dereferenceable(8) @_ZSt4cerr, ptr noundef nonnull align 8 dereferenceable(32) %filename)
          to label %invoke.cont55 unwind label %lpad.loopexit.split-lp.loopexit.split-lp.loopexit.split-lp

invoke.cont55:                                    ; preds = %if.else
  %call58 = invoke noundef nonnull align 8 dereferenceable(8) ptr @_ZStlsISt11char_traitsIcEERSt13basic_ostreamIcT_ES5_PKc(ptr noundef nonnull align 8 dereferenceable(8) %call56, ptr noundef nonnull @.str.2)
          to label %invoke.cont57 unwind label %lpad.loopexit.split-lp.loopexit.split-lp.loopexit.split-lp

invoke.cont57:                                    ; preds = %invoke.cont55
  %call60 = invoke noundef nonnull align 8 dereferenceable(8) ptr @_ZNSolsEPFRSoS_E(ptr noundef nonnull align 8 dereferenceable(8) %call58, ptr noundef nonnull @_ZSt4endlIcSt11char_traitsIcEERSt13basic_ostreamIT_T0_ES6_)
          to label %cleanup.thread unwind label %lpad.loopexit.split-lp.loopexit.split-lp.loopexit.split-lp

if.end62:                                         ; preds = %do.end41
  %idx.ext = and i64 %call33, 4294967295
  %add.ptr = getelementptr inbounds i8, ptr %data.063, i64 %idx.ext
  %sub = sub nsw i32 %size.062, %conv34
  %cmp29 = icmp sgt i32 %sub, 0
  br i1 %cmp29, label %do.body30.preheader, label %while.end, !llvm.loop !25

while.end:                                        ; preds = %if.end62, %while.cond.preheader
  %call64 = invoke i32 @close(i32 noundef %call15)
          to label %invoke.cont63 unwind label %lpad.loopexit.split-lp.loopexit.split-lp.loopexit

invoke.cont63:                                    ; preds = %while.end
  %cmp65.not = icmp eq i32 %call64, 0
  br i1 %cmp65.not, label %for.inc, label %if.then66

if.then66:                                        ; preds = %invoke.cont63
  %call68 = tail call ptr @__errno_location() #30
  %29 = load i32, ptr %call68, align 4
  %call70 = invoke noundef nonnull align 8 dereferenceable(8) ptr @_ZStlsIcSt11char_traitsIcESaIcEERSt13basic_ostreamIT_T0_ES7_RKNSt7__cxx1112basic_stringIS4_S5_T1_EE(ptr noundef nonnull align 8 dereferenceable(8) @_ZSt4cerr, ptr noundef nonnull align 8 dereferenceable(32) %filename)
          to label %invoke.cont69 unwind label %lpad.loopexit.split-lp.loopexit.split-lp.loopexit.split-lp

invoke.cont69:                                    ; preds = %if.then66
  %call72 = invoke noundef nonnull align 8 dereferenceable(8) ptr @_ZStlsISt11char_traitsIcEERSt13basic_ostreamIcT_ES5_PKc(ptr noundef nonnull align 8 dereferenceable(8) %call70, ptr noundef nonnull @.str.3)
          to label %invoke.cont23.invoke unwind label %lpad.loopexit.split-lp.loopexit.split-lp.loopexit.split-lp

cleanup.thread:                                   ; preds = %invoke.cont23.invoke, %invoke.cont57
  call void @_ZNSt7__cxx1112basic_stringIcSt11char_traitsIcESaIcEED1Ev(ptr noundef nonnull align 8 dereferenceable(32) %filename) #29
  br label %return

for.inc:                                          ; preds = %invoke.cont63
  call void @_ZNSt7__cxx1112basic_stringIcSt11char_traitsIcESaIcEED1Ev(ptr noundef nonnull align 8 dereferenceable(32) %filename) #29
  %arrayidx.i.i.i22 = getelementptr i8, ptr %__begin2.sroa.0.071, i64 11
  %30 = load i8, ptr %arrayidx.i.i.i22, align 1
  %cmp.i.not.i.i = icmp eq i8 %30, 0
  br i1 %cmp.i.not.i.i, label %if.else.i.i.i, label %land.lhs.true.i.i

land.lhs.true.i.i:                                ; preds = %for.inc
  %inc.i.i = add nsw i32 %__begin2.sroa.8.072, 1
  %arrayidx.i1.i.i = getelementptr i8, ptr %__begin2.sroa.0.071, i64 10
  %31 = load i8, ptr %arrayidx.i1.i.i, align 1
  %conv.i.i23 = zext i8 %31 to i32
  %cmp8.i.i.i = icmp eq i32 %inc.i.i, %conv.i.i23
  br i1 %cmp8.i.i.i, label %land.rhs.i.i.i, label %_ZN4absl12lts_2023080218container_internal14btree_iteratorINS1_10btree_nodeINS1_10map_paramsINSt7__cxx1112basic_stringIcSt11char_traitsIcESaIcEEESA_St4lessISA_ESaISt4pairIKSA_SA_EELi256ELb0EEEEERSF_PSF_EppEv.exit

land.rhs.i.i.i:                                   ; preds = %land.lhs.true.i.i, %while.body.i.i.i
  %32 = phi ptr [ %33, %while.body.i.i.i ], [ %__begin2.sroa.0.071, %land.lhs.true.i.i ]
  %33 = load ptr, ptr %32, align 8
  %arrayidx.i.i.i.i.i = getelementptr i8, ptr %33, i64 11
  %34 = load i8, ptr %arrayidx.i.i.i.i.i, align 1
  %cmp.i.i.not.i.i.i = icmp eq i8 %34, 0
  br i1 %cmp.i.i.not.i.i.i, label %while.body.i.i.i, label %_ZN4absl12lts_2023080218container_internal14btree_iteratorINS1_10btree_nodeINS1_10map_paramsINSt7__cxx1112basic_stringIcSt11char_traitsIcESaIcEEESA_St4lessISA_ESaISt4pairIKSA_SA_EELi256ELb0EEEEERSF_PSF_EppEv.exit

while.body.i.i.i:                                 ; preds = %land.rhs.i.i.i
  %add.ptr.i.i.i.i.i.i = getelementptr i8, ptr %32, i64 8
  %35 = load i8, ptr %add.ptr.i.i.i.i.i.i, align 1
  %arrayidx.i1.i.i.i = getelementptr i8, ptr %33, i64 10
  %36 = load i8, ptr %arrayidx.i1.i.i.i, align 1
  %cmp.i2.i.i = icmp eq i8 %35, %36
  br i1 %cmp.i2.i.i, label %land.rhs.i.i.i, label %_ZN4absl12lts_2023080218container_internal14btree_iteratorINS1_10btree_nodeINS1_10map_paramsINSt7__cxx1112basic_stringIcSt11char_traitsIcESaIcEEESA_St4lessISA_ESaISt4pairIKSA_SA_EELi256ELb0EEEEERSF_PSF_EppEv.exit.loopexit39.split.loop.exit64, !llvm.loop !26

if.else.i.i.i:                                    ; preds = %for.inc
  %add.ptr.i.i.i3.i.i.i = getelementptr inbounds i8, ptr %__begin2.sroa.0.071, i64 272
  %37 = add i32 %__begin2.sroa.8.072, 1
  %38 = and i32 %37, 255
  %idxprom.i.i.i.i = zext nneg i32 %38 to i64
  %arrayidx.i4.i.i.i = getelementptr inbounds ptr, ptr %add.ptr.i.i.i3.i.i.i, i64 %idxprom.i.i.i.i
  br label %while.cond24.i.i.i

while.cond24.i.i.i:                               ; preds = %while.cond24.i.i.i, %if.else.i.i.i
  %storemerge.in.i.i.i = phi ptr [ %arrayidx.i4.i.i.i, %if.else.i.i.i ], [ %add.ptr.i.i.i.i.i.i.i, %while.cond24.i.i.i ]
  %storemerge.i.i.i = load ptr, ptr %storemerge.in.i.i.i, align 8
  %arrayidx.i.i5.i.i.i = getelementptr i8, ptr %storemerge.i.i.i, i64 11
  %39 = load i8, ptr %arrayidx.i.i5.i.i.i, align 1
  %cmp.i.not.i.i.i.i = icmp eq i8 %39, 0
  %add.ptr.i.i.i.i.i.i.i = getelementptr inbounds i8, ptr %storemerge.i.i.i, i64 272
  br i1 %cmp.i.not.i.i.i.i, label %while.cond24.i.i.i, label %_ZN4absl12lts_2023080218container_internal14btree_iteratorINS1_10btree_nodeINS1_10map_paramsINSt7__cxx1112basic_stringIcSt11char_traitsIcESaIcEEESA_St4lessISA_ESaISt4pairIKSA_SA_EELi256ELb0EEEEERSF_PSF_EppEv.exit, !llvm.loop !27

_ZN4absl12lts_2023080218container_internal14btree_iteratorINS1_10btree_nodeINS1_10map_paramsINSt7__cxx1112basic_stringIcSt11char_traitsIcESaIcEEESA_St4lessISA_ESaISt4pairIKSA_SA_EELi256ELb0EEEEERSF_PSF_EppEv.exit.loopexit39.split.loop.exit64: ; preds = %while.body.i.i.i
  %conv8.i.i.i.le = zext i8 %35 to i32
  br label %_ZN4absl12lts_2023080218container_internal14btree_iteratorINS1_10btree_nodeINS1_10map_paramsINSt7__cxx1112basic_stringIcSt11char_traitsIcESaIcEEESA_St4lessISA_ESaISt4pairIKSA_SA_EELi256ELb0EEEEERSF_PSF_EppEv.exit

_ZN4absl12lts_2023080218container_internal14btree_iteratorINS1_10btree_nodeINS1_10map_paramsINSt7__cxx1112basic_stringIcSt11char_traitsIcESaIcEEESA_St4lessISA_ESaISt4pairIKSA_SA_EELi256ELb0EEEEERSF_PSF_EppEv.exit: ; preds = %land.rhs.i.i.i, %while.cond24.i.i.i, %_ZN4absl12lts_2023080218container_internal14btree_iteratorINS1_10btree_nodeINS1_10map_paramsINSt7__cxx1112basic_stringIcSt11char_traitsIcESaIcEEESA_St4lessISA_ESaISt4pairIKSA_SA_EELi256ELb0EEEEERSF_PSF_EppEv.exit.loopexit39.split.loop.exit64, %land.lhs.true.i.i
  %__begin2.sroa.0.2 = phi ptr [ %__begin2.sroa.0.071, %land.lhs.true.i.i ], [ %33, %_ZN4absl12lts_2023080218container_internal14btree_iteratorINS1_10btree_nodeINS1_10map_paramsINSt7__cxx1112basic_stringIcSt11char_traitsIcESaIcEEESA_St4lessISA_ESaISt4pairIKSA_SA_EELi256ELb0EEEEERSF_PSF_EppEv.exit.loopexit39.split.loop.exit64 ], [ %storemerge.i.i.i, %while.cond24.i.i.i ], [ %__begin2.sroa.0.071, %land.rhs.i.i.i ]
  %__begin2.sroa.8.2 = phi i32 [ %inc.i.i, %land.lhs.true.i.i ], [ %conv8.i.i.i.le, %_ZN4absl12lts_2023080218container_internal14btree_iteratorINS1_10btree_nodeINS1_10map_paramsINSt7__cxx1112basic_stringIcSt11char_traitsIcESaIcEEESA_St4lessISA_ESaISt4pairIKSA_SA_EELi256ELb0EEEEERSF_PSF_EppEv.exit.loopexit39.split.loop.exit64 ], [ 0, %while.cond24.i.i.i ], [ %inc.i.i, %land.rhs.i.i.i ]
  %cmp.i.i = icmp ne ptr %__begin2.sroa.0.2, %5
  %cmp6.i.i = icmp ne i32 %__begin2.sroa.8.2, %conv.i.i
  %.not.i = select i1 %cmp.i.i, i1 true, i1 %cmp6.i.i
  br i1 %.not.i, label %for.body, label %return

return:                                           ; preds = %_ZN6google8protobuf8compiler12_GLOBAL__N_124TryCreateParentDirectoryERKNSt7__cxx1112basic_stringIcSt11char_traitsIcESaIcEEESA_.exit, %_ZN4absl12lts_2023080218container_internal14btree_iteratorINS1_10btree_nodeINS1_10map_paramsINSt7__cxx1112basic_stringIcSt11char_traitsIcESaIcEEESA_St4lessISA_ESaISt4pairIKSA_SA_EELi256ELb0EEEEERSF_PSF_EppEv.exit, %if.end3, %cleanup.thread, %_ZN6google8protobuf8compiler12_GLOBAL__N_121VerifyDirectoryExistsERKNSt7__cxx1112basic_stringIcSt11char_traitsIcESaIcEEE.exit, %entry
  %retval.2 = phi i1 [ false, %entry ], [ false, %_ZN6google8protobuf8compiler12_GLOBAL__N_121VerifyDirectoryExistsERKNSt7__cxx1112basic_stringIcSt11char_traitsIcESaIcEEE.exit ], [ false, %cleanup.thread ], [ true, %if.end3 ], [ false, %_ZN6google8protobuf8compiler12_GLOBAL__N_124TryCreateParentDirectoryERKNSt7__cxx1112basic_stringIcSt11char_traitsIcESaIcEEESA_.exit ], [ %cmp13.i, %_ZN4absl12lts_2023080218container_internal14btree_iteratorINS1_10btree_nodeINS1_10map_paramsINSt7__cxx1112basic_stringIcSt11char_traitsIcESaIcEEESA_St4lessISA_ESaISt4pairIKSA_SA_EELi256ELb0EEEEERSF_PSF_EppEv.exit ]
  ret i1 %retval.2
}

; Function Attrs: nounwind
declare noundef ptr @_ZNKSt7__cxx1112basic_stringIcSt11char_traitsIcESaIcEE4dataEv(ptr noundef nonnull align 8 dereferenceable(32)) local_unnamed_addr #1

; Function Attrs: nounwind
declare noundef i64 @_ZNKSt7__cxx1112basic_stringIcSt11char_traitsIcESaIcEE4sizeEv(ptr noundef nonnull align 8 dereferenceable(32)) local_unnamed_addr #1

; Function Attrs: nofree
declare noundef i32 @open(ptr nocapture noundef readonly, i32 noundef, ...) local_unnamed_addr #6

; Function Attrs: nounwind
declare noundef ptr @_ZNKSt7__cxx1112basic_stringIcSt11char_traitsIcESaIcEE5c_strEv(ptr noundef nonnull align 8 dereferenceable(32)) local_unnamed_addr #1

; Function Attrs: mustprogress nofree nosync nounwind willreturn memory(none)
declare ptr @__errno_location() local_unnamed_addr #7

declare noundef nonnull align 8 dereferenceable(8) ptr @_ZStlsISt11char_traitsIcEERSt13basic_ostreamIcT_ES5_PKc(ptr noundef nonnull align 8 dereferenceable(8), ptr noundef) local_unnamed_addr #0

declare noundef nonnull align 8 dereferenceable(8) ptr @_ZStlsIcSt11char_traitsIcESaIcEERSt13basic_ostreamIT_T0_ES7_RKNSt7__cxx1112basic_stringIS4_S5_T1_EE(ptr noundef nonnull align 8 dereferenceable(8), ptr noundef nonnull align 8 dereferenceable(32)) local_unnamed_addr #0

; Function Attrs: nounwind
declare ptr @strerror(i32 noundef) local_unnamed_addr #1

; Function Attrs: nofree
declare noundef i64 @write(i32 noundef, ptr nocapture noundef readonly, i64 noundef) local_unnamed_addr #6

declare noundef nonnull align 8 dereferenceable(8) ptr @_ZNSolsEPFRSoS_E(ptr noundef nonnull align 8 dereferenceable(8), ptr noundef) local_unnamed_addr #0

declare noundef nonnull align 8 dereferenceable(8) ptr @_ZSt4endlIcSt11char_traitsIcEERSt13basic_ostreamIT_T0_ES6_(ptr noundef nonnull align 8 dereferenceable(8)) #0

declare i32 @close(i32 noundef) local_unnamed_addr #0

; Function Attrs: nounwind
declare void @_ZNSt7__cxx1112basic_stringIcSt11char_traitsIcESaIcEED1Ev(ptr noundef nonnull align 8 dereferenceable(32)) unnamed_addr #1

; Function Attrs: mustprogress uwtable
define noundef zeroext i1 @_ZN6google8protobuf8compiler20CommandLineInterface20GeneratorContextImpl13WriteAllToZipERKNSt7__cxx1112basic_stringIcSt11char_traitsIcESaIcEEE(ptr nocapture noundef nonnull readonly align 8 dereferenceable(41) %this, ptr noundef nonnull align 8 dereferenceable(32) %filename) local_unnamed_addr #5 align 2 personality ptr @__gxx_personality_v0 {
entry:
  %stream = alloca %"class.google::protobuf::io::FileOutputStream", align 8
  %zip_writer = alloca %"class.google::protobuf::compiler::ZipWriter", align 8
  %had_error_ = getelementptr inbounds i8, ptr %this, i64 40
  %0 = load i8, ptr %had_error_, align 8
  %1 = and i8 %0, 1
  %tobool.not = icmp eq i8 %1, 0
  br i1 %tobool.not, label %do.body, label %return

do.body:                                          ; preds = %entry, %land.rhs
  %call = tail call noundef ptr @_ZNKSt7__cxx1112basic_stringIcSt11char_traitsIcESaIcEE5c_strEv(ptr noundef nonnull align 8 dereferenceable(32) %filename) #29
  %call2 = tail call i32 (ptr, i32, ...) @open(ptr noundef %call, i32 noundef 577, i32 noundef 438)
  %cmp = icmp slt i32 %call2, 0
  br i1 %cmp, label %land.rhs, label %if.end12

land.rhs:                                         ; preds = %do.body
  %call3 = tail call ptr @__errno_location() #30
  %2 = load i32, ptr %call3, align 4
  %cmp4 = icmp eq i32 %2, 4
  br i1 %cmp4, label %do.body, label %if.then6, !llvm.loop !28

if.then6:                                         ; preds = %land.rhs
  %call8 = tail call noundef nonnull align 8 dereferenceable(8) ptr @_ZStlsIcSt11char_traitsIcESaIcEERSt13basic_ostreamIT_T0_ES7_RKNSt7__cxx1112basic_stringIS4_S5_T1_EE(ptr noundef nonnull align 8 dereferenceable(8) @_ZSt4cerr, ptr noundef nonnull align 8 dereferenceable(32) %filename)
  %call9 = tail call noundef nonnull align 8 dereferenceable(8) ptr @_ZStlsISt11char_traitsIcEERSt13basic_ostreamIcT_ES5_PKc(ptr noundef nonnull align 8 dereferenceable(8) %call8, ptr noundef nonnull @.str)
  %call10 = tail call ptr @strerror(i32 noundef %2) #29
  %call11 = tail call noundef nonnull align 8 dereferenceable(8) ptr @_ZStlsISt11char_traitsIcEERSt13basic_ostreamIcT_ES5_PKc(ptr noundef nonnull align 8 dereferenceable(8) %call9, ptr noundef %call10)
  br label %return

if.end12:                                         ; preds = %do.body
  call void @_ZN6google8protobuf2io16FileOutputStreamC1Eii(ptr noundef nonnull align 8 dereferenceable(72) %stream, i32 noundef %call2, i32 noundef -1)
  invoke void @_ZN6google8protobuf8compiler9ZipWriterC1EPNS0_2io20ZeroCopyOutputStreamE(ptr noundef nonnull align 8 dereferenceable(32) %zip_writer, ptr noundef nonnull %stream)
          to label %invoke.cont16 unwind label %lpad

invoke.cont16:                                    ; preds = %if.end12
  %files_ = getelementptr inbounds i8, ptr %this, i64 8
  %3 = load ptr, ptr %files_, align 8
  %4 = load ptr, ptr %3, align 8
  %rightmost_.i.i.i = getelementptr inbounds i8, ptr %this, i64 16
  %5 = load ptr, ptr %rightmost_.i.i.i, align 8
  %arrayidx.i.i.i = getelementptr i8, ptr %5, i64 10
  %6 = load i8, ptr %arrayidx.i.i.i, align 1
  %conv.i.i = zext i8 %6 to i32
  %cmp.i.i30 = icmp ne ptr %4, %5
  %cmp6.i.i31 = icmp ne i8 %6, 0
  %.not.i32 = select i1 %cmp.i.i30, i1 true, i1 %cmp6.i.i31
  br i1 %.not.i32, label %invoke.cont20, label %for.end

invoke.cont20:                                    ; preds = %invoke.cont16, %_ZN4absl12lts_2023080218container_internal14btree_iteratorINS1_10btree_nodeINS1_10map_paramsINSt7__cxx1112basic_stringIcSt11char_traitsIcESaIcEEESA_St4lessISA_ESaISt4pairIKSA_SA_EELi256ELb0EEEEERSF_PSF_EppEv.exit
  %__begin2.sroa.8.034 = phi i32 [ %__begin2.sroa.8.2, %_ZN4absl12lts_2023080218container_internal14btree_iteratorINS1_10btree_nodeINS1_10map_paramsINSt7__cxx1112basic_stringIcSt11char_traitsIcESaIcEEESA_St4lessISA_ESaISt4pairIKSA_SA_EELi256ELb0EEEEERSF_PSF_EppEv.exit ], [ 0, %invoke.cont16 ]
  %__begin2.sroa.0.033 = phi ptr [ %__begin2.sroa.0.2, %_ZN4absl12lts_2023080218container_internal14btree_iteratorINS1_10btree_nodeINS1_10map_paramsINSt7__cxx1112basic_stringIcSt11char_traitsIcESaIcEEESA_St4lessISA_ESaISt4pairIKSA_SA_EELi256ELb0EEEEERSF_PSF_EppEv.exit ], [ %4, %invoke.cont16 ]
  %7 = and i32 %__begin2.sroa.8.034, 255
  %conv6.i = zext nneg i32 %7 to i64
  %add.ptr.i.i.i.i.i = getelementptr inbounds i8, ptr %__begin2.sroa.0.033, i64 16
  %arrayidx.i.i.i11 = getelementptr inbounds %"union.absl::lts_20230802::container_internal::map_slot_type", ptr %add.ptr.i.i.i.i.i, i64 %conv6.i
  %second = getelementptr inbounds i8, ptr %arrayidx.i.i.i11, i64 32
  %call23 = invoke noundef zeroext i1 @_ZN6google8protobuf8compiler9ZipWriter5WriteERKNSt7__cxx1112basic_stringIcSt11char_traitsIcESaIcEEESA_(ptr noundef nonnull align 8 dereferenceable(32) %zip_writer, ptr noundef nonnull align 8 dereferenceable(32) %arrayidx.i.i.i11, ptr noundef nonnull align 8 dereferenceable(32) %second)
          to label %for.inc unwind label %lpad13.loopexit

for.inc:                                          ; preds = %invoke.cont20
  %arrayidx.i.i.i12 = getelementptr i8, ptr %__begin2.sroa.0.033, i64 11
  %8 = load i8, ptr %arrayidx.i.i.i12, align 1
  %cmp.i.not.i.i = icmp eq i8 %8, 0
  br i1 %cmp.i.not.i.i, label %if.else.i.i.i, label %land.lhs.true.i.i

land.lhs.true.i.i:                                ; preds = %for.inc
  %inc.i.i = add nsw i32 %__begin2.sroa.8.034, 1
  %arrayidx.i1.i.i = getelementptr i8, ptr %__begin2.sroa.0.033, i64 10
  %9 = load i8, ptr %arrayidx.i1.i.i, align 1
  %conv.i.i13 = zext i8 %9 to i32
  %cmp8.i.i.i = icmp eq i32 %inc.i.i, %conv.i.i13
  br i1 %cmp8.i.i.i, label %land.rhs.i.i.i, label %_ZN4absl12lts_2023080218container_internal14btree_iteratorINS1_10btree_nodeINS1_10map_paramsINSt7__cxx1112basic_stringIcSt11char_traitsIcESaIcEEESA_St4lessISA_ESaISt4pairIKSA_SA_EELi256ELb0EEEEERSF_PSF_EppEv.exit

land.rhs.i.i.i:                                   ; preds = %land.lhs.true.i.i, %while.body.i.i.i
  %10 = phi ptr [ %11, %while.body.i.i.i ], [ %__begin2.sroa.0.033, %land.lhs.true.i.i ]
  %11 = load ptr, ptr %10, align 8
  %arrayidx.i.i.i.i.i = getelementptr i8, ptr %11, i64 11
  %12 = load i8, ptr %arrayidx.i.i.i.i.i, align 1
  %cmp.i.i.not.i.i.i = icmp eq i8 %12, 0
  br i1 %cmp.i.i.not.i.i.i, label %while.body.i.i.i, label %_ZN4absl12lts_2023080218container_internal14btree_iteratorINS1_10btree_nodeINS1_10map_paramsINSt7__cxx1112basic_stringIcSt11char_traitsIcESaIcEEESA_St4lessISA_ESaISt4pairIKSA_SA_EELi256ELb0EEEEERSF_PSF_EppEv.exit

while.body.i.i.i:                                 ; preds = %land.rhs.i.i.i
  %add.ptr.i.i.i.i.i.i = getelementptr i8, ptr %10, i64 8
  %13 = load i8, ptr %add.ptr.i.i.i.i.i.i, align 1
  %arrayidx.i1.i.i.i = getelementptr i8, ptr %11, i64 10
  %14 = load i8, ptr %arrayidx.i1.i.i.i, align 1
  %cmp.i2.i.i = icmp eq i8 %13, %14
  br i1 %cmp.i2.i.i, label %land.rhs.i.i.i, label %_ZN4absl12lts_2023080218container_internal14btree_iteratorINS1_10btree_nodeINS1_10map_paramsINSt7__cxx1112basic_stringIcSt11char_traitsIcESaIcEEESA_St4lessISA_ESaISt4pairIKSA_SA_EELi256ELb0EEEEERSF_PSF_EppEv.exit.loopexit24.split.loop.exit26, !llvm.loop !26

if.else.i.i.i:                                    ; preds = %for.inc
  %add.ptr.i.i.i3.i.i.i = getelementptr inbounds i8, ptr %__begin2.sroa.0.033, i64 272
  %15 = add i32 %__begin2.sroa.8.034, 1
  %16 = and i32 %15, 255
  %idxprom.i.i.i.i = zext nneg i32 %16 to i64
  %arrayidx.i4.i.i.i = getelementptr inbounds ptr, ptr %add.ptr.i.i.i3.i.i.i, i64 %idxprom.i.i.i.i
  br label %while.cond24.i.i.i

while.cond24.i.i.i:                               ; preds = %while.cond24.i.i.i, %if.else.i.i.i
  %storemerge.in.i.i.i = phi ptr [ %arrayidx.i4.i.i.i, %if.else.i.i.i ], [ %add.ptr.i.i.i.i.i.i.i, %while.cond24.i.i.i ]
  %storemerge.i.i.i = load ptr, ptr %storemerge.in.i.i.i, align 8
  %arrayidx.i.i5.i.i.i = getelementptr i8, ptr %storemerge.i.i.i, i64 11
  %17 = load i8, ptr %arrayidx.i.i5.i.i.i, align 1
  %cmp.i.not.i.i.i.i = icmp eq i8 %17, 0
  %add.ptr.i.i.i.i.i.i.i = getelementptr inbounds i8, ptr %storemerge.i.i.i, i64 272
  br i1 %cmp.i.not.i.i.i.i, label %while.cond24.i.i.i, label %_ZN4absl12lts_2023080218container_internal14btree_iteratorINS1_10btree_nodeINS1_10map_paramsINSt7__cxx1112basic_stringIcSt11char_traitsIcESaIcEEESA_St4lessISA_ESaISt4pairIKSA_SA_EELi256ELb0EEEEERSF_PSF_EppEv.exit, !llvm.loop !27

_ZN4absl12lts_2023080218container_internal14btree_iteratorINS1_10btree_nodeINS1_10map_paramsINSt7__cxx1112basic_stringIcSt11char_traitsIcESaIcEEESA_St4lessISA_ESaISt4pairIKSA_SA_EELi256ELb0EEEEERSF_PSF_EppEv.exit.loopexit24.split.loop.exit26: ; preds = %while.body.i.i.i
  %conv8.i.i.i.le = zext i8 %13 to i32
  br label %_ZN4absl12lts_2023080218container_internal14btree_iteratorINS1_10btree_nodeINS1_10map_paramsINSt7__cxx1112basic_stringIcSt11char_traitsIcESaIcEEESA_St4lessISA_ESaISt4pairIKSA_SA_EELi256ELb0EEEEERSF_PSF_EppEv.exit

_ZN4absl12lts_2023080218container_internal14btree_iteratorINS1_10btree_nodeINS1_10map_paramsINSt7__cxx1112basic_stringIcSt11char_traitsIcESaIcEEESA_St4lessISA_ESaISt4pairIKSA_SA_EELi256ELb0EEEEERSF_PSF_EppEv.exit: ; preds = %land.rhs.i.i.i, %while.cond24.i.i.i, %_ZN4absl12lts_2023080218container_internal14btree_iteratorINS1_10btree_nodeINS1_10map_paramsINSt7__cxx1112basic_stringIcSt11char_traitsIcESaIcEEESA_St4lessISA_ESaISt4pairIKSA_SA_EELi256ELb0EEEEERSF_PSF_EppEv.exit.loopexit24.split.loop.exit26, %land.lhs.true.i.i
  %__begin2.sroa.0.2 = phi ptr [ %__begin2.sroa.0.033, %land.lhs.true.i.i ], [ %11, %_ZN4absl12lts_2023080218container_internal14btree_iteratorINS1_10btree_nodeINS1_10map_paramsINSt7__cxx1112basic_stringIcSt11char_traitsIcESaIcEEESA_St4lessISA_ESaISt4pairIKSA_SA_EELi256ELb0EEEEERSF_PSF_EppEv.exit.loopexit24.split.loop.exit26 ], [ %storemerge.i.i.i, %while.cond24.i.i.i ], [ %__begin2.sroa.0.033, %land.rhs.i.i.i ]
  %__begin2.sroa.8.2 = phi i32 [ %inc.i.i, %land.lhs.true.i.i ], [ %conv8.i.i.i.le, %_ZN4absl12lts_2023080218container_internal14btree_iteratorINS1_10btree_nodeINS1_10map_paramsINSt7__cxx1112basic_stringIcSt11char_traitsIcESaIcEEESA_St4lessISA_ESaISt4pairIKSA_SA_EELi256ELb0EEEEERSF_PSF_EppEv.exit.loopexit24.split.loop.exit26 ], [ 0, %while.cond24.i.i.i ], [ %inc.i.i, %land.rhs.i.i.i ]
  %cmp.i.i = icmp ne ptr %__begin2.sroa.0.2, %5
  %cmp6.i.i = icmp ne i32 %__begin2.sroa.8.2, %conv.i.i
  %.not.i = select i1 %cmp.i.i, i1 true, i1 %cmp6.i.i
  br i1 %.not.i, label %invoke.cont20, label %for.end

lpad:                                             ; preds = %if.end12
  %18 = landingpad { ptr, i32 }
          cleanup
  br label %ehcleanup

lpad13.loopexit:                                  ; preds = %invoke.cont20
  %lpad.loopexit = landingpad { ptr, i32 }
          cleanup
  br label %lpad13

lpad13.loopexit.split-lp:                         ; preds = %if.then31.invoke, %invoke.cont32.invoke, %invoke.cont36.invoke, %invoke.cont39.invoke, %for.end, %if.end43
  %lpad.loopexit.split-lp = landingpad { ptr, i32 }
          cleanup
  br label %lpad13

lpad13:                                           ; preds = %lpad13.loopexit.split-lp, %lpad13.loopexit
  %lpad.phi = phi { ptr, i32 } [ %lpad.loopexit, %lpad13.loopexit ], [ %lpad.loopexit.split-lp, %lpad13.loopexit.split-lp ]
  call void @_ZN6google8protobuf8compiler9ZipWriterD1Ev(ptr noundef nonnull align 8 dereferenceable(32) %zip_writer) #29
  br label %ehcleanup

for.end:                                          ; preds = %_ZN4absl12lts_2023080218container_internal14btree_iteratorINS1_10btree_nodeINS1_10map_paramsINSt7__cxx1112basic_stringIcSt11char_traitsIcESaIcEEESA_St4lessISA_ESaISt4pairIKSA_SA_EELi256ELb0EEEEERSF_PSF_EppEv.exit, %invoke.cont16
  %call27 = invoke noundef zeroext i1 @_ZN6google8protobuf8compiler9ZipWriter14WriteDirectoryEv(ptr noundef nonnull align 8 dereferenceable(32) %zip_writer)
          to label %invoke.cont28 unwind label %lpad13.loopexit.split-lp

invoke.cont28:                                    ; preds = %for.end
  %errno_.i.i = getelementptr inbounds i8, ptr %stream, i64 64
  %19 = load i32, ptr %errno_.i.i, align 8
  %cmp30.not = icmp eq i32 %19, 0
  br i1 %cmp30.not, label %if.end43, label %if.then31.invoke

if.then31.invoke:                                 ; preds = %invoke.cont44, %invoke.cont28
  %20 = invoke noundef nonnull align 8 dereferenceable(8) ptr @_ZStlsIcSt11char_traitsIcESaIcEERSt13basic_ostreamIT_T0_ES7_RKNSt7__cxx1112basic_stringIS4_S5_T1_EE(ptr noundef nonnull align 8 dereferenceable(8) @_ZSt4cerr, ptr noundef nonnull align 8 dereferenceable(32) %filename)
          to label %invoke.cont32.invoke unwind label %lpad13.loopexit.split-lp

invoke.cont32.invoke:                             ; preds = %if.then31.invoke
  %21 = invoke noundef nonnull align 8 dereferenceable(8) ptr @_ZStlsISt11char_traitsIcEERSt13basic_ostreamIcT_ES5_PKc(ptr noundef nonnull align 8 dereferenceable(8) %20, ptr noundef nonnull @.str)
          to label %invoke.cont36.invoke unwind label %lpad13.loopexit.split-lp

invoke.cont36.invoke:                             ; preds = %invoke.cont32.invoke
  %22 = load i32, ptr %errno_.i.i, align 8
  %call53 = call ptr @strerror(i32 noundef %22) #29
  %23 = invoke noundef nonnull align 8 dereferenceable(8) ptr @_ZStlsISt11char_traitsIcEERSt13basic_ostreamIcT_ES5_PKc(ptr noundef nonnull align 8 dereferenceable(8) %21, ptr noundef %call53)
          to label %invoke.cont39.invoke unwind label %lpad13.loopexit.split-lp

invoke.cont39.invoke:                             ; preds = %invoke.cont36.invoke
  %24 = invoke noundef nonnull align 8 dereferenceable(8) ptr @_ZNSolsEPFRSoS_E(ptr noundef nonnull align 8 dereferenceable(8) %23, ptr noundef nonnull @_ZSt4endlIcSt11char_traitsIcEERSt13basic_ostreamIT_T0_ES6_)
          to label %cleanup unwind label %lpad13.loopexit.split-lp

if.end43:                                         ; preds = %invoke.cont28
  %call45 = invoke noundef zeroext i1 @_ZN6google8protobuf2io16FileOutputStream5CloseEv(ptr noundef nonnull align 8 dereferenceable(72) %stream)
          to label %invoke.cont44 unwind label %lpad13.loopexit.split-lp

invoke.cont44:                                    ; preds = %if.end43
  br i1 %call45, label %cleanup, label %if.then31.invoke

cleanup:                                          ; preds = %invoke.cont39.invoke, %invoke.cont44
  %retval.0 = phi i1 [ true, %invoke.cont44 ], [ false, %invoke.cont39.invoke ]
  call void @_ZN6google8protobuf8compiler9ZipWriterD1Ev(ptr noundef nonnull align 8 dereferenceable(32) %zip_writer) #29
  call void @_ZN6google8protobuf2io16FileOutputStreamD1Ev(ptr noundef nonnull align 8 dereferenceable(72) %stream) #29
  br label %return

ehcleanup:                                        ; preds = %lpad13, %lpad
  %.pn = phi { ptr, i32 } [ %lpad.phi, %lpad13 ], [ %18, %lpad ]
  call void @_ZN6google8protobuf2io16FileOutputStreamD1Ev(ptr noundef nonnull align 8 dereferenceable(72) %stream) #29
  resume { ptr, i32 } %.pn

return:                                           ; preds = %entry, %cleanup, %if.then6
  %retval.1 = phi i1 [ false, %if.then6 ], [ %retval.0, %cleanup ], [ false, %entry ]
  ret i1 %retval.1
}

declare void @_ZN6google8protobuf2io16FileOutputStreamC1Eii(ptr noundef nonnull align 8 dereferenceable(72), i32 noundef, i32 noundef) unnamed_addr #0

declare void @_ZN6google8protobuf8compiler9ZipWriterC1EPNS0_2io20ZeroCopyOutputStreamE(ptr noundef nonnull align 8 dereferenceable(32), ptr noundef) unnamed_addr #0

declare noundef zeroext i1 @_ZN6google8protobuf8compiler9ZipWriter5WriteERKNSt7__cxx1112basic_stringIcSt11char_traitsIcESaIcEEESA_(ptr noundef nonnull align 8 dereferenceable(32), ptr noundef nonnull align 8 dereferenceable(32), ptr noundef nonnull align 8 dereferenceable(32)) local_unnamed_addr #0

declare noundef zeroext i1 @_ZN6google8protobuf8compiler9ZipWriter14WriteDirectoryEv(ptr noundef nonnull align 8 dereferenceable(32)) local_unnamed_addr #0

declare noundef zeroext i1 @_ZN6google8protobuf2io16FileOutputStream5CloseEv(ptr noundef nonnull align 8 dereferenceable(72)) local_unnamed_addr #0

; Function Attrs: nounwind
declare void @_ZN6google8protobuf8compiler9ZipWriterD1Ev(ptr noundef nonnull align 8 dereferenceable(32)) unnamed_addr #1

; Function Attrs: nounwind
declare void @_ZN6google8protobuf2io16FileOutputStreamD1Ev(ptr noundef nonnull align 8 dereferenceable(72)) unnamed_addr #1

; Function Attrs: mustprogress uwtable
define void @_ZN6google8protobuf8compiler20CommandLineInterface20GeneratorContextImpl14AddJarManifestEv(ptr noundef nonnull align 8 dereferenceable(41) %this) local_unnamed_addr #5 align 2 personality ptr @__gxx_personality_v0 {
entry:
  %ref.tmp.i = alloca %"class.std::__cxx11::basic_string", align 8
  %pair = alloca %"struct.std::pair.111", align 8
  %ref.tmp = alloca %"struct.std::pair.96", align 8
  call void @_ZNSt4pairIKNSt7__cxx1112basic_stringIcSt11char_traitsIcESaIcEEES5_EC2IRA21_KcRA1_S9_TnNSt9enable_ifIXaaclsr5_PCCPE22_MoveConstructiblePairIT_T0_EEclsr5_PCCPE30_ImplicitlyMoveConvertiblePairISF_SG_EEEbE4typeELb1EEEOSF_OSG_(ptr noundef nonnull align 8 dereferenceable(64) %ref.tmp, ptr noundef nonnull align 1 dereferenceable(21) @.str.4, ptr noundef nonnull align 1 dereferenceable(1) @.str.5)
  call void @llvm.lifetime.start.p0(i64 32, ptr nonnull %ref.tmp.i)
  invoke void @_ZNSt7__cxx1112basic_stringIcSt11char_traitsIcESaIcEEC1ERKS4_(ptr noundef nonnull align 8 dereferenceable(32) %ref.tmp.i, ptr noundef nonnull align 8 dereferenceable(32) %ref.tmp)
          to label %.noexc unwind label %lpad

.noexc:                                           ; preds = %entry
  %files_ = getelementptr inbounds i8, ptr %this, i64 8
  invoke void @_ZN4absl12lts_2023080218container_internal5btreeINS1_10map_paramsINSt7__cxx1112basic_stringIcSt11char_traitsIcESaIcEEES9_St4lessIS9_ESaISt4pairIKS9_S9_EELi256ELb0EEEE13insert_uniqueIS9_JSE_EEESC_INS1_14btree_iteratorINS1_10btree_nodeISG_EERSE_PSE_EEbERKT_DpOT0_(ptr nonnull sret(%"struct.std::pair.111") align 8 %pair, ptr noundef nonnull align 8 dereferenceable(24) %files_, ptr noundef nonnull align 8 dereferenceable(32) %ref.tmp.i, ptr noundef nonnull align 8 dereferenceable(64) %ref.tmp)
          to label %invoke.cont unwind label %lpad.i

lpad.i:                                           ; preds = %.noexc
  %0 = landingpad { ptr, i32 }
          cleanup
  call void @_ZNSt7__cxx1112basic_stringIcSt11char_traitsIcESaIcEED1Ev(ptr noundef nonnull align 8 dereferenceable(32) %ref.tmp.i) #29
  br label %lpad.body

invoke.cont:                                      ; preds = %.noexc
  call void @_ZNSt7__cxx1112basic_stringIcSt11char_traitsIcESaIcEED1Ev(ptr noundef nonnull align 8 dereferenceable(32) %ref.tmp.i) #29
  call void @llvm.lifetime.end.p0(i64 32, ptr nonnull %ref.tmp.i)
  %second.i = getelementptr inbounds i8, ptr %ref.tmp, i64 32
  call void @_ZNSt7__cxx1112basic_stringIcSt11char_traitsIcESaIcEED1Ev(ptr noundef nonnull align 8 dereferenceable(32) %second.i) #29
  call void @_ZNSt7__cxx1112basic_stringIcSt11char_traitsIcESaIcEED1Ev(ptr noundef nonnull align 8 dereferenceable(32) %ref.tmp) #29
  %second = getelementptr inbounds i8, ptr %pair, i64 16
  %1 = load i8, ptr %second, align 8
  %2 = and i8 %1, 1
  %tobool.not = icmp eq i8 %2, 0
  br i1 %tobool.not, label %if.end, label %if.then

if.then:                                          ; preds = %invoke.cont
  %position_.i.i = getelementptr inbounds i8, ptr %pair, i64 8
  %3 = load ptr, ptr %pair, align 8
  %4 = load i32, ptr %position_.i.i, align 8
  %5 = and i32 %4, 255
  %conv6.i.i = zext nneg i32 %5 to i64
  %add.ptr.i.i.i.i.i.i = getelementptr inbounds i8, ptr %3, i64 16
  %second2 = getelementptr inbounds %"union.absl::lts_20230802::container_internal::map_slot_type", ptr %add.ptr.i.i.i.i.i.i, i64 %conv6.i.i, i32 0, i32 1
  %call3 = call noundef nonnull align 8 dereferenceable(32) ptr @_ZNSt7__cxx1112basic_stringIcSt11char_traitsIcESaIcEEaSEPKc(ptr noundef nonnull align 8 dereferenceable(32) %second2, ptr noundef nonnull @.str.6)
  br label %if.end

lpad:                                             ; preds = %entry
  %6 = landingpad { ptr, i32 }
          cleanup
  br label %lpad.body

lpad.body:                                        ; preds = %lpad.i, %lpad
  %eh.lpad-body = phi { ptr, i32 } [ %6, %lpad ], [ %0, %lpad.i ]
  %second.i1 = getelementptr inbounds i8, ptr %ref.tmp, i64 32
  call void @_ZNSt7__cxx1112basic_stringIcSt11char_traitsIcESaIcEED1Ev(ptr noundef nonnull align 8 dereferenceable(32) %second.i1) #29
  call void @_ZNSt7__cxx1112basic_stringIcSt11char_traitsIcESaIcEED1Ev(ptr noundef nonnull align 8 dereferenceable(32) %ref.tmp) #29
  resume { ptr, i32 } %eh.lpad-body

if.end:                                           ; preds = %if.then, %invoke.cont
  ret void
}

; Function Attrs: mustprogress uwtable
define linkonce_odr hidden void @_ZNSt4pairIKNSt7__cxx1112basic_stringIcSt11char_traitsIcESaIcEEES5_EC2IRA21_KcRA1_S9_TnNSt9enable_ifIXaaclsr5_PCCPE22_MoveConstructiblePairIT_T0_EEclsr5_PCCPE30_ImplicitlyMoveConvertiblePairISF_SG_EEEbE4typeELb1EEEOSF_OSG_(ptr noundef nonnull align 8 dereferenceable(64) %this, ptr noundef nonnull align 1 dereferenceable(21) %__x, ptr noundef nonnull align 1 dereferenceable(1) %__y) unnamed_addr #5 comdat align 2 personality ptr @__gxx_personality_v0 {
entry:
  %ref.tmp = alloca %"class.std::allocator.7", align 1
  %ref.tmp3 = alloca %"class.std::allocator.7", align 1
  call void @_ZNSaIcEC1Ev(ptr noundef nonnull align 1 dereferenceable(1) %ref.tmp) #29
  %call.i2 = invoke noundef ptr @_ZNSt7__cxx1112basic_stringIcSt11char_traitsIcESaIcEE13_M_local_dataEv(ptr noundef nonnull align 8 dereferenceable(32) %this)
          to label %call.i.noexc unwind label %lpad

call.i.noexc:                                     ; preds = %entry
  invoke void @_ZNSt7__cxx1112basic_stringIcSt11char_traitsIcESaIcEE12_Alloc_hiderC1EPcRKS3_(ptr noundef nonnull align 8 dereferenceable(8) %this, ptr noundef %call.i2, ptr noundef nonnull align 1 dereferenceable(1) %ref.tmp)
          to label %.noexc unwind label %lpad

.noexc:                                           ; preds = %call.i.noexc
  %call.i.i = call noundef i64 @strlen(ptr noundef nonnull dereferenceable(1) %__x) #29
  %add.ptr.i = getelementptr inbounds i8, ptr %__x, i64 %call.i.i
  invoke void @_ZNSt7__cxx1112basic_stringIcSt11char_traitsIcESaIcEE12_M_constructIPKcEEvT_S8_St20forward_iterator_tag(ptr noundef nonnull align 8 dereferenceable(32) %this, ptr noundef nonnull %__x, ptr noundef nonnull %add.ptr.i)
          to label %invoke.cont unwind label %lpad.i

lpad.i:                                           ; preds = %.noexc
  %0 = landingpad { ptr, i32 }
          cleanup
  call void @_ZNSaIcED2Ev(ptr noundef nonnull align 1 dereferenceable(1) %this) #29
  br label %lpad.body

invoke.cont:                                      ; preds = %.noexc
  call void @_ZNSaIcED1Ev(ptr noundef nonnull align 1 dereferenceable(1) %ref.tmp) #29
  %second = getelementptr inbounds i8, ptr %this, i64 32
  call void @_ZNSaIcEC1Ev(ptr noundef nonnull align 1 dereferenceable(1) %ref.tmp3) #29
  %call.i7 = invoke noundef ptr @_ZNSt7__cxx1112basic_stringIcSt11char_traitsIcESaIcEE13_M_local_dataEv(ptr noundef nonnull align 8 dereferenceable(32) %second)
          to label %call.i.noexc6 unwind label %lpad4

call.i.noexc6:                                    ; preds = %invoke.cont
  invoke void @_ZNSt7__cxx1112basic_stringIcSt11char_traitsIcESaIcEE12_Alloc_hiderC1EPcRKS3_(ptr noundef nonnull align 8 dereferenceable(8) %second, ptr noundef %call.i7, ptr noundef nonnull align 1 dereferenceable(1) %ref.tmp3)
          to label %.noexc8 unwind label %lpad4

.noexc8:                                          ; preds = %call.i.noexc6
  %call.i.i3 = call noundef i64 @strlen(ptr noundef nonnull dereferenceable(1) %__y) #29
  %add.ptr.i4 = getelementptr inbounds i8, ptr %__y, i64 %call.i.i3
  invoke void @_ZNSt7__cxx1112basic_stringIcSt11char_traitsIcESaIcEE12_M_constructIPKcEEvT_S8_St20forward_iterator_tag(ptr noundef nonnull align 8 dereferenceable(32) %second, ptr noundef nonnull %__y, ptr noundef nonnull %add.ptr.i4)
          to label %invoke.cont5 unwind label %lpad.i5

lpad.i5:                                          ; preds = %.noexc8
  %1 = landingpad { ptr, i32 }
          cleanup
  call void @_ZNSaIcED2Ev(ptr noundef nonnull align 1 dereferenceable(1) %second) #29
  br label %lpad4.body

invoke.cont5:                                     ; preds = %.noexc8
  call void @_ZNSaIcED1Ev(ptr noundef nonnull align 1 dereferenceable(1) %ref.tmp3) #29
  ret void

lpad:                                             ; preds = %call.i.noexc, %entry
  %2 = landingpad { ptr, i32 }
          cleanup
  br label %lpad.body

lpad.body:                                        ; preds = %lpad.i, %lpad
  %eh.lpad-body = phi { ptr, i32 } [ %2, %lpad ], [ %0, %lpad.i ]
  call void @_ZNSaIcED1Ev(ptr noundef nonnull align 1 dereferenceable(1) %ref.tmp) #29
  br label %eh.resume

lpad4:                                            ; preds = %call.i.noexc6, %invoke.cont
  %3 = landingpad { ptr, i32 }
          cleanup
  br label %lpad4.body

lpad4.body:                                       ; preds = %lpad.i5, %lpad4
  %eh.lpad-body9 = phi { ptr, i32 } [ %3, %lpad4 ], [ %1, %lpad.i5 ]
  call void @_ZNSaIcED1Ev(ptr noundef nonnull align 1 dereferenceable(1) %ref.tmp3) #29
  call void @_ZNSt7__cxx1112basic_stringIcSt11char_traitsIcESaIcEED1Ev(ptr noundef nonnull align 8 dereferenceable(32) %this) #29
  br label %eh.resume

eh.resume:                                        ; preds = %lpad4.body, %lpad.body
  %.pn = phi { ptr, i32 } [ %eh.lpad-body9, %lpad4.body ], [ %eh.lpad-body, %lpad.body ]
  resume { ptr, i32 } %.pn
}

declare noundef nonnull align 8 dereferenceable(32) ptr @_ZNSt7__cxx1112basic_stringIcSt11char_traitsIcESaIcEEaSEPKc(ptr noundef nonnull align 8 dereferenceable(32), ptr noundef) local_unnamed_addr #0

; Function Attrs: mustprogress uwtable
define void @_ZN6google8protobuf8compiler20CommandLineInterface20GeneratorContextImpl18GetOutputFilenamesEPSt6vectorINSt7__cxx1112basic_stringIcSt11char_traitsIcESaIcEEESaISA_EE(ptr nocapture noundef nonnull readonly align 8 dereferenceable(41) %this, ptr noundef %output_filenames) local_unnamed_addr #5 align 2 {
entry:
  %files_ = getelementptr inbounds i8, ptr %this, i64 8
  %0 = load ptr, ptr %files_, align 8
  %1 = load ptr, ptr %0, align 8
  %rightmost_.i.i.i = getelementptr inbounds i8, ptr %this, i64 16
  %2 = load ptr, ptr %rightmost_.i.i.i, align 8
  %arrayidx.i.i.i = getelementptr i8, ptr %2, i64 10
  %3 = load i8, ptr %arrayidx.i.i.i, align 1
  %conv.i.i = zext i8 %3 to i32
  %cmp.i.i19 = icmp ne ptr %1, %2
  %cmp6.i.i20 = icmp ne i8 %3, 0
  %.not.i21 = select i1 %cmp.i.i19, i1 true, i1 %cmp6.i.i20
  br i1 %.not.i21, label %for.body.lr.ph, label %for.end

for.body.lr.ph:                                   ; preds = %entry
  %_M_finish.i = getelementptr inbounds i8, ptr %output_filenames, i64 8
  %_M_end_of_storage.i = getelementptr inbounds i8, ptr %output_filenames, i64 16
  br label %for.body

for.body:                                         ; preds = %for.body.lr.ph, %_ZN4absl12lts_2023080218container_internal14btree_iteratorINS1_10btree_nodeINS1_10map_paramsINSt7__cxx1112basic_stringIcSt11char_traitsIcESaIcEEESA_St4lessISA_ESaISt4pairIKSA_SA_EELi256ELb0EEEEERSF_PSF_EppEv.exit
  %__begin2.sroa.8.023 = phi i32 [ 0, %for.body.lr.ph ], [ %__begin2.sroa.8.2, %_ZN4absl12lts_2023080218container_internal14btree_iteratorINS1_10btree_nodeINS1_10map_paramsINSt7__cxx1112basic_stringIcSt11char_traitsIcESaIcEEESA_St4lessISA_ESaISt4pairIKSA_SA_EELi256ELb0EEEEERSF_PSF_EppEv.exit ]
  %__begin2.sroa.0.022 = phi ptr [ %1, %for.body.lr.ph ], [ %__begin2.sroa.0.2, %_ZN4absl12lts_2023080218container_internal14btree_iteratorINS1_10btree_nodeINS1_10map_paramsINSt7__cxx1112basic_stringIcSt11char_traitsIcESaIcEEESA_St4lessISA_ESaISt4pairIKSA_SA_EELi256ELb0EEEEERSF_PSF_EppEv.exit ]
  %4 = and i32 %__begin2.sroa.8.023, 255
  %conv6.i = zext nneg i32 %4 to i64
  %add.ptr.i.i.i.i.i = getelementptr inbounds i8, ptr %__begin2.sroa.0.022, i64 16
  %arrayidx.i.i.i4 = getelementptr inbounds %"union.absl::lts_20230802::container_internal::map_slot_type", ptr %add.ptr.i.i.i.i.i, i64 %conv6.i
  %5 = load ptr, ptr %_M_finish.i, align 8
  %6 = load ptr, ptr %_M_end_of_storage.i, align 8
  %cmp.not.i = icmp eq ptr %5, %6
  br i1 %cmp.not.i, label %if.else.i, label %if.then.i

if.then.i:                                        ; preds = %for.body
  tail call void @_ZNSt7__cxx1112basic_stringIcSt11char_traitsIcESaIcEEC1ERKS4_(ptr noundef nonnull align 8 dereferenceable(32) %5, ptr noundef nonnull align 8 dereferenceable(32) %arrayidx.i.i.i4)
  %7 = load ptr, ptr %_M_finish.i, align 8
  %incdec.ptr.i = getelementptr inbounds i8, ptr %7, i64 32
  store ptr %incdec.ptr.i, ptr %_M_finish.i, align 8
  br label %_ZNSt6vectorINSt7__cxx1112basic_stringIcSt11char_traitsIcESaIcEEESaIS5_EE9push_backERKS5_.exit

if.else.i:                                        ; preds = %for.body
  tail call void @_ZNSt6vectorINSt7__cxx1112basic_stringIcSt11char_traitsIcESaIcEEESaIS5_EE17_M_realloc_insertIJRKS5_EEEvN9__gnu_cxx17__normal_iteratorIPS5_S7_EEDpOT_(ptr noundef nonnull align 8 dereferenceable(24) %output_filenames, ptr %5, ptr noundef nonnull align 8 dereferenceable(32) %arrayidx.i.i.i4)
  br label %_ZNSt6vectorINSt7__cxx1112basic_stringIcSt11char_traitsIcESaIcEEESaIS5_EE9push_backERKS5_.exit

_ZNSt6vectorINSt7__cxx1112basic_stringIcSt11char_traitsIcESaIcEEESaIS5_EE9push_backERKS5_.exit: ; preds = %if.then.i, %if.else.i
  %arrayidx.i.i.i5 = getelementptr i8, ptr %__begin2.sroa.0.022, i64 11
  %8 = load i8, ptr %arrayidx.i.i.i5, align 1
  %cmp.i.not.i.i = icmp eq i8 %8, 0
  br i1 %cmp.i.not.i.i, label %if.else.i.i.i, label %land.lhs.true.i.i

land.lhs.true.i.i:                                ; preds = %_ZNSt6vectorINSt7__cxx1112basic_stringIcSt11char_traitsIcESaIcEEESaIS5_EE9push_backERKS5_.exit
  %inc.i.i = add nsw i32 %__begin2.sroa.8.023, 1
  %arrayidx.i1.i.i = getelementptr i8, ptr %__begin2.sroa.0.022, i64 10
  %9 = load i8, ptr %arrayidx.i1.i.i, align 1
  %conv.i.i6 = zext i8 %9 to i32
  %cmp8.i.i.i = icmp eq i32 %inc.i.i, %conv.i.i6
  br i1 %cmp8.i.i.i, label %land.rhs.i.i.i, label %_ZN4absl12lts_2023080218container_internal14btree_iteratorINS1_10btree_nodeINS1_10map_paramsINSt7__cxx1112basic_stringIcSt11char_traitsIcESaIcEEESA_St4lessISA_ESaISt4pairIKSA_SA_EELi256ELb0EEEEERSF_PSF_EppEv.exit

land.rhs.i.i.i:                                   ; preds = %land.lhs.true.i.i, %while.body.i.i.i
  %10 = phi ptr [ %11, %while.body.i.i.i ], [ %__begin2.sroa.0.022, %land.lhs.true.i.i ]
  %11 = load ptr, ptr %10, align 8
  %arrayidx.i.i.i.i.i = getelementptr i8, ptr %11, i64 11
  %12 = load i8, ptr %arrayidx.i.i.i.i.i, align 1
  %cmp.i.i.not.i.i.i = icmp eq i8 %12, 0
  br i1 %cmp.i.i.not.i.i.i, label %while.body.i.i.i, label %_ZN4absl12lts_2023080218container_internal14btree_iteratorINS1_10btree_nodeINS1_10map_paramsINSt7__cxx1112basic_stringIcSt11char_traitsIcESaIcEEESA_St4lessISA_ESaISt4pairIKSA_SA_EELi256ELb0EEEEERSF_PSF_EppEv.exit

while.body.i.i.i:                                 ; preds = %land.rhs.i.i.i
  %add.ptr.i.i.i.i.i.i = getelementptr i8, ptr %10, i64 8
  %13 = load i8, ptr %add.ptr.i.i.i.i.i.i, align 1
  %arrayidx.i1.i.i.i = getelementptr i8, ptr %11, i64 10
  %14 = load i8, ptr %arrayidx.i1.i.i.i, align 1
  %cmp.i2.i.i = icmp eq i8 %13, %14
  br i1 %cmp.i2.i.i, label %land.rhs.i.i.i, label %_ZN4absl12lts_2023080218container_internal14btree_iteratorINS1_10btree_nodeINS1_10map_paramsINSt7__cxx1112basic_stringIcSt11char_traitsIcESaIcEEESA_St4lessISA_ESaISt4pairIKSA_SA_EELi256ELb0EEEEERSF_PSF_EppEv.exit.loopexit15.split.loop.exit16, !llvm.loop !26

if.else.i.i.i:                                    ; preds = %_ZNSt6vectorINSt7__cxx1112basic_stringIcSt11char_traitsIcESaIcEEESaIS5_EE9push_backERKS5_.exit
  %add.ptr.i.i.i3.i.i.i = getelementptr inbounds i8, ptr %__begin2.sroa.0.022, i64 272
  %15 = add i32 %__begin2.sroa.8.023, 1
  %16 = and i32 %15, 255
  %idxprom.i.i.i.i = zext nneg i32 %16 to i64
  %arrayidx.i4.i.i.i = getelementptr inbounds ptr, ptr %add.ptr.i.i.i3.i.i.i, i64 %idxprom.i.i.i.i
  br label %while.cond24.i.i.i

while.cond24.i.i.i:                               ; preds = %while.cond24.i.i.i, %if.else.i.i.i
  %storemerge.in.i.i.i = phi ptr [ %arrayidx.i4.i.i.i, %if.else.i.i.i ], [ %add.ptr.i.i.i.i.i.i.i, %while.cond24.i.i.i ]
  %storemerge.i.i.i = load ptr, ptr %storemerge.in.i.i.i, align 8
  %arrayidx.i.i5.i.i.i = getelementptr i8, ptr %storemerge.i.i.i, i64 11
  %17 = load i8, ptr %arrayidx.i.i5.i.i.i, align 1
  %cmp.i.not.i.i.i.i = icmp eq i8 %17, 0
  %add.ptr.i.i.i.i.i.i.i = getelementptr inbounds i8, ptr %storemerge.i.i.i, i64 272
  br i1 %cmp.i.not.i.i.i.i, label %while.cond24.i.i.i, label %_ZN4absl12lts_2023080218container_internal14btree_iteratorINS1_10btree_nodeINS1_10map_paramsINSt7__cxx1112basic_stringIcSt11char_traitsIcESaIcEEESA_St4lessISA_ESaISt4pairIKSA_SA_EELi256ELb0EEEEERSF_PSF_EppEv.exit, !llvm.loop !27

_ZN4absl12lts_2023080218container_internal14btree_iteratorINS1_10btree_nodeINS1_10map_paramsINSt7__cxx1112basic_stringIcSt11char_traitsIcESaIcEEESA_St4lessISA_ESaISt4pairIKSA_SA_EELi256ELb0EEEEERSF_PSF_EppEv.exit.loopexit15.split.loop.exit16: ; preds = %while.body.i.i.i
  %conv8.i.i.i.le = zext i8 %13 to i32
  br label %_ZN4absl12lts_2023080218container_internal14btree_iteratorINS1_10btree_nodeINS1_10map_paramsINSt7__cxx1112basic_stringIcSt11char_traitsIcESaIcEEESA_St4lessISA_ESaISt4pairIKSA_SA_EELi256ELb0EEEEERSF_PSF_EppEv.exit

_ZN4absl12lts_2023080218container_internal14btree_iteratorINS1_10btree_nodeINS1_10map_paramsINSt7__cxx1112basic_stringIcSt11char_traitsIcESaIcEEESA_St4lessISA_ESaISt4pairIKSA_SA_EELi256ELb0EEEEERSF_PSF_EppEv.exit: ; preds = %land.rhs.i.i.i, %while.cond24.i.i.i, %_ZN4absl12lts_2023080218container_internal14btree_iteratorINS1_10btree_nodeINS1_10map_paramsINSt7__cxx1112basic_stringIcSt11char_traitsIcESaIcEEESA_St4lessISA_ESaISt4pairIKSA_SA_EELi256ELb0EEEEERSF_PSF_EppEv.exit.loopexit15.split.loop.exit16, %land.lhs.true.i.i
  %__begin2.sroa.0.2 = phi ptr [ %__begin2.sroa.0.022, %land.lhs.true.i.i ], [ %11, %_ZN4absl12lts_2023080218container_internal14btree_iteratorINS1_10btree_nodeINS1_10map_paramsINSt7__cxx1112basic_stringIcSt11char_traitsIcESaIcEEESA_St4lessISA_ESaISt4pairIKSA_SA_EELi256ELb0EEEEERSF_PSF_EppEv.exit.loopexit15.split.loop.exit16 ], [ %storemerge.i.i.i, %while.cond24.i.i.i ], [ %__begin2.sroa.0.022, %land.rhs.i.i.i ]
  %__begin2.sroa.8.2 = phi i32 [ %inc.i.i, %land.lhs.true.i.i ], [ %conv8.i.i.i.le, %_ZN4absl12lts_2023080218container_internal14btree_iteratorINS1_10btree_nodeINS1_10map_paramsINSt7__cxx1112basic_stringIcSt11char_traitsIcESaIcEEESA_St4lessISA_ESaISt4pairIKSA_SA_EELi256ELb0EEEEERSF_PSF_EppEv.exit.loopexit15.split.loop.exit16 ], [ 0, %while.cond24.i.i.i ], [ %inc.i.i, %land.rhs.i.i.i ]
  %cmp.i.i = icmp ne ptr %__begin2.sroa.0.2, %2
  %cmp6.i.i = icmp ne i32 %__begin2.sroa.8.2, %conv.i.i
  %.not.i = select i1 %cmp.i.i, i1 true, i1 %cmp6.i.i
  br i1 %.not.i, label %for.body, label %for.end

for.end:                                          ; preds = %_ZN4absl12lts_2023080218container_internal14btree_iteratorINS1_10btree_nodeINS1_10map_paramsINSt7__cxx1112basic_stringIcSt11char_traitsIcESaIcEEESA_St4lessISA_ESaISt4pairIKSA_SA_EELi256ELb0EEEEERSF_PSF_EppEv.exit, %entry
  ret void
}

; Function Attrs: mustprogress uwtable
define noundef ptr @_ZN6google8protobuf8compiler20CommandLineInterface20GeneratorContextImpl4OpenERKNSt7__cxx1112basic_stringIcSt11char_traitsIcESaIcEEE(ptr noundef nonnull align 8 dereferenceable(41) %this, ptr noundef nonnull align 8 dereferenceable(32) %filename) unnamed_addr #5 align 2 personality ptr @__gxx_personality_v0 {
entry:
  %call = tail call noalias noundef nonnull dereferenceable(176) ptr @_Znwm(i64 noundef 176) #32
  invoke void @_ZN6google8protobuf8compiler20CommandLineInterface18MemoryOutputStreamC1EPNS2_20GeneratorContextImplERKNSt7__cxx1112basic_stringIcSt11char_traitsIcESaIcEEEb(ptr noundef nonnull align 8 dereferenceable(176) %call, ptr noundef nonnull %this, ptr noundef nonnull align 8 dereferenceable(32) %filename, i1 noundef zeroext false)
          to label %invoke.cont unwind label %lpad

invoke.cont:                                      ; preds = %entry
  ret ptr %call

lpad:                                             ; preds = %entry
  %0 = landingpad { ptr, i32 }
          cleanup
  tail call void @_ZdlPv(ptr noundef nonnull %call) #31
  resume { ptr, i32 } %0
}

; Function Attrs: nobuiltin allocsize(0)
declare noundef nonnull ptr @_Znwm(i64 noundef) local_unnamed_addr #8

; Function Attrs: nobuiltin nounwind
declare void @_ZdlPv(ptr noundef) local_unnamed_addr #9

; Function Attrs: mustprogress uwtable
define noundef ptr @_ZN6google8protobuf8compiler20CommandLineInterface20GeneratorContextImpl13OpenForAppendERKNSt7__cxx1112basic_stringIcSt11char_traitsIcESaIcEEE(ptr noundef nonnull align 8 dereferenceable(41) %this, ptr noundef nonnull align 8 dereferenceable(32) %filename) unnamed_addr #5 align 2 personality ptr @__gxx_personality_v0 {
entry:
  %call = tail call noalias noundef nonnull dereferenceable(176) ptr @_Znwm(i64 noundef 176) #32
  invoke void @_ZN6google8protobuf8compiler20CommandLineInterface18MemoryOutputStreamC1EPNS2_20GeneratorContextImplERKNSt7__cxx1112basic_stringIcSt11char_traitsIcESaIcEEEb(ptr noundef nonnull align 8 dereferenceable(176) %call, ptr noundef nonnull %this, ptr noundef nonnull align 8 dereferenceable(32) %filename, i1 noundef zeroext true)
          to label %invoke.cont unwind label %lpad

invoke.cont:                                      ; preds = %entry
  ret ptr %call

lpad:                                             ; preds = %entry
  %0 = landingpad { ptr, i32 }
          cleanup
  tail call void @_ZdlPv(ptr noundef nonnull %call) #31
  resume { ptr, i32 } %0
}

; Function Attrs: mustprogress uwtable
define noundef ptr @_ZN6google8protobuf8compiler20CommandLineInterface20GeneratorContextImpl13OpenForInsertERKNSt7__cxx1112basic_stringIcSt11char_traitsIcESaIcEEESB_(ptr noundef nonnull align 8 dereferenceable(41) %this, ptr noundef nonnull align 8 dereferenceable(32) %filename, ptr noundef nonnull align 8 dereferenceable(32) %insertion_point) unnamed_addr #5 align 2 personality ptr @__gxx_personality_v0 {
entry:
  %call = tail call noalias noundef nonnull dereferenceable(176) ptr @_Znwm(i64 noundef 176) #32
  invoke void @_ZN6google8protobuf8compiler20CommandLineInterface18MemoryOutputStreamC1EPNS2_20GeneratorContextImplERKNSt7__cxx1112basic_stringIcSt11char_traitsIcESaIcEEESD_(ptr noundef nonnull align 8 dereferenceable(176) %call, ptr noundef nonnull %this, ptr noundef nonnull align 8 dereferenceable(32) %filename, ptr noundef nonnull align 8 dereferenceable(32) %insertion_point)
          to label %invoke.cont unwind label %lpad

invoke.cont:                                      ; preds = %entry
  ret ptr %call

lpad:                                             ; preds = %entry
  %0 = landingpad { ptr, i32 }
          cleanup
  tail call void @_ZdlPv(ptr noundef nonnull %call) #31
  resume { ptr, i32 } %0
}

; Function Attrs: mustprogress uwtable
define noundef ptr @_ZN6google8protobuf8compiler20CommandLineInterface20GeneratorContextImpl34OpenForInsertWithGeneratedCodeInfoERKNSt7__cxx1112basic_stringIcSt11char_traitsIcESaIcEEESB_RKNS0_17GeneratedCodeInfoE(ptr noundef nonnull align 8 dereferenceable(41) %this, ptr noundef nonnull align 8 dereferenceable(32) %filename, ptr noundef nonnull align 8 dereferenceable(32) %insertion_point, ptr noundef nonnull align 8 dereferenceable(48) %info) unnamed_addr #5 align 2 personality ptr @__gxx_personality_v0 {
entry:
  %call = tail call noalias noundef nonnull dereferenceable(176) ptr @_Znwm(i64 noundef 176) #32
  invoke void @_ZN6google8protobuf8compiler20CommandLineInterface18MemoryOutputStreamC1EPNS2_20GeneratorContextImplERKNSt7__cxx1112basic_stringIcSt11char_traitsIcESaIcEEESD_RKNS0_17GeneratedCodeInfoE(ptr noundef nonnull align 8 dereferenceable(176) %call, ptr noundef nonnull %this, ptr noundef nonnull align 8 dereferenceable(32) %filename, ptr noundef nonnull align 8 dereferenceable(32) %insertion_point, ptr noundef nonnull align 8 dereferenceable(48) %info)
          to label %invoke.cont unwind label %lpad

invoke.cont:                                      ; preds = %entry
  ret ptr %call

lpad:                                             ; preds = %entry
  %0 = landingpad { ptr, i32 }
          cleanup
  tail call void @_ZdlPv(ptr noundef nonnull %call) #31
  resume { ptr, i32 } %0
}

; Function Attrs: mustprogress uwtable
define void @_ZN6google8protobuf8compiler20CommandLineInterface18MemoryOutputStreamC2EPNS2_20GeneratorContextImplERKNSt7__cxx1112basic_stringIcSt11char_traitsIcESaIcEEEb(ptr noundef nonnull align 8 dereferenceable(176) %this, ptr noundef %directory, ptr noundef nonnull align 8 dereferenceable(32) %filename, i1 noundef zeroext %append_mode) unnamed_addr #5 align 2 personality ptr @__gxx_personality_v0 {
entry:
  store ptr getelementptr inbounds ({ [10 x ptr] }, ptr @_ZTVN6google8protobuf8compiler20CommandLineInterface18MemoryOutputStreamE, i64 0, inrange i32 0, i64 2), ptr %this, align 8
  %directory_ = getelementptr inbounds i8, ptr %this, i64 8
  store ptr %directory, ptr %directory_, align 8
  %filename_ = getelementptr inbounds i8, ptr %this, i64 16
  tail call void @_ZNSt7__cxx1112basic_stringIcSt11char_traitsIcESaIcEEC1ERKS4_(ptr noundef nonnull align 8 dereferenceable(32) %filename_, ptr noundef nonnull align 8 dereferenceable(32) %filename)
  %frombool = zext i1 %append_mode to i8
  %insertion_point_ = getelementptr inbounds i8, ptr %this, i64 48
  tail call void @_ZNSt7__cxx1112basic_stringIcSt11char_traitsIcESaIcEEC1Ev(ptr noundef nonnull align 8 dereferenceable(32) %insertion_point_) #29
  %data_ = getelementptr inbounds i8, ptr %this, i64 80
  tail call void @_ZNSt7__cxx1112basic_stringIcSt11char_traitsIcESaIcEEC1Ev(ptr noundef nonnull align 8 dereferenceable(32) %data_) #29
  %append_mode_ = getelementptr inbounds i8, ptr %this, i64 112
  store i8 %frombool, ptr %append_mode_, align 8
  %inner_ = getelementptr inbounds i8, ptr %this, i64 120
  %call = invoke noalias noundef nonnull dereferenceable(16) ptr @_Znwm(i64 noundef 16) #32
          to label %invoke.cont4 unwind label %lpad3

invoke.cont4:                                     ; preds = %entry
  invoke void @_ZN6google8protobuf2io18StringOutputStreamC1EPNSt7__cxx1112basic_stringIcSt11char_traitsIcESaIcEEE(ptr noundef nonnull align 8 dereferenceable(16) %call, ptr noundef nonnull %data_)
          to label %invoke.cont7 unwind label %lpad6

invoke.cont7:                                     ; preds = %invoke.cont4
  store ptr %call, ptr %inner_, align 8
  %info_to_insert_ = getelementptr inbounds i8, ptr %this, i64 128
  invoke void @_ZN6google8protobuf17GeneratedCodeInfoC2EPNS0_5ArenaE(ptr noundef nonnull align 8 dereferenceable(48) %info_to_insert_, ptr noundef null)
          to label %invoke.cont9 unwind label %lpad8

invoke.cont9:                                     ; preds = %invoke.cont7
  ret void

lpad3:                                            ; preds = %entry
  %0 = landingpad { ptr, i32 }
          cleanup
  br label %ehcleanup

lpad6:                                            ; preds = %invoke.cont4
  %1 = landingpad { ptr, i32 }
          cleanup
  tail call void @_ZdlPv(ptr noundef nonnull %call) #31
  br label %ehcleanup

lpad8:                                            ; preds = %invoke.cont7
  %2 = landingpad { ptr, i32 }
          cleanup
  %3 = load ptr, ptr %inner_, align 8
  %cmp.not.i = icmp eq ptr %3, null
  br i1 %cmp.not.i, label %_ZNSt10unique_ptrIN6google8protobuf2io18StringOutputStreamESt14default_deleteIS3_EED2Ev.exit, label %_ZNKSt14default_deleteIN6google8protobuf2io18StringOutputStreamEEclEPS3_.exit.i

_ZNKSt14default_deleteIN6google8protobuf2io18StringOutputStreamEEclEPS3_.exit.i: ; preds = %lpad8
  tail call void @_ZdlPv(ptr noundef nonnull %3) #31
  br label %_ZNSt10unique_ptrIN6google8protobuf2io18StringOutputStreamESt14default_deleteIS3_EED2Ev.exit

_ZNSt10unique_ptrIN6google8protobuf2io18StringOutputStreamESt14default_deleteIS3_EED2Ev.exit: ; preds = %lpad8, %_ZNKSt14default_deleteIN6google8protobuf2io18StringOutputStreamEEclEPS3_.exit.i
  store ptr null, ptr %inner_, align 8
  br label %ehcleanup

ehcleanup:                                        ; preds = %_ZNSt10unique_ptrIN6google8protobuf2io18StringOutputStreamESt14default_deleteIS3_EED2Ev.exit, %lpad6, %lpad3
  %.pn = phi { ptr, i32 } [ %2, %_ZNSt10unique_ptrIN6google8protobuf2io18StringOutputStreamESt14default_deleteIS3_EED2Ev.exit ], [ %1, %lpad6 ], [ %0, %lpad3 ]
  tail call void @_ZNSt7__cxx1112basic_stringIcSt11char_traitsIcESaIcEED1Ev(ptr noundef nonnull align 8 dereferenceable(32) %data_) #29
  tail call void @_ZNSt7__cxx1112basic_stringIcSt11char_traitsIcESaIcEED1Ev(ptr noundef nonnull align 8 dereferenceable(32) %insertion_point_) #29
  tail call void @_ZNSt7__cxx1112basic_stringIcSt11char_traitsIcESaIcEED1Ev(ptr noundef nonnull align 8 dereferenceable(32) %filename_) #29
  resume { ptr, i32 } %.pn
}

declare void @_ZNSt7__cxx1112basic_stringIcSt11char_traitsIcESaIcEEC1ERKS4_(ptr noundef nonnull align 8 dereferenceable(32), ptr noundef nonnull align 8 dereferenceable(32)) unnamed_addr #0

; Function Attrs: nounwind
declare void @_ZNSt7__cxx1112basic_stringIcSt11char_traitsIcESaIcEEC1Ev(ptr noundef nonnull align 8 dereferenceable(32)) unnamed_addr #1

declare void @_ZN6google8protobuf2io18StringOutputStreamC1EPNSt7__cxx1112basic_stringIcSt11char_traitsIcESaIcEEE(ptr noundef nonnull align 8 dereferenceable(16), ptr noundef) unnamed_addr #0

; Function Attrs: mustprogress uwtable
define void @_ZN6google8protobuf8compiler20CommandLineInterface18MemoryOutputStreamC2EPNS2_20GeneratorContextImplERKNSt7__cxx1112basic_stringIcSt11char_traitsIcESaIcEEESD_(ptr noundef nonnull align 8 dereferenceable(176) %this, ptr noundef %directory, ptr noundef nonnull align 8 dereferenceable(32) %filename, ptr noundef nonnull align 8 dereferenceable(32) %insertion_point) unnamed_addr #5 align 2 personality ptr @__gxx_personality_v0 {
entry:
  store ptr getelementptr inbounds ({ [10 x ptr] }, ptr @_ZTVN6google8protobuf8compiler20CommandLineInterface18MemoryOutputStreamE, i64 0, inrange i32 0, i64 2), ptr %this, align 8
  %directory_ = getelementptr inbounds i8, ptr %this, i64 8
  store ptr %directory, ptr %directory_, align 8
  %filename_ = getelementptr inbounds i8, ptr %this, i64 16
  tail call void @_ZNSt7__cxx1112basic_stringIcSt11char_traitsIcESaIcEEC1ERKS4_(ptr noundef nonnull align 8 dereferenceable(32) %filename_, ptr noundef nonnull align 8 dereferenceable(32) %filename)
  %insertion_point_ = getelementptr inbounds i8, ptr %this, i64 48
  invoke void @_ZNSt7__cxx1112basic_stringIcSt11char_traitsIcESaIcEEC1ERKS4_(ptr noundef nonnull align 8 dereferenceable(32) %insertion_point_, ptr noundef nonnull align 8 dereferenceable(32) %insertion_point)
          to label %invoke.cont3 unwind label %lpad2

invoke.cont3:                                     ; preds = %entry
  %data_ = getelementptr inbounds i8, ptr %this, i64 80
  tail call void @_ZNSt7__cxx1112basic_stringIcSt11char_traitsIcESaIcEEC1Ev(ptr noundef nonnull align 8 dereferenceable(32) %data_) #29
  %inner_ = getelementptr inbounds i8, ptr %this, i64 120
  %call = invoke noalias noundef nonnull dereferenceable(16) ptr @_Znwm(i64 noundef 16) #32
          to label %invoke.cont5 unwind label %lpad4

invoke.cont5:                                     ; preds = %invoke.cont3
  invoke void @_ZN6google8protobuf2io18StringOutputStreamC1EPNSt7__cxx1112basic_stringIcSt11char_traitsIcESaIcEEE(ptr noundef nonnull align 8 dereferenceable(16) %call, ptr noundef nonnull %data_)
          to label %invoke.cont8 unwind label %lpad7

invoke.cont8:                                     ; preds = %invoke.cont5
  store ptr %call, ptr %inner_, align 8
  %info_to_insert_ = getelementptr inbounds i8, ptr %this, i64 128
  invoke void @_ZN6google8protobuf17GeneratedCodeInfoC2EPNS0_5ArenaE(ptr noundef nonnull align 8 dereferenceable(48) %info_to_insert_, ptr noundef null)
          to label %invoke.cont10 unwind label %lpad9

invoke.cont10:                                    ; preds = %invoke.cont8
  ret void

lpad2:                                            ; preds = %entry
  %0 = landingpad { ptr, i32 }
          cleanup
  br label %ehcleanup12

lpad4:                                            ; preds = %invoke.cont3
  %1 = landingpad { ptr, i32 }
          cleanup
  br label %ehcleanup

lpad7:                                            ; preds = %invoke.cont5
  %2 = landingpad { ptr, i32 }
          cleanup
  tail call void @_ZdlPv(ptr noundef nonnull %call) #31
  br label %ehcleanup

lpad9:                                            ; preds = %invoke.cont8
  %3 = landingpad { ptr, i32 }
          cleanup
  %4 = load ptr, ptr %inner_, align 8
  %cmp.not.i = icmp eq ptr %4, null
  br i1 %cmp.not.i, label %_ZNSt10unique_ptrIN6google8protobuf2io18StringOutputStreamESt14default_deleteIS3_EED2Ev.exit, label %_ZNKSt14default_deleteIN6google8protobuf2io18StringOutputStreamEEclEPS3_.exit.i

_ZNKSt14default_deleteIN6google8protobuf2io18StringOutputStreamEEclEPS3_.exit.i: ; preds = %lpad9
  tail call void @_ZdlPv(ptr noundef nonnull %4) #31
  br label %_ZNSt10unique_ptrIN6google8protobuf2io18StringOutputStreamESt14default_deleteIS3_EED2Ev.exit

_ZNSt10unique_ptrIN6google8protobuf2io18StringOutputStreamESt14default_deleteIS3_EED2Ev.exit: ; preds = %lpad9, %_ZNKSt14default_deleteIN6google8protobuf2io18StringOutputStreamEEclEPS3_.exit.i
  store ptr null, ptr %inner_, align 8
  br label %ehcleanup

ehcleanup:                                        ; preds = %_ZNSt10unique_ptrIN6google8protobuf2io18StringOutputStreamESt14default_deleteIS3_EED2Ev.exit, %lpad7, %lpad4
  %.pn = phi { ptr, i32 } [ %3, %_ZNSt10unique_ptrIN6google8protobuf2io18StringOutputStreamESt14default_deleteIS3_EED2Ev.exit ], [ %2, %lpad7 ], [ %1, %lpad4 ]
  tail call void @_ZNSt7__cxx1112basic_stringIcSt11char_traitsIcESaIcEED1Ev(ptr noundef nonnull align 8 dereferenceable(32) %data_) #29
  tail call void @_ZNSt7__cxx1112basic_stringIcSt11char_traitsIcESaIcEED1Ev(ptr noundef nonnull align 8 dereferenceable(32) %insertion_point_) #29
  br label %ehcleanup12

ehcleanup12:                                      ; preds = %ehcleanup, %lpad2
  %.pn.pn = phi { ptr, i32 } [ %.pn, %ehcleanup ], [ %0, %lpad2 ]
  tail call void @_ZNSt7__cxx1112basic_stringIcSt11char_traitsIcESaIcEED1Ev(ptr noundef nonnull align 8 dereferenceable(32) %filename_) #29
  resume { ptr, i32 } %.pn.pn
}

; Function Attrs: mustprogress uwtable
define void @_ZN6google8protobuf8compiler20CommandLineInterface18MemoryOutputStreamC2EPNS2_20GeneratorContextImplERKNSt7__cxx1112basic_stringIcSt11char_traitsIcESaIcEEESD_RKNS0_17GeneratedCodeInfoE(ptr noundef nonnull align 8 dereferenceable(176) %this, ptr noundef %directory, ptr noundef nonnull align 8 dereferenceable(32) %filename, ptr noundef nonnull align 8 dereferenceable(32) %insertion_point, ptr noundef nonnull align 8 dereferenceable(48) %info) unnamed_addr #5 align 2 personality ptr @__gxx_personality_v0 {
entry:
  store ptr getelementptr inbounds ({ [10 x ptr] }, ptr @_ZTVN6google8protobuf8compiler20CommandLineInterface18MemoryOutputStreamE, i64 0, inrange i32 0, i64 2), ptr %this, align 8
  %directory_ = getelementptr inbounds i8, ptr %this, i64 8
  store ptr %directory, ptr %directory_, align 8
  %filename_ = getelementptr inbounds i8, ptr %this, i64 16
  tail call void @_ZNSt7__cxx1112basic_stringIcSt11char_traitsIcESaIcEEC1ERKS4_(ptr noundef nonnull align 8 dereferenceable(32) %filename_, ptr noundef nonnull align 8 dereferenceable(32) %filename)
  %insertion_point_ = getelementptr inbounds i8, ptr %this, i64 48
  invoke void @_ZNSt7__cxx1112basic_stringIcSt11char_traitsIcESaIcEEC1ERKS4_(ptr noundef nonnull align 8 dereferenceable(32) %insertion_point_, ptr noundef nonnull align 8 dereferenceable(32) %insertion_point)
          to label %invoke.cont3 unwind label %lpad2

invoke.cont3:                                     ; preds = %entry
  %data_ = getelementptr inbounds i8, ptr %this, i64 80
  tail call void @_ZNSt7__cxx1112basic_stringIcSt11char_traitsIcESaIcEEC1Ev(ptr noundef nonnull align 8 dereferenceable(32) %data_) #29
  %inner_ = getelementptr inbounds i8, ptr %this, i64 120
  %call = invoke noalias noundef nonnull dereferenceable(16) ptr @_Znwm(i64 noundef 16) #32
          to label %invoke.cont5 unwind label %lpad4

invoke.cont5:                                     ; preds = %invoke.cont3
  invoke void @_ZN6google8protobuf2io18StringOutputStreamC1EPNSt7__cxx1112basic_stringIcSt11char_traitsIcESaIcEEE(ptr noundef nonnull align 8 dereferenceable(16) %call, ptr noundef nonnull %data_)
          to label %invoke.cont8 unwind label %lpad7

invoke.cont8:                                     ; preds = %invoke.cont5
  store ptr %call, ptr %inner_, align 8
  %info_to_insert_ = getelementptr inbounds i8, ptr %this, i64 128
  invoke void @_ZN6google8protobuf17GeneratedCodeInfoC2EPNS0_5ArenaERKS1_(ptr noundef nonnull align 8 dereferenceable(48) %info_to_insert_, ptr noundef null, ptr noundef nonnull align 8 dereferenceable(48) %info)
          to label %invoke.cont10 unwind label %lpad9

invoke.cont10:                                    ; preds = %invoke.cont8
  ret void

lpad2:                                            ; preds = %entry
  %0 = landingpad { ptr, i32 }
          cleanup
  br label %ehcleanup12

lpad4:                                            ; preds = %invoke.cont3
  %1 = landingpad { ptr, i32 }
          cleanup
  br label %ehcleanup

lpad7:                                            ; preds = %invoke.cont5
  %2 = landingpad { ptr, i32 }
          cleanup
  tail call void @_ZdlPv(ptr noundef nonnull %call) #31
  br label %ehcleanup

lpad9:                                            ; preds = %invoke.cont8
  %3 = landingpad { ptr, i32 }
          cleanup
  %4 = load ptr, ptr %inner_, align 8
  %cmp.not.i = icmp eq ptr %4, null
  br i1 %cmp.not.i, label %_ZNSt10unique_ptrIN6google8protobuf2io18StringOutputStreamESt14default_deleteIS3_EED2Ev.exit, label %_ZNKSt14default_deleteIN6google8protobuf2io18StringOutputStreamEEclEPS3_.exit.i

_ZNKSt14default_deleteIN6google8protobuf2io18StringOutputStreamEEclEPS3_.exit.i: ; preds = %lpad9
  tail call void @_ZdlPv(ptr noundef nonnull %4) #31
  br label %_ZNSt10unique_ptrIN6google8protobuf2io18StringOutputStreamESt14default_deleteIS3_EED2Ev.exit

_ZNSt10unique_ptrIN6google8protobuf2io18StringOutputStreamESt14default_deleteIS3_EED2Ev.exit: ; preds = %lpad9, %_ZNKSt14default_deleteIN6google8protobuf2io18StringOutputStreamEEclEPS3_.exit.i
  store ptr null, ptr %inner_, align 8
  br label %ehcleanup

ehcleanup:                                        ; preds = %_ZNSt10unique_ptrIN6google8protobuf2io18StringOutputStreamESt14default_deleteIS3_EED2Ev.exit, %lpad7, %lpad4
  %.pn = phi { ptr, i32 } [ %3, %_ZNSt10unique_ptrIN6google8protobuf2io18StringOutputStreamESt14default_deleteIS3_EED2Ev.exit ], [ %2, %lpad7 ], [ %1, %lpad4 ]
  tail call void @_ZNSt7__cxx1112basic_stringIcSt11char_traitsIcESaIcEED1Ev(ptr noundef nonnull align 8 dereferenceable(32) %data_) #29
  tail call void @_ZNSt7__cxx1112basic_stringIcSt11char_traitsIcESaIcEED1Ev(ptr noundef nonnull align 8 dereferenceable(32) %insertion_point_) #29
  br label %ehcleanup12

ehcleanup12:                                      ; preds = %ehcleanup, %lpad2
  %.pn.pn = phi { ptr, i32 } [ %.pn, %ehcleanup ], [ %0, %lpad2 ]
  tail call void @_ZNSt7__cxx1112basic_stringIcSt11char_traitsIcESaIcEED1Ev(ptr noundef nonnull align 8 dereferenceable(32) %filename_) #29
  resume { ptr, i32 } %.pn.pn
}

; Function Attrs: mustprogress uwtable
define void @_ZN6google8protobuf8compiler20CommandLineInterface18MemoryOutputStream17InsertShiftedInfoERKNSt7__cxx1112basic_stringIcSt11char_traitsIcESaIcEEEmmRNS0_17GeneratedCodeInfoE(ptr noundef nonnull readonly align 8 dereferenceable(176) %this, ptr noundef nonnull align 8 dereferenceable(32) %insertion_content, i64 noundef %insertion_offset, i64 noundef %indent_length, ptr noundef nonnull align 8 dereferenceable(48) %target_info) local_unnamed_addr #5 align 2 {
entry:
  %0 = getelementptr inbounds i8, ptr %this, i64 144
  %1 = load ptr, ptr %0, align 8
  %2 = ptrtoint ptr %1 to i64
  %and.i.i.i.i = and i64 %2, 1
  %cmp.i.i.i.i = icmp eq i64 %and.i.i.i.i, 0
  %sub.i.i.i.i.i = add i64 %2, -1
  %3 = inttoptr i64 %sub.i.i.i.i.i to ptr
  %elements.i.i.i = getelementptr inbounds i8, ptr %3, i64 8
  %cond.i.i.i = select i1 %cmp.i.i.i.i, ptr %0, ptr %elements.i.i.i
  %current_size_.i.i.i = getelementptr inbounds i8, ptr %this, i64 152
  %4 = load i32, ptr %current_size_.i.i.i, align 8
  %idx.ext.i = sext i32 %4 to i64
  %add.ptr.i = getelementptr inbounds ptr, ptr %cond.i.i.i, i64 %idx.ext.i
  %cmp.i.not42 = icmp eq i32 %4, 0
  br i1 %cmp.i.not42, label %for.end38, label %for.body.lr.ph

for.body.lr.ph:                                   ; preds = %entry
  %add = add i64 %indent_length, %insertion_offset
  %5 = getelementptr inbounds i8, ptr %target_info, i64 16
  %6 = trunc i64 %indent_length to i32
  br label %for.body

for.body:                                         ; preds = %for.body.lr.ph, %for.end
  %insertion_offset.addr.045 = phi i64 [ %add, %for.body.lr.ph ], [ %add31, %for.end ]
  %pos.044 = phi i64 [ 0, %for.body.lr.ph ], [ %pos.1.lcssa, %for.end ]
  %__begin2.sroa.0.043 = phi ptr [ %cond.i.i.i, %for.body.lr.ph ], [ %incdec.ptr.i, %for.end ]
  %7 = load ptr, ptr %__begin2.sroa.0.043, align 8
  %call2.i.i.i = tail call noundef ptr @_ZN6google8protobuf8internal20RepeatedPtrFieldBase18AddOutOfLineHelperEPFPvPNS0_5ArenaEE(ptr noundef nonnull align 8 dereferenceable(24) %5, ptr noundef nonnull @_ZN6google8protobuf5Arena16DefaultConstructINS0_28GeneratedCodeInfo_AnnotationEEEPvPS1_)
  %end_.i.i = getelementptr inbounds i8, ptr %7, i64 60
  %8 = load i32, ptr %end_.i.i, align 4
  %conv32 = sext i32 %8 to i64
  %cmp33 = icmp ult i64 %pos.044, %conv32
  br i1 %cmp33, label %land.rhs.lr.ph, label %for.end

land.rhs.lr.ph:                                   ; preds = %for.body
  %begin_.i.i = getelementptr inbounds i8, ptr %7, i64 56
  br label %land.rhs

land.rhs:                                         ; preds = %land.rhs.lr.ph, %for.inc
  %inner_indent.036 = phi i32 [ 0, %land.rhs.lr.ph ], [ %inner_indent.1, %for.inc ]
  %insertion_offset.addr.135 = phi i64 [ %insertion_offset.addr.045, %land.rhs.lr.ph ], [ %insertion_offset.addr.2, %for.inc ]
  %pos.134 = phi i64 [ %pos.044, %land.rhs.lr.ph ], [ %inc, %for.inc ]
  %call10 = tail call noundef i64 @_ZNKSt7__cxx1112basic_stringIcSt11char_traitsIcESaIcEE4sizeEv(ptr noundef nonnull align 8 dereferenceable(32) %insertion_content) #29
  %sub = add i64 %call10, -1
  %cmp11 = icmp ult i64 %pos.134, %sub
  br i1 %cmp11, label %for.body12, label %for.end

for.body12:                                       ; preds = %land.rhs
  %call13 = tail call noundef nonnull align 1 dereferenceable(1) ptr @_ZNKSt7__cxx1112basic_stringIcSt11char_traitsIcESaIcEEixEm(ptr noundef nonnull align 8 dereferenceable(32) %insertion_content, i64 noundef %pos.134) #29
  %9 = load i8, ptr %call13, align 1
  %cmp15 = icmp eq i8 %9, 10
  br i1 %cmp15, label %if.then, label %for.inc

if.then:                                          ; preds = %for.body12
  %10 = load i32, ptr %begin_.i.i, align 8
  %conv17 = sext i32 %10 to i64
  %cmp18.not = icmp ult i64 %pos.134, %conv17
  br i1 %cmp18.not, label %if.else, label %if.then19

if.then19:                                        ; preds = %if.then
  %conv22 = add i32 %inner_indent.036, %6
  br label %for.inc

if.else:                                          ; preds = %if.then
  %add23 = add i64 %insertion_offset.addr.135, %indent_length
  br label %for.inc

for.inc:                                          ; preds = %for.body12, %if.else, %if.then19
  %insertion_offset.addr.2 = phi i64 [ %insertion_offset.addr.135, %if.then19 ], [ %add23, %if.else ], [ %insertion_offset.addr.135, %for.body12 ]
  %inner_indent.1 = phi i32 [ %conv22, %if.then19 ], [ %inner_indent.036, %if.else ], [ %inner_indent.036, %for.body12 ]
  %inc = add nuw i64 %pos.134, 1
  %11 = load i32, ptr %end_.i.i, align 4
  %conv = sext i32 %11 to i64
  %cmp = icmp ult i64 %inc, %conv
  br i1 %cmp, label %land.rhs, label %for.end, !llvm.loop !29

for.end:                                          ; preds = %land.rhs, %for.inc, %for.body
  %pos.1.lcssa = phi i64 [ %pos.044, %for.body ], [ %inc, %for.inc ], [ %pos.134, %land.rhs ]
  %insertion_offset.addr.1.lcssa = phi i64 [ %insertion_offset.addr.045, %for.body ], [ %insertion_offset.addr.2, %for.inc ], [ %insertion_offset.addr.135, %land.rhs ]
  %inner_indent.0.lcssa = phi i32 [ 0, %for.body ], [ %inner_indent.1, %for.inc ], [ %inner_indent.036, %land.rhs ]
  tail call void @_ZN6google8protobuf28GeneratedCodeInfo_Annotation8CopyFromERKS1_(ptr noundef nonnull align 8 dereferenceable(72) %call2.i.i.i, ptr noundef nonnull align 8 dereferenceable(72) %7)
  %begin_.i.i25 = getelementptr inbounds i8, ptr %call2.i.i.i, i64 56
  %12 = load i32, ptr %begin_.i.i25, align 8
  %13 = trunc i64 %insertion_offset.addr.1.lcssa to i32
  %conv29 = add i32 %12, %13
  store i32 %conv29, ptr %begin_.i.i25, align 8
  %14 = getelementptr inbounds i8, ptr %call2.i.i.i, i64 16
  %15 = load i32, ptr %14, align 4
  %conv3046 = zext i32 %inner_indent.0.lcssa to i64
  %add31 = add i64 %insertion_offset.addr.1.lcssa, %conv3046
  %end_.i.i27 = getelementptr inbounds i8, ptr %call2.i.i.i, i64 60
  %16 = load i32, ptr %end_.i.i27, align 4
  %17 = trunc i64 %add31 to i32
  %conv35 = add i32 %16, %17
  store i32 %conv35, ptr %end_.i.i27, align 4
  %or.i29 = or i32 %15, 6
  store i32 %or.i29, ptr %14, align 4
  %incdec.ptr.i = getelementptr inbounds i8, ptr %__begin2.sroa.0.043, i64 8
  %cmp.i.not = icmp eq ptr %incdec.ptr.i, %add.ptr.i
  br i1 %cmp.i.not, label %for.end38, label %for.body

for.end38:                                        ; preds = %for.end, %entry
  ret void
}

; Function Attrs: nounwind
declare noundef nonnull align 1 dereferenceable(1) ptr @_ZNKSt7__cxx1112basic_stringIcSt11char_traitsIcESaIcEEixEm(ptr noundef nonnull align 8 dereferenceable(32), i64 noundef) local_unnamed_addr #1

; Function Attrs: mustprogress uwtable
define void @_ZN6google8protobuf8compiler20CommandLineInterface18MemoryOutputStream14UpdateMetadataERKNSt7__cxx1112basic_stringIcSt11char_traitsIcESaIcEEEmmm(ptr noundef nonnull align 8 dereferenceable(176) %this, ptr noundef nonnull align 8 dereferenceable(32) %insertion_content, i64 noundef %insertion_offset, i64 noundef %insertion_length, i64 noundef %indent_length) local_unnamed_addr #5 align 2 personality ptr @__gxx_personality_v0 {
entry:
  %ref.tmp.i.i = alloca %"class.std::tuple.502", align 8
  %ref.tmp2.i.i = alloca %"class.std::tuple.505", align 8
  %ref.tmp = alloca %"class.std::__cxx11::basic_string", align 8
  %ref.tmp2 = alloca %"class.absl::lts_20230802::AlphaNum", align 8
  %ref.tmp3 = alloca %"class.absl::lts_20230802::AlphaNum", align 8
  %metadata = alloca %"class.google::protobuf::GeneratedCodeInfo", align 8
  %ref.tmp40 = alloca %"struct.std::pair.111", align 8
  %ref.tmp43 = alloca %"class.std::__cxx11::basic_string", align 8
  %ref.tmp44 = alloca %"class.absl::lts_20230802::AlphaNum", align 8
  %ref.tmp47 = alloca %"class.absl::lts_20230802::AlphaNum", align 8
  %new_metadata = alloca %"class.google::protobuf::GeneratedCodeInfo", align 8
  %directory_ = getelementptr inbounds i8, ptr %this, i64 8
  %0 = load ptr, ptr %directory_, align 8
  %files_ = getelementptr inbounds i8, ptr %0, i64 8
  %filename_ = getelementptr inbounds i8, ptr %this, i64 16
  %call.i = tail call { i64, ptr } @_ZNKSt7__cxx1112basic_stringIcSt11char_traitsIcESaIcEEcvSt17basic_string_viewIcS2_EEv(ptr noundef nonnull align 8 dereferenceable(32) %filename_) #29
  %1 = extractvalue { i64, ptr } %call.i, 0
  store i64 %1, ptr %ref.tmp2, align 8
  %2 = getelementptr inbounds i8, ptr %ref.tmp2, i64 8
  %3 = extractvalue { i64, ptr } %call.i, 1
  store ptr %3, ptr %2, align 8
  store i64 8, ptr %ref.tmp3, align 8
  %4 = getelementptr inbounds i8, ptr %ref.tmp3, i64 8
  store ptr @.str.7, ptr %4, align 8
  call void @_ZN4absl12lts_202308026StrCatB5cxx11ERKNS0_8AlphaNumES3_(ptr nonnull sret(%"class.std::__cxx11::basic_string") align 8 %ref.tmp, ptr noundef nonnull align 8 dereferenceable(48) %ref.tmp2, ptr noundef nonnull align 8 dereferenceable(48) %ref.tmp3)
  br label %for.cond.i.i.i.i

for.cond.i.i.i.i:                                 ; preds = %if.end9.i.i.i.i, %entry
  %iter.sroa.0.0.in.i.i.i.i = phi ptr [ %files_, %entry ], [ %arrayidx.i2.i.i.i.i, %if.end9.i.i.i.i ]
  %iter.sroa.0.0.i.i.i.i = load ptr, ptr %iter.sroa.0.0.in.i.i.i.i, align 8, !noalias !30
  %arrayidx.i.i.i.i.i.i.i = getelementptr i8, ptr %iter.sroa.0.0.i.i.i.i, i64 10
  %5 = load i8, ptr %arrayidx.i.i.i.i.i.i.i, align 1, !noalias !30
  %cmp.not8.i.i.i.i.i.i.i = icmp eq i8 %5, 0
  br i1 %cmp.not8.i.i.i.i.i.i.i, label %if.end.i.i.i.i, label %while.body.lr.ph.i.i.i.i.i.i.i

while.body.lr.ph.i.i.i.i.i.i.i:                   ; preds = %for.cond.i.i.i.i
  %conv3.i.i.i.i.i.i = zext i8 %5 to i64
  %add.ptr.i.i.i.i.i.i.i.i.i.i.i = getelementptr inbounds i8, ptr %iter.sroa.0.0.i.i.i.i, i64 16
  br label %while.body.i.i.i.i.i.i.i

while.body.i.i.i.i.i.i.i:                         ; preds = %if.end17.i.i.i.i.i.i.i, %while.body.lr.ph.i.i.i.i.i.i.i
  %s.addr.010.i.i.i.i.i.i.i = phi i64 [ 0, %while.body.lr.ph.i.i.i.i.i.i.i ], [ %s.addr.1.i.i.i.i.i.i.i, %if.end17.i.i.i.i.i.i.i ]
  %e.addr.09.i.i.i.i.i.i.i = phi i64 [ %conv3.i.i.i.i.i.i, %while.body.lr.ph.i.i.i.i.i.i.i ], [ %e.addr.1.i.i.i.i.i.i.i, %if.end17.i.i.i.i.i.i.i ]
  %add.i.i.i.i.i.i.i = add i64 %e.addr.09.i.i.i.i.i.i.i, %s.addr.010.i.i.i.i.i.i.i
  %shr.i.i.i.i.i.i.i = lshr i64 %add.i.i.i.i.i.i.i, 1
  %arrayidx.i.i.i.i.i.i.i.i.i = getelementptr inbounds %"union.absl::lts_20230802::container_internal::map_slot_type", ptr %add.ptr.i.i.i.i.i.i.i.i.i.i.i, i64 %shr.i.i.i.i.i.i.i
  %call2.i.i.i.i.i.i.i = call { i64, ptr } @_ZNKSt7__cxx1112basic_stringIcSt11char_traitsIcESaIcEEcvSt17basic_string_viewIcS2_EEv(ptr noundef nonnull align 8 dereferenceable(32) %arrayidx.i.i.i.i.i.i.i.i.i) #29, !noalias !30
  %6 = extractvalue { i64, ptr } %call2.i.i.i.i.i.i.i, 0
  %call4.i.i.i.i.i.i.i = call { i64, ptr } @_ZNKSt7__cxx1112basic_stringIcSt11char_traitsIcESaIcEEcvSt17basic_string_viewIcS2_EEv(ptr noundef nonnull align 8 dereferenceable(32) %ref.tmp) #29, !noalias !30
  %7 = extractvalue { i64, ptr } %call4.i.i.i.i.i.i.i, 0
  %.sroa.speculated.i.i.i.i.i.i.i.i.i = call i64 @llvm.umin.i64(i64 %6, i64 %7)
  %cmp.i2.i.i.i.i.i.i.i.i.i = icmp eq i64 %.sroa.speculated.i.i.i.i.i.i.i.i.i, 0
  br i1 %cmp.i2.i.i.i.i.i.i.i.i.i, label %if.then.i.i.i.i.i.i.i.i.i, label %_ZNSt11char_traitsIcE7compareEPKcS2_m.exit.i.i.i.i.i.i.i.i.i

_ZNSt11char_traitsIcE7compareEPKcS2_m.exit.i.i.i.i.i.i.i.i.i: ; preds = %while.body.i.i.i.i.i.i.i
  %8 = extractvalue { i64, ptr } %call4.i.i.i.i.i.i.i, 1
  %9 = extractvalue { i64, ptr } %call2.i.i.i.i.i.i.i, 1
  %call.i.i.i.i.i.i.i.i.i.i = call i32 @memcmp(ptr noundef %9, ptr noundef %8, i64 noundef %.sroa.speculated.i.i.i.i.i.i.i.i.i) #29
  %cmp.i.i.i.i.i.i.i.i.i = icmp eq i32 %call.i.i.i.i.i.i.i.i.i.i, 0
  br i1 %cmp.i.i.i.i.i.i.i.i.i, label %if.then.i.i.i.i.i.i.i.i.i, label %_ZNK4absl12lts_2023080218container_internal22StringBtreeDefaultLessclESt17basic_string_viewIcSt11char_traitsIcEES6_.exit.i.i.i.i.i.i.i

if.then.i.i.i.i.i.i.i.i.i:                        ; preds = %_ZNSt11char_traitsIcE7compareEPKcS2_m.exit.i.i.i.i.i.i.i.i.i, %while.body.i.i.i.i.i.i.i
  %sub.i.i.i.i.i.i.i.i.i.i = sub i64 %6, %7
  %spec.select3.i.i.i.i.i.i.i.i.i.i = call i64 @llvm.smax.i64(i64 %sub.i.i.i.i.i.i.i.i.i.i, i64 -2147483648)
  %retval.04.i.i.i.i.i.i.i.i.i.i = call i64 @llvm.smin.i64(i64 %spec.select3.i.i.i.i.i.i.i.i.i.i, i64 2147483647)
  %retval.0.i3.i.i.i.i.i.i.i.i.i = trunc i64 %retval.04.i.i.i.i.i.i.i.i.i.i to i32
  br label %_ZNK4absl12lts_2023080218container_internal22StringBtreeDefaultLessclESt17basic_string_viewIcSt11char_traitsIcEES6_.exit.i.i.i.i.i.i.i

_ZNK4absl12lts_2023080218container_internal22StringBtreeDefaultLessclESt17basic_string_viewIcSt11char_traitsIcEES6_.exit.i.i.i.i.i.i.i: ; preds = %if.then.i.i.i.i.i.i.i.i.i, %_ZNSt11char_traitsIcE7compareEPKcS2_m.exit.i.i.i.i.i.i.i.i.i
  %__ret.0.i.i.i.i.i.i.i.i.i = phi i32 [ %retval.0.i3.i.i.i.i.i.i.i.i.i, %if.then.i.i.i.i.i.i.i.i.i ], [ %call.i.i.i.i.i.i.i.i.i.i, %_ZNSt11char_traitsIcE7compareEPKcS2_m.exit.i.i.i.i.i.i.i.i.i ]
  %cmp.i1.i.i.i.i.i.i.i.i = icmp slt i32 %__ret.0.i.i.i.i.i.i.i.i.i, 0
  br i1 %cmp.i1.i.i.i.i.i.i.i.i, label %if.then.i.i.i.i.i.i.i, label %if.else.i.i.i.i.i.i.i

if.then.i.i.i.i.i.i.i:                            ; preds = %_ZNK4absl12lts_2023080218container_internal22StringBtreeDefaultLessclESt17basic_string_viewIcSt11char_traitsIcEES6_.exit.i.i.i.i.i.i.i
  %add10.i.i.i.i.i.i.i = add nuw i64 %shr.i.i.i.i.i.i.i, 1
  br label %if.end17.i.i.i.i.i.i.i

if.else.i.i.i.i.i.i.i:                            ; preds = %_ZNK4absl12lts_2023080218container_internal22StringBtreeDefaultLessclESt17basic_string_viewIcSt11char_traitsIcEES6_.exit.i.i.i.i.i.i.i
  %cmp1.i.i.not.i.i.i.i.i.i.i = icmp eq i32 %__ret.0.i.i.i.i.i.i.i.i.i, 0
  br i1 %cmp1.i.i.not.i.i.i.i.i.i.i, label %_ZNK4absl12lts_2023080218container_internal5btreeINS1_10map_paramsINSt7__cxx1112basic_stringIcSt11char_traitsIcESaIcEEES9_St4lessIS9_ESaISt4pairIKS9_S9_EELi256ELb0EEEE13internal_findIS9_EENS1_14btree_iteratorINS1_10btree_nodeISG_EERSE_PSE_EERKT_.exit.i.i, label %if.end17.i.i.i.i.i.i.i

if.end17.i.i.i.i.i.i.i:                           ; preds = %if.else.i.i.i.i.i.i.i, %if.then.i.i.i.i.i.i.i
  %e.addr.1.i.i.i.i.i.i.i = phi i64 [ %e.addr.09.i.i.i.i.i.i.i, %if.then.i.i.i.i.i.i.i ], [ %shr.i.i.i.i.i.i.i, %if.else.i.i.i.i.i.i.i ]
  %s.addr.1.i.i.i.i.i.i.i = phi i64 [ %add10.i.i.i.i.i.i.i, %if.then.i.i.i.i.i.i.i ], [ %s.addr.010.i.i.i.i.i.i.i, %if.else.i.i.i.i.i.i.i ]
  %cmp.not.i.i.i.i.i.i.i = icmp eq i64 %s.addr.1.i.i.i.i.i.i.i, %e.addr.1.i.i.i.i.i.i.i
  br i1 %cmp.not.i.i.i.i.i.i.i, label %if.end.i.i.i.i, label %while.body.i.i.i.i.i.i.i, !llvm.loop !33

if.end.i.i.i.i:                                   ; preds = %if.end17.i.i.i.i.i.i.i, %for.cond.i.i.i.i
  %retval.sroa.0.0.i.i.i.ph.i.i.i.i = phi i64 [ 0, %for.cond.i.i.i.i ], [ %e.addr.1.i.i.i.i.i.i.i, %if.end17.i.i.i.i.i.i.i ]
  %arrayidx.i.i.i.i.i = getelementptr i8, ptr %iter.sroa.0.0.i.i.i.i, i64 11
  %10 = load i8, ptr %arrayidx.i.i.i.i.i, align 1, !noalias !30
  %cmp.i1.not.i.i.i.i = icmp eq i8 %10, 0
  br i1 %cmp.i1.not.i.i.i.i, label %if.end9.i.i.i.i, label %cond.false.i.i.i

if.end9.i.i.i.i:                                  ; preds = %if.end.i.i.i.i
  %add.ptr.i.i.i.i.i.i.i = getelementptr inbounds i8, ptr %iter.sroa.0.0.i.i.i.i, i64 272
  %idxprom.i.i.i.i.i = and i64 %retval.sroa.0.0.i.i.i.ph.i.i.i.i, 255
  %arrayidx.i2.i.i.i.i = getelementptr inbounds ptr, ptr %add.ptr.i.i.i.i.i.i.i, i64 %idxprom.i.i.i.i.i
  br label %for.cond.i.i.i.i, !llvm.loop !34

_ZNK4absl12lts_2023080218container_internal5btreeINS1_10map_paramsINSt7__cxx1112basic_stringIcSt11char_traitsIcESaIcEEES9_St4lessIS9_ESaISt4pairIKS9_S9_EELi256ELb0EEEE13internal_findIS9_EENS1_14btree_iteratorINS1_10btree_nodeISG_EERSE_PSE_EERKT_.exit.i.i: ; preds = %if.else.i.i.i.i.i.i.i
  %conv13.i3.i.i.i = trunc i64 %shr.i.i.i.i.i.i.i to i32
  %cmp.not.i.i.i = icmp eq ptr %iter.sroa.0.0.i.i.i.i, null
  br i1 %cmp.not.i.i.i, label %cond.false.i.i.i, label %invoke.cont

cond.false.i.i.i:                                 ; preds = %if.end.i.i.i.i, %_ZNK4absl12lts_2023080218container_internal5btreeINS1_10map_paramsINSt7__cxx1112basic_stringIcSt11char_traitsIcESaIcEEES9_St4lessIS9_ESaISt4pairIKS9_S9_EELi256ELb0EEEE13internal_findIS9_EENS1_14btree_iteratorINS1_10btree_nodeISG_EERSE_PSE_EERKT_.exit.i.i
  %rightmost_.i.i.i.i.i = getelementptr inbounds i8, ptr %0, i64 16
  %11 = load ptr, ptr %rightmost_.i.i.i.i.i, align 8
  %arrayidx.i.i.i5.i.i = getelementptr i8, ptr %11, i64 10
  %12 = load i8, ptr %arrayidx.i.i.i5.i.i, align 1
  %conv.i.i.i.i = zext i8 %12 to i32
  br label %invoke.cont

invoke.cont:                                      ; preds = %cond.false.i.i.i, %_ZNK4absl12lts_2023080218container_internal5btreeINS1_10map_paramsINSt7__cxx1112basic_stringIcSt11char_traitsIcESaIcEEES9_St4lessIS9_ESaISt4pairIKS9_S9_EELi256ELb0EEEE13internal_findIS9_EENS1_14btree_iteratorINS1_10btree_nodeISG_EERSE_PSE_EERKT_.exit.i.i
  %retval.sroa.0.0.i1.i.i = phi ptr [ %11, %cond.false.i.i.i ], [ %iter.sroa.0.0.i.i.i.i, %_ZNK4absl12lts_2023080218container_internal5btreeINS1_10map_paramsINSt7__cxx1112basic_stringIcSt11char_traitsIcESaIcEEES9_St4lessIS9_ESaISt4pairIKS9_S9_EELi256ELb0EEEE13internal_findIS9_EENS1_14btree_iteratorINS1_10btree_nodeISG_EERSE_PSE_EERKT_.exit.i.i ]
  %retval.sroa.3.0.i2.i.i = phi i32 [ %conv.i.i.i.i, %cond.false.i.i.i ], [ %conv13.i3.i.i.i, %_ZNK4absl12lts_2023080218container_internal5btreeINS1_10map_paramsINSt7__cxx1112basic_stringIcSt11char_traitsIcESaIcEEES9_St4lessIS9_ESaISt4pairIKS9_S9_EELi256ELb0EEEE13internal_findIS9_EENS1_14btree_iteratorINS1_10btree_nodeISG_EERSE_PSE_EERKT_.exit.i.i ]
  call void @_ZNSt7__cxx1112basic_stringIcSt11char_traitsIcESaIcEED1Ev(ptr noundef nonnull align 8 dereferenceable(32) %ref.tmp) #29
  %13 = load ptr, ptr %directory_, align 8
  %rightmost_.i.i.i = getelementptr inbounds i8, ptr %13, i64 16
  %14 = load ptr, ptr %rightmost_.i.i.i, align 8
  %arrayidx.i.i.i = getelementptr i8, ptr %14, i64 10
  %15 = load i8, ptr %arrayidx.i.i.i, align 1
  %conv.i.i = zext i8 %15 to i32
  %cmp.i.i = icmp eq ptr %retval.sroa.0.0.i1.i.i, %14
  %cmp6.i.i = icmp eq i32 %retval.sroa.3.0.i2.i.i, %conv.i.i
  %16 = select i1 %cmp.i.i, i1 %cmp6.i.i, i1 false
  %current_size_.i.i = getelementptr inbounds i8, ptr %this, i64 152
  %17 = load i32, ptr %current_size_.i.i, align 8
  %cmp.i.i19 = icmp eq i32 %17, 0
  %or.cond54 = select i1 %16, i1 %cmp.i.i19, i1 false
  br i1 %or.cond54, label %cleanup.cont, label %invoke.cont17

invoke.cont17:                                    ; preds = %invoke.cont
  call void @_ZN6google8protobuf17GeneratedCodeInfoC2EPNS0_5ArenaE(ptr noundef nonnull align 8 dereferenceable(48) %metadata, ptr noundef null)
  %18 = load ptr, ptr %directory_, align 8
  %files_13 = getelementptr inbounds i8, ptr %18, i64 8
  %rightmost_.i.i.i20 = getelementptr inbounds i8, ptr %18, i64 16
  %19 = load ptr, ptr %rightmost_.i.i.i20, align 8
  %arrayidx.i.i.i21 = getelementptr i8, ptr %19, i64 10
  %20 = load i8, ptr %arrayidx.i.i.i21, align 1
  %conv.i.i22 = zext i8 %20 to i32
  %cmp.i.i28 = icmp ne ptr %retval.sroa.0.0.i1.i.i, %19
  %cmp6.i.i30 = icmp ne i32 %retval.sroa.3.0.i2.i.i, %conv.i.i22
  %.not.i = select i1 %cmp.i.i28, i1 true, i1 %cmp6.i.i30
  br i1 %.not.i, label %invoke.cont20, label %invoke.cont48

invoke.cont20:                                    ; preds = %invoke.cont17
  %21 = and i32 %retval.sroa.3.0.i2.i.i, 255
  %conv6.i.i = zext nneg i32 %21 to i64
  %add.ptr.i.i.i.i.i.i = getelementptr inbounds i8, ptr %retval.sroa.0.0.i1.i.i, i64 16
  %second = getelementptr inbounds %"union.absl::lts_20230802::container_internal::map_slot_type", ptr %add.ptr.i.i.i.i.i.i, i64 %conv6.i.i, i32 0, i32 1
  %call22 = call { i64, ptr } @_ZNKSt7__cxx1112basic_stringIcSt11char_traitsIcESaIcEEcvSt17basic_string_viewIcS2_EEv(ptr noundef nonnull align 8 dereferenceable(32) %second) #29
  %22 = extractvalue { i64, ptr } %call22, 0
  %23 = extractvalue { i64, ptr } %call22, 1
  %call24 = invoke noundef zeroext i1 @_ZN6google8protobuf11MessageLite15ParseFromStringESt17basic_string_viewIcSt11char_traitsIcEE(ptr noundef nonnull align 8 dereferenceable(16) %metadata, i64 %22, ptr %23)
          to label %invoke.cont23 unwind label %lpad14

invoke.cont23:                                    ; preds = %invoke.cont20
  br i1 %call24, label %if.end55, label %if.then25

if.then25:                                        ; preds = %invoke.cont23
  %call27 = call { i64, ptr } @_ZNKSt7__cxx1112basic_stringIcSt11char_traitsIcESaIcEEcvSt17basic_string_viewIcS2_EEv(ptr noundef nonnull align 8 dereferenceable(32) %second) #29
  %24 = extractvalue { i64, ptr } %call27, 0
  %25 = extractvalue { i64, ptr } %call27, 1
  %call29 = invoke noundef zeroext i1 @_ZN6google8protobuf10TextFormat15ParseFromStringESt17basic_string_viewIcSt11char_traitsIcEEPNS0_7MessageE(i64 %24, ptr %25, ptr noundef nonnull %metadata)
          to label %invoke.cont28 unwind label %lpad14

invoke.cont28:                                    ; preds = %if.then25
  br i1 %call29, label %if.end55, label %if.then30

if.then30:                                        ; preds = %invoke.cont28
  %call33 = invoke noundef nonnull align 8 dereferenceable(8) ptr @_ZStlsIcSt11char_traitsIcESaIcEERSt13basic_ostreamIT_T0_ES7_RKNSt7__cxx1112basic_stringIS4_S5_T1_EE(ptr noundef nonnull align 8 dereferenceable(8) @_ZSt4cerr, ptr noundef nonnull align 8 dereferenceable(32) %filename_)
          to label %invoke.cont32 unwind label %lpad14

invoke.cont32:                                    ; preds = %if.then30
  %call35 = invoke noundef nonnull align 8 dereferenceable(8) ptr @_ZStlsISt11char_traitsIcEERSt13basic_ostreamIcT_ES5_PKc(ptr noundef nonnull align 8 dereferenceable(8) %call33, ptr noundef nonnull @.str.8)
          to label %invoke.cont34 unwind label %lpad14

invoke.cont34:                                    ; preds = %invoke.cont32
  %call37 = invoke noundef nonnull align 8 dereferenceable(8) ptr @_ZNSolsEPFRSoS_E(ptr noundef nonnull align 8 dereferenceable(8) %call35, ptr noundef nonnull @_ZSt4endlIcSt11char_traitsIcEERSt13basic_ostreamIT_T0_ES6_)
          to label %cleanup unwind label %lpad14

lpad14:                                           ; preds = %if.end55, %invoke.cont48, %invoke.cont34, %invoke.cont32, %if.then30, %if.then25, %invoke.cont20
  %26 = landingpad { ptr, i32 }
          cleanup
  br label %ehcleanup

invoke.cont48:                                    ; preds = %invoke.cont17
  %call.i31 = call { i64, ptr } @_ZNKSt7__cxx1112basic_stringIcSt11char_traitsIcESaIcEEcvSt17basic_string_viewIcS2_EEv(ptr noundef nonnull align 8 dereferenceable(32) %filename_) #29
  %27 = extractvalue { i64, ptr } %call.i31, 0
  store i64 %27, ptr %ref.tmp44, align 8
  %28 = getelementptr inbounds i8, ptr %ref.tmp44, i64 8
  %29 = extractvalue { i64, ptr } %call.i31, 1
  store ptr %29, ptr %28, align 8
  store i64 8, ptr %ref.tmp47, align 8
  %30 = getelementptr inbounds i8, ptr %ref.tmp47, i64 8
  store ptr @.str.7, ptr %30, align 8
  invoke void @_ZN4absl12lts_202308026StrCatB5cxx11ERKNS0_8AlphaNumES3_(ptr nonnull sret(%"class.std::__cxx11::basic_string") align 8 %ref.tmp43, ptr noundef nonnull align 8 dereferenceable(48) %ref.tmp44, ptr noundef nonnull align 8 dereferenceable(48) %ref.tmp47)
          to label %invoke.cont49 unwind label %lpad14

invoke.cont49:                                    ; preds = %invoke.cont48
  call void @llvm.lifetime.start.p0(i64 8, ptr nonnull %ref.tmp.i.i), !noalias !35
  call void @llvm.lifetime.start.p0(i64 8, ptr nonnull %ref.tmp2.i.i), !noalias !35
  store ptr %ref.tmp43, ptr %ref.tmp.i.i, align 8, !alias.scope !38, !noalias !41
  store ptr @.str.5, ptr %ref.tmp2.i.i, align 8, !alias.scope !44, !noalias !41
  invoke void @_ZN4absl12lts_2023080218container_internal5btreeINS1_10map_paramsINSt7__cxx1112basic_stringIcSt11char_traitsIcESaIcEEES9_St4lessIS9_ESaISt4pairIKS9_S9_EELi256ELb0EEEE13insert_uniqueIS9_JRKSt21piecewise_construct_tSt5tupleIJOS9_EESM_IJRA1_KcEEEEESC_INS1_14btree_iteratorINS1_10btree_nodeISG_EERSE_PSE_EEbERKT_DpOT0_(ptr nonnull sret(%"struct.std::pair.111") align 8 %ref.tmp40, ptr noundef nonnull align 8 dereferenceable(24) %files_13, ptr noundef nonnull align 8 dereferenceable(32) %ref.tmp43, ptr noundef nonnull align 1 dereferenceable(1) @_ZSt19piecewise_construct, ptr noundef nonnull align 8 dereferenceable(8) %ref.tmp.i.i, ptr noundef nonnull align 8 dereferenceable(8) %ref.tmp2.i.i)
          to label %invoke.cont52 unwind label %lpad50

invoke.cont52:                                    ; preds = %invoke.cont49
  call void @llvm.lifetime.end.p0(i64 8, ptr nonnull %ref.tmp.i.i), !noalias !35
  call void @llvm.lifetime.end.p0(i64 8, ptr nonnull %ref.tmp2.i.i), !noalias !35
  %position_.i.i33 = getelementptr inbounds i8, ptr %ref.tmp40, i64 8
  %31 = load ptr, ptr %ref.tmp40, align 8
  %32 = load i32, ptr %position_.i.i33, align 8
  %33 = and i32 %32, 255
  %conv6.i.i34 = zext nneg i32 %33 to i64
  %add.ptr.i.i.i.i.i.i35 = getelementptr inbounds i8, ptr %31, i64 16
  %second54 = getelementptr inbounds %"union.absl::lts_20230802::container_internal::map_slot_type", ptr %add.ptr.i.i.i.i.i.i35, i64 %conv6.i.i34, i32 0, i32 1
  call void @_ZNSt7__cxx1112basic_stringIcSt11char_traitsIcESaIcEED1Ev(ptr noundef nonnull align 8 dereferenceable(32) %ref.tmp43) #29
  br label %if.end55

lpad50:                                           ; preds = %invoke.cont49
  %34 = landingpad { ptr, i32 }
          cleanup
  call void @_ZNSt7__cxx1112basic_stringIcSt11char_traitsIcESaIcEED1Ev(ptr noundef nonnull align 8 dereferenceable(32) %ref.tmp43) #29
  br label %ehcleanup

if.end55:                                         ; preds = %invoke.cont28, %invoke.cont23, %invoke.cont52
  %encoded_data.0 = phi ptr [ %second, %invoke.cont23 ], [ %second54, %invoke.cont52 ], [ %second, %invoke.cont28 ]
  %is_text_format.0 = phi i1 [ false, %invoke.cont23 ], [ false, %invoke.cont52 ], [ true, %invoke.cont28 ]
  invoke void @_ZN6google8protobuf17GeneratedCodeInfoC2EPNS0_5ArenaE(ptr noundef nonnull align 8 dereferenceable(48) %new_metadata, ptr noundef null)
          to label %invoke.cont62 unwind label %lpad14

invoke.cont62:                                    ; preds = %if.end55
  %35 = getelementptr inbounds i8, ptr %metadata, i64 16
  %36 = load ptr, ptr %35, align 8
  %37 = ptrtoint ptr %36 to i64
  %and.i.i.i.i = and i64 %37, 1
  %cmp.i.i.i.i = icmp eq i64 %and.i.i.i.i, 0
  %sub.i.i.i.i.i = add i64 %37, -1
  %38 = inttoptr i64 %sub.i.i.i.i.i to ptr
  %elements.i.i.i = getelementptr inbounds i8, ptr %38, i64 8
  %cond.i.i.i = select i1 %cmp.i.i.i.i, ptr %35, ptr %elements.i.i.i
  %current_size_.i.i.i = getelementptr inbounds i8, ptr %metadata, i64 24
  %39 = load i32, ptr %current_size_.i.i.i, align 8
  %idx.ext.i = sext i32 %39 to i64
  %add.ptr.i = getelementptr inbounds ptr, ptr %cond.i.i.i, i64 %idx.ext.i
  %cmp.i.not58 = icmp eq i32 %39, 0
  br i1 %cmp.i.not58, label %if.then93, label %invoke.cont69.lr.ph

invoke.cont69.lr.ph:                              ; preds = %invoke.cont62
  %40 = getelementptr inbounds i8, ptr %new_metadata, i64 16
  br label %invoke.cont69

invoke.cont69:                                    ; preds = %invoke.cont69.lr.ph, %for.inc
  %to_add.061 = phi i64 [ 0, %invoke.cont69.lr.ph ], [ %to_add.1, %for.inc ]
  %crossed_offset.060 = phi i8 [ 0, %invoke.cont69.lr.ph ], [ %crossed_offset.1, %for.inc ]
  %__begin2.sroa.0.059 = phi ptr [ %cond.i.i.i, %invoke.cont69.lr.ph ], [ %incdec.ptr.i, %for.inc ]
  %41 = load ptr, ptr %__begin2.sroa.0.059, align 8
  %begin_.i.i = getelementptr inbounds i8, ptr %41, i64 56
  %42 = load i32, ptr %begin_.i.i, align 8
  %conv = sext i32 %42 to i64
  %cmp.not = icmp uge i64 %conv, %insertion_offset
  %43 = and i8 %crossed_offset.060, 1
  %tobool.not = icmp eq i8 %43, 0
  %or.cond = select i1 %cmp.not, i1 %tobool.not, i1 false
  br i1 %or.cond, label %if.then71, label %if.end73

if.then71:                                        ; preds = %invoke.cont69
  invoke void @_ZN6google8protobuf8compiler20CommandLineInterface18MemoryOutputStream17InsertShiftedInfoERKNSt7__cxx1112basic_stringIcSt11char_traitsIcESaIcEEEmmRNS0_17GeneratedCodeInfoE(ptr noundef nonnull align 8 dereferenceable(176) %this, ptr noundef nonnull align 8 dereferenceable(32) %insertion_content, i64 noundef %insertion_offset, i64 noundef %indent_length, ptr noundef nonnull align 8 dereferenceable(48) %new_metadata)
          to label %invoke.cont72 unwind label %lpad57.loopexit

invoke.cont72:                                    ; preds = %if.then71
  %add = add i64 %to_add.061, %insertion_length
  br label %if.end73

lpad57.loopexit:                                  ; preds = %if.then71, %if.end73, %invoke.cont74
  %lpad.loopexit = landingpad { ptr, i32 }
          cleanup
  br label %lpad57

lpad57.loopexit.split-lp:                         ; preds = %if.then93, %if.then97, %if.else100
  %lpad.loopexit.split-lp = landingpad { ptr, i32 }
          cleanup
  br label %lpad57

lpad57:                                           ; preds = %lpad57.loopexit.split-lp, %lpad57.loopexit
  %lpad.phi = phi { ptr, i32 } [ %lpad.loopexit, %lpad57.loopexit ], [ %lpad.loopexit.split-lp, %lpad57.loopexit.split-lp ]
  call void @_ZN6google8protobuf17GeneratedCodeInfoD1Ev(ptr noundef nonnull align 8 dereferenceable(48) %new_metadata) #29
  br label %ehcleanup

if.end73:                                         ; preds = %invoke.cont72, %invoke.cont69
  %crossed_offset.1 = phi i8 [ 1, %invoke.cont72 ], [ %crossed_offset.060, %invoke.cont69 ]
  %to_add.1 = phi i64 [ %add, %invoke.cont72 ], [ %to_add.061, %invoke.cont69 ]
  %call2.i.i.i42 = invoke noundef ptr @_ZN6google8protobuf8internal20RepeatedPtrFieldBase18AddOutOfLineHelperEPFPvPNS0_5ArenaEE(ptr noundef nonnull align 8 dereferenceable(24) %40, ptr noundef nonnull @_ZN6google8protobuf5Arena16DefaultConstructINS0_28GeneratedCodeInfo_AnnotationEEEPvPS1_)
          to label %invoke.cont74 unwind label %lpad57.loopexit

invoke.cont74:                                    ; preds = %if.end73
  invoke void @_ZN6google8protobuf28GeneratedCodeInfo_Annotation8CopyFromERKS1_(ptr noundef nonnull align 8 dereferenceable(72) %call2.i.i.i42, ptr noundef nonnull align 8 dereferenceable(72) %41)
          to label %for.inc unwind label %lpad57.loopexit

for.inc:                                          ; preds = %invoke.cont74
  %begin_.i.i43 = getelementptr inbounds i8, ptr %call2.i.i.i42, i64 56
  %44 = trunc i64 %to_add.1 to i32
  %45 = getelementptr inbounds i8, ptr %call2.i.i.i42, i64 16
  %46 = load i32, ptr %45, align 4
  %47 = load <2 x i32>, ptr %begin_.i.i43, align 8
  %48 = insertelement <2 x i32> poison, i32 %44, i64 0
  %49 = shufflevector <2 x i32> %48, <2 x i32> poison, <2 x i32> zeroinitializer
  %50 = add <2 x i32> %47, %49
  store <2 x i32> %50, ptr %begin_.i.i43, align 8
  %or.i46 = or i32 %46, 6
  store i32 %or.i46, ptr %45, align 4
  %incdec.ptr.i = getelementptr inbounds i8, ptr %__begin2.sroa.0.059, i64 8
  %cmp.i.not = icmp eq ptr %incdec.ptr.i, %add.ptr.i
  br i1 %cmp.i.not, label %for.end, label %invoke.cont69

for.end:                                          ; preds = %for.inc
  %51 = and i8 %crossed_offset.1, 1
  %52 = icmp eq i8 %51, 0
  br i1 %52, label %if.then93, label %if.end95

if.then93:                                        ; preds = %invoke.cont62, %for.end
  invoke void @_ZN6google8protobuf8compiler20CommandLineInterface18MemoryOutputStream17InsertShiftedInfoERKNSt7__cxx1112basic_stringIcSt11char_traitsIcESaIcEEEmmRNS0_17GeneratedCodeInfoE(ptr noundef nonnull align 8 dereferenceable(176) %this, ptr noundef nonnull align 8 dereferenceable(32) %insertion_content, i64 noundef %insertion_offset, i64 noundef %indent_length, ptr noundef nonnull align 8 dereferenceable(48) %new_metadata)
          to label %if.end95 unwind label %lpad57.loopexit.split-lp

if.end95:                                         ; preds = %if.then93, %for.end
  br i1 %is_text_format.0, label %if.then97, label %if.else100

if.then97:                                        ; preds = %if.end95
  %call99 = invoke noundef zeroext i1 @_ZN6google8protobuf10TextFormat13PrintToStringERKNS0_7MessageEPNSt7__cxx1112basic_stringIcSt11char_traitsIcESaIcEEE(ptr noundef nonnull align 8 dereferenceable(16) %new_metadata, ptr noundef nonnull %encoded_data.0)
          to label %if.end103 unwind label %lpad57.loopexit.split-lp

if.else100:                                       ; preds = %if.end95
  %call102 = invoke noundef zeroext i1 @_ZNK6google8protobuf11MessageLite17SerializeToStringEPNSt7__cxx1112basic_stringIcSt11char_traitsIcESaIcEEE(ptr noundef nonnull align 8 dereferenceable(16) %new_metadata, ptr noundef nonnull %encoded_data.0)
          to label %if.end103 unwind label %lpad57.loopexit.split-lp

if.end103:                                        ; preds = %if.else100, %if.then97
  call void @_ZN6google8protobuf17GeneratedCodeInfoD1Ev(ptr noundef nonnull align 8 dereferenceable(48) %new_metadata) #29
  br label %cleanup

cleanup:                                          ; preds = %invoke.cont34, %if.end103
  call void @_ZN6google8protobuf17GeneratedCodeInfoD1Ev(ptr noundef nonnull align 8 dereferenceable(48) %metadata) #29
  br label %cleanup.cont

cleanup.cont:                                     ; preds = %invoke.cont, %cleanup
  ret void

ehcleanup:                                        ; preds = %lpad57, %lpad50, %lpad14
  %.pn = phi { ptr, i32 } [ %lpad.phi, %lpad57 ], [ %26, %lpad14 ], [ %34, %lpad50 ]
  call void @_ZN6google8protobuf17GeneratedCodeInfoD1Ev(ptr noundef nonnull align 8 dereferenceable(48) %metadata) #29
  resume { ptr, i32 } %.pn
}

declare void @_ZN4absl12lts_202308026StrCatB5cxx11ERKNS0_8AlphaNumES3_(ptr sret(%"class.std::__cxx11::basic_string") align 8, ptr noundef nonnull align 8 dereferenceable(48), ptr noundef nonnull align 8 dereferenceable(48)) local_unnamed_addr #0

declare noundef zeroext i1 @_ZN6google8protobuf11MessageLite15ParseFromStringESt17basic_string_viewIcSt11char_traitsIcEE(ptr noundef nonnull align 8 dereferenceable(16), i64, ptr) local_unnamed_addr #0

; Function Attrs: nounwind
declare { i64, ptr } @_ZNKSt7__cxx1112basic_stringIcSt11char_traitsIcESaIcEEcvSt17basic_string_viewIcS2_EEv(ptr noundef nonnull align 8 dereferenceable(32)) local_unnamed_addr #1

declare noundef zeroext i1 @_ZN6google8protobuf10TextFormat15ParseFromStringESt17basic_string_viewIcSt11char_traitsIcEEPNS0_7MessageE(i64, ptr, ptr noundef) local_unnamed_addr #0

declare noundef zeroext i1 @_ZN6google8protobuf10TextFormat13PrintToStringERKNS0_7MessageEPNSt7__cxx1112basic_stringIcSt11char_traitsIcESaIcEEE(ptr noundef nonnull align 8 dereferenceable(16), ptr noundef) local_unnamed_addr #0

declare noundef zeroext i1 @_ZNK6google8protobuf11MessageLite17SerializeToStringEPNSt7__cxx1112basic_stringIcSt11char_traitsIcESaIcEEE(ptr noundef nonnull align 8 dereferenceable(16), ptr noundef) local_unnamed_addr #0

; Function Attrs: nounwind
declare void @_ZN6google8protobuf17GeneratedCodeInfoD1Ev(ptr noundef nonnull align 8 dereferenceable(48)) unnamed_addr #1

; Function Attrs: mustprogress nounwind uwtable
define void @_ZN6google8protobuf8compiler20CommandLineInterface18MemoryOutputStreamD2Ev(ptr noundef nonnull align 8 dereferenceable(176) %this) unnamed_addr #10 align 2 personality ptr @__gxx_personality_v0 {
entry:
  %args.i.i = alloca [1 x %"class.std::basic_string_view"], align 16
  %ref.tmp.i = alloca %"class.std::__cxx11::basic_string", align 8
  %pair = alloca %"struct.std::pair.111", align 8
  %ref.tmp = alloca %"struct.std::pair.96", align 8
  %magic_string = alloca %"class.std::__cxx11::basic_string", align 8
  %ref.tmp74 = alloca %"class.std::__cxx11::basic_string", align 8
  %indent_ = alloca %"class.std::__cxx11::basic_string", align 8
  %ref.tmp156 = alloca %"class.absl::lts_20230802::log_internal::LogMessageFatal", align 8
  store ptr getelementptr inbounds ({ [10 x ptr] }, ptr @_ZTVN6google8protobuf8compiler20CommandLineInterface18MemoryOutputStreamE, i64 0, inrange i32 0, i64 2), ptr %this, align 8
  %inner_ = getelementptr inbounds i8, ptr %this, i64 120
  %0 = load ptr, ptr %inner_, align 8
  store ptr null, ptr %inner_, align 8
  %tobool.not.i.i = icmp eq ptr %0, null
  br i1 %tobool.not.i.i, label %_ZNSt10unique_ptrIN6google8protobuf2io18StringOutputStreamESt14default_deleteIS3_EE5resetEPS3_.exit, label %_ZNKSt14default_deleteIN6google8protobuf2io18StringOutputStreamEEclEPS3_.exit.i.i

_ZNKSt14default_deleteIN6google8protobuf2io18StringOutputStreamEEclEPS3_.exit.i.i: ; preds = %entry
  tail call void @_ZdlPv(ptr noundef nonnull %0) #31
  br label %_ZNSt10unique_ptrIN6google8protobuf2io18StringOutputStreamESt14default_deleteIS3_EE5resetEPS3_.exit

_ZNSt10unique_ptrIN6google8protobuf2io18StringOutputStreamESt14default_deleteIS3_EE5resetEPS3_.exit: ; preds = %entry, %_ZNKSt14default_deleteIN6google8protobuf2io18StringOutputStreamEEclEPS3_.exit.i.i
  %directory_ = getelementptr inbounds i8, ptr %this, i64 8
  %1 = load ptr, ptr %directory_, align 8
  %filename_ = getelementptr inbounds i8, ptr %this, i64 16
  invoke void @_ZNSt4pairIKNSt7__cxx1112basic_stringIcSt11char_traitsIcESaIcEEES5_EC2IRS5_RA1_KcTnNSt9enable_ifIXaaclsr5_PCCPE22_MoveConstructiblePairIT_T0_EEclsr5_PCCPE30_ImplicitlyMoveConvertiblePairISE_SF_EEEbE4typeELb1EEEOSE_OSF_(ptr noundef nonnull align 8 dereferenceable(64) %ref.tmp, ptr noundef nonnull align 8 dereferenceable(32) %filename_, ptr noundef nonnull align 1 dereferenceable(1) @.str.5)
          to label %invoke.cont unwind label %terminate.lpad.loopexit.split-lp

invoke.cont:                                      ; preds = %_ZNSt10unique_ptrIN6google8protobuf2io18StringOutputStreamESt14default_deleteIS3_EE5resetEPS3_.exit
  call void @llvm.lifetime.start.p0(i64 32, ptr nonnull %ref.tmp.i)
  invoke void @_ZNSt7__cxx1112basic_stringIcSt11char_traitsIcESaIcEEC1ERKS4_(ptr noundef nonnull align 8 dereferenceable(32) %ref.tmp.i, ptr noundef nonnull align 8 dereferenceable(32) %ref.tmp)
          to label %.noexc unwind label %terminate.lpad.loopexit.split-lp

.noexc:                                           ; preds = %invoke.cont
  %files_ = getelementptr inbounds i8, ptr %1, i64 8
  invoke void @_ZN4absl12lts_2023080218container_internal5btreeINS1_10map_paramsINSt7__cxx1112basic_stringIcSt11char_traitsIcESaIcEEES9_St4lessIS9_ESaISt4pairIKS9_S9_EELi256ELb0EEEE13insert_uniqueIS9_JSE_EEESC_INS1_14btree_iteratorINS1_10btree_nodeISG_EERSE_PSE_EEbERKT_DpOT0_(ptr nonnull sret(%"struct.std::pair.111") align 8 %pair, ptr noundef nonnull align 8 dereferenceable(24) %files_, ptr noundef nonnull align 8 dereferenceable(32) %ref.tmp.i, ptr noundef nonnull align 8 dereferenceable(64) %ref.tmp)
          to label %invoke.cont2 unwind label %lpad.i

lpad.i:                                           ; preds = %.noexc
  %2 = landingpad { ptr, i32 }
          catch ptr null
  call void @_ZNSt7__cxx1112basic_stringIcSt11char_traitsIcESaIcEED1Ev(ptr noundef nonnull align 8 dereferenceable(32) %ref.tmp.i) #29
  br label %terminate.lpad.body

invoke.cont2:                                     ; preds = %.noexc
  call void @_ZNSt7__cxx1112basic_stringIcSt11char_traitsIcESaIcEED1Ev(ptr noundef nonnull align 8 dereferenceable(32) %ref.tmp.i) #29
  call void @llvm.lifetime.end.p0(i64 32, ptr nonnull %ref.tmp.i)
  %second.i = getelementptr inbounds i8, ptr %ref.tmp, i64 32
  call void @_ZNSt7__cxx1112basic_stringIcSt11char_traitsIcESaIcEED1Ev(ptr noundef nonnull align 8 dereferenceable(32) %second.i) #29
  call void @_ZNSt7__cxx1112basic_stringIcSt11char_traitsIcESaIcEED1Ev(ptr noundef nonnull align 8 dereferenceable(32) %ref.tmp) #29
  %it.sroa.0.0.copyload = load ptr, ptr %pair, align 8
  %it.sroa.4.0.pair.sroa_idx = getelementptr inbounds i8, ptr %pair, i64 8
  %it.sroa.4.0.copyload = load i32, ptr %it.sroa.4.0.pair.sroa_idx, align 8
  %second = getelementptr inbounds i8, ptr %pair, i64 16
  %3 = load i8, ptr %second, align 8
  %4 = and i8 %3, 1
  %tobool.not = icmp eq i8 %4, 0
  %insertion_point_ = getelementptr inbounds i8, ptr %this, i64 48
  %call = call noundef zeroext i1 @_ZNKSt7__cxx1112basic_stringIcSt11char_traitsIcESaIcEE5emptyEv(ptr noundef nonnull align 8 dereferenceable(32) %insertion_point_) #29
  br i1 %call, label %if.then, label %if.end25

if.then:                                          ; preds = %invoke.cont2
  br i1 %tobool.not, label %if.then4, label %invoke.cont21

if.then4:                                         ; preds = %if.then
  %append_mode_ = getelementptr inbounds i8, ptr %this, i64 112
  %5 = load i8, ptr %append_mode_, align 8
  %6 = and i8 %5, 1
  %tobool5.not = icmp eq i8 %6, 0
  br i1 %tobool5.not, label %if.else, label %invoke.cont7

invoke.cont7:                                     ; preds = %if.then4
  %7 = and i32 %it.sroa.4.0.copyload, 255
  %conv6.i.i = zext nneg i32 %7 to i64
  %add.ptr.i.i.i.i.i.i = getelementptr inbounds i8, ptr %it.sroa.0.0.copyload, i64 16
  %second9 = getelementptr inbounds %"union.absl::lts_20230802::container_internal::map_slot_type", ptr %add.ptr.i.i.i.i.i.i, i64 %conv6.i.i, i32 0, i32 1
  %data_ = getelementptr inbounds i8, ptr %this, i64 80
  %call11 = invoke noundef nonnull align 8 dereferenceable(32) ptr @_ZNSt7__cxx1112basic_stringIcSt11char_traitsIcESaIcEE6appendERKS4_(ptr noundef nonnull align 8 dereferenceable(32) %second9, ptr noundef nonnull align 8 dereferenceable(32) %data_)
          to label %cleanup171 unwind label %terminate.lpad.loopexit.split-lp

if.else:                                          ; preds = %if.then4
  %call14 = invoke noundef nonnull align 8 dereferenceable(8) ptr @_ZStlsIcSt11char_traitsIcESaIcEERSt13basic_ostreamIT_T0_ES7_RKNSt7__cxx1112basic_stringIS4_S5_T1_EE(ptr noundef nonnull align 8 dereferenceable(8) @_ZSt4cerr, ptr noundef nonnull align 8 dereferenceable(32) %filename_)
          to label %invoke.cont13 unwind label %terminate.lpad.loopexit.split-lp

invoke.cont13:                                    ; preds = %if.else
  %call16 = invoke noundef nonnull align 8 dereferenceable(8) ptr @_ZStlsISt11char_traitsIcEERSt13basic_ostreamIcT_ES5_PKc(ptr noundef nonnull align 8 dereferenceable(8) %call14, ptr noundef nonnull @.str.9)
          to label %invoke.cont15 unwind label %terminate.lpad.loopexit.split-lp

invoke.cont15:                                    ; preds = %invoke.cont13
  %call18 = invoke noundef nonnull align 8 dereferenceable(8) ptr @_ZNSolsEPFRSoS_E(ptr noundef nonnull align 8 dereferenceable(8) %call16, ptr noundef nonnull @_ZSt4endlIcSt11char_traitsIcEERSt13basic_ostreamIT_T0_ES6_)
          to label %invoke.cont17 unwind label %terminate.lpad.loopexit.split-lp

invoke.cont17:                                    ; preds = %invoke.cont15
  %8 = load ptr, ptr %directory_, align 8
  %had_error_ = getelementptr inbounds i8, ptr %8, i64 40
  store i8 1, ptr %had_error_, align 8
  br label %cleanup171

invoke.cont21:                                    ; preds = %if.then
  %9 = and i32 %it.sroa.4.0.copyload, 255
  %conv6.i.i38 = zext nneg i32 %9 to i64
  %add.ptr.i.i.i.i.i.i39 = getelementptr inbounds i8, ptr %it.sroa.0.0.copyload, i64 16
  %second23 = getelementptr inbounds %"union.absl::lts_20230802::container_internal::map_slot_type", ptr %add.ptr.i.i.i.i.i.i39, i64 %conv6.i.i38, i32 0, i32 1
  %data_24 = getelementptr inbounds i8, ptr %this, i64 80
  call void @_ZNSt7__cxx1112basic_stringIcSt11char_traitsIcESaIcEE4swapERS4_(ptr noundef nonnull align 8 dereferenceable(32) %second23, ptr noundef nonnull align 8 dereferenceable(32) %data_24) #29
  br label %cleanup171

if.end25:                                         ; preds = %invoke.cont2
  %data_26 = getelementptr inbounds i8, ptr %this, i64 80
  %call27 = call noundef zeroext i1 @_ZNKSt7__cxx1112basic_stringIcSt11char_traitsIcESaIcEE5emptyEv(ptr noundef nonnull align 8 dereferenceable(32) %data_26) #29
  br i1 %call27, label %if.end36, label %land.lhs.true

land.lhs.true:                                    ; preds = %if.end25
  %call30 = call noundef i64 @_ZNKSt7__cxx1112basic_stringIcSt11char_traitsIcESaIcEE4sizeEv(ptr noundef nonnull align 8 dereferenceable(32) %data_26) #29
  %sub = add i64 %call30, -1
  %call32 = invoke noundef nonnull align 1 dereferenceable(1) ptr @_ZNSt7__cxx1112basic_stringIcSt11char_traitsIcESaIcEEixEm(ptr noundef nonnull align 8 dereferenceable(32) %data_26, i64 noundef %sub)
          to label %invoke.cont31 unwind label %terminate.lpad.loopexit.split-lp

invoke.cont31:                                    ; preds = %land.lhs.true
  %10 = load i8, ptr %call32, align 1
  %cmp.not = icmp eq i8 %10, 10
  br i1 %cmp.not, label %if.end36, label %if.then33

if.then33:                                        ; preds = %invoke.cont31
  invoke void @_ZNSt7__cxx1112basic_stringIcSt11char_traitsIcESaIcEE9push_backEc(ptr noundef nonnull align 8 dereferenceable(32) %data_26, i8 noundef signext 10)
          to label %if.end36 unwind label %terminate.lpad.loopexit.split-lp

if.end36:                                         ; preds = %if.then33, %invoke.cont31, %if.end25
  br i1 %tobool.not, label %invoke.cont49, label %if.then38

if.then38:                                        ; preds = %if.end36
  %call41 = invoke noundef nonnull align 8 dereferenceable(8) ptr @_ZStlsIcSt11char_traitsIcESaIcEERSt13basic_ostreamIT_T0_ES7_RKNSt7__cxx1112basic_stringIS4_S5_T1_EE(ptr noundef nonnull align 8 dereferenceable(8) @_ZSt4cerr, ptr noundef nonnull align 8 dereferenceable(32) %filename_)
          to label %invoke.cont40 unwind label %terminate.lpad.loopexit.split-lp

invoke.cont40:                                    ; preds = %if.then38
  %call43 = invoke noundef nonnull align 8 dereferenceable(8) ptr @_ZStlsISt11char_traitsIcEERSt13basic_ostreamIcT_ES5_PKc(ptr noundef nonnull align 8 dereferenceable(8) %call41, ptr noundef nonnull @.str.10)
          to label %invoke.cont42 unwind label %terminate.lpad.loopexit.split-lp

invoke.cont42:                                    ; preds = %invoke.cont40
  %call45 = invoke noundef nonnull align 8 dereferenceable(8) ptr @_ZNSolsEPFRSoS_E(ptr noundef nonnull align 8 dereferenceable(8) %call43, ptr noundef nonnull @_ZSt4endlIcSt11char_traitsIcEERSt13basic_ostreamIT_T0_ES6_)
          to label %invoke.cont44 unwind label %terminate.lpad.loopexit.split-lp

invoke.cont44:                                    ; preds = %invoke.cont42
  %11 = load ptr, ptr %directory_, align 8
  %had_error_47 = getelementptr inbounds i8, ptr %11, i64 40
  store i8 1, ptr %had_error_47, align 8
  br label %cleanup171

invoke.cont49:                                    ; preds = %if.end36
  %12 = and i32 %it.sroa.4.0.copyload, 255
  %conv6.i.i42 = zext nneg i32 %12 to i64
  %add.ptr.i.i.i.i.i.i43 = getelementptr inbounds i8, ptr %it.sroa.0.0.copyload, i64 16
  %second51 = getelementptr inbounds %"union.absl::lts_20230802::container_internal::map_slot_type", ptr %add.ptr.i.i.i.i.i.i43, i64 %conv6.i.i42, i32 0, i32 1
  %call.i = call { i64, ptr } @_ZNKSt7__cxx1112basic_stringIcSt11char_traitsIcESaIcEEcvSt17basic_string_viewIcS2_EEv(ptr noundef nonnull align 8 dereferenceable(32) %insertion_point_) #29
  %13 = extractvalue { i64, ptr } %call.i, 0
  %14 = extractvalue { i64, ptr } %call.i, 1
  call void @_ZNSt7__cxx1112basic_stringIcSt11char_traitsIcESaIcEEC1Ev(ptr noundef nonnull align 8 dereferenceable(32) %magic_string) #29
  call void @llvm.lifetime.start.p0(i64 16, ptr nonnull %args.i.i), !noalias !47
  store i64 %13, ptr %args.i.i, align 16, !noalias !47
  %15 = getelementptr inbounds i8, ptr %args.i.i, i64 8
  store ptr %14, ptr %15, align 8, !noalias !47
  invoke void @_ZN4absl12lts_2023080219substitute_internal24SubstituteAndAppendArrayEPNSt7__cxx1112basic_stringIcSt11char_traitsIcESaIcEEESt17basic_string_viewIcS5_EPKSA_m(ptr noundef nonnull %magic_string, i64 28, ptr nonnull @.str.11, ptr noundef nonnull %args.i.i, i64 noundef 1)
          to label %invoke.cont54 unwind label %lpad.i45

lpad.i45:                                         ; preds = %invoke.cont49
  %16 = landingpad { ptr, i32 }
          catch ptr null
  call void @_ZNSt7__cxx1112basic_stringIcSt11char_traitsIcESaIcEED1Ev(ptr noundef nonnull align 8 dereferenceable(32) %magic_string) #29
  br label %terminate.lpad.body

invoke.cont54:                                    ; preds = %invoke.cont49
  call void @llvm.lifetime.end.p0(i64 16, ptr nonnull %args.i.i), !noalias !47
  %call55 = call noundef i64 @_ZNKSt7__cxx1112basic_stringIcSt11char_traitsIcESaIcEE4findERKS4_m(ptr noundef nonnull align 8 dereferenceable(32) %second51, ptr noundef nonnull align 8 dereferenceable(32) %magic_string, i64 noundef 0) #29
  %cmp56 = icmp eq i64 %call55, -1
  br i1 %cmp56, label %if.then57, label %if.end72

if.then57:                                        ; preds = %invoke.cont54
  %call60 = invoke noundef nonnull align 8 dereferenceable(8) ptr @_ZStlsIcSt11char_traitsIcESaIcEERSt13basic_ostreamIT_T0_ES7_RKNSt7__cxx1112basic_stringIS4_S5_T1_EE(ptr noundef nonnull align 8 dereferenceable(8) @_ZSt4cerr, ptr noundef nonnull align 8 dereferenceable(32) %filename_)
          to label %invoke.cont59 unwind label %terminate.lpad.loopexit.split-lp

invoke.cont59:                                    ; preds = %if.then57
  %call62 = invoke noundef nonnull align 8 dereferenceable(8) ptr @_ZStlsISt11char_traitsIcEERSt13basic_ostreamIcT_ES5_PKc(ptr noundef nonnull align 8 dereferenceable(8) %call60, ptr noundef nonnull @.str.12)
          to label %invoke.cont61 unwind label %terminate.lpad.loopexit.split-lp

invoke.cont61:                                    ; preds = %invoke.cont59
  %call65 = invoke noundef nonnull align 8 dereferenceable(8) ptr @_ZStlsIcSt11char_traitsIcESaIcEERSt13basic_ostreamIT_T0_ES7_RKNSt7__cxx1112basic_stringIS4_S5_T1_EE(ptr noundef nonnull align 8 dereferenceable(8) %call62, ptr noundef nonnull align 8 dereferenceable(32) %insertion_point_)
          to label %invoke.cont64 unwind label %terminate.lpad.loopexit.split-lp

invoke.cont64:                                    ; preds = %invoke.cont61
  %call67 = invoke noundef nonnull align 8 dereferenceable(8) ptr @_ZStlsISt11char_traitsIcEERSt13basic_ostreamIcT_ES5_PKc(ptr noundef nonnull align 8 dereferenceable(8) %call65, ptr noundef nonnull @.str.13)
          to label %invoke.cont66 unwind label %terminate.lpad.loopexit.split-lp

invoke.cont66:                                    ; preds = %invoke.cont64
  %call69 = invoke noundef nonnull align 8 dereferenceable(8) ptr @_ZNSolsEPFRSoS_E(ptr noundef nonnull align 8 dereferenceable(8) %call67, ptr noundef nonnull @_ZSt4endlIcSt11char_traitsIcEERSt13basic_ostreamIT_T0_ES6_)
          to label %invoke.cont68 unwind label %terminate.lpad.loopexit.split-lp

invoke.cont68:                                    ; preds = %invoke.cont66
  %17 = load ptr, ptr %directory_, align 8
  %had_error_71 = getelementptr inbounds i8, ptr %17, i64 40
  store i8 1, ptr %had_error_71, align 8
  br label %cleanup170

if.end72:                                         ; preds = %invoke.cont54
  %cmp73 = icmp ugt i64 %call55, 3
  br i1 %cmp73, label %land.rhs, label %if.else81

land.rhs:                                         ; preds = %if.end72
  %sub75 = add i64 %call55, -3
  invoke void @_ZNKSt7__cxx1112basic_stringIcSt11char_traitsIcESaIcEE6substrEmm(ptr nonnull sret(%"class.std::__cxx11::basic_string") align 8 %ref.tmp74, ptr noundef nonnull align 8 dereferenceable(32) %second51, i64 noundef %sub75, i64 noundef 2)
          to label %cleanup.done unwind label %terminate.lpad.loopexit.split-lp

cleanup.done:                                     ; preds = %land.rhs
  %call.i48 = call noundef i32 @_ZNKSt7__cxx1112basic_stringIcSt11char_traitsIcESaIcEE7compareEPKc(ptr noundef nonnull align 8 dereferenceable(32) %ref.tmp74, ptr noundef nonnull @.str.14) #29
  %cmp.i = icmp eq i32 %call.i48, 0
  call void @_ZNSt7__cxx1112basic_stringIcSt11char_traitsIcESaIcEED1Ev(ptr noundef nonnull align 8 dereferenceable(32) %ref.tmp74) #29
  br i1 %cmp.i, label %if.end87, label %if.else81

if.else81:                                        ; preds = %if.end72, %cleanup.done
  %call82 = call noundef i64 @_ZNKSt7__cxx1112basic_stringIcSt11char_traitsIcESaIcEE12find_last_ofEcm(ptr noundef nonnull align 8 dereferenceable(32) %second51, i8 noundef signext 10, i64 noundef %call55) #29
  %inc = add i64 %call82, 1
  br label %if.end87

if.end87:                                         ; preds = %cleanup.done, %if.else81
  %pos.0 = phi i64 [ %inc, %if.else81 ], [ %sub75, %cleanup.done ]
  %call88 = call noundef i64 @_ZNKSt7__cxx1112basic_stringIcSt11char_traitsIcESaIcEE17find_first_not_ofEPKcm(ptr noundef nonnull align 8 dereferenceable(32) %second51, ptr noundef nonnull @.str.15, i64 noundef %pos.0) #29
  %sub89 = sub i64 %call88, %pos.0
  invoke void @_ZNSt7__cxx1112basic_stringIcSt11char_traitsIcESaIcEEC1ERKS4_mm(ptr noundef nonnull align 8 dereferenceable(32) %indent_, ptr noundef nonnull align 8 dereferenceable(32) %second51, i64 noundef %pos.0, i64 noundef %sub89)
          to label %invoke.cont90 unwind label %terminate.lpad.loopexit.split-lp

invoke.cont90:                                    ; preds = %if.end87
  %call91 = call noundef zeroext i1 @_ZNKSt7__cxx1112basic_stringIcSt11char_traitsIcESaIcEE5emptyEv(ptr noundef nonnull align 8 dereferenceable(32) %indent_) #29
  br i1 %call91, label %if.then92, label %for.cond.preheader

for.cond.preheader:                               ; preds = %invoke.cont90
  %call10363 = call noundef i64 @_ZNKSt7__cxx1112basic_stringIcSt11char_traitsIcESaIcEE4sizeEv(ptr noundef nonnull align 8 dereferenceable(32) %data_26) #29
  %cmp10464.not = icmp eq i64 %call10363, 0
  br i1 %cmp10464.not, label %for.end, label %for.body

if.then92:                                        ; preds = %invoke.cont90
  %call95 = invoke noundef nonnull align 8 dereferenceable(32) ptr @_ZNSt7__cxx1112basic_stringIcSt11char_traitsIcESaIcEE6insertEmRKS4_(ptr noundef nonnull align 8 dereferenceable(32) %second51, i64 noundef %pos.0, ptr noundef nonnull align 8 dereferenceable(32) %data_26)
          to label %invoke.cont94 unwind label %terminate.lpad.loopexit.split-lp

invoke.cont94:                                    ; preds = %if.then92
  %call98 = call noundef i64 @_ZNKSt7__cxx1112basic_stringIcSt11char_traitsIcESaIcEE4sizeEv(ptr noundef nonnull align 8 dereferenceable(32) %data_26) #29
  br label %invoke.cont94.invoke

invoke.cont94.invoke:                             ; preds = %while.end162, %invoke.cont94
  %18 = phi i64 [ %call98, %invoke.cont94 ], [ %add167, %while.end162 ]
  %19 = phi i64 [ 0, %invoke.cont94 ], [ %call168, %while.end162 ]
  invoke void @_ZN6google8protobuf8compiler20CommandLineInterface18MemoryOutputStream14UpdateMetadataERKNSt7__cxx1112basic_stringIcSt11char_traitsIcESaIcEEEmmm(ptr noundef nonnull align 8 dereferenceable(176) %this, ptr noundef nonnull align 8 dereferenceable(32) %data_26, i64 noundef %pos.0, i64 noundef %18, i64 noundef %19)
          to label %cleanup unwind label %terminate.lpad.loopexit.split-lp

for.body:                                         ; preds = %for.cond.preheader, %for.inc
  %indvars.iv = phi i64 [ %indvars.iv.next, %for.inc ], [ 0, %for.cond.preheader ]
  %indent_size.066 = phi i32 [ %indent_size.1, %for.inc ], [ 0, %for.cond.preheader ]
  %call108 = invoke noundef nonnull align 1 dereferenceable(1) ptr @_ZNSt7__cxx1112basic_stringIcSt11char_traitsIcESaIcEEixEm(ptr noundef nonnull align 8 dereferenceable(32) %data_26, i64 noundef %indvars.iv)
          to label %invoke.cont107 unwind label %terminate.lpad.loopexit

invoke.cont107:                                   ; preds = %for.body
  %20 = load i8, ptr %call108, align 1
  %cmp110 = icmp eq i8 %20, 10
  br i1 %cmp110, label %if.then111, label %for.inc

if.then111:                                       ; preds = %invoke.cont107
  %call112 = call noundef i64 @_ZNKSt7__cxx1112basic_stringIcSt11char_traitsIcESaIcEE4sizeEv(ptr noundef nonnull align 8 dereferenceable(32) %indent_) #29
  %21 = trunc i64 %call112 to i32
  %conv114 = add i32 %indent_size.066, %21
  br label %for.inc

for.inc:                                          ; preds = %invoke.cont107, %if.then111
  %indent_size.1 = phi i32 [ %conv114, %if.then111 ], [ %indent_size.066, %invoke.cont107 ]
  %indvars.iv.next = add nuw i64 %indvars.iv, 1
  %call103 = call noundef i64 @_ZNKSt7__cxx1112basic_stringIcSt11char_traitsIcESaIcEE4sizeEv(ptr noundef nonnull align 8 dereferenceable(32) %data_26) #29
  %cmp104 = icmp ugt i64 %call103, %indvars.iv.next
  br i1 %cmp104, label %for.body, label %for.end.loopexit, !llvm.loop !50

for.end.loopexit:                                 ; preds = %for.inc
  %22 = sext i32 %indent_size.1 to i64
  br label %for.end

for.end:                                          ; preds = %for.end.loopexit, %for.cond.preheader
  %indent_size.0.lcssa = phi i64 [ 0, %for.cond.preheader ], [ %22, %for.end.loopexit ]
  %call118 = call noundef i64 @_ZNKSt7__cxx1112basic_stringIcSt11char_traitsIcESaIcEE4sizeEv(ptr noundef nonnull align 8 dereferenceable(32) %data_26) #29
  %add120 = add i64 %call118, %indent_size.0.lcssa
  %call122 = invoke noundef nonnull align 8 dereferenceable(32) ptr @_ZNSt7__cxx1112basic_stringIcSt11char_traitsIcESaIcEE6insertEmmc(ptr noundef nonnull align 8 dereferenceable(32) %second51, i64 noundef %pos.0, i64 noundef %add120, i8 noundef signext 0)
          to label %invoke.cont121 unwind label %terminate.lpad.loopexit.split-lp

invoke.cont121:                                   ; preds = %for.end
  %call124 = invoke noundef nonnull align 1 dereferenceable(1) ptr @_ZNSt7__cxx1112basic_stringIcSt11char_traitsIcESaIcEEixEm(ptr noundef nonnull align 8 dereferenceable(32) %second51, i64 noundef %pos.0)
          to label %while.cond.preheader unwind label %terminate.lpad.loopexit.split-lp

while.cond.preheader:                             ; preds = %invoke.cont121
  %call12668 = call noundef i64 @_ZNKSt7__cxx1112basic_stringIcSt11char_traitsIcESaIcEE4sizeEv(ptr noundef nonnull align 8 dereferenceable(32) %data_26) #29
  %cmp12769.not = icmp eq i64 %call12668, 0
  br i1 %cmp12769.not, label %while.cond140, label %while.body

while.body:                                       ; preds = %while.cond.preheader, %while.body
  %data_pos.071 = phi i64 [ %add133, %while.body ], [ 0, %while.cond.preheader ]
  %storemerge70 = phi ptr [ %add.ptr138, %while.body ], [ %call124, %while.cond.preheader ]
  %call128 = call noundef ptr @_ZNSt7__cxx1112basic_stringIcSt11char_traitsIcESaIcEE4dataEv(ptr noundef nonnull align 8 dereferenceable(32) %indent_) #29
  %call129 = call noundef i64 @_ZNKSt7__cxx1112basic_stringIcSt11char_traitsIcESaIcEE4sizeEv(ptr noundef nonnull align 8 dereferenceable(32) %indent_) #29
  call void @llvm.memcpy.p0.p0.i64(ptr align 1 %storemerge70, ptr align 1 %call128, i64 %call129, i1 false)
  %call130 = call noundef i64 @_ZNKSt7__cxx1112basic_stringIcSt11char_traitsIcESaIcEE4sizeEv(ptr noundef nonnull align 8 dereferenceable(32) %indent_) #29
  %add.ptr = getelementptr inbounds i8, ptr %storemerge70, i64 %call130
  %call132 = call noundef i64 @_ZNKSt7__cxx1112basic_stringIcSt11char_traitsIcESaIcEE13find_first_ofEcm(ptr noundef nonnull align 8 dereferenceable(32) %data_26, i8 noundef signext 10, i64 noundef %data_pos.071) #29
  %add133 = add i64 %call132, 1
  %sub134 = sub i64 %add133, %data_pos.071
  %call136 = call noundef ptr @_ZNSt7__cxx1112basic_stringIcSt11char_traitsIcESaIcEE4dataEv(ptr noundef nonnull align 8 dereferenceable(32) %data_26) #29
  %add.ptr137 = getelementptr inbounds i8, ptr %call136, i64 %data_pos.071
  call void @llvm.memcpy.p0.p0.i64(ptr align 1 %add.ptr, ptr align 1 %add.ptr137, i64 %sub134, i1 false)
  %add.ptr138 = getelementptr inbounds i8, ptr %add.ptr, i64 %sub134
  %call126 = call noundef i64 @_ZNKSt7__cxx1112basic_stringIcSt11char_traitsIcESaIcEE4sizeEv(ptr noundef nonnull align 8 dereferenceable(32) %data_26) #29
  %cmp127 = icmp ult i64 %add133, %call126
  br i1 %cmp127, label %while.body, label %while.cond140, !llvm.loop !51

while.cond140:                                    ; preds = %while.body, %while.cond.preheader
  %storemerge.lcssa = phi ptr [ %call124, %while.cond.preheader ], [ %add.ptr138, %while.body ]
  %call145 = invoke noundef nonnull align 1 dereferenceable(1) ptr @_ZNSt7__cxx1112basic_stringIcSt11char_traitsIcESaIcEEixEm(ptr noundef nonnull align 8 dereferenceable(32) %second51, i64 noundef %pos.0)
          to label %invoke.cont144 unwind label %terminate.lpad.loopexit.split-lp

invoke.cont144:                                   ; preds = %while.cond140
  %call147 = call noundef i64 @_ZNKSt7__cxx1112basic_stringIcSt11char_traitsIcESaIcEE4sizeEv(ptr noundef nonnull align 8 dereferenceable(32) %data_26) #29
  %add.ptr148 = getelementptr inbounds i8, ptr %call145, i64 %call147
  %add.ptr149 = getelementptr inbounds i8, ptr %add.ptr148, i64 %indent_size.0.lcssa
  %cmp.i49 = icmp eq ptr %storemerge.lcssa, %add.ptr149
  br i1 %cmp.i49, label %while.end162, label %cond.false.i

cond.false.i:                                     ; preds = %invoke.cont144
  %call.i5051 = invoke noundef nonnull ptr @_ZN4absl12lts_2023080212log_internal17MakeCheckOpStringIPKcS4_EEPNSt7__cxx1112basic_stringIcSt11char_traitsIcESaIcEEET_T0_S4_(ptr noundef %storemerge.lcssa, ptr noundef nonnull %add.ptr149, ptr noundef nonnull @.str.16)
          to label %while.body155 unwind label %terminate.lpad.loopexit.split-lp

while.body155:                                    ; preds = %cond.false.i
  %call158 = call { i64, ptr } @_ZNKSt7__cxx1112basic_stringIcSt11char_traitsIcESaIcEEcvSt17basic_string_viewIcS2_EEv(ptr noundef nonnull align 8 dereferenceable(32) %call.i5051) #29
  %23 = extractvalue { i64, ptr } %call158, 0
  %24 = extractvalue { i64, ptr } %call158, 1
  invoke void @_ZN4absl12lts_2023080212log_internal15LogMessageFatalC1EPKciSt17basic_string_viewIcSt11char_traitsIcEE(ptr noundef nonnull align 8 dereferenceable(16) %ref.tmp156, ptr noundef nonnull @.str.17, i32 noundef 932, i64 %23, ptr %24) #33
          to label %invoke.cont159 unwind label %terminate.lpad.loopexit.split-lp

invoke.cont159:                                   ; preds = %while.body155
  call void @_ZN4absl12lts_2023080212log_internal15LogMessageFatalD1Ev(ptr noundef nonnull align 8 dereferenceable(16) %ref.tmp156) #34
  unreachable

while.end162:                                     ; preds = %invoke.cont144
  %call165 = call noundef i64 @_ZNKSt7__cxx1112basic_stringIcSt11char_traitsIcESaIcEE4sizeEv(ptr noundef nonnull align 8 dereferenceable(32) %data_26) #29
  %add167 = add i64 %call165, %indent_size.0.lcssa
  %call168 = call noundef i64 @_ZNKSt7__cxx1112basic_stringIcSt11char_traitsIcESaIcEE4sizeEv(ptr noundef nonnull align 8 dereferenceable(32) %indent_) #29
  br label %invoke.cont94.invoke

cleanup:                                          ; preds = %invoke.cont94.invoke
  call void @_ZNSt7__cxx1112basic_stringIcSt11char_traitsIcESaIcEED1Ev(ptr noundef nonnull align 8 dereferenceable(32) %indent_) #29
  br label %cleanup170

cleanup170:                                       ; preds = %cleanup, %invoke.cont68
  call void @_ZNSt7__cxx1112basic_stringIcSt11char_traitsIcESaIcEED1Ev(ptr noundef nonnull align 8 dereferenceable(32) %magic_string) #29
  br label %cleanup171

cleanup171:                                       ; preds = %invoke.cont17, %invoke.cont7, %cleanup170, %invoke.cont44, %invoke.cont21
  %info_to_insert_ = getelementptr inbounds i8, ptr %this, i64 128
  call void @_ZN6google8protobuf17GeneratedCodeInfoD1Ev(ptr noundef nonnull align 8 dereferenceable(48) %info_to_insert_) #29
  %25 = load ptr, ptr %inner_, align 8
  %cmp.not.i = icmp eq ptr %25, null
  br i1 %cmp.not.i, label %_ZNSt10unique_ptrIN6google8protobuf2io18StringOutputStreamESt14default_deleteIS3_EED2Ev.exit, label %_ZNKSt14default_deleteIN6google8protobuf2io18StringOutputStreamEEclEPS3_.exit.i

_ZNKSt14default_deleteIN6google8protobuf2io18StringOutputStreamEEclEPS3_.exit.i: ; preds = %cleanup171
  call void @_ZdlPv(ptr noundef nonnull %25) #31
  br label %_ZNSt10unique_ptrIN6google8protobuf2io18StringOutputStreamESt14default_deleteIS3_EED2Ev.exit

_ZNSt10unique_ptrIN6google8protobuf2io18StringOutputStreamESt14default_deleteIS3_EED2Ev.exit: ; preds = %cleanup171, %_ZNKSt14default_deleteIN6google8protobuf2io18StringOutputStreamEEclEPS3_.exit.i
  store ptr null, ptr %inner_, align 8
  %data_175 = getelementptr inbounds i8, ptr %this, i64 80
  call void @_ZNSt7__cxx1112basic_stringIcSt11char_traitsIcESaIcEED1Ev(ptr noundef nonnull align 8 dereferenceable(32) %data_175) #29
  call void @_ZNSt7__cxx1112basic_stringIcSt11char_traitsIcESaIcEED1Ev(ptr noundef nonnull align 8 dereferenceable(32) %insertion_point_) #29
  call void @_ZNSt7__cxx1112basic_stringIcSt11char_traitsIcESaIcEED1Ev(ptr noundef nonnull align 8 dereferenceable(32) %filename_) #29
  ret void

terminate.lpad.loopexit:                          ; preds = %for.body
  %lpad.loopexit = landingpad { ptr, i32 }
          catch ptr null
  br label %terminate.lpad.body

terminate.lpad.loopexit.split-lp:                 ; preds = %invoke.cont94.invoke, %_ZNSt10unique_ptrIN6google8protobuf2io18StringOutputStreamESt14default_deleteIS3_EE5resetEPS3_.exit, %invoke.cont7, %if.else, %invoke.cont13, %invoke.cont15, %land.lhs.true, %if.then33, %if.then38, %invoke.cont40, %invoke.cont42, %if.then57, %invoke.cont59, %invoke.cont61, %invoke.cont64, %invoke.cont66, %land.rhs, %if.end87, %if.then92, %for.end, %invoke.cont121, %while.cond140, %while.body155, %invoke.cont, %cond.false.i
  %lpad.loopexit.split-lp = landingpad { ptr, i32 }
          catch ptr null
  br label %terminate.lpad.body

terminate.lpad.body:                              ; preds = %terminate.lpad.loopexit, %terminate.lpad.loopexit.split-lp, %lpad.i45, %lpad.i
  %eh.lpad-body = phi { ptr, i32 } [ %2, %lpad.i ], [ %16, %lpad.i45 ], [ %lpad.loopexit, %terminate.lpad.loopexit ], [ %lpad.loopexit.split-lp, %terminate.lpad.loopexit.split-lp ]
  %26 = extractvalue { ptr, i32 } %eh.lpad-body, 0
  call void @__clang_call_terminate(ptr %26) #34
  unreachable
}

; Function Attrs: mustprogress uwtable
define linkonce_odr hidden void @_ZNSt4pairIKNSt7__cxx1112basic_stringIcSt11char_traitsIcESaIcEEES5_EC2IRS5_RA1_KcTnNSt9enable_ifIXaaclsr5_PCCPE22_MoveConstructiblePairIT_T0_EEclsr5_PCCPE30_ImplicitlyMoveConvertiblePairISE_SF_EEEbE4typeELb1EEEOSE_OSF_(ptr noundef nonnull align 8 dereferenceable(64) %this, ptr noundef nonnull align 8 dereferenceable(32) %__x, ptr noundef nonnull align 1 dereferenceable(1) %__y) unnamed_addr #5 comdat align 2 personality ptr @__gxx_personality_v0 {
entry:
  %ref.tmp = alloca %"class.std::allocator.7", align 1
  tail call void @_ZNSt7__cxx1112basic_stringIcSt11char_traitsIcESaIcEEC1ERKS4_(ptr noundef nonnull align 8 dereferenceable(32) %this, ptr noundef nonnull align 8 dereferenceable(32) %__x)
  %second = getelementptr inbounds i8, ptr %this, i64 32
  call void @_ZNSaIcEC1Ev(ptr noundef nonnull align 1 dereferenceable(1) %ref.tmp) #29
  %call.i1 = invoke noundef ptr @_ZNSt7__cxx1112basic_stringIcSt11char_traitsIcESaIcEE13_M_local_dataEv(ptr noundef nonnull align 8 dereferenceable(32) %second)
          to label %call.i.noexc unwind label %lpad

call.i.noexc:                                     ; preds = %entry
  invoke void @_ZNSt7__cxx1112basic_stringIcSt11char_traitsIcESaIcEE12_Alloc_hiderC1EPcRKS3_(ptr noundef nonnull align 8 dereferenceable(8) %second, ptr noundef %call.i1, ptr noundef nonnull align 1 dereferenceable(1) %ref.tmp)
          to label %.noexc unwind label %lpad

.noexc:                                           ; preds = %call.i.noexc
  %call.i.i = call noundef i64 @strlen(ptr noundef nonnull dereferenceable(1) %__y) #29
  %add.ptr.i = getelementptr inbounds i8, ptr %__y, i64 %call.i.i
  invoke void @_ZNSt7__cxx1112basic_stringIcSt11char_traitsIcESaIcEE12_M_constructIPKcEEvT_S8_St20forward_iterator_tag(ptr noundef nonnull align 8 dereferenceable(32) %second, ptr noundef nonnull %__y, ptr noundef nonnull %add.ptr.i)
          to label %invoke.cont unwind label %lpad.i

lpad.i:                                           ; preds = %.noexc
  %0 = landingpad { ptr, i32 }
          cleanup
  call void @_ZNSaIcED2Ev(ptr noundef nonnull align 1 dereferenceable(1) %second) #29
  br label %lpad.body

invoke.cont:                                      ; preds = %.noexc
  call void @_ZNSaIcED1Ev(ptr noundef nonnull align 1 dereferenceable(1) %ref.tmp) #29
  ret void

lpad:                                             ; preds = %call.i.noexc, %entry
  %1 = landingpad { ptr, i32 }
          cleanup
  br label %lpad.body

lpad.body:                                        ; preds = %lpad.i, %lpad
  %eh.lpad-body = phi { ptr, i32 } [ %1, %lpad ], [ %0, %lpad.i ]
  call void @_ZNSaIcED1Ev(ptr noundef nonnull align 1 dereferenceable(1) %ref.tmp) #29
  call void @_ZNSt7__cxx1112basic_stringIcSt11char_traitsIcESaIcEED1Ev(ptr noundef nonnull align 8 dereferenceable(32) %this) #29
  resume { ptr, i32 } %eh.lpad-body
}

; Function Attrs: noreturn nounwind uwtable
define linkonce_odr hidden void @__clang_call_terminate(ptr noundef %0) local_unnamed_addr #11 comdat {
  %2 = tail call ptr @__cxa_begin_catch(ptr %0) #29
  tail call void @_ZSt9terminatev() #34
  unreachable
}

declare ptr @__cxa_begin_catch(ptr) local_unnamed_addr

declare void @_ZSt9terminatev() local_unnamed_addr

; Function Attrs: mustprogress nocallback nofree nounwind willreturn memory(argmem: readwrite)
declare void @llvm.memcpy.p0.p0.i64(ptr noalias nocapture writeonly, ptr noalias nocapture readonly, i64, i1 immarg) #12

; Function Attrs: nounwind
declare noundef zeroext i1 @_ZNKSt7__cxx1112basic_stringIcSt11char_traitsIcESaIcEE5emptyEv(ptr noundef nonnull align 8 dereferenceable(32)) local_unnamed_addr #1

declare noundef nonnull align 8 dereferenceable(32) ptr @_ZNSt7__cxx1112basic_stringIcSt11char_traitsIcESaIcEE6appendERKS4_(ptr noundef nonnull align 8 dereferenceable(32), ptr noundef nonnull align 8 dereferenceable(32)) local_unnamed_addr #0

; Function Attrs: nounwind
declare void @_ZNSt7__cxx1112basic_stringIcSt11char_traitsIcESaIcEE4swapERS4_(ptr noundef nonnull align 8 dereferenceable(32), ptr noundef nonnull align 8 dereferenceable(32)) local_unnamed_addr #1

declare noundef nonnull align 1 dereferenceable(1) ptr @_ZNSt7__cxx1112basic_stringIcSt11char_traitsIcESaIcEEixEm(ptr noundef nonnull align 8 dereferenceable(32), i64 noundef) local_unnamed_addr #0

declare void @_ZNSt7__cxx1112basic_stringIcSt11char_traitsIcESaIcEE9push_backEc(ptr noundef nonnull align 8 dereferenceable(32), i8 noundef signext) local_unnamed_addr #0

; Function Attrs: nounwind
declare noundef i64 @_ZNKSt7__cxx1112basic_stringIcSt11char_traitsIcESaIcEE4findERKS4_m(ptr noundef nonnull align 8 dereferenceable(32), ptr noundef nonnull align 8 dereferenceable(32), i64 noundef) local_unnamed_addr #1

declare void @_ZNKSt7__cxx1112basic_stringIcSt11char_traitsIcESaIcEE6substrEmm(ptr sret(%"class.std::__cxx11::basic_string") align 8, ptr noundef nonnull align 8 dereferenceable(32), i64 noundef, i64 noundef) local_unnamed_addr #0

; Function Attrs: nounwind
declare noundef i64 @_ZNKSt7__cxx1112basic_stringIcSt11char_traitsIcESaIcEE12find_last_ofEcm(ptr noundef nonnull align 8 dereferenceable(32), i8 noundef signext, i64 noundef) local_unnamed_addr #1

; Function Attrs: nounwind
declare noundef i64 @_ZNKSt7__cxx1112basic_stringIcSt11char_traitsIcESaIcEE17find_first_not_ofEPKcm(ptr noundef nonnull align 8 dereferenceable(32), ptr noundef, i64 noundef) local_unnamed_addr #1

declare void @_ZNSt7__cxx1112basic_stringIcSt11char_traitsIcESaIcEEC1ERKS4_mm(ptr noundef nonnull align 8 dereferenceable(32), ptr noundef nonnull align 8 dereferenceable(32), i64 noundef, i64 noundef) unnamed_addr #0

declare noundef nonnull align 8 dereferenceable(32) ptr @_ZNSt7__cxx1112basic_stringIcSt11char_traitsIcESaIcEE6insertEmRKS4_(ptr noundef nonnull align 8 dereferenceable(32), i64 noundef, ptr noundef nonnull align 8 dereferenceable(32)) local_unnamed_addr #0

declare noundef nonnull align 8 dereferenceable(32) ptr @_ZNSt7__cxx1112basic_stringIcSt11char_traitsIcESaIcEE6insertEmmc(ptr noundef nonnull align 8 dereferenceable(32), i64 noundef, i64 noundef, i8 noundef signext) local_unnamed_addr #0

; Function Attrs: nounwind
declare noundef ptr @_ZNSt7__cxx1112basic_stringIcSt11char_traitsIcESaIcEE4dataEv(ptr noundef nonnull align 8 dereferenceable(32)) local_unnamed_addr #1

; Function Attrs: nounwind
declare noundef i64 @_ZNKSt7__cxx1112basic_stringIcSt11char_traitsIcESaIcEE13find_first_ofEcm(ptr noundef nonnull align 8 dereferenceable(32), i8 noundef signext, i64 noundef) local_unnamed_addr #1

; Function Attrs: cold
declare void @_ZN4absl12lts_2023080212log_internal15LogMessageFatalC1EPKciSt17basic_string_viewIcSt11char_traitsIcEE(ptr noundef nonnull align 8 dereferenceable(16), ptr noundef, i32 noundef, i64, ptr) unnamed_addr #13

; Function Attrs: noreturn nounwind
declare void @_ZN4absl12lts_2023080212log_internal15LogMessageFatalD1Ev(ptr noundef nonnull align 8 dereferenceable(16)) unnamed_addr #14

; Function Attrs: mustprogress nounwind uwtable
define void @_ZN6google8protobuf8compiler20CommandLineInterface18MemoryOutputStreamD0Ev(ptr noundef nonnull align 8 dereferenceable(176) %this) unnamed_addr #10 align 2 {
entry:
  tail call void @_ZN6google8protobuf8compiler20CommandLineInterface18MemoryOutputStreamD1Ev(ptr noundef nonnull align 8 dereferenceable(176) %this) #29
  tail call void @_ZdlPv(ptr noundef nonnull %this) #31
  ret void
}

; Function Attrs: mustprogress uwtable
define void @_ZN6google8protobuf8compiler20CommandLineInterfaceC2Ev(ptr noundef nonnull align 8 dereferenceable(574) %this) unnamed_addr #5 align 2 personality ptr @__gxx_personality_v0 {
invoke.cont9:
  %ref.tmp = alloca %"class.std::allocator.7", align 1
  tail call void @_ZNSt7__cxx1112basic_stringIcSt11char_traitsIcESaIcEEC1Ev(ptr noundef nonnull align 8 dereferenceable(32) %this) #29
  %version_info_ = getelementptr inbounds i8, ptr %this, i64 32
  tail call void @_ZNSt7__cxx1112basic_stringIcSt11char_traitsIcESaIcEEC1Ev(ptr noundef nonnull align 8 dereferenceable(32) %version_info_) #29
  %generators_by_flag_name_ = getelementptr inbounds i8, ptr %this, i64 64
  store ptr @_ZZN4absl12lts_2023080218container_internal5btreeINS1_10map_paramsINSt7__cxx1112basic_stringIcSt11char_traitsIcESaIcEEEN6google8protobuf8compiler20CommandLineInterface13GeneratorInfoESt4lessIS9_ESaISt4pairIKS9_SE_EELi256ELb0EEEE9EmptyNodeEvE10empty_nodeB5cxx11, ptr %generators_by_flag_name_, align 8
  %rightmost_.i.i.i.i.i = getelementptr inbounds i8, ptr %this, i64 72
  store ptr @_ZZN4absl12lts_2023080218container_internal5btreeINS1_10map_paramsINSt7__cxx1112basic_stringIcSt11char_traitsIcESaIcEEEN6google8protobuf8compiler20CommandLineInterface13GeneratorInfoESt4lessIS9_ESaISt4pairIKS9_SE_EELi256ELb0EEEE9EmptyNodeEvE10empty_nodeB5cxx11, ptr %rightmost_.i.i.i.i.i, align 8
  %size_.i.i.i.i.i = getelementptr inbounds i8, ptr %this, i64 80
  store i64 0, ptr %size_.i.i.i.i.i, align 8
  %generators_by_option_name_ = getelementptr inbounds i8, ptr %this, i64 88
  store ptr getelementptr inbounds ([32 x i8], ptr @_ZN4absl12lts_2023080218container_internal11kEmptyGroupE, i64 0, i64 16), ptr %generators_by_option_name_, align 8
  %slots_.i.i.i.i.i.i.i = getelementptr inbounds i8, ptr %this, i64 96
  tail call void @llvm.memset.p0.i64(ptr noundef nonnull align 8 dereferenceable(24) %slots_.i.i.i.i.i.i.i, i8 0, i64 24, i1 false)
  %generator_parameters_ = getelementptr inbounds i8, ptr %this, i64 120
  store ptr getelementptr inbounds ([32 x i8], ptr @_ZN4absl12lts_2023080218container_internal11kEmptyGroupE, i64 0, i64 16), ptr %generator_parameters_, align 8
  %slots_.i.i.i.i.i.i.i6 = getelementptr inbounds i8, ptr %this, i64 128
  tail call void @llvm.memset.p0.i64(ptr noundef nonnull align 8 dereferenceable(24) %slots_.i.i.i.i.i.i.i6, i8 0, i64 24, i1 false)
  %plugin_parameters_ = getelementptr inbounds i8, ptr %this, i64 152
  store ptr getelementptr inbounds ([32 x i8], ptr @_ZN4absl12lts_2023080218container_internal11kEmptyGroupE, i64 0, i64 16), ptr %plugin_parameters_, align 8
  %slots_.i.i.i.i.i.i.i7 = getelementptr inbounds i8, ptr %this, i64 160
  tail call void @llvm.memset.p0.i64(ptr noundef nonnull align 8 dereferenceable(24) %slots_.i.i.i.i.i.i.i7, i8 0, i64 24, i1 false)
  %plugin_prefix_ = getelementptr inbounds i8, ptr %this, i64 184
  tail call void @_ZNSt7__cxx1112basic_stringIcSt11char_traitsIcESaIcEEC1Ev(ptr noundef nonnull align 8 dereferenceable(32) %plugin_prefix_) #29
  %plugins_ = getelementptr inbounds i8, ptr %this, i64 216
  store ptr getelementptr inbounds ([32 x i8], ptr @_ZN4absl12lts_2023080218container_internal11kEmptyGroupE, i64 0, i64 16), ptr %plugins_, align 8
  %slots_.i.i.i.i.i.i.i8 = getelementptr inbounds i8, ptr %this, i64 224
  %proto_path_ = getelementptr inbounds i8, ptr %this, i64 264
  %direct_dependencies_ = getelementptr inbounds i8, ptr %this, i64 312
  tail call void @llvm.memset.p0.i64(ptr noundef nonnull align 8 dereferenceable(37) %slots_.i.i.i.i.i.i.i8, i8 0, i64 37, i1 false)
  tail call void @llvm.memset.p0.i64(ptr noundef nonnull align 8 dereferenceable(48) %proto_path_, i8 0, i64 48, i1 false)
  store ptr getelementptr inbounds ([32 x i8], ptr @_ZN4absl12lts_2023080218container_internal11kEmptyGroupE, i64 0, i64 16), ptr %direct_dependencies_, align 8
  %slots_.i.i.i.i.i.i = getelementptr inbounds i8, ptr %this, i64 320
  %direct_dependencies_violation_msg_ = getelementptr inbounds i8, ptr %this, i64 352
  tail call void @llvm.memset.p0.i64(ptr noundef nonnull align 8 dereferenceable(25) %slots_.i.i.i.i.i.i, i8 0, i64 25, i1 false)
  call void @_ZNSaIcEC1Ev(ptr noundef nonnull align 1 dereferenceable(1) %ref.tmp) #29
  %call.i9 = invoke noundef ptr @_ZNSt7__cxx1112basic_stringIcSt11char_traitsIcESaIcEE13_M_local_dataEv(ptr noundef nonnull align 8 dereferenceable(32) %direct_dependencies_violation_msg_)
          to label %call.i.noexc unwind label %lpad12

call.i.noexc:                                     ; preds = %invoke.cont9
  invoke void @_ZNSt7__cxx1112basic_stringIcSt11char_traitsIcESaIcEE12_Alloc_hiderC1EPcRKS3_(ptr noundef nonnull align 8 dereferenceable(8) %direct_dependencies_violation_msg_, ptr noundef %call.i9, ptr noundef nonnull align 1 dereferenceable(1) %ref.tmp)
          to label %.noexc unwind label %lpad12

.noexc:                                           ; preds = %call.i.noexc
  invoke void @_ZNSt7__cxx1112basic_stringIcSt11char_traitsIcESaIcEE12_M_constructIPKcEEvT_S8_St20forward_iterator_tag(ptr noundef nonnull align 8 dereferenceable(32) %direct_dependencies_violation_msg_, ptr noundef nonnull @.str.155, ptr noundef nonnull getelementptr inbounds ([63 x i8], ptr @.str.155, i64 0, i64 62))
          to label %invoke.cont13 unwind label %lpad.i

lpad.i:                                           ; preds = %.noexc
  %0 = landingpad { ptr, i32 }
          cleanup
  call void @_ZNSaIcED2Ev(ptr noundef nonnull align 1 dereferenceable(1) %direct_dependencies_violation_msg_) #29
  br label %lpad12.body

invoke.cont13:                                    ; preds = %.noexc
  call void @_ZNSaIcED1Ev(ptr noundef nonnull align 1 dereferenceable(1) %ref.tmp) #29
  %output_directives_ = getelementptr inbounds i8, ptr %this, i64 384
  call void @llvm.memset.p0.i64(ptr noundef nonnull align 8 dereferenceable(24) %output_directives_, i8 0, i64 24, i1 false)
  %codec_type_ = getelementptr inbounds i8, ptr %this, i64 408
  call void @_ZNSt7__cxx1112basic_stringIcSt11char_traitsIcESaIcEEC1Ev(ptr noundef nonnull align 8 dereferenceable(32) %codec_type_) #29
  %descriptor_set_in_names_ = getelementptr inbounds i8, ptr %this, i64 440
  call void @llvm.memset.p0.i64(ptr noundef nonnull align 8 dereferenceable(24) %descriptor_set_in_names_, i8 0, i64 24, i1 false)
  %descriptor_set_out_name_ = getelementptr inbounds i8, ptr %this, i64 464
  call void @_ZNSt7__cxx1112basic_stringIcSt11char_traitsIcESaIcEEC1Ev(ptr noundef nonnull align 8 dereferenceable(32) %descriptor_set_out_name_) #29
  %experimental_edition_defaults_out_name_ = getelementptr inbounds i8, ptr %this, i64 496
  call void @_ZNSt7__cxx1112basic_stringIcSt11char_traitsIcESaIcEEC1Ev(ptr noundef nonnull align 8 dereferenceable(32) %experimental_edition_defaults_out_name_) #29
  %dependency_out_name_ = getelementptr inbounds i8, ptr %this, i64 536
  call void @_ZNSt7__cxx1112basic_stringIcSt11char_traitsIcESaIcEEC1Ev(ptr noundef nonnull align 8 dereferenceable(32) %dependency_out_name_) #29
  %experimental_editions_ = getelementptr inbounds i8, ptr %this, i64 568
  store i8 0, ptr %experimental_editions_, align 8
  %source_info_in_descriptor_set_ = getelementptr inbounds i8, ptr %this, i64 570
  store i32 0, ptr %source_info_in_descriptor_set_, align 2
  ret void

lpad12:                                           ; preds = %call.i.noexc, %invoke.cont9
  %1 = landingpad { ptr, i32 }
          cleanup
  br label %lpad12.body

lpad12.body:                                      ; preds = %lpad.i, %lpad12
  %eh.lpad-body = phi { ptr, i32 } [ %1, %lpad12 ], [ %0, %lpad.i ]
  %input_files_ = getelementptr inbounds i8, ptr %this, i64 288
  call void @_ZNSaIcED1Ev(ptr noundef nonnull align 1 dereferenceable(1) %ref.tmp) #29
  call void @_ZN4absl12lts_2023080213flat_hash_setINSt7__cxx1112basic_stringIcSt11char_traitsIcESaIcEEENS0_18container_internal10StringHashENS8_8StringEqESaIS7_EED2Ev(ptr noundef nonnull align 8 dereferenceable(32) %direct_dependencies_) #29
  call void @_ZNSt6vectorINSt7__cxx1112basic_stringIcSt11char_traitsIcESaIcEEESaIS5_EED2Ev(ptr noundef nonnull align 8 dereferenceable(24) %input_files_) #29
  call void @_ZNSt6vectorISt4pairINSt7__cxx1112basic_stringIcSt11char_traitsIcESaIcEEES6_ESaIS7_EED2Ev(ptr noundef nonnull align 8 dereferenceable(24) %proto_path_) #29
  call void @_ZN4absl12lts_2023080213flat_hash_mapINSt7__cxx1112basic_stringIcSt11char_traitsIcESaIcEEES7_NS0_18container_internal10StringHashENS8_8StringEqESaISt4pairIKS7_S7_EEED2Ev(ptr noundef nonnull align 8 dereferenceable(32) %plugins_) #29
  call void @_ZNSt7__cxx1112basic_stringIcSt11char_traitsIcESaIcEED1Ev(ptr noundef nonnull align 8 dereferenceable(32) %plugin_prefix_) #29
  call void @_ZN4absl12lts_2023080213flat_hash_mapINSt7__cxx1112basic_stringIcSt11char_traitsIcESaIcEEES7_NS0_18container_internal10StringHashENS8_8StringEqESaISt4pairIKS7_S7_EEED2Ev(ptr noundef nonnull align 8 dereferenceable(32) %plugin_parameters_) #29
  call void @_ZN4absl12lts_2023080213flat_hash_mapINSt7__cxx1112basic_stringIcSt11char_traitsIcESaIcEEES7_NS0_18container_internal10StringHashENS8_8StringEqESaISt4pairIKS7_S7_EEED2Ev(ptr noundef nonnull align 8 dereferenceable(32) %generator_parameters_) #29
  call void @_ZN4absl12lts_2023080213flat_hash_mapINSt7__cxx1112basic_stringIcSt11char_traitsIcESaIcEEEN6google8protobuf8compiler20CommandLineInterface13GeneratorInfoENS0_18container_internal10StringHashENSD_8StringEqESaISt4pairIKS7_SC_EEED2Ev(ptr noundef nonnull align 8 dereferenceable(32) %generators_by_option_name_) #29
  call void @_ZN4absl12lts_202308029btree_mapINSt7__cxx1112basic_stringIcSt11char_traitsIcESaIcEEEN6google8protobuf8compiler20CommandLineInterface13GeneratorInfoESt4lessIS7_ESaISt4pairIKS7_SC_EEED2Ev(ptr noundef nonnull align 8 dereferenceable(24) %generators_by_flag_name_) #29
  call void @_ZNSt7__cxx1112basic_stringIcSt11char_traitsIcESaIcEED1Ev(ptr noundef nonnull align 8 dereferenceable(32) %version_info_) #29
  call void @_ZNSt7__cxx1112basic_stringIcSt11char_traitsIcESaIcEED1Ev(ptr noundef nonnull align 8 dereferenceable(32) %this) #29
  resume { ptr, i32 } %eh.lpad-body
}

; Function Attrs: nounwind
declare void @_ZNSaIcEC1Ev(ptr noundef nonnull align 1 dereferenceable(1)) unnamed_addr #1

; Function Attrs: nounwind
declare void @_ZNSaIcED1Ev(ptr noundef nonnull align 1 dereferenceable(1)) unnamed_addr #1

; Function Attrs: mustprogress nounwind uwtable
define linkonce_odr hidden void @_ZN4absl12lts_2023080213flat_hash_setINSt7__cxx1112basic_stringIcSt11char_traitsIcESaIcEEENS0_18container_internal10StringHashENS8_8StringEqESaIS7_EED2Ev(ptr noundef nonnull align 8 dereferenceable(32) %this) unnamed_addr #10 comdat align 2 personality ptr @__gxx_personality_v0 {
entry:
  %capacity_.i.i.i = getelementptr inbounds i8, ptr %this, i64 16
  %0 = load i64, ptr %capacity_.i.i.i, align 8
  %tobool.not.i = icmp eq i64 %0, 0
  br i1 %tobool.not.i, label %_ZN4absl12lts_2023080218container_internal12raw_hash_setINS1_17FlatHashSetPolicyINSt7__cxx1112basic_stringIcSt11char_traitsIcESaIcEEEEENS1_10StringHashENS1_8StringEqESaIS9_EED2Ev.exit, label %if.end.i

if.end.i:                                         ; preds = %entry
  %1 = load ptr, ptr %this, align 8
  %slots_.i.i.i.i = getelementptr inbounds i8, ptr %this, i64 8
  %2 = load ptr, ptr %slots_.i.i.i.i, align 8
  br label %for.body.i.i

for.body.i.i:                                     ; preds = %for.inc.i.i, %if.end.i
  %i.05.i.i = phi i64 [ %inc.i.i, %for.inc.i.i ], [ 0, %if.end.i ]
  %arrayidx.i.i = getelementptr inbounds i8, ptr %1, i64 %i.05.i.i
  %3 = load i8, ptr %arrayidx.i.i, align 1
  %cmp.i.i.i = icmp sgt i8 %3, -1
  br i1 %cmp.i.i.i, label %if.then.i.i, label %for.inc.i.i

if.then.i.i:                                      ; preds = %for.body.i.i
  %add.ptr.i.i = getelementptr inbounds %"class.std::__cxx11::basic_string", ptr %2, i64 %i.05.i.i
  tail call void @_ZNSt7__cxx1112basic_stringIcSt11char_traitsIcESaIcEED1Ev(ptr noundef nonnull align 8 dereferenceable(32) %add.ptr.i.i) #29
  br label %for.inc.i.i

for.inc.i.i:                                      ; preds = %if.then.i.i, %for.body.i.i
  %inc.i.i = add nuw i64 %i.05.i.i, 1
  %cmp.not.i.i = icmp eq i64 %inc.i.i, %0
  br i1 %cmp.not.i.i, label %invoke.cont15.i, label %for.body.i.i, !llvm.loop !52

invoke.cont15.i:                                  ; preds = %for.inc.i.i
  %4 = load ptr, ptr %this, align 8
  %add.ptr.i3.i = getelementptr inbounds i8, ptr %4, i64 -8
  tail call void @_ZdlPv(ptr noundef nonnull %add.ptr.i3.i) #31
  br label %_ZN4absl12lts_2023080218container_internal12raw_hash_setINS1_17FlatHashSetPolicyINSt7__cxx1112basic_stringIcSt11char_traitsIcESaIcEEEEENS1_10StringHashENS1_8StringEqESaIS9_EED2Ev.exit

_ZN4absl12lts_2023080218container_internal12raw_hash_setINS1_17FlatHashSetPolicyINSt7__cxx1112basic_stringIcSt11char_traitsIcESaIcEEEEENS1_10StringHashENS1_8StringEqESaIS9_EED2Ev.exit: ; preds = %entry, %invoke.cont15.i
  ret void
}

; Function Attrs: mustprogress nounwind uwtable
define linkonce_odr hidden void @_ZNSt6vectorINSt7__cxx1112basic_stringIcSt11char_traitsIcESaIcEEESaIS5_EED2Ev(ptr noundef nonnull align 8 dereferenceable(24) %this) unnamed_addr #10 comdat align 2 personality ptr @__gxx_personality_v0 {
entry:
  %0 = load ptr, ptr %this, align 8
  %_M_finish = getelementptr inbounds i8, ptr %this, i64 8
  %1 = load ptr, ptr %_M_finish, align 8
  %cmp.not3.i.i.i = icmp eq ptr %0, %1
  br i1 %cmp.not3.i.i.i, label %invoke.cont, label %for.body.i.i.i

for.body.i.i.i:                                   ; preds = %entry, %for.body.i.i.i
  %__first.addr.04.i.i.i = phi ptr [ %incdec.ptr.i.i.i, %for.body.i.i.i ], [ %0, %entry ]
  tail call void @_ZNSt7__cxx1112basic_stringIcSt11char_traitsIcESaIcEED1Ev(ptr noundef nonnull align 8 dereferenceable(32) %__first.addr.04.i.i.i) #29
  %incdec.ptr.i.i.i = getelementptr inbounds i8, ptr %__first.addr.04.i.i.i, i64 32
  %cmp.not.i.i.i = icmp eq ptr %incdec.ptr.i.i.i, %1
  br i1 %cmp.not.i.i.i, label %invoke.contthread-pre-split, label %for.body.i.i.i, !llvm.loop !22

invoke.contthread-pre-split:                      ; preds = %for.body.i.i.i
  %.pr = load ptr, ptr %this, align 8
  br label %invoke.cont

invoke.cont:                                      ; preds = %invoke.contthread-pre-split, %entry
  %2 = phi ptr [ %.pr, %invoke.contthread-pre-split ], [ %0, %entry ]
  %tobool.not.i.i = icmp eq ptr %2, null
  br i1 %tobool.not.i.i, label %_ZNSt12_Vector_baseINSt7__cxx1112basic_stringIcSt11char_traitsIcESaIcEEESaIS5_EED2Ev.exit, label %if.then.i.i

if.then.i.i:                                      ; preds = %invoke.cont
  tail call void @_ZdlPv(ptr noundef nonnull %2) #31
  br label %_ZNSt12_Vector_baseINSt7__cxx1112basic_stringIcSt11char_traitsIcESaIcEEESaIS5_EED2Ev.exit

_ZNSt12_Vector_baseINSt7__cxx1112basic_stringIcSt11char_traitsIcESaIcEEESaIS5_EED2Ev.exit: ; preds = %invoke.cont, %if.then.i.i
  ret void
}

; Function Attrs: mustprogress nounwind uwtable
define linkonce_odr hidden void @_ZNSt6vectorISt4pairINSt7__cxx1112basic_stringIcSt11char_traitsIcESaIcEEES6_ESaIS7_EED2Ev(ptr noundef nonnull align 8 dereferenceable(24) %this) unnamed_addr #10 comdat align 2 personality ptr @__gxx_personality_v0 {
entry:
  %0 = load ptr, ptr %this, align 8
  %_M_finish = getelementptr inbounds i8, ptr %this, i64 8
  %1 = load ptr, ptr %_M_finish, align 8
  %cmp.not3.i.i.i = icmp eq ptr %0, %1
  br i1 %cmp.not3.i.i.i, label %invoke.cont, label %for.body.i.i.i

for.body.i.i.i:                                   ; preds = %entry, %for.body.i.i.i
  %__first.addr.04.i.i.i = phi ptr [ %incdec.ptr.i.i.i, %for.body.i.i.i ], [ %0, %entry ]
  %second.i.i.i.i.i = getelementptr inbounds i8, ptr %__first.addr.04.i.i.i, i64 32
  tail call void @_ZNSt7__cxx1112basic_stringIcSt11char_traitsIcESaIcEED1Ev(ptr noundef nonnull align 8 dereferenceable(32) %second.i.i.i.i.i) #29
  tail call void @_ZNSt7__cxx1112basic_stringIcSt11char_traitsIcESaIcEED1Ev(ptr noundef nonnull align 8 dereferenceable(32) %__first.addr.04.i.i.i) #29
  %incdec.ptr.i.i.i = getelementptr inbounds i8, ptr %__first.addr.04.i.i.i, i64 64
  %cmp.not.i.i.i = icmp eq ptr %incdec.ptr.i.i.i, %1
  br i1 %cmp.not.i.i.i, label %invoke.contthread-pre-split, label %for.body.i.i.i, !llvm.loop !53

invoke.contthread-pre-split:                      ; preds = %for.body.i.i.i
  %.pr = load ptr, ptr %this, align 8
  br label %invoke.cont

invoke.cont:                                      ; preds = %invoke.contthread-pre-split, %entry
  %2 = phi ptr [ %.pr, %invoke.contthread-pre-split ], [ %0, %entry ]
  %tobool.not.i.i = icmp eq ptr %2, null
  br i1 %tobool.not.i.i, label %_ZNSt12_Vector_baseISt4pairINSt7__cxx1112basic_stringIcSt11char_traitsIcESaIcEEES6_ESaIS7_EED2Ev.exit, label %if.then.i.i

if.then.i.i:                                      ; preds = %invoke.cont
  tail call void @_ZdlPv(ptr noundef nonnull %2) #31
  br label %_ZNSt12_Vector_baseISt4pairINSt7__cxx1112basic_stringIcSt11char_traitsIcESaIcEEES6_ESaIS7_EED2Ev.exit

_ZNSt12_Vector_baseISt4pairINSt7__cxx1112basic_stringIcSt11char_traitsIcESaIcEEES6_ESaIS7_EED2Ev.exit: ; preds = %invoke.cont, %if.then.i.i
  ret void
}

; Function Attrs: mustprogress nounwind uwtable
define linkonce_odr hidden void @_ZN4absl12lts_2023080213flat_hash_mapINSt7__cxx1112basic_stringIcSt11char_traitsIcESaIcEEES7_NS0_18container_internal10StringHashENS8_8StringEqESaISt4pairIKS7_S7_EEED2Ev(ptr noundef nonnull align 8 dereferenceable(32) %this) unnamed_addr #10 comdat align 2 personality ptr @__gxx_personality_v0 {
entry:
  %capacity_.i.i.i.i = getelementptr inbounds i8, ptr %this, i64 16
  %0 = load i64, ptr %capacity_.i.i.i.i, align 8
  %tobool.not.i.i = icmp eq i64 %0, 0
  br i1 %tobool.not.i.i, label %_ZN4absl12lts_2023080218container_internal12raw_hash_mapINS1_17FlatHashMapPolicyINSt7__cxx1112basic_stringIcSt11char_traitsIcESaIcEEES9_EENS1_10StringHashENS1_8StringEqESaISt4pairIKS9_S9_EEED2Ev.exit, label %if.end.i.i

if.end.i.i:                                       ; preds = %entry
  %1 = load ptr, ptr %this, align 8
  %slots_.i.i.i.i.i = getelementptr inbounds i8, ptr %this, i64 8
  %2 = load ptr, ptr %slots_.i.i.i.i.i, align 8
  br label %for.body.i.i.i

for.body.i.i.i:                                   ; preds = %for.inc.i.i.i, %if.end.i.i
  %i.05.i.i.i = phi i64 [ %inc.i.i.i, %for.inc.i.i.i ], [ 0, %if.end.i.i ]
  %arrayidx.i.i.i = getelementptr inbounds i8, ptr %1, i64 %i.05.i.i.i
  %3 = load i8, ptr %arrayidx.i.i.i, align 1
  %cmp.i.i.i.i = icmp sgt i8 %3, -1
  br i1 %cmp.i.i.i.i, label %if.then.i.i.i, label %for.inc.i.i.i

if.then.i.i.i:                                    ; preds = %for.body.i.i.i
  %add.ptr.i.i.i = getelementptr inbounds %"union.absl::lts_20230802::container_internal::map_slot_type", ptr %2, i64 %i.05.i.i.i
  %second.i.i.i.i.i.i.i.i.i = getelementptr inbounds i8, ptr %add.ptr.i.i.i, i64 32
  tail call void @_ZNSt7__cxx1112basic_stringIcSt11char_traitsIcESaIcEED1Ev(ptr noundef nonnull align 8 dereferenceable(32) %second.i.i.i.i.i.i.i.i.i) #29
  tail call void @_ZNSt7__cxx1112basic_stringIcSt11char_traitsIcESaIcEED1Ev(ptr noundef nonnull align 8 dereferenceable(32) %add.ptr.i.i.i) #29
  br label %for.inc.i.i.i

for.inc.i.i.i:                                    ; preds = %if.then.i.i.i, %for.body.i.i.i
  %inc.i.i.i = add nuw i64 %i.05.i.i.i, 1
  %cmp.not.i.i.i = icmp eq i64 %inc.i.i.i, %0
  br i1 %cmp.not.i.i.i, label %invoke.cont13.i.i, label %for.body.i.i.i, !llvm.loop !54

invoke.cont13.i.i:                                ; preds = %for.inc.i.i.i
  %4 = load ptr, ptr %this, align 8
  %add.ptr.i3.i.i = getelementptr inbounds i8, ptr %4, i64 -8
  tail call void @_ZdlPv(ptr noundef nonnull %add.ptr.i3.i.i) #31
  br label %_ZN4absl12lts_2023080218container_internal12raw_hash_mapINS1_17FlatHashMapPolicyINSt7__cxx1112basic_stringIcSt11char_traitsIcESaIcEEES9_EENS1_10StringHashENS1_8StringEqESaISt4pairIKS9_S9_EEED2Ev.exit

_ZN4absl12lts_2023080218container_internal12raw_hash_mapINS1_17FlatHashMapPolicyINSt7__cxx1112basic_stringIcSt11char_traitsIcESaIcEEES9_EENS1_10StringHashENS1_8StringEqESaISt4pairIKS9_S9_EEED2Ev.exit: ; preds = %entry, %invoke.cont13.i.i
  ret void
}

; Function Attrs: mustprogress nounwind uwtable
define linkonce_odr hidden void @_ZN4absl12lts_2023080213flat_hash_mapINSt7__cxx1112basic_stringIcSt11char_traitsIcESaIcEEEN6google8protobuf8compiler20CommandLineInterface13GeneratorInfoENS0_18container_internal10StringHashENSD_8StringEqESaISt4pairIKS7_SC_EEED2Ev(ptr noundef nonnull align 8 dereferenceable(32) %this) unnamed_addr #10 comdat align 2 personality ptr @__gxx_personality_v0 {
entry:
  %capacity_.i.i.i.i = getelementptr inbounds i8, ptr %this, i64 16
  %0 = load i64, ptr %capacity_.i.i.i.i, align 8
  %tobool.not.i.i = icmp eq i64 %0, 0
  br i1 %tobool.not.i.i, label %_ZN4absl12lts_2023080218container_internal12raw_hash_mapINS1_17FlatHashMapPolicyINSt7__cxx1112basic_stringIcSt11char_traitsIcESaIcEEEN6google8protobuf8compiler20CommandLineInterface13GeneratorInfoEEENS1_10StringHashENS1_8StringEqESaISt4pairIKS9_SE_EEED2Ev.exit, label %if.end.i.i

if.end.i.i:                                       ; preds = %entry
  %1 = load ptr, ptr %this, align 8
  %slots_.i.i.i.i.i = getelementptr inbounds i8, ptr %this, i64 8
  %2 = load ptr, ptr %slots_.i.i.i.i.i, align 8
  br label %for.body.i.i.i

for.body.i.i.i:                                   ; preds = %for.inc.i.i.i, %if.end.i.i
  %i.05.i.i.i = phi i64 [ %inc.i.i.i, %for.inc.i.i.i ], [ 0, %if.end.i.i ]
  %arrayidx.i.i.i = getelementptr inbounds i8, ptr %1, i64 %i.05.i.i.i
  %3 = load i8, ptr %arrayidx.i.i.i, align 1
  %cmp.i.i.i.i = icmp sgt i8 %3, -1
  br i1 %cmp.i.i.i.i, label %if.then.i.i.i, label %for.inc.i.i.i

if.then.i.i.i:                                    ; preds = %for.body.i.i.i
  %add.ptr.i.i.i = getelementptr inbounds %"union.absl::lts_20230802::container_internal::map_slot_type.398", ptr %2, i64 %i.05.i.i.i
  %second.i.i.i.i.i.i.i.i.i = getelementptr inbounds i8, ptr %add.ptr.i.i.i, i64 32
  %help_text.i.i.i.i.i.i.i.i.i.i = getelementptr inbounds i8, ptr %add.ptr.i.i.i, i64 104
  tail call void @_ZNSt7__cxx1112basic_stringIcSt11char_traitsIcESaIcEED1Ev(ptr noundef nonnull align 8 dereferenceable(32) %help_text.i.i.i.i.i.i.i.i.i.i) #29
  %option_flag_name.i.i.i.i.i.i.i.i.i.i = getelementptr inbounds i8, ptr %add.ptr.i.i.i, i64 64
  tail call void @_ZNSt7__cxx1112basic_stringIcSt11char_traitsIcESaIcEED1Ev(ptr noundef nonnull align 8 dereferenceable(32) %option_flag_name.i.i.i.i.i.i.i.i.i.i) #29
  tail call void @_ZNSt7__cxx1112basic_stringIcSt11char_traitsIcESaIcEED1Ev(ptr noundef nonnull align 8 dereferenceable(32) %second.i.i.i.i.i.i.i.i.i) #29
  tail call void @_ZNSt7__cxx1112basic_stringIcSt11char_traitsIcESaIcEED1Ev(ptr noundef nonnull align 8 dereferenceable(32) %add.ptr.i.i.i) #29
  br label %for.inc.i.i.i

for.inc.i.i.i:                                    ; preds = %if.then.i.i.i, %for.body.i.i.i
  %inc.i.i.i = add nuw i64 %i.05.i.i.i, 1
  %cmp.not.i.i.i = icmp eq i64 %inc.i.i.i, %0
  br i1 %cmp.not.i.i.i, label %invoke.cont13.i.i, label %for.body.i.i.i, !llvm.loop !55

invoke.cont13.i.i:                                ; preds = %for.inc.i.i.i
  %4 = load ptr, ptr %this, align 8
  %add.ptr.i3.i.i = getelementptr inbounds i8, ptr %4, i64 -8
  tail call void @_ZdlPv(ptr noundef nonnull %add.ptr.i3.i.i) #31
  br label %_ZN4absl12lts_2023080218container_internal12raw_hash_mapINS1_17FlatHashMapPolicyINSt7__cxx1112basic_stringIcSt11char_traitsIcESaIcEEEN6google8protobuf8compiler20CommandLineInterface13GeneratorInfoEEENS1_10StringHashENS1_8StringEqESaISt4pairIKS9_SE_EEED2Ev.exit

_ZN4absl12lts_2023080218container_internal12raw_hash_mapINS1_17FlatHashMapPolicyINSt7__cxx1112basic_stringIcSt11char_traitsIcESaIcEEEN6google8protobuf8compiler20CommandLineInterface13GeneratorInfoEEENS1_10StringHashENS1_8StringEqESaISt4pairIKS9_SE_EEED2Ev.exit: ; preds = %entry, %invoke.cont13.i.i
  ret void
}

; Function Attrs: mustprogress nounwind uwtable
define linkonce_odr hidden void @_ZN4absl12lts_202308029btree_mapINSt7__cxx1112basic_stringIcSt11char_traitsIcESaIcEEEN6google8protobuf8compiler20CommandLineInterface13GeneratorInfoESt4lessIS7_ESaISt4pairIKS7_SC_EEED2Ev(ptr noundef nonnull align 8 dereferenceable(24) %this) unnamed_addr #10 comdat align 2 personality ptr @__gxx_personality_v0 {
entry:
  %size_.i.i.i.i.i.i = getelementptr inbounds i8, ptr %this, i64 16
  %0 = load i64, ptr %size_.i.i.i.i.i.i, align 8
  %cmp.i.i.i.i.i.i = icmp eq i64 %0, 0
  br i1 %cmp.i.i.i.i.i.i, label %_ZN4absl12lts_2023080218container_internal19btree_map_containerINS1_5btreeINS1_10map_paramsINSt7__cxx1112basic_stringIcSt11char_traitsIcESaIcEEEN6google8protobuf8compiler20CommandLineInterface13GeneratorInfoESt4lessISA_ESaISt4pairIKSA_SF_EELi256ELb0EEEEEED2Ev.exit, label %if.then.i.i.i.i.i

if.then.i.i.i.i.i:                                ; preds = %entry
  %1 = load ptr, ptr %this, align 8
  %rightmost_.i.i.i.i.i.i = getelementptr inbounds i8, ptr %this, i64 8
  invoke void @_ZN4absl12lts_2023080218container_internal10btree_nodeINS1_10map_paramsINSt7__cxx1112basic_stringIcSt11char_traitsIcESaIcEEEN6google8protobuf8compiler20CommandLineInterface13GeneratorInfoESt4lessIS9_ESaISt4pairIKS9_SE_EELi256ELb0EEEE16clear_and_deleteEPSM_PSK_(ptr noundef %1, ptr noundef nonnull %rightmost_.i.i.i.i.i.i)
          to label %_ZN4absl12lts_2023080218container_internal19btree_map_containerINS1_5btreeINS1_10map_paramsINSt7__cxx1112basic_stringIcSt11char_traitsIcESaIcEEEN6google8protobuf8compiler20CommandLineInterface13GeneratorInfoESt4lessISA_ESaISt4pairIKSA_SF_EELi256ELb0EEEEEED2Ev.exit unwind label %terminate.lpad.i.i.i.i

terminate.lpad.i.i.i.i:                           ; preds = %if.then.i.i.i.i.i
  %2 = landingpad { ptr, i32 }
          catch ptr null
  %3 = extractvalue { ptr, i32 } %2, 0
  tail call void @__clang_call_terminate(ptr %3) #34
  unreachable

_ZN4absl12lts_2023080218container_internal19btree_map_containerINS1_5btreeINS1_10map_paramsINSt7__cxx1112basic_stringIcSt11char_traitsIcESaIcEEEN6google8protobuf8compiler20CommandLineInterface13GeneratorInfoESt4lessISA_ESaISt4pairIKSA_SF_EELi256ELb0EEEEEED2Ev.exit: ; preds = %entry, %if.then.i.i.i.i.i
  %rightmost_.i1.i.i.i.i.i = getelementptr inbounds i8, ptr %this, i64 8
  store ptr @_ZZN4absl12lts_2023080218container_internal5btreeINS1_10map_paramsINSt7__cxx1112basic_stringIcSt11char_traitsIcESaIcEEEN6google8protobuf8compiler20CommandLineInterface13GeneratorInfoESt4lessIS9_ESaISt4pairIKS9_SE_EELi256ELb0EEEE9EmptyNodeEvE10empty_nodeB5cxx11, ptr %rightmost_.i1.i.i.i.i.i, align 8
  store ptr @_ZZN4absl12lts_2023080218container_internal5btreeINS1_10map_paramsINSt7__cxx1112basic_stringIcSt11char_traitsIcESaIcEEEN6google8protobuf8compiler20CommandLineInterface13GeneratorInfoESt4lessIS9_ESaISt4pairIKS9_SE_EELi256ELb0EEEE9EmptyNodeEvE10empty_nodeB5cxx11, ptr %this, align 8
  store i64 0, ptr %size_.i.i.i.i.i.i, align 8
  ret void
}

; Function Attrs: mustprogress nounwind uwtable
define void @_ZN6google8protobuf8compiler20CommandLineInterfaceD2Ev(ptr noundef nonnull align 8 dereferenceable(574) %this) unnamed_addr #10 align 2 personality ptr @__gxx_personality_v0 {
entry:
  %dependency_out_name_ = getelementptr inbounds i8, ptr %this, i64 536
  tail call void @_ZNSt7__cxx1112basic_stringIcSt11char_traitsIcESaIcEED1Ev(ptr noundef nonnull align 8 dereferenceable(32) %dependency_out_name_) #29
  %experimental_edition_defaults_out_name_ = getelementptr inbounds i8, ptr %this, i64 496
  tail call void @_ZNSt7__cxx1112basic_stringIcSt11char_traitsIcESaIcEED1Ev(ptr noundef nonnull align 8 dereferenceable(32) %experimental_edition_defaults_out_name_) #29
  %descriptor_set_out_name_ = getelementptr inbounds i8, ptr %this, i64 464
  tail call void @_ZNSt7__cxx1112basic_stringIcSt11char_traitsIcESaIcEED1Ev(ptr noundef nonnull align 8 dereferenceable(32) %descriptor_set_out_name_) #29
  %descriptor_set_in_names_ = getelementptr inbounds i8, ptr %this, i64 440
  %0 = load ptr, ptr %descriptor_set_in_names_, align 8
  %_M_finish.i = getelementptr inbounds i8, ptr %this, i64 448
  %1 = load ptr, ptr %_M_finish.i, align 8
  %cmp.not3.i.i.i.i = icmp eq ptr %0, %1
  br i1 %cmp.not3.i.i.i.i, label %invoke.cont.i, label %for.body.i.i.i.i

for.body.i.i.i.i:                                 ; preds = %entry, %for.body.i.i.i.i
  %__first.addr.04.i.i.i.i = phi ptr [ %incdec.ptr.i.i.i.i, %for.body.i.i.i.i ], [ %0, %entry ]
  tail call void @_ZNSt7__cxx1112basic_stringIcSt11char_traitsIcESaIcEED1Ev(ptr noundef nonnull align 8 dereferenceable(32) %__first.addr.04.i.i.i.i) #29
  %incdec.ptr.i.i.i.i = getelementptr inbounds i8, ptr %__first.addr.04.i.i.i.i, i64 32
  %cmp.not.i.i.i.i = icmp eq ptr %incdec.ptr.i.i.i.i, %1
  br i1 %cmp.not.i.i.i.i, label %invoke.contthread-pre-split.i, label %for.body.i.i.i.i, !llvm.loop !22

invoke.contthread-pre-split.i:                    ; preds = %for.body.i.i.i.i
  %.pr.i = load ptr, ptr %descriptor_set_in_names_, align 8
  br label %invoke.cont.i

invoke.cont.i:                                    ; preds = %invoke.contthread-pre-split.i, %entry
  %2 = phi ptr [ %.pr.i, %invoke.contthread-pre-split.i ], [ %0, %entry ]
  %tobool.not.i.i.i = icmp eq ptr %2, null
  br i1 %tobool.not.i.i.i, label %_ZNSt6vectorINSt7__cxx1112basic_stringIcSt11char_traitsIcESaIcEEESaIS5_EED2Ev.exit, label %if.then.i.i.i

if.then.i.i.i:                                    ; preds = %invoke.cont.i
  tail call void @_ZdlPv(ptr noundef nonnull %2) #31
  br label %_ZNSt6vectorINSt7__cxx1112basic_stringIcSt11char_traitsIcESaIcEEESaIS5_EED2Ev.exit

_ZNSt6vectorINSt7__cxx1112basic_stringIcSt11char_traitsIcESaIcEEESaIS5_EED2Ev.exit: ; preds = %invoke.cont.i, %if.then.i.i.i
  %codec_type_ = getelementptr inbounds i8, ptr %this, i64 408
  tail call void @_ZNSt7__cxx1112basic_stringIcSt11char_traitsIcESaIcEED1Ev(ptr noundef nonnull align 8 dereferenceable(32) %codec_type_) #29
  %output_directives_ = getelementptr inbounds i8, ptr %this, i64 384
  %3 = load ptr, ptr %output_directives_, align 8
  %_M_finish.i1 = getelementptr inbounds i8, ptr %this, i64 392
  %4 = load ptr, ptr %_M_finish.i1, align 8
  %cmp.not3.i.i.i.i2 = icmp eq ptr %3, %4
  br i1 %cmp.not3.i.i.i.i2, label %invoke.cont.i9, label %for.body.i.i.i.i3

for.body.i.i.i.i3:                                ; preds = %_ZNSt6vectorINSt7__cxx1112basic_stringIcSt11char_traitsIcESaIcEEESaIS5_EED2Ev.exit, %for.body.i.i.i.i3
  %__first.addr.04.i.i.i.i4 = phi ptr [ %incdec.ptr.i.i.i.i5, %for.body.i.i.i.i3 ], [ %3, %_ZNSt6vectorINSt7__cxx1112basic_stringIcSt11char_traitsIcESaIcEEESaIS5_EED2Ev.exit ]
  %output_location.i.i.i.i.i.i = getelementptr inbounds i8, ptr %__first.addr.04.i.i.i.i4, i64 72
  tail call void @_ZNSt7__cxx1112basic_stringIcSt11char_traitsIcESaIcEED1Ev(ptr noundef nonnull align 8 dereferenceable(32) %output_location.i.i.i.i.i.i) #29
  %parameter.i.i.i.i.i.i = getelementptr inbounds i8, ptr %__first.addr.04.i.i.i.i4, i64 40
  tail call void @_ZNSt7__cxx1112basic_stringIcSt11char_traitsIcESaIcEED1Ev(ptr noundef nonnull align 8 dereferenceable(32) %parameter.i.i.i.i.i.i) #29
  tail call void @_ZNSt7__cxx1112basic_stringIcSt11char_traitsIcESaIcEED1Ev(ptr noundef nonnull align 8 dereferenceable(32) %__first.addr.04.i.i.i.i4) #29
  %incdec.ptr.i.i.i.i5 = getelementptr inbounds i8, ptr %__first.addr.04.i.i.i.i4, i64 104
  %cmp.not.i.i.i.i6 = icmp eq ptr %incdec.ptr.i.i.i.i5, %4
  br i1 %cmp.not.i.i.i.i6, label %invoke.contthread-pre-split.i7, label %for.body.i.i.i.i3, !llvm.loop !56

invoke.contthread-pre-split.i7:                   ; preds = %for.body.i.i.i.i3
  %.pr.i8 = load ptr, ptr %output_directives_, align 8
  br label %invoke.cont.i9

invoke.cont.i9:                                   ; preds = %invoke.contthread-pre-split.i7, %_ZNSt6vectorINSt7__cxx1112basic_stringIcSt11char_traitsIcESaIcEEESaIS5_EED2Ev.exit
  %5 = phi ptr [ %.pr.i8, %invoke.contthread-pre-split.i7 ], [ %3, %_ZNSt6vectorINSt7__cxx1112basic_stringIcSt11char_traitsIcESaIcEEESaIS5_EED2Ev.exit ]
  %tobool.not.i.i.i10 = icmp eq ptr %5, null
  br i1 %tobool.not.i.i.i10, label %_ZNSt6vectorIN6google8protobuf8compiler20CommandLineInterface15OutputDirectiveESaIS4_EED2Ev.exit, label %if.then.i.i.i11

if.then.i.i.i11:                                  ; preds = %invoke.cont.i9
  tail call void @_ZdlPv(ptr noundef nonnull %5) #31
  br label %_ZNSt6vectorIN6google8protobuf8compiler20CommandLineInterface15OutputDirectiveESaIS4_EED2Ev.exit

_ZNSt6vectorIN6google8protobuf8compiler20CommandLineInterface15OutputDirectiveESaIS4_EED2Ev.exit: ; preds = %invoke.cont.i9, %if.then.i.i.i11
  %direct_dependencies_violation_msg_ = getelementptr inbounds i8, ptr %this, i64 352
  tail call void @_ZNSt7__cxx1112basic_stringIcSt11char_traitsIcESaIcEED1Ev(ptr noundef nonnull align 8 dereferenceable(32) %direct_dependencies_violation_msg_) #29
  %direct_dependencies_ = getelementptr inbounds i8, ptr %this, i64 312
  %capacity_.i.i.i.i = getelementptr inbounds i8, ptr %this, i64 328
  %6 = load i64, ptr %capacity_.i.i.i.i, align 8
  %tobool.not.i.i = icmp eq i64 %6, 0
  br i1 %tobool.not.i.i, label %_ZN4absl12lts_2023080213flat_hash_setINSt7__cxx1112basic_stringIcSt11char_traitsIcESaIcEEENS0_18container_internal10StringHashENS8_8StringEqESaIS7_EED2Ev.exit, label %if.end.i.i

if.end.i.i:                                       ; preds = %_ZNSt6vectorIN6google8protobuf8compiler20CommandLineInterface15OutputDirectiveESaIS4_EED2Ev.exit
  %7 = load ptr, ptr %direct_dependencies_, align 8
  %slots_.i.i.i.i.i = getelementptr inbounds i8, ptr %this, i64 320
  %8 = load ptr, ptr %slots_.i.i.i.i.i, align 8
  br label %for.body.i.i.i

for.body.i.i.i:                                   ; preds = %for.inc.i.i.i, %if.end.i.i
  %i.05.i.i.i = phi i64 [ %inc.i.i.i, %for.inc.i.i.i ], [ 0, %if.end.i.i ]
  %arrayidx.i.i.i = getelementptr inbounds i8, ptr %7, i64 %i.05.i.i.i
  %9 = load i8, ptr %arrayidx.i.i.i, align 1
  %cmp.i.i.i.i = icmp sgt i8 %9, -1
  br i1 %cmp.i.i.i.i, label %if.then.i.i.i12, label %for.inc.i.i.i

if.then.i.i.i12:                                  ; preds = %for.body.i.i.i
  %add.ptr.i.i.i = getelementptr inbounds %"class.std::__cxx11::basic_string", ptr %8, i64 %i.05.i.i.i
  tail call void @_ZNSt7__cxx1112basic_stringIcSt11char_traitsIcESaIcEED1Ev(ptr noundef nonnull align 8 dereferenceable(32) %add.ptr.i.i.i) #29
  br label %for.inc.i.i.i

for.inc.i.i.i:                                    ; preds = %if.then.i.i.i12, %for.body.i.i.i
  %inc.i.i.i = add nuw i64 %i.05.i.i.i, 1
  %cmp.not.i.i.i = icmp eq i64 %inc.i.i.i, %6
  br i1 %cmp.not.i.i.i, label %invoke.cont15.i.i, label %for.body.i.i.i, !llvm.loop !52

invoke.cont15.i.i:                                ; preds = %for.inc.i.i.i
  %10 = load ptr, ptr %direct_dependencies_, align 8
  %add.ptr.i3.i.i = getelementptr inbounds i8, ptr %10, i64 -8
  tail call void @_ZdlPv(ptr noundef nonnull %add.ptr.i3.i.i) #31
  br label %_ZN4absl12lts_2023080213flat_hash_setINSt7__cxx1112basic_stringIcSt11char_traitsIcESaIcEEENS0_18container_internal10StringHashENS8_8StringEqESaIS7_EED2Ev.exit

_ZN4absl12lts_2023080213flat_hash_setINSt7__cxx1112basic_stringIcSt11char_traitsIcESaIcEEENS0_18container_internal10StringHashENS8_8StringEqESaIS7_EED2Ev.exit: ; preds = %_ZNSt6vectorIN6google8protobuf8compiler20CommandLineInterface15OutputDirectiveESaIS4_EED2Ev.exit, %invoke.cont15.i.i
  %input_files_ = getelementptr inbounds i8, ptr %this, i64 288
  %11 = load ptr, ptr %input_files_, align 8
  %_M_finish.i13 = getelementptr inbounds i8, ptr %this, i64 296
  %12 = load ptr, ptr %_M_finish.i13, align 8
  %cmp.not3.i.i.i.i14 = icmp eq ptr %11, %12
  br i1 %cmp.not3.i.i.i.i14, label %invoke.cont.i21, label %for.body.i.i.i.i15

for.body.i.i.i.i15:                               ; preds = %_ZN4absl12lts_2023080213flat_hash_setINSt7__cxx1112basic_stringIcSt11char_traitsIcESaIcEEENS0_18container_internal10StringHashENS8_8StringEqESaIS7_EED2Ev.exit, %for.body.i.i.i.i15
  %__first.addr.04.i.i.i.i16 = phi ptr [ %incdec.ptr.i.i.i.i17, %for.body.i.i.i.i15 ], [ %11, %_ZN4absl12lts_2023080213flat_hash_setINSt7__cxx1112basic_stringIcSt11char_traitsIcESaIcEEENS0_18container_internal10StringHashENS8_8StringEqESaIS7_EED2Ev.exit ]
  tail call void @_ZNSt7__cxx1112basic_stringIcSt11char_traitsIcESaIcEED1Ev(ptr noundef nonnull align 8 dereferenceable(32) %__first.addr.04.i.i.i.i16) #29
  %incdec.ptr.i.i.i.i17 = getelementptr inbounds i8, ptr %__first.addr.04.i.i.i.i16, i64 32
  %cmp.not.i.i.i.i18 = icmp eq ptr %incdec.ptr.i.i.i.i17, %12
  br i1 %cmp.not.i.i.i.i18, label %invoke.contthread-pre-split.i19, label %for.body.i.i.i.i15, !llvm.loop !22

invoke.contthread-pre-split.i19:                  ; preds = %for.body.i.i.i.i15
  %.pr.i20 = load ptr, ptr %input_files_, align 8
  br label %invoke.cont.i21

invoke.cont.i21:                                  ; preds = %invoke.contthread-pre-split.i19, %_ZN4absl12lts_2023080213flat_hash_setINSt7__cxx1112basic_stringIcSt11char_traitsIcESaIcEEENS0_18container_internal10StringHashENS8_8StringEqESaIS7_EED2Ev.exit
  %13 = phi ptr [ %.pr.i20, %invoke.contthread-pre-split.i19 ], [ %11, %_ZN4absl12lts_2023080213flat_hash_setINSt7__cxx1112basic_stringIcSt11char_traitsIcESaIcEEENS0_18container_internal10StringHashENS8_8StringEqESaIS7_EED2Ev.exit ]
  %tobool.not.i.i.i22 = icmp eq ptr %13, null
  br i1 %tobool.not.i.i.i22, label %_ZNSt6vectorINSt7__cxx1112basic_stringIcSt11char_traitsIcESaIcEEESaIS5_EED2Ev.exit24, label %if.then.i.i.i23

if.then.i.i.i23:                                  ; preds = %invoke.cont.i21
  tail call void @_ZdlPv(ptr noundef nonnull %13) #31
  br label %_ZNSt6vectorINSt7__cxx1112basic_stringIcSt11char_traitsIcESaIcEEESaIS5_EED2Ev.exit24

_ZNSt6vectorINSt7__cxx1112basic_stringIcSt11char_traitsIcESaIcEEESaIS5_EED2Ev.exit24: ; preds = %invoke.cont.i21, %if.then.i.i.i23
  %proto_path_ = getelementptr inbounds i8, ptr %this, i64 264
  %14 = load ptr, ptr %proto_path_, align 8
  %_M_finish.i25 = getelementptr inbounds i8, ptr %this, i64 272
  %15 = load ptr, ptr %_M_finish.i25, align 8
  %cmp.not3.i.i.i.i26 = icmp eq ptr %14, %15
  br i1 %cmp.not3.i.i.i.i26, label %invoke.cont.i33, label %for.body.i.i.i.i27

for.body.i.i.i.i27:                               ; preds = %_ZNSt6vectorINSt7__cxx1112basic_stringIcSt11char_traitsIcESaIcEEESaIS5_EED2Ev.exit24, %for.body.i.i.i.i27
  %__first.addr.04.i.i.i.i28 = phi ptr [ %incdec.ptr.i.i.i.i29, %for.body.i.i.i.i27 ], [ %14, %_ZNSt6vectorINSt7__cxx1112basic_stringIcSt11char_traitsIcESaIcEEESaIS5_EED2Ev.exit24 ]
  %second.i.i.i.i.i.i = getelementptr inbounds i8, ptr %__first.addr.04.i.i.i.i28, i64 32
  tail call void @_ZNSt7__cxx1112basic_stringIcSt11char_traitsIcESaIcEED1Ev(ptr noundef nonnull align 8 dereferenceable(32) %second.i.i.i.i.i.i) #29
  tail call void @_ZNSt7__cxx1112basic_stringIcSt11char_traitsIcESaIcEED1Ev(ptr noundef nonnull align 8 dereferenceable(32) %__first.addr.04.i.i.i.i28) #29
  %incdec.ptr.i.i.i.i29 = getelementptr inbounds i8, ptr %__first.addr.04.i.i.i.i28, i64 64
  %cmp.not.i.i.i.i30 = icmp eq ptr %incdec.ptr.i.i.i.i29, %15
  br i1 %cmp.not.i.i.i.i30, label %invoke.contthread-pre-split.i31, label %for.body.i.i.i.i27, !llvm.loop !53

invoke.contthread-pre-split.i31:                  ; preds = %for.body.i.i.i.i27
  %.pr.i32 = load ptr, ptr %proto_path_, align 8
  br label %invoke.cont.i33

invoke.cont.i33:                                  ; preds = %invoke.contthread-pre-split.i31, %_ZNSt6vectorINSt7__cxx1112basic_stringIcSt11char_traitsIcESaIcEEESaIS5_EED2Ev.exit24
  %16 = phi ptr [ %.pr.i32, %invoke.contthread-pre-split.i31 ], [ %14, %_ZNSt6vectorINSt7__cxx1112basic_stringIcSt11char_traitsIcESaIcEEESaIS5_EED2Ev.exit24 ]
  %tobool.not.i.i.i34 = icmp eq ptr %16, null
  br i1 %tobool.not.i.i.i34, label %_ZNSt6vectorISt4pairINSt7__cxx1112basic_stringIcSt11char_traitsIcESaIcEEES6_ESaIS7_EED2Ev.exit, label %if.then.i.i.i35

if.then.i.i.i35:                                  ; preds = %invoke.cont.i33
  tail call void @_ZdlPv(ptr noundef nonnull %16) #31
  br label %_ZNSt6vectorISt4pairINSt7__cxx1112basic_stringIcSt11char_traitsIcESaIcEEES6_ESaIS7_EED2Ev.exit

_ZNSt6vectorISt4pairINSt7__cxx1112basic_stringIcSt11char_traitsIcESaIcEEES6_ESaIS7_EED2Ev.exit: ; preds = %invoke.cont.i33, %if.then.i.i.i35
  %plugins_ = getelementptr inbounds i8, ptr %this, i64 216
  %capacity_.i.i.i.i.i = getelementptr inbounds i8, ptr %this, i64 232
  %17 = load i64, ptr %capacity_.i.i.i.i.i, align 8
  %tobool.not.i.i.i36 = icmp eq i64 %17, 0
  br i1 %tobool.not.i.i.i36, label %_ZN4absl12lts_2023080213flat_hash_mapINSt7__cxx1112basic_stringIcSt11char_traitsIcESaIcEEES7_NS0_18container_internal10StringHashENS8_8StringEqESaISt4pairIKS7_S7_EEED2Ev.exit, label %if.end.i.i.i

if.end.i.i.i:                                     ; preds = %_ZNSt6vectorISt4pairINSt7__cxx1112basic_stringIcSt11char_traitsIcESaIcEEES6_ESaIS7_EED2Ev.exit
  %18 = load ptr, ptr %plugins_, align 8
  %slots_.i.i.i.i.i.i = getelementptr inbounds i8, ptr %this, i64 224
  %19 = load ptr, ptr %slots_.i.i.i.i.i.i, align 8
  br label %for.body.i.i.i.i37

for.body.i.i.i.i37:                               ; preds = %for.inc.i.i.i.i, %if.end.i.i.i
  %i.05.i.i.i.i = phi i64 [ %inc.i.i.i.i, %for.inc.i.i.i.i ], [ 0, %if.end.i.i.i ]
  %arrayidx.i.i.i.i = getelementptr inbounds i8, ptr %18, i64 %i.05.i.i.i.i
  %20 = load i8, ptr %arrayidx.i.i.i.i, align 1
  %cmp.i.i.i.i.i = icmp sgt i8 %20, -1
  br i1 %cmp.i.i.i.i.i, label %if.then.i.i.i.i, label %for.inc.i.i.i.i

if.then.i.i.i.i:                                  ; preds = %for.body.i.i.i.i37
  %add.ptr.i.i.i.i = getelementptr inbounds %"union.absl::lts_20230802::container_internal::map_slot_type", ptr %19, i64 %i.05.i.i.i.i
  %second.i.i.i.i.i.i.i.i.i.i = getelementptr inbounds i8, ptr %add.ptr.i.i.i.i, i64 32
  tail call void @_ZNSt7__cxx1112basic_stringIcSt11char_traitsIcESaIcEED1Ev(ptr noundef nonnull align 8 dereferenceable(32) %second.i.i.i.i.i.i.i.i.i.i) #29
  tail call void @_ZNSt7__cxx1112basic_stringIcSt11char_traitsIcESaIcEED1Ev(ptr noundef nonnull align 8 dereferenceable(32) %add.ptr.i.i.i.i) #29
  br label %for.inc.i.i.i.i

for.inc.i.i.i.i:                                  ; preds = %if.then.i.i.i.i, %for.body.i.i.i.i37
  %inc.i.i.i.i = add nuw i64 %i.05.i.i.i.i, 1
  %cmp.not.i.i.i.i38 = icmp eq i64 %inc.i.i.i.i, %17
  br i1 %cmp.not.i.i.i.i38, label %invoke.cont13.i.i.i, label %for.body.i.i.i.i37, !llvm.loop !54

invoke.cont13.i.i.i:                              ; preds = %for.inc.i.i.i.i
  %21 = load ptr, ptr %plugins_, align 8
  %add.ptr.i3.i.i.i = getelementptr inbounds i8, ptr %21, i64 -8
  tail call void @_ZdlPv(ptr noundef nonnull %add.ptr.i3.i.i.i) #31
  br label %_ZN4absl12lts_2023080213flat_hash_mapINSt7__cxx1112basic_stringIcSt11char_traitsIcESaIcEEES7_NS0_18container_internal10StringHashENS8_8StringEqESaISt4pairIKS7_S7_EEED2Ev.exit

_ZN4absl12lts_2023080213flat_hash_mapINSt7__cxx1112basic_stringIcSt11char_traitsIcESaIcEEES7_NS0_18container_internal10StringHashENS8_8StringEqESaISt4pairIKS7_S7_EEED2Ev.exit: ; preds = %_ZNSt6vectorISt4pairINSt7__cxx1112basic_stringIcSt11char_traitsIcESaIcEEES6_ESaIS7_EED2Ev.exit, %invoke.cont13.i.i.i
  %plugin_prefix_ = getelementptr inbounds i8, ptr %this, i64 184
  tail call void @_ZNSt7__cxx1112basic_stringIcSt11char_traitsIcESaIcEED1Ev(ptr noundef nonnull align 8 dereferenceable(32) %plugin_prefix_) #29
  %plugin_parameters_ = getelementptr inbounds i8, ptr %this, i64 152
  %capacity_.i.i.i.i.i39 = getelementptr inbounds i8, ptr %this, i64 168
  %22 = load i64, ptr %capacity_.i.i.i.i.i39, align 8
  %tobool.not.i.i.i40 = icmp eq i64 %22, 0
  br i1 %tobool.not.i.i.i40, label %_ZN4absl12lts_2023080213flat_hash_mapINSt7__cxx1112basic_stringIcSt11char_traitsIcESaIcEEES7_NS0_18container_internal10StringHashENS8_8StringEqESaISt4pairIKS7_S7_EEED2Ev.exit55, label %if.end.i.i.i41

if.end.i.i.i41:                                   ; preds = %_ZN4absl12lts_2023080213flat_hash_mapINSt7__cxx1112basic_stringIcSt11char_traitsIcESaIcEEES7_NS0_18container_internal10StringHashENS8_8StringEqESaISt4pairIKS7_S7_EEED2Ev.exit
  %23 = load ptr, ptr %plugin_parameters_, align 8
  %slots_.i.i.i.i.i.i42 = getelementptr inbounds i8, ptr %this, i64 160
  %24 = load ptr, ptr %slots_.i.i.i.i.i.i42, align 8
  br label %for.body.i.i.i.i43

for.body.i.i.i.i43:                               ; preds = %for.inc.i.i.i.i47, %if.end.i.i.i41
  %i.05.i.i.i.i44 = phi i64 [ %inc.i.i.i.i48, %for.inc.i.i.i.i47 ], [ 0, %if.end.i.i.i41 ]
  %arrayidx.i.i.i.i45 = getelementptr inbounds i8, ptr %23, i64 %i.05.i.i.i.i44
  %25 = load i8, ptr %arrayidx.i.i.i.i45, align 1
  %cmp.i.i.i.i.i46 = icmp sgt i8 %25, -1
  br i1 %cmp.i.i.i.i.i46, label %if.then.i.i.i.i52, label %for.inc.i.i.i.i47

if.then.i.i.i.i52:                                ; preds = %for.body.i.i.i.i43
  %add.ptr.i.i.i.i53 = getelementptr inbounds %"union.absl::lts_20230802::container_internal::map_slot_type", ptr %24, i64 %i.05.i.i.i.i44
  %second.i.i.i.i.i.i.i.i.i.i54 = getelementptr inbounds i8, ptr %add.ptr.i.i.i.i53, i64 32
  tail call void @_ZNSt7__cxx1112basic_stringIcSt11char_traitsIcESaIcEED1Ev(ptr noundef nonnull align 8 dereferenceable(32) %second.i.i.i.i.i.i.i.i.i.i54) #29
  tail call void @_ZNSt7__cxx1112basic_stringIcSt11char_traitsIcESaIcEED1Ev(ptr noundef nonnull align 8 dereferenceable(32) %add.ptr.i.i.i.i53) #29
  br label %for.inc.i.i.i.i47

for.inc.i.i.i.i47:                                ; preds = %if.then.i.i.i.i52, %for.body.i.i.i.i43
  %inc.i.i.i.i48 = add nuw i64 %i.05.i.i.i.i44, 1
  %cmp.not.i.i.i.i49 = icmp eq i64 %inc.i.i.i.i48, %22
  br i1 %cmp.not.i.i.i.i49, label %invoke.cont13.i.i.i50, label %for.body.i.i.i.i43, !llvm.loop !54

invoke.cont13.i.i.i50:                            ; preds = %for.inc.i.i.i.i47
  %26 = load ptr, ptr %plugin_parameters_, align 8
  %add.ptr.i3.i.i.i51 = getelementptr inbounds i8, ptr %26, i64 -8
  tail call void @_ZdlPv(ptr noundef nonnull %add.ptr.i3.i.i.i51) #31
  br label %_ZN4absl12lts_2023080213flat_hash_mapINSt7__cxx1112basic_stringIcSt11char_traitsIcESaIcEEES7_NS0_18container_internal10StringHashENS8_8StringEqESaISt4pairIKS7_S7_EEED2Ev.exit55

_ZN4absl12lts_2023080213flat_hash_mapINSt7__cxx1112basic_stringIcSt11char_traitsIcESaIcEEES7_NS0_18container_internal10StringHashENS8_8StringEqESaISt4pairIKS7_S7_EEED2Ev.exit55: ; preds = %_ZN4absl12lts_2023080213flat_hash_mapINSt7__cxx1112basic_stringIcSt11char_traitsIcESaIcEEES7_NS0_18container_internal10StringHashENS8_8StringEqESaISt4pairIKS7_S7_EEED2Ev.exit, %invoke.cont13.i.i.i50
  %generator_parameters_ = getelementptr inbounds i8, ptr %this, i64 120
  %capacity_.i.i.i.i.i56 = getelementptr inbounds i8, ptr %this, i64 136
  %27 = load i64, ptr %capacity_.i.i.i.i.i56, align 8
  %tobool.not.i.i.i57 = icmp eq i64 %27, 0
  br i1 %tobool.not.i.i.i57, label %_ZN4absl12lts_2023080213flat_hash_mapINSt7__cxx1112basic_stringIcSt11char_traitsIcESaIcEEES7_NS0_18container_internal10StringHashENS8_8StringEqESaISt4pairIKS7_S7_EEED2Ev.exit72, label %if.end.i.i.i58

if.end.i.i.i58:                                   ; preds = %_ZN4absl12lts_2023080213flat_hash_mapINSt7__cxx1112basic_stringIcSt11char_traitsIcESaIcEEES7_NS0_18container_internal10StringHashENS8_8StringEqESaISt4pairIKS7_S7_EEED2Ev.exit55
  %28 = load ptr, ptr %generator_parameters_, align 8
  %slots_.i.i.i.i.i.i59 = getelementptr inbounds i8, ptr %this, i64 128
  %29 = load ptr, ptr %slots_.i.i.i.i.i.i59, align 8
  br label %for.body.i.i.i.i60

for.body.i.i.i.i60:                               ; preds = %for.inc.i.i.i.i64, %if.end.i.i.i58
  %i.05.i.i.i.i61 = phi i64 [ %inc.i.i.i.i65, %for.inc.i.i.i.i64 ], [ 0, %if.end.i.i.i58 ]
  %arrayidx.i.i.i.i62 = getelementptr inbounds i8, ptr %28, i64 %i.05.i.i.i.i61
  %30 = load i8, ptr %arrayidx.i.i.i.i62, align 1
  %cmp.i.i.i.i.i63 = icmp sgt i8 %30, -1
  br i1 %cmp.i.i.i.i.i63, label %if.then.i.i.i.i69, label %for.inc.i.i.i.i64

if.then.i.i.i.i69:                                ; preds = %for.body.i.i.i.i60
  %add.ptr.i.i.i.i70 = getelementptr inbounds %"union.absl::lts_20230802::container_internal::map_slot_type", ptr %29, i64 %i.05.i.i.i.i61
  %second.i.i.i.i.i.i.i.i.i.i71 = getelementptr inbounds i8, ptr %add.ptr.i.i.i.i70, i64 32
  tail call void @_ZNSt7__cxx1112basic_stringIcSt11char_traitsIcESaIcEED1Ev(ptr noundef nonnull align 8 dereferenceable(32) %second.i.i.i.i.i.i.i.i.i.i71) #29
  tail call void @_ZNSt7__cxx1112basic_stringIcSt11char_traitsIcESaIcEED1Ev(ptr noundef nonnull align 8 dereferenceable(32) %add.ptr.i.i.i.i70) #29
  br label %for.inc.i.i.i.i64

for.inc.i.i.i.i64:                                ; preds = %if.then.i.i.i.i69, %for.body.i.i.i.i60
  %inc.i.i.i.i65 = add nuw i64 %i.05.i.i.i.i61, 1
  %cmp.not.i.i.i.i66 = icmp eq i64 %inc.i.i.i.i65, %27
  br i1 %cmp.not.i.i.i.i66, label %invoke.cont13.i.i.i67, label %for.body.i.i.i.i60, !llvm.loop !54

invoke.cont13.i.i.i67:                            ; preds = %for.inc.i.i.i.i64
  %31 = load ptr, ptr %generator_parameters_, align 8
  %add.ptr.i3.i.i.i68 = getelementptr inbounds i8, ptr %31, i64 -8
  tail call void @_ZdlPv(ptr noundef nonnull %add.ptr.i3.i.i.i68) #31
  br label %_ZN4absl12lts_2023080213flat_hash_mapINSt7__cxx1112basic_stringIcSt11char_traitsIcESaIcEEES7_NS0_18container_internal10StringHashENS8_8StringEqESaISt4pairIKS7_S7_EEED2Ev.exit72

_ZN4absl12lts_2023080213flat_hash_mapINSt7__cxx1112basic_stringIcSt11char_traitsIcESaIcEEES7_NS0_18container_internal10StringHashENS8_8StringEqESaISt4pairIKS7_S7_EEED2Ev.exit72: ; preds = %_ZN4absl12lts_2023080213flat_hash_mapINSt7__cxx1112basic_stringIcSt11char_traitsIcESaIcEEES7_NS0_18container_internal10StringHashENS8_8StringEqESaISt4pairIKS7_S7_EEED2Ev.exit55, %invoke.cont13.i.i.i67
  %generators_by_option_name_ = getelementptr inbounds i8, ptr %this, i64 88
  %capacity_.i.i.i.i.i73 = getelementptr inbounds i8, ptr %this, i64 104
  %32 = load i64, ptr %capacity_.i.i.i.i.i73, align 8
  %tobool.not.i.i.i74 = icmp eq i64 %32, 0
  br i1 %tobool.not.i.i.i74, label %_ZN4absl12lts_2023080213flat_hash_mapINSt7__cxx1112basic_stringIcSt11char_traitsIcESaIcEEEN6google8protobuf8compiler20CommandLineInterface13GeneratorInfoENS0_18container_internal10StringHashENSD_8StringEqESaISt4pairIKS7_SC_EEED2Ev.exit, label %if.end.i.i.i75

if.end.i.i.i75:                                   ; preds = %_ZN4absl12lts_2023080213flat_hash_mapINSt7__cxx1112basic_stringIcSt11char_traitsIcESaIcEEES7_NS0_18container_internal10StringHashENS8_8StringEqESaISt4pairIKS7_S7_EEED2Ev.exit72
  %33 = load ptr, ptr %generators_by_option_name_, align 8
  %slots_.i.i.i.i.i.i76 = getelementptr inbounds i8, ptr %this, i64 96
  %34 = load ptr, ptr %slots_.i.i.i.i.i.i76, align 8
  br label %for.body.i.i.i.i77

for.body.i.i.i.i77:                               ; preds = %for.inc.i.i.i.i81, %if.end.i.i.i75
  %i.05.i.i.i.i78 = phi i64 [ %inc.i.i.i.i82, %for.inc.i.i.i.i81 ], [ 0, %if.end.i.i.i75 ]
  %arrayidx.i.i.i.i79 = getelementptr inbounds i8, ptr %33, i64 %i.05.i.i.i.i78
  %35 = load i8, ptr %arrayidx.i.i.i.i79, align 1
  %cmp.i.i.i.i.i80 = icmp sgt i8 %35, -1
  br i1 %cmp.i.i.i.i.i80, label %if.then.i.i.i.i86, label %for.inc.i.i.i.i81

if.then.i.i.i.i86:                                ; preds = %for.body.i.i.i.i77
  %add.ptr.i.i.i.i87 = getelementptr inbounds %"union.absl::lts_20230802::container_internal::map_slot_type.398", ptr %34, i64 %i.05.i.i.i.i78
  %second.i.i.i.i.i.i.i.i.i.i88 = getelementptr inbounds i8, ptr %add.ptr.i.i.i.i87, i64 32
  %help_text.i.i.i.i.i.i.i.i.i.i.i = getelementptr inbounds i8, ptr %add.ptr.i.i.i.i87, i64 104
  tail call void @_ZNSt7__cxx1112basic_stringIcSt11char_traitsIcESaIcEED1Ev(ptr noundef nonnull align 8 dereferenceable(32) %help_text.i.i.i.i.i.i.i.i.i.i.i) #29
  %option_flag_name.i.i.i.i.i.i.i.i.i.i.i = getelementptr inbounds i8, ptr %add.ptr.i.i.i.i87, i64 64
  tail call void @_ZNSt7__cxx1112basic_stringIcSt11char_traitsIcESaIcEED1Ev(ptr noundef nonnull align 8 dereferenceable(32) %option_flag_name.i.i.i.i.i.i.i.i.i.i.i) #29
  tail call void @_ZNSt7__cxx1112basic_stringIcSt11char_traitsIcESaIcEED1Ev(ptr noundef nonnull align 8 dereferenceable(32) %second.i.i.i.i.i.i.i.i.i.i88) #29
  tail call void @_ZNSt7__cxx1112basic_stringIcSt11char_traitsIcESaIcEED1Ev(ptr noundef nonnull align 8 dereferenceable(32) %add.ptr.i.i.i.i87) #29
  br label %for.inc.i.i.i.i81

for.inc.i.i.i.i81:                                ; preds = %if.then.i.i.i.i86, %for.body.i.i.i.i77
  %inc.i.i.i.i82 = add nuw i64 %i.05.i.i.i.i78, 1
  %cmp.not.i.i.i.i83 = icmp eq i64 %inc.i.i.i.i82, %32
  br i1 %cmp.not.i.i.i.i83, label %invoke.cont13.i.i.i84, label %for.body.i.i.i.i77, !llvm.loop !55

invoke.cont13.i.i.i84:                            ; preds = %for.inc.i.i.i.i81
  %36 = load ptr, ptr %generators_by_option_name_, align 8
  %add.ptr.i3.i.i.i85 = getelementptr inbounds i8, ptr %36, i64 -8
  tail call void @_ZdlPv(ptr noundef nonnull %add.ptr.i3.i.i.i85) #31
  br label %_ZN4absl12lts_2023080213flat_hash_mapINSt7__cxx1112basic_stringIcSt11char_traitsIcESaIcEEEN6google8protobuf8compiler20CommandLineInterface13GeneratorInfoENS0_18container_internal10StringHashENSD_8StringEqESaISt4pairIKS7_SC_EEED2Ev.exit

_ZN4absl12lts_2023080213flat_hash_mapINSt7__cxx1112basic_stringIcSt11char_traitsIcESaIcEEEN6google8protobuf8compiler20CommandLineInterface13GeneratorInfoENS0_18container_internal10StringHashENSD_8StringEqESaISt4pairIKS7_SC_EEED2Ev.exit: ; preds = %_ZN4absl12lts_2023080213flat_hash_mapINSt7__cxx1112basic_stringIcSt11char_traitsIcESaIcEEES7_NS0_18container_internal10StringHashENS8_8StringEqESaISt4pairIKS7_S7_EEED2Ev.exit72, %invoke.cont13.i.i.i84
  %generators_by_flag_name_ = getelementptr inbounds i8, ptr %this, i64 64
  %size_.i.i.i.i.i.i.i = getelementptr inbounds i8, ptr %this, i64 80
  %37 = load i64, ptr %size_.i.i.i.i.i.i.i, align 8
  %cmp.i.i.i.i.i.i.i = icmp eq i64 %37, 0
  br i1 %cmp.i.i.i.i.i.i.i, label %_ZN4absl12lts_202308029btree_mapINSt7__cxx1112basic_stringIcSt11char_traitsIcESaIcEEEN6google8protobuf8compiler20CommandLineInterface13GeneratorInfoESt4lessIS7_ESaISt4pairIKS7_SC_EEED2Ev.exit, label %if.then.i.i.i.i.i.i

if.then.i.i.i.i.i.i:                              ; preds = %_ZN4absl12lts_2023080213flat_hash_mapINSt7__cxx1112basic_stringIcSt11char_traitsIcESaIcEEEN6google8protobuf8compiler20CommandLineInterface13GeneratorInfoENS0_18container_internal10StringHashENSD_8StringEqESaISt4pairIKS7_SC_EEED2Ev.exit
  %38 = load ptr, ptr %generators_by_flag_name_, align 8
  %rightmost_.i.i.i.i.i.i.i = getelementptr inbounds i8, ptr %this, i64 72
  invoke void @_ZN4absl12lts_2023080218container_internal10btree_nodeINS1_10map_paramsINSt7__cxx1112basic_stringIcSt11char_traitsIcESaIcEEEN6google8protobuf8compiler20CommandLineInterface13GeneratorInfoESt4lessIS9_ESaISt4pairIKS9_SE_EELi256ELb0EEEE16clear_and_deleteEPSM_PSK_(ptr noundef %38, ptr noundef nonnull %rightmost_.i.i.i.i.i.i.i)
          to label %_ZN4absl12lts_202308029btree_mapINSt7__cxx1112basic_stringIcSt11char_traitsIcESaIcEEEN6google8protobuf8compiler20CommandLineInterface13GeneratorInfoESt4lessIS7_ESaISt4pairIKS7_SC_EEED2Ev.exit unwind label %terminate.lpad.i.i.i.i.i

terminate.lpad.i.i.i.i.i:                         ; preds = %if.then.i.i.i.i.i.i
  %39 = landingpad { ptr, i32 }
          catch ptr null
  %40 = extractvalue { ptr, i32 } %39, 0
  tail call void @__clang_call_terminate(ptr %40) #34
  unreachable

_ZN4absl12lts_202308029btree_mapINSt7__cxx1112basic_stringIcSt11char_traitsIcESaIcEEEN6google8protobuf8compiler20CommandLineInterface13GeneratorInfoESt4lessIS7_ESaISt4pairIKS7_SC_EEED2Ev.exit: ; preds = %_ZN4absl12lts_2023080213flat_hash_mapINSt7__cxx1112basic_stringIcSt11char_traitsIcESaIcEEEN6google8protobuf8compiler20CommandLineInterface13GeneratorInfoENS0_18container_internal10StringHashENSD_8StringEqESaISt4pairIKS7_SC_EEED2Ev.exit, %if.then.i.i.i.i.i.i
  %rightmost_.i1.i.i.i.i.i.i = getelementptr inbounds i8, ptr %this, i64 72
  store ptr @_ZZN4absl12lts_2023080218container_internal5btreeINS1_10map_paramsINSt7__cxx1112basic_stringIcSt11char_traitsIcESaIcEEEN6google8protobuf8compiler20CommandLineInterface13GeneratorInfoESt4lessIS9_ESaISt4pairIKS9_SE_EELi256ELb0EEEE9EmptyNodeEvE10empty_nodeB5cxx11, ptr %rightmost_.i1.i.i.i.i.i.i, align 8
  store ptr @_ZZN4absl12lts_2023080218container_internal5btreeINS1_10map_paramsINSt7__cxx1112basic_stringIcSt11char_traitsIcESaIcEEEN6google8protobuf8compiler20CommandLineInterface13GeneratorInfoESt4lessIS9_ESaISt4pairIKS9_SE_EELi256ELb0EEEE9EmptyNodeEvE10empty_nodeB5cxx11, ptr %generators_by_flag_name_, align 8
  store i64 0, ptr %size_.i.i.i.i.i.i.i, align 8
  %version_info_ = getelementptr inbounds i8, ptr %this, i64 32
  tail call void @_ZNSt7__cxx1112basic_stringIcSt11char_traitsIcESaIcEED1Ev(ptr noundef nonnull align 8 dereferenceable(32) %version_info_) #29
  tail call void @_ZNSt7__cxx1112basic_stringIcSt11char_traitsIcESaIcEED1Ev(ptr noundef nonnull align 8 dereferenceable(32) %this) #29
  ret void
}

; Function Attrs: mustprogress uwtable
define void @_ZN6google8protobuf8compiler20CommandLineInterface17RegisterGeneratorERKNSt7__cxx1112basic_stringIcSt11char_traitsIcESaIcEEEPNS1_13CodeGeneratorESA_(ptr noundef nonnull align 8 dereferenceable(574) %this, ptr noundef nonnull align 8 dereferenceable(32) %flag_name, ptr noundef %generator, ptr noundef nonnull align 8 dereferenceable(32) %help_text) local_unnamed_addr #5 align 2 personality ptr @__gxx_personality_v0 {
entry:
  %ref.tmp.i.i.i = alloca %"class.std::tuple.513", align 8
  %ref.tmp2.i.i.i = alloca %"class.std::tuple.516", align 1
  %ref.tmp.i = alloca %"struct.std::pair.510", align 8
  %info = alloca %"struct.google::protobuf::compiler::CommandLineInterface::GeneratorInfo", align 8
  call void @_ZNSt7__cxx1112basic_stringIcSt11char_traitsIcESaIcEEC1Ev(ptr noundef nonnull align 8 dereferenceable(32) %info) #29
  %option_flag_name.i = getelementptr inbounds i8, ptr %info, i64 32
  call void @_ZNSt7__cxx1112basic_stringIcSt11char_traitsIcESaIcEEC1Ev(ptr noundef nonnull align 8 dereferenceable(32) %option_flag_name.i) #29
  %help_text.i = getelementptr inbounds i8, ptr %info, i64 72
  call void @_ZNSt7__cxx1112basic_stringIcSt11char_traitsIcESaIcEEC1Ev(ptr noundef nonnull align 8 dereferenceable(32) %help_text.i) #29
  %call = invoke noundef nonnull align 8 dereferenceable(32) ptr @_ZNSt7__cxx1112basic_stringIcSt11char_traitsIcESaIcEEaSERKS4_(ptr noundef nonnull align 8 dereferenceable(32) %info, ptr noundef nonnull align 8 dereferenceable(32) %flag_name)
          to label %invoke.cont unwind label %lpad

invoke.cont:                                      ; preds = %entry
  %generator3 = getelementptr inbounds i8, ptr %info, i64 64
  store ptr %generator, ptr %generator3, align 8
  %call6 = invoke noundef nonnull align 8 dereferenceable(32) ptr @_ZNSt7__cxx1112basic_stringIcSt11char_traitsIcESaIcEEaSERKS4_(ptr noundef nonnull align 8 dereferenceable(32) %help_text.i, ptr noundef nonnull align 8 dereferenceable(32) %help_text)
          to label %invoke.cont5 unwind label %lpad

invoke.cont5:                                     ; preds = %invoke.cont
  %generators_by_flag_name_ = getelementptr inbounds i8, ptr %this, i64 64
  call void @llvm.lifetime.start.p0(i64 24, ptr nonnull %ref.tmp.i)
  call void @llvm.lifetime.start.p0(i64 8, ptr nonnull %ref.tmp.i.i.i), !noalias !57
  call void @llvm.lifetime.start.p0(i64 1, ptr nonnull %ref.tmp2.i.i.i), !noalias !57
  store ptr %flag_name, ptr %ref.tmp.i.i.i, align 8, !alias.scope !60, !noalias !63
  invoke void @_ZN4absl12lts_2023080218container_internal5btreeINS1_10map_paramsINSt7__cxx1112basic_stringIcSt11char_traitsIcESaIcEEEN6google8protobuf8compiler20CommandLineInterface13GeneratorInfoESt4lessIS9_ESaISt4pairIKS9_SE_EELi256ELb0EEEE13insert_uniqueIS9_JRKSt21piecewise_construct_tSt5tupleIJRSI_EESR_IJEEEEESH_INS1_14btree_iteratorINS1_10btree_nodeISL_EERSJ_PSJ_EEbERKT_DpOT0_(ptr nonnull sret(%"struct.std::pair.510") align 8 %ref.tmp.i, ptr noundef nonnull align 8 dereferenceable(24) %generators_by_flag_name_, ptr noundef nonnull align 8 dereferenceable(32) %flag_name, ptr noundef nonnull align 1 dereferenceable(1) @_ZSt19piecewise_construct, ptr noundef nonnull align 8 dereferenceable(8) %ref.tmp.i.i.i, ptr noundef nonnull align 1 dereferenceable(1) %ref.tmp2.i.i.i)
          to label %invoke.cont7 unwind label %lpad

invoke.cont7:                                     ; preds = %invoke.cont5
  call void @llvm.lifetime.end.p0(i64 8, ptr nonnull %ref.tmp.i.i.i), !noalias !57
  call void @llvm.lifetime.end.p0(i64 1, ptr nonnull %ref.tmp2.i.i.i), !noalias !57
  %position_.i.i.i = getelementptr inbounds i8, ptr %ref.tmp.i, i64 8
  %0 = load ptr, ptr %ref.tmp.i, align 8
  %1 = load i32, ptr %position_.i.i.i, align 8
  %2 = and i32 %1, 255
  %conv6.i.i.i = zext nneg i32 %2 to i64
  %add.ptr.i.i.i.i.i.i.i = getelementptr inbounds i8, ptr %0, i64 16
  %second.i = getelementptr inbounds %"union.absl::lts_20230802::container_internal::map_slot_type.398", ptr %add.ptr.i.i.i.i.i.i.i, i64 %conv6.i.i.i, i32 0, i32 1
  call void @llvm.lifetime.end.p0(i64 24, ptr nonnull %ref.tmp.i)
  %call.i4 = invoke noundef nonnull align 8 dereferenceable(32) ptr @_ZNSt7__cxx1112basic_stringIcSt11char_traitsIcESaIcEEaSERKS4_(ptr noundef nonnull align 8 dereferenceable(32) %second.i, ptr noundef nonnull align 8 dereferenceable(32) %info)
          to label %call.i.noexc unwind label %lpad

call.i.noexc:                                     ; preds = %invoke.cont7
  %option_flag_name.i2 = getelementptr inbounds i8, ptr %second.i, i64 32
  %call4.i5 = invoke noundef nonnull align 8 dereferenceable(32) ptr @_ZNSt7__cxx1112basic_stringIcSt11char_traitsIcESaIcEEaSERKS4_(ptr noundef nonnull align 8 dereferenceable(32) %option_flag_name.i2, ptr noundef nonnull align 8 dereferenceable(32) %option_flag_name.i)
          to label %call4.i.noexc unwind label %lpad

call4.i.noexc:                                    ; preds = %call.i.noexc
  %3 = load ptr, ptr %generator3, align 8
  %generator5.i = getelementptr inbounds i8, ptr %second.i, i64 64
  store ptr %3, ptr %generator5.i, align 8
  %help_text.i3 = getelementptr inbounds i8, ptr %second.i, i64 72
  %call7.i6 = invoke noundef nonnull align 8 dereferenceable(32) ptr @_ZNSt7__cxx1112basic_stringIcSt11char_traitsIcESaIcEEaSERKS4_(ptr noundef nonnull align 8 dereferenceable(32) %help_text.i3, ptr noundef nonnull align 8 dereferenceable(32) %help_text.i)
          to label %invoke.cont9 unwind label %lpad

invoke.cont9:                                     ; preds = %call4.i.noexc
  call void @_ZNSt7__cxx1112basic_stringIcSt11char_traitsIcESaIcEED1Ev(ptr noundef nonnull align 8 dereferenceable(32) %help_text.i) #29
  call void @_ZNSt7__cxx1112basic_stringIcSt11char_traitsIcESaIcEED1Ev(ptr noundef nonnull align 8 dereferenceable(32) %option_flag_name.i) #29
  call void @_ZNSt7__cxx1112basic_stringIcSt11char_traitsIcESaIcEED1Ev(ptr noundef nonnull align 8 dereferenceable(32) %info) #29
  ret void

lpad:                                             ; preds = %call4.i.noexc, %call.i.noexc, %invoke.cont7, %invoke.cont5, %invoke.cont, %entry
  %4 = landingpad { ptr, i32 }
          cleanup
  call void @_ZN6google8protobuf8compiler20CommandLineInterface13GeneratorInfoD2Ev(ptr noundef nonnull align 8 dereferenceable(104) %info) #29
  resume { ptr, i32 } %4
}

declare noundef nonnull align 8 dereferenceable(32) ptr @_ZNSt7__cxx1112basic_stringIcSt11char_traitsIcESaIcEEaSERKS4_(ptr noundef nonnull align 8 dereferenceable(32), ptr noundef nonnull align 8 dereferenceable(32)) local_unnamed_addr #0

; Function Attrs: mustprogress nounwind uwtable
define linkonce_odr hidden void @_ZN6google8protobuf8compiler20CommandLineInterface13GeneratorInfoD2Ev(ptr noundef nonnull align 8 dereferenceable(104) %this) unnamed_addr #10 comdat align 2 {
entry:
  %help_text = getelementptr inbounds i8, ptr %this, i64 72
  tail call void @_ZNSt7__cxx1112basic_stringIcSt11char_traitsIcESaIcEED1Ev(ptr noundef nonnull align 8 dereferenceable(32) %help_text) #29
  %option_flag_name = getelementptr inbounds i8, ptr %this, i64 32
  tail call void @_ZNSt7__cxx1112basic_stringIcSt11char_traitsIcESaIcEED1Ev(ptr noundef nonnull align 8 dereferenceable(32) %option_flag_name) #29
  tail call void @_ZNSt7__cxx1112basic_stringIcSt11char_traitsIcESaIcEED1Ev(ptr noundef nonnull align 8 dereferenceable(32) %this) #29
  ret void
}

; Function Attrs: mustprogress uwtable
define void @_ZN6google8protobuf8compiler20CommandLineInterface17RegisterGeneratorERKNSt7__cxx1112basic_stringIcSt11char_traitsIcESaIcEEESA_PNS1_13CodeGeneratorESA_(ptr noundef nonnull align 8 dereferenceable(574) %this, ptr noundef nonnull align 8 dereferenceable(32) %flag_name, ptr noundef nonnull align 8 dereferenceable(32) %option_flag_name, ptr noundef %generator, ptr noundef nonnull align 8 dereferenceable(32) %help_text) local_unnamed_addr #5 align 2 personality ptr @__gxx_personality_v0 {
entry:
  %ref.tmp.i.i.i = alloca %"class.std::tuple.513", align 8
  %ref.tmp2.i.i.i = alloca %"class.std::tuple.516", align 1
  %ref.tmp.i = alloca %"struct.std::pair.510", align 8
  %info = alloca %"struct.google::protobuf::compiler::CommandLineInterface::GeneratorInfo", align 8
  call void @_ZNSt7__cxx1112basic_stringIcSt11char_traitsIcESaIcEEC1Ev(ptr noundef nonnull align 8 dereferenceable(32) %info) #29
  %option_flag_name.i = getelementptr inbounds i8, ptr %info, i64 32
  call void @_ZNSt7__cxx1112basic_stringIcSt11char_traitsIcESaIcEEC1Ev(ptr noundef nonnull align 8 dereferenceable(32) %option_flag_name.i) #29
  %help_text.i = getelementptr inbounds i8, ptr %info, i64 72
  call void @_ZNSt7__cxx1112basic_stringIcSt11char_traitsIcESaIcEEC1Ev(ptr noundef nonnull align 8 dereferenceable(32) %help_text.i) #29
  %call = invoke noundef nonnull align 8 dereferenceable(32) ptr @_ZNSt7__cxx1112basic_stringIcSt11char_traitsIcESaIcEEaSERKS4_(ptr noundef nonnull align 8 dereferenceable(32) %info, ptr noundef nonnull align 8 dereferenceable(32) %flag_name)
          to label %invoke.cont unwind label %lpad

invoke.cont:                                      ; preds = %entry
  %call5 = invoke noundef nonnull align 8 dereferenceable(32) ptr @_ZNSt7__cxx1112basic_stringIcSt11char_traitsIcESaIcEEaSERKS4_(ptr noundef nonnull align 8 dereferenceable(32) %option_flag_name.i, ptr noundef nonnull align 8 dereferenceable(32) %option_flag_name)
          to label %invoke.cont4 unwind label %lpad

invoke.cont4:                                     ; preds = %invoke.cont
  %generator6 = getelementptr inbounds i8, ptr %info, i64 64
  store ptr %generator, ptr %generator6, align 8
  %call9 = invoke noundef nonnull align 8 dereferenceable(32) ptr @_ZNSt7__cxx1112basic_stringIcSt11char_traitsIcESaIcEEaSERKS4_(ptr noundef nonnull align 8 dereferenceable(32) %help_text.i, ptr noundef nonnull align 8 dereferenceable(32) %help_text)
          to label %invoke.cont8 unwind label %lpad

invoke.cont8:                                     ; preds = %invoke.cont4
  %generators_by_flag_name_ = getelementptr inbounds i8, ptr %this, i64 64
  call void @llvm.lifetime.start.p0(i64 24, ptr nonnull %ref.tmp.i)
  call void @llvm.lifetime.start.p0(i64 8, ptr nonnull %ref.tmp.i.i.i), !noalias !66
  call void @llvm.lifetime.start.p0(i64 1, ptr nonnull %ref.tmp2.i.i.i), !noalias !66
  store ptr %flag_name, ptr %ref.tmp.i.i.i, align 8, !alias.scope !69, !noalias !72
  invoke void @_ZN4absl12lts_2023080218container_internal5btreeINS1_10map_paramsINSt7__cxx1112basic_stringIcSt11char_traitsIcESaIcEEEN6google8protobuf8compiler20CommandLineInterface13GeneratorInfoESt4lessIS9_ESaISt4pairIKS9_SE_EELi256ELb0EEEE13insert_uniqueIS9_JRKSt21piecewise_construct_tSt5tupleIJRSI_EESR_IJEEEEESH_INS1_14btree_iteratorINS1_10btree_nodeISL_EERSJ_PSJ_EEbERKT_DpOT0_(ptr nonnull sret(%"struct.std::pair.510") align 8 %ref.tmp.i, ptr noundef nonnull align 8 dereferenceable(24) %generators_by_flag_name_, ptr noundef nonnull align 8 dereferenceable(32) %flag_name, ptr noundef nonnull align 1 dereferenceable(1) @_ZSt19piecewise_construct, ptr noundef nonnull align 8 dereferenceable(8) %ref.tmp.i.i.i, ptr noundef nonnull align 1 dereferenceable(1) %ref.tmp2.i.i.i)
          to label %invoke.cont10 unwind label %lpad

invoke.cont10:                                    ; preds = %invoke.cont8
  call void @llvm.lifetime.end.p0(i64 8, ptr nonnull %ref.tmp.i.i.i), !noalias !66
  call void @llvm.lifetime.end.p0(i64 1, ptr nonnull %ref.tmp2.i.i.i), !noalias !66
  %position_.i.i.i = getelementptr inbounds i8, ptr %ref.tmp.i, i64 8
  %0 = load ptr, ptr %ref.tmp.i, align 8
  %1 = load i32, ptr %position_.i.i.i, align 8
  %2 = and i32 %1, 255
  %conv6.i.i.i = zext nneg i32 %2 to i64
  %add.ptr.i.i.i.i.i.i.i = getelementptr inbounds i8, ptr %0, i64 16
  %second.i = getelementptr inbounds %"union.absl::lts_20230802::container_internal::map_slot_type.398", ptr %add.ptr.i.i.i.i.i.i.i, i64 %conv6.i.i.i, i32 0, i32 1
  call void @llvm.lifetime.end.p0(i64 24, ptr nonnull %ref.tmp.i)
  %call.i5 = invoke noundef nonnull align 8 dereferenceable(32) ptr @_ZNSt7__cxx1112basic_stringIcSt11char_traitsIcESaIcEEaSERKS4_(ptr noundef nonnull align 8 dereferenceable(32) %second.i, ptr noundef nonnull align 8 dereferenceable(32) %info)
          to label %call.i.noexc unwind label %lpad

call.i.noexc:                                     ; preds = %invoke.cont10
  %option_flag_name.i3 = getelementptr inbounds i8, ptr %second.i, i64 32
  %call4.i6 = invoke noundef nonnull align 8 dereferenceable(32) ptr @_ZNSt7__cxx1112basic_stringIcSt11char_traitsIcESaIcEEaSERKS4_(ptr noundef nonnull align 8 dereferenceable(32) %option_flag_name.i3, ptr noundef nonnull align 8 dereferenceable(32) %option_flag_name.i)
          to label %call4.i.noexc unwind label %lpad

call4.i.noexc:                                    ; preds = %call.i.noexc
  %3 = load ptr, ptr %generator6, align 8
  %generator5.i = getelementptr inbounds i8, ptr %second.i, i64 64
  store ptr %3, ptr %generator5.i, align 8
  %help_text.i4 = getelementptr inbounds i8, ptr %second.i, i64 72
  %call7.i7 = invoke noundef nonnull align 8 dereferenceable(32) ptr @_ZNSt7__cxx1112basic_stringIcSt11char_traitsIcESaIcEEaSERKS4_(ptr noundef nonnull align 8 dereferenceable(32) %help_text.i4, ptr noundef nonnull align 8 dereferenceable(32) %help_text.i)
          to label %invoke.cont12 unwind label %lpad

invoke.cont12:                                    ; preds = %call4.i.noexc
  %generators_by_option_name_ = getelementptr inbounds i8, ptr %this, i64 88
  %call.i.i.i8 = invoke { i64, i8 } @_ZN4absl12lts_2023080218container_internal12raw_hash_setINS1_17FlatHashMapPolicyINSt7__cxx1112basic_stringIcSt11char_traitsIcESaIcEEEN6google8protobuf8compiler20CommandLineInterface13GeneratorInfoEEENS1_10StringHashENS1_8StringEqESaISt4pairIKS9_SE_EEE22find_or_prepare_insertIS9_EESI_ImbERKT_(ptr noundef nonnull align 8 dereferenceable(32) %generators_by_option_name_, ptr noundef nonnull align 8 dereferenceable(32) %option_flag_name)
          to label %call.i.i.i.noexc unwind label %lpad

call.i.i.i.noexc:                                 ; preds = %invoke.cont12
  %4 = extractvalue { i64, i8 } %call.i.i.i8, 0
  %5 = extractvalue { i64, i8 } %call.i.i.i8, 1
  %6 = and i8 %5, 1
  %tobool.not.i.i.i = icmp eq i8 %6, 0
  br i1 %tobool.not.i.i.i, label %invoke.cont14, label %if.then.i.i.i

if.then.i.i.i:                                    ; preds = %call.i.i.i.noexc
  %slots_.i.i.i.i.i.i = getelementptr inbounds i8, ptr %this, i64 96
  %7 = load ptr, ptr %slots_.i.i.i.i.i.i, align 8, !noalias !75
  %add.ptr.i.i.i.i = getelementptr inbounds %"union.absl::lts_20230802::container_internal::map_slot_type.398", ptr %7, i64 %4
  invoke void @_ZNSt7__cxx1112basic_stringIcSt11char_traitsIcESaIcEEC1ERKS4_(ptr noundef nonnull align 8 dereferenceable(32) %add.ptr.i.i.i.i, ptr noundef nonnull align 8 dereferenceable(32) %option_flag_name)
          to label %.noexc unwind label %lpad

.noexc:                                           ; preds = %if.then.i.i.i
  %second.i.i.i.i.i.i.i.i.i.i.i = getelementptr inbounds i8, ptr %add.ptr.i.i.i.i, i64 32
  call void @llvm.memset.p0.i64(ptr noundef nonnull align 8 dereferenceable(104) %second.i.i.i.i.i.i.i.i.i.i.i, i8 0, i64 104, i1 false), !noalias !75
  call void @_ZNSt7__cxx1112basic_stringIcSt11char_traitsIcESaIcEEC1Ev(ptr noundef nonnull align 8 dereferenceable(32) %second.i.i.i.i.i.i.i.i.i.i.i) #29, !noalias !75
  %option_flag_name.i.i.i.i.i.i.i.i.i.i.i.i = getelementptr inbounds i8, ptr %add.ptr.i.i.i.i, i64 64
  call void @_ZNSt7__cxx1112basic_stringIcSt11char_traitsIcESaIcEEC1Ev(ptr noundef nonnull align 8 dereferenceable(32) %option_flag_name.i.i.i.i.i.i.i.i.i.i.i.i) #29, !noalias !75
  %help_text.i.i.i.i.i.i.i.i.i.i.i.i = getelementptr inbounds i8, ptr %add.ptr.i.i.i.i, i64 104
  call void @_ZNSt7__cxx1112basic_stringIcSt11char_traitsIcESaIcEEC1Ev(ptr noundef nonnull align 8 dereferenceable(32) %help_text.i.i.i.i.i.i.i.i.i.i.i.i) #29, !noalias !75
  br label %invoke.cont14

invoke.cont14:                                    ; preds = %.noexc, %call.i.i.i.noexc
  %slots_.i.i.i3.i.i.i = getelementptr inbounds i8, ptr %this, i64 96
  %8 = load ptr, ptr %slots_.i.i.i3.i.i.i, align 8, !noalias !75
  %second.i.i = getelementptr inbounds %"union.absl::lts_20230802::container_internal::map_slot_type.398", ptr %8, i64 %4, i32 0, i32 1
  %call.i16 = invoke noundef nonnull align 8 dereferenceable(32) ptr @_ZNSt7__cxx1112basic_stringIcSt11char_traitsIcESaIcEEaSERKS4_(ptr noundef nonnull align 8 dereferenceable(32) %second.i.i, ptr noundef nonnull align 8 dereferenceable(32) %info)
          to label %call.i.noexc15 unwind label %lpad

call.i.noexc15:                                   ; preds = %invoke.cont14
  %option_flag_name.i9 = getelementptr inbounds i8, ptr %second.i.i, i64 32
  %call4.i18 = invoke noundef nonnull align 8 dereferenceable(32) ptr @_ZNSt7__cxx1112basic_stringIcSt11char_traitsIcESaIcEEaSERKS4_(ptr noundef nonnull align 8 dereferenceable(32) %option_flag_name.i9, ptr noundef nonnull align 8 dereferenceable(32) %option_flag_name.i)
          to label %call4.i.noexc17 unwind label %lpad

call4.i.noexc17:                                  ; preds = %call.i.noexc15
  %9 = load ptr, ptr %generator6, align 8
  %generator5.i12 = getelementptr inbounds i8, ptr %second.i.i, i64 64
  store ptr %9, ptr %generator5.i12, align 8
  %help_text.i13 = getelementptr inbounds i8, ptr %second.i.i, i64 72
  %call7.i19 = invoke noundef nonnull align 8 dereferenceable(32) ptr @_ZNSt7__cxx1112basic_stringIcSt11char_traitsIcESaIcEEaSERKS4_(ptr noundef nonnull align 8 dereferenceable(32) %help_text.i13, ptr noundef nonnull align 8 dereferenceable(32) %help_text.i)
          to label %invoke.cont16 unwind label %lpad

invoke.cont16:                                    ; preds = %call4.i.noexc17
  call void @_ZNSt7__cxx1112basic_stringIcSt11char_traitsIcESaIcEED1Ev(ptr noundef nonnull align 8 dereferenceable(32) %help_text.i) #29
  call void @_ZNSt7__cxx1112basic_stringIcSt11char_traitsIcESaIcEED1Ev(ptr noundef nonnull align 8 dereferenceable(32) %option_flag_name.i) #29
  call void @_ZNSt7__cxx1112basic_stringIcSt11char_traitsIcESaIcEED1Ev(ptr noundef nonnull align 8 dereferenceable(32) %info) #29
  ret void

lpad:                                             ; preds = %call4.i.noexc17, %call.i.noexc15, %invoke.cont14, %if.then.i.i.i, %invoke.cont12, %call4.i.noexc, %call.i.noexc, %invoke.cont10, %invoke.cont8, %invoke.cont4, %invoke.cont, %entry
  %10 = landingpad { ptr, i32 }
          cleanup
  call void @_ZN6google8protobuf8compiler20CommandLineInterface13GeneratorInfoD2Ev(ptr noundef nonnull align 8 dereferenceable(104) %info) #29
  resume { ptr, i32 } %10
}

; Function Attrs: mustprogress uwtable
define void @_ZN6google8protobuf8compiler20CommandLineInterface12AllowPluginsERKNSt7__cxx1112basic_stringIcSt11char_traitsIcESaIcEEE(ptr noundef nonnull align 8 dereferenceable(574) %this, ptr noundef nonnull align 8 dereferenceable(32) %exe_name_prefix) local_unnamed_addr #5 align 2 {
entry:
  %plugin_prefix_ = getelementptr inbounds i8, ptr %this, i64 184
  %call = tail call noundef nonnull align 8 dereferenceable(32) ptr @_ZNSt7__cxx1112basic_stringIcSt11char_traitsIcESaIcEEaSERKS4_(ptr noundef nonnull align 8 dereferenceable(32) %plugin_prefix_, ptr noundef nonnull align 8 dereferenceable(32) %exe_name_prefix)
  ret void
}

; Function Attrs: mustprogress uwtable
define noundef i32 @_ZN6google8protobuf8compiler20CommandLineInterface3RunEiPKPKc(ptr noundef nonnull align 8 dereferenceable(574) %this, i32 noundef %argc, ptr nocapture noundef readonly %argv) local_unnamed_addr #3 align 2 personality ptr @__gxx_personality_v0 {
entry:
  %ref.tmp.i113 = alloca %"struct.google::protobuf::internal::VisitImpl.538", align 8
  %ref.tmp.i = alloca %"struct.google::protobuf::internal::VisitImpl", align 8
  %file_descriptor_set.i = alloca %"class.google::protobuf::FileDescriptorSet", align 8
  %previously_added_file_descriptor_proto.i = alloca %"class.google::protobuf::FileDescriptorProto", align 8
  %parsed_files = alloca %"class.std::vector.94", align 8
  %error_collector = alloca %"class.std::unique_ptr.141", align 8
  %descriptor_pool = alloca %"class.std::unique_ptr.149", align 8
  %databases_per_descriptor_set = alloca %"class.std::vector.157", align 8
  %raw_databases_per_descriptor_set = alloca %"class.std::vector.186", align 8
  %validation_error = alloca i8, align 1
  %file136 = alloca ptr, align 8
  %proto = alloca %"class.google::protobuf::FileDescriptorProto", align 8
  %output_directories = alloca %"class.absl::lts_20230802::flat_hash_map.256", align 8
  %output_location = alloca %"class.std::__cxx11::basic_string", align 8
  %pool = alloca %"class.google::protobuf::DescriptorPool", align 8
  %file274 = alloca %"class.google::protobuf::FileDescriptorProto", align 8
  %ref.tmp287 = alloca %"class.absl::lts_20230802::log_internal::LogMessageFatal", align 8
  %ref.tmp358 = alloca %"class.absl::lts_20230802::log_internal::LogMessage", align 8
  tail call void @_ZN6google8protobuf8compiler20CommandLineInterface5ClearEv(ptr noundef nonnull align 8 dereferenceable(574) %this)
  %call = tail call noundef i32 @_ZN6google8protobuf8compiler20CommandLineInterface14ParseArgumentsEiPKPKc(ptr noundef nonnull align 8 dereferenceable(574) %this, i32 noundef %argc, ptr noundef %argv)
  switch i32 %call, label %sw.epilog [
    i32 1, label %return
    i32 2, label %sw.bb2
  ]

sw.bb2:                                           ; preds = %entry
  br label %return

sw.epilog:                                        ; preds = %entry
  call void @llvm.memset.p0.i64(ptr noundef nonnull align 8 dereferenceable(24) %parsed_files, i8 0, i64 24, i1 false)
  store ptr null, ptr %error_collector, align 8
  store ptr null, ptr %descriptor_pool, align 8
  call void @llvm.memset.p0.i64(ptr noundef nonnull align 8 dereferenceable(24) %databases_per_descriptor_set, i8 0, i64 24, i1 false)
  %descriptor_set_in_names_ = getelementptr inbounds i8, ptr %this, i64 440
  %0 = load ptr, ptr %descriptor_set_in_names_, align 8
  %_M_finish.i.i = getelementptr inbounds i8, ptr %this, i64 448
  %1 = load ptr, ptr %_M_finish.i.i, align 8
  %cmp.i.i = icmp eq ptr %0, %1
  br i1 %cmp.i.i, label %if.end39, label %for.cond.preheader

for.cond.preheader:                               ; preds = %sw.epilog
  %current_size_.i.i.i.i.i = getelementptr inbounds i8, ptr %file_descriptor_set.i, i64 24
  %2 = getelementptr inbounds i8, ptr %file_descriptor_set.i, i64 16
  %_M_finish.i.i40 = getelementptr inbounds i8, ptr %databases_per_descriptor_set, i64 8
  %_M_end_of_storage.i.i = getelementptr inbounds i8, ptr %databases_per_descriptor_set, i64 16
  br label %for.body

for.body:                                         ; preds = %for.cond.preheader, %for.inc
  %3 = phi ptr [ null, %for.cond.preheader ], [ %34, %for.inc ]
  %__begin3.sroa.0.0476 = phi ptr [ %0, %for.cond.preheader ], [ %incdec.ptr.i, %for.inc ]
  call void @llvm.lifetime.start.p0(i64 48, ptr nonnull %file_descriptor_set.i)
  call void @llvm.lifetime.start.p0(i64 224, ptr nonnull %previously_added_file_descriptor_proto.i)
  br label %do.body.i

do.body.i:                                        ; preds = %land.rhs.i, %for.body
  %call.i = call noundef ptr @_ZNKSt7__cxx1112basic_stringIcSt11char_traitsIcESaIcEE5c_strEv(ptr noundef nonnull align 8 dereferenceable(32) %__begin3.sroa.0.0476) #29, !noalias !80
  %call1.i34 = invoke i32 (ptr, i32, ...) @open(ptr noundef %call.i, i32 noundef 0)
          to label %call1.i.noexc unwind label %lpad.loopexit.split-lp431.loopexit.split-lp.loopexit.split-lp.loopexit

call1.i.noexc:                                    ; preds = %do.body.i
  %cmp.i33 = icmp slt i32 %call1.i34, 0
  br i1 %cmp.i33, label %land.rhs.i, label %if.end.i

land.rhs.i:                                       ; preds = %call1.i.noexc
  %call2.i = tail call ptr @__errno_location() #30
  %4 = load i32, ptr %call2.i, align 4, !noalias !80
  %cmp3.i = icmp eq i32 %4, 4
  br i1 %cmp3.i, label %do.body.i, label %if.then.i, !llvm.loop !83

if.then.i:                                        ; preds = %land.rhs.i
  %call5.i35 = invoke noundef nonnull align 8 dereferenceable(8) ptr @_ZStlsIcSt11char_traitsIcESaIcEERSt13basic_ostreamIT_T0_ES7_RKNSt7__cxx1112basic_stringIS4_S5_T1_EE(ptr noundef nonnull align 8 dereferenceable(8) @_ZSt4cerr, ptr noundef nonnull align 8 dereferenceable(32) %__begin3.sroa.0.0476)
          to label %call5.i.noexc unwind label %lpad.loopexit.split-lp431.loopexit.split-lp.loopexit.split-lp.loopexit.split-lp.loopexit.split-lp

call5.i.noexc:                                    ; preds = %if.then.i
  %call6.i36 = invoke noundef nonnull align 8 dereferenceable(8) ptr @_ZStlsISt11char_traitsIcEERSt13basic_ostreamIcT_ES5_PKc(ptr noundef nonnull align 8 dereferenceable(8) %call5.i35, ptr noundef nonnull @.str)
          to label %call6.i.noexc unwind label %lpad.loopexit.split-lp431.loopexit.split-lp.loopexit.split-lp.loopexit.split-lp.loopexit.split-lp

call6.i.noexc:                                    ; preds = %call5.i.noexc
  %call7.i = call ptr @strerror(i32 noundef 2) #29, !noalias !80
  %call8.i37 = invoke noundef nonnull align 8 dereferenceable(8) ptr @_ZStlsISt11char_traitsIcEERSt13basic_ostreamIcT_ES5_PKc(ptr noundef nonnull align 8 dereferenceable(8) %call6.i36, ptr noundef %call7.i)
          to label %call8.i.noexc unwind label %lpad.loopexit.split-lp431.loopexit.split-lp.loopexit.split-lp.loopexit.split-lp.loopexit.split-lp

call8.i.noexc:                                    ; preds = %call6.i.noexc
  %call9.i38 = invoke noundef nonnull align 8 dereferenceable(8) ptr @_ZNSolsEPFRSoS_E(ptr noundef nonnull align 8 dereferenceable(8) %call8.i37, ptr noundef nonnull @_ZSt4endlIcSt11char_traitsIcEERSt13basic_ostreamIT_T0_ES6_)
          to label %invoke.cont.thread unwind label %lpad.loopexit.split-lp431.loopexit.split-lp.loopexit.split-lp.loopexit.split-lp.loopexit.split-lp

invoke.cont.thread:                               ; preds = %call8.i.noexc
  call void @llvm.lifetime.end.p0(i64 48, ptr nonnull %file_descriptor_set.i)
  call void @llvm.lifetime.end.p0(i64 224, ptr nonnull %previously_added_file_descriptor_proto.i)
  br label %_ZNSt10unique_ptrIN6google8protobuf24MergedDescriptorDatabaseESt14default_deleteIS2_EED2Ev.exit

if.end.i:                                         ; preds = %call1.i.noexc
  invoke void @_ZN6google8protobuf17FileDescriptorSetC2EPNS0_5ArenaE(ptr noundef nonnull align 8 dereferenceable(48) %file_descriptor_set.i, ptr noundef null)
          to label %.noexc unwind label %lpad.loopexit.split-lp431.loopexit.split-lp.loopexit.split-lp.loopexit.split-lp.loopexit

.noexc:                                           ; preds = %if.end.i
  %call10.i = invoke noundef zeroext i1 @_ZN6google8protobuf11MessageLite23ParseFromFileDescriptorEi(ptr noundef nonnull align 8 dereferenceable(16) %file_descriptor_set.i, i32 noundef %call1.i34)
          to label %invoke.cont.i unwind label %lpad.i.loopexit, !noalias !80

invoke.cont.i:                                    ; preds = %.noexc
  %call12.i = invoke i32 @close(i32 noundef %call1.i34)
          to label %invoke.cont11.i unwind label %lpad.i.loopexit, !noalias !80

invoke.cont11.i:                                  ; preds = %invoke.cont.i
  %cmp13.not.i = icmp eq i32 %call12.i, 0
  br i1 %cmp13.not.i, label %if.end25.i, label %if.then14.i

if.then14.i:                                      ; preds = %invoke.cont11.i
  %call16.i = invoke noundef nonnull align 8 dereferenceable(8) ptr @_ZStlsIcSt11char_traitsIcESaIcEERSt13basic_ostreamIT_T0_ES7_RKNSt7__cxx1112basic_stringIS4_S5_T1_EE(ptr noundef nonnull align 8 dereferenceable(8) @_ZSt4cerr, ptr noundef nonnull align 8 dereferenceable(32) %__begin3.sroa.0.0476)
          to label %invoke.cont15.i unwind label %lpad.i.loopexit.split-lp, !noalias !80

invoke.cont15.i:                                  ; preds = %if.then14.i
  %call18.i = invoke noundef nonnull align 8 dereferenceable(8) ptr @_ZStlsISt11char_traitsIcEERSt13basic_ostreamIcT_ES5_PKc(ptr noundef nonnull align 8 dereferenceable(8) %call16.i, ptr noundef nonnull @.str.3)
          to label %invoke.cont17.i unwind label %lpad.i.loopexit.split-lp, !noalias !80

invoke.cont17.i:                                  ; preds = %invoke.cont15.i
  %call19.i = tail call ptr @__errno_location() #30
  %5 = load i32, ptr %call19.i, align 4, !noalias !80
  %call20.i = call ptr @strerror(i32 noundef %5) #29, !noalias !80
  %call22.i = invoke noundef nonnull align 8 dereferenceable(8) ptr @_ZStlsISt11char_traitsIcEERSt13basic_ostreamIcT_ES5_PKc(ptr noundef nonnull align 8 dereferenceable(8) %call18.i, ptr noundef %call20.i)
          to label %invoke.cont21.i.invoke unwind label %lpad.i.loopexit.split-lp, !noalias !80

invoke.cont21.i.invoke:                           ; preds = %invoke.cont17.i, %invoke.cont27.i
  %6 = phi ptr [ %call30.i, %invoke.cont27.i ], [ %call22.i, %invoke.cont17.i ]
  %7 = invoke noundef nonnull align 8 dereferenceable(8) ptr @_ZNSolsEPFRSoS_E(ptr noundef nonnull align 8 dereferenceable(8) %6, ptr noundef nonnull @_ZSt4endlIcSt11char_traitsIcEERSt13basic_ostreamIT_T0_ES6_)
          to label %invoke.cont.thread353 unwind label %lpad.i.loopexit.split-lp, !noalias !80

lpad.i.loopexit:                                  ; preds = %.noexc, %invoke.cont.i, %if.end33.i
  %lpad.loopexit450 = landingpad { ptr, i32 }
          cleanup
  br label %ehcleanup62.i

lpad.i.loopexit.split-lp:                         ; preds = %invoke.cont21.i.invoke, %if.then14.i, %invoke.cont15.i, %invoke.cont17.i, %if.then26.i, %invoke.cont27.i
  %lpad.loopexit.split-lp451 = landingpad { ptr, i32 }
          cleanup
  br label %ehcleanup62.i

if.end25.i:                                       ; preds = %invoke.cont11.i
  br i1 %call10.i, label %if.end33.i, label %if.then26.i

if.then26.i:                                      ; preds = %if.end25.i
  %call28.i = invoke noundef nonnull align 8 dereferenceable(8) ptr @_ZStlsIcSt11char_traitsIcESaIcEERSt13basic_ostreamIT_T0_ES7_RKNSt7__cxx1112basic_stringIS4_S5_T1_EE(ptr noundef nonnull align 8 dereferenceable(8) @_ZSt4cerr, ptr noundef nonnull align 8 dereferenceable(32) %__begin3.sroa.0.0476)
          to label %invoke.cont27.i unwind label %lpad.i.loopexit.split-lp, !noalias !80

invoke.cont27.i:                                  ; preds = %if.then26.i
  %call30.i = invoke noundef nonnull align 8 dereferenceable(8) ptr @_ZStlsISt11char_traitsIcEERSt13basic_ostreamIcT_ES5_PKc(ptr noundef nonnull align 8 dereferenceable(8) %call28.i, ptr noundef nonnull @.str.169)
          to label %invoke.cont21.i.invoke unwind label %lpad.i.loopexit.split-lp, !noalias !80

if.end33.i:                                       ; preds = %if.end25.i
  %call35.i = invoke noalias noundef nonnull dereferenceable(104) ptr @_Znwm(i64 noundef 104) #32
          to label %invoke.cont34.i unwind label %lpad.i.loopexit, !noalias !80

invoke.cont34.i:                                  ; preds = %if.end33.i
  invoke void @_ZN6google8protobuf24SimpleDescriptorDatabaseC1Ev(ptr noundef nonnull align 8 dereferenceable(104) %call35.i)
          to label %invoke.cont39.preheader.i unwind label %lpad36.i, !noalias !80

invoke.cont39.preheader.i:                        ; preds = %invoke.cont34.i
  %8 = load i32, ptr %current_size_.i.i.i.i.i, align 8, !noalias !80
  %cmp4132.i = icmp sgt i32 %8, 0
  br i1 %cmp4132.i, label %for.body.i, label %if.end

for.body.i:                                       ; preds = %invoke.cont39.preheader.i, %for.inc.i
  %indvars.iv.i = phi i64 [ %indvars.iv.next.i, %for.inc.i ], [ 0, %invoke.cont39.preheader.i ]
  invoke void @_ZN6google8protobuf19FileDescriptorProtoC2EPNS0_5ArenaE(ptr noundef nonnull align 8 dereferenceable(224) %previously_added_file_descriptor_proto.i, ptr noundef null)
          to label %invoke.cont47.i unwind label %lpad38.i, !noalias !80

invoke.cont47.i:                                  ; preds = %for.body.i
  %9 = load ptr, ptr %2, align 8, !noalias !80
  %10 = ptrtoint ptr %9 to i64
  %and.i.i.i.i.i.i.i = and i64 %10, 1
  %cmp.i.i.i.i.i.i.i = icmp eq i64 %and.i.i.i.i.i.i.i, 0
  %sub.i.i.i.i.i.i.i = add i64 %10, -1
  %11 = inttoptr i64 %sub.i.i.i.i.i.i.i to ptr
  %elements.i.i.i.i.i.i = getelementptr inbounds i8, ptr %11, i64 8
  %arrayidx.i.i.i.i.i.i = getelementptr inbounds [268435454 x ptr], ptr %elements.i.i.i.i.i.i, i64 0, i64 %indvars.iv.i
  %retval.0.i.i.i.i.i.i = select i1 %cmp.i.i.i.i.i.i.i, ptr %2, ptr %arrayidx.i.i.i.i.i.i
  %12 = load ptr, ptr %retval.0.i.i.i.i.i.i, align 8, !noalias !80
  %name_.i.i.i = getelementptr inbounds i8, ptr %12, i64 176
  %13 = load ptr, ptr %name_.i.i.i, align 8, !noalias !80
  %14 = ptrtoint ptr %13 to i64
  %and.i.i.i.i = and i64 %14, -4
  %15 = inttoptr i64 %and.i.i.i.i to ptr
  %vtable.i = load ptr, ptr %call35.i, align 8, !noalias !80
  %vfn.i = getelementptr inbounds i8, ptr %vtable.i, i64 16
  %16 = load ptr, ptr %vfn.i, align 8, !noalias !80
  %call50.i = invoke noundef zeroext i1 %16(ptr noundef nonnull align 8 dereferenceable(104) %call35.i, ptr noundef nonnull align 8 dereferenceable(32) %15, ptr noundef nonnull %previously_added_file_descriptor_proto.i)
          to label %invoke.cont49.i unwind label %lpad44.i, !noalias !80

invoke.cont49.i:                                  ; preds = %invoke.cont47.i
  br i1 %call50.i, label %for.inc.i, label %invoke.cont54.i

lpad36.i:                                         ; preds = %invoke.cont34.i
  %17 = landingpad { ptr, i32 }
          cleanup
  call void @_ZdlPv(ptr noundef nonnull %call35.i) #31, !noalias !80
  br label %ehcleanup62.i

lpad38.i:                                         ; preds = %for.body.i
  %18 = landingpad { ptr, i32 }
          cleanup
  br label %_ZNSt10unique_ptrIN6google8protobuf24SimpleDescriptorDatabaseESt14default_deleteIS2_EED2Ev.exit24.i

lpad44.i:                                         ; preds = %invoke.cont54.i, %invoke.cont47.i
  %19 = landingpad { ptr, i32 }
          cleanup
  call void @_ZN6google8protobuf19FileDescriptorProtoD1Ev(ptr noundef nonnull align 8 dereferenceable(224) %previously_added_file_descriptor_proto.i) #29, !noalias !80
  br label %_ZNSt10unique_ptrIN6google8protobuf24SimpleDescriptorDatabaseESt14default_deleteIS2_EED2Ev.exit24.i

invoke.cont54.i:                                  ; preds = %invoke.cont49.i
  %20 = load ptr, ptr %2, align 8, !noalias !80
  %21 = ptrtoint ptr %20 to i64
  %and.i.i.i.i.i.i13.i = and i64 %21, 1
  %cmp.i.i.i.i.i.i14.i = icmp eq i64 %and.i.i.i.i.i.i13.i, 0
  %sub.i.i.i.i.i.i15.i = add i64 %21, -1
  %22 = inttoptr i64 %sub.i.i.i.i.i.i15.i to ptr
  %elements.i.i.i.i.i16.i = getelementptr inbounds i8, ptr %22, i64 8
  %arrayidx.i.i.i.i.i18.i = getelementptr inbounds [268435454 x ptr], ptr %elements.i.i.i.i.i16.i, i64 0, i64 %indvars.iv.i
  %retval.0.i.i.i.i.i19.i = select i1 %cmp.i.i.i.i.i.i14.i, ptr %2, ptr %arrayidx.i.i.i.i.i18.i
  %23 = load ptr, ptr %retval.0.i.i.i.i.i19.i, align 8, !noalias !80
  %call57.i = invoke noundef zeroext i1 @_ZN6google8protobuf24SimpleDescriptorDatabase3AddERKNS0_19FileDescriptorProtoE(ptr noundef nonnull align 8 dereferenceable(104) %call35.i, ptr noundef nonnull align 8 dereferenceable(224) %23)
          to label %invoke.cont56.i unwind label %lpad44.i, !noalias !80

invoke.cont56.i:                                  ; preds = %invoke.cont54.i
  br i1 %call57.i, label %for.inc.i, label %_ZNKSt14default_deleteIN6google8protobuf24SimpleDescriptorDatabaseEEclEPS2_.exit.i.i

for.inc.i:                                        ; preds = %invoke.cont56.i, %invoke.cont49.i
  call void @_ZN6google8protobuf19FileDescriptorProtoD1Ev(ptr noundef nonnull align 8 dereferenceable(224) %previously_added_file_descriptor_proto.i) #29, !noalias !80
  %indvars.iv.next.i = add nuw nsw i64 %indvars.iv.i, 1
  %24 = load i32, ptr %current_size_.i.i.i.i.i, align 8, !noalias !80
  %25 = sext i32 %24 to i64
  %cmp41.i = icmp slt i64 %indvars.iv.next.i, %25
  br i1 %cmp41.i, label %for.body.i, label %if.end, !llvm.loop !84

_ZNKSt14default_deleteIN6google8protobuf24SimpleDescriptorDatabaseEEclEPS2_.exit.i.i: ; preds = %invoke.cont56.i
  call void @_ZN6google8protobuf19FileDescriptorProtoD1Ev(ptr noundef nonnull align 8 dereferenceable(224) %previously_added_file_descriptor_proto.i) #29, !noalias !80
  %vtable.i.i.i = load ptr, ptr %call35.i, align 8, !noalias !80
  %vfn.i.i.i = getelementptr inbounds i8, ptr %vtable.i.i.i, i64 8
  %26 = load ptr, ptr %vfn.i.i.i, align 8, !noalias !80
  call void %26(ptr noundef nonnull align 8 dereferenceable(104) %call35.i) #29, !noalias !80
  br label %invoke.cont.thread353

_ZNSt10unique_ptrIN6google8protobuf24SimpleDescriptorDatabaseESt14default_deleteIS2_EED2Ev.exit24.i: ; preds = %lpad44.i, %lpad38.i
  %.pn.i = phi { ptr, i32 } [ %19, %lpad44.i ], [ %18, %lpad38.i ]
  %vtable.i.i22.i = load ptr, ptr %call35.i, align 8, !noalias !80
  %vfn.i.i23.i = getelementptr inbounds i8, ptr %vtable.i.i22.i, i64 8
  %27 = load ptr, ptr %vfn.i.i23.i, align 8, !noalias !80
  call void %27(ptr noundef nonnull align 8 dereferenceable(104) %call35.i) #29, !noalias !80
  br label %ehcleanup62.i

ehcleanup62.i:                                    ; preds = %lpad.i.loopexit, %lpad.i.loopexit.split-lp, %_ZNSt10unique_ptrIN6google8protobuf24SimpleDescriptorDatabaseESt14default_deleteIS2_EED2Ev.exit24.i, %lpad36.i
  %.pn11.i = phi { ptr, i32 } [ %.pn.i, %_ZNSt10unique_ptrIN6google8protobuf24SimpleDescriptorDatabaseESt14default_deleteIS2_EED2Ev.exit24.i ], [ %17, %lpad36.i ], [ %lpad.loopexit450, %lpad.i.loopexit ], [ %lpad.loopexit.split-lp451, %lpad.i.loopexit.split-lp ]
  call void @_ZN6google8protobuf17FileDescriptorSetD1Ev(ptr noundef nonnull align 8 dereferenceable(48) %file_descriptor_set.i) #29, !noalias !80
  br label %_ZNSt10unique_ptrIN6google8protobuf24MergedDescriptorDatabaseESt14default_deleteIS2_EED2Ev.exit283

invoke.cont.thread353:                            ; preds = %invoke.cont21.i.invoke, %_ZNKSt14default_deleteIN6google8protobuf24SimpleDescriptorDatabaseEEclEPS2_.exit.i.i
  call void @_ZN6google8protobuf17FileDescriptorSetD1Ev(ptr noundef nonnull align 8 dereferenceable(48) %file_descriptor_set.i) #29, !noalias !80
  call void @llvm.lifetime.end.p0(i64 48, ptr nonnull %file_descriptor_set.i)
  call void @llvm.lifetime.end.p0(i64 224, ptr nonnull %previously_added_file_descriptor_proto.i)
  br label %_ZNSt10unique_ptrIN6google8protobuf24MergedDescriptorDatabaseESt14default_deleteIS2_EED2Ev.exit

lpad.loopexit430:                                 ; preds = %for.body135
  %lpad.loopexit432 = landingpad { ptr, i32 }
          cleanup
  br label %ehcleanup373

lpad.loopexit.split-lp431.loopexit:               ; preds = %for.body16.i.i
  %lpad.loopexit435 = landingpad { ptr, i32 }
          cleanup
  br label %ehcleanup373

lpad.loopexit.split-lp431.loopexit.split-lp.loopexit: ; preds = %for.body.i.i
  %lpad.loopexit438 = landingpad { ptr, i32 }
          cleanup
  br label %ehcleanup373

lpad.loopexit.split-lp431.loopexit.split-lp.loopexit.split-lp.loopexit: ; preds = %do.body.i
  %lpad.loopexit444 = landingpad { ptr, i32 }
          cleanup
  br label %_ZNSt10unique_ptrIN6google8protobuf24MergedDescriptorDatabaseESt14default_deleteIS2_EED2Ev.exit283

lpad.loopexit.split-lp431.loopexit.split-lp.loopexit.split-lp.loopexit.split-lp.loopexit: ; preds = %if.end.i
  %lpad.loopexit447 = landingpad { ptr, i32 }
          cleanup
  br label %_ZNSt10unique_ptrIN6google8protobuf24MergedDescriptorDatabaseESt14default_deleteIS2_EED2Ev.exit283

lpad.loopexit.split-lp431.loopexit.split-lp.loopexit.split-lp.loopexit.split-lp.loopexit.split-lp: ; preds = %if.then41, %if.end46, %_ZNSt10unique_ptrIN6google8protobuf8compiler20CommandLineInterface12ErrorPrinterESt14default_deleteIS4_EE5resetEPS4_.exit, %if.else, %_ZNSt10unique_ptrIN6google8protobuf8compiler14DiskSourceTreeESt14default_deleteIS3_EE5resetEPS3_.exit, %if.end69, %_ZNSt10unique_ptrIN6google8protobuf8compiler20CommandLineInterface12ErrorPrinterESt14default_deleteIS4_EE5resetEPS4_.exit95, %_ZNSt10unique_ptrIN6google8protobuf8compiler28SourceTreeDescriptorDatabaseESt14default_deleteIS3_EE5resetEPS3_.exit, %if.end96, %if.end107, %if.then.i, %call5.i.noexc, %call6.i.noexc, %call8.i.noexc
  %source_tree_database.sroa.0.0.ph.ph.ph.ph.ph = phi ptr [ null, %if.then.i ], [ null, %call5.i.noexc ], [ null, %call6.i.noexc ], [ null, %call8.i.noexc ], [ null, %if.else ], [ null, %_ZNSt10unique_ptrIN6google8protobuf8compiler14DiskSourceTreeESt14default_deleteIS3_EE5resetEPS3_.exit ], [ null, %if.end69 ], [ null, %_ZNSt10unique_ptrIN6google8protobuf8compiler20CommandLineInterface12ErrorPrinterESt14default_deleteIS4_EE5resetEPS4_.exit95 ], [ %call78, %_ZNSt10unique_ptrIN6google8protobuf8compiler28SourceTreeDescriptorDatabaseESt14default_deleteIS3_EE5resetEPS3_.exit ], [ null, %if.then41 ], [ null, %if.end46 ], [ null, %_ZNSt10unique_ptrIN6google8protobuf8compiler20CommandLineInterface12ErrorPrinterESt14default_deleteIS4_EE5resetEPS4_.exit ], [ %source_tree_database.sroa.0.2, %if.end96 ], [ %source_tree_database.sroa.0.2, %if.end107 ]
  %descriptor_set_in_database.sroa.0.0.ph.ph.ph.ph.ph = phi ptr [ null, %if.then.i ], [ null, %call5.i.noexc ], [ null, %call6.i.noexc ], [ null, %call8.i.noexc ], [ %descriptor_set_in_database.sroa.0.2, %if.else ], [ %descriptor_set_in_database.sroa.0.2, %_ZNSt10unique_ptrIN6google8protobuf8compiler14DiskSourceTreeESt14default_deleteIS3_EE5resetEPS3_.exit ], [ %descriptor_set_in_database.sroa.0.2, %if.end69 ], [ %descriptor_set_in_database.sroa.0.2, %_ZNSt10unique_ptrIN6google8protobuf8compiler20CommandLineInterface12ErrorPrinterESt14default_deleteIS4_EE5resetEPS4_.exit95 ], [ %descriptor_set_in_database.sroa.0.2, %_ZNSt10unique_ptrIN6google8protobuf8compiler28SourceTreeDescriptorDatabaseESt14default_deleteIS3_EE5resetEPS3_.exit ], [ %descriptor_set_in_database.sroa.0.2, %if.then41 ], [ %descriptor_set_in_database.sroa.0.2, %if.end46 ], [ %descriptor_set_in_database.sroa.0.2, %_ZNSt10unique_ptrIN6google8protobuf8compiler20CommandLineInterface12ErrorPrinterESt14default_deleteIS4_EE5resetEPS4_.exit ], [ %descriptor_set_in_database.sroa.0.2, %if.end96 ], [ %descriptor_set_in_database.sroa.0.2, %if.end107 ]
  %disk_source_tree.sroa.0.0.ph.ph.ph.ph.ph = phi ptr [ null, %if.then.i ], [ null, %call5.i.noexc ], [ null, %call6.i.noexc ], [ null, %call8.i.noexc ], [ null, %if.else ], [ %call60, %_ZNSt10unique_ptrIN6google8protobuf8compiler14DiskSourceTreeESt14default_deleteIS3_EE5resetEPS3_.exit ], [ %call60, %if.end69 ], [ %call60, %_ZNSt10unique_ptrIN6google8protobuf8compiler20CommandLineInterface12ErrorPrinterESt14default_deleteIS4_EE5resetEPS4_.exit95 ], [ %call60, %_ZNSt10unique_ptrIN6google8protobuf8compiler28SourceTreeDescriptorDatabaseESt14default_deleteIS3_EE5resetEPS3_.exit ], [ null, %if.then41 ], [ null, %if.end46 ], [ null, %_ZNSt10unique_ptrIN6google8protobuf8compiler20CommandLineInterface12ErrorPrinterESt14default_deleteIS4_EE5resetEPS4_.exit ], [ %disk_source_tree.sroa.0.2, %if.end96 ], [ %disk_source_tree.sroa.0.2, %if.end107 ]
  %lpad.loopexit.split-lp448 = landingpad { ptr, i32 }
          cleanup
  br label %ehcleanup373

if.end:                                           ; preds = %for.inc.i, %invoke.cont39.preheader.i
  call void @_ZN6google8protobuf17FileDescriptorSetD1Ev(ptr noundef nonnull align 8 dereferenceable(48) %file_descriptor_set.i) #29, !noalias !80
  call void @llvm.lifetime.end.p0(i64 48, ptr nonnull %file_descriptor_set.i)
  call void @llvm.lifetime.end.p0(i64 224, ptr nonnull %previously_added_file_descriptor_proto.i)
  %28 = load ptr, ptr %_M_end_of_storage.i.i, align 8
  %cmp.not.i.i = icmp eq ptr %3, %28
  br i1 %cmp.not.i.i, label %if.else.i.i, label %if.then.i.i

if.then.i.i:                                      ; preds = %if.end
  %29 = ptrtoint ptr %call35.i to i64
  store i64 %29, ptr %3, align 8
  %30 = load ptr, ptr %_M_finish.i.i40, align 8
  %incdec.ptr.i.i = getelementptr inbounds i8, ptr %30, i64 8
  store ptr %incdec.ptr.i.i, ptr %_M_finish.i.i40, align 8
  br label %for.inc

if.else.i.i:                                      ; preds = %if.end
  %31 = load ptr, ptr %databases_per_descriptor_set, align 8
  %sub.ptr.lhs.cast.i.i.i = ptrtoint ptr %3 to i64
  %sub.ptr.rhs.cast.i.i.i = ptrtoint ptr %31 to i64
  %sub.ptr.sub.i.i.i = sub i64 %sub.ptr.lhs.cast.i.i.i, %sub.ptr.rhs.cast.i.i.i
  %cmp.i.i300 = icmp eq i64 %sub.ptr.sub.i.i.i, 9223372036854775800
  br i1 %cmp.i.i300, label %if.then.i.i313, label %_ZNKSt6vectorISt10unique_ptrIN6google8protobuf24SimpleDescriptorDatabaseESt14default_deleteIS3_EESaIS6_EE12_M_check_lenEmPKc.exit.i

if.then.i.i313:                                   ; preds = %if.else.i.i
  invoke void @_ZSt20__throw_length_errorPKc(ptr noundef nonnull @.str.168) #35
          to label %.noexc314 unwind label %_ZNSt10unique_ptrIN6google8protobuf24SimpleDescriptorDatabaseESt14default_deleteIS2_EED2Ev.exit48.loopexit.split-lp

.noexc314:                                        ; preds = %if.then.i.i313
  unreachable

_ZNKSt6vectorISt10unique_ptrIN6google8protobuf24SimpleDescriptorDatabaseESt14default_deleteIS3_EESaIS6_EE12_M_check_lenEmPKc.exit.i: ; preds = %if.else.i.i
  %sub.ptr.div.i.i.i = ashr exact i64 %sub.ptr.sub.i.i.i, 3
  %.sroa.speculated.i.i = call i64 @llvm.umax.i64(i64 %sub.ptr.div.i.i.i, i64 1)
  %add.i.i = add i64 %.sroa.speculated.i.i, %sub.ptr.div.i.i.i
  %cmp7.i.i301 = icmp ult i64 %add.i.i, %sub.ptr.div.i.i.i
  %cmp9.i.i = icmp ugt i64 %add.i.i, 1152921504606846975
  %or.cond.i.i = or i1 %cmp7.i.i301, %cmp9.i.i
  %cond.i.i = select i1 %or.cond.i.i, i64 1152921504606846975, i64 %add.i.i
  %cmp.not.i.i305 = icmp eq i64 %cond.i.i, 0
  br i1 %cmp.not.i.i305, label %_ZNSt12_Vector_baseISt10unique_ptrIN6google8protobuf24SimpleDescriptorDatabaseESt14default_deleteIS3_EESaIS6_EE11_M_allocateEm.exit.i, label %_ZNSt16allocator_traitsISaISt10unique_ptrIN6google8protobuf24SimpleDescriptorDatabaseESt14default_deleteIS3_EEEE8allocateERS7_m.exit.i.i

_ZNSt16allocator_traitsISaISt10unique_ptrIN6google8protobuf24SimpleDescriptorDatabaseESt14default_deleteIS3_EEEE8allocateERS7_m.exit.i.i: ; preds = %_ZNKSt6vectorISt10unique_ptrIN6google8protobuf24SimpleDescriptorDatabaseESt14default_deleteIS3_EESaIS6_EE12_M_check_lenEmPKc.exit.i
  %mul.i.i.i.i = shl nuw nsw i64 %cond.i.i, 3
  %call5.i.i.i.i306315 = invoke noalias noundef nonnull ptr @_Znwm(i64 noundef %mul.i.i.i.i) #32
          to label %_ZNSt12_Vector_baseISt10unique_ptrIN6google8protobuf24SimpleDescriptorDatabaseESt14default_deleteIS3_EESaIS6_EE11_M_allocateEm.exit.i unwind label %_ZNSt10unique_ptrIN6google8protobuf24SimpleDescriptorDatabaseESt14default_deleteIS2_EED2Ev.exit48.loopexit

_ZNSt12_Vector_baseISt10unique_ptrIN6google8protobuf24SimpleDescriptorDatabaseESt14default_deleteIS3_EESaIS6_EE11_M_allocateEm.exit.i: ; preds = %_ZNSt16allocator_traitsISaISt10unique_ptrIN6google8protobuf24SimpleDescriptorDatabaseESt14default_deleteIS3_EEEE8allocateERS7_m.exit.i.i, %_ZNKSt6vectorISt10unique_ptrIN6google8protobuf24SimpleDescriptorDatabaseESt14default_deleteIS3_EESaIS6_EE12_M_check_lenEmPKc.exit.i
  %cond.i10.i = phi ptr [ null, %_ZNKSt6vectorISt10unique_ptrIN6google8protobuf24SimpleDescriptorDatabaseESt14default_deleteIS3_EESaIS6_EE12_M_check_lenEmPKc.exit.i ], [ %call5.i.i.i.i306315, %_ZNSt16allocator_traitsISaISt10unique_ptrIN6google8protobuf24SimpleDescriptorDatabaseESt14default_deleteIS3_EEEE8allocateERS7_m.exit.i.i ]
  %add.ptr.i307 = getelementptr inbounds %"class.std::unique_ptr.178", ptr %cond.i10.i, i64 %sub.ptr.div.i.i.i
  %32 = ptrtoint ptr %call35.i to i64
  store i64 %32, ptr %add.ptr.i307, align 8
  %cmp.not5.i.i.i.i = icmp eq ptr %31, %3
  br i1 %cmp.not5.i.i.i.i, label %_ZNSt6vectorISt10unique_ptrIN6google8protobuf24SimpleDescriptorDatabaseESt14default_deleteIS3_EESaIS6_EE11_S_relocateEPS6_S9_S9_RS7_.exit19.i, label %for.body.i.i.i.i308

for.body.i.i.i.i308:                              ; preds = %_ZNSt12_Vector_baseISt10unique_ptrIN6google8protobuf24SimpleDescriptorDatabaseESt14default_deleteIS3_EESaIS6_EE11_M_allocateEm.exit.i, %for.body.i.i.i.i308
  %__cur.07.i.i.i.i = phi ptr [ %incdec.ptr1.i.i.i.i, %for.body.i.i.i.i308 ], [ %cond.i10.i, %_ZNSt12_Vector_baseISt10unique_ptrIN6google8protobuf24SimpleDescriptorDatabaseESt14default_deleteIS3_EESaIS6_EE11_M_allocateEm.exit.i ]
  %__first.addr.06.i.i.i.i = phi ptr [ %incdec.ptr.i.i.i.i309, %for.body.i.i.i.i308 ], [ %31, %_ZNSt12_Vector_baseISt10unique_ptrIN6google8protobuf24SimpleDescriptorDatabaseESt14default_deleteIS3_EESaIS6_EE11_M_allocateEm.exit.i ]
  call void @llvm.experimental.noalias.scope.decl(metadata !85)
  call void @llvm.experimental.noalias.scope.decl(metadata !88)
  %33 = load i64, ptr %__first.addr.06.i.i.i.i, align 8, !alias.scope !88, !noalias !85
  store i64 %33, ptr %__cur.07.i.i.i.i, align 8, !alias.scope !85, !noalias !88
  store ptr null, ptr %__first.addr.06.i.i.i.i, align 8, !alias.scope !88, !noalias !85
  %incdec.ptr.i.i.i.i309 = getelementptr inbounds i8, ptr %__first.addr.06.i.i.i.i, i64 8
  %incdec.ptr1.i.i.i.i = getelementptr inbounds i8, ptr %__cur.07.i.i.i.i, i64 8
  %cmp.not.i.i.i.i310 = icmp eq ptr %incdec.ptr.i.i.i.i309, %3
  br i1 %cmp.not.i.i.i.i310, label %_ZNSt6vectorISt10unique_ptrIN6google8protobuf24SimpleDescriptorDatabaseESt14default_deleteIS3_EESaIS6_EE11_S_relocateEPS6_S9_S9_RS7_.exit19.i, label %for.body.i.i.i.i308, !llvm.loop !90

_ZNSt6vectorISt10unique_ptrIN6google8protobuf24SimpleDescriptorDatabaseESt14default_deleteIS3_EESaIS6_EE11_S_relocateEPS6_S9_S9_RS7_.exit19.i: ; preds = %for.body.i.i.i.i308, %_ZNSt12_Vector_baseISt10unique_ptrIN6google8protobuf24SimpleDescriptorDatabaseESt14default_deleteIS3_EESaIS6_EE11_M_allocateEm.exit.i
  %__cur.0.lcssa.i.i.i.i = phi ptr [ %cond.i10.i, %_ZNSt12_Vector_baseISt10unique_ptrIN6google8protobuf24SimpleDescriptorDatabaseESt14default_deleteIS3_EESaIS6_EE11_M_allocateEm.exit.i ], [ %incdec.ptr1.i.i.i.i, %for.body.i.i.i.i308 ]
  %incdec.ptr.i311 = getelementptr i8, ptr %__cur.0.lcssa.i.i.i.i, i64 8
  %tobool.not.i.i312 = icmp eq ptr %31, null
  br i1 %tobool.not.i.i312, label %.noexc41, label %if.then.i20.i

if.then.i20.i:                                    ; preds = %_ZNSt6vectorISt10unique_ptrIN6google8protobuf24SimpleDescriptorDatabaseESt14default_deleteIS3_EESaIS6_EE11_S_relocateEPS6_S9_S9_RS7_.exit19.i
  call void @_ZdlPv(ptr noundef nonnull %31) #31
  br label %.noexc41

.noexc41:                                         ; preds = %if.then.i20.i, %_ZNSt6vectorISt10unique_ptrIN6google8protobuf24SimpleDescriptorDatabaseESt14default_deleteIS3_EESaIS6_EE11_S_relocateEPS6_S9_S9_RS7_.exit19.i
  store ptr %cond.i10.i, ptr %databases_per_descriptor_set, align 8
  store ptr %incdec.ptr.i311, ptr %_M_finish.i.i40, align 8
  %add.ptr19.i = getelementptr inbounds %"class.std::unique_ptr.178", ptr %cond.i10.i, i64 %cond.i.i
  store ptr %add.ptr19.i, ptr %_M_end_of_storage.i.i, align 8
  br label %for.inc

for.inc:                                          ; preds = %.noexc41, %if.then.i.i
  %34 = phi ptr [ %incdec.ptr.i311, %.noexc41 ], [ %incdec.ptr.i.i, %if.then.i.i ]
  %incdec.ptr.i = getelementptr inbounds i8, ptr %__begin3.sroa.0.0476, i64 32
  %cmp.i.not = icmp eq ptr %incdec.ptr.i, %1
  br i1 %cmp.i.not, label %for.end, label %for.body

_ZNSt10unique_ptrIN6google8protobuf24SimpleDescriptorDatabaseESt14default_deleteIS2_EED2Ev.exit48.loopexit: ; preds = %_ZNSt16allocator_traitsISaISt10unique_ptrIN6google8protobuf24SimpleDescriptorDatabaseESt14default_deleteIS3_EEEE8allocateERS7_m.exit.i.i
  %lpad.loopexit453 = landingpad { ptr, i32 }
          cleanup
  br label %_ZNSt10unique_ptrIN6google8protobuf24SimpleDescriptorDatabaseESt14default_deleteIS2_EED2Ev.exit48

_ZNSt10unique_ptrIN6google8protobuf24SimpleDescriptorDatabaseESt14default_deleteIS2_EED2Ev.exit48.loopexit.split-lp: ; preds = %if.then.i.i313
  %lpad.loopexit.split-lp454 = landingpad { ptr, i32 }
          cleanup
  br label %_ZNSt10unique_ptrIN6google8protobuf24SimpleDescriptorDatabaseESt14default_deleteIS2_EED2Ev.exit48

_ZNSt10unique_ptrIN6google8protobuf24SimpleDescriptorDatabaseESt14default_deleteIS2_EED2Ev.exit48: ; preds = %_ZNSt10unique_ptrIN6google8protobuf24SimpleDescriptorDatabaseESt14default_deleteIS2_EED2Ev.exit48.loopexit.split-lp, %_ZNSt10unique_ptrIN6google8protobuf24SimpleDescriptorDatabaseESt14default_deleteIS2_EED2Ev.exit48.loopexit
  %lpad.phi455 = phi { ptr, i32 } [ %lpad.loopexit453, %_ZNSt10unique_ptrIN6google8protobuf24SimpleDescriptorDatabaseESt14default_deleteIS2_EED2Ev.exit48.loopexit ], [ %lpad.loopexit.split-lp454, %_ZNSt10unique_ptrIN6google8protobuf24SimpleDescriptorDatabaseESt14default_deleteIS2_EED2Ev.exit48.loopexit.split-lp ]
  %vtable.i.i45 = load ptr, ptr %call35.i, align 8
  %vfn.i.i46 = getelementptr inbounds i8, ptr %vtable.i.i45, i64 8
  %35 = load ptr, ptr %vfn.i.i46, align 8
  call void %35(ptr noundef nonnull align 8 dereferenceable(104) %call35.i) #29
  br label %_ZNSt10unique_ptrIN6google8protobuf24MergedDescriptorDatabaseESt14default_deleteIS2_EED2Ev.exit283

for.end:                                          ; preds = %for.inc
  call void @llvm.memset.p0.i64(ptr noundef nonnull align 8 dereferenceable(24) %raw_databases_per_descriptor_set, i8 0, i64 24, i1 false)
  %36 = load ptr, ptr %databases_per_descriptor_set, align 8
  %sub.ptr.lhs.cast.i = ptrtoint ptr %34 to i64
  %sub.ptr.rhs.cast.i = ptrtoint ptr %36 to i64
  %sub.ptr.sub.i = sub i64 %sub.ptr.lhs.cast.i, %sub.ptr.rhs.cast.i
  %sub.ptr.div.i = ashr exact i64 %sub.ptr.sub.i, 3
  %cmp.i50 = icmp ugt i64 %sub.ptr.div.i, 1152921504606846975
  br i1 %cmp.i50, label %if.then.i56.invoke, label %if.end.i51

if.then.i56.invoke:                               ; preds = %if.else.i.i66, %for.end
  %37 = phi ptr [ @.str.181, %for.end ], [ @.str.168, %if.else.i.i66 ]
  invoke void @_ZSt20__throw_length_errorPKc(ptr noundef nonnull %37) #35
          to label %if.then.i56.cont unwind label %lpad17.loopexit.split-lp

if.then.i56.cont:                                 ; preds = %if.then.i56.invoke
  unreachable

if.end.i51:                                       ; preds = %for.end
  %_M_end_of_storage.i.i52 = getelementptr inbounds i8, ptr %raw_databases_per_descriptor_set, i64 16
  %cmp3.i53.not = icmp eq ptr %34, %36
  br i1 %cmp3.i53.not, label %invoke.cont18, label %_ZNSt12_Vector_baseIPN6google8protobuf18DescriptorDatabaseESaIS3_EE11_M_allocateEm.exit.i

_ZNSt12_Vector_baseIPN6google8protobuf18DescriptorDatabaseESaIS3_EE11_M_allocateEm.exit.i: ; preds = %if.end.i51
  %call5.i.i.i.i58 = invoke noalias noundef nonnull ptr @_Znwm(i64 noundef %sub.ptr.sub.i) #32
          to label %_ZNSt12_Vector_baseIPN6google8protobuf18DescriptorDatabaseESaIS3_EE13_M_deallocateEPS3_m.exit.i unwind label %lpad17.loopexit.split-lp

_ZNSt12_Vector_baseIPN6google8protobuf18DescriptorDatabaseESaIS3_EE13_M_deallocateEPS3_m.exit.i: ; preds = %_ZNSt12_Vector_baseIPN6google8protobuf18DescriptorDatabaseESaIS3_EE11_M_allocateEm.exit.i
  %_M_finish.i.i54 = getelementptr inbounds i8, ptr %raw_databases_per_descriptor_set, i64 8
  store ptr %call5.i.i.i.i58, ptr %raw_databases_per_descriptor_set, align 8
  store ptr %call5.i.i.i.i58, ptr %_M_finish.i.i54, align 8
  %add.ptr21.i = getelementptr inbounds ptr, ptr %call5.i.i.i.i58, i64 %sub.ptr.div.i
  store ptr %add.ptr21.i, ptr %_M_end_of_storage.i.i52, align 8
  br label %invoke.cont18

invoke.cont18:                                    ; preds = %_ZNSt12_Vector_baseIPN6google8protobuf18DescriptorDatabaseESaIS3_EE13_M_deallocateEPS3_m.exit.i, %if.end.i51
  %38 = phi ptr [ %call5.i.i.i.i58, %_ZNSt12_Vector_baseIPN6google8protobuf18DescriptorDatabaseESaIS3_EE13_M_deallocateEPS3_m.exit.i ], [ null, %if.end.i51 ]
  %cmp.i60.not477 = icmp eq ptr %36, %34
  br i1 %cmp.i60.not477, label %for.end34, label %for.body28.lr.ph

for.body28.lr.ph:                                 ; preds = %invoke.cont18
  %_M_finish.i.i61 = getelementptr inbounds i8, ptr %raw_databases_per_descriptor_set, i64 8
  br label %for.body28

for.body28:                                       ; preds = %for.body28.lr.ph, %for.inc32
  %39 = phi ptr [ %38, %for.body28.lr.ph ], [ %44, %for.inc32 ]
  %__begin320.sroa.0.0478 = phi ptr [ %36, %for.body28.lr.ph ], [ %incdec.ptr.i69, %for.inc32 ]
  %40 = load ptr, ptr %__begin320.sroa.0.0478, align 8
  %41 = load ptr, ptr %_M_end_of_storage.i.i52, align 8
  %cmp.not.i.i63 = icmp eq ptr %39, %41
  br i1 %cmp.not.i.i63, label %if.else.i.i66, label %if.then.i.i64

if.then.i.i64:                                    ; preds = %for.body28
  store ptr %40, ptr %39, align 8
  %42 = load ptr, ptr %_M_finish.i.i61, align 8
  %incdec.ptr.i.i65 = getelementptr inbounds i8, ptr %42, i64 8
  store ptr %incdec.ptr.i.i65, ptr %_M_finish.i.i61, align 8
  br label %for.inc32

if.else.i.i66:                                    ; preds = %for.body28
  %43 = load ptr, ptr %raw_databases_per_descriptor_set, align 8
  %sub.ptr.lhs.cast.i.i.i.i.i = ptrtoint ptr %39 to i64
  %sub.ptr.rhs.cast.i.i.i.i.i = ptrtoint ptr %43 to i64
  %sub.ptr.sub.i.i.i.i.i = sub i64 %sub.ptr.lhs.cast.i.i.i.i.i, %sub.ptr.rhs.cast.i.i.i.i.i
  %cmp.i.i.i.i = icmp eq i64 %sub.ptr.sub.i.i.i.i.i, 9223372036854775800
  br i1 %cmp.i.i.i.i, label %if.then.i56.invoke, label %_ZNKSt6vectorIPN6google8protobuf18DescriptorDatabaseESaIS3_EE12_M_check_lenEmPKc.exit.i.i.i

_ZNKSt6vectorIPN6google8protobuf18DescriptorDatabaseESaIS3_EE12_M_check_lenEmPKc.exit.i.i.i: ; preds = %if.else.i.i66
  %sub.ptr.div.i.i.i.i.i = ashr exact i64 %sub.ptr.sub.i.i.i.i.i, 3
  %.sroa.speculated.i.i.i.i = call i64 @llvm.umax.i64(i64 %sub.ptr.div.i.i.i.i.i, i64 1)
  %add.i.i.i.i = add i64 %.sroa.speculated.i.i.i.i, %sub.ptr.div.i.i.i.i.i
  %cmp7.i.i.i.i = icmp ult i64 %add.i.i.i.i, %sub.ptr.div.i.i.i.i.i
  %cmp9.i.i.i.i = icmp ugt i64 %add.i.i.i.i, 1152921504606846975
  %or.cond.i.i.i.i = or i1 %cmp7.i.i.i.i, %cmp9.i.i.i.i
  %cond.i.i.i.i = select i1 %or.cond.i.i.i.i, i64 1152921504606846975, i64 %add.i.i.i.i
  %cmp.not.i.i.i.i = icmp eq i64 %cond.i.i.i.i, 0
  br i1 %cmp.not.i.i.i.i, label %_ZNSt12_Vector_baseIPN6google8protobuf18DescriptorDatabaseESaIS3_EE11_M_allocateEm.exit.i.i.i, label %_ZNSt16allocator_traitsISaIPN6google8protobuf18DescriptorDatabaseEEE8allocateERS4_m.exit.i.i.i.i

_ZNSt16allocator_traitsISaIPN6google8protobuf18DescriptorDatabaseEEE8allocateERS4_m.exit.i.i.i.i: ; preds = %_ZNKSt6vectorIPN6google8protobuf18DescriptorDatabaseESaIS3_EE12_M_check_lenEmPKc.exit.i.i.i
  %mul.i.i.i.i.i.i = shl nuw nsw i64 %cond.i.i.i.i, 3
  %call5.i.i.i.i.i.i68 = invoke noalias noundef nonnull ptr @_Znwm(i64 noundef %mul.i.i.i.i.i.i) #32
          to label %_ZNSt12_Vector_baseIPN6google8protobuf18DescriptorDatabaseESaIS3_EE11_M_allocateEm.exit.i.i.i unwind label %lpad17.loopexit

_ZNSt12_Vector_baseIPN6google8protobuf18DescriptorDatabaseESaIS3_EE11_M_allocateEm.exit.i.i.i: ; preds = %_ZNSt16allocator_traitsISaIPN6google8protobuf18DescriptorDatabaseEEE8allocateERS4_m.exit.i.i.i.i, %_ZNKSt6vectorIPN6google8protobuf18DescriptorDatabaseESaIS3_EE12_M_check_lenEmPKc.exit.i.i.i
  %cond.i10.i.i.i = phi ptr [ null, %_ZNKSt6vectorIPN6google8protobuf18DescriptorDatabaseESaIS3_EE12_M_check_lenEmPKc.exit.i.i.i ], [ %call5.i.i.i.i.i.i68, %_ZNSt16allocator_traitsISaIPN6google8protobuf18DescriptorDatabaseEEE8allocateERS4_m.exit.i.i.i.i ]
  %add.ptr.i.i.i = getelementptr inbounds ptr, ptr %cond.i10.i.i.i, i64 %sub.ptr.div.i.i.i.i.i
  store ptr %40, ptr %add.ptr.i.i.i, align 8
  %cmp.i.i.i11.i.i.i = icmp sgt i64 %sub.ptr.div.i.i.i.i.i, 0
  br i1 %cmp.i.i.i11.i.i.i, label %if.then.i.i.i12.i.i.i, label %_ZNSt6vectorIPN6google8protobuf18DescriptorDatabaseESaIS3_EE11_S_relocateEPS3_S6_S6_RS4_.exit20.i.i.i

if.then.i.i.i12.i.i.i:                            ; preds = %_ZNSt12_Vector_baseIPN6google8protobuf18DescriptorDatabaseESaIS3_EE11_M_allocateEm.exit.i.i.i
  call void @llvm.memmove.p0.p0.i64(ptr nonnull align 8 %cond.i10.i.i.i, ptr align 8 %43, i64 %sub.ptr.sub.i.i.i.i.i, i1 false)
  br label %_ZNSt6vectorIPN6google8protobuf18DescriptorDatabaseESaIS3_EE11_S_relocateEPS3_S6_S6_RS4_.exit20.i.i.i

_ZNSt6vectorIPN6google8protobuf18DescriptorDatabaseESaIS3_EE11_S_relocateEPS3_S6_S6_RS4_.exit20.i.i.i: ; preds = %if.then.i.i.i12.i.i.i, %_ZNSt12_Vector_baseIPN6google8protobuf18DescriptorDatabaseESaIS3_EE11_M_allocateEm.exit.i.i.i
  %incdec.ptr.i.i.i = getelementptr inbounds i8, ptr %add.ptr.i.i.i, i64 8
  %tobool.not.i.i.i.i = icmp eq ptr %43, null
  br i1 %tobool.not.i.i.i.i, label %_ZNSt6vectorIPN6google8protobuf18DescriptorDatabaseESaIS3_EE17_M_realloc_insertIJS3_EEEvN9__gnu_cxx17__normal_iteratorIPS3_S5_EEDpOT_.exit.i.i, label %if.then.i21.i.i.i

if.then.i21.i.i.i:                                ; preds = %_ZNSt6vectorIPN6google8protobuf18DescriptorDatabaseESaIS3_EE11_S_relocateEPS3_S6_S6_RS4_.exit20.i.i.i
  call void @_ZdlPv(ptr noundef nonnull %43) #31
  br label %_ZNSt6vectorIPN6google8protobuf18DescriptorDatabaseESaIS3_EE17_M_realloc_insertIJS3_EEEvN9__gnu_cxx17__normal_iteratorIPS3_S5_EEDpOT_.exit.i.i

_ZNSt6vectorIPN6google8protobuf18DescriptorDatabaseESaIS3_EE17_M_realloc_insertIJS3_EEEvN9__gnu_cxx17__normal_iteratorIPS3_S5_EEDpOT_.exit.i.i: ; preds = %if.then.i21.i.i.i, %_ZNSt6vectorIPN6google8protobuf18DescriptorDatabaseESaIS3_EE11_S_relocateEPS3_S6_S6_RS4_.exit20.i.i.i
  store ptr %cond.i10.i.i.i, ptr %raw_databases_per_descriptor_set, align 8
  store ptr %incdec.ptr.i.i.i, ptr %_M_finish.i.i61, align 8
  %add.ptr19.i.i.i = getelementptr inbounds ptr, ptr %cond.i10.i.i.i, i64 %cond.i.i.i.i
  store ptr %add.ptr19.i.i.i, ptr %_M_end_of_storage.i.i52, align 8
  br label %for.inc32

for.inc32:                                        ; preds = %_ZNSt6vectorIPN6google8protobuf18DescriptorDatabaseESaIS3_EE17_M_realloc_insertIJS3_EEEvN9__gnu_cxx17__normal_iteratorIPS3_S5_EEDpOT_.exit.i.i, %if.then.i.i64
  %44 = phi ptr [ %incdec.ptr.i.i.i, %_ZNSt6vectorIPN6google8protobuf18DescriptorDatabaseESaIS3_EE17_M_realloc_insertIJS3_EEEvN9__gnu_cxx17__normal_iteratorIPS3_S5_EEDpOT_.exit.i.i ], [ %incdec.ptr.i.i65, %if.then.i.i64 ]
  %incdec.ptr.i69 = getelementptr inbounds i8, ptr %__begin320.sroa.0.0478, i64 8
  %cmp.i60.not = icmp eq ptr %incdec.ptr.i69, %34
  br i1 %cmp.i60.not, label %for.end34, label %for.body28

lpad17.loopexit:                                  ; preds = %_ZNSt16allocator_traitsISaIPN6google8protobuf18DescriptorDatabaseEEE8allocateERS4_m.exit.i.i.i.i
  %lpad.loopexit441 = landingpad { ptr, i32 }
          cleanup
  br label %ehcleanup

lpad17.loopexit.split-lp:                         ; preds = %if.then.i56.invoke, %for.end34, %_ZNSt12_Vector_baseIPN6google8protobuf18DescriptorDatabaseESaIS3_EE11_M_allocateEm.exit.i
  %lpad.loopexit.split-lp442 = landingpad { ptr, i32 }
          cleanup
  br label %ehcleanup

for.end34:                                        ; preds = %for.inc32, %invoke.cont18
  %call36 = invoke noalias noundef nonnull dereferenceable(32) ptr @_Znwm(i64 noundef 32) #32
          to label %invoke.cont35 unwind label %lpad17.loopexit.split-lp

invoke.cont35:                                    ; preds = %for.end34
  invoke void @_ZN6google8protobuf24MergedDescriptorDatabaseC1ERKSt6vectorIPNS0_18DescriptorDatabaseESaIS4_EE(ptr noundef nonnull align 8 dereferenceable(32) %call36, ptr noundef nonnull align 8 dereferenceable(24) %raw_databases_per_descriptor_set)
          to label %_ZNSt10unique_ptrIN6google8protobuf24MergedDescriptorDatabaseESt14default_deleteIS2_EE5resetEPS2_.exit unwind label %lpad37

_ZNSt10unique_ptrIN6google8protobuf24MergedDescriptorDatabaseESt14default_deleteIS2_EE5resetEPS2_.exit: ; preds = %invoke.cont35
  %45 = load ptr, ptr %raw_databases_per_descriptor_set, align 8
  %tobool.not.i.i.i = icmp eq ptr %45, null
  br i1 %tobool.not.i.i.i, label %if.end39, label %if.then.i.i.i

if.then.i.i.i:                                    ; preds = %_ZNSt10unique_ptrIN6google8protobuf24MergedDescriptorDatabaseESt14default_deleteIS2_EE5resetEPS2_.exit
  call void @_ZdlPv(ptr noundef nonnull %45) #31
  br label %if.end39

lpad37:                                           ; preds = %invoke.cont35
  %46 = landingpad { ptr, i32 }
          cleanup
  call void @_ZdlPv(ptr noundef nonnull %call36) #31
  br label %ehcleanup

ehcleanup:                                        ; preds = %lpad17.loopexit, %lpad17.loopexit.split-lp, %lpad37
  %.pn = phi { ptr, i32 } [ %46, %lpad37 ], [ %lpad.loopexit441, %lpad17.loopexit ], [ %lpad.loopexit.split-lp442, %lpad17.loopexit.split-lp ]
  %47 = load ptr, ptr %raw_databases_per_descriptor_set, align 8
  %tobool.not.i.i.i75 = icmp eq ptr %47, null
  br i1 %tobool.not.i.i.i75, label %_ZNSt10unique_ptrIN6google8protobuf24MergedDescriptorDatabaseESt14default_deleteIS2_EED2Ev.exit283, label %if.then.i.i.i76

if.then.i.i.i76:                                  ; preds = %ehcleanup
  call void @_ZdlPv(ptr noundef nonnull %47) #31
  br label %_ZNSt10unique_ptrIN6google8protobuf24MergedDescriptorDatabaseESt14default_deleteIS2_EED2Ev.exit283

if.end39:                                         ; preds = %if.then.i.i.i, %_ZNSt10unique_ptrIN6google8protobuf24MergedDescriptorDatabaseESt14default_deleteIS2_EE5resetEPS2_.exit, %sw.epilog
  %descriptor_set_in_database.sroa.0.2 = phi ptr [ null, %sw.epilog ], [ %call36, %_ZNSt10unique_ptrIN6google8protobuf24MergedDescriptorDatabaseESt14default_deleteIS2_EE5resetEPS2_.exit ], [ %call36, %if.then.i.i.i ]
  %proto_path_ = getelementptr inbounds i8, ptr %this, i64 264
  %48 = load ptr, ptr %proto_path_, align 8
  %_M_finish.i.i78 = getelementptr inbounds i8, ptr %this, i64 272
  %49 = load ptr, ptr %_M_finish.i.i78, align 8
  %cmp.i.i79 = icmp eq ptr %48, %49
  br i1 %cmp.i.i79, label %if.then41, label %if.else

if.then41:                                        ; preds = %if.end39
  %call44 = invoke noundef zeroext i1 @_ZN6google8protobuf8compiler20CommandLineInterface29VerifyInputFilesInDescriptorsEPNS0_18DescriptorDatabaseE(ptr noundef nonnull align 8 dereferenceable(574) %this, ptr noundef %descriptor_set_in_database.sroa.0.2)
          to label %invoke.cont43 unwind label %lpad.loopexit.split-lp431.loopexit.split-lp.loopexit.split-lp.loopexit.split-lp.loopexit.split-lp

invoke.cont43:                                    ; preds = %if.then41
  br i1 %call44, label %if.end46, label %_ZNSt10unique_ptrIN6google8protobuf8compiler28SourceTreeDescriptorDatabaseESt14default_deleteIS3_EED2Ev.exit

if.end46:                                         ; preds = %invoke.cont43
  %call48 = invoke noalias noundef nonnull dereferenceable(48) ptr @_Znwm(i64 noundef 48) #32
          to label %invoke.cont50 unwind label %lpad.loopexit.split-lp431.loopexit.split-lp.loopexit.split-lp.loopexit.split-lp.loopexit.split-lp

invoke.cont50:                                    ; preds = %if.end46
  %error_format_ = getelementptr inbounds i8, ptr %this, i64 256
  %50 = load i32, ptr %error_format_, align 8
  %51 = getelementptr inbounds i8, ptr %call48, i64 8
  %52 = getelementptr inbounds i8, ptr %call48, i64 16
  store ptr getelementptr inbounds ({ [10 x ptr], [6 x ptr], [6 x ptr] }, ptr @_ZTVN6google8protobuf8compiler20CommandLineInterface12ErrorPrinterE, i64 0, inrange i32 0, i64 2), ptr %call48, align 8
  store ptr getelementptr inbounds ({ [10 x ptr], [6 x ptr], [6 x ptr] }, ptr @_ZTVN6google8protobuf8compiler20CommandLineInterface12ErrorPrinterE, i64 0, inrange i32 1, i64 2), ptr %51, align 8
  store ptr getelementptr inbounds ({ [10 x ptr], [6 x ptr], [6 x ptr] }, ptr @_ZTVN6google8protobuf8compiler20CommandLineInterface12ErrorPrinterE, i64 0, inrange i32 2, i64 2), ptr %52, align 8
  %format_.i = getelementptr inbounds i8, ptr %call48, i64 24
  store i32 %50, ptr %format_.i, align 8
  %tree_.i = getelementptr inbounds i8, ptr %call48, i64 32
  store ptr null, ptr %tree_.i, align 8
  %found_errors_.i = getelementptr inbounds i8, ptr %call48, i64 40
  store i8 0, ptr %found_errors_.i, align 8
  %found_warnings_.i = getelementptr inbounds i8, ptr %call48, i64 41
  store i8 0, ptr %found_warnings_.i, align 1
  %53 = load ptr, ptr %error_collector, align 8
  store ptr %call48, ptr %error_collector, align 8
  %tobool.not.i.i80 = icmp eq ptr %53, null
  br i1 %tobool.not.i.i80, label %_ZNSt10unique_ptrIN6google8protobuf8compiler20CommandLineInterface12ErrorPrinterESt14default_deleteIS4_EE5resetEPS4_.exit, label %_ZNKSt14default_deleteIN6google8protobuf8compiler20CommandLineInterface12ErrorPrinterEEclEPS4_.exit.i.i

_ZNKSt14default_deleteIN6google8protobuf8compiler20CommandLineInterface12ErrorPrinterEEclEPS4_.exit.i.i: ; preds = %invoke.cont50
  %vtable.i.i.i81 = load ptr, ptr %53, align 8
  %vfn.i.i.i82 = getelementptr inbounds i8, ptr %vtable.i.i.i81, i64 8
  %54 = load ptr, ptr %vfn.i.i.i82, align 8
  call void %54(ptr noundef nonnull align 8 dereferenceable(42) %53) #29
  br label %_ZNSt10unique_ptrIN6google8protobuf8compiler20CommandLineInterface12ErrorPrinterESt14default_deleteIS4_EE5resetEPS4_.exit

_ZNSt10unique_ptrIN6google8protobuf8compiler20CommandLineInterface12ErrorPrinterESt14default_deleteIS4_EE5resetEPS4_.exit: ; preds = %invoke.cont50, %_ZNKSt14default_deleteIN6google8protobuf8compiler20CommandLineInterface12ErrorPrinterEEclEPS4_.exit.i.i
  %call53 = invoke noalias noundef nonnull dereferenceable(96) ptr @_Znwm(i64 noundef 96) #32
          to label %invoke.cont52 unwind label %lpad.loopexit.split-lp431.loopexit.split-lp.loopexit.split-lp.loopexit.split-lp.loopexit.split-lp

invoke.cont52:                                    ; preds = %_ZNSt10unique_ptrIN6google8protobuf8compiler20CommandLineInterface12ErrorPrinterESt14default_deleteIS4_EE5resetEPS4_.exit
  %55 = load ptr, ptr %error_collector, align 8
  %56 = icmp eq ptr %55, null
  %add.ptr = getelementptr inbounds i8, ptr %55, i64 16
  %spec.select = select i1 %56, ptr null, ptr %add.ptr
  invoke void @_ZN6google8protobuf14DescriptorPoolC1EPNS0_18DescriptorDatabaseEPNS1_14ErrorCollectorE(ptr noundef nonnull align 8 dereferenceable(96) %call53, ptr noundef %descriptor_set_in_database.sroa.0.2, ptr noundef %spec.select)
          to label %invoke.cont57 unwind label %lpad56

invoke.cont57:                                    ; preds = %invoke.cont52
  %57 = load ptr, ptr %descriptor_pool, align 8
  store ptr %call53, ptr %descriptor_pool, align 8
  %tobool.not.i.i83 = icmp eq ptr %57, null
  br i1 %tobool.not.i.i83, label %if.end96, label %if.end96.sink.split

lpad56:                                           ; preds = %invoke.cont52
  %58 = landingpad { ptr, i32 }
          cleanup
  call void @_ZdlPv(ptr noundef nonnull %call53) #31
  br label %_ZNSt10unique_ptrIN6google8protobuf8compiler28SourceTreeDescriptorDatabaseESt14default_deleteIS3_EED2Ev.exit277

if.else:                                          ; preds = %if.end39
  %call60 = invoke noalias noundef nonnull dereferenceable(64) ptr @_Znwm(i64 noundef 64) #32
          to label %invoke.cont59 unwind label %lpad.loopexit.split-lp431.loopexit.split-lp.loopexit.split-lp.loopexit.split-lp.loopexit.split-lp

invoke.cont59:                                    ; preds = %if.else
  invoke void @_ZN6google8protobuf8compiler14DiskSourceTreeC1Ev(ptr noundef nonnull align 8 dereferenceable(64) %call60)
          to label %_ZNSt10unique_ptrIN6google8protobuf8compiler14DiskSourceTreeESt14default_deleteIS3_EE5resetEPS3_.exit unwind label %lpad61

_ZNSt10unique_ptrIN6google8protobuf8compiler14DiskSourceTreeESt14default_deleteIS3_EE5resetEPS3_.exit: ; preds = %invoke.cont59
  %call67 = invoke noundef zeroext i1 @_ZN6google8protobuf8compiler20CommandLineInterface24InitializeDiskSourceTreeEPNS1_14DiskSourceTreeEPNS0_18DescriptorDatabaseE(ptr noundef nonnull align 8 dereferenceable(574) %this, ptr noundef nonnull %call60, ptr noundef %descriptor_set_in_database.sroa.0.2)
          to label %invoke.cont66 unwind label %lpad.loopexit.split-lp431.loopexit.split-lp.loopexit.split-lp.loopexit.split-lp.loopexit.split-lp

invoke.cont66:                                    ; preds = %_ZNSt10unique_ptrIN6google8protobuf8compiler14DiskSourceTreeESt14default_deleteIS3_EE5resetEPS3_.exit
  br i1 %call67, label %if.end69, label %_ZNSt10unique_ptrIN6google8protobuf8compiler28SourceTreeDescriptorDatabaseESt14default_deleteIS3_EED2Ev.exit

lpad61:                                           ; preds = %invoke.cont59
  %59 = landingpad { ptr, i32 }
          cleanup
  call void @_ZdlPv(ptr noundef nonnull %call60) #31
  br label %_ZNSt10unique_ptrIN6google8protobuf8compiler28SourceTreeDescriptorDatabaseESt14default_deleteIS3_EED2Ev.exit277

if.end69:                                         ; preds = %invoke.cont66
  %call71 = invoke noalias noundef nonnull dereferenceable(48) ptr @_Znwm(i64 noundef 48) #32
          to label %invoke.cont75 unwind label %lpad.loopexit.split-lp431.loopexit.split-lp.loopexit.split-lp.loopexit.split-lp.loopexit.split-lp

invoke.cont75:                                    ; preds = %if.end69
  %error_format_72 = getelementptr inbounds i8, ptr %this, i64 256
  %60 = load i32, ptr %error_format_72, align 8
  %61 = getelementptr inbounds i8, ptr %call71, i64 8
  %62 = getelementptr inbounds i8, ptr %call71, i64 16
  store ptr getelementptr inbounds ({ [10 x ptr], [6 x ptr], [6 x ptr] }, ptr @_ZTVN6google8protobuf8compiler20CommandLineInterface12ErrorPrinterE, i64 0, inrange i32 0, i64 2), ptr %call71, align 8
  store ptr getelementptr inbounds ({ [10 x ptr], [6 x ptr], [6 x ptr] }, ptr @_ZTVN6google8protobuf8compiler20CommandLineInterface12ErrorPrinterE, i64 0, inrange i32 1, i64 2), ptr %61, align 8
  store ptr getelementptr inbounds ({ [10 x ptr], [6 x ptr], [6 x ptr] }, ptr @_ZTVN6google8protobuf8compiler20CommandLineInterface12ErrorPrinterE, i64 0, inrange i32 2, i64 2), ptr %62, align 8
  %format_.i87 = getelementptr inbounds i8, ptr %call71, i64 24
  store i32 %60, ptr %format_.i87, align 8
  %tree_.i88 = getelementptr inbounds i8, ptr %call71, i64 32
  store ptr %call60, ptr %tree_.i88, align 8
  %found_errors_.i89 = getelementptr inbounds i8, ptr %call71, i64 40
  store i8 0, ptr %found_errors_.i89, align 8
  %found_warnings_.i90 = getelementptr inbounds i8, ptr %call71, i64 41
  store i8 0, ptr %found_warnings_.i90, align 1
  %63 = load ptr, ptr %error_collector, align 8
  store ptr %call71, ptr %error_collector, align 8
  %tobool.not.i.i91 = icmp eq ptr %63, null
  br i1 %tobool.not.i.i91, label %_ZNSt10unique_ptrIN6google8protobuf8compiler20CommandLineInterface12ErrorPrinterESt14default_deleteIS4_EE5resetEPS4_.exit95, label %_ZNKSt14default_deleteIN6google8protobuf8compiler20CommandLineInterface12ErrorPrinterEEclEPS4_.exit.i.i92

_ZNKSt14default_deleteIN6google8protobuf8compiler20CommandLineInterface12ErrorPrinterEEclEPS4_.exit.i.i92: ; preds = %invoke.cont75
  %vtable.i.i.i93 = load ptr, ptr %63, align 8
  %vfn.i.i.i94 = getelementptr inbounds i8, ptr %vtable.i.i.i93, i64 8
  %64 = load ptr, ptr %vfn.i.i.i94, align 8
  call void %64(ptr noundef nonnull align 8 dereferenceable(42) %63) #29
  br label %_ZNSt10unique_ptrIN6google8protobuf8compiler20CommandLineInterface12ErrorPrinterESt14default_deleteIS4_EE5resetEPS4_.exit95

_ZNSt10unique_ptrIN6google8protobuf8compiler20CommandLineInterface12ErrorPrinterESt14default_deleteIS4_EE5resetEPS4_.exit95: ; preds = %invoke.cont75, %_ZNKSt14default_deleteIN6google8protobuf8compiler20CommandLineInterface12ErrorPrinterEEclEPS4_.exit.i.i92
  %call78 = invoke noalias noundef nonnull dereferenceable(120) ptr @_Znwm(i64 noundef 120) #32
          to label %invoke.cont77 unwind label %lpad.loopexit.split-lp431.loopexit.split-lp.loopexit.split-lp.loopexit.split-lp.loopexit.split-lp

invoke.cont77:                                    ; preds = %_ZNSt10unique_ptrIN6google8protobuf8compiler20CommandLineInterface12ErrorPrinterESt14default_deleteIS4_EE5resetEPS4_.exit95
  invoke void @_ZN6google8protobuf8compiler28SourceTreeDescriptorDatabaseC1EPNS1_10SourceTreeEPNS0_18DescriptorDatabaseE(ptr noundef nonnull align 8 dereferenceable(120) %call78, ptr noundef nonnull %call60, ptr noundef %descriptor_set_in_database.sroa.0.2)
          to label %_ZNSt10unique_ptrIN6google8protobuf8compiler28SourceTreeDescriptorDatabaseESt14default_deleteIS3_EE5resetEPS3_.exit unwind label %lpad81

_ZNSt10unique_ptrIN6google8protobuf8compiler28SourceTreeDescriptorDatabaseESt14default_deleteIS3_EE5resetEPS3_.exit: ; preds = %invoke.cont77
  %65 = load ptr, ptr %error_collector, align 8
  %error_collector_.i = getelementptr inbounds i8, ptr %call78, i64 24
  store ptr %65, ptr %error_collector_.i, align 8
  %call88 = invoke noalias noundef nonnull dereferenceable(96) ptr @_Znwm(i64 noundef 96) #32
          to label %invoke.cont87 unwind label %lpad.loopexit.split-lp431.loopexit.split-lp.loopexit.split-lp.loopexit.split-lp.loopexit.split-lp

invoke.cont87:                                    ; preds = %_ZNSt10unique_ptrIN6google8protobuf8compiler28SourceTreeDescriptorDatabaseESt14default_deleteIS3_EE5resetEPS3_.exit
  %using_validation_error_collector_.i = getelementptr inbounds i8, ptr %call78, i64 32
  store i8 1, ptr %using_validation_error_collector_.i, align 8
  %validation_error_collector_.i = getelementptr inbounds i8, ptr %call78, i64 104
  invoke void @_ZN6google8protobuf14DescriptorPoolC1EPNS0_18DescriptorDatabaseEPNS1_14ErrorCollectorE(ptr noundef nonnull align 8 dereferenceable(96) %call88, ptr noundef nonnull %call78, ptr noundef nonnull %validation_error_collector_.i)
          to label %invoke.cont94 unwind label %ehcleanup373.thread377

invoke.cont94:                                    ; preds = %invoke.cont87
  %66 = load ptr, ptr %descriptor_pool, align 8
  store ptr %call88, ptr %descriptor_pool, align 8
  %tobool.not.i.i99 = icmp eq ptr %66, null
  br i1 %tobool.not.i.i99, label %if.end96, label %if.end96.sink.split

lpad81:                                           ; preds = %invoke.cont77
  %67 = landingpad { ptr, i32 }
          cleanup
  call void @_ZdlPv(ptr noundef nonnull %call78) #31
  br label %_ZNSt10unique_ptrIN6google8protobuf8compiler28SourceTreeDescriptorDatabaseESt14default_deleteIS3_EED2Ev.exit277

ehcleanup373.thread377:                           ; preds = %invoke.cont87
  %68 = landingpad { ptr, i32 }
          cleanup
  call void @_ZdlPv(ptr noundef nonnull %call88) #31
  br label %_ZNKSt14default_deleteIN6google8protobuf8compiler28SourceTreeDescriptorDatabaseEEclEPS3_.exit.i273

if.end96.sink.split:                              ; preds = %invoke.cont94, %invoke.cont57
  %.sink571 = phi ptr [ %57, %invoke.cont57 ], [ %66, %invoke.cont94 ]
  %source_tree_database.sroa.0.2.ph = phi ptr [ null, %invoke.cont57 ], [ %call78, %invoke.cont94 ]
  %disk_source_tree.sroa.0.2.ph = phi ptr [ null, %invoke.cont57 ], [ %call60, %invoke.cont94 ]
  call void @_ZN6google8protobuf14DescriptorPoolD1Ev(ptr noundef nonnull align 8 dereferenceable(96) %.sink571) #29
  call void @_ZdlPv(ptr noundef nonnull %.sink571) #31
  br label %if.end96

if.end96:                                         ; preds = %if.end96.sink.split, %invoke.cont94, %invoke.cont57
  %source_tree_database.sroa.0.2 = phi ptr [ null, %invoke.cont57 ], [ %call78, %invoke.cont94 ], [ %source_tree_database.sroa.0.2.ph, %if.end96.sink.split ]
  %disk_source_tree.sroa.0.2 = phi ptr [ null, %invoke.cont57 ], [ %call60, %invoke.cont94 ], [ %disk_source_tree.sroa.0.2.ph, %if.end96.sink.split ]
  %69 = load ptr, ptr %descriptor_pool, align 8
  %enforce_weak_.i = getelementptr inbounds i8, ptr %69, i64 51
  store i8 1, ptr %enforce_weak_.i, align 1
  %call101 = invoke noundef zeroext i1 @_ZN6google8protobuf8compiler20CommandLineInterface22SetupFeatureResolutionERNS0_14DescriptorPoolE(ptr noundef nonnull align 8 dereferenceable(574) %this, ptr noundef nonnull align 8 dereferenceable(96) %69)
          to label %invoke.cont100 unwind label %lpad.loopexit.split-lp431.loopexit.split-lp.loopexit.split-lp.loopexit.split-lp.loopexit.split-lp

invoke.cont100:                                   ; preds = %if.end96
  br i1 %call101, label %if.end103, label %cleanup372

if.end103:                                        ; preds = %invoke.cont100
  %mode_ = getelementptr inbounds i8, ptr %this, i64 248
  %70 = load i32, ptr %mode_, align 8
  %cmp = icmp eq i32 %70, 0
  %.pre = load ptr, ptr %descriptor_pool, align 8
  br i1 %cmp, label %if.then104, label %if.end107

if.then104:                                       ; preds = %if.end103
  %enforce_extension_declarations_.i = getelementptr inbounds i8, ptr %.pre, i64 52
  store i8 1, ptr %enforce_extension_declarations_.i, align 4
  br label %if.end107

if.end107:                                        ; preds = %if.then104, %if.end103
  %call111 = invoke noundef zeroext i1 @_ZN6google8protobuf8compiler20CommandLineInterface15ParseInputFilesEPNS0_14DescriptorPoolEPNS1_14DiskSourceTreeEPSt6vectorIPKNS0_14FileDescriptorESaISA_EE(ptr noundef nonnull align 8 dereferenceable(574) %this, ptr noundef %.pre, ptr poison, ptr noundef nonnull %parsed_files)
          to label %invoke.cont110 unwind label %lpad.loopexit.split-lp431.loopexit.split-lp.loopexit.split-lp.loopexit.split-lp.loopexit.split-lp

invoke.cont110:                                   ; preds = %if.end107
  br i1 %call111, label %if.end113, label %cleanup372

if.end113:                                        ; preds = %invoke.cont110
  store i8 0, ptr %validation_error, align 1
  %71 = load ptr, ptr %parsed_files, align 8
  %_M_finish.i102 = getelementptr inbounds i8, ptr %parsed_files, i64 8
  %72 = load ptr, ptr %_M_finish.i102, align 8
  %cmp.i103.not479 = icmp eq ptr %71, %72
  br i1 %cmp.i103.not479, label %for.end146, label %for.body120.lr.ph

for.body120.lr.ph:                                ; preds = %if.end113
  %visitor.sroa.2.0.this.addr.0.this1.sroa_idx.i.i = getelementptr inbounds i8, ptr %ref.tmp.i, i64 8
  br label %for.body120

for.body120:                                      ; preds = %for.body120.lr.ph, %for.inc123
  %__begin2.sroa.0.0480 = phi ptr [ %71, %for.body120.lr.ph ], [ %incdec.ptr.i108, %for.inc123 ]
  %73 = load ptr, ptr %__begin2.sroa.0.0480, align 8
  call void @llvm.lifetime.start.p0(i64 16, ptr nonnull %ref.tmp.i)
  store ptr %validation_error, ptr %ref.tmp.i, align 8
  store ptr %error_collector, ptr %visitor.sroa.2.0.this.addr.0.this1.sroa_idx.i.i, align 8
  %message_type_count_.i.i.i = getelementptr inbounds i8, ptr %73, i64 60
  %74 = load i32, ptr %message_type_count_.i.i.i, align 4
  %cmp25.i.i = icmp sgt i32 %74, 0
  br i1 %cmp25.i.i, label %for.body.lr.ph.i.i, label %for.cond4.preheader.i.i

for.body.lr.ph.i.i:                               ; preds = %for.body120
  %message_types_.i.i.i = getelementptr inbounds i8, ptr %73, i64 96
  br label %for.body.i.i

for.cond4.preheader.i.i:                          ; preds = %.noexc106, %for.body120
  %extension_count_.i.i.i = getelementptr inbounds i8, ptr %73, i64 4
  %75 = load i32, ptr %extension_count_.i.i.i, align 4
  %cmp1527.i.i = icmp sgt i32 %75, 0
  br i1 %cmp1527.i.i, label %for.body16.lr.ph.i.i, label %for.inc123

for.body.i.i:                                     ; preds = %.noexc106, %for.body.lr.ph.i.i
  %indvars.iv.i.i = phi i64 [ 0, %for.body.lr.ph.i.i ], [ %indvars.iv.next.i.i, %.noexc106 ]
  %76 = load ptr, ptr %message_types_.i.i.i, align 8
  %add.ptr.i.i.i104 = getelementptr inbounds %"class.google::protobuf::Descriptor", ptr %76, i64 %indvars.iv.i.i
  invoke fastcc void @"_ZN6google8protobuf8internal9VisitImplINS1_11VisitorImplIZNS0_8compiler20CommandLineInterface3RunEiPKPKcE3$_0EEE5VisitIJEEEvRKNS0_10DescriptorEDpRT_"(ptr noundef nonnull align 8 dereferenceable(16) %ref.tmp.i, ptr noundef nonnull align 8 dereferenceable(152) %add.ptr.i.i.i104)
          to label %.noexc106 unwind label %lpad.loopexit.split-lp431.loopexit.split-lp.loopexit

.noexc106:                                        ; preds = %for.body.i.i
  %indvars.iv.next.i.i = add nuw nsw i64 %indvars.iv.i.i, 1
  %77 = load i32, ptr %message_type_count_.i.i.i, align 4
  %78 = sext i32 %77 to i64
  %cmp.i.i105 = icmp slt i64 %indvars.iv.next.i.i, %78
  br i1 %cmp.i.i105, label %for.body.i.i, label %for.cond4.preheader.i.i, !llvm.loop !91

for.body16.lr.ph.i.i:                             ; preds = %for.cond4.preheader.i.i
  %extensions_.i.i.i = getelementptr inbounds i8, ptr %73, i64 120
  br label %for.body16.i.i

for.body16.i.i:                                   ; preds = %.noexc107, %for.body16.lr.ph.i.i
  %indvars.iv30.i.i = phi i64 [ 0, %for.body16.lr.ph.i.i ], [ %indvars.iv.next31.i.i, %.noexc107 ]
  %79 = load ptr, ptr %extensions_.i.i.i, align 8
  %add.ptr.i22.i.i = getelementptr inbounds %"class.google::protobuf::FieldDescriptor", ptr %79, i64 %indvars.iv30.i.i
  invoke fastcc void @"_ZN6google8protobuf8internal9VisitImplINS1_11VisitorImplIZNS0_8compiler20CommandLineInterface3RunEiPKPKcE3$_0EEE5VisitIJEEEvRKNS0_15FieldDescriptorEDpRT_"(ptr noundef nonnull align 8 dereferenceable(16) %ref.tmp.i, ptr noundef nonnull align 8 dereferenceable(88) %add.ptr.i22.i.i)
          to label %.noexc107 unwind label %lpad.loopexit.split-lp431.loopexit

.noexc107:                                        ; preds = %for.body16.i.i
  %indvars.iv.next31.i.i = add nuw nsw i64 %indvars.iv30.i.i, 1
  %80 = load i32, ptr %extension_count_.i.i.i, align 4
  %81 = sext i32 %80 to i64
  %cmp15.i.i = icmp slt i64 %indvars.iv.next31.i.i, %81
  br i1 %cmp15.i.i, label %for.body16.i.i, label %for.inc123, !llvm.loop !92

for.inc123:                                       ; preds = %.noexc107, %for.cond4.preheader.i.i
  call void @llvm.lifetime.end.p0(i64 16, ptr nonnull %ref.tmp.i)
  %incdec.ptr.i108 = getelementptr inbounds i8, ptr %__begin2.sroa.0.0480, i64 8
  %cmp.i103.not = icmp eq ptr %incdec.ptr.i108, %72
  br i1 %cmp.i103.not, label %for.end125, label %for.body120

for.end125:                                       ; preds = %for.inc123
  %.pre532 = load ptr, ptr %parsed_files, align 8
  %.pre533 = load ptr, ptr %_M_finish.i102, align 8
  %cmp.i110.not481 = icmp eq ptr %.pre532, %.pre533
  br i1 %cmp.i110.not481, label %for.end146, label %for.body135.lr.ph

for.body135.lr.ph:                                ; preds = %for.end125
  %agg.tmp141112.sroa.4.0.ref.tmp.i113.sroa_idx = getelementptr inbounds i8, ptr %ref.tmp.i113, i64 8
  %agg.tmp141112.sroa.5.0.ref.tmp.i113.sroa_idx = getelementptr inbounds i8, ptr %ref.tmp.i113, i64 16
  %agg.tmp141112.sroa.6.0.ref.tmp.i113.sroa_idx = getelementptr inbounds i8, ptr %ref.tmp.i113, i64 24
  %82 = getelementptr inbounds i8, ptr %proto, i64 200
  %message_type_.i.i.i.i.i = getelementptr inbounds i8, ptr %proto, i64 48
  %enum_type_.i.i.i.i.i = getelementptr inbounds i8, ptr %proto, i64 72
  %extension_.i.i.i.i.i = getelementptr inbounds i8, ptr %proto, i64 120
  %service_.i.i.i.i.i = getelementptr inbounds i8, ptr %proto, i64 96
  br label %for.body135

for.body135:                                      ; preds = %for.body135.lr.ph, %invoke.cont142
  %__begin2127.sroa.0.0482 = phi ptr [ %.pre532, %for.body135.lr.ph ], [ %incdec.ptr.i131, %invoke.cont142 ]
  %83 = load ptr, ptr %__begin2127.sroa.0.0482, align 8
  store ptr %83, ptr %file136, align 8
  invoke void @_ZN6google8protobuf19FileDescriptorProtoC2EPNS0_5ArenaE(ptr noundef nonnull align 8 dereferenceable(224) %proto, ptr noundef null)
          to label %invoke.cont138 unwind label %lpad.loopexit430

invoke.cont138:                                   ; preds = %for.body135
  %84 = load ptr, ptr %file136, align 8
  invoke void @_ZNK6google8protobuf14FileDescriptor6CopyToEPNS0_19FileDescriptorProtoE(ptr noundef nonnull align 8 dereferenceable(168) %84, ptr noundef nonnull %proto)
          to label %invoke.cont140 unwind label %lpad139.loopexit.split-lp.loopexit.split-lp.loopexit.split-lp.loopexit.split-lp.loopexit.split-lp

invoke.cont140:                                   ; preds = %invoke.cont138
  %85 = load ptr, ptr %file136, align 8
  call void @llvm.lifetime.start.p0(i64 32, ptr nonnull %ref.tmp.i113)
  store ptr %descriptor_pool, ptr %ref.tmp.i113, align 8
  store ptr %error_collector, ptr %agg.tmp141112.sroa.4.0.ref.tmp.i113.sroa_idx, align 8
  store ptr %file136, ptr %agg.tmp141112.sroa.5.0.ref.tmp.i113.sroa_idx, align 8
  store ptr %validation_error, ptr %agg.tmp141112.sroa.6.0.ref.tmp.i113.sroa_idx, align 8
  %proto.val.i.i = load ptr, ptr %82, align 8
  %cmp.not.i.i.i.i.i = icmp eq ptr %proto.val.i.i, null
  %cond-lvalue.i.i.i.i.i = select i1 %cmp.not.i.i.i.i.i, ptr @_ZN6google8protobuf30_FileOptions_default_instance_E, ptr %proto.val.i.i
  %86 = load ptr, ptr %descriptor_pool, align 8
  %87 = load ptr, ptr %error_collector, align 8
  %add.ptr.i.i.i114 = getelementptr inbounds i8, ptr %87, i64 16
  %name_.i.i.i.i = getelementptr inbounds i8, ptr %85, i64 8
  %88 = load ptr, ptr %name_.i.i.i.i, align 8
  %call5.i.i.i = call { i64, ptr } @_ZNKSt7__cxx1112basic_stringIcSt11char_traitsIcESaIcEEcvSt17basic_string_viewIcS2_EEv(ptr noundef nonnull align 8 dereferenceable(32) %88) #29
  %89 = extractvalue { i64, ptr } %call5.i.i.i, 0
  %90 = extractvalue { i64, ptr } %call5.i.i.i, 1
  %call7.i.i.i125 = invoke fastcc noundef zeroext i1 @_ZN6google8protobuf8compiler12_GLOBAL__N_125ValidateTargetConstraintsERKNS0_7MessageERKNS0_14DescriptorPoolERNS6_14ErrorCollectorESt17basic_string_viewIcSt11char_traitsIcEENS0_29FieldOptions_OptionTargetTypeE(ptr noundef nonnull align 8 dereferenceable(16) %cond-lvalue.i.i.i.i.i, ptr noundef nonnull align 8 dereferenceable(96) %86, ptr noundef nonnull align 8 dereferenceable(8) %add.ptr.i.i.i114, i64 %89, ptr %90, i32 noundef 1)
          to label %call7.i.i.i.noexc unwind label %lpad139.loopexit.split-lp.loopexit.split-lp.loopexit.split-lp.loopexit.split-lp.loopexit.split-lp

call7.i.i.i.noexc:                                ; preds = %invoke.cont140
  br i1 %call7.i.i.i125, label %"_ZZN6google8protobuf8compiler20CommandLineInterface3RunEiPKPKcENK3$_1clINS0_14FileDescriptorENS0_19FileDescriptorProtoEEEDaRKT_RKT0_.exit.i.i", label %if.then.i.i.i115

if.then.i.i.i115:                                 ; preds = %call7.i.i.i.noexc
  %91 = load ptr, ptr %agg.tmp141112.sroa.6.0.ref.tmp.i113.sroa_idx, align 8
  store i8 1, ptr %91, align 1
  br label %"_ZZN6google8protobuf8compiler20CommandLineInterface3RunEiPKPKcENK3$_1clINS0_14FileDescriptorENS0_19FileDescriptorProtoEEEDaRKT_RKT0_.exit.i.i"

"_ZZN6google8protobuf8compiler20CommandLineInterface3RunEiPKPKcENK3$_1clINS0_14FileDescriptorENS0_19FileDescriptorProtoEEEDaRKT_RKT0_.exit.i.i": ; preds = %if.then.i.i.i115, %call7.i.i.i.noexc
  %message_type_count_.i.i.i116 = getelementptr inbounds i8, ptr %85, i64 60
  %92 = load i32, ptr %message_type_count_.i.i.i116, align 4
  %cmp60.i.i = icmp sgt i32 %92, 0
  br i1 %cmp60.i.i, label %for.body.lr.ph.i.i119, label %for.cond5.preheader.i.i

for.body.lr.ph.i.i119:                            ; preds = %"_ZZN6google8protobuf8compiler20CommandLineInterface3RunEiPKPKcENK3$_1clINS0_14FileDescriptorENS0_19FileDescriptorProtoEEEDaRKT_RKT0_.exit.i.i"
  %message_types_.i.i.i120 = getelementptr inbounds i8, ptr %85, i64 96
  br label %for.body.i.i121

for.cond5.preheader.i.i:                          ; preds = %.noexc126, %"_ZZN6google8protobuf8compiler20CommandLineInterface3RunEiPKPKcENK3$_1clINS0_14FileDescriptorENS0_19FileDescriptorProtoEEEDaRKT_RKT0_.exit.i.i"
  %enum_type_count_.i.i.i = getelementptr inbounds i8, ptr %85, i64 64
  %93 = load i32, ptr %enum_type_count_.i.i.i, align 8
  %cmp762.i.i = icmp sgt i32 %93, 0
  br i1 %cmp762.i.i, label %for.body8.lr.ph.i.i, label %for.cond15.preheader.i.i

for.body8.lr.ph.i.i:                              ; preds = %for.cond5.preheader.i.i
  %enum_types_.i.i.i = getelementptr inbounds i8, ptr %85, i64 104
  br label %for.body8.i.i

for.body.i.i121:                                  ; preds = %.noexc126, %for.body.lr.ph.i.i119
  %indvars.iv.i.i122 = phi i64 [ 0, %for.body.lr.ph.i.i119 ], [ %indvars.iv.next.i.i123, %.noexc126 ]
  %94 = load ptr, ptr %message_types_.i.i.i120, align 8
  %add.ptr.i25.i.i = getelementptr inbounds %"class.google::protobuf::Descriptor", ptr %94, i64 %indvars.iv.i.i122
  %95 = load ptr, ptr %message_type_.i.i.i.i.i, align 8
  %96 = ptrtoint ptr %95 to i64
  %and.i.i.i.i.i.i.i.i = and i64 %96, 1
  %cmp.i.i.i.i.i.i.i.i = icmp eq i64 %and.i.i.i.i.i.i.i.i, 0
  %sub.i.i.i.i.i.i.i.i = add i64 %96, -1
  %97 = inttoptr i64 %sub.i.i.i.i.i.i.i.i to ptr
  %elements.i.i.i.i.i.i.i = getelementptr inbounds i8, ptr %97, i64 8
  %arrayidx.i.i.i.i.i.i.i = getelementptr inbounds [268435454 x ptr], ptr %elements.i.i.i.i.i.i.i, i64 0, i64 %indvars.iv.i.i122
  %retval.0.i.i.i.i.i.i.i = select i1 %cmp.i.i.i.i.i.i.i.i, ptr %message_type_.i.i.i.i.i, ptr %arrayidx.i.i.i.i.i.i.i
  %98 = load ptr, ptr %retval.0.i.i.i.i.i.i.i, align 8
  invoke fastcc void @"_ZN6google8protobuf8internal9VisitImplINS1_11VisitorImplIZNS0_8compiler20CommandLineInterface3RunEiPKPKcE3$_1EEE5VisitIJNS0_15DescriptorProtoEEEEvRKNS0_10DescriptorEDpRT_"(ptr noundef nonnull align 8 dereferenceable(32) %ref.tmp.i113, ptr noundef nonnull align 8 dereferenceable(152) %add.ptr.i25.i.i, ptr noundef nonnull align 8 dereferenceable(232) %98)
          to label %.noexc126 unwind label %lpad139.loopexit.split-lp.loopexit.split-lp.loopexit.split-lp.loopexit.split-lp.loopexit

.noexc126:                                        ; preds = %for.body.i.i121
  %indvars.iv.next.i.i123 = add nuw nsw i64 %indvars.iv.i.i122, 1
  %99 = load i32, ptr %message_type_count_.i.i.i116, align 4
  %100 = sext i32 %99 to i64
  %cmp.i.i124 = icmp slt i64 %indvars.iv.next.i.i123, %100
  br i1 %cmp.i.i124, label %for.body.i.i121, label %for.cond5.preheader.i.i, !llvm.loop !93

for.cond15.preheader.i.i:                         ; preds = %.noexc127, %for.cond5.preheader.i.i
  %extension_count_.i.i.i117 = getelementptr inbounds i8, ptr %85, i64 4
  %101 = load i32, ptr %extension_count_.i.i.i117, align 4
  %cmp1764.i.i = icmp sgt i32 %101, 0
  br i1 %cmp1764.i.i, label %for.body18.lr.ph.i.i, label %for.cond25.preheader.i.i

for.body18.lr.ph.i.i:                             ; preds = %for.cond15.preheader.i.i
  %102 = load ptr, ptr %agg.tmp141112.sroa.6.0.ref.tmp.i113.sroa_idx, align 8
  br label %for.body18.i.i

for.body8.i.i:                                    ; preds = %.noexc127, %for.body8.lr.ph.i.i
  %indvars.iv69.i.i = phi i64 [ 0, %for.body8.lr.ph.i.i ], [ %indvars.iv.next70.i.i, %.noexc127 ]
  %103 = load ptr, ptr %enum_types_.i.i.i, align 8
  %add.ptr.i27.i.i = getelementptr inbounds %"class.google::protobuf::EnumDescriptor", ptr %103, i64 %indvars.iv69.i.i
  %104 = load ptr, ptr %enum_type_.i.i.i.i.i, align 8
  %105 = ptrtoint ptr %104 to i64
  %and.i.i.i.i.i.i28.i.i = and i64 %105, 1
  %cmp.i.i.i.i.i.i29.i.i = icmp eq i64 %and.i.i.i.i.i.i28.i.i, 0
  %sub.i.i.i.i.i.i30.i.i = add i64 %105, -1
  %106 = inttoptr i64 %sub.i.i.i.i.i.i30.i.i to ptr
  %elements.i.i.i.i.i31.i.i = getelementptr inbounds i8, ptr %106, i64 8
  %arrayidx.i.i.i.i.i33.i.i = getelementptr inbounds [268435454 x ptr], ptr %elements.i.i.i.i.i31.i.i, i64 0, i64 %indvars.iv69.i.i
  %retval.0.i.i.i.i.i34.i.i = select i1 %cmp.i.i.i.i.i.i29.i.i, ptr %enum_type_.i.i.i.i.i, ptr %arrayidx.i.i.i.i.i33.i.i
  %107 = load ptr, ptr %retval.0.i.i.i.i.i34.i.i, align 8
  invoke fastcc void @"_ZN6google8protobuf8internal9VisitImplINS1_11VisitorImplIZNS0_8compiler20CommandLineInterface3RunEiPKPKcE3$_1EEE5VisitIJNS0_19EnumDescriptorProtoEEEEvRKNS0_14EnumDescriptorEDpRT_"(ptr noundef nonnull align 8 dereferenceable(32) %ref.tmp.i113, ptr noundef nonnull align 8 dereferenceable(88) %add.ptr.i27.i.i, ptr noundef nonnull align 8 dereferenceable(112) %107)
          to label %.noexc127 unwind label %lpad139.loopexit.split-lp.loopexit.split-lp.loopexit.split-lp.loopexit

.noexc127:                                        ; preds = %for.body8.i.i
  %indvars.iv.next70.i.i = add nuw nsw i64 %indvars.iv69.i.i, 1
  %108 = load i32, ptr %enum_type_count_.i.i.i, align 8
  %109 = sext i32 %108 to i64
  %cmp7.i.i = icmp slt i64 %indvars.iv.next70.i.i, %109
  br i1 %cmp7.i.i, label %for.body8.i.i, label %for.cond15.preheader.i.i, !llvm.loop !94

for.cond25.preheader.i.i:                         ; preds = %"_ZN6google8protobuf8internal9VisitImplINS1_11VisitorImplIZNS0_8compiler20CommandLineInterface3RunEiPKPKcE3$_1EEE5VisitIJNS0_20FieldDescriptorProtoEEEEvRKNS0_15FieldDescriptorEDpRT_.exit.i.i", %for.cond15.preheader.i.i
  %service_count_.i.i.i = getelementptr inbounds i8, ptr %85, i64 68
  %110 = load i32, ptr %service_count_.i.i.i, align 4
  %cmp2766.i.i = icmp sgt i32 %110, 0
  br i1 %cmp2766.i.i, label %for.body28.lr.ph.i.i, label %invoke.cont142

for.body28.lr.ph.i.i:                             ; preds = %for.cond25.preheader.i.i
  %services_.i.i.i = getelementptr inbounds i8, ptr %85, i64 112
  %111 = load ptr, ptr %agg.tmp141112.sroa.6.0.ref.tmp.i113.sroa_idx, align 8
  br label %for.body28.i.i

for.body18.i.i:                                   ; preds = %"_ZN6google8protobuf8internal9VisitImplINS1_11VisitorImplIZNS0_8compiler20CommandLineInterface3RunEiPKPKcE3$_1EEE5VisitIJNS0_20FieldDescriptorProtoEEEEvRKNS0_15FieldDescriptorEDpRT_.exit.i.i", %for.body18.lr.ph.i.i
  %indvars.iv72.i.i = phi i64 [ 0, %for.body18.lr.ph.i.i ], [ %indvars.iv.next73.i.i, %"_ZN6google8protobuf8internal9VisitImplINS1_11VisitorImplIZNS0_8compiler20CommandLineInterface3RunEiPKPKcE3$_1EEE5VisitIJNS0_20FieldDescriptorProtoEEEEvRKNS0_15FieldDescriptorEDpRT_.exit.i.i" ]
  %112 = load ptr, ptr %extension_.i.i.i.i.i, align 8
  %113 = ptrtoint ptr %112 to i64
  %and.i.i.i.i.i.i37.i.i = and i64 %113, 1
  %cmp.i.i.i.i.i.i38.i.i = icmp eq i64 %and.i.i.i.i.i.i37.i.i, 0
  %sub.i.i.i.i.i.i39.i.i = add i64 %113, -1
  %114 = inttoptr i64 %sub.i.i.i.i.i.i39.i.i to ptr
  %elements.i.i.i.i.i40.i.i = getelementptr inbounds i8, ptr %114, i64 8
  %arrayidx.i.i.i.i.i42.i.i = getelementptr inbounds [268435454 x ptr], ptr %elements.i.i.i.i.i40.i.i, i64 0, i64 %indvars.iv72.i.i
  %retval.0.i.i.i.i.i43.i.i = select i1 %cmp.i.i.i.i.i.i38.i.i, ptr %extension_.i.i.i.i.i, ptr %arrayidx.i.i.i.i.i42.i.i
  %115 = load ptr, ptr %retval.0.i.i.i.i.i43.i.i, align 8
  %116 = getelementptr i8, ptr %115, i64 64
  %call20.val.i.i = load ptr, ptr %116, align 8
  %cmp.not.i.i.i.i.i.i = icmp eq ptr %call20.val.i.i, null
  %cond-lvalue.i.i.i.i.i.i = select i1 %cmp.not.i.i.i.i.i.i, ptr @_ZN6google8protobuf31_FieldOptions_default_instance_E, ptr %call20.val.i.i
  %117 = load ptr, ptr %descriptor_pool, align 8
  %118 = load ptr, ptr %error_collector, align 8
  %add.ptr.i.i.i.i = getelementptr inbounds i8, ptr %118, i64 16
  %119 = load ptr, ptr %file136, align 8
  %name_.i.i.i.i.i = getelementptr inbounds i8, ptr %119, i64 8
  %120 = load ptr, ptr %name_.i.i.i.i.i, align 8
  %call5.i.i.i.i = call { i64, ptr } @_ZNKSt7__cxx1112basic_stringIcSt11char_traitsIcESaIcEEcvSt17basic_string_viewIcS2_EEv(ptr noundef nonnull align 8 dereferenceable(32) %120) #29
  %121 = extractvalue { i64, ptr } %call5.i.i.i.i, 0
  %122 = extractvalue { i64, ptr } %call5.i.i.i.i, 1
  %call7.i.i.i.i128 = invoke fastcc noundef zeroext i1 @_ZN6google8protobuf8compiler12_GLOBAL__N_125ValidateTargetConstraintsERKNS0_7MessageERKNS0_14DescriptorPoolERNS6_14ErrorCollectorESt17basic_string_viewIcSt11char_traitsIcEENS0_29FieldOptions_OptionTargetTypeE(ptr noundef nonnull align 8 dereferenceable(16) %cond-lvalue.i.i.i.i.i.i, ptr noundef nonnull align 8 dereferenceable(96) %117, ptr noundef nonnull align 8 dereferenceable(8) %add.ptr.i.i.i.i, i64 %121, ptr %122, i32 noundef 4)
          to label %call7.i.i.i.i.noexc unwind label %lpad139.loopexit.split-lp.loopexit.split-lp.loopexit

call7.i.i.i.i.noexc:                              ; preds = %for.body18.i.i
  br i1 %call7.i.i.i.i128, label %"_ZN6google8protobuf8internal9VisitImplINS1_11VisitorImplIZNS0_8compiler20CommandLineInterface3RunEiPKPKcE3$_1EEE5VisitIJNS0_20FieldDescriptorProtoEEEEvRKNS0_15FieldDescriptorEDpRT_.exit.i.i", label %if.then.i.i.i.i118

if.then.i.i.i.i118:                               ; preds = %call7.i.i.i.i.noexc
  store i8 1, ptr %102, align 1
  br label %"_ZN6google8protobuf8internal9VisitImplINS1_11VisitorImplIZNS0_8compiler20CommandLineInterface3RunEiPKPKcE3$_1EEE5VisitIJNS0_20FieldDescriptorProtoEEEEvRKNS0_15FieldDescriptorEDpRT_.exit.i.i"

"_ZN6google8protobuf8internal9VisitImplINS1_11VisitorImplIZNS0_8compiler20CommandLineInterface3RunEiPKPKcE3$_1EEE5VisitIJNS0_20FieldDescriptorProtoEEEEvRKNS0_15FieldDescriptorEDpRT_.exit.i.i": ; preds = %if.then.i.i.i.i118, %call7.i.i.i.i.noexc
  %indvars.iv.next73.i.i = add nuw nsw i64 %indvars.iv72.i.i, 1
  %123 = load i32, ptr %extension_count_.i.i.i117, align 4
  %124 = sext i32 %123 to i64
  %cmp17.i.i = icmp slt i64 %indvars.iv.next73.i.i, %124
  br i1 %cmp17.i.i, label %for.body18.i.i, label %for.cond25.preheader.i.i, !llvm.loop !95

for.body28.i.i:                                   ; preds = %"_ZN6google8protobuf8internal9VisitImplINS1_11VisitorImplIZNS0_8compiler20CommandLineInterface3RunEiPKPKcE3$_1EEE5VisitIJNS0_22ServiceDescriptorProtoEEEEvRKNS0_17ServiceDescriptorEDpRT_.exit.i.i", %for.body28.lr.ph.i.i
  %indvars.iv75.i.i = phi i64 [ 0, %for.body28.lr.ph.i.i ], [ %indvars.iv.next76.i.i, %"_ZN6google8protobuf8internal9VisitImplINS1_11VisitorImplIZNS0_8compiler20CommandLineInterface3RunEiPKPKcE3$_1EEE5VisitIJNS0_22ServiceDescriptorProtoEEEEvRKNS0_17ServiceDescriptorEDpRT_.exit.i.i" ]
  %125 = load ptr, ptr %services_.i.i.i, align 8
  %126 = load ptr, ptr %service_.i.i.i.i.i, align 8
  %127 = ptrtoint ptr %126 to i64
  %and.i.i.i.i.i.i46.i.i = and i64 %127, 1
  %cmp.i.i.i.i.i.i47.i.i = icmp eq i64 %and.i.i.i.i.i.i46.i.i, 0
  %sub.i.i.i.i.i.i48.i.i = add i64 %127, -1
  %128 = inttoptr i64 %sub.i.i.i.i.i.i48.i.i to ptr
  %elements.i.i.i.i.i49.i.i = getelementptr inbounds i8, ptr %128, i64 8
  %arrayidx.i.i.i.i.i51.i.i = getelementptr inbounds [268435454 x ptr], ptr %elements.i.i.i.i.i49.i.i, i64 0, i64 %indvars.iv75.i.i
  %retval.0.i.i.i.i.i52.i.i = select i1 %cmp.i.i.i.i.i.i47.i.i, ptr %service_.i.i.i.i.i, ptr %arrayidx.i.i.i.i.i51.i.i
  %129 = load ptr, ptr %retval.0.i.i.i.i.i52.i.i, align 8
  %130 = getelementptr inbounds i8, ptr %129, i64 56
  %proto.val.i.i.i = load ptr, ptr %130, align 8
  %cmp.not.i.i.i.i53.i.i = icmp eq ptr %proto.val.i.i.i, null
  %cond-lvalue.i.i.i.i54.i.i = select i1 %cmp.not.i.i.i.i53.i.i, ptr @_ZN6google8protobuf33_ServiceOptions_default_instance_E, ptr %proto.val.i.i.i
  %131 = load ptr, ptr %descriptor_pool, align 8
  %132 = load ptr, ptr %error_collector, align 8
  %add.ptr.i.i55.i.i = getelementptr inbounds i8, ptr %132, i64 16
  %133 = load ptr, ptr %file136, align 8
  %name_.i.i.i56.i.i = getelementptr inbounds i8, ptr %133, i64 8
  %134 = load ptr, ptr %name_.i.i.i56.i.i, align 8
  %call5.i.i57.i.i = call { i64, ptr } @_ZNKSt7__cxx1112basic_stringIcSt11char_traitsIcESaIcEEcvSt17basic_string_viewIcS2_EEv(ptr noundef nonnull align 8 dereferenceable(32) %134) #29
  %135 = extractvalue { i64, ptr } %call5.i.i57.i.i, 0
  %136 = extractvalue { i64, ptr } %call5.i.i57.i.i, 1
  %call7.i.i58.i.i129 = invoke fastcc noundef zeroext i1 @_ZN6google8protobuf8compiler12_GLOBAL__N_125ValidateTargetConstraintsERKNS0_7MessageERKNS0_14DescriptorPoolERNS6_14ErrorCollectorESt17basic_string_viewIcSt11char_traitsIcEENS0_29FieldOptions_OptionTargetTypeE(ptr noundef nonnull align 8 dereferenceable(16) %cond-lvalue.i.i.i.i54.i.i, ptr noundef nonnull align 8 dereferenceable(96) %131, ptr noundef nonnull align 8 dereferenceable(8) %add.ptr.i.i55.i.i, i64 %135, ptr %136, i32 noundef 8)
          to label %call7.i.i58.i.i.noexc unwind label %lpad139.loopexit.split-lp.loopexit

call7.i.i58.i.i.noexc:                            ; preds = %for.body28.i.i
  br i1 %call7.i.i58.i.i129, label %"_ZZN6google8protobuf8compiler20CommandLineInterface3RunEiPKPKcENK3$_1clINS0_17ServiceDescriptorENS0_22ServiceDescriptorProtoEEEDaRKT_RKT0_.exit.i.i.i", label %if.then.i.i59.i.i

if.then.i.i59.i.i:                                ; preds = %call7.i.i58.i.i.noexc
  store i8 1, ptr %111, align 1
  br label %"_ZZN6google8protobuf8compiler20CommandLineInterface3RunEiPKPKcENK3$_1clINS0_17ServiceDescriptorENS0_22ServiceDescriptorProtoEEEDaRKT_RKT0_.exit.i.i.i"

"_ZZN6google8protobuf8compiler20CommandLineInterface3RunEiPKPKcENK3$_1clINS0_17ServiceDescriptorENS0_22ServiceDescriptorProtoEEEDaRKT_RKT0_.exit.i.i.i": ; preds = %if.then.i.i59.i.i, %call7.i.i58.i.i.noexc
  %method_count_.i.i.i.i = getelementptr inbounds %"class.google::protobuf::ServiceDescriptor", ptr %125, i64 %indvars.iv75.i.i, i32 8
  %137 = load i32, ptr %method_count_.i.i.i.i, align 8
  %cmp8.i.i.i = icmp sgt i32 %137, 0
  br i1 %cmp8.i.i.i, label %for.body.lr.ph.i.i.i, label %"_ZN6google8protobuf8internal9VisitImplINS1_11VisitorImplIZNS0_8compiler20CommandLineInterface3RunEiPKPKcE3$_1EEE5VisitIJNS0_22ServiceDescriptorProtoEEEEvRKNS0_17ServiceDescriptorEDpRT_.exit.i.i"

for.body.lr.ph.i.i.i:                             ; preds = %"_ZZN6google8protobuf8compiler20CommandLineInterface3RunEiPKPKcENK3$_1clINS0_17ServiceDescriptorENS0_22ServiceDescriptorProtoEEEDaRKT_RKT0_.exit.i.i.i"
  %method_.i.i.i.i.i.i = getelementptr inbounds i8, ptr %129, i64 24
  br label %for.body.i.i.i

for.body.i.i.i:                                   ; preds = %"_ZN6google8protobuf8internal9VisitImplINS1_11VisitorImplIZNS0_8compiler20CommandLineInterface3RunEiPKPKcE3$_1EEE5VisitIJNS0_21MethodDescriptorProtoEEEEvRKNS0_16MethodDescriptorEDpRT_.exit.i.i.i", %for.body.lr.ph.i.i.i
  %indvars.iv.i.i.i = phi i64 [ 0, %for.body.lr.ph.i.i.i ], [ %indvars.iv.next.i.i.i, %"_ZN6google8protobuf8internal9VisitImplINS1_11VisitorImplIZNS0_8compiler20CommandLineInterface3RunEiPKPKcE3$_1EEE5VisitIJNS0_21MethodDescriptorProtoEEEEvRKNS0_16MethodDescriptorEDpRT_.exit.i.i.i" ]
  %138 = load ptr, ptr %method_.i.i.i.i.i.i, align 8
  %139 = ptrtoint ptr %138 to i64
  %and.i.i.i.i.i.i.i.i.i = and i64 %139, 1
  %cmp.i.i.i.i.i.i.i.i.i = icmp eq i64 %and.i.i.i.i.i.i.i.i.i, 0
  %sub.i.i.i.i.i.i.i.i.i = add i64 %139, -1
  %140 = inttoptr i64 %sub.i.i.i.i.i.i.i.i.i to ptr
  %elements.i.i.i.i.i.i.i.i = getelementptr inbounds i8, ptr %140, i64 8
  %arrayidx.i.i.i.i.i.i.i.i = getelementptr inbounds [268435454 x ptr], ptr %elements.i.i.i.i.i.i.i.i, i64 0, i64 %indvars.iv.i.i.i
  %retval.0.i.i.i.i.i.i.i.i = select i1 %cmp.i.i.i.i.i.i.i.i.i, ptr %method_.i.i.i.i.i.i, ptr %arrayidx.i.i.i.i.i.i.i.i
  %141 = load ptr, ptr %retval.0.i.i.i.i.i.i.i.i, align 8
  %142 = getelementptr i8, ptr %141, i64 48
  %call3.val.i.i.i = load ptr, ptr %142, align 8
  %cmp.not.i.i.i.i.i.i.i = icmp eq ptr %call3.val.i.i.i, null
  %cond-lvalue.i.i.i.i.i.i.i = select i1 %cmp.not.i.i.i.i.i.i.i, ptr @_ZN6google8protobuf32_MethodOptions_default_instance_E, ptr %call3.val.i.i.i
  %143 = load ptr, ptr %descriptor_pool, align 8
  %144 = load ptr, ptr %error_collector, align 8
  %add.ptr.i.i.i.i.i = getelementptr inbounds i8, ptr %144, i64 16
  %145 = load ptr, ptr %file136, align 8
  %name_.i.i.i.i.i.i = getelementptr inbounds i8, ptr %145, i64 8
  %146 = load ptr, ptr %name_.i.i.i.i.i.i, align 8
  %call5.i.i.i.i.i = call { i64, ptr } @_ZNKSt7__cxx1112basic_stringIcSt11char_traitsIcESaIcEEcvSt17basic_string_viewIcS2_EEv(ptr noundef nonnull align 8 dereferenceable(32) %146) #29
  %147 = extractvalue { i64, ptr } %call5.i.i.i.i.i, 0
  %148 = extractvalue { i64, ptr } %call5.i.i.i.i.i, 1
  %call7.i.i.i.i.i130 = invoke fastcc noundef zeroext i1 @_ZN6google8protobuf8compiler12_GLOBAL__N_125ValidateTargetConstraintsERKNS0_7MessageERKNS0_14DescriptorPoolERNS6_14ErrorCollectorESt17basic_string_viewIcSt11char_traitsIcEENS0_29FieldOptions_OptionTargetTypeE(ptr noundef nonnull align 8 dereferenceable(16) %cond-lvalue.i.i.i.i.i.i.i, ptr noundef nonnull align 8 dereferenceable(96) %143, ptr noundef nonnull align 8 dereferenceable(8) %add.ptr.i.i.i.i.i, i64 %147, ptr %148, i32 noundef 9)
          to label %call7.i.i.i.i.i.noexc unwind label %lpad139.loopexit

call7.i.i.i.i.i.noexc:                            ; preds = %for.body.i.i.i
  br i1 %call7.i.i.i.i.i130, label %"_ZN6google8protobuf8internal9VisitImplINS1_11VisitorImplIZNS0_8compiler20CommandLineInterface3RunEiPKPKcE3$_1EEE5VisitIJNS0_21MethodDescriptorProtoEEEEvRKNS0_16MethodDescriptorEDpRT_.exit.i.i.i", label %if.then.i.i.i.i.i

if.then.i.i.i.i.i:                                ; preds = %call7.i.i.i.i.i.noexc
  store i8 1, ptr %111, align 1
  br label %"_ZN6google8protobuf8internal9VisitImplINS1_11VisitorImplIZNS0_8compiler20CommandLineInterface3RunEiPKPKcE3$_1EEE5VisitIJNS0_21MethodDescriptorProtoEEEEvRKNS0_16MethodDescriptorEDpRT_.exit.i.i.i"

"_ZN6google8protobuf8internal9VisitImplINS1_11VisitorImplIZNS0_8compiler20CommandLineInterface3RunEiPKPKcE3$_1EEE5VisitIJNS0_21MethodDescriptorProtoEEEEvRKNS0_16MethodDescriptorEDpRT_.exit.i.i.i": ; preds = %if.then.i.i.i.i.i, %call7.i.i.i.i.i.noexc
  %indvars.iv.next.i.i.i = add nuw nsw i64 %indvars.iv.i.i.i, 1
  %149 = load i32, ptr %method_count_.i.i.i.i, align 8
  %150 = sext i32 %149 to i64
  %cmp.i.i.i = icmp slt i64 %indvars.iv.next.i.i.i, %150
  br i1 %cmp.i.i.i, label %for.body.i.i.i, label %"_ZN6google8protobuf8internal9VisitImplINS1_11VisitorImplIZNS0_8compiler20CommandLineInterface3RunEiPKPKcE3$_1EEE5VisitIJNS0_22ServiceDescriptorProtoEEEEvRKNS0_17ServiceDescriptorEDpRT_.exit.i.i", !llvm.loop !96

"_ZN6google8protobuf8internal9VisitImplINS1_11VisitorImplIZNS0_8compiler20CommandLineInterface3RunEiPKPKcE3$_1EEE5VisitIJNS0_22ServiceDescriptorProtoEEEEvRKNS0_17ServiceDescriptorEDpRT_.exit.i.i": ; preds = %"_ZN6google8protobuf8internal9VisitImplINS1_11VisitorImplIZNS0_8compiler20CommandLineInterface3RunEiPKPKcE3$_1EEE5VisitIJNS0_21MethodDescriptorProtoEEEEvRKNS0_16MethodDescriptorEDpRT_.exit.i.i.i", %"_ZZN6google8protobuf8compiler20CommandLineInterface3RunEiPKPKcENK3$_1clINS0_17ServiceDescriptorENS0_22ServiceDescriptorProtoEEEDaRKT_RKT0_.exit.i.i.i"
  %indvars.iv.next76.i.i = add nuw nsw i64 %indvars.iv75.i.i, 1
  %151 = load i32, ptr %service_count_.i.i.i, align 4
  %152 = sext i32 %151 to i64
  %cmp27.i.i = icmp slt i64 %indvars.iv.next76.i.i, %152
  br i1 %cmp27.i.i, label %for.body28.i.i, label %invoke.cont142, !llvm.loop !97

invoke.cont142:                                   ; preds = %"_ZN6google8protobuf8internal9VisitImplINS1_11VisitorImplIZNS0_8compiler20CommandLineInterface3RunEiPKPKcE3$_1EEE5VisitIJNS0_22ServiceDescriptorProtoEEEEvRKNS0_17ServiceDescriptorEDpRT_.exit.i.i", %for.cond25.preheader.i.i
  call void @llvm.lifetime.end.p0(i64 32, ptr nonnull %ref.tmp.i113)
  call void @_ZN6google8protobuf19FileDescriptorProtoD1Ev(ptr noundef nonnull align 8 dereferenceable(224) %proto) #29
  %incdec.ptr.i131 = getelementptr inbounds i8, ptr %__begin2127.sroa.0.0482, i64 8
  %cmp.i110.not = icmp eq ptr %incdec.ptr.i131, %.pre533
  br i1 %cmp.i110.not, label %for.end146, label %for.body135

lpad139.loopexit:                                 ; preds = %for.body.i.i.i
  %lpad.loopexit415 = landingpad { ptr, i32 }
          cleanup
  br label %lpad139

lpad139.loopexit.split-lp.loopexit:               ; preds = %for.body28.i.i
  %lpad.loopexit418 = landingpad { ptr, i32 }
          cleanup
  br label %lpad139

lpad139.loopexit.split-lp.loopexit.split-lp.loopexit: ; preds = %for.body18.i.i
  %lpad.loopexit421 = landingpad { ptr, i32 }
          cleanup
  br label %lpad139

lpad139.loopexit.split-lp.loopexit.split-lp.loopexit.split-lp.loopexit: ; preds = %for.body8.i.i
  %lpad.loopexit424 = landingpad { ptr, i32 }
          cleanup
  br label %lpad139

lpad139.loopexit.split-lp.loopexit.split-lp.loopexit.split-lp.loopexit.split-lp.loopexit: ; preds = %for.body.i.i121
  %lpad.loopexit427 = landingpad { ptr, i32 }
          cleanup
  br label %lpad139

lpad139.loopexit.split-lp.loopexit.split-lp.loopexit.split-lp.loopexit.split-lp.loopexit.split-lp: ; preds = %invoke.cont138, %invoke.cont140
  %lpad.loopexit.split-lp428 = landingpad { ptr, i32 }
          cleanup
  br label %lpad139

lpad139:                                          ; preds = %lpad139.loopexit.split-lp.loopexit, %lpad139.loopexit.split-lp.loopexit.split-lp.loopexit.split-lp.loopexit, %lpad139.loopexit.split-lp.loopexit.split-lp.loopexit.split-lp.loopexit.split-lp.loopexit.split-lp, %lpad139.loopexit.split-lp.loopexit.split-lp.loopexit.split-lp.loopexit.split-lp.loopexit, %lpad139.loopexit.split-lp.loopexit.split-lp.loopexit, %lpad139.loopexit
  %lpad.phi417 = phi { ptr, i32 } [ %lpad.loopexit415, %lpad139.loopexit ], [ %lpad.loopexit418, %lpad139.loopexit.split-lp.loopexit ], [ %lpad.loopexit421, %lpad139.loopexit.split-lp.loopexit.split-lp.loopexit ], [ %lpad.loopexit424, %lpad139.loopexit.split-lp.loopexit.split-lp.loopexit.split-lp.loopexit ], [ %lpad.loopexit427, %lpad139.loopexit.split-lp.loopexit.split-lp.loopexit.split-lp.loopexit.split-lp.loopexit ], [ %lpad.loopexit.split-lp428, %lpad139.loopexit.split-lp.loopexit.split-lp.loopexit.split-lp.loopexit.split-lp.loopexit.split-lp ]
  call void @_ZN6google8protobuf19FileDescriptorProtoD1Ev(ptr noundef nonnull align 8 dereferenceable(224) %proto) #29
  br label %ehcleanup373

for.end146:                                       ; preds = %invoke.cont142, %if.end113, %for.end125
  %153 = load i8, ptr %validation_error, align 1
  %154 = and i8 %153, 1
  %tobool.not = icmp eq i8 %154, 0
  br i1 %tobool.not, label %invoke.cont149, label %cleanup372

invoke.cont149:                                   ; preds = %for.end146
  store ptr getelementptr inbounds ([32 x i8], ptr @_ZN4absl12lts_2023080218container_internal11kEmptyGroupE, i64 0, i64 16), ptr %output_directories, align 8
  %slots_.i.i.i.i.i.i.i = getelementptr inbounds i8, ptr %output_directories, i64 8
  call void @llvm.memset.p0.i64(ptr noundef nonnull align 8 dereferenceable(24) %slots_.i.i.i.i.i.i.i, i8 0, i64 24, i1 false)
  %155 = load i32, ptr %mode_, align 8
  %cmp151 = icmp eq i32 %155, 0
  br i1 %cmp151, label %for.cond153.preheader, label %if.end202

for.cond153.preheader:                            ; preds = %invoke.cont149
  %output_directives_ = getelementptr inbounds i8, ptr %this, i64 384
  %_M_finish.i132 = getelementptr inbounds i8, ptr %this, i64 392
  %156 = load ptr, ptr %_M_finish.i132, align 8
  %157 = load ptr, ptr %output_directives_, align 8
  %cmp155487.not = icmp eq ptr %156, %157
  br i1 %cmp155487.not, label %if.end202, label %for.body156

for.cond153:                                      ; preds = %cleanup196
  %indvars.iv.next = add nuw i64 %indvars.iv, 1
  %158 = load ptr, ptr %_M_finish.i132, align 8
  %159 = load ptr, ptr %output_directives_, align 8
  %sub.ptr.lhs.cast.i133 = ptrtoint ptr %158 to i64
  %sub.ptr.rhs.cast.i134 = ptrtoint ptr %159 to i64
  %sub.ptr.sub.i135 = sub i64 %sub.ptr.lhs.cast.i133, %sub.ptr.rhs.cast.i134
  %sub.ptr.div.i136 = sdiv exact i64 %sub.ptr.sub.i135, 104
  %cmp155 = icmp ugt i64 %sub.ptr.div.i136, %indvars.iv.next
  br i1 %cmp155, label %for.body156, label %if.end202, !llvm.loop !98

for.body156:                                      ; preds = %for.cond153.preheader, %for.cond153
  %indvars.iv = phi i64 [ %indvars.iv.next, %for.cond153 ], [ 0, %for.cond153.preheader ]
  %160 = phi ptr [ %159, %for.cond153 ], [ %157, %for.cond153.preheader ]
  %output_location160 = getelementptr inbounds %"struct.google::protobuf::compiler::CommandLineInterface::OutputDirective", ptr %160, i64 %indvars.iv, i32 3
  invoke void @_ZNSt7__cxx1112basic_stringIcSt11char_traitsIcESaIcEEC1ERKS4_(ptr noundef nonnull align 8 dereferenceable(32) %output_location, ptr noundef nonnull align 8 dereferenceable(32) %output_location160)
          to label %invoke.cont162 unwind label %lpad161.loopexit.split-lp.loopexit.split-lp.loopexit

invoke.cont162:                                   ; preds = %for.body156
  %call164 = call { i64, ptr } @_ZNKSt7__cxx1112basic_stringIcSt11char_traitsIcESaIcEEcvSt17basic_string_viewIcS2_EEv(ptr noundef nonnull align 8 dereferenceable(32) %output_location) #29
  %161 = extractvalue { i64, ptr } %call164, 0
  %cmp.not.i139 = icmp ult i64 %161, 4
  br i1 %cmp.not.i139, label %land.lhs.true, label %_ZN4absl12lts_202308028EndsWithESt17basic_string_viewIcSt11char_traitsIcEES4_.exit

_ZN4absl12lts_202308028EndsWithESt17basic_string_viewIcSt11char_traitsIcEES4_.exit: ; preds = %invoke.cont162
  %162 = extractvalue { i64, ptr } %call164, 1
  %163 = getelementptr i8, ptr %162, i64 %161
  %add.ptr.i141 = getelementptr i8, ptr %163, i64 -4
  %bcmp.i = call i32 @bcmp(ptr noundef nonnull dereferenceable(4) %add.ptr.i141, ptr noundef nonnull dereferenceable(4) @.str.19, i64 4)
  %cmp9.i = icmp eq i32 %bcmp.i, 0
  br i1 %cmp9.i, label %if.end179, label %land.lhs.true

land.lhs.true:                                    ; preds = %invoke.cont162, %_ZN4absl12lts_202308028EndsWithESt17basic_string_viewIcSt11char_traitsIcEES4_.exit
  %call168 = call { i64, ptr } @_ZNKSt7__cxx1112basic_stringIcSt11char_traitsIcESaIcEEcvSt17basic_string_viewIcS2_EEv(ptr noundef nonnull align 8 dereferenceable(32) %output_location) #29
  %164 = extractvalue { i64, ptr } %call168, 0
  %cmp.not.i146 = icmp ult i64 %164, 4
  br i1 %cmp.not.i146, label %land.lhs.true171, label %_ZN4absl12lts_202308028EndsWithESt17basic_string_viewIcSt11char_traitsIcEES4_.exit152

_ZN4absl12lts_202308028EndsWithESt17basic_string_viewIcSt11char_traitsIcEES4_.exit152: ; preds = %land.lhs.true
  %165 = extractvalue { i64, ptr } %call168, 1
  %166 = getelementptr i8, ptr %165, i64 %164
  %add.ptr.i149 = getelementptr i8, ptr %166, i64 -4
  %bcmp.i150 = call i32 @bcmp(ptr noundef nonnull dereferenceable(4) %add.ptr.i149, ptr noundef nonnull dereferenceable(4) @.str.20, i64 4)
  %cmp9.i151 = icmp eq i32 %bcmp.i150, 0
  br i1 %cmp9.i151, label %if.end179, label %land.lhs.true171

land.lhs.true171:                                 ; preds = %land.lhs.true, %_ZN4absl12lts_202308028EndsWithESt17basic_string_viewIcSt11char_traitsIcEES4_.exit152
  %call173 = call { i64, ptr } @_ZNKSt7__cxx1112basic_stringIcSt11char_traitsIcESaIcEEcvSt17basic_string_viewIcS2_EEv(ptr noundef nonnull align 8 dereferenceable(32) %output_location) #29
  %167 = extractvalue { i64, ptr } %call173, 0
  %cmp.not.i157 = icmp ult i64 %167, 7
  br i1 %cmp.not.i157, label %if.then176, label %_ZN4absl12lts_202308028EndsWithESt17basic_string_viewIcSt11char_traitsIcEES4_.exit163

_ZN4absl12lts_202308028EndsWithESt17basic_string_viewIcSt11char_traitsIcEES4_.exit163: ; preds = %land.lhs.true171
  %168 = extractvalue { i64, ptr } %call173, 1
  %169 = getelementptr i8, ptr %168, i64 %167
  %add.ptr.i160 = getelementptr i8, ptr %169, i64 -7
  %bcmp.i161 = call i32 @bcmp(ptr noundef nonnull dereferenceable(7) %add.ptr.i160, ptr noundef nonnull dereferenceable(7) @.str.21, i64 7)
  %cmp9.i162 = icmp eq i32 %bcmp.i161, 0
  br i1 %cmp9.i162, label %if.end179, label %if.then176

if.then176:                                       ; preds = %land.lhs.true171, %_ZN4absl12lts_202308028EndsWithESt17basic_string_viewIcSt11char_traitsIcEES4_.exit163
  invoke fastcc void @_ZN6google8protobuf8compiler12_GLOBAL__N_116AddTrailingSlashEPNSt7__cxx1112basic_stringIcSt11char_traitsIcESaIcEEE(ptr noundef nonnull %output_location)
          to label %if.end179 unwind label %lpad177

lpad161.loopexit:                                 ; preds = %for.body346
  %lpad.loopexit = landingpad { ptr, i32 }
          cleanup
  br label %ehcleanup371

lpad161.loopexit.split-lp.loopexit:               ; preds = %if.end233, %if.then231, %if.then221
  %lpad.loopexit408 = landingpad { ptr, i32 }
          cleanup
  br label %ehcleanup371

lpad161.loopexit.split-lp.loopexit.split-lp.loopexit: ; preds = %for.body156
  %lpad.loopexit412 = landingpad { ptr, i32 }
          cleanup
  br label %ehcleanup371

lpad161.loopexit.split-lp.loopexit.split-lp.loopexit.split-lp: ; preds = %if.end202, %if.then244, %if.then252, %if.then259, %if.then272, %if.else311, %sw.bb356
  %lpad.loopexit.split-lp = landingpad { ptr, i32 }
          cleanup
  br label %ehcleanup371

lpad177:                                          ; preds = %if.then183, %if.then.i.i.i165, %if.end179, %if.end187, %if.then176
  %170 = landingpad { ptr, i32 }
          cleanup
  br label %lpad177.body

lpad177.body:                                     ; preds = %lpad.i171, %lpad177
  %eh.lpad-body174 = phi { ptr, i32 } [ %170, %lpad177 ], [ %177, %lpad.i171 ]
  call void @_ZNSt7__cxx1112basic_stringIcSt11char_traitsIcESaIcEED1Ev(ptr noundef nonnull align 8 dereferenceable(32) %output_location) #29
  br label %ehcleanup371

if.end179:                                        ; preds = %if.then176, %_ZN4absl12lts_202308028EndsWithESt17basic_string_viewIcSt11char_traitsIcEES4_.exit163, %_ZN4absl12lts_202308028EndsWithESt17basic_string_viewIcSt11char_traitsIcEES4_.exit152, %_ZN4absl12lts_202308028EndsWithESt17basic_string_viewIcSt11char_traitsIcEES4_.exit
  %call.i.i.i167 = invoke { i64, i8 } @_ZN4absl12lts_2023080218container_internal12raw_hash_setINS1_17FlatHashMapPolicyINSt7__cxx1112basic_stringIcSt11char_traitsIcESaIcEEESt10unique_ptrIN6google8protobuf8compiler20CommandLineInterface20GeneratorContextImplESt14default_deleteISF_EEEENS1_10StringHashENS1_8StringEqESaISt4pairIKS9_SI_EEE22find_or_prepare_insertIS9_EESM_ImbERKT_(ptr noundef nonnull align 8 dereferenceable(32) %output_directories, ptr noundef nonnull align 8 dereferenceable(32) %output_location)
          to label %call.i.i.i.noexc unwind label %lpad177

call.i.i.i.noexc:                                 ; preds = %if.end179
  %171 = extractvalue { i64, i8 } %call.i.i.i167, 0
  %172 = extractvalue { i64, i8 } %call.i.i.i167, 1
  %173 = and i8 %172, 1
  %tobool.not.i.i.i164 = icmp eq i8 %173, 0
  br i1 %tobool.not.i.i.i164, label %invoke.cont180, label %if.then.i.i.i165

if.then.i.i.i165:                                 ; preds = %call.i.i.i.noexc
  %174 = load ptr, ptr %slots_.i.i.i.i.i.i.i, align 8, !noalias !99
  %add.ptr.i.i.i.i166 = getelementptr inbounds %"union.absl::lts_20230802::container_internal::map_slot_type.411", ptr %174, i64 %171
  invoke void @_ZNSt7__cxx1112basic_stringIcSt11char_traitsIcESaIcEEC1ERKS4_(ptr noundef nonnull align 8 dereferenceable(32) %add.ptr.i.i.i.i166, ptr noundef nonnull align 8 dereferenceable(32) %output_location)
          to label %.noexc168 unwind label %lpad177

.noexc168:                                        ; preds = %if.then.i.i.i165
  %second.i.i.i.i.i.i.i.i.i.i.i = getelementptr inbounds i8, ptr %add.ptr.i.i.i.i166, i64 32
  store ptr null, ptr %second.i.i.i.i.i.i.i.i.i.i.i, align 8, !noalias !99
  br label %invoke.cont180

invoke.cont180:                                   ; preds = %.noexc168, %call.i.i.i.noexc
  %175 = load ptr, ptr %slots_.i.i.i.i.i.i.i, align 8, !noalias !99
  %second.i.i = getelementptr inbounds %"union.absl::lts_20230802::container_internal::map_slot_type.411", ptr %175, i64 %171, i32 0, i32 1
  %176 = load ptr, ptr %second.i.i, align 8
  %cmp.i169.not = icmp eq ptr %176, null
  br i1 %cmp.i169.not, label %if.then183, label %if.end187

if.then183:                                       ; preds = %invoke.cont180
  %call.i170173 = invoke noalias noundef nonnull dereferenceable(48) ptr @_Znwm(i64 noundef 48) #32
          to label %call.i170.noexc unwind label %lpad177

call.i170.noexc:                                  ; preds = %if.then183
  invoke void @_ZN6google8protobuf8compiler20CommandLineInterface20GeneratorContextImplC1ERKSt6vectorIPKNS0_14FileDescriptorESaIS7_EE(ptr noundef nonnull align 8 dereferenceable(41) %call.i170173, ptr noundef nonnull align 8 dereferenceable(24) %parsed_files)
          to label %invoke.cont185 unwind label %lpad.i171, !noalias !104

lpad.i171:                                        ; preds = %call.i170.noexc
  %177 = landingpad { ptr, i32 }
          cleanup
  call void @_ZdlPv(ptr noundef nonnull %call.i170173) #31, !noalias !104
  br label %lpad177.body

invoke.cont185:                                   ; preds = %call.i170.noexc
  %178 = load ptr, ptr %second.i.i, align 8
  store ptr %call.i170173, ptr %second.i.i, align 8
  %tobool.not.i.i.i.i175 = icmp eq ptr %178, null
  br i1 %tobool.not.i.i.i.i175, label %if.end187, label %_ZNKSt14default_deleteIN6google8protobuf8compiler20CommandLineInterface20GeneratorContextImplEEclEPS4_.exit.i.i.i.i

_ZNKSt14default_deleteIN6google8protobuf8compiler20CommandLineInterface20GeneratorContextImplEEclEPS4_.exit.i.i.i.i: ; preds = %invoke.cont185
  %vtable.i.i.i.i.i = load ptr, ptr %178, align 8
  %vfn.i.i.i.i.i = getelementptr inbounds i8, ptr %vtable.i.i.i.i.i, i64 8
  %179 = load ptr, ptr %vfn.i.i.i.i.i, align 8
  call void %179(ptr noundef nonnull align 8 dereferenceable(41) %178) #29
  %.pre534 = load ptr, ptr %second.i.i, align 8
  br label %if.end187

if.end187:                                        ; preds = %invoke.cont185, %_ZNKSt14default_deleteIN6google8protobuf8compiler20CommandLineInterface20GeneratorContextImplEEclEPS4_.exit.i.i.i.i, %invoke.cont180
  %180 = phi ptr [ %call.i170173, %invoke.cont185 ], [ %.pre534, %_ZNKSt14default_deleteIN6google8protobuf8compiler20CommandLineInterface20GeneratorContextImplEEclEPS4_.exit.i.i.i.i ], [ %176, %invoke.cont180 ]
  %181 = load ptr, ptr %output_directives_, align 8
  %add.ptr.i180 = getelementptr inbounds %"struct.google::protobuf::compiler::CommandLineInterface::OutputDirective", ptr %181, i64 %indvars.iv
  %call193 = invoke noundef zeroext i1 @_ZN6google8protobuf8compiler20CommandLineInterface14GenerateOutputERKSt6vectorIPKNS0_14FileDescriptorESaIS6_EERKNS2_15OutputDirectiveEPNS1_16GeneratorContextE(ptr noundef nonnull align 8 dereferenceable(574) %this, ptr noundef nonnull align 8 dereferenceable(24) %parsed_files, ptr noundef nonnull align 8 dereferenceable(104) %add.ptr.i180, ptr noundef %180)
          to label %cleanup196 unwind label %lpad177

cleanup196:                                       ; preds = %if.end187
  call void @_ZNSt7__cxx1112basic_stringIcSt11char_traitsIcESaIcEED1Ev(ptr noundef nonnull align 8 dereferenceable(32) %output_location) #29
  br i1 %call193, label %for.cond153, label %cleanup370

if.end202:                                        ; preds = %for.cond153, %for.cond153.preheader, %invoke.cont149
  %call206 = invoke { ptr, ptr } @_ZN4absl12lts_2023080218container_internal12raw_hash_setINS1_17FlatHashMapPolicyINSt7__cxx1112basic_stringIcSt11char_traitsIcESaIcEEESt10unique_ptrIN6google8protobuf8compiler20CommandLineInterface20GeneratorContextImplESt14default_deleteISF_EEEENS1_10StringHashENS1_8StringEqESaISt4pairIKS9_SI_EEE5beginEv(ptr noundef nonnull align 8 dereferenceable(32) %output_directories)
          to label %invoke.cont208 unwind label %lpad161.loopexit.split-lp.loopexit.split-lp.loopexit.split-lp

invoke.cont208:                                   ; preds = %if.end202
  %182 = extractvalue { ptr, ptr } %call206, 0
  %cmp.i.i181.not490 = icmp eq ptr %182, null
  br i1 %cmp.i.i181.not490, label %for.end242, label %invoke.cont214.preheader

invoke.cont214.preheader:                         ; preds = %invoke.cont208
  %183 = extractvalue { ptr, ptr } %call206, 1
  br label %invoke.cont214

invoke.cont214:                                   ; preds = %invoke.cont214.preheader, %while.end.i.i
  %__begin2204.sroa.0.0492 = phi ptr [ %__begin2204.sroa.0.1, %while.end.i.i ], [ %182, %invoke.cont214.preheader ]
  %__begin2204.sroa.6.0491 = phi ptr [ %__begin2204.sroa.6.1, %while.end.i.i ], [ %183, %invoke.cont214.preheader ]
  %second = getelementptr inbounds i8, ptr %__begin2204.sroa.6.0491, i64 32
  %184 = load ptr, ptr %second, align 8
  %call218 = call { i64, ptr } @_ZNKSt7__cxx1112basic_stringIcSt11char_traitsIcESaIcEEcvSt17basic_string_viewIcS2_EEv(ptr noundef nonnull align 8 dereferenceable(32) %__begin2204.sroa.6.0491) #29
  %185 = extractvalue { i64, ptr } %call218, 0
  %cmp.not.i186 = icmp eq i64 %185, 0
  br i1 %cmp.not.i186, label %if.else226, label %_ZN4absl12lts_202308028EndsWithESt17basic_string_viewIcSt11char_traitsIcEES4_.exit192

_ZN4absl12lts_202308028EndsWithESt17basic_string_viewIcSt11char_traitsIcEES4_.exit192: ; preds = %invoke.cont214
  %186 = extractvalue { i64, ptr } %call218, 1
  %187 = getelementptr i8, ptr %186, i64 %185
  %add.ptr.i189 = getelementptr i8, ptr %187, i64 -1
  %lhsc = load i8, ptr %add.ptr.i189, align 1
  %cmp9.i191 = icmp eq i8 %lhsc, 47
  br i1 %cmp9.i191, label %if.then221, label %if.else226

if.then221:                                       ; preds = %_ZN4absl12lts_202308028EndsWithESt17basic_string_viewIcSt11char_traitsIcEES4_.exit192
  %call223 = invoke noundef zeroext i1 @_ZN6google8protobuf8compiler20CommandLineInterface20GeneratorContextImpl14WriteAllToDiskERKNSt7__cxx1112basic_stringIcSt11char_traitsIcESaIcEEE(ptr noundef nonnull align 8 dereferenceable(41) %184, ptr noundef nonnull align 8 dereferenceable(32) %__begin2204.sroa.6.0491)
          to label %invoke.cont222 unwind label %lpad161.loopexit.split-lp.loopexit

invoke.cont222:                                   ; preds = %if.then221
  br i1 %call223, label %for.inc239, label %cleanup370

if.else226:                                       ; preds = %invoke.cont214, %_ZN4absl12lts_202308028EndsWithESt17basic_string_viewIcSt11char_traitsIcEES4_.exit192
  %call228 = call { i64, ptr } @_ZNKSt7__cxx1112basic_stringIcSt11char_traitsIcESaIcEEcvSt17basic_string_viewIcS2_EEv(ptr noundef nonnull align 8 dereferenceable(32) %__begin2204.sroa.6.0491) #29
  %188 = extractvalue { i64, ptr } %call228, 0
  %cmp.not.i197 = icmp ult i64 %188, 4
  br i1 %cmp.not.i197, label %if.end233, label %_ZN4absl12lts_202308028EndsWithESt17basic_string_viewIcSt11char_traitsIcEES4_.exit203

_ZN4absl12lts_202308028EndsWithESt17basic_string_viewIcSt11char_traitsIcEES4_.exit203: ; preds = %if.else226
  %189 = extractvalue { i64, ptr } %call228, 1
  %190 = getelementptr i8, ptr %189, i64 %188
  %add.ptr.i200 = getelementptr i8, ptr %190, i64 -4
  %bcmp.i201 = call i32 @bcmp(ptr noundef nonnull dereferenceable(4) %add.ptr.i200, ptr noundef nonnull dereferenceable(4) @.str.20, i64 4)
  %cmp9.i202 = icmp eq i32 %bcmp.i201, 0
  br i1 %cmp9.i202, label %if.then231, label %if.end233

if.then231:                                       ; preds = %_ZN4absl12lts_202308028EndsWithESt17basic_string_viewIcSt11char_traitsIcEES4_.exit203
  invoke void @_ZN6google8protobuf8compiler20CommandLineInterface20GeneratorContextImpl14AddJarManifestEv(ptr noundef nonnull align 8 dereferenceable(41) %184)
          to label %if.end233 unwind label %lpad161.loopexit.split-lp.loopexit

if.end233:                                        ; preds = %if.else226, %if.then231, %_ZN4absl12lts_202308028EndsWithESt17basic_string_viewIcSt11char_traitsIcEES4_.exit203
  %call235 = invoke noundef zeroext i1 @_ZN6google8protobuf8compiler20CommandLineInterface20GeneratorContextImpl13WriteAllToZipERKNSt7__cxx1112basic_stringIcSt11char_traitsIcESaIcEEE(ptr noundef nonnull align 8 dereferenceable(41) %184, ptr noundef nonnull align 8 dereferenceable(32) %__begin2204.sroa.6.0491)
          to label %invoke.cont234 unwind label %lpad161.loopexit.split-lp.loopexit

invoke.cont234:                                   ; preds = %if.end233
  br i1 %call235, label %for.inc239, label %cleanup370

for.inc239:                                       ; preds = %invoke.cont222, %invoke.cont234
  %incdec.ptr.i204 = getelementptr inbounds i8, ptr %__begin2204.sroa.0.0492, i64 1
  %incdec.ptr4.i = getelementptr inbounds i8, ptr %__begin2204.sroa.6.0491, i64 40
  %191 = load i8, ptr %incdec.ptr.i204, align 1
  %cmp.i3.i.i = icmp slt i8 %191, -1
  br i1 %cmp.i3.i.i, label %while.body.i.i, label %while.end.i.i

while.body.i.i:                                   ; preds = %for.inc239, %while.body.i.i
  %192 = phi ptr [ %add.ptr6.i.i, %while.body.i.i ], [ %incdec.ptr4.i, %for.inc239 ]
  %add.ptr24.i.i = phi ptr [ %add.ptr.i.i, %while.body.i.i ], [ %incdec.ptr.i204, %for.inc239 ]
  %193 = load <16 x i8>, ptr %add.ptr24.i.i, align 1
  %cmp.i.i.i.i.i = icmp slt <16 x i8> %193, <i8 -1, i8 -1, i8 -1, i8 -1, i8 -1, i8 -1, i8 -1, i8 -1, i8 -1, i8 -1, i8 -1, i8 -1, i8 -1, i8 -1, i8 -1, i8 -1>
  %194 = bitcast <16 x i1> %cmp.i.i.i.i.i to i16
  %195 = zext i16 %194 to i32
  %add.i.i.i = add nuw nsw i32 %195, 1
  %196 = call noundef i32 @llvm.cttz.i32(i32 %add.i.i.i, i1 true), !range !14
  %idx.ext.i.i = zext nneg i32 %196 to i64
  %add.ptr.i.i = getelementptr inbounds i8, ptr %add.ptr24.i.i, i64 %idx.ext.i.i
  %add.ptr6.i.i = getelementptr inbounds %"union.absl::lts_20230802::container_internal::map_slot_type.411", ptr %192, i64 %idx.ext.i.i
  %197 = load i8, ptr %add.ptr.i.i, align 1
  %cmp.i.i.i207 = icmp slt i8 %197, -1
  br i1 %cmp.i.i.i207, label %while.body.i.i, label %while.end.i.i, !llvm.loop !107

while.end.i.i:                                    ; preds = %while.body.i.i, %for.inc239
  %__begin2204.sroa.6.1 = phi ptr [ %incdec.ptr4.i, %for.inc239 ], [ %add.ptr6.i.i, %while.body.i.i ]
  %__begin2204.sroa.0.1 = phi ptr [ %incdec.ptr.i204, %for.inc239 ], [ %add.ptr.i.i, %while.body.i.i ]
  %.lcssa.i.i = phi i8 [ %191, %for.inc239 ], [ %197, %while.body.i.i ]
  %cmp.i.i205 = icmp eq i8 %.lcssa.i.i, -1
