; ModuleID = 'bench/protobuf/original/ruby_generator.cc.ll'
source_filename = "bench/protobuf/original/ruby_generator.cc.ll"
target datalayout = "e-m:e-p270:32:32-p271:32:32-p272:64:64-i64:64-i128:128-f80:128-n8:16:32:64-S128"
target triple = "x86_64-unknown-linux-gnu"

%"class.std::ios_base::Init" = type { i8 }
%"struct.absl::lts_20230802::container_internal::PolicyFunctions" = type { i64, ptr, ptr, ptr }
%"class.std::__cxx11::basic_string" = type { %"struct.std::__cxx11::basic_string<char>::_Alloc_hider", i64, %union.anon }
%"struct.std::__cxx11::basic_string<char>::_Alloc_hider" = type { ptr }
%union.anon = type { i64, [8 x i8] }
%"class.absl::lts_20230802::AlphaNum" = type { %"class.std::basic_string_view", [32 x i8] }
%"class.std::basic_string_view" = type { i64, ptr }
%"struct.std::__cxx11::basic_string<char>::__sv_wrapper" = type { %"class.std::basic_string_view" }
%"class.std::allocator" = type { i8 }
%"class.google::protobuf::Descriptor" = type { %"class.google::protobuf::internal::SymbolBase", i8, i16, i32, ptr, ptr, ptr, ptr, ptr, ptr, ptr, ptr, ptr, ptr, ptr, ptr, ptr, ptr, i32, i32, i32, i32, i32, i32, i32, i32 }
%"class.google::protobuf::internal::SymbolBase" = type { i8 }
%"class.google::protobuf::MessageOptions" = type { %"class.google::protobuf::Message", %union.anon.0 }
%"class.google::protobuf::Message" = type { %"class.google::protobuf::MessageLite" }
%"class.google::protobuf::MessageLite" = type { ptr, %"class.google::protobuf::internal::InternalMetadata" }
%"class.google::protobuf::internal::InternalMetadata" = type { i64 }
%union.anon.0 = type { %"struct.google::protobuf::MessageOptions::Impl_" }
%"struct.google::protobuf::MessageOptions::Impl_" = type <{ %"class.google::protobuf::internal::ExtensionSet", %"class.google::protobuf::internal::HasBits", %"class.google::protobuf::internal::CachedSize", %"class.google::protobuf::RepeatedPtrField", ptr, i8, i8, i8, i8, i8, [3 x i8] }>
%"class.google::protobuf::internal::ExtensionSet" = type { ptr, i16, i16, %"union.google::protobuf::internal::ExtensionSet::AllocatedData" }
%"union.google::protobuf::internal::ExtensionSet::AllocatedData" = type { ptr }
%"class.google::protobuf::internal::HasBits" = type { [1 x i32] }
%"class.google::protobuf::internal::CachedSize" = type { i32 }
%"class.google::protobuf::RepeatedPtrField" = type { %"class.google::protobuf::internal::RepeatedPtrFieldBase" }
%"class.google::protobuf::internal::RepeatedPtrFieldBase" = type { ptr, i32, i32, ptr }
%"class.google::protobuf::EnumDescriptor" = type { %"class.google::protobuf::internal::SymbolBase", i8, i16, i32, ptr, ptr, ptr, ptr, ptr, ptr, ptr, i32, i32, ptr, ptr }
%"class.absl::lts_20230802::flat_hash_map.77" = type { %"class.absl::lts_20230802::container_internal::raw_hash_map.78" }
%"class.absl::lts_20230802::container_internal::raw_hash_map.78" = type { %"class.absl::lts_20230802::container_internal::raw_hash_set.79" }
%"class.absl::lts_20230802::container_internal::raw_hash_set.79" = type { %"class.absl::lts_20230802::container_internal::CompressedTuple.80" }
%"class.absl::lts_20230802::container_internal::CompressedTuple.80" = type { %"struct.absl::lts_20230802::container_internal::internal_compressed_tuple::CompressedTupleImpl.81" }
%"struct.absl::lts_20230802::container_internal::internal_compressed_tuple::CompressedTupleImpl.81" = type { %"struct.absl::lts_20230802::container_internal::internal_compressed_tuple::Storage" }
%"struct.absl::lts_20230802::container_internal::internal_compressed_tuple::Storage" = type { %"class.absl::lts_20230802::container_internal::CommonFields" }
%"class.absl::lts_20230802::container_internal::CommonFields" = type { ptr, ptr, i64, %"class.absl::lts_20230802::container_internal::CompressedTuple.14" }
%"class.absl::lts_20230802::container_internal::CompressedTuple.14" = type { %"struct.absl::lts_20230802::container_internal::internal_compressed_tuple::CompressedTupleImpl.15" }
%"struct.absl::lts_20230802::container_internal::internal_compressed_tuple::CompressedTupleImpl.15" = type { %"struct.absl::lts_20230802::container_internal::internal_compressed_tuple::Storage.16" }
%"struct.absl::lts_20230802::container_internal::internal_compressed_tuple::Storage.16" = type { i64 }
%"union.absl::lts_20230802::container_internal::map_slot_type.90" = type { %"struct.std::pair.91" }
%"struct.std::pair.91" = type { %"class.std::basic_string_view", %"class.std::basic_string_view" }
%"struct.std::pair.93" = type { %"class.std::basic_string_view", %"class.std::basic_string_view" }
%"class.absl::lts_20230802::log_internal::LogMessage" = type { %"class.absl::lts_20230802::base_internal::ErrnoSaver", %"class.std::unique_ptr" }
%"class.absl::lts_20230802::base_internal::ErrnoSaver" = type { i32 }
%"class.std::unique_ptr" = type { %"struct.std::__uniq_ptr_data" }
%"struct.std::__uniq_ptr_data" = type { %"class.std::__uniq_ptr_impl" }
%"class.std::__uniq_ptr_impl" = type { %"class.std::tuple" }
%"class.std::tuple" = type { %"struct.std::_Tuple_impl" }
%"struct.std::_Tuple_impl" = type { %"struct.std::_Head_base.31" }
%"struct.std::_Head_base.31" = type { ptr }
%"class.google::protobuf::FileDescriptor" = type { %"class.google::protobuf::internal::SymbolBase", i8, i8, i32, ptr, ptr, ptr, i32, ptr, i32, i32, i32, i32, i32, i32, ptr, ptr, ptr, ptr, ptr, ptr, ptr, ptr, ptr, ptr, ptr, ptr }
%"class.google::protobuf::FileOptions" = type { %"class.google::protobuf::Message", %union.anon.29 }
%union.anon.29 = type { %"struct.google::protobuf::FileOptions::Impl_" }
%"struct.google::protobuf::FileOptions::Impl_" = type <{ %"class.google::protobuf::internal::ExtensionSet", %"class.google::protobuf::internal::HasBits", %"class.google::protobuf::internal::CachedSize", %"class.google::protobuf::RepeatedPtrField", %"struct.google::protobuf::internal::ArenaStringPtr", %"struct.google::protobuf::internal::ArenaStringPtr", %"struct.google::protobuf::internal::ArenaStringPtr", %"struct.google::protobuf::internal::ArenaStringPtr", %"struct.google::protobuf::internal::ArenaStringPtr", %"struct.google::protobuf::internal::ArenaStringPtr", %"struct.google::protobuf::internal::ArenaStringPtr", %"struct.google::protobuf::internal::ArenaStringPtr", %"struct.google::protobuf::internal::ArenaStringPtr", %"struct.google::protobuf::internal::ArenaStringPtr", ptr, i8, i8, i8, i8, i8, i8, i8, i8, i32, i8, [3 x i8] }>
%"struct.google::protobuf::internal::ArenaStringPtr" = type { %"class.google::protobuf::internal::TaggedStringPtr" }
%"class.google::protobuf::internal::TaggedStringPtr" = type { ptr }
%"class.google::protobuf::io::Printer" = type { %"class.google::protobuf::io::zc_sink_internal::ZeroCopyStreamByteSink", %"struct.google::protobuf::io::Printer::Options", i64, i8, i8, i64, %"class.std::vector", %"class.std::vector.4", %"class.std::vector.9", %"class.absl::lts_20230802::flat_hash_map", %"class.std::vector.24" }
%"class.google::protobuf::io::zc_sink_internal::ZeroCopyStreamByteSink" = type <{ ptr, ptr, i64, i64, i8, [7 x i8] }>
%"struct.google::protobuf::io::Printer::Options" = type <{ i8, [7 x i8], ptr, %"class.std::basic_string_view", %"class.std::basic_string_view", i64, %"class.std::optional", [6 x i8] }>
%"class.std::optional" = type { %"struct.std::_Optional_base" }
%"struct.std::_Optional_base" = type { %"struct.std::_Optional_payload" }
%"struct.std::_Optional_payload" = type { %"struct.std::_Optional_payload_base" }
%"struct.std::_Optional_payload_base" = type { %"union.std::_Optional_payload_base<bool>::_Storage", i8 }
%"union.std::_Optional_payload_base<bool>::_Storage" = type { %"struct.std::_Optional_payload_base<bool>::_Empty_byte" }
%"struct.std::_Optional_payload_base<bool>::_Empty_byte" = type { i8 }
%"class.std::vector" = type { %"struct.std::_Vector_base" }
%"struct.std::_Vector_base" = type { %"struct.std::_Vector_base<unsigned long, std::allocator<unsigned long>>::_Vector_impl" }
%"struct.std::_Vector_base<unsigned long, std::allocator<unsigned long>>::_Vector_impl" = type { %"struct.std::_Vector_base<unsigned long, std::allocator<unsigned long>>::_Vector_impl_data" }
%"struct.std::_Vector_base<unsigned long, std::allocator<unsigned long>>::_Vector_impl_data" = type { ptr, ptr, ptr }
%"class.std::vector.4" = type { %"struct.std::_Vector_base.5" }
%"struct.std::_Vector_base.5" = type { %"struct.std::_Vector_base<std::function<std::optional<google::protobuf::io::Printer::ValueImpl<false>> (std::basic_string_view<char>)>, std::allocator<std::function<std::optional<google::protobuf::io::Printer::ValueImpl<false>> (std::basic_string_view<char>)>>>::_Vector_impl" }
%"struct.std::_Vector_base<std::function<std::optional<google::protobuf::io::Printer::ValueImpl<false>> (std::basic_string_view<char>)>, std::allocator<std::function<std::optional<google::protobuf::io::Printer::ValueImpl<false>> (std::basic_string_view<char>)>>>::_Vector_impl" = type { %"struct.std::_Vector_base<std::function<std::optional<google::protobuf::io::Printer::ValueImpl<false>> (std::basic_string_view<char>)>, std::allocator<std::function<std::optional<google::protobuf::io::Printer::ValueImpl<false>> (std::basic_string_view<char>)>>>::_Vector_impl_data" }
%"struct.std::_Vector_base<std::function<std::optional<google::protobuf::io::Printer::ValueImpl<false>> (std::basic_string_view<char>)>, std::allocator<std::function<std::optional<google::protobuf::io::Printer::ValueImpl<false>> (std::basic_string_view<char>)>>>::_Vector_impl_data" = type { ptr, ptr, ptr }
%"class.std::vector.9" = type { %"struct.std::_Vector_base.10" }
%"struct.std::_Vector_base.10" = type { %"struct.std::_Vector_base<std::function<std::optional<google::protobuf::io::Printer::AnnotationRecord> (std::basic_string_view<char>)>, std::allocator<std::function<std::optional<google::protobuf::io::Printer::AnnotationRecord> (std::basic_string_view<char>)>>>::_Vector_impl" }
%"struct.std::_Vector_base<std::function<std::optional<google::protobuf::io::Printer::AnnotationRecord> (std::basic_string_view<char>)>, std::allocator<std::function<std::optional<google::protobuf::io::Printer::AnnotationRecord> (std::basic_string_view<char>)>>>::_Vector_impl" = type { %"struct.std::_Vector_base<std::function<std::optional<google::protobuf::io::Printer::AnnotationRecord> (std::basic_string_view<char>)>, std::allocator<std::function<std::optional<google::protobuf::io::Printer::AnnotationRecord> (std::basic_string_view<char>)>>>::_Vector_impl_data" }
%"struct.std::_Vector_base<std::function<std::optional<google::protobuf::io::Printer::AnnotationRecord> (std::basic_string_view<char>)>, std::allocator<std::function<std::optional<google::protobuf::io::Printer::AnnotationRecord> (std::basic_string_view<char>)>>>::_Vector_impl_data" = type { ptr, ptr, ptr }
%"class.absl::lts_20230802::flat_hash_map" = type { %"class.absl::lts_20230802::container_internal::raw_hash_map" }
%"class.absl::lts_20230802::container_internal::raw_hash_map" = type { %"class.absl::lts_20230802::container_internal::raw_hash_set" }
%"class.absl::lts_20230802::container_internal::raw_hash_set" = type { %"class.absl::lts_20230802::container_internal::CompressedTuple" }
%"class.absl::lts_20230802::container_internal::CompressedTuple" = type { %"struct.absl::lts_20230802::container_internal::internal_compressed_tuple::CompressedTupleImpl" }
%"struct.absl::lts_20230802::container_internal::internal_compressed_tuple::CompressedTupleImpl" = type { %"struct.absl::lts_20230802::container_internal::internal_compressed_tuple::Storage" }
%"class.std::vector.24" = type { %"struct.std::_Vector_base.25" }
%"struct.std::_Vector_base.25" = type { %"struct.std::_Vector_base<std::__cxx11::basic_string<char>, std::allocator<std::__cxx11::basic_string<char>>>::_Vector_impl" }
%"struct.std::_Vector_base<std::__cxx11::basic_string<char>, std::allocator<std::__cxx11::basic_string<char>>>::_Vector_impl" = type { %"struct.std::_Vector_base<std::__cxx11::basic_string<char>, std::allocator<std::__cxx11::basic_string<char>>>::_Vector_impl_data" }
%"struct.std::_Vector_base<std::__cxx11::basic_string<char>, std::allocator<std::__cxx11::basic_string<char>>>::_Vector_impl_data" = type { ptr, ptr, ptr }
%"class.google::protobuf::FileDescriptorProto" = type { %"class.google::protobuf::Message", %union.anon.32 }
%union.anon.32 = type { %"struct.google::protobuf::FileDescriptorProto::Impl_" }
%"struct.google::protobuf::FileDescriptorProto::Impl_" = type <{ %"class.google::protobuf::internal::HasBits", %"class.google::protobuf::internal::CachedSize", %"class.google::protobuf::RepeatedPtrField.33", %"class.google::protobuf::RepeatedPtrField.34", %"class.google::protobuf::RepeatedPtrField.35", %"class.google::protobuf::RepeatedPtrField.36", %"class.google::protobuf::RepeatedPtrField.37", %"class.google::protobuf::RepeatedField", %"class.google::protobuf::RepeatedField", %"struct.google::protobuf::internal::ArenaStringPtr", %"struct.google::protobuf::internal::ArenaStringPtr", %"struct.google::protobuf::internal::ArenaStringPtr", ptr, ptr, i32, [4 x i8] }>
%"class.google::protobuf::RepeatedPtrField.33" = type { %"class.google::protobuf::internal::RepeatedPtrFieldBase" }
%"class.google::protobuf::RepeatedPtrField.34" = type { %"class.google::protobuf::internal::RepeatedPtrFieldBase" }
%"class.google::protobuf::RepeatedPtrField.35" = type { %"class.google::protobuf::internal::RepeatedPtrFieldBase" }
%"class.google::protobuf::RepeatedPtrField.36" = type { %"class.google::protobuf::internal::RepeatedPtrFieldBase" }
%"class.google::protobuf::RepeatedPtrField.37" = type { %"class.google::protobuf::internal::RepeatedPtrFieldBase" }
%"class.google::protobuf::RepeatedField" = type { i32, i32, ptr }
%"class.absl::lts_20230802::flat_hash_set" = type { %"class.absl::lts_20230802::container_internal::raw_hash_set.38" }
%"class.absl::lts_20230802::container_internal::raw_hash_set.38" = type { %"class.absl::lts_20230802::container_internal::CompressedTuple.39" }
%"class.absl::lts_20230802::container_internal::CompressedTuple.39" = type { %"struct.absl::lts_20230802::container_internal::internal_compressed_tuple::CompressedTupleImpl.40" }
%"struct.absl::lts_20230802::container_internal::internal_compressed_tuple::CompressedTupleImpl.40" = type { %"struct.absl::lts_20230802::container_internal::internal_compressed_tuple::Storage" }
%"struct.absl::lts_20230802::container_internal::HashEq<const google::protobuf::FileDescriptor *>::Hash" = type { i8 }
%"struct.absl::lts_20230802::container_internal::HashEq<const google::protobuf::FileDescriptor *>::Eq" = type { i8 }
%"class.std::allocator.44" = type { i8 }
%class.anon = type { ptr, ptr }
%"class.google::protobuf::FieldDescriptor" = type { %"class.google::protobuf::internal::SymbolBase", i8, i8, i8, i32, ptr, ptr, ptr, ptr, %union.anon.139, %union.anon.140, ptr, ptr, ptr, %union.anon.141 }
%union.anon.139 = type { ptr }
%union.anon.140 = type { ptr }
%union.anon.141 = type { i64 }
%"union.absl::lts_20230802::container_internal::map_slot_type" = type { %"struct.std::pair.70" }
%"struct.std::pair.70" = type { %"class.std::__cxx11::basic_string", %"struct.std::pair.67" }
%"struct.std::pair.67" = type { i64, i64 }
%"class.std::_Function_base" = type { %"union.std::_Any_data", ptr }
%"union.std::_Any_data" = type { %"union.std::_Nocopy_types" }
%"union.std::_Nocopy_types" = type { { i64, i64 } }
%"class.std::function" = type { %"class.std::_Function_base", ptr }
%"class.std::function.74" = type { %"class.std::_Function_base", ptr }
%"class.std::vector.55" = type { %"struct.std::_Vector_base.56" }
%"struct.std::_Vector_base.56" = type { %"struct.std::_Vector_base<const google::protobuf::FieldDescriptor *, std::allocator<const google::protobuf::FieldDescriptor *>>::_Vector_impl" }
%"struct.std::_Vector_base<const google::protobuf::FieldDescriptor *, std::allocator<const google::protobuf::FieldDescriptor *>>::_Vector_impl" = type { %"struct.std::_Vector_base<const google::protobuf::FieldDescriptor *, std::allocator<const google::protobuf::FieldDescriptor *>>::_Vector_impl_data" }
%"struct.std::_Vector_base<const google::protobuf::FieldDescriptor *, std::allocator<const google::protobuf::FieldDescriptor *>>::_Vector_impl_data" = type { ptr, ptr, ptr }
%struct._Guard = type { ptr }
%class.anon.113 = type { ptr }
%"class.absl::lts_20230802::Cleanup" = type { %"class.absl::lts_20230802::cleanup_internal::Storage" }
%"class.absl::lts_20230802::cleanup_internal::Storage" = type { i8, [7 x i8], [8 x i8] }
%"struct.google::protobuf::io::Printer::PrintOptions" = type { %"class.std::optional.107", i8, i8, i8, i8, i8, i8, i8 }
%"class.std::optional.107" = type { %"struct.std::_Optional_base.108" }
%"struct.std::_Optional_base.108" = type { %"struct.std::_Optional_payload.110" }
%"struct.std::_Optional_payload.110" = type { %"struct.std::_Optional_payload_base.111" }
%"struct.std::_Optional_payload_base.111" = type { %"union.std::_Optional_payload_base<google::protobuf::io::Printer::SourceLocation>::_Storage", i8 }
%"union.std::_Optional_payload_base<google::protobuf::io::Printer::SourceLocation>::_Storage" = type { %"struct.std::_Optional_payload_base<google::protobuf::io::Printer::SourceLocation>::_Empty_byte" }
%"struct.std::_Optional_payload_base<google::protobuf::io::Printer::SourceLocation>::_Empty_byte" = type { i8 }
%"class.std::optional.115" = type { %"struct.std::_Optional_base.116" }
%"struct.std::_Optional_base.116" = type { %"struct.std::_Optional_payload.118" }
%"struct.std::_Optional_payload.118" = type { %"struct.std::_Optional_payload.base", [7 x i8] }
%"struct.std::_Optional_payload.base" = type { %"struct.std::_Optional_payload_base.base" }
%"struct.std::_Optional_payload_base.base" = type { %"union.std::_Optional_payload_base<google::protobuf::io::Printer::ValueImpl<false>>::_Storage", i8 }
%"union.std::_Optional_payload_base<google::protobuf::io::Printer::ValueImpl<false>>::_Storage" = type { %"struct.google::protobuf::io::Printer::ValueImpl" }
%"struct.google::protobuf::io::Printer::ValueImpl" = type <{ %"class.std::variant", %"class.std::__cxx11::basic_string", i8, [7 x i8] }>
%"class.std::variant" = type { %"struct.std::__detail::__variant::_Variant_base.base", [7 x i8] }
%"struct.std::__detail::__variant::_Variant_base.base" = type { %"struct.std::__detail::__variant::_Move_assign_base.base" }
%"struct.std::__detail::__variant::_Move_assign_base.base" = type { %"struct.std::__detail::__variant::_Copy_assign_base.base" }
%"struct.std::__detail::__variant::_Copy_assign_base.base" = type { %"struct.std::__detail::__variant::_Move_ctor_base.base" }
%"struct.std::__detail::__variant::_Move_ctor_base.base" = type { %"struct.std::__detail::__variant::_Copy_ctor_base.base" }
%"struct.std::__detail::__variant::_Copy_ctor_base.base" = type { %"struct.std::__detail::__variant::_Variant_storage.base" }
%"struct.std::__detail::__variant::_Variant_storage.base" = type <{ %"union.std::__detail::__variant::_Variadic_union", i8 }>
%"union.std::__detail::__variant::_Variadic_union" = type { %"struct.std::__detail::__variant::_Uninitialized", [16 x i8] }
%"struct.std::__detail::__variant::_Uninitialized" = type { %"class.std::basic_string_view" }
%"struct.std::_Optional_payload_base.120" = type { %"union.std::_Optional_payload_base<google::protobuf::io::Printer::ValueImpl<false>>::_Storage", i8, [7 x i8] }
%"struct.std::__detail::__variant::_Variant_storage" = type <{ %"union.std::__detail::__variant::_Variadic_union", i8, [7 x i8] }>
%"class.std::function.130" = type { %"class.std::_Function_base", ptr }

$_ZN6google8protobuf2io7Printer5PrintIJA7_cSt17basic_string_viewIcSt11char_traitsIcEEA5_cNSt7__cxx1112basic_stringIcS7_SaIcEEEEEEvS8_DpRKT_ = comdat any

$_ZN6google8protobuf2io7Printer5PrintIJA10_cNSt7__cxx1112basic_stringIcSt11char_traitsIcESaIcEEEEEEvSt17basic_string_viewIcS8_EDpRKT_ = comdat any

$_ZN6google8protobuf2io7Printer5PrintIJA5_cNSt7__cxx1112basic_stringIcSt11char_traitsIcESaIcEEEEEEvSt17basic_string_viewIcS8_EDpRKT_ = comdat any

$_ZN6google8protobuf2io7Printer5PrintIJA16_cNSt7__cxx1112basic_stringIcSt11char_traitsIcESaIcEEEA8_cSA_EEEvSt17basic_string_viewIcS8_EDpRKT_ = comdat any

$_ZN6google8protobuf2io7Printer5PrintIJA9_cNSt7__cxx1112basic_stringIcSt11char_traitsIcESaIcEEEEEEvSt17basic_string_viewIcS8_EDpRKT_ = comdat any

$_ZN6google8protobuf2io7PrinterD2Ev = comdat any

$_ZN6google8protobuf8compiler4ruby9GeneratorD2Ev = comdat any

$_ZN6google8protobuf8compiler4ruby9GeneratorD0Ev = comdat any

$_ZNK6google8protobuf8compiler4ruby9Generator20GetSupportedFeaturesEv = comdat any

$_ZNK6google8protobuf8compiler13CodeGenerator14HasGenerateAllEv = comdat any

$_ZNK6google8protobuf8compiler13CodeGenerator20GetFeatureExtensionsEv = comdat any

$_ZNK6google8protobuf8compiler13CodeGenerator17GetMinimumEditionEv = comdat any

$_ZNK6google8protobuf8compiler13CodeGenerator17GetMaximumEditionEv = comdat any

$__clang_call_terminate = comdat any

$_ZN4absl12lts_2023080218container_internal12raw_hash_setINS1_17FlatHashSetPolicyIPKN6google8protobuf14FileDescriptorEEENS1_6HashEqIS8_vE4HashENSB_2EqESaIS8_EEC2IPKS8_EET_SJ_mRKSC_RKSD_RKSE_ = comdat any

$_ZN4absl12lts_2023080218container_internal12raw_hash_setINS1_17FlatHashSetPolicyIPKN6google8protobuf14FileDescriptorEEENS1_6HashEqIS8_vE4HashENSB_2EqESaIS8_EE14prepare_insertEm = comdat any

$_ZN4absl12lts_2023080213hash_internal15MixingHashState21CombineContiguousImplEmPKhmSt17integral_constantIiLi8EE = comdat any

$_ZN4absl12lts_2023080218container_internal12raw_hash_setINS1_17FlatHashSetPolicyIPKN6google8protobuf14FileDescriptorEEENS1_6HashEqIS8_vE4HashENSB_2EqESaIS8_EE6resizeEm = comdat any

$_ZN4absl12lts_2023080218container_internal12raw_hash_setINS1_17FlatHashSetPolicyIPKN6google8protobuf14FileDescriptorEEENS1_6HashEqIS8_vE4HashENSB_2EqESaIS8_EE12hash_slot_fnEPvSG_ = comdat any

$_ZN4absl12lts_2023080218container_internal19TransferRelocatableILm8EEEvPvS3_S3_ = comdat any

$_ZN4absl12lts_2023080218container_internal18DeallocateStandardILm8EEEvRNS1_12CommonFieldsERKNS1_15PolicyFunctionsE = comdat any

$_ZNSt7__cxx1112basic_stringIcSt11char_traitsIcESaIcEE12_M_constructIPKcEEvT_S8_St20forward_iterator_tag = comdat any

$_ZZNSt7__cxx1112basic_stringIcSt11char_traitsIcESaIcEE12_M_constructIPKcEEvT_S8_St20forward_iterator_tagEN6_GuardD2Ev = comdat any

$_ZN6google8protobuf2io7Printer5PrintIN4absl12lts_2023080213flat_hash_mapISt17basic_string_viewIcSt11char_traitsIcEESA_NS5_18container_internal10StringHashENSB_8StringEqESaISt4pairIKSA_SA_EEEEEEvRKT_SA_ = comdat any

$_ZN4absl12lts_2023080218container_internal12raw_hash_setINS1_17FlatHashMapPolicyISt17basic_string_viewIcSt11char_traitsIcEES7_EENS1_10StringHashENS1_8StringEqESaISt4pairIKS7_S7_EEE6resizeEm = comdat any

$_ZN4absl12lts_2023080218container_internal12raw_hash_setINS1_17FlatHashMapPolicyISt17basic_string_viewIcSt11char_traitsIcEES7_EENS1_10StringHashENS1_8StringEqESaISt4pairIKS7_S7_EEE22find_or_prepare_insertIS7_EESB_ImbERKT_ = comdat any

$_ZN4absl12lts_2023080218container_internal12raw_hash_setINS1_17FlatHashMapPolicyISt17basic_string_viewIcSt11char_traitsIcEES7_EENS1_10StringHashENS1_8StringEqESaISt4pairIKS7_S7_EEE14prepare_insertEm = comdat any

$_ZN4absl12lts_2023080218container_internal12raw_hash_setINS1_17FlatHashMapPolicyISt17basic_string_viewIcSt11char_traitsIcEES7_EENS1_10StringHashENS1_8StringEqESaISt4pairIKS7_S7_EEE12hash_slot_fnEPvSG_ = comdat any

$_ZN4absl12lts_2023080218container_internal12raw_hash_setINS1_17FlatHashMapPolicyISt17basic_string_viewIcSt11char_traitsIcEES7_EENS1_10StringHashENS1_8StringEqESaISt4pairIKS7_S7_EEE16transfer_slot_fnEPvSG_SG_ = comdat any

$_ZN4absl12lts_202308027CleanupINS0_16cleanup_internal3TagEZN6google8protobuf2io7Printer8WithVarsINS0_13flat_hash_mapISt17basic_string_viewIcSt11char_traitsIcEESD_NS0_18container_internal10StringHashENSE_8StringEqESaISt4pairIKSD_SD_EEEEEEDaPKT_EUlvE_ED2Ev = comdat any

$_ZNSt6vectorISt8functionIFSt8optionalIN6google8protobuf2io7Printer9ValueImplILb0EEEESt17basic_string_viewIcSt11char_traitsIcEEEESaISE_EE17_M_realloc_insertIJZNS5_8WithVarsIN4absl12lts_2023080213flat_hash_mapISC_SC_NSK_18container_internal10StringHashENSM_8StringEqESaISt4pairIKSC_SC_EEEEEEDaPKT_EUlSC_E_EEEvN9__gnu_cxx17__normal_iteratorIPSE_SG_EEDpOT_ = comdat any

$_ZNSt17_Function_handlerIFSt8optionalIN6google8protobuf2io7Printer9ValueImplILb0EEEESt17basic_string_viewIcSt11char_traitsIcEEEZNS4_8WithVarsIN4absl12lts_2023080213flat_hash_mapISB_SB_NSF_18container_internal10StringHashENSH_8StringEqESaISt4pairIKSB_SB_EEEEEEDaPKT_EUlSB_E_E9_M_invokeERKSt9_Any_dataOSB_ = comdat any

$_ZNSt17_Function_handlerIFSt8optionalIN6google8protobuf2io7Printer9ValueImplILb0EEEESt17basic_string_viewIcSt11char_traitsIcEEEZNS4_8WithVarsIN4absl12lts_2023080213flat_hash_mapISB_SB_NSF_18container_internal10StringHashENSH_8StringEqESaISt4pairIKSB_SB_EEEEEEDaPKT_EUlSB_E_E10_M_managerERSt9_Any_dataRKSU_St18_Manager_operation = comdat any

$_ZZN6google8protobuf2io7Printer8WithVarsIN4absl12lts_2023080213flat_hash_mapISt17basic_string_viewIcSt11char_traitsIcEESA_NS5_18container_internal10StringHashENSB_8StringEqESaISt4pairIKSA_SA_EEEEEEDaPKT_ENKUlSA_E_clESA_ = comdat any

$_ZNK4absl12lts_2023080218container_internal12raw_hash_setINS1_17FlatHashMapPolicyISt17basic_string_viewIcSt11char_traitsIcEES7_EENS1_10StringHashENS1_8StringEqESaISt4pairIKS7_S7_EEE4findIS7_EENSF_14const_iteratorERKT_m = comdat any

$_ZNSt7variantIJSt17basic_string_viewIcSt11char_traitsIcEESt8functionIFbvEEEED2Ev = comdat any

$_ZZN4absl12lts_2023080218container_internal12raw_hash_setINS1_17FlatHashSetPolicyIPKN6google8protobuf14FileDescriptorEEENS1_6HashEqIS8_vE4HashENSB_2EqESaIS8_EE18GetPolicyFunctionsEvE5value = comdat any

$_ZZN4absl12lts_2023080218container_internal12raw_hash_setINS1_17FlatHashMapPolicyISt17basic_string_viewIcSt11char_traitsIcEES7_EENS1_10StringHashENS1_8StringEqESaISt4pairIKS7_S7_EEE18GetPolicyFunctionsEvE5value = comdat any

$_ZTSZN6google8protobuf2io7Printer8WithVarsIN4absl12lts_2023080213flat_hash_mapISt17basic_string_viewIcSt11char_traitsIcEESA_NS5_18container_internal10StringHashENSB_8StringEqESaISt4pairIKSA_SA_EEEEEEDaPKT_EUlSA_E_ = comdat any

$_ZTIZN6google8protobuf2io7Printer8WithVarsIN4absl12lts_2023080213flat_hash_mapISt17basic_string_viewIcSt11char_traitsIcEESA_NS5_18container_internal10StringHashENSB_8StringEqESaISt4pairIKSA_SA_EEEEEEDaPKT_EUlSA_E_ = comdat any

@_ZStL8__ioinit = internal global %"class.std::ios_base::Init" zeroinitializer, align 1
@__dso_handle = external hidden global i8
@.str = private unnamed_addr constant [4 x i8] c"_pb\00", align 1
@.str.1 = private unnamed_addr constant [4 x i8] c".rb\00", align 1
@.str.2 = private unnamed_addr constant [4 x i8] c"PB_\00", align 1
@.str.3 = private unnamed_addr constant [18 x i8] c"$prefix$$name$ = \00", align 1
@.str.4 = private unnamed_addr constant [7 x i8] c"prefix\00", align 1
@.str.5 = private unnamed_addr constant [5 x i8] c"name\00", align 1
@.str.6 = private unnamed_addr constant [82 x i8] c"::Google::Protobuf::DescriptorPool.generated_pool.lookup(\22$full_name$\22).msgclass\0A\00", align 1
@.str.7 = private unnamed_addr constant [10 x i8] c"full_name\00", align 1
@.str.8 = private unnamed_addr constant [3 x i8] c"::\00", align 1
@.str.9 = private unnamed_addr constant [84 x i8] c"::Google::Protobuf::DescriptorPool.generated_pool.lookup(\22$full_name$\22).enummodule\0A\00", align 1
@.str.10 = private unnamed_addr constant [147 x i8] c"generated/home/dtcxzyw/WorkSpace/Projects/compilers/llvm-opt-benchmark/bench/protobuf/protobuf/src/google/protobuf/compiler/ruby/ruby_generator.cc\00", align 1
@.str.11 = private unnamed_addr constant [46 x i8] c"ruby_package option should be in the form of:\00", align 1
@.str.12 = private unnamed_addr constant [27 x i8] c" 'A::B::C' and not 'A.B.C'\00", align 1
@.str.13 = private unnamed_addr constant [2 x i8] c".\00", align 1
@.str.14 = private unnamed_addr constant [1 x i8] zeroinitializer, align 1
@.str.15 = private unnamed_addr constant [15 x i8] c"module $name$\0A\00", align 1
@.str.16 = private unnamed_addr constant [5 x i8] c"end\0A\00", align 1
@.str.17 = private unnamed_addr constant [995 x i8] c"\0Adescriptor_data = \22$descriptor_data$\22\0A\0Apool = Google::Protobuf::DescriptorPool.generated_pool\0A\0Abegin\0A  pool.add_serialized_file(descriptor_data)\0Arescue TypeError\0A  # Compatibility code: will be removed in the next major version.\0A  require 'google/protobuf/descriptor_pb'\0A  parsed = Google::Protobuf::FileDescriptorProto.decode(descriptor_data)\0A  parsed.clear_dependency\0A  serialized = parsed.class.encode(parsed)\0A  file = pool.add_serialized_file(serialized)\0A  warn \22Warning: Protobuf detected an import path issue while loading generated file #{__FILE__}\22\0A  imports = [\0A$imports$  ]\0A  imports.each do |type_name, expected_filename|\0A    import_file = pool.lookup(type_name).file_descriptor\0A    if import_file.name != expected_filename\0A      warn \22- #{file.name} imports #{expected_filename}, but that import was loaded as #{import_file.name}\22\0A    end\0A  end\0A  warn \22Each proto file must use a consistent fully-qualified name.\22\0A  warn \22This will become an error in the next major version.\22\0Aend\0A\0A\00", align 1
@.str.18 = private unnamed_addr constant [16 x i8] c"descriptor_data\00", align 1
@.str.19 = private unnamed_addr constant [8 x i8] c"imports\00", align 1
@.str.20 = private unnamed_addr constant [112 x i8] c"# frozen_string_literal: true\0A# Generated by the protocol buffer compiler.  DO NOT EDIT!\0A# source: $filename$\0A\0A\00", align 1
@.str.21 = private unnamed_addr constant [9 x i8] c"filename\00", align 1
@.str.22 = private unnamed_addr constant [28 x i8] c"require 'google/protobuf'\0A\0A\00", align 1
@.str.23 = private unnamed_addr constant [18 x i8] c"require '$name$'\0A\00", align 1
@.str.24 = private unnamed_addr constant [2 x i8] c"\0A\00", align 1
@_ZTVN6google8protobuf8compiler4ruby9GeneratorE = unnamed_addr constant { [11 x ptr] } { [11 x ptr] [ptr null, ptr @_ZTIN6google8protobuf8compiler4ruby9GeneratorE, ptr @_ZN6google8protobuf8compiler4ruby9GeneratorD2Ev, ptr @_ZN6google8protobuf8compiler4ruby9GeneratorD0Ev, ptr @_ZNK6google8protobuf8compiler4ruby9Generator8GenerateEPKNS0_14FileDescriptorERKNSt7__cxx1112basic_stringIcSt11char_traitsIcESaIcEEEPNS1_16GeneratorContextEPSC_, ptr @_ZNK6google8protobuf8compiler13CodeGenerator11GenerateAllERKSt6vectorIPKNS0_14FileDescriptorESaIS6_EERKNSt7__cxx1112basic_stringIcSt11char_traitsIcESaIcEEEPNS1_16GeneratorContextEPSG_, ptr @_ZNK6google8protobuf8compiler4ruby9Generator20GetSupportedFeaturesEv, ptr @_ZNK6google8protobuf8compiler13CodeGenerator14HasGenerateAllEv, ptr @_ZNK6google8protobuf8compiler13CodeGenerator20GetFeatureExtensionsEv, ptr @_ZNK6google8protobuf8compiler13CodeGenerator17GetMinimumEditionEv, ptr @_ZNK6google8protobuf8compiler13CodeGenerator17GetMaximumEditionEv] }, align 8
@_ZTVN10__cxxabiv120__si_class_type_infoE = external global [0 x ptr]
@_ZTSN6google8protobuf8compiler4ruby9GeneratorE = constant [43 x i8] c"N6google8protobuf8compiler4ruby9GeneratorE\00", align 1
@_ZTIN6google8protobuf8compiler13CodeGeneratorE = external constant ptr
@_ZTIN6google8protobuf8compiler4ruby9GeneratorE = constant { ptr, ptr, ptr } { ptr getelementptr inbounds (ptr, ptr @_ZTVN10__cxxabiv120__si_class_type_infoE, i64 2), ptr @_ZTSN6google8protobuf8compiler4ruby9GeneratorE, ptr @_ZTIN6google8protobuf8compiler13CodeGeneratorE }, align 8
@_ZN4absl12lts_2023080218container_internal11kEmptyGroupE = external constant [32 x i8], align 16
@_ZN4absl12lts_2023080213hash_internal15MixingHashState5kSeedE = external constant ptr, align 8
@_ZZN4absl12lts_2023080218container_internal12raw_hash_setINS1_17FlatHashSetPolicyIPKN6google8protobuf14FileDescriptorEEENS1_6HashEqIS8_vE4HashENSB_2EqESaIS8_EE18GetPolicyFunctionsEvE5value = linkonce_odr hidden constant %"struct.absl::lts_20230802::container_internal::PolicyFunctions" { i64 8, ptr @_ZN4absl12lts_2023080218container_internal12raw_hash_setINS1_17FlatHashSetPolicyIPKN6google8protobuf14FileDescriptorEEENS1_6HashEqIS8_vE4HashENSB_2EqESaIS8_EE12hash_slot_fnEPvSG_, ptr @_ZN4absl12lts_2023080218container_internal19TransferRelocatableILm8EEEvPvS3_S3_, ptr @_ZN4absl12lts_2023080218container_internal18DeallocateStandardILm8EEEvRNS1_12CommonFieldsERKNS1_15PolicyFunctionsE }, comdat, align 8
@_ZZN4absl12lts_2023080218container_internal12raw_hash_setINS1_17FlatHashMapPolicyISt17basic_string_viewIcSt11char_traitsIcEES7_EENS1_10StringHashENS1_8StringEqESaISt4pairIKS7_S7_EEE18GetPolicyFunctionsEvE5value = linkonce_odr hidden constant %"struct.absl::lts_20230802::container_internal::PolicyFunctions" { i64 32, ptr @_ZN4absl12lts_2023080218container_internal12raw_hash_setINS1_17FlatHashMapPolicyISt17basic_string_viewIcSt11char_traitsIcEES7_EENS1_10StringHashENS1_8StringEqESaISt4pairIKS7_S7_EEE12hash_slot_fnEPvSG_, ptr @_ZN4absl12lts_2023080218container_internal12raw_hash_setINS1_17FlatHashMapPolicyISt17basic_string_viewIcSt11char_traitsIcEES7_EENS1_10StringHashENS1_8StringEqESaISt4pairIKS7_S7_EEE16transfer_slot_fnEPvSG_SG_, ptr @_ZN4absl12lts_2023080218container_internal18DeallocateStandardILm8EEEvRNS1_12CommonFieldsERKNS1_15PolicyFunctionsE }, comdat, align 8
@.str.30 = private unnamed_addr constant [3 x i8] c";,\00", align 1
@_ZTVN10__cxxabiv117__class_type_infoE = external global [0 x ptr]
@_ZTSZN6google8protobuf2io7Printer8WithVarsIN4absl12lts_2023080213flat_hash_mapISt17basic_string_viewIcSt11char_traitsIcEESA_NS5_18container_internal10StringHashENSB_8StringEqESaISt4pairIKSA_SA_EEEEEEDaPKT_EUlSA_E_ = linkonce_odr hidden constant [210 x i8] c"ZN6google8protobuf2io7Printer8WithVarsIN4absl12lts_2023080213flat_hash_mapISt17basic_string_viewIcSt11char_traitsIcEESA_NS5_18container_internal10StringHashENSB_8StringEqESaISt4pairIKSA_SA_EEEEEEDaPKT_EUlSA_E_\00", comdat, align 1
@_ZTIZN6google8protobuf2io7Printer8WithVarsIN4absl12lts_2023080213flat_hash_mapISt17basic_string_viewIcSt11char_traitsIcEESA_NS5_18container_internal10StringHashENSB_8StringEqESaISt4pairIKSA_SA_EEEEEEDaPKT_EUlSA_E_ = linkonce_odr hidden constant { ptr, ptr } { ptr getelementptr inbounds (ptr, ptr @_ZTVN10__cxxabiv117__class_type_infoE, i64 2), ptr @_ZTSZN6google8protobuf2io7Printer8WithVarsIN4absl12lts_2023080213flat_hash_mapISt17basic_string_viewIcSt11char_traitsIcEESA_NS5_18container_internal10StringHashENSB_8StringEqESaISt4pairIKSA_SA_EEEEEEDaPKT_EUlSA_E_ }, comdat, align 8
@.str.31 = private unnamed_addr constant [26 x i8] c"vector::_M_realloc_insert\00", align 1
@.str.32 = private unnamed_addr constant [7 x i8] c"    [\22\00", align 1
@.str.33 = private unnamed_addr constant [5 x i8] c"\22, \22\00", align 1
@.str.34 = private unnamed_addr constant [5 x i8] c"\22],\0A\00", align 1
@llvm.global_ctors = appending global [1 x { i32, ptr, ptr }] [{ i32, ptr, ptr } { i32 65535, ptr @_GLOBAL__sub_I_ruby_generator.cc, ptr null }]

declare void @_ZNSt8ios_base4InitC1Ev(ptr noundef nonnull align 1 dereferenceable(1)) unnamed_addr #0

; Function Attrs: nounwind
declare void @_ZNSt8ios_base4InitD1Ev(ptr noundef nonnull align 1 dereferenceable(1)) unnamed_addr #1

; Function Attrs: nofree nounwind
declare i32 @__cxa_atexit(ptr, ptr, ptr) local_unnamed_addr #2

; Function Attrs: mustprogress uwtable
define hidden void @_ZN6google8protobuf8compiler4ruby14GetRequireNameB5cxx11ESt17basic_string_viewIcSt11char_traitsIcEE(ptr noalias sret(%"class.std::__cxx11::basic_string") align 8 %agg.result, i64 %proto_file.coerce0, ptr %proto_file.coerce1) local_unnamed_addr #3 personality ptr @__gxx_personality_v0 {
entry:
  %ref.tmp = alloca %"class.absl::lts_20230802::AlphaNum", align 8
  %ref.tmp2 = alloca %"class.absl::lts_20230802::AlphaNum", align 8
  %cmp.not.i.i = icmp eq i64 %proto_file.coerce0, 0
  br i1 %cmp.not.i.i, label %_ZNKSt17basic_string_viewIcSt11char_traitsIcEE12find_last_ofEcm.exit, label %for.cond.i.i

for.cond.i.i:                                     ; preds = %entry, %for.body.i.i
  %__size.1.i.i = phi i64 [ %dec4.i.i, %for.body.i.i ], [ %proto_file.coerce0, %entry ]
  %cmp5.not.i.i = icmp eq i64 %__size.1.i.i, 0
  br i1 %cmp5.not.i.i, label %_ZNKSt17basic_string_viewIcSt11char_traitsIcEE12find_last_ofEcm.exit, label %for.body.i.i

for.body.i.i:                                     ; preds = %for.cond.i.i
  %dec4.i.i = add i64 %__size.1.i.i, -1
  %arrayidx.i.i = getelementptr inbounds i8, ptr %proto_file.coerce1, i64 %dec4.i.i
  %0 = load i8, ptr %arrayidx.i.i, align 1
  %cmp.i.i.i = icmp eq i8 %0, 46
  br i1 %cmp.i.i.i, label %_ZNKSt17basic_string_viewIcSt11char_traitsIcEE12find_last_ofEcm.exit, label %for.cond.i.i, !llvm.loop !4

_ZNKSt17basic_string_viewIcSt11char_traitsIcEE12find_last_ofEcm.exit: ; preds = %for.cond.i.i, %for.body.i.i, %entry
  %retval.0.i.i = phi i64 [ -1, %entry ], [ -1, %for.cond.i.i ], [ %dec4.i.i, %for.body.i.i ]
  %.sroa.speculated.i = tail call i64 @llvm.umin.i64(i64 %proto_file.coerce0, i64 %retval.0.i.i)
  store i64 %.sroa.speculated.i, ptr %ref.tmp, align 8
  %pc.sroa.2.0.piece_.sroa_idx.i = getelementptr inbounds i8, ptr %ref.tmp, i64 8
  store ptr %proto_file.coerce1, ptr %pc.sroa.2.0.piece_.sroa_idx.i, align 8
  store i64 3, ptr %ref.tmp2, align 8
  %1 = getelementptr inbounds { i64, ptr }, ptr %ref.tmp2, i64 0, i32 1
  store ptr @.str, ptr %1, align 8
  call void @_ZN4absl12lts_202308026StrCatB5cxx11ERKNS0_8AlphaNumES3_(ptr sret(%"class.std::__cxx11::basic_string") align 8 %agg.result, ptr noundef nonnull align 8 dereferenceable(48) %ref.tmp, ptr noundef nonnull align 8 dereferenceable(48) %ref.tmp2)
  ret void
}

declare void @_ZN4absl12lts_202308026StrCatB5cxx11ERKNS0_8AlphaNumES3_(ptr sret(%"class.std::__cxx11::basic_string") align 8, ptr noundef nonnull align 8 dereferenceable(48), ptr noundef nonnull align 8 dereferenceable(48)) local_unnamed_addr #0

; Function Attrs: mustprogress uwtable
define hidden void @_ZN6google8protobuf8compiler4ruby17GetOutputFilenameB5cxx11ESt17basic_string_viewIcSt11char_traitsIcEE(ptr noalias sret(%"class.std::__cxx11::basic_string") align 8 %agg.result, i64 %proto_file.coerce0, ptr %proto_file.coerce1) local_unnamed_addr #3 personality ptr @__gxx_personality_v0 {
entry:
  %ref.tmp.i = alloca %"class.absl::lts_20230802::AlphaNum", align 8
  %ref.tmp2.i = alloca %"class.absl::lts_20230802::AlphaNum", align 8
  %ref.tmp = alloca %"class.absl::lts_20230802::AlphaNum", align 8
  %ref.tmp1 = alloca %"class.std::__cxx11::basic_string", align 8
  %ref.tmp2 = alloca %"class.absl::lts_20230802::AlphaNum", align 8
  call void @llvm.lifetime.start.p0(i64 48, ptr nonnull %ref.tmp.i)
  call void @llvm.lifetime.start.p0(i64 48, ptr nonnull %ref.tmp2.i)
  %cmp.not.i.i.i = icmp eq i64 %proto_file.coerce0, 0
  br i1 %cmp.not.i.i.i, label %invoke.cont3, label %for.cond.i.i.i

for.cond.i.i.i:                                   ; preds = %entry, %for.body.i.i.i
  %__size.1.i.i.i = phi i64 [ %dec4.i.i.i, %for.body.i.i.i ], [ %proto_file.coerce0, %entry ]
  %cmp5.not.i.i.i = icmp eq i64 %__size.1.i.i.i, 0
  br i1 %cmp5.not.i.i.i, label %invoke.cont3, label %for.body.i.i.i

for.body.i.i.i:                                   ; preds = %for.cond.i.i.i
  %dec4.i.i.i = add i64 %__size.1.i.i.i, -1
  %arrayidx.i.i.i = getelementptr inbounds i8, ptr %proto_file.coerce1, i64 %dec4.i.i.i
  %0 = load i8, ptr %arrayidx.i.i.i, align 1, !noalias !6
  %cmp.i.i.i.i = icmp eq i8 %0, 46
  br i1 %cmp.i.i.i.i, label %invoke.cont3, label %for.cond.i.i.i, !llvm.loop !4

invoke.cont3:                                     ; preds = %for.body.i.i.i, %for.cond.i.i.i, %entry
  %retval.0.i.i.i = phi i64 [ -1, %entry ], [ %dec4.i.i.i, %for.body.i.i.i ], [ -1, %for.cond.i.i.i ]
  %.sroa.speculated.i.i = tail call i64 @llvm.umin.i64(i64 %proto_file.coerce0, i64 %retval.0.i.i.i)
  store i64 %.sroa.speculated.i.i, ptr %ref.tmp.i, align 8, !noalias !6
  %pc.sroa.2.0.piece_.sroa_idx.i.i = getelementptr inbounds i8, ptr %ref.tmp.i, i64 8
  store ptr %proto_file.coerce1, ptr %pc.sroa.2.0.piece_.sroa_idx.i.i, align 8, !noalias !6
  store i64 3, ptr %ref.tmp2.i, align 8, !noalias !6
  %1 = getelementptr inbounds { i64, ptr }, ptr %ref.tmp2.i, i64 0, i32 1
  store ptr @.str, ptr %1, align 8, !noalias !6
  call void @_ZN4absl12lts_202308026StrCatB5cxx11ERKNS0_8AlphaNumES3_(ptr nonnull sret(%"class.std::__cxx11::basic_string") align 8 %ref.tmp1, ptr noundef nonnull align 8 dereferenceable(48) %ref.tmp.i, ptr noundef nonnull align 8 dereferenceable(48) %ref.tmp2.i)
  call void @llvm.lifetime.end.p0(i64 48, ptr nonnull %ref.tmp.i)
  call void @llvm.lifetime.end.p0(i64 48, ptr nonnull %ref.tmp2.i)
  %call.i = call { i64, ptr } @_ZNKSt7__cxx1112basic_stringIcSt11char_traitsIcESaIcEEcvSt17basic_string_viewIcS2_EEv(ptr noundef nonnull align 8 dereferenceable(32) %ref.tmp1) #24
  %2 = extractvalue { i64, ptr } %call.i, 0
  store i64 %2, ptr %ref.tmp, align 8
  %3 = getelementptr inbounds { i64, ptr }, ptr %ref.tmp, i64 0, i32 1
  %4 = extractvalue { i64, ptr } %call.i, 1
  store ptr %4, ptr %3, align 8
  store i64 3, ptr %ref.tmp2, align 8
  %5 = getelementptr inbounds { i64, ptr }, ptr %ref.tmp2, i64 0, i32 1
  store ptr @.str.1, ptr %5, align 8
  invoke void @_ZN4absl12lts_202308026StrCatB5cxx11ERKNS0_8AlphaNumES3_(ptr sret(%"class.std::__cxx11::basic_string") align 8 %agg.result, ptr noundef nonnull align 8 dereferenceable(48) %ref.tmp, ptr noundef nonnull align 8 dereferenceable(48) %ref.tmp2)
          to label %invoke.cont4 unwind label %lpad

invoke.cont4:                                     ; preds = %invoke.cont3
  call void @_ZNSt7__cxx1112basic_stringIcSt11char_traitsIcESaIcEED1Ev(ptr noundef nonnull align 8 dereferenceable(32) %ref.tmp1) #24
  ret void

lpad:                                             ; preds = %invoke.cont3
  %6 = landingpad { ptr, i32 }
          cleanup
  call void @_ZNSt7__cxx1112basic_stringIcSt11char_traitsIcESaIcEED1Ev(ptr noundef nonnull align 8 dereferenceable(32) %ref.tmp1) #24
  resume { ptr, i32 } %6
}

; Function Attrs: mustprogress nocallback nofree nounwind willreturn memory(argmem: readwrite)
declare void @llvm.memcpy.p0.p0.i64(ptr noalias nocapture writeonly, ptr noalias nocapture readonly, i64, i1 immarg) #4

declare i32 @__gxx_personality_v0(...)

; Function Attrs: nounwind
declare void @_ZNSt7__cxx1112basic_stringIcSt11char_traitsIcESaIcEED1Ev(ptr noundef nonnull align 8 dereferenceable(32)) unnamed_addr #1

; Function Attrs: mustprogress nofree norecurse nosync nounwind willreturn memory(none) uwtable
define hidden noundef zeroext i1 @_ZN6google8protobuf8compiler4ruby7IsLowerEc(i8 noundef signext %ch) local_unnamed_addr #5 {
entry:
  %0 = add i8 %ch, -97
  %1 = icmp ult i8 %0, 26
  ret i1 %1
}

; Function Attrs: mustprogress nofree norecurse nosync nounwind willreturn memory(none) uwtable
define hidden noundef zeroext i1 @_ZN6google8protobuf8compiler4ruby7IsUpperEc(i8 noundef signext %ch) local_unnamed_addr #5 {
entry:
  %0 = add i8 %ch, -65
  %1 = icmp ult i8 %0, 26
  ret i1 %1
}

; Function Attrs: mustprogress nofree norecurse nosync nounwind willreturn memory(none) uwtable
define hidden noundef zeroext i1 @_ZN6google8protobuf8compiler4ruby7IsAlphaEc(i8 noundef signext %ch) local_unnamed_addr #5 {
entry:
  %0 = and i8 %ch, -33
  %1 = add i8 %0, -65
  %2 = icmp ult i8 %1, 26
  ret i1 %2
}

; Function Attrs: mustprogress nofree norecurse nosync nounwind willreturn memory(none) uwtable
define hidden noundef signext i8 @_ZN6google8protobuf8compiler4ruby9UpperCharEc(i8 noundef signext %ch) local_unnamed_addr #5 {
entry:
  %0 = add i8 %ch, -97
  %1 = icmp ult i8 %0, 26
  %add = add i8 %ch, -32
  %cond = select i1 %1, i8 %add, i8 %ch
  ret i8 %cond
}

; Function Attrs: mustprogress uwtable
define hidden void @_ZN6google8protobuf8compiler4ruby15PackageToModuleB5cxx11ESt17basic_string_viewIcSt11char_traitsIcEE(ptr noalias nonnull sret(%"class.std::__cxx11::basic_string") align 8 %agg.result, i64 %name.coerce0, ptr nocapture readonly %name.coerce1) local_unnamed_addr #3 personality ptr @__gxx_personality_v0 {
entry:
  tail call void @_ZNSt7__cxx1112basic_stringIcSt11char_traitsIcESaIcEEC1Ev(ptr noundef nonnull align 8 dereferenceable(32) %agg.result) #24
  invoke void @_ZNSt7__cxx1112basic_stringIcSt11char_traitsIcESaIcEE7reserveEm(ptr noundef nonnull align 8 dereferenceable(32) %agg.result, i64 noundef %name.coerce0)
          to label %for.cond.preheader unwind label %lpad.loopexit.split-lp

for.cond.preheader:                               ; preds = %entry
  %cmp14.not = icmp eq i64 %name.coerce0, 0
  br i1 %cmp14.not, label %nrvo.skipdtor, label %for.body

for.body:                                         ; preds = %for.cond.preheader, %for.inc
  %indvars.iv = phi i64 [ %indvars.iv.next, %for.inc ], [ 0, %for.cond.preheader ]
  %next_upper.015 = phi i1 [ %cmp5, %for.inc ], [ true, %for.cond.preheader ]
  %add.ptr.i = getelementptr inbounds i8, ptr %name.coerce1, i64 %indvars.iv
  %0 = load i8, ptr %add.ptr.i, align 1
  %cmp5 = icmp eq i8 %0, 95
  br i1 %cmp5, label %for.inc, label %if.else

lpad.loopexit:                                    ; preds = %if.else
  %lpad.loopexit12 = landingpad { ptr, i32 }
          cleanup
  br label %lpad

lpad.loopexit.split-lp:                           ; preds = %entry
  %lpad.loopexit.split-lp13 = landingpad { ptr, i32 }
          cleanup
  br label %lpad

lpad:                                             ; preds = %lpad.loopexit.split-lp, %lpad.loopexit
  %lpad.phi = phi { ptr, i32 } [ %lpad.loopexit12, %lpad.loopexit ], [ %lpad.loopexit.split-lp13, %lpad.loopexit.split-lp ]
  tail call void @_ZNSt7__cxx1112basic_stringIcSt11char_traitsIcESaIcEED1Ev(ptr noundef nonnull align 8 dereferenceable(32) %agg.result) #24
  resume { ptr, i32 } %lpad.phi

if.else:                                          ; preds = %for.body
  %1 = add i8 %0, -97
  %2 = icmp ult i8 %1, 26
  %add.i = add i8 %0, -32
  %3 = and i1 %next_upper.015, %2
  %4 = select i1 %3, i8 %add.i, i8 %0
  invoke void @_ZNSt7__cxx1112basic_stringIcSt11char_traitsIcESaIcEE9push_backEc(ptr noundef nonnull align 8 dereferenceable(32) %agg.result, i8 noundef signext %4)
          to label %for.inc unwind label %lpad.loopexit

for.inc:                                          ; preds = %if.else, %for.body
  %indvars.iv.next = add nuw i64 %indvars.iv, 1
  %exitcond.not = icmp eq i64 %indvars.iv.next, %name.coerce0
  br i1 %exitcond.not, label %nrvo.skipdtor, label %for.body, !llvm.loop !9

nrvo.skipdtor:                                    ; preds = %for.inc, %for.cond.preheader
  ret void
}

; Function Attrs: nounwind
declare void @_ZNSt7__cxx1112basic_stringIcSt11char_traitsIcESaIcEEC1Ev(ptr noundef nonnull align 8 dereferenceable(32)) unnamed_addr #1

declare void @_ZNSt7__cxx1112basic_stringIcSt11char_traitsIcESaIcEE7reserveEm(ptr noundef nonnull align 8 dereferenceable(32), i64 noundef) local_unnamed_addr #0

declare void @_ZNSt7__cxx1112basic_stringIcSt11char_traitsIcESaIcEE9push_backEc(ptr noundef nonnull align 8 dereferenceable(32), i8 noundef signext) local_unnamed_addr #0

; Function Attrs: mustprogress uwtable
define hidden void @_ZN6google8protobuf8compiler4ruby14RubifyConstantB5cxx11ESt17basic_string_viewIcSt11char_traitsIcEE(ptr noalias sret(%"class.std::__cxx11::basic_string") align 8 %agg.result, i64 %name.coerce0, ptr %name.coerce1) local_unnamed_addr #3 personality ptr @__gxx_personality_v0 {
entry:
  %agg.tmp.i = alloca %"struct.std::__cxx11::basic_string<char>::__sv_wrapper", align 8
  %ret = alloca %"class.std::__cxx11::basic_string", align 8
  %ref.tmp = alloca %"class.std::allocator", align 1
  %ref.tmp15 = alloca %"class.absl::lts_20230802::AlphaNum", align 8
  %ref.tmp17 = alloca %"class.absl::lts_20230802::AlphaNum", align 8
  call void @_ZNSaIcEC1Ev(ptr noundef nonnull align 1 dereferenceable(1) %ref.tmp) #24
  call void @llvm.lifetime.start.p0(i64 16, ptr nonnull %agg.tmp.i)
  %call.i = call { i64, ptr } @_ZNSt7__cxx1112basic_stringIcSt11char_traitsIcESaIcEE17_S_to_string_viewESt17basic_string_viewIcS2_E(i64 %name.coerce0, ptr %name.coerce1) #24
  %0 = extractvalue { i64, ptr } %call.i, 0
  %1 = extractvalue { i64, ptr } %call.i, 1
  call void @_ZNSt7__cxx1112basic_stringIcSt11char_traitsIcESaIcEE12__sv_wrapperC1ESt17basic_string_viewIcS2_E(ptr noundef nonnull align 8 dereferenceable(16) %agg.tmp.i, i64 %0, ptr %1) #24
  %2 = load i64, ptr %agg.tmp.i, align 8
  %3 = getelementptr inbounds { i64, ptr }, ptr %agg.tmp.i, i64 0, i32 1
  %4 = load ptr, ptr %3, align 8
  invoke void @_ZNSt7__cxx1112basic_stringIcSt11char_traitsIcESaIcEEC2ENS4_12__sv_wrapperERKS3_(ptr noundef nonnull align 8 dereferenceable(32) %ret, i64 %2, ptr %4, ptr noundef nonnull align 1 dereferenceable(1) %ref.tmp)
          to label %invoke.cont unwind label %lpad

invoke.cont:                                      ; preds = %entry
  call void @llvm.lifetime.end.p0(i64 16, ptr nonnull %agg.tmp.i)
  call void @_ZNSaIcED1Ev(ptr noundef nonnull align 1 dereferenceable(1) %ref.tmp) #24
  %call = call noundef zeroext i1 @_ZNKSt7__cxx1112basic_stringIcSt11char_traitsIcESaIcEE5emptyEv(ptr noundef nonnull align 8 dereferenceable(32) %ret) #24
  br i1 %call, label %if.end21, label %if.then

if.then:                                          ; preds = %invoke.cont
  %call3 = invoke noundef nonnull align 1 dereferenceable(1) ptr @_ZNSt7__cxx1112basic_stringIcSt11char_traitsIcESaIcEEixEm(ptr noundef nonnull align 8 dereferenceable(32) %ret, i64 noundef 0)
          to label %invoke.cont2 unwind label %lpad1

invoke.cont2:                                     ; preds = %if.then
  %5 = load i8, ptr %call3, align 1
  %6 = add i8 %5, -97
  %7 = icmp ult i8 %6, 26
  br i1 %7, label %if.then5, label %if.else

if.then5:                                         ; preds = %invoke.cont2
  %call7 = invoke noundef nonnull align 1 dereferenceable(1) ptr @_ZNSt7__cxx1112basic_stringIcSt11char_traitsIcESaIcEEixEm(ptr noundef nonnull align 8 dereferenceable(32) %ret, i64 noundef 0)
          to label %invoke.cont6 unwind label %lpad1

invoke.cont6:                                     ; preds = %if.then5
  %8 = load i8, ptr %call7, align 1
  %call10 = invoke noundef nonnull align 1 dereferenceable(1) ptr @_ZNSt7__cxx1112basic_stringIcSt11char_traitsIcESaIcEEixEm(ptr noundef nonnull align 8 dereferenceable(32) %ret, i64 noundef 0)
          to label %invoke.cont9 unwind label %lpad1

invoke.cont9:                                     ; preds = %invoke.cont6
  %9 = add i8 %8, -97
  %10 = icmp ult i8 %9, 26
  %add.i = add i8 %8, -32
  %cond.i = select i1 %10, i8 %add.i, i8 %8
  store i8 %cond.i, ptr %call10, align 1
  br label %if.end21

lpad:                                             ; preds = %entry
  %11 = landingpad { ptr, i32 }
          cleanup
  call void @_ZNSaIcED1Ev(ptr noundef nonnull align 1 dereferenceable(1) %ref.tmp) #24
  br label %eh.resume

lpad1:                                            ; preds = %invoke.cont16, %if.else, %invoke.cont6, %if.then5, %if.then
  %12 = landingpad { ptr, i32 }
          cleanup
  call void @_ZNSt7__cxx1112basic_stringIcSt11char_traitsIcESaIcEED1Ev(ptr noundef nonnull align 8 dereferenceable(32) %ret) #24
  br label %eh.resume

if.else:                                          ; preds = %invoke.cont2
  %call12 = invoke noundef nonnull align 1 dereferenceable(1) ptr @_ZNSt7__cxx1112basic_stringIcSt11char_traitsIcESaIcEEixEm(ptr noundef nonnull align 8 dereferenceable(32) %ret, i64 noundef 0)
          to label %invoke.cont11 unwind label %lpad1

invoke.cont11:                                    ; preds = %if.else
  %13 = load i8, ptr %call12, align 1
  %14 = and i8 %13, -33
  %15 = add i8 %14, -65
  %16 = icmp ult i8 %15, 26
  br i1 %16, label %if.end21, label %invoke.cont16

invoke.cont16:                                    ; preds = %invoke.cont11
  store i64 3, ptr %ref.tmp15, align 8
  %17 = getelementptr inbounds { i64, ptr }, ptr %ref.tmp15, i64 0, i32 1
  store ptr @.str.2, ptr %17, align 8
  %call.i2 = call { i64, ptr } @_ZNKSt7__cxx1112basic_stringIcSt11char_traitsIcESaIcEEcvSt17basic_string_viewIcS2_EEv(ptr noundef nonnull align 8 dereferenceable(32) %ret) #24
  %18 = extractvalue { i64, ptr } %call.i2, 0
  store i64 %18, ptr %ref.tmp17, align 8
  %19 = getelementptr inbounds { i64, ptr }, ptr %ref.tmp17, i64 0, i32 1
  %20 = extractvalue { i64, ptr } %call.i2, 1
  store ptr %20, ptr %19, align 8
  invoke void @_ZN4absl12lts_202308026StrCatB5cxx11ERKNS0_8AlphaNumES3_(ptr sret(%"class.std::__cxx11::basic_string") align 8 %agg.result, ptr noundef nonnull align 8 dereferenceable(48) %ref.tmp15, ptr noundef nonnull align 8 dereferenceable(48) %ref.tmp17)
          to label %cleanup unwind label %lpad1

if.end21:                                         ; preds = %invoke.cont9, %invoke.cont11, %invoke.cont
  call void @_ZNSt7__cxx1112basic_stringIcSt11char_traitsIcESaIcEEC1EOS4_(ptr noundef nonnull align 8 dereferenceable(32) %agg.result, ptr noundef nonnull align 8 dereferenceable(32) %ret) #24
  br label %cleanup

cleanup:                                          ; preds = %invoke.cont16, %if.end21
  call void @_ZNSt7__cxx1112basic_stringIcSt11char_traitsIcESaIcEED1Ev(ptr noundef nonnull align 8 dereferenceable(32) %ret) #24
  ret void

eh.resume:                                        ; preds = %lpad1, %lpad
  %.pn = phi { ptr, i32 } [ %12, %lpad1 ], [ %11, %lpad ]
  resume { ptr, i32 } %.pn
}

; Function Attrs: nounwind
declare void @_ZNSaIcEC1Ev(ptr noundef nonnull align 1 dereferenceable(1)) unnamed_addr #1

; Function Attrs: nounwind
declare void @_ZNSaIcED1Ev(ptr noundef nonnull align 1 dereferenceable(1)) unnamed_addr #1

; Function Attrs: nounwind
declare noundef zeroext i1 @_ZNKSt7__cxx1112basic_stringIcSt11char_traitsIcESaIcEE5emptyEv(ptr noundef nonnull align 8 dereferenceable(32)) local_unnamed_addr #1

declare noundef nonnull align 1 dereferenceable(1) ptr @_ZNSt7__cxx1112basic_stringIcSt11char_traitsIcESaIcEEixEm(ptr noundef nonnull align 8 dereferenceable(32), i64 noundef) local_unnamed_addr #0

; Function Attrs: nounwind
declare void @_ZNSt7__cxx1112basic_stringIcSt11char_traitsIcESaIcEEC1EOS4_(ptr noundef nonnull align 8 dereferenceable(32), ptr noundef nonnull align 8 dereferenceable(32)) unnamed_addr #1

; Function Attrs: mustprogress uwtable
define hidden void @_ZN6google8protobuf8compiler4ruby25GenerateMessageAssignmentESt17basic_string_viewIcSt11char_traitsIcEEPKNS0_10DescriptorEPNS0_2io7PrinterE(i64 %prefix.coerce0, ptr %prefix.coerce1, ptr nocapture noundef readonly %message, ptr noundef %printer) local_unnamed_addr #3 personality ptr @__gxx_personality_v0 {
entry:
  %prefix = alloca %"class.std::basic_string_view", align 8
  %ref.tmp = alloca %"class.std::__cxx11::basic_string", align 8
  %nested_prefix = alloca %"class.std::__cxx11::basic_string", align 8
  %ref.tmp7 = alloca %"class.absl::lts_20230802::AlphaNum", align 8
  %ref.tmp9 = alloca %"class.absl::lts_20230802::AlphaNum", align 8
  %ref.tmp10 = alloca %"class.std::__cxx11::basic_string", align 8
  %ref.tmp16 = alloca %"class.absl::lts_20230802::AlphaNum", align 8
  store i64 %prefix.coerce0, ptr %prefix, align 8
  %0 = getelementptr inbounds { i64, ptr }, ptr %prefix, i64 0, i32 1
  store ptr %prefix.coerce1, ptr %0, align 8
  %options_.i = getelementptr inbounds %"class.google::protobuf::Descriptor", ptr %message, i64 0, i32 7
  %1 = load ptr, ptr %options_.i, align 8
  %map_entry_.i.i = getelementptr inbounds %"class.google::protobuf::MessageOptions", ptr %1, i64 0, i32 1, i32 0, i32 8
  %2 = load i8, ptr %map_entry_.i.i, align 1
  %3 = and i8 %2, 1
  %tobool.i.i.not = icmp eq i8 %3, 0
  br i1 %tobool.i.i.not, label %if.end, label %return

if.end:                                           ; preds = %entry
  %all_names_.i = getelementptr inbounds %"class.google::protobuf::Descriptor", ptr %message, i64 0, i32 4
  %4 = load ptr, ptr %all_names_.i, align 8
  %call4 = tail call { i64, ptr } @_ZNKSt7__cxx1112basic_stringIcSt11char_traitsIcESaIcEEcvSt17basic_string_viewIcS2_EEv(ptr noundef nonnull align 8 dereferenceable(32) %4) #24
  %5 = extractvalue { i64, ptr } %call4, 0
  %6 = extractvalue { i64, ptr } %call4, 1
  call void @_ZN6google8protobuf8compiler4ruby14RubifyConstantB5cxx11ESt17basic_string_viewIcSt11char_traitsIcEE(ptr nonnull sret(%"class.std::__cxx11::basic_string") align 8 %ref.tmp, i64 %5, ptr %6)
  invoke void @_ZN6google8protobuf2io7Printer5PrintIJA7_cSt17basic_string_viewIcSt11char_traitsIcEEA5_cNSt7__cxx1112basic_stringIcS7_SaIcEEEEEEvS8_DpRKT_(ptr noundef nonnull align 8 dereferenceable(256) %printer, i64 17, ptr nonnull @.str.3, ptr noundef nonnull align 1 dereferenceable(7) @.str.4, ptr noundef nonnull align 8 dereferenceable(16) %prefix, ptr noundef nonnull align 1 dereferenceable(5) @.str.5, ptr noundef nonnull align 8 dereferenceable(32) %ref.tmp)
          to label %invoke.cont17 unwind label %lpad

invoke.cont17:                                    ; preds = %if.end
  call void @_ZNSt7__cxx1112basic_stringIcSt11char_traitsIcESaIcEED1Ev(ptr noundef nonnull align 8 dereferenceable(32) %ref.tmp) #24
  %7 = load ptr, ptr %all_names_.i, align 8
  %arrayidx.i = getelementptr inbounds %"class.std::__cxx11::basic_string", ptr %7, i64 1
  call void @_ZN6google8protobuf2io7Printer5PrintIJA10_cNSt7__cxx1112basic_stringIcSt11char_traitsIcESaIcEEEEEEvSt17basic_string_viewIcS8_EDpRKT_(ptr noundef nonnull align 8 dereferenceable(256) %printer, i64 81, ptr nonnull @.str.6, ptr noundef nonnull align 1 dereferenceable(10) @.str.7, ptr noundef nonnull align 8 dereferenceable(32) %arrayidx.i)
  %agg.tmp8.sroa.0.0.copyload = load i64, ptr %prefix, align 8
  %agg.tmp8.sroa.2.0.copyload = load ptr, ptr %0, align 8
  store i64 %agg.tmp8.sroa.0.0.copyload, ptr %ref.tmp7, align 8
  %pc.sroa.2.0.piece_.sroa_idx.i = getelementptr inbounds i8, ptr %ref.tmp7, i64 8
  store ptr %agg.tmp8.sroa.2.0.copyload, ptr %pc.sroa.2.0.piece_.sroa_idx.i, align 8
  %8 = load ptr, ptr %all_names_.i, align 8
  %call13 = call { i64, ptr } @_ZNKSt7__cxx1112basic_stringIcSt11char_traitsIcESaIcEEcvSt17basic_string_viewIcS2_EEv(ptr noundef nonnull align 8 dereferenceable(32) %8) #24
  %9 = extractvalue { i64, ptr } %call13, 0
  %10 = extractvalue { i64, ptr } %call13, 1
  call void @_ZN6google8protobuf8compiler4ruby14RubifyConstantB5cxx11ESt17basic_string_viewIcSt11char_traitsIcEE(ptr nonnull sret(%"class.std::__cxx11::basic_string") align 8 %ref.tmp10, i64 %9, ptr %10)
  %call.i = call { i64, ptr } @_ZNKSt7__cxx1112basic_stringIcSt11char_traitsIcESaIcEEcvSt17basic_string_viewIcS2_EEv(ptr noundef nonnull align 8 dereferenceable(32) %ref.tmp10) #24
  %11 = extractvalue { i64, ptr } %call.i, 0
  store i64 %11, ptr %ref.tmp9, align 8
  %12 = getelementptr inbounds { i64, ptr }, ptr %ref.tmp9, i64 0, i32 1
  %13 = extractvalue { i64, ptr } %call.i, 1
  store ptr %13, ptr %12, align 8
  store i64 2, ptr %ref.tmp16, align 8
  %14 = getelementptr inbounds { i64, ptr }, ptr %ref.tmp16, i64 0, i32 1
  store ptr @.str.8, ptr %14, align 8
  invoke void @_ZN4absl12lts_202308026StrCatB5cxx11ERKNS0_8AlphaNumES3_S3_(ptr nonnull sret(%"class.std::__cxx11::basic_string") align 8 %nested_prefix, ptr noundef nonnull align 8 dereferenceable(48) %ref.tmp7, ptr noundef nonnull align 8 dereferenceable(48) %ref.tmp9, ptr noundef nonnull align 8 dereferenceable(48) %ref.tmp16)
          to label %invoke.cont18 unwind label %lpad14

invoke.cont18:                                    ; preds = %invoke.cont17
  call void @_ZNSt7__cxx1112basic_stringIcSt11char_traitsIcESaIcEED1Ev(ptr noundef nonnull align 8 dereferenceable(32) %ref.tmp10) #24
  %nested_type_count_.i = getelementptr inbounds %"class.google::protobuf::Descriptor", ptr %message, i64 0, i32 20
  %15 = load i32, ptr %nested_type_count_.i, align 8
  %cmp22 = icmp sgt i32 %15, 0
  br i1 %cmp22, label %invoke.cont24.lr.ph, label %for.cond28.preheader

invoke.cont24.lr.ph:                              ; preds = %invoke.cont18
  %nested_types_.i = getelementptr inbounds %"class.google::protobuf::Descriptor", ptr %message, i64 0, i32 12
  br label %invoke.cont24

for.cond28.preheader:                             ; preds = %for.inc, %invoke.cont18
  %enum_type_count_.i = getelementptr inbounds %"class.google::protobuf::Descriptor", ptr %message, i64 0, i32 21
  %16 = load i32, ptr %enum_type_count_.i, align 4
  %cmp3124 = icmp sgt i32 %16, 0
  br i1 %cmp3124, label %for.body32.lr.ph, label %for.end40

for.body32.lr.ph:                                 ; preds = %for.cond28.preheader
  %enum_types_.i = getelementptr inbounds %"class.google::protobuf::Descriptor", ptr %message, i64 0, i32 13
  br label %for.body32

invoke.cont24:                                    ; preds = %invoke.cont24.lr.ph, %for.inc
  %indvars.iv = phi i64 [ 0, %invoke.cont24.lr.ph ], [ %indvars.iv.next, %for.inc ]
  %call23 = call { i64, ptr } @_ZNKSt7__cxx1112basic_stringIcSt11char_traitsIcESaIcEEcvSt17basic_string_viewIcS2_EEv(ptr noundef nonnull align 8 dereferenceable(32) %nested_prefix) #24
  %17 = load ptr, ptr %nested_types_.i, align 8
  %add.ptr.i = getelementptr inbounds %"class.google::protobuf::Descriptor", ptr %17, i64 %indvars.iv
  %18 = extractvalue { i64, ptr } %call23, 1
  %19 = extractvalue { i64, ptr } %call23, 0
  invoke void @_ZN6google8protobuf8compiler4ruby25GenerateMessageAssignmentESt17basic_string_viewIcSt11char_traitsIcEEPKNS0_10DescriptorEPNS0_2io7PrinterE(i64 %19, ptr %18, ptr noundef %add.ptr.i, ptr noundef nonnull %printer)
          to label %for.inc unwind label %lpad19.loopexit.split-lp

for.inc:                                          ; preds = %invoke.cont24
  %indvars.iv.next = add nuw nsw i64 %indvars.iv, 1
  %20 = load i32, ptr %nested_type_count_.i, align 8
  %21 = sext i32 %20 to i64
  %cmp = icmp slt i64 %indvars.iv.next, %21
  br i1 %cmp, label %invoke.cont24, label %for.cond28.preheader, !llvm.loop !10

lpad:                                             ; preds = %if.end
  %22 = landingpad { ptr, i32 }
          cleanup
  br label %eh.resume

lpad14:                                           ; preds = %invoke.cont17
  %23 = landingpad { ptr, i32 }
          cleanup
  br label %eh.resume

lpad19.loopexit:                                  ; preds = %for.body32
  %lpad.loopexit = landingpad { ptr, i32 }
          cleanup
  br label %eh.resume

lpad19.loopexit.split-lp:                         ; preds = %invoke.cont24
  %lpad.loopexit.split-lp = landingpad { ptr, i32 }
          cleanup
  br label %eh.resume

for.body32:                                       ; preds = %for.body32.lr.ph, %for.inc38
  %indvars.iv27 = phi i64 [ 0, %for.body32.lr.ph ], [ %indvars.iv.next28, %for.inc38 ]
  %call34 = call { i64, ptr } @_ZNKSt7__cxx1112basic_stringIcSt11char_traitsIcESaIcEEcvSt17basic_string_viewIcS2_EEv(ptr noundef nonnull align 8 dereferenceable(32) %nested_prefix) #24
  %24 = extractvalue { i64, ptr } %call34, 0
  %25 = extractvalue { i64, ptr } %call34, 1
  %26 = load ptr, ptr %enum_types_.i, align 8
  %add.ptr.i21 = getelementptr inbounds %"class.google::protobuf::EnumDescriptor", ptr %26, i64 %indvars.iv27
  invoke void @_ZN6google8protobuf8compiler4ruby22GenerateEnumAssignmentESt17basic_string_viewIcSt11char_traitsIcEEPKNS0_14EnumDescriptorEPNS0_2io7PrinterE(i64 %24, ptr %25, ptr noundef %add.ptr.i21, ptr noundef nonnull %printer)
          to label %for.inc38 unwind label %lpad19.loopexit

for.inc38:                                        ; preds = %for.body32
  %indvars.iv.next28 = add nuw nsw i64 %indvars.iv27, 1
  %27 = load i32, ptr %enum_type_count_.i, align 4
  %28 = sext i32 %27 to i64
  %cmp31 = icmp slt i64 %indvars.iv.next28, %28
  br i1 %cmp31, label %for.body32, label %for.end40, !llvm.loop !11

for.end40:                                        ; preds = %for.inc38, %for.cond28.preheader
  call void @_ZNSt7__cxx1112basic_stringIcSt11char_traitsIcESaIcEED1Ev(ptr noundef nonnull align 8 dereferenceable(32) %nested_prefix) #24
  br label %return

return:                                           ; preds = %entry, %for.end40
  ret void

eh.resume:                                        ; preds = %lpad19.loopexit, %lpad19.loopexit.split-lp, %lpad14, %lpad
  %nested_prefix.sink = phi ptr [ %ref.tmp10, %lpad14 ], [ %ref.tmp, %lpad ], [ %nested_prefix, %lpad19.loopexit.split-lp ], [ %nested_prefix, %lpad19.loopexit ]
  %.pn = phi { ptr, i32 } [ %23, %lpad14 ], [ %22, %lpad ], [ %lpad.loopexit.split-lp, %lpad19.loopexit.split-lp ], [ %lpad.loopexit, %lpad19.loopexit ]
  call void @_ZNSt7__cxx1112basic_stringIcSt11char_traitsIcESaIcEED1Ev(ptr noundef nonnull align 8 dereferenceable(32) %nested_prefix.sink) #24
  resume { ptr, i32 } %.pn
}

; Function Attrs: mustprogress uwtable
define linkonce_odr hidden void @_ZN6google8protobuf2io7Printer5PrintIJA7_cSt17basic_string_viewIcSt11char_traitsIcEEA5_cNSt7__cxx1112basic_stringIcS7_SaIcEEEEEEvS8_DpRKT_(ptr noundef nonnull align 8 dereferenceable(256) %this, i64 %text.coerce0, ptr %text.coerce1, ptr noundef nonnull align 1 dereferenceable(7) %args, ptr noundef nonnull align 8 dereferenceable(16) %args1, ptr noundef nonnull align 1 dereferenceable(5) %args3, ptr noundef nonnull align 8 dereferenceable(32) %args5) local_unnamed_addr #3 comdat align 2 personality ptr @__gxx_personality_v0 {
entry:
  %vars = alloca [5 x %"class.std::basic_string_view"], align 16
  %map = alloca %"class.absl::lts_20230802::flat_hash_map.77", align 8
  %call.i.i = tail call noundef i64 @strlen(ptr noundef nonnull dereferenceable(1) %args) #24
  store i64 %call.i.i, ptr %vars, align 16
  %_M_str.i = getelementptr inbounds %"class.std::basic_string_view", ptr %vars, i64 0, i32 1
  store ptr %args, ptr %_M_str.i, align 8
  %arrayinit.element = getelementptr inbounds %"class.std::basic_string_view", ptr %vars, i64 1
  call void @llvm.memcpy.p0.p0.i64(ptr noundef nonnull align 16 dereferenceable(16) %arrayinit.element, ptr noundef nonnull align 8 dereferenceable(16) %args1, i64 16, i1 false)
  %arrayinit.element8 = getelementptr inbounds %"class.std::basic_string_view", ptr %vars, i64 2
  %call.i.i4 = tail call noundef i64 @strlen(ptr noundef nonnull dereferenceable(1) %args3) #24
  store i64 %call.i.i4, ptr %arrayinit.element8, align 16
  %_M_str.i5 = getelementptr inbounds %"class.std::basic_string_view", ptr %vars, i64 2, i32 1
  store ptr %args3, ptr %_M_str.i5, align 8
  %arrayinit.element10 = getelementptr inbounds %"class.std::basic_string_view", ptr %vars, i64 3
  %call = tail call { i64, ptr } @_ZNKSt7__cxx1112basic_stringIcSt11char_traitsIcESaIcEEcvSt17basic_string_viewIcS2_EEv(ptr noundef nonnull align 8 dereferenceable(32) %args5) #24
  %0 = extractvalue { i64, ptr } %call, 0
  store i64 %0, ptr %arrayinit.element10, align 16
  %1 = getelementptr inbounds %"class.std::basic_string_view", ptr %vars, i64 3, i32 1
  %2 = extractvalue { i64, ptr } %call, 1
  store ptr %2, ptr %1, align 8
  %arrayinit.element11 = getelementptr inbounds %"class.std::basic_string_view", ptr %vars, i64 4
  store i64 0, ptr %arrayinit.element11, align 16
  %_M_str.i7 = getelementptr inbounds %"class.std::basic_string_view", ptr %vars, i64 4, i32 1
  store ptr @.str.14, ptr %_M_str.i7, align 8
  store ptr getelementptr inbounds ([32 x i8], ptr @_ZN4absl12lts_2023080218container_internal11kEmptyGroupE, i64 0, i64 16), ptr %map, align 8
  %slots_.i.i.i.i.i.i.i = getelementptr inbounds %"class.absl::lts_20230802::container_internal::CommonFields", ptr %map, i64 0, i32 1
  call void @llvm.memset.p0.i64(ptr noundef nonnull align 8 dereferenceable(24) %slots_.i.i.i.i.i.i.i, i8 0, i64 24, i1 false)
  %3 = load i64, ptr getelementptr inbounds ([32 x i8], ptr @_ZN4absl12lts_2023080218container_internal11kEmptyGroupE, i64 0, i64 8), align 8
  %cmp.i = icmp ult i64 %3, 2
  br i1 %cmp.i, label %if.then.i, label %for.body.preheader

if.then.i:                                        ; preds = %entry
  invoke void @_ZN4absl12lts_2023080218container_internal12raw_hash_setINS1_17FlatHashMapPolicyISt17basic_string_viewIcSt11char_traitsIcEES7_EENS1_10StringHashENS1_8StringEqESaISt4pairIKS7_S7_EEE6resizeEm(ptr noundef nonnull align 8 dereferenceable(32) %map, i64 noundef 3)
          to label %for.body.preheader unwind label %lpad.loopexit.split-lp

for.body.preheader:                               ; preds = %if.then.i, %entry
  br label %for.body

for.body:                                         ; preds = %for.body.preheader, %for.inc
  %cmp = phi i1 [ false, %for.inc ], [ true, %for.body.preheader ]
  %i.017 = phi i64 [ 2, %for.inc ], [ 0, %for.body.preheader ]
  %arrayidx = getelementptr inbounds [5 x %"class.std::basic_string_view"], ptr %vars, i64 0, i64 %i.017
  %add = or disjoint i64 %i.017, 1
  %arrayidx12 = getelementptr inbounds [5 x %"class.std::basic_string_view"], ptr %vars, i64 0, i64 %add
  %call.i.i.i.i.i.i8 = invoke { i64, i8 } @_ZN4absl12lts_2023080218container_internal12raw_hash_setINS1_17FlatHashMapPolicyISt17basic_string_viewIcSt11char_traitsIcEES7_EENS1_10StringHashENS1_8StringEqESaISt4pairIKS7_S7_EEE22find_or_prepare_insertIS7_EESB_ImbERKT_(ptr noundef nonnull align 8 dereferenceable(32) %map, ptr noundef nonnull align 8 dereferenceable(16) %arrayidx)
          to label %call.i.i.i.i.i.i.noexc unwind label %lpad.loopexit

call.i.i.i.i.i.i.noexc:                           ; preds = %for.body
  %4 = extractvalue { i64, i8 } %call.i.i.i.i.i.i8, 1
  %5 = and i8 %4, 1
  %tobool.not.i.i.i.i.i.i = icmp eq i8 %5, 0
  br i1 %tobool.not.i.i.i.i.i.i, label %for.inc, label %if.then.i.i.i.i.i.i

if.then.i.i.i.i.i.i:                              ; preds = %call.i.i.i.i.i.i.noexc
  %6 = extractvalue { i64, i8 } %call.i.i.i.i.i.i8, 0
  %7 = load ptr, ptr %slots_.i.i.i.i.i.i.i, align 8, !noalias !12
  %add.ptr.i.i.i.i.i.i.i = getelementptr inbounds %"union.absl::lts_20230802::container_internal::map_slot_type.90", ptr %7, i64 %6
  call void @llvm.memcpy.p0.p0.i64(ptr noundef nonnull align 8 dereferenceable(16) %add.ptr.i.i.i.i.i.i.i, ptr noundef nonnull align 16 dereferenceable(16) %arrayidx, i64 16, i1 false), !noalias !12
  %second.i.i.i.i.i.i.i.i.i.i.i.i.i.i = getelementptr inbounds %"struct.std::pair.93", ptr %add.ptr.i.i.i.i.i.i.i, i64 0, i32 1
  call void @llvm.memcpy.p0.p0.i64(ptr noundef nonnull align 8 dereferenceable(16) %second.i.i.i.i.i.i.i.i.i.i.i.i.i.i, ptr noundef nonnull align 16 dereferenceable(16) %arrayidx12, i64 16, i1 false), !noalias !12
  br label %for.inc

for.inc:                                          ; preds = %if.then.i.i.i.i.i.i, %call.i.i.i.i.i.i.noexc
  br i1 %cmp, label %for.body, label %for.end, !llvm.loop !25

lpad.loopexit:                                    ; preds = %for.body
  %lpad.loopexit15 = landingpad { ptr, i32 }
          cleanup
  br label %lpad

lpad.loopexit.split-lp:                           ; preds = %for.end, %if.then.i
  %lpad.loopexit.split-lp16 = landingpad { ptr, i32 }
          cleanup
  br label %lpad

lpad:                                             ; preds = %lpad.loopexit.split-lp, %lpad.loopexit
  %lpad.phi = phi { ptr, i32 } [ %lpad.loopexit15, %lpad.loopexit ], [ %lpad.loopexit.split-lp16, %lpad.loopexit.split-lp ]
  %capacity_.i.i.i.i.i = getelementptr inbounds %"class.absl::lts_20230802::container_internal::CommonFields", ptr %map, i64 0, i32 2
  %8 = load i64, ptr %capacity_.i.i.i.i.i, align 8
  %tobool.not.i.i.i = icmp eq i64 %8, 0
  br i1 %tobool.not.i.i.i, label %_ZN4absl12lts_2023080213flat_hash_mapISt17basic_string_viewIcSt11char_traitsIcEES5_NS0_18container_internal10StringHashENS6_8StringEqESaISt4pairIKS5_S5_EEED2Ev.exit, label %invoke.cont13.i.i.i

invoke.cont13.i.i.i:                              ; preds = %lpad
  %9 = load ptr, ptr %map, align 8
  %add.ptr.i.i.i.i9 = getelementptr inbounds i8, ptr %9, i64 -8
  call void @_ZdlPv(ptr noundef nonnull %add.ptr.i.i.i.i9) #25
  br label %_ZN4absl12lts_2023080213flat_hash_mapISt17basic_string_viewIcSt11char_traitsIcEES5_NS0_18container_internal10StringHashENS6_8StringEqESaISt4pairIKS5_S5_EEED2Ev.exit

_ZN4absl12lts_2023080213flat_hash_mapISt17basic_string_viewIcSt11char_traitsIcEES5_NS0_18container_internal10StringHashENS6_8StringEqESaISt4pairIKS5_S5_EEED2Ev.exit: ; preds = %lpad, %invoke.cont13.i.i.i
  resume { ptr, i32 } %lpad.phi

for.end:                                          ; preds = %for.inc
  invoke void @_ZN6google8protobuf2io7Printer5PrintIN4absl12lts_2023080213flat_hash_mapISt17basic_string_viewIcSt11char_traitsIcEESA_NS5_18container_internal10StringHashENSB_8StringEqESaISt4pairIKSA_SA_EEEEEEvRKT_SA_(ptr noundef nonnull align 8 dereferenceable(256) %this, ptr noundef nonnull align 8 dereferenceable(32) %map, i64 %text.coerce0, ptr %text.coerce1)
          to label %invoke.cont15 unwind label %lpad.loopexit.split-lp

invoke.cont15:                                    ; preds = %for.end
  %capacity_.i.i.i.i.i10 = getelementptr inbounds %"class.absl::lts_20230802::container_internal::CommonFields", ptr %map, i64 0, i32 2
  %10 = load i64, ptr %capacity_.i.i.i.i.i10, align 8
  %tobool.not.i.i.i11 = icmp eq i64 %10, 0
  br i1 %tobool.not.i.i.i11, label %_ZN4absl12lts_2023080213flat_hash_mapISt17basic_string_viewIcSt11char_traitsIcEES5_NS0_18container_internal10StringHashENS6_8StringEqESaISt4pairIKS5_S5_EEED2Ev.exit14, label %invoke.cont13.i.i.i12

invoke.cont13.i.i.i12:                            ; preds = %invoke.cont15
  %11 = load ptr, ptr %map, align 8
  %add.ptr.i.i.i.i13 = getelementptr inbounds i8, ptr %11, i64 -8
  call void @_ZdlPv(ptr noundef nonnull %add.ptr.i.i.i.i13) #25
  br label %_ZN4absl12lts_2023080213flat_hash_mapISt17basic_string_viewIcSt11char_traitsIcEES5_NS0_18container_internal10StringHashENS6_8StringEqESaISt4pairIKS5_S5_EEED2Ev.exit14

_ZN4absl12lts_2023080213flat_hash_mapISt17basic_string_viewIcSt11char_traitsIcEES5_NS0_18container_internal10StringHashENS6_8StringEqESaISt4pairIKS5_S5_EEED2Ev.exit14: ; preds = %invoke.cont15, %invoke.cont13.i.i.i12
  ret void
}

; Function Attrs: nounwind
declare { i64, ptr } @_ZNKSt7__cxx1112basic_stringIcSt11char_traitsIcESaIcEEcvSt17basic_string_viewIcS2_EEv(ptr noundef nonnull align 8 dereferenceable(32)) local_unnamed_addr #1

; Function Attrs: mustprogress uwtable
define linkonce_odr hidden void @_ZN6google8protobuf2io7Printer5PrintIJA10_cNSt7__cxx1112basic_stringIcSt11char_traitsIcESaIcEEEEEEvSt17basic_string_viewIcS8_EDpRKT_(ptr noundef nonnull align 8 dereferenceable(256) %this, i64 %text.coerce0, ptr %text.coerce1, ptr noundef nonnull align 1 dereferenceable(10) %args, ptr noundef nonnull align 8 dereferenceable(32) %args1) local_unnamed_addr #3 comdat align 2 personality ptr @__gxx_personality_v0 {
entry:
  %vars = alloca [3 x %"class.std::basic_string_view"], align 16
  %map = alloca %"class.absl::lts_20230802::flat_hash_map.77", align 8
  %call.i.i = tail call noundef i64 @strlen(ptr noundef nonnull dereferenceable(1) %args) #24
  store i64 %call.i.i, ptr %vars, align 16
  %_M_str.i = getelementptr inbounds %"class.std::basic_string_view", ptr %vars, i64 0, i32 1
  store ptr %args, ptr %_M_str.i, align 8
  %arrayinit.element = getelementptr inbounds %"class.std::basic_string_view", ptr %vars, i64 1
  %call = tail call { i64, ptr } @_ZNKSt7__cxx1112basic_stringIcSt11char_traitsIcESaIcEEcvSt17basic_string_viewIcS2_EEv(ptr noundef nonnull align 8 dereferenceable(32) %args1) #24
  %0 = extractvalue { i64, ptr } %call, 0
  store i64 %0, ptr %arrayinit.element, align 16
  %1 = getelementptr inbounds %"class.std::basic_string_view", ptr %vars, i64 1, i32 1
  %2 = extractvalue { i64, ptr } %call, 1
  store ptr %2, ptr %1, align 8
  %arrayinit.element4 = getelementptr inbounds %"class.std::basic_string_view", ptr %vars, i64 2
  store i64 0, ptr %arrayinit.element4, align 16
  %_M_str.i5 = getelementptr inbounds %"class.std::basic_string_view", ptr %vars, i64 2, i32 1
  store ptr @.str.14, ptr %_M_str.i5, align 8
  store ptr getelementptr inbounds ([32 x i8], ptr @_ZN4absl12lts_2023080218container_internal11kEmptyGroupE, i64 0, i64 16), ptr %map, align 8
  %slots_.i.i.i.i.i.i.i = getelementptr inbounds %"class.absl::lts_20230802::container_internal::CommonFields", ptr %map, i64 0, i32 1
  call void @llvm.memset.p0.i64(ptr noundef nonnull align 8 dereferenceable(24) %slots_.i.i.i.i.i.i.i, i8 0, i64 24, i1 false)
  %3 = load i64, ptr getelementptr inbounds ([32 x i8], ptr @_ZN4absl12lts_2023080218container_internal11kEmptyGroupE, i64 0, i64 8), align 8
  %cmp.i = icmp eq i64 %3, 0
  br i1 %cmp.i, label %if.then.i, label %for.body

if.then.i:                                        ; preds = %entry
  invoke void @_ZN4absl12lts_2023080218container_internal12raw_hash_setINS1_17FlatHashMapPolicyISt17basic_string_viewIcSt11char_traitsIcEES7_EENS1_10StringHashENS1_8StringEqESaISt4pairIKS7_S7_EEE6resizeEm(ptr noundef nonnull align 8 dereferenceable(32) %map, i64 noundef 1)
          to label %for.body unwind label %lpad.loopexit.split-lp

for.body:                                         ; preds = %entry, %if.then.i
  %call.i.i.i.i.i.i6 = invoke { i64, i8 } @_ZN4absl12lts_2023080218container_internal12raw_hash_setINS1_17FlatHashMapPolicyISt17basic_string_viewIcSt11char_traitsIcEES7_EENS1_10StringHashENS1_8StringEqESaISt4pairIKS7_S7_EEE22find_or_prepare_insertIS7_EESB_ImbERKT_(ptr noundef nonnull align 8 dereferenceable(32) %map, ptr noundef nonnull align 8 dereferenceable(16) %vars)
          to label %call.i.i.i.i.i.i.noexc unwind label %lpad.loopexit

call.i.i.i.i.i.i.noexc:                           ; preds = %for.body
  %4 = extractvalue { i64, i8 } %call.i.i.i.i.i.i6, 1
  %5 = and i8 %4, 1
  %tobool.not.i.i.i.i.i.i = icmp eq i8 %5, 0
  br i1 %tobool.not.i.i.i.i.i.i, label %for.end, label %if.then.i.i.i.i.i.i

if.then.i.i.i.i.i.i:                              ; preds = %call.i.i.i.i.i.i.noexc
  %6 = extractvalue { i64, i8 } %call.i.i.i.i.i.i6, 0
  %7 = load ptr, ptr %slots_.i.i.i.i.i.i.i, align 8, !noalias !26
  %add.ptr.i.i.i.i.i.i.i = getelementptr inbounds %"union.absl::lts_20230802::container_internal::map_slot_type.90", ptr %7, i64 %6
  call void @llvm.memcpy.p0.p0.i64(ptr noundef nonnull align 8 dereferenceable(16) %add.ptr.i.i.i.i.i.i.i, ptr noundef nonnull align 16 dereferenceable(16) %vars, i64 16, i1 false), !noalias !26
  %second.i.i.i.i.i.i.i.i.i.i.i.i.i.i = getelementptr inbounds %"struct.std::pair.93", ptr %add.ptr.i.i.i.i.i.i.i, i64 0, i32 1
  call void @llvm.memcpy.p0.p0.i64(ptr noundef nonnull align 8 dereferenceable(16) %second.i.i.i.i.i.i.i.i.i.i.i.i.i.i, ptr noundef nonnull align 16 dereferenceable(16) %arrayinit.element, i64 16, i1 false), !noalias !26
  br label %for.end

lpad.loopexit:                                    ; preds = %for.body
  %lpad.loopexit13 = landingpad { ptr, i32 }
          cleanup
  br label %lpad

lpad.loopexit.split-lp:                           ; preds = %for.end, %if.then.i
  %lpad.loopexit.split-lp14 = landingpad { ptr, i32 }
          cleanup
  br label %lpad

lpad:                                             ; preds = %lpad.loopexit.split-lp, %lpad.loopexit
  %lpad.phi = phi { ptr, i32 } [ %lpad.loopexit13, %lpad.loopexit ], [ %lpad.loopexit.split-lp14, %lpad.loopexit.split-lp ]
  %capacity_.i.i.i.i.i = getelementptr inbounds %"class.absl::lts_20230802::container_internal::CommonFields", ptr %map, i64 0, i32 2
  %8 = load i64, ptr %capacity_.i.i.i.i.i, align 8
  %tobool.not.i.i.i = icmp eq i64 %8, 0
  br i1 %tobool.not.i.i.i, label %_ZN4absl12lts_2023080213flat_hash_mapISt17basic_string_viewIcSt11char_traitsIcEES5_NS0_18container_internal10StringHashENS6_8StringEqESaISt4pairIKS5_S5_EEED2Ev.exit, label %invoke.cont13.i.i.i

invoke.cont13.i.i.i:                              ; preds = %lpad
  %9 = load ptr, ptr %map, align 8
  %add.ptr.i.i.i.i7 = getelementptr inbounds i8, ptr %9, i64 -8
  call void @_ZdlPv(ptr noundef nonnull %add.ptr.i.i.i.i7) #25
  br label %_ZN4absl12lts_2023080213flat_hash_mapISt17basic_string_viewIcSt11char_traitsIcEES5_NS0_18container_internal10StringHashENS6_8StringEqESaISt4pairIKS5_S5_EEED2Ev.exit

_ZN4absl12lts_2023080213flat_hash_mapISt17basic_string_viewIcSt11char_traitsIcEES5_NS0_18container_internal10StringHashENS6_8StringEqESaISt4pairIKS5_S5_EEED2Ev.exit: ; preds = %lpad, %invoke.cont13.i.i.i
  resume { ptr, i32 } %lpad.phi

for.end:                                          ; preds = %if.then.i.i.i.i.i.i, %call.i.i.i.i.i.i.noexc
  invoke void @_ZN6google8protobuf2io7Printer5PrintIN4absl12lts_2023080213flat_hash_mapISt17basic_string_viewIcSt11char_traitsIcEESA_NS5_18container_internal10StringHashENSB_8StringEqESaISt4pairIKSA_SA_EEEEEEvRKT_SA_(ptr noundef nonnull align 8 dereferenceable(256) %this, ptr noundef nonnull align 8 dereferenceable(32) %map, i64 %text.coerce0, ptr %text.coerce1)
          to label %invoke.cont8 unwind label %lpad.loopexit.split-lp

invoke.cont8:                                     ; preds = %for.end
  %capacity_.i.i.i.i.i8 = getelementptr inbounds %"class.absl::lts_20230802::container_internal::CommonFields", ptr %map, i64 0, i32 2
  %10 = load i64, ptr %capacity_.i.i.i.i.i8, align 8
  %tobool.not.i.i.i9 = icmp eq i64 %10, 0
  br i1 %tobool.not.i.i.i9, label %_ZN4absl12lts_2023080213flat_hash_mapISt17basic_string_viewIcSt11char_traitsIcEES5_NS0_18container_internal10StringHashENS6_8StringEqESaISt4pairIKS5_S5_EEED2Ev.exit12, label %invoke.cont13.i.i.i10

invoke.cont13.i.i.i10:                            ; preds = %invoke.cont8
  %11 = load ptr, ptr %map, align 8
  %add.ptr.i.i.i.i11 = getelementptr inbounds i8, ptr %11, i64 -8
  call void @_ZdlPv(ptr noundef nonnull %add.ptr.i.i.i.i11) #25
  br label %_ZN4absl12lts_2023080213flat_hash_mapISt17basic_string_viewIcSt11char_traitsIcEES5_NS0_18container_internal10StringHashENS6_8StringEqESaISt4pairIKS5_S5_EEED2Ev.exit12

_ZN4absl12lts_2023080213flat_hash_mapISt17basic_string_viewIcSt11char_traitsIcEES5_NS0_18container_internal10StringHashENS6_8StringEqESaISt4pairIKS5_S5_EEED2Ev.exit12: ; preds = %invoke.cont8, %invoke.cont13.i.i.i10
  ret void
}

declare void @_ZN4absl12lts_202308026StrCatB5cxx11ERKNS0_8AlphaNumES3_S3_(ptr sret(%"class.std::__cxx11::basic_string") align 8, ptr noundef nonnull align 8 dereferenceable(48), ptr noundef nonnull align 8 dereferenceable(48), ptr noundef nonnull align 8 dereferenceable(48)) local_unnamed_addr #0

; Function Attrs: mustprogress uwtable
define hidden void @_ZN6google8protobuf8compiler4ruby22GenerateEnumAssignmentESt17basic_string_viewIcSt11char_traitsIcEEPKNS0_14EnumDescriptorEPNS0_2io7PrinterE(i64 %prefix.coerce0, ptr %prefix.coerce1, ptr nocapture noundef readonly %en, ptr noundef %printer) local_unnamed_addr #3 personality ptr @__gxx_personality_v0 {
entry:
  %prefix = alloca %"class.std::basic_string_view", align 8
  %ref.tmp = alloca %"class.std::__cxx11::basic_string", align 8
  store i64 %prefix.coerce0, ptr %prefix, align 8
  %0 = getelementptr inbounds { i64, ptr }, ptr %prefix, i64 0, i32 1
  store ptr %prefix.coerce1, ptr %0, align 8
  %all_names_.i = getelementptr inbounds %"class.google::protobuf::EnumDescriptor", ptr %en, i64 0, i32 4
  %1 = load ptr, ptr %all_names_.i, align 8
  %call2 = tail call { i64, ptr } @_ZNKSt7__cxx1112basic_stringIcSt11char_traitsIcESaIcEEcvSt17basic_string_viewIcS2_EEv(ptr noundef nonnull align 8 dereferenceable(32) %1) #24
  %2 = extractvalue { i64, ptr } %call2, 0
  %3 = extractvalue { i64, ptr } %call2, 1
  call void @_ZN6google8protobuf8compiler4ruby14RubifyConstantB5cxx11ESt17basic_string_viewIcSt11char_traitsIcEE(ptr nonnull sret(%"class.std::__cxx11::basic_string") align 8 %ref.tmp, i64 %2, ptr %3)
  invoke void @_ZN6google8protobuf2io7Printer5PrintIJA7_cSt17basic_string_viewIcSt11char_traitsIcEEA5_cNSt7__cxx1112basic_stringIcS7_SaIcEEEEEEvS8_DpRKT_(ptr noundef nonnull align 8 dereferenceable(256) %printer, i64 17, ptr nonnull @.str.3, ptr noundef nonnull align 1 dereferenceable(7) @.str.4, ptr noundef nonnull align 8 dereferenceable(16) %prefix, ptr noundef nonnull align 1 dereferenceable(5) @.str.5, ptr noundef nonnull align 8 dereferenceable(32) %ref.tmp)
          to label %invoke.cont unwind label %lpad

invoke.cont:                                      ; preds = %entry
  call void @_ZNSt7__cxx1112basic_stringIcSt11char_traitsIcESaIcEED1Ev(ptr noundef nonnull align 8 dereferenceable(32) %ref.tmp) #24
  %4 = load ptr, ptr %all_names_.i, align 8
  %arrayidx.i = getelementptr inbounds %"class.std::__cxx11::basic_string", ptr %4, i64 1
  call void @_ZN6google8protobuf2io7Printer5PrintIJA10_cNSt7__cxx1112basic_stringIcSt11char_traitsIcESaIcEEEEEEvSt17basic_string_viewIcS8_EDpRKT_(ptr noundef nonnull align 8 dereferenceable(256) %printer, i64 83, ptr nonnull @.str.9, ptr noundef nonnull align 1 dereferenceable(10) @.str.7, ptr noundef nonnull align 8 dereferenceable(32) %arrayidx.i)
  ret void

lpad:                                             ; preds = %entry
  %5 = landingpad { ptr, i32 }
          cleanup
  call void @_ZNSt7__cxx1112basic_stringIcSt11char_traitsIcESaIcEED1Ev(ptr noundef nonnull align 8 dereferenceable(32) %ref.tmp) #24
  resume { ptr, i32 } %5
}

; Function Attrs: mustprogress uwtable
define hidden noundef i32 @_ZN6google8protobuf8compiler4ruby22GeneratePackageModulesEPKNS0_14FileDescriptorEPNS0_2io7PrinterE(ptr nocapture noundef readonly %file, ptr noundef %printer) local_unnamed_addr #3 personality ptr @__gxx_personality_v0 {
invoke.cont1:
  %package_name = alloca %"class.std::__cxx11::basic_string", align 8
  %ref.tmp14 = alloca %"class.absl::lts_20230802::log_internal::LogMessage", align 8
  %delimiter = alloca %"class.std::__cxx11::basic_string", align 8
  %ref.tmp31 = alloca %"class.std::allocator", align 1
  %component = alloca %"class.std::__cxx11::basic_string", align 8
  %ref.tmp46 = alloca %"class.std::__cxx11::basic_string", align 8
  %ref.tmp49 = alloca %"class.std::__cxx11::basic_string", align 8
  %ref.tmp55 = alloca %"class.std::__cxx11::basic_string", align 8
  call void @_ZNSt7__cxx1112basic_stringIcSt11char_traitsIcESaIcEEC1Ev(ptr noundef nonnull align 8 dereferenceable(32) %package_name) #24
  %options_.i = getelementptr inbounds %"class.google::protobuf::FileDescriptor", ptr %file, i64 0, i32 22
  %0 = load ptr, ptr %options_.i, align 8
  %_has_bits_.i = getelementptr inbounds %"class.google::protobuf::FileOptions", ptr %0, i64 0, i32 1, i32 0, i32 1
  %1 = load i32, ptr %_has_bits_.i, align 4
  %and.i = and i32 %1, 512
  %cmp.i.not = icmp eq i32 %and.i, 0
  br i1 %cmp.i.not, label %if.else25, label %invoke.cont5

invoke.cont5:                                     ; preds = %invoke.cont1
  %ruby_package_.i.i = getelementptr inbounds %"class.google::protobuf::FileOptions", ptr %0, i64 0, i32 1, i32 0, i32 13
  %2 = load ptr, ptr %ruby_package_.i.i, align 8
  %3 = ptrtoint ptr %2 to i64
  %and.i.i.i = and i64 %3, -4
  %4 = inttoptr i64 %and.i.i.i to ptr
  %call8 = invoke noundef nonnull align 8 dereferenceable(32) ptr @_ZNSt7__cxx1112basic_stringIcSt11char_traitsIcESaIcEEaSERKS4_(ptr noundef nonnull align 8 dereferenceable(32) %package_name, ptr noundef nonnull align 8 dereferenceable(32) %4)
          to label %invoke.cont7 unwind label %lpad

invoke.cont7:                                     ; preds = %invoke.cont5
  %call9 = call noundef i64 @_ZNKSt7__cxx1112basic_stringIcSt11char_traitsIcESaIcEE4findEPKcm(ptr noundef nonnull align 8 dereferenceable(32) %package_name, ptr noundef nonnull @.str.8, i64 noundef 0) #24
  %cmp.not = icmp eq i64 %call9, -1
  br i1 %cmp.not, label %if.else, label %if.end30

lpad:                                             ; preds = %if.else25, %if.then13, %invoke.cont5
  %5 = landingpad { ptr, i32 }
          cleanup
  br label %ehcleanup

if.else:                                          ; preds = %invoke.cont7
  %call11 = call noundef i64 @_ZNKSt7__cxx1112basic_stringIcSt11char_traitsIcESaIcEE4findEcm(ptr noundef nonnull align 8 dereferenceable(32) %package_name, i8 noundef signext 46, i64 noundef 0) #24
  %cmp12.not = icmp eq i64 %call11, -1
  br i1 %cmp12.not, label %if.end30, label %if.then13

if.then13:                                        ; preds = %if.else
  invoke void @_ZN4absl12lts_2023080212log_internal10LogMessageC1EPKciNS2_10WarningTagE(ptr noundef nonnull align 8 dereferenceable(16) %ref.tmp14, ptr noundef nonnull @.str.10, i32 noundef 169) #26
          to label %invoke.cont15 unwind label %lpad

invoke.cont15:                                    ; preds = %if.then13
  invoke void @_ZN4absl12lts_2023080212log_internal10LogMessage19CopyToEncodedBufferILNS2_10StringTypeE0EEEvSt17basic_string_viewIcSt11char_traitsIcEE(ptr noundef nonnull align 8 dereferenceable(16) %ref.tmp14, i64 45, ptr nonnull @.str.11)
          to label %invoke.cont19 unwind label %lpad16

invoke.cont19:                                    ; preds = %invoke.cont15
  invoke void @_ZN4absl12lts_2023080212log_internal10LogMessage19CopyToEncodedBufferILNS2_10StringTypeE0EEEvSt17basic_string_viewIcSt11char_traitsIcEE(ptr noundef nonnull align 8 dereferenceable(16) %ref.tmp14, i64 26, ptr nonnull @.str.12)
          to label %invoke.cont21 unwind label %lpad16

invoke.cont21:                                    ; preds = %invoke.cont19
  call void @_ZN4absl12lts_2023080212log_internal10LogMessageD1Ev(ptr noundef nonnull align 8 dereferenceable(16) %ref.tmp14) #27
  br label %if.end30

lpad16:                                           ; preds = %invoke.cont19, %invoke.cont15
  %6 = landingpad { ptr, i32 }
          cleanup
  call void @_ZN4absl12lts_2023080212log_internal10LogMessageD1Ev(ptr noundef nonnull align 8 dereferenceable(16) %ref.tmp14) #27
  br label %ehcleanup

if.else25:                                        ; preds = %invoke.cont1
  %package_.i = getelementptr inbounds %"class.google::protobuf::FileDescriptor", ptr %file, i64 0, i32 5
  %7 = load ptr, ptr %package_.i, align 8
  %call29 = invoke noundef nonnull align 8 dereferenceable(32) ptr @_ZNSt7__cxx1112basic_stringIcSt11char_traitsIcESaIcEEaSERKS4_(ptr noundef nonnull align 8 dereferenceable(32) %package_name, ptr noundef nonnull align 8 dereferenceable(32) %7)
          to label %if.end30 unwind label %lpad

if.end30:                                         ; preds = %if.else25, %if.else, %invoke.cont21, %invoke.cont7
  %need_change_to_module.017 = phi i1 [ false, %invoke.cont7 ], [ true, %invoke.cont21 ], [ true, %if.else ], [ true, %if.else25 ]
  %8 = phi ptr [ @.str.8, %invoke.cont7 ], [ @.str.13, %invoke.cont21 ], [ @.str.13, %if.else ], [ @.str.13, %if.else25 ]
  call void @_ZNSaIcEC1Ev(ptr noundef nonnull align 1 dereferenceable(1) %ref.tmp31) #24
  %call.i12 = invoke noundef ptr @_ZNSt7__cxx1112basic_stringIcSt11char_traitsIcESaIcEE13_M_local_dataEv(ptr noundef nonnull align 8 dereferenceable(32) %delimiter)
          to label %call.i.noexc unwind label %lpad32

call.i.noexc:                                     ; preds = %if.end30
  invoke void @_ZNSt7__cxx1112basic_stringIcSt11char_traitsIcESaIcEE12_Alloc_hiderC1EPcRKS3_(ptr noundef nonnull align 8 dereferenceable(8) %delimiter, ptr noundef %call.i12, ptr noundef nonnull align 1 dereferenceable(1) %ref.tmp31)
          to label %.noexc unwind label %lpad32

.noexc:                                           ; preds = %call.i.noexc
  %call.i.i = call noundef i64 @strlen(ptr noundef nonnull dereferenceable(1) %8) #24
  %add.ptr.i = getelementptr inbounds i8, ptr %8, i64 %call.i.i
  invoke void @_ZNSt7__cxx1112basic_stringIcSt11char_traitsIcESaIcEE12_M_constructIPKcEEvT_S8_St20forward_iterator_tag(ptr noundef nonnull align 8 dereferenceable(32) %delimiter, ptr noundef nonnull %8, ptr noundef nonnull %add.ptr.i)
          to label %invoke.cont33 unwind label %lpad.i

lpad.i:                                           ; preds = %.noexc
  %9 = landingpad { ptr, i32 }
          cleanup
  call void @_ZNSaIcED2Ev(ptr noundef nonnull align 1 dereferenceable(1) %delimiter) #24
  br label %lpad32.body

invoke.cont33:                                    ; preds = %.noexc
  call void @_ZNSaIcED1Ev(ptr noundef nonnull align 1 dereferenceable(1) %ref.tmp31) #24
  %call3622 = call noundef zeroext i1 @_ZNKSt7__cxx1112basic_stringIcSt11char_traitsIcESaIcEE5emptyEv(ptr noundef nonnull align 8 dereferenceable(32) %package_name) #24
  br i1 %call3622, label %while.end, label %while.body.lr.ph

while.body.lr.ph:                                 ; preds = %invoke.cont33
  %conv = select i1 %need_change_to_module.017, i64 1, i64 2
  %spaces_per_indent.i = getelementptr inbounds %"class.google::protobuf::io::Printer", ptr %printer, i64 0, i32 1, i32 5
  %indent_.i = getelementptr inbounds %"class.google::protobuf::io::Printer", ptr %printer, i64 0, i32 2
  br label %while.body

while.body:                                       ; preds = %while.body.lr.ph, %invoke.cont62
  %levels.023 = phi i32 [ 0, %while.body.lr.ph ], [ %inc, %invoke.cont62 ]
  %call37 = call noundef i64 @_ZNKSt7__cxx1112basic_stringIcSt11char_traitsIcESaIcEE4findERKS4_m(ptr noundef nonnull align 8 dereferenceable(32) %package_name, ptr noundef nonnull align 8 dereferenceable(32) %delimiter, i64 noundef 0) #24
  call void @_ZNSt7__cxx1112basic_stringIcSt11char_traitsIcESaIcEEC1Ev(ptr noundef nonnull align 8 dereferenceable(32) %component) #24
  %cmp38 = icmp eq i64 %call37, -1
  br i1 %cmp38, label %if.then39, label %if.else45

if.then39:                                        ; preds = %while.body
  %call42 = invoke noundef nonnull align 8 dereferenceable(32) ptr @_ZNSt7__cxx1112basic_stringIcSt11char_traitsIcESaIcEEaSERKS4_(ptr noundef nonnull align 8 dereferenceable(32) %component, ptr noundef nonnull align 8 dereferenceable(32) %package_name)
          to label %invoke.cont41 unwind label %lpad40

invoke.cont41:                                    ; preds = %if.then39
  %call44 = invoke noundef nonnull align 8 dereferenceable(32) ptr @_ZNSt7__cxx1112basic_stringIcSt11char_traitsIcESaIcEEaSEPKc(ptr noundef nonnull align 8 dereferenceable(32) %package_name, ptr noundef nonnull @.str.14)
          to label %if.end52 unwind label %lpad40

lpad32:                                           ; preds = %call.i.noexc, %if.end30
  %10 = landingpad { ptr, i32 }
          cleanup
  br label %lpad32.body

lpad32.body:                                      ; preds = %lpad.i, %lpad32
  %eh.lpad-body = phi { ptr, i32 } [ %10, %lpad32 ], [ %9, %lpad.i ]
  call void @_ZNSaIcED1Ev(ptr noundef nonnull align 1 dereferenceable(1) %ref.tmp31) #24
  br label %ehcleanup

lpad40:                                           ; preds = %if.end60, %invoke.cont47, %if.else45, %invoke.cont41, %if.then39
  %11 = landingpad { ptr, i32 }
          cleanup
  br label %lpad40.body

lpad40.body:                                      ; preds = %lpad.i13, %lpad40
  %eh.lpad-body14 = phi { ptr, i32 } [ %11, %lpad40 ], [ %lpad.phi.i, %lpad.i13 ]
  call void @_ZNSt7__cxx1112basic_stringIcSt11char_traitsIcESaIcEED1Ev(ptr noundef nonnull align 8 dereferenceable(32) %component) #24
  call void @_ZNSt7__cxx1112basic_stringIcSt11char_traitsIcESaIcEED1Ev(ptr noundef nonnull align 8 dereferenceable(32) %delimiter) #24
  br label %ehcleanup

if.else45:                                        ; preds = %while.body
  invoke void @_ZNKSt7__cxx1112basic_stringIcSt11char_traitsIcESaIcEE6substrEmm(ptr nonnull sret(%"class.std::__cxx11::basic_string") align 8 %ref.tmp46, ptr noundef nonnull align 8 dereferenceable(32) %package_name, i64 noundef 0, i64 noundef %call37)
          to label %invoke.cont47 unwind label %lpad40

invoke.cont47:                                    ; preds = %if.else45
  %call48 = call noundef nonnull align 8 dereferenceable(32) ptr @_ZNSt7__cxx1112basic_stringIcSt11char_traitsIcESaIcEEaSEOS4_(ptr noundef nonnull align 8 dereferenceable(32) %component, ptr noundef nonnull align 8 dereferenceable(32) %ref.tmp46) #24
  call void @_ZNSt7__cxx1112basic_stringIcSt11char_traitsIcESaIcEED1Ev(ptr noundef nonnull align 8 dereferenceable(32) %ref.tmp46) #24
  %add = add i64 %call37, %conv
  invoke void @_ZNKSt7__cxx1112basic_stringIcSt11char_traitsIcESaIcEE6substrEmm(ptr nonnull sret(%"class.std::__cxx11::basic_string") align 8 %ref.tmp49, ptr noundef nonnull align 8 dereferenceable(32) %package_name, i64 noundef %add, i64 noundef -1)
          to label %invoke.cont50 unwind label %lpad40

invoke.cont50:                                    ; preds = %invoke.cont47
  %call51 = call noundef nonnull align 8 dereferenceable(32) ptr @_ZNSt7__cxx1112basic_stringIcSt11char_traitsIcESaIcEEaSEOS4_(ptr noundef nonnull align 8 dereferenceable(32) %package_name, ptr noundef nonnull align 8 dereferenceable(32) %ref.tmp49) #24
  call void @_ZNSt7__cxx1112basic_stringIcSt11char_traitsIcESaIcEED1Ev(ptr noundef nonnull align 8 dereferenceable(32) %ref.tmp49) #24
  br label %if.end52

if.end52:                                         ; preds = %invoke.cont41, %invoke.cont50
  br i1 %need_change_to_module.017, label %if.then54, label %if.end60

if.then54:                                        ; preds = %if.end52
  %call57 = call { i64, ptr } @_ZNKSt7__cxx1112basic_stringIcSt11char_traitsIcESaIcEEcvSt17basic_string_viewIcS2_EEv(ptr noundef nonnull align 8 dereferenceable(32) %component) #24
  %12 = extractvalue { i64, ptr } %call57, 0
  %13 = extractvalue { i64, ptr } %call57, 1
  call void @_ZNSt7__cxx1112basic_stringIcSt11char_traitsIcESaIcEEC1Ev(ptr noundef nonnull align 8 dereferenceable(32) %ref.tmp55) #24
  invoke void @_ZNSt7__cxx1112basic_stringIcSt11char_traitsIcESaIcEE7reserveEm(ptr noundef nonnull align 8 dereferenceable(32) %ref.tmp55, i64 noundef %12)
          to label %for.cond.preheader.i unwind label %lpad.loopexit.split-lp.i

for.cond.preheader.i:                             ; preds = %if.then54
  %cmp14.not.i = icmp eq i64 %12, 0
  br i1 %cmp14.not.i, label %invoke.cont58, label %for.body.i

for.body.i:                                       ; preds = %for.cond.preheader.i, %for.inc.i
  %indvars.iv.i = phi i64 [ %indvars.iv.next.i, %for.inc.i ], [ 0, %for.cond.preheader.i ]
  %next_upper.015.i = phi i1 [ %cmp5.i, %for.inc.i ], [ true, %for.cond.preheader.i ]
  %add.ptr.i.i = getelementptr inbounds i8, ptr %13, i64 %indvars.iv.i
  %14 = load i8, ptr %add.ptr.i.i, align 1, !noalias !39
  %cmp5.i = icmp eq i8 %14, 95
  br i1 %cmp5.i, label %for.inc.i, label %if.else.i

lpad.loopexit.i:                                  ; preds = %if.else.i
  %lpad.loopexit12.i = landingpad { ptr, i32 }
          cleanup
  br label %lpad.i13

lpad.loopexit.split-lp.i:                         ; preds = %if.then54
  %lpad.loopexit.split-lp13.i = landingpad { ptr, i32 }
          cleanup
  br label %lpad.i13

lpad.i13:                                         ; preds = %lpad.loopexit.split-lp.i, %lpad.loopexit.i
  %lpad.phi.i = phi { ptr, i32 } [ %lpad.loopexit12.i, %lpad.loopexit.i ], [ %lpad.loopexit.split-lp13.i, %lpad.loopexit.split-lp.i ]
  call void @_ZNSt7__cxx1112basic_stringIcSt11char_traitsIcESaIcEED1Ev(ptr noundef nonnull align 8 dereferenceable(32) %ref.tmp55) #24
  br label %lpad40.body

if.else.i:                                        ; preds = %for.body.i
  %15 = add i8 %14, -97
  %16 = icmp ult i8 %15, 26
  %add.i.i = add i8 %14, -32
  %17 = and i1 %next_upper.015.i, %16
  %18 = select i1 %17, i8 %add.i.i, i8 %14
  invoke void @_ZNSt7__cxx1112basic_stringIcSt11char_traitsIcESaIcEE9push_backEc(ptr noundef nonnull align 8 dereferenceable(32) %ref.tmp55, i8 noundef signext %18)
          to label %for.inc.i unwind label %lpad.loopexit.i

for.inc.i:                                        ; preds = %if.else.i, %for.body.i
  %indvars.iv.next.i = add nuw i64 %indvars.iv.i, 1
  %exitcond.not.i = icmp eq i64 %indvars.iv.next.i, %12
  br i1 %exitcond.not.i, label %invoke.cont58, label %for.body.i, !llvm.loop !9

invoke.cont58:                                    ; preds = %for.inc.i, %for.cond.preheader.i
  %call59 = call noundef nonnull align 8 dereferenceable(32) ptr @_ZNSt7__cxx1112basic_stringIcSt11char_traitsIcESaIcEEaSEOS4_(ptr noundef nonnull align 8 dereferenceable(32) %component, ptr noundef nonnull align 8 dereferenceable(32) %ref.tmp55) #24
  call void @_ZNSt7__cxx1112basic_stringIcSt11char_traitsIcESaIcEED1Ev(ptr noundef nonnull align 8 dereferenceable(32) %ref.tmp55) #24
  br label %if.end60

if.end60:                                         ; preds = %invoke.cont58, %if.end52
  invoke void @_ZN6google8protobuf2io7Printer5PrintIJA5_cNSt7__cxx1112basic_stringIcSt11char_traitsIcESaIcEEEEEEvSt17basic_string_viewIcS8_EDpRKT_(ptr noundef nonnull align 8 dereferenceable(256) %printer, i64 14, ptr nonnull @.str.15, ptr noundef nonnull align 1 dereferenceable(5) @.str.5, ptr noundef nonnull align 8 dereferenceable(32) %component)
          to label %invoke.cont62 unwind label %lpad40

invoke.cont62:                                    ; preds = %if.end60
  %19 = load i64, ptr %spaces_per_indent.i, align 8
  %20 = load i64, ptr %indent_.i, align 8
  %add.i = add i64 %20, %19
  store i64 %add.i, ptr %indent_.i, align 8
  %inc = add nuw nsw i32 %levels.023, 1
  call void @_ZNSt7__cxx1112basic_stringIcSt11char_traitsIcESaIcEED1Ev(ptr noundef nonnull align 8 dereferenceable(32) %component) #24
  %call36 = call noundef zeroext i1 @_ZNKSt7__cxx1112basic_stringIcSt11char_traitsIcESaIcEE5emptyEv(ptr noundef nonnull align 8 dereferenceable(32) %package_name) #24
  br i1 %call36, label %while.end, label %while.body, !llvm.loop !42

while.end:                                        ; preds = %invoke.cont62, %invoke.cont33
  %levels.0.lcssa = phi i32 [ 0, %invoke.cont33 ], [ %inc, %invoke.cont62 ]
  call void @_ZNSt7__cxx1112basic_stringIcSt11char_traitsIcESaIcEED1Ev(ptr noundef nonnull align 8 dereferenceable(32) %delimiter) #24
  call void @_ZNSt7__cxx1112basic_stringIcSt11char_traitsIcESaIcEED1Ev(ptr noundef nonnull align 8 dereferenceable(32) %package_name) #24
  ret i32 %levels.0.lcssa

ehcleanup:                                        ; preds = %lpad40.body, %lpad32.body, %lpad16, %lpad
  %.pn = phi { ptr, i32 } [ %eh.lpad-body14, %lpad40.body ], [ %eh.lpad-body, %lpad32.body ], [ %6, %lpad16 ], [ %5, %lpad ]
  call void @_ZNSt7__cxx1112basic_stringIcSt11char_traitsIcESaIcEED1Ev(ptr noundef nonnull align 8 dereferenceable(32) %package_name) #24
  resume { ptr, i32 } %.pn
}

declare noundef nonnull align 8 dereferenceable(32) ptr @_ZNSt7__cxx1112basic_stringIcSt11char_traitsIcESaIcEEaSERKS4_(ptr noundef nonnull align 8 dereferenceable(32), ptr noundef nonnull align 8 dereferenceable(32)) local_unnamed_addr #0

; Function Attrs: nounwind
declare noundef i64 @_ZNKSt7__cxx1112basic_stringIcSt11char_traitsIcESaIcEE4findEPKcm(ptr noundef nonnull align 8 dereferenceable(32), ptr noundef, i64 noundef) local_unnamed_addr #1

; Function Attrs: nounwind
declare noundef i64 @_ZNKSt7__cxx1112basic_stringIcSt11char_traitsIcESaIcEE4findEcm(ptr noundef nonnull align 8 dereferenceable(32), i8 noundef signext, i64 noundef) local_unnamed_addr #1

; Function Attrs: cold
declare void @_ZN4absl12lts_2023080212log_internal10LogMessageC1EPKciNS2_10WarningTagE(ptr noundef nonnull align 8 dereferenceable(16), ptr noundef, i32 noundef) unnamed_addr #6

; Function Attrs: cold nounwind
declare void @_ZN4absl12lts_2023080212log_internal10LogMessageD1Ev(ptr noundef nonnull align 8 dereferenceable(16)) unnamed_addr #7

; Function Attrs: nounwind
declare noundef i64 @_ZNKSt7__cxx1112basic_stringIcSt11char_traitsIcESaIcEE4findERKS4_m(ptr noundef nonnull align 8 dereferenceable(32), ptr noundef nonnull align 8 dereferenceable(32), i64 noundef) local_unnamed_addr #1

declare noundef nonnull align 8 dereferenceable(32) ptr @_ZNSt7__cxx1112basic_stringIcSt11char_traitsIcESaIcEEaSEPKc(ptr noundef nonnull align 8 dereferenceable(32), ptr noundef) local_unnamed_addr #0

declare void @_ZNKSt7__cxx1112basic_stringIcSt11char_traitsIcESaIcEE6substrEmm(ptr sret(%"class.std::__cxx11::basic_string") align 8, ptr noundef nonnull align 8 dereferenceable(32), i64 noundef, i64 noundef) local_unnamed_addr #0

; Function Attrs: nounwind
declare noundef nonnull align 8 dereferenceable(32) ptr @_ZNSt7__cxx1112basic_stringIcSt11char_traitsIcESaIcEEaSEOS4_(ptr noundef nonnull align 8 dereferenceable(32), ptr noundef nonnull align 8 dereferenceable(32)) local_unnamed_addr #1

; Function Attrs: mustprogress uwtable
define linkonce_odr hidden void @_ZN6google8protobuf2io7Printer5PrintIJA5_cNSt7__cxx1112basic_stringIcSt11char_traitsIcESaIcEEEEEEvSt17basic_string_viewIcS8_EDpRKT_(ptr noundef nonnull align 8 dereferenceable(256) %this, i64 %text.coerce0, ptr %text.coerce1, ptr noundef nonnull align 1 dereferenceable(5) %args, ptr noundef nonnull align 8 dereferenceable(32) %args1) local_unnamed_addr #3 comdat align 2 personality ptr @__gxx_personality_v0 {
entry:
  %vars = alloca [3 x %"class.std::basic_string_view"], align 16
  %map = alloca %"class.absl::lts_20230802::flat_hash_map.77", align 8
  %call.i.i = tail call noundef i64 @strlen(ptr noundef nonnull dereferenceable(1) %args) #24
  store i64 %call.i.i, ptr %vars, align 16
  %_M_str.i = getelementptr inbounds %"class.std::basic_string_view", ptr %vars, i64 0, i32 1
  store ptr %args, ptr %_M_str.i, align 8
  %arrayinit.element = getelementptr inbounds %"class.std::basic_string_view", ptr %vars, i64 1
  %call = tail call { i64, ptr } @_ZNKSt7__cxx1112basic_stringIcSt11char_traitsIcESaIcEEcvSt17basic_string_viewIcS2_EEv(ptr noundef nonnull align 8 dereferenceable(32) %args1) #24
  %0 = extractvalue { i64, ptr } %call, 0
  store i64 %0, ptr %arrayinit.element, align 16
  %1 = getelementptr inbounds %"class.std::basic_string_view", ptr %vars, i64 1, i32 1
  %2 = extractvalue { i64, ptr } %call, 1
  store ptr %2, ptr %1, align 8
  %arrayinit.element4 = getelementptr inbounds %"class.std::basic_string_view", ptr %vars, i64 2
  store i64 0, ptr %arrayinit.element4, align 16
  %_M_str.i5 = getelementptr inbounds %"class.std::basic_string_view", ptr %vars, i64 2, i32 1
  store ptr @.str.14, ptr %_M_str.i5, align 8
  store ptr getelementptr inbounds ([32 x i8], ptr @_ZN4absl12lts_2023080218container_internal11kEmptyGroupE, i64 0, i64 16), ptr %map, align 8
  %slots_.i.i.i.i.i.i.i = getelementptr inbounds %"class.absl::lts_20230802::container_internal::CommonFields", ptr %map, i64 0, i32 1
  call void @llvm.memset.p0.i64(ptr noundef nonnull align 8 dereferenceable(24) %slots_.i.i.i.i.i.i.i, i8 0, i64 24, i1 false)
  %3 = load i64, ptr getelementptr inbounds ([32 x i8], ptr @_ZN4absl12lts_2023080218container_internal11kEmptyGroupE, i64 0, i64 8), align 8
  %cmp.i = icmp eq i64 %3, 0
  br i1 %cmp.i, label %if.then.i, label %for.body

if.then.i:                                        ; preds = %entry
  invoke void @_ZN4absl12lts_2023080218container_internal12raw_hash_setINS1_17FlatHashMapPolicyISt17basic_string_viewIcSt11char_traitsIcEES7_EENS1_10StringHashENS1_8StringEqESaISt4pairIKS7_S7_EEE6resizeEm(ptr noundef nonnull align 8 dereferenceable(32) %map, i64 noundef 1)
          to label %for.body unwind label %lpad.loopexit.split-lp

for.body:                                         ; preds = %entry, %if.then.i
  %call.i.i.i.i.i.i6 = invoke { i64, i8 } @_ZN4absl12lts_2023080218container_internal12raw_hash_setINS1_17FlatHashMapPolicyISt17basic_string_viewIcSt11char_traitsIcEES7_EENS1_10StringHashENS1_8StringEqESaISt4pairIKS7_S7_EEE22find_or_prepare_insertIS7_EESB_ImbERKT_(ptr noundef nonnull align 8 dereferenceable(32) %map, ptr noundef nonnull align 8 dereferenceable(16) %vars)
          to label %call.i.i.i.i.i.i.noexc unwind label %lpad.loopexit

call.i.i.i.i.i.i.noexc:                           ; preds = %for.body
  %4 = extractvalue { i64, i8 } %call.i.i.i.i.i.i6, 1
  %5 = and i8 %4, 1
  %tobool.not.i.i.i.i.i.i = icmp eq i8 %5, 0
  br i1 %tobool.not.i.i.i.i.i.i, label %for.end, label %if.then.i.i.i.i.i.i

if.then.i.i.i.i.i.i:                              ; preds = %call.i.i.i.i.i.i.noexc
  %6 = extractvalue { i64, i8 } %call.i.i.i.i.i.i6, 0
  %7 = load ptr, ptr %slots_.i.i.i.i.i.i.i, align 8, !noalias !43
  %add.ptr.i.i.i.i.i.i.i = getelementptr inbounds %"union.absl::lts_20230802::container_internal::map_slot_type.90", ptr %7, i64 %6
  call void @llvm.memcpy.p0.p0.i64(ptr noundef nonnull align 8 dereferenceable(16) %add.ptr.i.i.i.i.i.i.i, ptr noundef nonnull align 16 dereferenceable(16) %vars, i64 16, i1 false), !noalias !43
  %second.i.i.i.i.i.i.i.i.i.i.i.i.i.i = getelementptr inbounds %"struct.std::pair.93", ptr %add.ptr.i.i.i.i.i.i.i, i64 0, i32 1
  call void @llvm.memcpy.p0.p0.i64(ptr noundef nonnull align 8 dereferenceable(16) %second.i.i.i.i.i.i.i.i.i.i.i.i.i.i, ptr noundef nonnull align 16 dereferenceable(16) %arrayinit.element, i64 16, i1 false), !noalias !43
  br label %for.end

lpad.loopexit:                                    ; preds = %for.body
  %lpad.loopexit13 = landingpad { ptr, i32 }
          cleanup
  br label %lpad

lpad.loopexit.split-lp:                           ; preds = %for.end, %if.then.i
  %lpad.loopexit.split-lp14 = landingpad { ptr, i32 }
          cleanup
  br label %lpad

lpad:                                             ; preds = %lpad.loopexit.split-lp, %lpad.loopexit
  %lpad.phi = phi { ptr, i32 } [ %lpad.loopexit13, %lpad.loopexit ], [ %lpad.loopexit.split-lp14, %lpad.loopexit.split-lp ]
  %capacity_.i.i.i.i.i = getelementptr inbounds %"class.absl::lts_20230802::container_internal::CommonFields", ptr %map, i64 0, i32 2
  %8 = load i64, ptr %capacity_.i.i.i.i.i, align 8
  %tobool.not.i.i.i = icmp eq i64 %8, 0
  br i1 %tobool.not.i.i.i, label %_ZN4absl12lts_2023080213flat_hash_mapISt17basic_string_viewIcSt11char_traitsIcEES5_NS0_18container_internal10StringHashENS6_8StringEqESaISt4pairIKS5_S5_EEED2Ev.exit, label %invoke.cont13.i.i.i

invoke.cont13.i.i.i:                              ; preds = %lpad
  %9 = load ptr, ptr %map, align 8
  %add.ptr.i.i.i.i7 = getelementptr inbounds i8, ptr %9, i64 -8
  call void @_ZdlPv(ptr noundef nonnull %add.ptr.i.i.i.i7) #25
  br label %_ZN4absl12lts_2023080213flat_hash_mapISt17basic_string_viewIcSt11char_traitsIcEES5_NS0_18container_internal10StringHashENS6_8StringEqESaISt4pairIKS5_S5_EEED2Ev.exit

_ZN4absl12lts_2023080213flat_hash_mapISt17basic_string_viewIcSt11char_traitsIcEES5_NS0_18container_internal10StringHashENS6_8StringEqESaISt4pairIKS5_S5_EEED2Ev.exit: ; preds = %lpad, %invoke.cont13.i.i.i
  resume { ptr, i32 } %lpad.phi

for.end:                                          ; preds = %if.then.i.i.i.i.i.i, %call.i.i.i.i.i.i.noexc
  invoke void @_ZN6google8protobuf2io7Printer5PrintIN4absl12lts_2023080213flat_hash_mapISt17basic_string_viewIcSt11char_traitsIcEESA_NS5_18container_internal10StringHashENSB_8StringEqESaISt4pairIKSA_SA_EEEEEEvRKT_SA_(ptr noundef nonnull align 8 dereferenceable(256) %this, ptr noundef nonnull align 8 dereferenceable(32) %map, i64 %text.coerce0, ptr %text.coerce1)
          to label %invoke.cont8 unwind label %lpad.loopexit.split-lp

invoke.cont8:                                     ; preds = %for.end
  %capacity_.i.i.i.i.i8 = getelementptr inbounds %"class.absl::lts_20230802::container_internal::CommonFields", ptr %map, i64 0, i32 2
  %10 = load i64, ptr %capacity_.i.i.i.i.i8, align 8
  %tobool.not.i.i.i9 = icmp eq i64 %10, 0
  br i1 %tobool.not.i.i.i9, label %_ZN4absl12lts_2023080213flat_hash_mapISt17basic_string_viewIcSt11char_traitsIcEES5_NS0_18container_internal10StringHashENS6_8StringEqESaISt4pairIKS5_S5_EEED2Ev.exit12, label %invoke.cont13.i.i.i10

invoke.cont13.i.i.i10:                            ; preds = %invoke.cont8
  %11 = load ptr, ptr %map, align 8
  %add.ptr.i.i.i.i11 = getelementptr inbounds i8, ptr %11, i64 -8
  call void @_ZdlPv(ptr noundef nonnull %add.ptr.i.i.i.i11) #25
  br label %_ZN4absl12lts_2023080213flat_hash_mapISt17basic_string_viewIcSt11char_traitsIcEES5_NS0_18container_internal10StringHashENS6_8StringEqESaISt4pairIKS5_S5_EEED2Ev.exit12

_ZN4absl12lts_2023080213flat_hash_mapISt17basic_string_viewIcSt11char_traitsIcEES5_NS0_18container_internal10StringHashENS6_8StringEqESaISt4pairIKS5_S5_EEED2Ev.exit12: ; preds = %invoke.cont8, %invoke.cont13.i.i.i10
  ret void
}

; Function Attrs: mustprogress uwtable
define hidden void @_ZN6google8protobuf8compiler4ruby17EndPackageModulesEiPNS0_2io7PrinterE(i32 noundef %levels, ptr noundef %printer) local_unnamed_addr #3 personality ptr @__gxx_personality_v0 {
entry:
  %map.i = alloca %"class.absl::lts_20230802::flat_hash_map.77", align 8
  %cmp3 = icmp sgt i32 %levels, 0
  br i1 %cmp3, label %while.body.lr.ph, label %while.end

while.body.lr.ph:                                 ; preds = %entry
  %slots_.i.i.i.i.i.i.i.i = getelementptr inbounds %"class.absl::lts_20230802::container_internal::CommonFields", ptr %map.i, i64 0, i32 1
  %capacity_.i.i.i.i.i5.i = getelementptr inbounds %"class.absl::lts_20230802::container_internal::CommonFields", ptr %map.i, i64 0, i32 2
  br label %while.body

while.body:                                       ; preds = %while.body.lr.ph, %_ZN6google8protobuf2io7Printer5PrintIJEEEvSt17basic_string_viewIcSt11char_traitsIcEEDpRKT_.exit
  %levels.addr.04 = phi i32 [ %levels, %while.body.lr.ph ], [ %dec, %_ZN6google8protobuf2io7Printer5PrintIJEEEvSt17basic_string_viewIcSt11char_traitsIcEEDpRKT_.exit ]
  %dec = add nsw i32 %levels.addr.04, -1
  call void @_ZN6google8protobuf2io7Printer7OutdentEv(ptr noundef nonnull align 8 dereferenceable(256) %printer)
  call void @llvm.lifetime.start.p0(i64 32, ptr nonnull %map.i)
  store ptr getelementptr inbounds ([32 x i8], ptr @_ZN4absl12lts_2023080218container_internal11kEmptyGroupE, i64 0, i64 16), ptr %map.i, align 8
  call void @llvm.memset.p0.i64(ptr noundef nonnull align 8 dereferenceable(24) %slots_.i.i.i.i.i.i.i.i, i8 0, i64 24, i1 false)
  invoke void @_ZN6google8protobuf2io7Printer5PrintIN4absl12lts_2023080213flat_hash_mapISt17basic_string_viewIcSt11char_traitsIcEESA_NS5_18container_internal10StringHashENSB_8StringEqESaISt4pairIKSA_SA_EEEEEEvRKT_SA_(ptr noundef nonnull align 8 dereferenceable(256) %printer, ptr noundef nonnull align 8 dereferenceable(32) %map.i, i64 4, ptr nonnull @.str.16)
          to label %invoke.cont5.i unwind label %lpad.i

lpad.i:                                           ; preds = %while.body
  %0 = landingpad { ptr, i32 }
          cleanup
  %1 = load i64, ptr %capacity_.i.i.i.i.i5.i, align 8
  %tobool.not.i.i.i.i = icmp eq i64 %1, 0
  br i1 %tobool.not.i.i.i.i, label %_ZN4absl12lts_2023080213flat_hash_mapISt17basic_string_viewIcSt11char_traitsIcEES5_NS0_18container_internal10StringHashENS6_8StringEqESaISt4pairIKS5_S5_EEED2Ev.exit.i, label %invoke.cont13.i.i.i.i

invoke.cont13.i.i.i.i:                            ; preds = %lpad.i
  %2 = load ptr, ptr %map.i, align 8
  %add.ptr.i.i.i.i4.i = getelementptr inbounds i8, ptr %2, i64 -8
  call void @_ZdlPv(ptr noundef nonnull %add.ptr.i.i.i.i4.i) #25
  br label %_ZN4absl12lts_2023080213flat_hash_mapISt17basic_string_viewIcSt11char_traitsIcEES5_NS0_18container_internal10StringHashENS6_8StringEqESaISt4pairIKS5_S5_EEED2Ev.exit.i

_ZN4absl12lts_2023080213flat_hash_mapISt17basic_string_viewIcSt11char_traitsIcEES5_NS0_18container_internal10StringHashENS6_8StringEqESaISt4pairIKS5_S5_EEED2Ev.exit.i: ; preds = %invoke.cont13.i.i.i.i, %lpad.i
  resume { ptr, i32 } %0

invoke.cont5.i:                                   ; preds = %while.body
  %3 = load i64, ptr %capacity_.i.i.i.i.i5.i, align 8
  %tobool.not.i.i.i6.i = icmp eq i64 %3, 0
  br i1 %tobool.not.i.i.i6.i, label %_ZN6google8protobuf2io7Printer5PrintIJEEEvSt17basic_string_viewIcSt11char_traitsIcEEDpRKT_.exit, label %invoke.cont13.i.i.i7.i

invoke.cont13.i.i.i7.i:                           ; preds = %invoke.cont5.i
  %4 = load ptr, ptr %map.i, align 8
  %add.ptr.i.i.i.i8.i = getelementptr inbounds i8, ptr %4, i64 -8
  call void @_ZdlPv(ptr noundef nonnull %add.ptr.i.i.i.i8.i) #25
  br label %_ZN6google8protobuf2io7Printer5PrintIJEEEvSt17basic_string_viewIcSt11char_traitsIcEEDpRKT_.exit

_ZN6google8protobuf2io7Printer5PrintIJEEEvSt17basic_string_viewIcSt11char_traitsIcEEDpRKT_.exit: ; preds = %invoke.cont5.i, %invoke.cont13.i.i.i7.i
  call void @llvm.lifetime.end.p0(i64 32, ptr nonnull %map.i)
  %cmp = icmp ugt i32 %levels.addr.04, 1
  br i1 %cmp, label %while.body, label %while.end, !llvm.loop !56

while.end:                                        ; preds = %_ZN6google8protobuf2io7Printer5PrintIJEEEvSt17basic_string_viewIcSt11char_traitsIcEEDpRKT_.exit, %entry
  ret void
}

declare void @_ZN6google8protobuf2io7Printer7OutdentEv(ptr noundef nonnull align 8 dereferenceable(256)) local_unnamed_addr #0

; Function Attrs: mustprogress uwtable
define hidden void @_ZN6google8protobuf8compiler4ruby20SerializedDescriptorB5cxx11EPKNS0_14FileDescriptorE(ptr noalias sret(%"class.std::__cxx11::basic_string") align 8 %agg.result, ptr noundef nonnull %file) local_unnamed_addr #3 personality ptr @__gxx_personality_v0 {
entry:
  %file_proto = alloca %"class.google::protobuf::FileDescriptorProto", align 8
  call void @_ZN6google8protobuf8compiler27StripSourceRetentionOptionsERKNS0_14FileDescriptorEb(ptr nonnull sret(%"class.google::protobuf::FileDescriptorProto") align 8 %file_proto, ptr noundef nonnull align 8 dereferenceable(168) %file, i1 noundef zeroext false)
  call void @_ZNSt7__cxx1112basic_stringIcSt11char_traitsIcESaIcEEC1Ev(ptr noundef nonnull align 8 dereferenceable(32) %agg.result) #24
  %call = invoke noundef zeroext i1 @_ZNK6google8protobuf11MessageLite17SerializeToStringEPNSt7__cxx1112basic_stringIcSt11char_traitsIcESaIcEEE(ptr noundef nonnull align 8 dereferenceable(16) %file_proto, ptr noundef nonnull %agg.result)
          to label %nrvo.skipdtor unwind label %lpad

lpad:                                             ; preds = %entry
  %0 = landingpad { ptr, i32 }
          cleanup
  call void @_ZNSt7__cxx1112basic_stringIcSt11char_traitsIcESaIcEED1Ev(ptr noundef nonnull align 8 dereferenceable(32) %agg.result) #24
  call void @_ZN6google8protobuf19FileDescriptorProtoD1Ev(ptr noundef nonnull align 8 dereferenceable(224) %file_proto) #24
  resume { ptr, i32 } %0

nrvo.skipdtor:                                    ; preds = %entry
  call void @_ZN6google8protobuf19FileDescriptorProtoD1Ev(ptr noundef nonnull align 8 dereferenceable(224) %file_proto) #24
  ret void
}

declare void @_ZN6google8protobuf8compiler27StripSourceRetentionOptionsERKNS0_14FileDescriptorEb(ptr sret(%"class.google::protobuf::FileDescriptorProto") align 8, ptr noundef nonnull align 8 dereferenceable(168), i1 noundef zeroext) local_unnamed_addr #0

declare noundef zeroext i1 @_ZNK6google8protobuf11MessageLite17SerializeToStringEPNSt7__cxx1112basic_stringIcSt11char_traitsIcESaIcEEE(ptr noundef nonnull align 8 dereferenceable(16), ptr noundef) local_unnamed_addr #0

; Function Attrs: nounwind
declare void @_ZN6google8protobuf19FileDescriptorProtoD1Ev(ptr noundef nonnull align 8 dereferenceable(224)) unnamed_addr #1

; Function Attrs: mustprogress uwtable
define hidden void @_ZN6google8protobuf8compiler4ruby14DumpImportListB5cxx11EPKNS0_14FileDescriptorE(ptr noalias sret(%"class.std::__cxx11::basic_string") align 8 %agg.result, ptr noundef %file) local_unnamed_addr #3 personality ptr @__gxx_personality_v0 {
entry:
  %seen = alloca %"class.absl::lts_20230802::flat_hash_set", align 8
  %ref.tmp = alloca [1 x ptr], align 8
  %ref.tmp1 = alloca %"struct.absl::lts_20230802::container_internal::HashEq<const google::protobuf::FileDescriptor *>::Hash", align 1
  %ref.tmp2 = alloca %"struct.absl::lts_20230802::container_internal::HashEq<const google::protobuf::FileDescriptor *>::Eq", align 1
  %ref.tmp3 = alloca %"class.std::allocator.44", align 1
  %ref.tmp4 = alloca %class.anon, align 8
  store ptr %file, ptr %ref.tmp, align 8
  %add.ptr.i.i.i = getelementptr inbounds ptr, ptr %ref.tmp, i64 1
  call void @_ZN4absl12lts_2023080218container_internal12raw_hash_setINS1_17FlatHashSetPolicyIPKN6google8protobuf14FileDescriptorEEENS1_6HashEqIS8_vE4HashENSB_2EqESaIS8_EEC2IPKS8_EET_SJ_mRKSC_RKSD_RKSE_(ptr noundef nonnull align 8 dereferenceable(32) %seen, ptr noundef nonnull %ref.tmp, ptr noundef nonnull %add.ptr.i.i.i, i64 noundef 0, ptr noundef nonnull align 1 dereferenceable(1) %ref.tmp1, ptr noundef nonnull align 1 dereferenceable(1) %ref.tmp2, ptr noundef nonnull align 1 dereferenceable(1) %ref.tmp3)
  call void @_ZNSt7__cxx1112basic_stringIcSt11char_traitsIcESaIcEEC1Ev(ptr noundef nonnull align 8 dereferenceable(32) %agg.result) #24
  store ptr %seen, ptr %ref.tmp4, align 8
  %0 = getelementptr inbounds %class.anon, ptr %ref.tmp4, i64 0, i32 1
  store ptr %agg.result, ptr %0, align 8
  %message_type_count_.i.i = getelementptr inbounds %"class.google::protobuf::FileDescriptor", ptr %file, i64 0, i32 12
  %1 = load i32, ptr %message_type_count_.i.i, align 4
  %cmp11.i = icmp sgt i32 %1, 0
  br i1 %cmp11.i, label %for.body.lr.ph.i, label %for.cond3.preheader.i

for.body.lr.ph.i:                                 ; preds = %entry
  %message_types_.i.i = getelementptr inbounds %"class.google::protobuf::FileDescriptor", ptr %file, i64 0, i32 18
  br label %for.body.i

for.cond3.preheader.i:                            ; preds = %.noexc, %entry
  %extension_count_.i.i = getelementptr inbounds %"class.google::protobuf::FileDescriptor", ptr %file, i64 0, i32 3
  %2 = load i32, ptr %extension_count_.i.i, align 4
  %cmp513.i = icmp sgt i32 %2, 0
  br i1 %cmp513.i, label %for.body6.lr.ph.i, label %nrvo.skipdtor

for.body6.lr.ph.i:                                ; preds = %for.cond3.preheader.i
  %extensions_.i.i = getelementptr inbounds %"class.google::protobuf::FileDescriptor", ptr %file, i64 0, i32 21
  br label %for.body6.i

for.body.i:                                       ; preds = %.noexc, %for.body.lr.ph.i
  %indvars.iv.i = phi i64 [ 0, %for.body.lr.ph.i ], [ %indvars.iv.next.i, %.noexc ]
  %3 = load ptr, ptr %message_types_.i.i, align 8
  %add.ptr.i.i = getelementptr inbounds %"class.google::protobuf::Descriptor", ptr %3, i64 %indvars.iv.i
  invoke fastcc void @"_ZN6google8protobuf8compiler4ruby12ForEachFieldIRZNS2_14DumpImportListB5cxx11EPKNS0_14FileDescriptorEE3$_0EEvPKNS0_10DescriptorEOT_"(ptr noundef %add.ptr.i.i, ptr noundef nonnull align 8 dereferenceable(16) %ref.tmp4)
          to label %.noexc unwind label %lpad5.loopexit.split-lp

.noexc:                                           ; preds = %for.body.i
  %indvars.iv.next.i = add nuw nsw i64 %indvars.iv.i, 1
  %4 = load i32, ptr %message_type_count_.i.i, align 4
  %5 = sext i32 %4 to i64
  %cmp.i = icmp slt i64 %indvars.iv.next.i, %5
  br i1 %cmp.i, label %for.body.i, label %for.cond3.preheader.i, !llvm.loop !57

for.body6.i:                                      ; preds = %.noexc3, %for.body6.lr.ph.i
  %indvars.iv16.i = phi i64 [ 0, %for.body6.lr.ph.i ], [ %indvars.iv.next17.i, %.noexc3 ]
  %6 = load ptr, ptr %extensions_.i.i, align 8
  %add.ptr.i10.i = getelementptr inbounds %"class.google::protobuf::FieldDescriptor", ptr %6, i64 %indvars.iv16.i
  invoke fastcc void @"_ZZN6google8protobuf8compiler4ruby14DumpImportListB5cxx11EPKNS0_14FileDescriptorEENK3$_0clEPKNS0_15FieldDescriptorE"(ptr noundef nonnull align 8 dereferenceable(16) %ref.tmp4, ptr noundef %add.ptr.i10.i)
          to label %.noexc3 unwind label %lpad5.loopexit

.noexc3:                                          ; preds = %for.body6.i
  %indvars.iv.next17.i = add nuw nsw i64 %indvars.iv16.i, 1
  %7 = load i32, ptr %extension_count_.i.i, align 4
  %8 = sext i32 %7 to i64
  %cmp5.i = icmp slt i64 %indvars.iv.next17.i, %8
  br i1 %cmp5.i, label %for.body6.i, label %nrvo.skipdtor, !llvm.loop !58

lpad5.loopexit:                                   ; preds = %for.body6.i
  %lpad.loopexit = landingpad { ptr, i32 }
          cleanup
  br label %lpad5

lpad5.loopexit.split-lp:                          ; preds = %for.body.i
  %lpad.loopexit.split-lp = landingpad { ptr, i32 }
          cleanup
  br label %lpad5

lpad5:                                            ; preds = %lpad5.loopexit.split-lp, %lpad5.loopexit
  %lpad.phi = phi { ptr, i32 } [ %lpad.loopexit, %lpad5.loopexit ], [ %lpad.loopexit.split-lp, %lpad5.loopexit.split-lp ]
  call void @_ZNSt7__cxx1112basic_stringIcSt11char_traitsIcESaIcEED1Ev(ptr noundef nonnull align 8 dereferenceable(32) %agg.result) #24
  %capacity_.i.i.i.i = getelementptr inbounds %"class.absl::lts_20230802::container_internal::CommonFields", ptr %seen, i64 0, i32 2
  %9 = load i64, ptr %capacity_.i.i.i.i, align 8
  %tobool.not.i.i = icmp eq i64 %9, 0
  br i1 %tobool.not.i.i, label %eh.resume, label %invoke.cont13.i.i

invoke.cont13.i.i:                                ; preds = %lpad5
  %10 = load ptr, ptr %seen, align 8
  %add.ptr.i.i.i4 = getelementptr inbounds i8, ptr %10, i64 -8
  call void @_ZdlPv(ptr noundef nonnull %add.ptr.i.i.i4) #25
  br label %eh.resume

nrvo.skipdtor:                                    ; preds = %.noexc3, %for.cond3.preheader.i
  %capacity_.i.i.i.i5 = getelementptr inbounds %"class.absl::lts_20230802::container_internal::CommonFields", ptr %seen, i64 0, i32 2
  %11 = load i64, ptr %capacity_.i.i.i.i5, align 8
  %tobool.not.i.i6 = icmp eq i64 %11, 0
  br i1 %tobool.not.i.i6, label %_ZN4absl12lts_2023080213flat_hash_setIPKN6google8protobuf14FileDescriptorENS0_18container_internal6HashEqIS6_vE4HashENS9_2EqESaIS6_EED2Ev.exit9, label %invoke.cont13.i.i7

invoke.cont13.i.i7:                               ; preds = %nrvo.skipdtor
  %12 = load ptr, ptr %seen, align 8
  %add.ptr.i.i.i8 = getelementptr inbounds i8, ptr %12, i64 -8
  call void @_ZdlPv(ptr noundef nonnull %add.ptr.i.i.i8) #25
  br label %_ZN4absl12lts_2023080213flat_hash_setIPKN6google8protobuf14FileDescriptorENS0_18container_internal6HashEqIS6_vE4HashENS9_2EqESaIS6_EED2Ev.exit9

_ZN4absl12lts_2023080213flat_hash_setIPKN6google8protobuf14FileDescriptorENS0_18container_internal6HashEqIS6_vE4HashENS9_2EqESaIS6_EED2Ev.exit9: ; preds = %nrvo.skipdtor, %invoke.cont13.i.i7
  ret void

eh.resume:                                        ; preds = %invoke.cont13.i.i, %lpad5
  resume { ptr, i32 } %lpad.phi
}

; Function Attrs: mustprogress uwtable
define hidden void @_ZN6google8protobuf8compiler4ruby24GenerateBinaryDescriptorEPKNS0_14FileDescriptorEPNS0_2io7PrinterEPNSt7__cxx1112basic_stringIcSt11char_traitsIcESaIcEEE(ptr noundef nonnull %file, ptr noundef %printer, ptr nocapture readnone %error) local_unnamed_addr #3 personality ptr @__gxx_personality_v0 {
entry:
  %file_proto.i = alloca %"class.google::protobuf::FileDescriptorProto", align 8
  %ref.tmp = alloca %"class.std::__cxx11::basic_string", align 8
  %ref.tmp2 = alloca %"class.std::__cxx11::basic_string", align 8
  %ref.tmp3 = alloca %"class.std::__cxx11::basic_string", align 8
  call void @llvm.lifetime.start.p0(i64 224, ptr nonnull %file_proto.i)
  call void @_ZN6google8protobuf8compiler27StripSourceRetentionOptionsERKNS0_14FileDescriptorEb(ptr nonnull sret(%"class.google::protobuf::FileDescriptorProto") align 8 %file_proto.i, ptr noundef nonnull align 8 dereferenceable(168) %file, i1 noundef zeroext false), !noalias !59
  call void @_ZNSt7__cxx1112basic_stringIcSt11char_traitsIcESaIcEEC1Ev(ptr noundef nonnull align 8 dereferenceable(32) %ref.tmp2) #24
  %call.i = invoke noundef zeroext i1 @_ZNK6google8protobuf11MessageLite17SerializeToStringEPNSt7__cxx1112basic_stringIcSt11char_traitsIcESaIcEEE(ptr noundef nonnull align 8 dereferenceable(16) %file_proto.i, ptr noundef nonnull %ref.tmp2)
          to label %_ZN6google8protobuf8compiler4ruby20SerializedDescriptorB5cxx11EPKNS0_14FileDescriptorE.exit unwind label %lpad.i

common.resume:                                    ; preds = %ehcleanup8, %lpad.i
  %common.resume.op = phi { ptr, i32 } [ %0, %lpad.i ], [ %.pn.pn, %ehcleanup8 ]
  resume { ptr, i32 } %common.resume.op

lpad.i:                                           ; preds = %entry
  %0 = landingpad { ptr, i32 }
          cleanup
  call void @_ZNSt7__cxx1112basic_stringIcSt11char_traitsIcESaIcEED1Ev(ptr noundef nonnull align 8 dereferenceable(32) %ref.tmp2) #24
  call void @_ZN6google8protobuf19FileDescriptorProtoD1Ev(ptr noundef nonnull align 8 dereferenceable(224) %file_proto.i) #24
  br label %common.resume

_ZN6google8protobuf8compiler4ruby20SerializedDescriptorB5cxx11EPKNS0_14FileDescriptorE.exit: ; preds = %entry
  call void @_ZN6google8protobuf19FileDescriptorProtoD1Ev(ptr noundef nonnull align 8 dereferenceable(224) %file_proto.i) #24
  call void @llvm.lifetime.end.p0(i64 224, ptr nonnull %file_proto.i)
  %call = call { i64, ptr } @_ZNKSt7__cxx1112basic_stringIcSt11char_traitsIcESaIcEEcvSt17basic_string_viewIcS2_EEv(ptr noundef nonnull align 8 dereferenceable(32) %ref.tmp2) #24
  %1 = extractvalue { i64, ptr } %call, 0
  %2 = extractvalue { i64, ptr } %call, 1
  invoke void @_ZN4absl12lts_2023080210CHexEscapeB5cxx11ESt17basic_string_viewIcSt11char_traitsIcEE(ptr nonnull sret(%"class.std::__cxx11::basic_string") align 8 %ref.tmp, i64 %1, ptr %2)
          to label %invoke.cont unwind label %lpad

invoke.cont:                                      ; preds = %_ZN6google8protobuf8compiler4ruby20SerializedDescriptorB5cxx11EPKNS0_14FileDescriptorE.exit
  invoke void @_ZN6google8protobuf8compiler4ruby14DumpImportListB5cxx11EPKNS0_14FileDescriptorE(ptr nonnull sret(%"class.std::__cxx11::basic_string") align 8 %ref.tmp3, ptr noundef nonnull %file)
          to label %invoke.cont5 unwind label %lpad4

invoke.cont5:                                     ; preds = %invoke.cont
  invoke void @_ZN6google8protobuf2io7Printer5PrintIJA16_cNSt7__cxx1112basic_stringIcSt11char_traitsIcESaIcEEEA8_cSA_EEEvSt17basic_string_viewIcS8_EDpRKT_(ptr noundef nonnull align 8 dereferenceable(256) %printer, i64 994, ptr nonnull @.str.17, ptr noundef nonnull align 1 dereferenceable(16) @.str.18, ptr noundef nonnull align 8 dereferenceable(32) %ref.tmp, ptr noundef nonnull align 1 dereferenceable(8) @.str.19, ptr noundef nonnull align 8 dereferenceable(32) %ref.tmp3)
          to label %invoke.cont7 unwind label %lpad6

invoke.cont7:                                     ; preds = %invoke.cont5
  call void @_ZNSt7__cxx1112basic_stringIcSt11char_traitsIcESaIcEED1Ev(ptr noundef nonnull align 8 dereferenceable(32) %ref.tmp3) #24
  call void @_ZNSt7__cxx1112basic_stringIcSt11char_traitsIcESaIcEED1Ev(ptr noundef nonnull align 8 dereferenceable(32) %ref.tmp) #24
  call void @_ZNSt7__cxx1112basic_stringIcSt11char_traitsIcESaIcEED1Ev(ptr noundef nonnull align 8 dereferenceable(32) %ref.tmp2) #24
  ret void

lpad:                                             ; preds = %_ZN6google8protobuf8compiler4ruby20SerializedDescriptorB5cxx11EPKNS0_14FileDescriptorE.exit
  %3 = landingpad { ptr, i32 }
          cleanup
  br label %ehcleanup8

lpad4:                                            ; preds = %invoke.cont
  %4 = landingpad { ptr, i32 }
          cleanup
  br label %ehcleanup

lpad6:                                            ; preds = %invoke.cont5
  %5 = landingpad { ptr, i32 }
          cleanup
  call void @_ZNSt7__cxx1112basic_stringIcSt11char_traitsIcESaIcEED1Ev(ptr noundef nonnull align 8 dereferenceable(32) %ref.tmp3) #24
  br label %ehcleanup

ehcleanup:                                        ; preds = %lpad6, %lpad4
  %.pn = phi { ptr, i32 } [ %5, %lpad6 ], [ %4, %lpad4 ]
  call void @_ZNSt7__cxx1112basic_stringIcSt11char_traitsIcESaIcEED1Ev(ptr noundef nonnull align 8 dereferenceable(32) %ref.tmp) #24
  br label %ehcleanup8

ehcleanup8:                                       ; preds = %ehcleanup, %lpad
  %.pn.pn = phi { ptr, i32 } [ %.pn, %ehcleanup ], [ %3, %lpad ]
  call void @_ZNSt7__cxx1112basic_stringIcSt11char_traitsIcESaIcEED1Ev(ptr noundef nonnull align 8 dereferenceable(32) %ref.tmp2) #24
  br label %common.resume
}

; Function Attrs: mustprogress uwtable
define linkonce_odr hidden void @_ZN6google8protobuf2io7Printer5PrintIJA16_cNSt7__cxx1112basic_stringIcSt11char_traitsIcESaIcEEEA8_cSA_EEEvSt17basic_string_viewIcS8_EDpRKT_(ptr noundef nonnull align 8 dereferenceable(256) %this, i64 %text.coerce0, ptr %text.coerce1, ptr noundef nonnull align 1 dereferenceable(16) %args, ptr noundef nonnull align 8 dereferenceable(32) %args1, ptr noundef nonnull align 1 dereferenceable(8) %args3, ptr noundef nonnull align 8 dereferenceable(32) %args5) local_unnamed_addr #3 comdat align 2 personality ptr @__gxx_personality_v0 {
entry:
  %vars = alloca [5 x %"class.std::basic_string_view"], align 16
  %map = alloca %"class.absl::lts_20230802::flat_hash_map.77", align 8
  %call.i.i = tail call noundef i64 @strlen(ptr noundef nonnull dereferenceable(1) %args) #24
  store i64 %call.i.i, ptr %vars, align 16
  %_M_str.i = getelementptr inbounds %"class.std::basic_string_view", ptr %vars, i64 0, i32 1
  store ptr %args, ptr %_M_str.i, align 8
  %arrayinit.element = getelementptr inbounds %"class.std::basic_string_view", ptr %vars, i64 1
  %call = tail call { i64, ptr } @_ZNKSt7__cxx1112basic_stringIcSt11char_traitsIcESaIcEEcvSt17basic_string_viewIcS2_EEv(ptr noundef nonnull align 8 dereferenceable(32) %args1) #24
  %0 = extractvalue { i64, ptr } %call, 0
  store i64 %0, ptr %arrayinit.element, align 16
  %1 = getelementptr inbounds %"class.std::basic_string_view", ptr %vars, i64 1, i32 1
  %2 = extractvalue { i64, ptr } %call, 1
  store ptr %2, ptr %1, align 8
  %arrayinit.element8 = getelementptr inbounds %"class.std::basic_string_view", ptr %vars, i64 2
  %call.i.i4 = tail call noundef i64 @strlen(ptr noundef nonnull dereferenceable(1) %args3) #24
  store i64 %call.i.i4, ptr %arrayinit.element8, align 16
  %_M_str.i5 = getelementptr inbounds %"class.std::basic_string_view", ptr %vars, i64 2, i32 1
  store ptr %args3, ptr %_M_str.i5, align 8
  %arrayinit.element10 = getelementptr inbounds %"class.std::basic_string_view", ptr %vars, i64 3
  %call11 = tail call { i64, ptr } @_ZNKSt7__cxx1112basic_stringIcSt11char_traitsIcESaIcEEcvSt17basic_string_viewIcS2_EEv(ptr noundef nonnull align 8 dereferenceable(32) %args5) #24
  %3 = extractvalue { i64, ptr } %call11, 0
  store i64 %3, ptr %arrayinit.element10, align 16
  %4 = getelementptr inbounds %"class.std::basic_string_view", ptr %vars, i64 3, i32 1
  %5 = extractvalue { i64, ptr } %call11, 1
  store ptr %5, ptr %4, align 8
  %arrayinit.element12 = getelementptr inbounds %"class.std::basic_string_view", ptr %vars, i64 4
  store i64 0, ptr %arrayinit.element12, align 16
  %_M_str.i7 = getelementptr inbounds %"class.std::basic_string_view", ptr %vars, i64 4, i32 1
  store ptr @.str.14, ptr %_M_str.i7, align 8
  store ptr getelementptr inbounds ([32 x i8], ptr @_ZN4absl12lts_2023080218container_internal11kEmptyGroupE, i64 0, i64 16), ptr %map, align 8
  %slots_.i.i.i.i.i.i.i = getelementptr inbounds %"class.absl::lts_20230802::container_internal::CommonFields", ptr %map, i64 0, i32 1
  call void @llvm.memset.p0.i64(ptr noundef nonnull align 8 dereferenceable(24) %slots_.i.i.i.i.i.i.i, i8 0, i64 24, i1 false)
  %6 = load i64, ptr getelementptr inbounds ([32 x i8], ptr @_ZN4absl12lts_2023080218container_internal11kEmptyGroupE, i64 0, i64 8), align 8
  %cmp.i = icmp ult i64 %6, 2
  br i1 %cmp.i, label %if.then.i, label %for.body.preheader

if.then.i:                                        ; preds = %entry
  invoke void @_ZN4absl12lts_2023080218container_internal12raw_hash_setINS1_17FlatHashMapPolicyISt17basic_string_viewIcSt11char_traitsIcEES7_EENS1_10StringHashENS1_8StringEqESaISt4pairIKS7_S7_EEE6resizeEm(ptr noundef nonnull align 8 dereferenceable(32) %map, i64 noundef 3)
          to label %for.body.preheader unwind label %lpad.loopexit.split-lp

for.body.preheader:                               ; preds = %if.then.i, %entry
  br label %for.body

for.body:                                         ; preds = %for.body.preheader, %for.inc
  %cmp = phi i1 [ false, %for.inc ], [ true, %for.body.preheader ]
  %i.017 = phi i64 [ 2, %for.inc ], [ 0, %for.body.preheader ]
  %arrayidx = getelementptr inbounds [5 x %"class.std::basic_string_view"], ptr %vars, i64 0, i64 %i.017
  %add = or disjoint i64 %i.017, 1
  %arrayidx13 = getelementptr inbounds [5 x %"class.std::basic_string_view"], ptr %vars, i64 0, i64 %add
  %call.i.i.i.i.i.i8 = invoke { i64, i8 } @_ZN4absl12lts_2023080218container_internal12raw_hash_setINS1_17FlatHashMapPolicyISt17basic_string_viewIcSt11char_traitsIcEES7_EENS1_10StringHashENS1_8StringEqESaISt4pairIKS7_S7_EEE22find_or_prepare_insertIS7_EESB_ImbERKT_(ptr noundef nonnull align 8 dereferenceable(32) %map, ptr noundef nonnull align 8 dereferenceable(16) %arrayidx)
          to label %call.i.i.i.i.i.i.noexc unwind label %lpad.loopexit

call.i.i.i.i.i.i.noexc:                           ; preds = %for.body
  %7 = extractvalue { i64, i8 } %call.i.i.i.i.i.i8, 1
  %8 = and i8 %7, 1
  %tobool.not.i.i.i.i.i.i = icmp eq i8 %8, 0
  br i1 %tobool.not.i.i.i.i.i.i, label %for.inc, label %if.then.i.i.i.i.i.i

if.then.i.i.i.i.i.i:                              ; preds = %call.i.i.i.i.i.i.noexc
  %9 = extractvalue { i64, i8 } %call.i.i.i.i.i.i8, 0
  %10 = load ptr, ptr %slots_.i.i.i.i.i.i.i, align 8, !noalias !62
  %add.ptr.i.i.i.i.i.i.i = getelementptr inbounds %"union.absl::lts_20230802::container_internal::map_slot_type.90", ptr %10, i64 %9
  call void @llvm.memcpy.p0.p0.i64(ptr noundef nonnull align 8 dereferenceable(16) %add.ptr.i.i.i.i.i.i.i, ptr noundef nonnull align 16 dereferenceable(16) %arrayidx, i64 16, i1 false), !noalias !62
  %second.i.i.i.i.i.i.i.i.i.i.i.i.i.i = getelementptr inbounds %"struct.std::pair.93", ptr %add.ptr.i.i.i.i.i.i.i, i64 0, i32 1
  call void @llvm.memcpy.p0.p0.i64(ptr noundef nonnull align 8 dereferenceable(16) %second.i.i.i.i.i.i.i.i.i.i.i.i.i.i, ptr noundef nonnull align 16 dereferenceable(16) %arrayidx13, i64 16, i1 false), !noalias !62
  br label %for.inc

for.inc:                                          ; preds = %if.then.i.i.i.i.i.i, %call.i.i.i.i.i.i.noexc
  br i1 %cmp, label %for.body, label %for.end, !llvm.loop !75

lpad.loopexit:                                    ; preds = %for.body
  %lpad.loopexit15 = landingpad { ptr, i32 }
          cleanup
  br label %lpad

lpad.loopexit.split-lp:                           ; preds = %for.end, %if.then.i
  %lpad.loopexit.split-lp16 = landingpad { ptr, i32 }
          cleanup
  br label %lpad

lpad:                                             ; preds = %lpad.loopexit.split-lp, %lpad.loopexit
  %lpad.phi = phi { ptr, i32 } [ %lpad.loopexit15, %lpad.loopexit ], [ %lpad.loopexit.split-lp16, %lpad.loopexit.split-lp ]
  %capacity_.i.i.i.i.i = getelementptr inbounds %"class.absl::lts_20230802::container_internal::CommonFields", ptr %map, i64 0, i32 2
  %11 = load i64, ptr %capacity_.i.i.i.i.i, align 8
  %tobool.not.i.i.i = icmp eq i64 %11, 0
  br i1 %tobool.not.i.i.i, label %_ZN4absl12lts_2023080213flat_hash_mapISt17basic_string_viewIcSt11char_traitsIcEES5_NS0_18container_internal10StringHashENS6_8StringEqESaISt4pairIKS5_S5_EEED2Ev.exit, label %invoke.cont13.i.i.i

invoke.cont13.i.i.i:                              ; preds = %lpad
  %12 = load ptr, ptr %map, align 8
  %add.ptr.i.i.i.i9 = getelementptr inbounds i8, ptr %12, i64 -8
  call void @_ZdlPv(ptr noundef nonnull %add.ptr.i.i.i.i9) #25
  br label %_ZN4absl12lts_2023080213flat_hash_mapISt17basic_string_viewIcSt11char_traitsIcEES5_NS0_18container_internal10StringHashENS6_8StringEqESaISt4pairIKS5_S5_EEED2Ev.exit

_ZN4absl12lts_2023080213flat_hash_mapISt17basic_string_viewIcSt11char_traitsIcEES5_NS0_18container_internal10StringHashENS6_8StringEqESaISt4pairIKS5_S5_EEED2Ev.exit: ; preds = %lpad, %invoke.cont13.i.i.i
  resume { ptr, i32 } %lpad.phi

for.end:                                          ; preds = %for.inc
  invoke void @_ZN6google8protobuf2io7Printer5PrintIN4absl12lts_2023080213flat_hash_mapISt17basic_string_viewIcSt11char_traitsIcEESA_NS5_18container_internal10StringHashENSB_8StringEqESaISt4pairIKSA_SA_EEEEEEvRKT_SA_(ptr noundef nonnull align 8 dereferenceable(256) %this, ptr noundef nonnull align 8 dereferenceable(32) %map, i64 %text.coerce0, ptr %text.coerce1)
          to label %invoke.cont16 unwind label %lpad.loopexit.split-lp

invoke.cont16:                                    ; preds = %for.end
  %capacity_.i.i.i.i.i10 = getelementptr inbounds %"class.absl::lts_20230802::container_internal::CommonFields", ptr %map, i64 0, i32 2
  %13 = load i64, ptr %capacity_.i.i.i.i.i10, align 8
  %tobool.not.i.i.i11 = icmp eq i64 %13, 0
  br i1 %tobool.not.i.i.i11, label %_ZN4absl12lts_2023080213flat_hash_mapISt17basic_string_viewIcSt11char_traitsIcEES5_NS0_18container_internal10StringHashENS6_8StringEqESaISt4pairIKS5_S5_EEED2Ev.exit14, label %invoke.cont13.i.i.i12

invoke.cont13.i.i.i12:                            ; preds = %invoke.cont16
  %14 = load ptr, ptr %map, align 8
  %add.ptr.i.i.i.i13 = getelementptr inbounds i8, ptr %14, i64 -8
  call void @_ZdlPv(ptr noundef nonnull %add.ptr.i.i.i.i13) #25
  br label %_ZN4absl12lts_2023080213flat_hash_mapISt17basic_string_viewIcSt11char_traitsIcEES5_NS0_18container_internal10StringHashENS6_8StringEqESaISt4pairIKS5_S5_EEED2Ev.exit14

_ZN4absl12lts_2023080213flat_hash_mapISt17basic_string_viewIcSt11char_traitsIcEES5_NS0_18container_internal10StringHashENS6_8StringEqESaISt4pairIKS5_S5_EEED2Ev.exit14: ; preds = %invoke.cont16, %invoke.cont13.i.i.i12
  ret void
}

declare void @_ZN4absl12lts_2023080210CHexEscapeB5cxx11ESt17basic_string_viewIcSt11char_traitsIcEE(ptr sret(%"class.std::__cxx11::basic_string") align 8, i64, ptr) local_unnamed_addr #0

; Function Attrs: mustprogress uwtable
define hidden noundef zeroext i1 @_ZN6google8protobuf8compiler4ruby12GenerateFileEPKNS0_14FileDescriptorEPNS0_2io7PrinterEPNSt7__cxx1112basic_stringIcSt11char_traitsIcESaIcEEE(ptr noundef %file, ptr noundef nonnull %printer, ptr nocapture readnone %error) local_unnamed_addr #3 personality ptr @__gxx_personality_v0 {
entry:
  %map.i.i = alloca %"class.absl::lts_20230802::flat_hash_map.77", align 8
  %map.i32 = alloca %"class.absl::lts_20230802::flat_hash_map.77", align 8
  %ref.tmp.i = alloca %"class.absl::lts_20230802::AlphaNum", align 8
  %ref.tmp2.i = alloca %"class.absl::lts_20230802::AlphaNum", align 8
  %map.i = alloca %"class.absl::lts_20230802::flat_hash_map.77", align 8
  %ref.tmp = alloca %"class.std::__cxx11::basic_string", align 8
  %name_.i = getelementptr inbounds %"class.google::protobuf::FileDescriptor", ptr %file, i64 0, i32 4
  %0 = load ptr, ptr %name_.i, align 8
  tail call void @_ZN6google8protobuf2io7Printer5PrintIJA9_cNSt7__cxx1112basic_stringIcSt11char_traitsIcESaIcEEEEEEvSt17basic_string_viewIcS8_EDpRKT_(ptr noundef nonnull align 8 dereferenceable(256) %printer, i64 111, ptr nonnull @.str.20, ptr noundef nonnull align 1 dereferenceable(9) @.str.21, ptr noundef nonnull align 8 dereferenceable(32) %0)
  call void @llvm.lifetime.start.p0(i64 32, ptr nonnull %map.i)
  store ptr getelementptr inbounds ([32 x i8], ptr @_ZN4absl12lts_2023080218container_internal11kEmptyGroupE, i64 0, i64 16), ptr %map.i, align 8
  %slots_.i.i.i.i.i.i.i.i = getelementptr inbounds %"class.absl::lts_20230802::container_internal::CommonFields", ptr %map.i, i64 0, i32 1
  call void @llvm.memset.p0.i64(ptr noundef nonnull align 8 dereferenceable(24) %slots_.i.i.i.i.i.i.i.i, i8 0, i64 24, i1 false)
  invoke void @_ZN6google8protobuf2io7Printer5PrintIN4absl12lts_2023080213flat_hash_mapISt17basic_string_viewIcSt11char_traitsIcEESA_NS5_18container_internal10StringHashENSB_8StringEqESaISt4pairIKSA_SA_EEEEEEvRKT_SA_(ptr noundef nonnull align 8 dereferenceable(256) %printer, ptr noundef nonnull align 8 dereferenceable(32) %map.i, i64 27, ptr nonnull @.str.22)
          to label %invoke.cont5.i unwind label %lpad.i

lpad.i:                                           ; preds = %entry
  %1 = landingpad { ptr, i32 }
          cleanup
  %capacity_.i.i.i.i.i.i = getelementptr inbounds %"class.absl::lts_20230802::container_internal::CommonFields", ptr %map.i, i64 0, i32 2
  %2 = load i64, ptr %capacity_.i.i.i.i.i.i, align 8
  %tobool.not.i.i.i.i = icmp eq i64 %2, 0
  br i1 %tobool.not.i.i.i.i, label %common.resume, label %invoke.cont13.i.i.i.i

invoke.cont13.i.i.i.i:                            ; preds = %lpad.i
  %3 = load ptr, ptr %map.i, align 8
  %add.ptr.i.i.i.i4.i = getelementptr inbounds i8, ptr %3, i64 -8
  call void @_ZdlPv(ptr noundef nonnull %add.ptr.i.i.i.i4.i) #25
  br label %common.resume

common.resume:                                    ; preds = %lpad.i.i, %invoke.cont13.i.i.i.i.i, %lpad.i34, %invoke.cont13.i.i.i.i37, %lpad.i, %invoke.cont13.i.i.i.i, %lpad
  %common.resume.op = phi { ptr, i32 } [ %13, %lpad ], [ %1, %invoke.cont13.i.i.i.i ], [ %1, %lpad.i ], [ %14, %invoke.cont13.i.i.i.i37 ], [ %14, %lpad.i34 ], [ %27, %invoke.cont13.i.i.i.i.i ], [ %27, %lpad.i.i ]
  resume { ptr, i32 } %common.resume.op

invoke.cont5.i:                                   ; preds = %entry
  %capacity_.i.i.i.i.i5.i = getelementptr inbounds %"class.absl::lts_20230802::container_internal::CommonFields", ptr %map.i, i64 0, i32 2
  %4 = load i64, ptr %capacity_.i.i.i.i.i5.i, align 8
  %tobool.not.i.i.i6.i = icmp eq i64 %4, 0
  br i1 %tobool.not.i.i.i6.i, label %_ZN6google8protobuf2io7Printer5PrintIJEEEvSt17basic_string_viewIcSt11char_traitsIcEEDpRKT_.exit, label %invoke.cont13.i.i.i7.i

invoke.cont13.i.i.i7.i:                           ; preds = %invoke.cont5.i
  %5 = load ptr, ptr %map.i, align 8
  %add.ptr.i.i.i.i8.i = getelementptr inbounds i8, ptr %5, i64 -8
  call void @_ZdlPv(ptr noundef nonnull %add.ptr.i.i.i.i8.i) #25
  br label %_ZN6google8protobuf2io7Printer5PrintIJEEEvSt17basic_string_viewIcSt11char_traitsIcEEDpRKT_.exit

_ZN6google8protobuf2io7Printer5PrintIJEEEvSt17basic_string_viewIcSt11char_traitsIcEEDpRKT_.exit: ; preds = %invoke.cont5.i, %invoke.cont13.i.i.i7.i
  call void @llvm.lifetime.end.p0(i64 32, ptr nonnull %map.i)
  %dependency_count_.i = getelementptr inbounds %"class.google::protobuf::FileDescriptor", ptr %file, i64 0, i32 9
  %6 = load i32, ptr %dependency_count_.i, align 8
  %cmp.not = icmp eq i32 %6, 0
  br i1 %cmp.not, label %if.end, label %for.cond.preheader

for.cond.preheader:                               ; preds = %_ZN6google8protobuf2io7Printer5PrintIJEEEvSt17basic_string_viewIcSt11char_traitsIcEEDpRKT_.exit
  %cmp452 = icmp sgt i32 %6, 0
  br i1 %cmp452, label %for.body.lr.ph, label %for.end

for.body.lr.ph:                                   ; preds = %for.cond.preheader
  %pc.sroa.2.0.piece_.sroa_idx.i.i = getelementptr inbounds i8, ptr %ref.tmp.i, i64 8
  %7 = getelementptr inbounds { i64, ptr }, ptr %ref.tmp2.i, i64 0, i32 1
  br label %for.body

for.body:                                         ; preds = %for.body.lr.ph, %invoke.cont
  %i.053 = phi i32 [ 0, %for.body.lr.ph ], [ %inc, %invoke.cont ]
  %call7 = call noundef ptr @_ZNK6google8protobuf14FileDescriptor10dependencyEi(ptr noundef nonnull align 8 dereferenceable(168) %file, i32 noundef %i.053)
  %name_.i29 = getelementptr inbounds %"class.google::protobuf::FileDescriptor", ptr %call7, i64 0, i32 4
  %8 = load ptr, ptr %name_.i29, align 8
  %call9 = call { i64, ptr } @_ZNKSt7__cxx1112basic_stringIcSt11char_traitsIcESaIcEEcvSt17basic_string_viewIcS2_EEv(ptr noundef nonnull align 8 dereferenceable(32) %8) #24
  %9 = extractvalue { i64, ptr } %call9, 0
  %10 = extractvalue { i64, ptr } %call9, 1
  call void @llvm.lifetime.start.p0(i64 48, ptr nonnull %ref.tmp.i)
  call void @llvm.lifetime.start.p0(i64 48, ptr nonnull %ref.tmp2.i)
  %cmp.not.i.i.i = icmp eq i64 %9, 0
  br i1 %cmp.not.i.i.i, label %_ZN6google8protobuf8compiler4ruby14GetRequireNameB5cxx11ESt17basic_string_viewIcSt11char_traitsIcEE.exit, label %for.cond.i.i.i

for.cond.i.i.i:                                   ; preds = %for.body, %for.body.i.i.i
  %__size.1.i.i.i = phi i64 [ %dec4.i.i.i, %for.body.i.i.i ], [ %9, %for.body ]
  %cmp5.not.i.i.i = icmp eq i64 %__size.1.i.i.i, 0
  br i1 %cmp5.not.i.i.i, label %_ZN6google8protobuf8compiler4ruby14GetRequireNameB5cxx11ESt17basic_string_viewIcSt11char_traitsIcEE.exit, label %for.body.i.i.i

for.body.i.i.i:                                   ; preds = %for.cond.i.i.i
  %dec4.i.i.i = add i64 %__size.1.i.i.i, -1
  %arrayidx.i.i.i = getelementptr inbounds i8, ptr %10, i64 %dec4.i.i.i
  %11 = load i8, ptr %arrayidx.i.i.i, align 1, !noalias !76
  %cmp.i.i.i.i = icmp eq i8 %11, 46
  br i1 %cmp.i.i.i.i, label %_ZN6google8protobuf8compiler4ruby14GetRequireNameB5cxx11ESt17basic_string_viewIcSt11char_traitsIcEE.exit, label %for.cond.i.i.i, !llvm.loop !4

_ZN6google8protobuf8compiler4ruby14GetRequireNameB5cxx11ESt17basic_string_viewIcSt11char_traitsIcEE.exit: ; preds = %for.cond.i.i.i, %for.body.i.i.i, %for.body
  %retval.0.i.i.i = phi i64 [ -1, %for.body ], [ %dec4.i.i.i, %for.body.i.i.i ], [ -1, %for.cond.i.i.i ]
  %.sroa.speculated.i.i = call i64 @llvm.umin.i64(i64 %9, i64 %retval.0.i.i.i)
  store i64 %.sroa.speculated.i.i, ptr %ref.tmp.i, align 8, !noalias !76
  store ptr %10, ptr %pc.sroa.2.0.piece_.sroa_idx.i.i, align 8, !noalias !76
  store i64 3, ptr %ref.tmp2.i, align 8, !noalias !76
  store ptr @.str, ptr %7, align 8, !noalias !76
  call void @_ZN4absl12lts_202308026StrCatB5cxx11ERKNS0_8AlphaNumES3_(ptr nonnull sret(%"class.std::__cxx11::basic_string") align 8 %ref.tmp, ptr noundef nonnull align 8 dereferenceable(48) %ref.tmp.i, ptr noundef nonnull align 8 dereferenceable(48) %ref.tmp2.i)
  call void @llvm.lifetime.end.p0(i64 48, ptr nonnull %ref.tmp.i)
  call void @llvm.lifetime.end.p0(i64 48, ptr nonnull %ref.tmp2.i)
  invoke void @_ZN6google8protobuf2io7Printer5PrintIJA5_cNSt7__cxx1112basic_stringIcSt11char_traitsIcESaIcEEEEEEvSt17basic_string_viewIcS8_EDpRKT_(ptr noundef nonnull align 8 dereferenceable(256) %printer, i64 17, ptr nonnull @.str.23, ptr noundef nonnull align 1 dereferenceable(5) @.str.5, ptr noundef nonnull align 8 dereferenceable(32) %ref.tmp)
          to label %invoke.cont unwind label %lpad

invoke.cont:                                      ; preds = %_ZN6google8protobuf8compiler4ruby14GetRequireNameB5cxx11ESt17basic_string_viewIcSt11char_traitsIcEE.exit
  call void @_ZNSt7__cxx1112basic_stringIcSt11char_traitsIcESaIcEED1Ev(ptr noundef nonnull align 8 dereferenceable(32) %ref.tmp) #24
  %inc = add nuw nsw i32 %i.053, 1
  %12 = load i32, ptr %dependency_count_.i, align 8
  %cmp4 = icmp slt i32 %inc, %12
  br i1 %cmp4, label %for.body, label %for.end, !llvm.loop !79

lpad:                                             ; preds = %_ZN6google8protobuf8compiler4ruby14GetRequireNameB5cxx11ESt17basic_string_viewIcSt11char_traitsIcEE.exit
  %13 = landingpad { ptr, i32 }
          cleanup
  call void @_ZNSt7__cxx1112basic_stringIcSt11char_traitsIcESaIcEED1Ev(ptr noundef nonnull align 8 dereferenceable(32) %ref.tmp) #24
  br label %common.resume

for.end:                                          ; preds = %invoke.cont, %for.cond.preheader
  call void @llvm.lifetime.start.p0(i64 32, ptr nonnull %map.i32)
  store ptr getelementptr inbounds ([32 x i8], ptr @_ZN4absl12lts_2023080218container_internal11kEmptyGroupE, i64 0, i64 16), ptr %map.i32, align 8
  %slots_.i.i.i.i.i.i.i.i33 = getelementptr inbounds %"class.absl::lts_20230802::container_internal::CommonFields", ptr %map.i32, i64 0, i32 1
  call void @llvm.memset.p0.i64(ptr noundef nonnull align 8 dereferenceable(24) %slots_.i.i.i.i.i.i.i.i33, i8 0, i64 24, i1 false)
  invoke void @_ZN6google8protobuf2io7Printer5PrintIN4absl12lts_2023080213flat_hash_mapISt17basic_string_viewIcSt11char_traitsIcEESA_NS5_18container_internal10StringHashENSB_8StringEqESaISt4pairIKSA_SA_EEEEEEvRKT_SA_(ptr noundef nonnull align 8 dereferenceable(256) %printer, ptr noundef nonnull align 8 dereferenceable(32) %map.i32, i64 1, ptr nonnull @.str.24)
          to label %invoke.cont5.i40 unwind label %lpad.i34

lpad.i34:                                         ; preds = %for.end
  %14 = landingpad { ptr, i32 }
          cleanup
  %capacity_.i.i.i.i.i.i35 = getelementptr inbounds %"class.absl::lts_20230802::container_internal::CommonFields", ptr %map.i32, i64 0, i32 2
  %15 = load i64, ptr %capacity_.i.i.i.i.i.i35, align 8
  %tobool.not.i.i.i.i36 = icmp eq i64 %15, 0
  br i1 %tobool.not.i.i.i.i36, label %common.resume, label %invoke.cont13.i.i.i.i37

invoke.cont13.i.i.i.i37:                          ; preds = %lpad.i34
  %16 = load ptr, ptr %map.i32, align 8
  %add.ptr.i.i.i.i4.i38 = getelementptr inbounds i8, ptr %16, i64 -8
  call void @_ZdlPv(ptr noundef nonnull %add.ptr.i.i.i.i4.i38) #25
  br label %common.resume

invoke.cont5.i40:                                 ; preds = %for.end
  %capacity_.i.i.i.i.i5.i41 = getelementptr inbounds %"class.absl::lts_20230802::container_internal::CommonFields", ptr %map.i32, i64 0, i32 2
  %17 = load i64, ptr %capacity_.i.i.i.i.i5.i41, align 8
  %tobool.not.i.i.i6.i42 = icmp eq i64 %17, 0
  br i1 %tobool.not.i.i.i6.i42, label %_ZN6google8protobuf2io7Printer5PrintIJEEEvSt17basic_string_viewIcSt11char_traitsIcEEDpRKT_.exit45, label %invoke.cont13.i.i.i7.i43

invoke.cont13.i.i.i7.i43:                         ; preds = %invoke.cont5.i40
  %18 = load ptr, ptr %map.i32, align 8
  %add.ptr.i.i.i.i8.i44 = getelementptr inbounds i8, ptr %18, i64 -8
  call void @_ZdlPv(ptr noundef nonnull %add.ptr.i.i.i.i8.i44) #25
  br label %_ZN6google8protobuf2io7Printer5PrintIJEEEvSt17basic_string_viewIcSt11char_traitsIcEEDpRKT_.exit45

_ZN6google8protobuf2io7Printer5PrintIJEEEvSt17basic_string_viewIcSt11char_traitsIcEEDpRKT_.exit45: ; preds = %invoke.cont5.i40, %invoke.cont13.i.i.i7.i43
  call void @llvm.lifetime.end.p0(i64 32, ptr nonnull %map.i32)
  br label %if.end

if.end:                                           ; preds = %_ZN6google8protobuf2io7Printer5PrintIJEEEvSt17basic_string_viewIcSt11char_traitsIcEEDpRKT_.exit45, %_ZN6google8protobuf2io7Printer5PrintIJEEEvSt17basic_string_viewIcSt11char_traitsIcEEDpRKT_.exit
  call void @_ZN6google8protobuf8compiler4ruby24GenerateBinaryDescriptorEPKNS0_14FileDescriptorEPNS0_2io7PrinterEPNSt7__cxx1112basic_stringIcSt11char_traitsIcESaIcEEE(ptr noundef nonnull %file, ptr noundef nonnull %printer, ptr poison)
  %call11 = call noundef i32 @_ZN6google8protobuf8compiler4ruby22GeneratePackageModulesEPKNS0_14FileDescriptorEPNS0_2io7PrinterE(ptr noundef nonnull %file, ptr noundef nonnull %printer)
  %message_type_count_.i = getelementptr inbounds %"class.google::protobuf::FileDescriptor", ptr %file, i64 0, i32 12
  %19 = load i32, ptr %message_type_count_.i, align 4
  %cmp1554 = icmp sgt i32 %19, 0
  br i1 %cmp1554, label %for.body16.lr.ph, label %for.cond23.preheader

for.body16.lr.ph:                                 ; preds = %if.end
  %message_types_.i = getelementptr inbounds %"class.google::protobuf::FileDescriptor", ptr %file, i64 0, i32 18
  br label %for.body16

for.cond23.preheader:                             ; preds = %for.body16, %if.end
  %enum_type_count_.i = getelementptr inbounds %"class.google::protobuf::FileDescriptor", ptr %file, i64 0, i32 13
  %20 = load i32, ptr %enum_type_count_.i, align 8
  %cmp2556 = icmp sgt i32 %20, 0
  br i1 %cmp2556, label %for.body26.lr.ph, label %for.end31

for.body26.lr.ph:                                 ; preds = %for.cond23.preheader
  %enum_types_.i = getelementptr inbounds %"class.google::protobuf::FileDescriptor", ptr %file, i64 0, i32 19
  br label %for.body26

for.body16:                                       ; preds = %for.body16.lr.ph, %for.body16
  %indvars.iv = phi i64 [ 0, %for.body16.lr.ph ], [ %indvars.iv.next, %for.body16 ]
  %21 = load ptr, ptr %message_types_.i, align 8
  %add.ptr.i = getelementptr inbounds %"class.google::protobuf::Descriptor", ptr %21, i64 %indvars.iv
  call void @_ZN6google8protobuf8compiler4ruby25GenerateMessageAssignmentESt17basic_string_viewIcSt11char_traitsIcEEPKNS0_10DescriptorEPNS0_2io7PrinterE(i64 0, ptr nonnull @.str.14, ptr noundef %add.ptr.i, ptr noundef nonnull %printer)
  %indvars.iv.next = add nuw nsw i64 %indvars.iv, 1
  %22 = load i32, ptr %message_type_count_.i, align 4
  %23 = sext i32 %22 to i64
  %cmp15 = icmp slt i64 %indvars.iv.next, %23
  br i1 %cmp15, label %for.body16, label %for.cond23.preheader, !llvm.loop !80

for.body26:                                       ; preds = %for.body26.lr.ph, %for.body26
  %indvars.iv59 = phi i64 [ 0, %for.body26.lr.ph ], [ %indvars.iv.next60, %for.body26 ]
  %24 = load ptr, ptr %enum_types_.i, align 8
  %add.ptr.i51 = getelementptr inbounds %"class.google::protobuf::EnumDescriptor", ptr %24, i64 %indvars.iv59
  call void @_ZN6google8protobuf8compiler4ruby22GenerateEnumAssignmentESt17basic_string_viewIcSt11char_traitsIcEEPKNS0_14EnumDescriptorEPNS0_2io7PrinterE(i64 0, ptr nonnull @.str.14, ptr noundef %add.ptr.i51, ptr noundef nonnull %printer)
  %indvars.iv.next60 = add nuw nsw i64 %indvars.iv59, 1
  %25 = load i32, ptr %enum_type_count_.i, align 8
  %26 = sext i32 %25 to i64
  %cmp25 = icmp slt i64 %indvars.iv.next60, %26
  br i1 %cmp25, label %for.body26, label %for.end31, !llvm.loop !81

for.end31:                                        ; preds = %for.body26, %for.cond23.preheader
  %cmp3.i = icmp sgt i32 %call11, 0
  br i1 %cmp3.i, label %while.body.lr.ph.i, label %_ZN6google8protobuf8compiler4ruby17EndPackageModulesEiPNS0_2io7PrinterE.exit

while.body.lr.ph.i:                               ; preds = %for.end31
  %slots_.i.i.i.i.i.i.i.i.i = getelementptr inbounds %"class.absl::lts_20230802::container_internal::CommonFields", ptr %map.i.i, i64 0, i32 1
  %capacity_.i.i.i.i.i5.i.i = getelementptr inbounds %"class.absl::lts_20230802::container_internal::CommonFields", ptr %map.i.i, i64 0, i32 2
  br label %while.body.i

while.body.i:                                     ; preds = %_ZN6google8protobuf2io7Printer5PrintIJEEEvSt17basic_string_viewIcSt11char_traitsIcEEDpRKT_.exit.i, %while.body.lr.ph.i
  %levels.addr.04.i = phi i32 [ %call11, %while.body.lr.ph.i ], [ %dec.i, %_ZN6google8protobuf2io7Printer5PrintIJEEEvSt17basic_string_viewIcSt11char_traitsIcEEDpRKT_.exit.i ]
  %dec.i = add nsw i32 %levels.addr.04.i, -1
  call void @_ZN6google8protobuf2io7Printer7OutdentEv(ptr noundef nonnull align 8 dereferenceable(256) %printer)
  call void @llvm.lifetime.start.p0(i64 32, ptr nonnull %map.i.i)
  store ptr getelementptr inbounds ([32 x i8], ptr @_ZN4absl12lts_2023080218container_internal11kEmptyGroupE, i64 0, i64 16), ptr %map.i.i, align 8
  call void @llvm.memset.p0.i64(ptr noundef nonnull align 8 dereferenceable(24) %slots_.i.i.i.i.i.i.i.i.i, i8 0, i64 24, i1 false)
  invoke void @_ZN6google8protobuf2io7Printer5PrintIN4absl12lts_2023080213flat_hash_mapISt17basic_string_viewIcSt11char_traitsIcEESA_NS5_18container_internal10StringHashENSB_8StringEqESaISt4pairIKSA_SA_EEEEEEvRKT_SA_(ptr noundef nonnull align 8 dereferenceable(256) %printer, ptr noundef nonnull align 8 dereferenceable(32) %map.i.i, i64 4, ptr nonnull @.str.16)
          to label %invoke.cont5.i.i unwind label %lpad.i.i

lpad.i.i:                                         ; preds = %while.body.i
  %27 = landingpad { ptr, i32 }
          cleanup
  %28 = load i64, ptr %capacity_.i.i.i.i.i5.i.i, align 8
  %tobool.not.i.i.i.i.i = icmp eq i64 %28, 0
  br i1 %tobool.not.i.i.i.i.i, label %common.resume, label %invoke.cont13.i.i.i.i.i

invoke.cont13.i.i.i.i.i:                          ; preds = %lpad.i.i
  %29 = load ptr, ptr %map.i.i, align 8
  %add.ptr.i.i.i.i4.i.i = getelementptr inbounds i8, ptr %29, i64 -8
  call void @_ZdlPv(ptr noundef nonnull %add.ptr.i.i.i.i4.i.i) #25
  br label %common.resume

invoke.cont5.i.i:                                 ; preds = %while.body.i
  %30 = load i64, ptr %capacity_.i.i.i.i.i5.i.i, align 8
  %tobool.not.i.i.i6.i.i = icmp eq i64 %30, 0
  br i1 %tobool.not.i.i.i6.i.i, label %_ZN6google8protobuf2io7Printer5PrintIJEEEvSt17basic_string_viewIcSt11char_traitsIcEEDpRKT_.exit.i, label %invoke.cont13.i.i.i7.i.i

invoke.cont13.i.i.i7.i.i:                         ; preds = %invoke.cont5.i.i
  %31 = load ptr, ptr %map.i.i, align 8
  %add.ptr.i.i.i.i8.i.i = getelementptr inbounds i8, ptr %31, i64 -8
  call void @_ZdlPv(ptr noundef nonnull %add.ptr.i.i.i.i8.i.i) #25
  br label %_ZN6google8protobuf2io7Printer5PrintIJEEEvSt17basic_string_viewIcSt11char_traitsIcEEDpRKT_.exit.i

_ZN6google8protobuf2io7Printer5PrintIJEEEvSt17basic_string_viewIcSt11char_traitsIcEEDpRKT_.exit.i: ; preds = %invoke.cont13.i.i.i7.i.i, %invoke.cont5.i.i
  call void @llvm.lifetime.end.p0(i64 32, ptr nonnull %map.i.i)
  %cmp.i = icmp ugt i32 %levels.addr.04.i, 1
  br i1 %cmp.i, label %while.body.i, label %_ZN6google8protobuf8compiler4ruby17EndPackageModulesEiPNS0_2io7PrinterE.exit, !llvm.loop !56

_ZN6google8protobuf8compiler4ruby17EndPackageModulesEiPNS0_2io7PrinterE.exit: ; preds = %_ZN6google8protobuf2io7Printer5PrintIJEEEvSt17basic_string_viewIcSt11char_traitsIcEEDpRKT_.exit.i, %for.end31
  ret i1 true
}

; Function Attrs: mustprogress uwtable
define linkonce_odr hidden void @_ZN6google8protobuf2io7Printer5PrintIJA9_cNSt7__cxx1112basic_stringIcSt11char_traitsIcESaIcEEEEEEvSt17basic_string_viewIcS8_EDpRKT_(ptr noundef nonnull align 8 dereferenceable(256) %this, i64 %text.coerce0, ptr %text.coerce1, ptr noundef nonnull align 1 dereferenceable(9) %args, ptr noundef nonnull align 8 dereferenceable(32) %args1) local_unnamed_addr #3 comdat align 2 personality ptr @__gxx_personality_v0 {
entry:
  %vars = alloca [3 x %"class.std::basic_string_view"], align 16
  %map = alloca %"class.absl::lts_20230802::flat_hash_map.77", align 8
  %call.i.i = tail call noundef i64 @strlen(ptr noundef nonnull dereferenceable(1) %args) #24
  store i64 %call.i.i, ptr %vars, align 16
  %_M_str.i = getelementptr inbounds %"class.std::basic_string_view", ptr %vars, i64 0, i32 1
  store ptr %args, ptr %_M_str.i, align 8
  %arrayinit.element = getelementptr inbounds %"class.std::basic_string_view", ptr %vars, i64 1
  %call = tail call { i64, ptr } @_ZNKSt7__cxx1112basic_stringIcSt11char_traitsIcESaIcEEcvSt17basic_string_viewIcS2_EEv(ptr noundef nonnull align 8 dereferenceable(32) %args1) #24
  %0 = extractvalue { i64, ptr } %call, 0
  store i64 %0, ptr %arrayinit.element, align 16
  %1 = getelementptr inbounds %"class.std::basic_string_view", ptr %vars, i64 1, i32 1
  %2 = extractvalue { i64, ptr } %call, 1
  store ptr %2, ptr %1, align 8
  %arrayinit.element4 = getelementptr inbounds %"class.std::basic_string_view", ptr %vars, i64 2
  store i64 0, ptr %arrayinit.element4, align 16
  %_M_str.i5 = getelementptr inbounds %"class.std::basic_string_view", ptr %vars, i64 2, i32 1
  store ptr @.str.14, ptr %_M_str.i5, align 8
  store ptr getelementptr inbounds ([32 x i8], ptr @_ZN4absl12lts_2023080218container_internal11kEmptyGroupE, i64 0, i64 16), ptr %map, align 8
  %slots_.i.i.i.i.i.i.i = getelementptr inbounds %"class.absl::lts_20230802::container_internal::CommonFields", ptr %map, i64 0, i32 1
  call void @llvm.memset.p0.i64(ptr noundef nonnull align 8 dereferenceable(24) %slots_.i.i.i.i.i.i.i, i8 0, i64 24, i1 false)
  %3 = load i64, ptr getelementptr inbounds ([32 x i8], ptr @_ZN4absl12lts_2023080218container_internal11kEmptyGroupE, i64 0, i64 8), align 8
  %cmp.i = icmp eq i64 %3, 0
  br i1 %cmp.i, label %if.then.i, label %for.body

if.then.i:                                        ; preds = %entry
  invoke void @_ZN4absl12lts_2023080218container_internal12raw_hash_setINS1_17FlatHashMapPolicyISt17basic_string_viewIcSt11char_traitsIcEES7_EENS1_10StringHashENS1_8StringEqESaISt4pairIKS7_S7_EEE6resizeEm(ptr noundef nonnull align 8 dereferenceable(32) %map, i64 noundef 1)
          to label %for.body unwind label %lpad.loopexit.split-lp

for.body:                                         ; preds = %entry, %if.then.i
  %call.i.i.i.i.i.i6 = invoke { i64, i8 } @_ZN4absl12lts_2023080218container_internal12raw_hash_setINS1_17FlatHashMapPolicyISt17basic_string_viewIcSt11char_traitsIcEES7_EENS1_10StringHashENS1_8StringEqESaISt4pairIKS7_S7_EEE22find_or_prepare_insertIS7_EESB_ImbERKT_(ptr noundef nonnull align 8 dereferenceable(32) %map, ptr noundef nonnull align 8 dereferenceable(16) %vars)
          to label %call.i.i.i.i.i.i.noexc unwind label %lpad.loopexit

call.i.i.i.i.i.i.noexc:                           ; preds = %for.body
  %4 = extractvalue { i64, i8 } %call.i.i.i.i.i.i6, 1
  %5 = and i8 %4, 1
  %tobool.not.i.i.i.i.i.i = icmp eq i8 %5, 0
  br i1 %tobool.not.i.i.i.i.i.i, label %for.end, label %if.then.i.i.i.i.i.i

if.then.i.i.i.i.i.i:                              ; preds = %call.i.i.i.i.i.i.noexc
  %6 = extractvalue { i64, i8 } %call.i.i.i.i.i.i6, 0
  %7 = load ptr, ptr %slots_.i.i.i.i.i.i.i, align 8, !noalias !82
  %add.ptr.i.i.i.i.i.i.i = getelementptr inbounds %"union.absl::lts_20230802::container_internal::map_slot_type.90", ptr %7, i64 %6
  call void @llvm.memcpy.p0.p0.i64(ptr noundef nonnull align 8 dereferenceable(16) %add.ptr.i.i.i.i.i.i.i, ptr noundef nonnull align 16 dereferenceable(16) %vars, i64 16, i1 false), !noalias !82
  %second.i.i.i.i.i.i.i.i.i.i.i.i.i.i = getelementptr inbounds %"struct.std::pair.93", ptr %add.ptr.i.i.i.i.i.i.i, i64 0, i32 1
  call void @llvm.memcpy.p0.p0.i64(ptr noundef nonnull align 8 dereferenceable(16) %second.i.i.i.i.i.i.i.i.i.i.i.i.i.i, ptr noundef nonnull align 16 dereferenceable(16) %arrayinit.element, i64 16, i1 false), !noalias !82
  br label %for.end

lpad.loopexit:                                    ; preds = %for.body
  %lpad.loopexit13 = landingpad { ptr, i32 }
          cleanup
  br label %lpad

lpad.loopexit.split-lp:                           ; preds = %for.end, %if.then.i
  %lpad.loopexit.split-lp14 = landingpad { ptr, i32 }
          cleanup
  br label %lpad

lpad:                                             ; preds = %lpad.loopexit.split-lp, %lpad.loopexit
  %lpad.phi = phi { ptr, i32 } [ %lpad.loopexit13, %lpad.loopexit ], [ %lpad.loopexit.split-lp14, %lpad.loopexit.split-lp ]
  %capacity_.i.i.i.i.i = getelementptr inbounds %"class.absl::lts_20230802::container_internal::CommonFields", ptr %map, i64 0, i32 2
  %8 = load i64, ptr %capacity_.i.i.i.i.i, align 8
  %tobool.not.i.i.i = icmp eq i64 %8, 0
  br i1 %tobool.not.i.i.i, label %_ZN4absl12lts_2023080213flat_hash_mapISt17basic_string_viewIcSt11char_traitsIcEES5_NS0_18container_internal10StringHashENS6_8StringEqESaISt4pairIKS5_S5_EEED2Ev.exit, label %invoke.cont13.i.i.i

invoke.cont13.i.i.i:                              ; preds = %lpad
  %9 = load ptr, ptr %map, align 8
  %add.ptr.i.i.i.i7 = getelementptr inbounds i8, ptr %9, i64 -8
  call void @_ZdlPv(ptr noundef nonnull %add.ptr.i.i.i.i7) #25
  br label %_ZN4absl12lts_2023080213flat_hash_mapISt17basic_string_viewIcSt11char_traitsIcEES5_NS0_18container_internal10StringHashENS6_8StringEqESaISt4pairIKS5_S5_EEED2Ev.exit

_ZN4absl12lts_2023080213flat_hash_mapISt17basic_string_viewIcSt11char_traitsIcEES5_NS0_18container_internal10StringHashENS6_8StringEqESaISt4pairIKS5_S5_EEED2Ev.exit: ; preds = %lpad, %invoke.cont13.i.i.i
  resume { ptr, i32 } %lpad.phi

for.end:                                          ; preds = %if.then.i.i.i.i.i.i, %call.i.i.i.i.i.i.noexc
  invoke void @_ZN6google8protobuf2io7Printer5PrintIN4absl12lts_2023080213flat_hash_mapISt17basic_string_viewIcSt11char_traitsIcEESA_NS5_18container_internal10StringHashENSB_8StringEqESaISt4pairIKSA_SA_EEEEEEvRKT_SA_(ptr noundef nonnull align 8 dereferenceable(256) %this, ptr noundef nonnull align 8 dereferenceable(32) %map, i64 %text.coerce0, ptr %text.coerce1)
          to label %invoke.cont8 unwind label %lpad.loopexit.split-lp

invoke.cont8:                                     ; preds = %for.end
  %capacity_.i.i.i.i.i8 = getelementptr inbounds %"class.absl::lts_20230802::container_internal::CommonFields", ptr %map, i64 0, i32 2
  %10 = load i64, ptr %capacity_.i.i.i.i.i8, align 8
  %tobool.not.i.i.i9 = icmp eq i64 %10, 0
  br i1 %tobool.not.i.i.i9, label %_ZN4absl12lts_2023080213flat_hash_mapISt17basic_string_viewIcSt11char_traitsIcEES5_NS0_18container_internal10StringHashENS6_8StringEqESaISt4pairIKS5_S5_EEED2Ev.exit12, label %invoke.cont13.i.i.i10

invoke.cont13.i.i.i10:                            ; preds = %invoke.cont8
  %11 = load ptr, ptr %map, align 8
  %add.ptr.i.i.i.i11 = getelementptr inbounds i8, ptr %11, i64 -8
  call void @_ZdlPv(ptr noundef nonnull %add.ptr.i.i.i.i11) #25
  br label %_ZN4absl12lts_2023080213flat_hash_mapISt17basic_string_viewIcSt11char_traitsIcEES5_NS0_18container_internal10StringHashENS6_8StringEqESaISt4pairIKS5_S5_EEED2Ev.exit12

_ZN4absl12lts_2023080213flat_hash_mapISt17basic_string_viewIcSt11char_traitsIcEES5_NS0_18container_internal10StringHashENS6_8StringEqESaISt4pairIKS5_S5_EEED2Ev.exit12: ; preds = %invoke.cont8, %invoke.cont13.i.i.i10
  ret void
}

declare noundef ptr @_ZNK6google8protobuf14FileDescriptor10dependencyEi(ptr noundef nonnull align 8 dereferenceable(168), i32 noundef) local_unnamed_addr #0

; Function Attrs: mustprogress uwtable
define noundef zeroext i1 @_ZNK6google8protobuf8compiler4ruby9Generator8GenerateEPKNS0_14FileDescriptorERKNSt7__cxx1112basic_stringIcSt11char_traitsIcESaIcEEEPNS1_16GeneratorContextEPSC_(ptr nocapture nonnull readnone align 8 %this, ptr noundef %file, ptr nocapture nonnull readnone align 8 %parameter, ptr noundef %generator_context, ptr nocapture readnone %error) unnamed_addr #3 align 2 personality ptr @__gxx_personality_v0 {
entry:
  %ref.tmp = alloca %"class.std::__cxx11::basic_string", align 8
  %printer = alloca %"class.google::protobuf::io::Printer", align 8
  %name_.i = getelementptr inbounds %"class.google::protobuf::FileDescriptor", ptr %file, i64 0, i32 4
  %0 = load ptr, ptr %name_.i, align 8
  %call2 = tail call { i64, ptr } @_ZNKSt7__cxx1112basic_stringIcSt11char_traitsIcESaIcEEcvSt17basic_string_viewIcS2_EEv(ptr noundef nonnull align 8 dereferenceable(32) %0) #24
  %1 = extractvalue { i64, ptr } %call2, 0
  %2 = extractvalue { i64, ptr } %call2, 1
  call void @_ZN6google8protobuf8compiler4ruby17GetOutputFilenameB5cxx11ESt17basic_string_viewIcSt11char_traitsIcEE(ptr nonnull sret(%"class.std::__cxx11::basic_string") align 8 %ref.tmp, i64 %1, ptr %2)
  %vtable = load ptr, ptr %generator_context, align 8
  %vfn = getelementptr inbounds ptr, ptr %vtable, i64 2
  %3 = load ptr, ptr %vfn, align 8
  %call3 = invoke noundef ptr %3(ptr noundef nonnull align 8 dereferenceable(8) %generator_context, ptr noundef nonnull align 8 dereferenceable(32) %ref.tmp)
          to label %invoke.cont unwind label %lpad

invoke.cont:                                      ; preds = %entry
  call void @_ZNSt7__cxx1112basic_stringIcSt11char_traitsIcESaIcEED1Ev(ptr noundef nonnull align 8 dereferenceable(32) %ref.tmp) #24
  invoke void @_ZN6google8protobuf2io7PrinterC1EPNS1_20ZeroCopyOutputStreamEcPNS1_19AnnotationCollectorE(ptr noundef nonnull align 8 dereferenceable(256) %printer, ptr noundef %call3, i8 noundef signext 36, ptr noundef null)
          to label %invoke.cont6 unwind label %lpad5

invoke.cont6:                                     ; preds = %invoke.cont
  %call9 = invoke noundef zeroext i1 @_ZN6google8protobuf8compiler4ruby12GenerateFileEPKNS0_14FileDescriptorEPNS0_2io7PrinterEPNSt7__cxx1112basic_stringIcSt11char_traitsIcESaIcEEE(ptr noundef nonnull %file, ptr noundef nonnull %printer, ptr poison)
          to label %invoke.cont8 unwind label %lpad7

invoke.cont8:                                     ; preds = %invoke.cont6
  call void @_ZN6google8protobuf2io7PrinterD2Ev(ptr noundef nonnull align 8 dereferenceable(256) %printer) #24
  %cmp.not.i = icmp eq ptr %call3, null
  br i1 %cmp.not.i, label %_ZNSt10unique_ptrIN6google8protobuf2io20ZeroCopyOutputStreamESt14default_deleteIS3_EED2Ev.exit, label %_ZNKSt14default_deleteIN6google8protobuf2io20ZeroCopyOutputStreamEEclEPS3_.exit.i

_ZNKSt14default_deleteIN6google8protobuf2io20ZeroCopyOutputStreamEEclEPS3_.exit.i: ; preds = %invoke.cont8
  %vtable.i.i = load ptr, ptr %call3, align 8
  %vfn.i.i = getelementptr inbounds ptr, ptr %vtable.i.i, i64 1
  %4 = load ptr, ptr %vfn.i.i, align 8
  call void %4(ptr noundef nonnull align 8 dereferenceable(8) %call3) #24
  br label %_ZNSt10unique_ptrIN6google8protobuf2io20ZeroCopyOutputStreamESt14default_deleteIS3_EED2Ev.exit

_ZNSt10unique_ptrIN6google8protobuf2io20ZeroCopyOutputStreamESt14default_deleteIS3_EED2Ev.exit: ; preds = %invoke.cont8, %_ZNKSt14default_deleteIN6google8protobuf2io20ZeroCopyOutputStreamEEclEPS3_.exit.i
  ret i1 true

lpad:                                             ; preds = %entry
  %5 = landingpad { ptr, i32 }
          cleanup
  call void @_ZNSt7__cxx1112basic_stringIcSt11char_traitsIcESaIcEED1Ev(ptr noundef nonnull align 8 dereferenceable(32) %ref.tmp) #24
  br label %eh.resume

lpad5:                                            ; preds = %invoke.cont
  %6 = landingpad { ptr, i32 }
          cleanup
  br label %ehcleanup

lpad7:                                            ; preds = %invoke.cont6
  %7 = landingpad { ptr, i32 }
          cleanup
  call void @_ZN6google8protobuf2io7PrinterD2Ev(ptr noundef nonnull align 8 dereferenceable(256) %printer) #24
  br label %ehcleanup

ehcleanup:                                        ; preds = %lpad7, %lpad5
  %.pn = phi { ptr, i32 } [ %7, %lpad7 ], [ %6, %lpad5 ]
  %cmp.not.i4 = icmp eq ptr %call3, null
  br i1 %cmp.not.i4, label %eh.resume, label %_ZNKSt14default_deleteIN6google8protobuf2io20ZeroCopyOutputStreamEEclEPS3_.exit.i5

_ZNKSt14default_deleteIN6google8protobuf2io20ZeroCopyOutputStreamEEclEPS3_.exit.i5: ; preds = %ehcleanup
  %vtable.i.i6 = load ptr, ptr %call3, align 8
  %vfn.i.i7 = getelementptr inbounds ptr, ptr %vtable.i.i6, i64 1
  %8 = load ptr, ptr %vfn.i.i7, align 8
  call void %8(ptr noundef nonnull align 8 dereferenceable(8) %call3) #24
  br label %eh.resume

eh.resume:                                        ; preds = %_ZNKSt14default_deleteIN6google8protobuf2io20ZeroCopyOutputStreamEEclEPS3_.exit.i5, %ehcleanup, %lpad
  %.pn.pn = phi { ptr, i32 } [ %5, %lpad ], [ %.pn, %ehcleanup ], [ %.pn, %_ZNKSt14default_deleteIN6google8protobuf2io20ZeroCopyOutputStreamEEclEPS3_.exit.i5 ]
  resume { ptr, i32 } %.pn.pn
}

declare void @_ZN6google8protobuf2io7PrinterC1EPNS1_20ZeroCopyOutputStreamEcPNS1_19AnnotationCollectorE(ptr noundef nonnull align 8 dereferenceable(256), ptr noundef, i8 noundef signext, ptr noundef) unnamed_addr #0

; Function Attrs: mustprogress nounwind uwtable
define linkonce_odr hidden void @_ZN6google8protobuf2io7PrinterD2Ev(ptr noundef nonnull align 8 dereferenceable(256) %this) unnamed_addr #8 comdat align 2 personality ptr @__gxx_personality_v0 {
entry:
  %line_start_variables_ = getelementptr inbounds %"class.google::protobuf::io::Printer", ptr %this, i64 0, i32 10
  %0 = load ptr, ptr %line_start_variables_, align 8
  %_M_finish.i = getelementptr inbounds %"class.google::protobuf::io::Printer", ptr %this, i64 0, i32 10, i32 0, i32 0, i32 0, i32 1
  %1 = load ptr, ptr %_M_finish.i, align 8
  %cmp.not3.i.i.i.i = icmp eq ptr %0, %1
  br i1 %cmp.not3.i.i.i.i, label %invoke.cont.i, label %for.body.i.i.i.i

for.body.i.i.i.i:                                 ; preds = %entry, %for.body.i.i.i.i
  %__first.addr.04.i.i.i.i = phi ptr [ %incdec.ptr.i.i.i.i, %for.body.i.i.i.i ], [ %0, %entry ]
  tail call void @_ZNSt7__cxx1112basic_stringIcSt11char_traitsIcESaIcEED1Ev(ptr noundef nonnull align 8 dereferenceable(32) %__first.addr.04.i.i.i.i) #24
  %incdec.ptr.i.i.i.i = getelementptr inbounds %"class.std::__cxx11::basic_string", ptr %__first.addr.04.i.i.i.i, i64 1
  %cmp.not.i.i.i.i = icmp eq ptr %incdec.ptr.i.i.i.i, %1
  br i1 %cmp.not.i.i.i.i, label %invoke.contthread-pre-split.i, label %for.body.i.i.i.i, !llvm.loop !95

invoke.contthread-pre-split.i:                    ; preds = %for.body.i.i.i.i
  %.pr.i = load ptr, ptr %line_start_variables_, align 8
  br label %invoke.cont.i

invoke.cont.i:                                    ; preds = %invoke.contthread-pre-split.i, %entry
  %2 = phi ptr [ %.pr.i, %invoke.contthread-pre-split.i ], [ %0, %entry ]
  %tobool.not.i.i.i = icmp eq ptr %2, null
  br i1 %tobool.not.i.i.i, label %_ZNSt6vectorINSt7__cxx1112basic_stringIcSt11char_traitsIcESaIcEEESaIS5_EED2Ev.exit, label %if.then.i.i.i

if.then.i.i.i:                                    ; preds = %invoke.cont.i
  tail call void @_ZdlPv(ptr noundef nonnull %2) #25
  br label %_ZNSt6vectorINSt7__cxx1112basic_stringIcSt11char_traitsIcESaIcEEESaIS5_EED2Ev.exit

_ZNSt6vectorINSt7__cxx1112basic_stringIcSt11char_traitsIcESaIcEEESaIS5_EED2Ev.exit: ; preds = %invoke.cont.i, %if.then.i.i.i
  %substitutions_ = getelementptr inbounds %"class.google::protobuf::io::Printer", ptr %this, i64 0, i32 9
  %capacity_.i.i.i.i.i = getelementptr inbounds %"class.google::protobuf::io::Printer", ptr %this, i64 0, i32 9, i32 0, i32 0, i32 0, i32 0, i32 0, i32 0, i32 2
  %3 = load i64, ptr %capacity_.i.i.i.i.i, align 8
  %tobool.not.i.i.i1 = icmp eq i64 %3, 0
  br i1 %tobool.not.i.i.i1, label %_ZN4absl12lts_2023080213flat_hash_mapINSt7__cxx1112basic_stringIcSt11char_traitsIcESaIcEEESt4pairImmENS0_18container_internal10StringHashENSA_8StringEqESaIS8_IKS7_S9_EEED2Ev.exit, label %if.end.i.i.i

if.end.i.i.i:                                     ; preds = %_ZNSt6vectorINSt7__cxx1112basic_stringIcSt11char_traitsIcESaIcEEESaIS5_EED2Ev.exit
  %4 = load ptr, ptr %substitutions_, align 8
  %slots_.i.i.i.i.i.i = getelementptr inbounds %"class.google::protobuf::io::Printer", ptr %this, i64 0, i32 9, i32 0, i32 0, i32 0, i32 0, i32 0, i32 0, i32 1
  %5 = load ptr, ptr %slots_.i.i.i.i.i.i, align 8
  br label %for.body.i.i.i.i2

for.body.i.i.i.i2:                                ; preds = %for.inc.i.i.i.i, %if.end.i.i.i
  %i.05.i.i.i.i = phi i64 [ %inc.i.i.i.i, %for.inc.i.i.i.i ], [ 0, %if.end.i.i.i ]
  %arrayidx.i.i.i.i = getelementptr inbounds i8, ptr %4, i64 %i.05.i.i.i.i
  %6 = load i8, ptr %arrayidx.i.i.i.i, align 1
  %cmp.i.i.i.i.i = icmp sgt i8 %6, -1
  br i1 %cmp.i.i.i.i.i, label %if.then.i.i.i.i, label %for.inc.i.i.i.i

if.then.i.i.i.i:                                  ; preds = %for.body.i.i.i.i2
  %add.ptr.i.i.i.i = getelementptr inbounds %"union.absl::lts_20230802::container_internal::map_slot_type", ptr %5, i64 %i.05.i.i.i.i
  tail call void @_ZNSt7__cxx1112basic_stringIcSt11char_traitsIcESaIcEED1Ev(ptr noundef nonnull align 8 dereferenceable(32) %add.ptr.i.i.i.i) #24
  br label %for.inc.i.i.i.i

for.inc.i.i.i.i:                                  ; preds = %if.then.i.i.i.i, %for.body.i.i.i.i2
  %inc.i.i.i.i = add nuw i64 %i.05.i.i.i.i, 1
  %cmp.not.i.i.i.i3 = icmp eq i64 %inc.i.i.i.i, %3
  br i1 %cmp.not.i.i.i.i3, label %invoke.cont13.i.i.i, label %for.body.i.i.i.i2, !llvm.loop !96

invoke.cont13.i.i.i:                              ; preds = %for.inc.i.i.i.i
  %7 = load ptr, ptr %substitutions_, align 8
  %add.ptr.i3.i.i.i = getelementptr inbounds i8, ptr %7, i64 -8
  tail call void @_ZdlPv(ptr noundef nonnull %add.ptr.i3.i.i.i) #25
  br label %_ZN4absl12lts_2023080213flat_hash_mapINSt7__cxx1112basic_stringIcSt11char_traitsIcESaIcEEESt4pairImmENS0_18container_internal10StringHashENSA_8StringEqESaIS8_IKS7_S9_EEED2Ev.exit

_ZN4absl12lts_2023080213flat_hash_mapINSt7__cxx1112basic_stringIcSt11char_traitsIcESaIcEEESt4pairImmENS0_18container_internal10StringHashENSA_8StringEqESaIS8_IKS7_S9_EEED2Ev.exit: ; preds = %_ZNSt6vectorINSt7__cxx1112basic_stringIcSt11char_traitsIcESaIcEEESaIS5_EED2Ev.exit, %invoke.cont13.i.i.i
  %annotation_lookups_ = getelementptr inbounds %"class.google::protobuf::io::Printer", ptr %this, i64 0, i32 8
  %8 = load ptr, ptr %annotation_lookups_, align 8
  %_M_finish.i4 = getelementptr inbounds %"class.google::protobuf::io::Printer", ptr %this, i64 0, i32 8, i32 0, i32 0, i32 0, i32 1
  %9 = load ptr, ptr %_M_finish.i4, align 8
  %cmp.not3.i.i.i.i5 = icmp eq ptr %8, %9
  br i1 %cmp.not3.i.i.i.i5, label %invoke.cont.i12, label %for.body.i.i.i.i6

for.body.i.i.i.i6:                                ; preds = %_ZN4absl12lts_2023080213flat_hash_mapINSt7__cxx1112basic_stringIcSt11char_traitsIcESaIcEEESt4pairImmENS0_18container_internal10StringHashENSA_8StringEqESaIS8_IKS7_S9_EEED2Ev.exit, %_ZSt8_DestroyISt8functionIFSt8optionalIN6google8protobuf2io7Printer16AnnotationRecordEESt17basic_string_viewIcSt11char_traitsIcEEEEEvPT_.exit.i.i.i.i
  %__first.addr.04.i.i.i.i7 = phi ptr [ %incdec.ptr.i.i.i.i8, %_ZSt8_DestroyISt8functionIFSt8optionalIN6google8protobuf2io7Printer16AnnotationRecordEESt17basic_string_viewIcSt11char_traitsIcEEEEEvPT_.exit.i.i.i.i ], [ %8, %_ZN4absl12lts_2023080213flat_hash_mapINSt7__cxx1112basic_stringIcSt11char_traitsIcESaIcEEESt4pairImmENS0_18container_internal10StringHashENSA_8StringEqESaIS8_IKS7_S9_EEED2Ev.exit ]
  %_M_manager.i.i.i.i.i.i.i = getelementptr inbounds %"class.std::_Function_base", ptr %__first.addr.04.i.i.i.i7, i64 0, i32 1
  %10 = load ptr, ptr %_M_manager.i.i.i.i.i.i.i, align 8
  %tobool.not.i.i.i.i.i.i.i = icmp eq ptr %10, null
  br i1 %tobool.not.i.i.i.i.i.i.i, label %_ZSt8_DestroyISt8functionIFSt8optionalIN6google8protobuf2io7Printer16AnnotationRecordEESt17basic_string_viewIcSt11char_traitsIcEEEEEvPT_.exit.i.i.i.i, label %if.then.i.i.i.i.i.i.i

if.then.i.i.i.i.i.i.i:                            ; preds = %for.body.i.i.i.i6
  %call.i.i.i.i.i.i.i = invoke noundef zeroext i1 %10(ptr noundef nonnull align 8 dereferenceable(16) %__first.addr.04.i.i.i.i7, ptr noundef nonnull align 8 dereferenceable(16) %__first.addr.04.i.i.i.i7, i32 noundef 3)
          to label %_ZSt8_DestroyISt8functionIFSt8optionalIN6google8protobuf2io7Printer16AnnotationRecordEESt17basic_string_viewIcSt11char_traitsIcEEEEEvPT_.exit.i.i.i.i unwind label %terminate.lpad.i.i.i.i.i.i.i

terminate.lpad.i.i.i.i.i.i.i:                     ; preds = %if.then.i.i.i.i.i.i.i
  %11 = landingpad { ptr, i32 }
          catch ptr null
  %12 = extractvalue { ptr, i32 } %11, 0
  tail call void @__clang_call_terminate(ptr %12) #28
  unreachable

_ZSt8_DestroyISt8functionIFSt8optionalIN6google8protobuf2io7Printer16AnnotationRecordEESt17basic_string_viewIcSt11char_traitsIcEEEEEvPT_.exit.i.i.i.i: ; preds = %if.then.i.i.i.i.i.i.i, %for.body.i.i.i.i6
  %incdec.ptr.i.i.i.i8 = getelementptr inbounds %"class.std::function", ptr %__first.addr.04.i.i.i.i7, i64 1
  %cmp.not.i.i.i.i9 = icmp eq ptr %incdec.ptr.i.i.i.i8, %9
  br i1 %cmp.not.i.i.i.i9, label %invoke.contthread-pre-split.i10, label %for.body.i.i.i.i6, !llvm.loop !97

invoke.contthread-pre-split.i10:                  ; preds = %_ZSt8_DestroyISt8functionIFSt8optionalIN6google8protobuf2io7Printer16AnnotationRecordEESt17basic_string_viewIcSt11char_traitsIcEEEEEvPT_.exit.i.i.i.i
  %.pr.i11 = load ptr, ptr %annotation_lookups_, align 8
  br label %invoke.cont.i12

invoke.cont.i12:                                  ; preds = %invoke.contthread-pre-split.i10, %_ZN4absl12lts_2023080213flat_hash_mapINSt7__cxx1112basic_stringIcSt11char_traitsIcESaIcEEESt4pairImmENS0_18container_internal10StringHashENSA_8StringEqESaIS8_IKS7_S9_EEED2Ev.exit
  %13 = phi ptr [ %.pr.i11, %invoke.contthread-pre-split.i10 ], [ %8, %_ZN4absl12lts_2023080213flat_hash_mapINSt7__cxx1112basic_stringIcSt11char_traitsIcESaIcEEESt4pairImmENS0_18container_internal10StringHashENSA_8StringEqESaIS8_IKS7_S9_EEED2Ev.exit ]
  %tobool.not.i.i.i13 = icmp eq ptr %13, null
  br i1 %tobool.not.i.i.i13, label %_ZNSt6vectorISt8functionIFSt8optionalIN6google8protobuf2io7Printer16AnnotationRecordEESt17basic_string_viewIcSt11char_traitsIcEEEESaISD_EED2Ev.exit, label %if.then.i.i.i14

if.then.i.i.i14:                                  ; preds = %invoke.cont.i12
  tail call void @_ZdlPv(ptr noundef nonnull %13) #25
  br label %_ZNSt6vectorISt8functionIFSt8optionalIN6google8protobuf2io7Printer16AnnotationRecordEESt17basic_string_viewIcSt11char_traitsIcEEEESaISD_EED2Ev.exit

_ZNSt6vectorISt8functionIFSt8optionalIN6google8protobuf2io7Printer16AnnotationRecordEESt17basic_string_viewIcSt11char_traitsIcEEEESaISD_EED2Ev.exit: ; preds = %invoke.cont.i12, %if.then.i.i.i14
  %var_lookups_ = getelementptr inbounds %"class.google::protobuf::io::Printer", ptr %this, i64 0, i32 7
  %14 = load ptr, ptr %var_lookups_, align 8
  %_M_finish.i15 = getelementptr inbounds %"class.google::protobuf::io::Printer", ptr %this, i64 0, i32 7, i32 0, i32 0, i32 0, i32 1
  %15 = load ptr, ptr %_M_finish.i15, align 8
  %cmp.not3.i.i.i.i16 = icmp eq ptr %14, %15
  br i1 %cmp.not3.i.i.i.i16, label %invoke.cont.i28, label %for.body.i.i.i.i17

for.body.i.i.i.i17:                               ; preds = %_ZNSt6vectorISt8functionIFSt8optionalIN6google8protobuf2io7Printer16AnnotationRecordEESt17basic_string_viewIcSt11char_traitsIcEEEESaISD_EED2Ev.exit, %_ZSt8_DestroyISt8functionIFSt8optionalIN6google8protobuf2io7Printer9ValueImplILb0EEEESt17basic_string_viewIcSt11char_traitsIcEEEEEvPT_.exit.i.i.i.i
  %__first.addr.04.i.i.i.i18 = phi ptr [ %incdec.ptr.i.i.i.i24, %_ZSt8_DestroyISt8functionIFSt8optionalIN6google8protobuf2io7Printer9ValueImplILb0EEEESt17basic_string_viewIcSt11char_traitsIcEEEEEvPT_.exit.i.i.i.i ], [ %14, %_ZNSt6vectorISt8functionIFSt8optionalIN6google8protobuf2io7Printer16AnnotationRecordEESt17basic_string_viewIcSt11char_traitsIcEEEESaISD_EED2Ev.exit ]
  %_M_manager.i.i.i.i.i.i.i19 = getelementptr inbounds %"class.std::_Function_base", ptr %__first.addr.04.i.i.i.i18, i64 0, i32 1
  %16 = load ptr, ptr %_M_manager.i.i.i.i.i.i.i19, align 8
  %tobool.not.i.i.i.i.i.i.i20 = icmp eq ptr %16, null
  br i1 %tobool.not.i.i.i.i.i.i.i20, label %_ZSt8_DestroyISt8functionIFSt8optionalIN6google8protobuf2io7Printer9ValueImplILb0EEEESt17basic_string_viewIcSt11char_traitsIcEEEEEvPT_.exit.i.i.i.i, label %if.then.i.i.i.i.i.i.i21

if.then.i.i.i.i.i.i.i21:                          ; preds = %for.body.i.i.i.i17
  %call.i.i.i.i.i.i.i22 = invoke noundef zeroext i1 %16(ptr noundef nonnull align 8 dereferenceable(16) %__first.addr.04.i.i.i.i18, ptr noundef nonnull align 8 dereferenceable(16) %__first.addr.04.i.i.i.i18, i32 noundef 3)
          to label %_ZSt8_DestroyISt8functionIFSt8optionalIN6google8protobuf2io7Printer9ValueImplILb0EEEESt17basic_string_viewIcSt11char_traitsIcEEEEEvPT_.exit.i.i.i.i unwind label %terminate.lpad.i.i.i.i.i.i.i23

terminate.lpad.i.i.i.i.i.i.i23:                   ; preds = %if.then.i.i.i.i.i.i.i21
  %17 = landingpad { ptr, i32 }
          catch ptr null
  %18 = extractvalue { ptr, i32 } %17, 0
  tail call void @__clang_call_terminate(ptr %18) #28
  unreachable

_ZSt8_DestroyISt8functionIFSt8optionalIN6google8protobuf2io7Printer9ValueImplILb0EEEESt17basic_string_viewIcSt11char_traitsIcEEEEEvPT_.exit.i.i.i.i: ; preds = %if.then.i.i.i.i.i.i.i21, %for.body.i.i.i.i17
  %incdec.ptr.i.i.i.i24 = getelementptr inbounds %"class.std::function.74", ptr %__first.addr.04.i.i.i.i18, i64 1
  %cmp.not.i.i.i.i25 = icmp eq ptr %incdec.ptr.i.i.i.i24, %15
  br i1 %cmp.not.i.i.i.i25, label %invoke.contthread-pre-split.i26, label %for.body.i.i.i.i17, !llvm.loop !98

invoke.contthread-pre-split.i26:                  ; preds = %_ZSt8_DestroyISt8functionIFSt8optionalIN6google8protobuf2io7Printer9ValueImplILb0EEEESt17basic_string_viewIcSt11char_traitsIcEEEEEvPT_.exit.i.i.i.i
  %.pr.i27 = load ptr, ptr %var_lookups_, align 8
  br label %invoke.cont.i28

invoke.cont.i28:                                  ; preds = %invoke.contthread-pre-split.i26, %_ZNSt6vectorISt8functionIFSt8optionalIN6google8protobuf2io7Printer16AnnotationRecordEESt17basic_string_viewIcSt11char_traitsIcEEEESaISD_EED2Ev.exit
  %19 = phi ptr [ %.pr.i27, %invoke.contthread-pre-split.i26 ], [ %14, %_ZNSt6vectorISt8functionIFSt8optionalIN6google8protobuf2io7Printer16AnnotationRecordEESt17basic_string_viewIcSt11char_traitsIcEEEESaISD_EED2Ev.exit ]
  %tobool.not.i.i.i29 = icmp eq ptr %19, null
  br i1 %tobool.not.i.i.i29, label %_ZNSt6vectorISt8functionIFSt8optionalIN6google8protobuf2io7Printer9ValueImplILb0EEEESt17basic_string_viewIcSt11char_traitsIcEEEESaISE_EED2Ev.exit, label %if.then.i.i.i30

if.then.i.i.i30:                                  ; preds = %invoke.cont.i28
  tail call void @_ZdlPv(ptr noundef nonnull %19) #25
  br label %_ZNSt6vectorISt8functionIFSt8optionalIN6google8protobuf2io7Printer9ValueImplILb0EEEESt17basic_string_viewIcSt11char_traitsIcEEEESaISE_EED2Ev.exit

_ZNSt6vectorISt8functionIFSt8optionalIN6google8protobuf2io7Printer9ValueImplILb0EEEESt17basic_string_viewIcSt11char_traitsIcEEEESaISE_EED2Ev.exit: ; preds = %invoke.cont.i28, %if.then.i.i.i30
  %paren_depth_to_omit_ = getelementptr inbounds %"class.google::protobuf::io::Printer", ptr %this, i64 0, i32 6
  %20 = load ptr, ptr %paren_depth_to_omit_, align 8
  %tobool.not.i.i.i32 = icmp eq ptr %20, null
  br i1 %tobool.not.i.i.i32, label %_ZNSt6vectorImSaImEED2Ev.exit, label %if.then.i.i.i33

if.then.i.i.i33:                                  ; preds = %_ZNSt6vectorISt8functionIFSt8optionalIN6google8protobuf2io7Printer9ValueImplILb0EEEESt17basic_string_viewIcSt11char_traitsIcEEEESaISE_EED2Ev.exit
  tail call void @_ZdlPv(ptr noundef nonnull %20) #25
  br label %_ZNSt6vectorImSaImEED2Ev.exit

_ZNSt6vectorImSaImEED2Ev.exit:                    ; preds = %_ZNSt6vectorISt8functionIFSt8optionalIN6google8protobuf2io7Printer9ValueImplILb0EEEESt17basic_string_viewIcSt11char_traitsIcEEEESaISE_EED2Ev.exit, %if.then.i.i.i33
  %buffer_size_.i = getelementptr inbounds %"class.google::protobuf::io::zc_sink_internal::ZeroCopyStreamByteSink", ptr %this, i64 0, i32 2
  %21 = load i64, ptr %buffer_size_.i, align 8
  %cmp.not.i = icmp eq i64 %21, 0
  br i1 %cmp.not.i, label %_ZN6google8protobuf2io16zc_sink_internal22ZeroCopyStreamByteSinkD2Ev.exit, label %if.then.i

if.then.i:                                        ; preds = %_ZNSt6vectorImSaImEED2Ev.exit
  %22 = load ptr, ptr %this, align 8
  %conv.i = trunc i64 %21 to i32
  %vtable.i = load ptr, ptr %22, align 8
  %vfn.i = getelementptr inbounds ptr, ptr %vtable.i, i64 3
  %23 = load ptr, ptr %vfn.i, align 8
  invoke void %23(ptr noundef nonnull align 8 dereferenceable(8) %22, i32 noundef %conv.i)
          to label %_ZN6google8protobuf2io16zc_sink_internal22ZeroCopyStreamByteSinkD2Ev.exit unwind label %terminate.lpad.i

terminate.lpad.i:                                 ; preds = %if.then.i
  %24 = landingpad { ptr, i32 }
          catch ptr null
  %25 = extractvalue { ptr, i32 } %24, 0
  tail call void @__clang_call_terminate(ptr %25) #28
  unreachable

_ZN6google8protobuf2io16zc_sink_internal22ZeroCopyStreamByteSinkD2Ev.exit: ; preds = %_ZNSt6vectorImSaImEED2Ev.exit, %if.then.i
  ret void
}

; Function Attrs: mustprogress nounwind uwtable
define linkonce_odr hidden void @_ZN6google8protobuf8compiler4ruby9GeneratorD2Ev(ptr noundef nonnull align 8 dereferenceable(8) %this) unnamed_addr #8 comdat align 2 {
entry:
  tail call void @_ZN6google8protobuf8compiler13CodeGeneratorD2Ev(ptr noundef nonnull align 8 dereferenceable(8) %this) #24
  ret void
}

; Function Attrs: mustprogress nounwind uwtable
define linkonce_odr hidden void @_ZN6google8protobuf8compiler4ruby9GeneratorD0Ev(ptr noundef nonnull align 8 dereferenceable(8) %this) unnamed_addr #8 comdat align 2 {
entry:
  tail call void @_ZN6google8protobuf8compiler13CodeGeneratorD2Ev(ptr noundef nonnull align 8 dereferenceable(8) %this) #24
  tail call void @_ZdlPv(ptr noundef nonnull %this) #25
  ret void
}

declare noundef zeroext i1 @_ZNK6google8protobuf8compiler13CodeGenerator11GenerateAllERKSt6vectorIPKNS0_14FileDescriptorESaIS6_EERKNSt7__cxx1112basic_stringIcSt11char_traitsIcESaIcEEEPNS1_16GeneratorContextEPSG_(ptr noundef nonnull align 8 dereferenceable(8), ptr noundef nonnull align 1, ptr noundef nonnull align 8 dereferenceable(32), ptr noundef, ptr noundef) unnamed_addr #0

; Function Attrs: mustprogress nounwind uwtable
define linkonce_odr hidden noundef i64 @_ZNK6google8protobuf8compiler4ruby9Generator20GetSupportedFeaturesEv(ptr noundef nonnull align 8 dereferenceable(8) %this) unnamed_addr #8 comdat align 2 {
entry:
  ret i64 1
}

; Function Attrs: mustprogress nounwind uwtable
define linkonce_odr hidden noundef zeroext i1 @_ZNK6google8protobuf8compiler13CodeGenerator14HasGenerateAllEv(ptr noundef nonnull align 8 dereferenceable(8) %this) unnamed_addr #8 comdat align 2 {
entry:
  ret i1 true
}

; Function Attrs: mustprogress nounwind uwtable
define linkonce_odr hidden void @_ZNK6google8protobuf8compiler13CodeGenerator20GetFeatureExtensionsEv(ptr noalias sret(%"class.std::vector.55") align 8 %agg.result, ptr noundef nonnull align 8 dereferenceable(8) %this) unnamed_addr #8 comdat align 2 {
entry:
  tail call void @llvm.memset.p0.i64(ptr noundef nonnull align 8 dereferenceable(24) %agg.result, i8 0, i64 24, i1 false)
  ret void
}

; Function Attrs: mustprogress nounwind uwtable
define linkonce_odr hidden noundef i32 @_ZNK6google8protobuf8compiler13CodeGenerator17GetMinimumEditionEv(ptr noundef nonnull align 8 dereferenceable(8) %this) unnamed_addr #8 comdat align 2 {
entry:
  ret i32 0
}

; Function Attrs: mustprogress nounwind uwtable
define linkonce_odr hidden noundef i32 @_ZNK6google8protobuf8compiler13CodeGenerator17GetMaximumEditionEv(ptr noundef nonnull align 8 dereferenceable(8) %this) unnamed_addr #8 comdat align 2 {
entry:
  ret i32 0
}

; Function Attrs: noreturn nounwind uwtable
define linkonce_odr hidden void @__clang_call_terminate(ptr noundef %0) local_unnamed_addr #9 comdat {
  %2 = tail call ptr @__cxa_begin_catch(ptr %0) #24
  tail call void @_ZSt9terminatev() #28
  unreachable
}

declare ptr @__cxa_begin_catch(ptr) local_unnamed_addr

declare void @_ZSt9terminatev() local_unnamed_addr

; Function Attrs: mustprogress nofree nounwind willreturn memory(argmem: read)
declare i64 @strlen(ptr nocapture noundef) local_unnamed_addr #10

; Function Attrs: mustprogress uwtable
define linkonce_odr hidden void @_ZN4absl12lts_2023080218container_internal12raw_hash_setINS1_17FlatHashSetPolicyIPKN6google8protobuf14FileDescriptorEEENS1_6HashEqIS8_vE4HashENSB_2EqESaIS8_EEC2IPKS8_EET_SJ_mRKSC_RKSD_RKSE_(ptr noundef nonnull align 8 dereferenceable(32) %this, ptr noundef %first, ptr noundef %last, i64 noundef %bucket_count, ptr noundef nonnull align 1 dereferenceable(1) %hash, ptr noundef nonnull align 1 dereferenceable(1) %eq, ptr noundef nonnull align 1 dereferenceable(1) %alloc) unnamed_addr #11 comdat align 2 personality ptr @__gxx_personality_v0 {
entry:
  %agg.tmp.i.i = alloca %"class.std::allocator", align 1
  %cmp.not.i = icmp eq i64 %bucket_count, 0
  br i1 %cmp.not.i, label %_ZN4absl12lts_2023080218container_internal29SelectBucketCountForIterRangeIPKPKN6google8protobuf14FileDescriptorEEEmT_SA_m.exit, label %_ZN4absl12lts_2023080218container_internal29SelectBucketCountForIterRangeIPKPKN6google8protobuf14FileDescriptorEEEmT_SA_m.exit.thread

_ZN4absl12lts_2023080218container_internal29SelectBucketCountForIterRangeIPKPKN6google8protobuf14FileDescriptorEEEmT_SA_m.exit.thread: ; preds = %entry
  store ptr getelementptr inbounds ([32 x i8], ptr @_ZN4absl12lts_2023080218container_internal11kEmptyGroupE, i64 0, i64 16), ptr %this, align 8
  %slots_.i.i.i.i.i12 = getelementptr inbounds %"class.absl::lts_20230802::container_internal::CommonFields", ptr %this, i64 0, i32 1
  tail call void @llvm.memset.p0.i64(ptr noundef nonnull align 8 dereferenceable(24) %slots_.i.i.i.i.i12, i8 0, i64 24, i1 false)
  br label %invoke.cont.i

_ZN4absl12lts_2023080218container_internal29SelectBucketCountForIterRangeIPKPKN6google8protobuf14FileDescriptorEEEmT_SA_m.exit: ; preds = %entry
  %sub.ptr.lhs.cast.i.i.i = ptrtoint ptr %last to i64
  %sub.ptr.rhs.cast.i.i.i = ptrtoint ptr %first to i64
  %sub.ptr.sub.i.i.i = sub i64 %sub.ptr.lhs.cast.i.i.i, %sub.ptr.rhs.cast.i.i.i
  %sub.ptr.div.i.i.i = ashr exact i64 %sub.ptr.sub.i.i.i, 3
  %sub.i.i = add nsw i64 %sub.ptr.div.i.i.i, -1
  %div.i.i = sdiv i64 %sub.i.i, 7
  %add.i.i = add nsw i64 %div.i.i, %sub.ptr.div.i.i.i
  store ptr getelementptr inbounds ([32 x i8], ptr @_ZN4absl12lts_2023080218container_internal11kEmptyGroupE, i64 0, i64 16), ptr %this, align 8
  %slots_.i.i.i.i.i = getelementptr inbounds %"class.absl::lts_20230802::container_internal::CommonFields", ptr %this, i64 0, i32 1
  %tobool.not.i = icmp eq i64 %add.i.i, 0
  tail call void @llvm.memset.p0.i64(ptr noundef nonnull align 8 dereferenceable(24) %slots_.i.i.i.i.i, i8 0, i64 24, i1 false)
  br i1 %tobool.not.i, label %_ZN4absl12lts_2023080218container_internal12raw_hash_setINS1_17FlatHashSetPolicyIPKN6google8protobuf14FileDescriptorEEENS1_6HashEqIS8_vE4HashENSB_2EqESaIS8_EEC2EmRKSC_RKSD_RKSE_.exit, label %invoke.cont.i

invoke.cont.i:                                    ; preds = %_ZN4absl12lts_2023080218container_internal29SelectBucketCountForIterRangeIPKPKN6google8protobuf14FileDescriptorEEEmT_SA_m.exit.thread, %_ZN4absl12lts_2023080218container_internal29SelectBucketCountForIterRangeIPKPKN6google8protobuf14FileDescriptorEEEmT_SA_m.exit
  %slots_.i.i.i.i.i15 = phi ptr [ %slots_.i.i.i.i.i12, %_ZN4absl12lts_2023080218container_internal29SelectBucketCountForIterRangeIPKPKN6google8protobuf14FileDescriptorEEEmT_SA_m.exit.thread ], [ %slots_.i.i.i.i.i, %_ZN4absl12lts_2023080218container_internal29SelectBucketCountForIterRangeIPKPKN6google8protobuf14FileDescriptorEEEmT_SA_m.exit ]
  %retval.0.i14 = phi i64 [ %bucket_count, %_ZN4absl12lts_2023080218container_internal29SelectBucketCountForIterRangeIPKPKN6google8protobuf14FileDescriptorEEEmT_SA_m.exit.thread ], [ %add.i.i, %_ZN4absl12lts_2023080218container_internal29SelectBucketCountForIterRangeIPKPKN6google8protobuf14FileDescriptorEEEmT_SA_m.exit ]
  %capacity_.i.i.i.i.i = getelementptr inbounds %"class.absl::lts_20230802::container_internal::CommonFields", ptr %this, i64 0, i32 2
  %0 = tail call i64 @llvm.ctlz.i64(i64 %retval.0.i14, i1 true), !range !99
  %shr.i.i = lshr i64 -1, %0
  store i64 %shr.i.i, ptr %capacity_.i.i.i.i.i, align 8
  call void @llvm.lifetime.start.p0(i64 1, ptr nonnull %agg.tmp.i.i)
  %sub.i.i.i.i.i = add i64 %shr.i.i, 31
  %mul.i.i.i.i = shl i64 %shr.i.i, 3
  %add.i.i.i.i = add i64 %sub.i.i.i.i.i, %mul.i.i.i.i
  %cmp.i.i.i.i.i.i = icmp slt i64 %add.i.i.i.i, 0
  br i1 %cmp.i.i.i.i.i.i, label %if.then.i.i.i.i.i.i, label %_ZN4absl12lts_2023080218container_internal8AllocateILm8ESaIcEEEPvPT0_m.exit.i.i.i

if.then.i.i.i.i.i.i:                              ; preds = %invoke.cont.i
  invoke void @_ZSt17__throw_bad_allocv() #29
          to label %.noexc.i.i unwind label %lpad.i.i

.noexc.i.i:                                       ; preds = %if.then.i.i.i.i.i.i
  unreachable

_ZN4absl12lts_2023080218container_internal8AllocateILm8ESaIcEEEPvPT0_m.exit.i.i.i: ; preds = %invoke.cont.i
  %div1.i.i.i.i = and i64 %add.i.i.i.i, 9223372036854775800
  %call5.i.i2.i.i1.i.i = invoke noalias noundef nonnull ptr @_Znwm(i64 noundef %div1.i.i.i.i) #30
          to label %_ZN4absl12lts_2023080218container_internal12raw_hash_setINS1_17FlatHashSetPolicyIPKN6google8protobuf14FileDescriptorEEENS1_6HashEqIS8_vE4HashENSB_2EqESaIS8_EE16initialize_slotsEv.exit.i unwind label %lpad.i.i

common.resume:                                    ; preds = %invoke.cont13.i, %lpad, %lpad.i.i
  %common.resume.op = phi { ptr, i32 } [ %1, %lpad.i.i ], [ %17, %lpad ], [ %17, %invoke.cont13.i ]
  resume { ptr, i32 } %common.resume.op

lpad.i.i:                                         ; preds = %_ZN4absl12lts_2023080218container_internal8AllocateILm8ESaIcEEEPvPT0_m.exit.i.i.i, %if.then.i.i.i.i.i.i
  %1 = landingpad { ptr, i32 }
          cleanup
  call void @_ZNSaIcED1Ev(ptr noundef nonnull align 1 dereferenceable(1) %agg.tmp.i.i) #24
  br label %common.resume

_ZN4absl12lts_2023080218container_internal12raw_hash_setINS1_17FlatHashSetPolicyIPKN6google8protobuf14FileDescriptorEEENS1_6HashEqIS8_vE4HashENSB_2EqESaIS8_EE16initialize_slotsEv.exit.i: ; preds = %_ZN4absl12lts_2023080218container_internal8AllocateILm8ESaIcEEEPvPT0_m.exit.i.i.i
  %and.i.i.i.i.i = and i64 %sub.i.i.i.i.i, -8
  %add.ptr8.i.i.i = getelementptr inbounds i8, ptr %call5.i.i2.i.i1.i.i, i64 8
  store ptr %add.ptr8.i.i.i, ptr %this, align 8
  %add.ptr10.i.i.i = getelementptr inbounds i8, ptr %call5.i.i2.i.i1.i.i, i64 %and.i.i.i.i.i
  store ptr %add.ptr10.i.i.i, ptr %slots_.i.i.i.i.i15, align 8
  %add3.i19.i.i.i = add i64 %shr.i.i, 16
  tail call void @llvm.memset.p0.i64(ptr noundef nonnull align 1 dereferenceable(1) %add.ptr8.i.i.i, i8 -128, i64 %add3.i19.i.i.i, i1 false)
  %arrayidx.i.i.i.i = getelementptr inbounds i8, ptr %add.ptr8.i.i.i, i64 %shr.i.i
  store i8 -1, ptr %arrayidx.i.i.i.i, align 1
  %div2.i.i.i.i.i.i = lshr i64 2305843009213693951, %0
  %sub.i.i20.i.i.i = sub i64 %shr.i.i, %div2.i.i.i.i.i.i
  store i64 %sub.i.i20.i.i.i, ptr %call5.i.i2.i.i1.i.i, align 8
  call void @_ZNSaIcED1Ev(ptr noundef nonnull align 1 dereferenceable(1) %agg.tmp.i.i) #24
  call void @llvm.lifetime.end.p0(i64 1, ptr nonnull %agg.tmp.i.i)
  br label %_ZN4absl12lts_2023080218container_internal12raw_hash_setINS1_17FlatHashSetPolicyIPKN6google8protobuf14FileDescriptorEEENS1_6HashEqIS8_vE4HashENSB_2EqESaIS8_EEC2EmRKSC_RKSD_RKSE_.exit

_ZN4absl12lts_2023080218container_internal12raw_hash_setINS1_17FlatHashSetPolicyIPKN6google8protobuf14FileDescriptorEEENS1_6HashEqIS8_vE4HashENSB_2EqESaIS8_EEC2EmRKSC_RKSD_RKSE_.exit: ; preds = %_ZN4absl12lts_2023080218container_internal29SelectBucketCountForIterRangeIPKPKN6google8protobuf14FileDescriptorEEEmT_SA_m.exit, %_ZN4absl12lts_2023080218container_internal12raw_hash_setINS1_17FlatHashSetPolicyIPKN6google8protobuf14FileDescriptorEEENS1_6HashEqIS8_vE4HashENSB_2EqESaIS8_EE16initialize_slotsEv.exit.i
  %slots_.i.i.i.i.i16 = phi ptr [ %slots_.i.i.i.i.i, %_ZN4absl12lts_2023080218container_internal29SelectBucketCountForIterRangeIPKPKN6google8protobuf14FileDescriptorEEEmT_SA_m.exit ], [ %slots_.i.i.i.i.i15, %_ZN4absl12lts_2023080218container_internal12raw_hash_setINS1_17FlatHashSetPolicyIPKN6google8protobuf14FileDescriptorEEENS1_6HashEqIS8_vE4HashENSB_2EqESaIS8_EE16initialize_slotsEv.exit.i ]
  %cmp.not3.i = icmp eq ptr %first, %last
  br i1 %cmp.not3.i, label %invoke.cont, label %for.body.lr.ph.i

for.body.lr.ph.i:                                 ; preds = %_ZN4absl12lts_2023080218container_internal12raw_hash_setINS1_17FlatHashSetPolicyIPKN6google8protobuf14FileDescriptorEEENS1_6HashEqIS8_vE4HashENSB_2EqESaIS8_EEC2EmRKSC_RKSD_RKSE_.exit
  %capacity_.i.i.i.i.i.i = getelementptr inbounds %"class.absl::lts_20230802::container_internal::CommonFields", ptr %this, i64 0, i32 2
  br label %for.body.i

for.body.i:                                       ; preds = %_ZN4absl12lts_2023080218container_internal12raw_hash_setINS1_17FlatHashSetPolicyIPKN6google8protobuf14FileDescriptorEEENS1_6HashEqIS8_vE4HashENSB_2EqESaIS8_EE7emplaceIJRKS8_ETnNSt9enable_ifIXsr14IsDecomposableIDpT_EE5valueEiE4typeELi0EEESt4pairINSF_8iteratorEbEDpOSK_.exit.i, %for.body.lr.ph.i
  %first.addr.04.i = phi ptr [ %first, %for.body.lr.ph.i ], [ %incdec.ptr.i, %_ZN4absl12lts_2023080218container_internal12raw_hash_setINS1_17FlatHashSetPolicyIPKN6google8protobuf14FileDescriptorEEENS1_6HashEqIS8_vE4HashENSB_2EqESaIS8_EE7emplaceIJRKS8_ETnNSt9enable_ifIXsr14IsDecomposableIDpT_EE5valueEiE4typeELi0EEESt4pairINSF_8iteratorEbEDpOSK_.exit.i ]
  %2 = load ptr, ptr %this, align 8, !noalias !100
  call void @llvm.prefetch.p0(ptr %2, i32 0, i32 1, i32 1), !noalias !100
  %3 = load ptr, ptr %first.addr.04.i, align 8, !noalias !100
  %4 = ptrtoint ptr %3 to i64
  %add.i.i.i.i.i.i.i.i.i.i.i.i.i.i.i = add i64 %4, ptrtoint (ptr @_ZN4absl12lts_2023080213hash_internal15MixingHashState5kSeedE to i64)
  %conv.i.i.i.i.i.i.i.i.i.i.i.i.i.i.i = zext i64 %add.i.i.i.i.i.i.i.i.i.i.i.i.i.i.i to i128
  %mul.i.i.i.i.i.i.i.i.i.i.i.i.i.i.i = mul nuw i128 %conv.i.i.i.i.i.i.i.i.i.i.i.i.i.i.i, 11376068507788127593
  %shr.i.i.i.i.i.i.i.i.i.i.i.i.i.i.i = lshr i128 %mul.i.i.i.i.i.i.i.i.i.i.i.i.i.i.i, 64
  %xor.i.i.i.i.i.i.i.i.i.i.i.i.i.i.i = xor i128 %shr.i.i.i.i.i.i.i.i.i.i.i.i.i.i.i, %mul.i.i.i.i.i.i.i.i.i.i.i.i.i.i.i
  %conv1.i.i.i.i.i.i.i.i.i.i.i.i.i.i.i = trunc i128 %xor.i.i.i.i.i.i.i.i.i.i.i.i.i.i.i to i64
  %add.i.i.i.i.i.i.i.i.i.i.i.i.i.i.i.i = add i64 %conv1.i.i.i.i.i.i.i.i.i.i.i.i.i.i.i, %4
  %conv.i.i.i.i.i.i.i.i.i.i.i.i.i.i.i.i = zext i64 %add.i.i.i.i.i.i.i.i.i.i.i.i.i.i.i.i to i128
  %mul.i.i.i.i.i.i.i.i.i.i.i.i.i.i.i.i = mul nuw i128 %conv.i.i.i.i.i.i.i.i.i.i.i.i.i.i.i.i, 11376068507788127593
  %shr.i.i.i.i.i.i.i.i.i.i.i.i.i.i.i.i = lshr i128 %mul.i.i.i.i.i.i.i.i.i.i.i.i.i.i.i.i, 64
  %xor.i.i.i.i.i.i.i.i.i.i.i.i.i.i.i.i = xor i128 %shr.i.i.i.i.i.i.i.i.i.i.i.i.i.i.i.i, %mul.i.i.i.i.i.i.i.i.i.i.i.i.i.i.i.i
  %conv1.i.i.i.i.i.i.i.i.i.i.i.i.i.i.i.i = trunc i128 %xor.i.i.i.i.i.i.i.i.i.i.i.i.i.i.i.i to i64
  %5 = load i64, ptr %capacity_.i.i.i.i.i.i, align 8, !noalias !105
  %shr.i.i.i.i.i.i.i = lshr i64 %conv1.i.i.i.i.i.i.i.i.i.i.i.i.i.i.i.i, 7
  %6 = ptrtoint ptr %2 to i64
  %shr.i.i.i.i.i.i.i.i = lshr i64 %6, 12
  %xor.i.i.i.i.i.i.i = xor i64 %shr.i.i.i.i.i.i.i, %shr.i.i.i.i.i.i.i.i
  %7 = trunc i128 %xor.i.i.i.i.i.i.i.i.i.i.i.i.i.i.i.i to i8
  %conv.i.i.i.i.i = and i8 %7, 127
  %vecinit.i.i.i.i.i.i = insertelement <16 x i8> undef, i8 %conv.i.i.i.i.i, i64 0
  %vecinit15.i.i.i.i.i.i = shufflevector <16 x i8> %vecinit.i.i.i.i.i.i, <16 x i8> poison, <16 x i32> zeroinitializer
  %8 = load ptr, ptr %slots_.i.i.i.i.i16, align 8, !noalias !100
  br label %while.body.i.i.i.i

while.body.i.i.i.i:                               ; preds = %if.end36.i.i.i.i, %for.body.i
  %xor.i.i.i.pn.i.i.i.i = phi i64 [ %xor.i.i.i.i.i.i.i, %for.body.i ], [ %add3.i.i.i.i.i, %if.end36.i.i.i.i ]
  %seq.sroa.10.0.i.i.i.i = phi i64 [ 0, %for.body.i ], [ %add.i13.i.i.i.i, %if.end36.i.i.i.i ]
  %seq.sroa.4.0.i.i.i.i = and i64 %xor.i.i.i.pn.i.i.i.i, %5
  %add.ptr.i.i.i.i = getelementptr inbounds i8, ptr %2, i64 %seq.sroa.4.0.i.i.i.i
  %9 = load <16 x i8>, ptr %add.ptr.i.i.i.i, align 1, !noalias !100
  %cmp.i.i.i.i.i.i4 = icmp eq <16 x i8> %vecinit15.i.i.i.i.i.i, %9
  %10 = bitcast <16 x i1> %cmp.i.i.i.i.i.i4 to i16
  %cmp.i.not25.i.i.i.i = icmp eq i16 %10, 0
  br i1 %cmp.i.not25.i.i.i.i, label %for.end.i.i.i.i, label %for.body.preheader.i.i.i.i

for.body.preheader.i.i.i.i:                       ; preds = %while.body.i.i.i.i
  %11 = zext i16 %10 to i32
  br label %for.body.i.i.i.i

for.body.i.i.i.i:                                 ; preds = %for.inc.i.i.i.i, %for.body.preheader.i.i.i.i
  %__begin0.sroa.0.026.i.i.i.i = phi i32 [ %and.i10.i.i.i.i, %for.inc.i.i.i.i ], [ %11, %for.body.preheader.i.i.i.i ]
  %12 = call noundef i32 @llvm.cttz.i32(i32 %__begin0.sroa.0.026.i.i.i.i, i1 true), !range !108
  %conv.i.i.i.i = zext nneg i32 %12 to i64
  %add.i.i.i.i.i = add i64 %seq.sroa.4.0.i.i.i.i, %conv.i.i.i.i
  %and.i.i.i.i.i5 = and i64 %add.i.i.i.i.i, %5
  %add.ptr21.i.i.i.i = getelementptr inbounds ptr, ptr %8, i64 %and.i.i.i.i.i5
  %13 = load ptr, ptr %add.ptr21.i.i.i.i, align 8, !noalias !100
  %cmp.i.i.i.i.i.i.i.i.i = icmp eq ptr %13, %3
  br i1 %cmp.i.i.i.i.i.i.i.i.i, label %_ZN4absl12lts_2023080218container_internal12raw_hash_setINS1_17FlatHashSetPolicyIPKN6google8protobuf14FileDescriptorEEENS1_6HashEqIS8_vE4HashENSB_2EqESaIS8_EE7emplaceIJRKS8_ETnNSt9enable_ifIXsr14IsDecomposableIDpT_EE5valueEiE4typeELi0EEESt4pairINSF_8iteratorEbEDpOSK_.exit.i, label %for.inc.i.i.i.i

for.inc.i.i.i.i:                                  ; preds = %for.body.i.i.i.i
  %sub.i.i.i.i.i6 = add nsw i32 %__begin0.sroa.0.026.i.i.i.i, -1
  %and.i10.i.i.i.i = and i32 %sub.i.i.i.i.i6, %__begin0.sroa.0.026.i.i.i.i
  %cmp.i.not.i.i.i.i = icmp eq i32 %and.i10.i.i.i.i, 0
  br i1 %cmp.i.not.i.i.i.i, label %for.end.i.i.i.i, label %for.body.i.i.i.i

for.end.i.i.i.i:                                  ; preds = %for.inc.i.i.i.i, %while.body.i.i.i.i
  %cmp.i.i11.i.i.i.i = icmp eq <16 x i8> %9, <i8 -128, i8 -128, i8 -128, i8 -128, i8 -128, i8 -128, i8 -128, i8 -128, i8 -128, i8 -128, i8 -128, i8 -128, i8 -128, i8 -128, i8 -128, i8 -128>
  %14 = bitcast <16 x i1> %cmp.i.i11.i.i.i.i to i16
  %cmp.i12.not.i.i.i.i = icmp eq i16 %14, 0
  br i1 %cmp.i12.not.i.i.i.i, label %if.end36.i.i.i.i, label %if.then.i.i.i

if.end36.i.i.i.i:                                 ; preds = %for.end.i.i.i.i
  %add.i13.i.i.i.i = add i64 %seq.sroa.10.0.i.i.i.i, 16
  %add3.i.i.i.i.i = add i64 %add.i13.i.i.i.i, %seq.sroa.4.0.i.i.i.i
  br label %while.body.i.i.i.i, !llvm.loop !109

if.then.i.i.i:                                    ; preds = %for.end.i.i.i.i
  %call38.i.i.i.i8 = invoke noundef i64 @_ZN4absl12lts_2023080218container_internal12raw_hash_setINS1_17FlatHashSetPolicyIPKN6google8protobuf14FileDescriptorEEENS1_6HashEqIS8_vE4HashENSB_2EqESaIS8_EE14prepare_insertEm(ptr noundef nonnull align 8 dereferenceable(32) %this, i64 noundef %conv1.i.i.i.i.i.i.i.i.i.i.i.i.i.i.i.i)
          to label %call38.i.i.i.i.noexc unwind label %lpad

call38.i.i.i.i.noexc:                             ; preds = %if.then.i.i.i
  %15 = load ptr, ptr %slots_.i.i.i.i.i16, align 8, !noalias !100
  %add.ptr.i2.i.i.i = getelementptr inbounds ptr, ptr %15, i64 %call38.i.i.i.i8
  %16 = load ptr, ptr %first.addr.04.i, align 8, !noalias !100
  store ptr %16, ptr %add.ptr.i2.i.i.i, align 8, !noalias !100
  br label %_ZN4absl12lts_2023080218container_internal12raw_hash_setINS1_17FlatHashSetPolicyIPKN6google8protobuf14FileDescriptorEEENS1_6HashEqIS8_vE4HashENSB_2EqESaIS8_EE7emplaceIJRKS8_ETnNSt9enable_ifIXsr14IsDecomposableIDpT_EE5valueEiE4typeELi0EEESt4pairINSF_8iteratorEbEDpOSK_.exit.i

_ZN4absl12lts_2023080218container_internal12raw_hash_setINS1_17FlatHashSetPolicyIPKN6google8protobuf14FileDescriptorEEENS1_6HashEqIS8_vE4HashENSB_2EqESaIS8_EE7emplaceIJRKS8_ETnNSt9enable_ifIXsr14IsDecomposableIDpT_EE5valueEiE4typeELi0EEESt4pairINSF_8iteratorEbEDpOSK_.exit.i: ; preds = %for.body.i.i.i.i, %call38.i.i.i.i.noexc
  %incdec.ptr.i = getelementptr inbounds ptr, ptr %first.addr.04.i, i64 1
  %cmp.not.i7 = icmp eq ptr %incdec.ptr.i, %last
  br i1 %cmp.not.i7, label %invoke.cont, label %for.body.i, !llvm.loop !110

invoke.cont:                                      ; preds = %_ZN4absl12lts_2023080218container_internal12raw_hash_setINS1_17FlatHashSetPolicyIPKN6google8protobuf14FileDescriptorEEENS1_6HashEqIS8_vE4HashENSB_2EqESaIS8_EE7emplaceIJRKS8_ETnNSt9enable_ifIXsr14IsDecomposableIDpT_EE5valueEiE4typeELi0EEESt4pairINSF_8iteratorEbEDpOSK_.exit.i, %_ZN4absl12lts_2023080218container_internal12raw_hash_setINS1_17FlatHashSetPolicyIPKN6google8protobuf14FileDescriptorEEENS1_6HashEqIS8_vE4HashENSB_2EqESaIS8_EEC2EmRKSC_RKSD_RKSE_.exit
  ret void

lpad:                                             ; preds = %if.then.i.i.i
  %17 = landingpad { ptr, i32 }
          cleanup
  %18 = load i64, ptr %capacity_.i.i.i.i.i.i, align 8
  %tobool.not.i10 = icmp eq i64 %18, 0
  br i1 %tobool.not.i10, label %common.resume, label %invoke.cont13.i

invoke.cont13.i:                                  ; preds = %lpad
  %19 = load ptr, ptr %this, align 8
  %add.ptr.i.i = getelementptr inbounds i8, ptr %19, i64 -8
  call void @_ZdlPv(ptr noundef nonnull %add.ptr.i.i) #25
  br label %common.resume
}

; Function Attrs: mustprogress nocallback nofree nounwind willreturn memory(argmem: write)
declare void @llvm.memset.p0.i64(ptr nocapture writeonly, i8, i64, i1 immarg) #12

; Function Attrs: mustprogress nocallback nofree nosync nounwind speculatable willreturn memory(none)
declare i64 @llvm.ctlz.i64(i64, i1 immarg) #13

; Function Attrs: noreturn
declare void @_ZSt17__throw_bad_allocv() local_unnamed_addr #14

; Function Attrs: nobuiltin allocsize(0)
declare noundef nonnull ptr @_Znwm(i64 noundef) local_unnamed_addr #15

; Function Attrs: mustprogress uwtable
define linkonce_odr hidden noundef i64 @_ZN4absl12lts_2023080218container_internal12raw_hash_setINS1_17FlatHashSetPolicyIPKN6google8protobuf14FileDescriptorEEENS1_6HashEqIS8_vE4HashENSB_2EqESaIS8_EE14prepare_insertEm(ptr noundef nonnull align 8 dereferenceable(32) %this, i64 noundef %hash) local_unnamed_addr #3 comdat align 2 {
land.lhs.true:
  %tmp.i.i = alloca [8 x i8], align 8
  %call7 = tail call { i64, i64 } @_ZN4absl12lts_2023080218container_internal19find_first_non_fullIvEENS1_8FindInfoERKNS1_12CommonFieldsEm(ptr noundef nonnull align 8 dereferenceable(32) %this, i64 noundef %hash)
  %0 = extractvalue { i64, i64 } %call7, 0
  %1 = load ptr, ptr %this, align 8
  %add.ptr.i.i.i9 = getelementptr inbounds i8, ptr %1, i64 -8
  %2 = load i64, ptr %add.ptr.i.i.i9, align 8
  %cmp10 = icmp eq i64 %2, 0
  br i1 %cmp10, label %land.rhs, label %if.end16

land.rhs:                                         ; preds = %land.lhs.true
  %arrayidx = getelementptr inbounds i8, ptr %1, i64 %0
  %3 = load i8, ptr %arrayidx, align 1
  %cmp.i = icmp eq i8 %3, -2
  br i1 %cmp.i, label %if.end16, label %if.then13

if.then13:                                        ; preds = %land.rhs
  %capacity_.i.i.i = getelementptr inbounds %"class.absl::lts_20230802::container_internal::CommonFields", ptr %this, i64 0, i32 2
  %4 = load i64, ptr %capacity_.i.i.i, align 8
  %cmp.i10 = icmp ugt i64 %4, 16
  br i1 %cmp.i10, label %land.lhs.true.i, label %if.else.i

land.lhs.true.i:                                  ; preds = %if.then13
  %compressed_tuple_.i.i.i = getelementptr inbounds %"class.absl::lts_20230802::container_internal::CommonFields", ptr %this, i64 0, i32 3
  %5 = load i64, ptr %compressed_tuple_.i.i.i, align 8
  %mul.i11 = shl i64 %5, 5
  %mul3.i = mul i64 %4, 25
  %cmp4.not.i = icmp ugt i64 %mul.i11, %mul3.i
  br i1 %cmp4.not.i, label %if.else.i, label %if.then.i

if.then.i:                                        ; preds = %land.lhs.true.i
  call void @llvm.lifetime.start.p0(i64 8, ptr nonnull %tmp.i.i)
  call void @_ZN4absl12lts_2023080218container_internal24DropDeletesWithoutResizeERNS1_12CommonFieldsERKNS1_15PolicyFunctionsEPv(ptr noundef nonnull align 8 dereferenceable(32) %this, ptr noundef nonnull align 8 dereferenceable(32) @_ZZN4absl12lts_2023080218container_internal12raw_hash_setINS1_17FlatHashSetPolicyIPKN6google8protobuf14FileDescriptorEEENS1_6HashEqIS8_vE4HashENSB_2EqESaIS8_EE18GetPolicyFunctionsEvE5value, ptr noundef nonnull %tmp.i.i)
  call void @llvm.lifetime.end.p0(i64 8, ptr nonnull %tmp.i.i)
  br label %_ZN4absl12lts_2023080218container_internal12raw_hash_setINS1_17FlatHashSetPolicyIPKN6google8protobuf14FileDescriptorEEENS1_6HashEqIS8_vE4HashENSB_2EqESaIS8_EE28rehash_and_grow_if_necessaryEv.exit

if.else.i:                                        ; preds = %land.lhs.true.i, %if.then13
  %mul.i.i = shl i64 %4, 1
  %add.i.i = or disjoint i64 %mul.i.i, 1
  tail call void @_ZN4absl12lts_2023080218container_internal12raw_hash_setINS1_17FlatHashSetPolicyIPKN6google8protobuf14FileDescriptorEEENS1_6HashEqIS8_vE4HashENSB_2EqESaIS8_EE6resizeEm(ptr noundef nonnull align 8 dereferenceable(32) %this, i64 noundef %add.i.i)
  br label %_ZN4absl12lts_2023080218container_internal12raw_hash_setINS1_17FlatHashSetPolicyIPKN6google8protobuf14FileDescriptorEEENS1_6HashEqIS8_vE4HashENSB_2EqESaIS8_EE28rehash_and_grow_if_necessaryEv.exit

_ZN4absl12lts_2023080218container_internal12raw_hash_setINS1_17FlatHashSetPolicyIPKN6google8protobuf14FileDescriptorEEENS1_6HashEqIS8_vE4HashENSB_2EqESaIS8_EE28rehash_and_grow_if_necessaryEv.exit: ; preds = %if.then.i, %if.else.i
  %call15 = call { i64, i64 } @_ZN4absl12lts_2023080218container_internal19find_first_non_fullIvEENS1_8FindInfoERKNS1_12CommonFieldsEm(ptr noundef nonnull align 8 dereferenceable(32) %this, i64 noundef %hash)
  %6 = extractvalue { i64, i64 } %call15, 0
  %.pre = load ptr, ptr %this, align 8
  br label %if.end16

if.end16:                                         ; preds = %land.lhs.true, %_ZN4absl12lts_2023080218container_internal12raw_hash_setINS1_17FlatHashSetPolicyIPKN6google8protobuf14FileDescriptorEEENS1_6HashEqIS8_vE4HashENSB_2EqESaIS8_EE28rehash_and_grow_if_necessaryEv.exit, %land.rhs
  %7 = phi ptr [ %.pre, %_ZN4absl12lts_2023080218container_internal12raw_hash_setINS1_17FlatHashSetPolicyIPKN6google8protobuf14FileDescriptorEEENS1_6HashEqIS8_vE4HashENSB_2EqESaIS8_EE28rehash_and_grow_if_necessaryEv.exit ], [ %1, %land.rhs ], [ %1, %land.lhs.true ]
  %target.sroa.0.0 = phi i64 [ %6, %_ZN4absl12lts_2023080218container_internal12raw_hash_setINS1_17FlatHashSetPolicyIPKN6google8protobuf14FileDescriptorEEENS1_6HashEqIS8_vE4HashENSB_2EqESaIS8_EE28rehash_and_grow_if_necessaryEv.exit ], [ %0, %land.rhs ], [ %0, %land.lhs.true ]
  %compressed_tuple_.i = getelementptr inbounds %"class.absl::lts_20230802::container_internal::CommonFields", ptr %this, i64 0, i32 3
  %8 = load i64, ptr %compressed_tuple_.i, align 8
  %add = add i64 %8, 1
  store i64 %add, ptr %compressed_tuple_.i, align 8
  %add.ptr.i.i.i13 = getelementptr inbounds i8, ptr %7, i64 -8
  %9 = load i64, ptr %add.ptr.i.i.i13, align 8
  %arrayidx23 = getelementptr inbounds i8, ptr %7, i64 %target.sroa.0.0
  %10 = load i8, ptr %arrayidx23, align 1
  %cmp.i14 = icmp eq i8 %10, -128
  %conv.neg = sext i1 %cmp.i14 to i64
  %sub = add i64 %9, %conv.neg
  store i64 %sub, ptr %add.ptr.i.i.i13, align 8
  %11 = trunc i64 %hash to i8
  %conv.i = and i8 %11, 127
  %capacity_.i.i.i16 = getelementptr inbounds %"class.absl::lts_20230802::container_internal::CommonFields", ptr %this, i64 0, i32 2
  %12 = load i64, ptr %capacity_.i.i.i16, align 8
  %13 = load ptr, ptr %this, align 8
  %arrayidx.i.i = getelementptr inbounds i8, ptr %13, i64 %target.sroa.0.0
  store i8 %conv.i, ptr %arrayidx.i.i, align 1
  %sub.i.i = add i64 %target.sroa.0.0, -15
  %and.i.i = and i64 %12, %sub.i.i
  %and6.i.i = and i64 %12, 15
  %14 = getelementptr i8, ptr %13, i64 %and.i.i
  %arrayidx7.i.i = getelementptr i8, ptr %14, i64 %and6.i.i
  store i8 %conv.i, ptr %arrayidx7.i.i, align 1
  ret i64 %target.sroa.0.0
}

; Function Attrs: mustprogress nocallback nofree nosync nounwind willreturn memory(argmem: readwrite, inaccessiblemem: readwrite)
declare void @llvm.prefetch.p0(ptr nocapture readonly, i32 immarg, i32 immarg, i32 immarg) #16

; Function Attrs: mustprogress uwtable
define linkonce_odr hidden noundef i64 @_ZN4absl12lts_2023080213hash_internal15MixingHashState21CombineContiguousImplEmPKhmSt17integral_constantIiLi8EE(i64 noundef %state, ptr noundef %first, i64 noundef %len) local_unnamed_addr #3 comdat align 2 {
entry:
  %cmp = icmp ugt i64 %len, 16
  br i1 %cmp, label %if.then, label %if.else

if.then:                                          ; preds = %entry
  %cmp1 = icmp ugt i64 %len, 1024
  br i1 %cmp1, label %if.then2, label %if.end

if.then2:                                         ; preds = %if.then
  %call3 = tail call noundef i64 @_ZN4absl12lts_2023080213hash_internal15MixingHashState28CombineLargeContiguousImpl64EmPKhm(i64 noundef %state, ptr noundef %first, i64 noundef %len)
  br label %return

if.end:                                           ; preds = %if.then
  %call.i = tail call noundef i64 @_ZN4absl12lts_2023080213hash_internal15MixingHashState16LowLevelHashImplEPKhm(ptr noundef %first, i64 noundef %len)
  br label %if.end27

if.else:                                          ; preds = %entry
  %cmp5 = icmp ugt i64 %len, 8
  br i1 %cmp5, label %if.then6, label %if.else14

if.then6:                                         ; preds = %if.else
  %t.0.copyload.i.i = load i64, ptr %first, align 1
  %add.ptr.i = getelementptr inbounds i8, ptr %first, i64 %len
  %add.ptr1.i = getelementptr inbounds i8, ptr %add.ptr.i, i64 -8
  %t.0.copyload.i2.i = load i64, ptr %add.ptr1.i, align 1
  %or.i.i = tail call i64 @llvm.fshl.i64(i64 %t.0.copyload.i.i, i64 %t.0.copyload.i.i, i64 11)
  %add = add i64 %state, -7070675565921424023
  %add10 = add i64 %or.i.i, %add
  %xor = xor i64 %t.0.copyload.i2.i, %add
  %conv = zext i64 %xor to i128
  %conv11 = zext i64 %add10 to i128
  %mul = mul nuw i128 %conv, %conv11
  %shr = lshr i128 %mul, 64
  %xor12 = xor i128 %shr, %mul
  %conv13 = trunc i128 %xor12 to i64
  br label %return

if.else14:                                        ; preds = %if.else
  %cmp15 = icmp ugt i64 %len, 3
  br i1 %cmp15, label %if.then16, label %if.else18

if.then16:                                        ; preds = %if.else14
  %t.0.copyload.i.i26 = load i32, ptr %first, align 1
  %add.ptr.i27 = getelementptr inbounds i8, ptr %first, i64 %len
  %add.ptr1.i28 = getelementptr inbounds i8, ptr %add.ptr.i27, i64 -4
  %t.0.copyload.i3.i = load i32, ptr %add.ptr1.i28, align 1
  %conv.i29 = zext i32 %t.0.copyload.i3.i to i64
  %sub.i = shl nuw nsw i64 %len, 3
  %mul.i30 = add nsw i64 %sub.i, -32
  %shl.i = shl nuw i64 %conv.i29, %mul.i30
  %conv3.i = zext i32 %t.0.copyload.i.i26 to i64
  %or.i = or i64 %shl.i, %conv3.i
  br label %if.end27

if.else18:                                        ; preds = %if.else14
  %cmp19.not = icmp eq i64 %len, 0
  br i1 %cmp19.not, label %return, label %if.then20

if.then20:                                        ; preds = %if.else18
  %0 = load i8, ptr %first, align 1
  %div6.i = lshr i64 %len, 1
  %arrayidx1.i = getelementptr inbounds i8, ptr %first, i64 %div6.i
  %1 = load i8, ptr %arrayidx1.i, align 1
  %sub.i31 = add nsw i64 %len, -1
  %arrayidx2.i = getelementptr inbounds i8, ptr %first, i64 %sub.i31
  %2 = load i8, ptr %arrayidx2.i, align 1
  %conv.i32 = zext i8 %0 to i32
  %conv3.i33 = zext i8 %1 to i32
  %mul.i34 = shl nuw nsw i64 %div6.i, 3
  %sh_prom.i = trunc i64 %mul.i34 to i32
  %shl.i35 = shl nuw nsw i32 %conv3.i33, %sh_prom.i
  %or.i36 = or i32 %shl.i35, %conv.i32
  %conv5.i = zext i8 %2 to i32
  %sub.tr.i = trunc i64 %sub.i31 to i32
  %sh_prom8.i = shl nuw nsw i32 %sub.tr.i, 3
  %shl9.i = shl nuw nsw i32 %conv5.i, %sh_prom8.i
  %or10.i = or i32 %or.i36, %shl9.i
  %conv22 = zext nneg i32 %or10.i to i64
  br label %if.end27

if.end27:                                         ; preds = %if.then20, %if.then16, %if.end
  %v.0 = phi i64 [ %call.i, %if.end ], [ %or.i, %if.then16 ], [ %conv22, %if.then20 ]
  %add.i = add i64 %v.0, %state
  %conv.i = zext i64 %add.i to i128
  %mul.i = mul nuw i128 %conv.i, 11376068507788127593
  %shr.i = lshr i128 %mul.i, 64
  %xor.i = xor i128 %shr.i, %mul.i
  %conv1.i = trunc i128 %xor.i to i64
  br label %return

return:                                           ; preds = %if.else18, %if.end27, %if.then6, %if.then2
  %retval.0 = phi i64 [ %call3, %if.then2 ], [ %conv1.i, %if.end27 ], [ %conv13, %if.then6 ], [ %state, %if.else18 ]
  ret i64 %retval.0
}

declare noundef i64 @_ZN4absl12lts_2023080213hash_internal15MixingHashState28CombineLargeContiguousImpl64EmPKhm(i64 noundef, ptr noundef, i64 noundef) local_unnamed_addr #0

declare noundef i64 @_ZN4absl12lts_2023080213hash_internal15MixingHashState16LowLevelHashImplEPKhm(ptr noundef, i64 noundef) local_unnamed_addr #0

; Function Attrs: mustprogress nocallback nofree nosync nounwind willreturn memory(inaccessiblemem: write)
declare void @llvm.assume(i1 noundef) #17

; Function Attrs: mustprogress nocallback nofree nosync nounwind speculatable willreturn memory(none)
declare i32 @llvm.cttz.i32(i32, i1 immarg) #13

; Function Attrs: mustprogress uwtable
define linkonce_odr hidden void @_ZN4absl12lts_2023080218container_internal12raw_hash_setINS1_17FlatHashSetPolicyIPKN6google8protobuf14FileDescriptorEEENS1_6HashEqIS8_vE4HashENSB_2EqESaIS8_EE6resizeEm(ptr noundef nonnull align 8 dereferenceable(32) %this, i64 noundef %new_capacity) local_unnamed_addr #3 comdat align 2 personality ptr @__gxx_personality_v0 {
entry:
  %agg.tmp.i = alloca %"class.std::allocator", align 1
  %0 = load ptr, ptr %this, align 8
  %slots_.i.i = getelementptr inbounds %"class.absl::lts_20230802::container_internal::CommonFields", ptr %this, i64 0, i32 1
  %1 = load ptr, ptr %slots_.i.i, align 8
  %capacity_.i = getelementptr inbounds %"class.absl::lts_20230802::container_internal::CommonFields", ptr %this, i64 0, i32 2
  %2 = load i64, ptr %capacity_.i, align 8
  store i64 %new_capacity, ptr %capacity_.i, align 8
  call void @llvm.lifetime.start.p0(i64 1, ptr nonnull %agg.tmp.i)
  %sub.i.i.i.i = add i64 %new_capacity, 31
  %mul.i.i.i = shl i64 %new_capacity, 3
  %add.i.i.i = add i64 %sub.i.i.i.i, %mul.i.i.i
  %cmp.i.i.i.i.i = icmp slt i64 %add.i.i.i, 0
  br i1 %cmp.i.i.i.i.i, label %if.then.i.i.i.i.i, label %_ZN4absl12lts_2023080218container_internal8AllocateILm8ESaIcEEEPvPT0_m.exit.i.i

if.then.i.i.i.i.i:                                ; preds = %entry
  invoke void @_ZSt17__throw_bad_allocv() #29
          to label %.noexc.i unwind label %lpad.i

.noexc.i:                                         ; preds = %if.then.i.i.i.i.i
  unreachable

_ZN4absl12lts_2023080218container_internal8AllocateILm8ESaIcEEEPvPT0_m.exit.i.i: ; preds = %entry
  %div1.i.i.i = and i64 %add.i.i.i, 9223372036854775800
  %call5.i.i2.i.i1.i = invoke noalias noundef nonnull ptr @_Znwm(i64 noundef %div1.i.i.i) #30
          to label %_ZN4absl12lts_2023080218container_internal12raw_hash_setINS1_17FlatHashSetPolicyIPKN6google8protobuf14FileDescriptorEEENS1_6HashEqIS8_vE4HashENSB_2EqESaIS8_EE16initialize_slotsEv.exit unwind label %lpad.i

lpad.i:                                           ; preds = %_ZN4absl12lts_2023080218container_internal8AllocateILm8ESaIcEEEPvPT0_m.exit.i.i, %if.then.i.i.i.i.i
  %3 = landingpad { ptr, i32 }
          cleanup
  call void @_ZNSaIcED1Ev(ptr noundef nonnull align 1 dereferenceable(1) %agg.tmp.i) #24
  resume { ptr, i32 } %3

_ZN4absl12lts_2023080218container_internal12raw_hash_setINS1_17FlatHashSetPolicyIPKN6google8protobuf14FileDescriptorEEENS1_6HashEqIS8_vE4HashENSB_2EqESaIS8_EE16initialize_slotsEv.exit: ; preds = %_ZN4absl12lts_2023080218container_internal8AllocateILm8ESaIcEEEPvPT0_m.exit.i.i
  %and.i.i.i.i = and i64 %sub.i.i.i.i, -8
  %add.ptr8.i.i = getelementptr inbounds i8, ptr %call5.i.i2.i.i1.i, i64 8
  store ptr %add.ptr8.i.i, ptr %this, align 8
  %add.ptr10.i.i = getelementptr inbounds i8, ptr %call5.i.i2.i.i1.i, i64 %and.i.i.i.i
  store ptr %add.ptr10.i.i, ptr %slots_.i.i, align 8
  %add3.i19.i.i = add i64 %new_capacity, 16
  tail call void @llvm.memset.p0.i64(ptr nonnull align 1 %add.ptr8.i.i, i8 -128, i64 %add3.i19.i.i, i1 false)
  %arrayidx.i.i.i = getelementptr inbounds i8, ptr %add.ptr8.i.i, i64 %new_capacity
  store i8 -1, ptr %arrayidx.i.i.i, align 1
  %div2.i.i.i.i.i = lshr i64 %new_capacity, 3
  %compressed_tuple_.i.i.i.i.i = getelementptr inbounds %"class.absl::lts_20230802::container_internal::CommonFields", ptr %this, i64 0, i32 3
  %4 = load i64, ptr %compressed_tuple_.i.i.i.i.i, align 8
  %5 = add i64 %div2.i.i.i.i.i, %4
  %sub.i.i20.i.i = sub i64 %new_capacity, %5
  store i64 %sub.i.i20.i.i, ptr %call5.i.i2.i.i1.i, align 8
  call void @_ZNSaIcED1Ev(ptr noundef nonnull align 1 dereferenceable(1) %agg.tmp.i) #24
  call void @llvm.lifetime.end.p0(i64 1, ptr nonnull %agg.tmp.i)
  %6 = load ptr, ptr %slots_.i.i, align 8
  %cmp.not20 = icmp eq i64 %2, 0
  br i1 %cmp.not20, label %if.end23, label %for.body

for.body:                                         ; preds = %_ZN4absl12lts_2023080218container_internal12raw_hash_setINS1_17FlatHashSetPolicyIPKN6google8protobuf14FileDescriptorEEENS1_6HashEqIS8_vE4HashENSB_2EqESaIS8_EE16initialize_slotsEv.exit, %for.inc
  %i.021 = phi i64 [ %inc, %for.inc ], [ 0, %_ZN4absl12lts_2023080218container_internal12raw_hash_setINS1_17FlatHashSetPolicyIPKN6google8protobuf14FileDescriptorEEENS1_6HashEqIS8_vE4HashENSB_2EqESaIS8_EE16initialize_slotsEv.exit ]
  %arrayidx = getelementptr inbounds i8, ptr %0, i64 %i.021
  %7 = load i8, ptr %arrayidx, align 1
  %cmp.i = icmp sgt i8 %7, -1
  br i1 %cmp.i, label %if.then, label %for.inc

if.then:                                          ; preds = %for.body
  %add.ptr = getelementptr inbounds ptr, ptr %1, i64 %i.021
  %8 = load ptr, ptr %add.ptr, align 8
  %9 = ptrtoint ptr %8 to i64
  %add.i.i.i.i.i.i.i.i.i.i.i.i.i.i.i = add i64 %9, ptrtoint (ptr @_ZN4absl12lts_2023080213hash_internal15MixingHashState5kSeedE to i64)
  %conv.i.i.i.i.i.i.i.i.i.i.i.i.i.i.i = zext i64 %add.i.i.i.i.i.i.i.i.i.i.i.i.i.i.i to i128
  %mul.i.i.i.i.i.i.i.i.i.i.i.i.i.i.i = mul nuw i128 %conv.i.i.i.i.i.i.i.i.i.i.i.i.i.i.i, 11376068507788127593
  %shr.i.i.i.i.i.i.i.i.i.i.i.i.i.i.i = lshr i128 %mul.i.i.i.i.i.i.i.i.i.i.i.i.i.i.i, 64
  %xor.i.i.i.i.i.i.i.i.i.i.i.i.i.i.i = xor i128 %shr.i.i.i.i.i.i.i.i.i.i.i.i.i.i.i, %mul.i.i.i.i.i.i.i.i.i.i.i.i.i.i.i
  %conv1.i.i.i.i.i.i.i.i.i.i.i.i.i.i.i = trunc i128 %xor.i.i.i.i.i.i.i.i.i.i.i.i.i.i.i to i64
  %add.i.i.i.i.i.i.i.i.i.i.i.i.i.i.i.i = add i64 %conv1.i.i.i.i.i.i.i.i.i.i.i.i.i.i.i, %9
  %conv.i.i.i.i.i.i.i.i.i.i.i.i.i.i.i.i = zext i64 %add.i.i.i.i.i.i.i.i.i.i.i.i.i.i.i.i to i128
  %mul.i.i.i.i.i.i.i.i.i.i.i.i.i.i.i.i = mul nuw i128 %conv.i.i.i.i.i.i.i.i.i.i.i.i.i.i.i.i, 11376068507788127593
  %shr.i.i.i.i.i.i.i.i.i.i.i.i.i.i.i.i = lshr i128 %mul.i.i.i.i.i.i.i.i.i.i.i.i.i.i.i.i, 64
  %xor.i.i.i.i.i.i.i.i.i.i.i.i.i.i.i.i = xor i128 %shr.i.i.i.i.i.i.i.i.i.i.i.i.i.i.i.i, %mul.i.i.i.i.i.i.i.i.i.i.i.i.i.i.i.i
  %conv1.i.i.i.i.i.i.i.i.i.i.i.i.i.i.i.i = trunc i128 %xor.i.i.i.i.i.i.i.i.i.i.i.i.i.i.i.i to i64
  %call12 = call { i64, i64 } @_ZN4absl12lts_2023080218container_internal19find_first_non_fullIvEENS1_8FindInfoERKNS1_12CommonFieldsEm(ptr noundef nonnull align 8 dereferenceable(32) %this, i64 noundef %conv1.i.i.i.i.i.i.i.i.i.i.i.i.i.i.i.i)
  %10 = extractvalue { i64, i64 } %call12, 0
  %11 = trunc i128 %xor.i.i.i.i.i.i.i.i.i.i.i.i.i.i.i.i to i8
  %conv.i = and i8 %11, 127
  %12 = load i64, ptr %capacity_.i, align 8
  %13 = load ptr, ptr %this, align 8
  %arrayidx.i.i = getelementptr inbounds i8, ptr %13, i64 %10
  store i8 %conv.i, ptr %arrayidx.i.i, align 1
  %sub.i.i = add i64 %10, -15
  %and.i.i = and i64 %sub.i.i, %12
  %and6.i.i = and i64 %12, 15
  %14 = getelementptr i8, ptr %13, i64 %and.i.i
  %arrayidx7.i.i = getelementptr i8, ptr %14, i64 %and6.i.i
  store i8 %conv.i, ptr %arrayidx7.i.i, align 1
  %add.ptr16 = getelementptr inbounds ptr, ptr %6, i64 %10
  %15 = load i64, ptr %add.ptr, align 8
  store i64 %15, ptr %add.ptr16, align 1
  br label %for.inc

for.inc:                                          ; preds = %for.body, %if.then
  %inc = add nuw i64 %i.021, 1
  %cmp.not = icmp eq i64 %inc, %2
  br i1 %cmp.not, label %for.end, label %for.body, !llvm.loop !111

for.end:                                          ; preds = %for.inc
  br i1 %cmp.not20, label %if.end23, label %if.then18

if.then18:                                        ; preds = %for.end
  %add.ptr21 = getelementptr inbounds i8, ptr %0, i64 -8
  call void @_ZdlPv(ptr noundef nonnull %add.ptr21) #25
  br label %if.end23

if.end23:                                         ; preds = %_ZN4absl12lts_2023080218container_internal12raw_hash_setINS1_17FlatHashSetPolicyIPKN6google8protobuf14FileDescriptorEEENS1_6HashEqIS8_vE4HashENSB_2EqESaIS8_EE16initialize_slotsEv.exit, %if.then18, %for.end
  ret void
}

declare { i64, i64 } @_ZN4absl12lts_2023080218container_internal19find_first_non_fullIvEENS1_8FindInfoERKNS1_12CommonFieldsEm(ptr noundef nonnull align 8 dereferenceable(32), i64 noundef) local_unnamed_addr #0

; Function Attrs: nobuiltin nounwind
declare void @_ZdlPv(ptr noundef) local_unnamed_addr #18

declare void @_ZN4absl12lts_2023080218container_internal24DropDeletesWithoutResizeERNS1_12CommonFieldsERKNS1_15PolicyFunctionsEPv(ptr noundef nonnull align 8 dereferenceable(32), ptr noundef nonnull align 8 dereferenceable(32), ptr noundef) local_unnamed_addr #0

; Function Attrs: mustprogress uwtable
define linkonce_odr hidden noundef i64 @_ZN4absl12lts_2023080218container_internal12raw_hash_setINS1_17FlatHashSetPolicyIPKN6google8protobuf14FileDescriptorEEENS1_6HashEqIS8_vE4HashENSB_2EqESaIS8_EE12hash_slot_fnEPvSG_(ptr noundef %set, ptr noundef %slot) #3 comdat align 2 {
entry:
  %0 = load ptr, ptr %slot, align 8
  %1 = ptrtoint ptr %0 to i64
  %add.i.i.i.i.i.i.i.i.i.i.i.i.i.i.i = add i64 %1, ptrtoint (ptr @_ZN4absl12lts_2023080213hash_internal15MixingHashState5kSeedE to i64)
  %conv.i.i.i.i.i.i.i.i.i.i.i.i.i.i.i = zext i64 %add.i.i.i.i.i.i.i.i.i.i.i.i.i.i.i to i128
  %mul.i.i.i.i.i.i.i.i.i.i.i.i.i.i.i = mul nuw i128 %conv.i.i.i.i.i.i.i.i.i.i.i.i.i.i.i, 11376068507788127593
  %shr.i.i.i.i.i.i.i.i.i.i.i.i.i.i.i = lshr i128 %mul.i.i.i.i.i.i.i.i.i.i.i.i.i.i.i, 64
  %xor.i.i.i.i.i.i.i.i.i.i.i.i.i.i.i = xor i128 %shr.i.i.i.i.i.i.i.i.i.i.i.i.i.i.i, %mul.i.i.i.i.i.i.i.i.i.i.i.i.i.i.i
  %conv1.i.i.i.i.i.i.i.i.i.i.i.i.i.i.i = trunc i128 %xor.i.i.i.i.i.i.i.i.i.i.i.i.i.i.i to i64
  %add.i.i.i.i.i.i.i.i.i.i.i.i.i.i.i.i = add i64 %conv1.i.i.i.i.i.i.i.i.i.i.i.i.i.i.i, %1
  %conv.i.i.i.i.i.i.i.i.i.i.i.i.i.i.i.i = zext i64 %add.i.i.i.i.i.i.i.i.i.i.i.i.i.i.i.i to i128
  %mul.i.i.i.i.i.i.i.i.i.i.i.i.i.i.i.i = mul nuw i128 %conv.i.i.i.i.i.i.i.i.i.i.i.i.i.i.i.i, 11376068507788127593
  %shr.i.i.i.i.i.i.i.i.i.i.i.i.i.i.i.i = lshr i128 %mul.i.i.i.i.i.i.i.i.i.i.i.i.i.i.i.i, 64
  %xor.i.i.i.i.i.i.i.i.i.i.i.i.i.i.i.i = xor i128 %shr.i.i.i.i.i.i.i.i.i.i.i.i.i.i.i.i, %mul.i.i.i.i.i.i.i.i.i.i.i.i.i.i.i.i
  %conv1.i.i.i.i.i.i.i.i.i.i.i.i.i.i.i.i = trunc i128 %xor.i.i.i.i.i.i.i.i.i.i.i.i.i.i.i.i to i64
  ret i64 %conv1.i.i.i.i.i.i.i.i.i.i.i.i.i.i.i.i
}

; Function Attrs: mustprogress nounwind uwtable
define linkonce_odr hidden void @_ZN4absl12lts_2023080218container_internal19TransferRelocatableILm8EEEvPvS3_S3_(ptr noundef %0, ptr noundef %dst, ptr noundef %src) #8 comdat {
entry:
  %1 = load i64, ptr %src, align 1
  store i64 %1, ptr %dst, align 1
  ret void
}

; Function Attrs: mustprogress uwtable
define linkonce_odr hidden void @_ZN4absl12lts_2023080218container_internal18DeallocateStandardILm8EEEvRNS1_12CommonFieldsERKNS1_15PolicyFunctionsE(ptr noundef nonnull align 8 dereferenceable(32) %common, ptr noundef nonnull align 8 dereferenceable(32) %policy) #3 comdat personality ptr @__gxx_personality_v0 {
invoke.cont5:
  %alloc = alloca %"class.std::allocator", align 1
  call void @_ZNSaIcEC1Ev(ptr noundef nonnull align 1 dereferenceable(1) %alloc) #24
  %0 = load ptr, ptr %common, align 8
  %add.ptr.i = getelementptr inbounds i8, ptr %0, i64 -8
  call void @_ZdlPv(ptr noundef nonnull %add.ptr.i) #25
  call void @_ZNSaIcED1Ev(ptr noundef nonnull align 1 dereferenceable(1) %alloc) #24
  ret void
}

; Function Attrs: nounwind
declare void @_ZN6google8protobuf8compiler13CodeGeneratorD2Ev(ptr noundef nonnull align 8 dereferenceable(8)) unnamed_addr #1

; Function Attrs: nounwind
declare { i64, ptr } @_ZNSt7__cxx1112basic_stringIcSt11char_traitsIcESaIcEE17_S_to_string_viewESt17basic_string_viewIcS2_E(i64, ptr) local_unnamed_addr #1

; Function Attrs: nounwind
declare void @_ZNSt7__cxx1112basic_stringIcSt11char_traitsIcESaIcEE12__sv_wrapperC1ESt17basic_string_viewIcS2_E(ptr noundef nonnull align 8 dereferenceable(16), i64, ptr) unnamed_addr #1

declare void @_ZNSt7__cxx1112basic_stringIcSt11char_traitsIcESaIcEEC2ENS4_12__sv_wrapperERKS3_(ptr noundef nonnull align 8 dereferenceable(32), i64, ptr, ptr noundef nonnull align 1 dereferenceable(1)) unnamed_addr #0

declare noundef ptr @_ZNSt7__cxx1112basic_stringIcSt11char_traitsIcESaIcEE13_M_local_dataEv(ptr noundef nonnull align 8 dereferenceable(32)) local_unnamed_addr #0

declare void @_ZNSt7__cxx1112basic_stringIcSt11char_traitsIcESaIcEE12_Alloc_hiderC1EPcRKS3_(ptr noundef nonnull align 8 dereferenceable(8), ptr noundef, ptr noundef nonnull align 1 dereferenceable(1)) unnamed_addr #0

; Function Attrs: mustprogress uwtable
define linkonce_odr void @_ZNSt7__cxx1112basic_stringIcSt11char_traitsIcESaIcEE12_M_constructIPKcEEvT_S8_St20forward_iterator_tag(ptr noundef nonnull align 8 dereferenceable(32) %this, ptr noundef %__beg, ptr noundef %__end) local_unnamed_addr #3 comdat align 2 personality ptr @__gxx_personality_v0 {
entry:
  %__dnew = alloca i64, align 8
  %__guard = alloca %struct._Guard, align 8
  %sub.ptr.lhs.cast.i.i = ptrtoint ptr %__end to i64
  %sub.ptr.rhs.cast.i.i = ptrtoint ptr %__beg to i64
  %sub.ptr.sub.i.i = sub i64 %sub.ptr.lhs.cast.i.i, %sub.ptr.rhs.cast.i.i
  store i64 %sub.ptr.sub.i.i, ptr %__dnew, align 8
  %cmp = icmp ugt i64 %sub.ptr.sub.i.i, 15
  br i1 %cmp, label %if.then, label %if.else

if.then:                                          ; preds = %entry
  %call2 = call noundef ptr @_ZNSt7__cxx1112basic_stringIcSt11char_traitsIcESaIcEE9_M_createERmm(ptr noundef nonnull align 8 dereferenceable(32) %this, ptr noundef nonnull align 8 dereferenceable(8) %__dnew, i64 noundef 0)
  call void @_ZNSt7__cxx1112basic_stringIcSt11char_traitsIcESaIcEE7_M_dataEPc(ptr noundef nonnull align 8 dereferenceable(32) %this, ptr noundef %call2)
  %0 = load i64, ptr %__dnew, align 8
  call void @_ZNSt7__cxx1112basic_stringIcSt11char_traitsIcESaIcEE11_M_capacityEm(ptr noundef nonnull align 8 dereferenceable(32) %this, i64 noundef %0)
  br label %if.end

if.else:                                          ; preds = %entry
  %call.i = invoke noundef ptr @_ZNSt7__cxx1112basic_stringIcSt11char_traitsIcESaIcEE13_M_local_dataEv(ptr noundef nonnull align 8 dereferenceable(32) %this)
          to label %if.end unwind label %terminate.lpad.i

terminate.lpad.i:                                 ; preds = %if.else
  %1 = landingpad { ptr, i32 }
          catch ptr null
  %2 = extractvalue { ptr, i32 } %1, 0
  tail call void @__clang_call_terminate(ptr %2) #28
  unreachable

if.end:                                           ; preds = %if.else, %if.then
  store ptr %this, ptr %__guard, align 8
  %call4 = invoke noundef ptr @_ZNKSt7__cxx1112basic_stringIcSt11char_traitsIcESaIcEE7_M_dataEv(ptr noundef nonnull align 8 dereferenceable(32) %this)
          to label %invoke.cont unwind label %lpad

invoke.cont:                                      ; preds = %if.end
  call void @_ZNSt7__cxx1112basic_stringIcSt11char_traitsIcESaIcEE13_S_copy_charsEPcPKcS7_(ptr noundef %call4, ptr noundef %__beg, ptr noundef %__end) #24
  store ptr null, ptr %__guard, align 8
  %3 = load i64, ptr %__dnew, align 8
  invoke void @_ZNSt7__cxx1112basic_stringIcSt11char_traitsIcESaIcEE13_M_set_lengthEm(ptr noundef nonnull align 8 dereferenceable(32) %this, i64 noundef %3)
          to label %_ZZNSt7__cxx1112basic_stringIcSt11char_traitsIcESaIcEE12_M_constructIPKcEEvT_S8_St20forward_iterator_tagEN6_GuardD2Ev.exit unwind label %lpad

_ZZNSt7__cxx1112basic_stringIcSt11char_traitsIcESaIcEE12_M_constructIPKcEEvT_S8_St20forward_iterator_tagEN6_GuardD2Ev.exit: ; preds = %invoke.cont
  ret void

lpad:                                             ; preds = %invoke.cont, %if.end
  %4 = landingpad { ptr, i32 }
          cleanup
  call void @_ZZNSt7__cxx1112basic_stringIcSt11char_traitsIcESaIcEE12_M_constructIPKcEEvT_S8_St20forward_iterator_tagEN6_GuardD2Ev(ptr noundef nonnull align 8 dereferenceable(8) %__guard) #24
  resume { ptr, i32 } %4
}

declare void @_ZNSt7__cxx1112basic_stringIcSt11char_traitsIcESaIcEE7_M_dataEPc(ptr noundef nonnull align 8 dereferenceable(32), ptr noundef) local_unnamed_addr #0

declare noundef ptr @_ZNSt7__cxx1112basic_stringIcSt11char_traitsIcESaIcEE9_M_createERmm(ptr noundef nonnull align 8 dereferenceable(32), ptr noundef nonnull align 8 dereferenceable(8), i64 noundef) local_unnamed_addr #0

declare void @_ZNSt7__cxx1112basic_stringIcSt11char_traitsIcESaIcEE11_M_capacityEm(ptr noundef nonnull align 8 dereferenceable(32), i64 noundef) local_unnamed_addr #0

; Function Attrs: nounwind
declare void @_ZNSt7__cxx1112basic_stringIcSt11char_traitsIcESaIcEE13_S_copy_charsEPcPKcS7_(ptr noundef, ptr noundef, ptr noundef) local_unnamed_addr #1

declare noundef ptr @_ZNKSt7__cxx1112basic_stringIcSt11char_traitsIcESaIcEE7_M_dataEv(ptr noundef nonnull align 8 dereferenceable(32)) local_unnamed_addr #0

declare void @_ZNSt7__cxx1112basic_stringIcSt11char_traitsIcESaIcEE13_M_set_lengthEm(ptr noundef nonnull align 8 dereferenceable(32), i64 noundef) local_unnamed_addr #0

; Function Attrs: mustprogress nounwind uwtable
define linkonce_odr hidden void @_ZZNSt7__cxx1112basic_stringIcSt11char_traitsIcESaIcEE12_M_constructIPKcEEvT_S8_St20forward_iterator_tagEN6_GuardD2Ev(ptr noundef nonnull align 8 dereferenceable(8) %this) unnamed_addr #8 comdat align 2 personality ptr @__gxx_personality_v0 {
entry:
  %0 = load ptr, ptr %this, align 8
  %tobool.not = icmp eq ptr %0, null
  br i1 %tobool.not, label %if.end, label %if.then

if.then:                                          ; preds = %entry
  invoke void @_ZNSt7__cxx1112basic_stringIcSt11char_traitsIcESaIcEE10_M_disposeEv(ptr noundef nonnull align 8 dereferenceable(32) %0)
          to label %if.end unwind label %terminate.lpad

if.end:                                           ; preds = %if.then, %entry
  ret void

terminate.lpad:                                   ; preds = %if.then
  %1 = landingpad { ptr, i32 }
          catch ptr null
  %2 = extractvalue { ptr, i32 } %1, 0
  tail call void @__clang_call_terminate(ptr %2) #28
  unreachable
}

declare void @_ZNSt7__cxx1112basic_stringIcSt11char_traitsIcESaIcEE10_M_disposeEv(ptr noundef nonnull align 8 dereferenceable(32)) local_unnamed_addr #0

; Function Attrs: nounwind
declare void @_ZNSaIcED2Ev(ptr noundef nonnull align 1 dereferenceable(1)) unnamed_addr #1

; Function Attrs: mustprogress uwtable
define linkonce_odr hidden void @_ZN6google8protobuf2io7Printer5PrintIN4absl12lts_2023080213flat_hash_mapISt17basic_string_viewIcSt11char_traitsIcEESA_NS5_18container_internal10StringHashENSB_8StringEqESaISt4pairIKSA_SA_EEEEEEvRKT_SA_(ptr noundef nonnull align 8 dereferenceable(256) %this, ptr noundef nonnull align 8 dereferenceable(32) %vars, i64 %text.coerce0, ptr %text.coerce1) local_unnamed_addr #3 comdat align 2 personality ptr @__gxx_personality_v0 {
entry:
  %ref.tmp.i = alloca %class.anon.113, align 8
  %pop = alloca %"class.absl::lts_20230802::Cleanup", align 8
  %agg.tmp3 = alloca %"struct.google::protobuf::io::Printer::PrintOptions", align 8
  tail call void @llvm.experimental.noalias.scope.decl(metadata !112)
  call void @llvm.lifetime.start.p0(i64 8, ptr nonnull %ref.tmp.i)
  store ptr %vars, ptr %ref.tmp.i, align 8, !noalias !112
  %_M_finish.i.i = getelementptr inbounds %"class.google::protobuf::io::Printer", ptr %this, i64 0, i32 7, i32 0, i32 0, i32 0, i32 1
  %0 = load ptr, ptr %_M_finish.i.i, align 8, !noalias !112
  %_M_end_of_storage.i.i = getelementptr inbounds %"class.google::protobuf::io::Printer", ptr %this, i64 0, i32 7, i32 0, i32 0, i32 0, i32 2
  %1 = load ptr, ptr %_M_end_of_storage.i.i, align 8, !noalias !112
  %cmp.not.i.i = icmp eq ptr %0, %1
  br i1 %cmp.not.i.i, label %if.else.i.i, label %if.then.i.i

if.then.i.i:                                      ; preds = %entry
  %2 = ptrtoint ptr %vars to i64
  %_M_manager.i.i.i.i.i.i = getelementptr inbounds %"class.std::_Function_base", ptr %0, i64 0, i32 1
  %_M_invoker.i.i.i.i.i = getelementptr inbounds %"class.std::function.74", ptr %0, i64 0, i32 1
  %3 = getelementptr inbounds i8, ptr %0, i64 8
  store i64 0, ptr %3, align 8, !noalias !112
  store i64 %2, ptr %0, align 8, !noalias !112
  store ptr @_ZNSt17_Function_handlerIFSt8optionalIN6google8protobuf2io7Printer9ValueImplILb0EEEESt17basic_string_viewIcSt11char_traitsIcEEEZNS4_8WithVarsIN4absl12lts_2023080213flat_hash_mapISB_SB_NSF_18container_internal10StringHashENSH_8StringEqESaISt4pairIKSB_SB_EEEEEEDaPKT_EUlSB_E_E9_M_invokeERKSt9_Any_dataOSB_, ptr %_M_invoker.i.i.i.i.i, align 8, !noalias !112
  store ptr @_ZNSt17_Function_handlerIFSt8optionalIN6google8protobuf2io7Printer9ValueImplILb0EEEESt17basic_string_viewIcSt11char_traitsIcEEEZNS4_8WithVarsIN4absl12lts_2023080213flat_hash_mapISB_SB_NSF_18container_internal10StringHashENSH_8StringEqESaISt4pairIKSB_SB_EEEEEEDaPKT_EUlSB_E_E10_M_managerERSt9_Any_dataRKSU_St18_Manager_operation, ptr %_M_manager.i.i.i.i.i.i, align 8, !noalias !112
  %4 = load ptr, ptr %_M_finish.i.i, align 8, !noalias !112
  %incdec.ptr.i.i = getelementptr inbounds %"class.std::function.74", ptr %4, i64 1
  store ptr %incdec.ptr.i.i, ptr %_M_finish.i.i, align 8, !noalias !112
  br label %_ZN6google8protobuf2io7Printer8WithVarsIN4absl12lts_2023080213flat_hash_mapISt17basic_string_viewIcSt11char_traitsIcEESA_NS5_18container_internal10StringHashENSB_8StringEqESaISt4pairIKSA_SA_EEEEEEDaPKT_.exit

if.else.i.i:                                      ; preds = %entry
  %var_lookups_.i = getelementptr inbounds %"class.google::protobuf::io::Printer", ptr %this, i64 0, i32 7
  call void @_ZNSt6vectorISt8functionIFSt8optionalIN6google8protobuf2io7Printer9ValueImplILb0EEEESt17basic_string_viewIcSt11char_traitsIcEEEESaISE_EE17_M_realloc_insertIJZNS5_8WithVarsIN4absl12lts_2023080213flat_hash_mapISC_SC_NSK_18container_internal10StringHashENSM_8StringEqESaISt4pairIKSC_SC_EEEEEEDaPKT_EUlSC_E_EEEvN9__gnu_cxx17__normal_iteratorIPSE_SG_EEDpOT_(ptr noundef nonnull align 8 dereferenceable(24) %var_lookups_.i, ptr %0, ptr noundef nonnull align 8 dereferenceable(8) %ref.tmp.i), !noalias !112
  br label %_ZN6google8protobuf2io7Printer8WithVarsIN4absl12lts_2023080213flat_hash_mapISt17basic_string_viewIcSt11char_traitsIcEESA_NS5_18container_internal10StringHashENSB_8StringEqESaISt4pairIKSA_SA_EEEEEEDaPKT_.exit

_ZN6google8protobuf2io7Printer8WithVarsIN4absl12lts_2023080213flat_hash_mapISt17basic_string_viewIcSt11char_traitsIcEESA_NS5_18container_internal10StringHashENSB_8StringEqESaISt4pairIKSA_SA_EEEEEEDaPKT_.exit: ; preds = %if.then.i.i, %if.else.i.i
  %callback_buffer_.i.i.i.i.i = getelementptr inbounds %"class.absl::lts_20230802::cleanup_internal::Storage", ptr %pop, i64 0, i32 2
  store ptr %this, ptr %callback_buffer_.i.i.i.i.i, align 8, !alias.scope !115
  store i8 1, ptr %pop, align 8, !alias.scope !115
  call void @llvm.lifetime.end.p0(i64 8, ptr nonnull %ref.tmp.i)
  %opts.sroa.1.0.agg.tmp3.sroa_idx = getelementptr inbounds i8, ptr %agg.tmp3, i64 1
  store i32 65792, ptr %opts.sroa.1.0.agg.tmp3.sroa_idx, align 1
  %opts.sroa.4.0.agg.tmp3.sroa_idx = getelementptr inbounds i8, ptr %agg.tmp3, i64 5
  store <4 x i8> <i8 0, i8 1, i8 0, i8 1>, ptr %opts.sroa.4.0.agg.tmp3.sroa_idx, align 1
  invoke void @_ZN6google8protobuf2io7Printer9PrintImplESt17basic_string_viewIcSt11char_traitsIcEEN4absl12lts_202308024SpanIKNSt7__cxx1112basic_stringIcS5_SaIcEEEEENS2_12PrintOptionsE(ptr noundef nonnull align 8 dereferenceable(256) %this, i64 %text.coerce0, ptr %text.coerce1, ptr null, i64 0, ptr noundef nonnull byval(%"struct.google::protobuf::io::Printer::PrintOptions") align 8 %agg.tmp3)
          to label %if.then.i unwind label %lpad

if.then.i:                                        ; preds = %_ZN6google8protobuf2io7Printer8WithVarsIN4absl12lts_2023080213flat_hash_mapISt17basic_string_viewIcSt11char_traitsIcEESA_NS5_18container_internal10StringHashENSB_8StringEqESaISt4pairIKSA_SA_EEEEEEDaPKT_.exit
  %5 = load ptr, ptr %_M_finish.i.i, align 8
  %incdec.ptr.i.i.i.i = getelementptr inbounds %"class.std::function.74", ptr %5, i64 -1
  store ptr %incdec.ptr.i.i.i.i, ptr %_M_finish.i.i, align 8
  %_M_manager.i.i.i.i.i.i.i.i = getelementptr %"class.std::function.74", ptr %5, i64 -1, i32 0, i32 1
  %6 = load ptr, ptr %_M_manager.i.i.i.i.i.i.i.i, align 8
  %tobool.not.i.i.i.i.i.i.i.i = icmp eq ptr %6, null
  br i1 %tobool.not.i.i.i.i.i.i.i.i, label %_ZN4absl12lts_202308027CleanupINS0_16cleanup_internal3TagEZN6google8protobuf2io7Printer8WithVarsINS0_13flat_hash_mapISt17basic_string_viewIcSt11char_traitsIcEESD_NS0_18container_internal10StringHashENSE_8StringEqESaISt4pairIKSD_SD_EEEEEEDaPKT_EUlvE_ED2Ev.exit, label %if.then.i.i.i.i.i.i.i.i

if.then.i.i.i.i.i.i.i.i:                          ; preds = %if.then.i
  %call.i.i.i.i.i.i.i.i = invoke noundef zeroext i1 %6(ptr noundef nonnull align 8 dereferenceable(16) %incdec.ptr.i.i.i.i, ptr noundef nonnull align 8 dereferenceable(16) %incdec.ptr.i.i.i.i, i32 noundef 3)
          to label %_ZN4absl12lts_202308027CleanupINS0_16cleanup_internal3TagEZN6google8protobuf2io7Printer8WithVarsINS0_13flat_hash_mapISt17basic_string_viewIcSt11char_traitsIcEESD_NS0_18container_internal10StringHashENSE_8StringEqESaISt4pairIKSD_SD_EEEEEEDaPKT_EUlvE_ED2Ev.exit unwind label %terminate.lpad.i.i.i.i.i.i.i.i

terminate.lpad.i.i.i.i.i.i.i.i:                   ; preds = %if.then.i.i.i.i.i.i.i.i
  %7 = landingpad { ptr, i32 }
          catch ptr null
  %8 = extractvalue { ptr, i32 } %7, 0
  call void @__clang_call_terminate(ptr %8) #28
  unreachable

_ZN4absl12lts_202308027CleanupINS0_16cleanup_internal3TagEZN6google8protobuf2io7Printer8WithVarsINS0_13flat_hash_mapISt17basic_string_viewIcSt11char_traitsIcEESD_NS0_18container_internal10StringHashENSE_8StringEqESaISt4pairIKSD_SD_EEEEEEDaPKT_EUlvE_ED2Ev.exit: ; preds = %if.then.i, %if.then.i.i.i.i.i.i.i.i
  ret void

lpad:                                             ; preds = %_ZN6google8protobuf2io7Printer8WithVarsIN4absl12lts_2023080213flat_hash_mapISt17basic_string_viewIcSt11char_traitsIcEESA_NS5_18container_internal10StringHashENSB_8StringEqESaISt4pairIKSA_SA_EEEEEEDaPKT_.exit
  %9 = landingpad { ptr, i32 }
          cleanup
  call void @_ZN4absl12lts_202308027CleanupINS0_16cleanup_internal3TagEZN6google8protobuf2io7Printer8WithVarsINS0_13flat_hash_mapISt17basic_string_viewIcSt11char_traitsIcEESD_NS0_18container_internal10StringHashENSE_8StringEqESaISt4pairIKSD_SD_EEEEEEDaPKT_EUlvE_ED2Ev(ptr noundef nonnull align 8 dereferenceable(16) %pop) #24
  resume { ptr, i32 } %9
}

; Function Attrs: mustprogress uwtable
define linkonce_odr hidden void @_ZN4absl12lts_2023080218container_internal12raw_hash_setINS1_17FlatHashMapPolicyISt17basic_string_viewIcSt11char_traitsIcEES7_EENS1_10StringHashENS1_8StringEqESaISt4pairIKS7_S7_EEE6resizeEm(ptr noundef nonnull align 8 dereferenceable(32) %this, i64 noundef %new_capacity) local_unnamed_addr #3 comdat align 2 personality ptr @__gxx_personality_v0 {
entry:
  %agg.tmp.i = alloca %"class.std::allocator", align 1
  %0 = load ptr, ptr %this, align 8
  %slots_.i.i = getelementptr inbounds %"class.absl::lts_20230802::container_internal::CommonFields", ptr %this, i64 0, i32 1
  %1 = load ptr, ptr %slots_.i.i, align 8
  %capacity_.i = getelementptr inbounds %"class.absl::lts_20230802::container_internal::CommonFields", ptr %this, i64 0, i32 2
  %2 = load i64, ptr %capacity_.i, align 8
  store i64 %new_capacity, ptr %capacity_.i, align 8
  call void @llvm.lifetime.start.p0(i64 1, ptr nonnull %agg.tmp.i)
  %sub.i.i.i.i = add i64 %new_capacity, 31
  %mul.i.i.i = shl i64 %new_capacity, 5
  %add.i.i.i = add i64 %sub.i.i.i.i, %mul.i.i.i
  %cmp.i.i.i.i.i = icmp slt i64 %add.i.i.i, 0
  br i1 %cmp.i.i.i.i.i, label %if.then.i.i.i.i.i, label %_ZN4absl12lts_2023080218container_internal8AllocateILm8ESaIcEEEPvPT0_m.exit.i.i

if.then.i.i.i.i.i:                                ; preds = %entry
  invoke void @_ZSt17__throw_bad_allocv() #29
          to label %.noexc.i unwind label %lpad.i

.noexc.i:                                         ; preds = %if.then.i.i.i.i.i
  unreachable

_ZN4absl12lts_2023080218container_internal8AllocateILm8ESaIcEEEPvPT0_m.exit.i.i: ; preds = %entry
  %div1.i.i.i = and i64 %add.i.i.i, 9223372036854775800
