; ModuleID = 'bench/abseil-cpp/original/beta_distribution_test.cc.ll'
source_filename = "bench/abseil-cpp/original/beta_distribution_test.cc.ll"
target datalayout = "e-m:e-p270:32:32-p271:32:32-p272:64:64-i64:64-i128:128-f80:128-n8:16:32:64-S128"
target triple = "x86_64-unknown-linux-gnu"

%"class.std::ios_base::Init" = type { i8 }
%"class.std::basic_ostream" = type { ptr, %"class.std::basic_ios" }
%"class.std::basic_ios" = type { %"class.std::ios_base", ptr, i8, i8, ptr, ptr, ptr, ptr }
%"class.std::ios_base" = type { ptr, i64, i64, i32, i32, i32, ptr, %"struct.std::ios_base::_Words", [8 x %"struct.std::ios_base::_Words"], i32, ptr, %"class.std::locale" }
%"struct.std::ios_base::_Words" = type { ptr, i64 }
%"class.std::locale" = type { ptr }
%"struct.testing::internal::MatcherBase<const unsigned long &>::VTable" = type { ptr, ptr, ptr, ptr }
%"struct.testing::internal::MatcherBase<const std::vector<unsigned long> &>::VTable" = type { ptr, ptr, ptr, ptr }
%"struct.std::_Vector_base<std::__cxx11::basic_string<char>, std::allocator<std::__cxx11::basic_string<char>>>::_Vector_impl_data" = type { ptr, ptr, ptr }
%"class.std::__cxx11::basic_string" = type { %"struct.std::__cxx11::basic_string<char>::_Alloc_hider", i64, %union.anon }
%"struct.std::__cxx11::basic_string<char>::_Alloc_hider" = type { ptr }
%union.anon = type { i64, [8 x i8] }
%"class.std::allocator" = type { i8 }
%"class.testing::internal::GTestLog" = type { i32 }
%"struct.testing::internal::CodeLocation" = type <{ %"class.std::__cxx11::basic_string", i32, [4 x i8] }>
%"struct.std::_Vector_base<testing::internal::ParameterizedTestSuiteInfoBase *, std::allocator<testing::internal::ParameterizedTestSuiteInfoBase *>>::_Vector_impl_data" = type { ptr, ptr, ptr }
%"class.testing::internal::ParameterizedTestSuiteInfo" = type { %"class.testing::internal::ParameterizedTestSuiteInfoBase", %"class.std::__cxx11::basic_string", %"struct.testing::internal::CodeLocation", %"class.std::vector.3", %"class.std::vector.8" }
%"class.testing::internal::ParameterizedTestSuiteInfoBase" = type { ptr }
%"class.std::vector.3" = type { %"struct.std::_Vector_base.4" }
%"struct.std::_Vector_base.4" = type { %"struct.std::_Vector_base<std::shared_ptr<testing::internal::ParameterizedTestSuiteInfo<(anonymous namespace)::BetaDistributionTest>::TestInfo>, std::allocator<std::shared_ptr<testing::internal::ParameterizedTestSuiteInfo<(anonymous namespace)::BetaDistributionTest>::TestInfo>>>::_Vector_impl" }
%"struct.std::_Vector_base<std::shared_ptr<testing::internal::ParameterizedTestSuiteInfo<(anonymous namespace)::BetaDistributionTest>::TestInfo>, std::allocator<std::shared_ptr<testing::internal::ParameterizedTestSuiteInfo<(anonymous namespace)::BetaDistributionTest>::TestInfo>>>::_Vector_impl" = type { %"struct.std::_Vector_base<std::shared_ptr<testing::internal::ParameterizedTestSuiteInfo<(anonymous namespace)::BetaDistributionTest>::TestInfo>, std::allocator<std::shared_ptr<testing::internal::ParameterizedTestSuiteInfo<(anonymous namespace)::BetaDistributionTest>::TestInfo>>>::_Vector_impl_data" }
%"struct.std::_Vector_base<std::shared_ptr<testing::internal::ParameterizedTestSuiteInfo<(anonymous namespace)::BetaDistributionTest>::TestInfo>, std::allocator<std::shared_ptr<testing::internal::ParameterizedTestSuiteInfo<(anonymous namespace)::BetaDistributionTest>::TestInfo>>>::_Vector_impl_data" = type { ptr, ptr, ptr }
%"class.std::vector.8" = type { %"struct.std::_Vector_base.9" }
%"struct.std::_Vector_base.9" = type { %"struct.std::_Vector_base<testing::internal::ParameterizedTestSuiteInfo<(anonymous namespace)::BetaDistributionTest>::InstantiationInfo, std::allocator<testing::internal::ParameterizedTestSuiteInfo<(anonymous namespace)::BetaDistributionTest>::InstantiationInfo>>::_Vector_impl" }
%"struct.std::_Vector_base<testing::internal::ParameterizedTestSuiteInfo<(anonymous namespace)::BetaDistributionTest>::InstantiationInfo, std::allocator<testing::internal::ParameterizedTestSuiteInfo<(anonymous namespace)::BetaDistributionTest>::InstantiationInfo>>::_Vector_impl" = type { %"struct.std::_Vector_base<testing::internal::ParameterizedTestSuiteInfo<(anonymous namespace)::BetaDistributionTest>::InstantiationInfo, std::allocator<testing::internal::ParameterizedTestSuiteInfo<(anonymous namespace)::BetaDistributionTest>::InstantiationInfo>>::_Vector_impl_data" }
%"struct.std::_Vector_base<testing::internal::ParameterizedTestSuiteInfo<(anonymous namespace)::BetaDistributionTest>::InstantiationInfo, std::allocator<testing::internal::ParameterizedTestSuiteInfo<(anonymous namespace)::BetaDistributionTest>::InstantiationInfo>>::_Vector_impl_data" = type { ptr, ptr, ptr }
%"struct.testing::internal::ParameterizedTestSuiteInfo<(anonymous namespace)::BetaDistributionTest>::InstantiationInfo" = type <{ %"class.std::__cxx11::basic_string", ptr, ptr, ptr, i32, [4 x i8] }>
%"class.testing::internal::ParamGenerator" = type { %"class.std::shared_ptr" }
%"class.std::shared_ptr" = type { %"class.std::__shared_ptr" }
%"class.std::__shared_ptr" = type { ptr, %"class.std::__shared_count" }
%"class.std::__shared_count" = type { ptr }
%"class.testing::internal::CartesianProductHolder" = type { %"class.std::tuple.80" }
%"class.std::tuple.80" = type { %"struct.std::_Tuple_impl.81" }
%"struct.std::_Tuple_impl.81" = type { %"struct.std::_Tuple_impl.82", %"struct.std::_Head_base.90" }
%"struct.std::_Tuple_impl.82" = type { %"struct.std::_Head_base.83" }
%"struct.std::_Head_base.83" = type { %"class.testing::internal::ValueArray" }
%"class.testing::internal::ValueArray" = type { %"class.testing::internal::FlatTuple" }
%"class.testing::internal::FlatTuple" = type { %"struct.testing::internal::FlatTupleBase" }
%"struct.testing::internal::FlatTupleBase" = type { %"struct.testing::internal::FlatTupleElemBase", %"struct.testing::internal::FlatTupleElemBase.84", %"struct.testing::internal::FlatTupleElemBase.85", %"struct.testing::internal::FlatTupleElemBase.86", %"struct.testing::internal::FlatTupleElemBase.87", %"struct.testing::internal::FlatTupleElemBase.88", %"struct.testing::internal::FlatTupleElemBase.89" }
%"struct.testing::internal::FlatTupleElemBase" = type { double }
%"struct.testing::internal::FlatTupleElemBase.84" = type { double }
%"struct.testing::internal::FlatTupleElemBase.85" = type { double }
%"struct.testing::internal::FlatTupleElemBase.86" = type { double }
%"struct.testing::internal::FlatTupleElemBase.87" = type { double }
%"struct.testing::internal::FlatTupleElemBase.88" = type { double }
%"struct.testing::internal::FlatTupleElemBase.89" = type { double }
%"struct.std::_Head_base.90" = type { %"class.testing::internal::ValueArray" }
%"class.std::_Sp_counted_base" = type { ptr, i32, i32 }
%"struct.testing::internal::ParameterizedTestSuiteInfo<(anonymous namespace)::BetaDistributionTest>::TestInfo" = type { %"class.std::__cxx11::basic_string", %"class.std::__cxx11::basic_string", %"class.std::unique_ptr", %"struct.testing::internal::CodeLocation" }
%"class.std::unique_ptr" = type { %"struct.std::__uniq_ptr_data" }
%"struct.std::__uniq_ptr_data" = type { %"class.std::__uniq_ptr_impl" }
%"class.std::__uniq_ptr_impl" = type { %"class.std::tuple" }
%"class.std::tuple" = type { %"struct.std::_Tuple_impl" }
%"struct.std::_Tuple_impl" = type { %"struct.std::_Head_base.23" }
%"struct.std::_Head_base.23" = type { ptr }
%"class.std::_Sp_counted_ptr" = type { %"class.std::_Sp_counted_base", ptr }
%"class.testing::internal::ParameterizedTestFactory" = type { %"class.testing::internal::TestFactoryBase", %"class.std::tuple.24" }
%"class.testing::internal::TestFactoryBase" = type { ptr }
%"class.std::tuple.24" = type { %"struct.std::_Tuple_impl.25" }
%"struct.std::_Tuple_impl.25" = type { %"struct.std::_Tuple_impl.26", %"struct.std::_Head_base.28" }
%"struct.std::_Tuple_impl.26" = type { %"struct.std::_Head_base.27" }
%"struct.std::_Head_base.27" = type { double }
%"struct.std::_Head_base.28" = type { double }
%"class.(anonymous namespace)::BetaDistributionTest" = type { %"class.testing::TestWithParam", %"class.(anonymous namespace)::BetaDistributionModel", [8 x i8], %"class.absl::random_internal::NonsecureURBGBase" }
%"class.testing::TestWithParam" = type { %"class.testing::Test", %"class.testing::WithParamInterface" }
%"class.testing::Test" = type { ptr, %"class.std::unique_ptr.29" }
%"class.std::unique_ptr.29" = type { %"struct.std::__uniq_ptr_data.30" }
%"struct.std::__uniq_ptr_data.30" = type { %"class.std::__uniq_ptr_impl.31" }
%"class.std::__uniq_ptr_impl.31" = type { %"class.std::tuple.32" }
%"class.std::tuple.32" = type { %"struct.std::_Tuple_impl.33" }
%"struct.std::_Tuple_impl.33" = type { %"struct.std::_Head_base.36" }
%"struct.std::_Head_base.36" = type { ptr }
%"class.testing::WithParamInterface" = type { ptr }
%"class.(anonymous namespace)::BetaDistributionModel" = type { double, double }
%"class.absl::random_internal::NonsecureURBGBase" = type { %"class.absl::random_internal::pcg_engine" }
%"class.absl::random_internal::pcg_engine" = type { %"class.absl::uint128" }
%"class.absl::uint128" = type { i64, i64 }
%"class.testing::AssertionResult" = type { i8, %"class.std::unique_ptr.37" }
%"class.std::unique_ptr.37" = type { %"struct.std::__uniq_ptr_data.38" }
%"struct.std::__uniq_ptr_data.38" = type { %"class.std::__uniq_ptr_impl.39" }
%"class.std::__uniq_ptr_impl.39" = type { %"class.std::tuple.40" }
%"class.std::tuple.40" = type { %"struct.std::_Tuple_impl.41" }
%"struct.std::_Tuple_impl.41" = type { %"struct.std::_Head_base.44" }
%"struct.std::_Head_base.44" = type { ptr }
%"class.testing::Message" = type { %"class.std::unique_ptr.45" }
%"class.std::unique_ptr.45" = type { %"struct.std::__uniq_ptr_data.46" }
%"struct.std::__uniq_ptr_data.46" = type { %"class.std::__uniq_ptr_impl.47" }
%"class.std::__uniq_ptr_impl.47" = type { %"class.std::tuple.48" }
%"class.std::tuple.48" = type { %"struct.std::_Tuple_impl.49" }
%"struct.std::_Tuple_impl.49" = type { %"struct.std::_Head_base.52" }
%"struct.std::_Head_base.52" = type { ptr }
%"class.testing::internal::AssertHelper" = type { ptr }
%"class.absl::beta_distribution" = type { %"class.absl::beta_distribution<>::param_type", %"class.absl::random_internal::FastUniformBits", [7 x i8] }
%"class.absl::beta_distribution<>::param_type" = type <{ double, double, double, double, double, double, double, double, i32, i8, [3 x i8] }>
%"class.absl::random_internal::FastUniformBits" = type { i8 }
%"class.absl::log_internal::LogMessage" = type { %"class.absl::base_internal::ErrnoSaver", %"class.std::unique_ptr.59" }
%"class.absl::base_internal::ErrnoSaver" = type { i32 }
%"class.std::unique_ptr.59" = type { %"struct.std::__uniq_ptr_data.60" }
%"struct.std::__uniq_ptr_data.60" = type { %"class.std::__uniq_ptr_impl.61" }
%"class.std::__uniq_ptr_impl.61" = type { %"class.std::tuple.62" }
%"class.std::tuple.62" = type { %"struct.std::_Tuple_impl.63" }
%"struct.std::_Tuple_impl.63" = type { %"struct.std::_Head_base.66" }
%"struct.std::_Head_base.66" = type { ptr }
%"struct.absl::random_internal::DistributionMoments" = type { i64, double, double, double, double }
%"class.std::__cxx11::basic_stringstream" = type { %"class.std::basic_iostream.base", %"class.std::__cxx11::basic_stringbuf", %"class.std::basic_ios" }
%"class.std::basic_iostream.base" = type { %"class.std::basic_istream.base", %"class.std::basic_ostream.base" }
%"class.std::basic_istream.base" = type { ptr, i64 }
%"class.std::basic_ostream.base" = type { ptr }
%"class.std::__cxx11::basic_stringbuf" = type { %"class.std::basic_streambuf", i32, %"class.std::__cxx11::basic_string" }
%"class.std::basic_streambuf" = type { ptr, ptr, ptr, ptr, ptr, ptr, ptr, %"class.std::locale" }
%"class.std::tuple.91" = type { %"struct.std::_Tuple_impl.92" }
%"struct.std::_Tuple_impl.92" = type { %"struct.std::_Tuple_impl.93", %"struct.std::_Head_base.99" }
%"struct.std::_Tuple_impl.93" = type { %"struct.std::_Head_base.94" }
%"struct.std::_Head_base.94" = type { %"class.testing::internal::ParamGenerator.95" }
%"class.testing::internal::ParamGenerator.95" = type { %"class.std::shared_ptr.96" }
%"class.std::shared_ptr.96" = type { %"class.std::__shared_ptr.97" }
%"class.std::__shared_ptr.97" = type { ptr, %"class.std::__shared_count" }
%"struct.std::_Head_base.99" = type { %"class.testing::internal::ParamGenerator.95" }
%"class.testing::internal::CartesianProductGenerator" = type { %"class.testing::internal::ParamGeneratorInterface", %"class.std::tuple.91" }
%"class.testing::internal::ParamGeneratorInterface" = type { ptr }
%"class.std::_Sp_counted_ptr.135" = type { %"class.std::_Sp_counted_base", ptr }
%"class.testing::internal::ValuesInIteratorRangeGenerator" = type { %"class.testing::internal::ParamGeneratorInterface.100", %"class.std::vector.53" }
%"class.testing::internal::ParamGeneratorInterface.100" = type { ptr }
%"class.std::vector.53" = type { %"struct.std::_Vector_base.54" }
%"struct.std::_Vector_base.54" = type { %"struct.std::_Vector_base<double, std::allocator<double>>::_Vector_impl" }
%"struct.std::_Vector_base<double, std::allocator<double>>::_Vector_impl" = type { %"struct.std::_Vector_base<double, std::allocator<double>>::_Vector_impl_data" }
%"struct.std::_Vector_base<double, std::allocator<double>>::_Vector_impl_data" = type { ptr, ptr, ptr }
%"class.std::_Sp_counted_ptr.111" = type { %"class.std::_Sp_counted_base", ptr }
%"class.testing::internal::ValuesInIteratorRangeGenerator<double>::Iterator" = type { %"class.testing::internal::ParamIteratorInterface", ptr, %"class.__gnu_cxx::__normal_iterator.77", %"class.std::unique_ptr.101" }
%"class.testing::internal::ParamIteratorInterface" = type { ptr }
%"class.__gnu_cxx::__normal_iterator.77" = type { ptr }
%"class.std::unique_ptr.101" = type { %"struct.std::__uniq_ptr_data.102" }
%"struct.std::__uniq_ptr_data.102" = type { %"class.std::__uniq_ptr_impl.103" }
%"class.std::__uniq_ptr_impl.103" = type { %"class.std::tuple.104" }
%"class.std::tuple.104" = type { %"struct.std::_Tuple_impl.105" }
%"struct.std::_Tuple_impl.105" = type { %"struct.std::_Head_base.108" }
%"struct.std::_Head_base.108" = type { ptr }
%"class.testing::internal::CartesianProductGenerator<double, double>::IteratorImpl" = type { %"class.testing::internal::ParamIteratorInterface.112", ptr, %"class.std::tuple.113", %"class.std::tuple.113", %"class.std::tuple.113", %"class.std::shared_ptr.126" }
%"class.testing::internal::ParamIteratorInterface.112" = type { ptr }
%"class.std::tuple.113" = type { %"struct.std::_Tuple_impl.114" }
%"struct.std::_Tuple_impl.114" = type { %"struct.std::_Tuple_impl.115", %"struct.std::_Head_base.125" }
%"struct.std::_Tuple_impl.115" = type { %"struct.std::_Head_base.116" }
%"struct.std::_Head_base.116" = type { %"class.testing::internal::ParamIterator" }
%"class.testing::internal::ParamIterator" = type { %"class.std::unique_ptr.117" }
%"class.std::unique_ptr.117" = type { %"struct.std::__uniq_ptr_data.118" }
%"struct.std::__uniq_ptr_data.118" = type { %"class.std::__uniq_ptr_impl.119" }
%"class.std::__uniq_ptr_impl.119" = type { %"class.std::tuple.120" }
%"class.std::tuple.120" = type { %"struct.std::_Tuple_impl.121" }
%"struct.std::_Tuple_impl.121" = type { %"struct.std::_Head_base.124" }
%"struct.std::_Head_base.124" = type { ptr }
%"struct.std::_Head_base.125" = type { %"class.testing::internal::ParamIterator" }
%"class.std::shared_ptr.126" = type { %"class.std::__shared_ptr.127" }
%"class.std::__shared_ptr.127" = type { ptr, %"class.std::__shared_count" }
%"class.std::_Sp_counted_ptr_inplace" = type { %"class.std::_Sp_counted_base", %"class.std::_Sp_counted_ptr_inplace<std::tuple<double, double>, std::allocator<void>, __gnu_cxx::_S_atomic>::_Impl" }
%"class.std::_Sp_counted_ptr_inplace<std::tuple<double, double>, std::allocator<void>, __gnu_cxx::_S_atomic>::_Impl" = type { %"struct.__gnu_cxx::__aligned_buffer" }
%"struct.__gnu_cxx::__aligned_buffer" = type { %"union.std::aligned_storage<16, 8>::type" }
%"union.std::aligned_storage<16, 8>::type" = type { [16 x i8] }
%"class.std::type_info" = type { ptr, ptr }
%"class.absl::AlphaNum" = type { %"class.std::basic_string_view", [32 x i8] }
%"class.std::basic_string_view" = type { i64, ptr }
%"struct.std::pair" = type { %"class.std::basic_string_view", %"class.std::basic_string_view" }
%"class.testing::internal::ValuesInIteratorRangeGenerator.166" = type { %"class.testing::internal::ParamGeneratorInterface", %"class.std::vector.159" }
%"class.std::vector.159" = type { %"struct.std::_Vector_base.160" }
%"struct.std::_Vector_base.160" = type { %"struct.std::_Vector_base<std::tuple<double, double>, std::allocator<std::tuple<double, double>>>::_Vector_impl" }
%"struct.std::_Vector_base<std::tuple<double, double>, std::allocator<std::tuple<double, double>>>::_Vector_impl" = type { %"struct.std::_Vector_base<std::tuple<double, double>, std::allocator<std::tuple<double, double>>>::_Vector_impl_data" }
%"struct.std::_Vector_base<std::tuple<double, double>, std::allocator<std::tuple<double, double>>>::_Vector_impl_data" = type { ptr, ptr, ptr }
%"class.testing::internal::ValuesInIteratorRangeGenerator<std::tuple<double, double>>::Iterator" = type { %"class.testing::internal::ParamIteratorInterface.112", ptr, %"class.__gnu_cxx::__normal_iterator.165", %"class.std::unique_ptr.167" }
%"class.__gnu_cxx::__normal_iterator.165" = type { ptr }
%"class.std::unique_ptr.167" = type { %"struct.std::__uniq_ptr_data.168" }
%"struct.std::__uniq_ptr_data.168" = type { %"class.std::__uniq_ptr_impl.169" }
%"class.std::__uniq_ptr_impl.169" = type { %"class.std::tuple.170" }
%"class.std::tuple.170" = type { %"struct.std::_Tuple_impl.171" }
%"struct.std::_Tuple_impl.171" = type { %"struct.std::_Head_base.174" }
%"struct.std::_Head_base.174" = type { ptr }
%"class.absl::random_internal::sequence_urbg" = type { i64, %"class.std::vector.181" }
%"class.std::vector.181" = type { %"struct.std::_Vector_base.182" }
%"struct.std::_Vector_base.182" = type { %"struct.std::_Vector_base<unsigned long, std::allocator<unsigned long>>::_Vector_impl" }
%"struct.std::_Vector_base<unsigned long, std::allocator<unsigned long>>::_Vector_impl" = type { %"struct.std::_Vector_base<unsigned long, std::allocator<unsigned long>>::_Vector_impl_data" }
%"struct.std::_Vector_base<unsigned long, std::allocator<unsigned long>>::_Vector_impl_data" = type { ptr, ptr, ptr }
%"class.absl::beta_distribution.189" = type { %"class.absl::beta_distribution<float>::param_type", %"class.absl::random_internal::FastUniformBits", [3 x i8] }
%"class.absl::beta_distribution<float>::param_type" = type <{ float, float, float, float, float, float, float, float, i32, i8, [3 x i8] }>
%"class.testing::internal::PredicateFormatterFromMatcher" = type { %"class.testing::internal::ElementsAreMatcher" }
%"class.testing::internal::ElementsAreMatcher" = type { %"class.std::tuple.193" }
%"class.std::tuple.193" = type { %"struct.std::_Tuple_impl.194" }
%"struct.std::_Tuple_impl.194" = type { %"struct.std::_Tuple_impl.195", %"struct.std::_Head_base.233" }
%"struct.std::_Tuple_impl.195" = type { %"struct.std::_Tuple_impl.196", %"struct.std::_Head_base.232" }
%"struct.std::_Tuple_impl.196" = type { %"struct.std::_Tuple_impl.197", %"struct.std::_Head_base.231" }
%"struct.std::_Tuple_impl.197" = type { %"struct.std::_Tuple_impl.198", %"struct.std::_Head_base.230" }
%"struct.std::_Tuple_impl.198" = type { %"struct.std::_Tuple_impl.199", %"struct.std::_Head_base.229" }
%"struct.std::_Tuple_impl.199" = type { %"struct.std::_Tuple_impl.200", %"struct.std::_Head_base.228" }
%"struct.std::_Tuple_impl.200" = type { %"struct.std::_Tuple_impl.201", %"struct.std::_Head_base.227" }
%"struct.std::_Tuple_impl.201" = type { %"struct.std::_Tuple_impl.202", %"struct.std::_Head_base.226" }
%"struct.std::_Tuple_impl.202" = type { %"struct.std::_Tuple_impl.203", %"struct.std::_Head_base.225" }
%"struct.std::_Tuple_impl.203" = type { %"struct.std::_Tuple_impl.204", %"struct.std::_Head_base.224" }
%"struct.std::_Tuple_impl.204" = type { %"struct.std::_Tuple_impl.205", %"struct.std::_Head_base.223" }
%"struct.std::_Tuple_impl.205" = type { %"struct.std::_Tuple_impl.206", %"struct.std::_Head_base.222" }
%"struct.std::_Tuple_impl.206" = type { %"struct.std::_Tuple_impl.207", %"struct.std::_Head_base.221" }
%"struct.std::_Tuple_impl.207" = type { %"struct.std::_Tuple_impl.208", %"struct.std::_Head_base.220" }
%"struct.std::_Tuple_impl.208" = type { %"struct.std::_Tuple_impl.209", %"struct.std::_Head_base.219" }
%"struct.std::_Tuple_impl.209" = type { %"struct.std::_Tuple_impl.210", %"struct.std::_Head_base.218" }
%"struct.std::_Tuple_impl.210" = type { %"struct.std::_Tuple_impl.211", %"struct.std::_Head_base.217" }
%"struct.std::_Tuple_impl.211" = type { %"struct.std::_Tuple_impl.212", %"struct.std::_Head_base.216" }
%"struct.std::_Tuple_impl.212" = type { %"struct.std::_Tuple_impl.213", %"struct.std::_Head_base.215" }
%"struct.std::_Tuple_impl.213" = type { %"struct.std::_Head_base.214" }
%"struct.std::_Head_base.214" = type { i32 }
%"struct.std::_Head_base.215" = type { i32 }
%"struct.std::_Head_base.216" = type { i32 }
%"struct.std::_Head_base.217" = type { i32 }
%"struct.std::_Head_base.218" = type { i32 }
%"struct.std::_Head_base.219" = type { i32 }
%"struct.std::_Head_base.220" = type { i32 }
%"struct.std::_Head_base.221" = type { i32 }
%"struct.std::_Head_base.222" = type { i32 }
%"struct.std::_Head_base.223" = type { i32 }
%"struct.std::_Head_base.224" = type { i32 }
%"struct.std::_Head_base.225" = type { i32 }
%"struct.std::_Head_base.226" = type { i32 }
%"struct.std::_Head_base.227" = type { i32 }
%"struct.std::_Head_base.228" = type { i32 }
%"struct.std::_Head_base.229" = type { i32 }
%"struct.std::_Head_base.230" = type { i32 }
%"struct.std::_Head_base.231" = type { i32 }
%"struct.std::_Head_base.232" = type { i32 }
%"struct.std::_Head_base.233" = type { i32 }
%"class.testing::internal::PredicateFormatterFromMatcher.235" = type { %"class.testing::internal::ElementsAreMatcher.236" }
%"class.testing::internal::ElementsAreMatcher.236" = type { %"class.std::tuple.237" }
%"class.std::tuple.237" = type { %"struct.std::_Tuple_impl.238" }
%"struct.std::_Tuple_impl.238" = type { %"struct.std::_Tuple_impl.239", %"struct.std::_Head_base.277" }
%"struct.std::_Tuple_impl.239" = type { %"struct.std::_Tuple_impl.240", %"struct.std::_Head_base.276" }
%"struct.std::_Tuple_impl.240" = type { %"struct.std::_Tuple_impl.241", %"struct.std::_Head_base.275" }
%"struct.std::_Tuple_impl.241" = type { %"struct.std::_Tuple_impl.242", %"struct.std::_Head_base.274" }
%"struct.std::_Tuple_impl.242" = type { %"struct.std::_Tuple_impl.243", %"struct.std::_Head_base.273" }
%"struct.std::_Tuple_impl.243" = type { %"struct.std::_Tuple_impl.244", %"struct.std::_Head_base.272" }
%"struct.std::_Tuple_impl.244" = type { %"struct.std::_Tuple_impl.245", %"struct.std::_Head_base.271" }
%"struct.std::_Tuple_impl.245" = type { %"struct.std::_Tuple_impl.246", %"struct.std::_Head_base.270" }
%"struct.std::_Tuple_impl.246" = type { %"struct.std::_Tuple_impl.247", %"struct.std::_Head_base.269" }
%"struct.std::_Tuple_impl.247" = type { %"struct.std::_Tuple_impl.248", %"struct.std::_Head_base.268" }
%"struct.std::_Tuple_impl.248" = type { %"struct.std::_Tuple_impl.249", %"struct.std::_Head_base.267" }
%"struct.std::_Tuple_impl.249" = type { %"struct.std::_Tuple_impl.250", %"struct.std::_Head_base.266" }
%"struct.std::_Tuple_impl.250" = type { %"struct.std::_Tuple_impl.251", %"struct.std::_Head_base.265" }
%"struct.std::_Tuple_impl.251" = type { %"struct.std::_Tuple_impl.252", %"struct.std::_Head_base.264" }
%"struct.std::_Tuple_impl.252" = type { %"struct.std::_Tuple_impl.253", %"struct.std::_Head_base.263" }
%"struct.std::_Tuple_impl.253" = type { %"struct.std::_Tuple_impl.254", %"struct.std::_Head_base.262" }
%"struct.std::_Tuple_impl.254" = type { %"struct.std::_Tuple_impl.255", %"struct.std::_Head_base.261" }
%"struct.std::_Tuple_impl.255" = type { %"struct.std::_Tuple_impl.256", %"struct.std::_Head_base.260" }
%"struct.std::_Tuple_impl.256" = type { %"struct.std::_Tuple_impl.257", %"struct.std::_Head_base.259" }
%"struct.std::_Tuple_impl.257" = type { %"struct.std::_Head_base.258" }
%"struct.std::_Head_base.258" = type { i64 }
%"struct.std::_Head_base.259" = type { i64 }
%"struct.std::_Head_base.260" = type { i64 }
%"struct.std::_Head_base.261" = type { i64 }
%"struct.std::_Head_base.262" = type { i64 }
%"struct.std::_Head_base.263" = type { i64 }
%"struct.std::_Head_base.264" = type { i64 }
%"struct.std::_Head_base.265" = type { i64 }
%"struct.std::_Head_base.266" = type { i64 }
%"struct.std::_Head_base.267" = type { i64 }
%"struct.std::_Head_base.268" = type { i64 }
%"struct.std::_Head_base.269" = type { i64 }
%"struct.std::_Head_base.270" = type { i64 }
%"struct.std::_Head_base.271" = type { i64 }
%"struct.std::_Head_base.272" = type { i64 }
%"struct.std::_Head_base.273" = type { i64 }
%"struct.std::_Head_base.274" = type { i64 }
%"struct.std::_Head_base.275" = type { i64 }
%"struct.std::_Head_base.276" = type { i64 }
%"struct.std::_Head_base.277" = type { i64 }
%"class.testing::internal::DummyMatchResultListener" = type { %"class.testing::MatchResultListener" }
%"class.testing::MatchResultListener" = type { ptr, ptr }
%"class.testing::Matcher" = type { %"class.testing::internal::MatcherBase" }
%"class.testing::internal::MatcherBase" = type { %"class.testing::MatcherDescriberInterface", ptr, %"union.testing::internal::MatcherBase<const std::vector<unsigned long> &>::Buffer" }
%"class.testing::MatcherDescriberInterface" = type { ptr }
%"union.testing::internal::MatcherBase<const std::vector<unsigned long> &>::Buffer" = type { ptr }
%"class.testing::StringMatchResultListener" = type { %"class.testing::MatchResultListener", %"class.std::__cxx11::basic_stringstream" }
%"struct.testing::internal::TransformTupleValuesHelper<std::tuple<int, int, int, int, int, int, int, int, int, int, int, int, int, int, int, int, int, int, int, int>, testing::internal::CastAndAppendTransform<const unsigned long &>, std::back_insert_iterator<std::vector<testing::Matcher<const unsigned long &>>>>::IterateOverTuple" = type { i8 }
%"class.std::vector.282" = type { %"struct.std::_Vector_base.283" }
%"struct.std::_Vector_base.283" = type { %"struct.std::_Vector_base<testing::Matcher<const unsigned long &>, std::allocator<testing::Matcher<const unsigned long &>>>::_Vector_impl" }
%"struct.std::_Vector_base<testing::Matcher<const unsigned long &>, std::allocator<testing::Matcher<const unsigned long &>>>::_Vector_impl" = type { %"struct.std::_Vector_base<testing::Matcher<const unsigned long &>, std::allocator<testing::Matcher<const unsigned long &>>>::_Vector_impl_data" }
%"struct.std::_Vector_base<testing::Matcher<const unsigned long &>, std::allocator<testing::Matcher<const unsigned long &>>>::_Vector_impl_data" = type { ptr, ptr, ptr }
%"class.testing::Matcher.288" = type { %"class.testing::internal::MatcherBase.289" }
%"class.testing::internal::MatcherBase.289" = type { %"class.testing::MatcherDescriberInterface", ptr, %"union.testing::internal::MatcherBase<const unsigned long &>::Buffer" }
%"union.testing::internal::MatcherBase<const unsigned long &>::Buffer" = type { ptr }
%"struct.testing::internal::SharedPayload" = type { %"struct.testing::internal::SharedPayloadBase", %"class.std::unique_ptr.318" }
%"struct.testing::internal::SharedPayloadBase" = type { %"struct.std::atomic" }
%"struct.std::atomic" = type { %"struct.std::__atomic_base" }
%"struct.std::__atomic_base" = type { i32 }
%"class.std::unique_ptr.318" = type { %"struct.std::__uniq_ptr_data.319" }
%"struct.std::__uniq_ptr_data.319" = type { %"class.std::__uniq_ptr_impl.320" }
%"class.std::__uniq_ptr_impl.320" = type { %"class.std::tuple.321" }
%"class.std::tuple.321" = type { %"struct.std::_Tuple_impl.322" }
%"struct.std::_Tuple_impl.322" = type { %"struct.std::_Head_base.325" }
%"struct.std::_Head_base.325" = type { ptr }
%"class.testing::internal::ElementsAreMatcherImpl" = type { %"class.testing::MatcherInterface", %"class.std::vector.282" }
%"class.testing::MatcherInterface" = type { %"class.testing::MatcherDescriberInterface" }
%"struct.testing::internal::TransformTupleValuesHelper<std::tuple<int, int, int, int, int, int, int, int, int, int, int, int, int, int, int, int, int, int, int, int>, testing::internal::CastAndAppendTransform<const unsigned long &>, std::back_insert_iterator<std::vector<testing::Matcher<const unsigned long &>>>>::IterateOverTuple.290" = type { i8 }
%"struct.testing::internal::TransformTupleValuesHelper<std::tuple<int, int, int, int, int, int, int, int, int, int, int, int, int, int, int, int, int, int, int, int>, testing::internal::CastAndAppendTransform<const unsigned long &>, std::back_insert_iterator<std::vector<testing::Matcher<const unsigned long &>>>>::IterateOverTuple.298" = type { i8 }
%"struct.testing::internal::TransformTupleValuesHelper<std::tuple<int, int, int, int, int, int, int, int, int, int, int, int, int, int, int, int, int, int, int, int>, testing::internal::CastAndAppendTransform<const unsigned long &>, std::back_insert_iterator<std::vector<testing::Matcher<const unsigned long &>>>>::IterateOverTuple.299" = type { i8 }
%"struct.testing::internal::TransformTupleValuesHelper<std::tuple<int, int, int, int, int, int, int, int, int, int, int, int, int, int, int, int, int, int, int, int>, testing::internal::CastAndAppendTransform<const unsigned long &>, std::back_insert_iterator<std::vector<testing::Matcher<const unsigned long &>>>>::IterateOverTuple.300" = type { i8 }
%"struct.testing::internal::TransformTupleValuesHelper<std::tuple<int, int, int, int, int, int, int, int, int, int, int, int, int, int, int, int, int, int, int, int>, testing::internal::CastAndAppendTransform<const unsigned long &>, std::back_insert_iterator<std::vector<testing::Matcher<const unsigned long &>>>>::IterateOverTuple.301" = type { i8 }
%"struct.testing::internal::TransformTupleValuesHelper<std::tuple<int, int, int, int, int, int, int, int, int, int, int, int, int, int, int, int, int, int, int, int>, testing::internal::CastAndAppendTransform<const unsigned long &>, std::back_insert_iterator<std::vector<testing::Matcher<const unsigned long &>>>>::IterateOverTuple.302" = type { i8 }
%"struct.testing::internal::TransformTupleValuesHelper<std::tuple<int, int, int, int, int, int, int, int, int, int, int, int, int, int, int, int, int, int, int, int>, testing::internal::CastAndAppendTransform<const unsigned long &>, std::back_insert_iterator<std::vector<testing::Matcher<const unsigned long &>>>>::IterateOverTuple.303" = type { i8 }
%"struct.testing::internal::TransformTupleValuesHelper<std::tuple<int, int, int, int, int, int, int, int, int, int, int, int, int, int, int, int, int, int, int, int>, testing::internal::CastAndAppendTransform<const unsigned long &>, std::back_insert_iterator<std::vector<testing::Matcher<const unsigned long &>>>>::IterateOverTuple.304" = type { i8 }
%"struct.testing::internal::TransformTupleValuesHelper<std::tuple<int, int, int, int, int, int, int, int, int, int, int, int, int, int, int, int, int, int, int, int>, testing::internal::CastAndAppendTransform<const unsigned long &>, std::back_insert_iterator<std::vector<testing::Matcher<const unsigned long &>>>>::IterateOverTuple.305" = type { i8 }
%"struct.testing::internal::TransformTupleValuesHelper<std::tuple<int, int, int, int, int, int, int, int, int, int, int, int, int, int, int, int, int, int, int, int>, testing::internal::CastAndAppendTransform<const unsigned long &>, std::back_insert_iterator<std::vector<testing::Matcher<const unsigned long &>>>>::IterateOverTuple.306" = type { i8 }
%"struct.testing::internal::TransformTupleValuesHelper<std::tuple<int, int, int, int, int, int, int, int, int, int, int, int, int, int, int, int, int, int, int, int>, testing::internal::CastAndAppendTransform<const unsigned long &>, std::back_insert_iterator<std::vector<testing::Matcher<const unsigned long &>>>>::IterateOverTuple.307" = type { i8 }
%"struct.testing::internal::TransformTupleValuesHelper<std::tuple<int, int, int, int, int, int, int, int, int, int, int, int, int, int, int, int, int, int, int, int>, testing::internal::CastAndAppendTransform<const unsigned long &>, std::back_insert_iterator<std::vector<testing::Matcher<const unsigned long &>>>>::IterateOverTuple.308" = type { i8 }
%"struct.testing::internal::TransformTupleValuesHelper<std::tuple<int, int, int, int, int, int, int, int, int, int, int, int, int, int, int, int, int, int, int, int>, testing::internal::CastAndAppendTransform<const unsigned long &>, std::back_insert_iterator<std::vector<testing::Matcher<const unsigned long &>>>>::IterateOverTuple.309" = type { i8 }
%"struct.testing::internal::TransformTupleValuesHelper<std::tuple<int, int, int, int, int, int, int, int, int, int, int, int, int, int, int, int, int, int, int, int>, testing::internal::CastAndAppendTransform<const unsigned long &>, std::back_insert_iterator<std::vector<testing::Matcher<const unsigned long &>>>>::IterateOverTuple.310" = type { i8 }
%"struct.testing::internal::TransformTupleValuesHelper<std::tuple<int, int, int, int, int, int, int, int, int, int, int, int, int, int, int, int, int, int, int, int>, testing::internal::CastAndAppendTransform<const unsigned long &>, std::back_insert_iterator<std::vector<testing::Matcher<const unsigned long &>>>>::IterateOverTuple.311" = type { i8 }
%"struct.testing::internal::TransformTupleValuesHelper<std::tuple<int, int, int, int, int, int, int, int, int, int, int, int, int, int, int, int, int, int, int, int>, testing::internal::CastAndAppendTransform<const unsigned long &>, std::back_insert_iterator<std::vector<testing::Matcher<const unsigned long &>>>>::IterateOverTuple.312" = type { i8 }
%"struct.testing::internal::TransformTupleValuesHelper<std::tuple<int, int, int, int, int, int, int, int, int, int, int, int, int, int, int, int, int, int, int, int>, testing::internal::CastAndAppendTransform<const unsigned long &>, std::back_insert_iterator<std::vector<testing::Matcher<const unsigned long &>>>>::IterateOverTuple.313" = type { i8 }
%"struct.testing::internal::TransformTupleValuesHelper<std::tuple<int, int, int, int, int, int, int, int, int, int, int, int, int, int, int, int, int, int, int, int>, testing::internal::CastAndAppendTransform<const unsigned long &>, std::back_insert_iterator<std::vector<testing::Matcher<const unsigned long &>>>>::IterateOverTuple.314" = type { i8 }
%"class.std::vector" = type { %"struct.std::_Vector_base" }
%"struct.std::_Vector_base" = type { %"struct.std::_Vector_base<std::__cxx11::basic_string<char>, std::allocator<std::__cxx11::basic_string<char>>>::_Vector_impl" }
%"struct.std::_Vector_base<std::__cxx11::basic_string<char>, std::allocator<std::__cxx11::basic_string<char>>>::_Vector_impl" = type { %"struct.std::_Vector_base<std::__cxx11::basic_string<char>, std::allocator<std::__cxx11::basic_string<char>>>::_Vector_impl_data" }
%"struct.testing::internal::TransformTupleValuesHelper<std::tuple<long, long, long, long, long, long, long, long, long, long, long, long, long, long, long, long, long, long, long, long>, testing::internal::CastAndAppendTransform<const unsigned long &>, std::back_insert_iterator<std::vector<testing::Matcher<const unsigned long &>>>>::IterateOverTuple" = type { i8 }
%"struct.testing::internal::TransformTupleValuesHelper<std::tuple<long, long, long, long, long, long, long, long, long, long, long, long, long, long, long, long, long, long, long, long>, testing::internal::CastAndAppendTransform<const unsigned long &>, std::back_insert_iterator<std::vector<testing::Matcher<const unsigned long &>>>>::IterateOverTuple.335" = type { i8 }
%"struct.testing::internal::TransformTupleValuesHelper<std::tuple<long, long, long, long, long, long, long, long, long, long, long, long, long, long, long, long, long, long, long, long>, testing::internal::CastAndAppendTransform<const unsigned long &>, std::back_insert_iterator<std::vector<testing::Matcher<const unsigned long &>>>>::IterateOverTuple.338" = type { i8 }
%"struct.testing::internal::TransformTupleValuesHelper<std::tuple<long, long, long, long, long, long, long, long, long, long, long, long, long, long, long, long, long, long, long, long>, testing::internal::CastAndAppendTransform<const unsigned long &>, std::back_insert_iterator<std::vector<testing::Matcher<const unsigned long &>>>>::IterateOverTuple.339" = type { i8 }
%"struct.testing::internal::TransformTupleValuesHelper<std::tuple<long, long, long, long, long, long, long, long, long, long, long, long, long, long, long, long, long, long, long, long>, testing::internal::CastAndAppendTransform<const unsigned long &>, std::back_insert_iterator<std::vector<testing::Matcher<const unsigned long &>>>>::IterateOverTuple.340" = type { i8 }
%"struct.testing::internal::TransformTupleValuesHelper<std::tuple<long, long, long, long, long, long, long, long, long, long, long, long, long, long, long, long, long, long, long, long>, testing::internal::CastAndAppendTransform<const unsigned long &>, std::back_insert_iterator<std::vector<testing::Matcher<const unsigned long &>>>>::IterateOverTuple.341" = type { i8 }
%"struct.testing::internal::TransformTupleValuesHelper<std::tuple<long, long, long, long, long, long, long, long, long, long, long, long, long, long, long, long, long, long, long, long>, testing::internal::CastAndAppendTransform<const unsigned long &>, std::back_insert_iterator<std::vector<testing::Matcher<const unsigned long &>>>>::IterateOverTuple.342" = type { i8 }
%"struct.testing::internal::TransformTupleValuesHelper<std::tuple<long, long, long, long, long, long, long, long, long, long, long, long, long, long, long, long, long, long, long, long>, testing::internal::CastAndAppendTransform<const unsigned long &>, std::back_insert_iterator<std::vector<testing::Matcher<const unsigned long &>>>>::IterateOverTuple.343" = type { i8 }
%"struct.testing::internal::TransformTupleValuesHelper<std::tuple<long, long, long, long, long, long, long, long, long, long, long, long, long, long, long, long, long, long, long, long>, testing::internal::CastAndAppendTransform<const unsigned long &>, std::back_insert_iterator<std::vector<testing::Matcher<const unsigned long &>>>>::IterateOverTuple.344" = type { i8 }
%"struct.testing::internal::TransformTupleValuesHelper<std::tuple<long, long, long, long, long, long, long, long, long, long, long, long, long, long, long, long, long, long, long, long>, testing::internal::CastAndAppendTransform<const unsigned long &>, std::back_insert_iterator<std::vector<testing::Matcher<const unsigned long &>>>>::IterateOverTuple.345" = type { i8 }
%"struct.testing::internal::TransformTupleValuesHelper<std::tuple<long, long, long, long, long, long, long, long, long, long, long, long, long, long, long, long, long, long, long, long>, testing::internal::CastAndAppendTransform<const unsigned long &>, std::back_insert_iterator<std::vector<testing::Matcher<const unsigned long &>>>>::IterateOverTuple.346" = type { i8 }
%"struct.testing::internal::TransformTupleValuesHelper<std::tuple<long, long, long, long, long, long, long, long, long, long, long, long, long, long, long, long, long, long, long, long>, testing::internal::CastAndAppendTransform<const unsigned long &>, std::back_insert_iterator<std::vector<testing::Matcher<const unsigned long &>>>>::IterateOverTuple.347" = type { i8 }
%"struct.testing::internal::TransformTupleValuesHelper<std::tuple<long, long, long, long, long, long, long, long, long, long, long, long, long, long, long, long, long, long, long, long>, testing::internal::CastAndAppendTransform<const unsigned long &>, std::back_insert_iterator<std::vector<testing::Matcher<const unsigned long &>>>>::IterateOverTuple.348" = type { i8 }
%"struct.testing::internal::TransformTupleValuesHelper<std::tuple<long, long, long, long, long, long, long, long, long, long, long, long, long, long, long, long, long, long, long, long>, testing::internal::CastAndAppendTransform<const unsigned long &>, std::back_insert_iterator<std::vector<testing::Matcher<const unsigned long &>>>>::IterateOverTuple.349" = type { i8 }
%"struct.testing::internal::TransformTupleValuesHelper<std::tuple<long, long, long, long, long, long, long, long, long, long, long, long, long, long, long, long, long, long, long, long>, testing::internal::CastAndAppendTransform<const unsigned long &>, std::back_insert_iterator<std::vector<testing::Matcher<const unsigned long &>>>>::IterateOverTuple.350" = type { i8 }
%"struct.testing::internal::TransformTupleValuesHelper<std::tuple<long, long, long, long, long, long, long, long, long, long, long, long, long, long, long, long, long, long, long, long>, testing::internal::CastAndAppendTransform<const unsigned long &>, std::back_insert_iterator<std::vector<testing::Matcher<const unsigned long &>>>>::IterateOverTuple.351" = type { i8 }
%"struct.testing::internal::TransformTupleValuesHelper<std::tuple<long, long, long, long, long, long, long, long, long, long, long, long, long, long, long, long, long, long, long, long>, testing::internal::CastAndAppendTransform<const unsigned long &>, std::back_insert_iterator<std::vector<testing::Matcher<const unsigned long &>>>>::IterateOverTuple.352" = type { i8 }
%"struct.testing::internal::TransformTupleValuesHelper<std::tuple<long, long, long, long, long, long, long, long, long, long, long, long, long, long, long, long, long, long, long, long>, testing::internal::CastAndAppendTransform<const unsigned long &>, std::back_insert_iterator<std::vector<testing::Matcher<const unsigned long &>>>>::IterateOverTuple.353" = type { i8 }
%"struct.testing::internal::TransformTupleValuesHelper<std::tuple<long, long, long, long, long, long, long, long, long, long, long, long, long, long, long, long, long, long, long, long>, testing::internal::CastAndAppendTransform<const unsigned long &>, std::back_insert_iterator<std::vector<testing::Matcher<const unsigned long &>>>>::IterateOverTuple.354" = type { i8 }
%struct._Guard = type { ptr }
%"class.absl::log_internal::LogMessage::OstreamView" = type { %"class.std::basic_streambuf", ptr, %"class.absl::Span.364", %"class.absl::Span.364", %"class.absl::Span.364" }
%"class.absl::Span.364" = type { ptr, i64 }
%"class.absl::str_format_internal::Streamable" = type { ptr, %"class.absl::InlinedVector" }
%"class.absl::InlinedVector" = type { %"class.absl::inlined_vector_internal::Storage" }
%"class.absl::inlined_vector_internal::Storage" = type { %"class.absl::container_internal::CompressedTuple", %"union.absl::inlined_vector_internal::Storage<absl::str_format_internal::FormatArgImpl, 4, std::allocator<absl::str_format_internal::FormatArgImpl>>::Data" }
%"class.absl::container_internal::CompressedTuple" = type { %"struct.absl::container_internal::internal_compressed_tuple::CompressedTupleImpl" }
%"struct.absl::container_internal::internal_compressed_tuple::CompressedTupleImpl" = type { %"struct.absl::container_internal::internal_compressed_tuple::Storage.363" }
%"struct.absl::container_internal::internal_compressed_tuple::Storage.363" = type { i64 }
%"union.absl::inlined_vector_internal::Storage<absl::str_format_internal::FormatArgImpl, 4, std::allocator<absl::str_format_internal::FormatArgImpl>>::Data" = type { %"struct.absl::inlined_vector_internal::Storage<absl::str_format_internal::FormatArgImpl, 4, std::allocator<absl::str_format_internal::FormatArgImpl>>::Allocated", [48 x i8] }
%"struct.absl::inlined_vector_internal::Storage<absl::str_format_internal::FormatArgImpl, 4, std::allocator<absl::str_format_internal::FormatArgImpl>>::Allocated" = type { ptr, i64 }
%"class.absl::str_format_internal::FormatSpecTemplate" = type { %"class.absl::UntypedFormatSpec" }
%"class.absl::UntypedFormatSpec" = type { %"class.absl::str_format_internal::UntypedFormatSpecImpl" }
%"class.absl::str_format_internal::UntypedFormatSpecImpl" = type { ptr, i64 }
%"class.absl::random_internal::ostream_state_saver" = type { ptr, i32, i8, i64 }
%"class.std::shared_ptr.19" = type { %"class.std::__shared_ptr.20" }
%"class.std::__shared_ptr.20" = type { ptr, %"class.std::__shared_count" }
%"class.std::set" = type { %"class.std::_Rb_tree" }
%"class.std::_Rb_tree" = type { %"struct.std::_Rb_tree<std::__cxx11::basic_string<char>, std::__cxx11::basic_string<char>, std::_Identity<std::__cxx11::basic_string<char>>, std::less<std::__cxx11::basic_string<char>>>::_Rb_tree_impl" }
%"struct.std::_Rb_tree<std::__cxx11::basic_string<char>, std::__cxx11::basic_string<char>, std::_Identity<std::__cxx11::basic_string<char>>, std::less<std::__cxx11::basic_string<char>>>::_Rb_tree_impl" = type { %"struct.std::_Rb_tree_key_compare", %"struct.std::_Rb_tree_header" }
%"struct.std::_Rb_tree_key_compare" = type { %"struct.std::less" }
%"struct.std::less" = type { i8 }
%"struct.std::_Rb_tree_header" = type { %"struct.std::_Rb_tree_node_base", i64 }
%"struct.std::_Rb_tree_node_base" = type { i32, ptr, ptr, ptr }
%"struct.testing::TestParamInfo" = type { %"class.std::tuple.24", i64 }
%"struct.std::_Rb_tree_node" = type { %"struct.std::_Rb_tree_node_base", %"struct.__gnu_cxx::__aligned_membuf" }
%"struct.__gnu_cxx::__aligned_membuf" = type { [32 x i8] }

$_ZNSt6vectorINSt7__cxx1112basic_stringIcSt11char_traitsIcESaIcEEESaIS5_EED2Ev = comdat any

$_ZN7testing8internal12CodeLocationD2Ev = comdat any

$_ZN7testing8internal16SuiteApiResolverINS_4TestEE19GetSetUpCaseOrSuiteEPKci = comdat any

$_ZN7testing8internal16SuiteApiResolverINS_4TestEE22GetTearDownCaseOrSuiteEPKci = comdat any

$__clang_call_terminate = comdat any

$_ZN7testing4Test5SetupEv = comdat any

$_ZN7testing18WithParamInterfaceISt5tupleIJddEEE8GetParamEv = comdat any

$_ZN7testing13TestWithParamISt5tupleIJddEEED2Ev = comdat any

$_ZN7testing13TestWithParamISt5tupleIJddEEED0Ev = comdat any

$_ZThn16_N7testing13TestWithParamISt5tupleIJddEEED1Ev = comdat any

$_ZThn16_N7testing13TestWithParamISt5tupleIJddEEED0Ev = comdat any

$_ZN7testing15AssertionResultD2Ev = comdat any

$_ZN4absl17beta_distributionIdE10param_typeC2Edd = comdat any

$_ZN7testing8internal18CmpHelperOpFailureIddEENS_15AssertionResultEPKcS4_RKT_RKT0_S4_ = comdat any

$_ZN7testing15AssertionResult13AppendMessageERKNS_7MessageE = comdat any

$_ZN7testing8internal7PrintToEdPSo = comdat any

$_ZN7testing8internal18CmpHelperOpFailureImiEENS_15AssertionResultEPKcS4_RKT_RKT0_S4_ = comdat any

$_ZN7testing8internal18CmpHelperOpFailureIiiEENS_15AssertionResultEPKcS4_RKT_RKT0_S4_ = comdat any

$_ZNK7testing8internal22CartesianProductHolderIJNS0_10ValueArrayIJdddddddEEES3_EEcvNS0_14ParamGeneratorISt5tupleIJDpT_EEEEIJddEEEv = comdat any

$_ZNSt11_Tuple_implILm0EJN7testing8internal14ParamGeneratorIdEES3_EEC2IJNS1_10ValueArrayIJdddddddEEES7_EEERKS_ILm0EJDpT_EE = comdat any

$_ZNSt11_Tuple_implILm1EJN7testing8internal14ParamGeneratorIdEEEED2Ev = comdat any

$_ZN7testing8ValuesInIN9__gnu_cxx17__normal_iteratorIPKdSt6vectorIdSaIdEEEEEENS_8internal14ParamGeneratorINSt15iterator_traitsIT_E10value_typeEEESC_SC_ = comdat any

$_ZN7testing8internal30ValuesInIteratorRangeGeneratorIdED2Ev = comdat any

$_ZN7testing8internal30ValuesInIteratorRangeGeneratorIdED0Ev = comdat any

$_ZNK7testing8internal30ValuesInIteratorRangeGeneratorIdE5BeginEv = comdat any

$_ZNK7testing8internal30ValuesInIteratorRangeGeneratorIdE3EndEv = comdat any

$_ZN7testing8internal30ValuesInIteratorRangeGeneratorIdE8IteratorD2Ev = comdat any

$_ZN7testing8internal30ValuesInIteratorRangeGeneratorIdE8IteratorD0Ev = comdat any

$_ZNK7testing8internal30ValuesInIteratorRangeGeneratorIdE8Iterator13BaseGeneratorEv = comdat any

$_ZN7testing8internal30ValuesInIteratorRangeGeneratorIdE8Iterator7AdvanceEv = comdat any

$_ZNK7testing8internal30ValuesInIteratorRangeGeneratorIdE8Iterator5CloneEv = comdat any

$_ZNK7testing8internal30ValuesInIteratorRangeGeneratorIdE8Iterator7CurrentEv = comdat any

$_ZNK7testing8internal30ValuesInIteratorRangeGeneratorIdE8Iterator6EqualsERKNS0_22ParamIteratorInterfaceIdEE = comdat any

$_ZNSt15_Sp_counted_ptrIPN7testing8internal23ParamGeneratorInterfaceIdEELN9__gnu_cxx12_Lock_policyE2EED2Ev = comdat any

$_ZNSt15_Sp_counted_ptrIPN7testing8internal23ParamGeneratorInterfaceIdEELN9__gnu_cxx12_Lock_policyE2EED0Ev = comdat any

$_ZNSt15_Sp_counted_ptrIPN7testing8internal23ParamGeneratorInterfaceIdEELN9__gnu_cxx12_Lock_policyE2EE10_M_disposeEv = comdat any

$_ZNSt15_Sp_counted_ptrIPN7testing8internal23ParamGeneratorInterfaceIdEELN9__gnu_cxx12_Lock_policyE2EE10_M_destroyEv = comdat any

$_ZNSt15_Sp_counted_ptrIPN7testing8internal23ParamGeneratorInterfaceIdEELN9__gnu_cxx12_Lock_policyE2EE14_M_get_deleterERKSt9type_info = comdat any

$_ZN7testing8internal25CartesianProductGeneratorIJddEED2Ev = comdat any

$_ZN7testing8internal25CartesianProductGeneratorIJddEED0Ev = comdat any

$_ZNK7testing8internal25CartesianProductGeneratorIJddEE5BeginEv = comdat any

$_ZNK7testing8internal25CartesianProductGeneratorIJddEE3EndEv = comdat any

$_ZN7testing8internal25CartesianProductGeneratorIJddEE12IteratorImplINS0_13IndexSequenceIJLm0ELm1EEEEEC2EPKNS0_23ParamGeneratorInterfaceISt5tupleIJddEEEERKS8_IJNS0_14ParamGeneratorIdEESE_EEb = comdat any

$_ZN7testing8internal25CartesianProductGeneratorIJddEE12IteratorImplINS0_13IndexSequenceIJLm0ELm1EEEEE19ComputeCurrentValueEv = comdat any

$_ZNSt10shared_ptrISt5tupleIJddEEED2Ev = comdat any

$_ZNSt5tupleIJN7testing8internal13ParamIteratorIdEES3_EED2Ev = comdat any

$_ZN7testing8internal25CartesianProductGeneratorIJddEE12IteratorImplINS0_13IndexSequenceIJLm0ELm1EEEEED2Ev = comdat any

$_ZN7testing8internal25CartesianProductGeneratorIJddEE12IteratorImplINS0_13IndexSequenceIJLm0ELm1EEEEED0Ev = comdat any

$_ZNK7testing8internal25CartesianProductGeneratorIJddEE12IteratorImplINS0_13IndexSequenceIJLm0ELm1EEEEE13BaseGeneratorEv = comdat any

$_ZN7testing8internal25CartesianProductGeneratorIJddEE12IteratorImplINS0_13IndexSequenceIJLm0ELm1EEEEE7AdvanceEv = comdat any

$_ZNK7testing8internal25CartesianProductGeneratorIJddEE12IteratorImplINS0_13IndexSequenceIJLm0ELm1EEEEE5CloneEv = comdat any

$_ZNK7testing8internal25CartesianProductGeneratorIJddEE12IteratorImplINS0_13IndexSequenceIJLm0ELm1EEEEE7CurrentEv = comdat any

$_ZNK7testing8internal25CartesianProductGeneratorIJddEE12IteratorImplINS0_13IndexSequenceIJLm0ELm1EEEEE6EqualsERKNS0_22ParamIteratorInterfaceISt5tupleIJddEEEE = comdat any

$_ZNSt23_Sp_counted_ptr_inplaceISt5tupleIJddEESaIvELN9__gnu_cxx12_Lock_policyE2EED2Ev = comdat any

$_ZNSt23_Sp_counted_ptr_inplaceISt5tupleIJddEESaIvELN9__gnu_cxx12_Lock_policyE2EED0Ev = comdat any

$_ZNSt23_Sp_counted_ptr_inplaceISt5tupleIJddEESaIvELN9__gnu_cxx12_Lock_policyE2EE10_M_disposeEv = comdat any

$_ZNSt23_Sp_counted_ptr_inplaceISt5tupleIJddEESaIvELN9__gnu_cxx12_Lock_policyE2EE10_M_destroyEv = comdat any

$_ZNSt23_Sp_counted_ptr_inplaceISt5tupleIJddEESaIvELN9__gnu_cxx12_Lock_policyE2EE14_M_get_deleterERKSt9type_info = comdat any

$_ZN7testing8internal25CartesianProductGeneratorIJddEE12IteratorImplINS0_13IndexSequenceIJLm0ELm1EEEEEC2ERKS6_ = comdat any

$_ZNSt15_Sp_counted_ptrIPN7testing8internal23ParamGeneratorInterfaceISt5tupleIJddEEEELN9__gnu_cxx12_Lock_policyE2EED2Ev = comdat any

$_ZNSt15_Sp_counted_ptrIPN7testing8internal23ParamGeneratorInterfaceISt5tupleIJddEEEELN9__gnu_cxx12_Lock_policyE2EED0Ev = comdat any

$_ZNSt15_Sp_counted_ptrIPN7testing8internal23ParamGeneratorInterfaceISt5tupleIJddEEEELN9__gnu_cxx12_Lock_policyE2EE10_M_disposeEv = comdat any

$_ZNSt15_Sp_counted_ptrIPN7testing8internal23ParamGeneratorInterfaceISt5tupleIJddEEEELN9__gnu_cxx12_Lock_policyE2EE10_M_destroyEv = comdat any

$_ZNSt15_Sp_counted_ptrIPN7testing8internal23ParamGeneratorInterfaceISt5tupleIJddEEEELN9__gnu_cxx12_Lock_policyE2EE14_M_get_deleterERKSt9type_info = comdat any

$_ZNSt11_Tuple_implILm0EJN7testing8internal14ParamGeneratorIdEES3_EED2Ev = comdat any

$_ZN7testing8ValuesInIN9__gnu_cxx17__normal_iteratorIPKSt5tupleIJddEESt6vectorIS4_SaIS4_EEEEEENS_8internal14ParamGeneratorINSt15iterator_traitsIT_E10value_typeEEESE_SE_ = comdat any

$_ZN7testing8internal30ValuesInIteratorRangeGeneratorISt5tupleIJddEEED2Ev = comdat any

$_ZN7testing8internal30ValuesInIteratorRangeGeneratorISt5tupleIJddEEED0Ev = comdat any

$_ZNK7testing8internal30ValuesInIteratorRangeGeneratorISt5tupleIJddEEE5BeginEv = comdat any

$_ZNK7testing8internal30ValuesInIteratorRangeGeneratorISt5tupleIJddEEE3EndEv = comdat any

$_ZN7testing8internal30ValuesInIteratorRangeGeneratorISt5tupleIJddEEE8IteratorD2Ev = comdat any

$_ZN7testing8internal30ValuesInIteratorRangeGeneratorISt5tupleIJddEEE8IteratorD0Ev = comdat any

$_ZNK7testing8internal30ValuesInIteratorRangeGeneratorISt5tupleIJddEEE8Iterator13BaseGeneratorEv = comdat any

$_ZN7testing8internal30ValuesInIteratorRangeGeneratorISt5tupleIJddEEE8Iterator7AdvanceEv = comdat any

$_ZNK7testing8internal30ValuesInIteratorRangeGeneratorISt5tupleIJddEEE8Iterator5CloneEv = comdat any

$_ZNK7testing8internal30ValuesInIteratorRangeGeneratorISt5tupleIJddEEE8Iterator7CurrentEv = comdat any

$_ZNK7testing8internal30ValuesInIteratorRangeGeneratorISt5tupleIJddEEE8Iterator6EqualsERKNS0_22ParamIteratorInterfaceIS3_EE = comdat any

$_ZNK7testing8internal29PredicateFormatterFromMatcherINS0_18ElementsAreMatcherISt5tupleIJiiiiiiiiiiiiiiiiiiiiEEEEEclISt6vectorImSaImEEEENS_15AssertionResultEPKcRKT_ = comdat any

$_ZNK7testing8internal29PredicateFormatterFromMatcherINS0_18ElementsAreMatcherISt5tupleIJllllllllllllllllllllEEEEEclISt6vectorImSaImEEEENS_15AssertionResultEPKcRKT_ = comdat any

$_ZN4absl17beta_distributionIfE10param_typeC2Eff = comdat any

$_ZN4absl17beta_distributionIfE15AlgorithmJoehnkINS_15random_internal13sequence_urbgEEEfRT_RKNS1_10param_typeE = comdat any

$_ZN4absl17beta_distributionIfE14AlgorithmChengINS_15random_internal13sequence_urbgEEEfRT_RKNS1_10param_typeE = comdat any

$_ZN7testing8internal18CmpHelperEQFailureIimEENS_15AssertionResultEPKcS4_RKT_RKT0_ = comdat any

$_ZNK7testing8internal11MatcherBaseIRKSt6vectorImSaImEEE10DescribeToEPSo = comdat any

$_ZN7testing8internal20MatchPrintAndExplainIKSt6vectorImSaImEERS5_EEbRT_RKNS_7MatcherIT0_EEPNS_19MatchResultListenerE = comdat any

$_ZN7testing25StringMatchResultListenerD2Ev = comdat any

$_ZN7testing7MatcherIRKSt6vectorImSaImEEED2Ev = comdat any

$_ZNK7testing8internal18ElementsAreMatcherISt5tupleIJiiiiiiiiiiiiiiiiiiiiEEEcvNS_7MatcherIT_EEIRKSt6vectorImSaImEEEEv = comdat any

$_ZN7testing8internal22ElementsAreMatcherImplIRKSt6vectorImSaImEEEC2IN9__gnu_cxx17__normal_iteratorIPNS_7MatcherIRKmEES2_ISE_SaISE_EEEEEET_SJ_ = comdat any

$_ZNSt6vectorIN7testing7MatcherIRKmEESaIS4_EED2Ev = comdat any

$_ZN7testing7MatcherIRKmED2Ev = comdat any

$_ZN7testing7MatcherIRKmED0Ev = comdat any

$_ZNK7testing8internal11MatcherBaseIRKmE10DescribeToEPSo = comdat any

$_ZNK7testing8internal11MatcherBaseIRKmE18DescribeNegationToEPSo = comdat any

$_ZN7testing8internal11MatcherBaseIRKmED2Ev = comdat any

$_ZN7testing8internal11MatcherBaseIRKmED0Ev = comdat any

$_ZNK7testing8internal26TransformTupleValuesHelperISt5tupleIJiiiiiiiiiiiiiiiiiiiiEENS0_22CastAndAppendTransformIRKmEESt20back_insert_iteratorISt6vectorINS_7MatcherIS6_EESaISB_EEEE16IterateOverTupleIS3_Lm20EEclES7_RKS3_SE_ = comdat any

$_ZNK7testing8internal26TransformTupleValuesHelperISt5tupleIJiiiiiiiiiiiiiiiiiiiiEENS0_22CastAndAppendTransformIRKmEESt20back_insert_iteratorISt6vectorINS_7MatcherIS6_EESaISB_EEEE16IterateOverTupleIS3_Lm19EEclES7_RKS3_SE_ = comdat any

$_ZN7testing8internal11MatcherBaseIRKmE19MatchAndExplainImplINS4_11ValuePolicyINS0_9EqMatcherImEELb1EEEEEDTcldtclsrT_3Getfp_E15MatchAndExplainfp0_clptfp1_6streamEEERKS4_S3_PNS_19MatchResultListenerE = comdat any

$_ZN7testing8internal11MatcherBaseIRKmE12DescribeImplINS4_11ValuePolicyINS0_9EqMatcherImEELb1EEEEEvRKS4_PSob = comdat any

$_ZN7testing8internal11MatcherBaseIRKmE16GetDescriberImplINS4_11ValuePolicyINS0_9EqMatcherImEELb1EEEEEPKNS_25MatcherDescriberInterfaceERKS4_ = comdat any

$_ZNSt6vectorIN7testing7MatcherIRKmEESaIS4_EE17_M_realloc_insertIJS4_EEEvN9__gnu_cxx17__normal_iteratorIPS4_S6_EEDpOT_ = comdat any

$_ZNK7testing8internal26TransformTupleValuesHelperISt5tupleIJiiiiiiiiiiiiiiiiiiiiEENS0_22CastAndAppendTransformIRKmEESt20back_insert_iteratorISt6vectorINS_7MatcherIS6_EESaISB_EEEE16IterateOverTupleIS3_Lm18EEclES7_RKS3_SE_ = comdat any

$_ZNK7testing8internal26TransformTupleValuesHelperISt5tupleIJiiiiiiiiiiiiiiiiiiiiEENS0_22CastAndAppendTransformIRKmEESt20back_insert_iteratorISt6vectorINS_7MatcherIS6_EESaISB_EEEE16IterateOverTupleIS3_Lm17EEclES7_RKS3_SE_ = comdat any

$_ZNK7testing8internal26TransformTupleValuesHelperISt5tupleIJiiiiiiiiiiiiiiiiiiiiEENS0_22CastAndAppendTransformIRKmEESt20back_insert_iteratorISt6vectorINS_7MatcherIS6_EESaISB_EEEE16IterateOverTupleIS3_Lm16EEclES7_RKS3_SE_ = comdat any

$_ZNK7testing8internal26TransformTupleValuesHelperISt5tupleIJiiiiiiiiiiiiiiiiiiiiEENS0_22CastAndAppendTransformIRKmEESt20back_insert_iteratorISt6vectorINS_7MatcherIS6_EESaISB_EEEE16IterateOverTupleIS3_Lm15EEclES7_RKS3_SE_ = comdat any

$_ZNK7testing8internal26TransformTupleValuesHelperISt5tupleIJiiiiiiiiiiiiiiiiiiiiEENS0_22CastAndAppendTransformIRKmEESt20back_insert_iteratorISt6vectorINS_7MatcherIS6_EESaISB_EEEE16IterateOverTupleIS3_Lm14EEclES7_RKS3_SE_ = comdat any

$_ZNK7testing8internal26TransformTupleValuesHelperISt5tupleIJiiiiiiiiiiiiiiiiiiiiEENS0_22CastAndAppendTransformIRKmEESt20back_insert_iteratorISt6vectorINS_7MatcherIS6_EESaISB_EEEE16IterateOverTupleIS3_Lm13EEclES7_RKS3_SE_ = comdat any

$_ZNK7testing8internal26TransformTupleValuesHelperISt5tupleIJiiiiiiiiiiiiiiiiiiiiEENS0_22CastAndAppendTransformIRKmEESt20back_insert_iteratorISt6vectorINS_7MatcherIS6_EESaISB_EEEE16IterateOverTupleIS3_Lm12EEclES7_RKS3_SE_ = comdat any

$_ZNK7testing8internal26TransformTupleValuesHelperISt5tupleIJiiiiiiiiiiiiiiiiiiiiEENS0_22CastAndAppendTransformIRKmEESt20back_insert_iteratorISt6vectorINS_7MatcherIS6_EESaISB_EEEE16IterateOverTupleIS3_Lm11EEclES7_RKS3_SE_ = comdat any

$_ZNK7testing8internal26TransformTupleValuesHelperISt5tupleIJiiiiiiiiiiiiiiiiiiiiEENS0_22CastAndAppendTransformIRKmEESt20back_insert_iteratorISt6vectorINS_7MatcherIS6_EESaISB_EEEE16IterateOverTupleIS3_Lm10EEclES7_RKS3_SE_ = comdat any

$_ZNK7testing8internal26TransformTupleValuesHelperISt5tupleIJiiiiiiiiiiiiiiiiiiiiEENS0_22CastAndAppendTransformIRKmEESt20back_insert_iteratorISt6vectorINS_7MatcherIS6_EESaISB_EEEE16IterateOverTupleIS3_Lm9EEclES7_RKS3_SE_ = comdat any

$_ZNK7testing8internal26TransformTupleValuesHelperISt5tupleIJiiiiiiiiiiiiiiiiiiiiEENS0_22CastAndAppendTransformIRKmEESt20back_insert_iteratorISt6vectorINS_7MatcherIS6_EESaISB_EEEE16IterateOverTupleIS3_Lm8EEclES7_RKS3_SE_ = comdat any

$_ZNK7testing8internal26TransformTupleValuesHelperISt5tupleIJiiiiiiiiiiiiiiiiiiiiEENS0_22CastAndAppendTransformIRKmEESt20back_insert_iteratorISt6vectorINS_7MatcherIS6_EESaISB_EEEE16IterateOverTupleIS3_Lm7EEclES7_RKS3_SE_ = comdat any

$_ZNK7testing8internal26TransformTupleValuesHelperISt5tupleIJiiiiiiiiiiiiiiiiiiiiEENS0_22CastAndAppendTransformIRKmEESt20back_insert_iteratorISt6vectorINS_7MatcherIS6_EESaISB_EEEE16IterateOverTupleIS3_Lm6EEclES7_RKS3_SE_ = comdat any

$_ZNK7testing8internal26TransformTupleValuesHelperISt5tupleIJiiiiiiiiiiiiiiiiiiiiEENS0_22CastAndAppendTransformIRKmEESt20back_insert_iteratorISt6vectorINS_7MatcherIS6_EESaISB_EEEE16IterateOverTupleIS3_Lm5EEclES7_RKS3_SE_ = comdat any

$_ZNK7testing8internal26TransformTupleValuesHelperISt5tupleIJiiiiiiiiiiiiiiiiiiiiEENS0_22CastAndAppendTransformIRKmEESt20back_insert_iteratorISt6vectorINS_7MatcherIS6_EESaISB_EEEE16IterateOverTupleIS3_Lm4EEclES7_RKS3_SE_ = comdat any

$_ZNK7testing8internal26TransformTupleValuesHelperISt5tupleIJiiiiiiiiiiiiiiiiiiiiEENS0_22CastAndAppendTransformIRKmEESt20back_insert_iteratorISt6vectorINS_7MatcherIS6_EESaISB_EEEE16IterateOverTupleIS3_Lm3EEclES7_RKS3_SE_ = comdat any

$_ZNK7testing8internal26TransformTupleValuesHelperISt5tupleIJiiiiiiiiiiiiiiiiiiiiEENS0_22CastAndAppendTransformIRKmEESt20back_insert_iteratorISt6vectorINS_7MatcherIS6_EESaISB_EEEE16IterateOverTupleIS3_Lm2EEclES7_RKS3_SE_ = comdat any

$_ZN7testing8internal22ElementsAreMatcherImplIRKSt6vectorImSaImEEED2Ev = comdat any

$_ZN7testing8internal22ElementsAreMatcherImplIRKSt6vectorImSaImEEED0Ev = comdat any

$_ZNK7testing8internal22ElementsAreMatcherImplIRKSt6vectorImSaImEEE10DescribeToEPSo = comdat any

$_ZNK7testing8internal22ElementsAreMatcherImplIRKSt6vectorImSaImEEE18DescribeNegationToEPSo = comdat any

$_ZNK7testing8internal22ElementsAreMatcherImplIRKSt6vectorImSaImEEE15MatchAndExplainES6_PNS_19MatchResultListenerE = comdat any

$_ZN7testing7MessageC2ERKS0_ = comdat any

$_ZN7testing8internal24DummyMatchResultListenerD2Ev = comdat any

$_ZN7testing8internal24DummyMatchResultListenerD0Ev = comdat any

$_ZN7testing7MatcherIRKSt6vectorImSaImEEED0Ev = comdat any

$_ZNK7testing8internal11MatcherBaseIRKSt6vectorImSaImEEE18DescribeNegationToEPSo = comdat any

$_ZN7testing8internal11MatcherBaseIRKSt6vectorImSaImEEED2Ev = comdat any

$_ZN7testing8internal11MatcherBaseIRKSt6vectorImSaImEEED0Ev = comdat any

$_ZN7testing8internal11MatcherBaseIRKSt6vectorImSaImEEE19MatchAndExplainImplINS7_11ValuePolicyIPKNS_16MatcherInterfaceIS6_EELb1EEEEEDTcldtclsrT_3Getfp_E15MatchAndExplainfp0_fp1_EERKS7_S6_PNS_19MatchResultListenerE = comdat any

$_ZN7testing8internal11MatcherBaseIRKSt6vectorImSaImEEE12DescribeImplINS7_11ValuePolicyIPKNS_16MatcherInterfaceIS6_EELb1EEEEEvRKS7_PSob = comdat any

$_ZN7testing8internal11MatcherBaseIRKSt6vectorImSaImEEE16GetDescriberImplINS7_11ValuePolicyIPKNS_16MatcherInterfaceIS6_EELb1EEEEEPKNS_25MatcherDescriberInterfaceERKS7_ = comdat any

$_ZN7testing8internal13SharedPayloadISt10unique_ptrIKNS_16MatcherInterfaceIRKSt6vectorImSaImEEEESt14default_deleteISA_EEE7DestroyEPNS0_17SharedPayloadBaseE = comdat any

$_ZN7testing25StringMatchResultListenerD0Ev = comdat any

$_ZN7testing8internal16ContainerPrinter10PrintValueISt6vectorImSaImEEvEEvRKT_PSo = comdat any

$_ZN7testing8internal11GetTypeNameB5cxx11ERKSt9type_info = comdat any

$_ZN7testing8internal31CanonicalizeForStdLibVersioningENSt7__cxx1112basic_stringIcSt11char_traitsIcESaIcEEE = comdat any

$_ZN4absl17beta_distributionIdE15AlgorithmJoehnkINS_15random_internal13sequence_urbgEEEdRT_RKNS1_10param_typeE = comdat any

$_ZN4absl17beta_distributionIdE14AlgorithmChengINS_15random_internal13sequence_urbgEEEdRT_RKNS1_10param_typeE = comdat any

$_ZNK7testing8internal18ElementsAreMatcherISt5tupleIJllllllllllllllllllllEEEcvNS_7MatcherIT_EEIRKSt6vectorImSaImEEEEv = comdat any

$_ZNK7testing8internal26TransformTupleValuesHelperISt5tupleIJllllllllllllllllllllEENS0_22CastAndAppendTransformIRKmEESt20back_insert_iteratorISt6vectorINS_7MatcherIS6_EESaISB_EEEE16IterateOverTupleIS3_Lm20EEclES7_RKS3_SE_ = comdat any

$_ZNK7testing8internal26TransformTupleValuesHelperISt5tupleIJllllllllllllllllllllEENS0_22CastAndAppendTransformIRKmEESt20back_insert_iteratorISt6vectorINS_7MatcherIS6_EESaISB_EEEE16IterateOverTupleIS3_Lm19EEclES7_RKS3_SE_ = comdat any

$_ZNK7testing8internal26TransformTupleValuesHelperISt5tupleIJllllllllllllllllllllEENS0_22CastAndAppendTransformIRKmEESt20back_insert_iteratorISt6vectorINS_7MatcherIS6_EESaISB_EEEE16IterateOverTupleIS3_Lm18EEclES7_RKS3_SE_ = comdat any

$_ZNK7testing8internal26TransformTupleValuesHelperISt5tupleIJllllllllllllllllllllEENS0_22CastAndAppendTransformIRKmEESt20back_insert_iteratorISt6vectorINS_7MatcherIS6_EESaISB_EEEE16IterateOverTupleIS3_Lm17EEclES7_RKS3_SE_ = comdat any

$_ZNK7testing8internal26TransformTupleValuesHelperISt5tupleIJllllllllllllllllllllEENS0_22CastAndAppendTransformIRKmEESt20back_insert_iteratorISt6vectorINS_7MatcherIS6_EESaISB_EEEE16IterateOverTupleIS3_Lm16EEclES7_RKS3_SE_ = comdat any

$_ZNK7testing8internal26TransformTupleValuesHelperISt5tupleIJllllllllllllllllllllEENS0_22CastAndAppendTransformIRKmEESt20back_insert_iteratorISt6vectorINS_7MatcherIS6_EESaISB_EEEE16IterateOverTupleIS3_Lm15EEclES7_RKS3_SE_ = comdat any

$_ZNK7testing8internal26TransformTupleValuesHelperISt5tupleIJllllllllllllllllllllEENS0_22CastAndAppendTransformIRKmEESt20back_insert_iteratorISt6vectorINS_7MatcherIS6_EESaISB_EEEE16IterateOverTupleIS3_Lm14EEclES7_RKS3_SE_ = comdat any

$_ZNK7testing8internal26TransformTupleValuesHelperISt5tupleIJllllllllllllllllllllEENS0_22CastAndAppendTransformIRKmEESt20back_insert_iteratorISt6vectorINS_7MatcherIS6_EESaISB_EEEE16IterateOverTupleIS3_Lm13EEclES7_RKS3_SE_ = comdat any

$_ZNK7testing8internal26TransformTupleValuesHelperISt5tupleIJllllllllllllllllllllEENS0_22CastAndAppendTransformIRKmEESt20back_insert_iteratorISt6vectorINS_7MatcherIS6_EESaISB_EEEE16IterateOverTupleIS3_Lm12EEclES7_RKS3_SE_ = comdat any

$_ZNK7testing8internal26TransformTupleValuesHelperISt5tupleIJllllllllllllllllllllEENS0_22CastAndAppendTransformIRKmEESt20back_insert_iteratorISt6vectorINS_7MatcherIS6_EESaISB_EEEE16IterateOverTupleIS3_Lm11EEclES7_RKS3_SE_ = comdat any

$_ZNK7testing8internal26TransformTupleValuesHelperISt5tupleIJllllllllllllllllllllEENS0_22CastAndAppendTransformIRKmEESt20back_insert_iteratorISt6vectorINS_7MatcherIS6_EESaISB_EEEE16IterateOverTupleIS3_Lm10EEclES7_RKS3_SE_ = comdat any

$_ZNK7testing8internal26TransformTupleValuesHelperISt5tupleIJllllllllllllllllllllEENS0_22CastAndAppendTransformIRKmEESt20back_insert_iteratorISt6vectorINS_7MatcherIS6_EESaISB_EEEE16IterateOverTupleIS3_Lm9EEclES7_RKS3_SE_ = comdat any

$_ZNK7testing8internal26TransformTupleValuesHelperISt5tupleIJllllllllllllllllllllEENS0_22CastAndAppendTransformIRKmEESt20back_insert_iteratorISt6vectorINS_7MatcherIS6_EESaISB_EEEE16IterateOverTupleIS3_Lm8EEclES7_RKS3_SE_ = comdat any

$_ZNK7testing8internal26TransformTupleValuesHelperISt5tupleIJllllllllllllllllllllEENS0_22CastAndAppendTransformIRKmEESt20back_insert_iteratorISt6vectorINS_7MatcherIS6_EESaISB_EEEE16IterateOverTupleIS3_Lm7EEclES7_RKS3_SE_ = comdat any

$_ZNK7testing8internal26TransformTupleValuesHelperISt5tupleIJllllllllllllllllllllEENS0_22CastAndAppendTransformIRKmEESt20back_insert_iteratorISt6vectorINS_7MatcherIS6_EESaISB_EEEE16IterateOverTupleIS3_Lm6EEclES7_RKS3_SE_ = comdat any

$_ZNK7testing8internal26TransformTupleValuesHelperISt5tupleIJllllllllllllllllllllEENS0_22CastAndAppendTransformIRKmEESt20back_insert_iteratorISt6vectorINS_7MatcherIS6_EESaISB_EEEE16IterateOverTupleIS3_Lm5EEclES7_RKS3_SE_ = comdat any

$_ZNK7testing8internal26TransformTupleValuesHelperISt5tupleIJllllllllllllllllllllEENS0_22CastAndAppendTransformIRKmEESt20back_insert_iteratorISt6vectorINS_7MatcherIS6_EESaISB_EEEE16IterateOverTupleIS3_Lm4EEclES7_RKS3_SE_ = comdat any

$_ZNK7testing8internal26TransformTupleValuesHelperISt5tupleIJllllllllllllllllllllEENS0_22CastAndAppendTransformIRKmEESt20back_insert_iteratorISt6vectorINS_7MatcherIS6_EESaISB_EEEE16IterateOverTupleIS3_Lm3EEclES7_RKS3_SE_ = comdat any

$_ZNK7testing8internal26TransformTupleValuesHelperISt5tupleIJllllllllllllllllllllEENS0_22CastAndAppendTransformIRKmEESt20back_insert_iteratorISt6vectorINS_7MatcherIS6_EESaISB_EEEE16IterateOverTupleIS3_Lm2EEclES7_RKS3_SE_ = comdat any

$_ZN7testing8internal18CmpHelperEQFailureIddEENS_15AssertionResultEPKcS4_RKT_RKT0_ = comdat any

$_ZNSt7__cxx1112basic_stringIcSt11char_traitsIcESaIcEE12_M_constructIPKcEEvT_S8_St20forward_iterator_tag = comdat any

$_ZZNSt7__cxx1112basic_stringIcSt11char_traitsIcESaIcEE12_M_constructIPKcEEvT_S8_St20forward_iterator_tagEN6_GuardD2Ev = comdat any

$_ZN7testing8internal19GetPrefixUntilCommaB5cxx11EPKc = comdat any

$_ZN4absllsIcSt11char_traitsIcEfEERSt13basic_ostreamIT_T0_ES7_RKNS_17beta_distributionIT1_EE = comdat any

$_ZN4abslrsIcSt11char_traitsIcEfEERSt13basic_istreamIT_T0_ES7_RNS_17beta_distributionIT1_EE = comdat any

$_ZN7testing8internal18CmpHelperEQFailureIffEENS_15AssertionResultEPKcS4_RKT_RKT0_ = comdat any

$_ZN7testing8internal7PrintToEfPSo = comdat any

$_ZN7testing8internal18CmpHelperEQFailureIN4absl17beta_distributionIfEES4_EENS_15AssertionResultEPKcS7_RKT_RKT0_ = comdat any

$_ZN7testing8internal18CmpHelperEQFailureIN4absl17beta_distributionIfE10param_typeES5_EENS_15AssertionResultEPKcS8_RKT_RKT0_ = comdat any

$_ZN7testing8internal18CmpHelperOpFailureIffEENS_15AssertionResultEPKcS4_RKT_RKT0_S4_ = comdat any

$_ZN4absl15random_internal19ostream_state_saverISoED2Ev = comdat any

$_ZN7testing8internal18CmpHelperOpFailureIN4absl17beta_distributionIfE10param_typeES5_EENS_15AssertionResultEPKcS8_RKT_RKT0_S8_ = comdat any

$_ZN7testing8internal18CmpHelperOpFailureIN4absl17beta_distributionIfEES4_EENS_15AssertionResultEPKcS7_RKT_RKT0_S7_ = comdat any

$_ZN4absllsIcSt11char_traitsIcEdEERSt13basic_ostreamIT_T0_ES7_RKNS_17beta_distributionIT1_EE = comdat any

$_ZN4abslrsIcSt11char_traitsIcEdEERSt13basic_istreamIT_T0_ES7_RNS_17beta_distributionIT1_EE = comdat any

$_ZN7testing8internal18CmpHelperEQFailureIN4absl17beta_distributionIdEES4_EENS_15AssertionResultEPKcS7_RKT_RKT0_ = comdat any

$_ZN7testing8internal18CmpHelperEQFailureIN4absl17beta_distributionIdE10param_typeES5_EENS_15AssertionResultEPKcS8_RKT_RKT0_ = comdat any

$_ZN7testing8internal18CmpHelperOpFailureIN4absl17beta_distributionIdE10param_typeES5_EENS_15AssertionResultEPKcS8_RKT_RKT0_S8_ = comdat any

$_ZN7testing8internal18CmpHelperOpFailureIN4absl17beta_distributionIdEES4_EENS_15AssertionResultEPKcS7_RKT_RKT0_S7_ = comdat any

$_ZN7testing8internal24GenerateNamesRecursivelyINS0_20DefaultNameGeneratorENS0_5TypesIfJdEEEEEvT0_PSt6vectorINSt7__cxx1112basic_stringIcSt11char_traitsIcESaIcEEESaISC_EEi = comdat any

$_ZN7testing8internal24GenerateNamesRecursivelyINS0_20DefaultNameGeneratorENS0_5TypesIdJEEEEEvT0_PSt6vectorINSt7__cxx1112basic_stringIcSt11char_traitsIcESaIcEEESaISC_EEi = comdat any

$_ZNSt6vectorINSt7__cxx1112basic_stringIcSt11char_traitsIcESaIcEEESaIS5_EE17_M_realloc_insertIJS5_EEEvN9__gnu_cxx17__normal_iteratorIPS5_S7_EEDpOT_ = comdat any

$_ZN7testing8internal24CmpHelperFloatingPointEQIfEENS_15AssertionResultEPKcS4_T_S5_ = comdat any

$_ZN4absl17beta_distributionIfE15AlgorithmJoehnkINS_15random_internal10pcg_engineINS3_13pcg128_paramsILm2549297995355413924ELm4865540595714422341ELm6364136223846793005ELm1442695040888963407EEENS3_17pcg_xsl_rr_128_64EEEEEfRT_RKNS1_10param_typeE = comdat any

$_ZN4absl17beta_distributionIfE14AlgorithmChengINS_15random_internal10pcg_engineINS3_13pcg128_paramsILm2549297995355413924ELm4865540595714422341ELm6364136223846793005ELm1442695040888963407EEENS3_17pcg_xsl_rr_128_64EEEEEfRT_RKNS1_10param_typeE = comdat any

$_ZN7testing8internal18CmpHelperEQFailureIiiEENS_15AssertionResultEPKcS4_RKT_RKT0_ = comdat any

$_ZN7testing8internal18CmpHelperEQFailureIfdEENS_15AssertionResultEPKcS4_RKT_RKT0_ = comdat any

$_ZN4absl17beta_distributionIdE15AlgorithmJoehnkINS_15random_internal10pcg_engineINS3_13pcg128_paramsILm2549297995355413924ELm4865540595714422341ELm6364136223846793005ELm1442695040888963407EEENS3_17pcg_xsl_rr_128_64EEEEEdRT_RKNS1_10param_typeE = comdat any

$_ZN4absl17beta_distributionIdE14AlgorithmChengINS_15random_internal10pcg_engineINS3_13pcg128_paramsILm2549297995355413924ELm4865540595714422341ELm6364136223846793005ELm1442695040888963407EEENS3_17pcg_xsl_rr_128_64EEEEEdRT_RKNS1_10param_typeE = comdat any

$_ZN7testing8internal18CmpHelperOpFailureIdfEENS_15AssertionResultEPKcS4_RKT_RKT0_S4_ = comdat any

$_ZN7testing8internal5posix5AbortEv = comdat any

$_ZNSt8_Rb_treeINSt7__cxx1112basic_stringIcSt11char_traitsIcESaIcEEES5_St9_IdentityIS5_ESt4lessIS5_ESaIS5_EE8_M_eraseEPSt13_Rb_tree_nodeIS5_E = comdat any

$_ZTSSt16_Sp_counted_baseILN9__gnu_cxx12_Lock_policyE2EE = comdat any

$_ZTSSt11_Mutex_baseILN9__gnu_cxx12_Lock_policyE2EE = comdat any

$_ZTISt11_Mutex_baseILN9__gnu_cxx12_Lock_policyE2EE = comdat any

$_ZTISt16_Sp_counted_baseILN9__gnu_cxx12_Lock_policyE2EE = comdat any

$_ZTSN7testing8internal19TestMetaFactoryBaseISt5tupleIJddEEEE = comdat any

$_ZTIN7testing8internal19TestMetaFactoryBaseISt5tupleIJddEEEE = comdat any

$_ZTSN7testing8internal15TestFactoryBaseE = comdat any

$_ZTIN7testing8internal15TestFactoryBaseE = comdat any

$_ZN7testing18WithParamInterfaceISt5tupleIJddEEE10parameter_E = comdat any

$_ZTSN7testing13TestWithParamISt5tupleIJddEEEE = comdat any

$_ZTSN7testing18WithParamInterfaceISt5tupleIJddEEEE = comdat any

$_ZTIN7testing18WithParamInterfaceISt5tupleIJddEEEE = comdat any

$_ZTIN7testing13TestWithParamISt5tupleIJddEEEE = comdat any

$_ZTSN7testing8internal16GTestNonCopyableE = comdat any

$_ZTIN7testing8internal16GTestNonCopyableE = comdat any

$_ZTVN7testing13TestWithParamISt5tupleIJddEEEE = comdat any

$_ZTVN7testing8internal30ValuesInIteratorRangeGeneratorIdEE = comdat any

$_ZTSN7testing8internal30ValuesInIteratorRangeGeneratorIdEE = comdat any

$_ZTSN7testing8internal23ParamGeneratorInterfaceIdEE = comdat any

$_ZTIN7testing8internal23ParamGeneratorInterfaceIdEE = comdat any

$_ZTIN7testing8internal30ValuesInIteratorRangeGeneratorIdEE = comdat any

$_ZTVN7testing8internal30ValuesInIteratorRangeGeneratorIdE8IteratorE = comdat any

$_ZTSN7testing8internal30ValuesInIteratorRangeGeneratorIdE8IteratorE = comdat any

$_ZTSN7testing8internal22ParamIteratorInterfaceIdEE = comdat any

$_ZTIN7testing8internal22ParamIteratorInterfaceIdEE = comdat any

$_ZTIN7testing8internal30ValuesInIteratorRangeGeneratorIdE8IteratorE = comdat any

$_ZTVSt15_Sp_counted_ptrIPN7testing8internal23ParamGeneratorInterfaceIdEELN9__gnu_cxx12_Lock_policyE2EE = comdat any

$_ZTSSt15_Sp_counted_ptrIPN7testing8internal23ParamGeneratorInterfaceIdEELN9__gnu_cxx12_Lock_policyE2EE = comdat any

$_ZTISt15_Sp_counted_ptrIPN7testing8internal23ParamGeneratorInterfaceIdEELN9__gnu_cxx12_Lock_policyE2EE = comdat any

$_ZTVN7testing8internal25CartesianProductGeneratorIJddEEE = comdat any

$_ZTSN7testing8internal25CartesianProductGeneratorIJddEEE = comdat any

$_ZTSN7testing8internal23ParamGeneratorInterfaceISt5tupleIJddEEEE = comdat any

$_ZTIN7testing8internal23ParamGeneratorInterfaceISt5tupleIJddEEEE = comdat any

$_ZTIN7testing8internal25CartesianProductGeneratorIJddEEE = comdat any

$_ZTVN7testing8internal25CartesianProductGeneratorIJddEE12IteratorImplINS0_13IndexSequenceIJLm0ELm1EEEEEE = comdat any

$_ZTSN7testing8internal25CartesianProductGeneratorIJddEE12IteratorImplINS0_13IndexSequenceIJLm0ELm1EEEEEE = comdat any

$_ZTSN7testing8internal22ParamIteratorInterfaceISt5tupleIJddEEEE = comdat any

$_ZTIN7testing8internal22ParamIteratorInterfaceISt5tupleIJddEEEE = comdat any

$_ZTIN7testing8internal25CartesianProductGeneratorIJddEE12IteratorImplINS0_13IndexSequenceIJLm0ELm1EEEEEE = comdat any

$_ZTVSt23_Sp_counted_ptr_inplaceISt5tupleIJddEESaIvELN9__gnu_cxx12_Lock_policyE2EE = comdat any

$_ZTSSt23_Sp_counted_ptr_inplaceISt5tupleIJddEESaIvELN9__gnu_cxx12_Lock_policyE2EE = comdat any

$_ZTISt23_Sp_counted_ptr_inplaceISt5tupleIJddEESaIvELN9__gnu_cxx12_Lock_policyE2EE = comdat any

$_ZTSSt19_Sp_make_shared_tag = comdat any

$_ZZNSt19_Sp_make_shared_tag5_S_tiEvE5__tag = comdat any

$_ZTVSt15_Sp_counted_ptrIPN7testing8internal23ParamGeneratorInterfaceISt5tupleIJddEEEELN9__gnu_cxx12_Lock_policyE2EE = comdat any

$_ZTSSt15_Sp_counted_ptrIPN7testing8internal23ParamGeneratorInterfaceISt5tupleIJddEEEELN9__gnu_cxx12_Lock_policyE2EE = comdat any

$_ZTISt15_Sp_counted_ptrIPN7testing8internal23ParamGeneratorInterfaceISt5tupleIJddEEEELN9__gnu_cxx12_Lock_policyE2EE = comdat any

$_ZTVN7testing8internal30ValuesInIteratorRangeGeneratorISt5tupleIJddEEEE = comdat any

$_ZTSN7testing8internal30ValuesInIteratorRangeGeneratorISt5tupleIJddEEEE = comdat any

$_ZTIN7testing8internal30ValuesInIteratorRangeGeneratorISt5tupleIJddEEEE = comdat any

$_ZTVN7testing8internal30ValuesInIteratorRangeGeneratorISt5tupleIJddEEE8IteratorE = comdat any

$_ZTSN7testing8internal30ValuesInIteratorRangeGeneratorISt5tupleIJddEEE8IteratorE = comdat any

$_ZTIN7testing8internal30ValuesInIteratorRangeGeneratorISt5tupleIJddEEE8IteratorE = comdat any

$_ZTVN7testing7MatcherIRKmEE = comdat any

$_ZTSN7testing7MatcherIRKmEE = comdat any

$_ZTSN7testing8internal11MatcherBaseIRKmEE = comdat any

$_ZTSN7testing25MatcherDescriberInterfaceE = comdat any

$_ZTIN7testing25MatcherDescriberInterfaceE = comdat any

$_ZTIN7testing8internal11MatcherBaseIRKmEE = comdat any

$_ZTIN7testing7MatcherIRKmEE = comdat any

$_ZTVN7testing8internal11MatcherBaseIRKmEE = comdat any

$_ZZN7testing8internal11MatcherBaseIRKmE9GetVTableINS4_11ValuePolicyINS0_9EqMatcherImEELb1EEEEEPKNS4_6VTableEvE7kVTable = comdat any

$_ZTVN7testing8internal22ElementsAreMatcherImplIRKSt6vectorImSaImEEEE = comdat any

$_ZTSN7testing8internal22ElementsAreMatcherImplIRKSt6vectorImSaImEEEE = comdat any

$_ZTSN7testing16MatcherInterfaceIRKSt6vectorImSaImEEEE = comdat any

$_ZTIN7testing16MatcherInterfaceIRKSt6vectorImSaImEEEE = comdat any

$_ZTIN7testing8internal22ElementsAreMatcherImplIRKSt6vectorImSaImEEEE = comdat any

$_ZTVN7testing8internal24DummyMatchResultListenerE = comdat any

$_ZTSN7testing8internal24DummyMatchResultListenerE = comdat any

$_ZTSN7testing19MatchResultListenerE = comdat any

$_ZTIN7testing19MatchResultListenerE = comdat any

$_ZTIN7testing8internal24DummyMatchResultListenerE = comdat any

$_ZTVN7testing7MatcherIRKSt6vectorImSaImEEEE = comdat any

$_ZTSN7testing7MatcherIRKSt6vectorImSaImEEEE = comdat any

$_ZTSN7testing8internal11MatcherBaseIRKSt6vectorImSaImEEEE = comdat any

$_ZTIN7testing8internal11MatcherBaseIRKSt6vectorImSaImEEEE = comdat any

$_ZTIN7testing7MatcherIRKSt6vectorImSaImEEEE = comdat any

$_ZTVN7testing8internal11MatcherBaseIRKSt6vectorImSaImEEEE = comdat any

$_ZZN7testing8internal11MatcherBaseIRKSt6vectorImSaImEEE9GetVTableINS7_11ValuePolicyIPKNS_16MatcherInterfaceIS6_EELb1EEEEEPKNS7_6VTableEvE7kVTable = comdat any

$_ZTVN7testing25StringMatchResultListenerE = comdat any

$_ZTSN7testing25StringMatchResultListenerE = comdat any

$_ZTIN7testing25StringMatchResultListenerE = comdat any

$_ZTSSt6vectorImSaImEE = comdat any

$_ZTSSt12_Vector_baseImSaImEE = comdat any

$_ZTISt12_Vector_baseImSaImEE = comdat any

$_ZTISt6vectorImSaImEE = comdat any

$_ZZN7testing8internal31CanonicalizeForStdLibVersioningENSt7__cxx1112basic_stringIcSt11char_traitsIcESaIcEEEE6prefix = comdat any

$_ZZN7testing8internal31CanonicalizeForStdLibVersioningENSt7__cxx1112basic_stringIcSt11char_traitsIcESaIcEEEE9to_search = comdat any

$_ZZN7testing8internal31CanonicalizeForStdLibVersioningENSt7__cxx1112basic_stringIcSt11char_traitsIcESaIcEEEE11replace_str = comdat any

$_ZTSN7testing8internal30ParameterizedTestSuiteInfoBaseE = comdat any

$_ZTIN7testing8internal30ParameterizedTestSuiteInfoBaseE = comdat any

@_ZStL8__ioinit = internal global %"class.std::ios_base::Init" zeroinitializer, align 1
@__dso_handle = external hidden global i8
@.str = private unnamed_addr constant [1 x i8] zeroinitializer, align 1
@.str.2 = private unnamed_addr constant [137 x i8] c"generated/home/dtcxzyw/WorkSpace/Projects/compilers/llvm-opt-benchmark/bench/abseil-cpp/abseil-cpp/absl/random/beta_distribution_test.cc\00", align 1
@.str.3 = private unnamed_addr constant [30 x i8] c"BetaDistributionInterfaceTest\00", align 1
@.str.4 = private unnamed_addr constant [14 x i8] c"SerializeTest\00", align 1
@.str.6 = private unnamed_addr constant [16 x i8] c"DegenerateCases\00", align 1
@.str.9 = private unnamed_addr constant [21 x i8] c"BetaDistributionTest\00", align 1
@.str.10 = private unnamed_addr constant [33 x i8] c"TestSampleStatisticsCombinations\00", align 1
@.str.12 = private unnamed_addr constant [35 x i8] c"TestSampleStatistics_SelectedPairs\00", align 1
@_ZN12_GLOBAL__N_139BetaDistributionTest_StabilityTest_Test10test_info_E = internal unnamed_addr global ptr null, align 8
@.str.14 = private unnamed_addr constant [14 x i8] c"StabilityTest\00", align 1
@_ZN12_GLOBAL__N_141BetaDistributionTest_AlgorithmBounds_Test10test_info_E = internal unnamed_addr global ptr null, align 8
@.str.16 = private unnamed_addr constant [16 x i8] c"AlgorithmBounds\00", align 1
@.str.17 = private unnamed_addr constant [21 x i8] c"TestSampleStatistics\00", align 1
@.str.18 = private unnamed_addr constant [26 x i8] c"vector::_M_realloc_insert\00", align 1
@_ZTVSt15_Sp_counted_ptrIPN7testing8internal26ParameterizedTestSuiteInfoIN12_GLOBAL__N_120BetaDistributionTestEE8TestInfoELN9__gnu_cxx12_Lock_policyE2EE = internal unnamed_addr constant { [7 x ptr] } { [7 x ptr] [ptr null, ptr @_ZTISt15_Sp_counted_ptrIPN7testing8internal26ParameterizedTestSuiteInfoIN12_GLOBAL__N_120BetaDistributionTestEE8TestInfoELN9__gnu_cxx12_Lock_policyE2EE, ptr @_ZNSt15_Sp_counted_ptrIPN7testing8internal26ParameterizedTestSuiteInfoIN12_GLOBAL__N_120BetaDistributionTestEE8TestInfoELN9__gnu_cxx12_Lock_policyE2EED2Ev, ptr @_ZNSt15_Sp_counted_ptrIPN7testing8internal26ParameterizedTestSuiteInfoIN12_GLOBAL__N_120BetaDistributionTestEE8TestInfoELN9__gnu_cxx12_Lock_policyE2EED0Ev, ptr @_ZNSt15_Sp_counted_ptrIPN7testing8internal26ParameterizedTestSuiteInfoIN12_GLOBAL__N_120BetaDistributionTestEE8TestInfoELN9__gnu_cxx12_Lock_policyE2EE10_M_disposeEv, ptr @_ZNSt15_Sp_counted_ptrIPN7testing8internal26ParameterizedTestSuiteInfoIN12_GLOBAL__N_120BetaDistributionTestEE8TestInfoELN9__gnu_cxx12_Lock_policyE2EE10_M_destroyEv, ptr @_ZNSt15_Sp_counted_ptrIPN7testing8internal26ParameterizedTestSuiteInfoIN12_GLOBAL__N_120BetaDistributionTestEE8TestInfoELN9__gnu_cxx12_Lock_policyE2EE14_M_get_deleterERKSt9type_info] }, align 8
@_ZTVN10__cxxabiv120__si_class_type_infoE = external global [0 x ptr]
@_ZTSSt15_Sp_counted_ptrIPN7testing8internal26ParameterizedTestSuiteInfoIN12_GLOBAL__N_120BetaDistributionTestEE8TestInfoELN9__gnu_cxx12_Lock_policyE2EE = internal constant [148 x i8] c"St15_Sp_counted_ptrIPN7testing8internal26ParameterizedTestSuiteInfoIN12_GLOBAL__N_120BetaDistributionTestEE8TestInfoELN9__gnu_cxx12_Lock_policyE2EE\00", align 1
@_ZTSSt16_Sp_counted_baseILN9__gnu_cxx12_Lock_policyE2EE = linkonce_odr dso_local constant [52 x i8] c"St16_Sp_counted_baseILN9__gnu_cxx12_Lock_policyE2EE\00", comdat, align 1
@_ZTVN10__cxxabiv117__class_type_infoE = external global [0 x ptr]
@_ZTSSt11_Mutex_baseILN9__gnu_cxx12_Lock_policyE2EE = linkonce_odr dso_local constant [47 x i8] c"St11_Mutex_baseILN9__gnu_cxx12_Lock_policyE2EE\00", comdat, align 1
@_ZTISt11_Mutex_baseILN9__gnu_cxx12_Lock_policyE2EE = linkonce_odr dso_local constant { ptr, ptr } { ptr getelementptr inbounds (ptr, ptr @_ZTVN10__cxxabiv117__class_type_infoE, i64 2), ptr @_ZTSSt11_Mutex_baseILN9__gnu_cxx12_Lock_policyE2EE }, comdat, align 8
@_ZTISt16_Sp_counted_baseILN9__gnu_cxx12_Lock_policyE2EE = linkonce_odr dso_local constant { ptr, ptr, ptr } { ptr getelementptr inbounds (ptr, ptr @_ZTVN10__cxxabiv120__si_class_type_infoE, i64 2), ptr @_ZTSSt16_Sp_counted_baseILN9__gnu_cxx12_Lock_policyE2EE, ptr @_ZTISt11_Mutex_baseILN9__gnu_cxx12_Lock_policyE2EE }, comdat, align 8
@_ZTISt15_Sp_counted_ptrIPN7testing8internal26ParameterizedTestSuiteInfoIN12_GLOBAL__N_120BetaDistributionTestEE8TestInfoELN9__gnu_cxx12_Lock_policyE2EE = internal constant { ptr, ptr, ptr } { ptr getelementptr inbounds (ptr, ptr @_ZTVN10__cxxabiv120__si_class_type_infoE, i64 2), ptr @_ZTSSt15_Sp_counted_ptrIPN7testing8internal26ParameterizedTestSuiteInfoIN12_GLOBAL__N_120BetaDistributionTestEE8TestInfoELN9__gnu_cxx12_Lock_policyE2EE, ptr @_ZTISt16_Sp_counted_baseILN9__gnu_cxx12_Lock_policyE2EE }, align 8
@__libc_single_threaded = external local_unnamed_addr global i8, align 1
@_ZTVN7testing8internal15TestMetaFactoryIN12_GLOBAL__N_146BetaDistributionTest_TestSampleStatistics_TestEEE = internal unnamed_addr constant { [5 x ptr] } { [5 x ptr] [ptr null, ptr @_ZTIN7testing8internal15TestMetaFactoryIN12_GLOBAL__N_146BetaDistributionTest_TestSampleStatistics_TestEEE, ptr @_ZN7testing8internal15TestMetaFactoryIN12_GLOBAL__N_146BetaDistributionTest_TestSampleStatistics_TestEED2Ev, ptr @_ZN7testing8internal15TestMetaFactoryIN12_GLOBAL__N_146BetaDistributionTest_TestSampleStatistics_TestEED0Ev, ptr @_ZN7testing8internal15TestMetaFactoryIN12_GLOBAL__N_146BetaDistributionTest_TestSampleStatistics_TestEE17CreateTestFactoryESt5tupleIJddEE] }, align 8
@_ZTSN7testing8internal15TestMetaFactoryIN12_GLOBAL__N_146BetaDistributionTest_TestSampleStatistics_TestEEE = internal constant [103 x i8] c"N7testing8internal15TestMetaFactoryIN12_GLOBAL__N_146BetaDistributionTest_TestSampleStatistics_TestEEE\00", align 1
@_ZTSN7testing8internal19TestMetaFactoryBaseISt5tupleIJddEEEE = linkonce_odr dso_local constant [57 x i8] c"N7testing8internal19TestMetaFactoryBaseISt5tupleIJddEEEE\00", comdat, align 1
@_ZTIN7testing8internal19TestMetaFactoryBaseISt5tupleIJddEEEE = linkonce_odr dso_local constant { ptr, ptr } { ptr getelementptr inbounds (ptr, ptr @_ZTVN10__cxxabiv117__class_type_infoE, i64 2), ptr @_ZTSN7testing8internal19TestMetaFactoryBaseISt5tupleIJddEEEE }, comdat, align 8
@_ZTIN7testing8internal15TestMetaFactoryIN12_GLOBAL__N_146BetaDistributionTest_TestSampleStatistics_TestEEE = internal constant { ptr, ptr, ptr } { ptr getelementptr inbounds (ptr, ptr @_ZTVN10__cxxabiv120__si_class_type_infoE, i64 2), ptr @_ZTSN7testing8internal15TestMetaFactoryIN12_GLOBAL__N_146BetaDistributionTest_TestSampleStatistics_TestEEE, ptr @_ZTIN7testing8internal19TestMetaFactoryBaseISt5tupleIJddEEEE }, align 8
@_ZTVN7testing8internal24ParameterizedTestFactoryIN12_GLOBAL__N_146BetaDistributionTest_TestSampleStatistics_TestEEE = internal unnamed_addr constant { [5 x ptr] } { [5 x ptr] [ptr null, ptr @_ZTIN7testing8internal24ParameterizedTestFactoryIN12_GLOBAL__N_146BetaDistributionTest_TestSampleStatistics_TestEEE, ptr @_ZN7testing8internal24ParameterizedTestFactoryIN12_GLOBAL__N_146BetaDistributionTest_TestSampleStatistics_TestEED2Ev, ptr @_ZN7testing8internal24ParameterizedTestFactoryIN12_GLOBAL__N_146BetaDistributionTest_TestSampleStatistics_TestEED0Ev, ptr @_ZN7testing8internal24ParameterizedTestFactoryIN12_GLOBAL__N_146BetaDistributionTest_TestSampleStatistics_TestEE10CreateTestEv] }, align 8
@_ZTSN7testing8internal24ParameterizedTestFactoryIN12_GLOBAL__N_146BetaDistributionTest_TestSampleStatistics_TestEEE = internal constant [112 x i8] c"N7testing8internal24ParameterizedTestFactoryIN12_GLOBAL__N_146BetaDistributionTest_TestSampleStatistics_TestEEE\00", align 1
@_ZTSN7testing8internal15TestFactoryBaseE = linkonce_odr dso_local constant [37 x i8] c"N7testing8internal15TestFactoryBaseE\00", comdat, align 1
@_ZTIN7testing8internal15TestFactoryBaseE = linkonce_odr dso_local constant { ptr, ptr } { ptr getelementptr inbounds (ptr, ptr @_ZTVN10__cxxabiv117__class_type_infoE, i64 2), ptr @_ZTSN7testing8internal15TestFactoryBaseE }, comdat, align 8
@_ZTIN7testing8internal24ParameterizedTestFactoryIN12_GLOBAL__N_146BetaDistributionTest_TestSampleStatistics_TestEEE = internal constant { ptr, ptr, ptr } { ptr getelementptr inbounds (ptr, ptr @_ZTVN10__cxxabiv120__si_class_type_infoE, i64 2), ptr @_ZTSN7testing8internal24ParameterizedTestFactoryIN12_GLOBAL__N_146BetaDistributionTest_TestSampleStatistics_TestEEE, ptr @_ZTIN7testing8internal15TestFactoryBaseE }, align 8
@_ZN7testing18WithParamInterfaceISt5tupleIJddEEE10parameter_E = linkonce_odr dso_local local_unnamed_addr global ptr null, comdat, align 8
@_ZTVN12_GLOBAL__N_146BetaDistributionTest_TestSampleStatistics_TestE = internal unnamed_addr constant { [8 x ptr], [4 x ptr] } { [8 x ptr] [ptr null, ptr @_ZTIN12_GLOBAL__N_146BetaDistributionTest_TestSampleStatistics_TestE, ptr @_ZN12_GLOBAL__N_146BetaDistributionTest_TestSampleStatistics_TestD2Ev, ptr @_ZN12_GLOBAL__N_146BetaDistributionTest_TestSampleStatistics_TestD0Ev, ptr @_ZN7testing4Test5SetUpEv, ptr @_ZN7testing4Test8TearDownEv, ptr @_ZN12_GLOBAL__N_146BetaDistributionTest_TestSampleStatistics_Test8TestBodyEv, ptr @_ZN7testing4Test5SetupEv], [4 x ptr] [ptr inttoptr (i64 -16 to ptr), ptr @_ZTIN12_GLOBAL__N_146BetaDistributionTest_TestSampleStatistics_TestE, ptr @_ZThn16_N12_GLOBAL__N_146BetaDistributionTest_TestSampleStatistics_TestD1Ev, ptr @_ZThn16_N12_GLOBAL__N_146BetaDistributionTest_TestSampleStatistics_TestD0Ev] }, align 8
@_ZTVN10__cxxabiv121__vmi_class_type_infoE = external global [0 x ptr]
@_ZTSN12_GLOBAL__N_146BetaDistributionTest_TestSampleStatistics_TestE = internal constant [65 x i8] c"N12_GLOBAL__N_146BetaDistributionTest_TestSampleStatistics_TestE\00", align 1
@_ZTSN12_GLOBAL__N_120BetaDistributionTestE = internal constant [39 x i8] c"N12_GLOBAL__N_120BetaDistributionTestE\00", align 1
@_ZTSN7testing13TestWithParamISt5tupleIJddEEEE = linkonce_odr dso_local constant [42 x i8] c"N7testing13TestWithParamISt5tupleIJddEEEE\00", comdat, align 1
@_ZTIN7testing4TestE = external constant ptr
@_ZTSN7testing18WithParamInterfaceISt5tupleIJddEEEE = linkonce_odr dso_local constant [47 x i8] c"N7testing18WithParamInterfaceISt5tupleIJddEEEE\00", comdat, align 1
@_ZTIN7testing18WithParamInterfaceISt5tupleIJddEEEE = linkonce_odr dso_local constant { ptr, ptr } { ptr getelementptr inbounds (ptr, ptr @_ZTVN10__cxxabiv117__class_type_infoE, i64 2), ptr @_ZTSN7testing18WithParamInterfaceISt5tupleIJddEEEE }, comdat, align 8
@_ZTIN7testing13TestWithParamISt5tupleIJddEEEE = linkonce_odr dso_local constant { ptr, ptr, i32, i32, ptr, i64, ptr, i64 } { ptr getelementptr inbounds (ptr, ptr @_ZTVN10__cxxabiv121__vmi_class_type_infoE, i64 2), ptr @_ZTSN7testing13TestWithParamISt5tupleIJddEEEE, i32 0, i32 2, ptr @_ZTIN7testing4TestE, i64 2, ptr @_ZTIN7testing18WithParamInterfaceISt5tupleIJddEEEE, i64 4098 }, comdat, align 8
@_ZTSN12_GLOBAL__N_121BetaDistributionModelE = internal constant [40 x i8] c"N12_GLOBAL__N_121BetaDistributionModelE\00", align 1
@_ZTIN12_GLOBAL__N_121BetaDistributionModelE = internal constant { ptr, ptr } { ptr getelementptr inbounds (ptr, ptr @_ZTVN10__cxxabiv117__class_type_infoE, i64 2), ptr @_ZTSN12_GLOBAL__N_121BetaDistributionModelE }, align 8
@_ZTIN12_GLOBAL__N_120BetaDistributionTestE = internal constant { ptr, ptr, i32, i32, ptr, i64, ptr, i64 } { ptr getelementptr inbounds (ptr, ptr @_ZTVN10__cxxabiv121__vmi_class_type_infoE, i64 2), ptr @_ZTSN12_GLOBAL__N_120BetaDistributionTestE, i32 0, i32 2, ptr @_ZTIN7testing13TestWithParamISt5tupleIJddEEEE, i64 2, ptr @_ZTIN12_GLOBAL__N_121BetaDistributionModelE, i64 6146 }, align 8
@_ZTSN7testing8internal16GTestNonCopyableE = linkonce_odr dso_local constant [38 x i8] c"N7testing8internal16GTestNonCopyableE\00", comdat, align 1
@_ZTIN7testing8internal16GTestNonCopyableE = linkonce_odr dso_local constant { ptr, ptr } { ptr getelementptr inbounds (ptr, ptr @_ZTVN10__cxxabiv117__class_type_infoE, i64 2), ptr @_ZTSN7testing8internal16GTestNonCopyableE }, comdat, align 8
@_ZTIN12_GLOBAL__N_146BetaDistributionTest_TestSampleStatistics_TestE = internal constant { ptr, ptr, i32, i32, ptr, i64, ptr, i64 } { ptr getelementptr inbounds (ptr, ptr @_ZTVN10__cxxabiv121__vmi_class_type_infoE, i64 2), ptr @_ZTSN12_GLOBAL__N_146BetaDistributionTest_TestSampleStatistics_TestE, i32 0, i32 2, ptr @_ZTIN12_GLOBAL__N_120BetaDistributionTestE, i64 2, ptr @_ZTIN7testing8internal16GTestNonCopyableE, i64 0 }, align 8
@_ZTVN12_GLOBAL__N_120BetaDistributionTestE = internal unnamed_addr constant { [8 x ptr], [4 x ptr] } { [8 x ptr] [ptr null, ptr @_ZTIN12_GLOBAL__N_120BetaDistributionTestE, ptr @_ZN12_GLOBAL__N_120BetaDistributionTestD2Ev, ptr @_ZN12_GLOBAL__N_120BetaDistributionTestD0Ev, ptr @_ZN7testing4Test5SetUpEv, ptr @_ZN7testing4Test8TearDownEv, ptr @__cxa_pure_virtual, ptr @_ZN7testing4Test5SetupEv], [4 x ptr] [ptr inttoptr (i64 -16 to ptr), ptr @_ZTIN12_GLOBAL__N_120BetaDistributionTestE, ptr @_ZThn16_N12_GLOBAL__N_120BetaDistributionTestD1Ev, ptr @_ZThn16_N12_GLOBAL__N_120BetaDistributionTestD0Ev] }, align 8
@_ZTVN7testing13TestWithParamISt5tupleIJddEEEE = linkonce_odr dso_local unnamed_addr constant { [8 x ptr], [4 x ptr] } { [8 x ptr] [ptr null, ptr @_ZTIN7testing13TestWithParamISt5tupleIJddEEEE, ptr @_ZN7testing13TestWithParamISt5tupleIJddEEED2Ev, ptr @_ZN7testing13TestWithParamISt5tupleIJddEEED0Ev, ptr @_ZN7testing4Test5SetUpEv, ptr @_ZN7testing4Test8TearDownEv, ptr @__cxa_pure_virtual, ptr @_ZN7testing4Test5SetupEv], [4 x ptr] [ptr inttoptr (i64 -16 to ptr), ptr @_ZTIN7testing13TestWithParamISt5tupleIJddEEEE, ptr @_ZThn16_N7testing13TestWithParamISt5tupleIJddEEED1Ev, ptr @_ZThn16_N7testing13TestWithParamISt5tupleIJddEEED0Ev] }, comdat, align 8
@.str.19 = private unnamed_addr constant [148 x i8] c"generated/home/dtcxzyw/WorkSpace/Projects/compilers/llvm-opt-benchmark/bench/abseil-cpp/bench_build/googletest-src/googletest/include/gtest/gtest.h\00", align 1
@.str.20 = private unnamed_addr constant [41 x i8] c"Condition parameter_ != nullptr failed. \00", align 1
@.str.21 = private unnamed_addr constant [65 x i8] c"GetParam() can only be called inside a value-parameterized test \00", align 1
@.str.22 = private unnamed_addr constant [53 x i8] c"-- did you intend to write TEST_P instead of TEST_F?\00", align 1
@_ZSt4cerr = external global %"class.std::basic_ostream", align 8
@.str.23 = private unnamed_addr constant [7 x i8] c"failed\00", align 1
@.str.24 = private unnamed_addr constant [2 x i8] c"5\00", align 1
@.str.25 = private unnamed_addr constant [20 x i8] c"std::isnan(variate)\00", align 1
@.str.26 = private unnamed_addr constant [5 x i8] c"true\00", align 1
@.str.27 = private unnamed_addr constant [6 x i8] c"false\00", align 1
@.str.28 = private unnamed_addr constant [8 x i8] c"variate\00", align 1
@.str.29 = private unnamed_addr constant [4 x i8] c"0.0\00", align 1
@.str.30 = private unnamed_addr constant [4 x i8] c"1.0\00", align 1
@.str.31 = private unnamed_addr constant [2 x i8] c"z\00", align 1
@.str.32 = private unnamed_addr constant [11 x i8] c"z_variance\00", align 1
@.str.33 = private unnamed_addr constant [6 x i8] c"Beta(\00", align 1
@.str.34 = private unnamed_addr constant [3 x i8] c", \00", align 1
@.str.35 = private unnamed_addr constant [17 x i8] c"), mean: sample \00", align 1
@.str.36 = private unnamed_addr constant [10 x i8] c", expect \00", align 1
@.str.37 = private unnamed_addr constant [12 x i8] c", which is \00", align 1
@.str.38 = private unnamed_addr constant [33 x i8] c" stddevs away, variance: sample \00", align 1
@.str.39 = private unnamed_addr constant [15 x i8] c" stddevs away.\00", align 1
@.str.41 = private unnamed_addr constant [3 x i8] c">=\00", align 1
@.str.42 = private unnamed_addr constant [12 x i8] c"Expected: (\00", align 1
@.str.43 = private unnamed_addr constant [3 x i8] c") \00", align 1
@.str.44 = private unnamed_addr constant [3 x i8] c" (\00", align 1
@.str.45 = private unnamed_addr constant [12 x i8] c"), actual: \00", align 1
@.str.46 = private unnamed_addr constant [5 x i8] c" vs \00", align 1
@.str.47 = private unnamed_addr constant [7 x i8] c"(null)\00", align 1
@.str.48 = private unnamed_addr constant [3 x i8] c"<=\00", align 1
@.str.49 = private unnamed_addr constant [15 x i8] c"cutoffs.size()\00", align 1
@.str.50 = private unnamed_addr constant [2 x i8] c"3\00", align 1
@.str.51 = private unnamed_addr constant [8 x i8] c"cutoff[\00", align 1
@.str.52 = private unnamed_addr constant [5 x i8] c"] = \00", align 1
@.str.53 = private unnamed_addr constant [16 x i8] c", actual count \00", align 1
@.str.54 = private unnamed_addr constant [12 x i8] c", expected \00", align 1
@_ZN4absl15random_internalL11kChiSquaredE = internal constant [12 x i8] c"chi-squared\00", align 1
@.str.55 = private unnamed_addr constant [2 x i8] c" \00", align 1
@.str.56 = private unnamed_addr constant [7 x i8] c", p = \00", align 1
@.str.57 = private unnamed_addr constant [49 x i8] c"cannot create std::vector larger than max_size()\00", align 1
@_ZTVN7testing8internal30ValuesInIteratorRangeGeneratorIdEE = linkonce_odr dso_local unnamed_addr constant { [6 x ptr] } { [6 x ptr] [ptr null, ptr @_ZTIN7testing8internal30ValuesInIteratorRangeGeneratorIdEE, ptr @_ZN7testing8internal30ValuesInIteratorRangeGeneratorIdED2Ev, ptr @_ZN7testing8internal30ValuesInIteratorRangeGeneratorIdED0Ev, ptr @_ZNK7testing8internal30ValuesInIteratorRangeGeneratorIdE5BeginEv, ptr @_ZNK7testing8internal30ValuesInIteratorRangeGeneratorIdE3EndEv] }, comdat, align 8
@_ZTSN7testing8internal30ValuesInIteratorRangeGeneratorIdEE = linkonce_odr dso_local constant [55 x i8] c"N7testing8internal30ValuesInIteratorRangeGeneratorIdEE\00", comdat, align 1
@_ZTSN7testing8internal23ParamGeneratorInterfaceIdEE = linkonce_odr dso_local constant [48 x i8] c"N7testing8internal23ParamGeneratorInterfaceIdEE\00", comdat, align 1
@_ZTIN7testing8internal23ParamGeneratorInterfaceIdEE = linkonce_odr dso_local constant { ptr, ptr } { ptr getelementptr inbounds (ptr, ptr @_ZTVN10__cxxabiv117__class_type_infoE, i64 2), ptr @_ZTSN7testing8internal23ParamGeneratorInterfaceIdEE }, comdat, align 8
@_ZTIN7testing8internal30ValuesInIteratorRangeGeneratorIdEE = linkonce_odr dso_local constant { ptr, ptr, ptr } { ptr getelementptr inbounds (ptr, ptr @_ZTVN10__cxxabiv120__si_class_type_infoE, i64 2), ptr @_ZTSN7testing8internal30ValuesInIteratorRangeGeneratorIdEE, ptr @_ZTIN7testing8internal23ParamGeneratorInterfaceIdEE }, comdat, align 8
@_ZTVN7testing8internal30ValuesInIteratorRangeGeneratorIdE8IteratorE = linkonce_odr dso_local unnamed_addr constant { [9 x ptr] } { [9 x ptr] [ptr null, ptr @_ZTIN7testing8internal30ValuesInIteratorRangeGeneratorIdE8IteratorE, ptr @_ZN7testing8internal30ValuesInIteratorRangeGeneratorIdE8IteratorD2Ev, ptr @_ZN7testing8internal30ValuesInIteratorRangeGeneratorIdE8IteratorD0Ev, ptr @_ZNK7testing8internal30ValuesInIteratorRangeGeneratorIdE8Iterator13BaseGeneratorEv, ptr @_ZN7testing8internal30ValuesInIteratorRangeGeneratorIdE8Iterator7AdvanceEv, ptr @_ZNK7testing8internal30ValuesInIteratorRangeGeneratorIdE8Iterator5CloneEv, ptr @_ZNK7testing8internal30ValuesInIteratorRangeGeneratorIdE8Iterator7CurrentEv, ptr @_ZNK7testing8internal30ValuesInIteratorRangeGeneratorIdE8Iterator6EqualsERKNS0_22ParamIteratorInterfaceIdEE] }, comdat, align 8
@_ZTSN7testing8internal30ValuesInIteratorRangeGeneratorIdE8IteratorE = linkonce_odr dso_local constant [64 x i8] c"N7testing8internal30ValuesInIteratorRangeGeneratorIdE8IteratorE\00", comdat, align 1
@_ZTSN7testing8internal22ParamIteratorInterfaceIdEE = linkonce_odr dso_local constant [47 x i8] c"N7testing8internal22ParamIteratorInterfaceIdEE\00", comdat, align 1
@_ZTIN7testing8internal22ParamIteratorInterfaceIdEE = linkonce_odr dso_local constant { ptr, ptr } { ptr getelementptr inbounds (ptr, ptr @_ZTVN10__cxxabiv117__class_type_infoE, i64 2), ptr @_ZTSN7testing8internal22ParamIteratorInterfaceIdEE }, comdat, align 8
@_ZTIN7testing8internal30ValuesInIteratorRangeGeneratorIdE8IteratorE = linkonce_odr dso_local constant { ptr, ptr, ptr } { ptr getelementptr inbounds (ptr, ptr @_ZTVN10__cxxabiv120__si_class_type_infoE, i64 2), ptr @_ZTSN7testing8internal30ValuesInIteratorRangeGeneratorIdE8IteratorE, ptr @_ZTIN7testing8internal22ParamIteratorInterfaceIdEE }, comdat, align 8
@.str.58 = private unnamed_addr constant [168 x i8] c"generated/home/dtcxzyw/WorkSpace/Projects/compilers/llvm-opt-benchmark/bench/abseil-cpp/bench_build/googletest-src/googletest/include/gtest/internal/gtest-param-util.h\00", align 1
@.str.59 = private unnamed_addr constant [60 x i8] c"Condition BaseGenerator() == other.BaseGenerator() failed. \00", align 1
@.str.60 = private unnamed_addr constant [44 x i8] c"The program attempted to compare iterators \00", align 1
@.str.61 = private unnamed_addr constant [27 x i8] c"from different generators.\00", align 1
@.str.62 = private unnamed_addr constant [162 x i8] c"generated/home/dtcxzyw/WorkSpace/Projects/compilers/llvm-opt-benchmark/bench/abseil-cpp/bench_build/googletest-src/googletest/include/gtest/internal/gtest-port.h\00", align 1
@.str.63 = private unnamed_addr constant [78 x i8] c"Condition base == nullptr || dynamic_cast<Derived*>(base) != nullptr failed. \00", align 1
@_ZTVSt15_Sp_counted_ptrIPN7testing8internal23ParamGeneratorInterfaceIdEELN9__gnu_cxx12_Lock_policyE2EE = linkonce_odr dso_local unnamed_addr constant { [7 x ptr] } { [7 x ptr] [ptr null, ptr @_ZTISt15_Sp_counted_ptrIPN7testing8internal23ParamGeneratorInterfaceIdEELN9__gnu_cxx12_Lock_policyE2EE, ptr @_ZNSt15_Sp_counted_ptrIPN7testing8internal23ParamGeneratorInterfaceIdEELN9__gnu_cxx12_Lock_policyE2EED2Ev, ptr @_ZNSt15_Sp_counted_ptrIPN7testing8internal23ParamGeneratorInterfaceIdEELN9__gnu_cxx12_Lock_policyE2EED0Ev, ptr @_ZNSt15_Sp_counted_ptrIPN7testing8internal23ParamGeneratorInterfaceIdEELN9__gnu_cxx12_Lock_policyE2EE10_M_disposeEv, ptr @_ZNSt15_Sp_counted_ptrIPN7testing8internal23ParamGeneratorInterfaceIdEELN9__gnu_cxx12_Lock_policyE2EE10_M_destroyEv, ptr @_ZNSt15_Sp_counted_ptrIPN7testing8internal23ParamGeneratorInterfaceIdEELN9__gnu_cxx12_Lock_policyE2EE14_M_get_deleterERKSt9type_info] }, comdat, align 8
@_ZTSSt15_Sp_counted_ptrIPN7testing8internal23ParamGeneratorInterfaceIdEELN9__gnu_cxx12_Lock_policyE2EE = linkonce_odr dso_local constant [99 x i8] c"St15_Sp_counted_ptrIPN7testing8internal23ParamGeneratorInterfaceIdEELN9__gnu_cxx12_Lock_policyE2EE\00", comdat, align 1
@_ZTISt15_Sp_counted_ptrIPN7testing8internal23ParamGeneratorInterfaceIdEELN9__gnu_cxx12_Lock_policyE2EE = linkonce_odr dso_local constant { ptr, ptr, ptr } { ptr getelementptr inbounds (ptr, ptr @_ZTVN10__cxxabiv120__si_class_type_infoE, i64 2), ptr @_ZTSSt15_Sp_counted_ptrIPN7testing8internal23ParamGeneratorInterfaceIdEELN9__gnu_cxx12_Lock_policyE2EE, ptr @_ZTISt16_Sp_counted_baseILN9__gnu_cxx12_Lock_policyE2EE }, comdat, align 8
@_ZTVN7testing8internal25CartesianProductGeneratorIJddEEE = linkonce_odr dso_local unnamed_addr constant { [6 x ptr] } { [6 x ptr] [ptr null, ptr @_ZTIN7testing8internal25CartesianProductGeneratorIJddEEE, ptr @_ZN7testing8internal25CartesianProductGeneratorIJddEED2Ev, ptr @_ZN7testing8internal25CartesianProductGeneratorIJddEED0Ev, ptr @_ZNK7testing8internal25CartesianProductGeneratorIJddEE5BeginEv, ptr @_ZNK7testing8internal25CartesianProductGeneratorIJddEE3EndEv] }, comdat, align 8
@_ZTSN7testing8internal25CartesianProductGeneratorIJddEEE = linkonce_odr dso_local constant [53 x i8] c"N7testing8internal25CartesianProductGeneratorIJddEEE\00", comdat, align 1
@_ZTSN7testing8internal23ParamGeneratorInterfaceISt5tupleIJddEEEE = linkonce_odr dso_local constant [61 x i8] c"N7testing8internal23ParamGeneratorInterfaceISt5tupleIJddEEEE\00", comdat, align 1
@_ZTIN7testing8internal23ParamGeneratorInterfaceISt5tupleIJddEEEE = linkonce_odr dso_local constant { ptr, ptr } { ptr getelementptr inbounds (ptr, ptr @_ZTVN10__cxxabiv117__class_type_infoE, i64 2), ptr @_ZTSN7testing8internal23ParamGeneratorInterfaceISt5tupleIJddEEEE }, comdat, align 8
@_ZTIN7testing8internal25CartesianProductGeneratorIJddEEE = linkonce_odr dso_local constant { ptr, ptr, ptr } { ptr getelementptr inbounds (ptr, ptr @_ZTVN10__cxxabiv120__si_class_type_infoE, i64 2), ptr @_ZTSN7testing8internal25CartesianProductGeneratorIJddEEE, ptr @_ZTIN7testing8internal23ParamGeneratorInterfaceISt5tupleIJddEEEE }, comdat, align 8
@_ZTVN7testing8internal25CartesianProductGeneratorIJddEE12IteratorImplINS0_13IndexSequenceIJLm0ELm1EEEEEE = linkonce_odr dso_local unnamed_addr constant { [9 x ptr] } { [9 x ptr] [ptr null, ptr @_ZTIN7testing8internal25CartesianProductGeneratorIJddEE12IteratorImplINS0_13IndexSequenceIJLm0ELm1EEEEEE, ptr @_ZN7testing8internal25CartesianProductGeneratorIJddEE12IteratorImplINS0_13IndexSequenceIJLm0ELm1EEEEED2Ev, ptr @_ZN7testing8internal25CartesianProductGeneratorIJddEE12IteratorImplINS0_13IndexSequenceIJLm0ELm1EEEEED0Ev, ptr @_ZNK7testing8internal25CartesianProductGeneratorIJddEE12IteratorImplINS0_13IndexSequenceIJLm0ELm1EEEEE13BaseGeneratorEv, ptr @_ZN7testing8internal25CartesianProductGeneratorIJddEE12IteratorImplINS0_13IndexSequenceIJLm0ELm1EEEEE7AdvanceEv, ptr @_ZNK7testing8internal25CartesianProductGeneratorIJddEE12IteratorImplINS0_13IndexSequenceIJLm0ELm1EEEEE5CloneEv, ptr @_ZNK7testing8internal25CartesianProductGeneratorIJddEE12IteratorImplINS0_13IndexSequenceIJLm0ELm1EEEEE7CurrentEv, ptr @_ZNK7testing8internal25CartesianProductGeneratorIJddEE12IteratorImplINS0_13IndexSequenceIJLm0ELm1EEEEE6EqualsERKNS0_22ParamIteratorInterfaceISt5tupleIJddEEEE] }, comdat, align 8
@_ZTSN7testing8internal25CartesianProductGeneratorIJddEE12IteratorImplINS0_13IndexSequenceIJLm0ELm1EEEEEE = linkonce_odr dso_local constant [101 x i8] c"N7testing8internal25CartesianProductGeneratorIJddEE12IteratorImplINS0_13IndexSequenceIJLm0ELm1EEEEEE\00", comdat, align 1
@_ZTSN7testing8internal22ParamIteratorInterfaceISt5tupleIJddEEEE = linkonce_odr dso_local constant [60 x i8] c"N7testing8internal22ParamIteratorInterfaceISt5tupleIJddEEEE\00", comdat, align 1
@_ZTIN7testing8internal22ParamIteratorInterfaceISt5tupleIJddEEEE = linkonce_odr dso_local constant { ptr, ptr } { ptr getelementptr inbounds (ptr, ptr @_ZTVN10__cxxabiv117__class_type_infoE, i64 2), ptr @_ZTSN7testing8internal22ParamIteratorInterfaceISt5tupleIJddEEEE }, comdat, align 8
@_ZTIN7testing8internal25CartesianProductGeneratorIJddEE12IteratorImplINS0_13IndexSequenceIJLm0ELm1EEEEEE = linkonce_odr dso_local constant { ptr, ptr, ptr } { ptr getelementptr inbounds (ptr, ptr @_ZTVN10__cxxabiv120__si_class_type_infoE, i64 2), ptr @_ZTSN7testing8internal25CartesianProductGeneratorIJddEE12IteratorImplINS0_13IndexSequenceIJLm0ELm1EEEEEE, ptr @_ZTIN7testing8internal22ParamIteratorInterfaceISt5tupleIJddEEEE }, comdat, align 8
@_ZTVSt23_Sp_counted_ptr_inplaceISt5tupleIJddEESaIvELN9__gnu_cxx12_Lock_policyE2EE = linkonce_odr dso_local unnamed_addr constant { [7 x ptr] } { [7 x ptr] [ptr null, ptr @_ZTISt23_Sp_counted_ptr_inplaceISt5tupleIJddEESaIvELN9__gnu_cxx12_Lock_policyE2EE, ptr @_ZNSt23_Sp_counted_ptr_inplaceISt5tupleIJddEESaIvELN9__gnu_cxx12_Lock_policyE2EED2Ev, ptr @_ZNSt23_Sp_counted_ptr_inplaceISt5tupleIJddEESaIvELN9__gnu_cxx12_Lock_policyE2EED0Ev, ptr @_ZNSt23_Sp_counted_ptr_inplaceISt5tupleIJddEESaIvELN9__gnu_cxx12_Lock_policyE2EE10_M_disposeEv, ptr @_ZNSt23_Sp_counted_ptr_inplaceISt5tupleIJddEESaIvELN9__gnu_cxx12_Lock_policyE2EE10_M_destroyEv, ptr @_ZNSt23_Sp_counted_ptr_inplaceISt5tupleIJddEESaIvELN9__gnu_cxx12_Lock_policyE2EE14_M_get_deleterERKSt9type_info] }, comdat, align 8
@_ZTSSt23_Sp_counted_ptr_inplaceISt5tupleIJddEESaIvELN9__gnu_cxx12_Lock_policyE2EE = linkonce_odr dso_local constant [78 x i8] c"St23_Sp_counted_ptr_inplaceISt5tupleIJddEESaIvELN9__gnu_cxx12_Lock_policyE2EE\00", comdat, align 1
@_ZTISt23_Sp_counted_ptr_inplaceISt5tupleIJddEESaIvELN9__gnu_cxx12_Lock_policyE2EE = linkonce_odr dso_local constant { ptr, ptr, ptr } { ptr getelementptr inbounds (ptr, ptr @_ZTVN10__cxxabiv120__si_class_type_infoE, i64 2), ptr @_ZTSSt23_Sp_counted_ptr_inplaceISt5tupleIJddEESaIvELN9__gnu_cxx12_Lock_policyE2EE, ptr @_ZTISt16_Sp_counted_baseILN9__gnu_cxx12_Lock_policyE2EE }, comdat, align 8
@_ZTSSt19_Sp_make_shared_tag = linkonce_odr dso_local constant [24 x i8] c"St19_Sp_make_shared_tag\00", comdat, align 1
@_ZZNSt19_Sp_make_shared_tag5_S_tiEvE5__tag = linkonce_odr dso_local constant [16 x i8] zeroinitializer, comdat, align 8
@_ZTVSt15_Sp_counted_ptrIPN7testing8internal23ParamGeneratorInterfaceISt5tupleIJddEEEELN9__gnu_cxx12_Lock_policyE2EE = linkonce_odr dso_local unnamed_addr constant { [7 x ptr] } { [7 x ptr] [ptr null, ptr @_ZTISt15_Sp_counted_ptrIPN7testing8internal23ParamGeneratorInterfaceISt5tupleIJddEEEELN9__gnu_cxx12_Lock_policyE2EE, ptr @_ZNSt15_Sp_counted_ptrIPN7testing8internal23ParamGeneratorInterfaceISt5tupleIJddEEEELN9__gnu_cxx12_Lock_policyE2EED2Ev, ptr @_ZNSt15_Sp_counted_ptrIPN7testing8internal23ParamGeneratorInterfaceISt5tupleIJddEEEELN9__gnu_cxx12_Lock_policyE2EED0Ev, ptr @_ZNSt15_Sp_counted_ptrIPN7testing8internal23ParamGeneratorInterfaceISt5tupleIJddEEEELN9__gnu_cxx12_Lock_policyE2EE10_M_disposeEv, ptr @_ZNSt15_Sp_counted_ptrIPN7testing8internal23ParamGeneratorInterfaceISt5tupleIJddEEEELN9__gnu_cxx12_Lock_policyE2EE10_M_destroyEv, ptr @_ZNSt15_Sp_counted_ptrIPN7testing8internal23ParamGeneratorInterfaceISt5tupleIJddEEEELN9__gnu_cxx12_Lock_policyE2EE14_M_get_deleterERKSt9type_info] }, comdat, align 8
@_ZTSSt15_Sp_counted_ptrIPN7testing8internal23ParamGeneratorInterfaceISt5tupleIJddEEEELN9__gnu_cxx12_Lock_policyE2EE = linkonce_odr dso_local constant [112 x i8] c"St15_Sp_counted_ptrIPN7testing8internal23ParamGeneratorInterfaceISt5tupleIJddEEEELN9__gnu_cxx12_Lock_policyE2EE\00", comdat, align 1
@_ZTISt15_Sp_counted_ptrIPN7testing8internal23ParamGeneratorInterfaceISt5tupleIJddEEEELN9__gnu_cxx12_Lock_policyE2EE = linkonce_odr dso_local constant { ptr, ptr, ptr } { ptr getelementptr inbounds (ptr, ptr @_ZTVN10__cxxabiv120__si_class_type_infoE, i64 2), ptr @_ZTSSt15_Sp_counted_ptrIPN7testing8internal23ParamGeneratorInterfaceISt5tupleIJddEEEELN9__gnu_cxx12_Lock_policyE2EE, ptr @_ZTISt16_Sp_counted_baseILN9__gnu_cxx12_Lock_policyE2EE }, comdat, align 8
@.str.64 = private unnamed_addr constant [7 x i8] c"alpha_\00", align 1
@.str.65 = private unnamed_addr constant [8 x i8] c"__beta_\00", align 1
@.str.66 = private unnamed_addr constant [2 x i8] c"+\00", align 1
@.str.67 = private unnamed_addr constant [2 x i8] c"_\00", align 1
@.str.68 = private unnamed_addr constant [2 x i8] c"-\00", align 1
@.str.69 = private unnamed_addr constant [2 x i8] c".\00", align 1
@_ZTVN7testing8internal30ValuesInIteratorRangeGeneratorISt5tupleIJddEEEE = linkonce_odr dso_local unnamed_addr constant { [6 x ptr] } { [6 x ptr] [ptr null, ptr @_ZTIN7testing8internal30ValuesInIteratorRangeGeneratorISt5tupleIJddEEEE, ptr @_ZN7testing8internal30ValuesInIteratorRangeGeneratorISt5tupleIJddEEED2Ev, ptr @_ZN7testing8internal30ValuesInIteratorRangeGeneratorISt5tupleIJddEEED0Ev, ptr @_ZNK7testing8internal30ValuesInIteratorRangeGeneratorISt5tupleIJddEEE5BeginEv, ptr @_ZNK7testing8internal30ValuesInIteratorRangeGeneratorISt5tupleIJddEEE3EndEv] }, comdat, align 8
@_ZTSN7testing8internal30ValuesInIteratorRangeGeneratorISt5tupleIJddEEEE = linkonce_odr dso_local constant [68 x i8] c"N7testing8internal30ValuesInIteratorRangeGeneratorISt5tupleIJddEEEE\00", comdat, align 1
@_ZTIN7testing8internal30ValuesInIteratorRangeGeneratorISt5tupleIJddEEEE = linkonce_odr dso_local constant { ptr, ptr, ptr } { ptr getelementptr inbounds (ptr, ptr @_ZTVN10__cxxabiv120__si_class_type_infoE, i64 2), ptr @_ZTSN7testing8internal30ValuesInIteratorRangeGeneratorISt5tupleIJddEEEE, ptr @_ZTIN7testing8internal23ParamGeneratorInterfaceISt5tupleIJddEEEE }, comdat, align 8
@_ZTVN7testing8internal30ValuesInIteratorRangeGeneratorISt5tupleIJddEEE8IteratorE = linkonce_odr dso_local unnamed_addr constant { [9 x ptr] } { [9 x ptr] [ptr null, ptr @_ZTIN7testing8internal30ValuesInIteratorRangeGeneratorISt5tupleIJddEEE8IteratorE, ptr @_ZN7testing8internal30ValuesInIteratorRangeGeneratorISt5tupleIJddEEE8IteratorD2Ev, ptr @_ZN7testing8internal30ValuesInIteratorRangeGeneratorISt5tupleIJddEEE8IteratorD0Ev, ptr @_ZNK7testing8internal30ValuesInIteratorRangeGeneratorISt5tupleIJddEEE8Iterator13BaseGeneratorEv, ptr @_ZN7testing8internal30ValuesInIteratorRangeGeneratorISt5tupleIJddEEE8Iterator7AdvanceEv, ptr @_ZNK7testing8internal30ValuesInIteratorRangeGeneratorISt5tupleIJddEEE8Iterator5CloneEv, ptr @_ZNK7testing8internal30ValuesInIteratorRangeGeneratorISt5tupleIJddEEE8Iterator7CurrentEv, ptr @_ZNK7testing8internal30ValuesInIteratorRangeGeneratorISt5tupleIJddEEE8Iterator6EqualsERKNS0_22ParamIteratorInterfaceIS3_EE] }, comdat, align 8
@_ZTSN7testing8internal30ValuesInIteratorRangeGeneratorISt5tupleIJddEEE8IteratorE = linkonce_odr dso_local constant [77 x i8] c"N7testing8internal30ValuesInIteratorRangeGeneratorISt5tupleIJddEEE8IteratorE\00", comdat, align 1
@_ZTIN7testing8internal30ValuesInIteratorRangeGeneratorISt5tupleIJddEEE8IteratorE = linkonce_odr dso_local constant { ptr, ptr, ptr } { ptr getelementptr inbounds (ptr, ptr @_ZTVN10__cxxabiv120__si_class_type_infoE, i64 2), ptr @_ZTSN7testing8internal30ValuesInIteratorRangeGeneratorISt5tupleIJddEEE8IteratorE, ptr @_ZTIN7testing8internal22ParamIteratorInterfaceISt5tupleIJddEEEE }, comdat, align 8
@_ZTVN7testing8internal15TestFactoryImplIN12_GLOBAL__N_139BetaDistributionTest_StabilityTest_TestEEE = internal unnamed_addr constant { [5 x ptr] } { [5 x ptr] [ptr null, ptr @_ZTIN7testing8internal15TestFactoryImplIN12_GLOBAL__N_139BetaDistributionTest_StabilityTest_TestEEE, ptr @_ZN7testing8internal15TestFactoryImplIN12_GLOBAL__N_139BetaDistributionTest_StabilityTest_TestEED2Ev, ptr @_ZN7testing8internal15TestFactoryImplIN12_GLOBAL__N_139BetaDistributionTest_StabilityTest_TestEED0Ev, ptr @_ZN7testing8internal15TestFactoryImplIN12_GLOBAL__N_139BetaDistributionTest_StabilityTest_TestEE10CreateTestEv] }, align 8
@_ZTSN7testing8internal15TestFactoryImplIN12_GLOBAL__N_139BetaDistributionTest_StabilityTest_TestEEE = internal constant [96 x i8] c"N7testing8internal15TestFactoryImplIN12_GLOBAL__N_139BetaDistributionTest_StabilityTest_TestEEE\00", align 1
@_ZTIN7testing8internal15TestFactoryImplIN12_GLOBAL__N_139BetaDistributionTest_StabilityTest_TestEEE = internal constant { ptr, ptr, ptr } { ptr getelementptr inbounds (ptr, ptr @_ZTVN10__cxxabiv120__si_class_type_infoE, i64 2), ptr @_ZTSN7testing8internal15TestFactoryImplIN12_GLOBAL__N_139BetaDistributionTest_StabilityTest_TestEEE, ptr @_ZTIN7testing8internal15TestFactoryBaseE }, align 8
@_ZTVN12_GLOBAL__N_139BetaDistributionTest_StabilityTest_TestE = internal unnamed_addr constant { [8 x ptr] } { [8 x ptr] [ptr null, ptr @_ZTIN12_GLOBAL__N_139BetaDistributionTest_StabilityTest_TestE, ptr @_ZN12_GLOBAL__N_139BetaDistributionTest_StabilityTest_TestD2Ev, ptr @_ZN12_GLOBAL__N_139BetaDistributionTest_StabilityTest_TestD0Ev, ptr @_ZN7testing4Test5SetUpEv, ptr @_ZN7testing4Test8TearDownEv, ptr @_ZN12_GLOBAL__N_139BetaDistributionTest_StabilityTest_Test8TestBodyEv, ptr @_ZN7testing4Test5SetupEv] }, align 8
@_ZTSN12_GLOBAL__N_139BetaDistributionTest_StabilityTest_TestE = internal constant [58 x i8] c"N12_GLOBAL__N_139BetaDistributionTest_StabilityTest_TestE\00", align 1
@_ZTIN12_GLOBAL__N_139BetaDistributionTest_StabilityTest_TestE = internal constant { ptr, ptr, ptr } { ptr getelementptr inbounds (ptr, ptr @_ZTVN10__cxxabiv120__si_class_type_infoE, i64 2), ptr @_ZTSN12_GLOBAL__N_139BetaDistributionTest_StabilityTest_TestE, ptr @_ZTIN7testing4TestE }, align 8
@constinit = private unnamed_addr constant [57 x i64] [i64 -281474976651576, i64 -281474976708920, i64 -9223368229859766359, i64 1281302029770377793, i64 -8996499398630977623, i64 9204925292781066240, i64 -5528399669902399158, i64 1103321112246101, i64 -13892261315111621, i64 1426700110030552470, i64 231088888557560783, i64 946199757627961, i64 173773498801684, i64 6433959, i64 5216560539288466078, i64 2627945871377065564, i64 -1986502047633801712, i64 -2825916273163390669, i64 -6936463360411164, i64 -9677006922661, i64 -63192181984906580, i64 2216589707983413962, i64 -4381195465716376923, i64 7302623652651702018, i64 3093829652543582084, i64 1522698432631234928, i64 -1378867341430942448, i64 -9129765982030883302, i64 881814495656380930, i64 -3802245042009575076, i64 1307422871039753343, i64 7430643388982501230, i64 4331545303886796808, i64 1998511709445867297, i64 -6574466391576319407, i64 -5228090950878044271, i64 -8976385147842557879, i64 -2268724582089274921, i64 -4854903139378459284, i64 -5679754921460053819, i64 1368823142146630858, i64 -8228012677272375682, i64 6284830524489469317, i64 -865410012458332002, i64 -426437742588963067, i64 -7060731101246349, i64 -3423123852258893900, i64 -7648279514982608488, i64 -1536415280076171872, i64 -3418564372895160864, i64 -8197576961909484361, i64 -8073015710289089692, i64 -8608428297852948452, i64 5741349143009280796, i64 -3328175991516773971, i64 3399973733351167863, i64 -1552283925282152543], align 8
@.str.70 = private unnamed_addr constant [3 x i8] c"44\00", align 1
@.str.71 = private unnamed_addr constant [19 x i8] c"urbg.invocations()\00", align 1
@.str.72 = private unnamed_addr constant [7 x i8] c"output\00", align 1
@.str.73 = private unnamed_addr constant [3 x i8] c"62\00", align 1
@.str.74 = private unnamed_addr constant [3 x i8] c"54\00", align 1
@.str.75 = private unnamed_addr constant [11 x i8] c"Value of: \00", align 1
@.str.76 = private unnamed_addr constant [2 x i8] c"\0A\00", align 1
@.str.77 = private unnamed_addr constant [11 x i8] c"Expected: \00", align 1
@.str.78 = private unnamed_addr constant [97 x i8] c"\0A  The matcher failed on the initial attempt; but passed when rerun to generate the explanation.\00", align 1
@.str.79 = private unnamed_addr constant [12 x i8] c"\0A  Actual: \00", align 1
@_ZTVN7testing7MatcherIRKmEE = linkonce_odr dso_local unnamed_addr constant { [6 x ptr] } { [6 x ptr] [ptr null, ptr @_ZTIN7testing7MatcherIRKmEE, ptr @_ZN7testing7MatcherIRKmED2Ev, ptr @_ZN7testing7MatcherIRKmED0Ev, ptr @_ZNK7testing8internal11MatcherBaseIRKmE10DescribeToEPSo, ptr @_ZNK7testing8internal11MatcherBaseIRKmE18DescribeNegationToEPSo] }, comdat, align 8
@_ZTSN7testing7MatcherIRKmEE = linkonce_odr dso_local constant [24 x i8] c"N7testing7MatcherIRKmEE\00", comdat, align 1
@_ZTSN7testing8internal11MatcherBaseIRKmEE = linkonce_odr dso_local constant [38 x i8] c"N7testing8internal11MatcherBaseIRKmEE\00", comdat, align 1
@_ZTSN7testing25MatcherDescriberInterfaceE = linkonce_odr dso_local constant [38 x i8] c"N7testing25MatcherDescriberInterfaceE\00", comdat, align 1
@_ZTIN7testing25MatcherDescriberInterfaceE = linkonce_odr dso_local constant { ptr, ptr } { ptr getelementptr inbounds (ptr, ptr @_ZTVN10__cxxabiv117__class_type_infoE, i64 2), ptr @_ZTSN7testing25MatcherDescriberInterfaceE }, comdat, align 8
@_ZTIN7testing8internal11MatcherBaseIRKmEE = linkonce_odr dso_local constant { ptr, ptr, i32, i32, ptr, i64 } { ptr getelementptr inbounds (ptr, ptr @_ZTVN10__cxxabiv121__vmi_class_type_infoE, i64 2), ptr @_ZTSN7testing8internal11MatcherBaseIRKmEE, i32 0, i32 1, ptr @_ZTIN7testing25MatcherDescriberInterfaceE, i64 0 }, comdat, align 8
@_ZTIN7testing7MatcherIRKmEE = linkonce_odr dso_local constant { ptr, ptr, ptr } { ptr getelementptr inbounds (ptr, ptr @_ZTVN10__cxxabiv120__si_class_type_infoE, i64 2), ptr @_ZTSN7testing7MatcherIRKmEE, ptr @_ZTIN7testing8internal11MatcherBaseIRKmEE }, comdat, align 8
@_ZTVN7testing8internal11MatcherBaseIRKmEE = linkonce_odr dso_local unnamed_addr constant { [6 x ptr] } { [6 x ptr] [ptr null, ptr @_ZTIN7testing8internal11MatcherBaseIRKmEE, ptr @_ZN7testing8internal11MatcherBaseIRKmED2Ev, ptr @_ZN7testing8internal11MatcherBaseIRKmED0Ev, ptr @_ZNK7testing8internal11MatcherBaseIRKmE10DescribeToEPSo, ptr @_ZNK7testing8internal11MatcherBaseIRKmE18DescribeNegationToEPSo] }, comdat, align 8
@.str.81 = private unnamed_addr constant [2 x i8] c")\00", align 1
@.str.82 = private unnamed_addr constant [157 x i8] c"generated/home/dtcxzyw/WorkSpace/Projects/compilers/llvm-opt-benchmark/bench/abseil-cpp/bench_build/googletest-src/googletest/include/gtest/gtest-matchers.h\00", align 1
@.str.83 = private unnamed_addr constant [38 x i8] c"Condition vtable_ != nullptr failed. \00", align 1
@_ZZN7testing8internal11MatcherBaseIRKmE9GetVTableINS4_11ValuePolicyINS0_9EqMatcherImEELb1EEEEEPKNS4_6VTableEvE7kVTable = linkonce_odr dso_local constant %"struct.testing::internal::MatcherBase<const unsigned long &>::VTable" { ptr @_ZN7testing8internal11MatcherBaseIRKmE19MatchAndExplainImplINS4_11ValuePolicyINS0_9EqMatcherImEELb1EEEEEDTcldtclsrT_3Getfp_E15MatchAndExplainfp0_clptfp1_6streamEEERKS4_S3_PNS_19MatchResultListenerE, ptr @_ZN7testing8internal11MatcherBaseIRKmE12DescribeImplINS4_11ValuePolicyINS0_9EqMatcherImEELb1EEEEEvRKS4_PSob, ptr @_ZN7testing8internal11MatcherBaseIRKmE16GetDescriberImplINS4_11ValuePolicyINS0_9EqMatcherImEELb1EEEEEPKNS_25MatcherDescriberInterfaceERKS4_, ptr null }, comdat, align 8
@.str.84 = private unnamed_addr constant [15 x i8] c"isn't equal to\00", align 1
@.str.85 = private unnamed_addr constant [12 x i8] c"is equal to\00", align 1
@_ZTVN7testing8internal22ElementsAreMatcherImplIRKSt6vectorImSaImEEEE = linkonce_odr dso_local unnamed_addr constant { [7 x ptr] } { [7 x ptr] [ptr null, ptr @_ZTIN7testing8internal22ElementsAreMatcherImplIRKSt6vectorImSaImEEEE, ptr @_ZN7testing8internal22ElementsAreMatcherImplIRKSt6vectorImSaImEEED2Ev, ptr @_ZN7testing8internal22ElementsAreMatcherImplIRKSt6vectorImSaImEEED0Ev, ptr @_ZNK7testing8internal22ElementsAreMatcherImplIRKSt6vectorImSaImEEE10DescribeToEPSo, ptr @_ZNK7testing8internal22ElementsAreMatcherImplIRKSt6vectorImSaImEEE18DescribeNegationToEPSo, ptr @_ZNK7testing8internal22ElementsAreMatcherImplIRKSt6vectorImSaImEEE15MatchAndExplainES6_PNS_19MatchResultListenerE] }, comdat, align 8
@_ZTSN7testing8internal22ElementsAreMatcherImplIRKSt6vectorImSaImEEEE = linkonce_odr dso_local constant [65 x i8] c"N7testing8internal22ElementsAreMatcherImplIRKSt6vectorImSaImEEEE\00", comdat, align 1
@_ZTSN7testing16MatcherInterfaceIRKSt6vectorImSaImEEEE = linkonce_odr dso_local constant [50 x i8] c"N7testing16MatcherInterfaceIRKSt6vectorImSaImEEEE\00", comdat, align 1
@_ZTIN7testing16MatcherInterfaceIRKSt6vectorImSaImEEEE = linkonce_odr dso_local constant { ptr, ptr, ptr } { ptr getelementptr inbounds (ptr, ptr @_ZTVN10__cxxabiv120__si_class_type_infoE, i64 2), ptr @_ZTSN7testing16MatcherInterfaceIRKSt6vectorImSaImEEEE, ptr @_ZTIN7testing25MatcherDescriberInterfaceE }, comdat, align 8
@_ZTIN7testing8internal22ElementsAreMatcherImplIRKSt6vectorImSaImEEEE = linkonce_odr dso_local constant { ptr, ptr, ptr } { ptr getelementptr inbounds (ptr, ptr @_ZTVN10__cxxabiv120__si_class_type_infoE, i64 2), ptr @_ZTSN7testing8internal22ElementsAreMatcherImplIRKSt6vectorImSaImEEEE, ptr @_ZTIN7testing16MatcherInterfaceIRKSt6vectorImSaImEEEE }, comdat, align 8
@.str.86 = private unnamed_addr constant [9 x i8] c"is empty\00", align 1
@.str.87 = private unnamed_addr constant [20 x i8] c"has 1 element that \00", align 1
@.str.88 = private unnamed_addr constant [5 x i8] c"has \00", align 1
@.str.89 = private unnamed_addr constant [8 x i8] c" where\0A\00", align 1
@.str.90 = private unnamed_addr constant [10 x i8] c"element #\00", align 1
@.str.91 = private unnamed_addr constant [3 x i8] c",\0A\00", align 1
@.str.92 = private unnamed_addr constant [9 x i8] c" element\00", align 1
@.str.93 = private unnamed_addr constant [10 x i8] c" elements\00", align 1
@.str.94 = private unnamed_addr constant [12 x i8] c"isn't empty\00", align 1
@.str.95 = private unnamed_addr constant [14 x i8] c"doesn't have \00", align 1
@.str.96 = private unnamed_addr constant [6 x i8] c", or\0A\00", align 1
@.str.97 = private unnamed_addr constant [11 x i8] c"which has \00", align 1
@.str.98 = private unnamed_addr constant [16 x i8] c"whose element #\00", align 1
@.str.99 = private unnamed_addr constant [15 x i8] c" doesn't match\00", align 1
@.str.100 = private unnamed_addr constant [7 x i8] c",\0Aand \00", align 1
@.str.101 = private unnamed_addr constant [11 x i8] c" matches, \00", align 1
@_ZTVN7testing8internal24DummyMatchResultListenerE = linkonce_odr dso_local unnamed_addr constant { [4 x ptr] } { [4 x ptr] [ptr null, ptr @_ZTIN7testing8internal24DummyMatchResultListenerE, ptr @_ZN7testing8internal24DummyMatchResultListenerD2Ev, ptr @_ZN7testing8internal24DummyMatchResultListenerD0Ev] }, comdat, align 8
@_ZTSN7testing8internal24DummyMatchResultListenerE = linkonce_odr dso_local constant [46 x i8] c"N7testing8internal24DummyMatchResultListenerE\00", comdat, align 1
@_ZTSN7testing19MatchResultListenerE = linkonce_odr dso_local constant [32 x i8] c"N7testing19MatchResultListenerE\00", comdat, align 1
@_ZTIN7testing19MatchResultListenerE = linkonce_odr dso_local constant { ptr, ptr } { ptr getelementptr inbounds (ptr, ptr @_ZTVN10__cxxabiv117__class_type_infoE, i64 2), ptr @_ZTSN7testing19MatchResultListenerE }, comdat, align 8
@_ZTIN7testing8internal24DummyMatchResultListenerE = linkonce_odr dso_local constant { ptr, ptr, ptr } { ptr getelementptr inbounds (ptr, ptr @_ZTVN10__cxxabiv120__si_class_type_infoE, i64 2), ptr @_ZTSN7testing8internal24DummyMatchResultListenerE, ptr @_ZTIN7testing19MatchResultListenerE }, comdat, align 8
@_ZTVN7testing7MatcherIRKSt6vectorImSaImEEEE = linkonce_odr dso_local unnamed_addr constant { [6 x ptr] } { [6 x ptr] [ptr null, ptr @_ZTIN7testing7MatcherIRKSt6vectorImSaImEEEE, ptr @_ZN7testing7MatcherIRKSt6vectorImSaImEEED2Ev, ptr @_ZN7testing7MatcherIRKSt6vectorImSaImEEED0Ev, ptr @_ZNK7testing8internal11MatcherBaseIRKSt6vectorImSaImEEE10DescribeToEPSo, ptr @_ZNK7testing8internal11MatcherBaseIRKSt6vectorImSaImEEE18DescribeNegationToEPSo] }, comdat, align 8
@_ZTSN7testing7MatcherIRKSt6vectorImSaImEEEE = linkonce_odr dso_local constant [40 x i8] c"N7testing7MatcherIRKSt6vectorImSaImEEEE\00", comdat, align 1
@_ZTSN7testing8internal11MatcherBaseIRKSt6vectorImSaImEEEE = linkonce_odr dso_local constant [54 x i8] c"N7testing8internal11MatcherBaseIRKSt6vectorImSaImEEEE\00", comdat, align 1
@_ZTIN7testing8internal11MatcherBaseIRKSt6vectorImSaImEEEE = linkonce_odr dso_local constant { ptr, ptr, i32, i32, ptr, i64 } { ptr getelementptr inbounds (ptr, ptr @_ZTVN10__cxxabiv121__vmi_class_type_infoE, i64 2), ptr @_ZTSN7testing8internal11MatcherBaseIRKSt6vectorImSaImEEEE, i32 0, i32 1, ptr @_ZTIN7testing25MatcherDescriberInterfaceE, i64 0 }, comdat, align 8
@_ZTIN7testing7MatcherIRKSt6vectorImSaImEEEE = linkonce_odr dso_local constant { ptr, ptr, ptr } { ptr getelementptr inbounds (ptr, ptr @_ZTVN10__cxxabiv120__si_class_type_infoE, i64 2), ptr @_ZTSN7testing7MatcherIRKSt6vectorImSaImEEEE, ptr @_ZTIN7testing8internal11MatcherBaseIRKSt6vectorImSaImEEEE }, comdat, align 8
@_ZTVN7testing8internal11MatcherBaseIRKSt6vectorImSaImEEEE = linkonce_odr dso_local unnamed_addr constant { [6 x ptr] } { [6 x ptr] [ptr null, ptr @_ZTIN7testing8internal11MatcherBaseIRKSt6vectorImSaImEEEE, ptr @_ZN7testing8internal11MatcherBaseIRKSt6vectorImSaImEEED2Ev, ptr @_ZN7testing8internal11MatcherBaseIRKSt6vectorImSaImEEED0Ev, ptr @_ZNK7testing8internal11MatcherBaseIRKSt6vectorImSaImEEE10DescribeToEPSo, ptr @_ZNK7testing8internal11MatcherBaseIRKSt6vectorImSaImEEE18DescribeNegationToEPSo] }, comdat, align 8
@_ZZN7testing8internal11MatcherBaseIRKSt6vectorImSaImEEE9GetVTableINS7_11ValuePolicyIPKNS_16MatcherInterfaceIS6_EELb1EEEEEPKNS7_6VTableEvE7kVTable = linkonce_odr dso_local constant %"struct.testing::internal::MatcherBase<const std::vector<unsigned long> &>::VTable" { ptr @_ZN7testing8internal11MatcherBaseIRKSt6vectorImSaImEEE19MatchAndExplainImplINS7_11ValuePolicyIPKNS_16MatcherInterfaceIS6_EELb1EEEEEDTcldtclsrT_3Getfp_E15MatchAndExplainfp0_fp1_EERKS7_S6_PNS_19MatchResultListenerE, ptr @_ZN7testing8internal11MatcherBaseIRKSt6vectorImSaImEEE12DescribeImplINS7_11ValuePolicyIPKNS_16MatcherInterfaceIS6_EELb1EEEEEvRKS7_PSob, ptr @_ZN7testing8internal11MatcherBaseIRKSt6vectorImSaImEEE16GetDescriberImplINS7_11ValuePolicyIPKNS_16MatcherInterfaceIS6_EELb1EEEEEPKNS_25MatcherDescriberInterfaceERKS7_, ptr @_ZN7testing8internal13SharedPayloadISt10unique_ptrIKNS_16MatcherInterfaceIRKSt6vectorImSaImEEEESt14default_deleteISA_EEE7DestroyEPNS0_17SharedPayloadBaseE }, comdat, align 8
@_ZTVN7testing25StringMatchResultListenerE = linkonce_odr dso_local unnamed_addr constant { [4 x ptr] } { [4 x ptr] [ptr null, ptr @_ZTIN7testing25StringMatchResultListenerE, ptr @_ZN7testing25StringMatchResultListenerD2Ev, ptr @_ZN7testing25StringMatchResultListenerD0Ev] }, comdat, align 8
@_ZTSN7testing25StringMatchResultListenerE = linkonce_odr dso_local constant [38 x i8] c"N7testing25StringMatchResultListenerE\00", comdat, align 1
@_ZTIN7testing25StringMatchResultListenerE = linkonce_odr dso_local constant { ptr, ptr, ptr } { ptr getelementptr inbounds (ptr, ptr @_ZTVN10__cxxabiv120__si_class_type_infoE, i64 2), ptr @_ZTSN7testing25StringMatchResultListenerE, ptr @_ZTIN7testing19MatchResultListenerE }, comdat, align 8
@.str.102 = private unnamed_addr constant [11 x i8] c" (of type \00", align 1
@.str.103 = private unnamed_addr constant [5 x i8] c" ...\00", align 1
@_ZTSSt6vectorImSaImEE = linkonce_odr dso_local constant [18 x i8] c"St6vectorImSaImEE\00", comdat, align 1
@_ZTSSt12_Vector_baseImSaImEE = linkonce_odr dso_local constant [25 x i8] c"St12_Vector_baseImSaImEE\00", comdat, align 1
@_ZTISt12_Vector_baseImSaImEE = linkonce_odr dso_local constant { ptr, ptr } { ptr getelementptr inbounds (ptr, ptr @_ZTVN10__cxxabiv117__class_type_infoE, i64 2), ptr @_ZTSSt12_Vector_baseImSaImEE }, comdat, align 8
@_ZTISt6vectorImSaImEE = linkonce_odr dso_local constant { ptr, ptr, i32, i32, ptr, i64 } { ptr getelementptr inbounds (ptr, ptr @_ZTVN10__cxxabiv121__vmi_class_type_infoE, i64 2), ptr @_ZTSSt6vectorImSaImEE, i32 0, i32 1, ptr @_ZTISt12_Vector_baseImSaImEE, i64 0 }, comdat, align 8
@_ZZN7testing8internal31CanonicalizeForStdLibVersioningENSt7__cxx1112basic_stringIcSt11char_traitsIcESaIcEEEE6prefix = linkonce_odr dso_local constant [8 x i8] c"std::__\00", comdat, align 1
@.str.104 = private unnamed_addr constant [3 x i8] c"::\00", align 1
@_ZZN7testing8internal31CanonicalizeForStdLibVersioningENSt7__cxx1112basic_stringIcSt11char_traitsIcESaIcEEEE9to_search = linkonce_odr dso_local constant [3 x i8] c", \00", comdat, align 1
@_ZZN7testing8internal31CanonicalizeForStdLibVersioningENSt7__cxx1112basic_stringIcSt11char_traitsIcESaIcEEEE11replace_str = linkonce_odr dso_local constant [2 x i8] c",\00", comdat, align 1
@.str.105 = private unnamed_addr constant [3 x i8] c"<(\00", align 1
@_ZTVN7testing8internal15TestFactoryImplIN12_GLOBAL__N_141BetaDistributionTest_AlgorithmBounds_TestEEE = internal unnamed_addr constant { [5 x ptr] } { [5 x ptr] [ptr null, ptr @_ZTIN7testing8internal15TestFactoryImplIN12_GLOBAL__N_141BetaDistributionTest_AlgorithmBounds_TestEEE, ptr @_ZN7testing8internal15TestFactoryImplIN12_GLOBAL__N_141BetaDistributionTest_AlgorithmBounds_TestEED2Ev, ptr @_ZN7testing8internal15TestFactoryImplIN12_GLOBAL__N_141BetaDistributionTest_AlgorithmBounds_TestEED0Ev, ptr @_ZN7testing8internal15TestFactoryImplIN12_GLOBAL__N_141BetaDistributionTest_AlgorithmBounds_TestEE10CreateTestEv] }, align 8
@_ZTSN7testing8internal15TestFactoryImplIN12_GLOBAL__N_141BetaDistributionTest_AlgorithmBounds_TestEEE = internal constant [98 x i8] c"N7testing8internal15TestFactoryImplIN12_GLOBAL__N_141BetaDistributionTest_AlgorithmBounds_TestEEE\00", align 1
@_ZTIN7testing8internal15TestFactoryImplIN12_GLOBAL__N_141BetaDistributionTest_AlgorithmBounds_TestEEE = internal constant { ptr, ptr, ptr } { ptr getelementptr inbounds (ptr, ptr @_ZTVN10__cxxabiv120__si_class_type_infoE, i64 2), ptr @_ZTSN7testing8internal15TestFactoryImplIN12_GLOBAL__N_141BetaDistributionTest_AlgorithmBounds_TestEEE, ptr @_ZTIN7testing8internal15TestFactoryBaseE }, align 8
@_ZTVN12_GLOBAL__N_141BetaDistributionTest_AlgorithmBounds_TestE = internal unnamed_addr constant { [8 x ptr] } { [8 x ptr] [ptr null, ptr @_ZTIN12_GLOBAL__N_141BetaDistributionTest_AlgorithmBounds_TestE, ptr @_ZN12_GLOBAL__N_141BetaDistributionTest_AlgorithmBounds_TestD2Ev, ptr @_ZN12_GLOBAL__N_141BetaDistributionTest_AlgorithmBounds_TestD0Ev, ptr @_ZN7testing4Test5SetUpEv, ptr @_ZN7testing4Test8TearDownEv, ptr @_ZN12_GLOBAL__N_141BetaDistributionTest_AlgorithmBounds_Test8TestBodyEv, ptr @_ZN7testing4Test5SetupEv] }, align 8
@_ZTSN12_GLOBAL__N_141BetaDistributionTest_AlgorithmBounds_TestE = internal constant [60 x i8] c"N12_GLOBAL__N_141BetaDistributionTest_AlgorithmBounds_TestE\00", align 1
@_ZTIN12_GLOBAL__N_141BetaDistributionTest_AlgorithmBounds_TestE = internal constant { ptr, ptr, ptr } { ptr getelementptr inbounds (ptr, ptr @_ZTVN10__cxxabiv120__si_class_type_infoE, i64 2), ptr @_ZTSN12_GLOBAL__N_141BetaDistributionTest_AlgorithmBounds_TestE, ptr @_ZTIN7testing4TestE }, align 8
@.str.106 = private unnamed_addr constant [2 x i8] c"a\00", align 1
@.str.107 = private unnamed_addr constant [26 x i8] c"2.0202860861567108529e-09\00", align 1
@.str.108 = private unnamed_addr constant [2 x i8] c"2\00", align 1
@constinit.109 = private unnamed_addr constant [4 x i64] [i64 -281474976258360, i64 -281474976200760, i64 -9223368229859766359, i64 1281302029770377793], align 8
@.str.110 = private unnamed_addr constant [2 x i8] c"4\00", align 1
@.str.111 = private unnamed_addr constant [2 x i8] c"y\00", align 1
@.str.112 = private unnamed_addr constant [19 x i8] c"0.9810668952633862\00", align 1
@.str.113 = private unnamed_addr constant [20 x i8] c"0.98106688261032104\00", align 1
@.str.114 = private unnamed_addr constant [2 x i8] c"x\00", align 1
@.str.115 = private unnamed_addr constant [10 x i8] c"0.0000005\00", align 1
@.str.116 = private unnamed_addr constant [2 x i8] c"f\00", align 1
@.str.117 = private unnamed_addr constant [50 x i8] c"basic_string: construction from null is not valid\00", align 1
@.str.118 = private unnamed_addr constant [2 x i8] c"/\00", align 1
@_ZTIf = external constant ptr
@_ZN7testing8internal12TypeIdHelperIN12_GLOBAL__N_129BetaDistributionInterfaceTestIfEEE6dummy_E = internal global i8 0, align 1
@.str.119 = private unnamed_addr constant [166 x i8] c"generated/home/dtcxzyw/WorkSpace/Projects/compilers/llvm-opt-benchmark/bench/abseil-cpp/bench_build/googletest-src/googletest/include/gtest/internal/gtest-internal.h\00", align 1
@.str.120 = private unnamed_addr constant [51 x i8] c"Condition !test_case_fp || !test_suite_fp failed. \00", align 1
@.str.121 = private unnamed_addr constant [107 x i8] c"Test can not provide both SetUpTestSuite and SetUpTestCase, please make sure there is only one present at \00", align 1
@.str.122 = private unnamed_addr constant [2 x i8] c":\00", align 1
@.str.123 = private unnamed_addr constant [112 x i8] c"Test can not provide both TearDownTestSuite and TearDownTestCase, please make sure there is only one present at\00", align 1
@_ZTVN7testing8internal15TestFactoryImplIN12_GLOBAL__N_148BetaDistributionInterfaceTest_SerializeTest_TestIfEEEE = internal unnamed_addr constant { [5 x ptr] } { [5 x ptr] [ptr null, ptr @_ZTIN7testing8internal15TestFactoryImplIN12_GLOBAL__N_148BetaDistributionInterfaceTest_SerializeTest_TestIfEEEE, ptr @_ZN7testing8internal15TestFactoryImplIN12_GLOBAL__N_148BetaDistributionInterfaceTest_SerializeTest_TestIfEEED2Ev, ptr @_ZN7testing8internal15TestFactoryImplIN12_GLOBAL__N_148BetaDistributionInterfaceTest_SerializeTest_TestIfEEED0Ev, ptr @_ZN7testing8internal15TestFactoryImplIN12_GLOBAL__N_148BetaDistributionInterfaceTest_SerializeTest_TestIfEEE10CreateTestEv] }, align 8
@_ZTSN7testing8internal15TestFactoryImplIN12_GLOBAL__N_148BetaDistributionInterfaceTest_SerializeTest_TestIfEEEE = internal constant [108 x i8] c"N7testing8internal15TestFactoryImplIN12_GLOBAL__N_148BetaDistributionInterfaceTest_SerializeTest_TestIfEEEE\00", align 1
@_ZTIN7testing8internal15TestFactoryImplIN12_GLOBAL__N_148BetaDistributionInterfaceTest_SerializeTest_TestIfEEEE = internal constant { ptr, ptr, ptr } { ptr getelementptr inbounds (ptr, ptr @_ZTVN10__cxxabiv120__si_class_type_infoE, i64 2), ptr @_ZTSN7testing8internal15TestFactoryImplIN12_GLOBAL__N_148BetaDistributionInterfaceTest_SerializeTest_TestIfEEEE, ptr @_ZTIN7testing8internal15TestFactoryBaseE }, align 8
@_ZTVN12_GLOBAL__N_148BetaDistributionInterfaceTest_SerializeTest_TestIfEE = internal unnamed_addr constant { [8 x ptr] } { [8 x ptr] [ptr null, ptr @_ZTIN12_GLOBAL__N_148BetaDistributionInterfaceTest_SerializeTest_TestIfEE, ptr @_ZN12_GLOBAL__N_148BetaDistributionInterfaceTest_SerializeTest_TestIfED2Ev, ptr @_ZN12_GLOBAL__N_148BetaDistributionInterfaceTest_SerializeTest_TestIfED0Ev, ptr @_ZN7testing4Test5SetUpEv, ptr @_ZN7testing4Test8TearDownEv, ptr @_ZN12_GLOBAL__N_148BetaDistributionInterfaceTest_SerializeTest_TestIfE8TestBodyEv, ptr @_ZN7testing4Test5SetupEv] }, align 8
@_ZTSN12_GLOBAL__N_148BetaDistributionInterfaceTest_SerializeTest_TestIfEE = internal constant [70 x i8] c"N12_GLOBAL__N_148BetaDistributionInterfaceTest_SerializeTest_TestIfEE\00", align 1
@_ZTSN12_GLOBAL__N_129BetaDistributionInterfaceTestIfEE = internal constant [51 x i8] c"N12_GLOBAL__N_129BetaDistributionInterfaceTestIfEE\00", align 1
@_ZTIN12_GLOBAL__N_129BetaDistributionInterfaceTestIfEE = internal constant { ptr, ptr, ptr } { ptr getelementptr inbounds (ptr, ptr @_ZTVN10__cxxabiv120__si_class_type_infoE, i64 2), ptr @_ZTSN12_GLOBAL__N_129BetaDistributionInterfaceTestIfEE, ptr @_ZTIN7testing4TestE }, align 8
@_ZTIN12_GLOBAL__N_148BetaDistributionInterfaceTest_SerializeTest_TestIfEE = internal constant { ptr, ptr, ptr } { ptr getelementptr inbounds (ptr, ptr @_ZTVN10__cxxabiv120__si_class_type_infoE, i64 2), ptr @_ZTSN12_GLOBAL__N_148BetaDistributionInterfaceTest_SerializeTest_TestIfEE, ptr @_ZTIN12_GLOBAL__N_129BetaDistributionInterfaceTestIfEE }, align 8
@.str.124 = private unnamed_addr constant [28 x i8] c"Smoke test for Beta(%a, %a)\00", align 1
@.str.125 = private unnamed_addr constant [15 x i8] c"before.alpha()\00", align 1
@.str.126 = private unnamed_addr constant [14 x i8] c"param.alpha()\00", align 1
@.str.127 = private unnamed_addr constant [14 x i8] c"before.beta()\00", align 1
@.str.128 = private unnamed_addr constant [13 x i8] c"param.beta()\00", align 1
@.str.129 = private unnamed_addr constant [10 x i8] c"via_param\00", align 1
@.str.130 = private unnamed_addr constant [7 x i8] c"before\00", align 1
@.str.131 = private unnamed_addr constant [18 x i8] c"via_param.param()\00", align 1
@.str.132 = private unnamed_addr constant [15 x i8] c"before.param()\00", align 1
@.str.133 = private unnamed_addr constant [22 x i8] c"std::isfinite(sample)\00", align 1
@.str.134 = private unnamed_addr constant [7 x i8] c"sample\00", align 1
@.str.135 = private unnamed_addr constant [13 x i8] c"before.min()\00", align 1
@.str.136 = private unnamed_addr constant [13 x i8] c"before.max()\00", align 1
@.str.137 = private unnamed_addr constant [14 x i8] c"after.alpha()\00", align 1
@.str.138 = private unnamed_addr constant [13 x i8] c"after.beta()\00", align 1
@.str.139 = private unnamed_addr constant [14 x i8] c"after.param()\00", align 1
@.str.140 = private unnamed_addr constant [6 x i8] c"after\00", align 1
@.str.141 = private unnamed_addr constant [6 x i8] c"good \00", align 1
@.str.142 = private unnamed_addr constant [5 x i8] c"bad \00", align 1
@.str.143 = private unnamed_addr constant [5 x i8] c"eof \00", align 1
@.str.144 = private unnamed_addr constant [6 x i8] c"fail \00", align 1
@.str.145 = private unnamed_addr constant [3 x i8] c"!=\00", align 1
@_ZTId = external constant ptr
@_ZN7testing8internal12TypeIdHelperIN12_GLOBAL__N_129BetaDistributionInterfaceTestIdEEE6dummy_E = internal global i8 0, align 1
@_ZTVN7testing8internal15TestFactoryImplIN12_GLOBAL__N_148BetaDistributionInterfaceTest_SerializeTest_TestIdEEEE = internal unnamed_addr constant { [5 x ptr] } { [5 x ptr] [ptr null, ptr @_ZTIN7testing8internal15TestFactoryImplIN12_GLOBAL__N_148BetaDistributionInterfaceTest_SerializeTest_TestIdEEEE, ptr @_ZN7testing8internal15TestFactoryImplIN12_GLOBAL__N_148BetaDistributionInterfaceTest_SerializeTest_TestIdEEED2Ev, ptr @_ZN7testing8internal15TestFactoryImplIN12_GLOBAL__N_148BetaDistributionInterfaceTest_SerializeTest_TestIdEEED0Ev, ptr @_ZN7testing8internal15TestFactoryImplIN12_GLOBAL__N_148BetaDistributionInterfaceTest_SerializeTest_TestIdEEE10CreateTestEv] }, align 8
@_ZTSN7testing8internal15TestFactoryImplIN12_GLOBAL__N_148BetaDistributionInterfaceTest_SerializeTest_TestIdEEEE = internal constant [108 x i8] c"N7testing8internal15TestFactoryImplIN12_GLOBAL__N_148BetaDistributionInterfaceTest_SerializeTest_TestIdEEEE\00", align 1
@_ZTIN7testing8internal15TestFactoryImplIN12_GLOBAL__N_148BetaDistributionInterfaceTest_SerializeTest_TestIdEEEE = internal constant { ptr, ptr, ptr } { ptr getelementptr inbounds (ptr, ptr @_ZTVN10__cxxabiv120__si_class_type_infoE, i64 2), ptr @_ZTSN7testing8internal15TestFactoryImplIN12_GLOBAL__N_148BetaDistributionInterfaceTest_SerializeTest_TestIdEEEE, ptr @_ZTIN7testing8internal15TestFactoryBaseE }, align 8
@_ZTVN12_GLOBAL__N_148BetaDistributionInterfaceTest_SerializeTest_TestIdEE = internal unnamed_addr constant { [8 x ptr] } { [8 x ptr] [ptr null, ptr @_ZTIN12_GLOBAL__N_148BetaDistributionInterfaceTest_SerializeTest_TestIdEE, ptr @_ZN12_GLOBAL__N_148BetaDistributionInterfaceTest_SerializeTest_TestIdED2Ev, ptr @_ZN12_GLOBAL__N_148BetaDistributionInterfaceTest_SerializeTest_TestIdED0Ev, ptr @_ZN7testing4Test5SetUpEv, ptr @_ZN7testing4Test8TearDownEv, ptr @_ZN12_GLOBAL__N_148BetaDistributionInterfaceTest_SerializeTest_TestIdE8TestBodyEv, ptr @_ZN7testing4Test5SetupEv] }, align 8
@_ZTSN12_GLOBAL__N_148BetaDistributionInterfaceTest_SerializeTest_TestIdEE = internal constant [70 x i8] c"N12_GLOBAL__N_148BetaDistributionInterfaceTest_SerializeTest_TestIdEE\00", align 1
@_ZTSN12_GLOBAL__N_129BetaDistributionInterfaceTestIdEE = internal constant [51 x i8] c"N12_GLOBAL__N_129BetaDistributionInterfaceTestIdEE\00", align 1
@_ZTIN12_GLOBAL__N_129BetaDistributionInterfaceTestIdEE = internal constant { ptr, ptr, ptr } { ptr getelementptr inbounds (ptr, ptr @_ZTVN10__cxxabiv120__si_class_type_infoE, i64 2), ptr @_ZTSN12_GLOBAL__N_129BetaDistributionInterfaceTestIdEE, ptr @_ZTIN7testing4TestE }, align 8
@_ZTIN12_GLOBAL__N_148BetaDistributionInterfaceTest_SerializeTest_TestIdEE = internal constant { ptr, ptr, ptr } { ptr getelementptr inbounds (ptr, ptr @_ZTVN10__cxxabiv120__si_class_type_infoE, i64 2), ptr @_ZTSN12_GLOBAL__N_148BetaDistributionInterfaceTest_SerializeTest_TestIdEE, ptr @_ZTIN12_GLOBAL__N_129BetaDistributionInterfaceTestIdEE }, align 8
@_ZTVN7testing8internal15TestFactoryImplIN12_GLOBAL__N_150BetaDistributionInterfaceTest_DegenerateCases_TestIfEEEE = internal unnamed_addr constant { [5 x ptr] } { [5 x ptr] [ptr null, ptr @_ZTIN7testing8internal15TestFactoryImplIN12_GLOBAL__N_150BetaDistributionInterfaceTest_DegenerateCases_TestIfEEEE, ptr @_ZN7testing8internal15TestFactoryImplIN12_GLOBAL__N_150BetaDistributionInterfaceTest_DegenerateCases_TestIfEEED2Ev, ptr @_ZN7testing8internal15TestFactoryImplIN12_GLOBAL__N_150BetaDistributionInterfaceTest_DegenerateCases_TestIfEEED0Ev, ptr @_ZN7testing8internal15TestFactoryImplIN12_GLOBAL__N_150BetaDistributionInterfaceTest_DegenerateCases_TestIfEEE10CreateTestEv] }, align 8
@_ZTSN7testing8internal15TestFactoryImplIN12_GLOBAL__N_150BetaDistributionInterfaceTest_DegenerateCases_TestIfEEEE = internal constant [110 x i8] c"N7testing8internal15TestFactoryImplIN12_GLOBAL__N_150BetaDistributionInterfaceTest_DegenerateCases_TestIfEEEE\00", align 1
@_ZTIN7testing8internal15TestFactoryImplIN12_GLOBAL__N_150BetaDistributionInterfaceTest_DegenerateCases_TestIfEEEE = internal constant { ptr, ptr, ptr } { ptr getelementptr inbounds (ptr, ptr @_ZTVN10__cxxabiv120__si_class_type_infoE, i64 2), ptr @_ZTSN7testing8internal15TestFactoryImplIN12_GLOBAL__N_150BetaDistributionInterfaceTest_DegenerateCases_TestIfEEEE, ptr @_ZTIN7testing8internal15TestFactoryBaseE }, align 8
@_ZTVN12_GLOBAL__N_150BetaDistributionInterfaceTest_DegenerateCases_TestIfEE = internal unnamed_addr constant { [8 x ptr] } { [8 x ptr] [ptr null, ptr @_ZTIN12_GLOBAL__N_150BetaDistributionInterfaceTest_DegenerateCases_TestIfEE, ptr @_ZN12_GLOBAL__N_150BetaDistributionInterfaceTest_DegenerateCases_TestIfED2Ev, ptr @_ZN12_GLOBAL__N_150BetaDistributionInterfaceTest_DegenerateCases_TestIfED0Ev, ptr @_ZN7testing4Test5SetUpEv, ptr @_ZN7testing4Test8TearDownEv, ptr @_ZN12_GLOBAL__N_150BetaDistributionInterfaceTest_DegenerateCases_TestIfE8TestBodyEv, ptr @_ZN7testing4Test5SetupEv] }, align 8
@_ZTSN12_GLOBAL__N_150BetaDistributionInterfaceTest_DegenerateCases_TestIfEE = internal constant [72 x i8] c"N12_GLOBAL__N_150BetaDistributionInterfaceTest_DegenerateCases_TestIfEE\00", align 1
@_ZTIN12_GLOBAL__N_150BetaDistributionInterfaceTest_DegenerateCases_TestIfEE = internal constant { ptr, ptr, ptr } { ptr getelementptr inbounds (ptr, ptr @_ZTVN10__cxxabiv120__si_class_type_infoE, i64 2), ptr @_ZTSN12_GLOBAL__N_150BetaDistributionInterfaceTest_DegenerateCases_TestIfEE, ptr @_ZTIN12_GLOBAL__N_129BetaDistributionInterfaceTestIfEE }, align 8
@__const._ZN12_GLOBAL__N_150BetaDistributionInterfaceTest_DegenerateCases_TestIfE8TestBodyEv.kLargeValues = private unnamed_addr constant [3 x float] [float 0x47EFFF2E20000000, float 0x47EFFFFFE0000000, float 0x47EFFFFFE0000000], align 4
@.str.146 = private unnamed_addr constant [13 x i8] c"ones + zeros\00", align 1
@.str.147 = private unnamed_addr constant [7 x i8] c"kCount\00", align 1
@.str.148 = private unnamed_addr constant [5 x i8] c"ones\00", align 1
@.str.149 = private unnamed_addr constant [2 x i8] c"0\00", align 1
@.str.150 = private unnamed_addr constant [6 x i8] c"zeros\00", align 1
@.str.151 = private unnamed_addr constant [7 x i8] c"d(rng)\00", align 1
@.str.152 = private unnamed_addr constant [4 x i8] c"0.5\00", align 1
@.str.153 = private unnamed_addr constant [5 x i8] c"0.5f\00", align 1
@.str.154 = private unnamed_addr constant [10 x i8] c"0.500025f\00", align 1
@_ZTVN7testing8internal15TestFactoryImplIN12_GLOBAL__N_150BetaDistributionInterfaceTest_DegenerateCases_TestIdEEEE = internal unnamed_addr constant { [5 x ptr] } { [5 x ptr] [ptr null, ptr @_ZTIN7testing8internal15TestFactoryImplIN12_GLOBAL__N_150BetaDistributionInterfaceTest_DegenerateCases_TestIdEEEE, ptr @_ZN7testing8internal15TestFactoryImplIN12_GLOBAL__N_150BetaDistributionInterfaceTest_DegenerateCases_TestIdEEED2Ev, ptr @_ZN7testing8internal15TestFactoryImplIN12_GLOBAL__N_150BetaDistributionInterfaceTest_DegenerateCases_TestIdEEED0Ev, ptr @_ZN7testing8internal15TestFactoryImplIN12_GLOBAL__N_150BetaDistributionInterfaceTest_DegenerateCases_TestIdEEE10CreateTestEv] }, align 8
@_ZTSN7testing8internal15TestFactoryImplIN12_GLOBAL__N_150BetaDistributionInterfaceTest_DegenerateCases_TestIdEEEE = internal constant [110 x i8] c"N7testing8internal15TestFactoryImplIN12_GLOBAL__N_150BetaDistributionInterfaceTest_DegenerateCases_TestIdEEEE\00", align 1
@_ZTIN7testing8internal15TestFactoryImplIN12_GLOBAL__N_150BetaDistributionInterfaceTest_DegenerateCases_TestIdEEEE = internal constant { ptr, ptr, ptr } { ptr getelementptr inbounds (ptr, ptr @_ZTVN10__cxxabiv120__si_class_type_infoE, i64 2), ptr @_ZTSN7testing8internal15TestFactoryImplIN12_GLOBAL__N_150BetaDistributionInterfaceTest_DegenerateCases_TestIdEEEE, ptr @_ZTIN7testing8internal15TestFactoryBaseE }, align 8
@_ZTVN12_GLOBAL__N_150BetaDistributionInterfaceTest_DegenerateCases_TestIdEE = internal unnamed_addr constant { [8 x ptr] } { [8 x ptr] [ptr null, ptr @_ZTIN12_GLOBAL__N_150BetaDistributionInterfaceTest_DegenerateCases_TestIdEE, ptr @_ZN12_GLOBAL__N_150BetaDistributionInterfaceTest_DegenerateCases_TestIdED2Ev, ptr @_ZN12_GLOBAL__N_150BetaDistributionInterfaceTest_DegenerateCases_TestIdED0Ev, ptr @_ZN7testing4Test5SetUpEv, ptr @_ZN7testing4Test8TearDownEv, ptr @_ZN12_GLOBAL__N_150BetaDistributionInterfaceTest_DegenerateCases_TestIdE8TestBodyEv, ptr @_ZN7testing4Test5SetupEv] }, align 8
@_ZTSN12_GLOBAL__N_150BetaDistributionInterfaceTest_DegenerateCases_TestIdEE = internal constant [72 x i8] c"N12_GLOBAL__N_150BetaDistributionInterfaceTest_DegenerateCases_TestIdEE\00", align 1
@_ZTIN12_GLOBAL__N_150BetaDistributionInterfaceTest_DegenerateCases_TestIdEE = internal constant { ptr, ptr, ptr } { ptr getelementptr inbounds (ptr, ptr @_ZTVN10__cxxabiv120__si_class_type_infoE, i64 2), ptr @_ZTSN12_GLOBAL__N_150BetaDistributionInterfaceTest_DegenerateCases_TestIdEE, ptr @_ZTIN12_GLOBAL__N_129BetaDistributionInterfaceTestIdEE }, align 8
@__const._ZN12_GLOBAL__N_150BetaDistributionInterfaceTest_DegenerateCases_TestIdE8TestBodyEv.kLargeValues = private unnamed_addr constant [3 x double] [double 0x7FEFFF2E48E8A71D, double 0x7FEFFFFFFFFFFFFF, double 0x7FEFFFFFFFFFFFFF], align 16
@_ZN7testing8internal12TypeIdHelperIN12_GLOBAL__N_120BetaDistributionTestEE6dummy_E = internal global i8 0, align 1
@_ZTSN7testing8internal30ParameterizedTestSuiteInfoBaseE = linkonce_odr dso_local constant [52 x i8] c"N7testing8internal30ParameterizedTestSuiteInfoBaseE\00", comdat, align 1
@_ZTIN7testing8internal30ParameterizedTestSuiteInfoBaseE = linkonce_odr dso_local constant { ptr, ptr } { ptr getelementptr inbounds (ptr, ptr @_ZTVN10__cxxabiv117__class_type_infoE, i64 2), ptr @_ZTSN7testing8internal30ParameterizedTestSuiteInfoBaseE }, comdat, align 8
@_ZTSN7testing8internal26ParameterizedTestSuiteInfoIN12_GLOBAL__N_120BetaDistributionTestEEE = internal constant [88 x i8] c"N7testing8internal26ParameterizedTestSuiteInfoIN12_GLOBAL__N_120BetaDistributionTestEEE\00", align 1
@_ZTIN7testing8internal26ParameterizedTestSuiteInfoIN12_GLOBAL__N_120BetaDistributionTestEEE = internal constant { ptr, ptr, ptr } { ptr getelementptr inbounds (ptr, ptr @_ZTVN10__cxxabiv120__si_class_type_infoE, i64 2), ptr @_ZTSN7testing8internal26ParameterizedTestSuiteInfoIN12_GLOBAL__N_120BetaDistributionTestEEE, ptr @_ZTIN7testing8internal30ParameterizedTestSuiteInfoBaseE }, align 8
@_ZTVN7testing8internal26ParameterizedTestSuiteInfoIN12_GLOBAL__N_120BetaDistributionTestEEE = internal unnamed_addr constant { [7 x ptr] } { [7 x ptr] [ptr null, ptr @_ZTIN7testing8internal26ParameterizedTestSuiteInfoIN12_GLOBAL__N_120BetaDistributionTestEEE, ptr @_ZN7testing8internal26ParameterizedTestSuiteInfoIN12_GLOBAL__N_120BetaDistributionTestEED2Ev, ptr @_ZN7testing8internal26ParameterizedTestSuiteInfoIN12_GLOBAL__N_120BetaDistributionTestEED0Ev, ptr @_ZNK7testing8internal26ParameterizedTestSuiteInfoIN12_GLOBAL__N_120BetaDistributionTestEE16GetTestSuiteNameB5cxx11Ev, ptr @_ZNK7testing8internal26ParameterizedTestSuiteInfoIN12_GLOBAL__N_120BetaDistributionTestEE18GetTestSuiteTypeIdEv, ptr @_ZN7testing8internal26ParameterizedTestSuiteInfoIN12_GLOBAL__N_120BetaDistributionTestEE13RegisterTestsEv] }, align 8
@.str.155 = private unnamed_addr constant [48 x i8] c"Condition IsValidParamName(param_name) failed. \00", align 1
@.str.156 = private unnamed_addr constant [26 x i8] c"Parameterized test name '\00", align 1
@.str.157 = private unnamed_addr constant [103 x i8] c"' is invalid (contains spaces, dashes, or any non-alphanumeric characters other than underscores), in \00", align 1
@.str.158 = private unnamed_addr constant [7 x i8] c" line \00", align 1
@.str.159 = private unnamed_addr constant [59 x i8] c"Condition test_param_names.count(param_name) == 0 failed. \00", align 1
@.str.160 = private unnamed_addr constant [36 x i8] c"Duplicate parameterized test name '\00", align 1
@.str.161 = private unnamed_addr constant [7 x i8] c"', in \00", align 1
@.str.162 = private unnamed_addr constant [2 x i8] c"(\00", align 1
@llvm.global_ctors = appending global [1 x { i32, ptr, ptr }] [{ i32, ptr, ptr } { i32 65535, ptr @_GLOBAL__sub_I_beta_distribution_test.cc, ptr null }]

declare void @_ZNSt8ios_base4InitC1Ev(ptr noundef nonnull align 1 dereferenceable(1)) unnamed_addr #0

; Function Attrs: nounwind
declare void @_ZNSt8ios_base4InitD1Ev(ptr noundef nonnull align 1 dereferenceable(1)) unnamed_addr #1

; Function Attrs: nofree nounwind
declare i32 @__cxa_atexit(ptr, ptr, ptr) local_unnamed_addr #2

; Function Attrs: nounwind
declare void @_ZNSaIcEC1Ev(ptr noundef nonnull align 1 dereferenceable(1)) unnamed_addr #1

declare i32 @__gxx_personality_v0(...)

; Function Attrs: mustprogress nounwind uwtable
define linkonce_odr dso_local void @_ZNSt6vectorINSt7__cxx1112basic_stringIcSt11char_traitsIcESaIcEEESaIS5_EED2Ev(ptr noundef nonnull align 8 dereferenceable(24) %this) unnamed_addr #3 comdat align 2 personality ptr @__gxx_personality_v0 {
entry:
  %0 = load ptr, ptr %this, align 8
  %_M_finish = getelementptr inbounds %"struct.std::_Vector_base<std::__cxx11::basic_string<char>, std::allocator<std::__cxx11::basic_string<char>>>::_Vector_impl_data", ptr %this, i64 0, i32 1
  %1 = load ptr, ptr %_M_finish, align 8
  %cmp.not3.i.i.i = icmp eq ptr %0, %1
  br i1 %cmp.not3.i.i.i, label %invoke.cont, label %for.body.i.i.i

for.body.i.i.i:                                   ; preds = %entry, %for.body.i.i.i
  %__first.addr.04.i.i.i = phi ptr [ %incdec.ptr.i.i.i, %for.body.i.i.i ], [ %0, %entry ]
  tail call void @_ZNSt7__cxx1112basic_stringIcSt11char_traitsIcESaIcEED1Ev(ptr noundef nonnull align 8 dereferenceable(32) %__first.addr.04.i.i.i) #31
  %incdec.ptr.i.i.i = getelementptr inbounds %"class.std::__cxx11::basic_string", ptr %__first.addr.04.i.i.i, i64 1
  %cmp.not.i.i.i = icmp eq ptr %incdec.ptr.i.i.i, %1
  br i1 %cmp.not.i.i.i, label %invoke.contthread-pre-split, label %for.body.i.i.i, !llvm.loop !5

invoke.contthread-pre-split:                      ; preds = %for.body.i.i.i
  %.pr = load ptr, ptr %this, align 8
  br label %invoke.cont

invoke.cont:                                      ; preds = %invoke.contthread-pre-split, %entry
  %2 = phi ptr [ %.pr, %invoke.contthread-pre-split ], [ %0, %entry ]
  %tobool.not.i.i = icmp eq ptr %2, null
  br i1 %tobool.not.i.i, label %_ZNSt12_Vector_baseINSt7__cxx1112basic_stringIcSt11char_traitsIcESaIcEEESaIS5_EED2Ev.exit, label %if.then.i.i

if.then.i.i:                                      ; preds = %invoke.cont
  tail call void @_ZdlPv(ptr noundef nonnull %2) #32
  br label %_ZNSt12_Vector_baseINSt7__cxx1112basic_stringIcSt11char_traitsIcESaIcEEESaIS5_EED2Ev.exit

_ZNSt12_Vector_baseINSt7__cxx1112basic_stringIcSt11char_traitsIcESaIcEEESaIS5_EED2Ev.exit: ; preds = %invoke.cont, %if.then.i.i
  ret void
}

; Function Attrs: mustprogress nounwind uwtable
define linkonce_odr dso_local void @_ZN7testing8internal12CodeLocationD2Ev(ptr noundef nonnull align 8 dereferenceable(36) %this) unnamed_addr #3 comdat align 2 {
entry:
  tail call void @_ZNSt7__cxx1112basic_stringIcSt11char_traitsIcESaIcEED1Ev(ptr noundef nonnull align 8 dereferenceable(32) %this) #31
  ret void
}

; Function Attrs: nounwind
declare void @_ZNSt7__cxx1112basic_stringIcSt11char_traitsIcESaIcEED1Ev(ptr noundef nonnull align 8 dereferenceable(32)) unnamed_addr #1

; Function Attrs: nounwind
declare void @_ZNSaIcED1Ev(ptr noundef nonnull align 1 dereferenceable(1)) unnamed_addr #1

declare noundef ptr @_ZN7testing8UnitTest11GetInstanceEv() local_unnamed_addr #0

declare noundef nonnull align 8 dereferenceable(24) ptr @_ZN7testing8UnitTest27parameterized_test_registryEv(ptr noundef nonnull align 8 dereferenceable(72)) local_unnamed_addr #0

; Function Attrs: mustprogress uwtable
define internal fastcc noundef ptr @_ZN7testing8internal30ParameterizedTestSuiteRegistry25GetTestSuitePatternHolderIN12_GLOBAL__N_120BetaDistributionTestEEEPNS0_26ParameterizedTestSuiteInfoIT_EEPKcNS0_12CodeLocationE(ptr nocapture noundef nonnull align 8 dereferenceable(24) %this, ptr noundef %code_location) unnamed_addr #4 align 2 personality ptr @__gxx_personality_v0 {
entry:
  %ref.tmp.i16 = alloca %"class.std::allocator", align 1
  %ref.tmp.i = alloca %"class.testing::internal::GTestLog", align 4
  %agg.tmp = alloca %"struct.testing::internal::CodeLocation", align 8
  %agg.tmp19 = alloca %"struct.testing::internal::CodeLocation", align 8
  %0 = load ptr, ptr %this, align 8
  %_M_finish.i = getelementptr inbounds %"struct.std::_Vector_base<testing::internal::ParameterizedTestSuiteInfoBase *, std::allocator<testing::internal::ParameterizedTestSuiteInfoBase *>>::_Vector_impl_data", ptr %this, i64 0, i32 1
  %1 = load ptr, ptr %_M_finish.i, align 8
  %cmp.i.not7 = icmp eq ptr %0, %1
  br i1 %cmp.i.not7, label %if.then17, label %for.body

for.body:                                         ; preds = %entry, %for.inc
  %__begin3.sroa.0.08 = phi ptr [ %incdec.ptr.i, %for.inc ], [ %0, %entry ]
  %2 = load ptr, ptr %__begin3.sroa.0.08, align 8
  %vtable = load ptr, ptr %2, align 8
  %vfn = getelementptr inbounds ptr, ptr %vtable, i64 2
  %3 = load ptr, ptr %vfn, align 8
  %call6 = tail call noundef nonnull align 8 dereferenceable(32) ptr %3(ptr noundef nonnull align 8 dereferenceable(8) %2)
  %call.i = tail call noundef i32 @_ZNKSt7__cxx1112basic_stringIcSt11char_traitsIcESaIcEE7compareEPKc(ptr noundef nonnull align 8 dereferenceable(32) %call6, ptr noundef nonnull @.str.9) #31
  %cmp.i11 = icmp eq i32 %call.i, 0
  br i1 %cmp.i11, label %if.then, label %for.inc

if.then:                                          ; preds = %for.body
  %4 = load ptr, ptr %__begin3.sroa.0.08, align 8
  %vtable8 = load ptr, ptr %4, align 8
  %vfn9 = getelementptr inbounds ptr, ptr %vtable8, i64 3
  %5 = load ptr, ptr %vfn9, align 8
  %call10 = tail call noundef ptr %5(ptr noundef nonnull align 8 dereferenceable(8) %4)
  %cmp.not = icmp eq ptr %call10, @_ZN7testing8internal12TypeIdHelperIN12_GLOBAL__N_120BetaDistributionTestEE6dummy_E
  br i1 %cmp.not, label %if.else, label %if.then12

if.then12:                                        ; preds = %if.then
  call void @_ZNSt7__cxx1112basic_stringIcSt11char_traitsIcESaIcEEC1ERKS4_(ptr noundef nonnull align 8 dereferenceable(32) %agg.tmp, ptr noundef nonnull align 8 dereferenceable(32) %code_location)
  %line.i = getelementptr inbounds %"struct.testing::internal::CodeLocation", ptr %agg.tmp, i64 0, i32 1
  %line3.i = getelementptr inbounds %"struct.testing::internal::CodeLocation", ptr %code_location, i64 0, i32 1
  %6 = load i32, ptr %line3.i, align 8
  store i32 %6, ptr %line.i, align 8
  invoke void @_ZN7testing8internal26ReportInvalidTestSuiteTypeEPKcNS0_12CodeLocationE(ptr noundef nonnull @.str.9, ptr noundef nonnull %agg.tmp)
          to label %invoke.cont unwind label %lpad

invoke.cont:                                      ; preds = %if.then12
  call void @_ZN7testing8internal12CodeLocationD2Ev(ptr noundef nonnull align 8 dereferenceable(36) %agg.tmp) #31
  call void @_ZN7testing8internal5posix5AbortEv() #33
  unreachable

lpad:                                             ; preds = %if.then12
  %7 = landingpad { ptr, i32 }
          cleanup
  call void @_ZNSt7__cxx1112basic_stringIcSt11char_traitsIcESaIcEED1Ev(ptr noundef nonnull align 8 dereferenceable(32) %agg.tmp) #31
  br label %common.resume

if.else:                                          ; preds = %if.then
  %8 = load ptr, ptr %__begin3.sroa.0.08, align 8
  call void @llvm.lifetime.start.p0(i64 4, ptr nonnull %ref.tmp.i)
  %cmp.i12 = icmp eq ptr %8, null
  br i1 %cmp.i12, label %lor.end.i, label %dynamic_cast.notnull.i

dynamic_cast.notnull.i:                           ; preds = %if.else
  %9 = tail call ptr @__dynamic_cast(ptr nonnull %8, ptr nonnull @_ZTIN7testing8internal30ParameterizedTestSuiteInfoBaseE, ptr nonnull @_ZTIN7testing8internal26ParameterizedTestSuiteInfoIN12_GLOBAL__N_120BetaDistributionTestEEE, i64 0) #31
  %cmp1.i = icmp ne ptr %9, null
  br label %lor.end.i

lor.end.i:                                        ; preds = %dynamic_cast.notnull.i, %if.else
  %10 = phi i1 [ true, %if.else ], [ %cmp1.i, %dynamic_cast.notnull.i ]
  %call.i13 = tail call noundef zeroext i1 @_ZN7testing8internal6IsTrueEb(i1 noundef zeroext %10)
  br i1 %call.i13, label %for.end, label %if.else.i

if.else.i:                                        ; preds = %lor.end.i
  call void @_ZN7testing8internal8GTestLogC1ENS0_16GTestLogSeverityEPKci(ptr noundef nonnull align 4 dereferenceable(4) %ref.tmp.i, i32 noundef 3, ptr noundef nonnull @.str.62, i32 noundef 1172)
  %call3.i = invoke noundef nonnull align 8 dereferenceable(8) ptr @_ZStlsISt11char_traitsIcEERSt13basic_ostreamIcT_ES5_PKc(ptr noundef nonnull align 8 dereferenceable(8) @_ZSt4cerr, ptr noundef nonnull @.str.63)
          to label %invoke.cont.i unwind label %lpad.i

invoke.cont.i:                                    ; preds = %if.else.i
  call void @_ZN7testing8internal8GTestLogD1Ev(ptr noundef nonnull align 4 dereferenceable(4) %ref.tmp.i) #31
  br label %for.end

common.resume:                                    ; preds = %lpad, %cleanup.action, %lpad.i
  %common.resume.op = phi { ptr, i32 } [ %11, %lpad.i ], [ %7, %lpad ], [ %.pn, %cleanup.action ]
  resume { ptr, i32 } %common.resume.op

lpad.i:                                           ; preds = %if.else.i
  %11 = landingpad { ptr, i32 }
          cleanup
  call void @_ZN7testing8internal8GTestLogD1Ev(ptr noundef nonnull align 4 dereferenceable(4) %ref.tmp.i) #31
  br label %common.resume

for.inc:                                          ; preds = %for.body
  %incdec.ptr.i = getelementptr inbounds ptr, ptr %__begin3.sroa.0.08, i64 1
  %cmp.i.not = icmp eq ptr %incdec.ptr.i, %1
  br i1 %cmp.i.not, label %if.then17, label %for.body

for.end:                                          ; preds = %invoke.cont.i, %lor.end.i
  call void @llvm.lifetime.end.p0(i64 4, ptr nonnull %ref.tmp.i)
  br i1 %cmp.i12, label %if.then17, label %if.end25

if.then17:                                        ; preds = %for.inc, %entry, %for.end
  %call18 = call noalias noundef nonnull dereferenceable(128) ptr @_Znwm(i64 noundef 128) #34
  invoke void @_ZNSt7__cxx1112basic_stringIcSt11char_traitsIcESaIcEEC1ERKS4_(ptr noundef nonnull align 8 dereferenceable(32) %agg.tmp19, ptr noundef nonnull align 8 dereferenceable(32) %code_location)
          to label %invoke.cont21 unwind label %lpad20

invoke.cont21:                                    ; preds = %if.then17
  %line.i14 = getelementptr inbounds %"struct.testing::internal::CodeLocation", ptr %agg.tmp19, i64 0, i32 1
  %line3.i15 = getelementptr inbounds %"struct.testing::internal::CodeLocation", ptr %code_location, i64 0, i32 1
  %12 = load i32, ptr %line3.i15, align 8
  store i32 %12, ptr %line.i14, align 8
  call void @llvm.lifetime.start.p0(i64 1, ptr nonnull %ref.tmp.i16)
  store ptr getelementptr inbounds ({ [7 x ptr] }, ptr @_ZTVN7testing8internal26ParameterizedTestSuiteInfoIN12_GLOBAL__N_120BetaDistributionTestEEE, i64 0, inrange i32 0, i64 2), ptr %call18, align 8
  %test_suite_name_.i = getelementptr inbounds %"class.testing::internal::ParameterizedTestSuiteInfo", ptr %call18, i64 0, i32 1
  call void @_ZNSaIcEC1Ev(ptr noundef nonnull align 1 dereferenceable(1) %ref.tmp.i16) #31
  %call.i2.i = invoke noundef ptr @_ZNSt7__cxx1112basic_stringIcSt11char_traitsIcESaIcEE13_M_local_dataEv(ptr noundef nonnull align 8 dereferenceable(32) %test_suite_name_.i)
          to label %call.i.noexc.i unwind label %lpad.i17

call.i.noexc.i:                                   ; preds = %invoke.cont21
  invoke void @_ZNSt7__cxx1112basic_stringIcSt11char_traitsIcESaIcEE12_Alloc_hiderC1EPcRKS3_(ptr noundef nonnull align 8 dereferenceable(8) %test_suite_name_.i, ptr noundef %call.i2.i, ptr noundef nonnull align 1 dereferenceable(1) %ref.tmp.i16)
          to label %.noexc.i unwind label %lpad.i17

.noexc.i:                                         ; preds = %call.i.noexc.i
  invoke void @_ZNSt7__cxx1112basic_stringIcSt11char_traitsIcESaIcEE12_M_constructIPKcEEvT_S8_St20forward_iterator_tag(ptr noundef nonnull align 8 dereferenceable(32) %test_suite_name_.i, ptr noundef nonnull @.str.9, ptr noundef nonnull getelementptr inbounds ([21 x i8], ptr @.str.9, i64 0, i64 20))
          to label %invoke.cont.i18 unwind label %lpad.i.i

lpad.i.i:                                         ; preds = %.noexc.i
  %13 = landingpad { ptr, i32 }
          cleanup
  call void @_ZNSaIcED2Ev(ptr noundef nonnull align 1 dereferenceable(1) %test_suite_name_.i) #31
  br label %lpad.body.i

invoke.cont.i18:                                  ; preds = %.noexc.i
  call void @_ZNSaIcED1Ev(ptr noundef nonnull align 1 dereferenceable(1) %ref.tmp.i16) #31
  %code_location_.i = getelementptr inbounds %"class.testing::internal::ParameterizedTestSuiteInfo", ptr %call18, i64 0, i32 2
  invoke void @_ZNSt7__cxx1112basic_stringIcSt11char_traitsIcESaIcEEC1ERKS4_(ptr noundef nonnull align 8 dereferenceable(32) %code_location_.i, ptr noundef nonnull align 8 dereferenceable(32) %agg.tmp19)
          to label %invoke.cont23 unwind label %lpad2.i

lpad.i17:                                         ; preds = %call.i.noexc.i, %invoke.cont21
  %14 = landingpad { ptr, i32 }
          cleanup
  br label %lpad.body.i

lpad.body.i:                                      ; preds = %lpad.i17, %lpad.i.i
  %eh.lpad-body.i = phi { ptr, i32 } [ %14, %lpad.i17 ], [ %13, %lpad.i.i ]
  call void @_ZNSaIcED1Ev(ptr noundef nonnull align 1 dereferenceable(1) %ref.tmp.i16) #31
  br label %lpad22.body

lpad2.i:                                          ; preds = %invoke.cont.i18
  %15 = landingpad { ptr, i32 }
          cleanup
  call void @_ZNSt7__cxx1112basic_stringIcSt11char_traitsIcESaIcEED1Ev(ptr noundef nonnull align 8 dereferenceable(32) %test_suite_name_.i) #31
  br label %lpad22.body

invoke.cont23:                                    ; preds = %invoke.cont.i18
  %line.i.i = getelementptr inbounds %"class.testing::internal::ParameterizedTestSuiteInfo", ptr %call18, i64 0, i32 2, i32 1
  %16 = load i32, ptr %line.i14, align 8
  store i32 %16, ptr %line.i.i, align 8
  %tests_.i = getelementptr inbounds %"class.testing::internal::ParameterizedTestSuiteInfo", ptr %call18, i64 0, i32 3
  call void @llvm.memset.p0.i64(ptr noundef nonnull align 8 dereferenceable(48) %tests_.i, i8 0, i64 48, i1 false)
  call void @llvm.lifetime.end.p0(i64 1, ptr nonnull %ref.tmp.i16)
  call void @_ZNSt7__cxx1112basic_stringIcSt11char_traitsIcESaIcEED1Ev(ptr noundef nonnull align 8 dereferenceable(32) %agg.tmp19) #31
  %17 = load ptr, ptr %_M_finish.i, align 8
  %_M_end_of_storage.i.i = getelementptr inbounds %"struct.std::_Vector_base<testing::internal::ParameterizedTestSuiteInfoBase *, std::allocator<testing::internal::ParameterizedTestSuiteInfoBase *>>::_Vector_impl_data", ptr %this, i64 0, i32 2
  %18 = load ptr, ptr %_M_end_of_storage.i.i, align 8
  %cmp.not.i.i = icmp eq ptr %17, %18
  br i1 %cmp.not.i.i, label %if.else.i.i, label %if.then.i.i

if.then.i.i:                                      ; preds = %invoke.cont23
  store ptr %call18, ptr %17, align 8
  %19 = load ptr, ptr %_M_finish.i, align 8
  %incdec.ptr.i.i = getelementptr inbounds ptr, ptr %19, i64 1
  store ptr %incdec.ptr.i.i, ptr %_M_finish.i, align 8
  br label %if.end25

if.else.i.i:                                      ; preds = %invoke.cont23
  %20 = load ptr, ptr %this, align 8
  %sub.ptr.lhs.cast.i.i.i.i.i = ptrtoint ptr %17 to i64
  %sub.ptr.rhs.cast.i.i.i.i.i = ptrtoint ptr %20 to i64
  %sub.ptr.sub.i.i.i.i.i = sub i64 %sub.ptr.lhs.cast.i.i.i.i.i, %sub.ptr.rhs.cast.i.i.i.i.i
  %cmp.i.i.i.i = icmp eq i64 %sub.ptr.sub.i.i.i.i.i, 9223372036854775800
  br i1 %cmp.i.i.i.i, label %if.then.i.i.i.i, label %_ZNKSt6vectorIPN7testing8internal30ParameterizedTestSuiteInfoBaseESaIS3_EE12_M_check_lenEmPKc.exit.i.i.i

if.then.i.i.i.i:                                  ; preds = %if.else.i.i
  call void @_ZSt20__throw_length_errorPKc(ptr noundef nonnull @.str.18) #33
  unreachable

_ZNKSt6vectorIPN7testing8internal30ParameterizedTestSuiteInfoBaseESaIS3_EE12_M_check_lenEmPKc.exit.i.i.i: ; preds = %if.else.i.i
  %sub.ptr.div.i.i.i.i.i = ashr exact i64 %sub.ptr.sub.i.i.i.i.i, 3
  %.sroa.speculated.i.i.i.i = call i64 @llvm.umax.i64(i64 %sub.ptr.div.i.i.i.i.i, i64 1)
  %add.i.i.i.i = add i64 %.sroa.speculated.i.i.i.i, %sub.ptr.div.i.i.i.i.i
  %cmp7.i.i.i.i = icmp ult i64 %add.i.i.i.i, %sub.ptr.div.i.i.i.i.i
  %cmp9.i.i.i.i = icmp ugt i64 %add.i.i.i.i, 1152921504606846975
  %or.cond.i.i.i.i = or i1 %cmp7.i.i.i.i, %cmp9.i.i.i.i
  %cond.i.i.i.i = select i1 %or.cond.i.i.i.i, i64 1152921504606846975, i64 %add.i.i.i.i
  %cmp.not.i.i.i.i = icmp eq i64 %cond.i.i.i.i, 0
  br i1 %cmp.not.i.i.i.i, label %_ZNSt12_Vector_baseIPN7testing8internal30ParameterizedTestSuiteInfoBaseESaIS3_EE11_M_allocateEm.exit.i.i.i, label %_ZNSt16allocator_traitsISaIPN7testing8internal30ParameterizedTestSuiteInfoBaseEEE8allocateERS4_m.exit.i.i.i.i

_ZNSt16allocator_traitsISaIPN7testing8internal30ParameterizedTestSuiteInfoBaseEEE8allocateERS4_m.exit.i.i.i.i: ; preds = %_ZNKSt6vectorIPN7testing8internal30ParameterizedTestSuiteInfoBaseESaIS3_EE12_M_check_lenEmPKc.exit.i.i.i
  %mul.i.i.i.i.i.i = shl nuw nsw i64 %cond.i.i.i.i, 3
  %call5.i.i.i.i.i.i = call noalias noundef nonnull ptr @_Znwm(i64 noundef %mul.i.i.i.i.i.i) #34
  br label %_ZNSt12_Vector_baseIPN7testing8internal30ParameterizedTestSuiteInfoBaseESaIS3_EE11_M_allocateEm.exit.i.i.i

_ZNSt12_Vector_baseIPN7testing8internal30ParameterizedTestSuiteInfoBaseESaIS3_EE11_M_allocateEm.exit.i.i.i: ; preds = %_ZNSt16allocator_traitsISaIPN7testing8internal30ParameterizedTestSuiteInfoBaseEEE8allocateERS4_m.exit.i.i.i.i, %_ZNKSt6vectorIPN7testing8internal30ParameterizedTestSuiteInfoBaseESaIS3_EE12_M_check_lenEmPKc.exit.i.i.i
  %cond.i10.i.i.i = phi ptr [ %call5.i.i.i.i.i.i, %_ZNSt16allocator_traitsISaIPN7testing8internal30ParameterizedTestSuiteInfoBaseEEE8allocateERS4_m.exit.i.i.i.i ], [ null, %_ZNKSt6vectorIPN7testing8internal30ParameterizedTestSuiteInfoBaseESaIS3_EE12_M_check_lenEmPKc.exit.i.i.i ]
  %add.ptr.i.i.i = getelementptr inbounds ptr, ptr %cond.i10.i.i.i, i64 %sub.ptr.div.i.i.i.i.i
  store ptr %call18, ptr %add.ptr.i.i.i, align 8
  %cmp.i.i.i11.i.i.i = icmp sgt i64 %sub.ptr.sub.i.i.i.i.i, 0
  br i1 %cmp.i.i.i11.i.i.i, label %if.then.i.i.i12.i.i.i, label %_ZNSt6vectorIPN7testing8internal30ParameterizedTestSuiteInfoBaseESaIS3_EE11_S_relocateEPS3_S6_S6_RS4_.exit19.i.i.i

if.then.i.i.i12.i.i.i:                            ; preds = %_ZNSt12_Vector_baseIPN7testing8internal30ParameterizedTestSuiteInfoBaseESaIS3_EE11_M_allocateEm.exit.i.i.i
  call void @llvm.memmove.p0.p0.i64(ptr nonnull align 8 %cond.i10.i.i.i, ptr align 8 %20, i64 %sub.ptr.sub.i.i.i.i.i, i1 false)
  br label %_ZNSt6vectorIPN7testing8internal30ParameterizedTestSuiteInfoBaseESaIS3_EE11_S_relocateEPS3_S6_S6_RS4_.exit19.i.i.i

_ZNSt6vectorIPN7testing8internal30ParameterizedTestSuiteInfoBaseESaIS3_EE11_S_relocateEPS3_S6_S6_RS4_.exit19.i.i.i: ; preds = %if.then.i.i.i12.i.i.i, %_ZNSt12_Vector_baseIPN7testing8internal30ParameterizedTestSuiteInfoBaseESaIS3_EE11_M_allocateEm.exit.i.i.i
  %add.ptr.i.i.i.i.i.i = getelementptr inbounds i8, ptr %cond.i10.i.i.i, i64 %sub.ptr.sub.i.i.i.i.i
  %incdec.ptr.i.i.i = getelementptr inbounds ptr, ptr %add.ptr.i.i.i.i.i.i, i64 1
  %tobool.not.i.i.i.i = icmp eq ptr %20, null
  br i1 %tobool.not.i.i.i.i, label %_ZNSt6vectorIPN7testing8internal30ParameterizedTestSuiteInfoBaseESaIS3_EE17_M_realloc_insertIJS3_EEEvN9__gnu_cxx17__normal_iteratorIPS3_S5_EEDpOT_.exit.i.i, label %if.then.i20.i.i.i

if.then.i20.i.i.i:                                ; preds = %_ZNSt6vectorIPN7testing8internal30ParameterizedTestSuiteInfoBaseESaIS3_EE11_S_relocateEPS3_S6_S6_RS4_.exit19.i.i.i
  call void @_ZdlPv(ptr noundef nonnull %20) #32
  br label %_ZNSt6vectorIPN7testing8internal30ParameterizedTestSuiteInfoBaseESaIS3_EE17_M_realloc_insertIJS3_EEEvN9__gnu_cxx17__normal_iteratorIPS3_S5_EEDpOT_.exit.i.i

_ZNSt6vectorIPN7testing8internal30ParameterizedTestSuiteInfoBaseESaIS3_EE17_M_realloc_insertIJS3_EEEvN9__gnu_cxx17__normal_iteratorIPS3_S5_EEDpOT_.exit.i.i: ; preds = %if.then.i20.i.i.i, %_ZNSt6vectorIPN7testing8internal30ParameterizedTestSuiteInfoBaseESaIS3_EE11_S_relocateEPS3_S6_S6_RS4_.exit19.i.i.i
  store ptr %cond.i10.i.i.i, ptr %this, align 8
  store ptr %incdec.ptr.i.i.i, ptr %_M_finish.i, align 8
  %add.ptr19.i.i.i = getelementptr inbounds ptr, ptr %cond.i10.i.i.i, i64 %cond.i.i.i.i
  store ptr %add.ptr19.i.i.i, ptr %_M_end_of_storage.i.i, align 8
  br label %if.end25

lpad20:                                           ; preds = %if.then17
  %21 = landingpad { ptr, i32 }
          cleanup
  br label %cleanup.action

lpad22.body:                                      ; preds = %lpad.body.i, %lpad2.i
  %eh.lpad-body = phi { ptr, i32 } [ %15, %lpad2.i ], [ %eh.lpad-body.i, %lpad.body.i ]
  call void @_ZNSt7__cxx1112basic_stringIcSt11char_traitsIcESaIcEED1Ev(ptr noundef nonnull align 8 dereferenceable(32) %agg.tmp19) #31
  br label %cleanup.action

cleanup.action:                                   ; preds = %lpad20, %lpad22.body
  %.pn = phi { ptr, i32 } [ %eh.lpad-body, %lpad22.body ], [ %21, %lpad20 ]
  call void @_ZdlPv(ptr noundef nonnull %call18) #32
  br label %common.resume

if.end25:                                         ; preds = %_ZNSt6vectorIPN7testing8internal30ParameterizedTestSuiteInfoBaseESaIS3_EE17_M_realloc_insertIJS3_EEEvN9__gnu_cxx17__normal_iteratorIPS3_S5_EEDpOT_.exit.i.i, %if.then.i.i, %for.end
  %typed_test_info.1 = phi ptr [ %8, %for.end ], [ %call18, %if.then.i.i ], [ %call18, %_ZNSt6vectorIPN7testing8internal30ParameterizedTestSuiteInfoBaseESaIS3_EE17_M_realloc_insertIJS3_EEEvN9__gnu_cxx17__normal_iteratorIPS3_S5_EEDpOT_.exit.i.i ]
  ret ptr %typed_test_info.1
}

; Function Attrs: mustprogress uwtable
define internal fastcc void @_ZN7testing8internal26ParameterizedTestSuiteInfoIN12_GLOBAL__N_120BetaDistributionTestEE25AddTestSuiteInstantiationERKNSt7__cxx1112basic_stringIcSt11char_traitsIcESaIcEEEPFNS0_14ParamGeneratorISt5tupleIJddEEEEvEPFSA_RKNS_13TestParamInfoISF_EEEPKci(ptr nocapture noundef nonnull align 8 dereferenceable(128) %this, ptr noundef nonnull align 8 dereferenceable(32) %instantiation_name, ptr noundef %func, ptr noundef %name_func, i32 noundef %line) unnamed_addr #4 align 2 personality ptr @__gxx_personality_v0 {
entry:
  %ref.tmp = alloca %"struct.testing::internal::ParameterizedTestSuiteInfo<(anonymous namespace)::BetaDistributionTest>::InstantiationInfo", align 8
  %instantiations_ = getelementptr inbounds %"class.testing::internal::ParameterizedTestSuiteInfo", ptr %this, i64 0, i32 4
  call void @_ZNSt7__cxx1112basic_stringIcSt11char_traitsIcESaIcEEC1ERKS4_(ptr noundef nonnull align 8 dereferenceable(32) %ref.tmp, ptr noundef nonnull align 8 dereferenceable(32) %instantiation_name)
  %generator.i = getelementptr inbounds %"struct.testing::internal::ParameterizedTestSuiteInfo<(anonymous namespace)::BetaDistributionTest>::InstantiationInfo", ptr %ref.tmp, i64 0, i32 1
  store ptr %func, ptr %generator.i, align 8
  %name_func.i = getelementptr inbounds %"struct.testing::internal::ParameterizedTestSuiteInfo<(anonymous namespace)::BetaDistributionTest>::InstantiationInfo", ptr %ref.tmp, i64 0, i32 2
  store ptr %name_func, ptr %name_func.i, align 8
  %file.i = getelementptr inbounds %"struct.testing::internal::ParameterizedTestSuiteInfo<(anonymous namespace)::BetaDistributionTest>::InstantiationInfo", ptr %ref.tmp, i64 0, i32 3
  store ptr @.str.2, ptr %file.i, align 8
  %line.i = getelementptr inbounds %"struct.testing::internal::ParameterizedTestSuiteInfo<(anonymous namespace)::BetaDistributionTest>::InstantiationInfo", ptr %ref.tmp, i64 0, i32 4
  store i32 %line, ptr %line.i, align 8
  %_M_finish.i.i = getelementptr inbounds %"class.testing::internal::ParameterizedTestSuiteInfo", ptr %this, i64 0, i32 4, i32 0, i32 0, i32 0, i32 1
  %0 = load ptr, ptr %_M_finish.i.i, align 8
  %_M_end_of_storage.i.i = getelementptr inbounds %"class.testing::internal::ParameterizedTestSuiteInfo", ptr %this, i64 0, i32 4, i32 0, i32 0, i32 0, i32 2
  %1 = load ptr, ptr %_M_end_of_storage.i.i, align 8
  %cmp.not.i.i = icmp eq ptr %0, %1
  br i1 %cmp.not.i.i, label %if.else.i.i, label %if.then.i.i

if.then.i.i:                                      ; preds = %entry
  call void @_ZNSt7__cxx1112basic_stringIcSt11char_traitsIcESaIcEEC1EOS4_(ptr noundef nonnull align 8 dereferenceable(32) %0, ptr noundef nonnull align 8 dereferenceable(32) %ref.tmp) #31
  %generator.i.i.i.i.i = getelementptr inbounds %"struct.testing::internal::ParameterizedTestSuiteInfo<(anonymous namespace)::BetaDistributionTest>::InstantiationInfo", ptr %0, i64 0, i32 1
  call void @llvm.memcpy.p0.p0.i64(ptr noundef nonnull align 8 dereferenceable(28) %generator.i.i.i.i.i, ptr noundef nonnull align 8 dereferenceable(28) %generator.i, i64 28, i1 false)
  %2 = load ptr, ptr %_M_finish.i.i, align 8
  %incdec.ptr.i.i = getelementptr inbounds %"struct.testing::internal::ParameterizedTestSuiteInfo<(anonymous namespace)::BetaDistributionTest>::InstantiationInfo", ptr %2, i64 1
  store ptr %incdec.ptr.i.i, ptr %_M_finish.i.i, align 8
  br label %invoke.cont

if.else.i.i:                                      ; preds = %entry
  %this.val10.i.i.i = load ptr, ptr %instantiations_, align 8
  %sub.ptr.lhs.cast.i.i.i.i.i = ptrtoint ptr %0 to i64
  %sub.ptr.rhs.cast.i.i.i.i.i = ptrtoint ptr %this.val10.i.i.i to i64
  %sub.ptr.sub.i.i.i.i.i = sub i64 %sub.ptr.lhs.cast.i.i.i.i.i, %sub.ptr.rhs.cast.i.i.i.i.i
  %cmp.i.i.i.i = icmp eq i64 %sub.ptr.sub.i.i.i.i.i, 9223372036854775744
  br i1 %cmp.i.i.i.i, label %if.then.i.i.i.i, label %_ZNKSt6vectorIN7testing8internal26ParameterizedTestSuiteInfoIN12_GLOBAL__N_120BetaDistributionTestEE17InstantiationInfoESaIS6_EE12_M_check_lenEmPKc.exit.i.i.i

if.then.i.i.i.i:                                  ; preds = %if.else.i.i
  invoke void @_ZSt20__throw_length_errorPKc(ptr noundef nonnull @.str.18) #33
          to label %.noexc unwind label %lpad

.noexc:                                           ; preds = %if.then.i.i.i.i
  unreachable

_ZNKSt6vectorIN7testing8internal26ParameterizedTestSuiteInfoIN12_GLOBAL__N_120BetaDistributionTestEE17InstantiationInfoESaIS6_EE12_M_check_lenEmPKc.exit.i.i.i: ; preds = %if.else.i.i
  %sub.ptr.div.i.i.i.i.i = ashr exact i64 %sub.ptr.sub.i.i.i.i.i, 6
  %cmp.i.i.i.i.i = icmp eq ptr %0, %this.val10.i.i.i
  %.sroa.speculated.i.i.i.i = select i1 %cmp.i.i.i.i.i, i64 1, i64 %sub.ptr.div.i.i.i.i.i
  %add.i.i.i.i = add nsw i64 %.sroa.speculated.i.i.i.i, %sub.ptr.div.i.i.i.i.i
  %cmp7.i.i.i.i = icmp ult i64 %add.i.i.i.i, %sub.ptr.div.i.i.i.i.i
  %cmp9.i.i.i.i = icmp ugt i64 %add.i.i.i.i, 144115188075855871
  %or.cond.i.i.i.i = or i1 %cmp7.i.i.i.i, %cmp9.i.i.i.i
  %cond.i.i.i.i = select i1 %or.cond.i.i.i.i, i64 144115188075855871, i64 %add.i.i.i.i
  %cmp.not.i.i.i.i = icmp eq i64 %cond.i.i.i.i, 0
  br i1 %cmp.not.i.i.i.i, label %_ZNSt12_Vector_baseIN7testing8internal26ParameterizedTestSuiteInfoIN12_GLOBAL__N_120BetaDistributionTestEE17InstantiationInfoESaIS6_EE11_M_allocateEm.exit.i.i.i, label %_ZNSt16allocator_traitsISaIN7testing8internal26ParameterizedTestSuiteInfoIN12_GLOBAL__N_120BetaDistributionTestEE17InstantiationInfoEEE8allocateERS7_m.exit.i.i.i.i

_ZNSt16allocator_traitsISaIN7testing8internal26ParameterizedTestSuiteInfoIN12_GLOBAL__N_120BetaDistributionTestEE17InstantiationInfoEEE8allocateERS7_m.exit.i.i.i.i: ; preds = %_ZNKSt6vectorIN7testing8internal26ParameterizedTestSuiteInfoIN12_GLOBAL__N_120BetaDistributionTestEE17InstantiationInfoESaIS6_EE12_M_check_lenEmPKc.exit.i.i.i
  %mul.i.i.i.i.i.i = shl nuw nsw i64 %cond.i.i.i.i, 6
  %call5.i.i.i.i.i.i1 = invoke noalias noundef nonnull ptr @_Znwm(i64 noundef %mul.i.i.i.i.i.i) #34
          to label %_ZNSt12_Vector_baseIN7testing8internal26ParameterizedTestSuiteInfoIN12_GLOBAL__N_120BetaDistributionTestEE17InstantiationInfoESaIS6_EE11_M_allocateEm.exit.i.i.i unwind label %lpad

_ZNSt12_Vector_baseIN7testing8internal26ParameterizedTestSuiteInfoIN12_GLOBAL__N_120BetaDistributionTestEE17InstantiationInfoESaIS6_EE11_M_allocateEm.exit.i.i.i: ; preds = %_ZNSt16allocator_traitsISaIN7testing8internal26ParameterizedTestSuiteInfoIN12_GLOBAL__N_120BetaDistributionTestEE17InstantiationInfoEEE8allocateERS7_m.exit.i.i.i.i, %_ZNKSt6vectorIN7testing8internal26ParameterizedTestSuiteInfoIN12_GLOBAL__N_120BetaDistributionTestEE17InstantiationInfoESaIS6_EE12_M_check_lenEmPKc.exit.i.i.i
  %cond.i12.i.i.i = phi ptr [ null, %_ZNKSt6vectorIN7testing8internal26ParameterizedTestSuiteInfoIN12_GLOBAL__N_120BetaDistributionTestEE17InstantiationInfoESaIS6_EE12_M_check_lenEmPKc.exit.i.i.i ], [ %call5.i.i.i.i.i.i1, %_ZNSt16allocator_traitsISaIN7testing8internal26ParameterizedTestSuiteInfoIN12_GLOBAL__N_120BetaDistributionTestEE17InstantiationInfoEEE8allocateERS7_m.exit.i.i.i.i ]
  %add.ptr.i.i.i = getelementptr inbounds %"struct.testing::internal::ParameterizedTestSuiteInfo<(anonymous namespace)::BetaDistributionTest>::InstantiationInfo", ptr %cond.i12.i.i.i, i64 %sub.ptr.div.i.i.i.i.i
  call void @_ZNSt7__cxx1112basic_stringIcSt11char_traitsIcESaIcEEC1EOS4_(ptr noundef nonnull align 8 dereferenceable(32) %add.ptr.i.i.i, ptr noundef nonnull align 8 dereferenceable(32) %ref.tmp) #31
  %generator.i.i.i.i.i.i = getelementptr inbounds %"struct.testing::internal::ParameterizedTestSuiteInfo<(anonymous namespace)::BetaDistributionTest>::InstantiationInfo", ptr %cond.i12.i.i.i, i64 %sub.ptr.div.i.i.i.i.i, i32 1
  call void @llvm.memcpy.p0.p0.i64(ptr noundef nonnull align 8 dereferenceable(28) %generator.i.i.i.i.i.i, ptr noundef nonnull align 8 dereferenceable(28) %generator.i, i64 28, i1 false)
  br i1 %cmp.i.i.i.i.i, label %_ZNSt6vectorIN7testing8internal26ParameterizedTestSuiteInfoIN12_GLOBAL__N_120BetaDistributionTestEE17InstantiationInfoESaIS6_EE11_S_relocateEPS6_S9_S9_RS7_.exit23.i.i.i, label %for.body.i.i.i.i.i.i

for.body.i.i.i.i.i.i:                             ; preds = %_ZNSt12_Vector_baseIN7testing8internal26ParameterizedTestSuiteInfoIN12_GLOBAL__N_120BetaDistributionTestEE17InstantiationInfoESaIS6_EE11_M_allocateEm.exit.i.i.i, %for.body.i.i.i.i.i.i
  %__cur.03.i.i.i.i.i.i = phi ptr [ %incdec.ptr1.i.i.i.i.i.i, %for.body.i.i.i.i.i.i ], [ %cond.i12.i.i.i, %_ZNSt12_Vector_baseIN7testing8internal26ParameterizedTestSuiteInfoIN12_GLOBAL__N_120BetaDistributionTestEE17InstantiationInfoESaIS6_EE11_M_allocateEm.exit.i.i.i ]
  %__first.addr.02.i.i.i.i.i.i = phi ptr [ %incdec.ptr.i.i.i.i.i.i, %for.body.i.i.i.i.i.i ], [ %this.val10.i.i.i, %_ZNSt12_Vector_baseIN7testing8internal26ParameterizedTestSuiteInfoIN12_GLOBAL__N_120BetaDistributionTestEE17InstantiationInfoESaIS6_EE11_M_allocateEm.exit.i.i.i ]
  call void @_ZNSt7__cxx1112basic_stringIcSt11char_traitsIcESaIcEEC1EOS4_(ptr noundef nonnull align 8 dereferenceable(32) %__cur.03.i.i.i.i.i.i, ptr noundef nonnull align 8 dereferenceable(32) %__first.addr.02.i.i.i.i.i.i) #31
  %generator.i.i.i.i.i.i.i.i.i.i = getelementptr inbounds %"struct.testing::internal::ParameterizedTestSuiteInfo<(anonymous namespace)::BetaDistributionTest>::InstantiationInfo", ptr %__cur.03.i.i.i.i.i.i, i64 0, i32 1
  %generator3.i.i.i.i.i.i.i.i.i.i = getelementptr inbounds %"struct.testing::internal::ParameterizedTestSuiteInfo<(anonymous namespace)::BetaDistributionTest>::InstantiationInfo", ptr %__first.addr.02.i.i.i.i.i.i, i64 0, i32 1
  call void @llvm.memcpy.p0.p0.i64(ptr noundef nonnull align 8 dereferenceable(28) %generator.i.i.i.i.i.i.i.i.i.i, ptr noundef nonnull align 8 dereferenceable(28) %generator3.i.i.i.i.i.i.i.i.i.i, i64 28, i1 false), !alias.scope !7
  call void @_ZNSt7__cxx1112basic_stringIcSt11char_traitsIcESaIcEED1Ev(ptr noundef nonnull align 8 dereferenceable(32) %__first.addr.02.i.i.i.i.i.i) #31
  %incdec.ptr.i.i.i.i.i.i = getelementptr inbounds %"struct.testing::internal::ParameterizedTestSuiteInfo<(anonymous namespace)::BetaDistributionTest>::InstantiationInfo", ptr %__first.addr.02.i.i.i.i.i.i, i64 1
  %incdec.ptr1.i.i.i.i.i.i = getelementptr inbounds %"struct.testing::internal::ParameterizedTestSuiteInfo<(anonymous namespace)::BetaDistributionTest>::InstantiationInfo", ptr %__cur.03.i.i.i.i.i.i, i64 1
  %cmp.not.i.i.i.i.i.i = icmp eq ptr %incdec.ptr.i.i.i.i.i.i, %0
  br i1 %cmp.not.i.i.i.i.i.i, label %_ZNSt6vectorIN7testing8internal26ParameterizedTestSuiteInfoIN12_GLOBAL__N_120BetaDistributionTestEE17InstantiationInfoESaIS6_EE11_S_relocateEPS6_S9_S9_RS7_.exit23.i.i.i, label %for.body.i.i.i.i.i.i, !llvm.loop !11

_ZNSt6vectorIN7testing8internal26ParameterizedTestSuiteInfoIN12_GLOBAL__N_120BetaDistributionTestEE17InstantiationInfoESaIS6_EE11_S_relocateEPS6_S9_S9_RS7_.exit23.i.i.i: ; preds = %for.body.i.i.i.i.i.i, %_ZNSt12_Vector_baseIN7testing8internal26ParameterizedTestSuiteInfoIN12_GLOBAL__N_120BetaDistributionTestEE17InstantiationInfoESaIS6_EE11_M_allocateEm.exit.i.i.i
  %__cur.0.lcssa.i.i.i.i.i.i = phi ptr [ %cond.i12.i.i.i, %_ZNSt12_Vector_baseIN7testing8internal26ParameterizedTestSuiteInfoIN12_GLOBAL__N_120BetaDistributionTestEE17InstantiationInfoESaIS6_EE11_M_allocateEm.exit.i.i.i ], [ %incdec.ptr1.i.i.i.i.i.i, %for.body.i.i.i.i.i.i ]
  %incdec.ptr.i.i.i = getelementptr inbounds %"struct.testing::internal::ParameterizedTestSuiteInfo<(anonymous namespace)::BetaDistributionTest>::InstantiationInfo", ptr %__cur.0.lcssa.i.i.i.i.i.i, i64 1
  %tobool.not.i.i.i.i = icmp eq ptr %this.val10.i.i.i, null
  br i1 %tobool.not.i.i.i.i, label %_ZNSt6vectorIN7testing8internal26ParameterizedTestSuiteInfoIN12_GLOBAL__N_120BetaDistributionTestEE17InstantiationInfoESaIS6_EE17_M_realloc_insertIJS6_EEEvN9__gnu_cxx17__normal_iteratorIPS6_S8_EEDpOT_.exit.i.i, label %if.then.i24.i.i.i

if.then.i24.i.i.i:                                ; preds = %_ZNSt6vectorIN7testing8internal26ParameterizedTestSuiteInfoIN12_GLOBAL__N_120BetaDistributionTestEE17InstantiationInfoESaIS6_EE11_S_relocateEPS6_S9_S9_RS7_.exit23.i.i.i
  call void @_ZdlPv(ptr noundef nonnull %this.val10.i.i.i) #32
  br label %_ZNSt6vectorIN7testing8internal26ParameterizedTestSuiteInfoIN12_GLOBAL__N_120BetaDistributionTestEE17InstantiationInfoESaIS6_EE17_M_realloc_insertIJS6_EEEvN9__gnu_cxx17__normal_iteratorIPS6_S8_EEDpOT_.exit.i.i

_ZNSt6vectorIN7testing8internal26ParameterizedTestSuiteInfoIN12_GLOBAL__N_120BetaDistributionTestEE17InstantiationInfoESaIS6_EE17_M_realloc_insertIJS6_EEEvN9__gnu_cxx17__normal_iteratorIPS6_S8_EEDpOT_.exit.i.i: ; preds = %if.then.i24.i.i.i, %_ZNSt6vectorIN7testing8internal26ParameterizedTestSuiteInfoIN12_GLOBAL__N_120BetaDistributionTestEE17InstantiationInfoESaIS6_EE11_S_relocateEPS6_S9_S9_RS7_.exit23.i.i.i
  store ptr %cond.i12.i.i.i, ptr %instantiations_, align 8
  store ptr %incdec.ptr.i.i.i, ptr %_M_finish.i.i, align 8
  %add.ptr19.i.i.i = getelementptr inbounds %"struct.testing::internal::ParameterizedTestSuiteInfo<(anonymous namespace)::BetaDistributionTest>::InstantiationInfo", ptr %cond.i12.i.i.i, i64 %cond.i.i.i.i
  store ptr %add.ptr19.i.i.i, ptr %_M_end_of_storage.i.i, align 8
  br label %invoke.cont

invoke.cont:                                      ; preds = %_ZNSt6vectorIN7testing8internal26ParameterizedTestSuiteInfoIN12_GLOBAL__N_120BetaDistributionTestEE17InstantiationInfoESaIS6_EE17_M_realloc_insertIJS6_EEEvN9__gnu_cxx17__normal_iteratorIPS6_S8_EEDpOT_.exit.i.i, %if.then.i.i
  call void @_ZNSt7__cxx1112basic_stringIcSt11char_traitsIcESaIcEED1Ev(ptr noundef nonnull align 8 dereferenceable(32) %ref.tmp) #31
  ret void

lpad:                                             ; preds = %_ZNSt16allocator_traitsISaIN7testing8internal26ParameterizedTestSuiteInfoIN12_GLOBAL__N_120BetaDistributionTestEE17InstantiationInfoEEE8allocateERS7_m.exit.i.i.i.i, %if.then.i.i.i.i
  %3 = landingpad { ptr, i32 }
          cleanup
  call void @_ZNSt7__cxx1112basic_stringIcSt11char_traitsIcESaIcEED1Ev(ptr noundef nonnull align 8 dereferenceable(32) %ref.tmp) #31
  resume { ptr, i32 } %3
}

; Function Attrs: mustprogress uwtable
define internal void @_ZN12_GLOBAL__N_173gtest_TestSampleStatisticsCombinationsBetaDistributionTest_EvalGenerator_Ev(ptr noalias sret(%"class.testing::internal::ParamGenerator") align 8 %agg.result) #4 personality ptr @__gxx_personality_v0 {
entry:
  %ref.tmp = alloca %"class.testing::internal::CartesianProductHolder", align 16
  store <2 x double> <double 1.000000e-01, double 2.000000e-01>, ptr %ref.tmp, align 16
  %ref.tmp2.sroa.3.0.ref.tmp.sroa_idx = getelementptr inbounds i8, ptr %ref.tmp, i64 16
  store <2 x double> <double 9.000000e-01, double 1.100000e+00>, ptr %ref.tmp2.sroa.3.0.ref.tmp.sroa_idx, align 16
  %ref.tmp2.sroa.5.0.ref.tmp.sroa_idx = getelementptr inbounds i8, ptr %ref.tmp, i64 32
  store <2 x double> <double 2.500000e+00, double 1.000000e+01>, ptr %ref.tmp2.sroa.5.0.ref.tmp.sroa_idx, align 16
  %ref.tmp2.sroa.7.0.ref.tmp.sroa_idx = getelementptr inbounds i8, ptr %ref.tmp, i64 48
  store <2 x double> <double 1.234000e+02, double 1.000000e-01>, ptr %ref.tmp2.sroa.7.0.ref.tmp.sroa_idx, align 16
  %ref.tmp1.sroa.2.0..sroa_idx = getelementptr inbounds i8, ptr %ref.tmp, i64 64
  store <2 x double> <double 2.000000e-01, double 9.000000e-01>, ptr %ref.tmp1.sroa.2.0..sroa_idx, align 16
  %ref.tmp1.sroa.4.0..sroa_idx = getelementptr inbounds i8, ptr %ref.tmp, i64 80
  store <2 x double> <double 1.100000e+00, double 2.500000e+00>, ptr %ref.tmp1.sroa.4.0..sroa_idx, align 16
  %ref.tmp1.sroa.6.0..sroa_idx = getelementptr inbounds i8, ptr %ref.tmp, i64 96
  store <2 x double> <double 1.000000e+01, double 1.234000e+02>, ptr %ref.tmp1.sroa.6.0..sroa_idx, align 16
  call void @_ZNK7testing8internal22CartesianProductHolderIJNS0_10ValueArrayIJdddddddEEES3_EEcvNS0_14ParamGeneratorISt5tupleIJDpT_EEEEIJddEEEv(ptr sret(%"class.testing::internal::ParamGenerator") align 8 %agg.result, ptr noundef nonnull align 8 dereferenceable(112) %ref.tmp)
  ret void
}

; Function Attrs: mustprogress uwtable
define internal void @_ZN12_GLOBAL__N_176gtest_TestSampleStatisticsCombinationsBetaDistributionTest_EvalGenerateName_B5cxx11ERKN7testing13TestParamInfoISt5tupleIJddEEEE(ptr noalias sret(%"class.std::__cxx11::basic_string") align 8 %agg.result, ptr nocapture noundef nonnull readonly align 8 dereferenceable(24) %info) #4 personality ptr @__gxx_personality_v0 {
entry:
  %call.i = tail call noundef zeroext i1 @_ZN7testing8internal10AlwaysTrueEv()
  tail call fastcc void @_ZN12_GLOBAL__N_19ParamNameB5cxx11ERKN7testing13TestParamInfoISt5tupleIJddEEEE(ptr sret(%"class.std::__cxx11::basic_string") align 8 %agg.result, ptr noundef nonnull align 8 dereferenceable(24) %info)
  ret void
}

; Function Attrs: mustprogress uwtable
define internal void @_ZN12_GLOBAL__N_175gtest_TestSampleStatistics_SelectedPairsBetaDistributionTest_EvalGenerator_Ev(ptr noalias sret(%"class.testing::internal::ParamGenerator") align 8 %agg.result) #4 personality ptr @__gxx_personality_v0 {
entry:
  %call5.i.i.i.i2.i.i.i = tail call noalias noundef nonnull dereferenceable(96) ptr @_Znwm(i64 noundef 96) #34, !noalias !12
  %add.ptr.i1.i.i.i = getelementptr inbounds i8, ptr %call5.i.i.i.i2.i.i.i, i64 96
  store <2 x double> <double 1.000000e+03, double 5.000000e-01>, ptr %call5.i.i.i.i2.i.i.i, align 8, !noalias !12
  %ref.tmp.sroa.3.0.call5.i.i.i.i2.i.sroa_idx.i.i = getelementptr inbounds i8, ptr %call5.i.i.i.i2.i.i.i, i64 16
  store <2 x double> <double 5.000000e-01, double 1.000000e+03>, ptr %ref.tmp.sroa.3.0.call5.i.i.i.i2.i.sroa_idx.i.i, align 8, !noalias !12
  %ref.tmp.sroa.5.0.call5.i.i.i.i2.i.sroa_idx.i.i = getelementptr inbounds i8, ptr %call5.i.i.i.i2.i.i.i, i64 32
  store <2 x double> <double 1.000000e+03, double 9.000000e+02>, ptr %ref.tmp.sroa.5.0.call5.i.i.i.i2.i.sroa_idx.i.i, align 8, !noalias !12
  %ref.tmp.sroa.7.0.call5.i.i.i.i2.i.sroa_idx.i.i = getelementptr inbounds i8, ptr %call5.i.i.i.i2.i.i.i, i64 48
  store <2 x double> <double 2.000000e+04, double 1.000000e+04>, ptr %ref.tmp.sroa.7.0.call5.i.i.i.i2.i.sroa_idx.i.i, align 8, !noalias !12
  %ref.tmp.sroa.9.0.call5.i.i.i.i2.i.sroa_idx.i.i = getelementptr inbounds i8, ptr %call5.i.i.i.i2.i.i.i, i64 64
  store <2 x double> <double 2.000000e+07, double 4.000000e+05>, ptr %ref.tmp.sroa.9.0.call5.i.i.i.i2.i.sroa_idx.i.i, align 8, !noalias !12
  %ref.tmp.sroa.11.0.call5.i.i.i.i2.i.sroa_idx.i.i = getelementptr inbounds i8, ptr %call5.i.i.i.i2.i.i.i, i64 80
  store <2 x double> <double 1.000000e+05, double 1.000000e+07>, ptr %ref.tmp.sroa.11.0.call5.i.i.i.i2.i.sroa_idx.i.i, align 8, !noalias !12
  invoke void @_ZN7testing8ValuesInIN9__gnu_cxx17__normal_iteratorIPKSt5tupleIJddEESt6vectorIS4_SaIS4_EEEEEENS_8internal14ParamGeneratorINSt15iterator_traitsIT_E10value_typeEEESE_SE_(ptr sret(%"class.testing::internal::ParamGenerator") align 8 %agg.result, ptr nonnull %call5.i.i.i.i2.i.i.i, ptr nonnull %add.ptr.i1.i.i.i)
          to label %_ZNK7testing8internal10ValueArrayIJSt4pairIdiES2_IidES2_IiiES5_S2_IddES6_EEcvNS0_14ParamGeneratorIT_EEISt5tupleIJddEEEEv.exit unwind label %_ZNSt6vectorISt5tupleIJddEESaIS1_EED2Ev.exit3.i

_ZNSt6vectorISt5tupleIJddEESaIS1_EED2Ev.exit3.i:  ; preds = %entry
  %0 = landingpad { ptr, i32 }
          cleanup
  tail call void @_ZdlPv(ptr noundef nonnull %call5.i.i.i.i2.i.i.i) #32
  resume { ptr, i32 } %0

_ZNK7testing8internal10ValueArrayIJSt4pairIdiES2_IidES2_IiiES5_S2_IddES6_EEcvNS0_14ParamGeneratorIT_EEISt5tupleIJddEEEEv.exit: ; preds = %entry
  tail call void @_ZdlPv(ptr noundef nonnull %call5.i.i.i.i2.i.i.i) #32
  ret void
}

; Function Attrs: mustprogress uwtable
define internal void @_ZN12_GLOBAL__N_178gtest_TestSampleStatistics_SelectedPairsBetaDistributionTest_EvalGenerateName_B5cxx11ERKN7testing13TestParamInfoISt5tupleIJddEEEE(ptr noalias sret(%"class.std::__cxx11::basic_string") align 8 %agg.result, ptr nocapture noundef nonnull readonly align 8 dereferenceable(24) %info) #4 personality ptr @__gxx_personality_v0 {
entry:
  %call.i = tail call noundef zeroext i1 @_ZN7testing8internal10AlwaysTrueEv()
  tail call fastcc void @_ZN12_GLOBAL__N_19ParamNameB5cxx11ERKN7testing13TestParamInfoISt5tupleIJddEEEE(ptr sret(%"class.std::__cxx11::basic_string") align 8 %agg.result, ptr noundef nonnull align 8 dereferenceable(24) %info)
  ret void
}

declare noundef ptr @_ZN7testing8internal23MakeAndRegisterTestInfoEPKcS2_S2_S2_NS0_12CodeLocationEPKvPFvvES7_PNS0_15TestFactoryBaseE(ptr noundef, ptr noundef, ptr noundef, ptr noundef, ptr noundef, ptr noundef, ptr noundef, ptr noundef, ptr noundef) local_unnamed_addr #0

declare noundef ptr @_ZN7testing8internal13GetTestTypeIdEv() local_unnamed_addr #0

; Function Attrs: mustprogress uwtable
define linkonce_odr dso_local noundef ptr @_ZN7testing8internal16SuiteApiResolverINS_4TestEE19GetSetUpCaseOrSuiteEPKci(ptr noundef %filename, i32 noundef %line_num) local_unnamed_addr #4 comdat align 2 personality ptr @__gxx_personality_v0 {
entry:
  %ref.tmp = alloca %"class.testing::internal::GTestLog", align 4
  %call3 = tail call noundef zeroext i1 @_ZN7testing8internal6IsTrueEb(i1 noundef zeroext true)
  br i1 %call3, label %if.end, label %if.else

if.else:                                          ; preds = %entry
  call void @_ZN7testing8internal8GTestLogC1ENS0_16GTestLogSeverityEPKci(ptr noundef nonnull align 4 dereferenceable(4) %ref.tmp, i32 noundef 3, ptr noundef nonnull @.str.119, i32 noundef 513)
  %call5 = invoke noundef nonnull align 8 dereferenceable(8) ptr @_ZStlsISt11char_traitsIcEERSt13basic_ostreamIcT_ES5_PKc(ptr noundef nonnull align 8 dereferenceable(8) @_ZSt4cerr, ptr noundef nonnull @.str.120)
          to label %invoke.cont unwind label %lpad

invoke.cont:                                      ; preds = %if.else
  %call7 = invoke noundef nonnull align 8 dereferenceable(8) ptr @_ZStlsISt11char_traitsIcEERSt13basic_ostreamIcT_ES5_PKc(ptr noundef nonnull align 8 dereferenceable(8) %call5, ptr noundef nonnull @.str.121)
          to label %invoke.cont6 unwind label %lpad

invoke.cont6:                                     ; preds = %invoke.cont
  %call9 = invoke noundef nonnull align 8 dereferenceable(8) ptr @_ZStlsISt11char_traitsIcEERSt13basic_ostreamIcT_ES5_PKc(ptr noundef nonnull align 8 dereferenceable(8) %call7, ptr noundef %filename)
          to label %invoke.cont8 unwind label %lpad

invoke.cont8:                                     ; preds = %invoke.cont6
  %call11 = invoke noundef nonnull align 8 dereferenceable(8) ptr @_ZStlsISt11char_traitsIcEERSt13basic_ostreamIcT_ES5_PKc(ptr noundef nonnull align 8 dereferenceable(8) %call9, ptr noundef nonnull @.str.122)
          to label %invoke.cont10 unwind label %lpad

invoke.cont10:                                    ; preds = %invoke.cont8
  %call13 = invoke noundef nonnull align 8 dereferenceable(8) ptr @_ZNSolsEi(ptr noundef nonnull align 8 dereferenceable(8) %call11, i32 noundef %line_num)
          to label %invoke.cont12 unwind label %lpad

invoke.cont12:                                    ; preds = %invoke.cont10
  call void @_ZN7testing8internal8GTestLogD1Ev(ptr noundef nonnull align 4 dereferenceable(4) %ref.tmp) #31
  br label %if.end

lpad:                                             ; preds = %invoke.cont10, %invoke.cont8, %invoke.cont6, %invoke.cont, %if.else
  %0 = landingpad { ptr, i32 }
          cleanup
  call void @_ZN7testing8internal8GTestLogD1Ev(ptr noundef nonnull align 4 dereferenceable(4) %ref.tmp) #31
  resume { ptr, i32 } %0

if.end:                                           ; preds = %entry, %invoke.cont12
  ret ptr null
}

; Function Attrs: mustprogress uwtable
define linkonce_odr dso_local noundef ptr @_ZN7testing8internal16SuiteApiResolverINS_4TestEE22GetTearDownCaseOrSuiteEPKci(ptr noundef %filename, i32 noundef %line_num) local_unnamed_addr #4 comdat align 2 personality ptr @__gxx_personality_v0 {
entry:
  %ref.tmp = alloca %"class.testing::internal::GTestLog", align 4
  %call3 = tail call noundef zeroext i1 @_ZN7testing8internal6IsTrueEb(i1 noundef zeroext true)
  br i1 %call3, label %if.end, label %if.else

if.else:                                          ; preds = %entry
  call void @_ZN7testing8internal8GTestLogC1ENS0_16GTestLogSeverityEPKci(ptr noundef nonnull align 4 dereferenceable(4) %ref.tmp, i32 noundef 3, ptr noundef nonnull @.str.119, i32 noundef 534)
  %call5 = invoke noundef nonnull align 8 dereferenceable(8) ptr @_ZStlsISt11char_traitsIcEERSt13basic_ostreamIcT_ES5_PKc(ptr noundef nonnull align 8 dereferenceable(8) @_ZSt4cerr, ptr noundef nonnull @.str.120)
          to label %invoke.cont unwind label %lpad

invoke.cont:                                      ; preds = %if.else
  %call7 = invoke noundef nonnull align 8 dereferenceable(8) ptr @_ZStlsISt11char_traitsIcEERSt13basic_ostreamIcT_ES5_PKc(ptr noundef nonnull align 8 dereferenceable(8) %call5, ptr noundef nonnull @.str.123)
          to label %invoke.cont6 unwind label %lpad

invoke.cont6:                                     ; preds = %invoke.cont
  %call9 = invoke noundef nonnull align 8 dereferenceable(8) ptr @_ZStlsISt11char_traitsIcEERSt13basic_ostreamIcT_ES5_PKc(ptr noundef nonnull align 8 dereferenceable(8) %call7, ptr noundef %filename)
          to label %invoke.cont8 unwind label %lpad

invoke.cont8:                                     ; preds = %invoke.cont6
  %call11 = invoke noundef nonnull align 8 dereferenceable(8) ptr @_ZStlsISt11char_traitsIcEERSt13basic_ostreamIcT_ES5_PKc(ptr noundef nonnull align 8 dereferenceable(8) %call9, ptr noundef nonnull @.str.122)
          to label %invoke.cont10 unwind label %lpad

invoke.cont10:                                    ; preds = %invoke.cont8
  %call13 = invoke noundef nonnull align 8 dereferenceable(8) ptr @_ZNSolsEi(ptr noundef nonnull align 8 dereferenceable(8) %call11, i32 noundef %line_num)
          to label %invoke.cont12 unwind label %lpad

invoke.cont12:                                    ; preds = %invoke.cont10
  call void @_ZN7testing8internal8GTestLogD1Ev(ptr noundef nonnull align 4 dereferenceable(4) %ref.tmp) #31
  br label %if.end

lpad:                                             ; preds = %invoke.cont10, %invoke.cont8, %invoke.cont6, %invoke.cont, %if.else
  %0 = landingpad { ptr, i32 }
          cleanup
  call void @_ZN7testing8internal8GTestLogD1Ev(ptr noundef nonnull align 4 dereferenceable(4) %ref.tmp) #31
  resume { ptr, i32 } %0

if.end:                                           ; preds = %entry, %invoke.cont12
  ret ptr null
}

; Function Attrs: nobuiltin allocsize(0)
declare noundef nonnull ptr @_Znwm(i64 noundef) local_unnamed_addr #5

; Function Attrs: nobuiltin nounwind
declare void @_ZdlPv(ptr noundef) local_unnamed_addr #6

declare void @_ZNSt7__cxx1112basic_stringIcSt11char_traitsIcESaIcEEC1ERKS4_(ptr noundef nonnull align 8 dereferenceable(32), ptr noundef nonnull align 8 dereferenceable(32)) unnamed_addr #0

; Function Attrs: mustprogress nocallback nofree nounwind willreturn memory(argmem: write)
declare void @llvm.memset.p0.i64(ptr nocapture writeonly, i8, i64, i1 immarg) #7

; Function Attrs: mustprogress nounwind uwtable
define internal fastcc void @_ZNSt10shared_ptrIN7testing8internal26ParameterizedTestSuiteInfoIN12_GLOBAL__N_120BetaDistributionTestEE8TestInfoEED2Ev(ptr %this.8.val) unnamed_addr #3 align 2 personality ptr @__gxx_personality_v0 {
entry:
  %cmp.not.i.i = icmp eq ptr %this.8.val, null
  br i1 %cmp.not.i.i, label %_ZNSt12__shared_ptrIN7testing8internal26ParameterizedTestSuiteInfoIN12_GLOBAL__N_120BetaDistributionTestEE8TestInfoELN9__gnu_cxx12_Lock_policyE2EED2Ev.exit, label %if.then.i.i

if.then.i.i:                                      ; preds = %entry
  %_M_use_count.i.i.i = getelementptr inbounds %"class.std::_Sp_counted_base", ptr %this.8.val, i64 0, i32 1
  %0 = load atomic i64, ptr %_M_use_count.i.i.i acquire, align 8
  %cmp.i.i.i = icmp eq i64 %0, 4294967297
  %1 = trunc i64 %0 to i32
  br i1 %cmp.i.i.i, label %if.then.i.i.i, label %if.end.i.i.i

if.then.i.i.i:                                    ; preds = %if.then.i.i
  store i32 0, ptr %_M_use_count.i.i.i, align 8
  %_M_weak_count.i.i.i = getelementptr inbounds %"class.std::_Sp_counted_base", ptr %this.8.val, i64 0, i32 2
  store i32 0, ptr %_M_weak_count.i.i.i, align 4
  %vtable.i.i.i = load ptr, ptr %this.8.val, align 8
  %vfn.i.i.i = getelementptr inbounds ptr, ptr %vtable.i.i.i, i64 2
  %2 = load ptr, ptr %vfn.i.i.i, align 8
  tail call void %2(ptr noundef nonnull align 8 dereferenceable(16) %this.8.val) #31
  br label %if.end8.sink.split.i.i.i

if.end.i.i.i:                                     ; preds = %if.then.i.i
  %3 = load i8, ptr @__libc_single_threaded, align 1
  %tobool.i.not.i.i.i = icmp eq i8 %3, 0
  br i1 %tobool.i.not.i.i.i, label %if.else.i.i.i.i, label %if.then.i.i.i.i

if.then.i.i.i.i:                                  ; preds = %if.end.i.i.i
  %add.i.i.i.i = add nsw i32 %1, -1
  store i32 %add.i.i.i.i, ptr %_M_use_count.i.i.i, align 4
  br label %_ZN9__gnu_cxx27__exchange_and_add_dispatchEPii.exit.i.i.i

if.else.i.i.i.i:                                  ; preds = %if.end.i.i.i
  %4 = atomicrmw volatile add ptr %_M_use_count.i.i.i, i32 -1 acq_rel, align 4
  br label %_ZN9__gnu_cxx27__exchange_and_add_dispatchEPii.exit.i.i.i

_ZN9__gnu_cxx27__exchange_and_add_dispatchEPii.exit.i.i.i: ; preds = %if.else.i.i.i.i, %if.then.i.i.i.i
  %retval.i.0.i.i.i = phi i32 [ %1, %if.then.i.i.i.i ], [ %4, %if.else.i.i.i.i ]
  %cmp6.i.i.i = icmp eq i32 %retval.i.0.i.i.i, 1
  br i1 %cmp6.i.i.i, label %if.then7.i.i.i, label %_ZNSt12__shared_ptrIN7testing8internal26ParameterizedTestSuiteInfoIN12_GLOBAL__N_120BetaDistributionTestEE8TestInfoELN9__gnu_cxx12_Lock_policyE2EED2Ev.exit

if.then7.i.i.i:                                   ; preds = %_ZN9__gnu_cxx27__exchange_and_add_dispatchEPii.exit.i.i.i
  %vtable.i.i.i.i.i = load ptr, ptr %this.8.val, align 8
  %vfn.i.i.i.i.i = getelementptr inbounds ptr, ptr %vtable.i.i.i.i.i, i64 2
  %5 = load ptr, ptr %vfn.i.i.i.i.i, align 8
  tail call void %5(ptr noundef nonnull align 8 dereferenceable(16) %this.8.val) #31
  %_M_weak_count.i.i.i.i.i = getelementptr inbounds %"class.std::_Sp_counted_base", ptr %this.8.val, i64 0, i32 2
  %6 = load i8, ptr @__libc_single_threaded, align 1
  %tobool.i.not.i.i.i.i.i = icmp eq i8 %6, 0
  br i1 %tobool.i.not.i.i.i.i.i, label %if.else.i.i.i.i.i.i, label %if.then.i.i.i.i.i.i

if.then.i.i.i.i.i.i:                              ; preds = %if.then7.i.i.i
  %7 = load i32, ptr %_M_weak_count.i.i.i.i.i, align 4
  %add.i.i.i.i.i.i = add nsw i32 %7, -1
  store i32 %add.i.i.i.i.i.i, ptr %_M_weak_count.i.i.i.i.i, align 4
  br label %_ZN9__gnu_cxx27__exchange_and_add_dispatchEPii.exit.i.i.i.i.i

if.else.i.i.i.i.i.i:                              ; preds = %if.then7.i.i.i
  %8 = atomicrmw volatile add ptr %_M_weak_count.i.i.i.i.i, i32 -1 acq_rel, align 4
  br label %_ZN9__gnu_cxx27__exchange_and_add_dispatchEPii.exit.i.i.i.i.i

_ZN9__gnu_cxx27__exchange_and_add_dispatchEPii.exit.i.i.i.i.i: ; preds = %if.else.i.i.i.i.i.i, %if.then.i.i.i.i.i.i
  %retval.i.0.i.i.i.i.i = phi i32 [ %7, %if.then.i.i.i.i.i.i ], [ %8, %if.else.i.i.i.i.i.i ]
  %cmp.i.i.i.i.i = icmp eq i32 %retval.i.0.i.i.i.i.i, 1
  br i1 %cmp.i.i.i.i.i, label %if.end8.sink.split.i.i.i, label %_ZNSt12__shared_ptrIN7testing8internal26ParameterizedTestSuiteInfoIN12_GLOBAL__N_120BetaDistributionTestEE8TestInfoELN9__gnu_cxx12_Lock_policyE2EED2Ev.exit

if.end8.sink.split.i.i.i:                         ; preds = %_ZN9__gnu_cxx27__exchange_and_add_dispatchEPii.exit.i.i.i.i.i, %if.then.i.i.i
  %vtable2.i.i.i.i.i = load ptr, ptr %this.8.val, align 8
  %vfn3.i.i.i.i.i = getelementptr inbounds ptr, ptr %vtable2.i.i.i.i.i, i64 3
  %9 = load ptr, ptr %vfn3.i.i.i.i.i, align 8
  tail call void %9(ptr noundef nonnull align 8 dereferenceable(16) %this.8.val) #31
  br label %_ZNSt12__shared_ptrIN7testing8internal26ParameterizedTestSuiteInfoIN12_GLOBAL__N_120BetaDistributionTestEE8TestInfoELN9__gnu_cxx12_Lock_policyE2EED2Ev.exit

_ZNSt12__shared_ptrIN7testing8internal26ParameterizedTestSuiteInfoIN12_GLOBAL__N_120BetaDistributionTestEE8TestInfoELN9__gnu_cxx12_Lock_policyE2EED2Ev.exit: ; preds = %entry, %_ZN9__gnu_cxx27__exchange_and_add_dispatchEPii.exit.i.i.i, %_ZN9__gnu_cxx27__exchange_and_add_dispatchEPii.exit.i.i.i.i.i, %if.end8.sink.split.i.i.i
  ret void
}

; Function Attrs: noreturn
declare void @_ZSt20__throw_length_errorPKc(ptr noundef) local_unnamed_addr #8

; Function Attrs: noreturn nounwind uwtable
define linkonce_odr hidden void @__clang_call_terminate(ptr noundef %0) local_unnamed_addr #9 comdat {
  %2 = tail call ptr @__cxa_begin_catch(ptr %0) #31
  tail call void @_ZSt9terminatev() #35
  unreachable
}

declare ptr @__cxa_begin_catch(ptr) local_unnamed_addr

declare void @_ZSt9terminatev() local_unnamed_addr

; Function Attrs: mustprogress nounwind uwtable
define internal fastcc void @_ZN7testing8internal26ParameterizedTestSuiteInfoIN12_GLOBAL__N_120BetaDistributionTestEE8TestInfoD2Ev(ptr noundef nonnull align 8 dereferenceable(112) %this) unnamed_addr #3 align 2 personality ptr @__gxx_personality_v0 {
entry:
  %code_location = getelementptr inbounds %"struct.testing::internal::ParameterizedTestSuiteInfo<(anonymous namespace)::BetaDistributionTest>::TestInfo", ptr %this, i64 0, i32 3
  tail call void @_ZNSt7__cxx1112basic_stringIcSt11char_traitsIcESaIcEED1Ev(ptr noundef nonnull align 8 dereferenceable(32) %code_location) #31
  %test_meta_factory = getelementptr inbounds %"struct.testing::internal::ParameterizedTestSuiteInfo<(anonymous namespace)::BetaDistributionTest>::TestInfo", ptr %this, i64 0, i32 2
  %0 = load ptr, ptr %test_meta_factory, align 8
  %cmp.not.i = icmp eq ptr %0, null
  br i1 %cmp.not.i, label %_ZNSt10unique_ptrIN7testing8internal19TestMetaFactoryBaseISt5tupleIJddEEEESt14default_deleteIS5_EED2Ev.exit, label %_ZNKSt14default_deleteIN7testing8internal19TestMetaFactoryBaseISt5tupleIJddEEEEEclEPS5_.exit.i

_ZNKSt14default_deleteIN7testing8internal19TestMetaFactoryBaseISt5tupleIJddEEEEEclEPS5_.exit.i: ; preds = %entry
  %vtable.i.i = load ptr, ptr %0, align 8
  %vfn.i.i = getelementptr inbounds ptr, ptr %vtable.i.i, i64 1
  %1 = load ptr, ptr %vfn.i.i, align 8
  tail call void %1(ptr noundef nonnull align 8 dereferenceable(8) %0) #31
  br label %_ZNSt10unique_ptrIN7testing8internal19TestMetaFactoryBaseISt5tupleIJddEEEESt14default_deleteIS5_EED2Ev.exit

_ZNSt10unique_ptrIN7testing8internal19TestMetaFactoryBaseISt5tupleIJddEEEESt14default_deleteIS5_EED2Ev.exit: ; preds = %entry, %_ZNKSt14default_deleteIN7testing8internal19TestMetaFactoryBaseISt5tupleIJddEEEEEclEPS5_.exit.i
  store ptr null, ptr %test_meta_factory, align 8
  %test_base_name = getelementptr inbounds %"struct.testing::internal::ParameterizedTestSuiteInfo<(anonymous namespace)::BetaDistributionTest>::TestInfo", ptr %this, i64 0, i32 1
  tail call void @_ZNSt7__cxx1112basic_stringIcSt11char_traitsIcESaIcEED1Ev(ptr noundef nonnull align 8 dereferenceable(32) %test_base_name) #31
  tail call void @_ZNSt7__cxx1112basic_stringIcSt11char_traitsIcESaIcEED1Ev(ptr noundef nonnull align 8 dereferenceable(32) %this) #31
  ret void
}

declare void @__cxa_rethrow() local_unnamed_addr

declare void @__cxa_end_catch() local_unnamed_addr

; Function Attrs: mustprogress nofree norecurse nosync nounwind willreturn memory(none) uwtable
define internal void @_ZNSt15_Sp_counted_ptrIPN7testing8internal26ParameterizedTestSuiteInfoIN12_GLOBAL__N_120BetaDistributionTestEE8TestInfoELN9__gnu_cxx12_Lock_policyE2EED2Ev(ptr nocapture nonnull readnone align 8 %this) unnamed_addr #10 align 2 {
entry:
  ret void
}

; Function Attrs: mustprogress nounwind uwtable
define internal void @_ZNSt15_Sp_counted_ptrIPN7testing8internal26ParameterizedTestSuiteInfoIN12_GLOBAL__N_120BetaDistributionTestEE8TestInfoELN9__gnu_cxx12_Lock_policyE2EED0Ev(ptr noundef nonnull align 8 dereferenceable(24) %this) unnamed_addr #3 align 2 {
entry:
  tail call void @_ZdlPv(ptr noundef nonnull %this) #32
  ret void
}

; Function Attrs: mustprogress nounwind uwtable
define internal void @_ZNSt15_Sp_counted_ptrIPN7testing8internal26ParameterizedTestSuiteInfoIN12_GLOBAL__N_120BetaDistributionTestEE8TestInfoELN9__gnu_cxx12_Lock_policyE2EE10_M_disposeEv(ptr nocapture noundef nonnull readonly align 8 dereferenceable(24) %this) unnamed_addr #3 align 2 personality ptr @__gxx_personality_v0 {
entry:
  %_M_ptr = getelementptr inbounds %"class.std::_Sp_counted_ptr", ptr %this, i64 0, i32 1
  %0 = load ptr, ptr %_M_ptr, align 8
  %isnull = icmp eq ptr %0, null
  br i1 %isnull, label %delete.end, label %delete.notnull

delete.notnull:                                   ; preds = %entry
  %code_location.i = getelementptr inbounds %"struct.testing::internal::ParameterizedTestSuiteInfo<(anonymous namespace)::BetaDistributionTest>::TestInfo", ptr %0, i64 0, i32 3
  tail call void @_ZNSt7__cxx1112basic_stringIcSt11char_traitsIcESaIcEED1Ev(ptr noundef nonnull align 8 dereferenceable(32) %code_location.i) #31
  %test_meta_factory.i = getelementptr inbounds %"struct.testing::internal::ParameterizedTestSuiteInfo<(anonymous namespace)::BetaDistributionTest>::TestInfo", ptr %0, i64 0, i32 2
  %1 = load ptr, ptr %test_meta_factory.i, align 8
  %cmp.not.i.i = icmp eq ptr %1, null
  br i1 %cmp.not.i.i, label %_ZN7testing8internal26ParameterizedTestSuiteInfoIN12_GLOBAL__N_120BetaDistributionTestEE8TestInfoD2Ev.exit, label %_ZNKSt14default_deleteIN7testing8internal19TestMetaFactoryBaseISt5tupleIJddEEEEEclEPS5_.exit.i.i

_ZNKSt14default_deleteIN7testing8internal19TestMetaFactoryBaseISt5tupleIJddEEEEEclEPS5_.exit.i.i: ; preds = %delete.notnull
  %vtable.i.i.i = load ptr, ptr %1, align 8
  %vfn.i.i.i = getelementptr inbounds ptr, ptr %vtable.i.i.i, i64 1
  %2 = load ptr, ptr %vfn.i.i.i, align 8
  tail call void %2(ptr noundef nonnull align 8 dereferenceable(8) %1) #31
  br label %_ZN7testing8internal26ParameterizedTestSuiteInfoIN12_GLOBAL__N_120BetaDistributionTestEE8TestInfoD2Ev.exit

_ZN7testing8internal26ParameterizedTestSuiteInfoIN12_GLOBAL__N_120BetaDistributionTestEE8TestInfoD2Ev.exit: ; preds = %delete.notnull, %_ZNKSt14default_deleteIN7testing8internal19TestMetaFactoryBaseISt5tupleIJddEEEEEclEPS5_.exit.i.i
  store ptr null, ptr %test_meta_factory.i, align 8
  %test_base_name.i = getelementptr inbounds %"struct.testing::internal::ParameterizedTestSuiteInfo<(anonymous namespace)::BetaDistributionTest>::TestInfo", ptr %0, i64 0, i32 1
  tail call void @_ZNSt7__cxx1112basic_stringIcSt11char_traitsIcESaIcEED1Ev(ptr noundef nonnull align 8 dereferenceable(32) %test_base_name.i) #31
  tail call void @_ZNSt7__cxx1112basic_stringIcSt11char_traitsIcESaIcEED1Ev(ptr noundef nonnull align 8 dereferenceable(32) %0) #31
  tail call void @_ZdlPv(ptr noundef nonnull %0) #32
  br label %delete.end

delete.end:                                       ; preds = %_ZN7testing8internal26ParameterizedTestSuiteInfoIN12_GLOBAL__N_120BetaDistributionTestEE8TestInfoD2Ev.exit, %entry
  ret void
}

; Function Attrs: mustprogress nounwind uwtable
define internal void @_ZNSt15_Sp_counted_ptrIPN7testing8internal26ParameterizedTestSuiteInfoIN12_GLOBAL__N_120BetaDistributionTestEE8TestInfoELN9__gnu_cxx12_Lock_policyE2EE10_M_destroyEv(ptr noundef nonnull align 8 dereferenceable(24) %this) unnamed_addr #3 align 2 {
entry:
  tail call void @_ZdlPv(ptr noundef nonnull %this) #32
  ret void
}

; Function Attrs: mustprogress nofree norecurse nosync nounwind willreturn memory(none) uwtable
define internal noalias noundef ptr @_ZNSt15_Sp_counted_ptrIPN7testing8internal26ParameterizedTestSuiteInfoIN12_GLOBAL__N_120BetaDistributionTestEE8TestInfoELN9__gnu_cxx12_Lock_policyE2EE14_M_get_deleterERKSt9type_info(ptr nocapture nonnull readnone align 8 %this, ptr nocapture nonnull readnone align 8 %0) unnamed_addr #10 align 2 {
entry:
  ret ptr null
}

declare void @__cxa_pure_virtual() unnamed_addr

; Function Attrs: cold noreturn nounwind memory(inaccessiblemem: write)
declare void @llvm.trap() #11

; Function Attrs: mustprogress nofree norecurse nosync nounwind willreturn memory(none) uwtable
define internal void @_ZN7testing8internal15TestMetaFactoryIN12_GLOBAL__N_146BetaDistributionTest_TestSampleStatistics_TestEED2Ev(ptr nocapture nonnull readnone align 8 %this) unnamed_addr #10 align 2 {
entry:
  ret void
}

; Function Attrs: mustprogress nounwind uwtable
define internal void @_ZN7testing8internal15TestMetaFactoryIN12_GLOBAL__N_146BetaDistributionTest_TestSampleStatistics_TestEED0Ev(ptr noundef nonnull align 8 dereferenceable(8) %this) unnamed_addr #3 align 2 {
entry:
  tail call void @_ZdlPv(ptr noundef nonnull %this) #32
  ret void
}

; Function Attrs: mustprogress uwtable
define internal noalias noundef nonnull ptr @_ZN7testing8internal15TestMetaFactoryIN12_GLOBAL__N_146BetaDistributionTest_TestSampleStatistics_TestEE17CreateTestFactoryESt5tupleIJddEE(ptr nocapture nonnull readnone align 8 %this, ptr nocapture noundef readonly %parameter) unnamed_addr #4 align 2 personality ptr @__gxx_personality_v0 {
invoke.cont:
  %call = tail call noalias noundef nonnull dereferenceable(24) ptr @_Znwm(i64 noundef 24) #34
  %parameter_.i = getelementptr inbounds %"class.testing::internal::ParameterizedTestFactory", ptr %call, i64 0, i32 1
  tail call void @llvm.memcpy.p0.p0.i64(ptr noundef nonnull align 8 dereferenceable(16) %parameter_.i, ptr noundef nonnull align 8 dereferenceable(16) %parameter, i64 16, i1 false)
  store ptr getelementptr inbounds ({ [5 x ptr] }, ptr @_ZTVN7testing8internal24ParameterizedTestFactoryIN12_GLOBAL__N_146BetaDistributionTest_TestSampleStatistics_TestEEE, i64 0, inrange i32 0, i64 2), ptr %call, align 8
  ret ptr %call
}

; Function Attrs: mustprogress nocallback nofree nounwind willreturn memory(argmem: readwrite)
declare void @llvm.memcpy.p0.p0.i64(ptr noalias nocapture writeonly, ptr noalias nocapture readonly, i64, i1 immarg) #12

; Function Attrs: mustprogress nofree norecurse nosync nounwind willreturn memory(none) uwtable
define internal void @_ZN7testing8internal24ParameterizedTestFactoryIN12_GLOBAL__N_146BetaDistributionTest_TestSampleStatistics_TestEED2Ev(ptr nocapture nonnull readnone align 8 %this) unnamed_addr #10 align 2 {
entry:
  ret void
}

; Function Attrs: mustprogress nounwind uwtable
define internal void @_ZN7testing8internal24ParameterizedTestFactoryIN12_GLOBAL__N_146BetaDistributionTest_TestSampleStatistics_TestEED0Ev(ptr noundef nonnull align 8 dereferenceable(24) %this) unnamed_addr #3 align 2 {
entry:
  tail call void @_ZdlPv(ptr noundef nonnull %this) #32
  ret void
}

; Function Attrs: mustprogress uwtable
define internal noundef nonnull ptr @_ZN7testing8internal24ParameterizedTestFactoryIN12_GLOBAL__N_146BetaDistributionTest_TestSampleStatistics_TestEE10CreateTestEv(ptr noundef nonnull align 8 dereferenceable(24) %this) unnamed_addr #4 align 2 personality ptr @__gxx_personality_v0 {
entry:
  %buffer.i.i.i.i.i.i.i = alloca [4 x i32], align 16
  %parameter_ = getelementptr inbounds %"class.testing::internal::ParameterizedTestFactory", ptr %this, i64 0, i32 1
  store ptr %parameter_, ptr @_ZN7testing18WithParamInterfaceISt5tupleIJddEEE10parameter_E, align 8
  %call = tail call noalias noundef nonnull dereferenceable(64) ptr @_Znwm(i64 noundef 64) #34
  invoke void @_ZN7testing4TestC2Ev(ptr noundef nonnull align 8 dereferenceable(16) %call)
          to label %.noexc unwind label %lpad

.noexc:                                           ; preds = %entry
  %0 = getelementptr inbounds i8, ptr %call, i64 16
  store ptr getelementptr inbounds ({ [8 x ptr], [4 x ptr] }, ptr @_ZTVN7testing13TestWithParamISt5tupleIJddEEEE, i64 0, inrange i32 0, i64 2), ptr %call, align 8
  store ptr getelementptr inbounds ({ [8 x ptr], [4 x ptr] }, ptr @_ZTVN7testing13TestWithParamISt5tupleIJddEEEE, i64 0, inrange i32 1, i64 2), ptr %0, align 8
  %call.i.i = invoke noundef nonnull align 8 dereferenceable(16) ptr @_ZN7testing18WithParamInterfaceISt5tupleIJddEEE8GetParamEv()
          to label %invoke.cont.i.i unwind label %lpad.i.i

invoke.cont.i.i:                                  ; preds = %.noexc
  %1 = getelementptr inbounds i8, ptr %call, i64 24
  %2 = load <2 x double>, ptr %call.i.i, align 8
  %3 = shufflevector <2 x double> %2, <2 x double> poison, <2 x i32> <i32 1, i32 0>
  store <2 x double> %3, ptr %1, align 8
  store ptr getelementptr inbounds ({ [8 x ptr], [4 x ptr] }, ptr @_ZTVN12_GLOBAL__N_120BetaDistributionTestE, i64 0, inrange i32 0, i64 2), ptr %call, align 16
  store ptr getelementptr inbounds ({ [8 x ptr], [4 x ptr] }, ptr @_ZTVN12_GLOBAL__N_120BetaDistributionTestE, i64 0, inrange i32 1, i64 2), ptr %0, align 16
  call void @llvm.lifetime.start.p0(i64 16, ptr nonnull %buffer.i.i.i.i.i.i.i)
  invoke void @_ZN4absl15random_internal10RandenPoolIhE4FillENS_4SpanIhEE(ptr nonnull %buffer.i.i.i.i.i.i.i, i64 16)
          to label %.noexc.i.i unwind label %lpad.i.i

.noexc.i.i:                                       ; preds = %invoke.cont.i.i
  %4 = load i32, ptr %buffer.i.i.i.i.i.i.i, align 16
  %conv.i.i.i.i.i.i.i.i = zext i32 %4 to i64
  br label %for.body.i.i.i.i.i.i.i

for.body.i.i.i.i.i.i.i:                           ; preds = %for.body.i.i.i.i.i.i.i, %.noexc.i.i
  %i.018.i.i.i.i.i.i.i = phi i64 [ 1, %.noexc.i.i ], [ %inc.i.i.i.i.i.i.i, %for.body.i.i.i.i.i.i.i ]
  %tmp.sroa.6.017.i.i.i.i.i.i.i = phi i64 [ 0, %.noexc.i.i ], [ %coerce1.sroa.2.0.extract.trunc.i.i.i.i.i.i.i.i.i, %for.body.i.i.i.i.i.i.i ]
  %tmp.sroa.0.016.i.i.i.i.i.i.i = phi i64 [ %conv.i.i.i.i.i.i.i.i, %.noexc.i.i ], [ %coerce.sroa.0.0.insert.insert.i1.i.i.i.i.i.i.i.i, %for.body.i.i.i.i.i.i.i ]
  %coerce.sroa.2.0.insert.ext.i.i.i.i.i.i.i.i.i = zext i64 %tmp.sroa.6.017.i.i.i.i.i.i.i to i128
  %coerce.sroa.0.0.insert.ext.i.i.i.i.i.i.i.i.i = zext i64 %tmp.sroa.0.016.i.i.i.i.i.i.i to i128
  %5 = shl i128 %coerce.sroa.2.0.insert.ext.i.i.i.i.i.i.i.i.i, 96
  %6 = shl nuw nsw i128 %coerce.sroa.0.0.insert.ext.i.i.i.i.i.i.i.i.i, 32
  %shl.i.i.i.i.i.i.i.i.i = or disjoint i128 %6, %5
  %coerce1.sroa.0.0.extract.trunc.i.i.i.i.i.i.i.i.i = trunc i128 %6 to i64
  %coerce1.sroa.2.0.extract.shift.i.i.i.i.i.i.i.i.i = lshr i128 %shl.i.i.i.i.i.i.i.i.i, 64
  %coerce1.sroa.2.0.extract.trunc.i.i.i.i.i.i.i.i.i = trunc i128 %coerce1.sroa.2.0.extract.shift.i.i.i.i.i.i.i.i.i to i64
  %arrayidx4.i.i.i.i.i.i.i = getelementptr inbounds [4 x i32], ptr %buffer.i.i.i.i.i.i.i, i64 0, i64 %i.018.i.i.i.i.i.i.i
  %7 = load i32, ptr %arrayidx4.i.i.i.i.i.i.i, align 4
  %conv.i3.i.i.i.i.i.i.i = zext i32 %7 to i64
  %coerce.sroa.0.0.insert.insert.i1.i.i.i.i.i.i.i.i = or disjoint i64 %coerce1.sroa.0.0.extract.trunc.i.i.i.i.i.i.i.i.i, %conv.i3.i.i.i.i.i.i.i
  %inc.i.i.i.i.i.i.i = add nuw nsw i64 %i.018.i.i.i.i.i.i.i, 1
  %exitcond.not.i.i.i.i.i.i.i = icmp eq i64 %inc.i.i.i.i.i.i.i, 4
  br i1 %exitcond.not.i.i.i.i.i.i.i, label %invoke.cont, label %for.body.i.i.i.i.i.i.i, !llvm.loop !17

lpad.i.i:                                         ; preds = %invoke.cont.i.i, %.noexc
  %8 = landingpad { ptr, i32 }
          cleanup
  call void @_ZN7testing4TestD2Ev(ptr noundef nonnull align 8 dereferenceable(16) %call) #31
  br label %lpad.body

invoke.cont:                                      ; preds = %for.body.i.i.i.i.i.i.i
  %rng_.i.i = getelementptr inbounds %"class.(anonymous namespace)::BetaDistributionTest", ptr %call, i64 0, i32 3
  %coerce.sroa.2.0.insert.shift.i.i.i.i.i.i.i.i = and i128 %shl.i.i.i.i.i.i.i.i.i, -18446744073709551616
  %coerce.sroa.0.0.insert.ext.i.i.i.i.i.i.i.i = zext i64 %coerce.sroa.0.0.insert.insert.i1.i.i.i.i.i.i.i.i to i128
  %coerce2.sroa.0.0.insert.insert.i.i.i.i.i.i.i.i = add nuw nsw i128 %coerce.sroa.0.0.insert.ext.i.i.i.i.i.i.i.i, 1442695040888963407
  %coerce.sroa.0.0.insert.insert.i.i.i.i.i.i.i.i = add i128 %coerce2.sroa.0.0.insert.insert.i.i.i.i.i.i.i.i, %coerce.sroa.2.0.insert.shift.i.i.i.i.i.i.i.i
  %9 = lshr i128 %coerce.sroa.0.0.insert.insert.i.i.i.i.i.i.i.i, 64
  %.tr.i.i.i.i.i.i.i.i = trunc i128 %9 to i64
  %.narrow.i.i.i.i.i.i.i.i = add i64 %.tr.i.i.i.i.i.i.i.i, 6364136223846793005
  %coerce.sroa.2.0.insert.ext.i.i8.i.i.i.i.i.i.i = zext i64 %.narrow.i.i.i.i.i.i.i.i to i128
  %coerce.sroa.2.0.insert.shift.i.i9.i.i.i.i.i.i.i = shl nuw i128 %coerce.sroa.2.0.insert.ext.i.i8.i.i.i.i.i.i.i, 64
  %coerce.sroa.0.0.insert.ext.i.i10.i.i.i.i.i.i.i = and i128 %coerce2.sroa.0.0.insert.insert.i.i.i.i.i.i.i.i, 18446744073709551615
  %coerce.sroa.0.0.insert.insert.i.i11.i.i.i.i.i.i.i = or disjoint i128 %coerce.sroa.2.0.insert.shift.i.i9.i.i.i.i.i.i.i, %coerce.sroa.0.0.insert.ext.i.i10.i.i.i.i.i.i.i
  %mul.i.i.i.i.i.i.i.i.i = mul i128 %coerce.sroa.0.0.insert.insert.i.i11.i.i.i.i.i.i.i, 47026247687942121848144207491837523525
  %coerce.sroa.0.0.insert.insert.i6.i.i.i.i.i.i.i.i = add i128 %mul.i.i.i.i.i.i.i.i.i, 1442695040888963407
  %coerce3.sroa.0.0.extract.trunc.i7.i.i.i.i.i.i.i.i = trunc i128 %coerce.sroa.0.0.insert.insert.i6.i.i.i.i.i.i.i.i to i64
  %10 = lshr i128 %coerce.sroa.0.0.insert.insert.i6.i.i.i.i.i.i.i.i, 64
  %.tr.i.i.i.i.i.i.i.i.i = trunc i128 %10 to i64
  %.narrow.i.i.i.i.i.i.i.i.i = add i64 %.tr.i.i.i.i.i.i.i.i.i, 6364136223846793005
  call void @llvm.lifetime.end.p0(i64 16, ptr nonnull %buffer.i.i.i.i.i.i.i)
  store i64 %coerce3.sroa.0.0.extract.trunc.i7.i.i.i.i.i.i.i.i, ptr %rng_.i.i, align 16
  %11 = getelementptr inbounds %"class.(anonymous namespace)::BetaDistributionTest", ptr %call, i64 0, i32 3, i32 0, i32 0, i32 1
  store i64 %.narrow.i.i.i.i.i.i.i.i.i, ptr %11, align 8
  store ptr getelementptr inbounds ({ [8 x ptr], [4 x ptr] }, ptr @_ZTVN12_GLOBAL__N_146BetaDistributionTest_TestSampleStatistics_TestE, i64 0, inrange i32 0, i64 2), ptr %call, align 16
  store ptr getelementptr inbounds ({ [8 x ptr], [4 x ptr] }, ptr @_ZTVN12_GLOBAL__N_146BetaDistributionTest_TestSampleStatistics_TestE, i64 0, inrange i32 1, i64 2), ptr %0, align 16
  ret ptr %call

lpad:                                             ; preds = %entry
  %12 = landingpad { ptr, i32 }
          cleanup
  br label %lpad.body

lpad.body:                                        ; preds = %lpad.i.i, %lpad
  %eh.lpad-body = phi { ptr, i32 } [ %12, %lpad ], [ %8, %lpad.i.i ]
  call void @_ZdlPv(ptr noundef nonnull %call) #32
  resume { ptr, i32 } %eh.lpad-body
}

; Function Attrs: mustprogress nounwind uwtable
define internal void @_ZN12_GLOBAL__N_146BetaDistributionTest_TestSampleStatistics_TestD2Ev(ptr noundef nonnull align 16 dereferenceable(64) %this) unnamed_addr #3 align 2 {
entry:
  tail call void @_ZN7testing4TestD2Ev(ptr noundef nonnull align 8 dereferenceable(16) %this) #31
  ret void
}

; Function Attrs: mustprogress nounwind uwtable
define internal void @_ZN12_GLOBAL__N_146BetaDistributionTest_TestSampleStatistics_TestD0Ev(ptr noundef nonnull align 16 dereferenceable(64) %this) unnamed_addr #3 align 2 {
entry:
  tail call void @_ZN7testing4TestD2Ev(ptr noundef nonnull align 8 dereferenceable(16) %this) #31
  tail call void @_ZdlPv(ptr noundef nonnull %this) #32
  ret void
}

declare void @_ZN7testing4Test5SetUpEv(ptr noundef nonnull align 8 dereferenceable(16)) unnamed_addr #0

declare void @_ZN7testing4Test8TearDownEv(ptr noundef nonnull align 8 dereferenceable(16)) unnamed_addr #0

; Function Attrs: mustprogress uwtable
define internal void @_ZN12_GLOBAL__N_146BetaDistributionTest_TestSampleStatistics_Test8TestBodyEv(ptr nocapture noundef nonnull align 16 dereferenceable(64) %this) unnamed_addr #4 align 2 personality ptr @__gxx_personality_v0 {
entry:
  %v.addr.i214.i = alloca double, align 8
  %v.addr.i209.i = alloca double, align 8
  %v.addr.i198.i = alloca double, align 8
  %v.addr.i193.i = alloca double, align 8
  %v.addr.i188.i = alloca i32, align 4
  %v.addr.i183.i = alloca i32, align 4
  %v.addr.i178.i = alloca double, align 8
  %v.addr.i.i4 = alloca i64, align 8
  %gtest_ar.i5 = alloca %"class.testing::AssertionResult", align 8
  %ref.tmp33.i = alloca i64, align 8
  %ref.tmp35.i = alloca i32, align 4
  %ref.tmp41.i = alloca %"class.testing::Message", align 8
  %ref.tmp54.i = alloca %"class.testing::internal::AssertHelper", align 8
  %dis.i6 = alloca %"class.absl::beta_distribution", align 8
  %ref.tmp134.i = alloca %"class.absl::log_internal::LogMessage", align 8
  %ref.tmp164.i = alloca %"class.absl::log_internal::LogMessage", align 8
  %v.addr.i175.i = alloca double, align 8
  %v.addr.i163.i = alloca double, align 8
  %v.addr.i151.i = alloca double, align 8
  %v.addr.i146.i = alloca double, align 8
  %v.addr.i139.i = alloca double, align 8
  %v.addr.i132.i = alloca double, align 8
  %v.addr.i127.i = alloca double, align 8
  %v.addr.i.i = alloca double, align 8
  %dis.i = alloca %"class.absl::beta_distribution", align 8
  %variate.i = alloca double, align 8
  %gtest_ar_.i = alloca %"class.testing::AssertionResult", align 8
  %ref.tmp10.i = alloca %"class.testing::Message", align 8
  %ref.tmp12.i = alloca %"class.testing::internal::AssertHelper", align 8
  %ref.tmp13.i = alloca %"class.std::__cxx11::basic_string", align 8
  %gtest_ar.i = alloca %"class.testing::AssertionResult", align 8
  %ref.tmp23.i = alloca double, align 8
  %ref.tmp30.i = alloca %"class.testing::Message", align 8
  %ref.tmp32.i = alloca %"class.testing::internal::AssertHelper", align 8
  %gtest_ar43.i = alloca %"class.testing::AssertionResult", align 8
  %ref.tmp44.i = alloca double, align 8
  %ref.tmp51.i = alloca %"class.testing::Message", align 8
  %ref.tmp53.i = alloca %"class.testing::internal::AssertHelper", align 8
  %m.i = alloca %"struct.absl::random_internal::DistributionMoments", align 8
  %ref.tmp105.i = alloca %"class.absl::log_internal::LogMessage", align 8
  %failed = alloca i32, align 4
  %gtest_ar = alloca %"class.testing::AssertionResult", align 8
  %ref.tmp = alloca i32, align 4
  %ref.tmp10 = alloca %"class.testing::Message", align 8
  %ref.tmp12 = alloca %"class.testing::internal::AssertHelper", align 8
  %call = tail call noundef double @_ZN4absl15random_internal26RequiredSuccessProbabilityEdi(double noundef 2.000000e-02, i32 noundef 20)
  store i32 0, ptr %failed, align 4
  %add.ptr.i = getelementptr inbounds i8, ptr %this, i64 24
  %beta_.i = getelementptr inbounds i8, ptr %this, i64 32
  %rng_.i = getelementptr inbounds %"class.(anonymous namespace)::BetaDistributionTest", ptr %this, i64 0, i32 3
  %method_.i.i.i = getelementptr inbounds %"class.absl::beta_distribution<>::param_type", ptr %dis.i, i64 0, i32 8
  %beta_.i.i.i.i = getelementptr inbounds %"class.absl::beta_distribution<>::param_type", ptr %dis.i, i64 0, i32 1
  %agg.tmp.sroa.2.0.state_.sroa_idx.i.i.i.i.i.i.i.i = getelementptr inbounds %"class.(anonymous namespace)::BetaDistributionTest", ptr %this, i64 0, i32 3, i32 0, i32 0, i32 1
  %x_.i.i.i.i = getelementptr inbounds %"class.absl::beta_distribution<>::param_type", ptr %dis.i, i64 0, i32 4
  %message_.i.i = getelementptr inbounds %"class.testing::AssertionResult", ptr %gtest_ar_.i, i64 0, i32 1
  %message_.i.i.i = getelementptr inbounds %"class.testing::AssertionResult", ptr %gtest_ar.i, i64 0, i32 1
  %message_.i.i68.i = getelementptr inbounds %"class.testing::AssertionResult", ptr %gtest_ar43.i, i64 0, i32 1
  %y_.i = getelementptr inbounds %"class.absl::beta_distribution<>::param_type", ptr %dis.i, i64 0, i32 6
  %a_.i = getelementptr inbounds %"class.absl::beta_distribution<>::param_type", ptr %dis.i, i64 0, i32 2
  %b_.i = getelementptr inbounds %"class.absl::beta_distribution<>::param_type", ptr %dis.i, i64 0, i32 3
  %gamma_.i = getelementptr inbounds %"class.absl::beta_distribution<>::param_type", ptr %dis.i, i64 0, i32 7
  %log_x_.i = getelementptr inbounds %"class.absl::beta_distribution<>::param_type", ptr %dis.i, i64 0, i32 5
  %inverted_.i = getelementptr inbounds %"class.absl::beta_distribution<>::param_type", ptr %dis.i, i64 0, i32 9
  %variance.i = getelementptr inbounds %"struct.absl::random_internal::DistributionMoments", ptr %m.i, i64 0, i32 2
  %mean.i = getelementptr inbounds %"struct.absl::random_internal::DistributionMoments", ptr %m.i, i64 0, i32 1
  %message_.i.i.i63 = getelementptr inbounds %"class.testing::AssertionResult", ptr %gtest_ar.i5, i64 0, i32 1
  %method_.i.i.i23 = getelementptr inbounds %"class.absl::beta_distribution<>::param_type", ptr %dis.i6, i64 0, i32 8
  %beta_.i.i.i.i24 = getelementptr inbounds %"class.absl::beta_distribution<>::param_type", ptr %dis.i6, i64 0, i32 1
  %x_.i.i.i.i26 = getelementptr inbounds %"class.absl::beta_distribution<>::param_type", ptr %dis.i6, i64 0, i32 4
  %y_.i163 = getelementptr inbounds %"class.absl::beta_distribution<>::param_type", ptr %dis.i6, i64 0, i32 6
  %a_.i164 = getelementptr inbounds %"class.absl::beta_distribution<>::param_type", ptr %dis.i6, i64 0, i32 2
  %b_.i165 = getelementptr inbounds %"class.absl::beta_distribution<>::param_type", ptr %dis.i6, i64 0, i32 3
  %gamma_.i166 = getelementptr inbounds %"class.absl::beta_distribution<>::param_type", ptr %dis.i6, i64 0, i32 7
  %log_x_.i168 = getelementptr inbounds %"class.absl::beta_distribution<>::param_type", ptr %dis.i6, i64 0, i32 5
  %inverted_.i225 = getelementptr inbounds %"class.absl::beta_distribution<>::param_type", ptr %dis.i6, i64 0, i32 9
  br label %for.body

for.body:                                         ; preds = %entry, %for.inc
  %i.0424 = phi i32 [ 0, %entry ], [ %inc7, %for.inc ]
  call void @llvm.lifetime.start.p0(i64 80, ptr nonnull %dis.i)
  call void @llvm.lifetime.start.p0(i64 8, ptr nonnull %variate.i)
  call void @llvm.lifetime.start.p0(i64 16, ptr nonnull %gtest_ar_.i)
  call void @llvm.lifetime.start.p0(i64 8, ptr nonnull %ref.tmp10.i)
  call void @llvm.lifetime.start.p0(i64 8, ptr nonnull %ref.tmp12.i)
  call void @llvm.lifetime.start.p0(i64 32, ptr nonnull %ref.tmp13.i)
  call void @llvm.lifetime.start.p0(i64 16, ptr nonnull %gtest_ar.i)
  call void @llvm.lifetime.start.p0(i64 8, ptr nonnull %ref.tmp23.i)
  call void @llvm.lifetime.start.p0(i64 8, ptr nonnull %ref.tmp30.i)
  call void @llvm.lifetime.start.p0(i64 8, ptr nonnull %ref.tmp32.i)
  call void @llvm.lifetime.start.p0(i64 16, ptr nonnull %gtest_ar43.i)
  call void @llvm.lifetime.start.p0(i64 8, ptr nonnull %ref.tmp44.i)
  call void @llvm.lifetime.start.p0(i64 8, ptr nonnull %ref.tmp51.i)
  call void @llvm.lifetime.start.p0(i64 8, ptr nonnull %ref.tmp53.i)
  call void @llvm.lifetime.start.p0(i64 40, ptr nonnull %m.i)
  call void @llvm.lifetime.start.p0(i64 16, ptr nonnull %ref.tmp105.i)
  %0 = load double, ptr %add.ptr.i, align 8
  %1 = load double, ptr %beta_.i, align 16
  call void @_ZN4absl17beta_distributionIdE10param_typeC2Edd(ptr noundef nonnull align 8 dereferenceable(69) %dis.i, double noundef %0, double noundef %1)
  %call5.i.i.i.i36.i = invoke noalias noundef nonnull dereferenceable(80000) ptr @_Znwm(i64 noundef 80000) #34
          to label %_ZNSt6vectorIdSaIdEE7reserveEm.exit.i unwind label %lpad.loopexit.split-lp.i.loopexit

_ZNSt6vectorIdSaIdEE7reserveEm.exit.i:            ; preds = %for.body
  %add.ptr21.i.i = getelementptr inbounds double, ptr %call5.i.i.i.i36.i, i64 10000
  br label %for.body.i

for.body.i:                                       ; preds = %for.inc.i, %_ZNSt6vectorIdSaIdEE7reserveEm.exit.i
  %i.0230.i = phi i64 [ 0, %_ZNSt6vectorIdSaIdEE7reserveEm.exit.i ], [ %inc.i, %for.inc.i ]
  %data.sroa.0.1229.i = phi ptr [ %call5.i.i.i.i36.i, %_ZNSt6vectorIdSaIdEE7reserveEm.exit.i ], [ %data.sroa.0.3.i, %for.inc.i ]
  %data.sroa.8.1228.i = phi ptr [ %call5.i.i.i.i36.i, %_ZNSt6vectorIdSaIdEE7reserveEm.exit.i ], [ %data.sroa.8.2.i, %for.inc.i ]
  %data.sroa.15.1227.i = phi ptr [ %add.ptr21.i.i, %_ZNSt6vectorIdSaIdEE7reserveEm.exit.i ], [ %data.sroa.15.2.i, %for.inc.i ]
  %2 = load i32, ptr %method_.i.i.i, align 8
  switch i32 %2, label %if.end.i.i.i.i [
    i32 0, label %for.cond.i128
    i32 1, label %sw.bb3.i.i.i
    i32 2, label %sw.bb3.i.i.i
    i32 3, label %land.lhs.true.i.i.i.i
  ]

for.cond.i128:                                    ; preds = %for.body.i, %for.cond.i128.backedge
  %agg.tmp.sroa.0.0.copyload.i.i.i.i.i129 = load i64, ptr %rng_.i, align 16
  %agg.tmp.sroa.2.0.copyload.i.i.i.i.i130 = load i64, ptr %agg.tmp.sroa.2.0.state_.sroa_idx.i.i.i.i.i.i.i.i, align 8
  %coerce.sroa.2.0.insert.ext.i.i.i.i.i.i.i131 = zext i64 %agg.tmp.sroa.2.0.copyload.i.i.i.i.i130 to i128
  %coerce.sroa.2.0.insert.shift.i.i.i.i.i.i.i132 = shl nuw i128 %coerce.sroa.2.0.insert.ext.i.i.i.i.i.i.i131, 64
  %coerce.sroa.0.0.insert.ext.i.i.i.i.i.i.i133 = zext i64 %agg.tmp.sroa.0.0.copyload.i.i.i.i.i129 to i128
  %coerce.sroa.0.0.insert.insert.i.i.i.i.i.i.i134 = or disjoint i128 %coerce.sroa.2.0.insert.shift.i.i.i.i.i.i.i132, %coerce.sroa.0.0.insert.ext.i.i.i.i.i.i.i133
  %mul.i.i.i.i.i.i.i135 = mul i128 %coerce.sroa.0.0.insert.insert.i.i.i.i.i.i.i134, 47026247687942121848144207491837523525
  %coerce.sroa.0.0.insert.insert.i6.i.i.i.i.i.i136 = add i128 %mul.i.i.i.i.i.i.i135, 1442695040888963407
  %coerce3.sroa.0.0.extract.trunc.i7.i.i.i.i.i.i137 = trunc i128 %coerce.sroa.0.0.insert.insert.i6.i.i.i.i.i.i136 to i64
  %3 = lshr i128 %coerce.sroa.0.0.insert.insert.i6.i.i.i.i.i.i136, 64
  %.tr.i.i.i.i.i.i.i138 = trunc i128 %3 to i64
  %.narrow.i.i.i.i.i.i.i139 = add i64 %.tr.i.i.i.i.i.i.i138, 6364136223846793005
  %shr.i.i.i.i.i.i.i140 = lshr i64 %.narrow.i.i.i.i.i.i.i139, 58
  %xor.i.i12.i.i.i.i.i.i141 = xor i64 %.narrow.i.i.i.i.i.i.i139, %coerce3.sroa.0.0.extract.trunc.i7.i.i.i.i.i.i137
  %or.i.i.i.i.i.i.i.i142 = call noundef i64 @llvm.fshr.i64(i64 %xor.i.i12.i.i.i.i.i.i141, i64 %xor.i.i12.i.i.i.i.i.i141, i64 %shr.i.i.i.i.i.i.i140)
  %4 = call i64 @llvm.ctlz.i64(i64 %or.i.i.i.i.i.i.i.i142, i1 false), !range !18
  %and.i.i143 = and i64 %4, 63
  %shl.i.i144 = shl i64 %or.i.i.i.i.i.i.i.i142, %and.i.i143
  %shr.i.i145 = lshr i64 %shl.i.i144, 11
  %and2.i.i146 = and i64 %shr.i.i145, 4503599627370495
  %5 = shl nuw nsw i64 %4, 52
  %reass.sub427 = sub nsw i64 %and2.i.i146, %5
  %or3.i.i148 = add nsw i64 %reass.sub427, 4602678819172646912
  %6 = bitcast i64 %or3.i.i148 to double
  %coerce.sroa.2.0.insert.ext.i.i.i.i.i.i26.i = zext i64 %.narrow.i.i.i.i.i.i.i139 to i128
  %coerce.sroa.2.0.insert.shift.i.i.i.i.i.i27.i = shl nuw i128 %coerce.sroa.2.0.insert.ext.i.i.i.i.i.i26.i, 64
  %coerce.sroa.0.0.insert.ext.i.i.i.i.i.i28.i = and i128 %coerce.sroa.0.0.insert.insert.i6.i.i.i.i.i.i136, 18446744073709551615
  %coerce.sroa.0.0.insert.insert.i.i.i.i.i.i29.i = or disjoint i128 %coerce.sroa.2.0.insert.shift.i.i.i.i.i.i27.i, %coerce.sroa.0.0.insert.ext.i.i.i.i.i.i28.i
  %mul.i.i.i.i.i.i30.i = mul i128 %coerce.sroa.0.0.insert.insert.i.i.i.i.i.i29.i, 47026247687942121848144207491837523525
  %coerce.sroa.0.0.insert.insert.i6.i.i.i.i.i31.i = add i128 %mul.i.i.i.i.i.i30.i, 1442695040888963407
  %coerce3.sroa.0.0.extract.trunc.i7.i.i.i.i.i32.i = trunc i128 %coerce.sroa.0.0.insert.insert.i6.i.i.i.i.i31.i to i64
  %7 = lshr i128 %coerce.sroa.0.0.insert.insert.i6.i.i.i.i.i31.i, 64
  %.tr.i.i.i.i.i.i33.i = trunc i128 %7 to i64
  %.narrow.i.i.i.i.i.i34.i = add i64 %.tr.i.i.i.i.i.i33.i, 6364136223846793005
  store i64 %coerce3.sroa.0.0.extract.trunc.i7.i.i.i.i.i32.i, ptr %rng_.i, align 16
  store i64 %.narrow.i.i.i.i.i.i34.i, ptr %agg.tmp.sroa.2.0.state_.sroa_idx.i.i.i.i.i.i.i.i, align 8
  %shr.i.i.i.i.i.i35.i = lshr i64 %.narrow.i.i.i.i.i.i34.i, 58
  %xor.i.i12.i.i.i.i.i36.i = xor i64 %.narrow.i.i.i.i.i.i34.i, %coerce3.sroa.0.0.extract.trunc.i7.i.i.i.i.i32.i
  %or.i.i.i.i.i.i.i37.i = call noundef i64 @llvm.fshr.i64(i64 %xor.i.i12.i.i.i.i.i36.i, i64 %xor.i.i12.i.i.i.i.i36.i, i64 %shr.i.i.i.i.i.i35.i)
  %8 = call i64 @llvm.ctlz.i64(i64 %or.i.i.i.i.i.i.i37.i, i1 false), !range !18
  %and.i39.i = and i64 %8, 63
  %shl.i40.i = shl i64 %or.i.i.i.i.i.i.i37.i, %and.i39.i
  %shr.i42.i = lshr i64 %shl.i40.i, 11
  %and2.i45.i = and i64 %shr.i42.i, 4503599627370495
  %9 = shl nuw nsw i64 %8, 52
  %reass.sub428 = sub nsw i64 %and2.i45.i, %9
  %or3.i46.i = add nsw i64 %reass.sub428, 4602678819172646912
  %10 = bitcast i64 %or3.i46.i to double
  %11 = load double, ptr %a_.i, align 8
  %call6.i149 = call double @pow(double noundef %6, double noundef %11) #31
  %12 = load double, ptr %b_.i, align 8
  %call7.i150 = call double @pow(double noundef %10, double noundef %12) #31
  %add.i151 = fadd double %call6.i149, %call7.i150
  %cmp.i152 = fcmp ogt double %add.i151, 1.000000e+00
  br i1 %cmp.i152, label %for.cond.i128.backedge, label %if.end.i153

if.end.i153:                                      ; preds = %for.cond.i128
  %cmp8.i = fcmp ogt double %add.i151, 0.000000e+00
  br i1 %cmp8.i, label %if.then9.i, label %if.end10.i

if.then9.i:                                       ; preds = %if.end.i153
  %div.i159 = fdiv double %call6.i149, %add.i151
  br label %invoke.cont3.i

if.end10.i:                                       ; preds = %if.end.i153
  %call11.i = call double @log(double noundef %6) #31
  %13 = load double, ptr %a_.i, align 8
  %mul.i154 = fmul double %call11.i, %13
  %call13.i = call double @log(double noundef %10) #31
  %14 = load double, ptr %b_.i, align 8
  %mul15.i155 = fmul double %call13.i, %14
  %15 = call double @llvm.fabs.f64(double %mul.i154)
  %16 = fcmp one double %15, 0x7FF0000000000000
  %17 = call double @llvm.fabs.f64(double %mul15.i155)
  %18 = fcmp one double %17, 0x7FF0000000000000
  %or.cond.i156 = select i1 %16, i1 %18, i1 false
  br i1 %or.cond.i156, label %if.end19.i, label %for.cond.i128.backedge

if.end19.i:                                       ; preds = %if.end10.i
  %cmp20.i = fcmp ogt double %mul.i154, %mul15.i155
  %sub25.i = fsub double %mul.i154, %mul15.i155
  %sub.i157 = fsub double %mul15.i155, %mul.i154
  %sub25.sink.i = select i1 %cmp20.i, double %sub.i157, double %sub25.i
  %mul15.sink.i = select i1 %cmp20.i, double %mul.i154, double %mul15.i155
  %call26.i = call double @exp(double noundef %sub25.sink.i) #31
  %add27.i158 = fadd double %call26.i, 1.000000e+00
  %call28.i = call double @log(double noundef %add27.i158) #31
  %add29.i = fadd double %mul15.sink.i, %call28.i
  %cmp30.i = fcmp ogt double %add29.i, 0.000000e+00
  br i1 %cmp30.i, label %for.cond.i128.backedge, label %if.end32.i

for.cond.i128.backedge:                           ; preds = %if.end19.i, %if.end10.i, %for.cond.i128
  br label %for.cond.i128, !llvm.loop !19

if.end32.i:                                       ; preds = %if.end19.i
  %sub33.i = fsub double %mul.i154, %add29.i
  %call34.i = call double @exp(double noundef %sub33.i) #31
  br label %invoke.cont3.i

sw.bb3.i.i.i:                                     ; preds = %for.body.i, %for.body.i
  %cmp.i = icmp eq i32 %2, 1
  br label %for.cond.i

for.cond.i:                                       ; preds = %if.end24.i, %sw.bb3.i.i.i
  %agg.tmp.sroa.0.0.copyload.i.i.i.i.i = load i64, ptr %rng_.i, align 16
  %agg.tmp.sroa.2.0.copyload.i.i.i.i.i = load i64, ptr %agg.tmp.sroa.2.0.state_.sroa_idx.i.i.i.i.i.i.i.i, align 8
  %coerce.sroa.2.0.insert.ext.i.i.i.i.i.i.i = zext i64 %agg.tmp.sroa.2.0.copyload.i.i.i.i.i to i128
  %coerce.sroa.2.0.insert.shift.i.i.i.i.i.i.i = shl nuw i128 %coerce.sroa.2.0.insert.ext.i.i.i.i.i.i.i, 64
  %coerce.sroa.0.0.insert.ext.i.i.i.i.i.i.i = zext i64 %agg.tmp.sroa.0.0.copyload.i.i.i.i.i to i128
  %coerce.sroa.0.0.insert.insert.i.i.i.i.i.i.i = or disjoint i128 %coerce.sroa.2.0.insert.shift.i.i.i.i.i.i.i, %coerce.sroa.0.0.insert.ext.i.i.i.i.i.i.i
  %mul.i.i.i.i.i.i.i117 = mul i128 %coerce.sroa.0.0.insert.insert.i.i.i.i.i.i.i, 47026247687942121848144207491837523525
  %coerce.sroa.0.0.insert.insert.i6.i.i.i.i.i.i = add i128 %mul.i.i.i.i.i.i.i117, 1442695040888963407
  %coerce3.sroa.0.0.extract.trunc.i7.i.i.i.i.i.i = trunc i128 %coerce.sroa.0.0.insert.insert.i6.i.i.i.i.i.i to i64
  %19 = lshr i128 %coerce.sroa.0.0.insert.insert.i6.i.i.i.i.i.i, 64
  %.tr.i.i.i.i.i.i.i = trunc i128 %19 to i64
  %.narrow.i.i.i.i.i.i.i = add i64 %.tr.i.i.i.i.i.i.i, 6364136223846793005
  %shr.i.i.i.i.i.i.i = lshr i64 %.narrow.i.i.i.i.i.i.i, 58
  %xor.i.i12.i.i.i.i.i.i = xor i64 %.narrow.i.i.i.i.i.i.i, %coerce3.sroa.0.0.extract.trunc.i7.i.i.i.i.i.i
  %or.i.i.i.i.i.i.i.i = call noundef i64 @llvm.fshr.i64(i64 %xor.i.i12.i.i.i.i.i.i, i64 %xor.i.i12.i.i.i.i.i.i, i64 %shr.i.i.i.i.i.i.i)
  %20 = call i64 @llvm.ctlz.i64(i64 %or.i.i.i.i.i.i.i.i, i1 false), !range !18
  %and.i.i = and i64 %20, 63
  %shl.i.i = shl i64 %or.i.i.i.i.i.i.i.i, %and.i.i
  %shr.i.i = lshr i64 %shl.i.i, 11
  %and2.i.i = and i64 %shr.i.i, 4503599627370495
  %21 = shl nuw nsw i64 %20, 52
  %reass.sub = sub nsw i64 %and2.i.i, %21
  %or3.i.i = add nsw i64 %reass.sub, 4602678819172646912
  %22 = bitcast i64 %or3.i.i to double
  %coerce.sroa.2.0.insert.ext.i.i.i.i.i.i27.i = zext i64 %.narrow.i.i.i.i.i.i.i to i128
  %coerce.sroa.2.0.insert.shift.i.i.i.i.i.i28.i = shl nuw i128 %coerce.sroa.2.0.insert.ext.i.i.i.i.i.i27.i, 64
  %coerce.sroa.0.0.insert.ext.i.i.i.i.i.i29.i = and i128 %coerce.sroa.0.0.insert.insert.i6.i.i.i.i.i.i, 18446744073709551615
  %coerce.sroa.0.0.insert.insert.i.i.i.i.i.i30.i = or disjoint i128 %coerce.sroa.2.0.insert.shift.i.i.i.i.i.i28.i, %coerce.sroa.0.0.insert.ext.i.i.i.i.i.i29.i
  %mul.i.i.i.i.i.i31.i = mul i128 %coerce.sroa.0.0.insert.insert.i.i.i.i.i.i30.i, 47026247687942121848144207491837523525
  %coerce.sroa.0.0.insert.insert.i6.i.i.i.i.i32.i = add i128 %mul.i.i.i.i.i.i31.i, 1442695040888963407
  %coerce3.sroa.0.0.extract.trunc.i7.i.i.i.i.i33.i = trunc i128 %coerce.sroa.0.0.insert.insert.i6.i.i.i.i.i32.i to i64
  %23 = lshr i128 %coerce.sroa.0.0.insert.insert.i6.i.i.i.i.i32.i, 64
  %.tr.i.i.i.i.i.i34.i = trunc i128 %23 to i64
  %.narrow.i.i.i.i.i.i35.i = add i64 %.tr.i.i.i.i.i.i34.i, 6364136223846793005
  store i64 %coerce3.sroa.0.0.extract.trunc.i7.i.i.i.i.i33.i, ptr %rng_.i, align 16
  store i64 %.narrow.i.i.i.i.i.i35.i, ptr %agg.tmp.sroa.2.0.state_.sroa_idx.i.i.i.i.i.i.i.i, align 8
  %shr.i.i.i.i.i.i36.i = lshr i64 %.narrow.i.i.i.i.i.i35.i, 58
  %xor.i.i12.i.i.i.i.i37.i = xor i64 %.narrow.i.i.i.i.i.i35.i, %coerce3.sroa.0.0.extract.trunc.i7.i.i.i.i.i33.i
  %or.i.i.i.i.i.i.i38.i = call noundef i64 @llvm.fshr.i64(i64 %xor.i.i12.i.i.i.i.i37.i, i64 %xor.i.i12.i.i.i.i.i37.i, i64 %shr.i.i.i.i.i.i36.i)
  %24 = call i64 @llvm.ctlz.i64(i64 %or.i.i.i.i.i.i.i38.i, i1 false), !range !18
  %and.i40.i = and i64 %24, 63
  %shl.i41.i = shl i64 %or.i.i.i.i.i.i.i38.i, %and.i40.i
  %shr.i43.i = lshr i64 %shl.i41.i, 11
  %and2.i46.i = and i64 %shr.i43.i, 4503599627370495
  %25 = shl nuw nsw i64 %24, 52
  %reass.sub426 = sub nsw i64 %and2.i46.i, %25
  %or3.i47.i = add nsw i64 %reass.sub426, 4602678819172646912
  %26 = bitcast i64 %or3.i47.i to double
  %27 = load double, ptr %y_.i, align 8
  %sub.i118 = fsub double 1.000000e+00, %22
  %div.i119 = fdiv double %22, %sub.i118
  %call6.i = call double @log(double noundef %div.i119) #31
  %mul.i120 = fmul double %27, %call6.i
  %28 = load double, ptr %a_.i, align 8
  %call7.i = call double @exp(double noundef %mul.i120) #31
  %mul8.i = fmul double %28, %call7.i
  %29 = load double, ptr %b_.i, align 8
  %add.i121 = fadd double %29, %mul8.i
  %div9.i = fdiv double 1.000000e+00, %add.i121
  %30 = load double, ptr %gamma_.i, align 8
  %31 = call double @llvm.fmuladd.f64(double %30, double %mul.i120, double 0xBFF62E42FEFA39EF)
  %32 = load double, ptr %a_.i, align 8
  %add12.i = fadd double %32, %31
  %sub13.i = fsub double %add12.i, %mul8.i
  %mul14.i = fmul double %22, %22
  %mul15.i = fmul double %mul14.i, %26
  br i1 %cmp.i, label %if.end.thread.i, label %land.lhs.true.i

if.end.thread.i:                                  ; preds = %for.cond.i
  %call1948.i = call double @log(double noundef %mul15.i) #31
  br label %if.end24.i

land.lhs.true.i:                                  ; preds = %for.cond.i
  %add16.i = fadd double %sub13.i, 0x4004E020FBF6C69A
  %mul17.i122 = fmul double %mul15.i, 5.000000e+00
  %cmp18.i = fcmp ult double %add16.i, %mul17.i122
  br i1 %cmp18.i, label %if.end.i124, label %_ZN4absl17beta_distributionIdE14AlgorithmChengINS_15random_internal17NonsecureURBGBaseINS3_10pcg_engineINS3_13pcg128_paramsILm2549297995355413924ELm4865540595714422341ELm6364136223846793005ELm1442695040888963407EEENS3_17pcg_xsl_rr_128_64EEENS3_17RandenPoolSeedSeqEEEEEdRT_RKNS1_10param_typeE.exit

if.end.i124:                                      ; preds = %land.lhs.true.i
  %call19.i = call double @log(double noundef %mul15.i) #31
  %cmp22.i = fcmp ult double %sub13.i, %call19.i
  br i1 %cmp22.i, label %if.end24.i, label %_ZN4absl17beta_distributionIdE14AlgorithmChengINS_15random_internal17NonsecureURBGBaseINS3_10pcg_engineINS3_13pcg128_paramsILm2549297995355413924ELm4865540595714422341ELm6364136223846793005ELm1442695040888963407EEENS3_17pcg_xsl_rr_128_64EEENS3_17RandenPoolSeedSeqEEEEEdRT_RKNS1_10param_typeE.exit

if.end24.i:                                       ; preds = %if.end.i124, %if.end.thread.i
  %call1951.i = phi double [ %call1948.i, %if.end.thread.i ], [ %call19.i, %if.end.i124 ]
  %33 = load double, ptr %x_.i.i.i.i, align 8
  %34 = load double, ptr %log_x_.i, align 8
  %call25.i = call double @log(double noundef %div9.i) #31
  %add26.i = fadd double %34, %call25.i
  %35 = call double @llvm.fmuladd.f64(double %33, double %add26.i, double %31)
  %cmp28.i = fcmp ult double %35, %call1951.i
  br i1 %cmp28.i, label %for.cond.i, label %_ZN4absl17beta_distributionIdE14AlgorithmChengINS_15random_internal17NonsecureURBGBaseINS3_10pcg_engineINS3_13pcg128_paramsILm2549297995355413924ELm4865540595714422341ELm6364136223846793005ELm1442695040888963407EEENS3_17pcg_xsl_rr_128_64EEENS3_17RandenPoolSeedSeqEEEEEdRT_RKNS1_10param_typeE.exit, !llvm.loop !20

_ZN4absl17beta_distributionIdE14AlgorithmChengINS_15random_internal17NonsecureURBGBaseINS3_10pcg_engineINS3_13pcg128_paramsILm2549297995355413924ELm4865540595714422341ELm6364136223846793005ELm1442695040888963407EEENS3_17pcg_xsl_rr_128_64EEENS3_17RandenPoolSeedSeqEEEEEdRT_RKNS1_10param_typeE.exit: ; preds = %land.lhs.true.i, %if.end.i124, %if.end24.i
  %36 = load i8, ptr %inverted_.i, align 4
  %37 = and i8 %36, 1
  %tobool31.not.i = icmp eq i8 %37, 0
  %neg.i = fneg double %mul8.i
  %38 = call double @llvm.fmuladd.f64(double %neg.i, double %div9.i, double 1.000000e+00)
  %mul33.i = fmul double %mul8.i, %div9.i
  %cond.i = select i1 %tobool31.not.i, double %mul33.i, double %38
  br label %invoke.cont3.i

land.lhs.true.i.i.i.i:                            ; preds = %for.body.i
  %39 = load double, ptr %dis.i, align 8
  %40 = load double, ptr %beta_.i.i.i.i, align 8
  %cmp2.i.i.i.i = fcmp oeq double %39, %40
  br i1 %cmp2.i.i.i.i, label %_ZN7testing15AssertionResultD2Ev.exit.thread.i, label %if.end.i.i.i.i

_ZN7testing15AssertionResultD2Ev.exit.thread.i:   ; preds = %land.lhs.true.i.i.i.i
  %agg.tmp.sroa.0.0.copyload.i.i.i.i.i.i.i.i = load i64, ptr %rng_.i, align 16
  %agg.tmp.sroa.2.0.copyload.i.i.i.i.i.i.i.i = load i64, ptr %agg.tmp.sroa.2.0.state_.sroa_idx.i.i.i.i.i.i.i.i, align 8
  %coerce.sroa.2.0.insert.ext.i.i.i.i.i.i.i.i.i.i = zext i64 %agg.tmp.sroa.2.0.copyload.i.i.i.i.i.i.i.i to i128
  %coerce.sroa.2.0.insert.shift.i.i.i.i.i.i.i.i.i.i = shl nuw i128 %coerce.sroa.2.0.insert.ext.i.i.i.i.i.i.i.i.i.i, 64
  %coerce.sroa.0.0.insert.ext.i.i.i.i.i.i.i.i.i.i = zext i64 %agg.tmp.sroa.0.0.copyload.i.i.i.i.i.i.i.i to i128
  %coerce.sroa.0.0.insert.insert.i.i.i.i.i.i.i.i.i.i = or disjoint i128 %coerce.sroa.2.0.insert.shift.i.i.i.i.i.i.i.i.i.i, %coerce.sroa.0.0.insert.ext.i.i.i.i.i.i.i.i.i.i
  %mul.i.i.i.i.i.i.i.i.i.i = mul i128 %coerce.sroa.0.0.insert.insert.i.i.i.i.i.i.i.i.i.i, 47026247687942121848144207491837523525
  %coerce.sroa.0.0.insert.insert.i6.i.i.i.i.i.i.i.i.i = add i128 %mul.i.i.i.i.i.i.i.i.i.i, 1442695040888963407
  %coerce3.sroa.0.0.extract.trunc.i7.i.i.i.i.i.i.i.i.i = trunc i128 %coerce.sroa.0.0.insert.insert.i6.i.i.i.i.i.i.i.i.i to i64
  %41 = lshr i128 %coerce.sroa.0.0.insert.insert.i6.i.i.i.i.i.i.i.i.i, 64
  %.tr.i.i.i.i.i.i.i.i.i.i = trunc i128 %41 to i64
  %.narrow.i.i.i.i.i.i.i.i.i.i = add i64 %.tr.i.i.i.i.i.i.i.i.i.i, 6364136223846793005
  store i64 %coerce3.sroa.0.0.extract.trunc.i7.i.i.i.i.i.i.i.i.i, ptr %rng_.i, align 16
  store i64 %.narrow.i.i.i.i.i.i.i.i.i.i, ptr %agg.tmp.sroa.2.0.state_.sroa_idx.i.i.i.i.i.i.i.i, align 8
  %shr.i.i.i.i.i.i.i.i.i.i = lshr i64 %.narrow.i.i.i.i.i.i.i.i.i.i, 58
  %xor.i.i12.i.i.i.i.i.i.i.i.i = xor i64 %.narrow.i.i.i.i.i.i.i.i.i.i, %coerce3.sroa.0.0.extract.trunc.i7.i.i.i.i.i.i.i.i.i
  %or.i.i.i.i.i.i.i.i.i.i.i = call noundef i64 @llvm.fshr.i64(i64 %xor.i.i12.i.i.i.i.i.i.i.i.i, i64 %xor.i.i12.i.i.i.i.i.i.i.i.i, i64 %shr.i.i.i.i.i.i.i.i.i.i)
  %42 = and i64 %or.i.i.i.i.i.i.i.i.i.i.i, 16
  %cmp3.i.i.i.i = icmp ne i64 %42, 0
  %conv4.i.i.i.i = uitofp i1 %cmp3.i.i.i.i to double
  store double %conv4.i.i.i.i, ptr %variate.i, align 8
  store i8 1, ptr %gtest_ar_.i, align 8
  store ptr null, ptr %message_.i.i, align 8
  store double 0.000000e+00, ptr %ref.tmp23.i, align 8
  br label %if.then.i.i

if.end.i.i.i.i:                                   ; preds = %land.lhs.true.i.i.i.i, %for.body.i
  %43 = load double, ptr %x_.i.i.i.i, align 8
  br label %invoke.cont3.i

invoke.cont3.i:                                   ; preds = %if.end32.i, %if.then9.i, %_ZN4absl17beta_distributionIdE14AlgorithmChengINS_15random_internal17NonsecureURBGBaseINS3_10pcg_engineINS3_13pcg128_paramsILm2549297995355413924ELm4865540595714422341ELm6364136223846793005ELm1442695040888963407EEENS3_17pcg_xsl_rr_128_64EEENS3_17RandenPoolSeedSeqEEEEEdRT_RKNS1_10param_typeE.exit, %if.end.i.i.i.i
  %retval.0.i.i.i = phi double [ %43, %if.end.i.i.i.i ], [ %cond.i, %_ZN4absl17beta_distributionIdE14AlgorithmChengINS_15random_internal17NonsecureURBGBaseINS3_10pcg_engineINS3_13pcg128_paramsILm2549297995355413924ELm4865540595714422341ELm6364136223846793005ELm1442695040888963407EEENS3_17pcg_xsl_rr_128_64EEENS3_17RandenPoolSeedSeqEEEEEdRT_RKNS1_10param_typeE.exit ], [ %div.i159, %if.then9.i ], [ %call34.i, %if.end32.i ]
  store double %retval.0.i.i.i, ptr %variate.i, align 8
  %44 = fcmp ord double %retval.0.i.i.i, 0.000000e+00
  %frombool.i = zext i1 %44 to i8
  store i8 %frombool.i, ptr %gtest_ar_.i, align 8
  store ptr null, ptr %message_.i.i, align 8
  br i1 %44, label %_ZN7testing15AssertionResultD2Ev.exit.i, label %if.else.i

lpad.loopexit.i:                                  ; preds = %_ZNSt16allocator_traitsISaIdEE8allocateERS0_m.exit.i.i.i.i, %if.else.i64.i, %if.then.i63.i, %if.else.i.i, %if.then.i.i
  %lpad.loopexit194.i = landingpad { ptr, i32 }
          cleanup
  br label %ehcleanup176.i

lpad.loopexit.split-lp.i.loopexit:                ; preds = %for.body, %for.end.i, %invoke.cont65.i, %invoke.cont89.i, %invoke.cont94.i, %land.rhs.i, %if.then103.i
  %data.sroa.0.2.ph.i.ph = phi ptr [ %data.sroa.0.3.i, %if.then103.i ], [ %data.sroa.0.3.i, %land.rhs.i ], [ %data.sroa.0.3.i, %invoke.cont94.i ], [ %data.sroa.0.3.i, %invoke.cont89.i ], [ %data.sroa.0.3.i, %invoke.cont65.i ], [ %data.sroa.0.3.i, %for.end.i ], [ null, %for.body ]
  %lpad.loopexit = landingpad { ptr, i32 }
          cleanup
  br label %ehcleanup176.i

lpad.loopexit.split-lp.i.loopexit.split-lp:       ; preds = %if.then.i.i.i90.i
  %lpad.loopexit.split-lp = landingpad { ptr, i32 }
          cleanup
  br label %ehcleanup176.i

lpad7.i:                                          ; preds = %if.else.i
  %45 = landingpad { ptr, i32 }
          cleanup
  br label %ehcleanup22.i

if.else.i:                                        ; preds = %invoke.cont3.i
  invoke void @_ZN7testing7MessageC1Ev(ptr noundef nonnull align 8 dereferenceable(8) %ref.tmp10.i)
          to label %invoke.cont11.i unwind label %lpad7.i

invoke.cont11.i:                                  ; preds = %if.else.i
  invoke void @_ZN7testing8internal30GetBoolAssertionFailureMessageB5cxx11ERKNS_15AssertionResultEPKcS5_S5_(ptr nonnull sret(%"class.std::__cxx11::basic_string") align 8 %ref.tmp13.i, ptr noundef nonnull align 8 dereferenceable(16) %gtest_ar_.i, ptr noundef nonnull @.str.25, ptr noundef nonnull @.str.26, ptr noundef nonnull @.str.27)
          to label %invoke.cont15.i unwind label %lpad14.i

invoke.cont15.i:                                  ; preds = %invoke.cont11.i
  %call16.i = call noundef ptr @_ZNKSt7__cxx1112basic_stringIcSt11char_traitsIcESaIcEE5c_strEv(ptr noundef nonnull align 8 dereferenceable(32) %ref.tmp13.i) #31
  invoke void @_ZN7testing8internal12AssertHelperC1ENS_14TestPartResult4TypeEPKciS5_(ptr noundef nonnull align 8 dereferenceable(8) %ref.tmp12.i, i32 noundef 1, ptr noundef nonnull @.str.2, i32 noundef 303, ptr noundef %call16.i)
          to label %invoke.cont18.i unwind label %lpad17.i

invoke.cont18.i:                                  ; preds = %invoke.cont15.i
  invoke void @_ZNK7testing8internal12AssertHelperaSERKNS_7MessageE(ptr noundef nonnull align 8 dereferenceable(8) %ref.tmp12.i, ptr noundef nonnull align 8 dereferenceable(8) %ref.tmp10.i)
          to label %invoke.cont20.i unwind label %lpad19.i

invoke.cont20.i:                                  ; preds = %invoke.cont18.i
  call void @_ZN7testing8internal12AssertHelperD1Ev(ptr noundef nonnull align 8 dereferenceable(8) %ref.tmp12.i) #31
  call void @_ZNSt7__cxx1112basic_stringIcSt11char_traitsIcESaIcEED1Ev(ptr noundef nonnull align 8 dereferenceable(32) %ref.tmp13.i) #31
  %46 = load ptr, ptr %ref.tmp10.i, align 8
  %cmp.not.i.i.i = icmp eq ptr %46, null
  br i1 %cmp.not.i.i.i, label %if.end.i, label %_ZNKSt14default_deleteINSt7__cxx1118basic_stringstreamIcSt11char_traitsIcESaIcEEEEclEPS5_.exit.i.i.i

_ZNKSt14default_deleteINSt7__cxx1118basic_stringstreamIcSt11char_traitsIcESaIcEEEEclEPS5_.exit.i.i.i: ; preds = %invoke.cont20.i
  %vtable.i.i.i.i = load ptr, ptr %46, align 8
  %vfn.i.i.i.i = getelementptr inbounds ptr, ptr %vtable.i.i.i.i, i64 1
  %47 = load ptr, ptr %vfn.i.i.i.i, align 8
  call void %47(ptr noundef nonnull align 8 dereferenceable(128) %46) #31
  br label %if.end.i

lpad14.i:                                         ; preds = %invoke.cont11.i
  %48 = landingpad { ptr, i32 }
          cleanup
  br label %ehcleanup21.i

lpad17.i:                                         ; preds = %invoke.cont15.i
  %49 = landingpad { ptr, i32 }
          cleanup
  br label %ehcleanup.i

lpad19.i:                                         ; preds = %invoke.cont18.i
  %50 = landingpad { ptr, i32 }
          cleanup
  call void @_ZN7testing8internal12AssertHelperD1Ev(ptr noundef nonnull align 8 dereferenceable(8) %ref.tmp12.i) #31
  br label %ehcleanup.i

ehcleanup.i:                                      ; preds = %lpad19.i, %lpad17.i
  %.pn.i = phi { ptr, i32 } [ %50, %lpad19.i ], [ %49, %lpad17.i ]
  call void @_ZNSt7__cxx1112basic_stringIcSt11char_traitsIcESaIcEED1Ev(ptr noundef nonnull align 8 dereferenceable(32) %ref.tmp13.i) #31
  br label %ehcleanup21.i

ehcleanup21.i:                                    ; preds = %ehcleanup.i, %lpad14.i
  %.pn.pn.i = phi { ptr, i32 } [ %.pn.i, %ehcleanup.i ], [ %48, %lpad14.i ]
  %51 = load ptr, ptr %ref.tmp10.i, align 8
  %cmp.not.i.i39.i = icmp eq ptr %51, null
  br i1 %cmp.not.i.i39.i, label %_ZN7testing7MessageD2Ev.exit43.i, label %_ZNKSt14default_deleteINSt7__cxx1118basic_stringstreamIcSt11char_traitsIcESaIcEEEEclEPS5_.exit.i.i40.i

_ZNKSt14default_deleteINSt7__cxx1118basic_stringstreamIcSt11char_traitsIcESaIcEEEEclEPS5_.exit.i.i40.i: ; preds = %ehcleanup21.i
  %vtable.i.i.i41.i = load ptr, ptr %51, align 8
  %vfn.i.i.i42.i = getelementptr inbounds ptr, ptr %vtable.i.i.i41.i, i64 1
  %52 = load ptr, ptr %vfn.i.i.i42.i, align 8
  call void %52(ptr noundef nonnull align 8 dereferenceable(128) %51) #31
  br label %_ZN7testing7MessageD2Ev.exit43.i

_ZN7testing7MessageD2Ev.exit43.i:                 ; preds = %_ZNKSt14default_deleteINSt7__cxx1118basic_stringstreamIcSt11char_traitsIcESaIcEEEEclEPS5_.exit.i.i40.i, %ehcleanup21.i
  store ptr null, ptr %ref.tmp10.i, align 8
  br label %ehcleanup22.i

if.end.i:                                         ; preds = %_ZNKSt14default_deleteINSt7__cxx1118basic_stringstreamIcSt11char_traitsIcESaIcEEEEclEPS5_.exit.i.i.i, %invoke.cont20.i
  store ptr null, ptr %ref.tmp10.i, align 8
  %.pr.i = load ptr, ptr %message_.i.i, align 8
  %cmp.not.i.i45.i = icmp eq ptr %.pr.i, null
  br i1 %cmp.not.i.i45.i, label %_ZN7testing15AssertionResultD2Ev.exitthread-pre-split.i, label %_ZNKSt14default_deleteINSt7__cxx1112basic_stringIcSt11char_traitsIcESaIcEEEEclEPS5_.exit.i.i.i

_ZNKSt14default_deleteINSt7__cxx1112basic_stringIcSt11char_traitsIcESaIcEEEEclEPS5_.exit.i.i.i: ; preds = %if.end.i
  call void @_ZNSt7__cxx1112basic_stringIcSt11char_traitsIcESaIcEED1Ev(ptr noundef nonnull align 8 dereferenceable(32) %.pr.i) #31
  call void @_ZdlPv(ptr noundef nonnull %.pr.i) #32
  br label %_ZN7testing15AssertionResultD2Ev.exitthread-pre-split.i

_ZN7testing15AssertionResultD2Ev.exitthread-pre-split.i: ; preds = %_ZNKSt14default_deleteINSt7__cxx1112basic_stringIcSt11char_traitsIcESaIcEEEEclEPS5_.exit.i.i.i, %if.end.i
  %.pr252.i = load double, ptr %variate.i, align 8, !noalias !21
  br label %_ZN7testing15AssertionResultD2Ev.exit.i

_ZN7testing15AssertionResultD2Ev.exit.i:          ; preds = %_ZN7testing15AssertionResultD2Ev.exitthread-pre-split.i, %invoke.cont3.i
  %53 = phi double [ %.pr252.i, %_ZN7testing15AssertionResultD2Ev.exitthread-pre-split.i ], [ %retval.0.i.i.i, %invoke.cont3.i ]
  store ptr null, ptr %message_.i.i, align 8
  store double 0.000000e+00, ptr %ref.tmp23.i, align 8
  %cmp.i.i = fcmp ult double %53, 0.000000e+00
  br i1 %cmp.i.i, label %if.else.i.i, label %if.then.i.i

if.then.i.i:                                      ; preds = %_ZN7testing15AssertionResultD2Ev.exit.i, %_ZN7testing15AssertionResultD2Ev.exit.thread.i
  invoke void @_ZN7testing16AssertionSuccessEv(ptr nonnull sret(%"class.testing::AssertionResult") align 8 %gtest_ar.i)
          to label %invoke.cont24.i unwind label %lpad.loopexit.i

if.else.i.i:                                      ; preds = %_ZN7testing15AssertionResultD2Ev.exit.i
  invoke void @_ZN7testing8internal18CmpHelperOpFailureIddEENS_15AssertionResultEPKcS4_RKT_RKT0_S4_(ptr nonnull sret(%"class.testing::AssertionResult") align 8 %gtest_ar.i, ptr noundef nonnull @.str.28, ptr noundef nonnull @.str.29, ptr noundef nonnull align 8 dereferenceable(8) %variate.i, ptr noundef nonnull align 8 dereferenceable(8) %ref.tmp23.i, ptr noundef nonnull @.str.41)
          to label %invoke.cont24.i unwind label %lpad.loopexit.i

invoke.cont24.i:                                  ; preds = %if.else.i.i, %if.then.i.i
  %54 = load i8, ptr %gtest_ar.i, align 8
  %55 = and i8 %54, 1
  %tobool.i47.not.i = icmp eq i8 %55, 0
  br i1 %tobool.i47.not.i, label %if.else29.i, label %if.end41.i

ehcleanup22.i:                                    ; preds = %_ZN7testing7MessageD2Ev.exit43.i, %lpad7.i
  %.pn.pn.pn.i = phi { ptr, i32 } [ %.pn.pn.i, %_ZN7testing7MessageD2Ev.exit43.i ], [ %45, %lpad7.i ]
  call void @_ZN7testing15AssertionResultD2Ev(ptr noundef nonnull align 8 dereferenceable(16) %gtest_ar_.i) #31
  br label %ehcleanup176.i

lpad25.i:                                         ; preds = %if.else29.i
  %56 = landingpad { ptr, i32 }
          cleanup
  br label %ehcleanup42.i

if.else29.i:                                      ; preds = %invoke.cont24.i
  invoke void @_ZN7testing7MessageC1Ev(ptr noundef nonnull align 8 dereferenceable(8) %ref.tmp30.i)
          to label %invoke.cont31.i unwind label %lpad25.i

invoke.cont31.i:                                  ; preds = %if.else29.i
  %57 = load ptr, ptr %message_.i.i.i, align 8
  %cmp.i.i.not.i.i.i = icmp eq ptr %57, null
  br i1 %cmp.i.i.not.i.i.i, label %invoke.cont34.i, label %cond.true.i.i.i

cond.true.i.i.i:                                  ; preds = %invoke.cont31.i
  %call4.i.i.i = call noundef ptr @_ZNKSt7__cxx1112basic_stringIcSt11char_traitsIcESaIcEE5c_strEv(ptr noundef nonnull align 8 dereferenceable(32) %57) #31
  br label %invoke.cont34.i

invoke.cont34.i:                                  ; preds = %cond.true.i.i.i, %invoke.cont31.i
  %cond.i.i.i = phi ptr [ %call4.i.i.i, %cond.true.i.i.i ], [ @.str, %invoke.cont31.i ]
  invoke void @_ZN7testing8internal12AssertHelperC1ENS_14TestPartResult4TypeEPKciS5_(ptr noundef nonnull align 8 dereferenceable(8) %ref.tmp32.i, i32 noundef 1, ptr noundef nonnull @.str.2, i32 noundef 305, ptr noundef %cond.i.i.i)
          to label %invoke.cont36.i unwind label %lpad33.i

invoke.cont36.i:                                  ; preds = %invoke.cont34.i
  invoke void @_ZNK7testing8internal12AssertHelperaSERKNS_7MessageE(ptr noundef nonnull align 8 dereferenceable(8) %ref.tmp32.i, ptr noundef nonnull align 8 dereferenceable(8) %ref.tmp30.i)
          to label %invoke.cont38.i unwind label %lpad37.i

invoke.cont38.i:                                  ; preds = %invoke.cont36.i
  call void @_ZN7testing8internal12AssertHelperD1Ev(ptr noundef nonnull align 8 dereferenceable(8) %ref.tmp32.i) #31
  %58 = load ptr, ptr %ref.tmp30.i, align 8
  %cmp.not.i.i48.i = icmp eq ptr %58, null
  br i1 %cmp.not.i.i48.i, label %_ZN7testing7MessageD2Ev.exit52.i, label %_ZNKSt14default_deleteINSt7__cxx1118basic_stringstreamIcSt11char_traitsIcESaIcEEEEclEPS5_.exit.i.i49.i

_ZNKSt14default_deleteINSt7__cxx1118basic_stringstreamIcSt11char_traitsIcESaIcEEEEclEPS5_.exit.i.i49.i: ; preds = %invoke.cont38.i
  %vtable.i.i.i50.i = load ptr, ptr %58, align 8
  %vfn.i.i.i51.i = getelementptr inbounds ptr, ptr %vtable.i.i.i50.i, i64 1
  %59 = load ptr, ptr %vfn.i.i.i51.i, align 8
  call void %59(ptr noundef nonnull align 8 dereferenceable(128) %58) #31
  br label %_ZN7testing7MessageD2Ev.exit52.i

_ZN7testing7MessageD2Ev.exit52.i:                 ; preds = %_ZNKSt14default_deleteINSt7__cxx1118basic_stringstreamIcSt11char_traitsIcESaIcEEEEclEPS5_.exit.i.i49.i, %invoke.cont38.i
  store ptr null, ptr %ref.tmp30.i, align 8
  br label %if.end41.i

lpad33.i:                                         ; preds = %invoke.cont34.i
  %60 = landingpad { ptr, i32 }
          cleanup
  br label %ehcleanup40.i

lpad37.i:                                         ; preds = %invoke.cont36.i
  %61 = landingpad { ptr, i32 }
          cleanup
  call void @_ZN7testing8internal12AssertHelperD1Ev(ptr noundef nonnull align 8 dereferenceable(8) %ref.tmp32.i) #31
  br label %ehcleanup40.i

ehcleanup40.i:                                    ; preds = %lpad37.i, %lpad33.i
  %.pn9.i = phi { ptr, i32 } [ %61, %lpad37.i ], [ %60, %lpad33.i ]
  %62 = load ptr, ptr %ref.tmp30.i, align 8
  %cmp.not.i.i53.i = icmp eq ptr %62, null
  br i1 %cmp.not.i.i53.i, label %_ZN7testing7MessageD2Ev.exit57.i, label %_ZNKSt14default_deleteINSt7__cxx1118basic_stringstreamIcSt11char_traitsIcESaIcEEEEclEPS5_.exit.i.i54.i

_ZNKSt14default_deleteINSt7__cxx1118basic_stringstreamIcSt11char_traitsIcESaIcEEEEclEPS5_.exit.i.i54.i: ; preds = %ehcleanup40.i
  %vtable.i.i.i55.i = load ptr, ptr %62, align 8
  %vfn.i.i.i56.i = getelementptr inbounds ptr, ptr %vtable.i.i.i55.i, i64 1
  %63 = load ptr, ptr %vfn.i.i.i56.i, align 8
  call void %63(ptr noundef nonnull align 8 dereferenceable(128) %62) #31
  br label %_ZN7testing7MessageD2Ev.exit57.i

_ZN7testing7MessageD2Ev.exit57.i:                 ; preds = %_ZNKSt14default_deleteINSt7__cxx1118basic_stringstreamIcSt11char_traitsIcESaIcEEEEclEPS5_.exit.i.i54.i, %ehcleanup40.i
  store ptr null, ptr %ref.tmp30.i, align 8
  br label %ehcleanup42.i

if.end41.i:                                       ; preds = %_ZN7testing7MessageD2Ev.exit52.i, %invoke.cont24.i
  %64 = load ptr, ptr %message_.i.i.i, align 8
  %cmp.not.i.i59.i = icmp eq ptr %64, null
  br i1 %cmp.not.i.i59.i, label %_ZN7testing15AssertionResultD2Ev.exit61.i, label %_ZNKSt14default_deleteINSt7__cxx1112basic_stringIcSt11char_traitsIcESaIcEEEEclEPS5_.exit.i.i60.i

_ZNKSt14default_deleteINSt7__cxx1112basic_stringIcSt11char_traitsIcESaIcEEEEclEPS5_.exit.i.i60.i: ; preds = %if.end41.i
  call void @_ZNSt7__cxx1112basic_stringIcSt11char_traitsIcESaIcEED1Ev(ptr noundef nonnull align 8 dereferenceable(32) %64) #31
  call void @_ZdlPv(ptr noundef nonnull %64) #32
  br label %_ZN7testing15AssertionResultD2Ev.exit61.i

_ZN7testing15AssertionResultD2Ev.exit61.i:        ; preds = %_ZNKSt14default_deleteINSt7__cxx1112basic_stringIcSt11char_traitsIcESaIcEEEEclEPS5_.exit.i.i60.i, %if.end41.i
  store ptr null, ptr %message_.i.i.i, align 8
  store double 1.000000e+00, ptr %ref.tmp44.i, align 8
  %65 = load double, ptr %variate.i, align 8, !noalias !24
  %cmp.i62.i = fcmp ugt double %65, 1.000000e+00
  br i1 %cmp.i62.i, label %if.else.i64.i, label %if.then.i63.i

if.then.i63.i:                                    ; preds = %_ZN7testing15AssertionResultD2Ev.exit61.i
  invoke void @_ZN7testing16AssertionSuccessEv(ptr nonnull sret(%"class.testing::AssertionResult") align 8 %gtest_ar43.i)
          to label %invoke.cont45.i unwind label %lpad.loopexit.i

if.else.i64.i:                                    ; preds = %_ZN7testing15AssertionResultD2Ev.exit61.i
  invoke void @_ZN7testing8internal18CmpHelperOpFailureIddEENS_15AssertionResultEPKcS4_RKT_RKT0_S4_(ptr nonnull sret(%"class.testing::AssertionResult") align 8 %gtest_ar43.i, ptr noundef nonnull @.str.28, ptr noundef nonnull @.str.30, ptr noundef nonnull align 8 dereferenceable(8) %variate.i, ptr noundef nonnull align 8 dereferenceable(8) %ref.tmp44.i, ptr noundef nonnull @.str.48)
          to label %invoke.cont45.i unwind label %lpad.loopexit.i

invoke.cont45.i:                                  ; preds = %if.else.i64.i, %if.then.i63.i
  %66 = load i8, ptr %gtest_ar43.i, align 8
  %67 = and i8 %66, 1
  %tobool.i67.not.i = icmp eq i8 %67, 0
  br i1 %tobool.i67.not.i, label %if.else50.i, label %if.end62.i

ehcleanup42.i:                                    ; preds = %_ZN7testing7MessageD2Ev.exit57.i, %lpad25.i
  %.pn9.pn.i = phi { ptr, i32 } [ %.pn9.i, %_ZN7testing7MessageD2Ev.exit57.i ], [ %56, %lpad25.i ]
  call void @_ZN7testing15AssertionResultD2Ev(ptr noundef nonnull align 8 dereferenceable(16) %gtest_ar.i) #31
  br label %ehcleanup176.i

lpad46.i:                                         ; preds = %if.else50.i
  %68 = landingpad { ptr, i32 }
          cleanup
  br label %ehcleanup63.i

if.else50.i:                                      ; preds = %invoke.cont45.i
  invoke void @_ZN7testing7MessageC1Ev(ptr noundef nonnull align 8 dereferenceable(8) %ref.tmp51.i)
          to label %invoke.cont52.i unwind label %lpad46.i

invoke.cont52.i:                                  ; preds = %if.else50.i
  %69 = load ptr, ptr %message_.i.i68.i, align 8
  %cmp.i.i.not.i.i69.i = icmp eq ptr %69, null
  br i1 %cmp.i.i.not.i.i69.i, label %invoke.cont55.i, label %cond.true.i.i70.i

cond.true.i.i70.i:                                ; preds = %invoke.cont52.i
  %call4.i.i71.i = call noundef ptr @_ZNKSt7__cxx1112basic_stringIcSt11char_traitsIcESaIcEE5c_strEv(ptr noundef nonnull align 8 dereferenceable(32) %69) #31
  br label %invoke.cont55.i

invoke.cont55.i:                                  ; preds = %cond.true.i.i70.i, %invoke.cont52.i
  %cond.i.i72.i = phi ptr [ %call4.i.i71.i, %cond.true.i.i70.i ], [ @.str, %invoke.cont52.i ]
  invoke void @_ZN7testing8internal12AssertHelperC1ENS_14TestPartResult4TypeEPKciS5_(ptr noundef nonnull align 8 dereferenceable(8) %ref.tmp53.i, i32 noundef 1, ptr noundef nonnull @.str.2, i32 noundef 306, ptr noundef %cond.i.i72.i)
          to label %invoke.cont57.i unwind label %lpad54.i

invoke.cont57.i:                                  ; preds = %invoke.cont55.i
  invoke void @_ZNK7testing8internal12AssertHelperaSERKNS_7MessageE(ptr noundef nonnull align 8 dereferenceable(8) %ref.tmp53.i, ptr noundef nonnull align 8 dereferenceable(8) %ref.tmp51.i)
          to label %invoke.cont59.i unwind label %lpad58.i

invoke.cont59.i:                                  ; preds = %invoke.cont57.i
  call void @_ZN7testing8internal12AssertHelperD1Ev(ptr noundef nonnull align 8 dereferenceable(8) %ref.tmp53.i) #31
  %70 = load ptr, ptr %ref.tmp51.i, align 8
  %cmp.not.i.i74.i = icmp eq ptr %70, null
  br i1 %cmp.not.i.i74.i, label %_ZN7testing7MessageD2Ev.exit78.i, label %_ZNKSt14default_deleteINSt7__cxx1118basic_stringstreamIcSt11char_traitsIcESaIcEEEEclEPS5_.exit.i.i75.i

_ZNKSt14default_deleteINSt7__cxx1118basic_stringstreamIcSt11char_traitsIcESaIcEEEEclEPS5_.exit.i.i75.i: ; preds = %invoke.cont59.i
  %vtable.i.i.i76.i = load ptr, ptr %70, align 8
  %vfn.i.i.i77.i = getelementptr inbounds ptr, ptr %vtable.i.i.i76.i, i64 1
  %71 = load ptr, ptr %vfn.i.i.i77.i, align 8
  call void %71(ptr noundef nonnull align 8 dereferenceable(128) %70) #31
  br label %_ZN7testing7MessageD2Ev.exit78.i

_ZN7testing7MessageD2Ev.exit78.i:                 ; preds = %_ZNKSt14default_deleteINSt7__cxx1118basic_stringstreamIcSt11char_traitsIcESaIcEEEEclEPS5_.exit.i.i75.i, %invoke.cont59.i
  store ptr null, ptr %ref.tmp51.i, align 8
  br label %if.end62.i

lpad54.i:                                         ; preds = %invoke.cont55.i
  %72 = landingpad { ptr, i32 }
          cleanup
  br label %ehcleanup61.i

lpad58.i:                                         ; preds = %invoke.cont57.i
  %73 = landingpad { ptr, i32 }
          cleanup
  call void @_ZN7testing8internal12AssertHelperD1Ev(ptr noundef nonnull align 8 dereferenceable(8) %ref.tmp53.i) #31
  br label %ehcleanup61.i

ehcleanup61.i:                                    ; preds = %lpad58.i, %lpad54.i
  %.pn12.i = phi { ptr, i32 } [ %73, %lpad58.i ], [ %72, %lpad54.i ]
  %74 = load ptr, ptr %ref.tmp51.i, align 8
  %cmp.not.i.i79.i = icmp eq ptr %74, null
  br i1 %cmp.not.i.i79.i, label %_ZN7testing7MessageD2Ev.exit83.i, label %_ZNKSt14default_deleteINSt7__cxx1118basic_stringstreamIcSt11char_traitsIcESaIcEEEEclEPS5_.exit.i.i80.i

_ZNKSt14default_deleteINSt7__cxx1118basic_stringstreamIcSt11char_traitsIcESaIcEEEEclEPS5_.exit.i.i80.i: ; preds = %ehcleanup61.i
  %vtable.i.i.i81.i = load ptr, ptr %74, align 8
  %vfn.i.i.i82.i = getelementptr inbounds ptr, ptr %vtable.i.i.i81.i, i64 1
  %75 = load ptr, ptr %vfn.i.i.i82.i, align 8
  call void %75(ptr noundef nonnull align 8 dereferenceable(128) %74) #31
  br label %_ZN7testing7MessageD2Ev.exit83.i

_ZN7testing7MessageD2Ev.exit83.i:                 ; preds = %_ZNKSt14default_deleteINSt7__cxx1118basic_stringstreamIcSt11char_traitsIcESaIcEEEEclEPS5_.exit.i.i80.i, %ehcleanup61.i
  store ptr null, ptr %ref.tmp51.i, align 8
  br label %ehcleanup63.i

if.end62.i:                                       ; preds = %_ZN7testing7MessageD2Ev.exit78.i, %invoke.cont45.i
  %76 = load ptr, ptr %message_.i.i68.i, align 8
  %cmp.not.i.i85.i = icmp eq ptr %76, null
  br i1 %cmp.not.i.i85.i, label %_ZN7testing15AssertionResultD2Ev.exit87.i, label %_ZNKSt14default_deleteINSt7__cxx1112basic_stringIcSt11char_traitsIcESaIcEEEEclEPS5_.exit.i.i86.i

_ZNKSt14default_deleteINSt7__cxx1112basic_stringIcSt11char_traitsIcESaIcEEEEclEPS5_.exit.i.i86.i: ; preds = %if.end62.i
  call void @_ZNSt7__cxx1112basic_stringIcSt11char_traitsIcESaIcEED1Ev(ptr noundef nonnull align 8 dereferenceable(32) %76) #31
  call void @_ZdlPv(ptr noundef nonnull %76) #32
  br label %_ZN7testing15AssertionResultD2Ev.exit87.i

_ZN7testing15AssertionResultD2Ev.exit87.i:        ; preds = %_ZNKSt14default_deleteINSt7__cxx1112basic_stringIcSt11char_traitsIcESaIcEEEEclEPS5_.exit.i.i86.i, %if.end62.i
  store ptr null, ptr %message_.i.i68.i, align 8
  %cmp.not.i.i = icmp eq ptr %data.sroa.8.1228.i, %data.sroa.15.1227.i
  br i1 %cmp.not.i.i, label %if.else.i89.i, label %if.then.i88.i

if.then.i88.i:                                    ; preds = %_ZN7testing15AssertionResultD2Ev.exit87.i
  %77 = load double, ptr %variate.i, align 8
  store double %77, ptr %data.sroa.8.1228.i, align 8
  br label %for.inc.i

if.else.i89.i:                                    ; preds = %_ZN7testing15AssertionResultD2Ev.exit87.i
  %sub.ptr.lhs.cast.i.i.i.i.i = ptrtoint ptr %data.sroa.8.1228.i to i64
  %sub.ptr.rhs.cast.i.i.i.i.i = ptrtoint ptr %data.sroa.0.1229.i to i64
  %sub.ptr.sub.i.i.i.i.i = sub i64 %sub.ptr.lhs.cast.i.i.i.i.i, %sub.ptr.rhs.cast.i.i.i.i.i
  %cmp.i.i.i.i = icmp eq i64 %sub.ptr.sub.i.i.i.i.i, 9223372036854775800
  br i1 %cmp.i.i.i.i, label %if.then.i.i.i90.i, label %_ZNKSt6vectorIdSaIdEE12_M_check_lenEmPKc.exit.i.i.i

if.then.i.i.i90.i:                                ; preds = %if.else.i89.i
  invoke void @_ZSt20__throw_length_errorPKc(ptr noundef nonnull @.str.18) #33
          to label %.noexc91.i unwind label %lpad.loopexit.split-lp.i.loopexit.split-lp

.noexc91.i:                                       ; preds = %if.then.i.i.i90.i
  unreachable

_ZNKSt6vectorIdSaIdEE12_M_check_lenEmPKc.exit.i.i.i: ; preds = %if.else.i89.i
  %sub.ptr.div.i.i.i.i.i = ashr exact i64 %sub.ptr.sub.i.i.i.i.i, 3
  %.sroa.speculated.i.i.i.i = call i64 @llvm.umax.i64(i64 %sub.ptr.div.i.i.i.i.i, i64 1)
  %add.i.i.i.i = add i64 %.sroa.speculated.i.i.i.i, %sub.ptr.div.i.i.i.i.i
  %cmp7.i.i.i.i = icmp ult i64 %add.i.i.i.i, %sub.ptr.div.i.i.i.i.i
  %cmp9.i.i.i.i = icmp ugt i64 %add.i.i.i.i, 1152921504606846975
  %or.cond.i.i.i.i = or i1 %cmp7.i.i.i.i, %cmp9.i.i.i.i
  %cond.i.i.i.i = select i1 %or.cond.i.i.i.i, i64 1152921504606846975, i64 %add.i.i.i.i
  %cmp.not.i.i.i.i = icmp eq i64 %cond.i.i.i.i, 0
  br i1 %cmp.not.i.i.i.i, label %_ZNSt12_Vector_baseIdSaIdEE11_M_allocateEm.exit.i.i.i, label %_ZNSt16allocator_traitsISaIdEE8allocateERS0_m.exit.i.i.i.i

_ZNSt16allocator_traitsISaIdEE8allocateERS0_m.exit.i.i.i.i: ; preds = %_ZNKSt6vectorIdSaIdEE12_M_check_lenEmPKc.exit.i.i.i
  %mul.i.i.i.i.i.i = shl nuw nsw i64 %cond.i.i.i.i, 3
  %call5.i.i.i.i.i92.i = invoke noalias noundef nonnull ptr @_Znwm(i64 noundef %mul.i.i.i.i.i.i) #34
          to label %_ZNSt12_Vector_baseIdSaIdEE11_M_allocateEm.exit.i.i.i unwind label %lpad.loopexit.i

_ZNSt12_Vector_baseIdSaIdEE11_M_allocateEm.exit.i.i.i: ; preds = %_ZNSt16allocator_traitsISaIdEE8allocateERS0_m.exit.i.i.i.i, %_ZNKSt6vectorIdSaIdEE12_M_check_lenEmPKc.exit.i.i.i
  %cond.i10.i.i.i = phi ptr [ null, %_ZNKSt6vectorIdSaIdEE12_M_check_lenEmPKc.exit.i.i.i ], [ %call5.i.i.i.i.i92.i, %_ZNSt16allocator_traitsISaIdEE8allocateERS0_m.exit.i.i.i.i ]
  %add.ptr.i.i.i = getelementptr inbounds double, ptr %cond.i10.i.i.i, i64 %sub.ptr.div.i.i.i.i.i
  %78 = load double, ptr %variate.i, align 8
  store double %78, ptr %add.ptr.i.i.i, align 8
  %cmp.i.i.i11.i.i.i = icmp sgt i64 %sub.ptr.sub.i.i.i.i.i, 0
  br i1 %cmp.i.i.i11.i.i.i, label %if.then.i.i.i12.i.i.i, label %_ZNSt6vectorIdSaIdEE11_S_relocateEPdS2_S2_RS0_.exit19.i.i.i

if.then.i.i.i12.i.i.i:                            ; preds = %_ZNSt12_Vector_baseIdSaIdEE11_M_allocateEm.exit.i.i.i
  call void @llvm.memmove.p0.p0.i64(ptr nonnull align 8 %cond.i10.i.i.i, ptr align 8 %data.sroa.0.1229.i, i64 %sub.ptr.sub.i.i.i.i.i, i1 false)
  br label %_ZNSt6vectorIdSaIdEE11_S_relocateEPdS2_S2_RS0_.exit19.i.i.i

_ZNSt6vectorIdSaIdEE11_S_relocateEPdS2_S2_RS0_.exit19.i.i.i: ; preds = %if.then.i.i.i12.i.i.i, %_ZNSt12_Vector_baseIdSaIdEE11_M_allocateEm.exit.i.i.i
  %add.ptr.i.i.i.i.i.i = getelementptr inbounds i8, ptr %cond.i10.i.i.i, i64 %sub.ptr.sub.i.i.i.i.i
  %tobool.not.i.i.i.i = icmp eq ptr %data.sroa.0.1229.i, null
  br i1 %tobool.not.i.i.i.i, label %_ZNSt6vectorIdSaIdEE17_M_realloc_insertIJRKdEEEvN9__gnu_cxx17__normal_iteratorIPdS1_EEDpOT_.exit.i.i, label %if.then.i20.i.i.i

if.then.i20.i.i.i:                                ; preds = %_ZNSt6vectorIdSaIdEE11_S_relocateEPdS2_S2_RS0_.exit19.i.i.i
  call void @_ZdlPv(ptr noundef nonnull %data.sroa.0.1229.i) #32
  br label %_ZNSt6vectorIdSaIdEE17_M_realloc_insertIJRKdEEEvN9__gnu_cxx17__normal_iteratorIPdS1_EEDpOT_.exit.i.i

_ZNSt6vectorIdSaIdEE17_M_realloc_insertIJRKdEEEvN9__gnu_cxx17__normal_iteratorIPdS1_EEDpOT_.exit.i.i: ; preds = %if.then.i20.i.i.i, %_ZNSt6vectorIdSaIdEE11_S_relocateEPdS2_S2_RS0_.exit19.i.i.i
  %add.ptr19.i.i.i = getelementptr inbounds double, ptr %cond.i10.i.i.i, i64 %cond.i.i.i.i
  br label %for.inc.i

for.inc.i:                                        ; preds = %_ZNSt6vectorIdSaIdEE17_M_realloc_insertIJRKdEEEvN9__gnu_cxx17__normal_iteratorIPdS1_EEDpOT_.exit.i.i, %if.then.i88.i
  %data.sroa.15.2.i = phi ptr [ %add.ptr19.i.i.i, %_ZNSt6vectorIdSaIdEE17_M_realloc_insertIJRKdEEEvN9__gnu_cxx17__normal_iteratorIPdS1_EEDpOT_.exit.i.i ], [ %data.sroa.15.1227.i, %if.then.i88.i ]
  %add.ptr.i.i.i.i.i.pn.i = phi ptr [ %add.ptr.i.i.i.i.i.i, %_ZNSt6vectorIdSaIdEE17_M_realloc_insertIJRKdEEEvN9__gnu_cxx17__normal_iteratorIPdS1_EEDpOT_.exit.i.i ], [ %data.sroa.8.1228.i, %if.then.i88.i ]
  %data.sroa.0.3.i = phi ptr [ %cond.i10.i.i.i, %_ZNSt6vectorIdSaIdEE17_M_realloc_insertIJRKdEEEvN9__gnu_cxx17__normal_iteratorIPdS1_EEDpOT_.exit.i.i ], [ %data.sroa.0.1229.i, %if.then.i88.i ]
  %data.sroa.8.2.i = getelementptr inbounds double, ptr %add.ptr.i.i.i.i.i.pn.i, i64 1
  %inc.i = add nuw nsw i64 %i.0230.i, 1
  %exitcond.not.i = icmp eq i64 %inc.i, 10000
  br i1 %exitcond.not.i, label %for.end.i, label %for.body.i, !llvm.loop !27

ehcleanup63.i:                                    ; preds = %_ZN7testing7MessageD2Ev.exit83.i, %lpad46.i
  %.pn12.pn.i = phi { ptr, i32 } [ %.pn12.i, %_ZN7testing7MessageD2Ev.exit83.i ], [ %68, %lpad46.i ]
  call void @_ZN7testing15AssertionResultD2Ev(ptr noundef nonnull align 8 dereferenceable(16) %gtest_ar43.i) #31
  br label %ehcleanup176.i

for.end.i:                                        ; preds = %for.inc.i
  %sub.ptr.lhs.cast.i.i94.i = ptrtoint ptr %data.sroa.8.2.i to i64
  %sub.ptr.rhs.cast.i.i95.i = ptrtoint ptr %data.sroa.0.3.i to i64
  %sub.ptr.sub.i.i96.i = sub i64 %sub.ptr.lhs.cast.i.i94.i, %sub.ptr.rhs.cast.i.i95.i
  %sub.ptr.div.i.i97.i = ashr exact i64 %sub.ptr.sub.i.i96.i, 3
  invoke void @_ZN4absl15random_internal26ComputeDistributionMomentsENS_4SpanIKdEE(ptr nonnull sret(%"struct.absl::random_internal::DistributionMoments") align 8 %m.i, ptr %data.sroa.0.3.i, i64 %sub.ptr.div.i.i97.i)
          to label %invoke.cont65.i unwind label %lpad.loopexit.split-lp.i.loopexit

invoke.cont65.i:                                  ; preds = %for.end.i
  %add.ptr.val26.i = load double, ptr %add.ptr.i, align 8
  %add.ptr.val27.i = load double, ptr %beta_.i, align 16
  %mul.i.i = fmul double %add.ptr.val26.i, %add.ptr.val27.i
  %add.i.i = fadd double %add.ptr.val26.i, %add.ptr.val27.i
  %add4.i.i = fadd double %add.i.i, 1.000000e+00
  %div.i.i = fdiv double %mul.i.i, %add4.i.i
  %div8.i.i = fdiv double %div.i.i, %add.i.i
  %div12.i.i = fdiv double %div8.i.i, %add.i.i
  %79 = load i64, ptr %m.i, align 8
  %conv.i = uitofp i64 %79 to double
  %div.i = fdiv double %div12.i.i, %conv.i
  %call69.i = call double @sqrt(double noundef %div.i) #31
  %add.ptr.val28.i = load double, ptr %add.ptr.i, align 8
  %add.ptr.val29.i = load double, ptr %beta_.i, align 16
  %sub.i.i = fsub double %add.ptr.val28.i, %add.ptr.val29.i
  %mul.i98.i = fmul double %sub.i.i, %sub.i.i
  %add.i99.i = fadd double %add.ptr.val28.i, %add.ptr.val29.i
  %add7.i.i = fadd double %add.i99.i, 1.000000e+00
  %add13.i.i = fadd double %add.ptr.val28.i, 2.000000e+00
  %add15.i.i = fadd double %add13.i.i, %add.ptr.val29.i
  %80 = fneg double %add.ptr.val28.i
  %81 = fmul double %add.ptr.val29.i, %80
  %neg.i.i = fmul double %81, %add15.i.i
  %82 = call double @llvm.fmuladd.f64(double %mul.i98.i, double %add7.i.i, double %neg.i.i)
  %mul17.i.i = fmul double %82, 6.000000e+00
  %div.i100.i = fdiv double %mul17.i.i, %add.ptr.val28.i
  %div20.i.i = fdiv double %div.i100.i, %add.ptr.val29.i
  %add24.i.i = fadd double %add.i99.i, 2.000000e+00
  %div25.i.i = fdiv double %div20.i.i, %add24.i.i
  %add29.i.i = fadd double %add.i99.i, 3.000000e+00
  %div30.i.i = fdiv double %div25.i.i, %add29.i.i
  %add31.i.i = fadd double %div30.i.i, 3.000000e+00
  %sub.i = fadd double %add31.i.i, -1.000000e+00
  %mul.i101.i = fmul double %add.ptr.val28.i, %add.ptr.val29.i
  %div.i104.i = fdiv double %mul.i101.i, %add7.i.i
  %div8.i105.i = fdiv double %div.i104.i, %add.i99.i
  %div12.i106.i = fdiv double %div8.i105.i, %add.i99.i
  %mul.i = fmul double %div12.i106.i, %sub.i
  %mul79.i = fmul double %div12.i106.i, %mul.i
  %83 = load i64, ptr %m.i, align 8
  %conv81.i = uitofp i64 %83 to double
  %div82.i = fdiv double %mul79.i, %conv81.i
  %call83.i = call double @sqrt(double noundef %div82.i) #31
  %84 = load double, ptr %variance.i, align 8
  %add.ptr.val20.i = load double, ptr %add.ptr.i, align 8
  %add.ptr.val21.i = load double, ptr %beta_.i, align 16
  %mul.i113.i = fmul double %add.ptr.val20.i, %add.ptr.val21.i
  %add.i114.i = fadd double %add.ptr.val20.i, %add.ptr.val21.i
  %add4.i115.i = fadd double %add.i114.i, 1.000000e+00
  %div.i116.i = fdiv double %mul.i113.i, %add4.i115.i
  %div8.i117.i = fdiv double %div.i116.i, %add.i114.i
  %div12.i118.i = fdiv double %div8.i117.i, %add.i114.i
  %sub87.i = fsub double %84, %div12.i118.i
  %div88.i = fdiv double %sub87.i, %call83.i
  %call90.i = invoke noundef double @_ZN4absl15random_internal17MaxErrorToleranceEd(double noundef %call)
          to label %invoke.cont89.i unwind label %lpad.loopexit.split-lp.i.loopexit

invoke.cont89.i:                                  ; preds = %invoke.cont65.i
  %add.ptr.val34.i = load double, ptr %add.ptr.i, align 8
  %add.ptr.val35.i = load double, ptr %beta_.i, align 16
  %add.i119.i = fadd double %add.ptr.val34.i, %add.ptr.val35.i
  %div.i120.i = fdiv double %add.ptr.val34.i, %add.i119.i
  %call95.i = invoke noundef double @_ZN4absl15random_internal6ZScoreEdRKNS0_19DistributionMomentsE(double noundef %div.i120.i, ptr noundef nonnull align 8 dereferenceable(40) %m.i)
          to label %invoke.cont94.i unwind label %lpad.loopexit.split-lp.i.loopexit

invoke.cont94.i:                                  ; preds = %invoke.cont89.i
  %call98.i = invoke noundef zeroext i1 @_ZN4absl15random_internal4NearESt17basic_string_viewIcSt11char_traitsIcEEddd(i64 1, ptr nonnull @.str.31, double noundef %call95.i, double noundef 0.000000e+00, double noundef %call90.i)
          to label %invoke.cont97.i unwind label %lpad.loopexit.split-lp.i.loopexit

invoke.cont97.i:                                  ; preds = %invoke.cont94.i
  br i1 %call98.i, label %land.rhs.i, label %if.then103.i

land.rhs.i:                                       ; preds = %invoke.cont97.i
  %call101.i = invoke noundef zeroext i1 @_ZN4absl15random_internal4NearESt17basic_string_viewIcSt11char_traitsIcEEddd(i64 10, ptr nonnull @.str.32, double noundef %div88.i, double noundef 0.000000e+00, double noundef %call90.i)
          to label %land.end.i unwind label %lpad.loopexit.split-lp.i.loopexit

land.end.i:                                       ; preds = %land.rhs.i
  br i1 %call101.i, label %if.end174.i, label %if.then103.i

if.then103.i:                                     ; preds = %land.end.i, %invoke.cont97.i
  invoke void @_ZN4absl12log_internal10LogMessageC1EPKciNS1_7InfoTagE(ptr noundef nonnull align 8 dereferenceable(16) %ref.tmp105.i, ptr noundef nonnull @.str.2, i32 noundef 330) #36
          to label %invoke.cont107.i unwind label %lpad.loopexit.split-lp.i.loopexit

invoke.cont107.i:                                 ; preds = %if.then103.i
  invoke void @_ZN4absl12log_internal10LogMessage19CopyToEncodedBufferILNS1_10StringTypeE0EEEvSt17basic_string_viewIcSt11char_traitsIcEE(ptr noundef nonnull align 8 dereferenceable(16) %ref.tmp105.i, i64 5, ptr nonnull @.str.33)
          to label %invoke.cont111.i unwind label %lpad108.i

invoke.cont111.i:                                 ; preds = %invoke.cont107.i
  %85 = load double, ptr %add.ptr.i, align 8
  call void @llvm.lifetime.start.p0(i64 8, ptr nonnull %v.addr.i.i)
  store double %85, ptr %v.addr.i.i, align 8
  %call.i124.i = invoke noundef nonnull align 8 dereferenceable(16) ptr @_ZN4absl12log_internal10LogMessagelsIdTnNSt9enable_ifIXntsr4absl16HasAbslStringifyIT_EE5valueEiE4typeELi0EEERS1_RKS4_(ptr noundef nonnull align 8 dereferenceable(16) %ref.tmp105.i, ptr noundef nonnull align 8 dereferenceable(8) %v.addr.i.i)
          to label %invoke.cont115.i unwind label %lpad108.i

invoke.cont115.i:                                 ; preds = %invoke.cont111.i
  call void @llvm.lifetime.end.p0(i64 8, ptr nonnull %v.addr.i.i)
  invoke void @_ZN4absl12log_internal10LogMessage19CopyToEncodedBufferILNS1_10StringTypeE0EEEvSt17basic_string_viewIcSt11char_traitsIcEE(ptr noundef nonnull align 8 dereferenceable(16) %call.i124.i, i64 2, ptr nonnull @.str.34)
          to label %invoke.cont117.i unwind label %lpad108.i

invoke.cont117.i:                                 ; preds = %invoke.cont115.i
  %86 = load double, ptr %beta_.i, align 16
  call void @llvm.lifetime.start.p0(i64 8, ptr nonnull %v.addr.i127.i)
  store double %86, ptr %v.addr.i127.i, align 8
  %call.i128.i = invoke noundef nonnull align 8 dereferenceable(16) ptr @_ZN4absl12log_internal10LogMessagelsIdTnNSt9enable_ifIXntsr4absl16HasAbslStringifyIT_EE5valueEiE4typeELi0EEERS1_RKS4_(ptr noundef nonnull align 8 dereferenceable(16) %call.i124.i, ptr noundef nonnull align 8 dereferenceable(8) %v.addr.i127.i)
          to label %invoke.cont121.i unwind label %lpad108.i

invoke.cont121.i:                                 ; preds = %invoke.cont117.i
  call void @llvm.lifetime.end.p0(i64 8, ptr nonnull %v.addr.i127.i)
  invoke void @_ZN4absl12log_internal10LogMessage19CopyToEncodedBufferILNS1_10StringTypeE0EEEvSt17basic_string_viewIcSt11char_traitsIcEE(ptr noundef nonnull align 8 dereferenceable(16) %call.i128.i, i64 16, ptr nonnull @.str.35)
          to label %invoke.cont123.i unwind label %lpad108.i

invoke.cont123.i:                                 ; preds = %invoke.cont121.i
  %87 = load double, ptr %mean.i, align 8
  call void @llvm.lifetime.start.p0(i64 8, ptr nonnull %v.addr.i132.i)
  store double %87, ptr %v.addr.i132.i, align 8
  %call.i133.i = invoke noundef nonnull align 8 dereferenceable(16) ptr @_ZN4absl12log_internal10LogMessagelsIdTnNSt9enable_ifIXntsr4absl16HasAbslStringifyIT_EE5valueEiE4typeELi0EEERS1_RKS4_(ptr noundef nonnull align 8 dereferenceable(16) %call.i128.i, ptr noundef nonnull align 8 dereferenceable(8) %v.addr.i132.i)
          to label %invoke.cont125.i unwind label %lpad108.i

invoke.cont125.i:                                 ; preds = %invoke.cont123.i
  call void @llvm.lifetime.end.p0(i64 8, ptr nonnull %v.addr.i132.i)
  invoke void @_ZN4absl12log_internal10LogMessage19CopyToEncodedBufferILNS1_10StringTypeE0EEEvSt17basic_string_viewIcSt11char_traitsIcEE(ptr noundef nonnull align 8 dereferenceable(16) %call.i133.i, i64 9, ptr nonnull @.str.36)
          to label %invoke.cont127.i unwind label %lpad108.i

invoke.cont127.i:                                 ; preds = %invoke.cont125.i
  %add.ptr.val32.i = load double, ptr %add.ptr.i, align 8
  %add.ptr.val33.i = load double, ptr %beta_.i, align 16
  %add.i137.i = fadd double %add.ptr.val32.i, %add.ptr.val33.i
  %div.i138.i = fdiv double %add.ptr.val32.i, %add.i137.i
  call void @llvm.lifetime.start.p0(i64 8, ptr nonnull %v.addr.i139.i)
  store double %div.i138.i, ptr %v.addr.i139.i, align 8
  %call.i140.i = invoke noundef nonnull align 8 dereferenceable(16) ptr @_ZN4absl12log_internal10LogMessagelsIdTnNSt9enable_ifIXntsr4absl16HasAbslStringifyIT_EE5valueEiE4typeELi0EEERS1_RKS4_(ptr noundef nonnull align 8 dereferenceable(16) %call.i133.i, ptr noundef nonnull align 8 dereferenceable(8) %v.addr.i139.i)
          to label %invoke.cont132.i unwind label %lpad108.i

invoke.cont132.i:                                 ; preds = %invoke.cont127.i
  call void @llvm.lifetime.end.p0(i64 8, ptr nonnull %v.addr.i139.i)
  invoke void @_ZN4absl12log_internal10LogMessage19CopyToEncodedBufferILNS1_10StringTypeE0EEEvSt17basic_string_viewIcSt11char_traitsIcEE(ptr noundef nonnull align 8 dereferenceable(16) %call.i140.i, i64 11, ptr nonnull @.str.37)
          to label %invoke.cont134.i unwind label %lpad108.i

invoke.cont134.i:                                 ; preds = %invoke.cont132.i
  %88 = load double, ptr %mean.i, align 8
  %add.ptr.val30.i = load double, ptr %add.ptr.i, align 8
  %add.ptr.val31.i = load double, ptr %beta_.i, align 16
  %add.i144.i = fadd double %add.ptr.val30.i, %add.ptr.val31.i
  %div.i145.i = fdiv double %add.ptr.val30.i, %add.i144.i
  %sub140.i = fsub double %88, %div.i145.i
  %89 = call noundef double @llvm.fabs.f64(double %sub140.i)
  %div143.i = fdiv double %89, %call69.i
  call void @llvm.lifetime.start.p0(i64 8, ptr nonnull %v.addr.i146.i)
  store double %div143.i, ptr %v.addr.i146.i, align 8
  %call.i147.i = invoke noundef nonnull align 8 dereferenceable(16) ptr @_ZN4absl12log_internal10LogMessagelsIdTnNSt9enable_ifIXntsr4absl16HasAbslStringifyIT_EE5valueEiE4typeELi0EEERS1_RKS4_(ptr noundef nonnull align 8 dereferenceable(16) %call.i140.i, ptr noundef nonnull align 8 dereferenceable(8) %v.addr.i146.i)
          to label %invoke.cont144.i unwind label %lpad108.i

invoke.cont144.i:                                 ; preds = %invoke.cont134.i
  call void @llvm.lifetime.end.p0(i64 8, ptr nonnull %v.addr.i146.i)
  invoke void @_ZN4absl12log_internal10LogMessage19CopyToEncodedBufferILNS1_10StringTypeE0EEEvSt17basic_string_viewIcSt11char_traitsIcEE(ptr noundef nonnull align 8 dereferenceable(16) %call.i147.i, i64 32, ptr nonnull @.str.38)
          to label %invoke.cont146.i unwind label %lpad108.i

invoke.cont146.i:                                 ; preds = %invoke.cont144.i
  %90 = load double, ptr %variance.i, align 8
  call void @llvm.lifetime.start.p0(i64 8, ptr nonnull %v.addr.i151.i)
  store double %90, ptr %v.addr.i151.i, align 8
  %call.i152.i = invoke noundef nonnull align 8 dereferenceable(16) ptr @_ZN4absl12log_internal10LogMessagelsIdTnNSt9enable_ifIXntsr4absl16HasAbslStringifyIT_EE5valueEiE4typeELi0EEERS1_RKS4_(ptr noundef nonnull align 8 dereferenceable(16) %call.i147.i, ptr noundef nonnull align 8 dereferenceable(8) %v.addr.i151.i)
          to label %invoke.cont149.i unwind label %lpad108.i

invoke.cont149.i:                                 ; preds = %invoke.cont146.i
  call void @llvm.lifetime.end.p0(i64 8, ptr nonnull %v.addr.i151.i)
  invoke void @_ZN4absl12log_internal10LogMessage19CopyToEncodedBufferILNS1_10StringTypeE0EEEvSt17basic_string_viewIcSt11char_traitsIcEE(ptr noundef nonnull align 8 dereferenceable(16) %call.i152.i, i64 9, ptr nonnull @.str.36)
          to label %invoke.cont151.i unwind label %lpad108.i

invoke.cont151.i:                                 ; preds = %invoke.cont149.i
  %add.ptr.val18.i = load double, ptr %add.ptr.i, align 8
  %add.ptr.val19.i = load double, ptr %beta_.i, align 16
  %mul.i157.i = fmul double %add.ptr.val18.i, %add.ptr.val19.i
  %add.i158.i = fadd double %add.ptr.val18.i, %add.ptr.val19.i
  %add4.i159.i = fadd double %add.i158.i, 1.000000e+00
  %div.i160.i = fdiv double %mul.i157.i, %add4.i159.i
  %div8.i161.i = fdiv double %div.i160.i, %add.i158.i
  %div12.i162.i = fdiv double %div8.i161.i, %add.i158.i
  call void @llvm.lifetime.start.p0(i64 8, ptr nonnull %v.addr.i163.i)
  store double %div12.i162.i, ptr %v.addr.i163.i, align 8
  %call.i164.i = invoke noundef nonnull align 8 dereferenceable(16) ptr @_ZN4absl12log_internal10LogMessagelsIdTnNSt9enable_ifIXntsr4absl16HasAbslStringifyIT_EE5valueEiE4typeELi0EEERS1_RKS4_(ptr noundef nonnull align 8 dereferenceable(16) %call.i152.i, ptr noundef nonnull align 8 dereferenceable(8) %v.addr.i163.i)
          to label %invoke.cont156.i unwind label %lpad108.i

invoke.cont156.i:                                 ; preds = %invoke.cont151.i
  call void @llvm.lifetime.end.p0(i64 8, ptr nonnull %v.addr.i163.i)
  invoke void @_ZN4absl12log_internal10LogMessage19CopyToEncodedBufferILNS1_10StringTypeE0EEEvSt17basic_string_viewIcSt11char_traitsIcEE(ptr noundef nonnull align 8 dereferenceable(16) %call.i164.i, i64 11, ptr nonnull @.str.37)
          to label %invoke.cont158.i unwind label %lpad108.i

invoke.cont158.i:                                 ; preds = %invoke.cont156.i
  %91 = load double, ptr %variance.i, align 8
  %add.ptr.val.i = load double, ptr %add.ptr.i, align 8
  %add.ptr.val17.i = load double, ptr %beta_.i, align 16
  %mul.i169.i = fmul double %add.ptr.val.i, %add.ptr.val17.i
  %add.i170.i = fadd double %add.ptr.val.i, %add.ptr.val17.i
  %add4.i171.i = fadd double %add.i170.i, 1.000000e+00
  %div.i172.i = fdiv double %mul.i169.i, %add4.i171.i
  %div8.i173.i = fdiv double %div.i172.i, %add.i170.i
  %div12.i174.i = fdiv double %div8.i173.i, %add.i170.i
  %sub164.i = fsub double %91, %div12.i174.i
  %92 = call noundef double @llvm.fabs.f64(double %sub164.i)
  %div167.i = fdiv double %92, %call83.i
  call void @llvm.lifetime.start.p0(i64 8, ptr nonnull %v.addr.i175.i)
  store double %div167.i, ptr %v.addr.i175.i, align 8
  %call.i176.i = invoke noundef nonnull align 8 dereferenceable(16) ptr @_ZN4absl12log_internal10LogMessagelsIdTnNSt9enable_ifIXntsr4absl16HasAbslStringifyIT_EE5valueEiE4typeELi0EEERS1_RKS4_(ptr noundef nonnull align 8 dereferenceable(16) %call.i164.i, ptr noundef nonnull align 8 dereferenceable(8) %v.addr.i175.i)
          to label %invoke.cont168.i unwind label %lpad108.i

invoke.cont168.i:                                 ; preds = %invoke.cont158.i
  call void @llvm.lifetime.end.p0(i64 8, ptr nonnull %v.addr.i175.i)
  invoke void @_ZN4absl12log_internal10LogMessage19CopyToEncodedBufferILNS1_10StringTypeE0EEEvSt17basic_string_viewIcSt11char_traitsIcEE(ptr noundef nonnull align 8 dereferenceable(16) %call.i176.i, i64 14, ptr nonnull @.str.39)
          to label %invoke.cont170.i unwind label %lpad108.i

invoke.cont170.i:                                 ; preds = %invoke.cont168.i
  call void @_ZN4absl12log_internal10LogMessageD1Ev(ptr noundef nonnull align 8 dereferenceable(16) %ref.tmp105.i) #37
  br label %if.end174.i

lpad108.i:                                        ; preds = %invoke.cont168.i, %invoke.cont158.i, %invoke.cont156.i, %invoke.cont151.i, %invoke.cont149.i, %invoke.cont146.i, %invoke.cont144.i, %invoke.cont134.i, %invoke.cont132.i, %invoke.cont127.i, %invoke.cont125.i, %invoke.cont123.i, %invoke.cont121.i, %invoke.cont117.i, %invoke.cont115.i, %invoke.cont111.i, %invoke.cont107.i
  %93 = landingpad { ptr, i32 }
          cleanup
  call void @_ZN4absl12log_internal10LogMessageD1Ev(ptr noundef nonnull align 8 dereferenceable(16) %ref.tmp105.i) #37
  br label %ehcleanup176.i

if.end174.i:                                      ; preds = %invoke.cont170.i, %land.end.i
  %94 = phi i1 [ false, %invoke.cont170.i ], [ true, %land.end.i ]
  %tobool.not.i.i.i180.i = icmp eq ptr %data.sroa.0.3.i, null
  br i1 %tobool.not.i.i.i180.i, label %_ZN12_GLOBAL__N_120BetaDistributionTest28SingleZTestOnMeanAndVarianceIN4absl17beta_distributionIdEEEEbdm.exit, label %if.then.i.i.i181.i

if.then.i.i.i181.i:                               ; preds = %if.end174.i
  call void @_ZdlPv(ptr noundef nonnull %data.sroa.0.3.i) #32
  br label %_ZN12_GLOBAL__N_120BetaDistributionTest28SingleZTestOnMeanAndVarianceIN4absl17beta_distributionIdEEEEbdm.exit

ehcleanup176.i:                                   ; preds = %lpad.loopexit.split-lp.i.loopexit, %lpad.loopexit.split-lp.i.loopexit.split-lp, %lpad108.i, %ehcleanup63.i, %ehcleanup42.i, %ehcleanup22.i, %lpad.loopexit.i
  %data.sroa.0.4.i = phi ptr [ %data.sroa.0.1229.i, %ehcleanup63.i ], [ %data.sroa.0.1229.i, %ehcleanup42.i ], [ %data.sroa.0.1229.i, %ehcleanup22.i ], [ %data.sroa.0.3.i, %lpad108.i ], [ %data.sroa.0.1229.i, %lpad.loopexit.i ], [ %data.sroa.0.2.ph.i.ph, %lpad.loopexit.split-lp.i.loopexit ], [ %data.sroa.0.1229.i, %lpad.loopexit.split-lp.i.loopexit.split-lp ]
  %.pn15.i = phi { ptr, i32 } [ %.pn12.pn.i, %ehcleanup63.i ], [ %.pn9.pn.i, %ehcleanup42.i ], [ %.pn.pn.pn.i, %ehcleanup22.i ], [ %93, %lpad108.i ], [ %lpad.loopexit194.i, %lpad.loopexit.i ], [ %lpad.loopexit, %lpad.loopexit.split-lp.i.loopexit ], [ %lpad.loopexit.split-lp, %lpad.loopexit.split-lp.i.loopexit.split-lp ]
  %tobool.not.i.i.i182.i = icmp eq ptr %data.sroa.0.4.i, null
  br i1 %tobool.not.i.i.i182.i, label %common.resume, label %if.then.i.i.i183.i

if.then.i.i.i183.i:                               ; preds = %ehcleanup176.i
  call void @_ZdlPv(ptr noundef nonnull %data.sroa.0.4.i) #32
  br label %common.resume

common.resume:                                    ; preds = %_ZNSt6vectorIdSaIdEED2Ev.exit229.i, %if.then.i.i.i231.i, %ehcleanup176.i, %if.then.i.i.i183.i, %ehcleanup20
  %common.resume.op = phi { ptr, i32 } [ %.pn.pn, %ehcleanup20 ], [ %.pn15.i, %if.then.i.i.i183.i ], [ %.pn15.i, %ehcleanup176.i ], [ %.pn23.pn.i, %if.then.i.i.i231.i ], [ %.pn23.pn.i, %_ZNSt6vectorIdSaIdEED2Ev.exit229.i ]
  resume { ptr, i32 } %common.resume.op

_ZN12_GLOBAL__N_120BetaDistributionTest28SingleZTestOnMeanAndVarianceIN4absl17beta_distributionIdEEEEbdm.exit: ; preds = %if.end174.i, %if.then.i.i.i181.i
  call void @llvm.lifetime.end.p0(i64 80, ptr nonnull %dis.i)
  call void @llvm.lifetime.end.p0(i64 8, ptr nonnull %variate.i)
  call void @llvm.lifetime.end.p0(i64 16, ptr nonnull %gtest_ar_.i)
  call void @llvm.lifetime.end.p0(i64 8, ptr nonnull %ref.tmp10.i)
  call void @llvm.lifetime.end.p0(i64 8, ptr nonnull %ref.tmp12.i)
  call void @llvm.lifetime.end.p0(i64 32, ptr nonnull %ref.tmp13.i)
  call void @llvm.lifetime.end.p0(i64 16, ptr nonnull %gtest_ar.i)
  call void @llvm.lifetime.end.p0(i64 8, ptr nonnull %ref.tmp23.i)
  call void @llvm.lifetime.end.p0(i64 8, ptr nonnull %ref.tmp30.i)
  call void @llvm.lifetime.end.p0(i64 8, ptr nonnull %ref.tmp32.i)
  call void @llvm.lifetime.end.p0(i64 16, ptr nonnull %gtest_ar43.i)
  call void @llvm.lifetime.end.p0(i64 8, ptr nonnull %ref.tmp44.i)
  call void @llvm.lifetime.end.p0(i64 8, ptr nonnull %ref.tmp51.i)
  call void @llvm.lifetime.end.p0(i64 8, ptr nonnull %ref.tmp53.i)
  call void @llvm.lifetime.end.p0(i64 40, ptr nonnull %m.i)
  call void @llvm.lifetime.end.p0(i64 16, ptr nonnull %ref.tmp105.i)
  br i1 %94, label %if.end, label %if.then

if.then:                                          ; preds = %_ZN12_GLOBAL__N_120BetaDistributionTest28SingleZTestOnMeanAndVarianceIN4absl17beta_distributionIdEEEEbdm.exit
  %95 = load i32, ptr %failed, align 4
  %inc = add nsw i32 %95, 1
  store i32 %inc, ptr %failed, align 4
  br label %if.end

if.end:                                           ; preds = %if.then, %_ZN12_GLOBAL__N_120BetaDistributionTest28SingleZTestOnMeanAndVarianceIN4absl17beta_distributionIdEEEEbdm.exit
  call void @llvm.lifetime.start.p0(i64 16, ptr nonnull %gtest_ar.i5)
  call void @llvm.lifetime.start.p0(i64 8, ptr nonnull %ref.tmp33.i)
  call void @llvm.lifetime.start.p0(i64 4, ptr nonnull %ref.tmp35.i)
  call void @llvm.lifetime.start.p0(i64 8, ptr nonnull %ref.tmp41.i)
  call void @llvm.lifetime.start.p0(i64 8, ptr nonnull %ref.tmp54.i)
  call void @llvm.lifetime.start.p0(i64 80, ptr nonnull %dis.i6)
  call void @llvm.lifetime.start.p0(i64 16, ptr nonnull %ref.tmp134.i)
  call void @llvm.lifetime.start.p0(i64 16, ptr nonnull %ref.tmp164.i)
  br label %for.body.i9

for.body.i9:                                      ; preds = %for.inc.i13, %if.end
  %i.0317.i = phi i32 [ 1, %if.end ], [ %inc21.i, %for.inc.i13 ]
  %unmerged_buckets.0316.i = phi i32 [ 0, %if.end ], [ %unmerged_buckets.1.i, %for.inc.i13 ]
  %cutoffs.sroa.0.0315.i = phi ptr [ null, %if.end ], [ %cutoffs.sroa.0.3.i, %for.inc.i13 ]
  %cutoffs.sroa.16.0314.i = phi ptr [ null, %if.end ], [ %cutoffs.sroa.16.2.i, %for.inc.i13 ]
  %cutoffs.sroa.32.0313.i = phi ptr [ null, %if.end ], [ %cutoffs.sroa.32.2.i, %for.inc.i13 ]
  %expected.sroa.0.0312.i = phi ptr [ null, %if.end ], [ %expected.sroa.0.3.i, %for.inc.i13 ]
  %expected.sroa.9.0311.i = phi ptr [ null, %if.end ], [ %expected.sroa.9.2.i, %for.inc.i13 ]
  %expected.sroa.18.0310.i = phi ptr [ null, %if.end ], [ %expected.sroa.18.2.i, %for.inc.i13 ]
  %conv4.i = sitofp i32 %i.0317.i to double
  %mul.i10 = fmul double %conv4.i, 1.000000e-02
  %96 = load double, ptr %add.ptr.i, align 8
  %97 = load double, ptr %beta_.i, align 16
  %call.i = invoke noundef double @_ZN4absl15random_internal17BetaIncompleteInvEddd(double noundef %96, double noundef %97, double noundef %mul.i10)
          to label %invoke.cont.i unwind label %lpad.loopexit284.i

invoke.cont.i:                                    ; preds = %for.body.i9
  %cmp.i.i.i = icmp eq ptr %cutoffs.sroa.0.0315.i, %cutoffs.sroa.16.0314.i
  %cmp7.i = fcmp olt double %call.i, 0x3E7AD7F29ABCAF48
  %or.cond.i = and i1 %cmp.i.i.i, %cmp7.i
  br i1 %or.cond.i, label %if.then.i, label %lor.lhs.false.i

lor.lhs.false.i:                                  ; preds = %invoke.cont.i
  br i1 %cmp.i.i.i, label %if.end.i75, label %land.lhs.true9.i

land.lhs.true9.i:                                 ; preds = %lor.lhs.false.i
  %add.ptr.i.i.i11 = getelementptr inbounds double, ptr %cutoffs.sroa.16.0314.i, i64 -1
  %98 = load double, ptr %add.ptr.i.i.i11, align 8
  %cmp11.i = fcmp ugt double %call.i, %98
  br i1 %cmp11.i, label %if.end.i75, label %if.then.i

if.then.i:                                        ; preds = %land.lhs.true9.i, %invoke.cont.i
  %inc.i12 = add nsw i32 %unmerged_buckets.0316.i, 1
  br label %for.inc.i13

lpad.loopexit284.i:                               ; preds = %_ZNSt16allocator_traitsISaIdEE8allocateERS0_m.exit.i.i.i.i.i, %_ZNSt16allocator_traitsISaIdEE8allocateERS0_m.exit.i.i.i.i95, %for.body.i9
  %cutoffs.sroa.0.1.ph.i = phi ptr [ %cutoffs.sroa.0.0315.i, %for.body.i9 ], [ %cutoffs.sroa.0.0315.i, %_ZNSt16allocator_traitsISaIdEE8allocateERS0_m.exit.i.i.i.i95 ], [ %cutoffs.sroa.0.2.i, %_ZNSt16allocator_traitsISaIdEE8allocateERS0_m.exit.i.i.i.i.i ]
  %lpad.loopexit286.i = landingpad { ptr, i32 }
          cleanup
  br label %ehcleanup199.i

lpad.loopexit.split-lp.i17.loopexit:              ; preds = %_ZNSt16allocator_traitsISaIdEE8allocateERS0_m.exit.i.i.i.i54.i, %_ZNSt16allocator_traitsISaIdEE8allocateERS0_m.exit.i.i.i.i92.i, %if.then.i113.i, %if.else.i114.i, %_ZN7testing15AssertionResultD2Ev.exit.i21
  %expected.sroa.0.1.ph.i.ph = phi ptr [ %expected.sroa.0.4.i, %_ZN7testing15AssertionResultD2Ev.exit.i21 ], [ %expected.sroa.0.4.i, %if.else.i114.i ], [ %expected.sroa.0.4.i, %if.then.i113.i ], [ %expected.sroa.0.0.lcssa.i, %_ZNSt16allocator_traitsISaIdEE8allocateERS0_m.exit.i.i.i.i92.i ], [ %expected.sroa.0.0.lcssa.i, %_ZNSt16allocator_traitsISaIdEE8allocateERS0_m.exit.i.i.i.i54.i ]
  %cutoffs.sroa.0.1.ph285.i.ph = phi ptr [ %cutoffs.sroa.0.4.i, %_ZN7testing15AssertionResultD2Ev.exit.i21 ], [ %cutoffs.sroa.0.4.i, %if.else.i114.i ], [ %cutoffs.sroa.0.4.i, %if.then.i113.i ], [ %cutoffs.sroa.0.4.i, %_ZNSt16allocator_traitsISaIdEE8allocateERS0_m.exit.i.i.i.i92.i ], [ %cutoffs.sroa.0.0.lcssa.i, %_ZNSt16allocator_traitsISaIdEE8allocateERS0_m.exit.i.i.i.i54.i ]
  %lpad.loopexit323 = landingpad { ptr, i32 }
          cleanup
  br label %ehcleanup199.i

lpad.loopexit.split-lp.i17.loopexit.split-lp:     ; preds = %if.then.i.i.i.i, %if.then.i.i.i.i.i, %if.then.i.i.i.i68.i, %if.then.i.i.i.i106.i
  %expected.sroa.0.1.ph.i.ph321 = phi ptr [ %expected.sroa.0.0312.i, %if.then.i.i.i.i ], [ %expected.sroa.0.0312.i, %if.then.i.i.i.i.i ], [ %expected.sroa.0.0.lcssa.i, %if.then.i.i.i.i68.i ], [ %expected.sroa.0.0.lcssa.i, %if.then.i.i.i.i106.i ]
  %cutoffs.sroa.0.1.ph285.i.ph322 = phi ptr [ %cutoffs.sroa.0.0315.i, %if.then.i.i.i.i ], [ %cutoffs.sroa.0.2.i, %if.then.i.i.i.i.i ], [ %cutoffs.sroa.0.0.lcssa.i, %if.then.i.i.i.i68.i ], [ %cutoffs.sroa.0.4.i, %if.then.i.i.i.i106.i ]
  %lpad.loopexit.split-lp324 = landingpad { ptr, i32 }
          cleanup
  br label %ehcleanup199.i

if.end.i75:                                       ; preds = %land.lhs.true9.i, %lor.lhs.false.i
  %cmp12.i = fcmp ult double %call.i, 0x3FEFFFFFFFF24190
  br i1 %cmp12.i, label %if.end14.i, label %for.end.i15

if.end14.i:                                       ; preds = %if.end.i75
  %cmp.not.i.i76 = icmp eq ptr %cutoffs.sroa.16.0314.i, %cutoffs.sroa.32.0313.i
  br i1 %cmp.not.i.i76, label %if.else.i.i81, label %if.then.i.i77

if.then.i.i77:                                    ; preds = %if.end14.i
  store double %call.i, ptr %cutoffs.sroa.16.0314.i, align 8
  br label %invoke.cont15.i78

if.else.i.i81:                                    ; preds = %if.end14.i
  %sub.ptr.lhs.cast.i.i.i.i.i82 = ptrtoint ptr %cutoffs.sroa.16.0314.i to i64
  %sub.ptr.rhs.cast.i.i.i.i.i83 = ptrtoint ptr %cutoffs.sroa.0.0315.i to i64
  %sub.ptr.sub.i.i.i.i.i84 = sub i64 %sub.ptr.lhs.cast.i.i.i.i.i82, %sub.ptr.rhs.cast.i.i.i.i.i83
  %cmp.i.i.i.i85 = icmp eq i64 %sub.ptr.sub.i.i.i.i.i84, 9223372036854775800
  br i1 %cmp.i.i.i.i85, label %if.then.i.i.i.i, label %_ZNKSt6vectorIdSaIdEE12_M_check_lenEmPKc.exit.i.i.i86

if.then.i.i.i.i:                                  ; preds = %if.else.i.i81
  invoke void @_ZSt20__throw_length_errorPKc(ptr noundef nonnull @.str.18) #33
          to label %.noexc.i unwind label %lpad.loopexit.split-lp.i17.loopexit.split-lp

.noexc.i:                                         ; preds = %if.then.i.i.i.i
  unreachable

_ZNKSt6vectorIdSaIdEE12_M_check_lenEmPKc.exit.i.i.i86: ; preds = %if.else.i.i81
  %sub.ptr.div.i.i.i.i.i87 = ashr exact i64 %sub.ptr.sub.i.i.i.i.i84, 3
  %.sroa.speculated.i.i.i.i88 = call i64 @llvm.umax.i64(i64 %sub.ptr.div.i.i.i.i.i87, i64 1)
  %add.i.i.i.i89 = add i64 %.sroa.speculated.i.i.i.i88, %sub.ptr.div.i.i.i.i.i87
  %cmp7.i.i.i.i90 = icmp ult i64 %add.i.i.i.i89, %sub.ptr.div.i.i.i.i.i87
  %cmp9.i.i.i.i91 = icmp ugt i64 %add.i.i.i.i89, 1152921504606846975
  %or.cond.i.i.i.i92 = or i1 %cmp7.i.i.i.i90, %cmp9.i.i.i.i91
  %cond.i.i.i.i93 = select i1 %or.cond.i.i.i.i92, i64 1152921504606846975, i64 %add.i.i.i.i89
  %cmp.not.i.i.i.i94 = icmp eq i64 %cond.i.i.i.i93, 0
  br i1 %cmp.not.i.i.i.i94, label %_ZNSt12_Vector_baseIdSaIdEE11_M_allocateEm.exit.i.i.i97, label %_ZNSt16allocator_traitsISaIdEE8allocateERS0_m.exit.i.i.i.i95

_ZNSt16allocator_traitsISaIdEE8allocateERS0_m.exit.i.i.i.i95: ; preds = %_ZNKSt6vectorIdSaIdEE12_M_check_lenEmPKc.exit.i.i.i86
  %mul.i.i.i.i.i.i96 = shl nuw nsw i64 %cond.i.i.i.i93, 3
  %call5.i.i.i.i.i30.i = invoke noalias noundef nonnull ptr @_Znwm(i64 noundef %mul.i.i.i.i.i.i96) #34
          to label %_ZNSt12_Vector_baseIdSaIdEE11_M_allocateEm.exit.i.i.i97 unwind label %lpad.loopexit284.i

_ZNSt12_Vector_baseIdSaIdEE11_M_allocateEm.exit.i.i.i97: ; preds = %_ZNSt16allocator_traitsISaIdEE8allocateERS0_m.exit.i.i.i.i95, %_ZNKSt6vectorIdSaIdEE12_M_check_lenEmPKc.exit.i.i.i86
  %cond.i10.i.i.i98 = phi ptr [ null, %_ZNKSt6vectorIdSaIdEE12_M_check_lenEmPKc.exit.i.i.i86 ], [ %call5.i.i.i.i.i30.i, %_ZNSt16allocator_traitsISaIdEE8allocateERS0_m.exit.i.i.i.i95 ]
  %add.ptr.i.i29.i = getelementptr inbounds double, ptr %cond.i10.i.i.i98, i64 %sub.ptr.div.i.i.i.i.i87
  store double %call.i, ptr %add.ptr.i.i29.i, align 8
  %cmp.i.i.i11.i.i.i99 = icmp sgt i64 %sub.ptr.sub.i.i.i.i.i84, 0
  br i1 %cmp.i.i.i11.i.i.i99, label %if.then.i.i.i12.i.i.i106, label %_ZNSt6vectorIdSaIdEE11_S_relocateEPdS2_S2_RS0_.exit19.i.i.i100

if.then.i.i.i12.i.i.i106:                         ; preds = %_ZNSt12_Vector_baseIdSaIdEE11_M_allocateEm.exit.i.i.i97
  call void @llvm.memmove.p0.p0.i64(ptr nonnull align 8 %cond.i10.i.i.i98, ptr align 8 %cutoffs.sroa.0.0315.i, i64 %sub.ptr.sub.i.i.i.i.i84, i1 false)
  br label %_ZNSt6vectorIdSaIdEE11_S_relocateEPdS2_S2_RS0_.exit19.i.i.i100

_ZNSt6vectorIdSaIdEE11_S_relocateEPdS2_S2_RS0_.exit19.i.i.i100: ; preds = %if.then.i.i.i12.i.i.i106, %_ZNSt12_Vector_baseIdSaIdEE11_M_allocateEm.exit.i.i.i97
  %add.ptr.i.i.i.i.i.i101 = getelementptr inbounds i8, ptr %cond.i10.i.i.i98, i64 %sub.ptr.sub.i.i.i.i.i84
  %tobool.not.i.i.i.i102 = icmp eq ptr %cutoffs.sroa.0.0315.i, null
  br i1 %tobool.not.i.i.i.i102, label %_ZNSt6vectorIdSaIdEE17_M_realloc_insertIJRKdEEEvN9__gnu_cxx17__normal_iteratorIPdS1_EEDpOT_.exit.i.i104, label %if.then.i20.i.i.i103

if.then.i20.i.i.i103:                             ; preds = %_ZNSt6vectorIdSaIdEE11_S_relocateEPdS2_S2_RS0_.exit19.i.i.i100
  call void @_ZdlPv(ptr noundef nonnull %cutoffs.sroa.0.0315.i) #32
  br label %_ZNSt6vectorIdSaIdEE17_M_realloc_insertIJRKdEEEvN9__gnu_cxx17__normal_iteratorIPdS1_EEDpOT_.exit.i.i104

_ZNSt6vectorIdSaIdEE17_M_realloc_insertIJRKdEEEvN9__gnu_cxx17__normal_iteratorIPdS1_EEDpOT_.exit.i.i104: ; preds = %if.then.i20.i.i.i103, %_ZNSt6vectorIdSaIdEE11_S_relocateEPdS2_S2_RS0_.exit19.i.i.i100
  %add.ptr19.i.i.i105 = getelementptr inbounds double, ptr %cond.i10.i.i.i98, i64 %cond.i.i.i.i93
  br label %invoke.cont15.i78

invoke.cont15.i78:                                ; preds = %_ZNSt6vectorIdSaIdEE17_M_realloc_insertIJRKdEEEvN9__gnu_cxx17__normal_iteratorIPdS1_EEDpOT_.exit.i.i104, %if.then.i.i77
  %cutoffs.sroa.32.1.i = phi ptr [ %add.ptr19.i.i.i105, %_ZNSt6vectorIdSaIdEE17_M_realloc_insertIJRKdEEEvN9__gnu_cxx17__normal_iteratorIPdS1_EEDpOT_.exit.i.i104 ], [ %cutoffs.sroa.32.0313.i, %if.then.i.i77 ]
  %add.ptr.i.i.i.i.i.pn.i79 = phi ptr [ %add.ptr.i.i.i.i.i.i101, %_ZNSt6vectorIdSaIdEE17_M_realloc_insertIJRKdEEEvN9__gnu_cxx17__normal_iteratorIPdS1_EEDpOT_.exit.i.i104 ], [ %cutoffs.sroa.16.0314.i, %if.then.i.i77 ]
  %cutoffs.sroa.0.2.i = phi ptr [ %cond.i10.i.i.i98, %_ZNSt6vectorIdSaIdEE17_M_realloc_insertIJRKdEEEvN9__gnu_cxx17__normal_iteratorIPdS1_EEDpOT_.exit.i.i104 ], [ %cutoffs.sroa.0.0315.i, %if.then.i.i77 ]
  %cutoffs.sroa.16.1.i = getelementptr inbounds double, ptr %add.ptr.i.i.i.i.i.pn.i79, i64 1
  %add.i = add nsw i32 %unmerged_buckets.0316.i, 1
  %conv16.i = sitofp i32 %add.i to double
  %mul17.i = fmul double %conv16.i, 1.000000e-02
  %mul19.i = fmul double %mul17.i, 1.000000e+04
  %cmp.not.i.i.i80 = icmp eq ptr %expected.sroa.9.0311.i, %expected.sroa.18.0310.i
  br i1 %cmp.not.i.i.i80, label %if.else.i.i.i, label %if.then.i.i.i

if.then.i.i.i:                                    ; preds = %invoke.cont15.i78
  store double %mul19.i, ptr %expected.sroa.9.0311.i, align 8
  %incdec.ptr.i.i32.i = getelementptr inbounds double, ptr %expected.sroa.9.0311.i, i64 1
  br label %for.inc.i13

if.else.i.i.i:                                    ; preds = %invoke.cont15.i78
  %sub.ptr.lhs.cast.i.i.i.i.i.i = ptrtoint ptr %expected.sroa.9.0311.i to i64
  %sub.ptr.rhs.cast.i.i.i.i.i.i = ptrtoint ptr %expected.sroa.0.0312.i to i64
  %sub.ptr.sub.i.i.i.i.i.i = sub i64 %sub.ptr.lhs.cast.i.i.i.i.i.i, %sub.ptr.rhs.cast.i.i.i.i.i.i
  %cmp.i.i.i.i.i = icmp eq i64 %sub.ptr.sub.i.i.i.i.i.i, 9223372036854775800
  br i1 %cmp.i.i.i.i.i, label %if.then.i.i.i.i.i, label %_ZNKSt6vectorIdSaIdEE12_M_check_lenEmPKc.exit.i.i.i.i

if.then.i.i.i.i.i:                                ; preds = %if.else.i.i.i
  invoke void @_ZSt20__throw_length_errorPKc(ptr noundef nonnull @.str.18) #33
          to label %.noexc33.i unwind label %lpad.loopexit.split-lp.i17.loopexit.split-lp

.noexc33.i:                                       ; preds = %if.then.i.i.i.i.i
  unreachable

_ZNKSt6vectorIdSaIdEE12_M_check_lenEmPKc.exit.i.i.i.i: ; preds = %if.else.i.i.i
  %sub.ptr.div.i.i.i.i.i.i = ashr exact i64 %sub.ptr.sub.i.i.i.i.i.i, 3
  %.sroa.speculated.i.i.i.i.i = call i64 @llvm.umax.i64(i64 %sub.ptr.div.i.i.i.i.i.i, i64 1)
  %add.i.i.i.i.i = add i64 %.sroa.speculated.i.i.i.i.i, %sub.ptr.div.i.i.i.i.i.i
  %cmp7.i.i.i.i.i = icmp ult i64 %add.i.i.i.i.i, %sub.ptr.div.i.i.i.i.i.i
  %cmp9.i.i.i.i.i = icmp ugt i64 %add.i.i.i.i.i, 1152921504606846975
  %or.cond.i.i.i.i.i = or i1 %cmp7.i.i.i.i.i, %cmp9.i.i.i.i.i
  %cond.i.i.i.i.i = select i1 %or.cond.i.i.i.i.i, i64 1152921504606846975, i64 %add.i.i.i.i.i
  %cmp.not.i.i.i.i.i = icmp eq i64 %cond.i.i.i.i.i, 0
  br i1 %cmp.not.i.i.i.i.i, label %_ZNSt12_Vector_baseIdSaIdEE11_M_allocateEm.exit.i.i.i.i, label %_ZNSt16allocator_traitsISaIdEE8allocateERS0_m.exit.i.i.i.i.i

_ZNSt16allocator_traitsISaIdEE8allocateERS0_m.exit.i.i.i.i.i: ; preds = %_ZNKSt6vectorIdSaIdEE12_M_check_lenEmPKc.exit.i.i.i.i
  %mul.i.i.i.i.i.i.i = shl nuw nsw i64 %cond.i.i.i.i.i, 3
  %call5.i.i.i.i.i.i34.i = invoke noalias noundef nonnull ptr @_Znwm(i64 noundef %mul.i.i.i.i.i.i.i) #34
          to label %_ZNSt12_Vector_baseIdSaIdEE11_M_allocateEm.exit.i.i.i.i unwind label %lpad.loopexit284.i

_ZNSt12_Vector_baseIdSaIdEE11_M_allocateEm.exit.i.i.i.i: ; preds = %_ZNSt16allocator_traitsISaIdEE8allocateERS0_m.exit.i.i.i.i.i, %_ZNKSt6vectorIdSaIdEE12_M_check_lenEmPKc.exit.i.i.i.i
  %cond.i10.i.i.i.i = phi ptr [ null, %_ZNKSt6vectorIdSaIdEE12_M_check_lenEmPKc.exit.i.i.i.i ], [ %call5.i.i.i.i.i.i34.i, %_ZNSt16allocator_traitsISaIdEE8allocateERS0_m.exit.i.i.i.i.i ]
  %add.ptr.i.i.i.i = getelementptr inbounds double, ptr %cond.i10.i.i.i.i, i64 %sub.ptr.div.i.i.i.i.i.i
  store double %mul19.i, ptr %add.ptr.i.i.i.i, align 8
  %cmp.i.i.i11.i.i.i.i = icmp sgt i64 %sub.ptr.sub.i.i.i.i.i.i, 0
  br i1 %cmp.i.i.i11.i.i.i.i, label %if.then.i.i.i12.i.i.i.i, label %_ZNSt6vectorIdSaIdEE11_S_relocateEPdS2_S2_RS0_.exit19.i.i.i.i

if.then.i.i.i12.i.i.i.i:                          ; preds = %_ZNSt12_Vector_baseIdSaIdEE11_M_allocateEm.exit.i.i.i.i
  call void @llvm.memmove.p0.p0.i64(ptr nonnull align 8 %cond.i10.i.i.i.i, ptr align 8 %expected.sroa.0.0312.i, i64 %sub.ptr.sub.i.i.i.i.i.i, i1 false)
  br label %_ZNSt6vectorIdSaIdEE11_S_relocateEPdS2_S2_RS0_.exit19.i.i.i.i

_ZNSt6vectorIdSaIdEE11_S_relocateEPdS2_S2_RS0_.exit19.i.i.i.i: ; preds = %if.then.i.i.i12.i.i.i.i, %_ZNSt12_Vector_baseIdSaIdEE11_M_allocateEm.exit.i.i.i.i
  %add.ptr.i.i.i.i.i.i.i = getelementptr inbounds i8, ptr %cond.i10.i.i.i.i, i64 %sub.ptr.sub.i.i.i.i.i.i
  %incdec.ptr.i.i.i.i = getelementptr inbounds double, ptr %add.ptr.i.i.i.i.i.i.i, i64 1
  %tobool.not.i.i.i.i.i = icmp eq ptr %expected.sroa.0.0312.i, null
  br i1 %tobool.not.i.i.i.i.i, label %_ZNSt6vectorIdSaIdEE17_M_realloc_insertIJdEEEvN9__gnu_cxx17__normal_iteratorIPdS1_EEDpOT_.exit.i.i.i, label %if.then.i20.i.i.i.i

if.then.i20.i.i.i.i:                              ; preds = %_ZNSt6vectorIdSaIdEE11_S_relocateEPdS2_S2_RS0_.exit19.i.i.i.i
  call void @_ZdlPv(ptr noundef nonnull %expected.sroa.0.0312.i) #32
  br label %_ZNSt6vectorIdSaIdEE17_M_realloc_insertIJdEEEvN9__gnu_cxx17__normal_iteratorIPdS1_EEDpOT_.exit.i.i.i

_ZNSt6vectorIdSaIdEE17_M_realloc_insertIJdEEEvN9__gnu_cxx17__normal_iteratorIPdS1_EEDpOT_.exit.i.i.i: ; preds = %if.then.i20.i.i.i.i, %_ZNSt6vectorIdSaIdEE11_S_relocateEPdS2_S2_RS0_.exit19.i.i.i.i
  %add.ptr19.i.i.i.i = getelementptr inbounds double, ptr %cond.i10.i.i.i.i, i64 %cond.i.i.i.i.i
  br label %for.inc.i13

for.inc.i13:                                      ; preds = %_ZNSt6vectorIdSaIdEE17_M_realloc_insertIJdEEEvN9__gnu_cxx17__normal_iteratorIPdS1_EEDpOT_.exit.i.i.i, %if.then.i.i.i, %if.then.i
  %expected.sroa.18.2.i = phi ptr [ %expected.sroa.18.0310.i, %if.then.i ], [ %add.ptr19.i.i.i.i, %_ZNSt6vectorIdSaIdEE17_M_realloc_insertIJdEEEvN9__gnu_cxx17__normal_iteratorIPdS1_EEDpOT_.exit.i.i.i ], [ %expected.sroa.18.0310.i, %if.then.i.i.i ]
  %expected.sroa.9.2.i = phi ptr [ %expected.sroa.9.0311.i, %if.then.i ], [ %incdec.ptr.i.i.i.i, %_ZNSt6vectorIdSaIdEE17_M_realloc_insertIJdEEEvN9__gnu_cxx17__normal_iteratorIPdS1_EEDpOT_.exit.i.i.i ], [ %incdec.ptr.i.i32.i, %if.then.i.i.i ]
  %expected.sroa.0.3.i = phi ptr [ %expected.sroa.0.0312.i, %if.then.i ], [ %cond.i10.i.i.i.i, %_ZNSt6vectorIdSaIdEE17_M_realloc_insertIJdEEEvN9__gnu_cxx17__normal_iteratorIPdS1_EEDpOT_.exit.i.i.i ], [ %expected.sroa.0.0312.i, %if.then.i.i.i ]
  %cutoffs.sroa.32.2.i = phi ptr [ %cutoffs.sroa.32.0313.i, %if.then.i ], [ %cutoffs.sroa.32.1.i, %_ZNSt6vectorIdSaIdEE17_M_realloc_insertIJdEEEvN9__gnu_cxx17__normal_iteratorIPdS1_EEDpOT_.exit.i.i.i ], [ %cutoffs.sroa.32.1.i, %if.then.i.i.i ]
  %cutoffs.sroa.16.2.i = phi ptr [ %cutoffs.sroa.16.0314.i, %if.then.i ], [ %cutoffs.sroa.16.1.i, %_ZNSt6vectorIdSaIdEE17_M_realloc_insertIJdEEEvN9__gnu_cxx17__normal_iteratorIPdS1_EEDpOT_.exit.i.i.i ], [ %cutoffs.sroa.16.1.i, %if.then.i.i.i ]
  %cutoffs.sroa.0.3.i = phi ptr [ %cutoffs.sroa.0.0315.i, %if.then.i ], [ %cutoffs.sroa.0.2.i, %_ZNSt6vectorIdSaIdEE17_M_realloc_insertIJdEEEvN9__gnu_cxx17__normal_iteratorIPdS1_EEDpOT_.exit.i.i.i ], [ %cutoffs.sroa.0.2.i, %if.then.i.i.i ]
  %unmerged_buckets.1.i = phi i32 [ %inc.i12, %if.then.i ], [ 0, %_ZNSt6vectorIdSaIdEE17_M_realloc_insertIJdEEEvN9__gnu_cxx17__normal_iteratorIPdS1_EEDpOT_.exit.i.i.i ], [ 0, %if.then.i.i.i ]
  %inc21.i = add nuw nsw i32 %i.0317.i, 1
  %exitcond.not.i14 = icmp eq i32 %inc21.i, 100
  br i1 %exitcond.not.i14, label %for.end.i15, label %for.body.i9, !llvm.loop !28

for.end.i15:                                      ; preds = %for.inc.i13, %if.end.i75
  %i.0.lcssa.i = phi i32 [ %i.0317.i, %if.end.i75 ], [ 100, %for.inc.i13 ]
  %expected.sroa.18.0.lcssa.i = phi ptr [ %expected.sroa.18.0310.i, %if.end.i75 ], [ %expected.sroa.18.2.i, %for.inc.i13 ]
  %expected.sroa.9.0.lcssa.i = phi ptr [ %expected.sroa.9.0311.i, %if.end.i75 ], [ %expected.sroa.9.2.i, %for.inc.i13 ]
  %expected.sroa.0.0.lcssa.i = phi ptr [ %expected.sroa.0.0312.i, %if.end.i75 ], [ %expected.sroa.0.3.i, %for.inc.i13 ]
  %cutoffs.sroa.32.0.lcssa.i = phi ptr [ %cutoffs.sroa.32.0313.i, %if.end.i75 ], [ %cutoffs.sroa.32.2.i, %for.inc.i13 ]
  %cutoffs.sroa.16.0.lcssa.i = phi ptr [ %cutoffs.sroa.16.0314.i, %if.end.i75 ], [ %cutoffs.sroa.16.2.i, %for.inc.i13 ]
  %cutoffs.sroa.0.0.lcssa.i = phi ptr [ %cutoffs.sroa.0.0315.i, %if.end.i75 ], [ %cutoffs.sroa.0.3.i, %for.inc.i13 ]
  %conv2.le.i = zext nneg i32 %i.0.lcssa.i to i64
  %cmp.not.i.i37.i = icmp eq ptr %cutoffs.sroa.16.0.lcssa.i, %cutoffs.sroa.32.0.lcssa.i
  br i1 %cmp.not.i.i37.i, label %if.else.i.i40.i, label %if.then.i.i38.i

if.then.i.i38.i:                                  ; preds = %for.end.i15
  store double 0x7FF0000000000000, ptr %cutoffs.sroa.16.0.lcssa.i, align 8
  %incdec.ptr.i.i39.i = getelementptr inbounds double, ptr %cutoffs.sroa.16.0.lcssa.i, i64 1
  br label %invoke.cont24.i16

if.else.i.i40.i:                                  ; preds = %for.end.i15
  %sub.ptr.lhs.cast.i.i.i.i.i41.i = ptrtoint ptr %cutoffs.sroa.32.0.lcssa.i to i64
  %sub.ptr.rhs.cast.i.i.i.i.i42.i = ptrtoint ptr %cutoffs.sroa.0.0.lcssa.i to i64
  %sub.ptr.sub.i.i.i.i.i43.i = sub i64 %sub.ptr.lhs.cast.i.i.i.i.i41.i, %sub.ptr.rhs.cast.i.i.i.i.i42.i
  %cmp.i.i.i.i44.i = icmp eq i64 %sub.ptr.sub.i.i.i.i.i43.i, 9223372036854775800
  br i1 %cmp.i.i.i.i44.i, label %if.then.i.i.i.i68.i, label %_ZNKSt6vectorIdSaIdEE12_M_check_lenEmPKc.exit.i.i.i45.i

if.then.i.i.i.i68.i:                              ; preds = %if.else.i.i40.i
  invoke void @_ZSt20__throw_length_errorPKc(ptr noundef nonnull @.str.18) #33
          to label %.noexc69.i unwind label %lpad.loopexit.split-lp.i17.loopexit.split-lp

.noexc69.i:                                       ; preds = %if.then.i.i.i.i68.i
  unreachable

_ZNKSt6vectorIdSaIdEE12_M_check_lenEmPKc.exit.i.i.i45.i: ; preds = %if.else.i.i40.i
  %sub.ptr.div.i.i.i.i.i46.i = ashr exact i64 %sub.ptr.sub.i.i.i.i.i43.i, 3
  %.sroa.speculated.i.i.i.i47.i = call i64 @llvm.umax.i64(i64 %sub.ptr.div.i.i.i.i.i46.i, i64 1)
  %add.i.i.i.i48.i = add i64 %.sroa.speculated.i.i.i.i47.i, %sub.ptr.div.i.i.i.i.i46.i
  %cmp7.i.i.i.i49.i = icmp ult i64 %add.i.i.i.i48.i, %sub.ptr.div.i.i.i.i.i46.i
  %cmp9.i.i.i.i50.i = icmp ugt i64 %add.i.i.i.i48.i, 1152921504606846975
  %or.cond.i.i.i.i51.i = or i1 %cmp7.i.i.i.i49.i, %cmp9.i.i.i.i50.i
  %cond.i.i.i.i52.i = select i1 %or.cond.i.i.i.i51.i, i64 1152921504606846975, i64 %add.i.i.i.i48.i
  %cmp.not.i.i.i.i53.i = icmp eq i64 %cond.i.i.i.i52.i, 0
  br i1 %cmp.not.i.i.i.i53.i, label %_ZNSt12_Vector_baseIdSaIdEE11_M_allocateEm.exit.i.i.i56.i, label %_ZNSt16allocator_traitsISaIdEE8allocateERS0_m.exit.i.i.i.i54.i

_ZNSt16allocator_traitsISaIdEE8allocateERS0_m.exit.i.i.i.i54.i: ; preds = %_ZNKSt6vectorIdSaIdEE12_M_check_lenEmPKc.exit.i.i.i45.i
  %mul.i.i.i.i.i.i55.i = shl nuw nsw i64 %cond.i.i.i.i52.i, 3
  %call5.i.i.i.i.i.i71.i = invoke noalias noundef nonnull ptr @_Znwm(i64 noundef %mul.i.i.i.i.i.i55.i) #34
          to label %_ZNSt12_Vector_baseIdSaIdEE11_M_allocateEm.exit.i.i.i56.i unwind label %lpad.loopexit.split-lp.i17.loopexit

_ZNSt12_Vector_baseIdSaIdEE11_M_allocateEm.exit.i.i.i56.i: ; preds = %_ZNSt16allocator_traitsISaIdEE8allocateERS0_m.exit.i.i.i.i54.i, %_ZNKSt6vectorIdSaIdEE12_M_check_lenEmPKc.exit.i.i.i45.i
  %cond.i10.i.i.i57.i = phi ptr [ null, %_ZNKSt6vectorIdSaIdEE12_M_check_lenEmPKc.exit.i.i.i45.i ], [ %call5.i.i.i.i.i.i71.i, %_ZNSt16allocator_traitsISaIdEE8allocateERS0_m.exit.i.i.i.i54.i ]
  %add.ptr.i.i.i58.i = getelementptr inbounds double, ptr %cond.i10.i.i.i57.i, i64 %sub.ptr.div.i.i.i.i.i46.i
  store double 0x7FF0000000000000, ptr %add.ptr.i.i.i58.i, align 8
  %cmp.i.i.i11.i.i.i59.i = icmp sgt i64 %sub.ptr.sub.i.i.i.i.i43.i, 0
  br i1 %cmp.i.i.i11.i.i.i59.i, label %if.then.i.i.i12.i.i.i67.i, label %_ZNSt6vectorIdSaIdEE11_S_relocateEPdS2_S2_RS0_.exit19.i.i.i60.i

if.then.i.i.i12.i.i.i67.i:                        ; preds = %_ZNSt12_Vector_baseIdSaIdEE11_M_allocateEm.exit.i.i.i56.i
  call void @llvm.memmove.p0.p0.i64(ptr nonnull align 8 %cond.i10.i.i.i57.i, ptr align 8 %cutoffs.sroa.0.0.lcssa.i, i64 %sub.ptr.sub.i.i.i.i.i43.i, i1 false)
  br label %_ZNSt6vectorIdSaIdEE11_S_relocateEPdS2_S2_RS0_.exit19.i.i.i60.i

_ZNSt6vectorIdSaIdEE11_S_relocateEPdS2_S2_RS0_.exit19.i.i.i60.i: ; preds = %if.then.i.i.i12.i.i.i67.i, %_ZNSt12_Vector_baseIdSaIdEE11_M_allocateEm.exit.i.i.i56.i
  %add.ptr.i.i.i.i.i.i61.i = getelementptr inbounds i8, ptr %cond.i10.i.i.i57.i, i64 %sub.ptr.sub.i.i.i.i.i43.i
  %incdec.ptr.i.i.i62.i = getelementptr inbounds double, ptr %add.ptr.i.i.i.i.i.i61.i, i64 1
  %tobool.not.i.i.i.i63.i = icmp eq ptr %cutoffs.sroa.0.0.lcssa.i, null
  br i1 %tobool.not.i.i.i.i63.i, label %invoke.cont24.i16, label %if.then.i20.i.i.i64.i

if.then.i20.i.i.i64.i:                            ; preds = %_ZNSt6vectorIdSaIdEE11_S_relocateEPdS2_S2_RS0_.exit19.i.i.i60.i
  call void @_ZdlPv(ptr noundef nonnull %cutoffs.sroa.0.0.lcssa.i) #32
  br label %invoke.cont24.i16

invoke.cont24.i16:                                ; preds = %if.then.i20.i.i.i64.i, %_ZNSt6vectorIdSaIdEE11_S_relocateEPdS2_S2_RS0_.exit19.i.i.i60.i, %if.then.i.i38.i
  %cutoffs.sroa.16.3.i = phi ptr [ %incdec.ptr.i.i39.i, %if.then.i.i38.i ], [ %incdec.ptr.i.i.i62.i, %if.then.i20.i.i.i64.i ], [ %incdec.ptr.i.i.i62.i, %_ZNSt6vectorIdSaIdEE11_S_relocateEPdS2_S2_RS0_.exit19.i.i.i60.i ]
  %cutoffs.sroa.0.4.i = phi ptr [ %cutoffs.sroa.0.0.lcssa.i, %if.then.i.i38.i ], [ %cond.i10.i.i.i57.i, %if.then.i20.i.i.i64.i ], [ %cond.i10.i.i.i57.i, %_ZNSt6vectorIdSaIdEE11_S_relocateEPdS2_S2_RS0_.exit19.i.i.i60.i ]
  %add27.i = sub nsw i64 101, %conv2.le.i
  %conv28.i = uitofp i64 %add27.i to double
  %mul29.i = fmul double %conv28.i, 1.000000e-02
  %mul31.i = fmul double %mul29.i, 1.000000e+04
  %cmp.not.i.i75.i = icmp eq ptr %expected.sroa.9.0.lcssa.i, %expected.sroa.18.0.lcssa.i
  br i1 %cmp.not.i.i75.i, label %if.else.i.i78.i, label %if.then.i.i76.i

if.then.i.i76.i:                                  ; preds = %invoke.cont24.i16
  store double %mul31.i, ptr %expected.sroa.9.0.lcssa.i, align 8
  %incdec.ptr.i.i77.i = getelementptr inbounds double, ptr %expected.sroa.9.0.lcssa.i, i64 1
  br label %invoke.cont32.i

if.else.i.i78.i:                                  ; preds = %invoke.cont24.i16
  %sub.ptr.lhs.cast.i.i.i.i.i79.i = ptrtoint ptr %expected.sroa.18.0.lcssa.i to i64
  %sub.ptr.rhs.cast.i.i.i.i.i80.i = ptrtoint ptr %expected.sroa.0.0.lcssa.i to i64
  %sub.ptr.sub.i.i.i.i.i81.i = sub i64 %sub.ptr.lhs.cast.i.i.i.i.i79.i, %sub.ptr.rhs.cast.i.i.i.i.i80.i
  %cmp.i.i.i.i82.i = icmp eq i64 %sub.ptr.sub.i.i.i.i.i81.i, 9223372036854775800
  br i1 %cmp.i.i.i.i82.i, label %if.then.i.i.i.i106.i, label %_ZNKSt6vectorIdSaIdEE12_M_check_lenEmPKc.exit.i.i.i83.i

if.then.i.i.i.i106.i:                             ; preds = %if.else.i.i78.i
  invoke void @_ZSt20__throw_length_errorPKc(ptr noundef nonnull @.str.18) #33
          to label %.noexc107.i unwind label %lpad.loopexit.split-lp.i17.loopexit.split-lp

.noexc107.i:                                      ; preds = %if.then.i.i.i.i106.i
  unreachable

_ZNKSt6vectorIdSaIdEE12_M_check_lenEmPKc.exit.i.i.i83.i: ; preds = %if.else.i.i78.i
  %sub.ptr.div.i.i.i.i.i84.i = ashr exact i64 %sub.ptr.sub.i.i.i.i.i81.i, 3
  %.sroa.speculated.i.i.i.i85.i = call i64 @llvm.umax.i64(i64 %sub.ptr.div.i.i.i.i.i84.i, i64 1)
  %add.i.i.i.i86.i = add i64 %.sroa.speculated.i.i.i.i85.i, %sub.ptr.div.i.i.i.i.i84.i
  %cmp7.i.i.i.i87.i = icmp ult i64 %add.i.i.i.i86.i, %sub.ptr.div.i.i.i.i.i84.i
  %cmp9.i.i.i.i88.i = icmp ugt i64 %add.i.i.i.i86.i, 1152921504606846975
  %or.cond.i.i.i.i89.i = or i1 %cmp7.i.i.i.i87.i, %cmp9.i.i.i.i88.i
  %cond.i.i.i.i90.i = select i1 %or.cond.i.i.i.i89.i, i64 1152921504606846975, i64 %add.i.i.i.i86.i
  %cmp.not.i.i.i.i91.i = icmp eq i64 %cond.i.i.i.i90.i, 0
  br i1 %cmp.not.i.i.i.i91.i, label %_ZNSt12_Vector_baseIdSaIdEE11_M_allocateEm.exit.i.i.i94.i, label %_ZNSt16allocator_traitsISaIdEE8allocateERS0_m.exit.i.i.i.i92.i

_ZNSt16allocator_traitsISaIdEE8allocateERS0_m.exit.i.i.i.i92.i: ; preds = %_ZNKSt6vectorIdSaIdEE12_M_check_lenEmPKc.exit.i.i.i83.i
  %mul.i.i.i.i.i.i93.i = shl nuw nsw i64 %cond.i.i.i.i90.i, 3
  %call5.i.i.i.i.i.i109.i = invoke noalias noundef nonnull ptr @_Znwm(i64 noundef %mul.i.i.i.i.i.i93.i) #34
          to label %_ZNSt12_Vector_baseIdSaIdEE11_M_allocateEm.exit.i.i.i94.i unwind label %lpad.loopexit.split-lp.i17.loopexit

_ZNSt12_Vector_baseIdSaIdEE11_M_allocateEm.exit.i.i.i94.i: ; preds = %_ZNSt16allocator_traitsISaIdEE8allocateERS0_m.exit.i.i.i.i92.i, %_ZNKSt6vectorIdSaIdEE12_M_check_lenEmPKc.exit.i.i.i83.i
  %cond.i10.i.i.i95.i = phi ptr [ null, %_ZNKSt6vectorIdSaIdEE12_M_check_lenEmPKc.exit.i.i.i83.i ], [ %call5.i.i.i.i.i.i109.i, %_ZNSt16allocator_traitsISaIdEE8allocateERS0_m.exit.i.i.i.i92.i ]
  %add.ptr.i.i.i96.i = getelementptr inbounds double, ptr %cond.i10.i.i.i95.i, i64 %sub.ptr.div.i.i.i.i.i84.i
  store double %mul31.i, ptr %add.ptr.i.i.i96.i, align 8
  %cmp.i.i.i11.i.i.i97.i = icmp sgt i64 %sub.ptr.sub.i.i.i.i.i81.i, 0
  br i1 %cmp.i.i.i11.i.i.i97.i, label %if.then.i.i.i12.i.i.i105.i, label %_ZNSt6vectorIdSaIdEE11_S_relocateEPdS2_S2_RS0_.exit19.i.i.i98.i

if.then.i.i.i12.i.i.i105.i:                       ; preds = %_ZNSt12_Vector_baseIdSaIdEE11_M_allocateEm.exit.i.i.i94.i
  call void @llvm.memmove.p0.p0.i64(ptr nonnull align 8 %cond.i10.i.i.i95.i, ptr align 8 %expected.sroa.0.0.lcssa.i, i64 %sub.ptr.sub.i.i.i.i.i81.i, i1 false)
  br label %_ZNSt6vectorIdSaIdEE11_S_relocateEPdS2_S2_RS0_.exit19.i.i.i98.i

_ZNSt6vectorIdSaIdEE11_S_relocateEPdS2_S2_RS0_.exit19.i.i.i98.i: ; preds = %if.then.i.i.i12.i.i.i105.i, %_ZNSt12_Vector_baseIdSaIdEE11_M_allocateEm.exit.i.i.i94.i
  %add.ptr.i.i.i.i.i.i99.i = getelementptr inbounds i8, ptr %cond.i10.i.i.i95.i, i64 %sub.ptr.sub.i.i.i.i.i81.i
  %incdec.ptr.i.i.i100.i = getelementptr inbounds double, ptr %add.ptr.i.i.i.i.i.i99.i, i64 1
  %tobool.not.i.i.i.i101.i = icmp eq ptr %expected.sroa.0.0.lcssa.i, null
  br i1 %tobool.not.i.i.i.i101.i, label %invoke.cont32.i, label %if.then.i20.i.i.i102.i

if.then.i20.i.i.i102.i:                           ; preds = %_ZNSt6vectorIdSaIdEE11_S_relocateEPdS2_S2_RS0_.exit19.i.i.i98.i
  call void @_ZdlPv(ptr noundef nonnull %expected.sroa.0.0.lcssa.i) #32
  br label %invoke.cont32.i

invoke.cont32.i:                                  ; preds = %if.then.i20.i.i.i102.i, %_ZNSt6vectorIdSaIdEE11_S_relocateEPdS2_S2_RS0_.exit19.i.i.i98.i, %if.then.i.i76.i
  %expected.sroa.9.3.i = phi ptr [ %incdec.ptr.i.i77.i, %if.then.i.i76.i ], [ %incdec.ptr.i.i.i100.i, %if.then.i20.i.i.i102.i ], [ %incdec.ptr.i.i.i100.i, %_ZNSt6vectorIdSaIdEE11_S_relocateEPdS2_S2_RS0_.exit19.i.i.i98.i ]
  %expected.sroa.0.4.i = phi ptr [ %expected.sroa.0.0.lcssa.i, %if.then.i.i76.i ], [ %cond.i10.i.i.i95.i, %if.then.i20.i.i.i102.i ], [ %cond.i10.i.i.i95.i, %_ZNSt6vectorIdSaIdEE11_S_relocateEPdS2_S2_RS0_.exit19.i.i.i98.i ]
  %sub.ptr.lhs.cast.i.i = ptrtoint ptr %cutoffs.sroa.16.3.i to i64
  %sub.ptr.rhs.cast.i.i = ptrtoint ptr %cutoffs.sroa.0.4.i to i64
  %sub.ptr.sub.i.i = sub i64 %sub.ptr.lhs.cast.i.i, %sub.ptr.rhs.cast.i.i
  %sub.ptr.div.i.i = ashr exact i64 %sub.ptr.sub.i.i, 3
  store i64 %sub.ptr.div.i.i, ptr %ref.tmp33.i, align 8
  store i32 3, ptr %ref.tmp35.i, align 4
  %cmp.not.i112.i = icmp ult i64 %sub.ptr.div.i.i, 3
  br i1 %cmp.not.i112.i, label %if.else.i114.i, label %if.then.i113.i

if.then.i113.i:                                   ; preds = %invoke.cont32.i
  invoke void @_ZN7testing16AssertionSuccessEv(ptr nonnull sret(%"class.testing::AssertionResult") align 8 %gtest_ar.i5)
          to label %invoke.cont36.i18 unwind label %lpad.loopexit.split-lp.i17.loopexit

if.else.i114.i:                                   ; preds = %invoke.cont32.i
  invoke void @_ZN7testing8internal18CmpHelperOpFailureImiEENS_15AssertionResultEPKcS4_RKT_RKT0_S4_(ptr nonnull sret(%"class.testing::AssertionResult") align 8 %gtest_ar.i5, ptr noundef nonnull @.str.49, ptr noundef nonnull @.str.50, ptr noundef nonnull align 8 dereferenceable(8) %ref.tmp33.i, ptr noundef nonnull align 4 dereferenceable(4) %ref.tmp35.i, ptr noundef nonnull @.str.41)
          to label %invoke.cont36.i18 unwind label %lpad.loopexit.split-lp.i17.loopexit

invoke.cont36.i18:                                ; preds = %if.else.i114.i, %if.then.i113.i
  %99 = load i8, ptr %gtest_ar.i5, align 8
  %100 = and i8 %99, 1
  %tobool.i.not.i = icmp eq i8 %100, 0
  br i1 %tobool.i.not.i, label %if.else.i56, label %if.end60.i

lpad37.i57:                                       ; preds = %if.else.i56
  %101 = landingpad { ptr, i32 }
          cleanup
  br label %ehcleanup61.i58

if.else.i56:                                      ; preds = %invoke.cont36.i18
  invoke void @_ZN7testing7MessageC1Ev(ptr noundef nonnull align 8 dereferenceable(8) %ref.tmp41.i)
          to label %invoke.cont42.i unwind label %lpad37.i57

invoke.cont42.i:                                  ; preds = %if.else.i56
  %102 = load ptr, ptr %ref.tmp41.i, align 8
  %add.ptr.i.i = getelementptr inbounds i8, ptr %102, i64 16
  %103 = load double, ptr %add.ptr.i, align 8
  %call2.i117.i = invoke noundef nonnull align 8 dereferenceable(8) ptr @_ZNSolsEd(ptr noundef nonnull align 8 dereferenceable(8) %add.ptr.i.i, double noundef %103)
          to label %invoke.cont46.i unwind label %lpad45.i

invoke.cont46.i:                                  ; preds = %invoke.cont42.i
  %104 = load ptr, ptr %ref.tmp41.i, align 8
  %add.ptr.i118.i = getelementptr inbounds i8, ptr %104, i64 16
  %call2.i119.i = invoke noundef nonnull align 8 dereferenceable(8) ptr @_ZStlsISt11char_traitsIcEERSt13basic_ostreamIcT_ES5_PKc(ptr noundef nonnull align 8 dereferenceable(8) %add.ptr.i118.i, ptr noundef nonnull @.str.34)
          to label %invoke.cont48.i unwind label %lpad45.i

invoke.cont48.i:                                  ; preds = %invoke.cont46.i
  %105 = load ptr, ptr %ref.tmp41.i, align 8
  %add.ptr.i120.i = getelementptr inbounds i8, ptr %105, i64 16
  %106 = load double, ptr %beta_.i, align 16
  %call2.i121.i = invoke noundef nonnull align 8 dereferenceable(8) ptr @_ZNSolsEd(ptr noundef nonnull align 8 dereferenceable(8) %add.ptr.i120.i, double noundef %106)
          to label %invoke.cont52.i62 unwind label %lpad45.i

invoke.cont52.i62:                                ; preds = %invoke.cont48.i
  %107 = load ptr, ptr %message_.i.i.i63, align 8
  %cmp.i.i.not.i.i.i64 = icmp eq ptr %107, null
  br i1 %cmp.i.i.not.i.i.i64, label %invoke.cont55.i67, label %cond.true.i.i.i65

cond.true.i.i.i65:                                ; preds = %invoke.cont52.i62
  %call4.i.i.i66 = call noundef ptr @_ZNKSt7__cxx1112basic_stringIcSt11char_traitsIcESaIcEE5c_strEv(ptr noundef nonnull align 8 dereferenceable(32) %107) #31
  br label %invoke.cont55.i67

invoke.cont55.i67:                                ; preds = %cond.true.i.i.i65, %invoke.cont52.i62
  %cond.i.i.i68 = phi ptr [ %call4.i.i.i66, %cond.true.i.i.i65 ], [ @.str, %invoke.cont52.i62 ]
  invoke void @_ZN7testing8internal12AssertHelperC1ENS_14TestPartResult4TypeEPKciS5_(ptr noundef nonnull align 8 dereferenceable(8) %ref.tmp54.i, i32 noundef 1, ptr noundef nonnull @.str.2, i32 noundef 377, ptr noundef %cond.i.i.i68)
          to label %invoke.cont57.i69 unwind label %lpad45.i

invoke.cont57.i69:                                ; preds = %invoke.cont55.i67
  invoke void @_ZNK7testing8internal12AssertHelperaSERKNS_7MessageE(ptr noundef nonnull align 8 dereferenceable(8) %ref.tmp54.i, ptr noundef nonnull align 8 dereferenceable(8) %ref.tmp41.i)
          to label %invoke.cont59.i71 unwind label %lpad58.i70

invoke.cont59.i71:                                ; preds = %invoke.cont57.i69
  call void @_ZN7testing8internal12AssertHelperD1Ev(ptr noundef nonnull align 8 dereferenceable(8) %ref.tmp54.i) #31
  %108 = load ptr, ptr %ref.tmp41.i, align 8
  %cmp.not.i.i123.i = icmp eq ptr %108, null
  br i1 %cmp.not.i.i123.i, label %_ZN7testing7MessageD2Ev.exit.i, label %_ZNKSt14default_deleteINSt7__cxx1118basic_stringstreamIcSt11char_traitsIcESaIcEEEEclEPS5_.exit.i.i.i72

_ZNKSt14default_deleteINSt7__cxx1118basic_stringstreamIcSt11char_traitsIcESaIcEEEEclEPS5_.exit.i.i.i72: ; preds = %invoke.cont59.i71
  %vtable.i.i.i.i73 = load ptr, ptr %108, align 8
  %vfn.i.i.i.i74 = getelementptr inbounds ptr, ptr %vtable.i.i.i.i73, i64 1
  %109 = load ptr, ptr %vfn.i.i.i.i74, align 8
  call void %109(ptr noundef nonnull align 8 dereferenceable(128) %108) #31
  br label %_ZN7testing7MessageD2Ev.exit.i

_ZN7testing7MessageD2Ev.exit.i:                   ; preds = %_ZNKSt14default_deleteINSt7__cxx1118basic_stringstreamIcSt11char_traitsIcESaIcEEEEclEPS5_.exit.i.i.i72, %invoke.cont59.i71
  store ptr null, ptr %ref.tmp41.i, align 8
  br label %if.end60.i

lpad45.i:                                         ; preds = %invoke.cont55.i67, %invoke.cont48.i, %invoke.cont46.i, %invoke.cont42.i
  %110 = landingpad { ptr, i32 }
          cleanup
  br label %ehcleanup.i60

lpad58.i70:                                       ; preds = %invoke.cont57.i69
  %111 = landingpad { ptr, i32 }
          cleanup
  call void @_ZN7testing8internal12AssertHelperD1Ev(ptr noundef nonnull align 8 dereferenceable(8) %ref.tmp54.i) #31
  br label %ehcleanup.i60

ehcleanup.i60:                                    ; preds = %lpad58.i70, %lpad45.i
  %.pn.i61 = phi { ptr, i32 } [ %111, %lpad58.i70 ], [ %110, %lpad45.i ]
  %112 = load ptr, ptr %ref.tmp41.i, align 8
  %cmp.not.i.i124.i = icmp eq ptr %112, null
  br i1 %cmp.not.i.i124.i, label %_ZN7testing7MessageD2Ev.exit128.i, label %_ZNKSt14default_deleteINSt7__cxx1118basic_stringstreamIcSt11char_traitsIcESaIcEEEEclEPS5_.exit.i.i125.i

_ZNKSt14default_deleteINSt7__cxx1118basic_stringstreamIcSt11char_traitsIcESaIcEEEEclEPS5_.exit.i.i125.i: ; preds = %ehcleanup.i60
  %vtable.i.i.i126.i = load ptr, ptr %112, align 8
  %vfn.i.i.i127.i = getelementptr inbounds ptr, ptr %vtable.i.i.i126.i, i64 1
  %113 = load ptr, ptr %vfn.i.i.i127.i, align 8
  call void %113(ptr noundef nonnull align 8 dereferenceable(128) %112) #31
  br label %_ZN7testing7MessageD2Ev.exit128.i

_ZN7testing7MessageD2Ev.exit128.i:                ; preds = %_ZNKSt14default_deleteINSt7__cxx1118basic_stringstreamIcSt11char_traitsIcESaIcEEEEclEPS5_.exit.i.i125.i, %ehcleanup.i60
  store ptr null, ptr %ref.tmp41.i, align 8
  br label %ehcleanup61.i58

if.end60.i:                                       ; preds = %_ZN7testing7MessageD2Ev.exit.i, %invoke.cont36.i18
  %114 = load ptr, ptr %message_.i.i.i63, align 8
  %cmp.not.i.i129.i = icmp eq ptr %114, null
  br i1 %cmp.not.i.i129.i, label %_ZN7testing15AssertionResultD2Ev.exit.i21, label %_ZNKSt14default_deleteINSt7__cxx1112basic_stringIcSt11char_traitsIcESaIcEEEEclEPS5_.exit.i.i.i20

_ZNKSt14default_deleteINSt7__cxx1112basic_stringIcSt11char_traitsIcESaIcEEEEclEPS5_.exit.i.i.i20: ; preds = %if.end60.i
  call void @_ZNSt7__cxx1112basic_stringIcSt11char_traitsIcESaIcEED1Ev(ptr noundef nonnull align 8 dereferenceable(32) %114) #31
  call void @_ZdlPv(ptr noundef nonnull %114) #32
  br label %_ZN7testing15AssertionResultD2Ev.exit.i21

_ZN7testing15AssertionResultD2Ev.exit.i21:        ; preds = %_ZNKSt14default_deleteINSt7__cxx1112basic_stringIcSt11char_traitsIcESaIcEEEEclEPS5_.exit.i.i.i20, %if.end60.i
  store ptr null, ptr %message_.i.i.i63, align 8
  %115 = load double, ptr %add.ptr.i, align 8
  %116 = load double, ptr %beta_.i, align 16
  invoke void @_ZN4absl17beta_distributionIdE10param_typeC2Edd(ptr noundef nonnull align 8 dereferenceable(69) %dis.i6, double noundef %115, double noundef %116)
          to label %invoke.cont66.i unwind label %lpad.loopexit.split-lp.i17.loopexit

invoke.cont66.i:                                  ; preds = %_ZN7testing15AssertionResultD2Ev.exit.i21
  %cmp.i.i136.i = icmp ugt i64 %sub.ptr.div.i.i, 2305843009213693951
  br i1 %cmp.i.i136.i, label %if.then.i.i140.i, label %_ZNSt6vectorIiSaIiEE17_S_check_init_lenEmRKS0_.exit.i.i

if.then.i.i140.i:                                 ; preds = %invoke.cont66.i
  invoke void @_ZSt20__throw_length_errorPKc(ptr noundef nonnull @.str.57) #33
          to label %.noexc141.i unwind label %lpad70.i.loopexit.split-lp

.noexc141.i:                                      ; preds = %if.then.i.i140.i
  unreachable

_ZNSt6vectorIiSaIiEE17_S_check_init_lenEmRKS0_.exit.i.i: ; preds = %invoke.cont66.i
  %cmp.not.i.i.i.i137.i = icmp eq ptr %cutoffs.sroa.16.3.i, %cutoffs.sroa.0.4.i
  br i1 %cmp.not.i.i.i.i137.i, label %invoke.cont71.i, label %if.end.i.i.i.i.i.i.i.i

if.end.i.i.i.i.i.i.i.i:                           ; preds = %_ZNSt6vectorIiSaIiEE17_S_check_init_lenEmRKS0_.exit.i.i
  %mul.i.i.i.i.i.i138.i = ashr exact i64 %sub.ptr.sub.i.i, 1
  %call5.i.i.i.i2.i.i142.i = invoke noalias noundef nonnull ptr @_Znwm(i64 noundef %mul.i.i.i.i.i.i138.i) #34
          to label %call5.i.i.i.i2.i.i.noexc.i unwind label %lpad70.i.loopexit

call5.i.i.i.i2.i.i.noexc.i:                       ; preds = %if.end.i.i.i.i.i.i.i.i
  %117 = and i64 %mul.i.i.i.i.i.i138.i, -4
  call void @llvm.memset.p0.i64(ptr nonnull align 4 %call5.i.i.i.i2.i.i142.i, i8 0, i64 %117, i1 false)
  %add.ptr.i.i.i139.i = getelementptr inbounds i32, ptr %call5.i.i.i.i2.i.i142.i, i64 %sub.ptr.div.i.i
  br label %invoke.cont71.i

invoke.cont71.i:                                  ; preds = %call5.i.i.i.i2.i.i.noexc.i, %_ZNSt6vectorIiSaIiEE17_S_check_init_lenEmRKS0_.exit.i.i
  %counts.sroa.0.0.i = phi ptr [ null, %_ZNSt6vectorIiSaIiEE17_S_check_init_lenEmRKS0_.exit.i.i ], [ %call5.i.i.i.i2.i.i142.i, %call5.i.i.i.i2.i.i.noexc.i ]
  %retval.0.i.i.i.i.i.i.i.i = phi ptr [ null, %_ZNSt6vectorIiSaIiEE17_S_check_init_lenEmRKS0_.exit.i.i ], [ %add.ptr.i.i.i139.i, %call5.i.i.i.i2.i.i.noexc.i ]
  br label %for.body77.i

for.body77.i:                                     ; preds = %invoke.cont96.i, %invoke.cont71.i
  %i73.0319.i = phi i32 [ 0, %invoke.cont71.i ], [ %inc101.i, %invoke.cont96.i ]
  %118 = load i32, ptr %method_.i.i.i23, align 8
  switch i32 %118, label %if.end.i.i.i.i29 [
    i32 0, label %for.cond.i244
    i32 1, label %sw.bb3.i.i.i54
    i32 2, label %sw.bb3.i.i.i54
    i32 3, label %land.lhs.true.i.i.i.i27
  ]

for.cond.i244:                                    ; preds = %for.body77.i, %for.cond.i244.backedge
  %agg.tmp.sroa.0.0.copyload.i.i.i.i.i245 = load i64, ptr %rng_.i, align 16
  %agg.tmp.sroa.2.0.copyload.i.i.i.i.i246 = load i64, ptr %agg.tmp.sroa.2.0.state_.sroa_idx.i.i.i.i.i.i.i.i, align 8
  %coerce.sroa.2.0.insert.ext.i.i.i.i.i.i.i247 = zext i64 %agg.tmp.sroa.2.0.copyload.i.i.i.i.i246 to i128
  %coerce.sroa.2.0.insert.shift.i.i.i.i.i.i.i248 = shl nuw i128 %coerce.sroa.2.0.insert.ext.i.i.i.i.i.i.i247, 64
  %coerce.sroa.0.0.insert.ext.i.i.i.i.i.i.i249 = zext i64 %agg.tmp.sroa.0.0.copyload.i.i.i.i.i245 to i128
  %coerce.sroa.0.0.insert.insert.i.i.i.i.i.i.i250 = or disjoint i128 %coerce.sroa.2.0.insert.shift.i.i.i.i.i.i.i248, %coerce.sroa.0.0.insert.ext.i.i.i.i.i.i.i249
  %mul.i.i.i.i.i.i.i251 = mul i128 %coerce.sroa.0.0.insert.insert.i.i.i.i.i.i.i250, 47026247687942121848144207491837523525
  %coerce.sroa.0.0.insert.insert.i6.i.i.i.i.i.i252 = add i128 %mul.i.i.i.i.i.i.i251, 1442695040888963407
  %coerce3.sroa.0.0.extract.trunc.i7.i.i.i.i.i.i253 = trunc i128 %coerce.sroa.0.0.insert.insert.i6.i.i.i.i.i.i252 to i64
  %119 = lshr i128 %coerce.sroa.0.0.insert.insert.i6.i.i.i.i.i.i252, 64
  %.tr.i.i.i.i.i.i.i254 = trunc i128 %119 to i64
  %.narrow.i.i.i.i.i.i.i255 = add i64 %.tr.i.i.i.i.i.i.i254, 6364136223846793005
  %shr.i.i.i.i.i.i.i256 = lshr i64 %.narrow.i.i.i.i.i.i.i255, 58
  %xor.i.i12.i.i.i.i.i.i257 = xor i64 %.narrow.i.i.i.i.i.i.i255, %coerce3.sroa.0.0.extract.trunc.i7.i.i.i.i.i.i253
  %or.i.i.i.i.i.i.i.i258 = call noundef i64 @llvm.fshr.i64(i64 %xor.i.i12.i.i.i.i.i.i257, i64 %xor.i.i12.i.i.i.i.i.i257, i64 %shr.i.i.i.i.i.i.i256)
  %120 = call i64 @llvm.ctlz.i64(i64 %or.i.i.i.i.i.i.i.i258, i1 false), !range !18
  %and.i.i259 = and i64 %120, 63
  %shl.i.i260 = shl i64 %or.i.i.i.i.i.i.i.i258, %and.i.i259
  %shr.i.i261 = lshr i64 %shl.i.i260, 11
  %and2.i.i262 = and i64 %shr.i.i261, 4503599627370495
  %121 = shl nuw nsw i64 %120, 52
  %reass.sub431 = sub nsw i64 %and2.i.i262, %121
  %or3.i.i264 = add nsw i64 %reass.sub431, 4602678819172646912
  %122 = bitcast i64 %or3.i.i264 to double
  %coerce.sroa.2.0.insert.ext.i.i.i.i.i.i26.i265 = zext i64 %.narrow.i.i.i.i.i.i.i255 to i128
  %coerce.sroa.2.0.insert.shift.i.i.i.i.i.i27.i266 = shl nuw i128 %coerce.sroa.2.0.insert.ext.i.i.i.i.i.i26.i265, 64
  %coerce.sroa.0.0.insert.ext.i.i.i.i.i.i28.i267 = and i128 %coerce.sroa.0.0.insert.insert.i6.i.i.i.i.i.i252, 18446744073709551615
  %coerce.sroa.0.0.insert.insert.i.i.i.i.i.i29.i268 = or disjoint i128 %coerce.sroa.2.0.insert.shift.i.i.i.i.i.i27.i266, %coerce.sroa.0.0.insert.ext.i.i.i.i.i.i28.i267
  %mul.i.i.i.i.i.i30.i269 = mul i128 %coerce.sroa.0.0.insert.insert.i.i.i.i.i.i29.i268, 47026247687942121848144207491837523525
  %coerce.sroa.0.0.insert.insert.i6.i.i.i.i.i31.i270 = add i128 %mul.i.i.i.i.i.i30.i269, 1442695040888963407
  %coerce3.sroa.0.0.extract.trunc.i7.i.i.i.i.i32.i271 = trunc i128 %coerce.sroa.0.0.insert.insert.i6.i.i.i.i.i31.i270 to i64
  %123 = lshr i128 %coerce.sroa.0.0.insert.insert.i6.i.i.i.i.i31.i270, 64
  %.tr.i.i.i.i.i.i33.i272 = trunc i128 %123 to i64
  %.narrow.i.i.i.i.i.i34.i273 = add i64 %.tr.i.i.i.i.i.i33.i272, 6364136223846793005
  store i64 %coerce3.sroa.0.0.extract.trunc.i7.i.i.i.i.i32.i271, ptr %rng_.i, align 16
  store i64 %.narrow.i.i.i.i.i.i34.i273, ptr %agg.tmp.sroa.2.0.state_.sroa_idx.i.i.i.i.i.i.i.i, align 8
  %shr.i.i.i.i.i.i35.i274 = lshr i64 %.narrow.i.i.i.i.i.i34.i273, 58
  %xor.i.i12.i.i.i.i.i36.i275 = xor i64 %.narrow.i.i.i.i.i.i34.i273, %coerce3.sroa.0.0.extract.trunc.i7.i.i.i.i.i32.i271
  %or.i.i.i.i.i.i.i37.i276 = call noundef i64 @llvm.fshr.i64(i64 %xor.i.i12.i.i.i.i.i36.i275, i64 %xor.i.i12.i.i.i.i.i36.i275, i64 %shr.i.i.i.i.i.i35.i274)
  %124 = call i64 @llvm.ctlz.i64(i64 %or.i.i.i.i.i.i.i37.i276, i1 false), !range !18
  %and.i39.i277 = and i64 %124, 63
  %shl.i40.i278 = shl i64 %or.i.i.i.i.i.i.i37.i276, %and.i39.i277
  %shr.i42.i279 = lshr i64 %shl.i40.i278, 11
  %and2.i45.i280 = and i64 %shr.i42.i279, 4503599627370495
  %125 = shl nuw nsw i64 %124, 52
  %reass.sub432 = sub nsw i64 %and2.i45.i280, %125
  %or3.i46.i282 = add nsw i64 %reass.sub432, 4602678819172646912
  %126 = bitcast i64 %or3.i46.i282 to double
  %127 = load double, ptr %a_.i164, align 8
  %call6.i283 = call double @pow(double noundef %122, double noundef %127) #31
  %128 = load double, ptr %b_.i165, align 8
  %call7.i284 = call double @pow(double noundef %126, double noundef %128) #31
  %add.i285 = fadd double %call6.i283, %call7.i284
  %cmp.i286 = fcmp ogt double %add.i285, 1.000000e+00
  br i1 %cmp.i286, label %for.cond.i244.backedge, label %if.end.i287

if.end.i287:                                      ; preds = %for.cond.i244
  %cmp8.i288 = fcmp ogt double %add.i285, 0.000000e+00
  br i1 %cmp8.i288, label %if.then9.i311, label %if.end10.i289

if.then9.i311:                                    ; preds = %if.end.i287
  %div.i312 = fdiv double %call6.i283, %add.i285
  br label %invoke.cont79.i

if.end10.i289:                                    ; preds = %if.end.i287
  %call11.i290 = call double @log(double noundef %122) #31
  %129 = load double, ptr %a_.i164, align 8
  %mul.i291 = fmul double %call11.i290, %129
  %call13.i292 = call double @log(double noundef %126) #31
  %130 = load double, ptr %b_.i165, align 8
  %mul15.i293 = fmul double %call13.i292, %130
  %131 = call double @llvm.fabs.f64(double %mul.i291)
  %132 = fcmp one double %131, 0x7FF0000000000000
  %133 = call double @llvm.fabs.f64(double %mul15.i293)
  %134 = fcmp one double %133, 0x7FF0000000000000
  %or.cond.i294 = select i1 %132, i1 %134, i1 false
  br i1 %or.cond.i294, label %if.end19.i296, label %for.cond.i244.backedge

if.end19.i296:                                    ; preds = %if.end10.i289
  %cmp20.i297 = fcmp ogt double %mul.i291, %mul15.i293
  %sub25.i298 = fsub double %mul.i291, %mul15.i293
  %sub.i299 = fsub double %mul15.i293, %mul.i291
  %sub25.sink.i300 = select i1 %cmp20.i297, double %sub.i299, double %sub25.i298
  %mul15.sink.i301 = select i1 %cmp20.i297, double %mul.i291, double %mul15.i293
  %call26.i302 = call double @exp(double noundef %sub25.sink.i300) #31
  %add27.i303 = fadd double %call26.i302, 1.000000e+00
  %call28.i304 = call double @log(double noundef %add27.i303) #31
  %add29.i305 = fadd double %mul15.sink.i301, %call28.i304
  %cmp30.i306 = fcmp ogt double %add29.i305, 0.000000e+00
  br i1 %cmp30.i306, label %for.cond.i244.backedge, label %if.end32.i307

for.cond.i244.backedge:                           ; preds = %if.end19.i296, %if.end10.i289, %for.cond.i244
  br label %for.cond.i244, !llvm.loop !19

if.end32.i307:                                    ; preds = %if.end19.i296
  %sub33.i308 = fsub double %mul.i291, %add29.i305
  %call34.i309 = call double @exp(double noundef %sub33.i308) #31
  br label %invoke.cont79.i

sw.bb3.i.i.i54:                                   ; preds = %for.body77.i, %for.body77.i
  %cmp.i161 = icmp eq i32 %118, 1
  br label %for.cond.i169

for.cond.i169:                                    ; preds = %if.end24.i233, %sw.bb3.i.i.i54
  %agg.tmp.sroa.0.0.copyload.i.i.i.i.i170 = load i64, ptr %rng_.i, align 16
  %agg.tmp.sroa.2.0.copyload.i.i.i.i.i171 = load i64, ptr %agg.tmp.sroa.2.0.state_.sroa_idx.i.i.i.i.i.i.i.i, align 8
  %coerce.sroa.2.0.insert.ext.i.i.i.i.i.i.i172 = zext i64 %agg.tmp.sroa.2.0.copyload.i.i.i.i.i171 to i128
  %coerce.sroa.2.0.insert.shift.i.i.i.i.i.i.i173 = shl nuw i128 %coerce.sroa.2.0.insert.ext.i.i.i.i.i.i.i172, 64
  %coerce.sroa.0.0.insert.ext.i.i.i.i.i.i.i174 = zext i64 %agg.tmp.sroa.0.0.copyload.i.i.i.i.i170 to i128
  %coerce.sroa.0.0.insert.insert.i.i.i.i.i.i.i175 = or disjoint i128 %coerce.sroa.2.0.insert.shift.i.i.i.i.i.i.i173, %coerce.sroa.0.0.insert.ext.i.i.i.i.i.i.i174
  %mul.i.i.i.i.i.i.i176 = mul i128 %coerce.sroa.0.0.insert.insert.i.i.i.i.i.i.i175, 47026247687942121848144207491837523525
  %coerce.sroa.0.0.insert.insert.i6.i.i.i.i.i.i177 = add i128 %mul.i.i.i.i.i.i.i176, 1442695040888963407
  %coerce3.sroa.0.0.extract.trunc.i7.i.i.i.i.i.i178 = trunc i128 %coerce.sroa.0.0.insert.insert.i6.i.i.i.i.i.i177 to i64
  %135 = lshr i128 %coerce.sroa.0.0.insert.insert.i6.i.i.i.i.i.i177, 64
  %.tr.i.i.i.i.i.i.i179 = trunc i128 %135 to i64
  %.narrow.i.i.i.i.i.i.i180 = add i64 %.tr.i.i.i.i.i.i.i179, 6364136223846793005
  %shr.i.i.i.i.i.i.i181 = lshr i64 %.narrow.i.i.i.i.i.i.i180, 58
  %xor.i.i12.i.i.i.i.i.i182 = xor i64 %.narrow.i.i.i.i.i.i.i180, %coerce3.sroa.0.0.extract.trunc.i7.i.i.i.i.i.i178
  %or.i.i.i.i.i.i.i.i183 = call noundef i64 @llvm.fshr.i64(i64 %xor.i.i12.i.i.i.i.i.i182, i64 %xor.i.i12.i.i.i.i.i.i182, i64 %shr.i.i.i.i.i.i.i181)
  %136 = call i64 @llvm.ctlz.i64(i64 %or.i.i.i.i.i.i.i.i183, i1 false), !range !18
  %and.i.i184 = and i64 %136, 63
  %shl.i.i185 = shl i64 %or.i.i.i.i.i.i.i.i183, %and.i.i184
  %shr.i.i186 = lshr i64 %shl.i.i185, 11
  %and2.i.i187 = and i64 %shr.i.i186, 4503599627370495
  %137 = shl nuw nsw i64 %136, 52
  %reass.sub429 = sub nsw i64 %and2.i.i187, %137
  %or3.i.i189 = add nsw i64 %reass.sub429, 4602678819172646912
  %138 = bitcast i64 %or3.i.i189 to double
  %coerce.sroa.2.0.insert.ext.i.i.i.i.i.i27.i190 = zext i64 %.narrow.i.i.i.i.i.i.i180 to i128
  %coerce.sroa.2.0.insert.shift.i.i.i.i.i.i28.i191 = shl nuw i128 %coerce.sroa.2.0.insert.ext.i.i.i.i.i.i27.i190, 64
  %coerce.sroa.0.0.insert.ext.i.i.i.i.i.i29.i192 = and i128 %coerce.sroa.0.0.insert.insert.i6.i.i.i.i.i.i177, 18446744073709551615
  %coerce.sroa.0.0.insert.insert.i.i.i.i.i.i30.i193 = or disjoint i128 %coerce.sroa.2.0.insert.shift.i.i.i.i.i.i28.i191, %coerce.sroa.0.0.insert.ext.i.i.i.i.i.i29.i192
  %mul.i.i.i.i.i.i31.i194 = mul i128 %coerce.sroa.0.0.insert.insert.i.i.i.i.i.i30.i193, 47026247687942121848144207491837523525
  %coerce.sroa.0.0.insert.insert.i6.i.i.i.i.i32.i195 = add i128 %mul.i.i.i.i.i.i31.i194, 1442695040888963407
  %coerce3.sroa.0.0.extract.trunc.i7.i.i.i.i.i33.i196 = trunc i128 %coerce.sroa.0.0.insert.insert.i6.i.i.i.i.i32.i195 to i64
  %139 = lshr i128 %coerce.sroa.0.0.insert.insert.i6.i.i.i.i.i32.i195, 64
  %.tr.i.i.i.i.i.i34.i197 = trunc i128 %139 to i64
  %.narrow.i.i.i.i.i.i35.i198 = add i64 %.tr.i.i.i.i.i.i34.i197, 6364136223846793005
  store i64 %coerce3.sroa.0.0.extract.trunc.i7.i.i.i.i.i33.i196, ptr %rng_.i, align 16
  store i64 %.narrow.i.i.i.i.i.i35.i198, ptr %agg.tmp.sroa.2.0.state_.sroa_idx.i.i.i.i.i.i.i.i, align 8
  %shr.i.i.i.i.i.i36.i199 = lshr i64 %.narrow.i.i.i.i.i.i35.i198, 58
  %xor.i.i12.i.i.i.i.i37.i200 = xor i64 %.narrow.i.i.i.i.i.i35.i198, %coerce3.sroa.0.0.extract.trunc.i7.i.i.i.i.i33.i196
  %or.i.i.i.i.i.i.i38.i201 = call noundef i64 @llvm.fshr.i64(i64 %xor.i.i12.i.i.i.i.i37.i200, i64 %xor.i.i12.i.i.i.i.i37.i200, i64 %shr.i.i.i.i.i.i36.i199)
  %140 = call i64 @llvm.ctlz.i64(i64 %or.i.i.i.i.i.i.i38.i201, i1 false), !range !18
  %and.i40.i202 = and i64 %140, 63
  %shl.i41.i203 = shl i64 %or.i.i.i.i.i.i.i38.i201, %and.i40.i202
  %shr.i43.i204 = lshr i64 %shl.i41.i203, 11
  %and2.i46.i205 = and i64 %shr.i43.i204, 4503599627370495
  %141 = shl nuw nsw i64 %140, 52
  %reass.sub430 = sub nsw i64 %and2.i46.i205, %141
  %or3.i47.i207 = add nsw i64 %reass.sub430, 4602678819172646912
  %142 = bitcast i64 %or3.i47.i207 to double
  %143 = load double, ptr %y_.i163, align 8
  %sub.i208 = fsub double 1.000000e+00, %138
  %div.i209 = fdiv double %138, %sub.i208
  %call6.i210 = call double @log(double noundef %div.i209) #31
  %mul.i211 = fmul double %143, %call6.i210
  %144 = load double, ptr %a_.i164, align 8
  %call7.i212 = call double @exp(double noundef %mul.i211) #31
  %mul8.i213 = fmul double %144, %call7.i212
  %145 = load double, ptr %b_.i165, align 8
  %add.i214 = fadd double %145, %mul8.i213
  %div9.i215 = fdiv double 1.000000e+00, %add.i214
  %146 = load double, ptr %gamma_.i166, align 8
  %147 = call double @llvm.fmuladd.f64(double %146, double %mul.i211, double 0xBFF62E42FEFA39EF)
  %148 = load double, ptr %a_.i164, align 8
  %add12.i216 = fadd double %148, %147
  %sub13.i217 = fsub double %add12.i216, %mul8.i213
  %mul14.i218 = fmul double %138, %138
  %mul15.i219 = fmul double %mul14.i218, %142
  br i1 %cmp.i161, label %if.end.thread.i238, label %land.lhs.true.i220

if.end.thread.i238:                               ; preds = %for.cond.i169
  %call1948.i239 = call double @log(double noundef %mul15.i219) #31
  br label %if.end24.i233

land.lhs.true.i220:                               ; preds = %for.cond.i169
  %add16.i221 = fadd double %sub13.i217, 0x4004E020FBF6C69A
  %mul17.i222 = fmul double %mul15.i219, 5.000000e+00
  %cmp18.i223 = fcmp ult double %add16.i221, %mul17.i222
  br i1 %cmp18.i223, label %if.end.i230, label %_ZN4absl17beta_distributionIdE14AlgorithmChengINS_15random_internal17NonsecureURBGBaseINS3_10pcg_engineINS3_13pcg128_paramsILm2549297995355413924ELm4865540595714422341ELm6364136223846793005ELm1442695040888963407EEENS3_17pcg_xsl_rr_128_64EEENS3_17RandenPoolSeedSeqEEEEEdRT_RKNS1_10param_typeE.exit240

if.end.i230:                                      ; preds = %land.lhs.true.i220
  %call19.i231 = call double @log(double noundef %mul15.i219) #31
  %cmp22.i232 = fcmp ult double %sub13.i217, %call19.i231
  br i1 %cmp22.i232, label %if.end24.i233, label %_ZN4absl17beta_distributionIdE14AlgorithmChengINS_15random_internal17NonsecureURBGBaseINS3_10pcg_engineINS3_13pcg128_paramsILm2549297995355413924ELm4865540595714422341ELm6364136223846793005ELm1442695040888963407EEENS3_17pcg_xsl_rr_128_64EEENS3_17RandenPoolSeedSeqEEEEEdRT_RKNS1_10param_typeE.exit240

if.end24.i233:                                    ; preds = %if.end.i230, %if.end.thread.i238
  %call1951.i234 = phi double [ %call1948.i239, %if.end.thread.i238 ], [ %call19.i231, %if.end.i230 ]
  %149 = load double, ptr %x_.i.i.i.i26, align 8
  %150 = load double, ptr %log_x_.i168, align 8
  %call25.i235 = call double @log(double noundef %div9.i215) #31
  %add26.i236 = fadd double %150, %call25.i235
  %151 = call double @llvm.fmuladd.f64(double %149, double %add26.i236, double %147)
  %cmp28.i237 = fcmp ult double %151, %call1951.i234
  br i1 %cmp28.i237, label %for.cond.i169, label %_ZN4absl17beta_distributionIdE14AlgorithmChengINS_15random_internal17NonsecureURBGBaseINS3_10pcg_engineINS3_13pcg128_paramsILm2549297995355413924ELm4865540595714422341ELm6364136223846793005ELm1442695040888963407EEENS3_17pcg_xsl_rr_128_64EEENS3_17RandenPoolSeedSeqEEEEEdRT_RKNS1_10param_typeE.exit240, !llvm.loop !20

_ZN4absl17beta_distributionIdE14AlgorithmChengINS_15random_internal17NonsecureURBGBaseINS3_10pcg_engineINS3_13pcg128_paramsILm2549297995355413924ELm4865540595714422341ELm6364136223846793005ELm1442695040888963407EEENS3_17pcg_xsl_rr_128_64EEENS3_17RandenPoolSeedSeqEEEEEdRT_RKNS1_10param_typeE.exit240: ; preds = %land.lhs.true.i220, %if.end.i230, %if.end24.i233
  %152 = load i8, ptr %inverted_.i225, align 4
  %153 = and i8 %152, 1
  %tobool31.not.i226 = icmp eq i8 %153, 0
  %neg.i227 = fneg double %mul8.i213
  %154 = call double @llvm.fmuladd.f64(double %neg.i227, double %div9.i215, double 1.000000e+00)
  %mul33.i228 = fmul double %mul8.i213, %div9.i215
  %cond.i229 = select i1 %tobool31.not.i226, double %mul33.i228, double %154
  br label %invoke.cont79.i

land.lhs.true.i.i.i.i27:                          ; preds = %for.body77.i
  %155 = load double, ptr %dis.i6, align 8
  %156 = load double, ptr %beta_.i.i.i.i24, align 8
  %cmp2.i.i.i.i28 = fcmp oeq double %155, %156
  br i1 %cmp2.i.i.i.i28, label %if.then.i.i.i143.i, label %if.end.i.i.i.i29

if.then.i.i.i143.i:                               ; preds = %land.lhs.true.i.i.i.i27
  %agg.tmp.sroa.0.0.copyload.i.i.i.i.i.i.i.i38 = load i64, ptr %rng_.i, align 16
  %agg.tmp.sroa.2.0.copyload.i.i.i.i.i.i.i.i39 = load i64, ptr %agg.tmp.sroa.2.0.state_.sroa_idx.i.i.i.i.i.i.i.i, align 8
  %coerce.sroa.2.0.insert.ext.i.i.i.i.i.i.i.i.i.i40 = zext i64 %agg.tmp.sroa.2.0.copyload.i.i.i.i.i.i.i.i39 to i128
  %coerce.sroa.2.0.insert.shift.i.i.i.i.i.i.i.i.i.i41 = shl nuw i128 %coerce.sroa.2.0.insert.ext.i.i.i.i.i.i.i.i.i.i40, 64
  %coerce.sroa.0.0.insert.ext.i.i.i.i.i.i.i.i.i.i42 = zext i64 %agg.tmp.sroa.0.0.copyload.i.i.i.i.i.i.i.i38 to i128
  %coerce.sroa.0.0.insert.insert.i.i.i.i.i.i.i.i.i.i43 = or disjoint i128 %coerce.sroa.2.0.insert.shift.i.i.i.i.i.i.i.i.i.i41, %coerce.sroa.0.0.insert.ext.i.i.i.i.i.i.i.i.i.i42
  %mul.i.i.i.i.i.i.i.i.i.i44 = mul i128 %coerce.sroa.0.0.insert.insert.i.i.i.i.i.i.i.i.i.i43, 47026247687942121848144207491837523525
  %coerce.sroa.0.0.insert.insert.i6.i.i.i.i.i.i.i.i.i45 = add i128 %mul.i.i.i.i.i.i.i.i.i.i44, 1442695040888963407
  %coerce3.sroa.0.0.extract.trunc.i7.i.i.i.i.i.i.i.i.i46 = trunc i128 %coerce.sroa.0.0.insert.insert.i6.i.i.i.i.i.i.i.i.i45 to i64
  %157 = lshr i128 %coerce.sroa.0.0.insert.insert.i6.i.i.i.i.i.i.i.i.i45, 64
  %.tr.i.i.i.i.i.i.i.i.i.i47 = trunc i128 %157 to i64
  %.narrow.i.i.i.i.i.i.i.i.i.i48 = add i64 %.tr.i.i.i.i.i.i.i.i.i.i47, 6364136223846793005
  store i64 %coerce3.sroa.0.0.extract.trunc.i7.i.i.i.i.i.i.i.i.i46, ptr %rng_.i, align 16
  store i64 %.narrow.i.i.i.i.i.i.i.i.i.i48, ptr %agg.tmp.sroa.2.0.state_.sroa_idx.i.i.i.i.i.i.i.i, align 8
  %shr.i.i.i.i.i.i.i.i.i.i49 = lshr i64 %.narrow.i.i.i.i.i.i.i.i.i.i48, 58
  %xor.i.i12.i.i.i.i.i.i.i.i.i50 = xor i64 %.narrow.i.i.i.i.i.i.i.i.i.i48, %coerce3.sroa.0.0.extract.trunc.i7.i.i.i.i.i.i.i.i.i46
  %or.i.i.i.i.i.i.i.i.i.i.i51 = call noundef i64 @llvm.fshr.i64(i64 %xor.i.i12.i.i.i.i.i.i.i.i.i50, i64 %xor.i.i12.i.i.i.i.i.i.i.i.i50, i64 %shr.i.i.i.i.i.i.i.i.i.i49)
  %158 = and i64 %or.i.i.i.i.i.i.i.i.i.i.i51, 16
  %cmp3.i.i.i.i52 = icmp ne i64 %158, 0
  %conv4.i.i.i.i53 = uitofp i1 %cmp3.i.i.i.i52 to double
  br label %invoke.cont79.i

if.end.i.i.i.i29:                                 ; preds = %land.lhs.true.i.i.i.i27, %for.body77.i
  %159 = load double, ptr %x_.i.i.i.i26, align 8
  br label %invoke.cont79.i

invoke.cont79.i:                                  ; preds = %if.end32.i307, %if.then9.i311, %_ZN4absl17beta_distributionIdE14AlgorithmChengINS_15random_internal17NonsecureURBGBaseINS3_10pcg_engineINS3_13pcg128_paramsILm2549297995355413924ELm4865540595714422341ELm6364136223846793005ELm1442695040888963407EEENS3_17pcg_xsl_rr_128_64EEENS3_17RandenPoolSeedSeqEEEEEdRT_RKNS1_10param_typeE.exit240, %if.end.i.i.i.i29, %if.then.i.i.i143.i
  %retval.0.i.i.i30 = phi double [ %conv4.i.i.i.i53, %if.then.i.i.i143.i ], [ %159, %if.end.i.i.i.i29 ], [ %cond.i229, %_ZN4absl17beta_distributionIdE14AlgorithmChengINS_15random_internal17NonsecureURBGBaseINS3_10pcg_engineINS3_13pcg128_paramsILm2549297995355413924ELm4865540595714422341ELm6364136223846793005ELm1442695040888963407EEENS3_17pcg_xsl_rr_128_64EEENS3_17RandenPoolSeedSeqEEEEEdRT_RKNS1_10param_typeE.exit240 ], [ %div.i312, %if.then9.i311 ], [ %call34.i309, %if.end32.i307 ]
  br i1 %cmp.not.i.i.i.i137.i, label %invoke.cont96.i, label %while.body.i.i.i

while.body.i.i.i:                                 ; preds = %invoke.cont79.i, %while.body.i.i.i
  %__len.08.i.i.i = phi i64 [ %__len.1.i.i.i, %while.body.i.i.i ], [ %sub.ptr.div.i.i, %invoke.cont79.i ]
  %__first.sroa.0.07.i.i.i = phi ptr [ %__first.sroa.0.1.i.i.i, %while.body.i.i.i ], [ %cutoffs.sroa.0.4.i, %invoke.cont79.i ]
  %shr.i.i.i = lshr i64 %__len.08.i.i.i, 1
  %incdec.ptr.i8.sink.i.i.i.i.i = getelementptr inbounds double, ptr %__first.sroa.0.07.i.i.i, i64 %shr.i.i.i
  %160 = load double, ptr %incdec.ptr.i8.sink.i.i.i.i.i, align 8
  %cmp.i.i.i154.i = fcmp olt double %retval.0.i.i.i30, %160
  %incdec.ptr.i.i.i155.i = getelementptr inbounds double, ptr %incdec.ptr.i8.sink.i.i.i.i.i, i64 1
  %161 = xor i64 %shr.i.i.i, -1
  %sub9.i.i.i = add nsw i64 %__len.08.i.i.i, %161
  %__first.sroa.0.1.i.i.i = select i1 %cmp.i.i.i154.i, ptr %__first.sroa.0.07.i.i.i, ptr %incdec.ptr.i.i.i155.i
  %__len.1.i.i.i = select i1 %cmp.i.i.i154.i, i64 %shr.i.i.i, i64 %sub9.i.i.i
  %cmp.i.i156.i = icmp sgt i64 %__len.1.i.i.i, 0
  br i1 %cmp.i.i156.i, label %while.body.i.i.i, label %invoke.cont96.loopexit.i, !llvm.loop !29

invoke.cont96.loopexit.i:                         ; preds = %while.body.i.i.i
  %.pre.i = ptrtoint ptr %__first.sroa.0.1.i.i.i to i64
  %.pre330.i = sub i64 %.pre.i, %sub.ptr.rhs.cast.i.i
  %.pre331.i = ashr exact i64 %.pre330.i, 3
  br label %invoke.cont96.i

invoke.cont96.i:                                  ; preds = %invoke.cont96.loopexit.i, %invoke.cont79.i
  %sub.ptr.div.i.i.i.pre-phi.i = phi i64 [ %.pre331.i, %invoke.cont96.loopexit.i ], [ %sub.ptr.div.i.i, %invoke.cont79.i ]
  %add.ptr.i157.i = getelementptr inbounds i32, ptr %counts.sroa.0.0.i, i64 %sub.ptr.div.i.i.i.pre-phi.i
  %162 = load i32, ptr %add.ptr.i157.i, align 4
  %inc99.i = add nsw i32 %162, 1
  store i32 %inc99.i, ptr %add.ptr.i157.i, align 4
  %inc101.i = add nuw nsw i32 %i73.0319.i, 1
  %exitcond328.not.i = icmp eq i32 %inc101.i, 10000
  br i1 %exitcond328.not.i, label %for.end102.i, label %for.body77.i, !llvm.loop !30

ehcleanup61.i58:                                  ; preds = %_ZN7testing7MessageD2Ev.exit128.i, %lpad37.i57
  %.pn.pn.i59 = phi { ptr, i32 } [ %.pn.i61, %_ZN7testing7MessageD2Ev.exit128.i ], [ %101, %lpad37.i57 ]
  call void @_ZN7testing15AssertionResultD2Ev(ptr noundef nonnull align 8 dereferenceable(16) %gtest_ar.i5) #31
  br label %ehcleanup199.i

lpad70.i.loopexit:                                ; preds = %if.end.i.i.i.i.i.i.i.i
  %lpad.loopexit326 = landingpad { ptr, i32 }
          cleanup
  br label %ehcleanup199.i

lpad70.i.loopexit.split-lp:                       ; preds = %if.then.i.i140.i
  %lpad.loopexit.split-lp327 = landingpad { ptr, i32 }
          cleanup
  br label %ehcleanup199.i

lpad78.loopexit.i:                                ; preds = %for.body132.i
  %lpad.loopexit.i31 = landingpad { ptr, i32 }
          cleanup
  br label %ehcleanup198.i

lpad78.loopexit.split-lp.loopexit.split-lp.i:     ; preds = %for.end162.i, %_ZN4absl15random_internal9ChiSquareIN9__gnu_cxx17__normal_iteratorIPiSt6vectorIiSaIiEEEENS3_IPdS5_IdSaIdEEEEEEdT_SD_T0_SE_.exit.i
  %lpad.loopexit.split-lp282.i = landingpad { ptr, i32 }
          cleanup
  br label %ehcleanup198.i

for.end102.i:                                     ; preds = %invoke.cont96.i
  %163 = trunc i64 %sub.ptr.div.i.i to i32
  %conv105.i = add i32 %163, -1
  %cmp.i12.i.i = icmp ne ptr %counts.sroa.0.0.i, %retval.0.i.i.i.i.i.i.i.i
  %cmp.i413.i.i = icmp ne ptr %expected.sroa.0.4.i, %expected.sroa.9.3.i
  %or.cond14.i.i = select i1 %cmp.i12.i.i, i1 %cmp.i413.i.i, i1 false
  br i1 %or.cond14.i.i, label %for.body.i.i, label %_ZN4absl15random_internal9ChiSquareIN9__gnu_cxx17__normal_iteratorIPiSt6vectorIiSaIiEEEENS3_IPdS5_IdSaIdEEEEEEdT_SD_T0_SE_.exit.i

for.body.i.i:                                     ; preds = %for.end102.i, %for.body.i.i
  %chi_square.017.i.i = phi double [ %chi_square.1.i.i, %for.body.i.i ], [ 0.000000e+00, %for.end102.i ]
  %it.sroa.0.016.i.i = phi ptr [ %incdec.ptr.i.i166.i, %for.body.i.i ], [ %counts.sroa.0.0.i, %for.end102.i ]
  %eit.sroa.0.015.i.i = phi ptr [ %incdec.ptr.i5.i.i, %for.body.i.i ], [ %expected.sroa.0.4.i, %for.end102.i ]
  %164 = load double, ptr %eit.sroa.0.015.i.i, align 8
  %165 = load i32, ptr %it.sroa.0.016.i.i, align 4
  %conv.i165.i = sitofp i32 %165 to double
  %sub.i.i34 = fsub double %conv.i165.i, %164
  %cmp9.i.i = fcmp une double %sub.i.i34, 0.000000e+00
  %mul.i.i35 = fmul double %sub.i.i34, %sub.i.i34
  %div.i.i36 = fdiv double %mul.i.i35, %164
  %add.i.i37 = select i1 %cmp9.i.i, double %div.i.i36, double -0.000000e+00
  %chi_square.1.i.i = fadd double %chi_square.017.i.i, %add.i.i37
  %incdec.ptr.i.i166.i = getelementptr inbounds i32, ptr %it.sroa.0.016.i.i, i64 1
  %incdec.ptr.i5.i.i = getelementptr inbounds double, ptr %eit.sroa.0.015.i.i, i64 1
  %cmp.i.i167.i = icmp ne ptr %incdec.ptr.i.i166.i, %retval.0.i.i.i.i.i.i.i.i
  %cmp.i4.i.i = icmp ne ptr %incdec.ptr.i5.i.i, %expected.sroa.9.3.i
  %or.cond.i.i = select i1 %cmp.i.i167.i, i1 %cmp.i4.i.i, i1 false
  br i1 %or.cond.i.i, label %for.body.i.i, label %_ZN4absl15random_internal9ChiSquareIN9__gnu_cxx17__normal_iteratorIPiSt6vectorIiSaIiEEEENS3_IPdS5_IdSaIdEEEEEEdT_SD_T0_SE_.exit.i, !llvm.loop !31

_ZN4absl15random_internal9ChiSquareIN9__gnu_cxx17__normal_iteratorIPiSt6vectorIiSaIiEEEENS3_IPdS5_IdSaIdEEEEEEdT_SD_T0_SE_.exit.i: ; preds = %for.body.i.i, %for.end102.i
  %chi_square.0.lcssa.i.i = phi double [ 0.000000e+00, %for.end102.i ], [ %chi_square.1.i.i, %for.body.i.i ]
  %call125.i = invoke noundef double @_ZN4absl15random_internal15ChiSquarePValueEdi(double noundef %chi_square.0.lcssa.i.i, i32 noundef %conv105.i)
          to label %invoke.cont124.i unwind label %lpad78.loopexit.split-lp.loopexit.split-lp.i

invoke.cont124.i:                                 ; preds = %_ZN4absl15random_internal9ChiSquareIN9__gnu_cxx17__normal_iteratorIPiSt6vectorIiSaIiEEEENS3_IPdS5_IdSaIdEEEEEEdT_SD_T0_SE_.exit.i
  %cmp126.i = fcmp oge double %call125.i, 5.000000e-03
  br i1 %cmp126.i, label %if.end196.i, label %for.cond129.preheader.i

for.cond129.preheader.i:                          ; preds = %invoke.cont124.i
  br i1 %cmp.not.i.i.i.i137.i, label %for.end162.i, label %for.body132.preheader.i

for.body132.preheader.i:                          ; preds = %for.cond129.preheader.i
  %umax.i = call i64 @llvm.umax.i64(i64 %sub.ptr.div.i.i, i64 1)
  br label %for.body132.i

for.body132.i:                                    ; preds = %invoke.cont157.i, %for.body132.preheader.i
  %i128.0321.i = phi i64 [ %inc161.i, %invoke.cont157.i ], [ 0, %for.body132.preheader.i ]
  invoke void @_ZN4absl12log_internal10LogMessageC1EPKciNS1_7InfoTagE(ptr noundef nonnull align 8 dereferenceable(16) %ref.tmp134.i, ptr noundef nonnull @.str.2, i32 noundef 398) #36
          to label %invoke.cont136.i unwind label %lpad78.loopexit.i

invoke.cont136.i:                                 ; preds = %for.body132.i
  invoke void @_ZN4absl12log_internal10LogMessage19CopyToEncodedBufferILNS1_10StringTypeE0EEEvSt17basic_string_viewIcSt11char_traitsIcEE(ptr noundef nonnull align 8 dereferenceable(16) %ref.tmp134.i, i64 7, ptr nonnull @.str.51)
          to label %invoke.cont139.i unwind label %lpad138.i

invoke.cont139.i:                                 ; preds = %invoke.cont136.i
  call void @llvm.lifetime.start.p0(i64 8, ptr nonnull %v.addr.i.i4)
  store i64 %i128.0321.i, ptr %v.addr.i.i4, align 8
  %call.i174.i = invoke noundef nonnull align 8 dereferenceable(16) ptr @_ZN4absl12log_internal10LogMessagelsImTnNSt9enable_ifIXntsr4absl16HasAbslStringifyIT_EE5valueEiE4typeELi0EEERS1_RKS4_(ptr noundef nonnull align 8 dereferenceable(16) %ref.tmp134.i, ptr noundef nonnull align 8 dereferenceable(8) %v.addr.i.i4)
          to label %invoke.cont141.i unwind label %lpad138.i

invoke.cont141.i:                                 ; preds = %invoke.cont139.i
  call void @llvm.lifetime.end.p0(i64 8, ptr nonnull %v.addr.i.i4)
  invoke void @_ZN4absl12log_internal10LogMessage19CopyToEncodedBufferILNS1_10StringTypeE0EEEvSt17basic_string_viewIcSt11char_traitsIcEE(ptr noundef nonnull align 8 dereferenceable(16) %call.i174.i, i64 4, ptr nonnull @.str.52)
          to label %invoke.cont143.i unwind label %lpad138.i

invoke.cont143.i:                                 ; preds = %invoke.cont141.i
  %add.ptr.i177.i = getelementptr inbounds double, ptr %cutoffs.sroa.0.4.i, i64 %i128.0321.i
  %166 = load double, ptr %add.ptr.i177.i, align 8
  call void @llvm.lifetime.start.p0(i64 8, ptr nonnull %v.addr.i178.i)
  store double %166, ptr %v.addr.i178.i, align 8
  %call.i179.i = invoke noundef nonnull align 8 dereferenceable(16) ptr @_ZN4absl12log_internal10LogMessagelsIdTnNSt9enable_ifIXntsr4absl16HasAbslStringifyIT_EE5valueEiE4typeELi0EEERS1_RKS4_(ptr noundef nonnull align 8 dereferenceable(16) %call.i174.i, ptr noundef nonnull align 8 dereferenceable(8) %v.addr.i178.i)
          to label %invoke.cont146.i32 unwind label %lpad138.i

invoke.cont146.i32:                               ; preds = %invoke.cont143.i
  call void @llvm.lifetime.end.p0(i64 8, ptr nonnull %v.addr.i178.i)
  invoke void @_ZN4absl12log_internal10LogMessage19CopyToEncodedBufferILNS1_10StringTypeE0EEEvSt17basic_string_viewIcSt11char_traitsIcEE(ptr noundef nonnull align 8 dereferenceable(16) %call.i179.i, i64 15, ptr nonnull @.str.53)
          to label %invoke.cont148.i unwind label %lpad138.i

invoke.cont148.i:                                 ; preds = %invoke.cont146.i32
  %add.ptr.i182.i = getelementptr inbounds i32, ptr %counts.sroa.0.0.i, i64 %i128.0321.i
  %167 = load i32, ptr %add.ptr.i182.i, align 4
  call void @llvm.lifetime.start.p0(i64 4, ptr nonnull %v.addr.i183.i)
  store i32 %167, ptr %v.addr.i183.i, align 4
  %call.i184.i = invoke noundef nonnull align 8 dereferenceable(16) ptr @_ZN4absl12log_internal10LogMessagelsIiTnNSt9enable_ifIXntsr4absl16HasAbslStringifyIT_EE5valueEiE4typeELi0EEERS1_RKS4_(ptr noundef nonnull align 8 dereferenceable(16) %call.i179.i, ptr noundef nonnull align 4 dereferenceable(4) %v.addr.i183.i)
          to label %invoke.cont151.i33 unwind label %lpad138.i

invoke.cont151.i33:                               ; preds = %invoke.cont148.i
  call void @llvm.lifetime.end.p0(i64 4, ptr nonnull %v.addr.i183.i)
  invoke void @_ZN4absl12log_internal10LogMessage19CopyToEncodedBufferILNS1_10StringTypeE0EEEvSt17basic_string_viewIcSt11char_traitsIcEE(ptr noundef nonnull align 8 dereferenceable(16) %call.i184.i, i64 11, ptr nonnull @.str.54)
          to label %invoke.cont153.i unwind label %lpad138.i

invoke.cont153.i:                                 ; preds = %invoke.cont151.i33
  %add.ptr.i187.i = getelementptr inbounds double, ptr %expected.sroa.0.4.i, i64 %i128.0321.i
  %168 = load double, ptr %add.ptr.i187.i, align 8
  %conv156.i = fptosi double %168 to i32
  call void @llvm.lifetime.start.p0(i64 4, ptr nonnull %v.addr.i188.i)
  store i32 %conv156.i, ptr %v.addr.i188.i, align 4
  %call.i189.i = invoke noundef nonnull align 8 dereferenceable(16) ptr @_ZN4absl12log_internal10LogMessagelsIiTnNSt9enable_ifIXntsr4absl16HasAbslStringifyIT_EE5valueEiE4typeELi0EEERS1_RKS4_(ptr noundef nonnull align 8 dereferenceable(16) %call.i184.i, ptr noundef nonnull align 4 dereferenceable(4) %v.addr.i188.i)
          to label %invoke.cont157.i unwind label %lpad138.i

invoke.cont157.i:                                 ; preds = %invoke.cont153.i
  call void @llvm.lifetime.end.p0(i64 4, ptr nonnull %v.addr.i188.i)
  call void @_ZN4absl12log_internal10LogMessageD1Ev(ptr noundef nonnull align 8 dereferenceable(16) %ref.tmp134.i) #37
  %inc161.i = add nuw i64 %i128.0321.i, 1
  %exitcond329.not.i = icmp eq i64 %inc161.i, %umax.i
  br i1 %exitcond329.not.i, label %for.end162.i, label %for.body132.i, !llvm.loop !32

lpad138.i:                                        ; preds = %invoke.cont153.i, %invoke.cont151.i33, %invoke.cont148.i, %invoke.cont146.i32, %invoke.cont143.i, %invoke.cont141.i, %invoke.cont139.i, %invoke.cont136.i
  %169 = landingpad { ptr, i32 }
          cleanup
  call void @_ZN4absl12log_internal10LogMessageD1Ev(ptr noundef nonnull align 8 dereferenceable(16) %ref.tmp134.i) #37
  br label %ehcleanup198.i

for.end162.i:                                     ; preds = %invoke.cont157.i, %for.cond129.preheader.i
  invoke void @_ZN4absl12log_internal10LogMessageC1EPKciNS1_7InfoTagE(ptr noundef nonnull align 8 dereferenceable(16) %ref.tmp164.i, ptr noundef nonnull @.str.2, i32 noundef 402) #36
          to label %invoke.cont166.i unwind label %lpad78.loopexit.split-lp.loopexit.split-lp.i

invoke.cont166.i:                                 ; preds = %for.end162.i
  invoke void @_ZN4absl12log_internal10LogMessage19CopyToEncodedBufferILNS1_10StringTypeE0EEEvSt17basic_string_viewIcSt11char_traitsIcEE(ptr noundef nonnull align 8 dereferenceable(16) %ref.tmp164.i, i64 5, ptr nonnull @.str.33)
          to label %invoke.cont169.i unwind label %lpad168.i

invoke.cont169.i:                                 ; preds = %invoke.cont166.i
  %170 = load double, ptr %add.ptr.i, align 8
  call void @llvm.lifetime.start.p0(i64 8, ptr nonnull %v.addr.i193.i)
  store double %170, ptr %v.addr.i193.i, align 8
  %call.i194.i = invoke noundef nonnull align 8 dereferenceable(16) ptr @_ZN4absl12log_internal10LogMessagelsIdTnNSt9enable_ifIXntsr4absl16HasAbslStringifyIT_EE5valueEiE4typeELi0EEERS1_RKS4_(ptr noundef nonnull align 8 dereferenceable(16) %ref.tmp164.i, ptr noundef nonnull align 8 dereferenceable(8) %v.addr.i193.i)
          to label %invoke.cont173.i unwind label %lpad168.i

invoke.cont173.i:                                 ; preds = %invoke.cont169.i
  call void @llvm.lifetime.end.p0(i64 8, ptr nonnull %v.addr.i193.i)
  invoke void @_ZN4absl12log_internal10LogMessage19CopyToEncodedBufferILNS1_10StringTypeE0EEEvSt17basic_string_viewIcSt11char_traitsIcEE(ptr noundef nonnull align 8 dereferenceable(16) %call.i194.i, i64 2, ptr nonnull @.str.34)
          to label %invoke.cont175.i unwind label %lpad168.i

invoke.cont175.i:                                 ; preds = %invoke.cont173.i
  %171 = load double, ptr %beta_.i, align 16
  call void @llvm.lifetime.start.p0(i64 8, ptr nonnull %v.addr.i198.i)
  store double %171, ptr %v.addr.i198.i, align 8
  %call.i199.i = invoke noundef nonnull align 8 dereferenceable(16) ptr @_ZN4absl12log_internal10LogMessagelsIdTnNSt9enable_ifIXntsr4absl16HasAbslStringifyIT_EE5valueEiE4typeELi0EEERS1_RKS4_(ptr noundef nonnull align 8 dereferenceable(16) %call.i194.i, ptr noundef nonnull align 8 dereferenceable(8) %v.addr.i198.i)
          to label %invoke.cont179.i unwind label %lpad168.i

invoke.cont179.i:                                 ; preds = %invoke.cont175.i
  call void @llvm.lifetime.end.p0(i64 8, ptr nonnull %v.addr.i198.i)
  invoke void @_ZN4absl12log_internal10LogMessage19CopyToEncodedBufferILNS1_10StringTypeE0EEEvSt17basic_string_viewIcSt11char_traitsIcEE(ptr noundef nonnull align 8 dereferenceable(16) %call.i199.i, i64 2, ptr nonnull @.str.43)
          to label %invoke.cont181.i unwind label %lpad168.i

invoke.cont181.i:                                 ; preds = %invoke.cont179.i
  invoke void @_ZN4absl12log_internal10LogMessage19CopyToEncodedBufferILNS1_10StringTypeE0EEEvSt17basic_string_viewIcSt11char_traitsIcEE(ptr noundef nonnull align 8 dereferenceable(16) %call.i199.i, i64 11, ptr nonnull @_ZN4absl15random_internalL11kChiSquaredE)
          to label %invoke.cont183.i unwind label %lpad168.i

invoke.cont183.i:                                 ; preds = %invoke.cont181.i
  invoke void @_ZN4absl12log_internal10LogMessage19CopyToEncodedBufferILNS1_10StringTypeE0EEEvSt17basic_string_viewIcSt11char_traitsIcEE(ptr noundef nonnull align 8 dereferenceable(16) %call.i199.i, i64 1, ptr nonnull @.str.55)
          to label %invoke.cont185.i unwind label %lpad168.i

invoke.cont185.i:                                 ; preds = %invoke.cont183.i
  call void @llvm.lifetime.start.p0(i64 8, ptr nonnull %v.addr.i209.i)
  store double %chi_square.0.lcssa.i.i, ptr %v.addr.i209.i, align 8
  %call.i210.i = invoke noundef nonnull align 8 dereferenceable(16) ptr @_ZN4absl12log_internal10LogMessagelsIdTnNSt9enable_ifIXntsr4absl16HasAbslStringifyIT_EE5valueEiE4typeELi0EEERS1_RKS4_(ptr noundef nonnull align 8 dereferenceable(16) %call.i199.i, ptr noundef nonnull align 8 dereferenceable(8) %v.addr.i209.i)
          to label %invoke.cont187.i unwind label %lpad168.i

invoke.cont187.i:                                 ; preds = %invoke.cont185.i
  call void @llvm.lifetime.end.p0(i64 8, ptr nonnull %v.addr.i209.i)
  invoke void @_ZN4absl12log_internal10LogMessage19CopyToEncodedBufferILNS1_10StringTypeE0EEEvSt17basic_string_viewIcSt11char_traitsIcEE(ptr noundef nonnull align 8 dereferenceable(16) %call.i210.i, i64 6, ptr nonnull @.str.56)
          to label %invoke.cont189.i unwind label %lpad168.i

invoke.cont189.i:                                 ; preds = %invoke.cont187.i
  %call192.i = invoke noundef double @_ZN4absl15random_internal15ChiSquarePValueEdi(double noundef %chi_square.0.lcssa.i.i, i32 noundef %conv105.i)
          to label %invoke.cont191.i unwind label %lpad168.i

invoke.cont191.i:                                 ; preds = %invoke.cont189.i
  call void @llvm.lifetime.start.p0(i64 8, ptr nonnull %v.addr.i214.i)
  store double %call192.i, ptr %v.addr.i214.i, align 8
  %call.i215.i = invoke noundef nonnull align 8 dereferenceable(16) ptr @_ZN4absl12log_internal10LogMessagelsIdTnNSt9enable_ifIXntsr4absl16HasAbslStringifyIT_EE5valueEiE4typeELi0EEERS1_RKS4_(ptr noundef nonnull align 8 dereferenceable(16) %call.i210.i, ptr noundef nonnull align 8 dereferenceable(8) %v.addr.i214.i)
          to label %invoke.cont193.i unwind label %lpad168.i

invoke.cont193.i:                                 ; preds = %invoke.cont191.i
  call void @llvm.lifetime.end.p0(i64 8, ptr nonnull %v.addr.i214.i)
  call void @_ZN4absl12log_internal10LogMessageD1Ev(ptr noundef nonnull align 8 dereferenceable(16) %ref.tmp164.i) #37
  br label %if.end196.i

lpad168.i:                                        ; preds = %invoke.cont191.i, %invoke.cont189.i, %invoke.cont187.i, %invoke.cont185.i, %invoke.cont183.i, %invoke.cont181.i, %invoke.cont179.i, %invoke.cont175.i, %invoke.cont173.i, %invoke.cont169.i, %invoke.cont166.i
  %172 = landingpad { ptr, i32 }
          cleanup
  call void @_ZN4absl12log_internal10LogMessageD1Ev(ptr noundef nonnull align 8 dereferenceable(16) %ref.tmp164.i) #37
  br label %ehcleanup198.i

if.end196.i:                                      ; preds = %invoke.cont193.i, %invoke.cont124.i
  %tobool.not.i.i.i217.i = icmp eq ptr %counts.sroa.0.0.i, null
  br i1 %tobool.not.i.i.i217.i, label %_ZNSt6vectorIiSaIiEED2Ev.exit.i, label %if.then.i.i.i218.i

if.then.i.i.i218.i:                               ; preds = %if.end196.i
  call void @_ZdlPv(ptr noundef nonnull %counts.sroa.0.0.i) #32
  br label %_ZNSt6vectorIiSaIiEED2Ev.exit.i

_ZNSt6vectorIiSaIiEED2Ev.exit.i:                  ; preds = %if.then.i.i.i218.i, %if.end196.i
  %tobool.not.i.i.i219.i = icmp eq ptr %expected.sroa.0.4.i, null
  br i1 %tobool.not.i.i.i219.i, label %_ZNSt6vectorIdSaIdEED2Ev.exit.i, label %if.then.i.i.i220.i

if.then.i.i.i220.i:                               ; preds = %_ZNSt6vectorIiSaIiEED2Ev.exit.i
  call void @_ZdlPv(ptr noundef nonnull %expected.sroa.0.4.i) #32
  br label %_ZNSt6vectorIdSaIdEED2Ev.exit.i

_ZNSt6vectorIdSaIdEED2Ev.exit.i:                  ; preds = %if.then.i.i.i220.i, %_ZNSt6vectorIiSaIiEED2Ev.exit.i
  %tobool.not.i.i.i221.i = icmp eq ptr %cutoffs.sroa.0.4.i, null
  br i1 %tobool.not.i.i.i221.i, label %_ZN12_GLOBAL__N_120BetaDistributionTest20SingleChiSquaredTestIN4absl17beta_distributionIdEEEEbdmm.exit, label %if.then.i.i.i222.i

if.then.i.i.i222.i:                               ; preds = %_ZNSt6vectorIdSaIdEED2Ev.exit.i
  call void @_ZdlPv(ptr noundef nonnull %cutoffs.sroa.0.4.i) #32
  br label %_ZN12_GLOBAL__N_120BetaDistributionTest20SingleChiSquaredTestIN4absl17beta_distributionIdEEEEbdmm.exit

ehcleanup198.i:                                   ; preds = %lpad168.i, %lpad138.i, %lpad78.loopexit.split-lp.loopexit.split-lp.i, %lpad78.loopexit.i
  %.pn23.i = phi { ptr, i32 } [ %169, %lpad138.i ], [ %172, %lpad168.i ], [ %lpad.loopexit.i31, %lpad78.loopexit.i ], [ %lpad.loopexit.split-lp282.i, %lpad78.loopexit.split-lp.loopexit.split-lp.i ]
  %tobool.not.i.i.i224.i = icmp eq ptr %counts.sroa.0.0.i, null
  br i1 %tobool.not.i.i.i224.i, label %ehcleanup199.i, label %if.then.i.i.i225.i

if.then.i.i.i225.i:                               ; preds = %ehcleanup198.i
  call void @_ZdlPv(ptr noundef nonnull %counts.sroa.0.0.i) #32
  br label %ehcleanup199.i

ehcleanup199.i:                                   ; preds = %lpad70.i.loopexit, %lpad70.i.loopexit.split-lp, %lpad.loopexit.split-lp.i17.loopexit, %lpad.loopexit.split-lp.i17.loopexit.split-lp, %if.then.i.i.i225.i, %ehcleanup198.i, %ehcleanup61.i58, %lpad.loopexit284.i
  %expected.sroa.0.5.i = phi ptr [ %expected.sroa.0.4.i, %ehcleanup61.i58 ], [ %expected.sroa.0.4.i, %ehcleanup198.i ], [ %expected.sroa.0.4.i, %if.then.i.i.i225.i ], [ %expected.sroa.0.0312.i, %lpad.loopexit284.i ], [ %expected.sroa.0.1.ph.i.ph, %lpad.loopexit.split-lp.i17.loopexit ], [ %expected.sroa.0.1.ph.i.ph321, %lpad.loopexit.split-lp.i17.loopexit.split-lp ], [ %expected.sroa.0.4.i, %lpad70.i.loopexit ], [ %expected.sroa.0.4.i, %lpad70.i.loopexit.split-lp ]
  %cutoffs.sroa.0.5.i = phi ptr [ %cutoffs.sroa.0.4.i, %ehcleanup61.i58 ], [ %cutoffs.sroa.0.4.i, %ehcleanup198.i ], [ %cutoffs.sroa.0.4.i, %if.then.i.i.i225.i ], [ %cutoffs.sroa.0.1.ph.i, %lpad.loopexit284.i ], [ %cutoffs.sroa.0.1.ph285.i.ph, %lpad.loopexit.split-lp.i17.loopexit ], [ %cutoffs.sroa.0.1.ph285.i.ph322, %lpad.loopexit.split-lp.i17.loopexit.split-lp ], [ %cutoffs.sroa.0.4.i, %lpad70.i.loopexit ], [ %cutoffs.sroa.0.4.i, %lpad70.i.loopexit.split-lp ]
  %.pn23.pn.i = phi { ptr, i32 } [ %.pn.pn.i59, %ehcleanup61.i58 ], [ %.pn23.i, %ehcleanup198.i ], [ %.pn23.i, %if.then.i.i.i225.i ], [ %lpad.loopexit286.i, %lpad.loopexit284.i ], [ %lpad.loopexit323, %lpad.loopexit.split-lp.i17.loopexit ], [ %lpad.loopexit.split-lp324, %lpad.loopexit.split-lp.i17.loopexit.split-lp ], [ %lpad.loopexit326, %lpad70.i.loopexit ], [ %lpad.loopexit.split-lp327, %lpad70.i.loopexit.split-lp ]
  %tobool.not.i.i.i227.i = icmp eq ptr %expected.sroa.0.5.i, null
  br i1 %tobool.not.i.i.i227.i, label %_ZNSt6vectorIdSaIdEED2Ev.exit229.i, label %if.then.i.i.i228.i

if.then.i.i.i228.i:                               ; preds = %ehcleanup199.i
  call void @_ZdlPv(ptr noundef nonnull %expected.sroa.0.5.i) #32
  br label %_ZNSt6vectorIdSaIdEED2Ev.exit229.i

_ZNSt6vectorIdSaIdEED2Ev.exit229.i:               ; preds = %if.then.i.i.i228.i, %ehcleanup199.i
  %tobool.not.i.i.i230.i = icmp eq ptr %cutoffs.sroa.0.5.i, null
  br i1 %tobool.not.i.i.i230.i, label %common.resume, label %if.then.i.i.i231.i

if.then.i.i.i231.i:                               ; preds = %_ZNSt6vectorIdSaIdEED2Ev.exit229.i
  call void @_ZdlPv(ptr noundef nonnull %cutoffs.sroa.0.5.i) #32
  br label %common.resume

_ZN12_GLOBAL__N_120BetaDistributionTest20SingleChiSquaredTestIN4absl17beta_distributionIdEEEEbdmm.exit: ; preds = %_ZNSt6vectorIdSaIdEED2Ev.exit.i, %if.then.i.i.i222.i
  call void @llvm.lifetime.end.p0(i64 16, ptr nonnull %gtest_ar.i5)
  call void @llvm.lifetime.end.p0(i64 8, ptr nonnull %ref.tmp33.i)
  call void @llvm.lifetime.end.p0(i64 4, ptr nonnull %ref.tmp35.i)
  call void @llvm.lifetime.end.p0(i64 8, ptr nonnull %ref.tmp41.i)
  call void @llvm.lifetime.end.p0(i64 8, ptr nonnull %ref.tmp54.i)
  call void @llvm.lifetime.end.p0(i64 80, ptr nonnull %dis.i6)
  call void @llvm.lifetime.end.p0(i64 16, ptr nonnull %ref.tmp134.i)
  call void @llvm.lifetime.end.p0(i64 16, ptr nonnull %ref.tmp164.i)
  br i1 %cmp126.i, label %for.inc, label %if.then4

if.then4:                                         ; preds = %_ZN12_GLOBAL__N_120BetaDistributionTest20SingleChiSquaredTestIN4absl17beta_distributionIdEEEEbdmm.exit
  %173 = load i32, ptr %failed, align 4
  %inc5 = add nsw i32 %173, 1
  store i32 %inc5, ptr %failed, align 4
  br label %for.inc

for.inc:                                          ; preds = %_ZN12_GLOBAL__N_120BetaDistributionTest20SingleChiSquaredTestIN4absl17beta_distributionIdEEEEbdmm.exit, %if.then4
  %inc7 = add nuw nsw i32 %i.0424, 1
  %exitcond.not = icmp eq i32 %inc7, 20
  br i1 %exitcond.not, label %for.end, label %for.body, !llvm.loop !33

for.end:                                          ; preds = %for.inc
  store i32 5, ptr %ref.tmp, align 4
  %174 = load i32, ptr %failed, align 4, !noalias !34
  %cmp.not.i = icmp sgt i32 %174, 5
  br i1 %cmp.not.i, label %if.else.i108, label %if.then.i107

if.then.i107:                                     ; preds = %for.end
  call void @_ZN7testing16AssertionSuccessEv(ptr nonnull sret(%"class.testing::AssertionResult") align 8 %gtest_ar)
  br label %_ZN7testing8internal11CmpHelperLEIiiEENS_15AssertionResultEPKcS4_RKT_RKT0_.exit

if.else.i108:                                     ; preds = %for.end
  call void @_ZN7testing8internal18CmpHelperOpFailureIiiEENS_15AssertionResultEPKcS4_RKT_RKT0_S4_(ptr nonnull sret(%"class.testing::AssertionResult") align 8 %gtest_ar, ptr noundef nonnull @.str.23, ptr noundef nonnull @.str.24, ptr noundef nonnull align 4 dereferenceable(4) %failed, ptr noundef nonnull align 4 dereferenceable(4) %ref.tmp, ptr noundef nonnull @.str.48)
  br label %_ZN7testing8internal11CmpHelperLEIiiEENS_15AssertionResultEPKcS4_RKT_RKT0_.exit

_ZN7testing8internal11CmpHelperLEIiiEENS_15AssertionResultEPKcS4_RKT_RKT0_.exit: ; preds = %if.then.i107, %if.else.i108
  %175 = load i8, ptr %gtest_ar, align 8
  %176 = and i8 %175, 1
  %tobool.i.not = icmp eq i8 %176, 0
  br i1 %tobool.i.not, label %if.else, label %if.end19

lpad:                                             ; preds = %if.else
  %177 = landingpad { ptr, i32 }
          cleanup
  br label %ehcleanup20

if.else:                                          ; preds = %_ZN7testing8internal11CmpHelperLEIiiEENS_15AssertionResultEPKcS4_RKT_RKT0_.exit
  invoke void @_ZN7testing7MessageC1Ev(ptr noundef nonnull align 8 dereferenceable(8) %ref.tmp10)
          to label %invoke.cont11 unwind label %lpad

invoke.cont11:                                    ; preds = %if.else
  %message_.i.i109 = getelementptr inbounds %"class.testing::AssertionResult", ptr %gtest_ar, i64 0, i32 1
  %178 = load ptr, ptr %message_.i.i109, align 8
  %cmp.i.i.not.i.i = icmp eq ptr %178, null
  br i1 %cmp.i.i.not.i.i, label %invoke.cont14, label %cond.true.i.i

cond.true.i.i:                                    ; preds = %invoke.cont11
  %call4.i.i = call noundef ptr @_ZNKSt7__cxx1112basic_stringIcSt11char_traitsIcESaIcEE5c_strEv(ptr noundef nonnull align 8 dereferenceable(32) %178) #31
  br label %invoke.cont14

invoke.cont14:                                    ; preds = %cond.true.i.i, %invoke.cont11
  %cond.i.i = phi ptr [ %call4.i.i, %cond.true.i.i ], [ @.str, %invoke.cont11 ]
  invoke void @_ZN7testing8internal12AssertHelperC1ENS_14TestPartResult4TypeEPKciS5_(ptr noundef nonnull align 8 dereferenceable(8) %ref.tmp12, i32 noundef 1, ptr noundef nonnull @.str.2, i32 noundef 429, ptr noundef %cond.i.i)
          to label %invoke.cont16 unwind label %lpad13

invoke.cont16:                                    ; preds = %invoke.cont14
  invoke void @_ZNK7testing8internal12AssertHelperaSERKNS_7MessageE(ptr noundef nonnull align 8 dereferenceable(8) %ref.tmp12, ptr noundef nonnull align 8 dereferenceable(8) %ref.tmp10)
          to label %invoke.cont18 unwind label %lpad17

invoke.cont18:                                    ; preds = %invoke.cont16
  call void @_ZN7testing8internal12AssertHelperD1Ev(ptr noundef nonnull align 8 dereferenceable(8) %ref.tmp12) #31
  %179 = load ptr, ptr %ref.tmp10, align 8
  %cmp.not.i.i110 = icmp eq ptr %179, null
  br i1 %cmp.not.i.i110, label %_ZN7testing7MessageD2Ev.exit, label %_ZNKSt14default_deleteINSt7__cxx1118basic_stringstreamIcSt11char_traitsIcESaIcEEEEclEPS5_.exit.i.i

_ZNKSt14default_deleteINSt7__cxx1118basic_stringstreamIcSt11char_traitsIcESaIcEEEEclEPS5_.exit.i.i: ; preds = %invoke.cont18
  %vtable.i.i.i = load ptr, ptr %179, align 8
  %vfn.i.i.i = getelementptr inbounds ptr, ptr %vtable.i.i.i, i64 1
  %180 = load ptr, ptr %vfn.i.i.i, align 8
  call void %180(ptr noundef nonnull align 8 dereferenceable(128) %179) #31
  br label %_ZN7testing7MessageD2Ev.exit

_ZN7testing7MessageD2Ev.exit:                     ; preds = %invoke.cont18, %_ZNKSt14default_deleteINSt7__cxx1118basic_stringstreamIcSt11char_traitsIcESaIcEEEEclEPS5_.exit.i.i
  store ptr null, ptr %ref.tmp10, align 8
  br label %if.end19

lpad13:                                           ; preds = %invoke.cont14
  %181 = landingpad { ptr, i32 }
          cleanup
  br label %ehcleanup

lpad17:                                           ; preds = %invoke.cont16
  %182 = landingpad { ptr, i32 }
          cleanup
  call void @_ZN7testing8internal12AssertHelperD1Ev(ptr noundef nonnull align 8 dereferenceable(8) %ref.tmp12) #31
  br label %ehcleanup

ehcleanup:                                        ; preds = %lpad17, %lpad13
  %.pn = phi { ptr, i32 } [ %182, %lpad17 ], [ %181, %lpad13 ]
  %183 = load ptr, ptr %ref.tmp10, align 8
  %cmp.not.i.i111 = icmp eq ptr %183, null
  br i1 %cmp.not.i.i111, label %_ZN7testing7MessageD2Ev.exit115, label %_ZNKSt14default_deleteINSt7__cxx1118basic_stringstreamIcSt11char_traitsIcESaIcEEEEclEPS5_.exit.i.i112

_ZNKSt14default_deleteINSt7__cxx1118basic_stringstreamIcSt11char_traitsIcESaIcEEEEclEPS5_.exit.i.i112: ; preds = %ehcleanup
  %vtable.i.i.i113 = load ptr, ptr %183, align 8
  %vfn.i.i.i114 = getelementptr inbounds ptr, ptr %vtable.i.i.i113, i64 1
  %184 = load ptr, ptr %vfn.i.i.i114, align 8
  call void %184(ptr noundef nonnull align 8 dereferenceable(128) %183) #31
  br label %_ZN7testing7MessageD2Ev.exit115

_ZN7testing7MessageD2Ev.exit115:                  ; preds = %ehcleanup, %_ZNKSt14default_deleteINSt7__cxx1118basic_stringstreamIcSt11char_traitsIcESaIcEEEEclEPS5_.exit.i.i112
  store ptr null, ptr %ref.tmp10, align 8
  br label %ehcleanup20

if.end19:                                         ; preds = %_ZN7testing8internal11CmpHelperLEIiiEENS_15AssertionResultEPKcS4_RKT_RKT0_.exit, %_ZN7testing7MessageD2Ev.exit
  %message_.i = getelementptr inbounds %"class.testing::AssertionResult", ptr %gtest_ar, i64 0, i32 1
  %185 = load ptr, ptr %message_.i, align 8
  %cmp.not.i.i116 = icmp eq ptr %185, null
  br i1 %cmp.not.i.i116, label %_ZN7testing15AssertionResultD2Ev.exit, label %_ZNKSt14default_deleteINSt7__cxx1112basic_stringIcSt11char_traitsIcESaIcEEEEclEPS5_.exit.i.i

_ZNKSt14default_deleteINSt7__cxx1112basic_stringIcSt11char_traitsIcESaIcEEEEclEPS5_.exit.i.i: ; preds = %if.end19
  call void @_ZNSt7__cxx1112basic_stringIcSt11char_traitsIcESaIcEED1Ev(ptr noundef nonnull align 8 dereferenceable(32) %185) #31
  call void @_ZdlPv(ptr noundef nonnull %185) #32
  br label %_ZN7testing15AssertionResultD2Ev.exit

_ZN7testing15AssertionResultD2Ev.exit:            ; preds = %if.end19, %_ZNKSt14default_deleteINSt7__cxx1112basic_stringIcSt11char_traitsIcESaIcEEEEclEPS5_.exit.i.i
  ret void

ehcleanup20:                                      ; preds = %_ZN7testing7MessageD2Ev.exit115, %lpad
  %.pn.pn = phi { ptr, i32 } [ %.pn, %_ZN7testing7MessageD2Ev.exit115 ], [ %177, %lpad ]
  call void @_ZN7testing15AssertionResultD2Ev(ptr noundef nonnull align 8 dereferenceable(16) %gtest_ar) #31
  br label %common.resume
}

; Function Attrs: mustprogress nounwind uwtable
define linkonce_odr dso_local noundef ptr @_ZN7testing4Test5SetupEv(ptr noundef nonnull align 8 dereferenceable(16) %this) unnamed_addr #3 comdat align 2 {
entry:
  ret ptr null
}

; Function Attrs: nounwind uwtable
define internal void @_ZThn16_N12_GLOBAL__N_146BetaDistributionTest_TestSampleStatistics_TestD1Ev(ptr noundef %this) unnamed_addr #13 align 2 {
entry:
  %0 = getelementptr inbounds i8, ptr %this, i64 -16
  tail call void @_ZN7testing4TestD2Ev(ptr noundef nonnull align 8 dereferenceable(16) %0) #31
  ret void
}

; Function Attrs: nounwind uwtable
define internal void @_ZThn16_N12_GLOBAL__N_146BetaDistributionTest_TestSampleStatistics_TestD0Ev(ptr noundef %this) unnamed_addr #13 align 2 {
entry:
  %0 = getelementptr inbounds i8, ptr %this, i64 -16
  tail call void @_ZN7testing4TestD2Ev(ptr noundef nonnull align 8 dereferenceable(16) %0) #31
  tail call void @_ZdlPv(ptr noundef nonnull %0) #32
  ret void
}

; Function Attrs: mustprogress uwtable
define linkonce_odr dso_local noundef nonnull align 8 dereferenceable(16) ptr @_ZN7testing18WithParamInterfaceISt5tupleIJddEEE8GetParamEv() local_unnamed_addr #4 comdat align 2 personality ptr @__gxx_personality_v0 {
entry:
  %ref.tmp = alloca %"class.testing::internal::GTestLog", align 4
  %0 = load ptr, ptr @_ZN7testing18WithParamInterfaceISt5tupleIJddEEE10parameter_E, align 8
  %cmp = icmp ne ptr %0, null
  %call = tail call noundef zeroext i1 @_ZN7testing8internal6IsTrueEb(i1 noundef zeroext %cmp)
  br i1 %call, label %if.end, label %if.else

if.else:                                          ; preds = %entry
  call void @_ZN7testing8internal8GTestLogC1ENS0_16GTestLogSeverityEPKci(ptr noundef nonnull align 4 dereferenceable(4) %ref.tmp, i32 noundef 3, ptr noundef nonnull @.str.19, i32 noundef 1681)
  %call3 = invoke noundef nonnull align 8 dereferenceable(8) ptr @_ZStlsISt11char_traitsIcEERSt13basic_ostreamIcT_ES5_PKc(ptr noundef nonnull align 8 dereferenceable(8) @_ZSt4cerr, ptr noundef nonnull @.str.20)
          to label %invoke.cont2 unwind label %lpad

invoke.cont2:                                     ; preds = %if.else
  %call5 = invoke noundef nonnull align 8 dereferenceable(8) ptr @_ZStlsISt11char_traitsIcEERSt13basic_ostreamIcT_ES5_PKc(ptr noundef nonnull align 8 dereferenceable(8) %call3, ptr noundef nonnull @.str.21)
          to label %invoke.cont4 unwind label %lpad

invoke.cont4:                                     ; preds = %invoke.cont2
  %call7 = invoke noundef nonnull align 8 dereferenceable(8) ptr @_ZStlsISt11char_traitsIcEERSt13basic_ostreamIcT_ES5_PKc(ptr noundef nonnull align 8 dereferenceable(8) %call5, ptr noundef nonnull @.str.22)
          to label %invoke.cont6 unwind label %lpad

invoke.cont6:                                     ; preds = %invoke.cont4
  call void @_ZN7testing8internal8GTestLogD1Ev(ptr noundef nonnull align 4 dereferenceable(4) %ref.tmp) #31
  br label %if.end

lpad:                                             ; preds = %invoke.cont4, %invoke.cont2, %if.else
  %1 = landingpad { ptr, i32 }
          cleanup
  call void @_ZN7testing8internal8GTestLogD1Ev(ptr noundef nonnull align 4 dereferenceable(4) %ref.tmp) #31
  resume { ptr, i32 } %1

if.end:                                           ; preds = %entry, %invoke.cont6
  %2 = load ptr, ptr @_ZN7testing18WithParamInterfaceISt5tupleIJddEEE10parameter_E, align 8
  ret ptr %2
}

; Function Attrs: mustprogress nounwind uwtable
define internal void @_ZN12_GLOBAL__N_120BetaDistributionTestD2Ev(ptr noundef nonnull align 16 dereferenceable(64) %this) unnamed_addr #3 align 2 {
entry:
  tail call void @_ZN7testing4TestD2Ev(ptr noundef nonnull align 8 dereferenceable(16) %this) #31
  ret void
}

; Function Attrs: mustprogress noreturn nounwind memory(inaccessiblemem: write) uwtable
define internal void @_ZN12_GLOBAL__N_120BetaDistributionTestD0Ev(ptr nocapture nonnull readnone align 16 %this) unnamed_addr #14 align 2 {
entry:
  tail call void @llvm.trap() #35
  unreachable
}

; Function Attrs: nounwind uwtable
define internal void @_ZThn16_N12_GLOBAL__N_120BetaDistributionTestD1Ev(ptr noundef %this) unnamed_addr #13 align 2 {
entry:
  %0 = getelementptr inbounds i8, ptr %this, i64 -16
  tail call void @_ZN7testing4TestD2Ev(ptr noundef nonnull align 8 dereferenceable(16) %0) #31
  ret void
}

; Function Attrs: noreturn nounwind memory(inaccessiblemem: write) uwtable
define internal void @_ZThn16_N12_GLOBAL__N_120BetaDistributionTestD0Ev(ptr nocapture readnone %this) unnamed_addr #15 align 2 {
entry:
  tail call void @llvm.trap() #35
  unreachable
}

declare void @_ZN7testing4TestC2Ev(ptr noundef nonnull align 8 dereferenceable(16)) unnamed_addr #0

; Function Attrs: mustprogress nounwind uwtable
define linkonce_odr dso_local void @_ZN7testing13TestWithParamISt5tupleIJddEEED2Ev(ptr noundef nonnull align 8 dereferenceable(24) %this) unnamed_addr #3 comdat align 2 {
entry:
  tail call void @_ZN7testing4TestD2Ev(ptr noundef nonnull align 8 dereferenceable(16) %this) #31
  ret void
}

; Function Attrs: mustprogress nounwind uwtable
define linkonce_odr dso_local void @_ZN7testing13TestWithParamISt5tupleIJddEEED0Ev(ptr noundef nonnull align 8 dereferenceable(24) %this) unnamed_addr #3 comdat align 2 {
entry:
  tail call void @llvm.trap() #35
  unreachable
}

; Function Attrs: nounwind uwtable
define linkonce_odr dso_local void @_ZThn16_N7testing13TestWithParamISt5tupleIJddEEED1Ev(ptr noundef %this) unnamed_addr #13 comdat align 2 {
entry:
  %0 = getelementptr inbounds i8, ptr %this, i64 -16
  tail call void @_ZN7testing4TestD2Ev(ptr noundef nonnull align 8 dereferenceable(16) %0) #31
  ret void
}

; Function Attrs: nounwind uwtable
define linkonce_odr dso_local void @_ZThn16_N7testing13TestWithParamISt5tupleIJddEEED0Ev(ptr noundef %this) unnamed_addr #13 comdat align 2 {
entry:
  tail call void @llvm.trap() #35
  unreachable
}

declare noundef zeroext i1 @_ZN7testing8internal6IsTrueEb(i1 noundef zeroext) local_unnamed_addr #0

declare noundef nonnull align 8 dereferenceable(8) ptr @_ZStlsISt11char_traitsIcEERSt13basic_ostreamIcT_ES5_PKc(ptr noundef nonnull align 8 dereferenceable(8), ptr noundef) local_unnamed_addr #0

declare void @_ZN7testing8internal8GTestLogC1ENS0_16GTestLogSeverityEPKci(ptr noundef nonnull align 4 dereferenceable(4), i32 noundef, ptr noundef, i32 noundef) unnamed_addr #0

; Function Attrs: nounwind
declare void @_ZN7testing8internal8GTestLogD1Ev(ptr noundef nonnull align 4 dereferenceable(4)) unnamed_addr #1

declare void @_ZN4absl15random_internal10RandenPoolIhE4FillENS_4SpanIhEE(ptr, i64) local_unnamed_addr #0

; Function Attrs: nounwind
declare void @_ZN7testing4TestD2Ev(ptr noundef nonnull align 8 dereferenceable(16)) unnamed_addr #1

declare noundef double @_ZN4absl15random_internal26RequiredSuccessProbabilityEdi(double noundef, i32 noundef) local_unnamed_addr #0

declare void @_ZN7testing7MessageC1Ev(ptr noundef nonnull align 8 dereferenceable(8)) unnamed_addr #0

declare void @_ZN7testing8internal12AssertHelperC1ENS_14TestPartResult4TypeEPKciS5_(ptr noundef nonnull align 8 dereferenceable(8), i32 noundef, ptr noundef, i32 noundef, ptr noundef) unnamed_addr #0

declare void @_ZNK7testing8internal12AssertHelperaSERKNS_7MessageE(ptr noundef nonnull align 8 dereferenceable(8), ptr noundef nonnull align 8 dereferenceable(8)) local_unnamed_addr #0

; Function Attrs: nounwind
declare void @_ZN7testing8internal12AssertHelperD1Ev(ptr noundef nonnull align 8 dereferenceable(8)) unnamed_addr #1

; Function Attrs: mustprogress nounwind uwtable
define linkonce_odr dso_local void @_ZN7testing15AssertionResultD2Ev(ptr noundef nonnull align 8 dereferenceable(16) %this) unnamed_addr #3 comdat align 2 {
entry:
  %message_ = getelementptr inbounds %"class.testing::AssertionResult", ptr %this, i64 0, i32 1
  %0 = load ptr, ptr %message_, align 8
  %cmp.not.i = icmp eq ptr %0, null
  br i1 %cmp.not.i, label %_ZNSt10unique_ptrINSt7__cxx1112basic_stringIcSt11char_traitsIcESaIcEEESt14default_deleteIS5_EED2Ev.exit, label %_ZNKSt14default_deleteINSt7__cxx1112basic_stringIcSt11char_traitsIcESaIcEEEEclEPS5_.exit.i

_ZNKSt14default_deleteINSt7__cxx1112basic_stringIcSt11char_traitsIcESaIcEEEEclEPS5_.exit.i: ; preds = %entry
  tail call void @_ZNSt7__cxx1112basic_stringIcSt11char_traitsIcESaIcEED1Ev(ptr noundef nonnull align 8 dereferenceable(32) %0) #31
  tail call void @_ZdlPv(ptr noundef nonnull %0) #32
  br label %_ZNSt10unique_ptrINSt7__cxx1112basic_stringIcSt11char_traitsIcESaIcEEESt14default_deleteIS5_EED2Ev.exit

_ZNSt10unique_ptrINSt7__cxx1112basic_stringIcSt11char_traitsIcESaIcEEESt14default_deleteIS5_EED2Ev.exit: ; preds = %entry, %_ZNKSt14default_deleteINSt7__cxx1112basic_stringIcSt11char_traitsIcESaIcEEEEclEPS5_.exit.i
  store ptr null, ptr %message_, align 8
  ret void
}

declare void @_ZN7testing8internal30GetBoolAssertionFailureMessageB5cxx11ERKNS_15AssertionResultEPKcS5_S5_(ptr sret(%"class.std::__cxx11::basic_string") align 8, ptr noundef nonnull align 8 dereferenceable(16), ptr noundef, ptr noundef, ptr noundef) local_unnamed_addr #0

; Function Attrs: nounwind
declare noundef ptr @_ZNKSt7__cxx1112basic_stringIcSt11char_traitsIcESaIcEE5c_strEv(ptr noundef nonnull align 8 dereferenceable(32)) local_unnamed_addr #1

declare void @_ZN4absl15random_internal26ComputeDistributionMomentsENS_4SpanIKdEE(ptr sret(%"struct.absl::random_internal::DistributionMoments") align 8, ptr, i64) local_unnamed_addr #0

; Function Attrs: mustprogress nofree nounwind willreturn memory(write)
declare double @sqrt(double noundef) local_unnamed_addr #16

declare noundef double @_ZN4absl15random_internal17MaxErrorToleranceEd(double noundef) local_unnamed_addr #0

declare noundef double @_ZN4absl15random_internal6ZScoreEdRKNS0_19DistributionMomentsE(double noundef, ptr noundef nonnull align 8 dereferenceable(40)) local_unnamed_addr #0

declare noundef zeroext i1 @_ZN4absl15random_internal4NearESt17basic_string_viewIcSt11char_traitsIcEEddd(i64, ptr, double noundef, double noundef, double noundef) local_unnamed_addr #0

; Function Attrs: cold
declare void @_ZN4absl12log_internal10LogMessageC1EPKciNS1_7InfoTagE(ptr noundef nonnull align 8 dereferenceable(16), ptr noundef, i32 noundef) unnamed_addr #17

; Function Attrs: cold nounwind
declare void @_ZN4absl12log_internal10LogMessageD1Ev(ptr noundef nonnull align 8 dereferenceable(16)) unnamed_addr #18

; Function Attrs: mustprogress uwtable
define linkonce_odr dso_local void @_ZN4absl17beta_distributionIdE10param_typeC2Edd(ptr noundef nonnull align 8 dereferenceable(69) %this, double noundef %alpha, double noundef %beta) unnamed_addr #4 comdat align 2 {
entry:
  store double %alpha, ptr %this, align 8
  %beta_ = getelementptr inbounds %"class.absl::beta_distribution<>::param_type", ptr %this, i64 0, i32 1
  store double %beta, ptr %beta_, align 8
  %cmp = fcmp oeq double %alpha, 0.000000e+00
  %cmp2 = fcmp oeq double %beta, 0.000000e+00
  %or.cond = or i1 %cmp, %cmp2
  br i1 %or.cond, label %if.then, label %if.end

if.then:                                          ; preds = %entry
  %method_ = getelementptr inbounds %"class.absl::beta_distribution<>::param_type", ptr %this, i64 0, i32 8
  store i32 3, ptr %method_, align 8
  %cmp3 = fcmp oge double %alpha, %beta
  %conv = uitofp i1 %cmp3 to double
  %x_ = getelementptr inbounds %"class.absl::beta_distribution<>::param_type", ptr %this, i64 0, i32 4
  store double %conv, ptr %x_, align 8
  br label %return

if.end:                                           ; preds = %entry
  %cmp4 = fcmp olt double %beta, %alpha
  %0 = zext i1 %cmp4 to i8
  %alpha.sink = select i1 %cmp4, double %beta, double %alpha
  %1 = select i1 %cmp4, double %alpha, double %beta
  %2 = getelementptr inbounds %"class.absl::beta_distribution<>::param_type", ptr %this, i64 0, i32 9
  store i8 %0, ptr %2, align 4
  %3 = getelementptr inbounds %"class.absl::beta_distribution<>::param_type", ptr %this, i64 0, i32 2
  store double %alpha.sink, ptr %3, align 8
  %4 = getelementptr inbounds %"class.absl::beta_distribution<>::param_type", ptr %this, i64 0, i32 3
  store double %1, ptr %4, align 8
  %cmp11 = fcmp ugt double %alpha.sink, 1.000000e+00
  %cmp13 = fcmp ult double %1, 0x7F571547652B837F
  %or.cond14 = or i1 %cmp11, %cmp13
  br i1 %or.cond14, label %if.end19, label %if.then14

if.then14:                                        ; preds = %if.end
  %method_15 = getelementptr inbounds %"class.absl::beta_distribution<>::param_type", ptr %this, i64 0, i32 8
  store i32 3, ptr %method_15, align 8
  %cond17 = select i1 %cmp4, double 1.000000e+00, double 0.000000e+00
  %x_18 = getelementptr inbounds %"class.absl::beta_distribution<>::param_type", ptr %this, i64 0, i32 4
  store double %cond17, ptr %x_18, align 8
  br label %return

if.end19:                                         ; preds = %if.end
  %cmp21 = fcmp uge double %1, 1.000000e+00
  %add = fadd double %beta, %alpha
  %cmp25 = fcmp ugt double %add, 1.200000e+00
  %or.cond15 = or i1 %cmp21, %cmp25
  %cmp29 = fcmp ugt double %alpha.sink, 0x3F571547652B82FE
  %or.cond16 = and i1 %cmp29, %or.cond15
  br i1 %or.cond16, label %if.end49, label %if.then30

if.then30:                                        ; preds = %if.end19
  %method_31 = getelementptr inbounds %"class.absl::beta_distribution<>::param_type", ptr %this, i64 0, i32 8
  store i32 0, ptr %method_31, align 8
  %5 = insertelement <2 x double> poison, double %alpha, i64 0
  %6 = insertelement <2 x double> %5, double %beta, i64 1
  %7 = fdiv <2 x double> <double 1.000000e+00, double 1.000000e+00>, %6
  store <2 x double> %7, ptr %3, align 8
  %8 = tail call <2 x double> @llvm.fabs.v2f64(<2 x double> %7)
  %9 = fcmp oeq <2 x double> %8, <double 0x7FF0000000000000, double 0x7FF0000000000000>
  %shift = shufflevector <2 x i1> %9, <2 x i1> poison, <2 x i32> <i32 1, i32 poison>
  %10 = or <2 x i1> %9, %shift
  %or.cond18 = extractelement <2 x i1> %10, i64 0
  br i1 %or.cond18, label %if.then42, label %return

if.then42:                                        ; preds = %if.then30
  store i32 3, ptr %method_31, align 8
  %cond46 = select i1 %cmp4, double 1.000000e+00, double 0.000000e+00
  %x_47 = getelementptr inbounds %"class.absl::beta_distribution<>::param_type", ptr %this, i64 0, i32 4
  store double %cond46, ptr %x_47, align 8
  br label %return

if.end49:                                         ; preds = %if.end19
  %cmp52 = fcmp ult double %alpha.sink, 0x7F571547652B837F
  br i1 %cmp52, label %if.end64, label %if.then53

if.then53:                                        ; preds = %if.end49
  %method_54 = getelementptr inbounds %"class.absl::beta_distribution<>::param_type", ptr %this, i64 0, i32 8
  store i32 4, ptr %method_54, align 8
  %div57 = fdiv double %alpha.sink, %1
  %cond60 = select i1 %cmp4, double 1.000000e+00, double %div57
  %add61 = fadd double %div57, 1.000000e+00
  %div62 = fdiv double %cond60, %add61
  %x_63 = getelementptr inbounds %"class.absl::beta_distribution<>::param_type", ptr %this, i64 0, i32 4
  store double %div62, ptr %x_63, align 8
  br label %return

if.end64:                                         ; preds = %if.end49
  %x_68 = getelementptr inbounds %"class.absl::beta_distribution<>::param_type", ptr %this, i64 0, i32 4
  store double %add, ptr %x_68, align 8
  %call70 = tail call double @log(double noundef %add) #31
  %log_x_ = getelementptr inbounds %"class.absl::beta_distribution<>::param_type", ptr %this, i64 0, i32 5
  store double %call70, ptr %log_x_, align 8
  %11 = load double, ptr %3, align 8
  %cmp72 = fcmp ugt double %11, 1.000000e+00
  %method_81 = getelementptr inbounds %"class.absl::beta_distribution<>::param_type", ptr %this, i64 0, i32 8
  br i1 %cmp72, label %if.end80, label %if.then73

if.then73:                                        ; preds = %if.end64
  store i32 1, ptr %method_81, align 8
  %div76 = fdiv double 1.000000e+00, %11
  %y_ = getelementptr inbounds %"class.absl::beta_distribution<>::param_type", ptr %this, i64 0, i32 6
  store double %div76, ptr %y_, align 8
  %add79 = fadd double %11, %11
  %gamma_ = getelementptr inbounds %"class.absl::beta_distribution<>::param_type", ptr %this, i64 0, i32 7
  store double %add79, ptr %gamma_, align 8
  br label %return

if.end80:                                         ; preds = %if.end64
  store i32 2, ptr %method_81, align 8
  %sub = fadd double %11, -1.000000e+00
  %12 = load double, ptr %4, align 8
  %sub85 = fadd double %12, -1.000000e+00
  %div86 = fdiv double %sub, %sub85
  %add87 = fadd double %div86, 1.000000e+00
  %mul = fmul double %12, %div86
  %neg = fneg double %div86
  %13 = tail call double @llvm.fmuladd.f64(double %mul, double 2.000000e+00, double %neg)
  %add90 = fadd double %13, 1.000000e+00
  %div91 = fdiv double %add87, %add90
  %call92 = tail call double @sqrt(double noundef %div91) #31
  %y_93 = getelementptr inbounds %"class.absl::beta_distribution<>::param_type", ptr %this, i64 0, i32 6
  store double %call92, ptr %y_93, align 8
  %14 = load double, ptr %3, align 8
  %div96 = fdiv double 1.000000e+00, %call92
  %add97 = fadd double %div96, %14
  %gamma_98 = getelementptr inbounds %"class.absl::beta_distribution<>::param_type", ptr %this, i64 0, i32 7
  store double %add97, ptr %gamma_98, align 8
  br label %return

return:                                           ; preds = %if.then30, %if.then42, %if.end80, %if.then73, %if.then53, %if.then14, %if.then
  ret void
}

; Function Attrs: mustprogress nofree nounwind willreturn memory(write)
declare double @log(double noundef) local_unnamed_addr #16

; Function Attrs: mustprogress nocallback nofree nosync nounwind speculatable willreturn memory(none)
declare double @llvm.fmuladd.f64(double, double, double) #19

; Function Attrs: mustprogress nofree nounwind willreturn memory(write)
declare double @exp(double noundef) local_unnamed_addr #16

; Function Attrs: mustprogress nocallback nofree nosync nounwind speculatable willreturn memory(none)
declare i1 @llvm.is.fpclass.f64(double, i32 immarg) #19

; Function Attrs: mustprogress nocallback nofree nounwind willreturn memory(argmem: readwrite)
declare void @llvm.memmove.p0.p0.i64(ptr nocapture writeonly, ptr nocapture readonly, i64, i1 immarg) #12

; Function Attrs: mustprogress nofree nounwind willreturn memory(write)
declare double @pow(double noundef, double noundef) local_unnamed_addr #16

; Function Attrs: mustprogress nocallback nofree nosync nounwind speculatable willreturn memory(none)
declare i64 @llvm.ctlz.i64(i64, i1 immarg) #19

declare void @_ZN7testing16AssertionSuccessEv(ptr sret(%"class.testing::AssertionResult") align 8) local_unnamed_addr #0

; Function Attrs: mustprogress uwtable
define linkonce_odr dso_local void @_ZN7testing8internal18CmpHelperOpFailureIddEENS_15AssertionResultEPKcS4_RKT_RKT0_S4_(ptr noalias sret(%"class.testing::AssertionResult") align 8 %agg.result, ptr noundef %expr1, ptr noundef %expr2, ptr noundef nonnull align 8 dereferenceable(8) %val1, ptr noundef nonnull align 8 dereferenceable(8) %val2, ptr noundef %op) local_unnamed_addr #4 comdat personality ptr @__gxx_personality_v0 {
entry:
  %ref.tmp.i166 = alloca %"class.testing::Message", align 8
  %ss.i.i.i158 = alloca %"class.std::__cxx11::basic_stringstream", align 8
  %ref.tmp.i140 = alloca %"class.testing::Message", align 8
  %ref.tmp.i123 = alloca %"class.testing::Message", align 8
  %ss.i.i.i = alloca %"class.std::__cxx11::basic_stringstream", align 8
  %ref.tmp.i101 = alloca %"class.testing::Message", align 8
  %ref.tmp.i80 = alloca %"class.testing::Message", align 8
  %ref.tmp.i61 = alloca %"class.testing::Message", align 8
  %ref.tmp.i40 = alloca %"class.testing::Message", align 8
  %ref.tmp.i22 = alloca %"class.testing::Message", align 8
  %ref.tmp.i5 = alloca %"class.testing::Message", align 8
  %ref.tmp.i = alloca %"class.testing::Message", align 8
  %ref.tmp = alloca %"class.testing::AssertionResult", align 8
  %ref.tmp13 = alloca %"class.std::__cxx11::basic_string", align 8
  %ref.tmp20 = alloca %"class.std::__cxx11::basic_string", align 8
  call void @_ZN7testing16AssertionFailureEv(ptr nonnull sret(%"class.testing::AssertionResult") align 8 %ref.tmp)
  call void @llvm.lifetime.start.p0(i64 8, ptr nonnull %ref.tmp.i)
  invoke void @_ZN7testing7MessageC1Ev(ptr noundef nonnull align 8 dereferenceable(8) %ref.tmp.i)
          to label %.noexc unwind label %lpad

.noexc:                                           ; preds = %entry
  %0 = load ptr, ptr %ref.tmp.i, align 8
  %add.ptr.i.i = getelementptr inbounds i8, ptr %0, i64 16
  %call2.i1.i = invoke noundef nonnull align 8 dereferenceable(8) ptr @_ZStlsISt11char_traitsIcEERSt13basic_ostreamIcT_ES5_PKc(ptr noundef nonnull align 8 dereferenceable(8) %add.ptr.i.i, ptr noundef nonnull @.str.42)
          to label %invoke.cont.i unwind label %lpad.i

invoke.cont.i:                                    ; preds = %.noexc
  invoke void @_ZN7testing15AssertionResult13AppendMessageERKNS_7MessageE(ptr noundef nonnull align 8 dereferenceable(16) %ref.tmp, ptr noundef nonnull align 8 dereferenceable(8) %ref.tmp.i)
          to label %invoke.cont2.i unwind label %lpad.i

invoke.cont2.i:                                   ; preds = %invoke.cont.i
  %1 = load ptr, ptr %ref.tmp.i, align 8
  %cmp.not.i.i.i = icmp eq ptr %1, null
  br i1 %cmp.not.i.i.i, label %invoke.cont, label %_ZNKSt14default_deleteINSt7__cxx1118basic_stringstreamIcSt11char_traitsIcESaIcEEEEclEPS5_.exit.i.i.i

_ZNKSt14default_deleteINSt7__cxx1118basic_stringstreamIcSt11char_traitsIcESaIcEEEEclEPS5_.exit.i.i.i: ; preds = %invoke.cont2.i
  %vtable.i.i.i.i = load ptr, ptr %1, align 8
  %vfn.i.i.i.i = getelementptr inbounds ptr, ptr %vtable.i.i.i.i, i64 1
  %2 = load ptr, ptr %vfn.i.i.i.i, align 8
  call void %2(ptr noundef nonnull align 8 dereferenceable(128) %1) #31
  br label %invoke.cont

lpad.i:                                           ; preds = %invoke.cont.i, %.noexc
  %3 = landingpad { ptr, i32 }
          cleanup
  %4 = load ptr, ptr %ref.tmp.i, align 8
  %cmp.not.i.i2.i = icmp eq ptr %4, null
  br i1 %cmp.not.i.i2.i, label %ehcleanup26, label %_ZNKSt14default_deleteINSt7__cxx1118basic_stringstreamIcSt11char_traitsIcESaIcEEEEclEPS5_.exit.i.i3.i

_ZNKSt14default_deleteINSt7__cxx1118basic_stringstreamIcSt11char_traitsIcESaIcEEEEclEPS5_.exit.i.i3.i: ; preds = %lpad.i
  %vtable.i.i.i4.i = load ptr, ptr %4, align 8
  %vfn.i.i.i5.i = getelementptr inbounds ptr, ptr %vtable.i.i.i4.i, i64 1
  %5 = load ptr, ptr %vfn.i.i.i5.i, align 8
  call void %5(ptr noundef nonnull align 8 dereferenceable(128) %4) #31
  br label %ehcleanup26

invoke.cont:                                      ; preds = %_ZNKSt14default_deleteINSt7__cxx1118basic_stringstreamIcSt11char_traitsIcESaIcEEEEclEPS5_.exit.i.i.i, %invoke.cont2.i
  call void @llvm.lifetime.end.p0(i64 8, ptr nonnull %ref.tmp.i)
  call void @llvm.lifetime.start.p0(i64 8, ptr nonnull %ref.tmp.i5)
  invoke void @_ZN7testing7MessageC1Ev(ptr noundef nonnull align 8 dereferenceable(8) %ref.tmp.i5)
          to label %.noexc19 unwind label %lpad

.noexc19:                                         ; preds = %invoke.cont
  %cmp.i.i = icmp eq ptr %expr1, null
  %6 = load ptr, ptr %ref.tmp.i5, align 8
  %add.ptr.i.i6 = getelementptr inbounds i8, ptr %6, i64 16
  %.str.47..i.i = select i1 %cmp.i.i, ptr @.str.47, ptr %expr1
  %call6.i1.i = invoke noundef nonnull align 8 dereferenceable(8) ptr @_ZStlsISt11char_traitsIcEERSt13basic_ostreamIcT_ES5_PKc(ptr noundef nonnull align 8 dereferenceable(8) %add.ptr.i.i6, ptr noundef nonnull %.str.47..i.i)
          to label %invoke.cont.i13 unwind label %lpad.i7

invoke.cont.i13:                                  ; preds = %.noexc19
  invoke void @_ZN7testing15AssertionResult13AppendMessageERKNS_7MessageE(ptr noundef nonnull align 8 dereferenceable(16) %ref.tmp, ptr noundef nonnull align 8 dereferenceable(8) %ref.tmp.i5)
          to label %invoke.cont2.i14 unwind label %lpad.i7

invoke.cont2.i14:                                 ; preds = %invoke.cont.i13
  %7 = load ptr, ptr %ref.tmp.i5, align 8
  %cmp.not.i.i.i15 = icmp eq ptr %7, null
  br i1 %cmp.not.i.i.i15, label %invoke.cont1, label %_ZNKSt14default_deleteINSt7__cxx1118basic_stringstreamIcSt11char_traitsIcESaIcEEEEclEPS5_.exit.i.i.i16

_ZNKSt14default_deleteINSt7__cxx1118basic_stringstreamIcSt11char_traitsIcESaIcEEEEclEPS5_.exit.i.i.i16: ; preds = %invoke.cont2.i14
  %vtable.i.i.i.i17 = load ptr, ptr %7, align 8
  %vfn.i.i.i.i18 = getelementptr inbounds ptr, ptr %vtable.i.i.i.i17, i64 1
  %8 = load ptr, ptr %vfn.i.i.i.i18, align 8
  call void %8(ptr noundef nonnull align 8 dereferenceable(128) %7) #31
  br label %invoke.cont1

lpad.i7:                                          ; preds = %invoke.cont.i13, %.noexc19
  %9 = landingpad { ptr, i32 }
          cleanup
  %10 = load ptr, ptr %ref.tmp.i5, align 8
  %cmp.not.i.i2.i8 = icmp eq ptr %10, null
  br i1 %cmp.not.i.i2.i8, label %ehcleanup26, label %_ZNKSt14default_deleteINSt7__cxx1118basic_stringstreamIcSt11char_traitsIcESaIcEEEEclEPS5_.exit.i.i3.i9

_ZNKSt14default_deleteINSt7__cxx1118basic_stringstreamIcSt11char_traitsIcESaIcEEEEclEPS5_.exit.i.i3.i9: ; preds = %lpad.i7
  %vtable.i.i.i4.i10 = load ptr, ptr %10, align 8
  %vfn.i.i.i5.i11 = getelementptr inbounds ptr, ptr %vtable.i.i.i4.i10, i64 1
  %11 = load ptr, ptr %vfn.i.i.i5.i11, align 8
  call void %11(ptr noundef nonnull align 8 dereferenceable(128) %10) #31
  br label %ehcleanup26

invoke.cont1:                                     ; preds = %_ZNKSt14default_deleteINSt7__cxx1118basic_stringstreamIcSt11char_traitsIcESaIcEEEEclEPS5_.exit.i.i.i16, %invoke.cont2.i14
  call void @llvm.lifetime.end.p0(i64 8, ptr nonnull %ref.tmp.i5)
  call void @llvm.lifetime.start.p0(i64 8, ptr nonnull %ref.tmp.i22)
  invoke void @_ZN7testing7MessageC1Ev(ptr noundef nonnull align 8 dereferenceable(8) %ref.tmp.i22)
          to label %.noexc37 unwind label %lpad

.noexc37:                                         ; preds = %invoke.cont1
  %12 = load ptr, ptr %ref.tmp.i22, align 8
  %add.ptr.i.i23 = getelementptr inbounds i8, ptr %12, i64 16
  %call2.i1.i24 = invoke noundef nonnull align 8 dereferenceable(8) ptr @_ZStlsISt11char_traitsIcEERSt13basic_ostreamIcT_ES5_PKc(ptr noundef nonnull align 8 dereferenceable(8) %add.ptr.i.i23, ptr noundef nonnull @.str.43)
          to label %invoke.cont.i31 unwind label %lpad.i25

invoke.cont.i31:                                  ; preds = %.noexc37
  invoke void @_ZN7testing15AssertionResult13AppendMessageERKNS_7MessageE(ptr noundef nonnull align 8 dereferenceable(16) %ref.tmp, ptr noundef nonnull align 8 dereferenceable(8) %ref.tmp.i22)
          to label %invoke.cont2.i32 unwind label %lpad.i25

invoke.cont2.i32:                                 ; preds = %invoke.cont.i31
  %13 = load ptr, ptr %ref.tmp.i22, align 8
  %cmp.not.i.i.i33 = icmp eq ptr %13, null
  br i1 %cmp.not.i.i.i33, label %invoke.cont3, label %_ZNKSt14default_deleteINSt7__cxx1118basic_stringstreamIcSt11char_traitsIcESaIcEEEEclEPS5_.exit.i.i.i34

_ZNKSt14default_deleteINSt7__cxx1118basic_stringstreamIcSt11char_traitsIcESaIcEEEEclEPS5_.exit.i.i.i34: ; preds = %invoke.cont2.i32
  %vtable.i.i.i.i35 = load ptr, ptr %13, align 8
  %vfn.i.i.i.i36 = getelementptr inbounds ptr, ptr %vtable.i.i.i.i35, i64 1
  %14 = load ptr, ptr %vfn.i.i.i.i36, align 8
  call void %14(ptr noundef nonnull align 8 dereferenceable(128) %13) #31
  br label %invoke.cont3

lpad.i25:                                         ; preds = %invoke.cont.i31, %.noexc37
  %15 = landingpad { ptr, i32 }
          cleanup
  %16 = load ptr, ptr %ref.tmp.i22, align 8
  %cmp.not.i.i2.i26 = icmp eq ptr %16, null
  br i1 %cmp.not.i.i2.i26, label %ehcleanup26, label %_ZNKSt14default_deleteINSt7__cxx1118basic_stringstreamIcSt11char_traitsIcESaIcEEEEclEPS5_.exit.i.i3.i27

_ZNKSt14default_deleteINSt7__cxx1118basic_stringstreamIcSt11char_traitsIcESaIcEEEEclEPS5_.exit.i.i3.i27: ; preds = %lpad.i25
  %vtable.i.i.i4.i28 = load ptr, ptr %16, align 8
  %vfn.i.i.i5.i29 = getelementptr inbounds ptr, ptr %vtable.i.i.i4.i28, i64 1
  %17 = load ptr, ptr %vfn.i.i.i5.i29, align 8
  call void %17(ptr noundef nonnull align 8 dereferenceable(128) %16) #31
  br label %ehcleanup26

invoke.cont3:                                     ; preds = %_ZNKSt14default_deleteINSt7__cxx1118basic_stringstreamIcSt11char_traitsIcESaIcEEEEclEPS5_.exit.i.i.i34, %invoke.cont2.i32
  call void @llvm.lifetime.end.p0(i64 8, ptr nonnull %ref.tmp.i22)
  call void @llvm.lifetime.start.p0(i64 8, ptr nonnull %ref.tmp.i40)
  invoke void @_ZN7testing7MessageC1Ev(ptr noundef nonnull align 8 dereferenceable(8) %ref.tmp.i40)
          to label %.noexc57 unwind label %lpad

.noexc57:                                         ; preds = %invoke.cont3
  %cmp.i.i41 = icmp eq ptr %op, null
  %18 = load ptr, ptr %ref.tmp.i40, align 8
  %add.ptr.i.i42 = getelementptr inbounds i8, ptr %18, i64 16
  %.str.47..i.i43 = select i1 %cmp.i.i41, ptr @.str.47, ptr %op
  %call6.i1.i44 = invoke noundef nonnull align 8 dereferenceable(8) ptr @_ZStlsISt11char_traitsIcEERSt13basic_ostreamIcT_ES5_PKc(ptr noundef nonnull align 8 dereferenceable(8) %add.ptr.i.i42, ptr noundef nonnull %.str.47..i.i43)
          to label %invoke.cont.i51 unwind label %lpad.i45

invoke.cont.i51:                                  ; preds = %.noexc57
  invoke void @_ZN7testing15AssertionResult13AppendMessageERKNS_7MessageE(ptr noundef nonnull align 8 dereferenceable(16) %ref.tmp, ptr noundef nonnull align 8 dereferenceable(8) %ref.tmp.i40)
          to label %invoke.cont2.i52 unwind label %lpad.i45

invoke.cont2.i52:                                 ; preds = %invoke.cont.i51
  %19 = load ptr, ptr %ref.tmp.i40, align 8
  %cmp.not.i.i.i53 = icmp eq ptr %19, null
  br i1 %cmp.not.i.i.i53, label %invoke.cont5, label %_ZNKSt14default_deleteINSt7__cxx1118basic_stringstreamIcSt11char_traitsIcESaIcEEEEclEPS5_.exit.i.i.i54

_ZNKSt14default_deleteINSt7__cxx1118basic_stringstreamIcSt11char_traitsIcESaIcEEEEclEPS5_.exit.i.i.i54: ; preds = %invoke.cont2.i52
  %vtable.i.i.i.i55 = load ptr, ptr %19, align 8
  %vfn.i.i.i.i56 = getelementptr inbounds ptr, ptr %vtable.i.i.i.i55, i64 1
  %20 = load ptr, ptr %vfn.i.i.i.i56, align 8
  call void %20(ptr noundef nonnull align 8 dereferenceable(128) %19) #31
  br label %invoke.cont5

lpad.i45:                                         ; preds = %invoke.cont.i51, %.noexc57
  %21 = landingpad { ptr, i32 }
          cleanup
  %22 = load ptr, ptr %ref.tmp.i40, align 8
  %cmp.not.i.i2.i46 = icmp eq ptr %22, null
  br i1 %cmp.not.i.i2.i46, label %ehcleanup26, label %_ZNKSt14default_deleteINSt7__cxx1118basic_stringstreamIcSt11char_traitsIcESaIcEEEEclEPS5_.exit.i.i3.i47

_ZNKSt14default_deleteINSt7__cxx1118basic_stringstreamIcSt11char_traitsIcESaIcEEEEclEPS5_.exit.i.i3.i47: ; preds = %lpad.i45
  %vtable.i.i.i4.i48 = load ptr, ptr %22, align 8
  %vfn.i.i.i5.i49 = getelementptr inbounds ptr, ptr %vtable.i.i.i4.i48, i64 1
  %23 = load ptr, ptr %vfn.i.i.i5.i49, align 8
  call void %23(ptr noundef nonnull align 8 dereferenceable(128) %22) #31
  br label %ehcleanup26

invoke.cont5:                                     ; preds = %_ZNKSt14default_deleteINSt7__cxx1118basic_stringstreamIcSt11char_traitsIcESaIcEEEEclEPS5_.exit.i.i.i54, %invoke.cont2.i52
  call void @llvm.lifetime.end.p0(i64 8, ptr nonnull %ref.tmp.i40)
  call void @llvm.lifetime.start.p0(i64 8, ptr nonnull %ref.tmp.i61)
  invoke void @_ZN7testing7MessageC1Ev(ptr noundef nonnull align 8 dereferenceable(8) %ref.tmp.i61)
          to label %.noexc76 unwind label %lpad

.noexc76:                                         ; preds = %invoke.cont5
  %24 = load ptr, ptr %ref.tmp.i61, align 8
  %add.ptr.i.i62 = getelementptr inbounds i8, ptr %24, i64 16
  %call2.i1.i63 = invoke noundef nonnull align 8 dereferenceable(8) ptr @_ZStlsISt11char_traitsIcEERSt13basic_ostreamIcT_ES5_PKc(ptr noundef nonnull align 8 dereferenceable(8) %add.ptr.i.i62, ptr noundef nonnull @.str.44)
          to label %invoke.cont.i70 unwind label %lpad.i64

invoke.cont.i70:                                  ; preds = %.noexc76
  invoke void @_ZN7testing15AssertionResult13AppendMessageERKNS_7MessageE(ptr noundef nonnull align 8 dereferenceable(16) %ref.tmp, ptr noundef nonnull align 8 dereferenceable(8) %ref.tmp.i61)
          to label %invoke.cont2.i71 unwind label %lpad.i64

invoke.cont2.i71:                                 ; preds = %invoke.cont.i70
  %25 = load ptr, ptr %ref.tmp.i61, align 8
  %cmp.not.i.i.i72 = icmp eq ptr %25, null
  br i1 %cmp.not.i.i.i72, label %invoke.cont7, label %_ZNKSt14default_deleteINSt7__cxx1118basic_stringstreamIcSt11char_traitsIcESaIcEEEEclEPS5_.exit.i.i.i73

_ZNKSt14default_deleteINSt7__cxx1118basic_stringstreamIcSt11char_traitsIcESaIcEEEEclEPS5_.exit.i.i.i73: ; preds = %invoke.cont2.i71
  %vtable.i.i.i.i74 = load ptr, ptr %25, align 8
  %vfn.i.i.i.i75 = getelementptr inbounds ptr, ptr %vtable.i.i.i.i74, i64 1
  %26 = load ptr, ptr %vfn.i.i.i.i75, align 8
  call void %26(ptr noundef nonnull align 8 dereferenceable(128) %25) #31
  br label %invoke.cont7

lpad.i64:                                         ; preds = %invoke.cont.i70, %.noexc76
  %27 = landingpad { ptr, i32 }
          cleanup
  %28 = load ptr, ptr %ref.tmp.i61, align 8
  %cmp.not.i.i2.i65 = icmp eq ptr %28, null
  br i1 %cmp.not.i.i2.i65, label %ehcleanup26, label %_ZNKSt14default_deleteINSt7__cxx1118basic_stringstreamIcSt11char_traitsIcESaIcEEEEclEPS5_.exit.i.i3.i66

_ZNKSt14default_deleteINSt7__cxx1118basic_stringstreamIcSt11char_traitsIcESaIcEEEEclEPS5_.exit.i.i3.i66: ; preds = %lpad.i64
  %vtable.i.i.i4.i67 = load ptr, ptr %28, align 8
  %vfn.i.i.i5.i68 = getelementptr inbounds ptr, ptr %vtable.i.i.i4.i67, i64 1
  %29 = load ptr, ptr %vfn.i.i.i5.i68, align 8
  call void %29(ptr noundef nonnull align 8 dereferenceable(128) %28) #31
  br label %ehcleanup26

invoke.cont7:                                     ; preds = %_ZNKSt14default_deleteINSt7__cxx1118basic_stringstreamIcSt11char_traitsIcESaIcEEEEclEPS5_.exit.i.i.i73, %invoke.cont2.i71
  call void @llvm.lifetime.end.p0(i64 8, ptr nonnull %ref.tmp.i61)
  call void @llvm.lifetime.start.p0(i64 8, ptr nonnull %ref.tmp.i80)
  invoke void @_ZN7testing7MessageC1Ev(ptr noundef nonnull align 8 dereferenceable(8) %ref.tmp.i80)
          to label %.noexc97 unwind label %lpad

.noexc97:                                         ; preds = %invoke.cont7
  %cmp.i.i81 = icmp eq ptr %expr2, null
  %30 = load ptr, ptr %ref.tmp.i80, align 8
  %add.ptr.i.i82 = getelementptr inbounds i8, ptr %30, i64 16
  %.str.47..i.i83 = select i1 %cmp.i.i81, ptr @.str.47, ptr %expr2
  %call6.i1.i84 = invoke noundef nonnull align 8 dereferenceable(8) ptr @_ZStlsISt11char_traitsIcEERSt13basic_ostreamIcT_ES5_PKc(ptr noundef nonnull align 8 dereferenceable(8) %add.ptr.i.i82, ptr noundef nonnull %.str.47..i.i83)
          to label %invoke.cont.i91 unwind label %lpad.i85

invoke.cont.i91:                                  ; preds = %.noexc97
  invoke void @_ZN7testing15AssertionResult13AppendMessageERKNS_7MessageE(ptr noundef nonnull align 8 dereferenceable(16) %ref.tmp, ptr noundef nonnull align 8 dereferenceable(8) %ref.tmp.i80)
          to label %invoke.cont2.i92 unwind label %lpad.i85

invoke.cont2.i92:                                 ; preds = %invoke.cont.i91
  %31 = load ptr, ptr %ref.tmp.i80, align 8
  %cmp.not.i.i.i93 = icmp eq ptr %31, null
  br i1 %cmp.not.i.i.i93, label %invoke.cont9, label %_ZNKSt14default_deleteINSt7__cxx1118basic_stringstreamIcSt11char_traitsIcESaIcEEEEclEPS5_.exit.i.i.i94

_ZNKSt14default_deleteINSt7__cxx1118basic_stringstreamIcSt11char_traitsIcESaIcEEEEclEPS5_.exit.i.i.i94: ; preds = %invoke.cont2.i92
  %vtable.i.i.i.i95 = load ptr, ptr %31, align 8
  %vfn.i.i.i.i96 = getelementptr inbounds ptr, ptr %vtable.i.i.i.i95, i64 1
  %32 = load ptr, ptr %vfn.i.i.i.i96, align 8
  call void %32(ptr noundef nonnull align 8 dereferenceable(128) %31) #31
  br label %invoke.cont9

lpad.i85:                                         ; preds = %invoke.cont.i91, %.noexc97
  %33 = landingpad { ptr, i32 }
          cleanup
  %34 = load ptr, ptr %ref.tmp.i80, align 8
  %cmp.not.i.i2.i86 = icmp eq ptr %34, null
  br i1 %cmp.not.i.i2.i86, label %ehcleanup26, label %_ZNKSt14default_deleteINSt7__cxx1118basic_stringstreamIcSt11char_traitsIcESaIcEEEEclEPS5_.exit.i.i3.i87

_ZNKSt14default_deleteINSt7__cxx1118basic_stringstreamIcSt11char_traitsIcESaIcEEEEclEPS5_.exit.i.i3.i87: ; preds = %lpad.i85
  %vtable.i.i.i4.i88 = load ptr, ptr %34, align 8
  %vfn.i.i.i5.i89 = getelementptr inbounds ptr, ptr %vtable.i.i.i4.i88, i64 1
  %35 = load ptr, ptr %vfn.i.i.i5.i89, align 8
  call void %35(ptr noundef nonnull align 8 dereferenceable(128) %34) #31
  br label %ehcleanup26

invoke.cont9:                                     ; preds = %_ZNKSt14default_deleteINSt7__cxx1118basic_stringstreamIcSt11char_traitsIcESaIcEEEEclEPS5_.exit.i.i.i94, %invoke.cont2.i92
  call void @llvm.lifetime.end.p0(i64 8, ptr nonnull %ref.tmp.i80)
  call void @llvm.lifetime.start.p0(i64 8, ptr nonnull %ref.tmp.i101)
  invoke void @_ZN7testing7MessageC1Ev(ptr noundef nonnull align 8 dereferenceable(8) %ref.tmp.i101)
          to label %.noexc116 unwind label %lpad

.noexc116:                                        ; preds = %invoke.cont9
  %36 = load ptr, ptr %ref.tmp.i101, align 8
  %add.ptr.i.i102 = getelementptr inbounds i8, ptr %36, i64 16
  %call2.i1.i103 = invoke noundef nonnull align 8 dereferenceable(8) ptr @_ZStlsISt11char_traitsIcEERSt13basic_ostreamIcT_ES5_PKc(ptr noundef nonnull align 8 dereferenceable(8) %add.ptr.i.i102, ptr noundef nonnull @.str.45)
          to label %invoke.cont.i110 unwind label %lpad.i104

invoke.cont.i110:                                 ; preds = %.noexc116
  invoke void @_ZN7testing15AssertionResult13AppendMessageERKNS_7MessageE(ptr noundef nonnull align 8 dereferenceable(16) %ref.tmp, ptr noundef nonnull align 8 dereferenceable(8) %ref.tmp.i101)
          to label %invoke.cont2.i111 unwind label %lpad.i104

invoke.cont2.i111:                                ; preds = %invoke.cont.i110
  %37 = load ptr, ptr %ref.tmp.i101, align 8
  %cmp.not.i.i.i112 = icmp eq ptr %37, null
  br i1 %cmp.not.i.i.i112, label %invoke.cont11, label %_ZNKSt14default_deleteINSt7__cxx1118basic_stringstreamIcSt11char_traitsIcESaIcEEEEclEPS5_.exit.i.i.i113

_ZNKSt14default_deleteINSt7__cxx1118basic_stringstreamIcSt11char_traitsIcESaIcEEEEclEPS5_.exit.i.i.i113: ; preds = %invoke.cont2.i111
  %vtable.i.i.i.i114 = load ptr, ptr %37, align 8
  %vfn.i.i.i.i115 = getelementptr inbounds ptr, ptr %vtable.i.i.i.i114, i64 1
  %38 = load ptr, ptr %vfn.i.i.i.i115, align 8
  call void %38(ptr noundef nonnull align 8 dereferenceable(128) %37) #31
  br label %invoke.cont11

lpad.i104:                                        ; preds = %invoke.cont.i110, %.noexc116
  %39 = landingpad { ptr, i32 }
          cleanup
  %40 = load ptr, ptr %ref.tmp.i101, align 8
  %cmp.not.i.i2.i105 = icmp eq ptr %40, null
  br i1 %cmp.not.i.i2.i105, label %ehcleanup26, label %_ZNKSt14default_deleteINSt7__cxx1118basic_stringstreamIcSt11char_traitsIcESaIcEEEEclEPS5_.exit.i.i3.i106

_ZNKSt14default_deleteINSt7__cxx1118basic_stringstreamIcSt11char_traitsIcESaIcEEEEclEPS5_.exit.i.i3.i106: ; preds = %lpad.i104
  %vtable.i.i.i4.i107 = load ptr, ptr %40, align 8
  %vfn.i.i.i5.i108 = getelementptr inbounds ptr, ptr %vtable.i.i.i4.i107, i64 1
  %41 = load ptr, ptr %vfn.i.i.i5.i108, align 8
  call void %41(ptr noundef nonnull align 8 dereferenceable(128) %40) #31
  br label %ehcleanup26

invoke.cont11:                                    ; preds = %_ZNKSt14default_deleteINSt7__cxx1118basic_stringstreamIcSt11char_traitsIcESaIcEEEEclEPS5_.exit.i.i.i113, %invoke.cont2.i111
  call void @llvm.lifetime.end.p0(i64 8, ptr nonnull %ref.tmp.i101)
  call void @llvm.lifetime.start.p0(i64 392, ptr nonnull %ss.i.i.i), !noalias !37
  invoke void @_ZNSt7__cxx1118basic_stringstreamIcSt11char_traitsIcESaIcEEC1Ev(ptr noundef nonnull align 8 dereferenceable(128) %ss.i.i.i)
          to label %.noexc120 unwind label %lpad

.noexc120:                                        ; preds = %invoke.cont11
  %add.ptr.i.i.i = getelementptr inbounds i8, ptr %ss.i.i.i, i64 16
  %42 = load double, ptr %val1, align 8, !noalias !42
  invoke void @_ZN7testing8internal7PrintToEdPSo(double noundef %42, ptr noundef nonnull %add.ptr.i.i.i)
          to label %invoke.cont.i.i.i unwind label %lpad.i.i.i, !noalias !42

invoke.cont.i.i.i:                                ; preds = %.noexc120
  invoke void @_ZNKSt7__cxx1118basic_stringstreamIcSt11char_traitsIcESaIcEE3strEv(ptr nonnull sret(%"class.std::__cxx11::basic_string") align 8 %ref.tmp13, ptr noundef nonnull align 8 dereferenceable(128) %ss.i.i.i)
          to label %invoke.cont14 unwind label %lpad.i.i.i

lpad.i.i.i:                                       ; preds = %invoke.cont.i.i.i, %.noexc120
  %43 = landingpad { ptr, i32 }
          cleanup
  call void @_ZNSt7__cxx1118basic_stringstreamIcSt11char_traitsIcESaIcEED1Ev(ptr noundef nonnull align 8 dereferenceable(128) %ss.i.i.i) #31
  br label %ehcleanup26

invoke.cont14:                                    ; preds = %invoke.cont.i.i.i
  call void @_ZNSt7__cxx1118basic_stringstreamIcSt11char_traitsIcESaIcEED1Ev(ptr noundef nonnull align 8 dereferenceable(128) %ss.i.i.i) #31
  call void @llvm.lifetime.end.p0(i64 392, ptr nonnull %ss.i.i.i), !noalias !37
  call void @llvm.lifetime.start.p0(i64 8, ptr nonnull %ref.tmp.i123)
  invoke void @_ZN7testing7MessageC1Ev(ptr noundef nonnull align 8 dereferenceable(8) %ref.tmp.i123)
          to label %.noexc138 unwind label %lpad15

.noexc138:                                        ; preds = %invoke.cont14
  %44 = load ptr, ptr %ref.tmp.i123, align 8
  %add.ptr.i.i124 = getelementptr inbounds i8, ptr %44, i64 16
  %call2.i1.i125 = invoke noundef nonnull align 8 dereferenceable(8) ptr @_ZStlsIcSt11char_traitsIcESaIcEERSt13basic_ostreamIT_T0_ES7_RKNSt7__cxx1112basic_stringIS4_S5_T1_EE(ptr noundef nonnull align 8 dereferenceable(8) %add.ptr.i.i124, ptr noundef nonnull align 8 dereferenceable(32) %ref.tmp13)
          to label %invoke.cont.i132 unwind label %lpad.i126

invoke.cont.i132:                                 ; preds = %.noexc138
  invoke void @_ZN7testing15AssertionResult13AppendMessageERKNS_7MessageE(ptr noundef nonnull align 8 dereferenceable(16) %ref.tmp, ptr noundef nonnull align 8 dereferenceable(8) %ref.tmp.i123)
          to label %invoke.cont2.i133 unwind label %lpad.i126

invoke.cont2.i133:                                ; preds = %invoke.cont.i132
  %45 = load ptr, ptr %ref.tmp.i123, align 8
  %cmp.not.i.i.i134 = icmp eq ptr %45, null
  br i1 %cmp.not.i.i.i134, label %invoke.cont16, label %_ZNKSt14default_deleteINSt7__cxx1118basic_stringstreamIcSt11char_traitsIcESaIcEEEEclEPS5_.exit.i.i.i135

_ZNKSt14default_deleteINSt7__cxx1118basic_stringstreamIcSt11char_traitsIcESaIcEEEEclEPS5_.exit.i.i.i135: ; preds = %invoke.cont2.i133
  %vtable.i.i.i.i136 = load ptr, ptr %45, align 8
  %vfn.i.i.i.i137 = getelementptr inbounds ptr, ptr %vtable.i.i.i.i136, i64 1
  %46 = load ptr, ptr %vfn.i.i.i.i137, align 8
  call void %46(ptr noundef nonnull align 8 dereferenceable(128) %45) #31
  br label %invoke.cont16

lpad.i126:                                        ; preds = %invoke.cont.i132, %.noexc138
  %47 = landingpad { ptr, i32 }
          cleanup
  %48 = load ptr, ptr %ref.tmp.i123, align 8
  %cmp.not.i.i2.i127 = icmp eq ptr %48, null
  br i1 %cmp.not.i.i2.i127, label %ehcleanup, label %_ZNKSt14default_deleteINSt7__cxx1118basic_stringstreamIcSt11char_traitsIcESaIcEEEEclEPS5_.exit.i.i3.i128

_ZNKSt14default_deleteINSt7__cxx1118basic_stringstreamIcSt11char_traitsIcESaIcEEEEclEPS5_.exit.i.i3.i128: ; preds = %lpad.i126
  %vtable.i.i.i4.i129 = load ptr, ptr %48, align 8
  %vfn.i.i.i5.i130 = getelementptr inbounds ptr, ptr %vtable.i.i.i4.i129, i64 1
  %49 = load ptr, ptr %vfn.i.i.i5.i130, align 8
  call void %49(ptr noundef nonnull align 8 dereferenceable(128) %48) #31
  br label %ehcleanup

invoke.cont16:                                    ; preds = %_ZNKSt14default_deleteINSt7__cxx1118basic_stringstreamIcSt11char_traitsIcESaIcEEEEclEPS5_.exit.i.i.i135, %invoke.cont2.i133
  call void @llvm.lifetime.end.p0(i64 8, ptr nonnull %ref.tmp.i123)
  call void @llvm.lifetime.start.p0(i64 8, ptr nonnull %ref.tmp.i140)
  invoke void @_ZN7testing7MessageC1Ev(ptr noundef nonnull align 8 dereferenceable(8) %ref.tmp.i140)
          to label %.noexc155 unwind label %lpad15

.noexc155:                                        ; preds = %invoke.cont16
  %50 = load ptr, ptr %ref.tmp.i140, align 8
  %add.ptr.i.i141 = getelementptr inbounds i8, ptr %50, i64 16
  %call2.i1.i142 = invoke noundef nonnull align 8 dereferenceable(8) ptr @_ZStlsISt11char_traitsIcEERSt13basic_ostreamIcT_ES5_PKc(ptr noundef nonnull align 8 dereferenceable(8) %add.ptr.i.i141, ptr noundef nonnull @.str.46)
          to label %invoke.cont.i149 unwind label %lpad.i143

invoke.cont.i149:                                 ; preds = %.noexc155
  invoke void @_ZN7testing15AssertionResult13AppendMessageERKNS_7MessageE(ptr noundef nonnull align 8 dereferenceable(16) %ref.tmp, ptr noundef nonnull align 8 dereferenceable(8) %ref.tmp.i140)
          to label %invoke.cont2.i150 unwind label %lpad.i143

invoke.cont2.i150:                                ; preds = %invoke.cont.i149
  %51 = load ptr, ptr %ref.tmp.i140, align 8
  %cmp.not.i.i.i151 = icmp eq ptr %51, null
  br i1 %cmp.not.i.i.i151, label %invoke.cont18, label %_ZNKSt14default_deleteINSt7__cxx1118basic_stringstreamIcSt11char_traitsIcESaIcEEEEclEPS5_.exit.i.i.i152

_ZNKSt14default_deleteINSt7__cxx1118basic_stringstreamIcSt11char_traitsIcESaIcEEEEclEPS5_.exit.i.i.i152: ; preds = %invoke.cont2.i150
  %vtable.i.i.i.i153 = load ptr, ptr %51, align 8
  %vfn.i.i.i.i154 = getelementptr inbounds ptr, ptr %vtable.i.i.i.i153, i64 1
  %52 = load ptr, ptr %vfn.i.i.i.i154, align 8
  call void %52(ptr noundef nonnull align 8 dereferenceable(128) %51) #31
  br label %invoke.cont18

lpad.i143:                                        ; preds = %invoke.cont.i149, %.noexc155
  %53 = landingpad { ptr, i32 }
          cleanup
  %54 = load ptr, ptr %ref.tmp.i140, align 8
  %cmp.not.i.i2.i144 = icmp eq ptr %54, null
  br i1 %cmp.not.i.i2.i144, label %ehcleanup, label %_ZNKSt14default_deleteINSt7__cxx1118basic_stringstreamIcSt11char_traitsIcESaIcEEEEclEPS5_.exit.i.i3.i145

_ZNKSt14default_deleteINSt7__cxx1118basic_stringstreamIcSt11char_traitsIcESaIcEEEEclEPS5_.exit.i.i3.i145: ; preds = %lpad.i143
  %vtable.i.i.i4.i146 = load ptr, ptr %54, align 8
  %vfn.i.i.i5.i147 = getelementptr inbounds ptr, ptr %vtable.i.i.i4.i146, i64 1
  %55 = load ptr, ptr %vfn.i.i.i5.i147, align 8
  call void %55(ptr noundef nonnull align 8 dereferenceable(128) %54) #31
  br label %ehcleanup

invoke.cont18:                                    ; preds = %_ZNKSt14default_deleteINSt7__cxx1118basic_stringstreamIcSt11char_traitsIcESaIcEEEEclEPS5_.exit.i.i.i152, %invoke.cont2.i150
  call void @llvm.lifetime.end.p0(i64 8, ptr nonnull %ref.tmp.i140)
  call void @llvm.lifetime.start.p0(i64 392, ptr nonnull %ss.i.i.i158), !noalias !45
  invoke void @_ZNSt7__cxx1118basic_stringstreamIcSt11char_traitsIcESaIcEEC1Ev(ptr noundef nonnull align 8 dereferenceable(128) %ss.i.i.i158)
          to label %.noexc162 unwind label %lpad15

.noexc162:                                        ; preds = %invoke.cont18
  %add.ptr.i.i.i159 = getelementptr inbounds i8, ptr %ss.i.i.i158, i64 16
  %56 = load double, ptr %val2, align 8, !noalias !50
  invoke void @_ZN7testing8internal7PrintToEdPSo(double noundef %56, ptr noundef nonnull %add.ptr.i.i.i159)
          to label %invoke.cont.i.i.i161 unwind label %lpad.i.i.i160, !noalias !50

invoke.cont.i.i.i161:                             ; preds = %.noexc162
  invoke void @_ZNKSt7__cxx1118basic_stringstreamIcSt11char_traitsIcESaIcEE3strEv(ptr nonnull sret(%"class.std::__cxx11::basic_string") align 8 %ref.tmp20, ptr noundef nonnull align 8 dereferenceable(128) %ss.i.i.i158)
          to label %invoke.cont21 unwind label %lpad.i.i.i160

lpad.i.i.i160:                                    ; preds = %invoke.cont.i.i.i161, %.noexc162
  %57 = landingpad { ptr, i32 }
          cleanup
  call void @_ZNSt7__cxx1118basic_stringstreamIcSt11char_traitsIcESaIcEED1Ev(ptr noundef nonnull align 8 dereferenceable(128) %ss.i.i.i158) #31
  br label %ehcleanup

invoke.cont21:                                    ; preds = %invoke.cont.i.i.i161
  call void @_ZNSt7__cxx1118basic_stringstreamIcSt11char_traitsIcESaIcEED1Ev(ptr noundef nonnull align 8 dereferenceable(128) %ss.i.i.i158) #31
  call void @llvm.lifetime.end.p0(i64 392, ptr nonnull %ss.i.i.i158), !noalias !45
  call void @llvm.lifetime.start.p0(i64 8, ptr nonnull %ref.tmp.i166)
  invoke void @_ZN7testing7MessageC1Ev(ptr noundef nonnull align 8 dereferenceable(8) %ref.tmp.i166)
          to label %.noexc181 unwind label %lpad22

.noexc181:                                        ; preds = %invoke.cont21
  %58 = load ptr, ptr %ref.tmp.i166, align 8
  %add.ptr.i.i167 = getelementptr inbounds i8, ptr %58, i64 16
  %call2.i1.i168 = invoke noundef nonnull align 8 dereferenceable(8) ptr @_ZStlsIcSt11char_traitsIcESaIcEERSt13basic_ostreamIT_T0_ES7_RKNSt7__cxx1112basic_stringIS4_S5_T1_EE(ptr noundef nonnull align 8 dereferenceable(8) %add.ptr.i.i167, ptr noundef nonnull align 8 dereferenceable(32) %ref.tmp20)
          to label %invoke.cont.i175 unwind label %lpad.i169

invoke.cont.i175:                                 ; preds = %.noexc181
  invoke void @_ZN7testing15AssertionResult13AppendMessageERKNS_7MessageE(ptr noundef nonnull align 8 dereferenceable(16) %ref.tmp, ptr noundef nonnull align 8 dereferenceable(8) %ref.tmp.i166)
          to label %invoke.cont2.i176 unwind label %lpad.i169

invoke.cont2.i176:                                ; preds = %invoke.cont.i175
  %59 = load ptr, ptr %ref.tmp.i166, align 8
  %cmp.not.i.i.i177 = icmp eq ptr %59, null
  br i1 %cmp.not.i.i.i177, label %invoke.cont23, label %_ZNKSt14default_deleteINSt7__cxx1118basic_stringstreamIcSt11char_traitsIcESaIcEEEEclEPS5_.exit.i.i.i178

_ZNKSt14default_deleteINSt7__cxx1118basic_stringstreamIcSt11char_traitsIcESaIcEEEEclEPS5_.exit.i.i.i178: ; preds = %invoke.cont2.i176
  %vtable.i.i.i.i179 = load ptr, ptr %59, align 8
  %vfn.i.i.i.i180 = getelementptr inbounds ptr, ptr %vtable.i.i.i.i179, i64 1
  %60 = load ptr, ptr %vfn.i.i.i.i180, align 8
  call void %60(ptr noundef nonnull align 8 dereferenceable(128) %59) #31
  br label %invoke.cont23

lpad.i169:                                        ; preds = %invoke.cont.i175, %.noexc181
  %61 = landingpad { ptr, i32 }
          cleanup
  %62 = load ptr, ptr %ref.tmp.i166, align 8
  %cmp.not.i.i2.i170 = icmp eq ptr %62, null
  br i1 %cmp.not.i.i2.i170, label %lpad22.body, label %_ZNKSt14default_deleteINSt7__cxx1118basic_stringstreamIcSt11char_traitsIcESaIcEEEEclEPS5_.exit.i.i3.i171

_ZNKSt14default_deleteINSt7__cxx1118basic_stringstreamIcSt11char_traitsIcESaIcEEEEclEPS5_.exit.i.i3.i171: ; preds = %lpad.i169
  %vtable.i.i.i4.i172 = load ptr, ptr %62, align 8
  %vfn.i.i.i5.i173 = getelementptr inbounds ptr, ptr %vtable.i.i.i4.i172, i64 1
  %63 = load ptr, ptr %vfn.i.i.i5.i173, align 8
  call void %63(ptr noundef nonnull align 8 dereferenceable(128) %62) #31
  br label %lpad22.body

invoke.cont23:                                    ; preds = %_ZNKSt14default_deleteINSt7__cxx1118basic_stringstreamIcSt11char_traitsIcESaIcEEEEclEPS5_.exit.i.i.i178, %invoke.cont2.i176
  call void @llvm.lifetime.end.p0(i64 8, ptr nonnull %ref.tmp.i166)
  invoke void @_ZN7testing15AssertionResultC1ERKS0_(ptr noundef nonnull align 8 dereferenceable(16) %agg.result, ptr noundef nonnull align 8 dereferenceable(16) %ref.tmp)
          to label %invoke.cont25 unwind label %lpad22

invoke.cont25:                                    ; preds = %invoke.cont23
  call void @_ZNSt7__cxx1112basic_stringIcSt11char_traitsIcESaIcEED1Ev(ptr noundef nonnull align 8 dereferenceable(32) %ref.tmp20) #31
  call void @_ZNSt7__cxx1112basic_stringIcSt11char_traitsIcESaIcEED1Ev(ptr noundef nonnull align 8 dereferenceable(32) %ref.tmp13) #31
  %message_.i = getelementptr inbounds %"class.testing::AssertionResult", ptr %ref.tmp, i64 0, i32 1
  %64 = load ptr, ptr %message_.i, align 8
  %cmp.not.i.i = icmp eq ptr %64, null
  br i1 %cmp.not.i.i, label %_ZN7testing15AssertionResultD2Ev.exit, label %_ZNKSt14default_deleteINSt7__cxx1112basic_stringIcSt11char_traitsIcESaIcEEEEclEPS5_.exit.i.i

_ZNKSt14default_deleteINSt7__cxx1112basic_stringIcSt11char_traitsIcESaIcEEEEclEPS5_.exit.i.i: ; preds = %invoke.cont25
  call void @_ZNSt7__cxx1112basic_stringIcSt11char_traitsIcESaIcEED1Ev(ptr noundef nonnull align 8 dereferenceable(32) %64) #31
  call void @_ZdlPv(ptr noundef nonnull %64) #32
  br label %_ZN7testing15AssertionResultD2Ev.exit

_ZN7testing15AssertionResultD2Ev.exit:            ; preds = %invoke.cont25, %_ZNKSt14default_deleteINSt7__cxx1112basic_stringIcSt11char_traitsIcESaIcEEEEclEPS5_.exit.i.i
  ret void

lpad:                                             ; preds = %invoke.cont11, %invoke.cont9, %invoke.cont7, %invoke.cont5, %invoke.cont3, %invoke.cont1, %invoke.cont, %entry
  %65 = landingpad { ptr, i32 }
          cleanup
  br label %ehcleanup26

lpad15:                                           ; preds = %invoke.cont18, %invoke.cont16, %invoke.cont14
  %66 = landingpad { ptr, i32 }
          cleanup
  br label %ehcleanup

lpad22:                                           ; preds = %invoke.cont21, %invoke.cont23
  %67 = landingpad { ptr, i32 }
          cleanup
  br label %lpad22.body

lpad22.body:                                      ; preds = %lpad.i169, %_ZNKSt14default_deleteINSt7__cxx1118basic_stringstreamIcSt11char_traitsIcESaIcEEEEclEPS5_.exit.i.i3.i171, %lpad22
  %eh.lpad-body182 = phi { ptr, i32 } [ %67, %lpad22 ], [ %61, %_ZNKSt14default_deleteINSt7__cxx1118basic_stringstreamIcSt11char_traitsIcESaIcEEEEclEPS5_.exit.i.i3.i171 ], [ %61, %lpad.i169 ]
  call void @_ZNSt7__cxx1112basic_stringIcSt11char_traitsIcESaIcEED1Ev(ptr noundef nonnull align 8 dereferenceable(32) %ref.tmp20) #31
  br label %ehcleanup

ehcleanup:                                        ; preds = %_ZNKSt14default_deleteINSt7__cxx1118basic_stringstreamIcSt11char_traitsIcESaIcEEEEclEPS5_.exit.i.i3.i128, %lpad.i126, %lpad15, %lpad.i.i.i160, %lpad.i143, %_ZNKSt14default_deleteINSt7__cxx1118basic_stringstreamIcSt11char_traitsIcESaIcEEEEclEPS5_.exit.i.i3.i145, %lpad22.body
  %.pn = phi { ptr, i32 } [ %eh.lpad-body182, %lpad22.body ], [ %47, %_ZNKSt14default_deleteINSt7__cxx1118basic_stringstreamIcSt11char_traitsIcESaIcEEEEclEPS5_.exit.i.i3.i128 ], [ %47, %lpad.i126 ], [ %53, %_ZNKSt14default_deleteINSt7__cxx1118basic_stringstreamIcSt11char_traitsIcESaIcEEEEclEPS5_.exit.i.i3.i145 ], [ %53, %lpad.i143 ], [ %66, %lpad15 ], [ %57, %lpad.i.i.i160 ]
  call void @_ZNSt7__cxx1112basic_stringIcSt11char_traitsIcESaIcEED1Ev(ptr noundef nonnull align 8 dereferenceable(32) %ref.tmp13) #31
  br label %ehcleanup26

ehcleanup26:                                      ; preds = %_ZNKSt14default_deleteINSt7__cxx1118basic_stringstreamIcSt11char_traitsIcESaIcEEEEclEPS5_.exit.i.i3.i, %lpad.i, %_ZNKSt14default_deleteINSt7__cxx1118basic_stringstreamIcSt11char_traitsIcESaIcEEEEclEPS5_.exit.i.i3.i27, %lpad.i25, %_ZNKSt14default_deleteINSt7__cxx1118basic_stringstreamIcSt11char_traitsIcESaIcEEEEclEPS5_.exit.i.i3.i66, %lpad.i64, %_ZNKSt14default_deleteINSt7__cxx1118basic_stringstreamIcSt11char_traitsIcESaIcEEEEclEPS5_.exit.i.i3.i106, %lpad.i104, %lpad.i.i.i, %lpad, %lpad.i85, %_ZNKSt14default_deleteINSt7__cxx1118basic_stringstreamIcSt11char_traitsIcESaIcEEEEclEPS5_.exit.i.i3.i87, %lpad.i45, %_ZNKSt14default_deleteINSt7__cxx1118basic_stringstreamIcSt11char_traitsIcESaIcEEEEclEPS5_.exit.i.i3.i47, %lpad.i7, %_ZNKSt14default_deleteINSt7__cxx1118basic_stringstreamIcSt11char_traitsIcESaIcEEEEclEPS5_.exit.i.i3.i9, %ehcleanup
  %.pn.pn = phi { ptr, i32 } [ %.pn, %ehcleanup ], [ %3, %_ZNKSt14default_deleteINSt7__cxx1118basic_stringstreamIcSt11char_traitsIcESaIcEEEEclEPS5_.exit.i.i3.i ], [ %3, %lpad.i ], [ %9, %_ZNKSt14default_deleteINSt7__cxx1118basic_stringstreamIcSt11char_traitsIcESaIcEEEEclEPS5_.exit.i.i3.i9 ], [ %9, %lpad.i7 ], [ %15, %_ZNKSt14default_deleteINSt7__cxx1118basic_stringstreamIcSt11char_traitsIcESaIcEEEEclEPS5_.exit.i.i3.i27 ], [ %15, %lpad.i25 ], [ %21, %_ZNKSt14default_deleteINSt7__cxx1118basic_stringstreamIcSt11char_traitsIcESaIcEEEEclEPS5_.exit.i.i3.i47 ], [ %21, %lpad.i45 ], [ %27, %_ZNKSt14default_deleteINSt7__cxx1118basic_stringstreamIcSt11char_traitsIcESaIcEEEEclEPS5_.exit.i.i3.i66 ], [ %27, %lpad.i64 ], [ %33, %_ZNKSt14default_deleteINSt7__cxx1118basic_stringstreamIcSt11char_traitsIcESaIcEEEEclEPS5_.exit.i.i3.i87 ], [ %33, %lpad.i85 ], [ %39, %_ZNKSt14default_deleteINSt7__cxx1118basic_stringstreamIcSt11char_traitsIcESaIcEEEEclEPS5_.exit.i.i3.i106 ], [ %39, %lpad.i104 ], [ %65, %lpad ], [ %43, %lpad.i.i.i ]
  call void @_ZN7testing15AssertionResultD2Ev(ptr noundef nonnull align 8 dereferenceable(16) %ref.tmp) #31
  resume { ptr, i32 } %.pn.pn
}

declare void @_ZN7testing16AssertionFailureEv(ptr sret(%"class.testing::AssertionResult") align 8) local_unnamed_addr #0

declare void @_ZN7testing15AssertionResultC1ERKS0_(ptr noundef nonnull align 8 dereferenceable(16), ptr noundef nonnull align 8 dereferenceable(16)) unnamed_addr #0

; Function Attrs: mustprogress uwtable
define linkonce_odr dso_local void @_ZN7testing15AssertionResult13AppendMessageERKNS_7MessageE(ptr noundef nonnull align 8 dereferenceable(16) %this, ptr noundef nonnull align 8 dereferenceable(8) %a_message) local_unnamed_addr #4 comdat align 2 personality ptr @__gxx_personality_v0 {
entry:
  %ref.tmp6 = alloca %"class.std::__cxx11::basic_string", align 8
  %message_ = getelementptr inbounds %"class.testing::AssertionResult", ptr %this, i64 0, i32 1
  %0 = load ptr, ptr %message_, align 8
  %cmp.i.not.i = icmp eq ptr %0, null
  br i1 %cmp.i.not.i, label %if.then, label %if.end

if.then:                                          ; preds = %entry
  %call.i = tail call noalias noundef nonnull dereferenceable(32) ptr @_Znwm(i64 noundef 32) #34, !noalias !53
  tail call void @_ZNSt7__cxx1112basic_stringIcSt11char_traitsIcESaIcEEC1Ev(ptr noundef nonnull align 8 dereferenceable(32) %call.i) #31, !noalias !53
  %1 = load ptr, ptr %message_, align 8
  store ptr %call.i, ptr %message_, align 8
  %tobool.not.i.i.i.i = icmp eq ptr %1, null
  br i1 %tobool.not.i.i.i.i, label %if.end, label %_ZNKSt14default_deleteINSt7__cxx1112basic_stringIcSt11char_traitsIcESaIcEEEEclEPS5_.exit.i.i.i.i

_ZNKSt14default_deleteINSt7__cxx1112basic_stringIcSt11char_traitsIcESaIcEEEEclEPS5_.exit.i.i.i.i: ; preds = %if.then
  tail call void @_ZNSt7__cxx1112basic_stringIcSt11char_traitsIcESaIcEED1Ev(ptr noundef nonnull align 8 dereferenceable(32) %1) #31
  tail call void @_ZdlPv(ptr noundef nonnull %1) #32
  %.pre = load ptr, ptr %message_, align 8
  br label %if.end

if.end:                                           ; preds = %if.then, %_ZNKSt14default_deleteINSt7__cxx1112basic_stringIcSt11char_traitsIcESaIcEEEEclEPS5_.exit.i.i.i.i, %entry
  %2 = phi ptr [ %call.i, %if.then ], [ %.pre, %_ZNKSt14default_deleteINSt7__cxx1112basic_stringIcSt11char_traitsIcESaIcEEEEclEPS5_.exit.i.i.i.i ], [ %0, %entry ]
  call void @_ZNK7testing7Message9GetStringB5cxx11Ev(ptr nonnull sret(%"class.std::__cxx11::basic_string") align 8 %ref.tmp6, ptr noundef nonnull align 8 dereferenceable(8) %a_message)
  %call7 = call noundef ptr @_ZNKSt7__cxx1112basic_stringIcSt11char_traitsIcESaIcEE5c_strEv(ptr noundef nonnull align 8 dereferenceable(32) %ref.tmp6) #31
  %call8 = invoke noundef nonnull align 8 dereferenceable(32) ptr @_ZNSt7__cxx1112basic_stringIcSt11char_traitsIcESaIcEE6appendEPKc(ptr noundef nonnull align 8 dereferenceable(32) %2, ptr noundef %call7)
          to label %invoke.cont unwind label %lpad

invoke.cont:                                      ; preds = %if.end
  call void @_ZNSt7__cxx1112basic_stringIcSt11char_traitsIcESaIcEED1Ev(ptr noundef nonnull align 8 dereferenceable(32) %ref.tmp6) #31
  ret void

lpad:                                             ; preds = %if.end
  %3 = landingpad { ptr, i32 }
          cleanup
  call void @_ZNSt7__cxx1112basic_stringIcSt11char_traitsIcESaIcEED1Ev(ptr noundef nonnull align 8 dereferenceable(32) %ref.tmp6) #31
  resume { ptr, i32 } %3
}

declare noundef nonnull align 8 dereferenceable(32) ptr @_ZNSt7__cxx1112basic_stringIcSt11char_traitsIcESaIcEE6appendEPKc(ptr noundef nonnull align 8 dereferenceable(32), ptr noundef) local_unnamed_addr #0

declare void @_ZNK7testing7Message9GetStringB5cxx11Ev(ptr sret(%"class.std::__cxx11::basic_string") align 8, ptr noundef nonnull align 8 dereferenceable(8)) local_unnamed_addr #0

; Function Attrs: nounwind
declare void @_ZNSt7__cxx1112basic_stringIcSt11char_traitsIcESaIcEEC1Ev(ptr noundef nonnull align 8 dereferenceable(32)) unnamed_addr #1

declare noundef nonnull align 8 dereferenceable(8) ptr @_ZStlsIcSt11char_traitsIcESaIcEERSt13basic_ostreamIT_T0_ES7_RKNSt7__cxx1112basic_stringIS4_S5_T1_EE(ptr noundef nonnull align 8 dereferenceable(8), ptr noundef nonnull align 8 dereferenceable(32)) local_unnamed_addr #0

declare void @_ZNSt7__cxx1118basic_stringstreamIcSt11char_traitsIcESaIcEEC1Ev(ptr noundef nonnull align 8 dereferenceable(128)) unnamed_addr #0

declare void @_ZNKSt7__cxx1118basic_stringstreamIcSt11char_traitsIcESaIcEE3strEv(ptr sret(%"class.std::__cxx11::basic_string") align 8, ptr noundef nonnull align 8 dereferenceable(128)) local_unnamed_addr #0

; Function Attrs: nounwind
declare void @_ZNSt7__cxx1118basic_stringstreamIcSt11char_traitsIcESaIcEED1Ev(ptr noundef nonnull align 8 dereferenceable(128)) unnamed_addr #1

; Function Attrs: mustprogress uwtable
define linkonce_odr dso_local void @_ZN7testing8internal7PrintToEdPSo(double noundef %d, ptr noundef %os) local_unnamed_addr #4 comdat {
entry:
  %vtable = load ptr, ptr %os, align 8
  %vbase.offset.ptr = getelementptr i8, ptr %vtable, i64 -24
  %vbase.offset = load i64, ptr %vbase.offset.ptr, align 8
  %add.ptr = getelementptr inbounds i8, ptr %os, i64 %vbase.offset
  %_M_precision.i = getelementptr inbounds %"class.std::ios_base", ptr %add.ptr, i64 0, i32 1
  %0 = load i64, ptr %_M_precision.i, align 8
  %cmp.i = fcmp olt double %d, 0.000000e+00
  %fneg.i = fneg double %d
  %val.addr.0.i = select i1 %cmp.i, double %fneg.i, double %d
  %cmp1.i = fcmp olt double %val.addr.0.i, 1.000000e+06
  br i1 %cmp1.i, label %if.then2.i, label %if.else45.i

if.then2.i:                                       ; preds = %entry
  %cmp3.i = fcmp ult double %val.addr.0.i, 1.000000e+05
  br i1 %cmp3.i, label %if.else.i, label %if.end40.i

if.else.i:                                        ; preds = %if.then2.i
  %cmp5.i = fcmp ult double %val.addr.0.i, 1.000000e+04
  br i1 %cmp5.i, label %if.else7.i, label %if.end40.i

if.else7.i:                                       ; preds = %if.else.i
  %cmp8.i = fcmp ult double %val.addr.0.i, 1.000000e+03
  br i1 %cmp8.i, label %if.else10.i, label %if.end40.i

if.else10.i:                                      ; preds = %if.else7.i
  %cmp11.i = fcmp ult double %val.addr.0.i, 1.000000e+02
  br i1 %cmp11.i, label %if.else13.i, label %if.end40.i

if.else13.i:                                      ; preds = %if.else10.i
  %cmp14.i = fcmp ult double %val.addr.0.i, 1.000000e+01
  br i1 %cmp14.i, label %if.else16.i, label %if.end40.i

if.else16.i:                                      ; preds = %if.else13.i
  %cmp17.i = fcmp ult double %val.addr.0.i, 1.000000e+00
  br i1 %cmp17.i, label %if.else19.i, label %if.end40.i

if.else19.i:                                      ; preds = %if.else16.i
  %cmp20.i = fcmp ult double %val.addr.0.i, 1.000000e-01
  br i1 %cmp20.i, label %if.else22.i, label %if.end40.i

if.else22.i:                                      ; preds = %if.else19.i
  %cmp23.i = fcmp ult double %val.addr.0.i, 1.000000e-02
  br i1 %cmp23.i, label %if.else25.i, label %if.end40.i

if.else25.i:                                      ; preds = %if.else22.i
  %cmp26.i = fcmp ult double %val.addr.0.i, 1.000000e-03
  br i1 %cmp26.i, label %if.else28.i, label %if.end40.i

if.else28.i:                                      ; preds = %if.else25.i
  %cmp29.i = fcmp ult double %val.addr.0.i, 1.000000e-04
  br i1 %cmp29.i, label %if.end40.i, label %if.then30.i

if.then30.i:                                      ; preds = %if.else28.i
  br label %if.end40.i

if.end40.i:                                       ; preds = %if.then30.i, %if.else28.i, %if.else25.i, %if.else22.i, %if.else19.i, %if.else16.i, %if.else13.i, %if.else10.i, %if.else7.i, %if.else.i, %if.then2.i
  %mulfor6.0.i = phi double [ 1.000000e+09, %if.then30.i ], [ 1.000000e+10, %if.else28.i ], [ 1.000000e+00, %if.then2.i ], [ 1.000000e+01, %if.else.i ], [ 1.000000e+02, %if.else7.i ], [ 1.000000e+03, %if.else10.i ], [ 1.000000e+04, %if.else13.i ], [ 1.000000e+05, %if.else16.i ], [ 1.000000e+06, %if.else19.i ], [ 1.000000e+07, %if.else22.i ], [ 1.000000e+08, %if.else25.i ]
  %1 = tail call double @llvm.fmuladd.f64(double %val.addr.0.i, double %mulfor6.0.i, double 5.000000e-01)
  %conv.i = fptosi double %1 to i32
  %conv41.i = sitofp i32 %conv.i to double
  %div.i = fdiv double %conv41.i, %mulfor6.0.i
  %cmp42.i = fcmp oeq double %div.i, %val.addr.0.i
  br i1 %cmp42.i, label %_ZN7testing8internal21AppropriateResolutionIdEEiT_.exit, label %if.end70.i

if.else45.i:                                      ; preds = %entry
  %cmp46.i = fcmp olt double %val.addr.0.i, 1.000000e+10
  br i1 %cmp46.i, label %if.then47.i, label %if.end70.i

if.then47.i:                                      ; preds = %if.else45.i
  %cmp48.i = fcmp ult double %val.addr.0.i, 1.000000e+09
  br i1 %cmp48.i, label %if.else50.i, label %if.end62.i

if.else50.i:                                      ; preds = %if.then47.i
  %cmp51.i = fcmp ult double %val.addr.0.i, 1.000000e+08
  br i1 %cmp51.i, label %if.else53.i, label %if.end62.i

if.else53.i:                                      ; preds = %if.else50.i
  %cmp54.i = fcmp ult double %val.addr.0.i, 1.000000e+07
  br i1 %cmp54.i, label %if.else56.i, label %if.end62.i

if.else56.i:                                      ; preds = %if.else53.i
  %cmp57.i = fcmp ult double %val.addr.0.i, 1.000000e+06
  br i1 %cmp57.i, label %if.end62.i, label %if.then58.i

if.then58.i:                                      ; preds = %if.else56.i
  br label %if.end62.i

if.end62.i:                                       ; preds = %if.then58.i, %if.else56.i, %if.else53.i, %if.else50.i, %if.then47.i
  %divfor6.0.i = phi double [ 1.000000e+01, %if.then58.i ], [ 1.000000e+00, %if.else56.i ], [ 1.000000e+04, %if.then47.i ], [ 1.000000e+03, %if.else50.i ], [ 1.000000e+02, %if.else53.i ]
  %div63.i = fdiv double %val.addr.0.i, %divfor6.0.i
  %add.i = fadd double %div63.i, 5.000000e-01
  %conv64.i = fptosi double %add.i to i32
  %conv65.i = sitofp i32 %conv64.i to double
  %mul.i = fmul double %divfor6.0.i, %conv65.i
  %cmp66.i = fcmp oeq double %mul.i, %val.addr.0.i
  br i1 %cmp66.i, label %_ZN7testing8internal21AppropriateResolutionIdEEiT_.exit, label %if.end70.i

if.end70.i:                                       ; preds = %if.end62.i, %if.else45.i, %if.end40.i
  br label %_ZN7testing8internal21AppropriateResolutionIdEEiT_.exit

_ZN7testing8internal21AppropriateResolutionIdEEiT_.exit: ; preds = %if.end40.i, %if.end62.i, %if.end70.i
  %retval.0.i = phi i64 [ 17, %if.end70.i ], [ 6, %if.end40.i ], [ 6, %if.end62.i ]
  store i64 %retval.0.i, ptr %_M_precision.i, align 8
  %call7 = tail call noundef nonnull align 8 dereferenceable(8) ptr @_ZNSolsEd(ptr noundef nonnull align 8 dereferenceable(8) %os, double noundef %d)
  %vtable8 = load ptr, ptr %os, align 8
  %vbase.offset.ptr9 = getelementptr i8, ptr %vtable8, i64 -24
  %vbase.offset10 = load i64, ptr %vbase.offset.ptr9, align 8
  %add.ptr11 = getelementptr inbounds i8, ptr %os, i64 %vbase.offset10
  %_M_precision.i6 = getelementptr inbounds %"class.std::ios_base", ptr %add.ptr11, i64 0, i32 1
  store i64 %0, ptr %_M_precision.i6, align 8
  ret void
}

declare noundef nonnull align 8 dereferenceable(8) ptr @_ZNSolsEd(ptr noundef nonnull align 8 dereferenceable(8), double noundef) local_unnamed_addr #0

; Function Attrs: mustprogress nofree nounwind willreturn memory(argmem: read)
declare i64 @strlen(ptr nocapture noundef) local_unnamed_addr #20

declare void @_ZN4absl12log_internal10LogMessage19CopyToEncodedBufferILNS1_10StringTypeE0EEEvSt17basic_string_viewIcSt11char_traitsIcEE(ptr noundef nonnull align 8 dereferenceable(16), i64, ptr) local_unnamed_addr #0

declare noundef nonnull align 8 dereferenceable(16) ptr @_ZN4absl12log_internal10LogMessagelsIdTnNSt9enable_ifIXntsr4absl16HasAbslStringifyIT_EE5valueEiE4typeELi0EEERS1_RKS4_(ptr noundef nonnull align 8 dereferenceable(16), ptr noundef nonnull align 8 dereferenceable(8)) local_unnamed_addr #0

; Function Attrs: mustprogress nocallback nofree nosync nounwind speculatable willreturn memory(none)
declare double @llvm.fabs.f64(double) #19

declare noundef double @_ZN4absl15random_internal17BetaIncompleteInvEddd(double noundef, double noundef, double noundef) local_unnamed_addr #0

declare noundef double @_ZN4absl15random_internal15ChiSquarePValueEdi(double noundef, i32 noundef) local_unnamed_addr #0

; Function Attrs: mustprogress uwtable
define linkonce_odr dso_local void @_ZN7testing8internal18CmpHelperOpFailureImiEENS_15AssertionResultEPKcS4_RKT_RKT0_S4_(ptr noalias sret(%"class.testing::AssertionResult") align 8 %agg.result, ptr noundef %expr1, ptr noundef %expr2, ptr noundef nonnull align 8 dereferenceable(8) %val1, ptr noundef nonnull align 4 dereferenceable(4) %val2, ptr noundef %op) local_unnamed_addr #4 comdat personality ptr @__gxx_personality_v0 {
entry:
  %ref.tmp.i166 = alloca %"class.testing::Message", align 8
  %ss.i.i.i158 = alloca %"class.std::__cxx11::basic_stringstream", align 8
  %ref.tmp.i140 = alloca %"class.testing::Message", align 8
  %ref.tmp.i123 = alloca %"class.testing::Message", align 8
  %ss.i.i.i = alloca %"class.std::__cxx11::basic_stringstream", align 8
  %ref.tmp.i101 = alloca %"class.testing::Message", align 8
  %ref.tmp.i80 = alloca %"class.testing::Message", align 8
  %ref.tmp.i61 = alloca %"class.testing::Message", align 8
  %ref.tmp.i40 = alloca %"class.testing::Message", align 8
  %ref.tmp.i22 = alloca %"class.testing::Message", align 8
  %ref.tmp.i5 = alloca %"class.testing::Message", align 8
  %ref.tmp.i = alloca %"class.testing::Message", align 8
  %ref.tmp = alloca %"class.testing::AssertionResult", align 8
  %ref.tmp13 = alloca %"class.std::__cxx11::basic_string", align 8
  %ref.tmp20 = alloca %"class.std::__cxx11::basic_string", align 8
  call void @_ZN7testing16AssertionFailureEv(ptr nonnull sret(%"class.testing::AssertionResult") align 8 %ref.tmp)
  call void @llvm.lifetime.start.p0(i64 8, ptr nonnull %ref.tmp.i)
  invoke void @_ZN7testing7MessageC1Ev(ptr noundef nonnull align 8 dereferenceable(8) %ref.tmp.i)
          to label %.noexc unwind label %lpad

.noexc:                                           ; preds = %entry
  %0 = load ptr, ptr %ref.tmp.i, align 8
  %add.ptr.i.i = getelementptr inbounds i8, ptr %0, i64 16
  %call2.i1.i = invoke noundef nonnull align 8 dereferenceable(8) ptr @_ZStlsISt11char_traitsIcEERSt13basic_ostreamIcT_ES5_PKc(ptr noundef nonnull align 8 dereferenceable(8) %add.ptr.i.i, ptr noundef nonnull @.str.42)
          to label %invoke.cont.i unwind label %lpad.i

invoke.cont.i:                                    ; preds = %.noexc
  invoke void @_ZN7testing15AssertionResult13AppendMessageERKNS_7MessageE(ptr noundef nonnull align 8 dereferenceable(16) %ref.tmp, ptr noundef nonnull align 8 dereferenceable(8) %ref.tmp.i)
          to label %invoke.cont2.i unwind label %lpad.i

invoke.cont2.i:                                   ; preds = %invoke.cont.i
  %1 = load ptr, ptr %ref.tmp.i, align 8
  %cmp.not.i.i.i = icmp eq ptr %1, null
  br i1 %cmp.not.i.i.i, label %invoke.cont, label %_ZNKSt14default_deleteINSt7__cxx1118basic_stringstreamIcSt11char_traitsIcESaIcEEEEclEPS5_.exit.i.i.i

_ZNKSt14default_deleteINSt7__cxx1118basic_stringstreamIcSt11char_traitsIcESaIcEEEEclEPS5_.exit.i.i.i: ; preds = %invoke.cont2.i
  %vtable.i.i.i.i = load ptr, ptr %1, align 8
  %vfn.i.i.i.i = getelementptr inbounds ptr, ptr %vtable.i.i.i.i, i64 1
  %2 = load ptr, ptr %vfn.i.i.i.i, align 8
  call void %2(ptr noundef nonnull align 8 dereferenceable(128) %1) #31
  br label %invoke.cont

lpad.i:                                           ; preds = %invoke.cont.i, %.noexc
  %3 = landingpad { ptr, i32 }
          cleanup
  %4 = load ptr, ptr %ref.tmp.i, align 8
  %cmp.not.i.i2.i = icmp eq ptr %4, null
  br i1 %cmp.not.i.i2.i, label %ehcleanup26, label %_ZNKSt14default_deleteINSt7__cxx1118basic_stringstreamIcSt11char_traitsIcESaIcEEEEclEPS5_.exit.i.i3.i

_ZNKSt14default_deleteINSt7__cxx1118basic_stringstreamIcSt11char_traitsIcESaIcEEEEclEPS5_.exit.i.i3.i: ; preds = %lpad.i
  %vtable.i.i.i4.i = load ptr, ptr %4, align 8
  %vfn.i.i.i5.i = getelementptr inbounds ptr, ptr %vtable.i.i.i4.i, i64 1
  %5 = load ptr, ptr %vfn.i.i.i5.i, align 8
  call void %5(ptr noundef nonnull align 8 dereferenceable(128) %4) #31
  br label %ehcleanup26

invoke.cont:                                      ; preds = %_ZNKSt14default_deleteINSt7__cxx1118basic_stringstreamIcSt11char_traitsIcESaIcEEEEclEPS5_.exit.i.i.i, %invoke.cont2.i
  call void @llvm.lifetime.end.p0(i64 8, ptr nonnull %ref.tmp.i)
  call void @llvm.lifetime.start.p0(i64 8, ptr nonnull %ref.tmp.i5)
  invoke void @_ZN7testing7MessageC1Ev(ptr noundef nonnull align 8 dereferenceable(8) %ref.tmp.i5)
          to label %.noexc19 unwind label %lpad

.noexc19:                                         ; preds = %invoke.cont
  %cmp.i.i = icmp eq ptr %expr1, null
  %6 = load ptr, ptr %ref.tmp.i5, align 8
  %add.ptr.i.i6 = getelementptr inbounds i8, ptr %6, i64 16
  %.str.47..i.i = select i1 %cmp.i.i, ptr @.str.47, ptr %expr1
  %call6.i1.i = invoke noundef nonnull align 8 dereferenceable(8) ptr @_ZStlsISt11char_traitsIcEERSt13basic_ostreamIcT_ES5_PKc(ptr noundef nonnull align 8 dereferenceable(8) %add.ptr.i.i6, ptr noundef nonnull %.str.47..i.i)
          to label %invoke.cont.i13 unwind label %lpad.i7

invoke.cont.i13:                                  ; preds = %.noexc19
  invoke void @_ZN7testing15AssertionResult13AppendMessageERKNS_7MessageE(ptr noundef nonnull align 8 dereferenceable(16) %ref.tmp, ptr noundef nonnull align 8 dereferenceable(8) %ref.tmp.i5)
          to label %invoke.cont2.i14 unwind label %lpad.i7

invoke.cont2.i14:                                 ; preds = %invoke.cont.i13
  %7 = load ptr, ptr %ref.tmp.i5, align 8
  %cmp.not.i.i.i15 = icmp eq ptr %7, null
  br i1 %cmp.not.i.i.i15, label %invoke.cont1, label %_ZNKSt14default_deleteINSt7__cxx1118basic_stringstreamIcSt11char_traitsIcESaIcEEEEclEPS5_.exit.i.i.i16

_ZNKSt14default_deleteINSt7__cxx1118basic_stringstreamIcSt11char_traitsIcESaIcEEEEclEPS5_.exit.i.i.i16: ; preds = %invoke.cont2.i14
  %vtable.i.i.i.i17 = load ptr, ptr %7, align 8
  %vfn.i.i.i.i18 = getelementptr inbounds ptr, ptr %vtable.i.i.i.i17, i64 1
  %8 = load ptr, ptr %vfn.i.i.i.i18, align 8
  call void %8(ptr noundef nonnull align 8 dereferenceable(128) %7) #31
  br label %invoke.cont1

lpad.i7:                                          ; preds = %invoke.cont.i13, %.noexc19
  %9 = landingpad { ptr, i32 }
          cleanup
  %10 = load ptr, ptr %ref.tmp.i5, align 8
  %cmp.not.i.i2.i8 = icmp eq ptr %10, null
  br i1 %cmp.not.i.i2.i8, label %ehcleanup26, label %_ZNKSt14default_deleteINSt7__cxx1118basic_stringstreamIcSt11char_traitsIcESaIcEEEEclEPS5_.exit.i.i3.i9

_ZNKSt14default_deleteINSt7__cxx1118basic_stringstreamIcSt11char_traitsIcESaIcEEEEclEPS5_.exit.i.i3.i9: ; preds = %lpad.i7
  %vtable.i.i.i4.i10 = load ptr, ptr %10, align 8
  %vfn.i.i.i5.i11 = getelementptr inbounds ptr, ptr %vtable.i.i.i4.i10, i64 1
  %11 = load ptr, ptr %vfn.i.i.i5.i11, align 8
  call void %11(ptr noundef nonnull align 8 dereferenceable(128) %10) #31
  br label %ehcleanup26

invoke.cont1:                                     ; preds = %_ZNKSt14default_deleteINSt7__cxx1118basic_stringstreamIcSt11char_traitsIcESaIcEEEEclEPS5_.exit.i.i.i16, %invoke.cont2.i14
  call void @llvm.lifetime.end.p0(i64 8, ptr nonnull %ref.tmp.i5)
  call void @llvm.lifetime.start.p0(i64 8, ptr nonnull %ref.tmp.i22)
  invoke void @_ZN7testing7MessageC1Ev(ptr noundef nonnull align 8 dereferenceable(8) %ref.tmp.i22)
          to label %.noexc37 unwind label %lpad

.noexc37:                                         ; preds = %invoke.cont1
  %12 = load ptr, ptr %ref.tmp.i22, align 8
  %add.ptr.i.i23 = getelementptr inbounds i8, ptr %12, i64 16
  %call2.i1.i24 = invoke noundef nonnull align 8 dereferenceable(8) ptr @_ZStlsISt11char_traitsIcEERSt13basic_ostreamIcT_ES5_PKc(ptr noundef nonnull align 8 dereferenceable(8) %add.ptr.i.i23, ptr noundef nonnull @.str.43)
          to label %invoke.cont.i31 unwind label %lpad.i25

invoke.cont.i31:                                  ; preds = %.noexc37
  invoke void @_ZN7testing15AssertionResult13AppendMessageERKNS_7MessageE(ptr noundef nonnull align 8 dereferenceable(16) %ref.tmp, ptr noundef nonnull align 8 dereferenceable(8) %ref.tmp.i22)
          to label %invoke.cont2.i32 unwind label %lpad.i25

invoke.cont2.i32:                                 ; preds = %invoke.cont.i31
  %13 = load ptr, ptr %ref.tmp.i22, align 8
  %cmp.not.i.i.i33 = icmp eq ptr %13, null
  br i1 %cmp.not.i.i.i33, label %invoke.cont3, label %_ZNKSt14default_deleteINSt7__cxx1118basic_stringstreamIcSt11char_traitsIcESaIcEEEEclEPS5_.exit.i.i.i34

_ZNKSt14default_deleteINSt7__cxx1118basic_stringstreamIcSt11char_traitsIcESaIcEEEEclEPS5_.exit.i.i.i34: ; preds = %invoke.cont2.i32
  %vtable.i.i.i.i35 = load ptr, ptr %13, align 8
  %vfn.i.i.i.i36 = getelementptr inbounds ptr, ptr %vtable.i.i.i.i35, i64 1
  %14 = load ptr, ptr %vfn.i.i.i.i36, align 8
  call void %14(ptr noundef nonnull align 8 dereferenceable(128) %13) #31
  br label %invoke.cont3

lpad.i25:                                         ; preds = %invoke.cont.i31, %.noexc37
  %15 = landingpad { ptr, i32 }
          cleanup
  %16 = load ptr, ptr %ref.tmp.i22, align 8
  %cmp.not.i.i2.i26 = icmp eq ptr %16, null
  br i1 %cmp.not.i.i2.i26, label %ehcleanup26, label %_ZNKSt14default_deleteINSt7__cxx1118basic_stringstreamIcSt11char_traitsIcESaIcEEEEclEPS5_.exit.i.i3.i27

_ZNKSt14default_deleteINSt7__cxx1118basic_stringstreamIcSt11char_traitsIcESaIcEEEEclEPS5_.exit.i.i3.i27: ; preds = %lpad.i25
  %vtable.i.i.i4.i28 = load ptr, ptr %16, align 8
  %vfn.i.i.i5.i29 = getelementptr inbounds ptr, ptr %vtable.i.i.i4.i28, i64 1
  %17 = load ptr, ptr %vfn.i.i.i5.i29, align 8
  call void %17(ptr noundef nonnull align 8 dereferenceable(128) %16) #31
  br label %ehcleanup26

invoke.cont3:                                     ; preds = %_ZNKSt14default_deleteINSt7__cxx1118basic_stringstreamIcSt11char_traitsIcESaIcEEEEclEPS5_.exit.i.i.i34, %invoke.cont2.i32
  call void @llvm.lifetime.end.p0(i64 8, ptr nonnull %ref.tmp.i22)
  call void @llvm.lifetime.start.p0(i64 8, ptr nonnull %ref.tmp.i40)
  invoke void @_ZN7testing7MessageC1Ev(ptr noundef nonnull align 8 dereferenceable(8) %ref.tmp.i40)
          to label %.noexc57 unwind label %lpad

.noexc57:                                         ; preds = %invoke.cont3
  %cmp.i.i41 = icmp eq ptr %op, null
  %18 = load ptr, ptr %ref.tmp.i40, align 8
  %add.ptr.i.i42 = getelementptr inbounds i8, ptr %18, i64 16
  %.str.47..i.i43 = select i1 %cmp.i.i41, ptr @.str.47, ptr %op
  %call6.i1.i44 = invoke noundef nonnull align 8 dereferenceable(8) ptr @_ZStlsISt11char_traitsIcEERSt13basic_ostreamIcT_ES5_PKc(ptr noundef nonnull align 8 dereferenceable(8) %add.ptr.i.i42, ptr noundef nonnull %.str.47..i.i43)
          to label %invoke.cont.i51 unwind label %lpad.i45

invoke.cont.i51:                                  ; preds = %.noexc57
  invoke void @_ZN7testing15AssertionResult13AppendMessageERKNS_7MessageE(ptr noundef nonnull align 8 dereferenceable(16) %ref.tmp, ptr noundef nonnull align 8 dereferenceable(8) %ref.tmp.i40)
          to label %invoke.cont2.i52 unwind label %lpad.i45

invoke.cont2.i52:                                 ; preds = %invoke.cont.i51
  %19 = load ptr, ptr %ref.tmp.i40, align 8
  %cmp.not.i.i.i53 = icmp eq ptr %19, null
  br i1 %cmp.not.i.i.i53, label %invoke.cont5, label %_ZNKSt14default_deleteINSt7__cxx1118basic_stringstreamIcSt11char_traitsIcESaIcEEEEclEPS5_.exit.i.i.i54

_ZNKSt14default_deleteINSt7__cxx1118basic_stringstreamIcSt11char_traitsIcESaIcEEEEclEPS5_.exit.i.i.i54: ; preds = %invoke.cont2.i52
  %vtable.i.i.i.i55 = load ptr, ptr %19, align 8
  %vfn.i.i.i.i56 = getelementptr inbounds ptr, ptr %vtable.i.i.i.i55, i64 1
  %20 = load ptr, ptr %vfn.i.i.i.i56, align 8
  call void %20(ptr noundef nonnull align 8 dereferenceable(128) %19) #31
  br label %invoke.cont5

lpad.i45:                                         ; preds = %invoke.cont.i51, %.noexc57
  %21 = landingpad { ptr, i32 }
          cleanup
  %22 = load ptr, ptr %ref.tmp.i40, align 8
  %cmp.not.i.i2.i46 = icmp eq ptr %22, null
  br i1 %cmp.not.i.i2.i46, label %ehcleanup26, label %_ZNKSt14default_deleteINSt7__cxx1118basic_stringstreamIcSt11char_traitsIcESaIcEEEEclEPS5_.exit.i.i3.i47

_ZNKSt14default_deleteINSt7__cxx1118basic_stringstreamIcSt11char_traitsIcESaIcEEEEclEPS5_.exit.i.i3.i47: ; preds = %lpad.i45
  %vtable.i.i.i4.i48 = load ptr, ptr %22, align 8
  %vfn.i.i.i5.i49 = getelementptr inbounds ptr, ptr %vtable.i.i.i4.i48, i64 1
  %23 = load ptr, ptr %vfn.i.i.i5.i49, align 8
  call void %23(ptr noundef nonnull align 8 dereferenceable(128) %22) #31
  br label %ehcleanup26

invoke.cont5:                                     ; preds = %_ZNKSt14default_deleteINSt7__cxx1118basic_stringstreamIcSt11char_traitsIcESaIcEEEEclEPS5_.exit.i.i.i54, %invoke.cont2.i52
  call void @llvm.lifetime.end.p0(i64 8, ptr nonnull %ref.tmp.i40)
  call void @llvm.lifetime.start.p0(i64 8, ptr nonnull %ref.tmp.i61)
  invoke void @_ZN7testing7MessageC1Ev(ptr noundef nonnull align 8 dereferenceable(8) %ref.tmp.i61)
          to label %.noexc76 unwind label %lpad

.noexc76:                                         ; preds = %invoke.cont5
  %24 = load ptr, ptr %ref.tmp.i61, align 8
  %add.ptr.i.i62 = getelementptr inbounds i8, ptr %24, i64 16
  %call2.i1.i63 = invoke noundef nonnull align 8 dereferenceable(8) ptr @_ZStlsISt11char_traitsIcEERSt13basic_ostreamIcT_ES5_PKc(ptr noundef nonnull align 8 dereferenceable(8) %add.ptr.i.i62, ptr noundef nonnull @.str.44)
          to label %invoke.cont.i70 unwind label %lpad.i64

invoke.cont.i70:                                  ; preds = %.noexc76
  invoke void @_ZN7testing15AssertionResult13AppendMessageERKNS_7MessageE(ptr noundef nonnull align 8 dereferenceable(16) %ref.tmp, ptr noundef nonnull align 8 dereferenceable(8) %ref.tmp.i61)
          to label %invoke.cont2.i71 unwind label %lpad.i64

invoke.cont2.i71:                                 ; preds = %invoke.cont.i70
  %25 = load ptr, ptr %ref.tmp.i61, align 8
  %cmp.not.i.i.i72 = icmp eq ptr %25, null
  br i1 %cmp.not.i.i.i72, label %invoke.cont7, label %_ZNKSt14default_deleteINSt7__cxx1118basic_stringstreamIcSt11char_traitsIcESaIcEEEEclEPS5_.exit.i.i.i73

_ZNKSt14default_deleteINSt7__cxx1118basic_stringstreamIcSt11char_traitsIcESaIcEEEEclEPS5_.exit.i.i.i73: ; preds = %invoke.cont2.i71
  %vtable.i.i.i.i74 = load ptr, ptr %25, align 8
  %vfn.i.i.i.i75 = getelementptr inbounds ptr, ptr %vtable.i.i.i.i74, i64 1
  %26 = load ptr, ptr %vfn.i.i.i.i75, align 8
  call void %26(ptr noundef nonnull align 8 dereferenceable(128) %25) #31
  br label %invoke.cont7

lpad.i64:                                         ; preds = %invoke.cont.i70, %.noexc76
  %27 = landingpad { ptr, i32 }
          cleanup
  %28 = load ptr, ptr %ref.tmp.i61, align 8
  %cmp.not.i.i2.i65 = icmp eq ptr %28, null
  br i1 %cmp.not.i.i2.i65, label %ehcleanup26, label %_ZNKSt14default_deleteINSt7__cxx1118basic_stringstreamIcSt11char_traitsIcESaIcEEEEclEPS5_.exit.i.i3.i66

_ZNKSt14default_deleteINSt7__cxx1118basic_stringstreamIcSt11char_traitsIcESaIcEEEEclEPS5_.exit.i.i3.i66: ; preds = %lpad.i64
  %vtable.i.i.i4.i67 = load ptr, ptr %28, align 8
  %vfn.i.i.i5.i68 = getelementptr inbounds ptr, ptr %vtable.i.i.i4.i67, i64 1
  %29 = load ptr, ptr %vfn.i.i.i5.i68, align 8
  call void %29(ptr noundef nonnull align 8 dereferenceable(128) %28) #31
  br label %ehcleanup26

invoke.cont7:                                     ; preds = %_ZNKSt14default_deleteINSt7__cxx1118basic_stringstreamIcSt11char_traitsIcESaIcEEEEclEPS5_.exit.i.i.i73, %invoke.cont2.i71
  call void @llvm.lifetime.end.p0(i64 8, ptr nonnull %ref.tmp.i61)
  call void @llvm.lifetime.start.p0(i64 8, ptr nonnull %ref.tmp.i80)
  invoke void @_ZN7testing7MessageC1Ev(ptr noundef nonnull align 8 dereferenceable(8) %ref.tmp.i80)
          to label %.noexc97 unwind label %lpad

.noexc97:                                         ; preds = %invoke.cont7
  %cmp.i.i81 = icmp eq ptr %expr2, null
  %30 = load ptr, ptr %ref.tmp.i80, align 8
  %add.ptr.i.i82 = getelementptr inbounds i8, ptr %30, i64 16
  %.str.47..i.i83 = select i1 %cmp.i.i81, ptr @.str.47, ptr %expr2
  %call6.i1.i84 = invoke noundef nonnull align 8 dereferenceable(8) ptr @_ZStlsISt11char_traitsIcEERSt13basic_ostreamIcT_ES5_PKc(ptr noundef nonnull align 8 dereferenceable(8) %add.ptr.i.i82, ptr noundef nonnull %.str.47..i.i83)
          to label %invoke.cont.i91 unwind label %lpad.i85

invoke.cont.i91:                                  ; preds = %.noexc97
  invoke void @_ZN7testing15AssertionResult13AppendMessageERKNS_7MessageE(ptr noundef nonnull align 8 dereferenceable(16) %ref.tmp, ptr noundef nonnull align 8 dereferenceable(8) %ref.tmp.i80)
          to label %invoke.cont2.i92 unwind label %lpad.i85

invoke.cont2.i92:                                 ; preds = %invoke.cont.i91
  %31 = load ptr, ptr %ref.tmp.i80, align 8
  %cmp.not.i.i.i93 = icmp eq ptr %31, null
  br i1 %cmp.not.i.i.i93, label %invoke.cont9, label %_ZNKSt14default_deleteINSt7__cxx1118basic_stringstreamIcSt11char_traitsIcESaIcEEEEclEPS5_.exit.i.i.i94

_ZNKSt14default_deleteINSt7__cxx1118basic_stringstreamIcSt11char_traitsIcESaIcEEEEclEPS5_.exit.i.i.i94: ; preds = %invoke.cont2.i92
  %vtable.i.i.i.i95 = load ptr, ptr %31, align 8
  %vfn.i.i.i.i96 = getelementptr inbounds ptr, ptr %vtable.i.i.i.i95, i64 1
  %32 = load ptr, ptr %vfn.i.i.i.i96, align 8
  call void %32(ptr noundef nonnull align 8 dereferenceable(128) %31) #31
  br label %invoke.cont9

lpad.i85:                                         ; preds = %invoke.cont.i91, %.noexc97
  %33 = landingpad { ptr, i32 }
          cleanup
  %34 = load ptr, ptr %ref.tmp.i80, align 8
  %cmp.not.i.i2.i86 = icmp eq ptr %34, null
  br i1 %cmp.not.i.i2.i86, label %ehcleanup26, label %_ZNKSt14default_deleteINSt7__cxx1118basic_stringstreamIcSt11char_traitsIcESaIcEEEEclEPS5_.exit.i.i3.i87

_ZNKSt14default_deleteINSt7__cxx1118basic_stringstreamIcSt11char_traitsIcESaIcEEEEclEPS5_.exit.i.i3.i87: ; preds = %lpad.i85
  %vtable.i.i.i4.i88 = load ptr, ptr %34, align 8
  %vfn.i.i.i5.i89 = getelementptr inbounds ptr, ptr %vtable.i.i.i4.i88, i64 1
  %35 = load ptr, ptr %vfn.i.i.i5.i89, align 8
  call void %35(ptr noundef nonnull align 8 dereferenceable(128) %34) #31
  br label %ehcleanup26

invoke.cont9:                                     ; preds = %_ZNKSt14default_deleteINSt7__cxx1118basic_stringstreamIcSt11char_traitsIcESaIcEEEEclEPS5_.exit.i.i.i94, %invoke.cont2.i92
  call void @llvm.lifetime.end.p0(i64 8, ptr nonnull %ref.tmp.i80)
  call void @llvm.lifetime.start.p0(i64 8, ptr nonnull %ref.tmp.i101)
  invoke void @_ZN7testing7MessageC1Ev(ptr noundef nonnull align 8 dereferenceable(8) %ref.tmp.i101)
          to label %.noexc116 unwind label %lpad

.noexc116:                                        ; preds = %invoke.cont9
  %36 = load ptr, ptr %ref.tmp.i101, align 8
  %add.ptr.i.i102 = getelementptr inbounds i8, ptr %36, i64 16
  %call2.i1.i103 = invoke noundef nonnull align 8 dereferenceable(8) ptr @_ZStlsISt11char_traitsIcEERSt13basic_ostreamIcT_ES5_PKc(ptr noundef nonnull align 8 dereferenceable(8) %add.ptr.i.i102, ptr noundef nonnull @.str.45)
          to label %invoke.cont.i110 unwind label %lpad.i104

invoke.cont.i110:                                 ; preds = %.noexc116
  invoke void @_ZN7testing15AssertionResult13AppendMessageERKNS_7MessageE(ptr noundef nonnull align 8 dereferenceable(16) %ref.tmp, ptr noundef nonnull align 8 dereferenceable(8) %ref.tmp.i101)
          to label %invoke.cont2.i111 unwind label %lpad.i104

invoke.cont2.i111:                                ; preds = %invoke.cont.i110
  %37 = load ptr, ptr %ref.tmp.i101, align 8
  %cmp.not.i.i.i112 = icmp eq ptr %37, null
  br i1 %cmp.not.i.i.i112, label %invoke.cont11, label %_ZNKSt14default_deleteINSt7__cxx1118basic_stringstreamIcSt11char_traitsIcESaIcEEEEclEPS5_.exit.i.i.i113

_ZNKSt14default_deleteINSt7__cxx1118basic_stringstreamIcSt11char_traitsIcESaIcEEEEclEPS5_.exit.i.i.i113: ; preds = %invoke.cont2.i111
  %vtable.i.i.i.i114 = load ptr, ptr %37, align 8
  %vfn.i.i.i.i115 = getelementptr inbounds ptr, ptr %vtable.i.i.i.i114, i64 1
  %38 = load ptr, ptr %vfn.i.i.i.i115, align 8
  call void %38(ptr noundef nonnull align 8 dereferenceable(128) %37) #31
  br label %invoke.cont11

lpad.i104:                                        ; preds = %invoke.cont.i110, %.noexc116
  %39 = landingpad { ptr, i32 }
          cleanup
  %40 = load ptr, ptr %ref.tmp.i101, align 8
  %cmp.not.i.i2.i105 = icmp eq ptr %40, null
  br i1 %cmp.not.i.i2.i105, label %ehcleanup26, label %_ZNKSt14default_deleteINSt7__cxx1118basic_stringstreamIcSt11char_traitsIcESaIcEEEEclEPS5_.exit.i.i3.i106

_ZNKSt14default_deleteINSt7__cxx1118basic_stringstreamIcSt11char_traitsIcESaIcEEEEclEPS5_.exit.i.i3.i106: ; preds = %lpad.i104
  %vtable.i.i.i4.i107 = load ptr, ptr %40, align 8
  %vfn.i.i.i5.i108 = getelementptr inbounds ptr, ptr %vtable.i.i.i4.i107, i64 1
  %41 = load ptr, ptr %vfn.i.i.i5.i108, align 8
  call void %41(ptr noundef nonnull align 8 dereferenceable(128) %40) #31
  br label %ehcleanup26

invoke.cont11:                                    ; preds = %_ZNKSt14default_deleteINSt7__cxx1118basic_stringstreamIcSt11char_traitsIcESaIcEEEEclEPS5_.exit.i.i.i113, %invoke.cont2.i111
  call void @llvm.lifetime.end.p0(i64 8, ptr nonnull %ref.tmp.i101)
  call void @llvm.lifetime.start.p0(i64 392, ptr nonnull %ss.i.i.i), !noalias !56
  invoke void @_ZNSt7__cxx1118basic_stringstreamIcSt11char_traitsIcESaIcEEC1Ev(ptr noundef nonnull align 8 dereferenceable(128) %ss.i.i.i)
          to label %.noexc120 unwind label %lpad

.noexc120:                                        ; preds = %invoke.cont11
  %add.ptr.i.i.i = getelementptr inbounds i8, ptr %ss.i.i.i, i64 16
  %42 = load i64, ptr %val1, align 8, !noalias !61
  %call.i.i.i.i.i.i1.i.i.i = invoke noundef nonnull align 8 dereferenceable(8) ptr @_ZNSolsEm(ptr noundef nonnull align 8 dereferenceable(8) %add.ptr.i.i.i, i64 noundef %42)
          to label %invoke.cont.i.i.i unwind label %lpad.i.i.i, !noalias !61

invoke.cont.i.i.i:                                ; preds = %.noexc120
  invoke void @_ZNKSt7__cxx1118basic_stringstreamIcSt11char_traitsIcESaIcEE3strEv(ptr nonnull sret(%"class.std::__cxx11::basic_string") align 8 %ref.tmp13, ptr noundef nonnull align 8 dereferenceable(128) %ss.i.i.i)
          to label %invoke.cont14 unwind label %lpad.i.i.i

lpad.i.i.i:                                       ; preds = %invoke.cont.i.i.i, %.noexc120
  %43 = landingpad { ptr, i32 }
          cleanup
  call void @_ZNSt7__cxx1118basic_stringstreamIcSt11char_traitsIcESaIcEED1Ev(ptr noundef nonnull align 8 dereferenceable(128) %ss.i.i.i) #31
  br label %ehcleanup26

invoke.cont14:                                    ; preds = %invoke.cont.i.i.i
  call void @_ZNSt7__cxx1118basic_stringstreamIcSt11char_traitsIcESaIcEED1Ev(ptr noundef nonnull align 8 dereferenceable(128) %ss.i.i.i) #31
  call void @llvm.lifetime.end.p0(i64 392, ptr nonnull %ss.i.i.i), !noalias !56
  call void @llvm.lifetime.start.p0(i64 8, ptr nonnull %ref.tmp.i123)
  invoke void @_ZN7testing7MessageC1Ev(ptr noundef nonnull align 8 dereferenceable(8) %ref.tmp.i123)
          to label %.noexc138 unwind label %lpad15

.noexc138:                                        ; preds = %invoke.cont14
  %44 = load ptr, ptr %ref.tmp.i123, align 8
  %add.ptr.i.i124 = getelementptr inbounds i8, ptr %44, i64 16
  %call2.i1.i125 = invoke noundef nonnull align 8 dereferenceable(8) ptr @_ZStlsIcSt11char_traitsIcESaIcEERSt13basic_ostreamIT_T0_ES7_RKNSt7__cxx1112basic_stringIS4_S5_T1_EE(ptr noundef nonnull align 8 dereferenceable(8) %add.ptr.i.i124, ptr noundef nonnull align 8 dereferenceable(32) %ref.tmp13)
          to label %invoke.cont.i132 unwind label %lpad.i126

invoke.cont.i132:                                 ; preds = %.noexc138
  invoke void @_ZN7testing15AssertionResult13AppendMessageERKNS_7MessageE(ptr noundef nonnull align 8 dereferenceable(16) %ref.tmp, ptr noundef nonnull align 8 dereferenceable(8) %ref.tmp.i123)
          to label %invoke.cont2.i133 unwind label %lpad.i126

invoke.cont2.i133:                                ; preds = %invoke.cont.i132
  %45 = load ptr, ptr %ref.tmp.i123, align 8
  %cmp.not.i.i.i134 = icmp eq ptr %45, null
  br i1 %cmp.not.i.i.i134, label %invoke.cont16, label %_ZNKSt14default_deleteINSt7__cxx1118basic_stringstreamIcSt11char_traitsIcESaIcEEEEclEPS5_.exit.i.i.i135

_ZNKSt14default_deleteINSt7__cxx1118basic_stringstreamIcSt11char_traitsIcESaIcEEEEclEPS5_.exit.i.i.i135: ; preds = %invoke.cont2.i133
  %vtable.i.i.i.i136 = load ptr, ptr %45, align 8
  %vfn.i.i.i.i137 = getelementptr inbounds ptr, ptr %vtable.i.i.i.i136, i64 1
  %46 = load ptr, ptr %vfn.i.i.i.i137, align 8
  call void %46(ptr noundef nonnull align 8 dereferenceable(128) %45) #31
  br label %invoke.cont16

lpad.i126:                                        ; preds = %invoke.cont.i132, %.noexc138
  %47 = landingpad { ptr, i32 }
          cleanup
  %48 = load ptr, ptr %ref.tmp.i123, align 8
  %cmp.not.i.i2.i127 = icmp eq ptr %48, null
  br i1 %cmp.not.i.i2.i127, label %ehcleanup, label %_ZNKSt14default_deleteINSt7__cxx1118basic_stringstreamIcSt11char_traitsIcESaIcEEEEclEPS5_.exit.i.i3.i128

_ZNKSt14default_deleteINSt7__cxx1118basic_stringstreamIcSt11char_traitsIcESaIcEEEEclEPS5_.exit.i.i3.i128: ; preds = %lpad.i126
  %vtable.i.i.i4.i129 = load ptr, ptr %48, align 8
  %vfn.i.i.i5.i130 = getelementptr inbounds ptr, ptr %vtable.i.i.i4.i129, i64 1
  %49 = load ptr, ptr %vfn.i.i.i5.i130, align 8
  call void %49(ptr noundef nonnull align 8 dereferenceable(128) %48) #31
  br label %ehcleanup

invoke.cont16:                                    ; preds = %_ZNKSt14default_deleteINSt7__cxx1118basic_stringstreamIcSt11char_traitsIcESaIcEEEEclEPS5_.exit.i.i.i135, %invoke.cont2.i133
  call void @llvm.lifetime.end.p0(i64 8, ptr nonnull %ref.tmp.i123)
  call void @llvm.lifetime.start.p0(i64 8, ptr nonnull %ref.tmp.i140)
  invoke void @_ZN7testing7MessageC1Ev(ptr noundef nonnull align 8 dereferenceable(8) %ref.tmp.i140)
          to label %.noexc155 unwind label %lpad15

.noexc155:                                        ; preds = %invoke.cont16
  %50 = load ptr, ptr %ref.tmp.i140, align 8
  %add.ptr.i.i141 = getelementptr inbounds i8, ptr %50, i64 16
  %call2.i1.i142 = invoke noundef nonnull align 8 dereferenceable(8) ptr @_ZStlsISt11char_traitsIcEERSt13basic_ostreamIcT_ES5_PKc(ptr noundef nonnull align 8 dereferenceable(8) %add.ptr.i.i141, ptr noundef nonnull @.str.46)
          to label %invoke.cont.i149 unwind label %lpad.i143

invoke.cont.i149:                                 ; preds = %.noexc155
  invoke void @_ZN7testing15AssertionResult13AppendMessageERKNS_7MessageE(ptr noundef nonnull align 8 dereferenceable(16) %ref.tmp, ptr noundef nonnull align 8 dereferenceable(8) %ref.tmp.i140)
          to label %invoke.cont2.i150 unwind label %lpad.i143

invoke.cont2.i150:                                ; preds = %invoke.cont.i149
  %51 = load ptr, ptr %ref.tmp.i140, align 8
  %cmp.not.i.i.i151 = icmp eq ptr %51, null
  br i1 %cmp.not.i.i.i151, label %invoke.cont18, label %_ZNKSt14default_deleteINSt7__cxx1118basic_stringstreamIcSt11char_traitsIcESaIcEEEEclEPS5_.exit.i.i.i152

_ZNKSt14default_deleteINSt7__cxx1118basic_stringstreamIcSt11char_traitsIcESaIcEEEEclEPS5_.exit.i.i.i152: ; preds = %invoke.cont2.i150
  %vtable.i.i.i.i153 = load ptr, ptr %51, align 8
  %vfn.i.i.i.i154 = getelementptr inbounds ptr, ptr %vtable.i.i.i.i153, i64 1
  %52 = load ptr, ptr %vfn.i.i.i.i154, align 8
  call void %52(ptr noundef nonnull align 8 dereferenceable(128) %51) #31
  br label %invoke.cont18

lpad.i143:                                        ; preds = %invoke.cont.i149, %.noexc155
  %53 = landingpad { ptr, i32 }
          cleanup
  %54 = load ptr, ptr %ref.tmp.i140, align 8
  %cmp.not.i.i2.i144 = icmp eq ptr %54, null
  br i1 %cmp.not.i.i2.i144, label %ehcleanup, label %_ZNKSt14default_deleteINSt7__cxx1118basic_stringstreamIcSt11char_traitsIcESaIcEEEEclEPS5_.exit.i.i3.i145

_ZNKSt14default_deleteINSt7__cxx1118basic_stringstreamIcSt11char_traitsIcESaIcEEEEclEPS5_.exit.i.i3.i145: ; preds = %lpad.i143
  %vtable.i.i.i4.i146 = load ptr, ptr %54, align 8
  %vfn.i.i.i5.i147 = getelementptr inbounds ptr, ptr %vtable.i.i.i4.i146, i64 1
  %55 = load ptr, ptr %vfn.i.i.i5.i147, align 8
  call void %55(ptr noundef nonnull align 8 dereferenceable(128) %54) #31
  br label %ehcleanup

invoke.cont18:                                    ; preds = %_ZNKSt14default_deleteINSt7__cxx1118basic_stringstreamIcSt11char_traitsIcESaIcEEEEclEPS5_.exit.i.i.i152, %invoke.cont2.i150
  call void @llvm.lifetime.end.p0(i64 8, ptr nonnull %ref.tmp.i140)
  call void @llvm.lifetime.start.p0(i64 392, ptr nonnull %ss.i.i.i158), !noalias !64
  invoke void @_ZNSt7__cxx1118basic_stringstreamIcSt11char_traitsIcESaIcEEC1Ev(ptr noundef nonnull align 8 dereferenceable(128) %ss.i.i.i158)
          to label %.noexc163 unwind label %lpad15

.noexc163:                                        ; preds = %invoke.cont18
  %add.ptr.i.i.i159 = getelementptr inbounds i8, ptr %ss.i.i.i158, i64 16
  %56 = load i32, ptr %val2, align 4, !noalias !69
  %call.i.i.i.i.i.i1.i.i.i160 = invoke noundef nonnull align 8 dereferenceable(8) ptr @_ZNSolsEi(ptr noundef nonnull align 8 dereferenceable(8) %add.ptr.i.i.i159, i32 noundef %56)
          to label %invoke.cont.i.i.i162 unwind label %lpad.i.i.i161, !noalias !69

invoke.cont.i.i.i162:                             ; preds = %.noexc163
  invoke void @_ZNKSt7__cxx1118basic_stringstreamIcSt11char_traitsIcESaIcEE3strEv(ptr nonnull sret(%"class.std::__cxx11::basic_string") align 8 %ref.tmp20, ptr noundef nonnull align 8 dereferenceable(128) %ss.i.i.i158)
          to label %invoke.cont21 unwind label %lpad.i.i.i161

lpad.i.i.i161:                                    ; preds = %invoke.cont.i.i.i162, %.noexc163
  %57 = landingpad { ptr, i32 }
          cleanup
  call void @_ZNSt7__cxx1118basic_stringstreamIcSt11char_traitsIcESaIcEED1Ev(ptr noundef nonnull align 8 dereferenceable(128) %ss.i.i.i158) #31
  br label %ehcleanup

invoke.cont21:                                    ; preds = %invoke.cont.i.i.i162
  call void @_ZNSt7__cxx1118basic_stringstreamIcSt11char_traitsIcESaIcEED1Ev(ptr noundef nonnull align 8 dereferenceable(128) %ss.i.i.i158) #31
  call void @llvm.lifetime.end.p0(i64 392, ptr nonnull %ss.i.i.i158), !noalias !64
  call void @llvm.lifetime.start.p0(i64 8, ptr nonnull %ref.tmp.i166)
  invoke void @_ZN7testing7MessageC1Ev(ptr noundef nonnull align 8 dereferenceable(8) %ref.tmp.i166)
          to label %.noexc181 unwind label %lpad22

.noexc181:                                        ; preds = %invoke.cont21
  %58 = load ptr, ptr %ref.tmp.i166, align 8
  %add.ptr.i.i167 = getelementptr inbounds i8, ptr %58, i64 16
  %call2.i1.i168 = invoke noundef nonnull align 8 dereferenceable(8) ptr @_ZStlsIcSt11char_traitsIcESaIcEERSt13basic_ostreamIT_T0_ES7_RKNSt7__cxx1112basic_stringIS4_S5_T1_EE(ptr noundef nonnull align 8 dereferenceable(8) %add.ptr.i.i167, ptr noundef nonnull align 8 dereferenceable(32) %ref.tmp20)
          to label %invoke.cont.i175 unwind label %lpad.i169

invoke.cont.i175:                                 ; preds = %.noexc181
  invoke void @_ZN7testing15AssertionResult13AppendMessageERKNS_7MessageE(ptr noundef nonnull align 8 dereferenceable(16) %ref.tmp, ptr noundef nonnull align 8 dereferenceable(8) %ref.tmp.i166)
          to label %invoke.cont2.i176 unwind label %lpad.i169

invoke.cont2.i176:                                ; preds = %invoke.cont.i175
  %59 = load ptr, ptr %ref.tmp.i166, align 8
  %cmp.not.i.i.i177 = icmp eq ptr %59, null
  br i1 %cmp.not.i.i.i177, label %invoke.cont23, label %_ZNKSt14default_deleteINSt7__cxx1118basic_stringstreamIcSt11char_traitsIcESaIcEEEEclEPS5_.exit.i.i.i178

_ZNKSt14default_deleteINSt7__cxx1118basic_stringstreamIcSt11char_traitsIcESaIcEEEEclEPS5_.exit.i.i.i178: ; preds = %invoke.cont2.i176
  %vtable.i.i.i.i179 = load ptr, ptr %59, align 8
  %vfn.i.i.i.i180 = getelementptr inbounds ptr, ptr %vtable.i.i.i.i179, i64 1
  %60 = load ptr, ptr %vfn.i.i.i.i180, align 8
  call void %60(ptr noundef nonnull align 8 dereferenceable(128) %59) #31
  br label %invoke.cont23

lpad.i169:                                        ; preds = %invoke.cont.i175, %.noexc181
  %61 = landingpad { ptr, i32 }
          cleanup
  %62 = load ptr, ptr %ref.tmp.i166, align 8
  %cmp.not.i.i2.i170 = icmp eq ptr %62, null
  br i1 %cmp.not.i.i2.i170, label %lpad22.body, label %_ZNKSt14default_deleteINSt7__cxx1118basic_stringstreamIcSt11char_traitsIcESaIcEEEEclEPS5_.exit.i.i3.i171

_ZNKSt14default_deleteINSt7__cxx1118basic_stringstreamIcSt11char_traitsIcESaIcEEEEclEPS5_.exit.i.i3.i171: ; preds = %lpad.i169
  %vtable.i.i.i4.i172 = load ptr, ptr %62, align 8
  %vfn.i.i.i5.i173 = getelementptr inbounds ptr, ptr %vtable.i.i.i4.i172, i64 1
  %63 = load ptr, ptr %vfn.i.i.i5.i173, align 8
  call void %63(ptr noundef nonnull align 8 dereferenceable(128) %62) #31
  br label %lpad22.body

invoke.cont23:                                    ; preds = %_ZNKSt14default_deleteINSt7__cxx1118basic_stringstreamIcSt11char_traitsIcESaIcEEEEclEPS5_.exit.i.i.i178, %invoke.cont2.i176
  call void @llvm.lifetime.end.p0(i64 8, ptr nonnull %ref.tmp.i166)
  invoke void @_ZN7testing15AssertionResultC1ERKS0_(ptr noundef nonnull align 8 dereferenceable(16) %agg.result, ptr noundef nonnull align 8 dereferenceable(16) %ref.tmp)
          to label %invoke.cont25 unwind label %lpad22

invoke.cont25:                                    ; preds = %invoke.cont23
  call void @_ZNSt7__cxx1112basic_stringIcSt11char_traitsIcESaIcEED1Ev(ptr noundef nonnull align 8 dereferenceable(32) %ref.tmp20) #31
  call void @_ZNSt7__cxx1112basic_stringIcSt11char_traitsIcESaIcEED1Ev(ptr noundef nonnull align 8 dereferenceable(32) %ref.tmp13) #31
  %message_.i = getelementptr inbounds %"class.testing::AssertionResult", ptr %ref.tmp, i64 0, i32 1
  %64 = load ptr, ptr %message_.i, align 8
  %cmp.not.i.i = icmp eq ptr %64, null
  br i1 %cmp.not.i.i, label %_ZN7testing15AssertionResultD2Ev.exit, label %_ZNKSt14default_deleteINSt7__cxx1112basic_stringIcSt11char_traitsIcESaIcEEEEclEPS5_.exit.i.i

_ZNKSt14default_deleteINSt7__cxx1112basic_stringIcSt11char_traitsIcESaIcEEEEclEPS5_.exit.i.i: ; preds = %invoke.cont25
  call void @_ZNSt7__cxx1112basic_stringIcSt11char_traitsIcESaIcEED1Ev(ptr noundef nonnull align 8 dereferenceable(32) %64) #31
  call void @_ZdlPv(ptr noundef nonnull %64) #32
  br label %_ZN7testing15AssertionResultD2Ev.exit

_ZN7testing15AssertionResultD2Ev.exit:            ; preds = %invoke.cont25, %_ZNKSt14default_deleteINSt7__cxx1112basic_stringIcSt11char_traitsIcESaIcEEEEclEPS5_.exit.i.i
  ret void

lpad:                                             ; preds = %invoke.cont11, %invoke.cont9, %invoke.cont7, %invoke.cont5, %invoke.cont3, %invoke.cont1, %invoke.cont, %entry
  %65 = landingpad { ptr, i32 }
          cleanup
  br label %ehcleanup26

lpad15:                                           ; preds = %invoke.cont18, %invoke.cont16, %invoke.cont14
  %66 = landingpad { ptr, i32 }
          cleanup
  br label %ehcleanup

lpad22:                                           ; preds = %invoke.cont21, %invoke.cont23
  %67 = landingpad { ptr, i32 }
          cleanup
  br label %lpad22.body

lpad22.body:                                      ; preds = %lpad.i169, %_ZNKSt14default_deleteINSt7__cxx1118basic_stringstreamIcSt11char_traitsIcESaIcEEEEclEPS5_.exit.i.i3.i171, %lpad22
  %eh.lpad-body182 = phi { ptr, i32 } [ %67, %lpad22 ], [ %61, %_ZNKSt14default_deleteINSt7__cxx1118basic_stringstreamIcSt11char_traitsIcESaIcEEEEclEPS5_.exit.i.i3.i171 ], [ %61, %lpad.i169 ]
  call void @_ZNSt7__cxx1112basic_stringIcSt11char_traitsIcESaIcEED1Ev(ptr noundef nonnull align 8 dereferenceable(32) %ref.tmp20) #31
  br label %ehcleanup

ehcleanup:                                        ; preds = %_ZNKSt14default_deleteINSt7__cxx1118basic_stringstreamIcSt11char_traitsIcESaIcEEEEclEPS5_.exit.i.i3.i128, %lpad.i126, %lpad15, %lpad.i.i.i161, %lpad.i143, %_ZNKSt14default_deleteINSt7__cxx1118basic_stringstreamIcSt11char_traitsIcESaIcEEEEclEPS5_.exit.i.i3.i145, %lpad22.body
  %.pn = phi { ptr, i32 } [ %eh.lpad-body182, %lpad22.body ], [ %47, %_ZNKSt14default_deleteINSt7__cxx1118basic_stringstreamIcSt11char_traitsIcESaIcEEEEclEPS5_.exit.i.i3.i128 ], [ %47, %lpad.i126 ], [ %53, %_ZNKSt14default_deleteINSt7__cxx1118basic_stringstreamIcSt11char_traitsIcESaIcEEEEclEPS5_.exit.i.i3.i145 ], [ %53, %lpad.i143 ], [ %66, %lpad15 ], [ %57, %lpad.i.i.i161 ]
  call void @_ZNSt7__cxx1112basic_stringIcSt11char_traitsIcESaIcEED1Ev(ptr noundef nonnull align 8 dereferenceable(32) %ref.tmp13) #31
  br label %ehcleanup26

ehcleanup26:                                      ; preds = %_ZNKSt14default_deleteINSt7__cxx1118basic_stringstreamIcSt11char_traitsIcESaIcEEEEclEPS5_.exit.i.i3.i, %lpad.i, %_ZNKSt14default_deleteINSt7__cxx1118basic_stringstreamIcSt11char_traitsIcESaIcEEEEclEPS5_.exit.i.i3.i27, %lpad.i25, %_ZNKSt14default_deleteINSt7__cxx1118basic_stringstreamIcSt11char_traitsIcESaIcEEEEclEPS5_.exit.i.i3.i66, %lpad.i64, %_ZNKSt14default_deleteINSt7__cxx1118basic_stringstreamIcSt11char_traitsIcESaIcEEEEclEPS5_.exit.i.i3.i106, %lpad.i104, %lpad.i.i.i, %lpad, %lpad.i85, %_ZNKSt14default_deleteINSt7__cxx1118basic_stringstreamIcSt11char_traitsIcESaIcEEEEclEPS5_.exit.i.i3.i87, %lpad.i45, %_ZNKSt14default_deleteINSt7__cxx1118basic_stringstreamIcSt11char_traitsIcESaIcEEEEclEPS5_.exit.i.i3.i47, %lpad.i7, %_ZNKSt14default_deleteINSt7__cxx1118basic_stringstreamIcSt11char_traitsIcESaIcEEEEclEPS5_.exit.i.i3.i9, %ehcleanup
  %.pn.pn = phi { ptr, i32 } [ %.pn, %ehcleanup ], [ %3, %_ZNKSt14default_deleteINSt7__cxx1118basic_stringstreamIcSt11char_traitsIcESaIcEEEEclEPS5_.exit.i.i3.i ], [ %3, %lpad.i ], [ %9, %_ZNKSt14default_deleteINSt7__cxx1118basic_stringstreamIcSt11char_traitsIcESaIcEEEEclEPS5_.exit.i.i3.i9 ], [ %9, %lpad.i7 ], [ %15, %_ZNKSt14default_deleteINSt7__cxx1118basic_stringstreamIcSt11char_traitsIcESaIcEEEEclEPS5_.exit.i.i3.i27 ], [ %15, %lpad.i25 ], [ %21, %_ZNKSt14default_deleteINSt7__cxx1118basic_stringstreamIcSt11char_traitsIcESaIcEEEEclEPS5_.exit.i.i3.i47 ], [ %21, %lpad.i45 ], [ %27, %_ZNKSt14default_deleteINSt7__cxx1118basic_stringstreamIcSt11char_traitsIcESaIcEEEEclEPS5_.exit.i.i3.i66 ], [ %27, %lpad.i64 ], [ %33, %_ZNKSt14default_deleteINSt7__cxx1118basic_stringstreamIcSt11char_traitsIcESaIcEEEEclEPS5_.exit.i.i3.i87 ], [ %33, %lpad.i85 ], [ %39, %_ZNKSt14default_deleteINSt7__cxx1118basic_stringstreamIcSt11char_traitsIcESaIcEEEEclEPS5_.exit.i.i3.i106 ], [ %39, %lpad.i104 ], [ %65, %lpad ], [ %43, %lpad.i.i.i ]
  call void @_ZN7testing15AssertionResultD2Ev(ptr noundef nonnull align 8 dereferenceable(16) %ref.tmp) #31
  resume { ptr, i32 } %.pn.pn
}

declare noundef nonnull align 8 dereferenceable(8) ptr @_ZNSolsEm(ptr noundef nonnull align 8 dereferenceable(8), i64 noundef) local_unnamed_addr #0

declare noundef nonnull align 8 dereferenceable(8) ptr @_ZNSolsEi(ptr noundef nonnull align 8 dereferenceable(8), i32 noundef) local_unnamed_addr #0

declare noundef nonnull align 8 dereferenceable(16) ptr @_ZN4absl12log_internal10LogMessagelsImTnNSt9enable_ifIXntsr4absl16HasAbslStringifyIT_EE5valueEiE4typeELi0EEERS1_RKS4_(ptr noundef nonnull align 8 dereferenceable(16), ptr noundef nonnull align 8 dereferenceable(8)) local_unnamed_addr #0

declare noundef nonnull align 8 dereferenceable(16) ptr @_ZN4absl12log_internal10LogMessagelsIiTnNSt9enable_ifIXntsr4absl16HasAbslStringifyIT_EE5valueEiE4typeELi0EEERS1_RKS4_(ptr noundef nonnull align 8 dereferenceable(16), ptr noundef nonnull align 4 dereferenceable(4)) local_unnamed_addr #0

; Function Attrs: mustprogress uwtable
define linkonce_odr dso_local void @_ZN7testing8internal18CmpHelperOpFailureIiiEENS_15AssertionResultEPKcS4_RKT_RKT0_S4_(ptr noalias sret(%"class.testing::AssertionResult") align 8 %agg.result, ptr noundef %expr1, ptr noundef %expr2, ptr noundef nonnull align 4 dereferenceable(4) %val1, ptr noundef nonnull align 4 dereferenceable(4) %val2, ptr noundef %op) local_unnamed_addr #4 comdat personality ptr @__gxx_personality_v0 {
entry:
  %ref.tmp.i167 = alloca %"class.testing::Message", align 8
  %ss.i.i.i158 = alloca %"class.std::__cxx11::basic_stringstream", align 8
  %ref.tmp.i140 = alloca %"class.testing::Message", align 8
  %ref.tmp.i123 = alloca %"class.testing::Message", align 8
  %ss.i.i.i = alloca %"class.std::__cxx11::basic_stringstream", align 8
  %ref.tmp.i101 = alloca %"class.testing::Message", align 8
  %ref.tmp.i80 = alloca %"class.testing::Message", align 8
  %ref.tmp.i61 = alloca %"class.testing::Message", align 8
  %ref.tmp.i40 = alloca %"class.testing::Message", align 8
  %ref.tmp.i22 = alloca %"class.testing::Message", align 8
  %ref.tmp.i5 = alloca %"class.testing::Message", align 8
  %ref.tmp.i = alloca %"class.testing::Message", align 8
  %ref.tmp = alloca %"class.testing::AssertionResult", align 8
  %ref.tmp13 = alloca %"class.std::__cxx11::basic_string", align 8
  %ref.tmp20 = alloca %"class.std::__cxx11::basic_string", align 8
  call void @_ZN7testing16AssertionFailureEv(ptr nonnull sret(%"class.testing::AssertionResult") align 8 %ref.tmp)
  call void @llvm.lifetime.start.p0(i64 8, ptr nonnull %ref.tmp.i)
  invoke void @_ZN7testing7MessageC1Ev(ptr noundef nonnull align 8 dereferenceable(8) %ref.tmp.i)
          to label %.noexc unwind label %lpad

.noexc:                                           ; preds = %entry
  %0 = load ptr, ptr %ref.tmp.i, align 8
  %add.ptr.i.i = getelementptr inbounds i8, ptr %0, i64 16
  %call2.i1.i = invoke noundef nonnull align 8 dereferenceable(8) ptr @_ZStlsISt11char_traitsIcEERSt13basic_ostreamIcT_ES5_PKc(ptr noundef nonnull align 8 dereferenceable(8) %add.ptr.i.i, ptr noundef nonnull @.str.42)
          to label %invoke.cont.i unwind label %lpad.i

invoke.cont.i:                                    ; preds = %.noexc
  invoke void @_ZN7testing15AssertionResult13AppendMessageERKNS_7MessageE(ptr noundef nonnull align 8 dereferenceable(16) %ref.tmp, ptr noundef nonnull align 8 dereferenceable(8) %ref.tmp.i)
          to label %invoke.cont2.i unwind label %lpad.i

