; ModuleID = 'bench/abseil-cpp/original/discrete_distribution_test.cc.ll'
source_filename = "bench/abseil-cpp/original/discrete_distribution_test.cc.ll"
target datalayout = "e-m:e-p270:32:32-p271:32:32-p272:64:64-i64:64-i128:128-f80:128-n8:16:32:64-S128"
target triple = "x86_64-unknown-linux-gnu"

%"class.std::ios_base::Init" = type { i8 }
%"class.std::basic_ostream" = type { ptr, %"class.std::basic_ios" }
%"class.std::basic_ios" = type { %"class.std::ios_base", ptr, i8, i8, ptr, ptr, ptr, ptr }
%"class.std::ios_base" = type { ptr, i64, i64, i32, i32, i32, ptr, %"struct.std::ios_base::_Words", [8 x %"struct.std::ios_base::_Words"], i32, ptr, %"class.std::locale" }
%"struct.std::ios_base::_Words" = type { ptr, i64 }
%"class.std::locale" = type { ptr }
%"struct.testing::internal::MatcherBase<const double &>::VTable" = type { ptr, ptr, ptr, ptr }
%"struct.testing::internal::MatcherBase<const std::vector<double> &>::VTable" = type { ptr, ptr, ptr, ptr }
%"struct.testing::internal::MatcherBase<const unsigned long &>::VTable" = type { ptr, ptr, ptr, ptr }
%"struct.testing::internal::MatcherBase<const std::pair<double, unsigned long> &>::VTable" = type { ptr, ptr, ptr, ptr }
%"struct.testing::internal::MatcherBase<const std::vector<std::pair<double, unsigned long>> &>::VTable" = type { ptr, ptr, ptr, ptr }
%"struct.testing::internal::MatcherBase<const int &>::VTable" = type { ptr, ptr, ptr, ptr }
%"struct.testing::internal::MatcherBase<const std::vector<int> &>::VTable" = type { ptr, ptr, ptr, ptr }
%"struct.std::_Vector_base<std::__cxx11::basic_string<char>, std::allocator<std::__cxx11::basic_string<char>>>::_Vector_impl_data" = type { ptr, ptr, ptr }
%"class.std::__cxx11::basic_string" = type { %"struct.std::__cxx11::basic_string<char>::_Alloc_hider", i64, %union.anon }
%"struct.std::__cxx11::basic_string<char>::_Alloc_hider" = type { ptr }
%union.anon = type { i64, [8 x i8] }
%"class.testing::internal::GTestLog" = type { i32 }
%"class.std::vector.7" = type { %"struct.std::_Vector_base.8" }
%"struct.std::_Vector_base.8" = type { %"struct.std::_Vector_base<double, std::allocator<double>>::_Vector_impl" }
%"struct.std::_Vector_base<double, std::allocator<double>>::_Vector_impl" = type { %"struct.std::_Vector_base<double, std::allocator<double>>::_Vector_impl_data" }
%"struct.std::_Vector_base<double, std::allocator<double>>::_Vector_impl_data" = type { ptr, ptr, ptr }
%"class.std::vector.12" = type { %"struct.std::_Vector_base.13" }
%"struct.std::_Vector_base.13" = type { %"struct.std::_Vector_base<std::pair<double, unsigned long>, std::allocator<std::pair<double, unsigned long>>>::_Vector_impl" }
%"struct.std::_Vector_base<std::pair<double, unsigned long>, std::allocator<std::pair<double, unsigned long>>>::_Vector_impl" = type { %"struct.std::_Vector_base<std::pair<double, unsigned long>, std::allocator<std::pair<double, unsigned long>>>::_Vector_impl_data" }
%"struct.std::_Vector_base<std::pair<double, unsigned long>, std::allocator<std::pair<double, unsigned long>>>::_Vector_impl_data" = type { ptr, ptr, ptr }
%"class.testing::AssertionResult" = type { i8, %"class.std::unique_ptr.17" }
%"class.std::unique_ptr.17" = type { %"struct.std::__uniq_ptr_data.18" }
%"struct.std::__uniq_ptr_data.18" = type { %"class.std::__uniq_ptr_impl.19" }
%"class.std::__uniq_ptr_impl.19" = type { %"class.std::tuple.20" }
%"class.std::tuple.20" = type { %"struct.std::_Tuple_impl.21" }
%"struct.std::_Tuple_impl.21" = type { %"struct.std::_Head_base.24" }
%"struct.std::_Head_base.24" = type { ptr }
%"class.testing::internal::PredicateFormatterFromMatcher" = type { %"class.testing::internal::ElementsAreMatcher" }
%"class.testing::internal::ElementsAreMatcher" = type { %"class.std::tuple.25" }
%"class.std::tuple.25" = type { %"struct.std::_Tuple_impl.26" }
%"struct.std::_Tuple_impl.26" = type { %"struct.std::_Tuple_impl.27", %"struct.std::_Head_base.31" }
%"struct.std::_Tuple_impl.27" = type { %"struct.std::_Tuple_impl.28", %"struct.std::_Head_base.30" }
%"struct.std::_Tuple_impl.28" = type { %"struct.std::_Head_base.29" }
%"struct.std::_Head_base.29" = type { double }
%"struct.std::_Head_base.30" = type { double }
%"struct.std::_Head_base.31" = type { double }
%"class.testing::Message" = type { %"class.std::unique_ptr.32" }
%"class.std::unique_ptr.32" = type { %"struct.std::__uniq_ptr_data.33" }
%"struct.std::__uniq_ptr_data.33" = type { %"class.std::__uniq_ptr_impl.34" }
%"class.std::__uniq_ptr_impl.34" = type { %"class.std::tuple.35" }
%"class.std::tuple.35" = type { %"struct.std::_Tuple_impl.36" }
%"struct.std::_Tuple_impl.36" = type { %"struct.std::_Head_base.39" }
%"struct.std::_Head_base.39" = type { ptr }
%"class.testing::internal::AssertHelper" = type { ptr }
%"class.testing::internal::PredicateFormatterFromMatcher.40" = type { %"class.testing::internal::ElementsAreMatcher.41" }
%"class.testing::internal::ElementsAreMatcher.41" = type { %"class.std::tuple.42" }
%"class.std::tuple.42" = type { %"struct.std::_Tuple_impl.43" }
%"struct.std::_Tuple_impl.43" = type { %"struct.std::_Tuple_impl.44", %"struct.std::_Head_base.48" }
%"struct.std::_Tuple_impl.44" = type { %"struct.std::_Tuple_impl.45", %"struct.std::_Head_base.47" }
%"struct.std::_Tuple_impl.45" = type { %"struct.std::_Head_base.46" }
%"struct.std::_Head_base.46" = type { %"class.testing::internal::PairMatcher" }
%"class.testing::internal::PairMatcher" = type <{ double, %"class.testing::internal::AnythingMatcher", [7 x i8] }>
%"class.testing::internal::AnythingMatcher" = type { i8 }
%"struct.std::_Head_base.47" = type { %"class.testing::internal::PairMatcher" }
%"struct.std::_Head_base.48" = type { %"class.testing::internal::PairMatcher.49" }
%"class.testing::internal::PairMatcher.49" = type <{ double, i32, [4 x i8] }>
%"class.testing::internal::PredicateFormatterFromMatcher.51" = type { %"class.testing::internal::ElementsAreMatcher.52" }
%"class.testing::internal::ElementsAreMatcher.52" = type { %"class.std::tuple.53" }
%"class.std::tuple.53" = type { %"struct.std::_Tuple_impl.54" }
%"struct.std::_Tuple_impl.54" = type { %"struct.std::_Tuple_impl.55", %"struct.std::_Head_base.31" }
%"struct.std::_Tuple_impl.55" = type { %"struct.std::_Tuple_impl.56", %"struct.std::_Head_base.30" }
%"struct.std::_Tuple_impl.56" = type { %"struct.std::_Tuple_impl.57", %"struct.std::_Head_base.29" }
%"struct.std::_Tuple_impl.57" = type { %"struct.std::_Tuple_impl.58", %"struct.std::_Head_base.60" }
%"struct.std::_Tuple_impl.58" = type { %"struct.std::_Head_base.59" }
%"struct.std::_Head_base.59" = type { double }
%"struct.std::_Head_base.60" = type { double }
%"class.testing::internal::PredicateFormatterFromMatcher.61" = type { %"class.testing::internal::ElementsAreMatcher.62" }
%"class.testing::internal::ElementsAreMatcher.62" = type { %"class.std::tuple.63" }
%"class.std::tuple.63" = type { %"struct.std::_Tuple_impl.64" }
%"struct.std::_Tuple_impl.64" = type { %"struct.std::_Tuple_impl.65", %"struct.std::_Head_base.48" }
%"struct.std::_Tuple_impl.65" = type { %"struct.std::_Tuple_impl.66", %"struct.std::_Head_base.71" }
%"struct.std::_Tuple_impl.66" = type { %"struct.std::_Tuple_impl.67", %"struct.std::_Head_base.46" }
%"struct.std::_Tuple_impl.67" = type { %"struct.std::_Tuple_impl.68", %"struct.std::_Head_base.70" }
%"struct.std::_Tuple_impl.68" = type { %"struct.std::_Head_base.69" }
%"struct.std::_Head_base.69" = type { %"class.testing::internal::PairMatcher.49" }
%"struct.std::_Head_base.70" = type { %"class.testing::internal::PairMatcher.49" }
%"struct.std::_Head_base.71" = type { %"class.testing::internal::PairMatcher.49" }
%"class.testing::internal::DummyMatchResultListener" = type { %"class.testing::MatchResultListener" }
%"class.testing::MatchResultListener" = type { ptr, ptr }
%"class.testing::Matcher" = type { %"class.testing::internal::MatcherBase" }
%"class.testing::internal::MatcherBase" = type { %"class.testing::MatcherDescriberInterface", ptr, %"union.testing::internal::MatcherBase<const std::vector<double> &>::Buffer" }
%"class.testing::MatcherDescriberInterface" = type { ptr }
%"union.testing::internal::MatcherBase<const std::vector<double> &>::Buffer" = type { ptr }
%"class.std::__cxx11::basic_stringstream" = type { %"class.std::basic_iostream.base", %"class.std::__cxx11::basic_stringbuf", %"class.std::basic_ios" }
%"class.std::basic_iostream.base" = type { %"class.std::basic_istream.base", %"class.std::basic_ostream.base" }
%"class.std::basic_istream.base" = type { ptr, i64 }
%"class.std::basic_ostream.base" = type { ptr }
%"class.std::__cxx11::basic_stringbuf" = type { %"class.std::basic_streambuf", i32, %"class.std::__cxx11::basic_string" }
%"class.std::basic_streambuf" = type { ptr, ptr, ptr, ptr, ptr, ptr, ptr, %"class.std::locale" }
%"class.testing::StringMatchResultListener" = type { %"class.testing::MatchResultListener", %"class.std::__cxx11::basic_stringstream" }
%"class.testing::Matcher.109" = type { %"class.testing::internal::MatcherBase.110" }
%"class.testing::internal::MatcherBase.110" = type { %"class.testing::MatcherDescriberInterface", ptr, %"union.testing::internal::MatcherBase<const std::vector<std::pair<double, unsigned long>> &>::Buffer" }
%"union.testing::internal::MatcherBase<const std::vector<std::pair<double, unsigned long>> &>::Buffer" = type { ptr }
%"struct.testing::internal::TransformTupleValuesHelper<std::tuple<double, double, double>, testing::internal::CastAndAppendTransform<const double &>, std::back_insert_iterator<std::vector<testing::Matcher<const double &>>>>::IterateOverTuple" = type { i8 }
%"class.std::vector.74" = type { %"struct.std::_Vector_base.75" }
%"struct.std::_Vector_base.75" = type { %"struct.std::_Vector_base<testing::Matcher<const double &>, std::allocator<testing::Matcher<const double &>>>::_Vector_impl" }
%"struct.std::_Vector_base<testing::Matcher<const double &>, std::allocator<testing::Matcher<const double &>>>::_Vector_impl" = type { %"struct.std::_Vector_base<testing::Matcher<const double &>, std::allocator<testing::Matcher<const double &>>>::_Vector_impl_data" }
%"struct.std::_Vector_base<testing::Matcher<const double &>, std::allocator<testing::Matcher<const double &>>>::_Vector_impl_data" = type { ptr, ptr, ptr }
%"class.testing::Matcher.79" = type { %"class.testing::internal::MatcherBase.80" }
%"class.testing::internal::MatcherBase.80" = type { %"class.testing::MatcherDescriberInterface", ptr, %"union.testing::internal::MatcherBase<const double &>::Buffer" }
%"union.testing::internal::MatcherBase<const double &>::Buffer" = type { ptr }
%"struct.testing::internal::SharedPayload" = type { %"struct.testing::internal::SharedPayloadBase", %"class.std::unique_ptr.92" }
%"struct.testing::internal::SharedPayloadBase" = type { %"struct.std::atomic" }
%"struct.std::atomic" = type { %"struct.std::__atomic_base" }
%"struct.std::__atomic_base" = type { i32 }
%"class.std::unique_ptr.92" = type { %"struct.std::__uniq_ptr_data.93" }
%"struct.std::__uniq_ptr_data.93" = type { %"class.std::__uniq_ptr_impl.94" }
%"class.std::__uniq_ptr_impl.94" = type { %"class.std::tuple.95" }
%"class.std::tuple.95" = type { %"struct.std::_Tuple_impl.96" }
%"struct.std::_Tuple_impl.96" = type { %"struct.std::_Head_base.99" }
%"struct.std::_Head_base.99" = type { ptr }
%"class.testing::internal::ElementsAreMatcherImpl" = type { %"class.testing::MatcherInterface", %"class.std::vector.74" }
%"class.testing::MatcherInterface" = type { %"class.testing::MatcherDescriberInterface" }
%"struct.testing::internal::TransformTupleValuesHelper<std::tuple<double, double, double>, testing::internal::CastAndAppendTransform<const double &>, std::back_insert_iterator<std::vector<testing::Matcher<const double &>>>>::IterateOverTuple.81" = type { i8 }
%"class.std::vector" = type { %"struct.std::_Vector_base" }
%"struct.std::_Vector_base" = type { %"struct.std::_Vector_base<std::__cxx11::basic_string<char>, std::allocator<std::__cxx11::basic_string<char>>>::_Vector_impl" }
%"struct.std::_Vector_base<std::__cxx11::basic_string<char>, std::allocator<std::__cxx11::basic_string<char>>>::_Vector_impl" = type { %"struct.std::_Vector_base<std::__cxx11::basic_string<char>, std::allocator<std::__cxx11::basic_string<char>>>::_Vector_impl_data" }
%"class.std::allocator" = type { i8 }
%"class.std::type_info" = type { ptr, ptr }
%"struct.testing::internal::TransformTupleValuesHelper<std::tuple<testing::internal::PairMatcher<double, int>, testing::internal::PairMatcher<double, testing::internal::AnythingMatcher>, testing::internal::PairMatcher<double, testing::internal::AnythingMatcher>>, testing::internal::CastAndAppendTransform<const std::pair<double, unsigned long> &>, std::back_insert_iterator<std::vector<testing::Matcher<const std::pair<double, unsigned long> &>>>>::IterateOverTuple" = type { i8 }
%"class.std::vector.113" = type { %"struct.std::_Vector_base.114" }
%"struct.std::_Vector_base.114" = type { %"struct.std::_Vector_base<testing::Matcher<const std::pair<double, unsigned long> &>, std::allocator<testing::Matcher<const std::pair<double, unsigned long> &>>>::_Vector_impl" }
%"struct.std::_Vector_base<testing::Matcher<const std::pair<double, unsigned long> &>, std::allocator<testing::Matcher<const std::pair<double, unsigned long> &>>>::_Vector_impl" = type { %"struct.std::_Vector_base<testing::Matcher<const std::pair<double, unsigned long> &>, std::allocator<testing::Matcher<const std::pair<double, unsigned long> &>>>::_Vector_impl_data" }
%"struct.std::_Vector_base<testing::Matcher<const std::pair<double, unsigned long> &>, std::allocator<testing::Matcher<const std::pair<double, unsigned long> &>>>::_Vector_impl_data" = type { ptr, ptr, ptr }
%"class.testing::Matcher.123" = type { %"class.testing::internal::MatcherBase.124" }
%"class.testing::internal::MatcherBase.124" = type { %"class.testing::MatcherDescriberInterface", ptr, %"union.testing::internal::MatcherBase<const std::pair<double, unsigned long> &>::Buffer" }
%"union.testing::internal::MatcherBase<const std::pair<double, unsigned long> &>::Buffer" = type { ptr }
%"struct.testing::internal::SharedPayload.167" = type { %"struct.testing::internal::SharedPayloadBase", %"class.std::unique_ptr.168" }
%"class.std::unique_ptr.168" = type { %"struct.std::__uniq_ptr_data.169" }
%"struct.std::__uniq_ptr_data.169" = type { %"class.std::__uniq_ptr_impl.170" }
%"class.std::__uniq_ptr_impl.170" = type { %"class.std::tuple.171" }
%"class.std::tuple.171" = type { %"struct.std::_Tuple_impl.172" }
%"struct.std::_Tuple_impl.172" = type { %"struct.std::_Head_base.175" }
%"struct.std::_Head_base.175" = type { ptr }
%"class.testing::internal::ElementsAreMatcherImpl.120" = type { %"class.testing::MatcherInterface.121", %"class.std::vector.113" }
%"class.testing::MatcherInterface.121" = type { %"class.testing::MatcherDescriberInterface" }
%"struct.testing::internal::TransformTupleValuesHelper<std::tuple<testing::internal::PairMatcher<double, int>, testing::internal::PairMatcher<double, testing::internal::AnythingMatcher>, testing::internal::PairMatcher<double, testing::internal::AnythingMatcher>>, testing::internal::CastAndAppendTransform<const std::pair<double, unsigned long> &>, std::back_insert_iterator<std::vector<testing::Matcher<const std::pair<double, unsigned long> &>>>>::IterateOverTuple.125" = type { i8 }
%"class.testing::internal::PairMatcherImpl" = type { %"class.testing::MatcherInterface.128", %"class.testing::Matcher.79", %"class.testing::Matcher.129" }
%"class.testing::MatcherInterface.128" = type { %"class.testing::MatcherDescriberInterface" }
%"class.testing::Matcher.129" = type { %"class.testing::internal::MatcherBase.130" }
%"class.testing::internal::MatcherBase.130" = type { %"class.testing::MatcherDescriberInterface", ptr, %"union.testing::internal::MatcherBase<const unsigned long &>::Buffer" }
%"union.testing::internal::MatcherBase<const unsigned long &>::Buffer" = type { ptr }
%"struct.testing::internal::SharedPayload.140" = type { %"struct.testing::internal::SharedPayloadBase", %"class.std::unique_ptr.141" }
%"class.std::unique_ptr.141" = type { %"struct.std::__uniq_ptr_data.142" }
%"struct.std::__uniq_ptr_data.142" = type { %"class.std::__uniq_ptr_impl.143" }
%"class.std::__uniq_ptr_impl.143" = type { %"class.std::tuple.144" }
%"class.std::tuple.144" = type { %"struct.std::_Tuple_impl.145" }
%"struct.std::_Tuple_impl.145" = type { %"struct.std::_Head_base.148" }
%"struct.std::_Head_base.148" = type { ptr }
%"struct.testing::internal::TransformTupleValuesHelper<std::tuple<testing::internal::PairMatcher<double, int>, testing::internal::PairMatcher<double, testing::internal::AnythingMatcher>, testing::internal::PairMatcher<double, testing::internal::AnythingMatcher>>, testing::internal::CastAndAppendTransform<const std::pair<double, unsigned long> &>, std::back_insert_iterator<std::vector<testing::Matcher<const std::pair<double, unsigned long> &>>>>::IterateOverTuple.156" = type { i8 }
%"struct.std::pair" = type { double, i64 }
%"struct.testing::internal::TransformTupleValuesHelper<std::tuple<double, double, double, double, double>, testing::internal::CastAndAppendTransform<const double &>, std::back_insert_iterator<std::vector<testing::Matcher<const double &>>>>::IterateOverTuple" = type { i8 }
%"struct.testing::internal::TransformTupleValuesHelper<std::tuple<double, double, double, double, double>, testing::internal::CastAndAppendTransform<const double &>, std::back_insert_iterator<std::vector<testing::Matcher<const double &>>>>::IterateOverTuple.185" = type { i8 }
%"struct.testing::internal::TransformTupleValuesHelper<std::tuple<double, double, double, double, double>, testing::internal::CastAndAppendTransform<const double &>, std::back_insert_iterator<std::vector<testing::Matcher<const double &>>>>::IterateOverTuple.186" = type { i8 }
%"struct.testing::internal::TransformTupleValuesHelper<std::tuple<double, double, double, double, double>, testing::internal::CastAndAppendTransform<const double &>, std::back_insert_iterator<std::vector<testing::Matcher<const double &>>>>::IterateOverTuple.187" = type { i8 }
%"struct.testing::internal::TransformTupleValuesHelper<std::tuple<testing::internal::PairMatcher<double, int>, testing::internal::PairMatcher<double, int>, testing::internal::PairMatcher<double, testing::internal::AnythingMatcher>, testing::internal::PairMatcher<double, int>, testing::internal::PairMatcher<double, int>>, testing::internal::CastAndAppendTransform<const std::pair<double, unsigned long> &>, std::back_insert_iterator<std::vector<testing::Matcher<const std::pair<double, unsigned long> &>>>>::IterateOverTuple" = type { i8 }
%"struct.testing::internal::TransformTupleValuesHelper<std::tuple<testing::internal::PairMatcher<double, int>, testing::internal::PairMatcher<double, int>, testing::internal::PairMatcher<double, testing::internal::AnythingMatcher>, testing::internal::PairMatcher<double, int>, testing::internal::PairMatcher<double, int>>, testing::internal::CastAndAppendTransform<const std::pair<double, unsigned long> &>, std::back_insert_iterator<std::vector<testing::Matcher<const std::pair<double, unsigned long> &>>>>::IterateOverTuple.192" = type { i8 }
%"struct.testing::internal::TransformTupleValuesHelper<std::tuple<testing::internal::PairMatcher<double, int>, testing::internal::PairMatcher<double, int>, testing::internal::PairMatcher<double, testing::internal::AnythingMatcher>, testing::internal::PairMatcher<double, int>, testing::internal::PairMatcher<double, int>>, testing::internal::CastAndAppendTransform<const std::pair<double, unsigned long> &>, std::back_insert_iterator<std::vector<testing::Matcher<const std::pair<double, unsigned long> &>>>>::IterateOverTuple.193" = type { i8 }
%"struct.testing::internal::TransformTupleValuesHelper<std::tuple<testing::internal::PairMatcher<double, int>, testing::internal::PairMatcher<double, int>, testing::internal::PairMatcher<double, testing::internal::AnythingMatcher>, testing::internal::PairMatcher<double, int>, testing::internal::PairMatcher<double, int>>, testing::internal::CastAndAppendTransform<const std::pair<double, unsigned long> &>, std::back_insert_iterator<std::vector<testing::Matcher<const std::pair<double, unsigned long> &>>>>::IterateOverTuple.194" = type { i8 }
%"struct.testing::internal::TransformTupleValuesHelper<std::tuple<testing::internal::PairMatcher<double, int>, testing::internal::PairMatcher<double, int>, testing::internal::PairMatcher<double, testing::internal::AnythingMatcher>, testing::internal::PairMatcher<double, int>, testing::internal::PairMatcher<double, int>>, testing::internal::CastAndAppendTransform<const std::pair<double, unsigned long> &>, std::back_insert_iterator<std::vector<testing::Matcher<const std::pair<double, unsigned long> &>>>>::IterateOverTuple.195" = type { i8 }
%"class.std::basic_string_view" = type { i64, ptr }
%"class.absl::AlphaNum" = type { %"class.std::basic_string_view", [32 x i8] }
%"class.absl::discrete_distribution" = type { %"class.absl::discrete_distribution<>::param_type" }
%"class.absl::discrete_distribution<>::param_type" = type { %"class.std::vector.7", %"class.std::vector.12" }
%"class.absl::random_internal::pcg_engine" = type { %"class.absl::uint128" }
%"class.absl::uint128" = type { i64, i64 }
%"class.absl::log_internal::LogMessage" = type { %"class.absl::base_internal::ErrnoSaver", %"class.std::unique_ptr.204" }
%"class.absl::base_internal::ErrnoSaver" = type { i32 }
%"class.std::unique_ptr.204" = type { %"struct.std::__uniq_ptr_data.205" }
%"struct.std::__uniq_ptr_data.205" = type { %"class.std::__uniq_ptr_impl.206" }
%"class.std::__uniq_ptr_impl.206" = type { %"class.std::tuple.207" }
%"class.std::tuple.207" = type { %"struct.std::_Tuple_impl.208" }
%"struct.std::_Tuple_impl.208" = type { %"struct.std::_Head_base.211" }
%"struct.std::_Head_base.211" = type { ptr }
%"class.std::vector.198" = type { %"struct.std::_Vector_base.199" }
%"struct.std::_Vector_base.199" = type { %"struct.std::_Vector_base<int, std::allocator<int>>::_Vector_impl" }
%"struct.std::_Vector_base<int, std::allocator<int>>::_Vector_impl" = type { %"struct.std::_Vector_base<int, std::allocator<int>>::_Vector_impl_data" }
%"struct.std::_Vector_base<int, std::allocator<int>>::_Vector_impl_data" = type { ptr, ptr, ptr }
%"class.testing::internal::PredicateFormatterFromMatcher.220" = type { %"class.testing::internal::ElementsAreMatcher.221" }
%"class.testing::internal::ElementsAreMatcher.221" = type { %"class.std::tuple.222" }
%"class.std::tuple.222" = type { %"struct.std::_Tuple_impl.223" }
%"struct.std::_Tuple_impl.223" = type { %"struct.std::_Tuple_impl.224", %"struct.std::_Head_base.234" }
%"struct.std::_Tuple_impl.224" = type { %"struct.std::_Tuple_impl.225", %"struct.std::_Head_base.233" }
%"struct.std::_Tuple_impl.225" = type { %"struct.std::_Tuple_impl.226", %"struct.std::_Head_base.232" }
%"struct.std::_Tuple_impl.226" = type { %"struct.std::_Tuple_impl.227", %"struct.std::_Head_base.231" }
%"struct.std::_Tuple_impl.227" = type { %"struct.std::_Tuple_impl.228", %"struct.std::_Head_base.230" }
%"struct.std::_Tuple_impl.228" = type { %"struct.std::_Head_base.229" }
%"struct.std::_Head_base.229" = type { i32 }
%"struct.std::_Head_base.230" = type { i32 }
%"struct.std::_Head_base.231" = type { i32 }
%"struct.std::_Head_base.232" = type { i32 }
%"struct.std::_Head_base.233" = type { i32 }
%"struct.std::_Head_base.234" = type { i32 }
%"class.absl::discrete_distribution.235" = type { %"class.absl::discrete_distribution<long>::param_type" }
%"class.absl::discrete_distribution<long>::param_type" = type { %"class.std::vector.7", %"class.std::vector.12" }
%"class.testing::Matcher.236" = type { %"class.testing::internal::MatcherBase.237" }
%"class.testing::internal::MatcherBase.237" = type { %"class.testing::MatcherDescriberInterface", ptr, %"union.testing::internal::MatcherBase<const std::vector<int> &>::Buffer" }
%"union.testing::internal::MatcherBase<const std::vector<int> &>::Buffer" = type { ptr }
%"struct.testing::internal::TransformTupleValuesHelper<std::tuple<int, int, int, int, int, int>, testing::internal::CastAndAppendTransform<const int &>, std::back_insert_iterator<std::vector<testing::Matcher<const int &>>>>::IterateOverTuple" = type { i8 }
%"class.std::vector.240" = type { %"struct.std::_Vector_base.241" }
%"struct.std::_Vector_base.241" = type { %"struct.std::_Vector_base<testing::Matcher<const int &>, std::allocator<testing::Matcher<const int &>>>::_Vector_impl" }
%"struct.std::_Vector_base<testing::Matcher<const int &>, std::allocator<testing::Matcher<const int &>>>::_Vector_impl" = type { %"struct.std::_Vector_base<testing::Matcher<const int &>, std::allocator<testing::Matcher<const int &>>>::_Vector_impl_data" }
%"struct.std::_Vector_base<testing::Matcher<const int &>, std::allocator<testing::Matcher<const int &>>>::_Vector_impl_data" = type { ptr, ptr, ptr }
%"class.testing::Matcher.250" = type { %"class.testing::internal::MatcherBase.251" }
%"class.testing::internal::MatcherBase.251" = type { %"class.testing::MatcherDescriberInterface", ptr, %"union.testing::internal::MatcherBase<const int &>::Buffer" }
%"union.testing::internal::MatcherBase<const int &>::Buffer" = type { ptr }
%"struct.testing::internal::SharedPayload.268" = type { %"struct.testing::internal::SharedPayloadBase", %"class.std::unique_ptr.269" }
%"class.std::unique_ptr.269" = type { %"struct.std::__uniq_ptr_data.270" }
%"struct.std::__uniq_ptr_data.270" = type { %"class.std::__uniq_ptr_impl.271" }
%"class.std::__uniq_ptr_impl.271" = type { %"class.std::tuple.272" }
%"class.std::tuple.272" = type { %"struct.std::_Tuple_impl.273" }
%"struct.std::_Tuple_impl.273" = type { %"struct.std::_Head_base.276" }
%"struct.std::_Head_base.276" = type { ptr }
%"class.testing::internal::ElementsAreMatcherImpl.247" = type { %"class.testing::MatcherInterface.248", %"class.std::vector.240" }
%"class.testing::MatcherInterface.248" = type { %"class.testing::MatcherDescriberInterface" }
%"struct.testing::internal::TransformTupleValuesHelper<std::tuple<int, int, int, int, int, int>, testing::internal::CastAndAppendTransform<const int &>, std::back_insert_iterator<std::vector<testing::Matcher<const int &>>>>::IterateOverTuple.252" = type { i8 }
%"struct.testing::internal::TransformTupleValuesHelper<std::tuple<int, int, int, int, int, int>, testing::internal::CastAndAppendTransform<const int &>, std::back_insert_iterator<std::vector<testing::Matcher<const int &>>>>::IterateOverTuple.262" = type { i8 }
%"struct.testing::internal::TransformTupleValuesHelper<std::tuple<int, int, int, int, int, int>, testing::internal::CastAndAppendTransform<const int &>, std::back_insert_iterator<std::vector<testing::Matcher<const int &>>>>::IterateOverTuple.263" = type { i8 }
%"struct.testing::internal::TransformTupleValuesHelper<std::tuple<int, int, int, int, int, int>, testing::internal::CastAndAppendTransform<const int &>, std::back_insert_iterator<std::vector<testing::Matcher<const int &>>>>::IterateOverTuple.264" = type { i8 }
%struct._Guard = type { ptr }
%"class.absl::discrete_distribution.289" = type { %"class.absl::discrete_distribution<signed char>::param_type" }
%"class.absl::discrete_distribution<signed char>::param_type" = type { %"class.std::vector.7", %"class.std::vector.12" }
%"class.testing::internal::PredicateFormatterFromMatcher.290" = type { %"class.testing::internal::ElementsAreMatcher.291" }
%"class.testing::internal::ElementsAreMatcher.291" = type { %"class.std::tuple.292" }
%"class.std::tuple.292" = type { %"struct.std::_Tuple_impl.293" }
%"struct.std::_Tuple_impl.293" = type { %"struct.std::_Head_base.31" }
%"class.absl::random_internal::ostream_state_saver" = type { ptr, i32, i8, i64 }
%"struct.testing::internal::CodeLocation" = type <{ %"class.std::__cxx11::basic_string", i32, [4 x i8] }>
%"class.absl::discrete_distribution.300" = type { %"class.absl::discrete_distribution<unsigned char>::param_type" }
%"class.absl::discrete_distribution<unsigned char>::param_type" = type { %"class.std::vector.7", %"class.std::vector.12" }
%"class.absl::discrete_distribution.304" = type { %"class.absl::discrete_distribution<short>::param_type" }
%"class.absl::discrete_distribution<short>::param_type" = type { %"class.std::vector.7", %"class.std::vector.12" }
%"class.absl::discrete_distribution.308" = type { %"class.absl::discrete_distribution<unsigned short>::param_type" }
%"class.absl::discrete_distribution<unsigned short>::param_type" = type { %"class.std::vector.7", %"class.std::vector.12" }
%"class.absl::discrete_distribution.315" = type { %"class.absl::discrete_distribution<unsigned int>::param_type" }
%"class.absl::discrete_distribution<unsigned int>::param_type" = type { %"class.std::vector.7", %"class.std::vector.12" }
%"class.absl::discrete_distribution.322" = type { %"class.absl::discrete_distribution<unsigned long>::param_type" }
%"class.absl::discrete_distribution<unsigned long>::param_type" = type { %"class.std::vector.7", %"class.std::vector.12" }
%"class.testing::internal::PredicateFormatterFromMatcher.332" = type { %"class.testing::internal::ElementsAreMatcher.333" }
%"class.testing::internal::ElementsAreMatcher.333" = type { %"class.std::tuple.334" }
%"class.std::tuple.334" = type { %"struct.std::_Tuple_impl.335" }
%"struct.std::_Tuple_impl.335" = type { %"struct.std::_Tuple_impl.336", %"struct.std::_Head_base.31" }
%"struct.std::_Tuple_impl.336" = type { %"struct.std::_Head_base.30" }
%"struct.testing::internal::TransformTupleValuesHelper<std::tuple<double, double>, testing::internal::CastAndAppendTransform<const double &>, std::back_insert_iterator<std::vector<testing::Matcher<const double &>>>>::IterateOverTuple" = type { i8 }

$_ZNSt6vectorINSt7__cxx1112basic_stringIcSt11char_traitsIcESaIcEEESaIS5_EED2Ev = comdat any

$_ZN7testing8internal16SuiteApiResolverINS_4TestEE19GetSetUpCaseOrSuiteEPKci = comdat any

$_ZN7testing8internal16SuiteApiResolverINS_4TestEE22GetTearDownCaseOrSuiteEPKci = comdat any

$_ZN7testing4Test5SetupEv = comdat any

$_ZNK7testing8internal29PredicateFormatterFromMatcherINS0_18ElementsAreMatcherISt5tupleIJdddEEEEEclISt6vectorIdSaIdEEEENS_15AssertionResultEPKcRKT_ = comdat any

$_ZN7testing15AssertionResultD2Ev = comdat any

$_ZNK7testing8internal29PredicateFormatterFromMatcherINS0_18ElementsAreMatcherISt5tupleIJNS0_11PairMatcherIdiEENS4_IdNS0_15AnythingMatcherEEES7_EEEEEclISt6vectorISt4pairIdmESaISE_EEEENS_15AssertionResultEPKcRKT_ = comdat any

$_ZNK7testing8internal29PredicateFormatterFromMatcherINS0_18ElementsAreMatcherISt5tupleIJdddddEEEEEclISt6vectorIdSaIdEEEENS_15AssertionResultEPKcRKT_ = comdat any

$_ZNK7testing8internal29PredicateFormatterFromMatcherINS0_18ElementsAreMatcherISt5tupleIJNS0_11PairMatcherIdiEES5_NS4_IdNS0_15AnythingMatcherEEES5_S5_EEEEEclISt6vectorISt4pairIdmESaISE_EEEENS_15AssertionResultEPKcRKT_ = comdat any

$__clang_call_terminate = comdat any

$_ZNK7testing8internal11MatcherBaseIRKSt6vectorIdSaIdEEE10DescribeToEPSo = comdat any

$_ZN7testing8internal20MatchPrintAndExplainIKSt6vectorIdSaIdEERS5_EEbRT_RKNS_7MatcherIT0_EEPNS_19MatchResultListenerE = comdat any

$_ZN7testing25StringMatchResultListenerD2Ev = comdat any

$_ZN7testing7MatcherIRKSt6vectorIdSaIdEEED2Ev = comdat any

$_ZNK7testing8internal18ElementsAreMatcherISt5tupleIJdddEEEcvNS_7MatcherIT_EEIRKSt6vectorIdSaIdEEEEv = comdat any

$_ZN7testing8internal22ElementsAreMatcherImplIRKSt6vectorIdSaIdEEEC2IN9__gnu_cxx17__normal_iteratorIPNS_7MatcherIRKdEES2_ISE_SaISE_EEEEEET_SJ_ = comdat any

$_ZNSt6vectorIN7testing7MatcherIRKdEESaIS4_EED2Ev = comdat any

$_ZN7testing7MatcherIRKdED2Ev = comdat any

$_ZN7testing7MatcherIRKdED0Ev = comdat any

$_ZNK7testing8internal11MatcherBaseIRKdE10DescribeToEPSo = comdat any

$_ZNK7testing8internal11MatcherBaseIRKdE18DescribeNegationToEPSo = comdat any

$_ZN7testing8internal11MatcherBaseIRKdED2Ev = comdat any

$_ZN7testing8internal11MatcherBaseIRKdED0Ev = comdat any

$_ZNK7testing8internal26TransformTupleValuesHelperISt5tupleIJdddEENS0_22CastAndAppendTransformIRKdEESt20back_insert_iteratorISt6vectorINS_7MatcherIS6_EESaISB_EEEE16IterateOverTupleIS3_Lm3EEclES7_RKS3_SE_ = comdat any

$_ZNK7testing8internal26TransformTupleValuesHelperISt5tupleIJdddEENS0_22CastAndAppendTransformIRKdEESt20back_insert_iteratorISt6vectorINS_7MatcherIS6_EESaISB_EEEE16IterateOverTupleIS3_Lm2EEclES7_RKS3_SE_ = comdat any

$_ZN7testing8internal11MatcherBaseIRKdE19MatchAndExplainImplINS4_11ValuePolicyINS0_9EqMatcherIdEELb1EEEEEDTcldtclsrT_3Getfp_E15MatchAndExplainfp0_clptfp1_6streamEEERKS4_S3_PNS_19MatchResultListenerE = comdat any

$_ZN7testing8internal11MatcherBaseIRKdE12DescribeImplINS4_11ValuePolicyINS0_9EqMatcherIdEELb1EEEEEvRKS4_PSob = comdat any

$_ZN7testing8internal11MatcherBaseIRKdE16GetDescriberImplINS4_11ValuePolicyINS0_9EqMatcherIdEELb1EEEEEPKNS_25MatcherDescriberInterfaceERKS4_ = comdat any

$_ZN7testing8internal7PrintToEdPSo = comdat any

$_ZNSt6vectorIN7testing7MatcherIRKdEESaIS4_EE17_M_realloc_insertIJS4_EEEvN9__gnu_cxx17__normal_iteratorIPS4_S6_EEDpOT_ = comdat any

$_ZN7testing8internal22ElementsAreMatcherImplIRKSt6vectorIdSaIdEEED2Ev = comdat any

$_ZN7testing8internal22ElementsAreMatcherImplIRKSt6vectorIdSaIdEEED0Ev = comdat any

$_ZNK7testing8internal22ElementsAreMatcherImplIRKSt6vectorIdSaIdEEE10DescribeToEPSo = comdat any

$_ZNK7testing8internal22ElementsAreMatcherImplIRKSt6vectorIdSaIdEEE18DescribeNegationToEPSo = comdat any

$_ZNK7testing8internal22ElementsAreMatcherImplIRKSt6vectorIdSaIdEEE15MatchAndExplainES6_PNS_19MatchResultListenerE = comdat any

$_ZN7testing7MessageC2ERKS0_ = comdat any

$_ZN7testing8internal24DummyMatchResultListenerD2Ev = comdat any

$_ZN7testing8internal24DummyMatchResultListenerD0Ev = comdat any

$_ZN7testing7MatcherIRKSt6vectorIdSaIdEEED0Ev = comdat any

$_ZNK7testing8internal11MatcherBaseIRKSt6vectorIdSaIdEEE18DescribeNegationToEPSo = comdat any

$_ZN7testing8internal11MatcherBaseIRKSt6vectorIdSaIdEEED2Ev = comdat any

$_ZN7testing8internal11MatcherBaseIRKSt6vectorIdSaIdEEED0Ev = comdat any

$_ZN7testing8internal11MatcherBaseIRKSt6vectorIdSaIdEEE19MatchAndExplainImplINS7_11ValuePolicyIPKNS_16MatcherInterfaceIS6_EELb1EEEEEDTcldtclsrT_3Getfp_E15MatchAndExplainfp0_fp1_EERKS7_S6_PNS_19MatchResultListenerE = comdat any

$_ZN7testing8internal11MatcherBaseIRKSt6vectorIdSaIdEEE12DescribeImplINS7_11ValuePolicyIPKNS_16MatcherInterfaceIS6_EELb1EEEEEvRKS7_PSob = comdat any

$_ZN7testing8internal11MatcherBaseIRKSt6vectorIdSaIdEEE16GetDescriberImplINS7_11ValuePolicyIPKNS_16MatcherInterfaceIS6_EELb1EEEEEPKNS_25MatcherDescriberInterfaceERKS7_ = comdat any

$_ZN7testing8internal13SharedPayloadISt10unique_ptrIKNS_16MatcherInterfaceIRKSt6vectorIdSaIdEEEESt14default_deleteISA_EEE7DestroyEPNS0_17SharedPayloadBaseE = comdat any

$_ZN7testing25StringMatchResultListenerD0Ev = comdat any

$_ZN7testing8internal16ContainerPrinter10PrintValueISt6vectorIdSaIdEEvEEvRKT_PSo = comdat any

$_ZN7testing8internal11GetTypeNameB5cxx11ERKSt9type_info = comdat any

$_ZN7testing8internal31CanonicalizeForStdLibVersioningENSt7__cxx1112basic_stringIcSt11char_traitsIcESaIcEEE = comdat any

$_ZN7testing15AssertionResult13AppendMessageERKNS_7MessageE = comdat any

$_ZNK7testing8internal11MatcherBaseIRKSt6vectorISt4pairIdmESaIS4_EEE10DescribeToEPSo = comdat any

$_ZN7testing8internal20MatchPrintAndExplainIKSt6vectorISt4pairIdmESaIS4_EERS7_EEbRT_RKNS_7MatcherIT0_EEPNS_19MatchResultListenerE = comdat any

$_ZN7testing7MatcherIRKSt6vectorISt4pairIdmESaIS3_EEED2Ev = comdat any

$_ZNK7testing8internal18ElementsAreMatcherISt5tupleIJNS0_11PairMatcherIdiEENS3_IdNS0_15AnythingMatcherEEES6_EEEcvNS_7MatcherIT_EEIRKSt6vectorISt4pairIdmESaISF_EEEEv = comdat any

$_ZN7testing8internal22ElementsAreMatcherImplIRKSt6vectorISt4pairIdmESaIS4_EEEC2IN9__gnu_cxx17__normal_iteratorIPNS_7MatcherIRKS4_EES2_ISG_SaISG_EEEEEET_SL_ = comdat any

$_ZNSt6vectorIN7testing7MatcherIRKSt4pairIdmEEESaIS6_EED2Ev = comdat any

$_ZN7testing7MatcherIRKSt4pairIdmEED2Ev = comdat any

$_ZN7testing7MatcherIRKSt4pairIdmEED0Ev = comdat any

$_ZNK7testing8internal11MatcherBaseIRKSt4pairIdmEE10DescribeToEPSo = comdat any

$_ZNK7testing8internal11MatcherBaseIRKSt4pairIdmEE18DescribeNegationToEPSo = comdat any

$_ZN7testing8internal11MatcherBaseIRKSt4pairIdmEED2Ev = comdat any

$_ZN7testing8internal11MatcherBaseIRKSt4pairIdmEED0Ev = comdat any

$_ZNK7testing8internal26TransformTupleValuesHelperISt5tupleIJNS0_11PairMatcherIdiEENS3_IdNS0_15AnythingMatcherEEES6_EENS0_22CastAndAppendTransformIRKSt4pairIdmEEESt20back_insert_iteratorISt6vectorINS_7MatcherISC_EESaISH_EEEE16IterateOverTupleIS7_Lm3EEclESD_RKS7_SK_ = comdat any

$_ZNK7testing8internal26TransformTupleValuesHelperISt5tupleIJNS0_11PairMatcherIdiEENS3_IdNS0_15AnythingMatcherEEES6_EENS0_22CastAndAppendTransformIRKSt4pairIdmEEESt20back_insert_iteratorISt6vectorINS_7MatcherISC_EESaISH_EEEE16IterateOverTupleIS7_Lm2EEclESD_RKS7_SK_ = comdat any

$_ZN7testing8internal15PairMatcherImplIRKSt4pairIdmEED2Ev = comdat any

$_ZN7testing8internal15PairMatcherImplIRKSt4pairIdmEED0Ev = comdat any

$_ZNK7testing8internal15PairMatcherImplIRKSt4pairIdmEE10DescribeToEPSo = comdat any

$_ZNK7testing8internal15PairMatcherImplIRKSt4pairIdmEE18DescribeNegationToEPSo = comdat any

$_ZNK7testing8internal15PairMatcherImplIRKSt4pairIdmEE15MatchAndExplainES5_PNS_19MatchResultListenerE = comdat any

$_ZN7testing7MatcherIRKmED2Ev = comdat any

$_ZN7testing7MatcherIRKmED0Ev = comdat any

$_ZNK7testing8internal11MatcherBaseIRKmE10DescribeToEPSo = comdat any

$_ZNK7testing8internal11MatcherBaseIRKmE18DescribeNegationToEPSo = comdat any

$_ZN7testing8internal11MatcherBaseIRKmED2Ev = comdat any

$_ZN7testing8internal11MatcherBaseIRKmED0Ev = comdat any

$_ZN7testing8internal11MatcherBaseIRKmE19MatchAndExplainImplINS4_11ValuePolicyINS0_9EqMatcherImEELb1EEEEEDTcldtclsrT_3Getfp_E15MatchAndExplainfp0_clptfp1_6streamEEERKS4_S3_PNS_19MatchResultListenerE = comdat any

$_ZN7testing8internal11MatcherBaseIRKmE12DescribeImplINS4_11ValuePolicyINS0_9EqMatcherImEELb1EEEEEvRKS4_PSob = comdat any

$_ZN7testing8internal11MatcherBaseIRKmE16GetDescriberImplINS4_11ValuePolicyINS0_9EqMatcherImEELb1EEEEEPKNS_25MatcherDescriberInterfaceERKS4_ = comdat any

$_ZNK7testing8internal15PairMatcherImplIRKSt4pairIdmEE14ExplainSuccessERKNSt7__cxx1112basic_stringIcSt11char_traitsIcESaIcEEESE_PNS_19MatchResultListenerE = comdat any

$_ZN7testing8internal11MatcherBaseIRKSt4pairIdmEE19MatchAndExplainImplINS6_11ValuePolicyIPKNS_16MatcherInterfaceIS5_EELb1EEEEEDTcldtclsrT_3Getfp_E15MatchAndExplainfp0_fp1_EERKS6_S5_PNS_19MatchResultListenerE = comdat any

$_ZN7testing8internal11MatcherBaseIRKSt4pairIdmEE12DescribeImplINS6_11ValuePolicyIPKNS_16MatcherInterfaceIS5_EELb1EEEEEvRKS6_PSob = comdat any

$_ZN7testing8internal11MatcherBaseIRKSt4pairIdmEE16GetDescriberImplINS6_11ValuePolicyIPKNS_16MatcherInterfaceIS5_EELb1EEEEEPKNS_25MatcherDescriberInterfaceERKS6_ = comdat any

$_ZN7testing8internal13SharedPayloadISt10unique_ptrIKNS_16MatcherInterfaceIRKSt4pairIdmEEESt14default_deleteIS9_EEE7DestroyEPNS0_17SharedPayloadBaseE = comdat any

$_ZNSt6vectorIN7testing7MatcherIRKSt4pairIdmEEESaIS6_EE17_M_realloc_insertIJS6_EEEvN9__gnu_cxx17__normal_iteratorIPS6_S8_EEDpOT_ = comdat any

$_ZNK7testing8internal26TransformTupleValuesHelperISt5tupleIJNS0_11PairMatcherIdiEENS3_IdNS0_15AnythingMatcherEEES6_EENS0_22CastAndAppendTransformIRKSt4pairIdmEEESt20back_insert_iteratorISt6vectorINS_7MatcherISC_EESaISH_EEEE16IterateOverTupleIS7_Lm1EEclESD_RKS7_SK_ = comdat any

$_ZN7testing8internal11MatcherBaseIRKmE19MatchAndExplainImplINS4_11ValuePolicyINS0_15AnythingMatcherELb1EEEEEDTcldtclsrT_3Getfp_E15MatchAndExplainfp0_clptfp1_6streamEEERKS4_S3_PNS_19MatchResultListenerE = comdat any

$_ZN7testing8internal11MatcherBaseIRKmE12DescribeImplINS4_11ValuePolicyINS0_15AnythingMatcherELb1EEEEEvRKS4_PSob = comdat any

$_ZN7testing8internal11MatcherBaseIRKmE16GetDescriberImplINS4_11ValuePolicyINS0_15AnythingMatcherELb1EEEEEPKNS_25MatcherDescriberInterfaceERKS4_ = comdat any

$_ZN7testing8internal22ElementsAreMatcherImplIRKSt6vectorISt4pairIdmESaIS4_EEED2Ev = comdat any

$_ZN7testing8internal22ElementsAreMatcherImplIRKSt6vectorISt4pairIdmESaIS4_EEED0Ev = comdat any

$_ZNK7testing8internal22ElementsAreMatcherImplIRKSt6vectorISt4pairIdmESaIS4_EEE10DescribeToEPSo = comdat any

$_ZNK7testing8internal22ElementsAreMatcherImplIRKSt6vectorISt4pairIdmESaIS4_EEE18DescribeNegationToEPSo = comdat any

$_ZNK7testing8internal22ElementsAreMatcherImplIRKSt6vectorISt4pairIdmESaIS4_EEE15MatchAndExplainES8_PNS_19MatchResultListenerE = comdat any

$_ZN7testing7MatcherIRKSt6vectorISt4pairIdmESaIS3_EEED0Ev = comdat any

$_ZNK7testing8internal11MatcherBaseIRKSt6vectorISt4pairIdmESaIS4_EEE18DescribeNegationToEPSo = comdat any

$_ZN7testing8internal11MatcherBaseIRKSt6vectorISt4pairIdmESaIS4_EEED2Ev = comdat any

$_ZN7testing8internal11MatcherBaseIRKSt6vectorISt4pairIdmESaIS4_EEED0Ev = comdat any

$_ZN7testing8internal11MatcherBaseIRKSt6vectorISt4pairIdmESaIS4_EEE19MatchAndExplainImplINS9_11ValuePolicyIPKNS_16MatcherInterfaceIS8_EELb1EEEEEDTcldtclsrT_3Getfp_E15MatchAndExplainfp0_fp1_EERKS9_S8_PNS_19MatchResultListenerE = comdat any

$_ZN7testing8internal11MatcherBaseIRKSt6vectorISt4pairIdmESaIS4_EEE12DescribeImplINS9_11ValuePolicyIPKNS_16MatcherInterfaceIS8_EELb1EEEEEvRKS9_PSob = comdat any

$_ZN7testing8internal11MatcherBaseIRKSt6vectorISt4pairIdmESaIS4_EEE16GetDescriberImplINS9_11ValuePolicyIPKNS_16MatcherInterfaceIS8_EELb1EEEEEPKNS_25MatcherDescriberInterfaceERKS9_ = comdat any

$_ZN7testing8internal13SharedPayloadISt10unique_ptrIKNS_16MatcherInterfaceIRKSt6vectorISt4pairIdmESaIS6_EEEESt14default_deleteISC_EEE7DestroyEPNS0_17SharedPayloadBaseE = comdat any

$_ZN7testing8internal16ContainerPrinter10PrintValueISt6vectorISt4pairIdmESaIS5_EEvEEvRKT_PSo = comdat any

$_ZNK7testing8internal18ElementsAreMatcherISt5tupleIJdddddEEEcvNS_7MatcherIT_EEIRKSt6vectorIdSaIdEEEEv = comdat any

$_ZNK7testing8internal26TransformTupleValuesHelperISt5tupleIJdddddEENS0_22CastAndAppendTransformIRKdEESt20back_insert_iteratorISt6vectorINS_7MatcherIS6_EESaISB_EEEE16IterateOverTupleIS3_Lm5EEclES7_RKS3_SE_ = comdat any

$_ZNK7testing8internal26TransformTupleValuesHelperISt5tupleIJdddddEENS0_22CastAndAppendTransformIRKdEESt20back_insert_iteratorISt6vectorINS_7MatcherIS6_EESaISB_EEEE16IterateOverTupleIS3_Lm4EEclES7_RKS3_SE_ = comdat any

$_ZNK7testing8internal26TransformTupleValuesHelperISt5tupleIJdddddEENS0_22CastAndAppendTransformIRKdEESt20back_insert_iteratorISt6vectorINS_7MatcherIS6_EESaISB_EEEE16IterateOverTupleIS3_Lm3EEclES7_RKS3_SE_ = comdat any

$_ZNK7testing8internal26TransformTupleValuesHelperISt5tupleIJdddddEENS0_22CastAndAppendTransformIRKdEESt20back_insert_iteratorISt6vectorINS_7MatcherIS6_EESaISB_EEEE16IterateOverTupleIS3_Lm2EEclES7_RKS3_SE_ = comdat any

$_ZNK7testing8internal18ElementsAreMatcherISt5tupleIJNS0_11PairMatcherIdiEES4_NS3_IdNS0_15AnythingMatcherEEES4_S4_EEEcvNS_7MatcherIT_EEIRKSt6vectorISt4pairIdmESaISF_EEEEv = comdat any

$_ZNK7testing8internal26TransformTupleValuesHelperISt5tupleIJNS0_11PairMatcherIdiEES4_NS3_IdNS0_15AnythingMatcherEEES4_S4_EENS0_22CastAndAppendTransformIRKSt4pairIdmEEESt20back_insert_iteratorISt6vectorINS_7MatcherISC_EESaISH_EEEE16IterateOverTupleIS7_Lm5EEclESD_RKS7_SK_ = comdat any

$_ZNK7testing8internal26TransformTupleValuesHelperISt5tupleIJNS0_11PairMatcherIdiEES4_NS3_IdNS0_15AnythingMatcherEEES4_S4_EENS0_22CastAndAppendTransformIRKSt4pairIdmEEESt20back_insert_iteratorISt6vectorINS_7MatcherISC_EESaISH_EEEE16IterateOverTupleIS7_Lm4EEclESD_RKS7_SK_ = comdat any

$_ZNK7testing8internal26TransformTupleValuesHelperISt5tupleIJNS0_11PairMatcherIdiEES4_NS3_IdNS0_15AnythingMatcherEEES4_S4_EENS0_22CastAndAppendTransformIRKSt4pairIdmEEESt20back_insert_iteratorISt6vectorINS_7MatcherISC_EESaISH_EEEE16IterateOverTupleIS7_Lm3EEclESD_RKS7_SK_ = comdat any

$_ZNK7testing8internal26TransformTupleValuesHelperISt5tupleIJNS0_11PairMatcherIdiEES4_NS3_IdNS0_15AnythingMatcherEEES4_S4_EENS0_22CastAndAppendTransformIRKSt4pairIdmEEESt20back_insert_iteratorISt6vectorINS_7MatcherISC_EESaISH_EEEE16IterateOverTupleIS7_Lm2EEclESD_RKS7_SK_ = comdat any

$_ZNK7testing8internal26TransformTupleValuesHelperISt5tupleIJNS0_11PairMatcherIdiEES4_NS3_IdNS0_15AnythingMatcherEEES4_S4_EENS0_22CastAndAppendTransformIRKSt4pairIdmEEESt20back_insert_iteratorISt6vectorINS_7MatcherISC_EESaISH_EEEE16IterateOverTupleIS7_Lm1EEclESD_RKS7_SK_ = comdat any

$_ZN4absl21discrete_distributionIiED2Ev = comdat any

$_ZN4absl21discrete_distributionIiE10param_typeC2IN9__gnu_cxx17__normal_iteratorIPdSt6vectorIdSaIdEEEEEET_SB_ = comdat any

$_ZN4absl21discrete_distributionIiE10param_type4initEv = comdat any

$_ZN4absl21discrete_distributionIiEclINS_15random_internal10pcg_engineINS3_13pcg128_paramsILm2549297995355413924ELm4865540595714422341ELm6364136223846793005ELm1442695040888963407EEENS3_17pcg_xsl_rr_128_64EEEEEiRT_RKNS1_10param_typeE = comdat any

$_ZN4absl21discrete_distributionIiE10param_typeD2Ev = comdat any

$_ZNK7testing8internal29PredicateFormatterFromMatcherINS0_18ElementsAreMatcherISt5tupleIJiiiiiiEEEEEclISt6vectorIiSaIiEEEENS_15AssertionResultEPKcRKT_ = comdat any

$_ZN4absl21discrete_distributionIlED2Ev = comdat any

$_ZN7testing8internal18CmpHelperEQFailureIiiEENS_15AssertionResultEPKcS4_RKT_RKT0_ = comdat any

$_ZN7testing8internal18CmpHelperEQFailureIimEENS_15AssertionResultEPKcS4_RKT_RKT0_ = comdat any

$_ZNK7testing8internal11MatcherBaseIRKSt6vectorIiSaIiEEE10DescribeToEPSo = comdat any

$_ZN7testing8internal20MatchPrintAndExplainIKSt6vectorIiSaIiEERS5_EEbRT_RKNS_7MatcherIT0_EEPNS_19MatchResultListenerE = comdat any

$_ZN7testing7MatcherIRKSt6vectorIiSaIiEEED2Ev = comdat any

$_ZNK7testing8internal18ElementsAreMatcherISt5tupleIJiiiiiiEEEcvNS_7MatcherIT_EEIRKSt6vectorIiSaIiEEEEv = comdat any

$_ZN7testing8internal22ElementsAreMatcherImplIRKSt6vectorIiSaIiEEEC2IN9__gnu_cxx17__normal_iteratorIPNS_7MatcherIRKiEES2_ISE_SaISE_EEEEEET_SJ_ = comdat any

$_ZNSt6vectorIN7testing7MatcherIRKiEESaIS4_EED2Ev = comdat any

$_ZN7testing7MatcherIRKiED2Ev = comdat any

$_ZN7testing7MatcherIRKiED0Ev = comdat any

$_ZNK7testing8internal11MatcherBaseIRKiE10DescribeToEPSo = comdat any

$_ZNK7testing8internal11MatcherBaseIRKiE18DescribeNegationToEPSo = comdat any

$_ZN7testing8internal11MatcherBaseIRKiED2Ev = comdat any

$_ZN7testing8internal11MatcherBaseIRKiED0Ev = comdat any

$_ZNK7testing8internal26TransformTupleValuesHelperISt5tupleIJiiiiiiEENS0_22CastAndAppendTransformIRKiEESt20back_insert_iteratorISt6vectorINS_7MatcherIS6_EESaISB_EEEE16IterateOverTupleIS3_Lm6EEclES7_RKS3_SE_ = comdat any

$_ZNK7testing8internal26TransformTupleValuesHelperISt5tupleIJiiiiiiEENS0_22CastAndAppendTransformIRKiEESt20back_insert_iteratorISt6vectorINS_7MatcherIS6_EESaISB_EEEE16IterateOverTupleIS3_Lm5EEclES7_RKS3_SE_ = comdat any

$_ZN7testing8internal11MatcherBaseIRKiE19MatchAndExplainImplINS4_11ValuePolicyINS0_9EqMatcherIiEELb1EEEEEDTcldtclsrT_3Getfp_E15MatchAndExplainfp0_clptfp1_6streamEEERKS4_S3_PNS_19MatchResultListenerE = comdat any

$_ZN7testing8internal11MatcherBaseIRKiE12DescribeImplINS4_11ValuePolicyINS0_9EqMatcherIiEELb1EEEEEvRKS4_PSob = comdat any

$_ZN7testing8internal11MatcherBaseIRKiE16GetDescriberImplINS4_11ValuePolicyINS0_9EqMatcherIiEELb1EEEEEPKNS_25MatcherDescriberInterfaceERKS4_ = comdat any

$_ZNSt6vectorIN7testing7MatcherIRKiEESaIS4_EE17_M_realloc_insertIJS4_EEEvN9__gnu_cxx17__normal_iteratorIPS4_S6_EEDpOT_ = comdat any

$_ZNK7testing8internal26TransformTupleValuesHelperISt5tupleIJiiiiiiEENS0_22CastAndAppendTransformIRKiEESt20back_insert_iteratorISt6vectorINS_7MatcherIS6_EESaISB_EEEE16IterateOverTupleIS3_Lm4EEclES7_RKS3_SE_ = comdat any

$_ZNK7testing8internal26TransformTupleValuesHelperISt5tupleIJiiiiiiEENS0_22CastAndAppendTransformIRKiEESt20back_insert_iteratorISt6vectorINS_7MatcherIS6_EESaISB_EEEE16IterateOverTupleIS3_Lm3EEclES7_RKS3_SE_ = comdat any

$_ZNK7testing8internal26TransformTupleValuesHelperISt5tupleIJiiiiiiEENS0_22CastAndAppendTransformIRKiEESt20back_insert_iteratorISt6vectorINS_7MatcherIS6_EESaISB_EEEE16IterateOverTupleIS3_Lm2EEclES7_RKS3_SE_ = comdat any

$_ZN7testing8internal22ElementsAreMatcherImplIRKSt6vectorIiSaIiEEED2Ev = comdat any

$_ZN7testing8internal22ElementsAreMatcherImplIRKSt6vectorIiSaIiEEED0Ev = comdat any

$_ZNK7testing8internal22ElementsAreMatcherImplIRKSt6vectorIiSaIiEEE10DescribeToEPSo = comdat any

$_ZNK7testing8internal22ElementsAreMatcherImplIRKSt6vectorIiSaIiEEE18DescribeNegationToEPSo = comdat any

$_ZNK7testing8internal22ElementsAreMatcherImplIRKSt6vectorIiSaIiEEE15MatchAndExplainES6_PNS_19MatchResultListenerE = comdat any

$_ZN7testing7MatcherIRKSt6vectorIiSaIiEEED0Ev = comdat any

$_ZNK7testing8internal11MatcherBaseIRKSt6vectorIiSaIiEEE18DescribeNegationToEPSo = comdat any

$_ZN7testing8internal11MatcherBaseIRKSt6vectorIiSaIiEEED2Ev = comdat any

$_ZN7testing8internal11MatcherBaseIRKSt6vectorIiSaIiEEED0Ev = comdat any

$_ZN7testing8internal11MatcherBaseIRKSt6vectorIiSaIiEEE19MatchAndExplainImplINS7_11ValuePolicyIPKNS_16MatcherInterfaceIS6_EELb1EEEEEDTcldtclsrT_3Getfp_E15MatchAndExplainfp0_fp1_EERKS7_S6_PNS_19MatchResultListenerE = comdat any

$_ZN7testing8internal11MatcherBaseIRKSt6vectorIiSaIiEEE12DescribeImplINS7_11ValuePolicyIPKNS_16MatcherInterfaceIS6_EELb1EEEEEvRKS7_PSob = comdat any

$_ZN7testing8internal11MatcherBaseIRKSt6vectorIiSaIiEEE16GetDescriberImplINS7_11ValuePolicyIPKNS_16MatcherInterfaceIS6_EELb1EEEEEPKNS_25MatcherDescriberInterfaceERKS7_ = comdat any

$_ZN7testing8internal13SharedPayloadISt10unique_ptrIKNS_16MatcherInterfaceIRKSt6vectorIiSaIiEEEESt14default_deleteISA_EEE7DestroyEPNS0_17SharedPayloadBaseE = comdat any

$_ZN7testing8internal16ContainerPrinter10PrintValueISt6vectorIiSaIiEEvEEvRKT_PSo = comdat any

$_ZN4absl21discrete_distributionIlE10param_type4initEv = comdat any

$_ZN7testing8internal18CmpHelperEQFailureIilEENS_15AssertionResultEPKcS4_RKT_RKT0_ = comdat any

$_ZN4absl21discrete_distributionIlE10param_typeD2Ev = comdat any

$_ZNSt7__cxx1112basic_stringIcSt11char_traitsIcESaIcEE12_M_constructIPKcEEvT_S8_St20forward_iterator_tag = comdat any

$_ZZNSt7__cxx1112basic_stringIcSt11char_traitsIcESaIcEE12_M_constructIPKcEEvT_S8_St20forward_iterator_tagEN6_GuardD2Ev = comdat any

$_ZN7testing8internal19GetPrefixUntilCommaB5cxx11EPKc = comdat any

$_ZNK7testing8internal29PredicateFormatterFromMatcherINS0_18ElementsAreMatcherISt5tupleIJdEEEEEclISt6vectorIdSaIdEEEENS_15AssertionResultEPKcRKT_ = comdat any

$_ZN4absl21discrete_distributionIaE10param_typeC2IN9__gnu_cxx17__normal_iteratorIPdSt6vectorIdSaIdEEEEEET_SB_ = comdat any

$_ZN4absl21discrete_distributionIaE10param_typeD2Ev = comdat any

$_ZN4absl21discrete_distributionIaED2Ev = comdat any

$_ZN4absllsIcSt11char_traitsIcEaEERSt13basic_ostreamIT_T0_ES7_RKNS_21discrete_distributionIT1_EE = comdat any

$_ZN4abslrsIcSt11char_traitsIcEaEERSt13basic_istreamIT_T0_ES7_RNS_21discrete_distributionIT1_EE = comdat any

$_ZN4absl21discrete_distributionIaE10param_type4initEv = comdat any

$_ZNK7testing8internal18ElementsAreMatcherISt5tupleIJdEEEcvNS_7MatcherIT_EEIRKSt6vectorIdSaIdEEEEv = comdat any

$_ZN7testing8internal18CmpHelperEQFailureIddEENS_15AssertionResultEPKcS4_RKT_RKT0_ = comdat any

$_ZN4absl21discrete_distributionIaE10param_typeC2ERKS2_ = comdat any

$_ZN7testing8internal18CmpHelperEQFailureIN4absl21discrete_distributionIaEES4_EENS_15AssertionResultEPKcS7_RKT_RKT0_ = comdat any

$_ZN4absl15random_internal19ostream_state_saverISoED2Ev = comdat any

$_ZN7testing8internal18CmpHelperOpFailureIN4absl21discrete_distributionIaEES4_EENS_15AssertionResultEPKcS7_RKT_RKT0_S7_ = comdat any

$_ZNSt6vectorIdSaIdEEaSERKS1_ = comdat any

$_ZNSt6vectorISt4pairIdmESaIS1_EEaSERKS3_ = comdat any

$_ZN4absl21discrete_distributionIhE10param_typeC2IN9__gnu_cxx17__normal_iteratorIPdSt6vectorIdSaIdEEEEEET_SB_ = comdat any

$_ZN4absl21discrete_distributionIhE10param_typeD2Ev = comdat any

$_ZN4absl21discrete_distributionIhED2Ev = comdat any

$_ZN4absllsIcSt11char_traitsIcEhEERSt13basic_ostreamIT_T0_ES7_RKNS_21discrete_distributionIT1_EE = comdat any

$_ZN4abslrsIcSt11char_traitsIcEhEERSt13basic_istreamIT_T0_ES7_RNS_21discrete_distributionIT1_EE = comdat any

$_ZN4absl21discrete_distributionIhE10param_type4initEv = comdat any

$_ZN4absl21discrete_distributionIhE10param_typeC2ERKS2_ = comdat any

$_ZN7testing8internal18CmpHelperEQFailureIN4absl21discrete_distributionIhEES4_EENS_15AssertionResultEPKcS7_RKT_RKT0_ = comdat any

$_ZN7testing8internal18CmpHelperOpFailureIN4absl21discrete_distributionIhEES4_EENS_15AssertionResultEPKcS7_RKT_RKT0_S7_ = comdat any

$_ZN4absl21discrete_distributionIsE10param_typeC2IN9__gnu_cxx17__normal_iteratorIPdSt6vectorIdSaIdEEEEEET_SB_ = comdat any

$_ZN4absl21discrete_distributionIsE10param_typeD2Ev = comdat any

$_ZN4absl21discrete_distributionIsED2Ev = comdat any

$_ZN4absllsIcSt11char_traitsIcEsEERSt13basic_ostreamIT_T0_ES7_RKNS_21discrete_distributionIT1_EE = comdat any

$_ZN4abslrsIcSt11char_traitsIcEsEERSt13basic_istreamIT_T0_ES7_RNS_21discrete_distributionIT1_EE = comdat any

$_ZN4absl21discrete_distributionIsE10param_type4initEv = comdat any

$_ZN4absl21discrete_distributionIsE10param_typeC2ERKS2_ = comdat any

$_ZN7testing8internal18CmpHelperEQFailureIN4absl21discrete_distributionIsEES4_EENS_15AssertionResultEPKcS7_RKT_RKT0_ = comdat any

$_ZN7testing8internal18CmpHelperOpFailureIN4absl21discrete_distributionIsEES4_EENS_15AssertionResultEPKcS7_RKT_RKT0_S7_ = comdat any

$_ZN4absl21discrete_distributionItE10param_typeC2IN9__gnu_cxx17__normal_iteratorIPdSt6vectorIdSaIdEEEEEET_SB_ = comdat any

$_ZN4absl21discrete_distributionItE10param_typeD2Ev = comdat any

$_ZN4absl21discrete_distributionItED2Ev = comdat any

$_ZN4absllsIcSt11char_traitsIcEtEERSt13basic_ostreamIT_T0_ES7_RKNS_21discrete_distributionIT1_EE = comdat any

$_ZN4abslrsIcSt11char_traitsIcEtEERSt13basic_istreamIT_T0_ES7_RNS_21discrete_distributionIT1_EE = comdat any

$_ZN4absl21discrete_distributionItE10param_type4initEv = comdat any

$_ZN4absl21discrete_distributionItE10param_typeC2ERKS2_ = comdat any

$_ZN7testing8internal18CmpHelperEQFailureIN4absl21discrete_distributionItEES4_EENS_15AssertionResultEPKcS7_RKT_RKT0_ = comdat any

$_ZN7testing8internal18CmpHelperOpFailureIN4absl21discrete_distributionItEES4_EENS_15AssertionResultEPKcS7_RKT_RKT0_S7_ = comdat any

$_ZN4absllsIcSt11char_traitsIcEiEERSt13basic_ostreamIT_T0_ES7_RKNS_21discrete_distributionIT1_EE = comdat any

$_ZN4abslrsIcSt11char_traitsIcEiEERSt13basic_istreamIT_T0_ES7_RNS_21discrete_distributionIT1_EE = comdat any

$_ZN4absl21discrete_distributionIiE10param_typeC2ERKS2_ = comdat any

$_ZN7testing8internal18CmpHelperEQFailureIN4absl21discrete_distributionIiEES4_EENS_15AssertionResultEPKcS7_RKT_RKT0_ = comdat any

$_ZN7testing8internal18CmpHelperOpFailureIN4absl21discrete_distributionIiEES4_EENS_15AssertionResultEPKcS7_RKT_RKT0_S7_ = comdat any

$_ZN4absl21discrete_distributionIjE10param_typeC2IN9__gnu_cxx17__normal_iteratorIPdSt6vectorIdSaIdEEEEEET_SB_ = comdat any

$_ZN4absl21discrete_distributionIjE10param_typeD2Ev = comdat any

$_ZN4absl21discrete_distributionIjED2Ev = comdat any

$_ZN4absllsIcSt11char_traitsIcEjEERSt13basic_ostreamIT_T0_ES7_RKNS_21discrete_distributionIT1_EE = comdat any

$_ZN4abslrsIcSt11char_traitsIcEjEERSt13basic_istreamIT_T0_ES7_RNS_21discrete_distributionIT1_EE = comdat any

$_ZN4absl21discrete_distributionIjE10param_type4initEv = comdat any

$_ZN4absl21discrete_distributionIjE10param_typeC2ERKS2_ = comdat any

$_ZN7testing8internal18CmpHelperEQFailureIN4absl21discrete_distributionIjEES4_EENS_15AssertionResultEPKcS7_RKT_RKT0_ = comdat any

$_ZN7testing8internal18CmpHelperOpFailureIN4absl21discrete_distributionIjEES4_EENS_15AssertionResultEPKcS7_RKT_RKT0_S7_ = comdat any

$_ZN4absl21discrete_distributionIlE10param_typeC2IN9__gnu_cxx17__normal_iteratorIPdSt6vectorIdSaIdEEEEEET_SB_ = comdat any

$_ZN4absllsIcSt11char_traitsIcElEERSt13basic_ostreamIT_T0_ES7_RKNS_21discrete_distributionIT1_EE = comdat any

$_ZN4abslrsIcSt11char_traitsIcElEERSt13basic_istreamIT_T0_ES7_RNS_21discrete_distributionIT1_EE = comdat any

$_ZN4absl21discrete_distributionIlE10param_typeC2ERKS2_ = comdat any

$_ZN7testing8internal18CmpHelperEQFailureIN4absl21discrete_distributionIlEES4_EENS_15AssertionResultEPKcS7_RKT_RKT0_ = comdat any

$_ZN7testing8internal18CmpHelperOpFailureIN4absl21discrete_distributionIlEES4_EENS_15AssertionResultEPKcS7_RKT_RKT0_S7_ = comdat any

$_ZN4absl21discrete_distributionImE10param_typeC2IN9__gnu_cxx17__normal_iteratorIPdSt6vectorIdSaIdEEEEEET_SB_ = comdat any

$_ZN4absl21discrete_distributionImE10param_typeD2Ev = comdat any

$_ZN4absl21discrete_distributionImED2Ev = comdat any

$_ZN4absllsIcSt11char_traitsIcEmEERSt13basic_ostreamIT_T0_ES7_RKNS_21discrete_distributionIT1_EE = comdat any

$_ZN4abslrsIcSt11char_traitsIcEmEERSt13basic_istreamIT_T0_ES7_RNS_21discrete_distributionIT1_EE = comdat any

$_ZN4absl21discrete_distributionImE10param_type4initEv = comdat any

$_ZN4absl21discrete_distributionImE10param_typeC2ERKS2_ = comdat any

$_ZN7testing8internal18CmpHelperEQFailureIN4absl21discrete_distributionImEES4_EENS_15AssertionResultEPKcS7_RKT_RKT0_ = comdat any

$_ZN7testing8internal18CmpHelperOpFailureIN4absl21discrete_distributionImEES4_EENS_15AssertionResultEPKcS7_RKT_RKT0_S7_ = comdat any

$_ZN7testing8internal24GenerateNamesRecursivelyINS0_20DefaultNameGeneratorENS0_5TypesIaJhstijlmEEEEEvT0_PSt6vectorINSt7__cxx1112basic_stringIcSt11char_traitsIcESaIcEEESaISC_EEi = comdat any

$_ZN7testing8internal24GenerateNamesRecursivelyINS0_20DefaultNameGeneratorENS0_5TypesIhJstijlmEEEEEvT0_PSt6vectorINSt7__cxx1112basic_stringIcSt11char_traitsIcESaIcEEESaISC_EEi = comdat any

$_ZNSt6vectorINSt7__cxx1112basic_stringIcSt11char_traitsIcESaIcEEESaIS5_EE17_M_realloc_insertIJS5_EEEvN9__gnu_cxx17__normal_iteratorIPS5_S7_EEDpOT_ = comdat any

$_ZN7testing8internal24GenerateNamesRecursivelyINS0_20DefaultNameGeneratorENS0_5TypesIsJtijlmEEEEEvT0_PSt6vectorINSt7__cxx1112basic_stringIcSt11char_traitsIcESaIcEEESaISC_EEi = comdat any

$_ZN7testing8internal24GenerateNamesRecursivelyINS0_20DefaultNameGeneratorENS0_5TypesItJijlmEEEEEvT0_PSt6vectorINSt7__cxx1112basic_stringIcSt11char_traitsIcESaIcEEESaISC_EEi = comdat any

$_ZN7testing8internal24GenerateNamesRecursivelyINS0_20DefaultNameGeneratorENS0_5TypesIiJjlmEEEEEvT0_PSt6vectorINSt7__cxx1112basic_stringIcSt11char_traitsIcESaIcEEESaISC_EEi = comdat any

$_ZN7testing8internal24GenerateNamesRecursivelyINS0_20DefaultNameGeneratorENS0_5TypesIjJlmEEEEEvT0_PSt6vectorINSt7__cxx1112basic_stringIcSt11char_traitsIcESaIcEEESaISC_EEi = comdat any

$_ZN7testing8internal24GenerateNamesRecursivelyINS0_20DefaultNameGeneratorENS0_5TypesIlJmEEEEEvT0_PSt6vectorINSt7__cxx1112basic_stringIcSt11char_traitsIcESaIcEEESaISC_EEi = comdat any

$_ZN7testing8internal24GenerateNamesRecursivelyINS0_20DefaultNameGeneratorENS0_5TypesImJEEEEEvT0_PSt6vectorINSt7__cxx1112basic_stringIcSt11char_traitsIcESaIcEEESaISC_EEi = comdat any

$_ZNK7testing8internal29PredicateFormatterFromMatcherINS0_18ElementsAreMatcherISt5tupleIJddEEEEEclISt6vectorIdSaIdEEEENS_15AssertionResultEPKcRKT_ = comdat any

$_ZNK7testing8internal18ElementsAreMatcherISt5tupleIJddEEEcvNS_7MatcherIT_EEIRKSt6vectorIdSaIdEEEEv = comdat any

$_ZNK7testing8internal26TransformTupleValuesHelperISt5tupleIJddEENS0_22CastAndAppendTransformIRKdEESt20back_insert_iteratorISt6vectorINS_7MatcherIS6_EESaISB_EEEE16IterateOverTupleIS3_Lm2EEclES7_RKS3_SE_ = comdat any

$_ZTSN7testing8internal15TestFactoryBaseE = comdat any

$_ZTIN7testing8internal15TestFactoryBaseE = comdat any

$_ZTVN7testing7MatcherIRKdEE = comdat any

$_ZTSN7testing7MatcherIRKdEE = comdat any

$_ZTSN7testing8internal11MatcherBaseIRKdEE = comdat any

$_ZTSN7testing25MatcherDescriberInterfaceE = comdat any

$_ZTIN7testing25MatcherDescriberInterfaceE = comdat any

$_ZTIN7testing8internal11MatcherBaseIRKdEE = comdat any

$_ZTIN7testing7MatcherIRKdEE = comdat any

$_ZTVN7testing8internal11MatcherBaseIRKdEE = comdat any

$_ZZN7testing8internal11MatcherBaseIRKdE9GetVTableINS4_11ValuePolicyINS0_9EqMatcherIdEELb1EEEEEPKNS4_6VTableEvE7kVTable = comdat any

$_ZTVN7testing8internal22ElementsAreMatcherImplIRKSt6vectorIdSaIdEEEE = comdat any

$_ZTSN7testing8internal22ElementsAreMatcherImplIRKSt6vectorIdSaIdEEEE = comdat any

$_ZTSN7testing16MatcherInterfaceIRKSt6vectorIdSaIdEEEE = comdat any

$_ZTIN7testing16MatcherInterfaceIRKSt6vectorIdSaIdEEEE = comdat any

$_ZTIN7testing8internal22ElementsAreMatcherImplIRKSt6vectorIdSaIdEEEE = comdat any

$_ZTVN7testing8internal24DummyMatchResultListenerE = comdat any

$_ZTSN7testing8internal24DummyMatchResultListenerE = comdat any

$_ZTSN7testing19MatchResultListenerE = comdat any

$_ZTIN7testing19MatchResultListenerE = comdat any

$_ZTIN7testing8internal24DummyMatchResultListenerE = comdat any

$_ZTVN7testing7MatcherIRKSt6vectorIdSaIdEEEE = comdat any

$_ZTSN7testing7MatcherIRKSt6vectorIdSaIdEEEE = comdat any

$_ZTSN7testing8internal11MatcherBaseIRKSt6vectorIdSaIdEEEE = comdat any

$_ZTIN7testing8internal11MatcherBaseIRKSt6vectorIdSaIdEEEE = comdat any

$_ZTIN7testing7MatcherIRKSt6vectorIdSaIdEEEE = comdat any

$_ZTVN7testing8internal11MatcherBaseIRKSt6vectorIdSaIdEEEE = comdat any

$_ZZN7testing8internal11MatcherBaseIRKSt6vectorIdSaIdEEE9GetVTableINS7_11ValuePolicyIPKNS_16MatcherInterfaceIS6_EELb1EEEEEPKNS7_6VTableEvE7kVTable = comdat any

$_ZTVN7testing25StringMatchResultListenerE = comdat any

$_ZTSN7testing25StringMatchResultListenerE = comdat any

$_ZTIN7testing25StringMatchResultListenerE = comdat any

$_ZTSSt6vectorIdSaIdEE = comdat any

$_ZTSSt12_Vector_baseIdSaIdEE = comdat any

$_ZTISt12_Vector_baseIdSaIdEE = comdat any

$_ZTISt6vectorIdSaIdEE = comdat any

$_ZZN7testing8internal31CanonicalizeForStdLibVersioningENSt7__cxx1112basic_stringIcSt11char_traitsIcESaIcEEEE6prefix = comdat any

$_ZZN7testing8internal31CanonicalizeForStdLibVersioningENSt7__cxx1112basic_stringIcSt11char_traitsIcESaIcEEEE9to_search = comdat any

$_ZZN7testing8internal31CanonicalizeForStdLibVersioningENSt7__cxx1112basic_stringIcSt11char_traitsIcESaIcEEEE11replace_str = comdat any

$_ZTVN7testing7MatcherIRKSt4pairIdmEEE = comdat any

$_ZTSN7testing7MatcherIRKSt4pairIdmEEE = comdat any

$_ZTSN7testing8internal11MatcherBaseIRKSt4pairIdmEEE = comdat any

$_ZTIN7testing8internal11MatcherBaseIRKSt4pairIdmEEE = comdat any

$_ZTIN7testing7MatcherIRKSt4pairIdmEEE = comdat any

$_ZTVN7testing8internal11MatcherBaseIRKSt4pairIdmEEE = comdat any

$_ZTVN7testing8internal15PairMatcherImplIRKSt4pairIdmEEE = comdat any

$_ZTSN7testing8internal15PairMatcherImplIRKSt4pairIdmEEE = comdat any

$_ZTSN7testing16MatcherInterfaceIRKSt4pairIdmEEE = comdat any

$_ZTIN7testing16MatcherInterfaceIRKSt4pairIdmEEE = comdat any

$_ZTIN7testing8internal15PairMatcherImplIRKSt4pairIdmEEE = comdat any

$_ZTVN7testing7MatcherIRKmEE = comdat any

$_ZTSN7testing7MatcherIRKmEE = comdat any

$_ZTSN7testing8internal11MatcherBaseIRKmEE = comdat any

$_ZTIN7testing8internal11MatcherBaseIRKmEE = comdat any

$_ZTIN7testing7MatcherIRKmEE = comdat any

$_ZTVN7testing8internal11MatcherBaseIRKmEE = comdat any

$_ZZN7testing8internal11MatcherBaseIRKmE9GetVTableINS4_11ValuePolicyINS0_9EqMatcherImEELb1EEEEEPKNS4_6VTableEvE7kVTable = comdat any

$_ZZN7testing8internal11MatcherBaseIRKSt4pairIdmEE9GetVTableINS6_11ValuePolicyIPKNS_16MatcherInterfaceIS5_EELb1EEEEEPKNS6_6VTableEvE7kVTable = comdat any

$_ZZN7testing8internal11MatcherBaseIRKmE9GetVTableINS4_11ValuePolicyINS0_15AnythingMatcherELb1EEEEEPKNS4_6VTableEvE7kVTable = comdat any

$_ZTVN7testing8internal22ElementsAreMatcherImplIRKSt6vectorISt4pairIdmESaIS4_EEEE = comdat any

$_ZTSN7testing8internal22ElementsAreMatcherImplIRKSt6vectorISt4pairIdmESaIS4_EEEE = comdat any

$_ZTSN7testing16MatcherInterfaceIRKSt6vectorISt4pairIdmESaIS3_EEEE = comdat any

$_ZTIN7testing16MatcherInterfaceIRKSt6vectorISt4pairIdmESaIS3_EEEE = comdat any

$_ZTIN7testing8internal22ElementsAreMatcherImplIRKSt6vectorISt4pairIdmESaIS4_EEEE = comdat any

$_ZTVN7testing7MatcherIRKSt6vectorISt4pairIdmESaIS3_EEEE = comdat any

$_ZTSN7testing7MatcherIRKSt6vectorISt4pairIdmESaIS3_EEEE = comdat any

$_ZTSN7testing8internal11MatcherBaseIRKSt6vectorISt4pairIdmESaIS4_EEEE = comdat any

$_ZTIN7testing8internal11MatcherBaseIRKSt6vectorISt4pairIdmESaIS4_EEEE = comdat any

$_ZTIN7testing7MatcherIRKSt6vectorISt4pairIdmESaIS3_EEEE = comdat any

$_ZTVN7testing8internal11MatcherBaseIRKSt6vectorISt4pairIdmESaIS4_EEEE = comdat any

$_ZZN7testing8internal11MatcherBaseIRKSt6vectorISt4pairIdmESaIS4_EEE9GetVTableINS9_11ValuePolicyIPKNS_16MatcherInterfaceIS8_EELb1EEEEEPKNS9_6VTableEvE7kVTable = comdat any

$_ZTSSt6vectorISt4pairIdmESaIS1_EE = comdat any

$_ZTSSt12_Vector_baseISt4pairIdmESaIS1_EE = comdat any

$_ZTISt12_Vector_baseISt4pairIdmESaIS1_EE = comdat any

$_ZTISt6vectorISt4pairIdmESaIS1_EE = comdat any

$_ZTVN7testing7MatcherIRKiEE = comdat any

$_ZTSN7testing7MatcherIRKiEE = comdat any

$_ZTSN7testing8internal11MatcherBaseIRKiEE = comdat any

$_ZTIN7testing8internal11MatcherBaseIRKiEE = comdat any

$_ZTIN7testing7MatcherIRKiEE = comdat any

$_ZTVN7testing8internal11MatcherBaseIRKiEE = comdat any

$_ZZN7testing8internal11MatcherBaseIRKiE9GetVTableINS4_11ValuePolicyINS0_9EqMatcherIiEELb1EEEEEPKNS4_6VTableEvE7kVTable = comdat any

$_ZTVN7testing8internal22ElementsAreMatcherImplIRKSt6vectorIiSaIiEEEE = comdat any

$_ZTSN7testing8internal22ElementsAreMatcherImplIRKSt6vectorIiSaIiEEEE = comdat any

$_ZTSN7testing16MatcherInterfaceIRKSt6vectorIiSaIiEEEE = comdat any

$_ZTIN7testing16MatcherInterfaceIRKSt6vectorIiSaIiEEEE = comdat any

$_ZTIN7testing8internal22ElementsAreMatcherImplIRKSt6vectorIiSaIiEEEE = comdat any

$_ZTVN7testing7MatcherIRKSt6vectorIiSaIiEEEE = comdat any

$_ZTSN7testing7MatcherIRKSt6vectorIiSaIiEEEE = comdat any

$_ZTSN7testing8internal11MatcherBaseIRKSt6vectorIiSaIiEEEE = comdat any

$_ZTIN7testing8internal11MatcherBaseIRKSt6vectorIiSaIiEEEE = comdat any

$_ZTIN7testing7MatcherIRKSt6vectorIiSaIiEEEE = comdat any

$_ZTVN7testing8internal11MatcherBaseIRKSt6vectorIiSaIiEEEE = comdat any

$_ZZN7testing8internal11MatcherBaseIRKSt6vectorIiSaIiEEE9GetVTableINS7_11ValuePolicyIPKNS_16MatcherInterfaceIS6_EELb1EEEEEPKNS7_6VTableEvE7kVTable = comdat any

$_ZTSSt6vectorIiSaIiEE = comdat any

$_ZTSSt12_Vector_baseIiSaIiEE = comdat any

$_ZTISt12_Vector_baseIiSaIiEE = comdat any

$_ZTISt6vectorIiSaIiEE = comdat any

@_ZStL8__ioinit = internal global %"class.std::ios_base::Init" zeroinitializer, align 1
@__dso_handle = external hidden global i8
@.str = private unnamed_addr constant [1 x i8] zeroinitializer, align 1
@.str.2 = private unnamed_addr constant [141 x i8] c"generated/home/dtcxzyw/WorkSpace/Projects/compilers/llvm-opt-benchmark/bench/abseil-cpp/abseil-cpp/absl/random/discrete_distribution_test.cc\00", align 1
@.str.3 = private unnamed_addr constant [29 x i8] c"DiscreteDistributionTypeTest\00", align 1
@.str.4 = private unnamed_addr constant [19 x i8] c"ParamSerializeTest\00", align 1
@.str.6 = private unnamed_addr constant [12 x i8] c"Constructor\00", align 1
@_ZN12_GLOBAL__N_154DiscreteDistributionTest_InitDiscreteDistribution_Test10test_info_E = internal unnamed_addr global ptr null, align 8
@.str.8 = private unnamed_addr constant [25 x i8] c"DiscreteDistributionTest\00", align 1
@.str.9 = private unnamed_addr constant [25 x i8] c"InitDiscreteDistribution\00", align 1
@_ZN12_GLOBAL__N_146DiscreteDistributionTest_ChiSquaredTest50_Test10test_info_E = internal unnamed_addr global ptr null, align 8
@.str.11 = private unnamed_addr constant [17 x i8] c"ChiSquaredTest50\00", align 1
@_ZN12_GLOBAL__N_143DiscreteDistributionTest_StabilityTest_Test10test_info_E = internal unnamed_addr global ptr null, align 8
@.str.13 = private unnamed_addr constant [14 x i8] c"StabilityTest\00", align 1
@_ZTVN7testing8internal15TestFactoryImplIN12_GLOBAL__N_154DiscreteDistributionTest_InitDiscreteDistribution_TestEEE = internal unnamed_addr constant { [5 x ptr] } { [5 x ptr] [ptr null, ptr @_ZTIN7testing8internal15TestFactoryImplIN12_GLOBAL__N_154DiscreteDistributionTest_InitDiscreteDistribution_TestEEE, ptr @_ZN7testing8internal15TestFactoryImplIN12_GLOBAL__N_154DiscreteDistributionTest_InitDiscreteDistribution_TestEED2Ev, ptr @_ZN7testing8internal15TestFactoryImplIN12_GLOBAL__N_154DiscreteDistributionTest_InitDiscreteDistribution_TestEED0Ev, ptr @_ZN7testing8internal15TestFactoryImplIN12_GLOBAL__N_154DiscreteDistributionTest_InitDiscreteDistribution_TestEE10CreateTestEv] }, align 8
@_ZTVN10__cxxabiv120__si_class_type_infoE = external global [0 x ptr]
@_ZTSN7testing8internal15TestFactoryImplIN12_GLOBAL__N_154DiscreteDistributionTest_InitDiscreteDistribution_TestEEE = internal constant [111 x i8] c"N7testing8internal15TestFactoryImplIN12_GLOBAL__N_154DiscreteDistributionTest_InitDiscreteDistribution_TestEEE\00", align 1
@_ZTVN10__cxxabiv117__class_type_infoE = external global [0 x ptr]
@_ZTSN7testing8internal15TestFactoryBaseE = linkonce_odr dso_local constant [37 x i8] c"N7testing8internal15TestFactoryBaseE\00", comdat, align 1
@_ZTIN7testing8internal15TestFactoryBaseE = linkonce_odr dso_local constant { ptr, ptr } { ptr getelementptr inbounds (ptr, ptr @_ZTVN10__cxxabiv117__class_type_infoE, i64 2), ptr @_ZTSN7testing8internal15TestFactoryBaseE }, comdat, align 8
@_ZTIN7testing8internal15TestFactoryImplIN12_GLOBAL__N_154DiscreteDistributionTest_InitDiscreteDistribution_TestEEE = internal constant { ptr, ptr, ptr } { ptr getelementptr inbounds (ptr, ptr @_ZTVN10__cxxabiv120__si_class_type_infoE, i64 2), ptr @_ZTSN7testing8internal15TestFactoryImplIN12_GLOBAL__N_154DiscreteDistributionTest_InitDiscreteDistribution_TestEEE, ptr @_ZTIN7testing8internal15TestFactoryBaseE }, align 8
@_ZTVN12_GLOBAL__N_154DiscreteDistributionTest_InitDiscreteDistribution_TestE = internal unnamed_addr constant { [8 x ptr] } { [8 x ptr] [ptr null, ptr @_ZTIN12_GLOBAL__N_154DiscreteDistributionTest_InitDiscreteDistribution_TestE, ptr @_ZN12_GLOBAL__N_154DiscreteDistributionTest_InitDiscreteDistribution_TestD2Ev, ptr @_ZN12_GLOBAL__N_154DiscreteDistributionTest_InitDiscreteDistribution_TestD0Ev, ptr @_ZN7testing4Test5SetUpEv, ptr @_ZN7testing4Test8TearDownEv, ptr @_ZN12_GLOBAL__N_154DiscreteDistributionTest_InitDiscreteDistribution_Test8TestBodyEv, ptr @_ZN7testing4Test5SetupEv] }, align 8
@_ZTSN12_GLOBAL__N_154DiscreteDistributionTest_InitDiscreteDistribution_TestE = internal constant [73 x i8] c"N12_GLOBAL__N_154DiscreteDistributionTest_InitDiscreteDistribution_TestE\00", align 1
@_ZTIN7testing4TestE = external constant ptr
@_ZTIN12_GLOBAL__N_154DiscreteDistributionTest_InitDiscreteDistribution_TestE = internal constant { ptr, ptr, ptr } { ptr getelementptr inbounds (ptr, ptr @_ZTVN10__cxxabiv120__si_class_type_infoE, i64 2), ptr @_ZTSN12_GLOBAL__N_154DiscreteDistributionTest_InitDiscreteDistribution_TestE, ptr @_ZTIN7testing4TestE }, align 8
@constinit = private unnamed_addr constant [3 x double] [double 1.000000e+00, double 2.000000e+00, double 3.000000e+00], align 8
@.str.14 = private unnamed_addr constant [2 x i8] c"p\00", align 1
@.str.15 = private unnamed_addr constant [2 x i8] c"q\00", align 1
@.str.17 = private unnamed_addr constant [49 x i8] c"cannot create std::vector larger than max_size()\00", align 1
@.str.18 = private unnamed_addr constant [11 x i8] c"Value of: \00", align 1
@.str.19 = private unnamed_addr constant [2 x i8] c"\0A\00", align 1
@.str.20 = private unnamed_addr constant [11 x i8] c"Expected: \00", align 1
@.str.21 = private unnamed_addr constant [97 x i8] c"\0A  The matcher failed on the initial attempt; but passed when rerun to generate the explanation.\00", align 1
@.str.22 = private unnamed_addr constant [12 x i8] c"\0A  Actual: \00", align 1
@.str.23 = private unnamed_addr constant [16 x i8] c"vector::reserve\00", align 1
@_ZTVN7testing7MatcherIRKdEE = linkonce_odr dso_local unnamed_addr constant { [6 x ptr] } { [6 x ptr] [ptr null, ptr @_ZTIN7testing7MatcherIRKdEE, ptr @_ZN7testing7MatcherIRKdED2Ev, ptr @_ZN7testing7MatcherIRKdED0Ev, ptr @_ZNK7testing8internal11MatcherBaseIRKdE10DescribeToEPSo, ptr @_ZNK7testing8internal11MatcherBaseIRKdE18DescribeNegationToEPSo] }, comdat, align 8
@_ZTSN7testing7MatcherIRKdEE = linkonce_odr dso_local constant [24 x i8] c"N7testing7MatcherIRKdEE\00", comdat, align 1
@_ZTVN10__cxxabiv121__vmi_class_type_infoE = external global [0 x ptr]
@_ZTSN7testing8internal11MatcherBaseIRKdEE = linkonce_odr dso_local constant [38 x i8] c"N7testing8internal11MatcherBaseIRKdEE\00", comdat, align 1
@_ZTSN7testing25MatcherDescriberInterfaceE = linkonce_odr dso_local constant [38 x i8] c"N7testing25MatcherDescriberInterfaceE\00", comdat, align 1
@_ZTIN7testing25MatcherDescriberInterfaceE = linkonce_odr dso_local constant { ptr, ptr } { ptr getelementptr inbounds (ptr, ptr @_ZTVN10__cxxabiv117__class_type_infoE, i64 2), ptr @_ZTSN7testing25MatcherDescriberInterfaceE }, comdat, align 8
@_ZTIN7testing8internal11MatcherBaseIRKdEE = linkonce_odr dso_local constant { ptr, ptr, i32, i32, ptr, i64 } { ptr getelementptr inbounds (ptr, ptr @_ZTVN10__cxxabiv121__vmi_class_type_infoE, i64 2), ptr @_ZTSN7testing8internal11MatcherBaseIRKdEE, i32 0, i32 1, ptr @_ZTIN7testing25MatcherDescriberInterfaceE, i64 0 }, comdat, align 8
@_ZTIN7testing7MatcherIRKdEE = linkonce_odr dso_local constant { ptr, ptr, ptr } { ptr getelementptr inbounds (ptr, ptr @_ZTVN10__cxxabiv120__si_class_type_infoE, i64 2), ptr @_ZTSN7testing7MatcherIRKdEE, ptr @_ZTIN7testing8internal11MatcherBaseIRKdEE }, comdat, align 8
@_ZTVN7testing8internal11MatcherBaseIRKdEE = linkonce_odr dso_local unnamed_addr constant { [6 x ptr] } { [6 x ptr] [ptr null, ptr @_ZTIN7testing8internal11MatcherBaseIRKdEE, ptr @_ZN7testing8internal11MatcherBaseIRKdED2Ev, ptr @_ZN7testing8internal11MatcherBaseIRKdED0Ev, ptr @_ZNK7testing8internal11MatcherBaseIRKdE10DescribeToEPSo, ptr @_ZNK7testing8internal11MatcherBaseIRKdE18DescribeNegationToEPSo] }, comdat, align 8
@.str.25 = private unnamed_addr constant [2 x i8] c")\00", align 1
@.str.26 = private unnamed_addr constant [157 x i8] c"generated/home/dtcxzyw/WorkSpace/Projects/compilers/llvm-opt-benchmark/bench/abseil-cpp/bench_build/googletest-src/googletest/include/gtest/gtest-matchers.h\00", align 1
@.str.27 = private unnamed_addr constant [38 x i8] c"Condition vtable_ != nullptr failed. \00", align 1
@_ZSt4cerr = external global %"class.std::basic_ostream", align 8
@_ZZN7testing8internal11MatcherBaseIRKdE9GetVTableINS4_11ValuePolicyINS0_9EqMatcherIdEELb1EEEEEPKNS4_6VTableEvE7kVTable = linkonce_odr dso_local constant %"struct.testing::internal::MatcherBase<const double &>::VTable" { ptr @_ZN7testing8internal11MatcherBaseIRKdE19MatchAndExplainImplINS4_11ValuePolicyINS0_9EqMatcherIdEELb1EEEEEDTcldtclsrT_3Getfp_E15MatchAndExplainfp0_clptfp1_6streamEEERKS4_S3_PNS_19MatchResultListenerE, ptr @_ZN7testing8internal11MatcherBaseIRKdE12DescribeImplINS4_11ValuePolicyINS0_9EqMatcherIdEELb1EEEEEvRKS4_PSob, ptr @_ZN7testing8internal11MatcherBaseIRKdE16GetDescriberImplINS4_11ValuePolicyINS0_9EqMatcherIdEELb1EEEEEPKNS_25MatcherDescriberInterfaceERKS4_, ptr null }, comdat, align 8
@.str.28 = private unnamed_addr constant [2 x i8] c" \00", align 1
@.str.29 = private unnamed_addr constant [15 x i8] c"isn't equal to\00", align 1
@.str.30 = private unnamed_addr constant [12 x i8] c"is equal to\00", align 1
@.str.31 = private unnamed_addr constant [26 x i8] c"vector::_M_realloc_insert\00", align 1
@_ZTVN7testing8internal22ElementsAreMatcherImplIRKSt6vectorIdSaIdEEEE = linkonce_odr dso_local unnamed_addr constant { [7 x ptr] } { [7 x ptr] [ptr null, ptr @_ZTIN7testing8internal22ElementsAreMatcherImplIRKSt6vectorIdSaIdEEEE, ptr @_ZN7testing8internal22ElementsAreMatcherImplIRKSt6vectorIdSaIdEEED2Ev, ptr @_ZN7testing8internal22ElementsAreMatcherImplIRKSt6vectorIdSaIdEEED0Ev, ptr @_ZNK7testing8internal22ElementsAreMatcherImplIRKSt6vectorIdSaIdEEE10DescribeToEPSo, ptr @_ZNK7testing8internal22ElementsAreMatcherImplIRKSt6vectorIdSaIdEEE18DescribeNegationToEPSo, ptr @_ZNK7testing8internal22ElementsAreMatcherImplIRKSt6vectorIdSaIdEEE15MatchAndExplainES6_PNS_19MatchResultListenerE] }, comdat, align 8
@_ZTSN7testing8internal22ElementsAreMatcherImplIRKSt6vectorIdSaIdEEEE = linkonce_odr dso_local constant [65 x i8] c"N7testing8internal22ElementsAreMatcherImplIRKSt6vectorIdSaIdEEEE\00", comdat, align 1
@_ZTSN7testing16MatcherInterfaceIRKSt6vectorIdSaIdEEEE = linkonce_odr dso_local constant [50 x i8] c"N7testing16MatcherInterfaceIRKSt6vectorIdSaIdEEEE\00", comdat, align 1
@_ZTIN7testing16MatcherInterfaceIRKSt6vectorIdSaIdEEEE = linkonce_odr dso_local constant { ptr, ptr, ptr } { ptr getelementptr inbounds (ptr, ptr @_ZTVN10__cxxabiv120__si_class_type_infoE, i64 2), ptr @_ZTSN7testing16MatcherInterfaceIRKSt6vectorIdSaIdEEEE, ptr @_ZTIN7testing25MatcherDescriberInterfaceE }, comdat, align 8
@_ZTIN7testing8internal22ElementsAreMatcherImplIRKSt6vectorIdSaIdEEEE = linkonce_odr dso_local constant { ptr, ptr, ptr } { ptr getelementptr inbounds (ptr, ptr @_ZTVN10__cxxabiv120__si_class_type_infoE, i64 2), ptr @_ZTSN7testing8internal22ElementsAreMatcherImplIRKSt6vectorIdSaIdEEEE, ptr @_ZTIN7testing16MatcherInterfaceIRKSt6vectorIdSaIdEEEE }, comdat, align 8
@.str.32 = private unnamed_addr constant [9 x i8] c"is empty\00", align 1
@.str.33 = private unnamed_addr constant [20 x i8] c"has 1 element that \00", align 1
@.str.34 = private unnamed_addr constant [5 x i8] c"has \00", align 1
@.str.35 = private unnamed_addr constant [8 x i8] c" where\0A\00", align 1
@.str.36 = private unnamed_addr constant [10 x i8] c"element #\00", align 1
@.str.37 = private unnamed_addr constant [3 x i8] c",\0A\00", align 1
@.str.38 = private unnamed_addr constant [9 x i8] c" element\00", align 1
@.str.39 = private unnamed_addr constant [10 x i8] c" elements\00", align 1
@.str.40 = private unnamed_addr constant [7 x i8] c"(null)\00", align 1
@.str.41 = private unnamed_addr constant [12 x i8] c"isn't empty\00", align 1
@.str.42 = private unnamed_addr constant [14 x i8] c"doesn't have \00", align 1
@.str.43 = private unnamed_addr constant [6 x i8] c", or\0A\00", align 1
@.str.44 = private unnamed_addr constant [11 x i8] c"which has \00", align 1
@.str.45 = private unnamed_addr constant [16 x i8] c"whose element #\00", align 1
@.str.46 = private unnamed_addr constant [15 x i8] c" doesn't match\00", align 1
@.str.47 = private unnamed_addr constant [7 x i8] c",\0Aand \00", align 1
@.str.48 = private unnamed_addr constant [11 x i8] c" matches, \00", align 1
@_ZTVN7testing8internal24DummyMatchResultListenerE = linkonce_odr dso_local unnamed_addr constant { [4 x ptr] } { [4 x ptr] [ptr null, ptr @_ZTIN7testing8internal24DummyMatchResultListenerE, ptr @_ZN7testing8internal24DummyMatchResultListenerD2Ev, ptr @_ZN7testing8internal24DummyMatchResultListenerD0Ev] }, comdat, align 8
@_ZTSN7testing8internal24DummyMatchResultListenerE = linkonce_odr dso_local constant [46 x i8] c"N7testing8internal24DummyMatchResultListenerE\00", comdat, align 1
@_ZTSN7testing19MatchResultListenerE = linkonce_odr dso_local constant [32 x i8] c"N7testing19MatchResultListenerE\00", comdat, align 1
@_ZTIN7testing19MatchResultListenerE = linkonce_odr dso_local constant { ptr, ptr } { ptr getelementptr inbounds (ptr, ptr @_ZTVN10__cxxabiv117__class_type_infoE, i64 2), ptr @_ZTSN7testing19MatchResultListenerE }, comdat, align 8
@_ZTIN7testing8internal24DummyMatchResultListenerE = linkonce_odr dso_local constant { ptr, ptr, ptr } { ptr getelementptr inbounds (ptr, ptr @_ZTVN10__cxxabiv120__si_class_type_infoE, i64 2), ptr @_ZTSN7testing8internal24DummyMatchResultListenerE, ptr @_ZTIN7testing19MatchResultListenerE }, comdat, align 8
@.str.49 = private unnamed_addr constant [3 x i8] c", \00", align 1
@_ZTVN7testing7MatcherIRKSt6vectorIdSaIdEEEE = linkonce_odr dso_local unnamed_addr constant { [6 x ptr] } { [6 x ptr] [ptr null, ptr @_ZTIN7testing7MatcherIRKSt6vectorIdSaIdEEEE, ptr @_ZN7testing7MatcherIRKSt6vectorIdSaIdEEED2Ev, ptr @_ZN7testing7MatcherIRKSt6vectorIdSaIdEEED0Ev, ptr @_ZNK7testing8internal11MatcherBaseIRKSt6vectorIdSaIdEEE10DescribeToEPSo, ptr @_ZNK7testing8internal11MatcherBaseIRKSt6vectorIdSaIdEEE18DescribeNegationToEPSo] }, comdat, align 8
@_ZTSN7testing7MatcherIRKSt6vectorIdSaIdEEEE = linkonce_odr dso_local constant [40 x i8] c"N7testing7MatcherIRKSt6vectorIdSaIdEEEE\00", comdat, align 1
@_ZTSN7testing8internal11MatcherBaseIRKSt6vectorIdSaIdEEEE = linkonce_odr dso_local constant [54 x i8] c"N7testing8internal11MatcherBaseIRKSt6vectorIdSaIdEEEE\00", comdat, align 1
@_ZTIN7testing8internal11MatcherBaseIRKSt6vectorIdSaIdEEEE = linkonce_odr dso_local constant { ptr, ptr, i32, i32, ptr, i64 } { ptr getelementptr inbounds (ptr, ptr @_ZTVN10__cxxabiv121__vmi_class_type_infoE, i64 2), ptr @_ZTSN7testing8internal11MatcherBaseIRKSt6vectorIdSaIdEEEE, i32 0, i32 1, ptr @_ZTIN7testing25MatcherDescriberInterfaceE, i64 0 }, comdat, align 8
@_ZTIN7testing7MatcherIRKSt6vectorIdSaIdEEEE = linkonce_odr dso_local constant { ptr, ptr, ptr } { ptr getelementptr inbounds (ptr, ptr @_ZTVN10__cxxabiv120__si_class_type_infoE, i64 2), ptr @_ZTSN7testing7MatcherIRKSt6vectorIdSaIdEEEE, ptr @_ZTIN7testing8internal11MatcherBaseIRKSt6vectorIdSaIdEEEE }, comdat, align 8
@_ZTVN7testing8internal11MatcherBaseIRKSt6vectorIdSaIdEEEE = linkonce_odr dso_local unnamed_addr constant { [6 x ptr] } { [6 x ptr] [ptr null, ptr @_ZTIN7testing8internal11MatcherBaseIRKSt6vectorIdSaIdEEEE, ptr @_ZN7testing8internal11MatcherBaseIRKSt6vectorIdSaIdEEED2Ev, ptr @_ZN7testing8internal11MatcherBaseIRKSt6vectorIdSaIdEEED0Ev, ptr @_ZNK7testing8internal11MatcherBaseIRKSt6vectorIdSaIdEEE10DescribeToEPSo, ptr @_ZNK7testing8internal11MatcherBaseIRKSt6vectorIdSaIdEEE18DescribeNegationToEPSo] }, comdat, align 8
@_ZZN7testing8internal11MatcherBaseIRKSt6vectorIdSaIdEEE9GetVTableINS7_11ValuePolicyIPKNS_16MatcherInterfaceIS6_EELb1EEEEEPKNS7_6VTableEvE7kVTable = linkonce_odr dso_local constant %"struct.testing::internal::MatcherBase<const std::vector<double> &>::VTable" { ptr @_ZN7testing8internal11MatcherBaseIRKSt6vectorIdSaIdEEE19MatchAndExplainImplINS7_11ValuePolicyIPKNS_16MatcherInterfaceIS6_EELb1EEEEEDTcldtclsrT_3Getfp_E15MatchAndExplainfp0_fp1_EERKS7_S6_PNS_19MatchResultListenerE, ptr @_ZN7testing8internal11MatcherBaseIRKSt6vectorIdSaIdEEE12DescribeImplINS7_11ValuePolicyIPKNS_16MatcherInterfaceIS6_EELb1EEEEEvRKS7_PSob, ptr @_ZN7testing8internal11MatcherBaseIRKSt6vectorIdSaIdEEE16GetDescriberImplINS7_11ValuePolicyIPKNS_16MatcherInterfaceIS6_EELb1EEEEEPKNS_25MatcherDescriberInterfaceERKS7_, ptr @_ZN7testing8internal13SharedPayloadISt10unique_ptrIKNS_16MatcherInterfaceIRKSt6vectorIdSaIdEEEESt14default_deleteISA_EEE7DestroyEPNS0_17SharedPayloadBaseE }, comdat, align 8
@_ZTVN7testing25StringMatchResultListenerE = linkonce_odr dso_local unnamed_addr constant { [4 x ptr] } { [4 x ptr] [ptr null, ptr @_ZTIN7testing25StringMatchResultListenerE, ptr @_ZN7testing25StringMatchResultListenerD2Ev, ptr @_ZN7testing25StringMatchResultListenerD0Ev] }, comdat, align 8
@_ZTSN7testing25StringMatchResultListenerE = linkonce_odr dso_local constant [38 x i8] c"N7testing25StringMatchResultListenerE\00", comdat, align 1
@_ZTIN7testing25StringMatchResultListenerE = linkonce_odr dso_local constant { ptr, ptr, ptr } { ptr getelementptr inbounds (ptr, ptr @_ZTVN10__cxxabiv120__si_class_type_infoE, i64 2), ptr @_ZTSN7testing25StringMatchResultListenerE, ptr @_ZTIN7testing19MatchResultListenerE }, comdat, align 8
@.str.50 = private unnamed_addr constant [11 x i8] c" (of type \00", align 1
@.str.51 = private unnamed_addr constant [5 x i8] c" ...\00", align 1
@_ZTSSt6vectorIdSaIdEE = linkonce_odr dso_local constant [18 x i8] c"St6vectorIdSaIdEE\00", comdat, align 1
@_ZTSSt12_Vector_baseIdSaIdEE = linkonce_odr dso_local constant [25 x i8] c"St12_Vector_baseIdSaIdEE\00", comdat, align 1
@_ZTISt12_Vector_baseIdSaIdEE = linkonce_odr dso_local constant { ptr, ptr } { ptr getelementptr inbounds (ptr, ptr @_ZTVN10__cxxabiv117__class_type_infoE, i64 2), ptr @_ZTSSt12_Vector_baseIdSaIdEE }, comdat, align 8
@_ZTISt6vectorIdSaIdEE = linkonce_odr dso_local constant { ptr, ptr, i32, i32, ptr, i64 } { ptr getelementptr inbounds (ptr, ptr @_ZTVN10__cxxabiv121__vmi_class_type_infoE, i64 2), ptr @_ZTSSt6vectorIdSaIdEE, i32 0, i32 1, ptr @_ZTISt12_Vector_baseIdSaIdEE, i64 0 }, comdat, align 8
@_ZZN7testing8internal31CanonicalizeForStdLibVersioningENSt7__cxx1112basic_stringIcSt11char_traitsIcESaIcEEEE6prefix = linkonce_odr dso_local constant [8 x i8] c"std::__\00", comdat, align 1
@.str.52 = private unnamed_addr constant [3 x i8] c"::\00", align 1
@_ZZN7testing8internal31CanonicalizeForStdLibVersioningENSt7__cxx1112basic_stringIcSt11char_traitsIcESaIcEEEE9to_search = linkonce_odr dso_local constant [3 x i8] c", \00", comdat, align 1
@_ZZN7testing8internal31CanonicalizeForStdLibVersioningENSt7__cxx1112basic_stringIcSt11char_traitsIcESaIcEEEE11replace_str = linkonce_odr dso_local constant [2 x i8] c",\00", comdat, align 1
@.str.53 = private unnamed_addr constant [3 x i8] c"<(\00", align 1
@_ZTVN7testing7MatcherIRKSt4pairIdmEEE = linkonce_odr dso_local unnamed_addr constant { [6 x ptr] } { [6 x ptr] [ptr null, ptr @_ZTIN7testing7MatcherIRKSt4pairIdmEEE, ptr @_ZN7testing7MatcherIRKSt4pairIdmEED2Ev, ptr @_ZN7testing7MatcherIRKSt4pairIdmEED0Ev, ptr @_ZNK7testing8internal11MatcherBaseIRKSt4pairIdmEE10DescribeToEPSo, ptr @_ZNK7testing8internal11MatcherBaseIRKSt4pairIdmEE18DescribeNegationToEPSo] }, comdat, align 8
@_ZTSN7testing7MatcherIRKSt4pairIdmEEE = linkonce_odr dso_local constant [34 x i8] c"N7testing7MatcherIRKSt4pairIdmEEE\00", comdat, align 1
@_ZTSN7testing8internal11MatcherBaseIRKSt4pairIdmEEE = linkonce_odr dso_local constant [48 x i8] c"N7testing8internal11MatcherBaseIRKSt4pairIdmEEE\00", comdat, align 1
@_ZTIN7testing8internal11MatcherBaseIRKSt4pairIdmEEE = linkonce_odr dso_local constant { ptr, ptr, i32, i32, ptr, i64 } { ptr getelementptr inbounds (ptr, ptr @_ZTVN10__cxxabiv121__vmi_class_type_infoE, i64 2), ptr @_ZTSN7testing8internal11MatcherBaseIRKSt4pairIdmEEE, i32 0, i32 1, ptr @_ZTIN7testing25MatcherDescriberInterfaceE, i64 0 }, comdat, align 8
@_ZTIN7testing7MatcherIRKSt4pairIdmEEE = linkonce_odr dso_local constant { ptr, ptr, ptr } { ptr getelementptr inbounds (ptr, ptr @_ZTVN10__cxxabiv120__si_class_type_infoE, i64 2), ptr @_ZTSN7testing7MatcherIRKSt4pairIdmEEE, ptr @_ZTIN7testing8internal11MatcherBaseIRKSt4pairIdmEEE }, comdat, align 8
@_ZTVN7testing8internal11MatcherBaseIRKSt4pairIdmEEE = linkonce_odr dso_local unnamed_addr constant { [6 x ptr] } { [6 x ptr] [ptr null, ptr @_ZTIN7testing8internal11MatcherBaseIRKSt4pairIdmEEE, ptr @_ZN7testing8internal11MatcherBaseIRKSt4pairIdmEED2Ev, ptr @_ZN7testing8internal11MatcherBaseIRKSt4pairIdmEED0Ev, ptr @_ZNK7testing8internal11MatcherBaseIRKSt4pairIdmEE10DescribeToEPSo, ptr @_ZNK7testing8internal11MatcherBaseIRKSt4pairIdmEE18DescribeNegationToEPSo] }, comdat, align 8
@_ZTVN7testing8internal15PairMatcherImplIRKSt4pairIdmEEE = linkonce_odr dso_local unnamed_addr constant { [7 x ptr] } { [7 x ptr] [ptr null, ptr @_ZTIN7testing8internal15PairMatcherImplIRKSt4pairIdmEEE, ptr @_ZN7testing8internal15PairMatcherImplIRKSt4pairIdmEED2Ev, ptr @_ZN7testing8internal15PairMatcherImplIRKSt4pairIdmEED0Ev, ptr @_ZNK7testing8internal15PairMatcherImplIRKSt4pairIdmEE10DescribeToEPSo, ptr @_ZNK7testing8internal15PairMatcherImplIRKSt4pairIdmEE18DescribeNegationToEPSo, ptr @_ZNK7testing8internal15PairMatcherImplIRKSt4pairIdmEE15MatchAndExplainES5_PNS_19MatchResultListenerE] }, comdat, align 8
@_ZTSN7testing8internal15PairMatcherImplIRKSt4pairIdmEEE = linkonce_odr dso_local constant [52 x i8] c"N7testing8internal15PairMatcherImplIRKSt4pairIdmEEE\00", comdat, align 1
@_ZTSN7testing16MatcherInterfaceIRKSt4pairIdmEEE = linkonce_odr dso_local constant [44 x i8] c"N7testing16MatcherInterfaceIRKSt4pairIdmEEE\00", comdat, align 1
@_ZTIN7testing16MatcherInterfaceIRKSt4pairIdmEEE = linkonce_odr dso_local constant { ptr, ptr, ptr } { ptr getelementptr inbounds (ptr, ptr @_ZTVN10__cxxabiv120__si_class_type_infoE, i64 2), ptr @_ZTSN7testing16MatcherInterfaceIRKSt4pairIdmEEE, ptr @_ZTIN7testing25MatcherDescriberInterfaceE }, comdat, align 8
@_ZTIN7testing8internal15PairMatcherImplIRKSt4pairIdmEEE = linkonce_odr dso_local constant { ptr, ptr, ptr } { ptr getelementptr inbounds (ptr, ptr @_ZTVN10__cxxabiv120__si_class_type_infoE, i64 2), ptr @_ZTSN7testing8internal15PairMatcherImplIRKSt4pairIdmEEE, ptr @_ZTIN7testing16MatcherInterfaceIRKSt4pairIdmEEE }, comdat, align 8
@_ZTVN7testing7MatcherIRKmEE = linkonce_odr dso_local unnamed_addr constant { [6 x ptr] } { [6 x ptr] [ptr null, ptr @_ZTIN7testing7MatcherIRKmEE, ptr @_ZN7testing7MatcherIRKmED2Ev, ptr @_ZN7testing7MatcherIRKmED0Ev, ptr @_ZNK7testing8internal11MatcherBaseIRKmE10DescribeToEPSo, ptr @_ZNK7testing8internal11MatcherBaseIRKmE18DescribeNegationToEPSo] }, comdat, align 8
@_ZTSN7testing7MatcherIRKmEE = linkonce_odr dso_local constant [24 x i8] c"N7testing7MatcherIRKmEE\00", comdat, align 1
@_ZTSN7testing8internal11MatcherBaseIRKmEE = linkonce_odr dso_local constant [38 x i8] c"N7testing8internal11MatcherBaseIRKmEE\00", comdat, align 1
@_ZTIN7testing8internal11MatcherBaseIRKmEE = linkonce_odr dso_local constant { ptr, ptr, i32, i32, ptr, i64 } { ptr getelementptr inbounds (ptr, ptr @_ZTVN10__cxxabiv121__vmi_class_type_infoE, i64 2), ptr @_ZTSN7testing8internal11MatcherBaseIRKmEE, i32 0, i32 1, ptr @_ZTIN7testing25MatcherDescriberInterfaceE, i64 0 }, comdat, align 8
@_ZTIN7testing7MatcherIRKmEE = linkonce_odr dso_local constant { ptr, ptr, ptr } { ptr getelementptr inbounds (ptr, ptr @_ZTVN10__cxxabiv120__si_class_type_infoE, i64 2), ptr @_ZTSN7testing7MatcherIRKmEE, ptr @_ZTIN7testing8internal11MatcherBaseIRKmEE }, comdat, align 8
@_ZTVN7testing8internal11MatcherBaseIRKmEE = linkonce_odr dso_local unnamed_addr constant { [6 x ptr] } { [6 x ptr] [ptr null, ptr @_ZTIN7testing8internal11MatcherBaseIRKmEE, ptr @_ZN7testing8internal11MatcherBaseIRKmED2Ev, ptr @_ZN7testing8internal11MatcherBaseIRKmED0Ev, ptr @_ZNK7testing8internal11MatcherBaseIRKmE10DescribeToEPSo, ptr @_ZNK7testing8internal11MatcherBaseIRKmE18DescribeNegationToEPSo] }, comdat, align 8
@_ZZN7testing8internal11MatcherBaseIRKmE9GetVTableINS4_11ValuePolicyINS0_9EqMatcherImEELb1EEEEEPKNS4_6VTableEvE7kVTable = linkonce_odr dso_local constant %"struct.testing::internal::MatcherBase<const unsigned long &>::VTable" { ptr @_ZN7testing8internal11MatcherBaseIRKmE19MatchAndExplainImplINS4_11ValuePolicyINS0_9EqMatcherImEELb1EEEEEDTcldtclsrT_3Getfp_E15MatchAndExplainfp0_clptfp1_6streamEEERKS4_S3_PNS_19MatchResultListenerE, ptr @_ZN7testing8internal11MatcherBaseIRKmE12DescribeImplINS4_11ValuePolicyINS0_9EqMatcherImEELb1EEEEEvRKS4_PSob, ptr @_ZN7testing8internal11MatcherBaseIRKmE16GetDescriberImplINS4_11ValuePolicyINS0_9EqMatcherImEELb1EEEEEPKNS_25MatcherDescriberInterfaceERKS4_, ptr null }, comdat, align 8
@.str.54 = private unnamed_addr constant [24 x i8] c"has a first field that \00", align 1
@.str.55 = private unnamed_addr constant [31 x i8] c", and has a second field that \00", align 1
@.str.56 = private unnamed_addr constant [30 x i8] c", or has a second field that \00", align 1
@.str.57 = private unnamed_addr constant [33 x i8] c"whose first field does not match\00", align 1
@.str.58 = private unnamed_addr constant [34 x i8] c"whose second field does not match\00", align 1
@.str.59 = private unnamed_addr constant [24 x i8] c"whose both fields match\00", align 1
@.str.60 = private unnamed_addr constant [36 x i8] c", where the first field is a value \00", align 1
@.str.61 = private unnamed_addr constant [5 x i8] c"and \00", align 1
@.str.62 = private unnamed_addr constant [7 x i8] c"where \00", align 1
@.str.63 = private unnamed_addr constant [29 x i8] c"the second field is a value \00", align 1
@_ZZN7testing8internal11MatcherBaseIRKSt4pairIdmEE9GetVTableINS6_11ValuePolicyIPKNS_16MatcherInterfaceIS5_EELb1EEEEEPKNS6_6VTableEvE7kVTable = linkonce_odr dso_local constant %"struct.testing::internal::MatcherBase<const std::pair<double, unsigned long> &>::VTable" { ptr @_ZN7testing8internal11MatcherBaseIRKSt4pairIdmEE19MatchAndExplainImplINS6_11ValuePolicyIPKNS_16MatcherInterfaceIS5_EELb1EEEEEDTcldtclsrT_3Getfp_E15MatchAndExplainfp0_fp1_EERKS6_S5_PNS_19MatchResultListenerE, ptr @_ZN7testing8internal11MatcherBaseIRKSt4pairIdmEE12DescribeImplINS6_11ValuePolicyIPKNS_16MatcherInterfaceIS5_EELb1EEEEEvRKS6_PSob, ptr @_ZN7testing8internal11MatcherBaseIRKSt4pairIdmEE16GetDescriberImplINS6_11ValuePolicyIPKNS_16MatcherInterfaceIS5_EELb1EEEEEPKNS_25MatcherDescriberInterfaceERKS6_, ptr @_ZN7testing8internal13SharedPayloadISt10unique_ptrIKNS_16MatcherInterfaceIRKSt4pairIdmEEESt14default_deleteIS9_EEE7DestroyEPNS0_17SharedPayloadBaseE }, comdat, align 8
@_ZZN7testing8internal11MatcherBaseIRKmE9GetVTableINS4_11ValuePolicyINS0_15AnythingMatcherELb1EEEEEPKNS4_6VTableEvE7kVTable = linkonce_odr dso_local constant %"struct.testing::internal::MatcherBase<const unsigned long &>::VTable" { ptr @_ZN7testing8internal11MatcherBaseIRKmE19MatchAndExplainImplINS4_11ValuePolicyINS0_15AnythingMatcherELb1EEEEEDTcldtclsrT_3Getfp_E15MatchAndExplainfp0_clptfp1_6streamEEERKS4_S3_PNS_19MatchResultListenerE, ptr @_ZN7testing8internal11MatcherBaseIRKmE12DescribeImplINS4_11ValuePolicyINS0_15AnythingMatcherELb1EEEEEvRKS4_PSob, ptr @_ZN7testing8internal11MatcherBaseIRKmE16GetDescriberImplINS4_11ValuePolicyINS0_15AnythingMatcherELb1EEEEEPKNS_25MatcherDescriberInterfaceERKS4_, ptr null }, comdat, align 8
@.str.64 = private unnamed_addr constant [14 x i8] c"never matches\00", align 1
@.str.65 = private unnamed_addr constant [12 x i8] c"is anything\00", align 1
@_ZTVN7testing8internal22ElementsAreMatcherImplIRKSt6vectorISt4pairIdmESaIS4_EEEE = linkonce_odr dso_local unnamed_addr constant { [7 x ptr] } { [7 x ptr] [ptr null, ptr @_ZTIN7testing8internal22ElementsAreMatcherImplIRKSt6vectorISt4pairIdmESaIS4_EEEE, ptr @_ZN7testing8internal22ElementsAreMatcherImplIRKSt6vectorISt4pairIdmESaIS4_EEED2Ev, ptr @_ZN7testing8internal22ElementsAreMatcherImplIRKSt6vectorISt4pairIdmESaIS4_EEED0Ev, ptr @_ZNK7testing8internal22ElementsAreMatcherImplIRKSt6vectorISt4pairIdmESaIS4_EEE10DescribeToEPSo, ptr @_ZNK7testing8internal22ElementsAreMatcherImplIRKSt6vectorISt4pairIdmESaIS4_EEE18DescribeNegationToEPSo, ptr @_ZNK7testing8internal22ElementsAreMatcherImplIRKSt6vectorISt4pairIdmESaIS4_EEE15MatchAndExplainES8_PNS_19MatchResultListenerE] }, comdat, align 8
@_ZTSN7testing8internal22ElementsAreMatcherImplIRKSt6vectorISt4pairIdmESaIS4_EEEE = linkonce_odr dso_local constant [77 x i8] c"N7testing8internal22ElementsAreMatcherImplIRKSt6vectorISt4pairIdmESaIS4_EEEE\00", comdat, align 1
@_ZTSN7testing16MatcherInterfaceIRKSt6vectorISt4pairIdmESaIS3_EEEE = linkonce_odr dso_local constant [62 x i8] c"N7testing16MatcherInterfaceIRKSt6vectorISt4pairIdmESaIS3_EEEE\00", comdat, align 1
@_ZTIN7testing16MatcherInterfaceIRKSt6vectorISt4pairIdmESaIS3_EEEE = linkonce_odr dso_local constant { ptr, ptr, ptr } { ptr getelementptr inbounds (ptr, ptr @_ZTVN10__cxxabiv120__si_class_type_infoE, i64 2), ptr @_ZTSN7testing16MatcherInterfaceIRKSt6vectorISt4pairIdmESaIS3_EEEE, ptr @_ZTIN7testing25MatcherDescriberInterfaceE }, comdat, align 8
@_ZTIN7testing8internal22ElementsAreMatcherImplIRKSt6vectorISt4pairIdmESaIS4_EEEE = linkonce_odr dso_local constant { ptr, ptr, ptr } { ptr getelementptr inbounds (ptr, ptr @_ZTVN10__cxxabiv120__si_class_type_infoE, i64 2), ptr @_ZTSN7testing8internal22ElementsAreMatcherImplIRKSt6vectorISt4pairIdmESaIS4_EEEE, ptr @_ZTIN7testing16MatcherInterfaceIRKSt6vectorISt4pairIdmESaIS3_EEEE }, comdat, align 8
@_ZTVN7testing7MatcherIRKSt6vectorISt4pairIdmESaIS3_EEEE = linkonce_odr dso_local unnamed_addr constant { [6 x ptr] } { [6 x ptr] [ptr null, ptr @_ZTIN7testing7MatcherIRKSt6vectorISt4pairIdmESaIS3_EEEE, ptr @_ZN7testing7MatcherIRKSt6vectorISt4pairIdmESaIS3_EEED2Ev, ptr @_ZN7testing7MatcherIRKSt6vectorISt4pairIdmESaIS3_EEED0Ev, ptr @_ZNK7testing8internal11MatcherBaseIRKSt6vectorISt4pairIdmESaIS4_EEE10DescribeToEPSo, ptr @_ZNK7testing8internal11MatcherBaseIRKSt6vectorISt4pairIdmESaIS4_EEE18DescribeNegationToEPSo] }, comdat, align 8
@_ZTSN7testing7MatcherIRKSt6vectorISt4pairIdmESaIS3_EEEE = linkonce_odr dso_local constant [52 x i8] c"N7testing7MatcherIRKSt6vectorISt4pairIdmESaIS3_EEEE\00", comdat, align 1
@_ZTSN7testing8internal11MatcherBaseIRKSt6vectorISt4pairIdmESaIS4_EEEE = linkonce_odr dso_local constant [66 x i8] c"N7testing8internal11MatcherBaseIRKSt6vectorISt4pairIdmESaIS4_EEEE\00", comdat, align 1
@_ZTIN7testing8internal11MatcherBaseIRKSt6vectorISt4pairIdmESaIS4_EEEE = linkonce_odr dso_local constant { ptr, ptr, i32, i32, ptr, i64 } { ptr getelementptr inbounds (ptr, ptr @_ZTVN10__cxxabiv121__vmi_class_type_infoE, i64 2), ptr @_ZTSN7testing8internal11MatcherBaseIRKSt6vectorISt4pairIdmESaIS4_EEEE, i32 0, i32 1, ptr @_ZTIN7testing25MatcherDescriberInterfaceE, i64 0 }, comdat, align 8
@_ZTIN7testing7MatcherIRKSt6vectorISt4pairIdmESaIS3_EEEE = linkonce_odr dso_local constant { ptr, ptr, ptr } { ptr getelementptr inbounds (ptr, ptr @_ZTVN10__cxxabiv120__si_class_type_infoE, i64 2), ptr @_ZTSN7testing7MatcherIRKSt6vectorISt4pairIdmESaIS3_EEEE, ptr @_ZTIN7testing8internal11MatcherBaseIRKSt6vectorISt4pairIdmESaIS4_EEEE }, comdat, align 8
@_ZTVN7testing8internal11MatcherBaseIRKSt6vectorISt4pairIdmESaIS4_EEEE = linkonce_odr dso_local unnamed_addr constant { [6 x ptr] } { [6 x ptr] [ptr null, ptr @_ZTIN7testing8internal11MatcherBaseIRKSt6vectorISt4pairIdmESaIS4_EEEE, ptr @_ZN7testing8internal11MatcherBaseIRKSt6vectorISt4pairIdmESaIS4_EEED2Ev, ptr @_ZN7testing8internal11MatcherBaseIRKSt6vectorISt4pairIdmESaIS4_EEED0Ev, ptr @_ZNK7testing8internal11MatcherBaseIRKSt6vectorISt4pairIdmESaIS4_EEE10DescribeToEPSo, ptr @_ZNK7testing8internal11MatcherBaseIRKSt6vectorISt4pairIdmESaIS4_EEE18DescribeNegationToEPSo] }, comdat, align 8
@_ZZN7testing8internal11MatcherBaseIRKSt6vectorISt4pairIdmESaIS4_EEE9GetVTableINS9_11ValuePolicyIPKNS_16MatcherInterfaceIS8_EELb1EEEEEPKNS9_6VTableEvE7kVTable = linkonce_odr dso_local constant %"struct.testing::internal::MatcherBase<const std::vector<std::pair<double, unsigned long>> &>::VTable" { ptr @_ZN7testing8internal11MatcherBaseIRKSt6vectorISt4pairIdmESaIS4_EEE19MatchAndExplainImplINS9_11ValuePolicyIPKNS_16MatcherInterfaceIS8_EELb1EEEEEDTcldtclsrT_3Getfp_E15MatchAndExplainfp0_fp1_EERKS9_S8_PNS_19MatchResultListenerE, ptr @_ZN7testing8internal11MatcherBaseIRKSt6vectorISt4pairIdmESaIS4_EEE12DescribeImplINS9_11ValuePolicyIPKNS_16MatcherInterfaceIS8_EELb1EEEEEvRKS9_PSob, ptr @_ZN7testing8internal11MatcherBaseIRKSt6vectorISt4pairIdmESaIS4_EEE16GetDescriberImplINS9_11ValuePolicyIPKNS_16MatcherInterfaceIS8_EELb1EEEEEPKNS_25MatcherDescriberInterfaceERKS9_, ptr @_ZN7testing8internal13SharedPayloadISt10unique_ptrIKNS_16MatcherInterfaceIRKSt6vectorISt4pairIdmESaIS6_EEEESt14default_deleteISC_EEE7DestroyEPNS0_17SharedPayloadBaseE }, comdat, align 8
@_ZTSSt6vectorISt4pairIdmESaIS1_EE = linkonce_odr dso_local constant [30 x i8] c"St6vectorISt4pairIdmESaIS1_EE\00", comdat, align 1
@_ZTSSt12_Vector_baseISt4pairIdmESaIS1_EE = linkonce_odr dso_local constant [37 x i8] c"St12_Vector_baseISt4pairIdmESaIS1_EE\00", comdat, align 1
@_ZTISt12_Vector_baseISt4pairIdmESaIS1_EE = linkonce_odr dso_local constant { ptr, ptr } { ptr getelementptr inbounds (ptr, ptr @_ZTVN10__cxxabiv117__class_type_infoE, i64 2), ptr @_ZTSSt12_Vector_baseISt4pairIdmESaIS1_EE }, comdat, align 8
@_ZTISt6vectorISt4pairIdmESaIS1_EE = linkonce_odr dso_local constant { ptr, ptr, i32, i32, ptr, i64 } { ptr getelementptr inbounds (ptr, ptr @_ZTVN10__cxxabiv121__vmi_class_type_infoE, i64 2), ptr @_ZTSSt6vectorISt4pairIdmESaIS1_EE, i32 0, i32 1, ptr @_ZTISt12_Vector_baseISt4pairIdmESaIS1_EE, i64 0 }, comdat, align 8
@_ZTVN7testing8internal15TestFactoryImplIN12_GLOBAL__N_146DiscreteDistributionTest_ChiSquaredTest50_TestEEE = internal unnamed_addr constant { [5 x ptr] } { [5 x ptr] [ptr null, ptr @_ZTIN7testing8internal15TestFactoryImplIN12_GLOBAL__N_146DiscreteDistributionTest_ChiSquaredTest50_TestEEE, ptr @_ZN7testing8internal15TestFactoryImplIN12_GLOBAL__N_146DiscreteDistributionTest_ChiSquaredTest50_TestEED2Ev, ptr @_ZN7testing8internal15TestFactoryImplIN12_GLOBAL__N_146DiscreteDistributionTest_ChiSquaredTest50_TestEED0Ev, ptr @_ZN7testing8internal15TestFactoryImplIN12_GLOBAL__N_146DiscreteDistributionTest_ChiSquaredTest50_TestEE10CreateTestEv] }, align 8
@_ZTSN7testing8internal15TestFactoryImplIN12_GLOBAL__N_146DiscreteDistributionTest_ChiSquaredTest50_TestEEE = internal constant [103 x i8] c"N7testing8internal15TestFactoryImplIN12_GLOBAL__N_146DiscreteDistributionTest_ChiSquaredTest50_TestEEE\00", align 1
@_ZTIN7testing8internal15TestFactoryImplIN12_GLOBAL__N_146DiscreteDistributionTest_ChiSquaredTest50_TestEEE = internal constant { ptr, ptr, ptr } { ptr getelementptr inbounds (ptr, ptr @_ZTVN10__cxxabiv120__si_class_type_infoE, i64 2), ptr @_ZTSN7testing8internal15TestFactoryImplIN12_GLOBAL__N_146DiscreteDistributionTest_ChiSquaredTest50_TestEEE, ptr @_ZTIN7testing8internal15TestFactoryBaseE }, align 8
@_ZTVN12_GLOBAL__N_146DiscreteDistributionTest_ChiSquaredTest50_TestE = internal unnamed_addr constant { [8 x ptr] } { [8 x ptr] [ptr null, ptr @_ZTIN12_GLOBAL__N_146DiscreteDistributionTest_ChiSquaredTest50_TestE, ptr @_ZN12_GLOBAL__N_146DiscreteDistributionTest_ChiSquaredTest50_TestD2Ev, ptr @_ZN12_GLOBAL__N_146DiscreteDistributionTest_ChiSquaredTest50_TestD0Ev, ptr @_ZN7testing4Test5SetUpEv, ptr @_ZN7testing4Test8TearDownEv, ptr @_ZN12_GLOBAL__N_146DiscreteDistributionTest_ChiSquaredTest50_Test8TestBodyEv, ptr @_ZN7testing4Test5SetupEv] }, align 8
@_ZTSN12_GLOBAL__N_146DiscreteDistributionTest_ChiSquaredTest50_TestE = internal constant [65 x i8] c"N12_GLOBAL__N_146DiscreteDistributionTest_ChiSquaredTest50_TestE\00", align 1
@_ZTIN12_GLOBAL__N_146DiscreteDistributionTest_ChiSquaredTest50_TestE = internal constant { ptr, ptr, ptr } { ptr getelementptr inbounds (ptr, ptr @_ZTVN10__cxxabiv120__si_class_type_infoE, i64 2), ptr @_ZTSN12_GLOBAL__N_146DiscreteDistributionTest_ChiSquaredTest50_TestE, ptr @_ZTIN7testing4TestE }, align 8
@.str.66 = private unnamed_addr constant [3 x i8] c": \00", align 1
@.str.67 = private unnamed_addr constant [5 x i8] c" vs \00", align 1
@_ZN4absl15random_internalL11kChiSquaredE = internal constant [12 x i8] c"chi-squared\00", align 1
@.str.68 = private unnamed_addr constant [10 x i8] c" p-value \00", align 1
@.str.69 = private unnamed_addr constant [6 x i8] c"High \00", align 1
@.str.70 = private unnamed_addr constant [9 x i8] c" value: \00", align 1
@.str.71 = private unnamed_addr constant [4 x i8] c" > \00", align 1
@.str.72 = private unnamed_addr constant [7 x i8] c"Failed\00", align 1
@_ZTVN7testing8internal15TestFactoryImplIN12_GLOBAL__N_143DiscreteDistributionTest_StabilityTest_TestEEE = internal unnamed_addr constant { [5 x ptr] } { [5 x ptr] [ptr null, ptr @_ZTIN7testing8internal15TestFactoryImplIN12_GLOBAL__N_143DiscreteDistributionTest_StabilityTest_TestEEE, ptr @_ZN7testing8internal15TestFactoryImplIN12_GLOBAL__N_143DiscreteDistributionTest_StabilityTest_TestEED2Ev, ptr @_ZN7testing8internal15TestFactoryImplIN12_GLOBAL__N_143DiscreteDistributionTest_StabilityTest_TestEED0Ev, ptr @_ZN7testing8internal15TestFactoryImplIN12_GLOBAL__N_143DiscreteDistributionTest_StabilityTest_TestEE10CreateTestEv] }, align 8
@_ZTSN7testing8internal15TestFactoryImplIN12_GLOBAL__N_143DiscreteDistributionTest_StabilityTest_TestEEE = internal constant [100 x i8] c"N7testing8internal15TestFactoryImplIN12_GLOBAL__N_143DiscreteDistributionTest_StabilityTest_TestEEE\00", align 1
@_ZTIN7testing8internal15TestFactoryImplIN12_GLOBAL__N_143DiscreteDistributionTest_StabilityTest_TestEEE = internal constant { ptr, ptr, ptr } { ptr getelementptr inbounds (ptr, ptr @_ZTVN10__cxxabiv120__si_class_type_infoE, i64 2), ptr @_ZTSN7testing8internal15TestFactoryImplIN12_GLOBAL__N_143DiscreteDistributionTest_StabilityTest_TestEEE, ptr @_ZTIN7testing8internal15TestFactoryBaseE }, align 8
@_ZTVN12_GLOBAL__N_143DiscreteDistributionTest_StabilityTest_TestE = internal unnamed_addr constant { [8 x ptr] } { [8 x ptr] [ptr null, ptr @_ZTIN12_GLOBAL__N_143DiscreteDistributionTest_StabilityTest_TestE, ptr @_ZN12_GLOBAL__N_143DiscreteDistributionTest_StabilityTest_TestD2Ev, ptr @_ZN12_GLOBAL__N_143DiscreteDistributionTest_StabilityTest_TestD0Ev, ptr @_ZN7testing4Test5SetUpEv, ptr @_ZN7testing4Test8TearDownEv, ptr @_ZN12_GLOBAL__N_143DiscreteDistributionTest_StabilityTest_Test8TestBodyEv, ptr @_ZN7testing4Test5SetupEv] }, align 8
@_ZTSN12_GLOBAL__N_143DiscreteDistributionTest_StabilityTest_TestE = internal constant [62 x i8] c"N12_GLOBAL__N_143DiscreteDistributionTest_StabilityTest_TestE\00", align 1
@_ZTIN12_GLOBAL__N_143DiscreteDistributionTest_StabilityTest_TestE = internal constant { ptr, ptr, ptr } { ptr getelementptr inbounds (ptr, ptr @_ZTVN10__cxxabiv120__si_class_type_infoE, i64 2), ptr @_ZTSN12_GLOBAL__N_143DiscreteDistributionTest_StabilityTest_TestE, ptr @_ZTIN7testing4TestE }, align 8
@constinit.73 = private unnamed_addr constant [12 x i64] [i64 1103321112246101, i64 -13892261315111621, i64 -4381195465716376923, i64 7302623652651702018, i64 3093829652543582084, i64 1522698432631234928, i64 -1378867341430942448, i64 1426700110030552470, i64 231088888557560783, i64 -5371848155695373767, i64 -3053829723811815916, i64 -1239467653804708697], align 8
@.str.77 = private unnamed_addr constant [2 x i8] c"4\00", align 1
@.str.78 = private unnamed_addr constant [11 x i8] c"dist.max()\00", align 1
@.str.79 = private unnamed_addr constant [3 x i8] c"12\00", align 1
@.str.80 = private unnamed_addr constant [19 x i8] c"urbg.invocations()\00", align 1
@.str.81 = private unnamed_addr constant [7 x i8] c"output\00", align 1
@constinit.82 = private unnamed_addr constant [5 x double] [double 1.000000e+00, double 2.000000e+00, double 3.000000e+00, double 5.000000e+00, double 2.000000e+00], align 8
@_ZTVN7testing7MatcherIRKiEE = linkonce_odr dso_local unnamed_addr constant { [6 x ptr] } { [6 x ptr] [ptr null, ptr @_ZTIN7testing7MatcherIRKiEE, ptr @_ZN7testing7MatcherIRKiED2Ev, ptr @_ZN7testing7MatcherIRKiED0Ev, ptr @_ZNK7testing8internal11MatcherBaseIRKiE10DescribeToEPSo, ptr @_ZNK7testing8internal11MatcherBaseIRKiE18DescribeNegationToEPSo] }, comdat, align 8
@_ZTSN7testing7MatcherIRKiEE = linkonce_odr dso_local constant [24 x i8] c"N7testing7MatcherIRKiEE\00", comdat, align 1
@_ZTSN7testing8internal11MatcherBaseIRKiEE = linkonce_odr dso_local constant [38 x i8] c"N7testing8internal11MatcherBaseIRKiEE\00", comdat, align 1
@_ZTIN7testing8internal11MatcherBaseIRKiEE = linkonce_odr dso_local constant { ptr, ptr, i32, i32, ptr, i64 } { ptr getelementptr inbounds (ptr, ptr @_ZTVN10__cxxabiv121__vmi_class_type_infoE, i64 2), ptr @_ZTSN7testing8internal11MatcherBaseIRKiEE, i32 0, i32 1, ptr @_ZTIN7testing25MatcherDescriberInterfaceE, i64 0 }, comdat, align 8
@_ZTIN7testing7MatcherIRKiEE = linkonce_odr dso_local constant { ptr, ptr, ptr } { ptr getelementptr inbounds (ptr, ptr @_ZTVN10__cxxabiv120__si_class_type_infoE, i64 2), ptr @_ZTSN7testing7MatcherIRKiEE, ptr @_ZTIN7testing8internal11MatcherBaseIRKiEE }, comdat, align 8
@_ZTVN7testing8internal11MatcherBaseIRKiEE = linkonce_odr dso_local unnamed_addr constant { [6 x ptr] } { [6 x ptr] [ptr null, ptr @_ZTIN7testing8internal11MatcherBaseIRKiEE, ptr @_ZN7testing8internal11MatcherBaseIRKiED2Ev, ptr @_ZN7testing8internal11MatcherBaseIRKiED0Ev, ptr @_ZNK7testing8internal11MatcherBaseIRKiE10DescribeToEPSo, ptr @_ZNK7testing8internal11MatcherBaseIRKiE18DescribeNegationToEPSo] }, comdat, align 8
@_ZZN7testing8internal11MatcherBaseIRKiE9GetVTableINS4_11ValuePolicyINS0_9EqMatcherIiEELb1EEEEEPKNS4_6VTableEvE7kVTable = linkonce_odr dso_local constant %"struct.testing::internal::MatcherBase<const int &>::VTable" { ptr @_ZN7testing8internal11MatcherBaseIRKiE19MatchAndExplainImplINS4_11ValuePolicyINS0_9EqMatcherIiEELb1EEEEEDTcldtclsrT_3Getfp_E15MatchAndExplainfp0_clptfp1_6streamEEERKS4_S3_PNS_19MatchResultListenerE, ptr @_ZN7testing8internal11MatcherBaseIRKiE12DescribeImplINS4_11ValuePolicyINS0_9EqMatcherIiEELb1EEEEEvRKS4_PSob, ptr @_ZN7testing8internal11MatcherBaseIRKiE16GetDescriberImplINS4_11ValuePolicyINS0_9EqMatcherIiEELb1EEEEEPKNS_25MatcherDescriberInterfaceERKS4_, ptr null }, comdat, align 8
@_ZTVN7testing8internal22ElementsAreMatcherImplIRKSt6vectorIiSaIiEEEE = linkonce_odr dso_local unnamed_addr constant { [7 x ptr] } { [7 x ptr] [ptr null, ptr @_ZTIN7testing8internal22ElementsAreMatcherImplIRKSt6vectorIiSaIiEEEE, ptr @_ZN7testing8internal22ElementsAreMatcherImplIRKSt6vectorIiSaIiEEED2Ev, ptr @_ZN7testing8internal22ElementsAreMatcherImplIRKSt6vectorIiSaIiEEED0Ev, ptr @_ZNK7testing8internal22ElementsAreMatcherImplIRKSt6vectorIiSaIiEEE10DescribeToEPSo, ptr @_ZNK7testing8internal22ElementsAreMatcherImplIRKSt6vectorIiSaIiEEE18DescribeNegationToEPSo, ptr @_ZNK7testing8internal22ElementsAreMatcherImplIRKSt6vectorIiSaIiEEE15MatchAndExplainES6_PNS_19MatchResultListenerE] }, comdat, align 8
@_ZTSN7testing8internal22ElementsAreMatcherImplIRKSt6vectorIiSaIiEEEE = linkonce_odr dso_local constant [65 x i8] c"N7testing8internal22ElementsAreMatcherImplIRKSt6vectorIiSaIiEEEE\00", comdat, align 1
@_ZTSN7testing16MatcherInterfaceIRKSt6vectorIiSaIiEEEE = linkonce_odr dso_local constant [50 x i8] c"N7testing16MatcherInterfaceIRKSt6vectorIiSaIiEEEE\00", comdat, align 1
@_ZTIN7testing16MatcherInterfaceIRKSt6vectorIiSaIiEEEE = linkonce_odr dso_local constant { ptr, ptr, ptr } { ptr getelementptr inbounds (ptr, ptr @_ZTVN10__cxxabiv120__si_class_type_infoE, i64 2), ptr @_ZTSN7testing16MatcherInterfaceIRKSt6vectorIiSaIiEEEE, ptr @_ZTIN7testing25MatcherDescriberInterfaceE }, comdat, align 8
@_ZTIN7testing8internal22ElementsAreMatcherImplIRKSt6vectorIiSaIiEEEE = linkonce_odr dso_local constant { ptr, ptr, ptr } { ptr getelementptr inbounds (ptr, ptr @_ZTVN10__cxxabiv120__si_class_type_infoE, i64 2), ptr @_ZTSN7testing8internal22ElementsAreMatcherImplIRKSt6vectorIiSaIiEEEE, ptr @_ZTIN7testing16MatcherInterfaceIRKSt6vectorIiSaIiEEEE }, comdat, align 8
@_ZTVN7testing7MatcherIRKSt6vectorIiSaIiEEEE = linkonce_odr dso_local unnamed_addr constant { [6 x ptr] } { [6 x ptr] [ptr null, ptr @_ZTIN7testing7MatcherIRKSt6vectorIiSaIiEEEE, ptr @_ZN7testing7MatcherIRKSt6vectorIiSaIiEEED2Ev, ptr @_ZN7testing7MatcherIRKSt6vectorIiSaIiEEED0Ev, ptr @_ZNK7testing8internal11MatcherBaseIRKSt6vectorIiSaIiEEE10DescribeToEPSo, ptr @_ZNK7testing8internal11MatcherBaseIRKSt6vectorIiSaIiEEE18DescribeNegationToEPSo] }, comdat, align 8
@_ZTSN7testing7MatcherIRKSt6vectorIiSaIiEEEE = linkonce_odr dso_local constant [40 x i8] c"N7testing7MatcherIRKSt6vectorIiSaIiEEEE\00", comdat, align 1
@_ZTSN7testing8internal11MatcherBaseIRKSt6vectorIiSaIiEEEE = linkonce_odr dso_local constant [54 x i8] c"N7testing8internal11MatcherBaseIRKSt6vectorIiSaIiEEEE\00", comdat, align 1
@_ZTIN7testing8internal11MatcherBaseIRKSt6vectorIiSaIiEEEE = linkonce_odr dso_local constant { ptr, ptr, i32, i32, ptr, i64 } { ptr getelementptr inbounds (ptr, ptr @_ZTVN10__cxxabiv121__vmi_class_type_infoE, i64 2), ptr @_ZTSN7testing8internal11MatcherBaseIRKSt6vectorIiSaIiEEEE, i32 0, i32 1, ptr @_ZTIN7testing25MatcherDescriberInterfaceE, i64 0 }, comdat, align 8
@_ZTIN7testing7MatcherIRKSt6vectorIiSaIiEEEE = linkonce_odr dso_local constant { ptr, ptr, ptr } { ptr getelementptr inbounds (ptr, ptr @_ZTVN10__cxxabiv120__si_class_type_infoE, i64 2), ptr @_ZTSN7testing7MatcherIRKSt6vectorIiSaIiEEEE, ptr @_ZTIN7testing8internal11MatcherBaseIRKSt6vectorIiSaIiEEEE }, comdat, align 8
@_ZTVN7testing8internal11MatcherBaseIRKSt6vectorIiSaIiEEEE = linkonce_odr dso_local unnamed_addr constant { [6 x ptr] } { [6 x ptr] [ptr null, ptr @_ZTIN7testing8internal11MatcherBaseIRKSt6vectorIiSaIiEEEE, ptr @_ZN7testing8internal11MatcherBaseIRKSt6vectorIiSaIiEEED2Ev, ptr @_ZN7testing8internal11MatcherBaseIRKSt6vectorIiSaIiEEED0Ev, ptr @_ZNK7testing8internal11MatcherBaseIRKSt6vectorIiSaIiEEE10DescribeToEPSo, ptr @_ZNK7testing8internal11MatcherBaseIRKSt6vectorIiSaIiEEE18DescribeNegationToEPSo] }, comdat, align 8
@_ZZN7testing8internal11MatcherBaseIRKSt6vectorIiSaIiEEE9GetVTableINS7_11ValuePolicyIPKNS_16MatcherInterfaceIS6_EELb1EEEEEPKNS7_6VTableEvE7kVTable = linkonce_odr dso_local constant %"struct.testing::internal::MatcherBase<const std::vector<int> &>::VTable" { ptr @_ZN7testing8internal11MatcherBaseIRKSt6vectorIiSaIiEEE19MatchAndExplainImplINS7_11ValuePolicyIPKNS_16MatcherInterfaceIS6_EELb1EEEEEDTcldtclsrT_3Getfp_E15MatchAndExplainfp0_fp1_EERKS7_S6_PNS_19MatchResultListenerE, ptr @_ZN7testing8internal11MatcherBaseIRKSt6vectorIiSaIiEEE12DescribeImplINS7_11ValuePolicyIPKNS_16MatcherInterfaceIS6_EELb1EEEEEvRKS7_PSob, ptr @_ZN7testing8internal11MatcherBaseIRKSt6vectorIiSaIiEEE16GetDescriberImplINS7_11ValuePolicyIPKNS_16MatcherInterfaceIS6_EELb1EEEEEPKNS_25MatcherDescriberInterfaceERKS7_, ptr @_ZN7testing8internal13SharedPayloadISt10unique_ptrIKNS_16MatcherInterfaceIRKSt6vectorIiSaIiEEEESt14default_deleteISA_EEE7DestroyEPNS0_17SharedPayloadBaseE }, comdat, align 8
@_ZTSSt6vectorIiSaIiEE = linkonce_odr dso_local constant [18 x i8] c"St6vectorIiSaIiEE\00", comdat, align 1
@_ZTSSt12_Vector_baseIiSaIiEE = linkonce_odr dso_local constant [25 x i8] c"St12_Vector_baseIiSaIiEE\00", comdat, align 1
@_ZTISt12_Vector_baseIiSaIiEE = linkonce_odr dso_local constant { ptr, ptr } { ptr getelementptr inbounds (ptr, ptr @_ZTVN10__cxxabiv117__class_type_infoE, i64 2), ptr @_ZTSSt12_Vector_baseIiSaIiEE }, comdat, align 8
@_ZTISt6vectorIiSaIiEE = linkonce_odr dso_local constant { ptr, ptr, i32, i32, ptr, i64 } { ptr getelementptr inbounds (ptr, ptr @_ZTVN10__cxxabiv121__vmi_class_type_infoE, i64 2), ptr @_ZTSSt6vectorIiSaIiEE, i32 0, i32 1, ptr @_ZTISt12_Vector_baseIiSaIiEE, i64 0 }, comdat, align 8
@.str.83 = private unnamed_addr constant [50 x i8] c"basic_string: construction from null is not valid\00", align 1
@.str.84 = private unnamed_addr constant [2 x i8] c"/\00", align 1
@_ZTIa = external constant ptr
@_ZN7testing8internal12TypeIdHelperIN12_GLOBAL__N_128DiscreteDistributionTypeTestIaEEE6dummy_E = internal global i8 0, align 1
@.str.85 = private unnamed_addr constant [166 x i8] c"generated/home/dtcxzyw/WorkSpace/Projects/compilers/llvm-opt-benchmark/bench/abseil-cpp/bench_build/googletest-src/googletest/include/gtest/internal/gtest-internal.h\00", align 1
@.str.86 = private unnamed_addr constant [51 x i8] c"Condition !test_case_fp || !test_suite_fp failed. \00", align 1
@.str.87 = private unnamed_addr constant [107 x i8] c"Test can not provide both SetUpTestSuite and SetUpTestCase, please make sure there is only one present at \00", align 1
@.str.88 = private unnamed_addr constant [2 x i8] c":\00", align 1
@.str.89 = private unnamed_addr constant [112 x i8] c"Test can not provide both TearDownTestSuite and TearDownTestCase, please make sure there is only one present at\00", align 1
@_ZTVN7testing8internal15TestFactoryImplIN12_GLOBAL__N_152DiscreteDistributionTypeTest_ParamSerializeTest_TestIaEEEE = internal unnamed_addr constant { [5 x ptr] } { [5 x ptr] [ptr null, ptr @_ZTIN7testing8internal15TestFactoryImplIN12_GLOBAL__N_152DiscreteDistributionTypeTest_ParamSerializeTest_TestIaEEEE, ptr @_ZN7testing8internal15TestFactoryImplIN12_GLOBAL__N_152DiscreteDistributionTypeTest_ParamSerializeTest_TestIaEEED2Ev, ptr @_ZN7testing8internal15TestFactoryImplIN12_GLOBAL__N_152DiscreteDistributionTypeTest_ParamSerializeTest_TestIaEEED0Ev, ptr @_ZN7testing8internal15TestFactoryImplIN12_GLOBAL__N_152DiscreteDistributionTypeTest_ParamSerializeTest_TestIaEEE10CreateTestEv] }, align 8
@_ZTSN7testing8internal15TestFactoryImplIN12_GLOBAL__N_152DiscreteDistributionTypeTest_ParamSerializeTest_TestIaEEEE = internal constant [112 x i8] c"N7testing8internal15TestFactoryImplIN12_GLOBAL__N_152DiscreteDistributionTypeTest_ParamSerializeTest_TestIaEEEE\00", align 1
@_ZTIN7testing8internal15TestFactoryImplIN12_GLOBAL__N_152DiscreteDistributionTypeTest_ParamSerializeTest_TestIaEEEE = internal constant { ptr, ptr, ptr } { ptr getelementptr inbounds (ptr, ptr @_ZTVN10__cxxabiv120__si_class_type_infoE, i64 2), ptr @_ZTSN7testing8internal15TestFactoryImplIN12_GLOBAL__N_152DiscreteDistributionTypeTest_ParamSerializeTest_TestIaEEEE, ptr @_ZTIN7testing8internal15TestFactoryBaseE }, align 8
@_ZTVN12_GLOBAL__N_152DiscreteDistributionTypeTest_ParamSerializeTest_TestIaEE = internal unnamed_addr constant { [8 x ptr] } { [8 x ptr] [ptr null, ptr @_ZTIN12_GLOBAL__N_152DiscreteDistributionTypeTest_ParamSerializeTest_TestIaEE, ptr @_ZN12_GLOBAL__N_152DiscreteDistributionTypeTest_ParamSerializeTest_TestIaED2Ev, ptr @_ZN12_GLOBAL__N_152DiscreteDistributionTypeTest_ParamSerializeTest_TestIaED0Ev, ptr @_ZN7testing4Test5SetUpEv, ptr @_ZN7testing4Test8TearDownEv, ptr @_ZN12_GLOBAL__N_152DiscreteDistributionTypeTest_ParamSerializeTest_TestIaE8TestBodyEv, ptr @_ZN7testing4Test5SetupEv] }, align 8
@_ZTSN12_GLOBAL__N_152DiscreteDistributionTypeTest_ParamSerializeTest_TestIaEE = internal constant [74 x i8] c"N12_GLOBAL__N_152DiscreteDistributionTypeTest_ParamSerializeTest_TestIaEE\00", align 1
@_ZTSN12_GLOBAL__N_128DiscreteDistributionTypeTestIaEE = internal constant [50 x i8] c"N12_GLOBAL__N_128DiscreteDistributionTypeTestIaEE\00", align 1
@_ZTIN12_GLOBAL__N_128DiscreteDistributionTypeTestIaEE = internal constant { ptr, ptr, ptr } { ptr getelementptr inbounds (ptr, ptr @_ZTVN10__cxxabiv120__si_class_type_infoE, i64 2), ptr @_ZTSN12_GLOBAL__N_128DiscreteDistributionTypeTestIaEE, ptr @_ZTIN7testing4TestE }, align 8
@_ZTIN12_GLOBAL__N_152DiscreteDistributionTypeTest_ParamSerializeTest_TestIaEE = internal constant { ptr, ptr, ptr } { ptr getelementptr inbounds (ptr, ptr @_ZTVN10__cxxabiv120__si_class_type_infoE, i64 2), ptr @_ZTSN12_GLOBAL__N_152DiscreteDistributionTypeTest_ParamSerializeTest_TestIaEE, ptr @_ZTIN12_GLOBAL__N_128DiscreteDistributionTypeTestIaEE }, align 8
@.str.90 = private unnamed_addr constant [22 x i8] c"empty.probabilities()\00", align 1
@.str.92 = private unnamed_addr constant [2 x i8] c"s\00", align 1
@.str.93 = private unnamed_addr constant [4 x i8] c"1.0\00", align 1
@.str.94 = private unnamed_addr constant [23 x i8] c"before.probabilities()\00", align 1
@.str.96 = private unnamed_addr constant [10 x i8] c"via_param\00", align 1
@.str.97 = private unnamed_addr constant [7 x i8] c"before\00", align 1
@.str.98 = private unnamed_addr constant [6 x i8] c"after\00", align 1
@.str.99 = private unnamed_addr constant [3 x i8] c"!=\00", align 1
@.str.100 = private unnamed_addr constant [12 x i8] c"Expected: (\00", align 1
@.str.101 = private unnamed_addr constant [3 x i8] c") \00", align 1
@.str.102 = private unnamed_addr constant [3 x i8] c" (\00", align 1
@.str.103 = private unnamed_addr constant [12 x i8] c"), actual: \00", align 1
@_ZTIh = external constant ptr
@_ZN7testing8internal12TypeIdHelperIN12_GLOBAL__N_128DiscreteDistributionTypeTestIhEEE6dummy_E = internal global i8 0, align 1
@_ZTVN7testing8internal15TestFactoryImplIN12_GLOBAL__N_152DiscreteDistributionTypeTest_ParamSerializeTest_TestIhEEEE = internal unnamed_addr constant { [5 x ptr] } { [5 x ptr] [ptr null, ptr @_ZTIN7testing8internal15TestFactoryImplIN12_GLOBAL__N_152DiscreteDistributionTypeTest_ParamSerializeTest_TestIhEEEE, ptr @_ZN7testing8internal15TestFactoryImplIN12_GLOBAL__N_152DiscreteDistributionTypeTest_ParamSerializeTest_TestIhEEED2Ev, ptr @_ZN7testing8internal15TestFactoryImplIN12_GLOBAL__N_152DiscreteDistributionTypeTest_ParamSerializeTest_TestIhEEED0Ev, ptr @_ZN7testing8internal15TestFactoryImplIN12_GLOBAL__N_152DiscreteDistributionTypeTest_ParamSerializeTest_TestIhEEE10CreateTestEv] }, align 8
@_ZTSN7testing8internal15TestFactoryImplIN12_GLOBAL__N_152DiscreteDistributionTypeTest_ParamSerializeTest_TestIhEEEE = internal constant [112 x i8] c"N7testing8internal15TestFactoryImplIN12_GLOBAL__N_152DiscreteDistributionTypeTest_ParamSerializeTest_TestIhEEEE\00", align 1
@_ZTIN7testing8internal15TestFactoryImplIN12_GLOBAL__N_152DiscreteDistributionTypeTest_ParamSerializeTest_TestIhEEEE = internal constant { ptr, ptr, ptr } { ptr getelementptr inbounds (ptr, ptr @_ZTVN10__cxxabiv120__si_class_type_infoE, i64 2), ptr @_ZTSN7testing8internal15TestFactoryImplIN12_GLOBAL__N_152DiscreteDistributionTypeTest_ParamSerializeTest_TestIhEEEE, ptr @_ZTIN7testing8internal15TestFactoryBaseE }, align 8
@_ZTVN12_GLOBAL__N_152DiscreteDistributionTypeTest_ParamSerializeTest_TestIhEE = internal unnamed_addr constant { [8 x ptr] } { [8 x ptr] [ptr null, ptr @_ZTIN12_GLOBAL__N_152DiscreteDistributionTypeTest_ParamSerializeTest_TestIhEE, ptr @_ZN12_GLOBAL__N_152DiscreteDistributionTypeTest_ParamSerializeTest_TestIhED2Ev, ptr @_ZN12_GLOBAL__N_152DiscreteDistributionTypeTest_ParamSerializeTest_TestIhED0Ev, ptr @_ZN7testing4Test5SetUpEv, ptr @_ZN7testing4Test8TearDownEv, ptr @_ZN12_GLOBAL__N_152DiscreteDistributionTypeTest_ParamSerializeTest_TestIhE8TestBodyEv, ptr @_ZN7testing4Test5SetupEv] }, align 8
@_ZTSN12_GLOBAL__N_152DiscreteDistributionTypeTest_ParamSerializeTest_TestIhEE = internal constant [74 x i8] c"N12_GLOBAL__N_152DiscreteDistributionTypeTest_ParamSerializeTest_TestIhEE\00", align 1
@_ZTSN12_GLOBAL__N_128DiscreteDistributionTypeTestIhEE = internal constant [50 x i8] c"N12_GLOBAL__N_128DiscreteDistributionTypeTestIhEE\00", align 1
@_ZTIN12_GLOBAL__N_128DiscreteDistributionTypeTestIhEE = internal constant { ptr, ptr, ptr } { ptr getelementptr inbounds (ptr, ptr @_ZTVN10__cxxabiv120__si_class_type_infoE, i64 2), ptr @_ZTSN12_GLOBAL__N_128DiscreteDistributionTypeTestIhEE, ptr @_ZTIN7testing4TestE }, align 8
@_ZTIN12_GLOBAL__N_152DiscreteDistributionTypeTest_ParamSerializeTest_TestIhEE = internal constant { ptr, ptr, ptr } { ptr getelementptr inbounds (ptr, ptr @_ZTVN10__cxxabiv120__si_class_type_infoE, i64 2), ptr @_ZTSN12_GLOBAL__N_152DiscreteDistributionTypeTest_ParamSerializeTest_TestIhEE, ptr @_ZTIN12_GLOBAL__N_128DiscreteDistributionTypeTestIhEE }, align 8
@_ZTIs = external constant ptr
@_ZN7testing8internal12TypeIdHelperIN12_GLOBAL__N_128DiscreteDistributionTypeTestIsEEE6dummy_E = internal global i8 0, align 1
@_ZTVN7testing8internal15TestFactoryImplIN12_GLOBAL__N_152DiscreteDistributionTypeTest_ParamSerializeTest_TestIsEEEE = internal unnamed_addr constant { [5 x ptr] } { [5 x ptr] [ptr null, ptr @_ZTIN7testing8internal15TestFactoryImplIN12_GLOBAL__N_152DiscreteDistributionTypeTest_ParamSerializeTest_TestIsEEEE, ptr @_ZN7testing8internal15TestFactoryImplIN12_GLOBAL__N_152DiscreteDistributionTypeTest_ParamSerializeTest_TestIsEEED2Ev, ptr @_ZN7testing8internal15TestFactoryImplIN12_GLOBAL__N_152DiscreteDistributionTypeTest_ParamSerializeTest_TestIsEEED0Ev, ptr @_ZN7testing8internal15TestFactoryImplIN12_GLOBAL__N_152DiscreteDistributionTypeTest_ParamSerializeTest_TestIsEEE10CreateTestEv] }, align 8
@_ZTSN7testing8internal15TestFactoryImplIN12_GLOBAL__N_152DiscreteDistributionTypeTest_ParamSerializeTest_TestIsEEEE = internal constant [112 x i8] c"N7testing8internal15TestFactoryImplIN12_GLOBAL__N_152DiscreteDistributionTypeTest_ParamSerializeTest_TestIsEEEE\00", align 1
@_ZTIN7testing8internal15TestFactoryImplIN12_GLOBAL__N_152DiscreteDistributionTypeTest_ParamSerializeTest_TestIsEEEE = internal constant { ptr, ptr, ptr } { ptr getelementptr inbounds (ptr, ptr @_ZTVN10__cxxabiv120__si_class_type_infoE, i64 2), ptr @_ZTSN7testing8internal15TestFactoryImplIN12_GLOBAL__N_152DiscreteDistributionTypeTest_ParamSerializeTest_TestIsEEEE, ptr @_ZTIN7testing8internal15TestFactoryBaseE }, align 8
@_ZTVN12_GLOBAL__N_152DiscreteDistributionTypeTest_ParamSerializeTest_TestIsEE = internal unnamed_addr constant { [8 x ptr] } { [8 x ptr] [ptr null, ptr @_ZTIN12_GLOBAL__N_152DiscreteDistributionTypeTest_ParamSerializeTest_TestIsEE, ptr @_ZN12_GLOBAL__N_152DiscreteDistributionTypeTest_ParamSerializeTest_TestIsED2Ev, ptr @_ZN12_GLOBAL__N_152DiscreteDistributionTypeTest_ParamSerializeTest_TestIsED0Ev, ptr @_ZN7testing4Test5SetUpEv, ptr @_ZN7testing4Test8TearDownEv, ptr @_ZN12_GLOBAL__N_152DiscreteDistributionTypeTest_ParamSerializeTest_TestIsE8TestBodyEv, ptr @_ZN7testing4Test5SetupEv] }, align 8
@_ZTSN12_GLOBAL__N_152DiscreteDistributionTypeTest_ParamSerializeTest_TestIsEE = internal constant [74 x i8] c"N12_GLOBAL__N_152DiscreteDistributionTypeTest_ParamSerializeTest_TestIsEE\00", align 1
@_ZTSN12_GLOBAL__N_128DiscreteDistributionTypeTestIsEE = internal constant [50 x i8] c"N12_GLOBAL__N_128DiscreteDistributionTypeTestIsEE\00", align 1
@_ZTIN12_GLOBAL__N_128DiscreteDistributionTypeTestIsEE = internal constant { ptr, ptr, ptr } { ptr getelementptr inbounds (ptr, ptr @_ZTVN10__cxxabiv120__si_class_type_infoE, i64 2), ptr @_ZTSN12_GLOBAL__N_128DiscreteDistributionTypeTestIsEE, ptr @_ZTIN7testing4TestE }, align 8
@_ZTIN12_GLOBAL__N_152DiscreteDistributionTypeTest_ParamSerializeTest_TestIsEE = internal constant { ptr, ptr, ptr } { ptr getelementptr inbounds (ptr, ptr @_ZTVN10__cxxabiv120__si_class_type_infoE, i64 2), ptr @_ZTSN12_GLOBAL__N_152DiscreteDistributionTypeTest_ParamSerializeTest_TestIsEE, ptr @_ZTIN12_GLOBAL__N_128DiscreteDistributionTypeTestIsEE }, align 8
@_ZTIt = external constant ptr
@_ZN7testing8internal12TypeIdHelperIN12_GLOBAL__N_128DiscreteDistributionTypeTestItEEE6dummy_E = internal global i8 0, align 1
@_ZTVN7testing8internal15TestFactoryImplIN12_GLOBAL__N_152DiscreteDistributionTypeTest_ParamSerializeTest_TestItEEEE = internal unnamed_addr constant { [5 x ptr] } { [5 x ptr] [ptr null, ptr @_ZTIN7testing8internal15TestFactoryImplIN12_GLOBAL__N_152DiscreteDistributionTypeTest_ParamSerializeTest_TestItEEEE, ptr @_ZN7testing8internal15TestFactoryImplIN12_GLOBAL__N_152DiscreteDistributionTypeTest_ParamSerializeTest_TestItEEED2Ev, ptr @_ZN7testing8internal15TestFactoryImplIN12_GLOBAL__N_152DiscreteDistributionTypeTest_ParamSerializeTest_TestItEEED0Ev, ptr @_ZN7testing8internal15TestFactoryImplIN12_GLOBAL__N_152DiscreteDistributionTypeTest_ParamSerializeTest_TestItEEE10CreateTestEv] }, align 8
@_ZTSN7testing8internal15TestFactoryImplIN12_GLOBAL__N_152DiscreteDistributionTypeTest_ParamSerializeTest_TestItEEEE = internal constant [112 x i8] c"N7testing8internal15TestFactoryImplIN12_GLOBAL__N_152DiscreteDistributionTypeTest_ParamSerializeTest_TestItEEEE\00", align 1
@_ZTIN7testing8internal15TestFactoryImplIN12_GLOBAL__N_152DiscreteDistributionTypeTest_ParamSerializeTest_TestItEEEE = internal constant { ptr, ptr, ptr } { ptr getelementptr inbounds (ptr, ptr @_ZTVN10__cxxabiv120__si_class_type_infoE, i64 2), ptr @_ZTSN7testing8internal15TestFactoryImplIN12_GLOBAL__N_152DiscreteDistributionTypeTest_ParamSerializeTest_TestItEEEE, ptr @_ZTIN7testing8internal15TestFactoryBaseE }, align 8
@_ZTVN12_GLOBAL__N_152DiscreteDistributionTypeTest_ParamSerializeTest_TestItEE = internal unnamed_addr constant { [8 x ptr] } { [8 x ptr] [ptr null, ptr @_ZTIN12_GLOBAL__N_152DiscreteDistributionTypeTest_ParamSerializeTest_TestItEE, ptr @_ZN12_GLOBAL__N_152DiscreteDistributionTypeTest_ParamSerializeTest_TestItED2Ev, ptr @_ZN12_GLOBAL__N_152DiscreteDistributionTypeTest_ParamSerializeTest_TestItED0Ev, ptr @_ZN7testing4Test5SetUpEv, ptr @_ZN7testing4Test8TearDownEv, ptr @_ZN12_GLOBAL__N_152DiscreteDistributionTypeTest_ParamSerializeTest_TestItE8TestBodyEv, ptr @_ZN7testing4Test5SetupEv] }, align 8
@_ZTSN12_GLOBAL__N_152DiscreteDistributionTypeTest_ParamSerializeTest_TestItEE = internal constant [74 x i8] c"N12_GLOBAL__N_152DiscreteDistributionTypeTest_ParamSerializeTest_TestItEE\00", align 1
@_ZTSN12_GLOBAL__N_128DiscreteDistributionTypeTestItEE = internal constant [50 x i8] c"N12_GLOBAL__N_128DiscreteDistributionTypeTestItEE\00", align 1
@_ZTIN12_GLOBAL__N_128DiscreteDistributionTypeTestItEE = internal constant { ptr, ptr, ptr } { ptr getelementptr inbounds (ptr, ptr @_ZTVN10__cxxabiv120__si_class_type_infoE, i64 2), ptr @_ZTSN12_GLOBAL__N_128DiscreteDistributionTypeTestItEE, ptr @_ZTIN7testing4TestE }, align 8
@_ZTIN12_GLOBAL__N_152DiscreteDistributionTypeTest_ParamSerializeTest_TestItEE = internal constant { ptr, ptr, ptr } { ptr getelementptr inbounds (ptr, ptr @_ZTVN10__cxxabiv120__si_class_type_infoE, i64 2), ptr @_ZTSN12_GLOBAL__N_152DiscreteDistributionTypeTest_ParamSerializeTest_TestItEE, ptr @_ZTIN12_GLOBAL__N_128DiscreteDistributionTypeTestItEE }, align 8
@_ZTIi = external constant ptr
@_ZN7testing8internal12TypeIdHelperIN12_GLOBAL__N_128DiscreteDistributionTypeTestIiEEE6dummy_E = internal global i8 0, align 1
@_ZTVN7testing8internal15TestFactoryImplIN12_GLOBAL__N_152DiscreteDistributionTypeTest_ParamSerializeTest_TestIiEEEE = internal unnamed_addr constant { [5 x ptr] } { [5 x ptr] [ptr null, ptr @_ZTIN7testing8internal15TestFactoryImplIN12_GLOBAL__N_152DiscreteDistributionTypeTest_ParamSerializeTest_TestIiEEEE, ptr @_ZN7testing8internal15TestFactoryImplIN12_GLOBAL__N_152DiscreteDistributionTypeTest_ParamSerializeTest_TestIiEEED2Ev, ptr @_ZN7testing8internal15TestFactoryImplIN12_GLOBAL__N_152DiscreteDistributionTypeTest_ParamSerializeTest_TestIiEEED0Ev, ptr @_ZN7testing8internal15TestFactoryImplIN12_GLOBAL__N_152DiscreteDistributionTypeTest_ParamSerializeTest_TestIiEEE10CreateTestEv] }, align 8
@_ZTSN7testing8internal15TestFactoryImplIN12_GLOBAL__N_152DiscreteDistributionTypeTest_ParamSerializeTest_TestIiEEEE = internal constant [112 x i8] c"N7testing8internal15TestFactoryImplIN12_GLOBAL__N_152DiscreteDistributionTypeTest_ParamSerializeTest_TestIiEEEE\00", align 1
@_ZTIN7testing8internal15TestFactoryImplIN12_GLOBAL__N_152DiscreteDistributionTypeTest_ParamSerializeTest_TestIiEEEE = internal constant { ptr, ptr, ptr } { ptr getelementptr inbounds (ptr, ptr @_ZTVN10__cxxabiv120__si_class_type_infoE, i64 2), ptr @_ZTSN7testing8internal15TestFactoryImplIN12_GLOBAL__N_152DiscreteDistributionTypeTest_ParamSerializeTest_TestIiEEEE, ptr @_ZTIN7testing8internal15TestFactoryBaseE }, align 8
@_ZTVN12_GLOBAL__N_152DiscreteDistributionTypeTest_ParamSerializeTest_TestIiEE = internal unnamed_addr constant { [8 x ptr] } { [8 x ptr] [ptr null, ptr @_ZTIN12_GLOBAL__N_152DiscreteDistributionTypeTest_ParamSerializeTest_TestIiEE, ptr @_ZN12_GLOBAL__N_152DiscreteDistributionTypeTest_ParamSerializeTest_TestIiED2Ev, ptr @_ZN12_GLOBAL__N_152DiscreteDistributionTypeTest_ParamSerializeTest_TestIiED0Ev, ptr @_ZN7testing4Test5SetUpEv, ptr @_ZN7testing4Test8TearDownEv, ptr @_ZN12_GLOBAL__N_152DiscreteDistributionTypeTest_ParamSerializeTest_TestIiE8TestBodyEv, ptr @_ZN7testing4Test5SetupEv] }, align 8
@_ZTSN12_GLOBAL__N_152DiscreteDistributionTypeTest_ParamSerializeTest_TestIiEE = internal constant [74 x i8] c"N12_GLOBAL__N_152DiscreteDistributionTypeTest_ParamSerializeTest_TestIiEE\00", align 1
@_ZTSN12_GLOBAL__N_128DiscreteDistributionTypeTestIiEE = internal constant [50 x i8] c"N12_GLOBAL__N_128DiscreteDistributionTypeTestIiEE\00", align 1
@_ZTIN12_GLOBAL__N_128DiscreteDistributionTypeTestIiEE = internal constant { ptr, ptr, ptr } { ptr getelementptr inbounds (ptr, ptr @_ZTVN10__cxxabiv120__si_class_type_infoE, i64 2), ptr @_ZTSN12_GLOBAL__N_128DiscreteDistributionTypeTestIiEE, ptr @_ZTIN7testing4TestE }, align 8
@_ZTIN12_GLOBAL__N_152DiscreteDistributionTypeTest_ParamSerializeTest_TestIiEE = internal constant { ptr, ptr, ptr } { ptr getelementptr inbounds (ptr, ptr @_ZTVN10__cxxabiv120__si_class_type_infoE, i64 2), ptr @_ZTSN12_GLOBAL__N_152DiscreteDistributionTypeTest_ParamSerializeTest_TestIiEE, ptr @_ZTIN12_GLOBAL__N_128DiscreteDistributionTypeTestIiEE }, align 8
@_ZTIj = external constant ptr
@_ZN7testing8internal12TypeIdHelperIN12_GLOBAL__N_128DiscreteDistributionTypeTestIjEEE6dummy_E = internal global i8 0, align 1
@_ZTVN7testing8internal15TestFactoryImplIN12_GLOBAL__N_152DiscreteDistributionTypeTest_ParamSerializeTest_TestIjEEEE = internal unnamed_addr constant { [5 x ptr] } { [5 x ptr] [ptr null, ptr @_ZTIN7testing8internal15TestFactoryImplIN12_GLOBAL__N_152DiscreteDistributionTypeTest_ParamSerializeTest_TestIjEEEE, ptr @_ZN7testing8internal15TestFactoryImplIN12_GLOBAL__N_152DiscreteDistributionTypeTest_ParamSerializeTest_TestIjEEED2Ev, ptr @_ZN7testing8internal15TestFactoryImplIN12_GLOBAL__N_152DiscreteDistributionTypeTest_ParamSerializeTest_TestIjEEED0Ev, ptr @_ZN7testing8internal15TestFactoryImplIN12_GLOBAL__N_152DiscreteDistributionTypeTest_ParamSerializeTest_TestIjEEE10CreateTestEv] }, align 8
@_ZTSN7testing8internal15TestFactoryImplIN12_GLOBAL__N_152DiscreteDistributionTypeTest_ParamSerializeTest_TestIjEEEE = internal constant [112 x i8] c"N7testing8internal15TestFactoryImplIN12_GLOBAL__N_152DiscreteDistributionTypeTest_ParamSerializeTest_TestIjEEEE\00", align 1
@_ZTIN7testing8internal15TestFactoryImplIN12_GLOBAL__N_152DiscreteDistributionTypeTest_ParamSerializeTest_TestIjEEEE = internal constant { ptr, ptr, ptr } { ptr getelementptr inbounds (ptr, ptr @_ZTVN10__cxxabiv120__si_class_type_infoE, i64 2), ptr @_ZTSN7testing8internal15TestFactoryImplIN12_GLOBAL__N_152DiscreteDistributionTypeTest_ParamSerializeTest_TestIjEEEE, ptr @_ZTIN7testing8internal15TestFactoryBaseE }, align 8
@_ZTVN12_GLOBAL__N_152DiscreteDistributionTypeTest_ParamSerializeTest_TestIjEE = internal unnamed_addr constant { [8 x ptr] } { [8 x ptr] [ptr null, ptr @_ZTIN12_GLOBAL__N_152DiscreteDistributionTypeTest_ParamSerializeTest_TestIjEE, ptr @_ZN12_GLOBAL__N_152DiscreteDistributionTypeTest_ParamSerializeTest_TestIjED2Ev, ptr @_ZN12_GLOBAL__N_152DiscreteDistributionTypeTest_ParamSerializeTest_TestIjED0Ev, ptr @_ZN7testing4Test5SetUpEv, ptr @_ZN7testing4Test8TearDownEv, ptr @_ZN12_GLOBAL__N_152DiscreteDistributionTypeTest_ParamSerializeTest_TestIjE8TestBodyEv, ptr @_ZN7testing4Test5SetupEv] }, align 8
@_ZTSN12_GLOBAL__N_152DiscreteDistributionTypeTest_ParamSerializeTest_TestIjEE = internal constant [74 x i8] c"N12_GLOBAL__N_152DiscreteDistributionTypeTest_ParamSerializeTest_TestIjEE\00", align 1
@_ZTSN12_GLOBAL__N_128DiscreteDistributionTypeTestIjEE = internal constant [50 x i8] c"N12_GLOBAL__N_128DiscreteDistributionTypeTestIjEE\00", align 1
@_ZTIN12_GLOBAL__N_128DiscreteDistributionTypeTestIjEE = internal constant { ptr, ptr, ptr } { ptr getelementptr inbounds (ptr, ptr @_ZTVN10__cxxabiv120__si_class_type_infoE, i64 2), ptr @_ZTSN12_GLOBAL__N_128DiscreteDistributionTypeTestIjEE, ptr @_ZTIN7testing4TestE }, align 8
@_ZTIN12_GLOBAL__N_152DiscreteDistributionTypeTest_ParamSerializeTest_TestIjEE = internal constant { ptr, ptr, ptr } { ptr getelementptr inbounds (ptr, ptr @_ZTVN10__cxxabiv120__si_class_type_infoE, i64 2), ptr @_ZTSN12_GLOBAL__N_152DiscreteDistributionTypeTest_ParamSerializeTest_TestIjEE, ptr @_ZTIN12_GLOBAL__N_128DiscreteDistributionTypeTestIjEE }, align 8
@_ZTIl = external constant ptr
@_ZN7testing8internal12TypeIdHelperIN12_GLOBAL__N_128DiscreteDistributionTypeTestIlEEE6dummy_E = internal global i8 0, align 1
@_ZTVN7testing8internal15TestFactoryImplIN12_GLOBAL__N_152DiscreteDistributionTypeTest_ParamSerializeTest_TestIlEEEE = internal unnamed_addr constant { [5 x ptr] } { [5 x ptr] [ptr null, ptr @_ZTIN7testing8internal15TestFactoryImplIN12_GLOBAL__N_152DiscreteDistributionTypeTest_ParamSerializeTest_TestIlEEEE, ptr @_ZN7testing8internal15TestFactoryImplIN12_GLOBAL__N_152DiscreteDistributionTypeTest_ParamSerializeTest_TestIlEEED2Ev, ptr @_ZN7testing8internal15TestFactoryImplIN12_GLOBAL__N_152DiscreteDistributionTypeTest_ParamSerializeTest_TestIlEEED0Ev, ptr @_ZN7testing8internal15TestFactoryImplIN12_GLOBAL__N_152DiscreteDistributionTypeTest_ParamSerializeTest_TestIlEEE10CreateTestEv] }, align 8
@_ZTSN7testing8internal15TestFactoryImplIN12_GLOBAL__N_152DiscreteDistributionTypeTest_ParamSerializeTest_TestIlEEEE = internal constant [112 x i8] c"N7testing8internal15TestFactoryImplIN12_GLOBAL__N_152DiscreteDistributionTypeTest_ParamSerializeTest_TestIlEEEE\00", align 1
@_ZTIN7testing8internal15TestFactoryImplIN12_GLOBAL__N_152DiscreteDistributionTypeTest_ParamSerializeTest_TestIlEEEE = internal constant { ptr, ptr, ptr } { ptr getelementptr inbounds (ptr, ptr @_ZTVN10__cxxabiv120__si_class_type_infoE, i64 2), ptr @_ZTSN7testing8internal15TestFactoryImplIN12_GLOBAL__N_152DiscreteDistributionTypeTest_ParamSerializeTest_TestIlEEEE, ptr @_ZTIN7testing8internal15TestFactoryBaseE }, align 8
@_ZTVN12_GLOBAL__N_152DiscreteDistributionTypeTest_ParamSerializeTest_TestIlEE = internal unnamed_addr constant { [8 x ptr] } { [8 x ptr] [ptr null, ptr @_ZTIN12_GLOBAL__N_152DiscreteDistributionTypeTest_ParamSerializeTest_TestIlEE, ptr @_ZN12_GLOBAL__N_152DiscreteDistributionTypeTest_ParamSerializeTest_TestIlED2Ev, ptr @_ZN12_GLOBAL__N_152DiscreteDistributionTypeTest_ParamSerializeTest_TestIlED0Ev, ptr @_ZN7testing4Test5SetUpEv, ptr @_ZN7testing4Test8TearDownEv, ptr @_ZN12_GLOBAL__N_152DiscreteDistributionTypeTest_ParamSerializeTest_TestIlE8TestBodyEv, ptr @_ZN7testing4Test5SetupEv] }, align 8
@_ZTSN12_GLOBAL__N_152DiscreteDistributionTypeTest_ParamSerializeTest_TestIlEE = internal constant [74 x i8] c"N12_GLOBAL__N_152DiscreteDistributionTypeTest_ParamSerializeTest_TestIlEE\00", align 1
@_ZTSN12_GLOBAL__N_128DiscreteDistributionTypeTestIlEE = internal constant [50 x i8] c"N12_GLOBAL__N_128DiscreteDistributionTypeTestIlEE\00", align 1
@_ZTIN12_GLOBAL__N_128DiscreteDistributionTypeTestIlEE = internal constant { ptr, ptr, ptr } { ptr getelementptr inbounds (ptr, ptr @_ZTVN10__cxxabiv120__si_class_type_infoE, i64 2), ptr @_ZTSN12_GLOBAL__N_128DiscreteDistributionTypeTestIlEE, ptr @_ZTIN7testing4TestE }, align 8
@_ZTIN12_GLOBAL__N_152DiscreteDistributionTypeTest_ParamSerializeTest_TestIlEE = internal constant { ptr, ptr, ptr } { ptr getelementptr inbounds (ptr, ptr @_ZTVN10__cxxabiv120__si_class_type_infoE, i64 2), ptr @_ZTSN12_GLOBAL__N_152DiscreteDistributionTypeTest_ParamSerializeTest_TestIlEE, ptr @_ZTIN12_GLOBAL__N_128DiscreteDistributionTypeTestIlEE }, align 8
@_ZTIm = external constant ptr
@_ZN7testing8internal12TypeIdHelperIN12_GLOBAL__N_128DiscreteDistributionTypeTestImEEE6dummy_E = internal global i8 0, align 1
@_ZTVN7testing8internal15TestFactoryImplIN12_GLOBAL__N_152DiscreteDistributionTypeTest_ParamSerializeTest_TestImEEEE = internal unnamed_addr constant { [5 x ptr] } { [5 x ptr] [ptr null, ptr @_ZTIN7testing8internal15TestFactoryImplIN12_GLOBAL__N_152DiscreteDistributionTypeTest_ParamSerializeTest_TestImEEEE, ptr @_ZN7testing8internal15TestFactoryImplIN12_GLOBAL__N_152DiscreteDistributionTypeTest_ParamSerializeTest_TestImEEED2Ev, ptr @_ZN7testing8internal15TestFactoryImplIN12_GLOBAL__N_152DiscreteDistributionTypeTest_ParamSerializeTest_TestImEEED0Ev, ptr @_ZN7testing8internal15TestFactoryImplIN12_GLOBAL__N_152DiscreteDistributionTypeTest_ParamSerializeTest_TestImEEE10CreateTestEv] }, align 8
@_ZTSN7testing8internal15TestFactoryImplIN12_GLOBAL__N_152DiscreteDistributionTypeTest_ParamSerializeTest_TestImEEEE = internal constant [112 x i8] c"N7testing8internal15TestFactoryImplIN12_GLOBAL__N_152DiscreteDistributionTypeTest_ParamSerializeTest_TestImEEEE\00", align 1
@_ZTIN7testing8internal15TestFactoryImplIN12_GLOBAL__N_152DiscreteDistributionTypeTest_ParamSerializeTest_TestImEEEE = internal constant { ptr, ptr, ptr } { ptr getelementptr inbounds (ptr, ptr @_ZTVN10__cxxabiv120__si_class_type_infoE, i64 2), ptr @_ZTSN7testing8internal15TestFactoryImplIN12_GLOBAL__N_152DiscreteDistributionTypeTest_ParamSerializeTest_TestImEEEE, ptr @_ZTIN7testing8internal15TestFactoryBaseE }, align 8
@_ZTVN12_GLOBAL__N_152DiscreteDistributionTypeTest_ParamSerializeTest_TestImEE = internal unnamed_addr constant { [8 x ptr] } { [8 x ptr] [ptr null, ptr @_ZTIN12_GLOBAL__N_152DiscreteDistributionTypeTest_ParamSerializeTest_TestImEE, ptr @_ZN12_GLOBAL__N_152DiscreteDistributionTypeTest_ParamSerializeTest_TestImED2Ev, ptr @_ZN12_GLOBAL__N_152DiscreteDistributionTypeTest_ParamSerializeTest_TestImED0Ev, ptr @_ZN7testing4Test5SetUpEv, ptr @_ZN7testing4Test8TearDownEv, ptr @_ZN12_GLOBAL__N_152DiscreteDistributionTypeTest_ParamSerializeTest_TestImE8TestBodyEv, ptr @_ZN7testing4Test5SetupEv] }, align 8
@_ZTSN12_GLOBAL__N_152DiscreteDistributionTypeTest_ParamSerializeTest_TestImEE = internal constant [74 x i8] c"N12_GLOBAL__N_152DiscreteDistributionTypeTest_ParamSerializeTest_TestImEE\00", align 1
@_ZTSN12_GLOBAL__N_128DiscreteDistributionTypeTestImEE = internal constant [50 x i8] c"N12_GLOBAL__N_128DiscreteDistributionTypeTestImEE\00", align 1
@_ZTIN12_GLOBAL__N_128DiscreteDistributionTypeTestImEE = internal constant { ptr, ptr, ptr } { ptr getelementptr inbounds (ptr, ptr @_ZTVN10__cxxabiv120__si_class_type_infoE, i64 2), ptr @_ZTSN12_GLOBAL__N_128DiscreteDistributionTypeTestImEE, ptr @_ZTIN7testing4TestE }, align 8
@_ZTIN12_GLOBAL__N_152DiscreteDistributionTypeTest_ParamSerializeTest_TestImEE = internal constant { ptr, ptr, ptr } { ptr getelementptr inbounds (ptr, ptr @_ZTVN10__cxxabiv120__si_class_type_infoE, i64 2), ptr @_ZTSN12_GLOBAL__N_152DiscreteDistributionTypeTest_ParamSerializeTest_TestImEE, ptr @_ZTIN12_GLOBAL__N_128DiscreteDistributionTypeTestImEE }, align 8
@constinit.117 = private unnamed_addr constant [3 x double] [double 1.000000e+00, double 2.000000e+00, double 1.000000e+00], align 8
@_ZTVN7testing8internal15TestFactoryImplIN12_GLOBAL__N_145DiscreteDistributionTypeTest_Constructor_TestIaEEEE = internal unnamed_addr constant { [5 x ptr] } { [5 x ptr] [ptr null, ptr @_ZTIN7testing8internal15TestFactoryImplIN12_GLOBAL__N_145DiscreteDistributionTypeTest_Constructor_TestIaEEEE, ptr @_ZN7testing8internal15TestFactoryImplIN12_GLOBAL__N_145DiscreteDistributionTypeTest_Constructor_TestIaEEED2Ev, ptr @_ZN7testing8internal15TestFactoryImplIN12_GLOBAL__N_145DiscreteDistributionTypeTest_Constructor_TestIaEEED0Ev, ptr @_ZN7testing8internal15TestFactoryImplIN12_GLOBAL__N_145DiscreteDistributionTypeTest_Constructor_TestIaEEE10CreateTestEv] }, align 8
@_ZTSN7testing8internal15TestFactoryImplIN12_GLOBAL__N_145DiscreteDistributionTypeTest_Constructor_TestIaEEEE = internal constant [105 x i8] c"N7testing8internal15TestFactoryImplIN12_GLOBAL__N_145DiscreteDistributionTypeTest_Constructor_TestIaEEEE\00", align 1
@_ZTIN7testing8internal15TestFactoryImplIN12_GLOBAL__N_145DiscreteDistributionTypeTest_Constructor_TestIaEEEE = internal constant { ptr, ptr, ptr } { ptr getelementptr inbounds (ptr, ptr @_ZTVN10__cxxabiv120__si_class_type_infoE, i64 2), ptr @_ZTSN7testing8internal15TestFactoryImplIN12_GLOBAL__N_145DiscreteDistributionTypeTest_Constructor_TestIaEEEE, ptr @_ZTIN7testing8internal15TestFactoryBaseE }, align 8
@_ZTVN12_GLOBAL__N_145DiscreteDistributionTypeTest_Constructor_TestIaEE = internal unnamed_addr constant { [8 x ptr] } { [8 x ptr] [ptr null, ptr @_ZTIN12_GLOBAL__N_145DiscreteDistributionTypeTest_Constructor_TestIaEE, ptr @_ZN12_GLOBAL__N_145DiscreteDistributionTypeTest_Constructor_TestIaED2Ev, ptr @_ZN12_GLOBAL__N_145DiscreteDistributionTypeTest_Constructor_TestIaED0Ev, ptr @_ZN7testing4Test5SetUpEv, ptr @_ZN7testing4Test8TearDownEv, ptr @_ZN12_GLOBAL__N_145DiscreteDistributionTypeTest_Constructor_TestIaE8TestBodyEv, ptr @_ZN7testing4Test5SetupEv] }, align 8
@_ZTSN12_GLOBAL__N_145DiscreteDistributionTypeTest_Constructor_TestIaEE = internal constant [67 x i8] c"N12_GLOBAL__N_145DiscreteDistributionTypeTest_Constructor_TestIaEE\00", align 1
@_ZTIN12_GLOBAL__N_145DiscreteDistributionTypeTest_Constructor_TestIaEE = internal constant { ptr, ptr, ptr } { ptr getelementptr inbounds (ptr, ptr @_ZTVN10__cxxabiv120__si_class_type_infoE, i64 2), ptr @_ZTSN12_GLOBAL__N_145DiscreteDistributionTypeTest_Constructor_TestIaEE, ptr @_ZTIN12_GLOBAL__N_128DiscreteDistributionTypeTestIaEE }, align 8
@.str.118 = private unnamed_addr constant [22 x i8] c"unary.probabilities()\00", align 1
@_ZTVN7testing8internal15TestFactoryImplIN12_GLOBAL__N_145DiscreteDistributionTypeTest_Constructor_TestIhEEEE = internal unnamed_addr constant { [5 x ptr] } { [5 x ptr] [ptr null, ptr @_ZTIN7testing8internal15TestFactoryImplIN12_GLOBAL__N_145DiscreteDistributionTypeTest_Constructor_TestIhEEEE, ptr @_ZN7testing8internal15TestFactoryImplIN12_GLOBAL__N_145DiscreteDistributionTypeTest_Constructor_TestIhEEED2Ev, ptr @_ZN7testing8internal15TestFactoryImplIN12_GLOBAL__N_145DiscreteDistributionTypeTest_Constructor_TestIhEEED0Ev, ptr @_ZN7testing8internal15TestFactoryImplIN12_GLOBAL__N_145DiscreteDistributionTypeTest_Constructor_TestIhEEE10CreateTestEv] }, align 8
@_ZTSN7testing8internal15TestFactoryImplIN12_GLOBAL__N_145DiscreteDistributionTypeTest_Constructor_TestIhEEEE = internal constant [105 x i8] c"N7testing8internal15TestFactoryImplIN12_GLOBAL__N_145DiscreteDistributionTypeTest_Constructor_TestIhEEEE\00", align 1
@_ZTIN7testing8internal15TestFactoryImplIN12_GLOBAL__N_145DiscreteDistributionTypeTest_Constructor_TestIhEEEE = internal constant { ptr, ptr, ptr } { ptr getelementptr inbounds (ptr, ptr @_ZTVN10__cxxabiv120__si_class_type_infoE, i64 2), ptr @_ZTSN7testing8internal15TestFactoryImplIN12_GLOBAL__N_145DiscreteDistributionTypeTest_Constructor_TestIhEEEE, ptr @_ZTIN7testing8internal15TestFactoryBaseE }, align 8
@_ZTVN12_GLOBAL__N_145DiscreteDistributionTypeTest_Constructor_TestIhEE = internal unnamed_addr constant { [8 x ptr] } { [8 x ptr] [ptr null, ptr @_ZTIN12_GLOBAL__N_145DiscreteDistributionTypeTest_Constructor_TestIhEE, ptr @_ZN12_GLOBAL__N_145DiscreteDistributionTypeTest_Constructor_TestIhED2Ev, ptr @_ZN12_GLOBAL__N_145DiscreteDistributionTypeTest_Constructor_TestIhED0Ev, ptr @_ZN7testing4Test5SetUpEv, ptr @_ZN7testing4Test8TearDownEv, ptr @_ZN12_GLOBAL__N_145DiscreteDistributionTypeTest_Constructor_TestIhE8TestBodyEv, ptr @_ZN7testing4Test5SetupEv] }, align 8
@_ZTSN12_GLOBAL__N_145DiscreteDistributionTypeTest_Constructor_TestIhEE = internal constant [67 x i8] c"N12_GLOBAL__N_145DiscreteDistributionTypeTest_Constructor_TestIhEE\00", align 1
@_ZTIN12_GLOBAL__N_145DiscreteDistributionTypeTest_Constructor_TestIhEE = internal constant { ptr, ptr, ptr } { ptr getelementptr inbounds (ptr, ptr @_ZTVN10__cxxabiv120__si_class_type_infoE, i64 2), ptr @_ZTSN12_GLOBAL__N_145DiscreteDistributionTypeTest_Constructor_TestIhEE, ptr @_ZTIN12_GLOBAL__N_128DiscreteDistributionTypeTestIhEE }, align 8
@_ZTVN7testing8internal15TestFactoryImplIN12_GLOBAL__N_145DiscreteDistributionTypeTest_Constructor_TestIsEEEE = internal unnamed_addr constant { [5 x ptr] } { [5 x ptr] [ptr null, ptr @_ZTIN7testing8internal15TestFactoryImplIN12_GLOBAL__N_145DiscreteDistributionTypeTest_Constructor_TestIsEEEE, ptr @_ZN7testing8internal15TestFactoryImplIN12_GLOBAL__N_145DiscreteDistributionTypeTest_Constructor_TestIsEEED2Ev, ptr @_ZN7testing8internal15TestFactoryImplIN12_GLOBAL__N_145DiscreteDistributionTypeTest_Constructor_TestIsEEED0Ev, ptr @_ZN7testing8internal15TestFactoryImplIN12_GLOBAL__N_145DiscreteDistributionTypeTest_Constructor_TestIsEEE10CreateTestEv] }, align 8
@_ZTSN7testing8internal15TestFactoryImplIN12_GLOBAL__N_145DiscreteDistributionTypeTest_Constructor_TestIsEEEE = internal constant [105 x i8] c"N7testing8internal15TestFactoryImplIN12_GLOBAL__N_145DiscreteDistributionTypeTest_Constructor_TestIsEEEE\00", align 1
@_ZTIN7testing8internal15TestFactoryImplIN12_GLOBAL__N_145DiscreteDistributionTypeTest_Constructor_TestIsEEEE = internal constant { ptr, ptr, ptr } { ptr getelementptr inbounds (ptr, ptr @_ZTVN10__cxxabiv120__si_class_type_infoE, i64 2), ptr @_ZTSN7testing8internal15TestFactoryImplIN12_GLOBAL__N_145DiscreteDistributionTypeTest_Constructor_TestIsEEEE, ptr @_ZTIN7testing8internal15TestFactoryBaseE }, align 8
@_ZTVN12_GLOBAL__N_145DiscreteDistributionTypeTest_Constructor_TestIsEE = internal unnamed_addr constant { [8 x ptr] } { [8 x ptr] [ptr null, ptr @_ZTIN12_GLOBAL__N_145DiscreteDistributionTypeTest_Constructor_TestIsEE, ptr @_ZN12_GLOBAL__N_145DiscreteDistributionTypeTest_Constructor_TestIsED2Ev, ptr @_ZN12_GLOBAL__N_145DiscreteDistributionTypeTest_Constructor_TestIsED0Ev, ptr @_ZN7testing4Test5SetUpEv, ptr @_ZN7testing4Test8TearDownEv, ptr @_ZN12_GLOBAL__N_145DiscreteDistributionTypeTest_Constructor_TestIsE8TestBodyEv, ptr @_ZN7testing4Test5SetupEv] }, align 8
@_ZTSN12_GLOBAL__N_145DiscreteDistributionTypeTest_Constructor_TestIsEE = internal constant [67 x i8] c"N12_GLOBAL__N_145DiscreteDistributionTypeTest_Constructor_TestIsEE\00", align 1
@_ZTIN12_GLOBAL__N_145DiscreteDistributionTypeTest_Constructor_TestIsEE = internal constant { ptr, ptr, ptr } { ptr getelementptr inbounds (ptr, ptr @_ZTVN10__cxxabiv120__si_class_type_infoE, i64 2), ptr @_ZTSN12_GLOBAL__N_145DiscreteDistributionTypeTest_Constructor_TestIsEE, ptr @_ZTIN12_GLOBAL__N_128DiscreteDistributionTypeTestIsEE }, align 8
@_ZTVN7testing8internal15TestFactoryImplIN12_GLOBAL__N_145DiscreteDistributionTypeTest_Constructor_TestItEEEE = internal unnamed_addr constant { [5 x ptr] } { [5 x ptr] [ptr null, ptr @_ZTIN7testing8internal15TestFactoryImplIN12_GLOBAL__N_145DiscreteDistributionTypeTest_Constructor_TestItEEEE, ptr @_ZN7testing8internal15TestFactoryImplIN12_GLOBAL__N_145DiscreteDistributionTypeTest_Constructor_TestItEEED2Ev, ptr @_ZN7testing8internal15TestFactoryImplIN12_GLOBAL__N_145DiscreteDistributionTypeTest_Constructor_TestItEEED0Ev, ptr @_ZN7testing8internal15TestFactoryImplIN12_GLOBAL__N_145DiscreteDistributionTypeTest_Constructor_TestItEEE10CreateTestEv] }, align 8
@_ZTSN7testing8internal15TestFactoryImplIN12_GLOBAL__N_145DiscreteDistributionTypeTest_Constructor_TestItEEEE = internal constant [105 x i8] c"N7testing8internal15TestFactoryImplIN12_GLOBAL__N_145DiscreteDistributionTypeTest_Constructor_TestItEEEE\00", align 1
@_ZTIN7testing8internal15TestFactoryImplIN12_GLOBAL__N_145DiscreteDistributionTypeTest_Constructor_TestItEEEE = internal constant { ptr, ptr, ptr } { ptr getelementptr inbounds (ptr, ptr @_ZTVN10__cxxabiv120__si_class_type_infoE, i64 2), ptr @_ZTSN7testing8internal15TestFactoryImplIN12_GLOBAL__N_145DiscreteDistributionTypeTest_Constructor_TestItEEEE, ptr @_ZTIN7testing8internal15TestFactoryBaseE }, align 8
@_ZTVN12_GLOBAL__N_145DiscreteDistributionTypeTest_Constructor_TestItEE = internal unnamed_addr constant { [8 x ptr] } { [8 x ptr] [ptr null, ptr @_ZTIN12_GLOBAL__N_145DiscreteDistributionTypeTest_Constructor_TestItEE, ptr @_ZN12_GLOBAL__N_145DiscreteDistributionTypeTest_Constructor_TestItED2Ev, ptr @_ZN12_GLOBAL__N_145DiscreteDistributionTypeTest_Constructor_TestItED0Ev, ptr @_ZN7testing4Test5SetUpEv, ptr @_ZN7testing4Test8TearDownEv, ptr @_ZN12_GLOBAL__N_145DiscreteDistributionTypeTest_Constructor_TestItE8TestBodyEv, ptr @_ZN7testing4Test5SetupEv] }, align 8
@_ZTSN12_GLOBAL__N_145DiscreteDistributionTypeTest_Constructor_TestItEE = internal constant [67 x i8] c"N12_GLOBAL__N_145DiscreteDistributionTypeTest_Constructor_TestItEE\00", align 1
@_ZTIN12_GLOBAL__N_145DiscreteDistributionTypeTest_Constructor_TestItEE = internal constant { ptr, ptr, ptr } { ptr getelementptr inbounds (ptr, ptr @_ZTVN10__cxxabiv120__si_class_type_infoE, i64 2), ptr @_ZTSN12_GLOBAL__N_145DiscreteDistributionTypeTest_Constructor_TestItEE, ptr @_ZTIN12_GLOBAL__N_128DiscreteDistributionTypeTestItEE }, align 8
@_ZTVN7testing8internal15TestFactoryImplIN12_GLOBAL__N_145DiscreteDistributionTypeTest_Constructor_TestIiEEEE = internal unnamed_addr constant { [5 x ptr] } { [5 x ptr] [ptr null, ptr @_ZTIN7testing8internal15TestFactoryImplIN12_GLOBAL__N_145DiscreteDistributionTypeTest_Constructor_TestIiEEEE, ptr @_ZN7testing8internal15TestFactoryImplIN12_GLOBAL__N_145DiscreteDistributionTypeTest_Constructor_TestIiEEED2Ev, ptr @_ZN7testing8internal15TestFactoryImplIN12_GLOBAL__N_145DiscreteDistributionTypeTest_Constructor_TestIiEEED0Ev, ptr @_ZN7testing8internal15TestFactoryImplIN12_GLOBAL__N_145DiscreteDistributionTypeTest_Constructor_TestIiEEE10CreateTestEv] }, align 8
@_ZTSN7testing8internal15TestFactoryImplIN12_GLOBAL__N_145DiscreteDistributionTypeTest_Constructor_TestIiEEEE = internal constant [105 x i8] c"N7testing8internal15TestFactoryImplIN12_GLOBAL__N_145DiscreteDistributionTypeTest_Constructor_TestIiEEEE\00", align 1
@_ZTIN7testing8internal15TestFactoryImplIN12_GLOBAL__N_145DiscreteDistributionTypeTest_Constructor_TestIiEEEE = internal constant { ptr, ptr, ptr } { ptr getelementptr inbounds (ptr, ptr @_ZTVN10__cxxabiv120__si_class_type_infoE, i64 2), ptr @_ZTSN7testing8internal15TestFactoryImplIN12_GLOBAL__N_145DiscreteDistributionTypeTest_Constructor_TestIiEEEE, ptr @_ZTIN7testing8internal15TestFactoryBaseE }, align 8
@_ZTVN12_GLOBAL__N_145DiscreteDistributionTypeTest_Constructor_TestIiEE = internal unnamed_addr constant { [8 x ptr] } { [8 x ptr] [ptr null, ptr @_ZTIN12_GLOBAL__N_145DiscreteDistributionTypeTest_Constructor_TestIiEE, ptr @_ZN12_GLOBAL__N_145DiscreteDistributionTypeTest_Constructor_TestIiED2Ev, ptr @_ZN12_GLOBAL__N_145DiscreteDistributionTypeTest_Constructor_TestIiED0Ev, ptr @_ZN7testing4Test5SetUpEv, ptr @_ZN7testing4Test8TearDownEv, ptr @_ZN12_GLOBAL__N_145DiscreteDistributionTypeTest_Constructor_TestIiE8TestBodyEv, ptr @_ZN7testing4Test5SetupEv] }, align 8
@_ZTSN12_GLOBAL__N_145DiscreteDistributionTypeTest_Constructor_TestIiEE = internal constant [67 x i8] c"N12_GLOBAL__N_145DiscreteDistributionTypeTest_Constructor_TestIiEE\00", align 1
@_ZTIN12_GLOBAL__N_145DiscreteDistributionTypeTest_Constructor_TestIiEE = internal constant { ptr, ptr, ptr } { ptr getelementptr inbounds (ptr, ptr @_ZTVN10__cxxabiv120__si_class_type_infoE, i64 2), ptr @_ZTSN12_GLOBAL__N_145DiscreteDistributionTypeTest_Constructor_TestIiEE, ptr @_ZTIN12_GLOBAL__N_128DiscreteDistributionTypeTestIiEE }, align 8
@_ZTVN7testing8internal15TestFactoryImplIN12_GLOBAL__N_145DiscreteDistributionTypeTest_Constructor_TestIjEEEE = internal unnamed_addr constant { [5 x ptr] } { [5 x ptr] [ptr null, ptr @_ZTIN7testing8internal15TestFactoryImplIN12_GLOBAL__N_145DiscreteDistributionTypeTest_Constructor_TestIjEEEE, ptr @_ZN7testing8internal15TestFactoryImplIN12_GLOBAL__N_145DiscreteDistributionTypeTest_Constructor_TestIjEEED2Ev, ptr @_ZN7testing8internal15TestFactoryImplIN12_GLOBAL__N_145DiscreteDistributionTypeTest_Constructor_TestIjEEED0Ev, ptr @_ZN7testing8internal15TestFactoryImplIN12_GLOBAL__N_145DiscreteDistributionTypeTest_Constructor_TestIjEEE10CreateTestEv] }, align 8
@_ZTSN7testing8internal15TestFactoryImplIN12_GLOBAL__N_145DiscreteDistributionTypeTest_Constructor_TestIjEEEE = internal constant [105 x i8] c"N7testing8internal15TestFactoryImplIN12_GLOBAL__N_145DiscreteDistributionTypeTest_Constructor_TestIjEEEE\00", align 1
@_ZTIN7testing8internal15TestFactoryImplIN12_GLOBAL__N_145DiscreteDistributionTypeTest_Constructor_TestIjEEEE = internal constant { ptr, ptr, ptr } { ptr getelementptr inbounds (ptr, ptr @_ZTVN10__cxxabiv120__si_class_type_infoE, i64 2), ptr @_ZTSN7testing8internal15TestFactoryImplIN12_GLOBAL__N_145DiscreteDistributionTypeTest_Constructor_TestIjEEEE, ptr @_ZTIN7testing8internal15TestFactoryBaseE }, align 8
@_ZTVN12_GLOBAL__N_145DiscreteDistributionTypeTest_Constructor_TestIjEE = internal unnamed_addr constant { [8 x ptr] } { [8 x ptr] [ptr null, ptr @_ZTIN12_GLOBAL__N_145DiscreteDistributionTypeTest_Constructor_TestIjEE, ptr @_ZN12_GLOBAL__N_145DiscreteDistributionTypeTest_Constructor_TestIjED2Ev, ptr @_ZN12_GLOBAL__N_145DiscreteDistributionTypeTest_Constructor_TestIjED0Ev, ptr @_ZN7testing4Test5SetUpEv, ptr @_ZN7testing4Test8TearDownEv, ptr @_ZN12_GLOBAL__N_145DiscreteDistributionTypeTest_Constructor_TestIjE8TestBodyEv, ptr @_ZN7testing4Test5SetupEv] }, align 8
@_ZTSN12_GLOBAL__N_145DiscreteDistributionTypeTest_Constructor_TestIjEE = internal constant [67 x i8] c"N12_GLOBAL__N_145DiscreteDistributionTypeTest_Constructor_TestIjEE\00", align 1
@_ZTIN12_GLOBAL__N_145DiscreteDistributionTypeTest_Constructor_TestIjEE = internal constant { ptr, ptr, ptr } { ptr getelementptr inbounds (ptr, ptr @_ZTVN10__cxxabiv120__si_class_type_infoE, i64 2), ptr @_ZTSN12_GLOBAL__N_145DiscreteDistributionTypeTest_Constructor_TestIjEE, ptr @_ZTIN12_GLOBAL__N_128DiscreteDistributionTypeTestIjEE }, align 8
@_ZTVN7testing8internal15TestFactoryImplIN12_GLOBAL__N_145DiscreteDistributionTypeTest_Constructor_TestIlEEEE = internal unnamed_addr constant { [5 x ptr] } { [5 x ptr] [ptr null, ptr @_ZTIN7testing8internal15TestFactoryImplIN12_GLOBAL__N_145DiscreteDistributionTypeTest_Constructor_TestIlEEEE, ptr @_ZN7testing8internal15TestFactoryImplIN12_GLOBAL__N_145DiscreteDistributionTypeTest_Constructor_TestIlEEED2Ev, ptr @_ZN7testing8internal15TestFactoryImplIN12_GLOBAL__N_145DiscreteDistributionTypeTest_Constructor_TestIlEEED0Ev, ptr @_ZN7testing8internal15TestFactoryImplIN12_GLOBAL__N_145DiscreteDistributionTypeTest_Constructor_TestIlEEE10CreateTestEv] }, align 8
@_ZTSN7testing8internal15TestFactoryImplIN12_GLOBAL__N_145DiscreteDistributionTypeTest_Constructor_TestIlEEEE = internal constant [105 x i8] c"N7testing8internal15TestFactoryImplIN12_GLOBAL__N_145DiscreteDistributionTypeTest_Constructor_TestIlEEEE\00", align 1
@_ZTIN7testing8internal15TestFactoryImplIN12_GLOBAL__N_145DiscreteDistributionTypeTest_Constructor_TestIlEEEE = internal constant { ptr, ptr, ptr } { ptr getelementptr inbounds (ptr, ptr @_ZTVN10__cxxabiv120__si_class_type_infoE, i64 2), ptr @_ZTSN7testing8internal15TestFactoryImplIN12_GLOBAL__N_145DiscreteDistributionTypeTest_Constructor_TestIlEEEE, ptr @_ZTIN7testing8internal15TestFactoryBaseE }, align 8
@_ZTVN12_GLOBAL__N_145DiscreteDistributionTypeTest_Constructor_TestIlEE = internal unnamed_addr constant { [8 x ptr] } { [8 x ptr] [ptr null, ptr @_ZTIN12_GLOBAL__N_145DiscreteDistributionTypeTest_Constructor_TestIlEE, ptr @_ZN12_GLOBAL__N_145DiscreteDistributionTypeTest_Constructor_TestIlED2Ev, ptr @_ZN12_GLOBAL__N_145DiscreteDistributionTypeTest_Constructor_TestIlED0Ev, ptr @_ZN7testing4Test5SetUpEv, ptr @_ZN7testing4Test8TearDownEv, ptr @_ZN12_GLOBAL__N_145DiscreteDistributionTypeTest_Constructor_TestIlE8TestBodyEv, ptr @_ZN7testing4Test5SetupEv] }, align 8
@_ZTSN12_GLOBAL__N_145DiscreteDistributionTypeTest_Constructor_TestIlEE = internal constant [67 x i8] c"N12_GLOBAL__N_145DiscreteDistributionTypeTest_Constructor_TestIlEE\00", align 1
@_ZTIN12_GLOBAL__N_145DiscreteDistributionTypeTest_Constructor_TestIlEE = internal constant { ptr, ptr, ptr } { ptr getelementptr inbounds (ptr, ptr @_ZTVN10__cxxabiv120__si_class_type_infoE, i64 2), ptr @_ZTSN12_GLOBAL__N_145DiscreteDistributionTypeTest_Constructor_TestIlEE, ptr @_ZTIN12_GLOBAL__N_128DiscreteDistributionTypeTestIlEE }, align 8
@_ZTVN7testing8internal15TestFactoryImplIN12_GLOBAL__N_145DiscreteDistributionTypeTest_Constructor_TestImEEEE = internal unnamed_addr constant { [5 x ptr] } { [5 x ptr] [ptr null, ptr @_ZTIN7testing8internal15TestFactoryImplIN12_GLOBAL__N_145DiscreteDistributionTypeTest_Constructor_TestImEEEE, ptr @_ZN7testing8internal15TestFactoryImplIN12_GLOBAL__N_145DiscreteDistributionTypeTest_Constructor_TestImEEED2Ev, ptr @_ZN7testing8internal15TestFactoryImplIN12_GLOBAL__N_145DiscreteDistributionTypeTest_Constructor_TestImEEED0Ev, ptr @_ZN7testing8internal15TestFactoryImplIN12_GLOBAL__N_145DiscreteDistributionTypeTest_Constructor_TestImEEE10CreateTestEv] }, align 8
@_ZTSN7testing8internal15TestFactoryImplIN12_GLOBAL__N_145DiscreteDistributionTypeTest_Constructor_TestImEEEE = internal constant [105 x i8] c"N7testing8internal15TestFactoryImplIN12_GLOBAL__N_145DiscreteDistributionTypeTest_Constructor_TestImEEEE\00", align 1
@_ZTIN7testing8internal15TestFactoryImplIN12_GLOBAL__N_145DiscreteDistributionTypeTest_Constructor_TestImEEEE = internal constant { ptr, ptr, ptr } { ptr getelementptr inbounds (ptr, ptr @_ZTVN10__cxxabiv120__si_class_type_infoE, i64 2), ptr @_ZTSN7testing8internal15TestFactoryImplIN12_GLOBAL__N_145DiscreteDistributionTypeTest_Constructor_TestImEEEE, ptr @_ZTIN7testing8internal15TestFactoryBaseE }, align 8
@_ZTVN12_GLOBAL__N_145DiscreteDistributionTypeTest_Constructor_TestImEE = internal unnamed_addr constant { [8 x ptr] } { [8 x ptr] [ptr null, ptr @_ZTIN12_GLOBAL__N_145DiscreteDistributionTypeTest_Constructor_TestImEE, ptr @_ZN12_GLOBAL__N_145DiscreteDistributionTypeTest_Constructor_TestImED2Ev, ptr @_ZN12_GLOBAL__N_145DiscreteDistributionTypeTest_Constructor_TestImED0Ev, ptr @_ZN7testing4Test5SetUpEv, ptr @_ZN7testing4Test8TearDownEv, ptr @_ZN12_GLOBAL__N_145DiscreteDistributionTypeTest_Constructor_TestImE8TestBodyEv, ptr @_ZN7testing4Test5SetupEv] }, align 8
@_ZTSN12_GLOBAL__N_145DiscreteDistributionTypeTest_Constructor_TestImEE = internal constant [67 x i8] c"N12_GLOBAL__N_145DiscreteDistributionTypeTest_Constructor_TestImEE\00", align 1
@_ZTIN12_GLOBAL__N_145DiscreteDistributionTypeTest_Constructor_TestImEE = internal constant { ptr, ptr, ptr } { ptr getelementptr inbounds (ptr, ptr @_ZTVN10__cxxabiv120__si_class_type_infoE, i64 2), ptr @_ZTSN12_GLOBAL__N_145DiscreteDistributionTypeTest_Constructor_TestImEE, ptr @_ZTIN12_GLOBAL__N_128DiscreteDistributionTypeTestImEE }, align 8
@llvm.global_ctors = appending global [1 x { i32, ptr, ptr }] [{ i32, ptr, ptr } { i32 65535, ptr @_GLOBAL__sub_I_discrete_distribution_test.cc, ptr null }]

declare void @_ZNSt8ios_base4InitC1Ev(ptr noundef nonnull align 1 dereferenceable(1)) unnamed_addr #0

; Function Attrs: nounwind
declare void @_ZNSt8ios_base4InitD1Ev(ptr noundef nonnull align 1 dereferenceable(1)) unnamed_addr #1

; Function Attrs: nofree nounwind
declare i32 @__cxa_atexit(ptr, ptr, ptr) local_unnamed_addr #2

; Function Attrs: nounwind
declare void @_ZNSaIcEC1Ev(ptr noundef nonnull align 1 dereferenceable(1)) unnamed_addr #1

declare i32 @__gxx_personality_v0(...)

; Function Attrs: mustprogress nounwind uwtable
define linkonce_odr dso_local void @_ZNSt6vectorINSt7__cxx1112basic_stringIcSt11char_traitsIcESaIcEEESaIS5_EED2Ev(ptr noundef nonnull align 8 dereferenceable(24) %this) unnamed_addr #3 comdat align 2 personality ptr @__gxx_personality_v0 {
entry:
  %0 = load ptr, ptr %this, align 8
  %_M_finish = getelementptr inbounds %"struct.std::_Vector_base<std::__cxx11::basic_string<char>, std::allocator<std::__cxx11::basic_string<char>>>::_Vector_impl_data", ptr %this, i64 0, i32 1
  %1 = load ptr, ptr %_M_finish, align 8
  %cmp.not3.i.i.i = icmp eq ptr %0, %1
  br i1 %cmp.not3.i.i.i, label %invoke.cont, label %for.body.i.i.i

for.body.i.i.i:                                   ; preds = %entry, %for.body.i.i.i
  %__first.addr.04.i.i.i = phi ptr [ %incdec.ptr.i.i.i, %for.body.i.i.i ], [ %0, %entry ]
  tail call void @_ZNSt7__cxx1112basic_stringIcSt11char_traitsIcESaIcEED1Ev(ptr noundef nonnull align 8 dereferenceable(32) %__first.addr.04.i.i.i) #23
  %incdec.ptr.i.i.i = getelementptr inbounds %"class.std::__cxx11::basic_string", ptr %__first.addr.04.i.i.i, i64 1
  %cmp.not.i.i.i = icmp eq ptr %incdec.ptr.i.i.i, %1
  br i1 %cmp.not.i.i.i, label %invoke.contthread-pre-split, label %for.body.i.i.i, !llvm.loop !5

invoke.contthread-pre-split:                      ; preds = %for.body.i.i.i
  %.pr = load ptr, ptr %this, align 8
  br label %invoke.cont

invoke.cont:                                      ; preds = %invoke.contthread-pre-split, %entry
  %2 = phi ptr [ %.pr, %invoke.contthread-pre-split ], [ %0, %entry ]
  %tobool.not.i.i = icmp eq ptr %2, null
  br i1 %tobool.not.i.i, label %_ZNSt12_Vector_baseINSt7__cxx1112basic_stringIcSt11char_traitsIcESaIcEEESaIS5_EED2Ev.exit, label %if.then.i.i

if.then.i.i:                                      ; preds = %invoke.cont
  tail call void @_ZdlPv(ptr noundef nonnull %2) #24
  br label %_ZNSt12_Vector_baseINSt7__cxx1112basic_stringIcSt11char_traitsIcESaIcEEESaIS5_EED2Ev.exit

_ZNSt12_Vector_baseINSt7__cxx1112basic_stringIcSt11char_traitsIcESaIcEEESaIS5_EED2Ev.exit: ; preds = %invoke.cont, %if.then.i.i
  ret void
}

; Function Attrs: nounwind
declare void @_ZNSt7__cxx1112basic_stringIcSt11char_traitsIcESaIcEED1Ev(ptr noundef nonnull align 8 dereferenceable(32)) unnamed_addr #1

; Function Attrs: nounwind
declare void @_ZNSaIcED1Ev(ptr noundef nonnull align 1 dereferenceable(1)) unnamed_addr #1

declare noundef ptr @_ZN7testing8internal23MakeAndRegisterTestInfoEPKcS2_S2_S2_NS0_12CodeLocationEPKvPFvvES7_PNS0_15TestFactoryBaseE(ptr noundef, ptr noundef, ptr noundef, ptr noundef, ptr noundef, ptr noundef, ptr noundef, ptr noundef, ptr noundef) local_unnamed_addr #0

declare noundef ptr @_ZN7testing8internal13GetTestTypeIdEv() local_unnamed_addr #0

; Function Attrs: mustprogress uwtable
define linkonce_odr dso_local noundef ptr @_ZN7testing8internal16SuiteApiResolverINS_4TestEE19GetSetUpCaseOrSuiteEPKci(ptr noundef %filename, i32 noundef %line_num) local_unnamed_addr #4 comdat align 2 personality ptr @__gxx_personality_v0 {
entry:
  %ref.tmp = alloca %"class.testing::internal::GTestLog", align 4
  %call3 = tail call noundef zeroext i1 @_ZN7testing8internal6IsTrueEb(i1 noundef zeroext true)
  br i1 %call3, label %if.end, label %if.else

if.else:                                          ; preds = %entry
  call void @_ZN7testing8internal8GTestLogC1ENS0_16GTestLogSeverityEPKci(ptr noundef nonnull align 4 dereferenceable(4) %ref.tmp, i32 noundef 3, ptr noundef nonnull @.str.85, i32 noundef 513)
  %call5 = invoke noundef nonnull align 8 dereferenceable(8) ptr @_ZStlsISt11char_traitsIcEERSt13basic_ostreamIcT_ES5_PKc(ptr noundef nonnull align 8 dereferenceable(8) @_ZSt4cerr, ptr noundef nonnull @.str.86)
          to label %invoke.cont unwind label %lpad

invoke.cont:                                      ; preds = %if.else
  %call7 = invoke noundef nonnull align 8 dereferenceable(8) ptr @_ZStlsISt11char_traitsIcEERSt13basic_ostreamIcT_ES5_PKc(ptr noundef nonnull align 8 dereferenceable(8) %call5, ptr noundef nonnull @.str.87)
          to label %invoke.cont6 unwind label %lpad

invoke.cont6:                                     ; preds = %invoke.cont
  %call9 = invoke noundef nonnull align 8 dereferenceable(8) ptr @_ZStlsISt11char_traitsIcEERSt13basic_ostreamIcT_ES5_PKc(ptr noundef nonnull align 8 dereferenceable(8) %call7, ptr noundef %filename)
          to label %invoke.cont8 unwind label %lpad

invoke.cont8:                                     ; preds = %invoke.cont6
  %call11 = invoke noundef nonnull align 8 dereferenceable(8) ptr @_ZStlsISt11char_traitsIcEERSt13basic_ostreamIcT_ES5_PKc(ptr noundef nonnull align 8 dereferenceable(8) %call9, ptr noundef nonnull @.str.88)
          to label %invoke.cont10 unwind label %lpad

invoke.cont10:                                    ; preds = %invoke.cont8
  %call13 = invoke noundef nonnull align 8 dereferenceable(8) ptr @_ZNSolsEi(ptr noundef nonnull align 8 dereferenceable(8) %call11, i32 noundef %line_num)
          to label %invoke.cont12 unwind label %lpad

invoke.cont12:                                    ; preds = %invoke.cont10
  call void @_ZN7testing8internal8GTestLogD1Ev(ptr noundef nonnull align 4 dereferenceable(4) %ref.tmp) #23
  br label %if.end

lpad:                                             ; preds = %invoke.cont10, %invoke.cont8, %invoke.cont6, %invoke.cont, %if.else
  %0 = landingpad { ptr, i32 }
          cleanup
  call void @_ZN7testing8internal8GTestLogD1Ev(ptr noundef nonnull align 4 dereferenceable(4) %ref.tmp) #23
  resume { ptr, i32 } %0

if.end:                                           ; preds = %entry, %invoke.cont12
  ret ptr null
}

; Function Attrs: mustprogress uwtable
define linkonce_odr dso_local noundef ptr @_ZN7testing8internal16SuiteApiResolverINS_4TestEE22GetTearDownCaseOrSuiteEPKci(ptr noundef %filename, i32 noundef %line_num) local_unnamed_addr #4 comdat align 2 personality ptr @__gxx_personality_v0 {
entry:
  %ref.tmp = alloca %"class.testing::internal::GTestLog", align 4
  %call3 = tail call noundef zeroext i1 @_ZN7testing8internal6IsTrueEb(i1 noundef zeroext true)
  br i1 %call3, label %if.end, label %if.else

if.else:                                          ; preds = %entry
  call void @_ZN7testing8internal8GTestLogC1ENS0_16GTestLogSeverityEPKci(ptr noundef nonnull align 4 dereferenceable(4) %ref.tmp, i32 noundef 3, ptr noundef nonnull @.str.85, i32 noundef 534)
  %call5 = invoke noundef nonnull align 8 dereferenceable(8) ptr @_ZStlsISt11char_traitsIcEERSt13basic_ostreamIcT_ES5_PKc(ptr noundef nonnull align 8 dereferenceable(8) @_ZSt4cerr, ptr noundef nonnull @.str.86)
          to label %invoke.cont unwind label %lpad

invoke.cont:                                      ; preds = %if.else
  %call7 = invoke noundef nonnull align 8 dereferenceable(8) ptr @_ZStlsISt11char_traitsIcEERSt13basic_ostreamIcT_ES5_PKc(ptr noundef nonnull align 8 dereferenceable(8) %call5, ptr noundef nonnull @.str.89)
          to label %invoke.cont6 unwind label %lpad

invoke.cont6:                                     ; preds = %invoke.cont
  %call9 = invoke noundef nonnull align 8 dereferenceable(8) ptr @_ZStlsISt11char_traitsIcEERSt13basic_ostreamIcT_ES5_PKc(ptr noundef nonnull align 8 dereferenceable(8) %call7, ptr noundef %filename)
          to label %invoke.cont8 unwind label %lpad

invoke.cont8:                                     ; preds = %invoke.cont6
  %call11 = invoke noundef nonnull align 8 dereferenceable(8) ptr @_ZStlsISt11char_traitsIcEERSt13basic_ostreamIcT_ES5_PKc(ptr noundef nonnull align 8 dereferenceable(8) %call9, ptr noundef nonnull @.str.88)
          to label %invoke.cont10 unwind label %lpad

invoke.cont10:                                    ; preds = %invoke.cont8
  %call13 = invoke noundef nonnull align 8 dereferenceable(8) ptr @_ZNSolsEi(ptr noundef nonnull align 8 dereferenceable(8) %call11, i32 noundef %line_num)
          to label %invoke.cont12 unwind label %lpad

invoke.cont12:                                    ; preds = %invoke.cont10
  call void @_ZN7testing8internal8GTestLogD1Ev(ptr noundef nonnull align 4 dereferenceable(4) %ref.tmp) #23
  br label %if.end

lpad:                                             ; preds = %invoke.cont10, %invoke.cont8, %invoke.cont6, %invoke.cont, %if.else
  %0 = landingpad { ptr, i32 }
          cleanup
  call void @_ZN7testing8internal8GTestLogD1Ev(ptr noundef nonnull align 4 dereferenceable(4) %ref.tmp) #23
  resume { ptr, i32 } %0

if.end:                                           ; preds = %entry, %invoke.cont12
  ret ptr null
}

; Function Attrs: nobuiltin allocsize(0)
declare noundef nonnull ptr @_Znwm(i64 noundef) local_unnamed_addr #5

; Function Attrs: nobuiltin nounwind
declare void @_ZdlPv(ptr noundef) local_unnamed_addr #6

declare void @_ZNSt7__cxx1112basic_stringIcSt11char_traitsIcESaIcEEC1ERKS4_(ptr noundef nonnull align 8 dereferenceable(32), ptr noundef nonnull align 8 dereferenceable(32)) unnamed_addr #0

; Function Attrs: mustprogress nofree norecurse nosync nounwind willreturn memory(none) uwtable
define internal void @_ZN7testing8internal15TestFactoryImplIN12_GLOBAL__N_154DiscreteDistributionTest_InitDiscreteDistribution_TestEED2Ev(ptr nocapture nonnull readnone align 8 %this) unnamed_addr #7 align 2 {
entry:
  ret void
}

; Function Attrs: mustprogress nounwind uwtable
define internal void @_ZN7testing8internal15TestFactoryImplIN12_GLOBAL__N_154DiscreteDistributionTest_InitDiscreteDistribution_TestEED0Ev(ptr noundef nonnull align 8 dereferenceable(8) %this) unnamed_addr #3 align 2 {
entry:
  tail call void @_ZdlPv(ptr noundef nonnull %this) #24
  ret void
}

; Function Attrs: mustprogress uwtable
define internal noundef nonnull ptr @_ZN7testing8internal15TestFactoryImplIN12_GLOBAL__N_154DiscreteDistributionTest_InitDiscreteDistribution_TestEE10CreateTestEv(ptr nocapture nonnull readnone align 8 %this) unnamed_addr #4 align 2 personality ptr @__gxx_personality_v0 {
entry:
  %call = tail call noalias noundef nonnull dereferenceable(16) ptr @_Znwm(i64 noundef 16) #25
  invoke void @_ZN7testing4TestC2Ev(ptr noundef nonnull align 8 dereferenceable(16) %call)
          to label %invoke.cont unwind label %lpad

invoke.cont:                                      ; preds = %entry
  store ptr getelementptr inbounds ({ [8 x ptr] }, ptr @_ZTVN12_GLOBAL__N_154DiscreteDistributionTest_InitDiscreteDistribution_TestE, i64 0, inrange i32 0, i64 2), ptr %call, align 8
  ret ptr %call

lpad:                                             ; preds = %entry
  %0 = landingpad { ptr, i32 }
          cleanup
  tail call void @_ZdlPv(ptr noundef nonnull %call) #24
  resume { ptr, i32 } %0
}

declare void @_ZN7testing4TestC2Ev(ptr noundef nonnull align 8 dereferenceable(16)) unnamed_addr #0

; Function Attrs: mustprogress nounwind uwtable
define internal void @_ZN12_GLOBAL__N_154DiscreteDistributionTest_InitDiscreteDistribution_TestD2Ev(ptr noundef nonnull align 8 dereferenceable(16) %this) unnamed_addr #3 align 2 {
entry:
  tail call void @_ZN7testing4TestD2Ev(ptr noundef nonnull align 8 dereferenceable(16) %this) #23
  ret void
}

; Function Attrs: mustprogress nounwind uwtable
define internal void @_ZN12_GLOBAL__N_154DiscreteDistributionTest_InitDiscreteDistribution_TestD0Ev(ptr noundef nonnull align 8 dereferenceable(16) %this) unnamed_addr #3 align 2 {
entry:
  tail call void @_ZN7testing4TestD2Ev(ptr noundef nonnull align 8 dereferenceable(16) %this) #23
  tail call void @_ZdlPv(ptr noundef nonnull %this) #24
  ret void
}

declare void @_ZN7testing4Test5SetUpEv(ptr noundef nonnull align 8 dereferenceable(16)) unnamed_addr #0

declare void @_ZN7testing4Test8TearDownEv(ptr noundef nonnull align 8 dereferenceable(16)) unnamed_addr #0

; Function Attrs: mustprogress uwtable
define internal void @_ZN12_GLOBAL__N_154DiscreteDistributionTest_InitDiscreteDistribution_Test8TestBodyEv(ptr nocapture nonnull readnone align 8 %this) unnamed_addr #4 align 2 personality ptr @__gxx_personality_v0 {
entry:
  %p = alloca %"class.std::vector.7", align 8
  %q = alloca %"class.std::vector.12", align 8
  %gtest_ar = alloca %"class.testing::AssertionResult", align 8
  %ref.tmp5 = alloca %"class.testing::internal::PredicateFormatterFromMatcher", align 16
  %ref.tmp16 = alloca %"class.testing::Message", align 8
  %ref.tmp18 = alloca %"class.testing::internal::AssertHelper", align 8
  %gtest_ar26 = alloca %"class.testing::AssertionResult", align 8
  %ref.tmp27 = alloca %"class.testing::internal::PredicateFormatterFromMatcher.40", align 8
  %ref.tmp49 = alloca %"class.testing::Message", align 8
  %ref.tmp51 = alloca %"class.testing::internal::AssertHelper", align 8
  %p64 = alloca %"class.std::vector.7", align 8
  %q75 = alloca %"class.std::vector.12", align 8
  %gtest_ar78 = alloca %"class.testing::AssertionResult", align 8
  %ref.tmp79 = alloca %"class.testing::internal::PredicateFormatterFromMatcher.51", align 16
  %ref.tmp95 = alloca %"class.testing::Message", align 8
  %ref.tmp97 = alloca %"class.testing::internal::AssertHelper", align 8
  %gtest_ar108 = alloca %"class.testing::AssertionResult", align 8
  %ref.tmp109 = alloca %"class.testing::internal::PredicateFormatterFromMatcher.61", align 8
  %ref.tmp136 = alloca %"class.testing::Message", align 8
  %ref.tmp138 = alloca %"class.testing::internal::AssertHelper", align 8
  %call5.i.i.i.i2.i = tail call noalias noundef nonnull dereferenceable(24) ptr @_Znwm(i64 noundef 24) #25
  store ptr %call5.i.i.i.i2.i, ptr %p, align 8
  %add.ptr.i1.i = getelementptr inbounds i8, ptr %call5.i.i.i.i2.i, i64 24
  %_M_end_of_storage.i.i = getelementptr inbounds %"struct.std::_Vector_base<double, std::allocator<double>>::_Vector_impl_data", ptr %p, i64 0, i32 2
  store ptr %add.ptr.i1.i, ptr %_M_end_of_storage.i.i, align 8
  tail call void @llvm.memcpy.p0.p0.i64(ptr noundef nonnull align 8 dereferenceable(24) %call5.i.i.i.i2.i, ptr noundef nonnull align 8 dereferenceable(24) @constinit, i64 24, i1 false)
  %_M_finish.i.i = getelementptr inbounds %"struct.std::_Vector_base<double, std::allocator<double>>::_Vector_impl_data", ptr %p, i64 0, i32 1
  store ptr %add.ptr.i1.i, ptr %_M_finish.i.i, align 8
  invoke void @_ZN4absl15random_internal24InitDiscreteDistributionEPSt6vectorIdSaIdEE(ptr nonnull sret(%"class.std::vector.12") align 8 %q, ptr noundef nonnull %p)
          to label %invoke.cont12 unwind label %lpad3

invoke.cont12:                                    ; preds = %entry
  store <2 x double> <double 5.000000e-01, double 0x3FD5555555555555>, ptr %ref.tmp5, align 16
  %agg.tmp617.sroa.5.0.ref.tmp5.sroa_idx = getelementptr inbounds i8, ptr %ref.tmp5, i64 16
  store double 0x3FC5555555555555, ptr %agg.tmp617.sroa.5.0.ref.tmp5.sroa_idx, align 16
  invoke void @_ZNK7testing8internal29PredicateFormatterFromMatcherINS0_18ElementsAreMatcherISt5tupleIJdddEEEEEclISt6vectorIdSaIdEEEENS_15AssertionResultEPKcRKT_(ptr nonnull sret(%"class.testing::AssertionResult") align 8 %gtest_ar, ptr noundef nonnull align 8 dereferenceable(24) %ref.tmp5, ptr noundef nonnull @.str.14, ptr noundef nonnull align 8 dereferenceable(24) %p)
          to label %invoke.cont13 unwind label %lpad10

invoke.cont13:                                    ; preds = %invoke.cont12
  %0 = load i8, ptr %gtest_ar, align 8
  %1 = and i8 %0, 1
  %tobool.i.not = icmp eq i8 %1, 0
  br i1 %tobool.i.not, label %if.else, label %if.end

lpad3:                                            ; preds = %entry
  %2 = landingpad { ptr, i32 }
          cleanup
  br label %ehcleanup63

lpad10:                                           ; preds = %invoke.cont42, %invoke.cont12
  %3 = landingpad { ptr, i32 }
          cleanup
  br label %ehcleanup62

lpad14:                                           ; preds = %if.else
  %4 = landingpad { ptr, i32 }
          cleanup
  br label %ehcleanup25

if.else:                                          ; preds = %invoke.cont13
  invoke void @_ZN7testing7MessageC1Ev(ptr noundef nonnull align 8 dereferenceable(8) %ref.tmp16)
          to label %invoke.cont17 unwind label %lpad14

invoke.cont17:                                    ; preds = %if.else
  %message_.i.i = getelementptr inbounds %"class.testing::AssertionResult", ptr %gtest_ar, i64 0, i32 1
  %5 = load ptr, ptr %message_.i.i, align 8
  %cmp.i.i.not.i.i = icmp eq ptr %5, null
  br i1 %cmp.i.i.not.i.i, label %invoke.cont20, label %cond.true.i.i

cond.true.i.i:                                    ; preds = %invoke.cont17
  %call4.i.i = call noundef ptr @_ZNKSt7__cxx1112basic_stringIcSt11char_traitsIcESaIcEE5c_strEv(ptr noundef nonnull align 8 dereferenceable(32) %5) #23
  br label %invoke.cont20

invoke.cont20:                                    ; preds = %cond.true.i.i, %invoke.cont17
  %cond.i.i = phi ptr [ %call4.i.i, %cond.true.i.i ], [ @.str, %invoke.cont17 ]
  invoke void @_ZN7testing8internal12AssertHelperC1ENS_14TestPartResult4TypeEPKciS5_(ptr noundef nonnull align 8 dereferenceable(8) %ref.tmp18, i32 noundef 1, ptr noundef nonnull @.str.2, i32 noundef 110, ptr noundef %cond.i.i)
          to label %invoke.cont22 unwind label %lpad19

invoke.cont22:                                    ; preds = %invoke.cont20
  invoke void @_ZNK7testing8internal12AssertHelperaSERKNS_7MessageE(ptr noundef nonnull align 8 dereferenceable(8) %ref.tmp18, ptr noundef nonnull align 8 dereferenceable(8) %ref.tmp16)
          to label %invoke.cont24 unwind label %lpad23

invoke.cont24:                                    ; preds = %invoke.cont22
  call void @_ZN7testing8internal12AssertHelperD1Ev(ptr noundef nonnull align 8 dereferenceable(8) %ref.tmp18) #23
  %6 = load ptr, ptr %ref.tmp16, align 8
  %cmp.not.i.i = icmp eq ptr %6, null
  br i1 %cmp.not.i.i, label %_ZN7testing7MessageD2Ev.exit, label %_ZNKSt14default_deleteINSt7__cxx1118basic_stringstreamIcSt11char_traitsIcESaIcEEEEclEPS5_.exit.i.i

_ZNKSt14default_deleteINSt7__cxx1118basic_stringstreamIcSt11char_traitsIcESaIcEEEEclEPS5_.exit.i.i: ; preds = %invoke.cont24
  %vtable.i.i.i = load ptr, ptr %6, align 8
  %vfn.i.i.i = getelementptr inbounds ptr, ptr %vtable.i.i.i, i64 1
  %7 = load ptr, ptr %vfn.i.i.i, align 8
  call void %7(ptr noundef nonnull align 8 dereferenceable(128) %6) #23
  br label %_ZN7testing7MessageD2Ev.exit

_ZN7testing7MessageD2Ev.exit:                     ; preds = %invoke.cont24, %_ZNKSt14default_deleteINSt7__cxx1118basic_stringstreamIcSt11char_traitsIcESaIcEEEEclEPS5_.exit.i.i
  store ptr null, ptr %ref.tmp16, align 8
  br label %if.end

lpad19:                                           ; preds = %invoke.cont20
  %8 = landingpad { ptr, i32 }
          cleanup
  br label %ehcleanup

lpad23:                                           ; preds = %invoke.cont22
  %9 = landingpad { ptr, i32 }
          cleanup
  call void @_ZN7testing8internal12AssertHelperD1Ev(ptr noundef nonnull align 8 dereferenceable(8) %ref.tmp18) #23
  br label %ehcleanup

ehcleanup:                                        ; preds = %lpad23, %lpad19
  %.pn = phi { ptr, i32 } [ %9, %lpad23 ], [ %8, %lpad19 ]
  %10 = load ptr, ptr %ref.tmp16, align 8
  %cmp.not.i.i18 = icmp eq ptr %10, null
  br i1 %cmp.not.i.i18, label %_ZN7testing7MessageD2Ev.exit22, label %_ZNKSt14default_deleteINSt7__cxx1118basic_stringstreamIcSt11char_traitsIcESaIcEEEEclEPS5_.exit.i.i19

_ZNKSt14default_deleteINSt7__cxx1118basic_stringstreamIcSt11char_traitsIcESaIcEEEEclEPS5_.exit.i.i19: ; preds = %ehcleanup
  %vtable.i.i.i20 = load ptr, ptr %10, align 8
  %vfn.i.i.i21 = getelementptr inbounds ptr, ptr %vtable.i.i.i20, i64 1
  %11 = load ptr, ptr %vfn.i.i.i21, align 8
  call void %11(ptr noundef nonnull align 8 dereferenceable(128) %10) #23
  br label %_ZN7testing7MessageD2Ev.exit22

_ZN7testing7MessageD2Ev.exit22:                   ; preds = %ehcleanup, %_ZNKSt14default_deleteINSt7__cxx1118basic_stringstreamIcSt11char_traitsIcESaIcEEEEclEPS5_.exit.i.i19
  store ptr null, ptr %ref.tmp16, align 8
  br label %ehcleanup25

if.end:                                           ; preds = %invoke.cont13, %_ZN7testing7MessageD2Ev.exit
  %message_.i = getelementptr inbounds %"class.testing::AssertionResult", ptr %gtest_ar, i64 0, i32 1
  %12 = load ptr, ptr %message_.i, align 8
  %cmp.not.i.i23 = icmp eq ptr %12, null
  br i1 %cmp.not.i.i23, label %invoke.cont42, label %_ZNKSt14default_deleteINSt7__cxx1112basic_stringIcSt11char_traitsIcESaIcEEEEclEPS5_.exit.i.i

_ZNKSt14default_deleteINSt7__cxx1112basic_stringIcSt11char_traitsIcESaIcEEEEclEPS5_.exit.i.i: ; preds = %if.end
  call void @_ZNSt7__cxx1112basic_stringIcSt11char_traitsIcESaIcEED1Ev(ptr noundef nonnull align 8 dereferenceable(32) %12) #23
  call void @_ZdlPv(ptr noundef nonnull %12) #24
  br label %invoke.cont42

invoke.cont42:                                    ; preds = %_ZNKSt14default_deleteINSt7__cxx1112basic_stringIcSt11char_traitsIcESaIcEEEEclEPS5_.exit.i.i, %if.end
  store ptr null, ptr %message_.i, align 8
  store double 1.000000e+00, ptr %ref.tmp27, align 8
  %agg.tmp2824.sroa.5.0.ref.tmp27.sroa_idx = getelementptr inbounds i8, ptr %ref.tmp27, i64 16
  store double 1.000000e+00, ptr %agg.tmp2824.sroa.5.0.ref.tmp27.sroa_idx, align 8
  %agg.tmp2824.sroa.7.0.ref.tmp27.sroa_idx = getelementptr inbounds i8, ptr %ref.tmp27, i64 32
  store double 5.000000e-01, ptr %agg.tmp2824.sroa.7.0.ref.tmp27.sroa_idx, align 8
  %agg.tmp2824.sroa.8.0.ref.tmp27.sroa_idx = getelementptr inbounds i8, ptr %ref.tmp27, i64 40
  store i32 2, ptr %agg.tmp2824.sroa.8.0.ref.tmp27.sroa_idx, align 8
  invoke void @_ZNK7testing8internal29PredicateFormatterFromMatcherINS0_18ElementsAreMatcherISt5tupleIJNS0_11PairMatcherIdiEENS4_IdNS0_15AnythingMatcherEEES7_EEEEEclISt6vectorISt4pairIdmESaISE_EEEENS_15AssertionResultEPKcRKT_(ptr nonnull sret(%"class.testing::AssertionResult") align 8 %gtest_ar26, ptr noundef nonnull align 8 dereferenceable(48) %ref.tmp27, ptr noundef nonnull @.str.15, ptr noundef nonnull align 8 dereferenceable(24) %q)
          to label %invoke.cont43 unwind label %lpad10

invoke.cont43:                                    ; preds = %invoke.cont42
  %13 = load i8, ptr %gtest_ar26, align 8
  %14 = and i8 %13, 1
  %tobool.i25.not = icmp eq i8 %14, 0
  br i1 %tobool.i25.not, label %if.else48, label %if.end60

ehcleanup25:                                      ; preds = %_ZN7testing7MessageD2Ev.exit22, %lpad14
  %.pn.pn = phi { ptr, i32 } [ %.pn, %_ZN7testing7MessageD2Ev.exit22 ], [ %4, %lpad14 ]
  call void @_ZN7testing15AssertionResultD2Ev(ptr noundef nonnull align 8 dereferenceable(16) %gtest_ar) #23
  br label %ehcleanup62

lpad44:                                           ; preds = %if.else48
  %15 = landingpad { ptr, i32 }
          cleanup
  br label %ehcleanup61

if.else48:                                        ; preds = %invoke.cont43
  invoke void @_ZN7testing7MessageC1Ev(ptr noundef nonnull align 8 dereferenceable(8) %ref.tmp49)
          to label %invoke.cont50 unwind label %lpad44

invoke.cont50:                                    ; preds = %if.else48
  %message_.i.i26 = getelementptr inbounds %"class.testing::AssertionResult", ptr %gtest_ar26, i64 0, i32 1
  %16 = load ptr, ptr %message_.i.i26, align 8
  %cmp.i.i.not.i.i27 = icmp eq ptr %16, null
  br i1 %cmp.i.i.not.i.i27, label %invoke.cont53, label %cond.true.i.i28

cond.true.i.i28:                                  ; preds = %invoke.cont50
  %call4.i.i29 = call noundef ptr @_ZNKSt7__cxx1112basic_stringIcSt11char_traitsIcESaIcEE5c_strEv(ptr noundef nonnull align 8 dereferenceable(32) %16) #23
  br label %invoke.cont53

invoke.cont53:                                    ; preds = %cond.true.i.i28, %invoke.cont50
  %cond.i.i30 = phi ptr [ %call4.i.i29, %cond.true.i.i28 ], [ @.str, %invoke.cont50 ]
  invoke void @_ZN7testing8internal12AssertHelperC1ENS_14TestPartResult4TypeEPKciS5_(ptr noundef nonnull align 8 dereferenceable(8) %ref.tmp51, i32 noundef 1, ptr noundef nonnull @.str.2, i32 noundef 116, ptr noundef %cond.i.i30)
          to label %invoke.cont55 unwind label %lpad52

invoke.cont55:                                    ; preds = %invoke.cont53
  invoke void @_ZNK7testing8internal12AssertHelperaSERKNS_7MessageE(ptr noundef nonnull align 8 dereferenceable(8) %ref.tmp51, ptr noundef nonnull align 8 dereferenceable(8) %ref.tmp49)
          to label %invoke.cont57 unwind label %lpad56

invoke.cont57:                                    ; preds = %invoke.cont55
  call void @_ZN7testing8internal12AssertHelperD1Ev(ptr noundef nonnull align 8 dereferenceable(8) %ref.tmp51) #23
  %17 = load ptr, ptr %ref.tmp49, align 8
  %cmp.not.i.i32 = icmp eq ptr %17, null
  br i1 %cmp.not.i.i32, label %_ZN7testing7MessageD2Ev.exit36, label %_ZNKSt14default_deleteINSt7__cxx1118basic_stringstreamIcSt11char_traitsIcESaIcEEEEclEPS5_.exit.i.i33

_ZNKSt14default_deleteINSt7__cxx1118basic_stringstreamIcSt11char_traitsIcESaIcEEEEclEPS5_.exit.i.i33: ; preds = %invoke.cont57
  %vtable.i.i.i34 = load ptr, ptr %17, align 8
  %vfn.i.i.i35 = getelementptr inbounds ptr, ptr %vtable.i.i.i34, i64 1
  %18 = load ptr, ptr %vfn.i.i.i35, align 8
  call void %18(ptr noundef nonnull align 8 dereferenceable(128) %17) #23
  br label %_ZN7testing7MessageD2Ev.exit36

_ZN7testing7MessageD2Ev.exit36:                   ; preds = %invoke.cont57, %_ZNKSt14default_deleteINSt7__cxx1118basic_stringstreamIcSt11char_traitsIcESaIcEEEEclEPS5_.exit.i.i33
  store ptr null, ptr %ref.tmp49, align 8
  br label %if.end60

lpad52:                                           ; preds = %invoke.cont53
  %19 = landingpad { ptr, i32 }
          cleanup
  br label %ehcleanup59

lpad56:                                           ; preds = %invoke.cont55
  %20 = landingpad { ptr, i32 }
          cleanup
  call void @_ZN7testing8internal12AssertHelperD1Ev(ptr noundef nonnull align 8 dereferenceable(8) %ref.tmp51) #23
  br label %ehcleanup59

ehcleanup59:                                      ; preds = %lpad56, %lpad52
  %.pn3 = phi { ptr, i32 } [ %20, %lpad56 ], [ %19, %lpad52 ]
  %21 = load ptr, ptr %ref.tmp49, align 8
  %cmp.not.i.i37 = icmp eq ptr %21, null
  br i1 %cmp.not.i.i37, label %_ZN7testing7MessageD2Ev.exit41, label %_ZNKSt14default_deleteINSt7__cxx1118basic_stringstreamIcSt11char_traitsIcESaIcEEEEclEPS5_.exit.i.i38

_ZNKSt14default_deleteINSt7__cxx1118basic_stringstreamIcSt11char_traitsIcESaIcEEEEclEPS5_.exit.i.i38: ; preds = %ehcleanup59
  %vtable.i.i.i39 = load ptr, ptr %21, align 8
  %vfn.i.i.i40 = getelementptr inbounds ptr, ptr %vtable.i.i.i39, i64 1
  %22 = load ptr, ptr %vfn.i.i.i40, align 8
  call void %22(ptr noundef nonnull align 8 dereferenceable(128) %21) #23
  br label %_ZN7testing7MessageD2Ev.exit41

_ZN7testing7MessageD2Ev.exit41:                   ; preds = %ehcleanup59, %_ZNKSt14default_deleteINSt7__cxx1118basic_stringstreamIcSt11char_traitsIcESaIcEEEEclEPS5_.exit.i.i38
  store ptr null, ptr %ref.tmp49, align 8
  br label %ehcleanup61

if.end60:                                         ; preds = %invoke.cont43, %_ZN7testing7MessageD2Ev.exit36
  %message_.i42 = getelementptr inbounds %"class.testing::AssertionResult", ptr %gtest_ar26, i64 0, i32 1
  %23 = load ptr, ptr %message_.i42, align 8
  %cmp.not.i.i43 = icmp eq ptr %23, null
  br i1 %cmp.not.i.i43, label %_ZN7testing15AssertionResultD2Ev.exit45, label %_ZNKSt14default_deleteINSt7__cxx1112basic_stringIcSt11char_traitsIcESaIcEEEEclEPS5_.exit.i.i44

_ZNKSt14default_deleteINSt7__cxx1112basic_stringIcSt11char_traitsIcESaIcEEEEclEPS5_.exit.i.i44: ; preds = %if.end60
  call void @_ZNSt7__cxx1112basic_stringIcSt11char_traitsIcESaIcEED1Ev(ptr noundef nonnull align 8 dereferenceable(32) %23) #23
  call void @_ZdlPv(ptr noundef nonnull %23) #24
  br label %_ZN7testing15AssertionResultD2Ev.exit45

_ZN7testing15AssertionResultD2Ev.exit45:          ; preds = %if.end60, %_ZNKSt14default_deleteINSt7__cxx1112basic_stringIcSt11char_traitsIcESaIcEEEEclEPS5_.exit.i.i44
  store ptr null, ptr %message_.i42, align 8
  %24 = load ptr, ptr %q, align 8
  %tobool.not.i.i.i46 = icmp eq ptr %24, null
  br i1 %tobool.not.i.i.i46, label %_ZNSt6vectorISt4pairIdmESaIS1_EED2Ev.exit, label %if.then.i.i.i

if.then.i.i.i:                                    ; preds = %_ZN7testing15AssertionResultD2Ev.exit45
  call void @_ZdlPv(ptr noundef nonnull %24) #24
  br label %_ZNSt6vectorISt4pairIdmESaIS1_EED2Ev.exit

_ZNSt6vectorISt4pairIdmESaIS1_EED2Ev.exit:        ; preds = %_ZN7testing15AssertionResultD2Ev.exit45, %if.then.i.i.i
  %25 = load ptr, ptr %p, align 8
  %tobool.not.i.i.i47 = icmp eq ptr %25, null
  br i1 %tobool.not.i.i.i47, label %_ZNSt6vectorIdSaIdEED2Ev.exit, label %if.then.i.i.i48

if.then.i.i.i48:                                  ; preds = %_ZNSt6vectorISt4pairIdmESaIS1_EED2Ev.exit
  call void @_ZdlPv(ptr noundef nonnull %25) #24
  br label %_ZNSt6vectorIdSaIdEED2Ev.exit

_ZNSt6vectorIdSaIdEED2Ev.exit:                    ; preds = %_ZNSt6vectorISt4pairIdmESaIS1_EED2Ev.exit, %if.then.i.i.i48
  %call5.i.i.i.i2.i50 = call noalias noundef nonnull dereferenceable(40) ptr @_Znwm(i64 noundef 40) #25
  store ptr %call5.i.i.i.i2.i50, ptr %p64, align 8
  %add.ptr.i1.i55 = getelementptr inbounds i8, ptr %call5.i.i.i.i2.i50, i64 40
  %_M_end_of_storage.i.i56 = getelementptr inbounds %"struct.std::_Vector_base<double, std::allocator<double>>::_Vector_impl_data", ptr %p64, i64 0, i32 2
  store ptr %add.ptr.i1.i55, ptr %_M_end_of_storage.i.i56, align 8
  call void @llvm.memcpy.p0.p0.i64(ptr noundef nonnull align 8 dereferenceable(40) %call5.i.i.i.i2.i50, ptr noundef nonnull align 8 dereferenceable(40) @constinit.82, i64 40, i1 false)
  %_M_finish.i.i58 = getelementptr inbounds %"struct.std::_Vector_base<double, std::allocator<double>>::_Vector_impl_data", ptr %p64, i64 0, i32 1
  store ptr %add.ptr.i1.i55, ptr %_M_finish.i.i58, align 8
  invoke void @_ZN4absl15random_internal24InitDiscreteDistributionEPSt6vectorIdSaIdEE(ptr nonnull sret(%"class.std::vector.12") align 8 %q75, ptr noundef nonnull %p64)
          to label %invoke.cont88 unwind label %lpad76

invoke.cont88:                                    ; preds = %_ZNSt6vectorIdSaIdEED2Ev.exit
  store <2 x double> <double 0x3FC3B13B13B13B14, double 0x3FD89D89D89D89D9>, ptr %ref.tmp79, align 16
  %agg.tmp8063.sroa.5.0.ref.tmp79.sroa_idx = getelementptr inbounds i8, ptr %ref.tmp79, i64 16
  store <2 x double> <double 0x3FCD89D89D89D89E, double 0x3FC3B13B13B13B14>, ptr %agg.tmp8063.sroa.5.0.ref.tmp79.sroa_idx, align 16
  %agg.tmp8063.sroa.7.0.ref.tmp79.sroa_idx = getelementptr inbounds i8, ptr %ref.tmp79, i64 32
  store double 0x3FB3B13B13B13B14, ptr %agg.tmp8063.sroa.7.0.ref.tmp79.sroa_idx, align 16
  invoke void @_ZNK7testing8internal29PredicateFormatterFromMatcherINS0_18ElementsAreMatcherISt5tupleIJdddddEEEEEclISt6vectorIdSaIdEEEENS_15AssertionResultEPKcRKT_(ptr nonnull sret(%"class.testing::AssertionResult") align 8 %gtest_ar78, ptr noundef nonnull align 8 dereferenceable(40) %ref.tmp79, ptr noundef nonnull @.str.14, ptr noundef nonnull align 8 dereferenceable(24) %p64)
          to label %invoke.cont89 unwind label %lpad86

invoke.cont89:                                    ; preds = %invoke.cont88
  %26 = load i8, ptr %gtest_ar78, align 8
  %27 = and i8 %26, 1
  %tobool.i64.not = icmp eq i8 %27, 0
  br i1 %tobool.i64.not, label %if.else94, label %if.end106

ehcleanup61:                                      ; preds = %_ZN7testing7MessageD2Ev.exit41, %lpad44
  %.pn3.pn = phi { ptr, i32 } [ %.pn3, %_ZN7testing7MessageD2Ev.exit41 ], [ %15, %lpad44 ]
  call void @_ZN7testing15AssertionResultD2Ev(ptr noundef nonnull align 8 dereferenceable(16) %gtest_ar26) #23
  br label %ehcleanup62

ehcleanup62:                                      ; preds = %ehcleanup61, %ehcleanup25, %lpad10
  %.pn3.pn.pn = phi { ptr, i32 } [ %.pn3.pn, %ehcleanup61 ], [ %3, %lpad10 ], [ %.pn.pn, %ehcleanup25 ]
  %28 = load ptr, ptr %q, align 8
  %tobool.not.i.i.i65 = icmp eq ptr %28, null
  br i1 %tobool.not.i.i.i65, label %ehcleanup63, label %if.then.i.i.i66

if.then.i.i.i66:                                  ; preds = %ehcleanup62
  call void @_ZdlPv(ptr noundef nonnull %28) #24
  br label %ehcleanup63

ehcleanup63:                                      ; preds = %if.then.i.i.i66, %ehcleanup62, %lpad3
  %.pn3.pn.pn.pn = phi { ptr, i32 } [ %2, %lpad3 ], [ %.pn3.pn.pn, %ehcleanup62 ], [ %.pn3.pn.pn, %if.then.i.i.i66 ]
  %29 = load ptr, ptr %p, align 8
  %tobool.not.i.i.i68 = icmp eq ptr %29, null
  br i1 %tobool.not.i.i.i68, label %eh.resume, label %eh.resume.sink.split

lpad76:                                           ; preds = %_ZNSt6vectorIdSaIdEED2Ev.exit
  %30 = landingpad { ptr, i32 }
          cleanup
  br label %ehcleanup150

lpad86:                                           ; preds = %invoke.cont129, %invoke.cont88
  %31 = landingpad { ptr, i32 }
          cleanup
  br label %ehcleanup149

lpad90:                                           ; preds = %if.else94
  %32 = landingpad { ptr, i32 }
          cleanup
  br label %ehcleanup107

if.else94:                                        ; preds = %invoke.cont89
  invoke void @_ZN7testing7MessageC1Ev(ptr noundef nonnull align 8 dereferenceable(8) %ref.tmp95)
          to label %invoke.cont96 unwind label %lpad90

invoke.cont96:                                    ; preds = %if.else94
  %message_.i.i72 = getelementptr inbounds %"class.testing::AssertionResult", ptr %gtest_ar78, i64 0, i32 1
  %33 = load ptr, ptr %message_.i.i72, align 8
  %cmp.i.i.not.i.i73 = icmp eq ptr %33, null
  br i1 %cmp.i.i.not.i.i73, label %invoke.cont99, label %cond.true.i.i74

cond.true.i.i74:                                  ; preds = %invoke.cont96
  %call4.i.i75 = call noundef ptr @_ZNKSt7__cxx1112basic_stringIcSt11char_traitsIcESaIcEE5c_strEv(ptr noundef nonnull align 8 dereferenceable(32) %33) #23
  br label %invoke.cont99

invoke.cont99:                                    ; preds = %cond.true.i.i74, %invoke.cont96
  %cond.i.i76 = phi ptr [ %call4.i.i75, %cond.true.i.i74 ], [ @.str, %invoke.cont96 ]
  invoke void @_ZN7testing8internal12AssertHelperC1ENS_14TestPartResult4TypeEPKciS5_(ptr noundef nonnull align 8 dereferenceable(8) %ref.tmp97, i32 noundef 1, ptr noundef nonnull @.str.2, i32 noundef 126, ptr noundef %cond.i.i76)
          to label %invoke.cont101 unwind label %lpad98

invoke.cont101:                                   ; preds = %invoke.cont99
  invoke void @_ZNK7testing8internal12AssertHelperaSERKNS_7MessageE(ptr noundef nonnull align 8 dereferenceable(8) %ref.tmp97, ptr noundef nonnull align 8 dereferenceable(8) %ref.tmp95)
          to label %invoke.cont103 unwind label %lpad102

invoke.cont103:                                   ; preds = %invoke.cont101
  call void @_ZN7testing8internal12AssertHelperD1Ev(ptr noundef nonnull align 8 dereferenceable(8) %ref.tmp97) #23
  %34 = load ptr, ptr %ref.tmp95, align 8
  %cmp.not.i.i78 = icmp eq ptr %34, null
  br i1 %cmp.not.i.i78, label %_ZN7testing7MessageD2Ev.exit82, label %_ZNKSt14default_deleteINSt7__cxx1118basic_stringstreamIcSt11char_traitsIcESaIcEEEEclEPS5_.exit.i.i79

_ZNKSt14default_deleteINSt7__cxx1118basic_stringstreamIcSt11char_traitsIcESaIcEEEEclEPS5_.exit.i.i79: ; preds = %invoke.cont103
  %vtable.i.i.i80 = load ptr, ptr %34, align 8
  %vfn.i.i.i81 = getelementptr inbounds ptr, ptr %vtable.i.i.i80, i64 1
  %35 = load ptr, ptr %vfn.i.i.i81, align 8
  call void %35(ptr noundef nonnull align 8 dereferenceable(128) %34) #23
  br label %_ZN7testing7MessageD2Ev.exit82

_ZN7testing7MessageD2Ev.exit82:                   ; preds = %invoke.cont103, %_ZNKSt14default_deleteINSt7__cxx1118basic_stringstreamIcSt11char_traitsIcESaIcEEEEclEPS5_.exit.i.i79
  store ptr null, ptr %ref.tmp95, align 8
  br label %if.end106

lpad98:                                           ; preds = %invoke.cont99
  %36 = landingpad { ptr, i32 }
          cleanup
  br label %ehcleanup105

lpad102:                                          ; preds = %invoke.cont101
  %37 = landingpad { ptr, i32 }
          cleanup
  call void @_ZN7testing8internal12AssertHelperD1Ev(ptr noundef nonnull align 8 dereferenceable(8) %ref.tmp97) #23
  br label %ehcleanup105

ehcleanup105:                                     ; preds = %lpad102, %lpad98
  %.pn8 = phi { ptr, i32 } [ %37, %lpad102 ], [ %36, %lpad98 ]
  %38 = load ptr, ptr %ref.tmp95, align 8
  %cmp.not.i.i83 = icmp eq ptr %38, null
  br i1 %cmp.not.i.i83, label %_ZN7testing7MessageD2Ev.exit87, label %_ZNKSt14default_deleteINSt7__cxx1118basic_stringstreamIcSt11char_traitsIcESaIcEEEEclEPS5_.exit.i.i84

_ZNKSt14default_deleteINSt7__cxx1118basic_stringstreamIcSt11char_traitsIcESaIcEEEEclEPS5_.exit.i.i84: ; preds = %ehcleanup105
  %vtable.i.i.i85 = load ptr, ptr %38, align 8
  %vfn.i.i.i86 = getelementptr inbounds ptr, ptr %vtable.i.i.i85, i64 1
  %39 = load ptr, ptr %vfn.i.i.i86, align 8
  call void %39(ptr noundef nonnull align 8 dereferenceable(128) %38) #23
  br label %_ZN7testing7MessageD2Ev.exit87

_ZN7testing7MessageD2Ev.exit87:                   ; preds = %ehcleanup105, %_ZNKSt14default_deleteINSt7__cxx1118basic_stringstreamIcSt11char_traitsIcESaIcEEEEclEPS5_.exit.i.i84
  store ptr null, ptr %ref.tmp95, align 8
  br label %ehcleanup107

if.end106:                                        ; preds = %invoke.cont89, %_ZN7testing7MessageD2Ev.exit82
  %message_.i88 = getelementptr inbounds %"class.testing::AssertionResult", ptr %gtest_ar78, i64 0, i32 1
  %40 = load ptr, ptr %message_.i88, align 8
  %cmp.not.i.i89 = icmp eq ptr %40, null
  br i1 %cmp.not.i.i89, label %invoke.cont129, label %_ZNKSt14default_deleteINSt7__cxx1112basic_stringIcSt11char_traitsIcESaIcEEEEclEPS5_.exit.i.i90

_ZNKSt14default_deleteINSt7__cxx1112basic_stringIcSt11char_traitsIcESaIcEEEEclEPS5_.exit.i.i90: ; preds = %if.end106
  call void @_ZNSt7__cxx1112basic_stringIcSt11char_traitsIcESaIcEED1Ev(ptr noundef nonnull align 8 dereferenceable(32) %40) #23
  call void @_ZdlPv(ptr noundef nonnull %40) #24
  br label %invoke.cont129

invoke.cont129:                                   ; preds = %_ZNKSt14default_deleteINSt7__cxx1112basic_stringIcSt11char_traitsIcESaIcEEEEclEPS5_.exit.i.i90, %if.end106
  store ptr null, ptr %message_.i88, align 8
  store double 0x3FE89D89D89D89D9, ptr %ref.tmp109, align 8
  %agg.tmp11095.sroa.4.0.ref.tmp109.sroa_idx = getelementptr inbounds i8, ptr %ref.tmp109, i64 8
  store i32 3, ptr %agg.tmp11095.sroa.4.0.ref.tmp109.sroa_idx, align 8
  %agg.tmp11095.sroa.6.0.ref.tmp109.sroa_idx = getelementptr inbounds i8, ptr %ref.tmp109, i64 16
  store double 0x3FEB13B13B13B13C, ptr %agg.tmp11095.sroa.6.0.ref.tmp109.sroa_idx, align 8
  %agg.tmp11095.sroa.7.0.ref.tmp109.sroa_idx = getelementptr inbounds i8, ptr %ref.tmp109, i64 24
  store i32 2, ptr %agg.tmp11095.sroa.7.0.ref.tmp109.sroa_idx, align 8
  %agg.tmp11095.sroa.9.0.ref.tmp109.sroa_idx = getelementptr inbounds i8, ptr %ref.tmp109, i64 32
  store double 1.000000e+00, ptr %agg.tmp11095.sroa.9.0.ref.tmp109.sroa_idx, align 8
  %agg.tmp11095.sroa.11.0.ref.tmp109.sroa_idx = getelementptr inbounds i8, ptr %ref.tmp109, i64 48
  store double 0x3FE89D89D89D89D9, ptr %agg.tmp11095.sroa.11.0.ref.tmp109.sroa_idx, align 8
  %agg.tmp11095.sroa.12.0.ref.tmp109.sroa_idx = getelementptr inbounds i8, ptr %ref.tmp109, i64 56
  store i32 3, ptr %agg.tmp11095.sroa.12.0.ref.tmp109.sroa_idx, align 8
  %agg.tmp11095.sroa.14.0.ref.tmp109.sroa_idx = getelementptr inbounds i8, ptr %ref.tmp109, i64 64
  store double 0x3FD89D89D89D89D9, ptr %agg.tmp11095.sroa.14.0.ref.tmp109.sroa_idx, align 8
  %agg.tmp11095.sroa.15.0.ref.tmp109.sroa_idx = getelementptr inbounds i8, ptr %ref.tmp109, i64 72
  store i32 3, ptr %agg.tmp11095.sroa.15.0.ref.tmp109.sroa_idx, align 8
  invoke void @_ZNK7testing8internal29PredicateFormatterFromMatcherINS0_18ElementsAreMatcherISt5tupleIJNS0_11PairMatcherIdiEES5_NS4_IdNS0_15AnythingMatcherEEES5_S5_EEEEEclISt6vectorISt4pairIdmESaISE_EEEENS_15AssertionResultEPKcRKT_(ptr nonnull sret(%"class.testing::AssertionResult") align 8 %gtest_ar108, ptr noundef nonnull align 8 dereferenceable(80) %ref.tmp109, ptr noundef nonnull @.str.15, ptr noundef nonnull align 8 dereferenceable(24) %q75)
          to label %invoke.cont130 unwind label %lpad86

invoke.cont130:                                   ; preds = %invoke.cont129
  %41 = load i8, ptr %gtest_ar108, align 8
  %42 = and i8 %41, 1
  %tobool.i96.not = icmp eq i8 %42, 0
  br i1 %tobool.i96.not, label %if.else135, label %if.end147

ehcleanup107:                                     ; preds = %_ZN7testing7MessageD2Ev.exit87, %lpad90
  %.pn8.pn = phi { ptr, i32 } [ %.pn8, %_ZN7testing7MessageD2Ev.exit87 ], [ %32, %lpad90 ]
  call void @_ZN7testing15AssertionResultD2Ev(ptr noundef nonnull align 8 dereferenceable(16) %gtest_ar78) #23
  br label %ehcleanup149

lpad131:                                          ; preds = %if.else135
  %43 = landingpad { ptr, i32 }
          cleanup
  br label %ehcleanup148

if.else135:                                       ; preds = %invoke.cont130
  invoke void @_ZN7testing7MessageC1Ev(ptr noundef nonnull align 8 dereferenceable(8) %ref.tmp136)
          to label %invoke.cont137 unwind label %lpad131

invoke.cont137:                                   ; preds = %if.else135
  %message_.i.i97 = getelementptr inbounds %"class.testing::AssertionResult", ptr %gtest_ar108, i64 0, i32 1
  %44 = load ptr, ptr %message_.i.i97, align 8
  %cmp.i.i.not.i.i98 = icmp eq ptr %44, null
  br i1 %cmp.i.i.not.i.i98, label %invoke.cont140, label %cond.true.i.i99

cond.true.i.i99:                                  ; preds = %invoke.cont137
  %call4.i.i100 = call noundef ptr @_ZNKSt7__cxx1112basic_stringIcSt11char_traitsIcESaIcEE5c_strEv(ptr noundef nonnull align 8 dereferenceable(32) %44) #23
  br label %invoke.cont140

invoke.cont140:                                   ; preds = %cond.true.i.i99, %invoke.cont137
  %cond.i.i101 = phi ptr [ %call4.i.i100, %cond.true.i.i99 ], [ @.str, %invoke.cont137 ]
  invoke void @_ZN7testing8internal12AssertHelperC1ENS_14TestPartResult4TypeEPKciS5_(ptr noundef nonnull align 8 dereferenceable(8) %ref.tmp138, i32 noundef 1, ptr noundef nonnull @.str.2, i32 noundef 141, ptr noundef %cond.i.i101)
          to label %invoke.cont142 unwind label %lpad139

invoke.cont142:                                   ; preds = %invoke.cont140
  invoke void @_ZNK7testing8internal12AssertHelperaSERKNS_7MessageE(ptr noundef nonnull align 8 dereferenceable(8) %ref.tmp138, ptr noundef nonnull align 8 dereferenceable(8) %ref.tmp136)
          to label %invoke.cont144 unwind label %lpad143

invoke.cont144:                                   ; preds = %invoke.cont142
  call void @_ZN7testing8internal12AssertHelperD1Ev(ptr noundef nonnull align 8 dereferenceable(8) %ref.tmp138) #23
  %45 = load ptr, ptr %ref.tmp136, align 8
  %cmp.not.i.i103 = icmp eq ptr %45, null
  br i1 %cmp.not.i.i103, label %_ZN7testing7MessageD2Ev.exit107, label %_ZNKSt14default_deleteINSt7__cxx1118basic_stringstreamIcSt11char_traitsIcESaIcEEEEclEPS5_.exit.i.i104

_ZNKSt14default_deleteINSt7__cxx1118basic_stringstreamIcSt11char_traitsIcESaIcEEEEclEPS5_.exit.i.i104: ; preds = %invoke.cont144
  %vtable.i.i.i105 = load ptr, ptr %45, align 8
  %vfn.i.i.i106 = getelementptr inbounds ptr, ptr %vtable.i.i.i105, i64 1
  %46 = load ptr, ptr %vfn.i.i.i106, align 8
  call void %46(ptr noundef nonnull align 8 dereferenceable(128) %45) #23
  br label %_ZN7testing7MessageD2Ev.exit107

_ZN7testing7MessageD2Ev.exit107:                  ; preds = %invoke.cont144, %_ZNKSt14default_deleteINSt7__cxx1118basic_stringstreamIcSt11char_traitsIcESaIcEEEEclEPS5_.exit.i.i104
  store ptr null, ptr %ref.tmp136, align 8
  br label %if.end147

lpad139:                                          ; preds = %invoke.cont140
  %47 = landingpad { ptr, i32 }
          cleanup
  br label %ehcleanup146

lpad143:                                          ; preds = %invoke.cont142
  %48 = landingpad { ptr, i32 }
          cleanup
  call void @_ZN7testing8internal12AssertHelperD1Ev(ptr noundef nonnull align 8 dereferenceable(8) %ref.tmp138) #23
  br label %ehcleanup146

ehcleanup146:                                     ; preds = %lpad143, %lpad139
  %.pn11 = phi { ptr, i32 } [ %48, %lpad143 ], [ %47, %lpad139 ]
  %49 = load ptr, ptr %ref.tmp136, align 8
  %cmp.not.i.i108 = icmp eq ptr %49, null
  br i1 %cmp.not.i.i108, label %_ZN7testing7MessageD2Ev.exit112, label %_ZNKSt14default_deleteINSt7__cxx1118basic_stringstreamIcSt11char_traitsIcESaIcEEEEclEPS5_.exit.i.i109

_ZNKSt14default_deleteINSt7__cxx1118basic_stringstreamIcSt11char_traitsIcESaIcEEEEclEPS5_.exit.i.i109: ; preds = %ehcleanup146
  %vtable.i.i.i110 = load ptr, ptr %49, align 8
  %vfn.i.i.i111 = getelementptr inbounds ptr, ptr %vtable.i.i.i110, i64 1
  %50 = load ptr, ptr %vfn.i.i.i111, align 8
  call void %50(ptr noundef nonnull align 8 dereferenceable(128) %49) #23
  br label %_ZN7testing7MessageD2Ev.exit112

_ZN7testing7MessageD2Ev.exit112:                  ; preds = %ehcleanup146, %_ZNKSt14default_deleteINSt7__cxx1118basic_stringstreamIcSt11char_traitsIcESaIcEEEEclEPS5_.exit.i.i109
  store ptr null, ptr %ref.tmp136, align 8
  br label %ehcleanup148

if.end147:                                        ; preds = %invoke.cont130, %_ZN7testing7MessageD2Ev.exit107
  %message_.i113 = getelementptr inbounds %"class.testing::AssertionResult", ptr %gtest_ar108, i64 0, i32 1
  %51 = load ptr, ptr %message_.i113, align 8
  %cmp.not.i.i114 = icmp eq ptr %51, null
  br i1 %cmp.not.i.i114, label %_ZN7testing15AssertionResultD2Ev.exit116, label %_ZNKSt14default_deleteINSt7__cxx1112basic_stringIcSt11char_traitsIcESaIcEEEEclEPS5_.exit.i.i115

_ZNKSt14default_deleteINSt7__cxx1112basic_stringIcSt11char_traitsIcESaIcEEEEclEPS5_.exit.i.i115: ; preds = %if.end147
  call void @_ZNSt7__cxx1112basic_stringIcSt11char_traitsIcESaIcEED1Ev(ptr noundef nonnull align 8 dereferenceable(32) %51) #23
  call void @_ZdlPv(ptr noundef nonnull %51) #24
  br label %_ZN7testing15AssertionResultD2Ev.exit116

_ZN7testing15AssertionResultD2Ev.exit116:         ; preds = %if.end147, %_ZNKSt14default_deleteINSt7__cxx1112basic_stringIcSt11char_traitsIcESaIcEEEEclEPS5_.exit.i.i115
  store ptr null, ptr %message_.i113, align 8
  %52 = load ptr, ptr %q75, align 8
  %tobool.not.i.i.i117 = icmp eq ptr %52, null
  br i1 %tobool.not.i.i.i117, label %_ZNSt6vectorISt4pairIdmESaIS1_EED2Ev.exit119, label %if.then.i.i.i118

if.then.i.i.i118:                                 ; preds = %_ZN7testing15AssertionResultD2Ev.exit116
  call void @_ZdlPv(ptr noundef nonnull %52) #24
  br label %_ZNSt6vectorISt4pairIdmESaIS1_EED2Ev.exit119

_ZNSt6vectorISt4pairIdmESaIS1_EED2Ev.exit119:     ; preds = %_ZN7testing15AssertionResultD2Ev.exit116, %if.then.i.i.i118
  %53 = load ptr, ptr %p64, align 8
  %tobool.not.i.i.i120 = icmp eq ptr %53, null
  br i1 %tobool.not.i.i.i120, label %_ZNSt6vectorIdSaIdEED2Ev.exit123, label %if.then.i.i.i121

if.then.i.i.i121:                                 ; preds = %_ZNSt6vectorISt4pairIdmESaIS1_EED2Ev.exit119
  call void @_ZdlPv(ptr noundef nonnull %53) #24
  br label %_ZNSt6vectorIdSaIdEED2Ev.exit123

_ZNSt6vectorIdSaIdEED2Ev.exit123:                 ; preds = %_ZNSt6vectorISt4pairIdmESaIS1_EED2Ev.exit119, %if.then.i.i.i121
  ret void

ehcleanup148:                                     ; preds = %_ZN7testing7MessageD2Ev.exit112, %lpad131
  %.pn11.pn = phi { ptr, i32 } [ %.pn11, %_ZN7testing7MessageD2Ev.exit112 ], [ %43, %lpad131 ]
  call void @_ZN7testing15AssertionResultD2Ev(ptr noundef nonnull align 8 dereferenceable(16) %gtest_ar108) #23
  br label %ehcleanup149

ehcleanup149:                                     ; preds = %ehcleanup148, %ehcleanup107, %lpad86
  %.pn11.pn.pn = phi { ptr, i32 } [ %.pn11.pn, %ehcleanup148 ], [ %31, %lpad86 ], [ %.pn8.pn, %ehcleanup107 ]
  %54 = load ptr, ptr %q75, align 8
  %tobool.not.i.i.i124 = icmp eq ptr %54, null
  br i1 %tobool.not.i.i.i124, label %ehcleanup150, label %if.then.i.i.i125

if.then.i.i.i125:                                 ; preds = %ehcleanup149
  call void @_ZdlPv(ptr noundef nonnull %54) #24
  br label %ehcleanup150

ehcleanup150:                                     ; preds = %if.then.i.i.i125, %ehcleanup149, %lpad76
  %.pn11.pn.pn.pn = phi { ptr, i32 } [ %30, %lpad76 ], [ %.pn11.pn.pn, %ehcleanup149 ], [ %.pn11.pn.pn, %if.then.i.i.i125 ]
  %55 = load ptr, ptr %p64, align 8
  %tobool.not.i.i.i127 = icmp eq ptr %55, null
  br i1 %tobool.not.i.i.i127, label %eh.resume, label %eh.resume.sink.split

eh.resume.sink.split:                             ; preds = %ehcleanup150, %ehcleanup63
  %.sink = phi ptr [ %29, %ehcleanup63 ], [ %55, %ehcleanup150 ]
  %.pn11.pn.pn.pn.pn.ph = phi { ptr, i32 } [ %.pn3.pn.pn.pn, %ehcleanup63 ], [ %.pn11.pn.pn.pn, %ehcleanup150 ]
  call void @_ZdlPv(ptr noundef nonnull %.sink) #24
  br label %eh.resume

eh.resume:                                        ; preds = %eh.resume.sink.split, %ehcleanup150, %ehcleanup63
  %.pn11.pn.pn.pn.pn = phi { ptr, i32 } [ %.pn3.pn.pn.pn, %ehcleanup63 ], [ %.pn11.pn.pn.pn, %ehcleanup150 ], [ %.pn11.pn.pn.pn.pn.ph, %eh.resume.sink.split ]
  resume { ptr, i32 } %.pn11.pn.pn.pn.pn
}

; Function Attrs: mustprogress nounwind uwtable
define linkonce_odr dso_local noundef ptr @_ZN7testing4Test5SetupEv(ptr noundef nonnull align 8 dereferenceable(16) %this) unnamed_addr #3 comdat align 2 {
entry:
  ret ptr null
}

; Function Attrs: nounwind
declare void @_ZN7testing4TestD2Ev(ptr noundef nonnull align 8 dereferenceable(16)) unnamed_addr #1

; Function Attrs: mustprogress nocallback nofree nounwind willreturn memory(argmem: readwrite)
declare void @llvm.memcpy.p0.p0.i64(ptr noalias nocapture writeonly, ptr noalias nocapture readonly, i64, i1 immarg) #8

declare void @_ZN4absl15random_internal24InitDiscreteDistributionEPSt6vectorIdSaIdEE(ptr sret(%"class.std::vector.12") align 8, ptr noundef) local_unnamed_addr #0

; Function Attrs: mustprogress uwtable
define linkonce_odr dso_local void @_ZNK7testing8internal29PredicateFormatterFromMatcherINS0_18ElementsAreMatcherISt5tupleIJdddEEEEEclISt6vectorIdSaIdEEEENS_15AssertionResultEPKcRKT_(ptr noalias sret(%"class.testing::AssertionResult") align 8 %agg.result, ptr noundef nonnull align 8 dereferenceable(24) %this, ptr noundef %value_text, ptr noundef nonnull align 8 dereferenceable(24) %x) local_unnamed_addr #4 comdat align 2 personality ptr @__gxx_personality_v0 {
entry:
  %ref.tmp.i16 = alloca %"class.testing::Message", align 8
  %ref.tmp.i = alloca %"class.testing::internal::GTestLog", align 4
  %ref.tmp.i.i = alloca %"class.testing::internal::GTestLog", align 4
  %dummy.i = alloca %"class.testing::internal::DummyMatchResultListener", align 8
  %matcher = alloca %"class.testing::Matcher", align 8
  %ss = alloca %"class.std::__cxx11::basic_stringstream", align 8
  %listener = alloca %"class.testing::StringMatchResultListener", align 8
  %ref.tmp = alloca %"class.std::__cxx11::basic_string", align 8
  %ref.tmp31 = alloca %"class.testing::AssertionResult", align 8
  %ref.tmp33 = alloca %"class.std::__cxx11::basic_string", align 8
  call void @_ZNK7testing8internal18ElementsAreMatcherISt5tupleIJdddEEEcvNS_7MatcherIT_EEIRKSt6vectorIdSaIdEEEEv(ptr nonnull sret(%"class.testing::Matcher") align 8 %matcher, ptr noundef nonnull align 8 dereferenceable(24) %this)
  call void @llvm.lifetime.start.p0(i64 16, ptr nonnull %dummy.i)
  %stream_.i.i.i = getelementptr inbounds %"class.testing::MatchResultListener", ptr %dummy.i, i64 0, i32 1
  store ptr null, ptr %stream_.i.i.i, align 8
  store ptr getelementptr inbounds ({ [4 x ptr] }, ptr @_ZTVN7testing8internal24DummyMatchResultListenerE, i64 0, inrange i32 0, i64 2), ptr %dummy.i, align 8
  call void @llvm.lifetime.start.p0(i64 4, ptr nonnull %ref.tmp.i.i)
  %vtable_.i.i = getelementptr inbounds %"class.testing::internal::MatcherBase", ptr %matcher, i64 0, i32 1
  %0 = load ptr, ptr %vtable_.i.i, align 8
  %cmp.i.i = icmp ne ptr %0, null
  %call.i1.i7 = invoke noundef zeroext i1 @_ZN7testing8internal6IsTrueEb(i1 noundef zeroext %cmp.i.i)
          to label %call.i1.i.noexc unwind label %lpad

call.i1.i.noexc:                                  ; preds = %entry
  br i1 %call.i1.i7, label %if.end.i.i, label %if.else.i.i

if.else.i.i:                                      ; preds = %call.i1.i.noexc
  invoke void @_ZN7testing8internal8GTestLogC1ENS0_16GTestLogSeverityEPKci(ptr noundef nonnull align 4 dereferenceable(4) %ref.tmp.i.i, i32 noundef 3, ptr noundef nonnull @.str.26, i32 noundef 233)
          to label %.noexc unwind label %lpad

.noexc:                                           ; preds = %if.else.i.i
  %call3.i.i = invoke noundef nonnull align 8 dereferenceable(8) ptr @_ZStlsISt11char_traitsIcEERSt13basic_ostreamIcT_ES5_PKc(ptr noundef nonnull align 8 dereferenceable(8) @_ZSt4cerr, ptr noundef nonnull @.str.27)
          to label %invoke.cont.i.i unwind label %lpad.i.i

invoke.cont.i.i:                                  ; preds = %.noexc
  call void @_ZN7testing8internal8GTestLogD1Ev(ptr noundef nonnull align 4 dereferenceable(4) %ref.tmp.i.i) #23
  br label %if.end.i.i

lpad.i.i:                                         ; preds = %.noexc
  %1 = landingpad { ptr, i32 }
          cleanup
  call void @_ZN7testing8internal8GTestLogD1Ev(ptr noundef nonnull align 4 dereferenceable(4) %ref.tmp.i.i) #23
  br label %ehcleanup42

if.end.i.i:                                       ; preds = %invoke.cont.i.i, %call.i1.i.noexc
  %2 = load ptr, ptr %vtable_.i.i, align 8
  %3 = load ptr, ptr %2, align 8
  %call5.i2.i8 = invoke noundef zeroext i1 %3(ptr noundef nonnull align 8 dereferenceable(24) %matcher, ptr noundef nonnull align 8 dereferenceable(24) %x, ptr noundef nonnull %dummy.i)
          to label %invoke.cont unwind label %lpad

invoke.cont:                                      ; preds = %if.end.i.i
  call void @llvm.lifetime.end.p0(i64 4, ptr nonnull %ref.tmp.i.i)
  call void @llvm.lifetime.end.p0(i64 16, ptr nonnull %dummy.i)
  br i1 %call5.i2.i8, label %if.then, label %if.end

if.then:                                          ; preds = %invoke.cont
  invoke void @_ZN7testing16AssertionSuccessEv(ptr sret(%"class.testing::AssertionResult") align 8 %agg.result)
          to label %cleanup unwind label %lpad

lpad:                                             ; preds = %if.end.i.i, %if.else.i.i, %entry, %if.end, %if.then
  %4 = landingpad { ptr, i32 }
          cleanup
  br label %ehcleanup42

if.end:                                           ; preds = %invoke.cont
  invoke void @_ZNSt7__cxx1118basic_stringstreamIcSt11char_traitsIcESaIcEEC1Ev(ptr noundef nonnull align 8 dereferenceable(128) %ss)
          to label %invoke.cont3 unwind label %lpad

invoke.cont3:                                     ; preds = %if.end
  %add.ptr = getelementptr inbounds i8, ptr %ss, i64 16
  %call6 = invoke noundef nonnull align 8 dereferenceable(8) ptr @_ZStlsISt11char_traitsIcEERSt13basic_ostreamIcT_ES5_PKc(ptr noundef nonnull align 8 dereferenceable(8) %add.ptr, ptr noundef nonnull @.str.18)
          to label %invoke.cont5 unwind label %lpad4

invoke.cont5:                                     ; preds = %invoke.cont3
  %call8 = invoke noundef nonnull align 8 dereferenceable(8) ptr @_ZStlsISt11char_traitsIcEERSt13basic_ostreamIcT_ES5_PKc(ptr noundef nonnull align 8 dereferenceable(8) %call6, ptr noundef %value_text)
          to label %invoke.cont7 unwind label %lpad4

invoke.cont7:                                     ; preds = %invoke.cont5
  %call10 = invoke noundef nonnull align 8 dereferenceable(8) ptr @_ZStlsISt11char_traitsIcEERSt13basic_ostreamIcT_ES5_PKc(ptr noundef nonnull align 8 dereferenceable(8) %call8, ptr noundef nonnull @.str.19)
          to label %invoke.cont9 unwind label %lpad4

invoke.cont9:                                     ; preds = %invoke.cont7
  %call12 = invoke noundef nonnull align 8 dereferenceable(8) ptr @_ZStlsISt11char_traitsIcEERSt13basic_ostreamIcT_ES5_PKc(ptr noundef nonnull align 8 dereferenceable(8) %call10, ptr noundef nonnull @.str.20)
          to label %invoke.cont11 unwind label %lpad4

invoke.cont11:                                    ; preds = %invoke.cont9
  call void @llvm.lifetime.start.p0(i64 4, ptr nonnull %ref.tmp.i)
  %5 = load ptr, ptr %vtable_.i.i, align 8
  %cmp.i = icmp ne ptr %5, null
  %call.i9 = invoke noundef zeroext i1 @_ZN7testing8internal6IsTrueEb(i1 noundef zeroext %cmp.i)
          to label %call.i.noexc unwind label %lpad4

call.i.noexc:                                     ; preds = %invoke.cont11
  br i1 %call.i9, label %if.end.i, label %if.else.i

if.else.i:                                        ; preds = %call.i.noexc
  invoke void @_ZN7testing8internal8GTestLogC1ENS0_16GTestLogSeverityEPKci(ptr noundef nonnull align 4 dereferenceable(4) %ref.tmp.i, i32 noundef 3, ptr noundef nonnull @.str.26, i32 noundef 245)
          to label %.noexc10 unwind label %lpad4

.noexc10:                                         ; preds = %if.else.i
  %call3.i = invoke noundef nonnull align 8 dereferenceable(8) ptr @_ZStlsISt11char_traitsIcEERSt13basic_ostreamIcT_ES5_PKc(ptr noundef nonnull align 8 dereferenceable(8) @_ZSt4cerr, ptr noundef nonnull @.str.27)
          to label %invoke.cont.i unwind label %lpad.i

invoke.cont.i:                                    ; preds = %.noexc10
  call void @_ZN7testing8internal8GTestLogD1Ev(ptr noundef nonnull align 4 dereferenceable(4) %ref.tmp.i) #23
  br label %if.end.i

lpad.i:                                           ; preds = %.noexc10
  %6 = landingpad { ptr, i32 }
          cleanup
  call void @_ZN7testing8internal8GTestLogD1Ev(ptr noundef nonnull align 4 dereferenceable(4) %ref.tmp.i) #23
  br label %ehcleanup41

if.end.i:                                         ; preds = %invoke.cont.i, %call.i.noexc
  %7 = load ptr, ptr %vtable_.i.i, align 8
  %describe.i = getelementptr inbounds %"struct.testing::internal::MatcherBase<const std::vector<double> &>::VTable", ptr %7, i64 0, i32 1
  %8 = load ptr, ptr %describe.i, align 8
  invoke void %8(ptr noundef nonnull align 8 dereferenceable(24) %matcher, ptr noundef nonnull %add.ptr, i1 noundef zeroext false)
          to label %invoke.cont14 unwind label %lpad4

invoke.cont14:                                    ; preds = %if.end.i
  call void @llvm.lifetime.end.p0(i64 4, ptr nonnull %ref.tmp.i)
  %ss_.i = getelementptr inbounds %"class.testing::StringMatchResultListener", ptr %listener, i64 0, i32 1
  %add.ptr.i = getelementptr inbounds %"class.testing::StringMatchResultListener", ptr %listener, i64 0, i32 1, i32 0, i32 1
  %stream_.i.i = getelementptr inbounds %"class.testing::MatchResultListener", ptr %listener, i64 0, i32 1
  store ptr %add.ptr.i, ptr %stream_.i.i, align 8
  store ptr getelementptr inbounds ({ [4 x ptr] }, ptr @_ZTVN7testing25StringMatchResultListenerE, i64 0, inrange i32 0, i64 2), ptr %listener, align 8
  invoke void @_ZNSt7__cxx1118basic_stringstreamIcSt11char_traitsIcESaIcEEC1Ev(ptr noundef nonnull align 8 dereferenceable(128) %ss_.i)
          to label %invoke.cont15 unwind label %lpad4

invoke.cont15:                                    ; preds = %invoke.cont14
  %call18 = invoke noundef zeroext i1 @_ZN7testing8internal20MatchPrintAndExplainIKSt6vectorIdSaIdEERS5_EEbRT_RKNS_7MatcherIT0_EEPNS_19MatchResultListenerE(ptr noundef nonnull align 8 dereferenceable(24) %x, ptr noundef nonnull align 8 dereferenceable(24) %matcher, ptr noundef nonnull %listener)
          to label %invoke.cont17 unwind label %lpad16

invoke.cont17:                                    ; preds = %invoke.cont15
  br i1 %call18, label %if.then19, label %if.end23

if.then19:                                        ; preds = %invoke.cont17
  %call22 = invoke noundef nonnull align 8 dereferenceable(8) ptr @_ZStlsISt11char_traitsIcEERSt13basic_ostreamIcT_ES5_PKc(ptr noundef nonnull align 8 dereferenceable(8) %add.ptr, ptr noundef nonnull @.str.21)
          to label %if.end23 unwind label %lpad16

lpad4:                                            ; preds = %invoke.cont14, %if.end.i, %if.else.i, %invoke.cont11, %invoke.cont9, %invoke.cont7, %invoke.cont5, %invoke.cont3
  %9 = landingpad { ptr, i32 }
          cleanup
  br label %ehcleanup41

lpad16:                                           ; preds = %invoke.cont25, %invoke.cont29, %if.end23, %if.then19, %invoke.cont15
  %10 = landingpad { ptr, i32 }
          cleanup
  br label %ehcleanup40

if.end23:                                         ; preds = %if.then19, %invoke.cont17
  %call26 = invoke noundef nonnull align 8 dereferenceable(8) ptr @_ZStlsISt11char_traitsIcEERSt13basic_ostreamIcT_ES5_PKc(ptr noundef nonnull align 8 dereferenceable(8) %add.ptr, ptr noundef nonnull @.str.22)
          to label %invoke.cont25 unwind label %lpad16

invoke.cont25:                                    ; preds = %if.end23
  invoke void @_ZNKSt7__cxx1118basic_stringstreamIcSt11char_traitsIcESaIcEE3strEv(ptr nonnull sret(%"class.std::__cxx11::basic_string") align 8 %ref.tmp, ptr noundef nonnull align 8 dereferenceable(128) %ss_.i)
          to label %invoke.cont27 unwind label %lpad16

invoke.cont27:                                    ; preds = %invoke.cont25
  %call30 = invoke noundef nonnull align 8 dereferenceable(8) ptr @_ZStlsIcSt11char_traitsIcESaIcEERSt13basic_ostreamIT_T0_ES7_RKNSt7__cxx1112basic_stringIS4_S5_T1_EE(ptr noundef nonnull align 8 dereferenceable(8) %call26, ptr noundef nonnull align 8 dereferenceable(32) %ref.tmp)
          to label %invoke.cont29 unwind label %lpad28

invoke.cont29:                                    ; preds = %invoke.cont27
  call void @_ZNSt7__cxx1112basic_stringIcSt11char_traitsIcESaIcEED1Ev(ptr noundef nonnull align 8 dereferenceable(32) %ref.tmp) #23
  invoke void @_ZN7testing16AssertionFailureEv(ptr nonnull sret(%"class.testing::AssertionResult") align 8 %ref.tmp31)
          to label %invoke.cont32 unwind label %lpad16

invoke.cont32:                                    ; preds = %invoke.cont29
  invoke void @_ZNKSt7__cxx1118basic_stringstreamIcSt11char_traitsIcESaIcEE3strEv(ptr nonnull sret(%"class.std::__cxx11::basic_string") align 8 %ref.tmp33, ptr noundef nonnull align 8 dereferenceable(128) %ss)
          to label %invoke.cont35 unwind label %lpad34

invoke.cont35:                                    ; preds = %invoke.cont32
  call void @llvm.lifetime.start.p0(i64 8, ptr nonnull %ref.tmp.i16)
  invoke void @_ZN7testing7MessageC1Ev(ptr noundef nonnull align 8 dereferenceable(8) %ref.tmp.i16)
          to label %.noexc19 unwind label %lpad36

.noexc19:                                         ; preds = %invoke.cont35
  %11 = load ptr, ptr %ref.tmp.i16, align 8
  %add.ptr.i.i = getelementptr inbounds i8, ptr %11, i64 16
  %call2.i1.i = invoke noundef nonnull align 8 dereferenceable(8) ptr @_ZStlsIcSt11char_traitsIcESaIcEERSt13basic_ostreamIT_T0_ES7_RKNSt7__cxx1112basic_stringIS4_S5_T1_EE(ptr noundef nonnull align 8 dereferenceable(8) %add.ptr.i.i, ptr noundef nonnull align 8 dereferenceable(32) %ref.tmp33)
          to label %invoke.cont.i18 unwind label %lpad.i17

invoke.cont.i18:                                  ; preds = %.noexc19
  invoke void @_ZN7testing15AssertionResult13AppendMessageERKNS_7MessageE(ptr noundef nonnull align 8 dereferenceable(16) %ref.tmp31, ptr noundef nonnull align 8 dereferenceable(8) %ref.tmp.i16)
          to label %invoke.cont2.i unwind label %lpad.i17

invoke.cont2.i:                                   ; preds = %invoke.cont.i18
  %12 = load ptr, ptr %ref.tmp.i16, align 8
  %cmp.not.i.i.i = icmp eq ptr %12, null
  br i1 %cmp.not.i.i.i, label %invoke.cont37, label %_ZNKSt14default_deleteINSt7__cxx1118basic_stringstreamIcSt11char_traitsIcESaIcEEEEclEPS5_.exit.i.i.i

_ZNKSt14default_deleteINSt7__cxx1118basic_stringstreamIcSt11char_traitsIcESaIcEEEEclEPS5_.exit.i.i.i: ; preds = %invoke.cont2.i
  %vtable.i.i.i.i = load ptr, ptr %12, align 8
  %vfn.i.i.i.i = getelementptr inbounds ptr, ptr %vtable.i.i.i.i, i64 1
  %13 = load ptr, ptr %vfn.i.i.i.i, align 8
  call void %13(ptr noundef nonnull align 8 dereferenceable(128) %12) #23
  br label %invoke.cont37

lpad.i17:                                         ; preds = %invoke.cont.i18, %.noexc19
  %14 = landingpad { ptr, i32 }
          cleanup
  %15 = load ptr, ptr %ref.tmp.i16, align 8
  %cmp.not.i.i2.i = icmp eq ptr %15, null
  br i1 %cmp.not.i.i2.i, label %lpad36.body, label %_ZNKSt14default_deleteINSt7__cxx1118basic_stringstreamIcSt11char_traitsIcESaIcEEEEclEPS5_.exit.i.i3.i

_ZNKSt14default_deleteINSt7__cxx1118basic_stringstreamIcSt11char_traitsIcESaIcEEEEclEPS5_.exit.i.i3.i: ; preds = %lpad.i17
  %vtable.i.i.i4.i = load ptr, ptr %15, align 8
  %vfn.i.i.i5.i = getelementptr inbounds ptr, ptr %vtable.i.i.i4.i, i64 1
  %16 = load ptr, ptr %vfn.i.i.i5.i, align 8
  call void %16(ptr noundef nonnull align 8 dereferenceable(128) %15) #23
  br label %lpad36.body

invoke.cont37:                                    ; preds = %_ZNKSt14default_deleteINSt7__cxx1118basic_stringstreamIcSt11char_traitsIcESaIcEEEEclEPS5_.exit.i.i.i, %invoke.cont2.i
  call void @llvm.lifetime.end.p0(i64 8, ptr nonnull %ref.tmp.i16)
  invoke void @_ZN7testing15AssertionResultC1ERKS0_(ptr noundef nonnull align 8 dereferenceable(16) %agg.result, ptr noundef nonnull align 8 dereferenceable(16) %ref.tmp31)
          to label %invoke.cont39 unwind label %lpad36

invoke.cont39:                                    ; preds = %invoke.cont37
  call void @_ZNSt7__cxx1112basic_stringIcSt11char_traitsIcESaIcEED1Ev(ptr noundef nonnull align 8 dereferenceable(32) %ref.tmp33) #23
  %message_.i = getelementptr inbounds %"class.testing::AssertionResult", ptr %ref.tmp31, i64 0, i32 1
  %17 = load ptr, ptr %message_.i, align 8
  %cmp.not.i.i = icmp eq ptr %17, null
  br i1 %cmp.not.i.i, label %_ZN7testing15AssertionResultD2Ev.exit, label %_ZNKSt14default_deleteINSt7__cxx1112basic_stringIcSt11char_traitsIcESaIcEEEEclEPS5_.exit.i.i

_ZNKSt14default_deleteINSt7__cxx1112basic_stringIcSt11char_traitsIcESaIcEEEEclEPS5_.exit.i.i: ; preds = %invoke.cont39
  call void @_ZNSt7__cxx1112basic_stringIcSt11char_traitsIcESaIcEED1Ev(ptr noundef nonnull align 8 dereferenceable(32) %17) #23
  call void @_ZdlPv(ptr noundef nonnull %17) #24
  br label %_ZN7testing15AssertionResultD2Ev.exit

_ZN7testing15AssertionResultD2Ev.exit:            ; preds = %invoke.cont39, %_ZNKSt14default_deleteINSt7__cxx1112basic_stringIcSt11char_traitsIcESaIcEEEEclEPS5_.exit.i.i
  store ptr null, ptr %message_.i, align 8
  store ptr getelementptr inbounds ({ [4 x ptr] }, ptr @_ZTVN7testing25StringMatchResultListenerE, i64 0, inrange i32 0, i64 2), ptr %listener, align 8
  call void @_ZNSt7__cxx1118basic_stringstreamIcSt11char_traitsIcESaIcEED1Ev(ptr noundef nonnull align 8 dereferenceable(128) %ss_.i) #23
  call void @_ZNSt7__cxx1118basic_stringstreamIcSt11char_traitsIcESaIcEED1Ev(ptr noundef nonnull align 8 dereferenceable(128) %ss) #23
  br label %cleanup

lpad28:                                           ; preds = %invoke.cont27
  %18 = landingpad { ptr, i32 }
          cleanup
  call void @_ZNSt7__cxx1112basic_stringIcSt11char_traitsIcESaIcEED1Ev(ptr noundef nonnull align 8 dereferenceable(32) %ref.tmp) #23
  br label %ehcleanup40

lpad34:                                           ; preds = %invoke.cont32
  %19 = landingpad { ptr, i32 }
          cleanup
  br label %ehcleanup

lpad36:                                           ; preds = %invoke.cont35, %invoke.cont37
  %20 = landingpad { ptr, i32 }
          cleanup
  br label %lpad36.body

lpad36.body:                                      ; preds = %lpad.i17, %_ZNKSt14default_deleteINSt7__cxx1118basic_stringstreamIcSt11char_traitsIcESaIcEEEEclEPS5_.exit.i.i3.i, %lpad36
  %eh.lpad-body20 = phi { ptr, i32 } [ %20, %lpad36 ], [ %14, %_ZNKSt14default_deleteINSt7__cxx1118basic_stringstreamIcSt11char_traitsIcESaIcEEEEclEPS5_.exit.i.i3.i ], [ %14, %lpad.i17 ]
  call void @_ZNSt7__cxx1112basic_stringIcSt11char_traitsIcESaIcEED1Ev(ptr noundef nonnull align 8 dereferenceable(32) %ref.tmp33) #23
  br label %ehcleanup

ehcleanup:                                        ; preds = %lpad36.body, %lpad34
  %.pn = phi { ptr, i32 } [ %eh.lpad-body20, %lpad36.body ], [ %19, %lpad34 ]
  call void @_ZN7testing15AssertionResultD2Ev(ptr noundef nonnull align 8 dereferenceable(16) %ref.tmp31) #23
  br label %ehcleanup40

ehcleanup40:                                      ; preds = %ehcleanup, %lpad28, %lpad16
  %.pn.pn = phi { ptr, i32 } [ %.pn, %ehcleanup ], [ %10, %lpad16 ], [ %18, %lpad28 ]
  store ptr getelementptr inbounds ({ [4 x ptr] }, ptr @_ZTVN7testing25StringMatchResultListenerE, i64 0, inrange i32 0, i64 2), ptr %listener, align 8
  call void @_ZNSt7__cxx1118basic_stringstreamIcSt11char_traitsIcESaIcEED1Ev(ptr noundef nonnull align 8 dereferenceable(128) %ss_.i) #23
  br label %ehcleanup41

ehcleanup41:                                      ; preds = %lpad4, %lpad.i, %ehcleanup40
  %.pn.pn.pn = phi { ptr, i32 } [ %.pn.pn, %ehcleanup40 ], [ %9, %lpad4 ], [ %6, %lpad.i ]
  call void @_ZNSt7__cxx1118basic_stringstreamIcSt11char_traitsIcESaIcEED1Ev(ptr noundef nonnull align 8 dereferenceable(128) %ss) #23
  br label %ehcleanup42

cleanup:                                          ; preds = %if.then, %_ZN7testing15AssertionResultD2Ev.exit
  store ptr getelementptr inbounds ({ [6 x ptr] }, ptr @_ZTVN7testing8internal11MatcherBaseIRKSt6vectorIdSaIdEEEE, i64 0, inrange i32 0, i64 2), ptr %matcher, align 8
  %21 = load ptr, ptr %vtable_.i.i, align 8
  %cmp.not.i.i.i.i = icmp eq ptr %21, null
  br i1 %cmp.not.i.i.i.i, label %_ZN7testing7MatcherIRKSt6vectorIdSaIdEEED2Ev.exit, label %_ZNK7testing8internal11MatcherBaseIRKSt6vectorIdSaIdEEE8IsSharedEv.exit.i.i.i

_ZNK7testing8internal11MatcherBaseIRKSt6vectorIdSaIdEEE8IsSharedEv.exit.i.i.i: ; preds = %cleanup
  %shared_destroy.i.i.i.i = getelementptr inbounds %"struct.testing::internal::MatcherBase<const std::vector<double> &>::VTable", ptr %21, i64 0, i32 3
  %22 = load ptr, ptr %shared_destroy.i.i.i.i, align 8
  %cmp3.i.not.i.i.i = icmp eq ptr %22, null
  br i1 %cmp3.i.not.i.i.i, label %_ZN7testing7MatcherIRKSt6vectorIdSaIdEEED2Ev.exit, label %land.lhs.true.i.i.i

land.lhs.true.i.i.i:                              ; preds = %_ZNK7testing8internal11MatcherBaseIRKSt6vectorIdSaIdEEE8IsSharedEv.exit.i.i.i
  %buffer_.i.i.i = getelementptr inbounds %"class.testing::internal::MatcherBase", ptr %matcher, i64 0, i32 2
  %23 = load ptr, ptr %buffer_.i.i.i, align 8
  %24 = atomicrmw sub ptr %23, i32 1 acq_rel, align 4
  %cmp.i.i.i.i = icmp eq i32 %24, 1
  br i1 %cmp.i.i.i.i, label %if.then.i.i.i, label %_ZN7testing7MatcherIRKSt6vectorIdSaIdEEED2Ev.exit

if.then.i.i.i:                                    ; preds = %land.lhs.true.i.i.i
  %25 = load ptr, ptr %vtable_.i.i, align 8
  %shared_destroy.i.i.i = getelementptr inbounds %"struct.testing::internal::MatcherBase<const std::vector<double> &>::VTable", ptr %25, i64 0, i32 3
  %26 = load ptr, ptr %shared_destroy.i.i.i, align 8
  %27 = load ptr, ptr %buffer_.i.i.i, align 8
  invoke void %26(ptr noundef %27)
          to label %_ZN7testing7MatcherIRKSt6vectorIdSaIdEEED2Ev.exit unwind label %terminate.lpad.i.i

terminate.lpad.i.i:                               ; preds = %if.then.i.i.i
  %28 = landingpad { ptr, i32 }
          catch ptr null
  %29 = extractvalue { ptr, i32 } %28, 0
  call void @__clang_call_terminate(ptr %29) #26
  unreachable

_ZN7testing7MatcherIRKSt6vectorIdSaIdEEED2Ev.exit: ; preds = %cleanup, %_ZNK7testing8internal11MatcherBaseIRKSt6vectorIdSaIdEEE8IsSharedEv.exit.i.i.i, %land.lhs.true.i.i.i, %if.then.i.i.i
  ret void

ehcleanup42:                                      ; preds = %lpad, %lpad.i.i, %ehcleanup41
  %.pn5 = phi { ptr, i32 } [ %.pn.pn.pn, %ehcleanup41 ], [ %4, %lpad ], [ %1, %lpad.i.i ]
  call void @_ZN7testing7MatcherIRKSt6vectorIdSaIdEEED2Ev(ptr noundef nonnull align 8 dereferenceable(24) %matcher) #23
  resume { ptr, i32 } %.pn5
}

declare void @_ZN7testing7MessageC1Ev(ptr noundef nonnull align 8 dereferenceable(8)) unnamed_addr #0

declare void @_ZN7testing8internal12AssertHelperC1ENS_14TestPartResult4TypeEPKciS5_(ptr noundef nonnull align 8 dereferenceable(8), i32 noundef, ptr noundef, i32 noundef, ptr noundef) unnamed_addr #0

declare void @_ZNK7testing8internal12AssertHelperaSERKNS_7MessageE(ptr noundef nonnull align 8 dereferenceable(8), ptr noundef nonnull align 8 dereferenceable(8)) local_unnamed_addr #0

; Function Attrs: nounwind
declare void @_ZN7testing8internal12AssertHelperD1Ev(ptr noundef nonnull align 8 dereferenceable(8)) unnamed_addr #1

; Function Attrs: mustprogress nounwind uwtable
define linkonce_odr dso_local void @_ZN7testing15AssertionResultD2Ev(ptr noundef nonnull align 8 dereferenceable(16) %this) unnamed_addr #3 comdat align 2 {
entry:
  %message_ = getelementptr inbounds %"class.testing::AssertionResult", ptr %this, i64 0, i32 1
  %0 = load ptr, ptr %message_, align 8
  %cmp.not.i = icmp eq ptr %0, null
  br i1 %cmp.not.i, label %_ZNSt10unique_ptrINSt7__cxx1112basic_stringIcSt11char_traitsIcESaIcEEESt14default_deleteIS5_EED2Ev.exit, label %_ZNKSt14default_deleteINSt7__cxx1112basic_stringIcSt11char_traitsIcESaIcEEEEclEPS5_.exit.i

_ZNKSt14default_deleteINSt7__cxx1112basic_stringIcSt11char_traitsIcESaIcEEEEclEPS5_.exit.i: ; preds = %entry
  tail call void @_ZNSt7__cxx1112basic_stringIcSt11char_traitsIcESaIcEED1Ev(ptr noundef nonnull align 8 dereferenceable(32) %0) #23
  tail call void @_ZdlPv(ptr noundef nonnull %0) #24
  br label %_ZNSt10unique_ptrINSt7__cxx1112basic_stringIcSt11char_traitsIcESaIcEEESt14default_deleteIS5_EED2Ev.exit

_ZNSt10unique_ptrINSt7__cxx1112basic_stringIcSt11char_traitsIcESaIcEEESt14default_deleteIS5_EED2Ev.exit: ; preds = %entry, %_ZNKSt14default_deleteINSt7__cxx1112basic_stringIcSt11char_traitsIcESaIcEEEEclEPS5_.exit.i
  store ptr null, ptr %message_, align 8
  ret void
}

; Function Attrs: mustprogress uwtable
define linkonce_odr dso_local void @_ZNK7testing8internal29PredicateFormatterFromMatcherINS0_18ElementsAreMatcherISt5tupleIJNS0_11PairMatcherIdiEENS4_IdNS0_15AnythingMatcherEEES7_EEEEEclISt6vectorISt4pairIdmESaISE_EEEENS_15AssertionResultEPKcRKT_(ptr noalias sret(%"class.testing::AssertionResult") align 8 %agg.result, ptr noundef nonnull align 8 dereferenceable(48) %this, ptr noundef %value_text, ptr noundef nonnull align 8 dereferenceable(24) %x) local_unnamed_addr #4 comdat align 2 personality ptr @__gxx_personality_v0 {
entry:
  %ref.tmp.i16 = alloca %"class.testing::Message", align 8
  %ref.tmp.i = alloca %"class.testing::internal::GTestLog", align 4
  %ref.tmp.i.i = alloca %"class.testing::internal::GTestLog", align 4
  %dummy.i = alloca %"class.testing::internal::DummyMatchResultListener", align 8
  %matcher = alloca %"class.testing::Matcher.109", align 8
  %ss = alloca %"class.std::__cxx11::basic_stringstream", align 8
  %listener = alloca %"class.testing::StringMatchResultListener", align 8
  %ref.tmp = alloca %"class.std::__cxx11::basic_string", align 8
  %ref.tmp31 = alloca %"class.testing::AssertionResult", align 8
  %ref.tmp33 = alloca %"class.std::__cxx11::basic_string", align 8
  call void @_ZNK7testing8internal18ElementsAreMatcherISt5tupleIJNS0_11PairMatcherIdiEENS3_IdNS0_15AnythingMatcherEEES6_EEEcvNS_7MatcherIT_EEIRKSt6vectorISt4pairIdmESaISF_EEEEv(ptr nonnull sret(%"class.testing::Matcher.109") align 8 %matcher, ptr noundef nonnull align 8 dereferenceable(48) %this)
  call void @llvm.lifetime.start.p0(i64 16, ptr nonnull %dummy.i)
  %stream_.i.i.i = getelementptr inbounds %"class.testing::MatchResultListener", ptr %dummy.i, i64 0, i32 1
  store ptr null, ptr %stream_.i.i.i, align 8
  store ptr getelementptr inbounds ({ [4 x ptr] }, ptr @_ZTVN7testing8internal24DummyMatchResultListenerE, i64 0, inrange i32 0, i64 2), ptr %dummy.i, align 8
  call void @llvm.lifetime.start.p0(i64 4, ptr nonnull %ref.tmp.i.i)
  %vtable_.i.i = getelementptr inbounds %"class.testing::internal::MatcherBase.110", ptr %matcher, i64 0, i32 1
  %0 = load ptr, ptr %vtable_.i.i, align 8
  %cmp.i.i = icmp ne ptr %0, null
  %call.i1.i7 = invoke noundef zeroext i1 @_ZN7testing8internal6IsTrueEb(i1 noundef zeroext %cmp.i.i)
          to label %call.i1.i.noexc unwind label %lpad

call.i1.i.noexc:                                  ; preds = %entry
  br i1 %call.i1.i7, label %if.end.i.i, label %if.else.i.i

if.else.i.i:                                      ; preds = %call.i1.i.noexc
  invoke void @_ZN7testing8internal8GTestLogC1ENS0_16GTestLogSeverityEPKci(ptr noundef nonnull align 4 dereferenceable(4) %ref.tmp.i.i, i32 noundef 3, ptr noundef nonnull @.str.26, i32 noundef 233)
          to label %.noexc unwind label %lpad

.noexc:                                           ; preds = %if.else.i.i
  %call3.i.i = invoke noundef nonnull align 8 dereferenceable(8) ptr @_ZStlsISt11char_traitsIcEERSt13basic_ostreamIcT_ES5_PKc(ptr noundef nonnull align 8 dereferenceable(8) @_ZSt4cerr, ptr noundef nonnull @.str.27)
          to label %invoke.cont.i.i unwind label %lpad.i.i

invoke.cont.i.i:                                  ; preds = %.noexc
  call void @_ZN7testing8internal8GTestLogD1Ev(ptr noundef nonnull align 4 dereferenceable(4) %ref.tmp.i.i) #23
  br label %if.end.i.i

lpad.i.i:                                         ; preds = %.noexc
  %1 = landingpad { ptr, i32 }
          cleanup
  call void @_ZN7testing8internal8GTestLogD1Ev(ptr noundef nonnull align 4 dereferenceable(4) %ref.tmp.i.i) #23
  br label %ehcleanup42

if.end.i.i:                                       ; preds = %invoke.cont.i.i, %call.i1.i.noexc
  %2 = load ptr, ptr %vtable_.i.i, align 8
  %3 = load ptr, ptr %2, align 8
  %call5.i2.i8 = invoke noundef zeroext i1 %3(ptr noundef nonnull align 8 dereferenceable(24) %matcher, ptr noundef nonnull align 8 dereferenceable(24) %x, ptr noundef nonnull %dummy.i)
          to label %invoke.cont unwind label %lpad

invoke.cont:                                      ; preds = %if.end.i.i
  call void @llvm.lifetime.end.p0(i64 4, ptr nonnull %ref.tmp.i.i)
  call void @llvm.lifetime.end.p0(i64 16, ptr nonnull %dummy.i)
  br i1 %call5.i2.i8, label %if.then, label %if.end

if.then:                                          ; preds = %invoke.cont
  invoke void @_ZN7testing16AssertionSuccessEv(ptr sret(%"class.testing::AssertionResult") align 8 %agg.result)
          to label %cleanup unwind label %lpad

lpad:                                             ; preds = %if.end.i.i, %if.else.i.i, %entry, %if.end, %if.then
  %4 = landingpad { ptr, i32 }
          cleanup
  br label %ehcleanup42

if.end:                                           ; preds = %invoke.cont
  invoke void @_ZNSt7__cxx1118basic_stringstreamIcSt11char_traitsIcESaIcEEC1Ev(ptr noundef nonnull align 8 dereferenceable(128) %ss)
          to label %invoke.cont3 unwind label %lpad

invoke.cont3:                                     ; preds = %if.end
  %add.ptr = getelementptr inbounds i8, ptr %ss, i64 16
  %call6 = invoke noundef nonnull align 8 dereferenceable(8) ptr @_ZStlsISt11char_traitsIcEERSt13basic_ostreamIcT_ES5_PKc(ptr noundef nonnull align 8 dereferenceable(8) %add.ptr, ptr noundef nonnull @.str.18)
          to label %invoke.cont5 unwind label %lpad4

invoke.cont5:                                     ; preds = %invoke.cont3
  %call8 = invoke noundef nonnull align 8 dereferenceable(8) ptr @_ZStlsISt11char_traitsIcEERSt13basic_ostreamIcT_ES5_PKc(ptr noundef nonnull align 8 dereferenceable(8) %call6, ptr noundef %value_text)
          to label %invoke.cont7 unwind label %lpad4

invoke.cont7:                                     ; preds = %invoke.cont5
  %call10 = invoke noundef nonnull align 8 dereferenceable(8) ptr @_ZStlsISt11char_traitsIcEERSt13basic_ostreamIcT_ES5_PKc(ptr noundef nonnull align 8 dereferenceable(8) %call8, ptr noundef nonnull @.str.19)
          to label %invoke.cont9 unwind label %lpad4

invoke.cont9:                                     ; preds = %invoke.cont7
  %call12 = invoke noundef nonnull align 8 dereferenceable(8) ptr @_ZStlsISt11char_traitsIcEERSt13basic_ostreamIcT_ES5_PKc(ptr noundef nonnull align 8 dereferenceable(8) %call10, ptr noundef nonnull @.str.20)
          to label %invoke.cont11 unwind label %lpad4

invoke.cont11:                                    ; preds = %invoke.cont9
  call void @llvm.lifetime.start.p0(i64 4, ptr nonnull %ref.tmp.i)
  %5 = load ptr, ptr %vtable_.i.i, align 8
  %cmp.i = icmp ne ptr %5, null
  %call.i9 = invoke noundef zeroext i1 @_ZN7testing8internal6IsTrueEb(i1 noundef zeroext %cmp.i)
          to label %call.i.noexc unwind label %lpad4

call.i.noexc:                                     ; preds = %invoke.cont11
  br i1 %call.i9, label %if.end.i, label %if.else.i

if.else.i:                                        ; preds = %call.i.noexc
  invoke void @_ZN7testing8internal8GTestLogC1ENS0_16GTestLogSeverityEPKci(ptr noundef nonnull align 4 dereferenceable(4) %ref.tmp.i, i32 noundef 3, ptr noundef nonnull @.str.26, i32 noundef 245)
          to label %.noexc10 unwind label %lpad4

.noexc10:                                         ; preds = %if.else.i
  %call3.i = invoke noundef nonnull align 8 dereferenceable(8) ptr @_ZStlsISt11char_traitsIcEERSt13basic_ostreamIcT_ES5_PKc(ptr noundef nonnull align 8 dereferenceable(8) @_ZSt4cerr, ptr noundef nonnull @.str.27)
          to label %invoke.cont.i unwind label %lpad.i

invoke.cont.i:                                    ; preds = %.noexc10
  call void @_ZN7testing8internal8GTestLogD1Ev(ptr noundef nonnull align 4 dereferenceable(4) %ref.tmp.i) #23
  br label %if.end.i

lpad.i:                                           ; preds = %.noexc10
  %6 = landingpad { ptr, i32 }
          cleanup
  call void @_ZN7testing8internal8GTestLogD1Ev(ptr noundef nonnull align 4 dereferenceable(4) %ref.tmp.i) #23
  br label %ehcleanup41

if.end.i:                                         ; preds = %invoke.cont.i, %call.i.noexc
  %7 = load ptr, ptr %vtable_.i.i, align 8
  %describe.i = getelementptr inbounds %"struct.testing::internal::MatcherBase<const std::vector<std::pair<double, unsigned long>> &>::VTable", ptr %7, i64 0, i32 1
  %8 = load ptr, ptr %describe.i, align 8
  invoke void %8(ptr noundef nonnull align 8 dereferenceable(24) %matcher, ptr noundef nonnull %add.ptr, i1 noundef zeroext false)
          to label %invoke.cont14 unwind label %lpad4

invoke.cont14:                                    ; preds = %if.end.i
  call void @llvm.lifetime.end.p0(i64 4, ptr nonnull %ref.tmp.i)
  %ss_.i = getelementptr inbounds %"class.testing::StringMatchResultListener", ptr %listener, i64 0, i32 1
  %add.ptr.i = getelementptr inbounds %"class.testing::StringMatchResultListener", ptr %listener, i64 0, i32 1, i32 0, i32 1
  %stream_.i.i = getelementptr inbounds %"class.testing::MatchResultListener", ptr %listener, i64 0, i32 1
  store ptr %add.ptr.i, ptr %stream_.i.i, align 8
  store ptr getelementptr inbounds ({ [4 x ptr] }, ptr @_ZTVN7testing25StringMatchResultListenerE, i64 0, inrange i32 0, i64 2), ptr %listener, align 8
  invoke void @_ZNSt7__cxx1118basic_stringstreamIcSt11char_traitsIcESaIcEEC1Ev(ptr noundef nonnull align 8 dereferenceable(128) %ss_.i)
          to label %invoke.cont15 unwind label %lpad4

invoke.cont15:                                    ; preds = %invoke.cont14
  %call18 = invoke noundef zeroext i1 @_ZN7testing8internal20MatchPrintAndExplainIKSt6vectorISt4pairIdmESaIS4_EERS7_EEbRT_RKNS_7MatcherIT0_EEPNS_19MatchResultListenerE(ptr noundef nonnull align 8 dereferenceable(24) %x, ptr noundef nonnull align 8 dereferenceable(24) %matcher, ptr noundef nonnull %listener)
          to label %invoke.cont17 unwind label %lpad16

invoke.cont17:                                    ; preds = %invoke.cont15
  br i1 %call18, label %if.then19, label %if.end23

if.then19:                                        ; preds = %invoke.cont17
  %call22 = invoke noundef nonnull align 8 dereferenceable(8) ptr @_ZStlsISt11char_traitsIcEERSt13basic_ostreamIcT_ES5_PKc(ptr noundef nonnull align 8 dereferenceable(8) %add.ptr, ptr noundef nonnull @.str.21)
          to label %if.end23 unwind label %lpad16

lpad4:                                            ; preds = %invoke.cont14, %if.end.i, %if.else.i, %invoke.cont11, %invoke.cont9, %invoke.cont7, %invoke.cont5, %invoke.cont3
  %9 = landingpad { ptr, i32 }
          cleanup
  br label %ehcleanup41

lpad16:                                           ; preds = %invoke.cont25, %invoke.cont29, %if.end23, %if.then19, %invoke.cont15
  %10 = landingpad { ptr, i32 }
          cleanup
  br label %ehcleanup40

if.end23:                                         ; preds = %if.then19, %invoke.cont17
  %call26 = invoke noundef nonnull align 8 dereferenceable(8) ptr @_ZStlsISt11char_traitsIcEERSt13basic_ostreamIcT_ES5_PKc(ptr noundef nonnull align 8 dereferenceable(8) %add.ptr, ptr noundef nonnull @.str.22)
          to label %invoke.cont25 unwind label %lpad16

invoke.cont25:                                    ; preds = %if.end23
  invoke void @_ZNKSt7__cxx1118basic_stringstreamIcSt11char_traitsIcESaIcEE3strEv(ptr nonnull sret(%"class.std::__cxx11::basic_string") align 8 %ref.tmp, ptr noundef nonnull align 8 dereferenceable(128) %ss_.i)
          to label %invoke.cont27 unwind label %lpad16

invoke.cont27:                                    ; preds = %invoke.cont25
  %call30 = invoke noundef nonnull align 8 dereferenceable(8) ptr @_ZStlsIcSt11char_traitsIcESaIcEERSt13basic_ostreamIT_T0_ES7_RKNSt7__cxx1112basic_stringIS4_S5_T1_EE(ptr noundef nonnull align 8 dereferenceable(8) %call26, ptr noundef nonnull align 8 dereferenceable(32) %ref.tmp)
          to label %invoke.cont29 unwind label %lpad28

invoke.cont29:                                    ; preds = %invoke.cont27
  call void @_ZNSt7__cxx1112basic_stringIcSt11char_traitsIcESaIcEED1Ev(ptr noundef nonnull align 8 dereferenceable(32) %ref.tmp) #23
  invoke void @_ZN7testing16AssertionFailureEv(ptr nonnull sret(%"class.testing::AssertionResult") align 8 %ref.tmp31)
          to label %invoke.cont32 unwind label %lpad16

invoke.cont32:                                    ; preds = %invoke.cont29
  invoke void @_ZNKSt7__cxx1118basic_stringstreamIcSt11char_traitsIcESaIcEE3strEv(ptr nonnull sret(%"class.std::__cxx11::basic_string") align 8 %ref.tmp33, ptr noundef nonnull align 8 dereferenceable(128) %ss)
          to label %invoke.cont35 unwind label %lpad34

invoke.cont35:                                    ; preds = %invoke.cont32
  call void @llvm.lifetime.start.p0(i64 8, ptr nonnull %ref.tmp.i16)
  invoke void @_ZN7testing7MessageC1Ev(ptr noundef nonnull align 8 dereferenceable(8) %ref.tmp.i16)
          to label %.noexc19 unwind label %lpad36

.noexc19:                                         ; preds = %invoke.cont35
  %11 = load ptr, ptr %ref.tmp.i16, align 8
  %add.ptr.i.i = getelementptr inbounds i8, ptr %11, i64 16
  %call2.i1.i = invoke noundef nonnull align 8 dereferenceable(8) ptr @_ZStlsIcSt11char_traitsIcESaIcEERSt13basic_ostreamIT_T0_ES7_RKNSt7__cxx1112basic_stringIS4_S5_T1_EE(ptr noundef nonnull align 8 dereferenceable(8) %add.ptr.i.i, ptr noundef nonnull align 8 dereferenceable(32) %ref.tmp33)
          to label %invoke.cont.i18 unwind label %lpad.i17

invoke.cont.i18:                                  ; preds = %.noexc19
  invoke void @_ZN7testing15AssertionResult13AppendMessageERKNS_7MessageE(ptr noundef nonnull align 8 dereferenceable(16) %ref.tmp31, ptr noundef nonnull align 8 dereferenceable(8) %ref.tmp.i16)
          to label %invoke.cont2.i unwind label %lpad.i17

invoke.cont2.i:                                   ; preds = %invoke.cont.i18
  %12 = load ptr, ptr %ref.tmp.i16, align 8
  %cmp.not.i.i.i = icmp eq ptr %12, null
  br i1 %cmp.not.i.i.i, label %invoke.cont37, label %_ZNKSt14default_deleteINSt7__cxx1118basic_stringstreamIcSt11char_traitsIcESaIcEEEEclEPS5_.exit.i.i.i

_ZNKSt14default_deleteINSt7__cxx1118basic_stringstreamIcSt11char_traitsIcESaIcEEEEclEPS5_.exit.i.i.i: ; preds = %invoke.cont2.i
  %vtable.i.i.i.i = load ptr, ptr %12, align 8
  %vfn.i.i.i.i = getelementptr inbounds ptr, ptr %vtable.i.i.i.i, i64 1
  %13 = load ptr, ptr %vfn.i.i.i.i, align 8
  call void %13(ptr noundef nonnull align 8 dereferenceable(128) %12) #23
  br label %invoke.cont37

lpad.i17:                                         ; preds = %invoke.cont.i18, %.noexc19
  %14 = landingpad { ptr, i32 }
          cleanup
  %15 = load ptr, ptr %ref.tmp.i16, align 8
  %cmp.not.i.i2.i = icmp eq ptr %15, null
  br i1 %cmp.not.i.i2.i, label %lpad36.body, label %_ZNKSt14default_deleteINSt7__cxx1118basic_stringstreamIcSt11char_traitsIcESaIcEEEEclEPS5_.exit.i.i3.i

_ZNKSt14default_deleteINSt7__cxx1118basic_stringstreamIcSt11char_traitsIcESaIcEEEEclEPS5_.exit.i.i3.i: ; preds = %lpad.i17
  %vtable.i.i.i4.i = load ptr, ptr %15, align 8
  %vfn.i.i.i5.i = getelementptr inbounds ptr, ptr %vtable.i.i.i4.i, i64 1
  %16 = load ptr, ptr %vfn.i.i.i5.i, align 8
  call void %16(ptr noundef nonnull align 8 dereferenceable(128) %15) #23
  br label %lpad36.body

invoke.cont37:                                    ; preds = %_ZNKSt14default_deleteINSt7__cxx1118basic_stringstreamIcSt11char_traitsIcESaIcEEEEclEPS5_.exit.i.i.i, %invoke.cont2.i
  call void @llvm.lifetime.end.p0(i64 8, ptr nonnull %ref.tmp.i16)
  invoke void @_ZN7testing15AssertionResultC1ERKS0_(ptr noundef nonnull align 8 dereferenceable(16) %agg.result, ptr noundef nonnull align 8 dereferenceable(16) %ref.tmp31)
          to label %invoke.cont39 unwind label %lpad36

invoke.cont39:                                    ; preds = %invoke.cont37
  call void @_ZNSt7__cxx1112basic_stringIcSt11char_traitsIcESaIcEED1Ev(ptr noundef nonnull align 8 dereferenceable(32) %ref.tmp33) #23
  %message_.i = getelementptr inbounds %"class.testing::AssertionResult", ptr %ref.tmp31, i64 0, i32 1
  %17 = load ptr, ptr %message_.i, align 8
  %cmp.not.i.i = icmp eq ptr %17, null
  br i1 %cmp.not.i.i, label %_ZN7testing15AssertionResultD2Ev.exit, label %_ZNKSt14default_deleteINSt7__cxx1112basic_stringIcSt11char_traitsIcESaIcEEEEclEPS5_.exit.i.i

_ZNKSt14default_deleteINSt7__cxx1112basic_stringIcSt11char_traitsIcESaIcEEEEclEPS5_.exit.i.i: ; preds = %invoke.cont39
  call void @_ZNSt7__cxx1112basic_stringIcSt11char_traitsIcESaIcEED1Ev(ptr noundef nonnull align 8 dereferenceable(32) %17) #23
  call void @_ZdlPv(ptr noundef nonnull %17) #24
  br label %_ZN7testing15AssertionResultD2Ev.exit

_ZN7testing15AssertionResultD2Ev.exit:            ; preds = %invoke.cont39, %_ZNKSt14default_deleteINSt7__cxx1112basic_stringIcSt11char_traitsIcESaIcEEEEclEPS5_.exit.i.i
  store ptr null, ptr %message_.i, align 8
  store ptr getelementptr inbounds ({ [4 x ptr] }, ptr @_ZTVN7testing25StringMatchResultListenerE, i64 0, inrange i32 0, i64 2), ptr %listener, align 8
  call void @_ZNSt7__cxx1118basic_stringstreamIcSt11char_traitsIcESaIcEED1Ev(ptr noundef nonnull align 8 dereferenceable(128) %ss_.i) #23
  call void @_ZNSt7__cxx1118basic_stringstreamIcSt11char_traitsIcESaIcEED1Ev(ptr noundef nonnull align 8 dereferenceable(128) %ss) #23
  br label %cleanup

lpad28:                                           ; preds = %invoke.cont27
  %18 = landingpad { ptr, i32 }
          cleanup
  call void @_ZNSt7__cxx1112basic_stringIcSt11char_traitsIcESaIcEED1Ev(ptr noundef nonnull align 8 dereferenceable(32) %ref.tmp) #23
  br label %ehcleanup40

lpad34:                                           ; preds = %invoke.cont32
  %19 = landingpad { ptr, i32 }
          cleanup
  br label %ehcleanup

lpad36:                                           ; preds = %invoke.cont35, %invoke.cont37
  %20 = landingpad { ptr, i32 }
          cleanup
  br label %lpad36.body

lpad36.body:                                      ; preds = %lpad.i17, %_ZNKSt14default_deleteINSt7__cxx1118basic_stringstreamIcSt11char_traitsIcESaIcEEEEclEPS5_.exit.i.i3.i, %lpad36
  %eh.lpad-body20 = phi { ptr, i32 } [ %20, %lpad36 ], [ %14, %_ZNKSt14default_deleteINSt7__cxx1118basic_stringstreamIcSt11char_traitsIcESaIcEEEEclEPS5_.exit.i.i3.i ], [ %14, %lpad.i17 ]
  call void @_ZNSt7__cxx1112basic_stringIcSt11char_traitsIcESaIcEED1Ev(ptr noundef nonnull align 8 dereferenceable(32) %ref.tmp33) #23
  br label %ehcleanup

ehcleanup:                                        ; preds = %lpad36.body, %lpad34
  %.pn = phi { ptr, i32 } [ %eh.lpad-body20, %lpad36.body ], [ %19, %lpad34 ]
  call void @_ZN7testing15AssertionResultD2Ev(ptr noundef nonnull align 8 dereferenceable(16) %ref.tmp31) #23
  br label %ehcleanup40

ehcleanup40:                                      ; preds = %ehcleanup, %lpad28, %lpad16
  %.pn.pn = phi { ptr, i32 } [ %.pn, %ehcleanup ], [ %10, %lpad16 ], [ %18, %lpad28 ]
  store ptr getelementptr inbounds ({ [4 x ptr] }, ptr @_ZTVN7testing25StringMatchResultListenerE, i64 0, inrange i32 0, i64 2), ptr %listener, align 8
  call void @_ZNSt7__cxx1118basic_stringstreamIcSt11char_traitsIcESaIcEED1Ev(ptr noundef nonnull align 8 dereferenceable(128) %ss_.i) #23
  br label %ehcleanup41

ehcleanup41:                                      ; preds = %lpad4, %lpad.i, %ehcleanup40
  %.pn.pn.pn = phi { ptr, i32 } [ %.pn.pn, %ehcleanup40 ], [ %9, %lpad4 ], [ %6, %lpad.i ]
  call void @_ZNSt7__cxx1118basic_stringstreamIcSt11char_traitsIcESaIcEED1Ev(ptr noundef nonnull align 8 dereferenceable(128) %ss) #23
  br label %ehcleanup42

cleanup:                                          ; preds = %if.then, %_ZN7testing15AssertionResultD2Ev.exit
  store ptr getelementptr inbounds ({ [6 x ptr] }, ptr @_ZTVN7testing8internal11MatcherBaseIRKSt6vectorISt4pairIdmESaIS4_EEEE, i64 0, inrange i32 0, i64 2), ptr %matcher, align 8
  %21 = load ptr, ptr %vtable_.i.i, align 8
  %cmp.not.i.i.i.i = icmp eq ptr %21, null
  br i1 %cmp.not.i.i.i.i, label %_ZN7testing7MatcherIRKSt6vectorISt4pairIdmESaIS3_EEED2Ev.exit, label %_ZNK7testing8internal11MatcherBaseIRKSt6vectorISt4pairIdmESaIS4_EEE8IsSharedEv.exit.i.i.i

_ZNK7testing8internal11MatcherBaseIRKSt6vectorISt4pairIdmESaIS4_EEE8IsSharedEv.exit.i.i.i: ; preds = %cleanup
  %shared_destroy.i.i.i.i = getelementptr inbounds %"struct.testing::internal::MatcherBase<const std::vector<std::pair<double, unsigned long>> &>::VTable", ptr %21, i64 0, i32 3
  %22 = load ptr, ptr %shared_destroy.i.i.i.i, align 8
  %cmp3.i.not.i.i.i = icmp eq ptr %22, null
  br i1 %cmp3.i.not.i.i.i, label %_ZN7testing7MatcherIRKSt6vectorISt4pairIdmESaIS3_EEED2Ev.exit, label %land.lhs.true.i.i.i

land.lhs.true.i.i.i:                              ; preds = %_ZNK7testing8internal11MatcherBaseIRKSt6vectorISt4pairIdmESaIS4_EEE8IsSharedEv.exit.i.i.i
  %buffer_.i.i.i = getelementptr inbounds %"class.testing::internal::MatcherBase.110", ptr %matcher, i64 0, i32 2
  %23 = load ptr, ptr %buffer_.i.i.i, align 8
  %24 = atomicrmw sub ptr %23, i32 1 acq_rel, align 4
  %cmp.i.i.i.i = icmp eq i32 %24, 1
  br i1 %cmp.i.i.i.i, label %if.then.i.i.i, label %_ZN7testing7MatcherIRKSt6vectorISt4pairIdmESaIS3_EEED2Ev.exit

if.then.i.i.i:                                    ; preds = %land.lhs.true.i.i.i
  %25 = load ptr, ptr %vtable_.i.i, align 8
  %shared_destroy.i.i.i = getelementptr inbounds %"struct.testing::internal::MatcherBase<const std::vector<std::pair<double, unsigned long>> &>::VTable", ptr %25, i64 0, i32 3
  %26 = load ptr, ptr %shared_destroy.i.i.i, align 8
  %27 = load ptr, ptr %buffer_.i.i.i, align 8
  invoke void %26(ptr noundef %27)
          to label %_ZN7testing7MatcherIRKSt6vectorISt4pairIdmESaIS3_EEED2Ev.exit unwind label %terminate.lpad.i.i

terminate.lpad.i.i:                               ; preds = %if.then.i.i.i
  %28 = landingpad { ptr, i32 }
          catch ptr null
  %29 = extractvalue { ptr, i32 } %28, 0
  call void @__clang_call_terminate(ptr %29) #26
  unreachable

_ZN7testing7MatcherIRKSt6vectorISt4pairIdmESaIS3_EEED2Ev.exit: ; preds = %cleanup, %_ZNK7testing8internal11MatcherBaseIRKSt6vectorISt4pairIdmESaIS4_EEE8IsSharedEv.exit.i.i.i, %land.lhs.true.i.i.i, %if.then.i.i.i
  ret void

ehcleanup42:                                      ; preds = %lpad, %lpad.i.i, %ehcleanup41
  %.pn5 = phi { ptr, i32 } [ %.pn.pn.pn, %ehcleanup41 ], [ %4, %lpad ], [ %1, %lpad.i.i ]
  call void @_ZN7testing7MatcherIRKSt6vectorISt4pairIdmESaIS3_EEED2Ev(ptr noundef nonnull align 8 dereferenceable(24) %matcher) #23
  resume { ptr, i32 } %.pn5
}

; Function Attrs: mustprogress uwtable
define linkonce_odr dso_local void @_ZNK7testing8internal29PredicateFormatterFromMatcherINS0_18ElementsAreMatcherISt5tupleIJdddddEEEEEclISt6vectorIdSaIdEEEENS_15AssertionResultEPKcRKT_(ptr noalias sret(%"class.testing::AssertionResult") align 8 %agg.result, ptr noundef nonnull align 8 dereferenceable(40) %this, ptr noundef %value_text, ptr noundef nonnull align 8 dereferenceable(24) %x) local_unnamed_addr #4 comdat align 2 personality ptr @__gxx_personality_v0 {
entry:
  %ref.tmp.i16 = alloca %"class.testing::Message", align 8
  %ref.tmp.i = alloca %"class.testing::internal::GTestLog", align 4
  %ref.tmp.i.i = alloca %"class.testing::internal::GTestLog", align 4
  %dummy.i = alloca %"class.testing::internal::DummyMatchResultListener", align 8
  %matcher = alloca %"class.testing::Matcher", align 8
  %ss = alloca %"class.std::__cxx11::basic_stringstream", align 8
  %listener = alloca %"class.testing::StringMatchResultListener", align 8
  %ref.tmp = alloca %"class.std::__cxx11::basic_string", align 8
  %ref.tmp31 = alloca %"class.testing::AssertionResult", align 8
  %ref.tmp33 = alloca %"class.std::__cxx11::basic_string", align 8
  call void @_ZNK7testing8internal18ElementsAreMatcherISt5tupleIJdddddEEEcvNS_7MatcherIT_EEIRKSt6vectorIdSaIdEEEEv(ptr nonnull sret(%"class.testing::Matcher") align 8 %matcher, ptr noundef nonnull align 8 dereferenceable(40) %this)
  call void @llvm.lifetime.start.p0(i64 16, ptr nonnull %dummy.i)
  %stream_.i.i.i = getelementptr inbounds %"class.testing::MatchResultListener", ptr %dummy.i, i64 0, i32 1
  store ptr null, ptr %stream_.i.i.i, align 8
  store ptr getelementptr inbounds ({ [4 x ptr] }, ptr @_ZTVN7testing8internal24DummyMatchResultListenerE, i64 0, inrange i32 0, i64 2), ptr %dummy.i, align 8
  call void @llvm.lifetime.start.p0(i64 4, ptr nonnull %ref.tmp.i.i)
  %vtable_.i.i = getelementptr inbounds %"class.testing::internal::MatcherBase", ptr %matcher, i64 0, i32 1
  %0 = load ptr, ptr %vtable_.i.i, align 8
  %cmp.i.i = icmp ne ptr %0, null
  %call.i1.i7 = invoke noundef zeroext i1 @_ZN7testing8internal6IsTrueEb(i1 noundef zeroext %cmp.i.i)
          to label %call.i1.i.noexc unwind label %lpad

call.i1.i.noexc:                                  ; preds = %entry
  br i1 %call.i1.i7, label %if.end.i.i, label %if.else.i.i

if.else.i.i:                                      ; preds = %call.i1.i.noexc
  invoke void @_ZN7testing8internal8GTestLogC1ENS0_16GTestLogSeverityEPKci(ptr noundef nonnull align 4 dereferenceable(4) %ref.tmp.i.i, i32 noundef 3, ptr noundef nonnull @.str.26, i32 noundef 233)
          to label %.noexc unwind label %lpad

.noexc:                                           ; preds = %if.else.i.i
  %call3.i.i = invoke noundef nonnull align 8 dereferenceable(8) ptr @_ZStlsISt11char_traitsIcEERSt13basic_ostreamIcT_ES5_PKc(ptr noundef nonnull align 8 dereferenceable(8) @_ZSt4cerr, ptr noundef nonnull @.str.27)
          to label %invoke.cont.i.i unwind label %lpad.i.i

invoke.cont.i.i:                                  ; preds = %.noexc
  call void @_ZN7testing8internal8GTestLogD1Ev(ptr noundef nonnull align 4 dereferenceable(4) %ref.tmp.i.i) #23
  br label %if.end.i.i

lpad.i.i:                                         ; preds = %.noexc
  %1 = landingpad { ptr, i32 }
          cleanup
  call void @_ZN7testing8internal8GTestLogD1Ev(ptr noundef nonnull align 4 dereferenceable(4) %ref.tmp.i.i) #23
  br label %ehcleanup42

if.end.i.i:                                       ; preds = %invoke.cont.i.i, %call.i1.i.noexc
  %2 = load ptr, ptr %vtable_.i.i, align 8
  %3 = load ptr, ptr %2, align 8
  %call5.i2.i8 = invoke noundef zeroext i1 %3(ptr noundef nonnull align 8 dereferenceable(24) %matcher, ptr noundef nonnull align 8 dereferenceable(24) %x, ptr noundef nonnull %dummy.i)
          to label %invoke.cont unwind label %lpad

invoke.cont:                                      ; preds = %if.end.i.i
  call void @llvm.lifetime.end.p0(i64 4, ptr nonnull %ref.tmp.i.i)
  call void @llvm.lifetime.end.p0(i64 16, ptr nonnull %dummy.i)
  br i1 %call5.i2.i8, label %if.then, label %if.end

if.then:                                          ; preds = %invoke.cont
  invoke void @_ZN7testing16AssertionSuccessEv(ptr sret(%"class.testing::AssertionResult") align 8 %agg.result)
          to label %cleanup unwind label %lpad

lpad:                                             ; preds = %if.end.i.i, %if.else.i.i, %entry, %if.end, %if.then
  %4 = landingpad { ptr, i32 }
          cleanup
  br label %ehcleanup42

if.end:                                           ; preds = %invoke.cont
  invoke void @_ZNSt7__cxx1118basic_stringstreamIcSt11char_traitsIcESaIcEEC1Ev(ptr noundef nonnull align 8 dereferenceable(128) %ss)
          to label %invoke.cont3 unwind label %lpad

invoke.cont3:                                     ; preds = %if.end
  %add.ptr = getelementptr inbounds i8, ptr %ss, i64 16
  %call6 = invoke noundef nonnull align 8 dereferenceable(8) ptr @_ZStlsISt11char_traitsIcEERSt13basic_ostreamIcT_ES5_PKc(ptr noundef nonnull align 8 dereferenceable(8) %add.ptr, ptr noundef nonnull @.str.18)
          to label %invoke.cont5 unwind label %lpad4

invoke.cont5:                                     ; preds = %invoke.cont3
  %call8 = invoke noundef nonnull align 8 dereferenceable(8) ptr @_ZStlsISt11char_traitsIcEERSt13basic_ostreamIcT_ES5_PKc(ptr noundef nonnull align 8 dereferenceable(8) %call6, ptr noundef %value_text)
          to label %invoke.cont7 unwind label %lpad4

invoke.cont7:                                     ; preds = %invoke.cont5
  %call10 = invoke noundef nonnull align 8 dereferenceable(8) ptr @_ZStlsISt11char_traitsIcEERSt13basic_ostreamIcT_ES5_PKc(ptr noundef nonnull align 8 dereferenceable(8) %call8, ptr noundef nonnull @.str.19)
          to label %invoke.cont9 unwind label %lpad4

invoke.cont9:                                     ; preds = %invoke.cont7
  %call12 = invoke noundef nonnull align 8 dereferenceable(8) ptr @_ZStlsISt11char_traitsIcEERSt13basic_ostreamIcT_ES5_PKc(ptr noundef nonnull align 8 dereferenceable(8) %call10, ptr noundef nonnull @.str.20)
          to label %invoke.cont11 unwind label %lpad4

invoke.cont11:                                    ; preds = %invoke.cont9
  call void @llvm.lifetime.start.p0(i64 4, ptr nonnull %ref.tmp.i)
  %5 = load ptr, ptr %vtable_.i.i, align 8
  %cmp.i = icmp ne ptr %5, null
  %call.i9 = invoke noundef zeroext i1 @_ZN7testing8internal6IsTrueEb(i1 noundef zeroext %cmp.i)
          to label %call.i.noexc unwind label %lpad4

call.i.noexc:                                     ; preds = %invoke.cont11
  br i1 %call.i9, label %if.end.i, label %if.else.i

if.else.i:                                        ; preds = %call.i.noexc
  invoke void @_ZN7testing8internal8GTestLogC1ENS0_16GTestLogSeverityEPKci(ptr noundef nonnull align 4 dereferenceable(4) %ref.tmp.i, i32 noundef 3, ptr noundef nonnull @.str.26, i32 noundef 245)
          to label %.noexc10 unwind label %lpad4

.noexc10:                                         ; preds = %if.else.i
  %call3.i = invoke noundef nonnull align 8 dereferenceable(8) ptr @_ZStlsISt11char_traitsIcEERSt13basic_ostreamIcT_ES5_PKc(ptr noundef nonnull align 8 dereferenceable(8) @_ZSt4cerr, ptr noundef nonnull @.str.27)
          to label %invoke.cont.i unwind label %lpad.i

invoke.cont.i:                                    ; preds = %.noexc10
  call void @_ZN7testing8internal8GTestLogD1Ev(ptr noundef nonnull align 4 dereferenceable(4) %ref.tmp.i) #23
  br label %if.end.i

lpad.i:                                           ; preds = %.noexc10
  %6 = landingpad { ptr, i32 }
          cleanup
  call void @_ZN7testing8internal8GTestLogD1Ev(ptr noundef nonnull align 4 dereferenceable(4) %ref.tmp.i) #23
  br label %ehcleanup41

if.end.i:                                         ; preds = %invoke.cont.i, %call.i.noexc
  %7 = load ptr, ptr %vtable_.i.i, align 8
  %describe.i = getelementptr inbounds %"struct.testing::internal::MatcherBase<const std::vector<double> &>::VTable", ptr %7, i64 0, i32 1
  %8 = load ptr, ptr %describe.i, align 8
  invoke void %8(ptr noundef nonnull align 8 dereferenceable(24) %matcher, ptr noundef nonnull %add.ptr, i1 noundef zeroext false)
          to label %invoke.cont14 unwind label %lpad4

invoke.cont14:                                    ; preds = %if.end.i
  call void @llvm.lifetime.end.p0(i64 4, ptr nonnull %ref.tmp.i)
  %ss_.i = getelementptr inbounds %"class.testing::StringMatchResultListener", ptr %listener, i64 0, i32 1
  %add.ptr.i = getelementptr inbounds %"class.testing::StringMatchResultListener", ptr %listener, i64 0, i32 1, i32 0, i32 1
  %stream_.i.i = getelementptr inbounds %"class.testing::MatchResultListener", ptr %listener, i64 0, i32 1
  store ptr %add.ptr.i, ptr %stream_.i.i, align 8
  store ptr getelementptr inbounds ({ [4 x ptr] }, ptr @_ZTVN7testing25StringMatchResultListenerE, i64 0, inrange i32 0, i64 2), ptr %listener, align 8
  invoke void @_ZNSt7__cxx1118basic_stringstreamIcSt11char_traitsIcESaIcEEC1Ev(ptr noundef nonnull align 8 dereferenceable(128) %ss_.i)
          to label %invoke.cont15 unwind label %lpad4

invoke.cont15:                                    ; preds = %invoke.cont14
  %call18 = invoke noundef zeroext i1 @_ZN7testing8internal20MatchPrintAndExplainIKSt6vectorIdSaIdEERS5_EEbRT_RKNS_7MatcherIT0_EEPNS_19MatchResultListenerE(ptr noundef nonnull align 8 dereferenceable(24) %x, ptr noundef nonnull align 8 dereferenceable(24) %matcher, ptr noundef nonnull %listener)
          to label %invoke.cont17 unwind label %lpad16

invoke.cont17:                                    ; preds = %invoke.cont15
  br i1 %call18, label %if.then19, label %if.end23

if.then19:                                        ; preds = %invoke.cont17
  %call22 = invoke noundef nonnull align 8 dereferenceable(8) ptr @_ZStlsISt11char_traitsIcEERSt13basic_ostreamIcT_ES5_PKc(ptr noundef nonnull align 8 dereferenceable(8) %add.ptr, ptr noundef nonnull @.str.21)
          to label %if.end23 unwind label %lpad16

lpad4:                                            ; preds = %invoke.cont14, %if.end.i, %if.else.i, %invoke.cont11, %invoke.cont9, %invoke.cont7, %invoke.cont5, %invoke.cont3
  %9 = landingpad { ptr, i32 }
          cleanup
  br label %ehcleanup41

lpad16:                                           ; preds = %invoke.cont25, %invoke.cont29, %if.end23, %if.then19, %invoke.cont15
  %10 = landingpad { ptr, i32 }
          cleanup
  br label %ehcleanup40

if.end23:                                         ; preds = %if.then19, %invoke.cont17
  %call26 = invoke noundef nonnull align 8 dereferenceable(8) ptr @_ZStlsISt11char_traitsIcEERSt13basic_ostreamIcT_ES5_PKc(ptr noundef nonnull align 8 dereferenceable(8) %add.ptr, ptr noundef nonnull @.str.22)
          to label %invoke.cont25 unwind label %lpad16

invoke.cont25:                                    ; preds = %if.end23
  invoke void @_ZNKSt7__cxx1118basic_stringstreamIcSt11char_traitsIcESaIcEE3strEv(ptr nonnull sret(%"class.std::__cxx11::basic_string") align 8 %ref.tmp, ptr noundef nonnull align 8 dereferenceable(128) %ss_.i)
          to label %invoke.cont27 unwind label %lpad16

invoke.cont27:                                    ; preds = %invoke.cont25
  %call30 = invoke noundef nonnull align 8 dereferenceable(8) ptr @_ZStlsIcSt11char_traitsIcESaIcEERSt13basic_ostreamIT_T0_ES7_RKNSt7__cxx1112basic_stringIS4_S5_T1_EE(ptr noundef nonnull align 8 dereferenceable(8) %call26, ptr noundef nonnull align 8 dereferenceable(32) %ref.tmp)
          to label %invoke.cont29 unwind label %lpad28

invoke.cont29:                                    ; preds = %invoke.cont27
  call void @_ZNSt7__cxx1112basic_stringIcSt11char_traitsIcESaIcEED1Ev(ptr noundef nonnull align 8 dereferenceable(32) %ref.tmp) #23
  invoke void @_ZN7testing16AssertionFailureEv(ptr nonnull sret(%"class.testing::AssertionResult") align 8 %ref.tmp31)
          to label %invoke.cont32 unwind label %lpad16

invoke.cont32:                                    ; preds = %invoke.cont29
  invoke void @_ZNKSt7__cxx1118basic_stringstreamIcSt11char_traitsIcESaIcEE3strEv(ptr nonnull sret(%"class.std::__cxx11::basic_string") align 8 %ref.tmp33, ptr noundef nonnull align 8 dereferenceable(128) %ss)
          to label %invoke.cont35 unwind label %lpad34

invoke.cont35:                                    ; preds = %invoke.cont32
  call void @llvm.lifetime.start.p0(i64 8, ptr nonnull %ref.tmp.i16)
  invoke void @_ZN7testing7MessageC1Ev(ptr noundef nonnull align 8 dereferenceable(8) %ref.tmp.i16)
          to label %.noexc19 unwind label %lpad36

.noexc19:                                         ; preds = %invoke.cont35
  %11 = load ptr, ptr %ref.tmp.i16, align 8
  %add.ptr.i.i = getelementptr inbounds i8, ptr %11, i64 16
  %call2.i1.i = invoke noundef nonnull align 8 dereferenceable(8) ptr @_ZStlsIcSt11char_traitsIcESaIcEERSt13basic_ostreamIT_T0_ES7_RKNSt7__cxx1112basic_stringIS4_S5_T1_EE(ptr noundef nonnull align 8 dereferenceable(8) %add.ptr.i.i, ptr noundef nonnull align 8 dereferenceable(32) %ref.tmp33)
          to label %invoke.cont.i18 unwind label %lpad.i17

invoke.cont.i18:                                  ; preds = %.noexc19
  invoke void @_ZN7testing15AssertionResult13AppendMessageERKNS_7MessageE(ptr noundef nonnull align 8 dereferenceable(16) %ref.tmp31, ptr noundef nonnull align 8 dereferenceable(8) %ref.tmp.i16)
          to label %invoke.cont2.i unwind label %lpad.i17

invoke.cont2.i:                                   ; preds = %invoke.cont.i18
  %12 = load ptr, ptr %ref.tmp.i16, align 8
  %cmp.not.i.i.i = icmp eq ptr %12, null
  br i1 %cmp.not.i.i.i, label %invoke.cont37, label %_ZNKSt14default_deleteINSt7__cxx1118basic_stringstreamIcSt11char_traitsIcESaIcEEEEclEPS5_.exit.i.i.i

_ZNKSt14default_deleteINSt7__cxx1118basic_stringstreamIcSt11char_traitsIcESaIcEEEEclEPS5_.exit.i.i.i: ; preds = %invoke.cont2.i
  %vtable.i.i.i.i = load ptr, ptr %12, align 8
  %vfn.i.i.i.i = getelementptr inbounds ptr, ptr %vtable.i.i.i.i, i64 1
  %13 = load ptr, ptr %vfn.i.i.i.i, align 8
  call void %13(ptr noundef nonnull align 8 dereferenceable(128) %12) #23
  br label %invoke.cont37

lpad.i17:                                         ; preds = %invoke.cont.i18, %.noexc19
  %14 = landingpad { ptr, i32 }
          cleanup
  %15 = load ptr, ptr %ref.tmp.i16, align 8
  %cmp.not.i.i2.i = icmp eq ptr %15, null
  br i1 %cmp.not.i.i2.i, label %lpad36.body, label %_ZNKSt14default_deleteINSt7__cxx1118basic_stringstreamIcSt11char_traitsIcESaIcEEEEclEPS5_.exit.i.i3.i

_ZNKSt14default_deleteINSt7__cxx1118basic_stringstreamIcSt11char_traitsIcESaIcEEEEclEPS5_.exit.i.i3.i: ; preds = %lpad.i17
  %vtable.i.i.i4.i = load ptr, ptr %15, align 8
  %vfn.i.i.i5.i = getelementptr inbounds ptr, ptr %vtable.i.i.i4.i, i64 1
  %16 = load ptr, ptr %vfn.i.i.i5.i, align 8
  call void %16(ptr noundef nonnull align 8 dereferenceable(128) %15) #23
  br label %lpad36.body

invoke.cont37:                                    ; preds = %_ZNKSt14default_deleteINSt7__cxx1118basic_stringstreamIcSt11char_traitsIcESaIcEEEEclEPS5_.exit.i.i.i, %invoke.cont2.i
  call void @llvm.lifetime.end.p0(i64 8, ptr nonnull %ref.tmp.i16)
  invoke void @_ZN7testing15AssertionResultC1ERKS0_(ptr noundef nonnull align 8 dereferenceable(16) %agg.result, ptr noundef nonnull align 8 dereferenceable(16) %ref.tmp31)
          to label %invoke.cont39 unwind label %lpad36

invoke.cont39:                                    ; preds = %invoke.cont37
  call void @_ZNSt7__cxx1112basic_stringIcSt11char_traitsIcESaIcEED1Ev(ptr noundef nonnull align 8 dereferenceable(32) %ref.tmp33) #23
  %message_.i = getelementptr inbounds %"class.testing::AssertionResult", ptr %ref.tmp31, i64 0, i32 1
  %17 = load ptr, ptr %message_.i, align 8
  %cmp.not.i.i = icmp eq ptr %17, null
  br i1 %cmp.not.i.i, label %_ZN7testing15AssertionResultD2Ev.exit, label %_ZNKSt14default_deleteINSt7__cxx1112basic_stringIcSt11char_traitsIcESaIcEEEEclEPS5_.exit.i.i

_ZNKSt14default_deleteINSt7__cxx1112basic_stringIcSt11char_traitsIcESaIcEEEEclEPS5_.exit.i.i: ; preds = %invoke.cont39
  call void @_ZNSt7__cxx1112basic_stringIcSt11char_traitsIcESaIcEED1Ev(ptr noundef nonnull align 8 dereferenceable(32) %17) #23
  call void @_ZdlPv(ptr noundef nonnull %17) #24
  br label %_ZN7testing15AssertionResultD2Ev.exit

_ZN7testing15AssertionResultD2Ev.exit:            ; preds = %invoke.cont39, %_ZNKSt14default_deleteINSt7__cxx1112basic_stringIcSt11char_traitsIcESaIcEEEEclEPS5_.exit.i.i
  store ptr null, ptr %message_.i, align 8
  store ptr getelementptr inbounds ({ [4 x ptr] }, ptr @_ZTVN7testing25StringMatchResultListenerE, i64 0, inrange i32 0, i64 2), ptr %listener, align 8
  call void @_ZNSt7__cxx1118basic_stringstreamIcSt11char_traitsIcESaIcEED1Ev(ptr noundef nonnull align 8 dereferenceable(128) %ss_.i) #23
  call void @_ZNSt7__cxx1118basic_stringstreamIcSt11char_traitsIcESaIcEED1Ev(ptr noundef nonnull align 8 dereferenceable(128) %ss) #23
  br label %cleanup

lpad28:                                           ; preds = %invoke.cont27
  %18 = landingpad { ptr, i32 }
          cleanup
  call void @_ZNSt7__cxx1112basic_stringIcSt11char_traitsIcESaIcEED1Ev(ptr noundef nonnull align 8 dereferenceable(32) %ref.tmp) #23
  br label %ehcleanup40

lpad34:                                           ; preds = %invoke.cont32
  %19 = landingpad { ptr, i32 }
          cleanup
  br label %ehcleanup

lpad36:                                           ; preds = %invoke.cont35, %invoke.cont37
  %20 = landingpad { ptr, i32 }
          cleanup
  br label %lpad36.body

lpad36.body:                                      ; preds = %lpad.i17, %_ZNKSt14default_deleteINSt7__cxx1118basic_stringstreamIcSt11char_traitsIcESaIcEEEEclEPS5_.exit.i.i3.i, %lpad36
  %eh.lpad-body20 = phi { ptr, i32 } [ %20, %lpad36 ], [ %14, %_ZNKSt14default_deleteINSt7__cxx1118basic_stringstreamIcSt11char_traitsIcESaIcEEEEclEPS5_.exit.i.i3.i ], [ %14, %lpad.i17 ]
  call void @_ZNSt7__cxx1112basic_stringIcSt11char_traitsIcESaIcEED1Ev(ptr noundef nonnull align 8 dereferenceable(32) %ref.tmp33) #23
  br label %ehcleanup

ehcleanup:                                        ; preds = %lpad36.body, %lpad34
  %.pn = phi { ptr, i32 } [ %eh.lpad-body20, %lpad36.body ], [ %19, %lpad34 ]
  call void @_ZN7testing15AssertionResultD2Ev(ptr noundef nonnull align 8 dereferenceable(16) %ref.tmp31) #23
  br label %ehcleanup40

ehcleanup40:                                      ; preds = %ehcleanup, %lpad28, %lpad16
  %.pn.pn = phi { ptr, i32 } [ %.pn, %ehcleanup ], [ %10, %lpad16 ], [ %18, %lpad28 ]
  store ptr getelementptr inbounds ({ [4 x ptr] }, ptr @_ZTVN7testing25StringMatchResultListenerE, i64 0, inrange i32 0, i64 2), ptr %listener, align 8
  call void @_ZNSt7__cxx1118basic_stringstreamIcSt11char_traitsIcESaIcEED1Ev(ptr noundef nonnull align 8 dereferenceable(128) %ss_.i) #23
  br label %ehcleanup41

ehcleanup41:                                      ; preds = %lpad4, %lpad.i, %ehcleanup40
  %.pn.pn.pn = phi { ptr, i32 } [ %.pn.pn, %ehcleanup40 ], [ %9, %lpad4 ], [ %6, %lpad.i ]
  call void @_ZNSt7__cxx1118basic_stringstreamIcSt11char_traitsIcESaIcEED1Ev(ptr noundef nonnull align 8 dereferenceable(128) %ss) #23
  br label %ehcleanup42

cleanup:                                          ; preds = %if.then, %_ZN7testing15AssertionResultD2Ev.exit
  store ptr getelementptr inbounds ({ [6 x ptr] }, ptr @_ZTVN7testing8internal11MatcherBaseIRKSt6vectorIdSaIdEEEE, i64 0, inrange i32 0, i64 2), ptr %matcher, align 8
  %21 = load ptr, ptr %vtable_.i.i, align 8
  %cmp.not.i.i.i.i = icmp eq ptr %21, null
  br i1 %cmp.not.i.i.i.i, label %_ZN7testing7MatcherIRKSt6vectorIdSaIdEEED2Ev.exit, label %_ZNK7testing8internal11MatcherBaseIRKSt6vectorIdSaIdEEE8IsSharedEv.exit.i.i.i

_ZNK7testing8internal11MatcherBaseIRKSt6vectorIdSaIdEEE8IsSharedEv.exit.i.i.i: ; preds = %cleanup
  %shared_destroy.i.i.i.i = getelementptr inbounds %"struct.testing::internal::MatcherBase<const std::vector<double> &>::VTable", ptr %21, i64 0, i32 3
  %22 = load ptr, ptr %shared_destroy.i.i.i.i, align 8
  %cmp3.i.not.i.i.i = icmp eq ptr %22, null
  br i1 %cmp3.i.not.i.i.i, label %_ZN7testing7MatcherIRKSt6vectorIdSaIdEEED2Ev.exit, label %land.lhs.true.i.i.i

land.lhs.true.i.i.i:                              ; preds = %_ZNK7testing8internal11MatcherBaseIRKSt6vectorIdSaIdEEE8IsSharedEv.exit.i.i.i
  %buffer_.i.i.i = getelementptr inbounds %"class.testing::internal::MatcherBase", ptr %matcher, i64 0, i32 2
  %23 = load ptr, ptr %buffer_.i.i.i, align 8
  %24 = atomicrmw sub ptr %23, i32 1 acq_rel, align 4
  %cmp.i.i.i.i = icmp eq i32 %24, 1
  br i1 %cmp.i.i.i.i, label %if.then.i.i.i, label %_ZN7testing7MatcherIRKSt6vectorIdSaIdEEED2Ev.exit

if.then.i.i.i:                                    ; preds = %land.lhs.true.i.i.i
  %25 = load ptr, ptr %vtable_.i.i, align 8
  %shared_destroy.i.i.i = getelementptr inbounds %"struct.testing::internal::MatcherBase<const std::vector<double> &>::VTable", ptr %25, i64 0, i32 3
  %26 = load ptr, ptr %shared_destroy.i.i.i, align 8
  %27 = load ptr, ptr %buffer_.i.i.i, align 8
  invoke void %26(ptr noundef %27)
          to label %_ZN7testing7MatcherIRKSt6vectorIdSaIdEEED2Ev.exit unwind label %terminate.lpad.i.i

terminate.lpad.i.i:                               ; preds = %if.then.i.i.i
  %28 = landingpad { ptr, i32 }
          catch ptr null
  %29 = extractvalue { ptr, i32 } %28, 0
  call void @__clang_call_terminate(ptr %29) #26
  unreachable

_ZN7testing7MatcherIRKSt6vectorIdSaIdEEED2Ev.exit: ; preds = %cleanup, %_ZNK7testing8internal11MatcherBaseIRKSt6vectorIdSaIdEEE8IsSharedEv.exit.i.i.i, %land.lhs.true.i.i.i, %if.then.i.i.i
  ret void

ehcleanup42:                                      ; preds = %lpad, %lpad.i.i, %ehcleanup41
  %.pn5 = phi { ptr, i32 } [ %.pn.pn.pn, %ehcleanup41 ], [ %4, %lpad ], [ %1, %lpad.i.i ]
  call void @_ZN7testing7MatcherIRKSt6vectorIdSaIdEEED2Ev(ptr noundef nonnull align 8 dereferenceable(24) %matcher) #23
  resume { ptr, i32 } %.pn5
}

; Function Attrs: mustprogress uwtable
define linkonce_odr dso_local void @_ZNK7testing8internal29PredicateFormatterFromMatcherINS0_18ElementsAreMatcherISt5tupleIJNS0_11PairMatcherIdiEES5_NS4_IdNS0_15AnythingMatcherEEES5_S5_EEEEEclISt6vectorISt4pairIdmESaISE_EEEENS_15AssertionResultEPKcRKT_(ptr noalias sret(%"class.testing::AssertionResult") align 8 %agg.result, ptr noundef nonnull align 8 dereferenceable(80) %this, ptr noundef %value_text, ptr noundef nonnull align 8 dereferenceable(24) %x) local_unnamed_addr #4 comdat align 2 personality ptr @__gxx_personality_v0 {
entry:
  %ref.tmp.i16 = alloca %"class.testing::Message", align 8
  %ref.tmp.i = alloca %"class.testing::internal::GTestLog", align 4
  %ref.tmp.i.i = alloca %"class.testing::internal::GTestLog", align 4
  %dummy.i = alloca %"class.testing::internal::DummyMatchResultListener", align 8
  %matcher = alloca %"class.testing::Matcher.109", align 8
  %ss = alloca %"class.std::__cxx11::basic_stringstream", align 8
  %listener = alloca %"class.testing::StringMatchResultListener", align 8
  %ref.tmp = alloca %"class.std::__cxx11::basic_string", align 8
  %ref.tmp31 = alloca %"class.testing::AssertionResult", align 8
  %ref.tmp33 = alloca %"class.std::__cxx11::basic_string", align 8
  call void @_ZNK7testing8internal18ElementsAreMatcherISt5tupleIJNS0_11PairMatcherIdiEES4_NS3_IdNS0_15AnythingMatcherEEES4_S4_EEEcvNS_7MatcherIT_EEIRKSt6vectorISt4pairIdmESaISF_EEEEv(ptr nonnull sret(%"class.testing::Matcher.109") align 8 %matcher, ptr noundef nonnull align 8 dereferenceable(80) %this)
  call void @llvm.lifetime.start.p0(i64 16, ptr nonnull %dummy.i)
  %stream_.i.i.i = getelementptr inbounds %"class.testing::MatchResultListener", ptr %dummy.i, i64 0, i32 1
  store ptr null, ptr %stream_.i.i.i, align 8
  store ptr getelementptr inbounds ({ [4 x ptr] }, ptr @_ZTVN7testing8internal24DummyMatchResultListenerE, i64 0, inrange i32 0, i64 2), ptr %dummy.i, align 8
  call void @llvm.lifetime.start.p0(i64 4, ptr nonnull %ref.tmp.i.i)
  %vtable_.i.i = getelementptr inbounds %"class.testing::internal::MatcherBase.110", ptr %matcher, i64 0, i32 1
  %0 = load ptr, ptr %vtable_.i.i, align 8
  %cmp.i.i = icmp ne ptr %0, null
  %call.i1.i7 = invoke noundef zeroext i1 @_ZN7testing8internal6IsTrueEb(i1 noundef zeroext %cmp.i.i)
          to label %call.i1.i.noexc unwind label %lpad

call.i1.i.noexc:                                  ; preds = %entry
  br i1 %call.i1.i7, label %if.end.i.i, label %if.else.i.i

if.else.i.i:                                      ; preds = %call.i1.i.noexc
  invoke void @_ZN7testing8internal8GTestLogC1ENS0_16GTestLogSeverityEPKci(ptr noundef nonnull align 4 dereferenceable(4) %ref.tmp.i.i, i32 noundef 3, ptr noundef nonnull @.str.26, i32 noundef 233)
          to label %.noexc unwind label %lpad

.noexc:                                           ; preds = %if.else.i.i
  %call3.i.i = invoke noundef nonnull align 8 dereferenceable(8) ptr @_ZStlsISt11char_traitsIcEERSt13basic_ostreamIcT_ES5_PKc(ptr noundef nonnull align 8 dereferenceable(8) @_ZSt4cerr, ptr noundef nonnull @.str.27)
          to label %invoke.cont.i.i unwind label %lpad.i.i

invoke.cont.i.i:                                  ; preds = %.noexc
  call void @_ZN7testing8internal8GTestLogD1Ev(ptr noundef nonnull align 4 dereferenceable(4) %ref.tmp.i.i) #23
  br label %if.end.i.i

lpad.i.i:                                         ; preds = %.noexc
  %1 = landingpad { ptr, i32 }
          cleanup
  call void @_ZN7testing8internal8GTestLogD1Ev(ptr noundef nonnull align 4 dereferenceable(4) %ref.tmp.i.i) #23
  br label %ehcleanup42

if.end.i.i:                                       ; preds = %invoke.cont.i.i, %call.i1.i.noexc
  %2 = load ptr, ptr %vtable_.i.i, align 8
  %3 = load ptr, ptr %2, align 8
  %call5.i2.i8 = invoke noundef zeroext i1 %3(ptr noundef nonnull align 8 dereferenceable(24) %matcher, ptr noundef nonnull align 8 dereferenceable(24) %x, ptr noundef nonnull %dummy.i)
          to label %invoke.cont unwind label %lpad

invoke.cont:                                      ; preds = %if.end.i.i
  call void @llvm.lifetime.end.p0(i64 4, ptr nonnull %ref.tmp.i.i)
  call void @llvm.lifetime.end.p0(i64 16, ptr nonnull %dummy.i)
  br i1 %call5.i2.i8, label %if.then, label %if.end

if.then:                                          ; preds = %invoke.cont
  invoke void @_ZN7testing16AssertionSuccessEv(ptr sret(%"class.testing::AssertionResult") align 8 %agg.result)
          to label %cleanup unwind label %lpad

lpad:                                             ; preds = %if.end.i.i, %if.else.i.i, %entry, %if.end, %if.then
  %4 = landingpad { ptr, i32 }
          cleanup
  br label %ehcleanup42

if.end:                                           ; preds = %invoke.cont
  invoke void @_ZNSt7__cxx1118basic_stringstreamIcSt11char_traitsIcESaIcEEC1Ev(ptr noundef nonnull align 8 dereferenceable(128) %ss)
          to label %invoke.cont3 unwind label %lpad

invoke.cont3:                                     ; preds = %if.end
  %add.ptr = getelementptr inbounds i8, ptr %ss, i64 16
  %call6 = invoke noundef nonnull align 8 dereferenceable(8) ptr @_ZStlsISt11char_traitsIcEERSt13basic_ostreamIcT_ES5_PKc(ptr noundef nonnull align 8 dereferenceable(8) %add.ptr, ptr noundef nonnull @.str.18)
          to label %invoke.cont5 unwind label %lpad4

invoke.cont5:                                     ; preds = %invoke.cont3
  %call8 = invoke noundef nonnull align 8 dereferenceable(8) ptr @_ZStlsISt11char_traitsIcEERSt13basic_ostreamIcT_ES5_PKc(ptr noundef nonnull align 8 dereferenceable(8) %call6, ptr noundef %value_text)
          to label %invoke.cont7 unwind label %lpad4

invoke.cont7:                                     ; preds = %invoke.cont5
  %call10 = invoke noundef nonnull align 8 dereferenceable(8) ptr @_ZStlsISt11char_traitsIcEERSt13basic_ostreamIcT_ES5_PKc(ptr noundef nonnull align 8 dereferenceable(8) %call8, ptr noundef nonnull @.str.19)
          to label %invoke.cont9 unwind label %lpad4

invoke.cont9:                                     ; preds = %invoke.cont7
  %call12 = invoke noundef nonnull align 8 dereferenceable(8) ptr @_ZStlsISt11char_traitsIcEERSt13basic_ostreamIcT_ES5_PKc(ptr noundef nonnull align 8 dereferenceable(8) %call10, ptr noundef nonnull @.str.20)
          to label %invoke.cont11 unwind label %lpad4

invoke.cont11:                                    ; preds = %invoke.cont9
  call void @llvm.lifetime.start.p0(i64 4, ptr nonnull %ref.tmp.i)
  %5 = load ptr, ptr %vtable_.i.i, align 8
  %cmp.i = icmp ne ptr %5, null
  %call.i9 = invoke noundef zeroext i1 @_ZN7testing8internal6IsTrueEb(i1 noundef zeroext %cmp.i)
          to label %call.i.noexc unwind label %lpad4

call.i.noexc:                                     ; preds = %invoke.cont11
  br i1 %call.i9, label %if.end.i, label %if.else.i

if.else.i:                                        ; preds = %call.i.noexc
  invoke void @_ZN7testing8internal8GTestLogC1ENS0_16GTestLogSeverityEPKci(ptr noundef nonnull align 4 dereferenceable(4) %ref.tmp.i, i32 noundef 3, ptr noundef nonnull @.str.26, i32 noundef 245)
          to label %.noexc10 unwind label %lpad4

.noexc10:                                         ; preds = %if.else.i
  %call3.i = invoke noundef nonnull align 8 dereferenceable(8) ptr @_ZStlsISt11char_traitsIcEERSt13basic_ostreamIcT_ES5_PKc(ptr noundef nonnull align 8 dereferenceable(8) @_ZSt4cerr, ptr noundef nonnull @.str.27)
          to label %invoke.cont.i unwind label %lpad.i

invoke.cont.i:                                    ; preds = %.noexc10
  call void @_ZN7testing8internal8GTestLogD1Ev(ptr noundef nonnull align 4 dereferenceable(4) %ref.tmp.i) #23
  br label %if.end.i

lpad.i:                                           ; preds = %.noexc10
  %6 = landingpad { ptr, i32 }
          cleanup
  call void @_ZN7testing8internal8GTestLogD1Ev(ptr noundef nonnull align 4 dereferenceable(4) %ref.tmp.i) #23
  br label %ehcleanup41

if.end.i:                                         ; preds = %invoke.cont.i, %call.i.noexc
  %7 = load ptr, ptr %vtable_.i.i, align 8
  %describe.i = getelementptr inbounds %"struct.testing::internal::MatcherBase<const std::vector<std::pair<double, unsigned long>> &>::VTable", ptr %7, i64 0, i32 1
  %8 = load ptr, ptr %describe.i, align 8
  invoke void %8(ptr noundef nonnull align 8 dereferenceable(24) %matcher, ptr noundef nonnull %add.ptr, i1 noundef zeroext false)
          to label %invoke.cont14 unwind label %lpad4

invoke.cont14:                                    ; preds = %if.end.i
  call void @llvm.lifetime.end.p0(i64 4, ptr nonnull %ref.tmp.i)
  %ss_.i = getelementptr inbounds %"class.testing::StringMatchResultListener", ptr %listener, i64 0, i32 1
  %add.ptr.i = getelementptr inbounds %"class.testing::StringMatchResultListener", ptr %listener, i64 0, i32 1, i32 0, i32 1
  %stream_.i.i = getelementptr inbounds %"class.testing::MatchResultListener", ptr %listener, i64 0, i32 1
  store ptr %add.ptr.i, ptr %stream_.i.i, align 8
  store ptr getelementptr inbounds ({ [4 x ptr] }, ptr @_ZTVN7testing25StringMatchResultListenerE, i64 0, inrange i32 0, i64 2), ptr %listener, align 8
  invoke void @_ZNSt7__cxx1118basic_stringstreamIcSt11char_traitsIcESaIcEEC1Ev(ptr noundef nonnull align 8 dereferenceable(128) %ss_.i)
          to label %invoke.cont15 unwind label %lpad4

invoke.cont15:                                    ; preds = %invoke.cont14
  %call18 = invoke noundef zeroext i1 @_ZN7testing8internal20MatchPrintAndExplainIKSt6vectorISt4pairIdmESaIS4_EERS7_EEbRT_RKNS_7MatcherIT0_EEPNS_19MatchResultListenerE(ptr noundef nonnull align 8 dereferenceable(24) %x, ptr noundef nonnull align 8 dereferenceable(24) %matcher, ptr noundef nonnull %listener)
          to label %invoke.cont17 unwind label %lpad16

invoke.cont17:                                    ; preds = %invoke.cont15
  br i1 %call18, label %if.then19, label %if.end23

if.then19:                                        ; preds = %invoke.cont17
  %call22 = invoke noundef nonnull align 8 dereferenceable(8) ptr @_ZStlsISt11char_traitsIcEERSt13basic_ostreamIcT_ES5_PKc(ptr noundef nonnull align 8 dereferenceable(8) %add.ptr, ptr noundef nonnull @.str.21)
          to label %if.end23 unwind label %lpad16

lpad4:                                            ; preds = %invoke.cont14, %if.end.i, %if.else.i, %invoke.cont11, %invoke.cont9, %invoke.cont7, %invoke.cont5, %invoke.cont3
  %9 = landingpad { ptr, i32 }
          cleanup
  br label %ehcleanup41

lpad16:                                           ; preds = %invoke.cont25, %invoke.cont29, %if.end23, %if.then19, %invoke.cont15
  %10 = landingpad { ptr, i32 }
          cleanup
  br label %ehcleanup40

if.end23:                                         ; preds = %if.then19, %invoke.cont17
  %call26 = invoke noundef nonnull align 8 dereferenceable(8) ptr @_ZStlsISt11char_traitsIcEERSt13basic_ostreamIcT_ES5_PKc(ptr noundef nonnull align 8 dereferenceable(8) %add.ptr, ptr noundef nonnull @.str.22)
          to label %invoke.cont25 unwind label %lpad16

invoke.cont25:                                    ; preds = %if.end23
  invoke void @_ZNKSt7__cxx1118basic_stringstreamIcSt11char_traitsIcESaIcEE3strEv(ptr nonnull sret(%"class.std::__cxx11::basic_string") align 8 %ref.tmp, ptr noundef nonnull align 8 dereferenceable(128) %ss_.i)
          to label %invoke.cont27 unwind label %lpad16

invoke.cont27:                                    ; preds = %invoke.cont25
  %call30 = invoke noundef nonnull align 8 dereferenceable(8) ptr @_ZStlsIcSt11char_traitsIcESaIcEERSt13basic_ostreamIT_T0_ES7_RKNSt7__cxx1112basic_stringIS4_S5_T1_EE(ptr noundef nonnull align 8 dereferenceable(8) %call26, ptr noundef nonnull align 8 dereferenceable(32) %ref.tmp)
          to label %invoke.cont29 unwind label %lpad28

invoke.cont29:                                    ; preds = %invoke.cont27
  call void @_ZNSt7__cxx1112basic_stringIcSt11char_traitsIcESaIcEED1Ev(ptr noundef nonnull align 8 dereferenceable(32) %ref.tmp) #23
  invoke void @_ZN7testing16AssertionFailureEv(ptr nonnull sret(%"class.testing::AssertionResult") align 8 %ref.tmp31)
          to label %invoke.cont32 unwind label %lpad16

invoke.cont32:                                    ; preds = %invoke.cont29
  invoke void @_ZNKSt7__cxx1118basic_stringstreamIcSt11char_traitsIcESaIcEE3strEv(ptr nonnull sret(%"class.std::__cxx11::basic_string") align 8 %ref.tmp33, ptr noundef nonnull align 8 dereferenceable(128) %ss)
          to label %invoke.cont35 unwind label %lpad34

invoke.cont35:                                    ; preds = %invoke.cont32
  call void @llvm.lifetime.start.p0(i64 8, ptr nonnull %ref.tmp.i16)
  invoke void @_ZN7testing7MessageC1Ev(ptr noundef nonnull align 8 dereferenceable(8) %ref.tmp.i16)
          to label %.noexc19 unwind label %lpad36

.noexc19:                                         ; preds = %invoke.cont35
  %11 = load ptr, ptr %ref.tmp.i16, align 8
  %add.ptr.i.i = getelementptr inbounds i8, ptr %11, i64 16
  %call2.i1.i = invoke noundef nonnull align 8 dereferenceable(8) ptr @_ZStlsIcSt11char_traitsIcESaIcEERSt13basic_ostreamIT_T0_ES7_RKNSt7__cxx1112basic_stringIS4_S5_T1_EE(ptr noundef nonnull align 8 dereferenceable(8) %add.ptr.i.i, ptr noundef nonnull align 8 dereferenceable(32) %ref.tmp33)
          to label %invoke.cont.i18 unwind label %lpad.i17

invoke.cont.i18:                                  ; preds = %.noexc19
  invoke void @_ZN7testing15AssertionResult13AppendMessageERKNS_7MessageE(ptr noundef nonnull align 8 dereferenceable(16) %ref.tmp31, ptr noundef nonnull align 8 dereferenceable(8) %ref.tmp.i16)
          to label %invoke.cont2.i unwind label %lpad.i17

invoke.cont2.i:                                   ; preds = %invoke.cont.i18
  %12 = load ptr, ptr %ref.tmp.i16, align 8
  %cmp.not.i.i.i = icmp eq ptr %12, null
  br i1 %cmp.not.i.i.i, label %invoke.cont37, label %_ZNKSt14default_deleteINSt7__cxx1118basic_stringstreamIcSt11char_traitsIcESaIcEEEEclEPS5_.exit.i.i.i

_ZNKSt14default_deleteINSt7__cxx1118basic_stringstreamIcSt11char_traitsIcESaIcEEEEclEPS5_.exit.i.i.i: ; preds = %invoke.cont2.i
  %vtable.i.i.i.i = load ptr, ptr %12, align 8
  %vfn.i.i.i.i = getelementptr inbounds ptr, ptr %vtable.i.i.i.i, i64 1
  %13 = load ptr, ptr %vfn.i.i.i.i, align 8
  call void %13(ptr noundef nonnull align 8 dereferenceable(128) %12) #23
  br label %invoke.cont37

lpad.i17:                                         ; preds = %invoke.cont.i18, %.noexc19
  %14 = landingpad { ptr, i32 }
          cleanup
  %15 = load ptr, ptr %ref.tmp.i16, align 8
  %cmp.not.i.i2.i = icmp eq ptr %15, null
  br i1 %cmp.not.i.i2.i, label %lpad36.body, label %_ZNKSt14default_deleteINSt7__cxx1118basic_stringstreamIcSt11char_traitsIcESaIcEEEEclEPS5_.exit.i.i3.i

_ZNKSt14default_deleteINSt7__cxx1118basic_stringstreamIcSt11char_traitsIcESaIcEEEEclEPS5_.exit.i.i3.i: ; preds = %lpad.i17
  %vtable.i.i.i4.i = load ptr, ptr %15, align 8
  %vfn.i.i.i5.i = getelementptr inbounds ptr, ptr %vtable.i.i.i4.i, i64 1
  %16 = load ptr, ptr %vfn.i.i.i5.i, align 8
  call void %16(ptr noundef nonnull align 8 dereferenceable(128) %15) #23
  br label %lpad36.body

invoke.cont37:                                    ; preds = %_ZNKSt14default_deleteINSt7__cxx1118basic_stringstreamIcSt11char_traitsIcESaIcEEEEclEPS5_.exit.i.i.i, %invoke.cont2.i
  call void @llvm.lifetime.end.p0(i64 8, ptr nonnull %ref.tmp.i16)
  invoke void @_ZN7testing15AssertionResultC1ERKS0_(ptr noundef nonnull align 8 dereferenceable(16) %agg.result, ptr noundef nonnull align 8 dereferenceable(16) %ref.tmp31)
          to label %invoke.cont39 unwind label %lpad36

invoke.cont39:                                    ; preds = %invoke.cont37
  call void @_ZNSt7__cxx1112basic_stringIcSt11char_traitsIcESaIcEED1Ev(ptr noundef nonnull align 8 dereferenceable(32) %ref.tmp33) #23
  %message_.i = getelementptr inbounds %"class.testing::AssertionResult", ptr %ref.tmp31, i64 0, i32 1
  %17 = load ptr, ptr %message_.i, align 8
  %cmp.not.i.i = icmp eq ptr %17, null
  br i1 %cmp.not.i.i, label %_ZN7testing15AssertionResultD2Ev.exit, label %_ZNKSt14default_deleteINSt7__cxx1112basic_stringIcSt11char_traitsIcESaIcEEEEclEPS5_.exit.i.i

_ZNKSt14default_deleteINSt7__cxx1112basic_stringIcSt11char_traitsIcESaIcEEEEclEPS5_.exit.i.i: ; preds = %invoke.cont39
  call void @_ZNSt7__cxx1112basic_stringIcSt11char_traitsIcESaIcEED1Ev(ptr noundef nonnull align 8 dereferenceable(32) %17) #23
  call void @_ZdlPv(ptr noundef nonnull %17) #24
  br label %_ZN7testing15AssertionResultD2Ev.exit

_ZN7testing15AssertionResultD2Ev.exit:            ; preds = %invoke.cont39, %_ZNKSt14default_deleteINSt7__cxx1112basic_stringIcSt11char_traitsIcESaIcEEEEclEPS5_.exit.i.i
  store ptr null, ptr %message_.i, align 8
  store ptr getelementptr inbounds ({ [4 x ptr] }, ptr @_ZTVN7testing25StringMatchResultListenerE, i64 0, inrange i32 0, i64 2), ptr %listener, align 8
  call void @_ZNSt7__cxx1118basic_stringstreamIcSt11char_traitsIcESaIcEED1Ev(ptr noundef nonnull align 8 dereferenceable(128) %ss_.i) #23
  call void @_ZNSt7__cxx1118basic_stringstreamIcSt11char_traitsIcESaIcEED1Ev(ptr noundef nonnull align 8 dereferenceable(128) %ss) #23
  br label %cleanup

lpad28:                                           ; preds = %invoke.cont27
  %18 = landingpad { ptr, i32 }
          cleanup
  call void @_ZNSt7__cxx1112basic_stringIcSt11char_traitsIcESaIcEED1Ev(ptr noundef nonnull align 8 dereferenceable(32) %ref.tmp) #23
  br label %ehcleanup40

lpad34:                                           ; preds = %invoke.cont32
  %19 = landingpad { ptr, i32 }
          cleanup
  br label %ehcleanup

lpad36:                                           ; preds = %invoke.cont35, %invoke.cont37
  %20 = landingpad { ptr, i32 }
          cleanup
  br label %lpad36.body

lpad36.body:                                      ; preds = %lpad.i17, %_ZNKSt14default_deleteINSt7__cxx1118basic_stringstreamIcSt11char_traitsIcESaIcEEEEclEPS5_.exit.i.i3.i, %lpad36
  %eh.lpad-body20 = phi { ptr, i32 } [ %20, %lpad36 ], [ %14, %_ZNKSt14default_deleteINSt7__cxx1118basic_stringstreamIcSt11char_traitsIcESaIcEEEEclEPS5_.exit.i.i3.i ], [ %14, %lpad.i17 ]
  call void @_ZNSt7__cxx1112basic_stringIcSt11char_traitsIcESaIcEED1Ev(ptr noundef nonnull align 8 dereferenceable(32) %ref.tmp33) #23
  br label %ehcleanup

ehcleanup:                                        ; preds = %lpad36.body, %lpad34
  %.pn = phi { ptr, i32 } [ %eh.lpad-body20, %lpad36.body ], [ %19, %lpad34 ]
  call void @_ZN7testing15AssertionResultD2Ev(ptr noundef nonnull align 8 dereferenceable(16) %ref.tmp31) #23
  br label %ehcleanup40

ehcleanup40:                                      ; preds = %ehcleanup, %lpad28, %lpad16
  %.pn.pn = phi { ptr, i32 } [ %.pn, %ehcleanup ], [ %10, %lpad16 ], [ %18, %lpad28 ]
  store ptr getelementptr inbounds ({ [4 x ptr] }, ptr @_ZTVN7testing25StringMatchResultListenerE, i64 0, inrange i32 0, i64 2), ptr %listener, align 8
  call void @_ZNSt7__cxx1118basic_stringstreamIcSt11char_traitsIcESaIcEED1Ev(ptr noundef nonnull align 8 dereferenceable(128) %ss_.i) #23
  br label %ehcleanup41

ehcleanup41:                                      ; preds = %lpad4, %lpad.i, %ehcleanup40
  %.pn.pn.pn = phi { ptr, i32 } [ %.pn.pn, %ehcleanup40 ], [ %9, %lpad4 ], [ %6, %lpad.i ]
  call void @_ZNSt7__cxx1118basic_stringstreamIcSt11char_traitsIcESaIcEED1Ev(ptr noundef nonnull align 8 dereferenceable(128) %ss) #23
  br label %ehcleanup42

cleanup:                                          ; preds = %if.then, %_ZN7testing15AssertionResultD2Ev.exit
  store ptr getelementptr inbounds ({ [6 x ptr] }, ptr @_ZTVN7testing8internal11MatcherBaseIRKSt6vectorISt4pairIdmESaIS4_EEEE, i64 0, inrange i32 0, i64 2), ptr %matcher, align 8
  %21 = load ptr, ptr %vtable_.i.i, align 8
  %cmp.not.i.i.i.i = icmp eq ptr %21, null
  br i1 %cmp.not.i.i.i.i, label %_ZN7testing7MatcherIRKSt6vectorISt4pairIdmESaIS3_EEED2Ev.exit, label %_ZNK7testing8internal11MatcherBaseIRKSt6vectorISt4pairIdmESaIS4_EEE8IsSharedEv.exit.i.i.i

_ZNK7testing8internal11MatcherBaseIRKSt6vectorISt4pairIdmESaIS4_EEE8IsSharedEv.exit.i.i.i: ; preds = %cleanup
  %shared_destroy.i.i.i.i = getelementptr inbounds %"struct.testing::internal::MatcherBase<const std::vector<std::pair<double, unsigned long>> &>::VTable", ptr %21, i64 0, i32 3
  %22 = load ptr, ptr %shared_destroy.i.i.i.i, align 8
  %cmp3.i.not.i.i.i = icmp eq ptr %22, null
  br i1 %cmp3.i.not.i.i.i, label %_ZN7testing7MatcherIRKSt6vectorISt4pairIdmESaIS3_EEED2Ev.exit, label %land.lhs.true.i.i.i

land.lhs.true.i.i.i:                              ; preds = %_ZNK7testing8internal11MatcherBaseIRKSt6vectorISt4pairIdmESaIS4_EEE8IsSharedEv.exit.i.i.i
  %buffer_.i.i.i = getelementptr inbounds %"class.testing::internal::MatcherBase.110", ptr %matcher, i64 0, i32 2
  %23 = load ptr, ptr %buffer_.i.i.i, align 8
  %24 = atomicrmw sub ptr %23, i32 1 acq_rel, align 4
  %cmp.i.i.i.i = icmp eq i32 %24, 1
  br i1 %cmp.i.i.i.i, label %if.then.i.i.i, label %_ZN7testing7MatcherIRKSt6vectorISt4pairIdmESaIS3_EEED2Ev.exit

if.then.i.i.i:                                    ; preds = %land.lhs.true.i.i.i
  %25 = load ptr, ptr %vtable_.i.i, align 8
  %shared_destroy.i.i.i = getelementptr inbounds %"struct.testing::internal::MatcherBase<const std::vector<std::pair<double, unsigned long>> &>::VTable", ptr %25, i64 0, i32 3
  %26 = load ptr, ptr %shared_destroy.i.i.i, align 8
  %27 = load ptr, ptr %buffer_.i.i.i, align 8
  invoke void %26(ptr noundef %27)
          to label %_ZN7testing7MatcherIRKSt6vectorISt4pairIdmESaIS3_EEED2Ev.exit unwind label %terminate.lpad.i.i

terminate.lpad.i.i:                               ; preds = %if.then.i.i.i
  %28 = landingpad { ptr, i32 }
          catch ptr null
  %29 = extractvalue { ptr, i32 } %28, 0
  call void @__clang_call_terminate(ptr %29) #26
  unreachable

_ZN7testing7MatcherIRKSt6vectorISt4pairIdmESaIS3_EEED2Ev.exit: ; preds = %cleanup, %_ZNK7testing8internal11MatcherBaseIRKSt6vectorISt4pairIdmESaIS4_EEE8IsSharedEv.exit.i.i.i, %land.lhs.true.i.i.i, %if.then.i.i.i
  ret void

ehcleanup42:                                      ; preds = %lpad, %lpad.i.i, %ehcleanup41
  %.pn5 = phi { ptr, i32 } [ %.pn.pn.pn, %ehcleanup41 ], [ %4, %lpad ], [ %1, %lpad.i.i ]
  call void @_ZN7testing7MatcherIRKSt6vectorISt4pairIdmESaIS3_EEED2Ev(ptr noundef nonnull align 8 dereferenceable(24) %matcher) #23
  resume { ptr, i32 } %.pn5
}

; Function Attrs: noreturn
declare void @_ZSt28__throw_bad_array_new_lengthv() local_unnamed_addr #9

; Function Attrs: noreturn
declare void @_ZSt20__throw_length_errorPKc(ptr noundef) local_unnamed_addr #9

; Function Attrs: noreturn nounwind uwtable
define linkonce_odr hidden void @__clang_call_terminate(ptr noundef %0) local_unnamed_addr #10 comdat {
  %2 = tail call ptr @__cxa_begin_catch(ptr %0) #23
  tail call void @_ZSt9terminatev() #26
  unreachable
}

declare ptr @__cxa_begin_catch(ptr) local_unnamed_addr

declare void @_ZSt9terminatev() local_unnamed_addr

; Function Attrs: mustprogress nocallback nofree nounwind willreturn memory(argmem: readwrite)
declare void @llvm.memmove.p0.p0.i64(ptr nocapture writeonly, ptr nocapture readonly, i64, i1 immarg) #8

declare void @_ZN7testing16AssertionSuccessEv(ptr sret(%"class.testing::AssertionResult") align 8) local_unnamed_addr #0

declare void @_ZNSt7__cxx1118basic_stringstreamIcSt11char_traitsIcESaIcEEC1Ev(ptr noundef nonnull align 8 dereferenceable(128)) unnamed_addr #0

declare noundef nonnull align 8 dereferenceable(8) ptr @_ZStlsISt11char_traitsIcEERSt13basic_ostreamIcT_ES5_PKc(ptr noundef nonnull align 8 dereferenceable(8), ptr noundef) local_unnamed_addr #0

; Function Attrs: mustprogress uwtable
define linkonce_odr dso_local void @_ZNK7testing8internal11MatcherBaseIRKSt6vectorIdSaIdEEE10DescribeToEPSo(ptr noundef nonnull align 8 dereferenceable(24) %this, ptr noundef %os) unnamed_addr #4 comdat align 2 personality ptr @__gxx_personality_v0 {
entry:
  %ref.tmp = alloca %"class.testing::internal::GTestLog", align 4
  %vtable_ = getelementptr inbounds %"class.testing::internal::MatcherBase", ptr %this, i64 0, i32 1
  %0 = load ptr, ptr %vtable_, align 8
  %cmp = icmp ne ptr %0, null
  %call = tail call noundef zeroext i1 @_ZN7testing8internal6IsTrueEb(i1 noundef zeroext %cmp)
  br i1 %call, label %if.end, label %if.else

if.else:                                          ; preds = %entry
  call void @_ZN7testing8internal8GTestLogC1ENS0_16GTestLogSeverityEPKci(ptr noundef nonnull align 4 dereferenceable(4) %ref.tmp, i32 noundef 3, ptr noundef nonnull @.str.26, i32 noundef 245)
  %call3 = invoke noundef nonnull align 8 dereferenceable(8) ptr @_ZStlsISt11char_traitsIcEERSt13basic_ostreamIcT_ES5_PKc(ptr noundef nonnull align 8 dereferenceable(8) @_ZSt4cerr, ptr noundef nonnull @.str.27)
          to label %invoke.cont unwind label %lpad

invoke.cont:                                      ; preds = %if.else
  call void @_ZN7testing8internal8GTestLogD1Ev(ptr noundef nonnull align 4 dereferenceable(4) %ref.tmp) #23
  br label %if.end

lpad:                                             ; preds = %if.else
  %1 = landingpad { ptr, i32 }
          cleanup
  call void @_ZN7testing8internal8GTestLogD1Ev(ptr noundef nonnull align 4 dereferenceable(4) %ref.tmp) #23
  resume { ptr, i32 } %1

if.end:                                           ; preds = %entry, %invoke.cont
  %2 = load ptr, ptr %vtable_, align 8
  %describe = getelementptr inbounds %"struct.testing::internal::MatcherBase<const std::vector<double> &>::VTable", ptr %2, i64 0, i32 1
  %3 = load ptr, ptr %describe, align 8
  call void %3(ptr noundef nonnull align 8 dereferenceable(24) %this, ptr noundef %os, i1 noundef zeroext false)
  ret void
}

; Function Attrs: mustprogress uwtable
define linkonce_odr dso_local noundef zeroext i1 @_ZN7testing8internal20MatchPrintAndExplainIKSt6vectorIdSaIdEERS5_EEbRT_RKNS_7MatcherIT0_EEPNS_19MatchResultListenerE(ptr noundef nonnull align 8 dereferenceable(24) %value, ptr noundef nonnull align 8 dereferenceable(24) %matcher, ptr noundef %listener) local_unnamed_addr #4 comdat personality ptr @__gxx_personality_v0 {
entry:
  %ref.tmp.i = alloca %"class.testing::internal::GTestLog", align 4
  %ref.tmp.i.i = alloca %"class.testing::internal::GTestLog", align 4
  %dummy.i = alloca %"class.testing::internal::DummyMatchResultListener", align 8
  %inner_listener = alloca %"class.testing::StringMatchResultListener", align 8
  %ref.tmp = alloca %"class.std::__cxx11::basic_string", align 8
  %ref.tmp18 = alloca %"class.std::__cxx11::basic_string", align 8
  %stream_.i = getelementptr inbounds %"class.testing::MatchResultListener", ptr %listener, i64 0, i32 1
  %0 = load ptr, ptr %stream_.i, align 8
  %cmp.i.not = icmp eq ptr %0, null
  br i1 %cmp.i.not, label %if.then, label %if.end

if.then:                                          ; preds = %entry
  call void @llvm.lifetime.start.p0(i64 16, ptr nonnull %dummy.i)
  %stream_.i.i.i = getelementptr inbounds %"class.testing::MatchResultListener", ptr %dummy.i, i64 0, i32 1
  store ptr null, ptr %stream_.i.i.i, align 8
  store ptr getelementptr inbounds ({ [4 x ptr] }, ptr @_ZTVN7testing8internal24DummyMatchResultListenerE, i64 0, inrange i32 0, i64 2), ptr %dummy.i, align 8
  call void @llvm.lifetime.start.p0(i64 4, ptr nonnull %ref.tmp.i.i)
  %vtable_.i.i = getelementptr inbounds %"class.testing::internal::MatcherBase", ptr %matcher, i64 0, i32 1
  %1 = load ptr, ptr %vtable_.i.i, align 8
  %cmp.i.i = icmp ne ptr %1, null
  %call.i1.i = tail call noundef zeroext i1 @_ZN7testing8internal6IsTrueEb(i1 noundef zeroext %cmp.i.i)
  br i1 %call.i1.i, label %_ZNK7testing8internal11MatcherBaseIRKSt6vectorIdSaIdEEE7MatchesES6_.exit, label %if.else.i.i

if.else.i.i:                                      ; preds = %if.then
  call void @_ZN7testing8internal8GTestLogC1ENS0_16GTestLogSeverityEPKci(ptr noundef nonnull align 4 dereferenceable(4) %ref.tmp.i.i, i32 noundef 3, ptr noundef nonnull @.str.26, i32 noundef 233)
  %call3.i.i = invoke noundef nonnull align 8 dereferenceable(8) ptr @_ZStlsISt11char_traitsIcEERSt13basic_ostreamIcT_ES5_PKc(ptr noundef nonnull align 8 dereferenceable(8) @_ZSt4cerr, ptr noundef nonnull @.str.27)
          to label %invoke.cont.i.i unwind label %lpad.i.i

invoke.cont.i.i:                                  ; preds = %if.else.i.i
  call void @_ZN7testing8internal8GTestLogD1Ev(ptr noundef nonnull align 4 dereferenceable(4) %ref.tmp.i.i) #23
  br label %_ZNK7testing8internal11MatcherBaseIRKSt6vectorIdSaIdEEE7MatchesES6_.exit

common.resume:                                    ; preds = %ehcleanup23, %lpad.i.i
  %common.resume.op = phi { ptr, i32 } [ %2, %lpad.i.i ], [ %.pn.pn, %ehcleanup23 ]
  resume { ptr, i32 } %common.resume.op

lpad.i.i:                                         ; preds = %if.else.i.i
  %2 = landingpad { ptr, i32 }
          cleanup
  call void @_ZN7testing8internal8GTestLogD1Ev(ptr noundef nonnull align 4 dereferenceable(4) %ref.tmp.i.i) #23
  br label %common.resume

_ZNK7testing8internal11MatcherBaseIRKSt6vectorIdSaIdEEE7MatchesES6_.exit: ; preds = %if.then, %invoke.cont.i.i
  %3 = load ptr, ptr %vtable_.i.i, align 8
  %4 = load ptr, ptr %3, align 8
  %call5.i2.i = call noundef zeroext i1 %4(ptr noundef nonnull align 8 dereferenceable(24) %matcher, ptr noundef nonnull align 8 dereferenceable(24) %value, ptr noundef nonnull %dummy.i)
  call void @llvm.lifetime.end.p0(i64 4, ptr nonnull %ref.tmp.i.i)
  call void @llvm.lifetime.end.p0(i64 16, ptr nonnull %dummy.i)
  br label %return

if.end:                                           ; preds = %entry
  %ss_.i = getelementptr inbounds %"class.testing::StringMatchResultListener", ptr %inner_listener, i64 0, i32 1
  %add.ptr.i = getelementptr inbounds %"class.testing::StringMatchResultListener", ptr %inner_listener, i64 0, i32 1, i32 0, i32 1
  %stream_.i.i = getelementptr inbounds %"class.testing::MatchResultListener", ptr %inner_listener, i64 0, i32 1
  store ptr %add.ptr.i, ptr %stream_.i.i, align 8
  store ptr getelementptr inbounds ({ [4 x ptr] }, ptr @_ZTVN7testing25StringMatchResultListenerE, i64 0, inrange i32 0, i64 2), ptr %inner_listener, align 8
  call void @_ZNSt7__cxx1118basic_stringstreamIcSt11char_traitsIcESaIcEEC1Ev(ptr noundef nonnull align 8 dereferenceable(128) %ss_.i)
  call void @llvm.lifetime.start.p0(i64 4, ptr nonnull %ref.tmp.i)
  %vtable_.i = getelementptr inbounds %"class.testing::internal::MatcherBase", ptr %matcher, i64 0, i32 1
  %5 = load ptr, ptr %vtable_.i, align 8
  %cmp.i10 = icmp ne ptr %5, null
  %call.i11 = invoke noundef zeroext i1 @_ZN7testing8internal6IsTrueEb(i1 noundef zeroext %cmp.i10)
          to label %call.i.noexc unwind label %lpad

call.i.noexc:                                     ; preds = %if.end
  br i1 %call.i11, label %if.end.i, label %if.else.i

if.else.i:                                        ; preds = %call.i.noexc
  invoke void @_ZN7testing8internal8GTestLogC1ENS0_16GTestLogSeverityEPKci(ptr noundef nonnull align 4 dereferenceable(4) %ref.tmp.i, i32 noundef 3, ptr noundef nonnull @.str.26, i32 noundef 233)
          to label %.noexc unwind label %lpad

.noexc:                                           ; preds = %if.else.i
  %call3.i = invoke noundef nonnull align 8 dereferenceable(8) ptr @_ZStlsISt11char_traitsIcEERSt13basic_ostreamIcT_ES5_PKc(ptr noundef nonnull align 8 dereferenceable(8) @_ZSt4cerr, ptr noundef nonnull @.str.27)
          to label %invoke.cont.i unwind label %lpad.i

invoke.cont.i:                                    ; preds = %.noexc
  call void @_ZN7testing8internal8GTestLogD1Ev(ptr noundef nonnull align 4 dereferenceable(4) %ref.tmp.i) #23
  br label %if.end.i

lpad.i:                                           ; preds = %.noexc
  %6 = landingpad { ptr, i32 }
          cleanup
  call void @_ZN7testing8internal8GTestLogD1Ev(ptr noundef nonnull align 4 dereferenceable(4) %ref.tmp.i) #23
  br label %ehcleanup23

if.end.i:                                         ; preds = %invoke.cont.i, %call.i.noexc
  %7 = load ptr, ptr %vtable_.i, align 8
  %8 = load ptr, ptr %7, align 8
  %call5.i12 = invoke noundef zeroext i1 %8(ptr noundef nonnull align 8 dereferenceable(24) %matcher, ptr noundef nonnull align 8 dereferenceable(24) %value, ptr noundef nonnull %inner_listener)
          to label %invoke.cont unwind label %lpad

invoke.cont:                                      ; preds = %if.end.i
  call void @llvm.lifetime.end.p0(i64 4, ptr nonnull %ref.tmp.i)
  %9 = load ptr, ptr %stream_.i, align 8
  invoke void @_ZN7testing8internal16ContainerPrinter10PrintValueISt6vectorIdSaIdEEvEEvRKT_PSo(ptr noundef nonnull align 8 dereferenceable(24) %value, ptr noundef %9)
          to label %invoke.cont4 unwind label %lpad

invoke.cont4:                                     ; preds = %invoke.cont
  invoke void @_ZN7testing8internal11GetTypeNameB5cxx11ERKSt9type_info(ptr nonnull sret(%"class.std::__cxx11::basic_string") align 8 %ref.tmp, ptr noundef nonnull align 8 dereferenceable(16) @_ZTISt6vectorIdSaIdEE)
          to label %invoke.cont5 unwind label %lpad

invoke.cont5:                                     ; preds = %invoke.cont4
  %call.i = call noundef i64 @_ZNKSt7__cxx1112basic_stringIcSt11char_traitsIcESaIcEE6lengthEv(ptr noundef nonnull align 8 dereferenceable(32) %ref.tmp) #23
  %cmp.i16 = icmp ult i64 %call.i, 21
  br i1 %cmp.i16, label %if.then9, label %_ZN7testing8internal18IsReadableTypeNameERKNSt7__cxx1112basic_stringIcSt11char_traitsIcESaIcEEE.exit

_ZN7testing8internal18IsReadableTypeNameERKNSt7__cxx1112basic_stringIcSt11char_traitsIcESaIcEEE.exit: ; preds = %invoke.cont5
  %call1.i = call noundef i64 @_ZNKSt7__cxx1112basic_stringIcSt11char_traitsIcESaIcEE13find_first_ofEPKcm(ptr noundef nonnull align 8 dereferenceable(32) %ref.tmp, ptr noundef nonnull @.str.53, i64 noundef 0) #23
  %cmp2.i = icmp eq i64 %call1.i, -1
  br i1 %cmp2.i, label %if.then9, label %if.end17

if.then9:                                         ; preds = %invoke.cont5, %_ZN7testing8internal18IsReadableTypeNameERKNSt7__cxx1112basic_stringIcSt11char_traitsIcESaIcEEE.exit
  %10 = load ptr, ptr %stream_.i, align 8
  %call12 = invoke noundef nonnull align 8 dereferenceable(8) ptr @_ZStlsISt11char_traitsIcEERSt13basic_ostreamIcT_ES5_PKc(ptr noundef nonnull align 8 dereferenceable(8) %10, ptr noundef nonnull @.str.50)
          to label %invoke.cont11 unwind label %lpad6

invoke.cont11:                                    ; preds = %if.then9
  %call14 = invoke noundef nonnull align 8 dereferenceable(8) ptr @_ZStlsIcSt11char_traitsIcESaIcEERSt13basic_ostreamIT_T0_ES7_RKNSt7__cxx1112basic_stringIS4_S5_T1_EE(ptr noundef nonnull align 8 dereferenceable(8) %call12, ptr noundef nonnull align 8 dereferenceable(32) %ref.tmp)
          to label %invoke.cont13 unwind label %lpad6

invoke.cont13:                                    ; preds = %invoke.cont11
  %call16 = invoke noundef nonnull align 8 dereferenceable(8) ptr @_ZStlsISt11char_traitsIcEERSt13basic_ostreamIcT_ES5_PKc(ptr noundef nonnull align 8 dereferenceable(8) %call14, ptr noundef nonnull @.str.25)
          to label %if.end17 unwind label %lpad6

lpad:                                             ; preds = %invoke.cont4, %invoke.cont, %if.end.i, %if.else.i, %if.end
  %11 = landingpad { ptr, i32 }
          cleanup
  br label %ehcleanup23

lpad6:                                            ; preds = %if.end17, %invoke.cont13, %invoke.cont11, %if.then9
  %12 = landingpad { ptr, i32 }
          cleanup
  br label %ehcleanup

if.end17:                                         ; preds = %invoke.cont13, %_ZN7testing8internal18IsReadableTypeNameERKNSt7__cxx1112basic_stringIcSt11char_traitsIcESaIcEEE.exit
  invoke void @_ZNKSt7__cxx1118basic_stringstreamIcSt11char_traitsIcESaIcEE3strEv(ptr nonnull sret(%"class.std::__cxx11::basic_string") align 8 %ref.tmp18, ptr noundef nonnull align 8 dereferenceable(128) %ss_.i)
          to label %invoke.cont19 unwind label %lpad6

invoke.cont19:                                    ; preds = %if.end17
  %13 = load ptr, ptr %stream_.i, align 8
  %call.i21 = call noundef zeroext i1 @_ZNKSt7__cxx1112basic_stringIcSt11char_traitsIcESaIcEE5emptyEv(ptr noundef nonnull align 8 dereferenceable(32) %ref.tmp18) #23
  %cmp.i22 = icmp eq ptr %13, null
  %or.cond.not.i = or i1 %cmp.i22, %call.i21
  br i1 %or.cond.not.i, label %invoke.cont22, label %if.then.i

if.then.i:                                        ; preds = %invoke.cont19
  %call1.i2325 = invoke noundef nonnull align 8 dereferenceable(8) ptr @_ZStlsISt11char_traitsIcEERSt13basic_ostreamIcT_ES5_PKc(ptr noundef nonnull align 8 dereferenceable(8) %13, ptr noundef nonnull @.str.49)
          to label %call1.i23.noexc unwind label %lpad21

call1.i23.noexc:                                  ; preds = %if.then.i
  %call2.i26 = invoke noundef nonnull align 8 dereferenceable(8) ptr @_ZStlsIcSt11char_traitsIcESaIcEERSt13basic_ostreamIT_T0_ES7_RKNSt7__cxx1112basic_stringIS4_S5_T1_EE(ptr noundef nonnull align 8 dereferenceable(8) %call1.i2325, ptr noundef nonnull align 8 dereferenceable(32) %ref.tmp18)
          to label %invoke.cont22 unwind label %lpad21

invoke.cont22:                                    ; preds = %invoke.cont19, %call1.i23.noexc
  call void @_ZNSt7__cxx1112basic_stringIcSt11char_traitsIcESaIcEED1Ev(ptr noundef nonnull align 8 dereferenceable(32) %ref.tmp18) #23
  call void @_ZNSt7__cxx1112basic_stringIcSt11char_traitsIcESaIcEED1Ev(ptr noundef nonnull align 8 dereferenceable(32) %ref.tmp) #23
  store ptr getelementptr inbounds ({ [4 x ptr] }, ptr @_ZTVN7testing25StringMatchResultListenerE, i64 0, inrange i32 0, i64 2), ptr %inner_listener, align 8
  call void @_ZNSt7__cxx1118basic_stringstreamIcSt11char_traitsIcESaIcEED1Ev(ptr noundef nonnull align 8 dereferenceable(128) %ss_.i) #23
  br label %return

lpad21:                                           ; preds = %call1.i23.noexc, %if.then.i
  %14 = landingpad { ptr, i32 }
          cleanup
  call void @_ZNSt7__cxx1112basic_stringIcSt11char_traitsIcESaIcEED1Ev(ptr noundef nonnull align 8 dereferenceable(32) %ref.tmp18) #23
  br label %ehcleanup

ehcleanup:                                        ; preds = %lpad21, %lpad6
  %.pn = phi { ptr, i32 } [ %14, %lpad21 ], [ %12, %lpad6 ]
  call void @_ZNSt7__cxx1112basic_stringIcSt11char_traitsIcESaIcEED1Ev(ptr noundef nonnull align 8 dereferenceable(32) %ref.tmp) #23
  br label %ehcleanup23

ehcleanup23:                                      ; preds = %lpad, %lpad.i, %ehcleanup
  %.pn.pn = phi { ptr, i32 } [ %.pn, %ehcleanup ], [ %11, %lpad ], [ %6, %lpad.i ]
  store ptr getelementptr inbounds ({ [4 x ptr] }, ptr @_ZTVN7testing25StringMatchResultListenerE, i64 0, inrange i32 0, i64 2), ptr %inner_listener, align 8
  call void @_ZNSt7__cxx1118basic_stringstreamIcSt11char_traitsIcESaIcEED1Ev(ptr noundef nonnull align 8 dereferenceable(128) %ss_.i) #23
  br label %common.resume

return:                                           ; preds = %invoke.cont22, %_ZNK7testing8internal11MatcherBaseIRKSt6vectorIdSaIdEEE7MatchesES6_.exit
  %retval.0 = phi i1 [ %call5.i12, %invoke.cont22 ], [ %call5.i2.i, %_ZNK7testing8internal11MatcherBaseIRKSt6vectorIdSaIdEEE7MatchesES6_.exit ]
  ret i1 %retval.0
}

declare noundef nonnull align 8 dereferenceable(8) ptr @_ZStlsIcSt11char_traitsIcESaIcEERSt13basic_ostreamIT_T0_ES7_RKNSt7__cxx1112basic_stringIS4_S5_T1_EE(ptr noundef nonnull align 8 dereferenceable(8), ptr noundef nonnull align 8 dereferenceable(32)) local_unnamed_addr #0

declare void @_ZN7testing16AssertionFailureEv(ptr sret(%"class.testing::AssertionResult") align 8) local_unnamed_addr #0

declare void @_ZNKSt7__cxx1118basic_stringstreamIcSt11char_traitsIcESaIcEE3strEv(ptr sret(%"class.std::__cxx11::basic_string") align 8, ptr noundef nonnull align 8 dereferenceable(128)) local_unnamed_addr #0

declare void @_ZN7testing15AssertionResultC1ERKS0_(ptr noundef nonnull align 8 dereferenceable(16), ptr noundef nonnull align 8 dereferenceable(16)) unnamed_addr #0

; Function Attrs: mustprogress nounwind uwtable
define linkonce_odr dso_local void @_ZN7testing25StringMatchResultListenerD2Ev(ptr noundef nonnull align 8 dereferenceable(408) %this) unnamed_addr #3 comdat align 2 {
entry:
  store ptr getelementptr inbounds ({ [4 x ptr] }, ptr @_ZTVN7testing25StringMatchResultListenerE, i64 0, inrange i32 0, i64 2), ptr %this, align 8
  %ss_ = getelementptr inbounds %"class.testing::StringMatchResultListener", ptr %this, i64 0, i32 1
  tail call void @_ZNSt7__cxx1118basic_stringstreamIcSt11char_traitsIcESaIcEED1Ev(ptr noundef nonnull align 8 dereferenceable(128) %ss_) #23
  ret void
}

; Function Attrs: nounwind
declare void @_ZNSt7__cxx1118basic_stringstreamIcSt11char_traitsIcESaIcEED1Ev(ptr noundef nonnull align 8 dereferenceable(128)) unnamed_addr #1

; Function Attrs: mustprogress nounwind uwtable
define linkonce_odr dso_local void @_ZN7testing7MatcherIRKSt6vectorIdSaIdEEED2Ev(ptr noundef nonnull align 8 dereferenceable(24) %this) unnamed_addr #3 comdat align 2 personality ptr @__gxx_personality_v0 {
entry:
  store ptr getelementptr inbounds ({ [6 x ptr] }, ptr @_ZTVN7testing8internal11MatcherBaseIRKSt6vectorIdSaIdEEEE, i64 0, inrange i32 0, i64 2), ptr %this, align 8
  %vtable_.i.i.i = getelementptr inbounds %"class.testing::internal::MatcherBase", ptr %this, i64 0, i32 1
  %0 = load ptr, ptr %vtable_.i.i.i, align 8
  %cmp.not.i.i.i = icmp eq ptr %0, null
  br i1 %cmp.not.i.i.i, label %_ZN7testing8internal11MatcherBaseIRKSt6vectorIdSaIdEEED2Ev.exit, label %_ZNK7testing8internal11MatcherBaseIRKSt6vectorIdSaIdEEE8IsSharedEv.exit.i.i

_ZNK7testing8internal11MatcherBaseIRKSt6vectorIdSaIdEEE8IsSharedEv.exit.i.i: ; preds = %entry
  %shared_destroy.i.i.i = getelementptr inbounds %"struct.testing::internal::MatcherBase<const std::vector<double> &>::VTable", ptr %0, i64 0, i32 3
  %1 = load ptr, ptr %shared_destroy.i.i.i, align 8
  %cmp3.i.not.i.i = icmp eq ptr %1, null
  br i1 %cmp3.i.not.i.i, label %_ZN7testing8internal11MatcherBaseIRKSt6vectorIdSaIdEEED2Ev.exit, label %land.lhs.true.i.i

land.lhs.true.i.i:                                ; preds = %_ZNK7testing8internal11MatcherBaseIRKSt6vectorIdSaIdEEE8IsSharedEv.exit.i.i
  %buffer_.i.i = getelementptr inbounds %"class.testing::internal::MatcherBase", ptr %this, i64 0, i32 2
  %2 = load ptr, ptr %buffer_.i.i, align 8
  %3 = atomicrmw sub ptr %2, i32 1 acq_rel, align 4
  %cmp.i.i.i = icmp eq i32 %3, 1
  br i1 %cmp.i.i.i, label %if.then.i.i, label %_ZN7testing8internal11MatcherBaseIRKSt6vectorIdSaIdEEED2Ev.exit

if.then.i.i:                                      ; preds = %land.lhs.true.i.i
  %4 = load ptr, ptr %vtable_.i.i.i, align 8
  %shared_destroy.i.i = getelementptr inbounds %"struct.testing::internal::MatcherBase<const std::vector<double> &>::VTable", ptr %4, i64 0, i32 3
  %5 = load ptr, ptr %shared_destroy.i.i, align 8
  %6 = load ptr, ptr %buffer_.i.i, align 8
  invoke void %5(ptr noundef %6)
          to label %_ZN7testing8internal11MatcherBaseIRKSt6vectorIdSaIdEEED2Ev.exit unwind label %terminate.lpad.i

terminate.lpad.i:                                 ; preds = %if.then.i.i
  %7 = landingpad { ptr, i32 }
          catch ptr null
  %8 = extractvalue { ptr, i32 } %7, 0
  tail call void @__clang_call_terminate(ptr %8) #26
  unreachable

_ZN7testing8internal11MatcherBaseIRKSt6vectorIdSaIdEEED2Ev.exit: ; preds = %entry, %_ZNK7testing8internal11MatcherBaseIRKSt6vectorIdSaIdEEE8IsSharedEv.exit.i.i, %land.lhs.true.i.i, %if.then.i.i
  ret void
}

; Function Attrs: mustprogress uwtable
define linkonce_odr dso_local void @_ZNK7testing8internal18ElementsAreMatcherISt5tupleIJdddEEEcvNS_7MatcherIT_EEIRKSt6vectorIdSaIdEEEEv(ptr noalias sret(%"class.testing::Matcher") align 8 %agg.result, ptr noundef nonnull align 8 dereferenceable(24) %this) local_unnamed_addr #4 comdat align 2 personality ptr @__gxx_personality_v0 {
_ZNSt12_Vector_baseIN7testing7MatcherIRKdEESaIS4_EE11_M_allocateEm.exit.i.i:
  %ref.tmp.i.i = alloca %"struct.testing::internal::TransformTupleValuesHelper<std::tuple<double, double, double>, testing::internal::CastAndAppendTransform<const double &>, std::back_insert_iterator<std::vector<testing::Matcher<const double &>>>>::IterateOverTuple", align 1
  %matchers = alloca %"class.std::vector.74", align 8
  call void @llvm.memset.p0.i64(ptr noundef nonnull align 8 dereferenceable(24) %matchers, i8 0, i64 24, i1 false)
  %call5.i.i.i.i.i2 = invoke noalias noundef nonnull dereferenceable(72) ptr @_Znwm(i64 noundef 72) #25
          to label %invoke.cont3 unwind label %lpad

invoke.cont3:                                     ; preds = %_ZNSt12_Vector_baseIN7testing7MatcherIRKdEESaIS4_EE11_M_allocateEm.exit.i.i
  %_M_finish.i.i = getelementptr inbounds %"struct.std::_Vector_base<testing::Matcher<const double &>, std::allocator<testing::Matcher<const double &>>>::_Vector_impl_data", ptr %matchers, i64 0, i32 1
  %_M_end_of_storage.i.i = getelementptr inbounds %"struct.std::_Vector_base<testing::Matcher<const double &>, std::allocator<testing::Matcher<const double &>>>::_Vector_impl_data", ptr %matchers, i64 0, i32 2
  store ptr %call5.i.i.i.i.i2, ptr %matchers, align 8
  store ptr %call5.i.i.i.i.i2, ptr %_M_finish.i.i, align 8
  %add.ptr26.i = getelementptr inbounds %"class.testing::Matcher.79", ptr %call5.i.i.i.i.i2, i64 3
  store ptr %add.ptr26.i, ptr %_M_end_of_storage.i.i, align 8
  call void @llvm.lifetime.start.p0(i64 1, ptr nonnull %ref.tmp.i.i)
  %call.i.i3 = invoke ptr @_ZNK7testing8internal26TransformTupleValuesHelperISt5tupleIJdddEENS0_22CastAndAppendTransformIRKdEESt20back_insert_iteratorISt6vectorINS_7MatcherIS6_EESaISB_EEEE16IterateOverTupleIS3_Lm3EEclES7_RKS3_SE_(ptr noundef nonnull align 1 dereferenceable(1) %ref.tmp.i.i, ptr noundef nonnull align 8 dereferenceable(24) %this, ptr nonnull %matchers)
          to label %invoke.cont5 unwind label %lpad

invoke.cont5:                                     ; preds = %invoke.cont3
  call void @llvm.lifetime.end.p0(i64 1, ptr nonnull %ref.tmp.i.i)
  %call9 = invoke noalias noundef nonnull dereferenceable(32) ptr @_Znwm(i64 noundef 32) #25
          to label %invoke.cont8 unwind label %lpad

invoke.cont8:                                     ; preds = %invoke.cont5
  %0 = load ptr, ptr %matchers, align 8
  %_M_finish.i = getelementptr inbounds %"struct.std::_Vector_base<testing::Matcher<const double &>, std::allocator<testing::Matcher<const double &>>>::_Vector_impl_data", ptr %matchers, i64 0, i32 1
  %1 = load ptr, ptr %_M_finish.i, align 8
  invoke void @_ZN7testing8internal22ElementsAreMatcherImplIRKSt6vectorIdSaIdEEEC2IN9__gnu_cxx17__normal_iteratorIPNS_7MatcherIRKdEES2_ISE_SaISE_EEEEEET_SJ_(ptr noundef nonnull align 8 dereferenceable(32) %call9, ptr %0, ptr %1)
          to label %invoke.cont19 unwind label %lpad18

invoke.cont19:                                    ; preds = %invoke.cont8
  store ptr getelementptr inbounds ({ [6 x ptr] }, ptr @_ZTVN7testing8internal11MatcherBaseIRKSt6vectorIdSaIdEEEE, i64 0, inrange i32 0, i64 2), ptr %agg.result, align 8
  %vtable_.i.i = getelementptr inbounds %"class.testing::internal::MatcherBase", ptr %agg.result, i64 0, i32 1
  %buffer_.i.i = getelementptr inbounds %"class.testing::internal::MatcherBase", ptr %agg.result, i64 0, i32 2
  store i64 0, ptr %buffer_.i.i, align 8
  store ptr @_ZZN7testing8internal11MatcherBaseIRKSt6vectorIdSaIdEEE9GetVTableINS7_11ValuePolicyIPKNS_16MatcherInterfaceIS6_EELb1EEEEEPKNS7_6VTableEvE7kVTable, ptr %vtable_.i.i, align 8
  %call.i.i1.i.i4 = invoke noalias noundef nonnull dereferenceable(16) ptr @_Znwm(i64 noundef 16) #25
          to label %invoke.cont20 unwind label %lpad

invoke.cont20:                                    ; preds = %invoke.cont19
  store i32 1, ptr %call.i.i1.i.i4, align 4
  %value.i.i.i.i.i = getelementptr inbounds %"struct.testing::internal::SharedPayload", ptr %call.i.i1.i.i4, i64 0, i32 1
  %2 = ptrtoint ptr %call9 to i64
  store i64 %2, ptr %value.i.i.i.i.i, align 8
  store ptr %call.i.i1.i.i4, ptr %buffer_.i.i, align 8
  store ptr getelementptr inbounds ({ [6 x ptr] }, ptr @_ZTVN7testing7MatcherIRKSt6vectorIdSaIdEEEE, i64 0, inrange i32 0, i64 2), ptr %agg.result, align 8
  %3 = load ptr, ptr %matchers, align 8
  %4 = load ptr, ptr %_M_finish.i, align 8
  %cmp.not3.i.i.i.i6 = icmp eq ptr %3, %4
  br i1 %cmp.not3.i.i.i.i6, label %invoke.cont.i, label %for.body.i.i.i.i7

for.body.i.i.i.i7:                                ; preds = %invoke.cont20, %for.body.i.i.i.i7
  %__first.addr.04.i.i.i.i8 = phi ptr [ %incdec.ptr.i.i.i.i10, %for.body.i.i.i.i7 ], [ %3, %invoke.cont20 ]
  %vtable.i.i.i.i.i9 = load ptr, ptr %__first.addr.04.i.i.i.i8, align 8
  %5 = load ptr, ptr %vtable.i.i.i.i.i9, align 8
  call void %5(ptr noundef nonnull align 8 dereferenceable(24) %__first.addr.04.i.i.i.i8) #23
  %incdec.ptr.i.i.i.i10 = getelementptr inbounds %"class.testing::Matcher.79", ptr %__first.addr.04.i.i.i.i8, i64 1
  %cmp.not.i.i.i.i11 = icmp eq ptr %incdec.ptr.i.i.i.i10, %4
  br i1 %cmp.not.i.i.i.i11, label %invoke.contthread-pre-split.i, label %for.body.i.i.i.i7, !llvm.loop !7

invoke.contthread-pre-split.i:                    ; preds = %for.body.i.i.i.i7
  %.pr.i12 = load ptr, ptr %matchers, align 8
  br label %invoke.cont.i

invoke.cont.i:                                    ; preds = %invoke.contthread-pre-split.i, %invoke.cont20
  %6 = phi ptr [ %.pr.i12, %invoke.contthread-pre-split.i ], [ %3, %invoke.cont20 ]
  %tobool.not.i.i.i = icmp eq ptr %6, null
  br i1 %tobool.not.i.i.i, label %_ZNSt6vectorIN7testing7MatcherIRKdEESaIS4_EED2Ev.exit, label %if.then.i.i.i

if.then.i.i.i:                                    ; preds = %invoke.cont.i
  call void @_ZdlPv(ptr noundef nonnull %6) #24
  br label %_ZNSt6vectorIN7testing7MatcherIRKdEESaIS4_EED2Ev.exit

_ZNSt6vectorIN7testing7MatcherIRKdEESaIS4_EED2Ev.exit: ; preds = %invoke.cont.i, %if.then.i.i.i
  ret void

lpad:                                             ; preds = %invoke.cont19, %invoke.cont3, %_ZNSt12_Vector_baseIN7testing7MatcherIRKdEESaIS4_EE11_M_allocateEm.exit.i.i, %invoke.cont5
  %7 = landingpad { ptr, i32 }
          cleanup
  br label %ehcleanup

lpad18:                                           ; preds = %invoke.cont8
  %8 = landingpad { ptr, i32 }
          cleanup
  call void @_ZdlPv(ptr noundef nonnull %call9) #24
  br label %ehcleanup

ehcleanup:                                        ; preds = %lpad18, %lpad
  %.pn = phi { ptr, i32 } [ %7, %lpad ], [ %8, %lpad18 ]
  call void @_ZNSt6vectorIN7testing7MatcherIRKdEESaIS4_EED2Ev(ptr noundef nonnull align 8 dereferenceable(24) %matchers) #23
  resume { ptr, i32 } %.pn
}

; Function Attrs: mustprogress uwtable
define linkonce_odr dso_local void @_ZN7testing8internal22ElementsAreMatcherImplIRKSt6vectorIdSaIdEEEC2IN9__gnu_cxx17__normal_iteratorIPNS_7MatcherIRKdEES2_ISE_SaISE_EEEEEET_SJ_(ptr noundef nonnull align 8 dereferenceable(32) %this, ptr %first.coerce, ptr %last.coerce) unnamed_addr #4 comdat align 2 personality ptr @__gxx_personality_v0 {
entry:
  %ref.tmp = alloca %"class.testing::Matcher.79", align 8
  store ptr getelementptr inbounds ({ [7 x ptr] }, ptr @_ZTVN7testing8internal22ElementsAreMatcherImplIRKSt6vectorIdSaIdEEEE, i64 0, inrange i32 0, i64 2), ptr %this, align 8
  %matchers_ = getelementptr inbounds %"class.testing::internal::ElementsAreMatcherImpl", ptr %this, i64 0, i32 1
  tail call void @llvm.memset.p0.i64(ptr noundef nonnull align 8 dereferenceable(24) %matchers_, i8 0, i64 24, i1 false)
  %cmp.i.not4 = icmp eq ptr %first.coerce, %last.coerce
  br i1 %cmp.i.not4, label %while.end, label %while.body.lr.ph

while.body.lr.ph:                                 ; preds = %entry
  %vtable_.i.i.i.i = getelementptr inbounds %"class.testing::internal::MatcherBase.80", ptr %ref.tmp, i64 0, i32 1
  %buffer_.i.i.i.i = getelementptr inbounds %"class.testing::internal::MatcherBase.80", ptr %ref.tmp, i64 0, i32 2
  %_M_finish.i.i = getelementptr inbounds %"class.testing::internal::ElementsAreMatcherImpl", ptr %this, i64 0, i32 1, i32 0, i32 0, i32 0, i32 1
  %_M_end_of_storage.i.i = getelementptr inbounds %"class.testing::internal::ElementsAreMatcherImpl", ptr %this, i64 0, i32 1, i32 0, i32 0, i32 0, i32 2
  br label %while.body

while.body:                                       ; preds = %while.body.lr.ph, %_ZN7testing7MatcherIRKdED2Ev.exit
  %first.sroa.0.05 = phi ptr [ %first.coerce, %while.body.lr.ph ], [ %incdec.ptr.i, %_ZN7testing7MatcherIRKdED2Ev.exit ]
  %incdec.ptr.i = getelementptr inbounds %"class.testing::Matcher.79", ptr %first.sroa.0.05, i64 1
  call void @llvm.experimental.noalias.scope.decl(metadata !8)
  call void @llvm.experimental.noalias.scope.decl(metadata !11)
  %vtable_2.i.i.i.i = getelementptr inbounds %"class.testing::internal::MatcherBase.80", ptr %first.sroa.0.05, i64 0, i32 1
  %0 = load ptr, ptr %vtable_2.i.i.i.i, align 8, !noalias !14
  store ptr %0, ptr %vtable_.i.i.i.i, align 8, !alias.scope !14
  %buffer_3.i.i.i.i = getelementptr inbounds %"class.testing::internal::MatcherBase.80", ptr %first.sroa.0.05, i64 0, i32 2
  %1 = load i64, ptr %buffer_3.i.i.i.i, align 8, !noalias !14
  store i64 %1, ptr %buffer_.i.i.i.i, align 8, !alias.scope !14
  %cmp.not.i.i.i.i.i = icmp eq ptr %0, null
  %2 = inttoptr i64 %1 to ptr
  br i1 %cmp.not.i.i.i.i.i, label %invoke.cont, label %_ZNK7testing8internal11MatcherBaseIRKdE8IsSharedEv.exit.i.i.i.i

_ZNK7testing8internal11MatcherBaseIRKdE8IsSharedEv.exit.i.i.i.i: ; preds = %while.body
  %shared_destroy.i.i.i.i.i = getelementptr inbounds %"struct.testing::internal::MatcherBase<const double &>::VTable", ptr %0, i64 0, i32 3
  %3 = load ptr, ptr %shared_destroy.i.i.i.i.i, align 8, !noalias !14
  %cmp3.i.not.i.i.i.i = icmp eq ptr %3, null
  br i1 %cmp3.i.not.i.i.i.i, label %invoke.cont, label %if.then.i.i.i.i

if.then.i.i.i.i:                                  ; preds = %_ZNK7testing8internal11MatcherBaseIRKdE8IsSharedEv.exit.i.i.i.i
  %4 = atomicrmw add ptr %2, i32 1 monotonic, align 4, !noalias !14
  br label %invoke.cont

invoke.cont:                                      ; preds = %if.then.i.i.i.i, %_ZNK7testing8internal11MatcherBaseIRKdE8IsSharedEv.exit.i.i.i.i, %while.body
  store ptr getelementptr inbounds ({ [6 x ptr] }, ptr @_ZTVN7testing7MatcherIRKdEE, i64 0, inrange i32 0, i64 2), ptr %ref.tmp, align 8, !alias.scope !14
  %5 = load ptr, ptr %_M_finish.i.i, align 8
  %6 = load ptr, ptr %_M_end_of_storage.i.i, align 8
  %cmp.not.i.i = icmp eq ptr %5, %6
  br i1 %cmp.not.i.i, label %if.else.i.i, label %if.then.i.i

if.then.i.i:                                      ; preds = %invoke.cont
  store ptr getelementptr inbounds ({ [6 x ptr] }, ptr @_ZTVN7testing8internal11MatcherBaseIRKdEE, i64 0, inrange i32 0, i64 2), ptr %5, align 8
  %vtable_.i.i.i.i.i.i = getelementptr inbounds %"class.testing::internal::MatcherBase.80", ptr %5, i64 0, i32 1
  %7 = load ptr, ptr %vtable_.i.i.i.i, align 8
  store ptr %7, ptr %vtable_.i.i.i.i.i.i, align 8
  %buffer_.i.i.i.i.i.i = getelementptr inbounds %"class.testing::internal::MatcherBase.80", ptr %5, i64 0, i32 2
  %8 = load i64, ptr %buffer_.i.i.i.i, align 8
  store i64 %8, ptr %buffer_.i.i.i.i.i.i, align 8
  store ptr null, ptr %vtable_.i.i.i.i, align 8
  store ptr getelementptr inbounds ({ [6 x ptr] }, ptr @_ZTVN7testing7MatcherIRKdEE, i64 0, inrange i32 0, i64 2), ptr %5, align 8
  %9 = load ptr, ptr %_M_finish.i.i, align 8
  %incdec.ptr.i.i = getelementptr inbounds %"class.testing::Matcher.79", ptr %9, i64 1
  store ptr %incdec.ptr.i.i, ptr %_M_finish.i.i, align 8
  br label %invoke.cont9

if.else.i.i:                                      ; preds = %invoke.cont
  invoke void @_ZNSt6vectorIN7testing7MatcherIRKdEESaIS4_EE17_M_realloc_insertIJS4_EEEvN9__gnu_cxx17__normal_iteratorIPS4_S6_EEDpOT_(ptr noundef nonnull align 8 dereferenceable(24) %matchers_, ptr %5, ptr noundef nonnull align 8 dereferenceable(24) %ref.tmp)
          to label %invoke.cont9 unwind label %lpad8

invoke.cont9:                                     ; preds = %if.then.i.i, %if.else.i.i
  store ptr getelementptr inbounds ({ [6 x ptr] }, ptr @_ZTVN7testing8internal11MatcherBaseIRKdEE, i64 0, inrange i32 0, i64 2), ptr %ref.tmp, align 8
  %10 = load ptr, ptr %vtable_.i.i.i.i, align 8
  %cmp.not.i.i.i.i = icmp eq ptr %10, null
  br i1 %cmp.not.i.i.i.i, label %_ZN7testing7MatcherIRKdED2Ev.exit, label %_ZNK7testing8internal11MatcherBaseIRKdE8IsSharedEv.exit.i.i.i

_ZNK7testing8internal11MatcherBaseIRKdE8IsSharedEv.exit.i.i.i: ; preds = %invoke.cont9
  %shared_destroy.i.i.i.i = getelementptr inbounds %"struct.testing::internal::MatcherBase<const double &>::VTable", ptr %10, i64 0, i32 3
  %11 = load ptr, ptr %shared_destroy.i.i.i.i, align 8
  %cmp3.i.not.i.i.i = icmp eq ptr %11, null
  br i1 %cmp3.i.not.i.i.i, label %_ZN7testing7MatcherIRKdED2Ev.exit, label %land.lhs.true.i.i.i

land.lhs.true.i.i.i:                              ; preds = %_ZNK7testing8internal11MatcherBaseIRKdE8IsSharedEv.exit.i.i.i
  %12 = load ptr, ptr %buffer_.i.i.i.i, align 8
  %13 = atomicrmw sub ptr %12, i32 1 acq_rel, align 4
  %cmp.i.i.i.i = icmp eq i32 %13, 1
  br i1 %cmp.i.i.i.i, label %if.then.i.i.i, label %_ZN7testing7MatcherIRKdED2Ev.exit

if.then.i.i.i:                                    ; preds = %land.lhs.true.i.i.i
  %14 = load ptr, ptr %vtable_.i.i.i.i, align 8
  %shared_destroy.i.i.i = getelementptr inbounds %"struct.testing::internal::MatcherBase<const double &>::VTable", ptr %14, i64 0, i32 3
  %15 = load ptr, ptr %shared_destroy.i.i.i, align 8
  %16 = load ptr, ptr %buffer_.i.i.i.i, align 8
  invoke void %15(ptr noundef %16)
          to label %_ZN7testing7MatcherIRKdED2Ev.exit unwind label %terminate.lpad.i.i

terminate.lpad.i.i:                               ; preds = %if.then.i.i.i
  %17 = landingpad { ptr, i32 }
          catch ptr null
  %18 = extractvalue { ptr, i32 } %17, 0
  call void @__clang_call_terminate(ptr %18) #26
  unreachable

_ZN7testing7MatcherIRKdED2Ev.exit:                ; preds = %invoke.cont9, %_ZNK7testing8internal11MatcherBaseIRKdE8IsSharedEv.exit.i.i.i, %land.lhs.true.i.i.i, %if.then.i.i.i
  %cmp.i.not = icmp eq ptr %incdec.ptr.i, %last.coerce
  br i1 %cmp.i.not, label %while.end, label %while.body, !llvm.loop !15

lpad8:                                            ; preds = %if.else.i.i
  %19 = landingpad { ptr, i32 }
          cleanup
  call void @_ZN7testing7MatcherIRKdED2Ev(ptr noundef nonnull align 8 dereferenceable(24) %ref.tmp) #23
  call void @_ZNSt6vectorIN7testing7MatcherIRKdEESaIS4_EED2Ev(ptr noundef nonnull align 8 dereferenceable(24) %matchers_) #23
  resume { ptr, i32 } %19

while.end:                                        ; preds = %_ZN7testing7MatcherIRKdED2Ev.exit, %entry
  ret void
}

; Function Attrs: mustprogress nounwind uwtable
define linkonce_odr dso_local void @_ZNSt6vectorIN7testing7MatcherIRKdEESaIS4_EED2Ev(ptr noundef nonnull align 8 dereferenceable(24) %this) unnamed_addr #3 comdat align 2 personality ptr @__gxx_personality_v0 {
entry:
  %0 = load ptr, ptr %this, align 8
  %_M_finish = getelementptr inbounds %"struct.std::_Vector_base<testing::Matcher<const double &>, std::allocator<testing::Matcher<const double &>>>::_Vector_impl_data", ptr %this, i64 0, i32 1
  %1 = load ptr, ptr %_M_finish, align 8
  %cmp.not3.i.i.i = icmp eq ptr %0, %1
  br i1 %cmp.not3.i.i.i, label %invoke.cont, label %for.body.i.i.i

for.body.i.i.i:                                   ; preds = %entry, %for.body.i.i.i
  %__first.addr.04.i.i.i = phi ptr [ %incdec.ptr.i.i.i, %for.body.i.i.i ], [ %0, %entry ]
  %vtable.i.i.i.i = load ptr, ptr %__first.addr.04.i.i.i, align 8
  %2 = load ptr, ptr %vtable.i.i.i.i, align 8
  tail call void %2(ptr noundef nonnull align 8 dereferenceable(24) %__first.addr.04.i.i.i) #23
  %incdec.ptr.i.i.i = getelementptr inbounds %"class.testing::Matcher.79", ptr %__first.addr.04.i.i.i, i64 1
  %cmp.not.i.i.i = icmp eq ptr %incdec.ptr.i.i.i, %1
  br i1 %cmp.not.i.i.i, label %invoke.contthread-pre-split, label %for.body.i.i.i, !llvm.loop !7

invoke.contthread-pre-split:                      ; preds = %for.body.i.i.i
  %.pr = load ptr, ptr %this, align 8
  br label %invoke.cont

invoke.cont:                                      ; preds = %invoke.contthread-pre-split, %entry
  %3 = phi ptr [ %.pr, %invoke.contthread-pre-split ], [ %0, %entry ]
  %tobool.not.i.i = icmp eq ptr %3, null
  br i1 %tobool.not.i.i, label %_ZNSt12_Vector_baseIN7testing7MatcherIRKdEESaIS4_EED2Ev.exit, label %if.then.i.i

if.then.i.i:                                      ; preds = %invoke.cont
  tail call void @_ZdlPv(ptr noundef nonnull %3) #24
  br label %_ZNSt12_Vector_baseIN7testing7MatcherIRKdEESaIS4_EED2Ev.exit

_ZNSt12_Vector_baseIN7testing7MatcherIRKdEESaIS4_EED2Ev.exit: ; preds = %invoke.cont, %if.then.i.i
  ret void
}

; Function Attrs: mustprogress nounwind uwtable
define linkonce_odr dso_local void @_ZN7testing7MatcherIRKdED2Ev(ptr noundef nonnull align 8 dereferenceable(24) %this) unnamed_addr #3 comdat align 2 personality ptr @__gxx_personality_v0 {
entry:
  store ptr getelementptr inbounds ({ [6 x ptr] }, ptr @_ZTVN7testing8internal11MatcherBaseIRKdEE, i64 0, inrange i32 0, i64 2), ptr %this, align 8
  %vtable_.i.i.i = getelementptr inbounds %"class.testing::internal::MatcherBase.80", ptr %this, i64 0, i32 1
  %0 = load ptr, ptr %vtable_.i.i.i, align 8
  %cmp.not.i.i.i = icmp eq ptr %0, null
  br i1 %cmp.not.i.i.i, label %_ZN7testing8internal11MatcherBaseIRKdED2Ev.exit, label %_ZNK7testing8internal11MatcherBaseIRKdE8IsSharedEv.exit.i.i

_ZNK7testing8internal11MatcherBaseIRKdE8IsSharedEv.exit.i.i: ; preds = %entry
  %shared_destroy.i.i.i = getelementptr inbounds %"struct.testing::internal::MatcherBase<const double &>::VTable", ptr %0, i64 0, i32 3
  %1 = load ptr, ptr %shared_destroy.i.i.i, align 8
  %cmp3.i.not.i.i = icmp eq ptr %1, null
  br i1 %cmp3.i.not.i.i, label %_ZN7testing8internal11MatcherBaseIRKdED2Ev.exit, label %land.lhs.true.i.i

land.lhs.true.i.i:                                ; preds = %_ZNK7testing8internal11MatcherBaseIRKdE8IsSharedEv.exit.i.i
  %buffer_.i.i = getelementptr inbounds %"class.testing::internal::MatcherBase.80", ptr %this, i64 0, i32 2
  %2 = load ptr, ptr %buffer_.i.i, align 8
  %3 = atomicrmw sub ptr %2, i32 1 acq_rel, align 4
  %cmp.i.i.i = icmp eq i32 %3, 1
  br i1 %cmp.i.i.i, label %if.then.i.i, label %_ZN7testing8internal11MatcherBaseIRKdED2Ev.exit

if.then.i.i:                                      ; preds = %land.lhs.true.i.i
  %4 = load ptr, ptr %vtable_.i.i.i, align 8
  %shared_destroy.i.i = getelementptr inbounds %"struct.testing::internal::MatcherBase<const double &>::VTable", ptr %4, i64 0, i32 3
  %5 = load ptr, ptr %shared_destroy.i.i, align 8
  %6 = load ptr, ptr %buffer_.i.i, align 8
  invoke void %5(ptr noundef %6)
          to label %_ZN7testing8internal11MatcherBaseIRKdED2Ev.exit unwind label %terminate.lpad.i

terminate.lpad.i:                                 ; preds = %if.then.i.i
  %7 = landingpad { ptr, i32 }
          catch ptr null
  %8 = extractvalue { ptr, i32 } %7, 0
  tail call void @__clang_call_terminate(ptr %8) #26
  unreachable

_ZN7testing8internal11MatcherBaseIRKdED2Ev.exit:  ; preds = %entry, %_ZNK7testing8internal11MatcherBaseIRKdE8IsSharedEv.exit.i.i, %land.lhs.true.i.i, %if.then.i.i
  ret void
}

; Function Attrs: mustprogress nounwind uwtable
define linkonce_odr dso_local void @_ZN7testing7MatcherIRKdED0Ev(ptr noundef nonnull align 8 dereferenceable(24) %this) unnamed_addr #3 comdat align 2 personality ptr @__gxx_personality_v0 {
entry:
  store ptr getelementptr inbounds ({ [6 x ptr] }, ptr @_ZTVN7testing8internal11MatcherBaseIRKdEE, i64 0, inrange i32 0, i64 2), ptr %this, align 8
  %vtable_.i.i.i.i = getelementptr inbounds %"class.testing::internal::MatcherBase.80", ptr %this, i64 0, i32 1
  %0 = load ptr, ptr %vtable_.i.i.i.i, align 8
  %cmp.not.i.i.i.i = icmp eq ptr %0, null
  br i1 %cmp.not.i.i.i.i, label %_ZN7testing7MatcherIRKdED2Ev.exit, label %_ZNK7testing8internal11MatcherBaseIRKdE8IsSharedEv.exit.i.i.i

_ZNK7testing8internal11MatcherBaseIRKdE8IsSharedEv.exit.i.i.i: ; preds = %entry
  %shared_destroy.i.i.i.i = getelementptr inbounds %"struct.testing::internal::MatcherBase<const double &>::VTable", ptr %0, i64 0, i32 3
  %1 = load ptr, ptr %shared_destroy.i.i.i.i, align 8
  %cmp3.i.not.i.i.i = icmp eq ptr %1, null
  br i1 %cmp3.i.not.i.i.i, label %_ZN7testing7MatcherIRKdED2Ev.exit, label %land.lhs.true.i.i.i

land.lhs.true.i.i.i:                              ; preds = %_ZNK7testing8internal11MatcherBaseIRKdE8IsSharedEv.exit.i.i.i
  %buffer_.i.i.i = getelementptr inbounds %"class.testing::internal::MatcherBase.80", ptr %this, i64 0, i32 2
  %2 = load ptr, ptr %buffer_.i.i.i, align 8
  %3 = atomicrmw sub ptr %2, i32 1 acq_rel, align 4
  %cmp.i.i.i.i = icmp eq i32 %3, 1
  br i1 %cmp.i.i.i.i, label %if.then.i.i.i, label %_ZN7testing7MatcherIRKdED2Ev.exit

if.then.i.i.i:                                    ; preds = %land.lhs.true.i.i.i
  %4 = load ptr, ptr %vtable_.i.i.i.i, align 8
  %shared_destroy.i.i.i = getelementptr inbounds %"struct.testing::internal::MatcherBase<const double &>::VTable", ptr %4, i64 0, i32 3
  %5 = load ptr, ptr %shared_destroy.i.i.i, align 8
  %6 = load ptr, ptr %buffer_.i.i.i, align 8
  invoke void %5(ptr noundef %6)
          to label %_ZN7testing7MatcherIRKdED2Ev.exit unwind label %terminate.lpad.i.i

terminate.lpad.i.i:                               ; preds = %if.then.i.i.i
  %7 = landingpad { ptr, i32 }
          catch ptr null
  %8 = extractvalue { ptr, i32 } %7, 0
  tail call void @__clang_call_terminate(ptr %8) #26
  unreachable

_ZN7testing7MatcherIRKdED2Ev.exit:                ; preds = %entry, %_ZNK7testing8internal11MatcherBaseIRKdE8IsSharedEv.exit.i.i.i, %land.lhs.true.i.i.i, %if.then.i.i.i
  tail call void @_ZdlPv(ptr noundef nonnull %this) #24
  ret void
}

; Function Attrs: mustprogress uwtable
define linkonce_odr dso_local void @_ZNK7testing8internal11MatcherBaseIRKdE10DescribeToEPSo(ptr noundef nonnull align 8 dereferenceable(24) %this, ptr noundef %os) unnamed_addr #4 comdat align 2 personality ptr @__gxx_personality_v0 {
entry:
  %ref.tmp = alloca %"class.testing::internal::GTestLog", align 4
  %vtable_ = getelementptr inbounds %"class.testing::internal::MatcherBase.80", ptr %this, i64 0, i32 1
  %0 = load ptr, ptr %vtable_, align 8
  %cmp = icmp ne ptr %0, null
  %call = tail call noundef zeroext i1 @_ZN7testing8internal6IsTrueEb(i1 noundef zeroext %cmp)
  br i1 %call, label %if.end, label %if.else

if.else:                                          ; preds = %entry
  call void @_ZN7testing8internal8GTestLogC1ENS0_16GTestLogSeverityEPKci(ptr noundef nonnull align 4 dereferenceable(4) %ref.tmp, i32 noundef 3, ptr noundef nonnull @.str.26, i32 noundef 245)
  %call4 = invoke noundef nonnull align 8 dereferenceable(8) ptr @_ZStlsISt11char_traitsIcEERSt13basic_ostreamIcT_ES5_PKc(ptr noundef nonnull align 8 dereferenceable(8) @_ZSt4cerr, ptr noundef nonnull @.str.27)
          to label %invoke.cont3 unwind label %lpad

invoke.cont3:                                     ; preds = %if.else
  call void @_ZN7testing8internal8GTestLogD1Ev(ptr noundef nonnull align 4 dereferenceable(4) %ref.tmp) #23
  br label %if.end

lpad:                                             ; preds = %if.else
  %1 = landingpad { ptr, i32 }
          cleanup
  call void @_ZN7testing8internal8GTestLogD1Ev(ptr noundef nonnull align 4 dereferenceable(4) %ref.tmp) #23
  resume { ptr, i32 } %1

if.end:                                           ; preds = %entry, %invoke.cont3
  %2 = load ptr, ptr %vtable_, align 8
  %describe = getelementptr inbounds %"struct.testing::internal::MatcherBase<const double &>::VTable", ptr %2, i64 0, i32 1
  %3 = load ptr, ptr %describe, align 8
  call void %3(ptr noundef nonnull align 8 dereferenceable(24) %this, ptr noundef %os, i1 noundef zeroext false)
  ret void
}

; Function Attrs: mustprogress uwtable
define linkonce_odr dso_local void @_ZNK7testing8internal11MatcherBaseIRKdE18DescribeNegationToEPSo(ptr noundef nonnull align 8 dereferenceable(24) %this, ptr noundef %os) unnamed_addr #4 comdat align 2 personality ptr @__gxx_personality_v0 {
entry:
  %ref.tmp = alloca %"class.testing::internal::GTestLog", align 4
  %vtable_ = getelementptr inbounds %"class.testing::internal::MatcherBase.80", ptr %this, i64 0, i32 1
  %0 = load ptr, ptr %vtable_, align 8
  %cmp = icmp ne ptr %0, null
  %call = tail call noundef zeroext i1 @_ZN7testing8internal6IsTrueEb(i1 noundef zeroext %cmp)
  br i1 %call, label %if.end, label %if.else

if.else:                                          ; preds = %entry
  call void @_ZN7testing8internal8GTestLogC1ENS0_16GTestLogSeverityEPKci(ptr noundef nonnull align 4 dereferenceable(4) %ref.tmp, i32 noundef 3, ptr noundef nonnull @.str.26, i32 noundef 251)
  %call3 = invoke noundef nonnull align 8 dereferenceable(8) ptr @_ZStlsISt11char_traitsIcEERSt13basic_ostreamIcT_ES5_PKc(ptr noundef nonnull align 8 dereferenceable(8) @_ZSt4cerr, ptr noundef nonnull @.str.27)
          to label %invoke.cont unwind label %lpad

invoke.cont:                                      ; preds = %if.else
  call void @_ZN7testing8internal8GTestLogD1Ev(ptr noundef nonnull align 4 dereferenceable(4) %ref.tmp) #23
  br label %if.end

lpad:                                             ; preds = %if.else
  %1 = landingpad { ptr, i32 }
          cleanup
  call void @_ZN7testing8internal8GTestLogD1Ev(ptr noundef nonnull align 4 dereferenceable(4) %ref.tmp) #23
  resume { ptr, i32 } %1

if.end:                                           ; preds = %entry, %invoke.cont
  %2 = load ptr, ptr %vtable_, align 8
  %describe = getelementptr inbounds %"struct.testing::internal::MatcherBase<const double &>::VTable", ptr %2, i64 0, i32 1
  %3 = load ptr, ptr %describe, align 8
  call void %3(ptr noundef nonnull align 8 dereferenceable(24) %this, ptr noundef %os, i1 noundef zeroext true)
  ret void
}

; Function Attrs: mustprogress nounwind uwtable
define linkonce_odr dso_local void @_ZN7testing8internal11MatcherBaseIRKdED2Ev(ptr noundef nonnull align 8 dereferenceable(24) %this) unnamed_addr #3 comdat align 2 personality ptr @__gxx_personality_v0 {
entry:
  store ptr getelementptr inbounds ({ [6 x ptr] }, ptr @_ZTVN7testing8internal11MatcherBaseIRKdEE, i64 0, inrange i32 0, i64 2), ptr %this, align 8
  %vtable_.i.i = getelementptr inbounds %"class.testing::internal::MatcherBase.80", ptr %this, i64 0, i32 1
  %0 = load ptr, ptr %vtable_.i.i, align 8
  %cmp.not.i.i = icmp eq ptr %0, null
  br i1 %cmp.not.i.i, label %invoke.cont, label %_ZNK7testing8internal11MatcherBaseIRKdE8IsSharedEv.exit.i

_ZNK7testing8internal11MatcherBaseIRKdE8IsSharedEv.exit.i: ; preds = %entry
  %shared_destroy.i.i = getelementptr inbounds %"struct.testing::internal::MatcherBase<const double &>::VTable", ptr %0, i64 0, i32 3
  %1 = load ptr, ptr %shared_destroy.i.i, align 8
  %cmp3.i.not.i = icmp eq ptr %1, null
  br i1 %cmp3.i.not.i, label %invoke.cont, label %land.lhs.true.i

land.lhs.true.i:                                  ; preds = %_ZNK7testing8internal11MatcherBaseIRKdE8IsSharedEv.exit.i
  %buffer_.i = getelementptr inbounds %"class.testing::internal::MatcherBase.80", ptr %this, i64 0, i32 2
  %2 = load ptr, ptr %buffer_.i, align 8
  %3 = atomicrmw sub ptr %2, i32 1 acq_rel, align 4
  %cmp.i.i = icmp eq i32 %3, 1
  br i1 %cmp.i.i, label %if.then.i, label %invoke.cont

if.then.i:                                        ; preds = %land.lhs.true.i
  %4 = load ptr, ptr %vtable_.i.i, align 8
  %shared_destroy.i = getelementptr inbounds %"struct.testing::internal::MatcherBase<const double &>::VTable", ptr %4, i64 0, i32 3
  %5 = load ptr, ptr %shared_destroy.i, align 8
  %6 = load ptr, ptr %buffer_.i, align 8
  invoke void %5(ptr noundef %6)
          to label %invoke.cont unwind label %terminate.lpad

invoke.cont:                                      ; preds = %land.lhs.true.i, %_ZNK7testing8internal11MatcherBaseIRKdE8IsSharedEv.exit.i, %entry, %if.then.i
  ret void

terminate.lpad:                                   ; preds = %if.then.i
  %7 = landingpad { ptr, i32 }
          catch ptr null
  %8 = extractvalue { ptr, i32 } %7, 0
  tail call void @__clang_call_terminate(ptr %8) #26
  unreachable
}

; Function Attrs: mustprogress nounwind uwtable
define linkonce_odr dso_local void @_ZN7testing8internal11MatcherBaseIRKdED0Ev(ptr noundef nonnull align 8 dereferenceable(24) %this) unnamed_addr #3 comdat align 2 personality ptr @__gxx_personality_v0 {
entry:
  store ptr getelementptr inbounds ({ [6 x ptr] }, ptr @_ZTVN7testing8internal11MatcherBaseIRKdEE, i64 0, inrange i32 0, i64 2), ptr %this, align 8
  %vtable_.i.i.i = getelementptr inbounds %"class.testing::internal::MatcherBase.80", ptr %this, i64 0, i32 1
  %0 = load ptr, ptr %vtable_.i.i.i, align 8
  %cmp.not.i.i.i = icmp eq ptr %0, null
  br i1 %cmp.not.i.i.i, label %_ZN7testing8internal11MatcherBaseIRKdED2Ev.exit, label %_ZNK7testing8internal11MatcherBaseIRKdE8IsSharedEv.exit.i.i

_ZNK7testing8internal11MatcherBaseIRKdE8IsSharedEv.exit.i.i: ; preds = %entry
  %shared_destroy.i.i.i = getelementptr inbounds %"struct.testing::internal::MatcherBase<const double &>::VTable", ptr %0, i64 0, i32 3
  %1 = load ptr, ptr %shared_destroy.i.i.i, align 8
  %cmp3.i.not.i.i = icmp eq ptr %1, null
  br i1 %cmp3.i.not.i.i, label %_ZN7testing8internal11MatcherBaseIRKdED2Ev.exit, label %land.lhs.true.i.i

land.lhs.true.i.i:                                ; preds = %_ZNK7testing8internal11MatcherBaseIRKdE8IsSharedEv.exit.i.i
  %buffer_.i.i = getelementptr inbounds %"class.testing::internal::MatcherBase.80", ptr %this, i64 0, i32 2
  %2 = load ptr, ptr %buffer_.i.i, align 8
  %3 = atomicrmw sub ptr %2, i32 1 acq_rel, align 4
  %cmp.i.i.i = icmp eq i32 %3, 1
  br i1 %cmp.i.i.i, label %if.then.i.i, label %_ZN7testing8internal11MatcherBaseIRKdED2Ev.exit

if.then.i.i:                                      ; preds = %land.lhs.true.i.i
  %4 = load ptr, ptr %vtable_.i.i.i, align 8
  %shared_destroy.i.i = getelementptr inbounds %"struct.testing::internal::MatcherBase<const double &>::VTable", ptr %4, i64 0, i32 3
  %5 = load ptr, ptr %shared_destroy.i.i, align 8
  %6 = load ptr, ptr %buffer_.i.i, align 8
  invoke void %5(ptr noundef %6)
          to label %_ZN7testing8internal11MatcherBaseIRKdED2Ev.exit unwind label %terminate.lpad.i

terminate.lpad.i:                                 ; preds = %if.then.i.i
  %7 = landingpad { ptr, i32 }
          catch ptr null
  %8 = extractvalue { ptr, i32 } %7, 0
  tail call void @__clang_call_terminate(ptr %8) #26
  unreachable

_ZN7testing8internal11MatcherBaseIRKdED2Ev.exit:  ; preds = %entry, %_ZNK7testing8internal11MatcherBaseIRKdE8IsSharedEv.exit.i.i, %land.lhs.true.i.i, %if.then.i.i
  tail call void @_ZdlPv(ptr noundef nonnull %this) #24
  ret void
}

declare noundef zeroext i1 @_ZN7testing8internal6IsTrueEb(i1 noundef zeroext) local_unnamed_addr #0

declare void @_ZN7testing8internal8GTestLogC1ENS0_16GTestLogSeverityEPKci(ptr noundef nonnull align 4 dereferenceable(4), i32 noundef, ptr noundef, i32 noundef) unnamed_addr #0

; Function Attrs: nounwind
declare void @_ZN7testing8internal8GTestLogD1Ev(ptr noundef nonnull align 4 dereferenceable(4)) unnamed_addr #1

; Function Attrs: mustprogress uwtable
define linkonce_odr dso_local ptr @_ZNK7testing8internal26TransformTupleValuesHelperISt5tupleIJdddEENS0_22CastAndAppendTransformIRKdEESt20back_insert_iteratorISt6vectorINS_7MatcherIS6_EESaISB_EEEE16IterateOverTupleIS3_Lm3EEclES7_RKS3_SE_(ptr noundef nonnull align 1 dereferenceable(1) %this, ptr noundef nonnull align 8 dereferenceable(24) %t, ptr %out.coerce) local_unnamed_addr #4 comdat align 2 personality ptr @__gxx_personality_v0 {
entry:
  %ref.tmp = alloca %"class.testing::Matcher.79", align 8
  %ref.tmp9 = alloca %"struct.testing::internal::TransformTupleValuesHelper<std::tuple<double, double, double>, testing::internal::CastAndAppendTransform<const double &>, std::back_insert_iterator<std::vector<testing::Matcher<const double &>>>>::IterateOverTuple.81", align 1
  %add.ptr.i.i.i = getelementptr inbounds i8, ptr %t, i64 16
  tail call void @llvm.experimental.noalias.scope.decl(metadata !16)
  tail call void @llvm.experimental.noalias.scope.decl(metadata !19)
  tail call void @llvm.experimental.noalias.scope.decl(metadata !22)
  tail call void @llvm.experimental.noalias.scope.decl(metadata !25)
  %vtable_.i.i.i.i.i.i = getelementptr inbounds %"class.testing::internal::MatcherBase.80", ptr %ref.tmp, i64 0, i32 1
  store ptr getelementptr inbounds ({ [6 x ptr] }, ptr @_ZTVN7testing7MatcherIRKdEE, i64 0, inrange i32 0, i64 2), ptr %ref.tmp, align 8, !alias.scope !28
  %0 = load i64, ptr %add.ptr.i.i.i, align 8, !noalias !28
  store ptr @_ZZN7testing8internal11MatcherBaseIRKdE9GetVTableINS4_11ValuePolicyINS0_9EqMatcherIdEELb1EEEEEPKNS4_6VTableEvE7kVTable, ptr %vtable_.i.i.i.i.i.i, align 8, !alias.scope !28
  %buffer_3.i.i.i.i.i.i.i = getelementptr inbounds %"class.testing::internal::MatcherBase.80", ptr %ref.tmp, i64 0, i32 2
  store i64 %0, ptr %buffer_3.i.i.i.i.i.i.i, align 8, !alias.scope !28
  %_M_finish.i.i.i = getelementptr inbounds %"struct.std::_Vector_base<testing::Matcher<const double &>, std::allocator<testing::Matcher<const double &>>>::_Vector_impl_data", ptr %out.coerce, i64 0, i32 1
  %1 = load ptr, ptr %_M_finish.i.i.i, align 8
  %_M_end_of_storage.i.i.i = getelementptr inbounds %"struct.std::_Vector_base<testing::Matcher<const double &>, std::allocator<testing::Matcher<const double &>>>::_Vector_impl_data", ptr %out.coerce, i64 0, i32 2
  %2 = load ptr, ptr %_M_end_of_storage.i.i.i, align 8
  %cmp.not.i.i.i = icmp eq ptr %1, %2
  br i1 %cmp.not.i.i.i, label %if.else.i.i.i, label %invoke.cont7.thread

invoke.cont7.thread:                              ; preds = %entry
  %vtable_.i.i.i.i.i.i.i = getelementptr inbounds %"class.testing::internal::MatcherBase.80", ptr %1, i64 0, i32 1
  store ptr @_ZZN7testing8internal11MatcherBaseIRKdE9GetVTableINS4_11ValuePolicyINS0_9EqMatcherIdEELb1EEEEEPKNS4_6VTableEvE7kVTable, ptr %vtable_.i.i.i.i.i.i.i, align 8
  %buffer_.i.i.i.i.i.i.i = getelementptr inbounds %"class.testing::internal::MatcherBase.80", ptr %1, i64 0, i32 2
  store i64 %0, ptr %buffer_.i.i.i.i.i.i.i, align 8
  store ptr null, ptr %vtable_.i.i.i.i.i.i, align 8
  store ptr getelementptr inbounds ({ [6 x ptr] }, ptr @_ZTVN7testing7MatcherIRKdEE, i64 0, inrange i32 0, i64 2), ptr %1, align 8
  %3 = load ptr, ptr %_M_finish.i.i.i, align 8
  %incdec.ptr.i.i.i = getelementptr inbounds %"class.testing::Matcher.79", ptr %3, i64 1
  store ptr %incdec.ptr.i.i.i, ptr %_M_finish.i.i.i, align 8
  store ptr getelementptr inbounds ({ [6 x ptr] }, ptr @_ZTVN7testing8internal11MatcherBaseIRKdEE, i64 0, inrange i32 0, i64 2), ptr %ref.tmp, align 8
  br label %_ZN7testing7MatcherIRKdED2Ev.exit

if.else.i.i.i:                                    ; preds = %entry
  invoke void @_ZNSt6vectorIN7testing7MatcherIRKdEESaIS4_EE17_M_realloc_insertIJS4_EEEvN9__gnu_cxx17__normal_iteratorIPS4_S6_EEDpOT_(ptr noundef nonnull align 8 dereferenceable(24) %out.coerce, ptr %1, ptr noundef nonnull align 8 dereferenceable(24) %ref.tmp)
          to label %invoke.cont7 unwind label %lpad

invoke.cont7:                                     ; preds = %if.else.i.i.i
  %.pre = load ptr, ptr %vtable_.i.i.i.i.i.i, align 8
  store ptr getelementptr inbounds ({ [6 x ptr] }, ptr @_ZTVN7testing8internal11MatcherBaseIRKdEE, i64 0, inrange i32 0, i64 2), ptr %ref.tmp, align 8
  %cmp.not.i.i.i.i = icmp eq ptr %.pre, null
  br i1 %cmp.not.i.i.i.i, label %_ZN7testing7MatcherIRKdED2Ev.exit, label %_ZNK7testing8internal11MatcherBaseIRKdE8IsSharedEv.exit.i.i.i

_ZNK7testing8internal11MatcherBaseIRKdE8IsSharedEv.exit.i.i.i: ; preds = %invoke.cont7
  %shared_destroy.i.i.i.i = getelementptr inbounds %"struct.testing::internal::MatcherBase<const double &>::VTable", ptr %.pre, i64 0, i32 3
  %4 = load ptr, ptr %shared_destroy.i.i.i.i, align 8
  %cmp3.i.not.i.i.i = icmp eq ptr %4, null
  br i1 %cmp3.i.not.i.i.i, label %_ZN7testing7MatcherIRKdED2Ev.exit, label %land.lhs.true.i.i.i

land.lhs.true.i.i.i:                              ; preds = %_ZNK7testing8internal11MatcherBaseIRKdE8IsSharedEv.exit.i.i.i
  %5 = load ptr, ptr %buffer_3.i.i.i.i.i.i.i, align 8
  %6 = atomicrmw sub ptr %5, i32 1 acq_rel, align 4
  %cmp.i.i.i.i = icmp eq i32 %6, 1
  br i1 %cmp.i.i.i.i, label %if.then.i.i.i3, label %_ZN7testing7MatcherIRKdED2Ev.exit

if.then.i.i.i3:                                   ; preds = %land.lhs.true.i.i.i
  %7 = load ptr, ptr %vtable_.i.i.i.i.i.i, align 8
  %shared_destroy.i.i.i = getelementptr inbounds %"struct.testing::internal::MatcherBase<const double &>::VTable", ptr %7, i64 0, i32 3
  %8 = load ptr, ptr %shared_destroy.i.i.i, align 8
  %9 = load ptr, ptr %buffer_3.i.i.i.i.i.i.i, align 8
  invoke void %8(ptr noundef %9)
          to label %_ZN7testing7MatcherIRKdED2Ev.exit unwind label %terminate.lpad.i.i

terminate.lpad.i.i:                               ; preds = %if.then.i.i.i3
  %10 = landingpad { ptr, i32 }
          catch ptr null
  %11 = extractvalue { ptr, i32 } %10, 0
  call void @__clang_call_terminate(ptr %11) #26
  unreachable

_ZN7testing7MatcherIRKdED2Ev.exit:                ; preds = %invoke.cont7.thread, %invoke.cont7, %_ZNK7testing8internal11MatcherBaseIRKdE8IsSharedEv.exit.i.i.i, %land.lhs.true.i.i.i, %if.then.i.i.i3
  %call12 = call ptr @_ZNK7testing8internal26TransformTupleValuesHelperISt5tupleIJdddEENS0_22CastAndAppendTransformIRKdEESt20back_insert_iteratorISt6vectorINS_7MatcherIS6_EESaISB_EEEE16IterateOverTupleIS3_Lm2EEclES7_RKS3_SE_(ptr noundef nonnull align 1 dereferenceable(1) %ref.tmp9, ptr noundef nonnull align 8 dereferenceable(24) %t, ptr nonnull %out.coerce)
  ret ptr %call12

lpad:                                             ; preds = %if.else.i.i.i
  %12 = landingpad { ptr, i32 }
          cleanup
  call void @_ZN7testing7MatcherIRKdED2Ev(ptr noundef nonnull align 8 dereferenceable(24) %ref.tmp) #23
  resume { ptr, i32 } %12
}

; Function Attrs: mustprogress uwtable
define linkonce_odr dso_local ptr @_ZNK7testing8internal26TransformTupleValuesHelperISt5tupleIJdddEENS0_22CastAndAppendTransformIRKdEESt20back_insert_iteratorISt6vectorINS_7MatcherIS6_EESaISB_EEEE16IterateOverTupleIS3_Lm2EEclES7_RKS3_SE_(ptr noundef nonnull align 1 dereferenceable(1) %this, ptr noundef nonnull align 8 dereferenceable(24) %t, ptr %out.coerce) local_unnamed_addr #4 comdat align 2 personality ptr @__gxx_personality_v0 {
entry:
  %ref.tmp.i = alloca %"class.testing::Matcher.79", align 8
  %ref.tmp = alloca %"class.testing::Matcher.79", align 8
  %add.ptr.i.i.i = getelementptr inbounds i8, ptr %t, i64 8
  tail call void @llvm.experimental.noalias.scope.decl(metadata !29)
  tail call void @llvm.experimental.noalias.scope.decl(metadata !32)
  tail call void @llvm.experimental.noalias.scope.decl(metadata !35)
  tail call void @llvm.experimental.noalias.scope.decl(metadata !38)
  %vtable_.i.i.i.i.i.i = getelementptr inbounds %"class.testing::internal::MatcherBase.80", ptr %ref.tmp, i64 0, i32 1
  store ptr getelementptr inbounds ({ [6 x ptr] }, ptr @_ZTVN7testing7MatcherIRKdEE, i64 0, inrange i32 0, i64 2), ptr %ref.tmp, align 8, !alias.scope !41
  %0 = load i64, ptr %add.ptr.i.i.i, align 8, !noalias !41
  store ptr @_ZZN7testing8internal11MatcherBaseIRKdE9GetVTableINS4_11ValuePolicyINS0_9EqMatcherIdEELb1EEEEEPKNS4_6VTableEvE7kVTable, ptr %vtable_.i.i.i.i.i.i, align 8, !alias.scope !41
  %buffer_3.i.i.i.i.i.i.i = getelementptr inbounds %"class.testing::internal::MatcherBase.80", ptr %ref.tmp, i64 0, i32 2
  store i64 %0, ptr %buffer_3.i.i.i.i.i.i.i, align 8, !alias.scope !41
  %_M_finish.i.i.i = getelementptr inbounds %"struct.std::_Vector_base<testing::Matcher<const double &>, std::allocator<testing::Matcher<const double &>>>::_Vector_impl_data", ptr %out.coerce, i64 0, i32 1
  %1 = load ptr, ptr %_M_finish.i.i.i, align 8
  %_M_end_of_storage.i.i.i = getelementptr inbounds %"struct.std::_Vector_base<testing::Matcher<const double &>, std::allocator<testing::Matcher<const double &>>>::_Vector_impl_data", ptr %out.coerce, i64 0, i32 2
  %2 = load ptr, ptr %_M_end_of_storage.i.i.i, align 8
  %cmp.not.i.i.i = icmp eq ptr %1, %2
  br i1 %cmp.not.i.i.i, label %if.else.i.i.i, label %invoke.cont.thread

invoke.cont.thread:                               ; preds = %entry
  %vtable_.i.i.i.i.i.i.i = getelementptr inbounds %"class.testing::internal::MatcherBase.80", ptr %1, i64 0, i32 1
  store ptr @_ZZN7testing8internal11MatcherBaseIRKdE9GetVTableINS4_11ValuePolicyINS0_9EqMatcherIdEELb1EEEEEPKNS4_6VTableEvE7kVTable, ptr %vtable_.i.i.i.i.i.i.i, align 8
  %buffer_.i.i.i.i.i.i.i = getelementptr inbounds %"class.testing::internal::MatcherBase.80", ptr %1, i64 0, i32 2
  store i64 %0, ptr %buffer_.i.i.i.i.i.i.i, align 8
  store ptr null, ptr %vtable_.i.i.i.i.i.i, align 8
  store ptr getelementptr inbounds ({ [6 x ptr] }, ptr @_ZTVN7testing7MatcherIRKdEE, i64 0, inrange i32 0, i64 2), ptr %1, align 8
  %3 = load ptr, ptr %_M_finish.i.i.i, align 8
  %incdec.ptr.i.i.i = getelementptr inbounds %"class.testing::Matcher.79", ptr %3, i64 1
  store ptr %incdec.ptr.i.i.i, ptr %_M_finish.i.i.i, align 8
  store ptr getelementptr inbounds ({ [6 x ptr] }, ptr @_ZTVN7testing8internal11MatcherBaseIRKdEE, i64 0, inrange i32 0, i64 2), ptr %ref.tmp, align 8
  br label %_ZN7testing7MatcherIRKdED2Ev.exit

if.else.i.i.i:                                    ; preds = %entry
  invoke void @_ZNSt6vectorIN7testing7MatcherIRKdEESaIS4_EE17_M_realloc_insertIJS4_EEEvN9__gnu_cxx17__normal_iteratorIPS4_S6_EEDpOT_(ptr noundef nonnull align 8 dereferenceable(24) %out.coerce, ptr %1, ptr noundef nonnull align 8 dereferenceable(24) %ref.tmp)
          to label %invoke.cont unwind label %lpad

invoke.cont:                                      ; preds = %if.else.i.i.i
  %.pre = load ptr, ptr %vtable_.i.i.i.i.i.i, align 8
  store ptr getelementptr inbounds ({ [6 x ptr] }, ptr @_ZTVN7testing8internal11MatcherBaseIRKdEE, i64 0, inrange i32 0, i64 2), ptr %ref.tmp, align 8
  %cmp.not.i.i.i.i = icmp eq ptr %.pre, null
  br i1 %cmp.not.i.i.i.i, label %_ZN7testing7MatcherIRKdED2Ev.exit, label %_ZNK7testing8internal11MatcherBaseIRKdE8IsSharedEv.exit.i.i.i

_ZNK7testing8internal11MatcherBaseIRKdE8IsSharedEv.exit.i.i.i: ; preds = %invoke.cont
  %shared_destroy.i.i.i.i = getelementptr inbounds %"struct.testing::internal::MatcherBase<const double &>::VTable", ptr %.pre, i64 0, i32 3
  %4 = load ptr, ptr %shared_destroy.i.i.i.i, align 8
  %cmp3.i.not.i.i.i = icmp eq ptr %4, null
  br i1 %cmp3.i.not.i.i.i, label %_ZN7testing7MatcherIRKdED2Ev.exit, label %land.lhs.true.i.i.i

land.lhs.true.i.i.i:                              ; preds = %_ZNK7testing8internal11MatcherBaseIRKdE8IsSharedEv.exit.i.i.i
  %5 = load ptr, ptr %buffer_3.i.i.i.i.i.i.i, align 8
  %6 = atomicrmw sub ptr %5, i32 1 acq_rel, align 4
  %cmp.i.i.i.i = icmp eq i32 %6, 1
  br i1 %cmp.i.i.i.i, label %if.then.i.i.i3, label %_ZN7testing7MatcherIRKdED2Ev.exit

if.then.i.i.i3:                                   ; preds = %land.lhs.true.i.i.i
  %7 = load ptr, ptr %vtable_.i.i.i.i.i.i, align 8
  %shared_destroy.i.i.i = getelementptr inbounds %"struct.testing::internal::MatcherBase<const double &>::VTable", ptr %7, i64 0, i32 3
  %8 = load ptr, ptr %shared_destroy.i.i.i, align 8
  %9 = load ptr, ptr %buffer_3.i.i.i.i.i.i.i, align 8
  invoke void %8(ptr noundef %9)
          to label %_ZN7testing7MatcherIRKdED2Ev.exit unwind label %terminate.lpad.i.i

terminate.lpad.i.i:                               ; preds = %if.then.i.i.i3
  %10 = landingpad { ptr, i32 }
          catch ptr null
  %11 = extractvalue { ptr, i32 } %10, 0
  call void @__clang_call_terminate(ptr %11) #26
  unreachable

_ZN7testing7MatcherIRKdED2Ev.exit:                ; preds = %invoke.cont.thread, %invoke.cont, %_ZNK7testing8internal11MatcherBaseIRKdE8IsSharedEv.exit.i.i.i, %land.lhs.true.i.i.i, %if.then.i.i.i3
  call void @llvm.lifetime.start.p0(i64 24, ptr nonnull %ref.tmp.i)
  call void @llvm.experimental.noalias.scope.decl(metadata !42)
  call void @llvm.experimental.noalias.scope.decl(metadata !45)
  call void @llvm.experimental.noalias.scope.decl(metadata !48)
  call void @llvm.experimental.noalias.scope.decl(metadata !51)
  %vtable_.i.i.i.i.i.i.i4 = getelementptr inbounds %"class.testing::internal::MatcherBase.80", ptr %ref.tmp.i, i64 0, i32 1
  store ptr getelementptr inbounds ({ [6 x ptr] }, ptr @_ZTVN7testing7MatcherIRKdEE, i64 0, inrange i32 0, i64 2), ptr %ref.tmp.i, align 8, !alias.scope !54
  %12 = load i64, ptr %t, align 8, !noalias !54
  store ptr @_ZZN7testing8internal11MatcherBaseIRKdE9GetVTableINS4_11ValuePolicyINS0_9EqMatcherIdEELb1EEEEEPKNS4_6VTableEvE7kVTable, ptr %vtable_.i.i.i.i.i.i.i4, align 8, !alias.scope !54
  %buffer_3.i.i.i.i.i.i.i.i = getelementptr inbounds %"class.testing::internal::MatcherBase.80", ptr %ref.tmp.i, i64 0, i32 2
  store i64 %12, ptr %buffer_3.i.i.i.i.i.i.i.i, align 8, !alias.scope !54
  %13 = load ptr, ptr %_M_finish.i.i.i, align 8
  %14 = load ptr, ptr %_M_end_of_storage.i.i.i, align 8
  %cmp.not.i.i.i.i5 = icmp eq ptr %13, %14
  br i1 %cmp.not.i.i.i.i5, label %if.else.i.i.i.i, label %invoke.cont.thread.i

invoke.cont.thread.i:                             ; preds = %_ZN7testing7MatcherIRKdED2Ev.exit
  %vtable_.i.i.i.i.i.i.i.i = getelementptr inbounds %"class.testing::internal::MatcherBase.80", ptr %13, i64 0, i32 1
  store ptr @_ZZN7testing8internal11MatcherBaseIRKdE9GetVTableINS4_11ValuePolicyINS0_9EqMatcherIdEELb1EEEEEPKNS4_6VTableEvE7kVTable, ptr %vtable_.i.i.i.i.i.i.i.i, align 8
  %buffer_.i.i.i.i.i.i.i.i = getelementptr inbounds %"class.testing::internal::MatcherBase.80", ptr %13, i64 0, i32 2
  store i64 %12, ptr %buffer_.i.i.i.i.i.i.i.i, align 8
  store ptr getelementptr inbounds ({ [6 x ptr] }, ptr @_ZTVN7testing7MatcherIRKdEE, i64 0, inrange i32 0, i64 2), ptr %13, align 8
  %15 = load ptr, ptr %_M_finish.i.i.i, align 8
  %incdec.ptr.i.i.i.i = getelementptr inbounds %"class.testing::Matcher.79", ptr %15, i64 1
  store ptr %incdec.ptr.i.i.i.i, ptr %_M_finish.i.i.i, align 8
  br label %_ZNK7testing8internal26TransformTupleValuesHelperISt5tupleIJdddEENS0_22CastAndAppendTransformIRKdEESt20back_insert_iteratorISt6vectorINS_7MatcherIS6_EESaISB_EEEE16IterateOverTupleIS3_Lm1EEclES7_RKS3_SE_.exit

if.else.i.i.i.i:                                  ; preds = %_ZN7testing7MatcherIRKdED2Ev.exit
  invoke void @_ZNSt6vectorIN7testing7MatcherIRKdEESaIS4_EE17_M_realloc_insertIJS4_EEEvN9__gnu_cxx17__normal_iteratorIPS4_S6_EEDpOT_(ptr noundef nonnull align 8 dereferenceable(24) %out.coerce, ptr %13, ptr noundef nonnull align 8 dereferenceable(24) %ref.tmp.i)
          to label %invoke.cont.i unwind label %lpad.i

invoke.cont.i:                                    ; preds = %if.else.i.i.i.i
  %.pre.i = load ptr, ptr %vtable_.i.i.i.i.i.i.i4, align 8
  store ptr getelementptr inbounds ({ [6 x ptr] }, ptr @_ZTVN7testing8internal11MatcherBaseIRKdEE, i64 0, inrange i32 0, i64 2), ptr %ref.tmp.i, align 8
  %cmp.not.i.i.i.i.i = icmp eq ptr %.pre.i, null
  br i1 %cmp.not.i.i.i.i.i, label %_ZNK7testing8internal26TransformTupleValuesHelperISt5tupleIJdddEENS0_22CastAndAppendTransformIRKdEESt20back_insert_iteratorISt6vectorINS_7MatcherIS6_EESaISB_EEEE16IterateOverTupleIS3_Lm1EEclES7_RKS3_SE_.exit, label %_ZNK7testing8internal11MatcherBaseIRKdE8IsSharedEv.exit.i.i.i.i

_ZNK7testing8internal11MatcherBaseIRKdE8IsSharedEv.exit.i.i.i.i: ; preds = %invoke.cont.i
  %shared_destroy.i.i.i.i.i = getelementptr inbounds %"struct.testing::internal::MatcherBase<const double &>::VTable", ptr %.pre.i, i64 0, i32 3
  %16 = load ptr, ptr %shared_destroy.i.i.i.i.i, align 8
  %cmp3.i.not.i.i.i.i = icmp eq ptr %16, null
  br i1 %cmp3.i.not.i.i.i.i, label %_ZNK7testing8internal26TransformTupleValuesHelperISt5tupleIJdddEENS0_22CastAndAppendTransformIRKdEESt20back_insert_iteratorISt6vectorINS_7MatcherIS6_EESaISB_EEEE16IterateOverTupleIS3_Lm1EEclES7_RKS3_SE_.exit, label %land.lhs.true.i.i.i.i

land.lhs.true.i.i.i.i:                            ; preds = %_ZNK7testing8internal11MatcherBaseIRKdE8IsSharedEv.exit.i.i.i.i
  %17 = load ptr, ptr %buffer_3.i.i.i.i.i.i.i.i, align 8
  %18 = atomicrmw sub ptr %17, i32 1 acq_rel, align 4
  %cmp.i.i.i.i.i = icmp eq i32 %18, 1
  br i1 %cmp.i.i.i.i.i, label %if.then.i.i.i3.i, label %_ZNK7testing8internal26TransformTupleValuesHelperISt5tupleIJdddEENS0_22CastAndAppendTransformIRKdEESt20back_insert_iteratorISt6vectorINS_7MatcherIS6_EESaISB_EEEE16IterateOverTupleIS3_Lm1EEclES7_RKS3_SE_.exit

if.then.i.i.i3.i:                                 ; preds = %land.lhs.true.i.i.i.i
  %19 = load ptr, ptr %vtable_.i.i.i.i.i.i.i4, align 8
  %shared_destroy.i.i.i.i6 = getelementptr inbounds %"struct.testing::internal::MatcherBase<const double &>::VTable", ptr %19, i64 0, i32 3
  %20 = load ptr, ptr %shared_destroy.i.i.i.i6, align 8
  %21 = load ptr, ptr %buffer_3.i.i.i.i.i.i.i.i, align 8
  invoke void %20(ptr noundef %21)
          to label %_ZNK7testing8internal26TransformTupleValuesHelperISt5tupleIJdddEENS0_22CastAndAppendTransformIRKdEESt20back_insert_iteratorISt6vectorINS_7MatcherIS6_EESaISB_EEEE16IterateOverTupleIS3_Lm1EEclES7_RKS3_SE_.exit unwind label %terminate.lpad.i.i.i

terminate.lpad.i.i.i:                             ; preds = %if.then.i.i.i3.i
  %22 = landingpad { ptr, i32 }
          catch ptr null
  %23 = extractvalue { ptr, i32 } %22, 0
  call void @__clang_call_terminate(ptr %23) #26
  unreachable

common.resume:                                    ; preds = %lpad, %lpad.i
  %ref.tmp.sink = phi ptr [ %ref.tmp, %lpad ], [ %ref.tmp.i, %lpad.i ]
  %common.resume.op = phi { ptr, i32 } [ %25, %lpad ], [ %24, %lpad.i ]
  call void @_ZN7testing7MatcherIRKdED2Ev(ptr noundef nonnull align 8 dereferenceable(24) %ref.tmp.sink) #23
  resume { ptr, i32 } %common.resume.op

lpad.i:                                           ; preds = %if.else.i.i.i.i
  %24 = landingpad { ptr, i32 }
          cleanup
  br label %common.resume

_ZNK7testing8internal26TransformTupleValuesHelperISt5tupleIJdddEENS0_22CastAndAppendTransformIRKdEESt20back_insert_iteratorISt6vectorINS_7MatcherIS6_EESaISB_EEEE16IterateOverTupleIS3_Lm1EEclES7_RKS3_SE_.exit: ; preds = %invoke.cont.thread.i, %invoke.cont.i, %_ZNK7testing8internal11MatcherBaseIRKdE8IsSharedEv.exit.i.i.i.i, %land.lhs.true.i.i.i.i, %if.then.i.i.i3.i
  call void @llvm.lifetime.end.p0(i64 24, ptr nonnull %ref.tmp.i)
  ret ptr %out.coerce

lpad:                                             ; preds = %if.else.i.i.i
  %25 = landingpad { ptr, i32 }
          cleanup
  br label %common.resume
}

; Function Attrs: mustprogress nocallback nofree nounwind willreturn memory(argmem: write)
declare void @llvm.memset.p0.i64(ptr nocapture writeonly, i8, i64, i1 immarg) #11

; Function Attrs: mustprogress uwtable
define linkonce_odr dso_local noundef zeroext i1 @_ZN7testing8internal11MatcherBaseIRKdE19MatchAndExplainImplINS4_11ValuePolicyINS0_9EqMatcherIdEELb1EEEEEDTcldtclsrT_3Getfp_E15MatchAndExplainfp0_clptfp1_6streamEEERKS4_S3_PNS_19MatchResultListenerE(ptr noundef nonnull align 8 dereferenceable(24) %m, ptr noundef nonnull align 8 dereferenceable(8) %value, ptr noundef %listener) #4 comdat align 2 {
entry:
  %buffer_.i = getelementptr inbounds %"class.testing::internal::MatcherBase.80", ptr %m, i64 0, i32 2
  %0 = load double, ptr %value, align 8
  %1 = load double, ptr %buffer_.i, align 8
  %cmp.i.i = fcmp oeq double %0, %1
  ret i1 %cmp.i.i
}

; Function Attrs: mustprogress uwtable
define linkonce_odr dso_local void @_ZN7testing8internal11MatcherBaseIRKdE12DescribeImplINS4_11ValuePolicyINS0_9EqMatcherIdEELb1EEEEEvRKS4_PSob(ptr noundef nonnull align 8 dereferenceable(24) %m, ptr noundef %os, i1 noundef zeroext %negation) #4 comdat align 2 {
entry:
  %buffer_.i = getelementptr inbounds %"class.testing::internal::MatcherBase.80", ptr %m, i64 0, i32 2
  %.str.29..str.30 = select i1 %negation, ptr @.str.29, ptr @.str.30
  %call2.i4 = tail call noundef nonnull align 8 dereferenceable(8) ptr @_ZStlsISt11char_traitsIcEERSt13basic_ostreamIcT_ES5_PKc(ptr noundef nonnull align 8 dereferenceable(8) %os, ptr noundef nonnull %.str.29..str.30)
  %call3.i5 = tail call noundef nonnull align 8 dereferenceable(8) ptr @_ZStlsISt11char_traitsIcEERSt13basic_ostreamIcT_ES5_PKc(ptr noundef nonnull align 8 dereferenceable(8) %call2.i4, ptr noundef nonnull @.str.28)
  %0 = load double, ptr %buffer_.i, align 8
  tail call void @_ZN7testing8internal7PrintToEdPSo(double noundef %0, ptr noundef nonnull %os)
  ret void
}

; Function Attrs: mustprogress uwtable
define linkonce_odr dso_local noundef ptr @_ZN7testing8internal11MatcherBaseIRKdE16GetDescriberImplINS4_11ValuePolicyINS0_9EqMatcherIdEELb1EEEEEPKNS_25MatcherDescriberInterfaceERKS4_(ptr noundef nonnull align 8 dereferenceable(24) %m) #4 comdat align 2 personality ptr @__gxx_personality_v0 {
entry:
  ret ptr %m
}

; Function Attrs: mustprogress uwtable
define linkonce_odr dso_local void @_ZN7testing8internal7PrintToEdPSo(double noundef %d, ptr noundef %os) local_unnamed_addr #4 comdat {
entry:
  %vtable = load ptr, ptr %os, align 8
  %vbase.offset.ptr = getelementptr i8, ptr %vtable, i64 -24
  %vbase.offset = load i64, ptr %vbase.offset.ptr, align 8
  %add.ptr = getelementptr inbounds i8, ptr %os, i64 %vbase.offset
  %_M_precision.i = getelementptr inbounds %"class.std::ios_base", ptr %add.ptr, i64 0, i32 1
  %0 = load i64, ptr %_M_precision.i, align 8
  %cmp.i = fcmp olt double %d, 0.000000e+00
  %fneg.i = fneg double %d
  %val.addr.0.i = select i1 %cmp.i, double %fneg.i, double %d
  %cmp1.i = fcmp olt double %val.addr.0.i, 1.000000e+06
  br i1 %cmp1.i, label %if.then2.i, label %if.else45.i

if.then2.i:                                       ; preds = %entry
  %cmp3.i = fcmp ult double %val.addr.0.i, 1.000000e+05
  br i1 %cmp3.i, label %if.else.i, label %if.end40.i

if.else.i:                                        ; preds = %if.then2.i
  %cmp5.i = fcmp ult double %val.addr.0.i, 1.000000e+04
  br i1 %cmp5.i, label %if.else7.i, label %if.end40.i

if.else7.i:                                       ; preds = %if.else.i
  %cmp8.i = fcmp ult double %val.addr.0.i, 1.000000e+03
  br i1 %cmp8.i, label %if.else10.i, label %if.end40.i

if.else10.i:                                      ; preds = %if.else7.i
  %cmp11.i = fcmp ult double %val.addr.0.i, 1.000000e+02
  br i1 %cmp11.i, label %if.else13.i, label %if.end40.i

if.else13.i:                                      ; preds = %if.else10.i
  %cmp14.i = fcmp ult double %val.addr.0.i, 1.000000e+01
  br i1 %cmp14.i, label %if.else16.i, label %if.end40.i

if.else16.i:                                      ; preds = %if.else13.i
  %cmp17.i = fcmp ult double %val.addr.0.i, 1.000000e+00
  br i1 %cmp17.i, label %if.else19.i, label %if.end40.i

if.else19.i:                                      ; preds = %if.else16.i
  %cmp20.i = fcmp ult double %val.addr.0.i, 1.000000e-01
  br i1 %cmp20.i, label %if.else22.i, label %if.end40.i

if.else22.i:                                      ; preds = %if.else19.i
  %cmp23.i = fcmp ult double %val.addr.0.i, 1.000000e-02
  br i1 %cmp23.i, label %if.else25.i, label %if.end40.i

if.else25.i:                                      ; preds = %if.else22.i
  %cmp26.i = fcmp ult double %val.addr.0.i, 1.000000e-03
  br i1 %cmp26.i, label %if.else28.i, label %if.end40.i

if.else28.i:                                      ; preds = %if.else25.i
  %cmp29.i = fcmp ult double %val.addr.0.i, 1.000000e-04
  br i1 %cmp29.i, label %if.end40.i, label %if.then30.i

if.then30.i:                                      ; preds = %if.else28.i
  br label %if.end40.i

if.end40.i:                                       ; preds = %if.then30.i, %if.else28.i, %if.else25.i, %if.else22.i, %if.else19.i, %if.else16.i, %if.else13.i, %if.else10.i, %if.else7.i, %if.else.i, %if.then2.i
  %mulfor6.0.i = phi double [ 1.000000e+09, %if.then30.i ], [ 1.000000e+10, %if.else28.i ], [ 1.000000e+00, %if.then2.i ], [ 1.000000e+01, %if.else.i ], [ 1.000000e+02, %if.else7.i ], [ 1.000000e+03, %if.else10.i ], [ 1.000000e+04, %if.else13.i ], [ 1.000000e+05, %if.else16.i ], [ 1.000000e+06, %if.else19.i ], [ 1.000000e+07, %if.else22.i ], [ 1.000000e+08, %if.else25.i ]
  %1 = tail call double @llvm.fmuladd.f64(double %val.addr.0.i, double %mulfor6.0.i, double 5.000000e-01)
  %conv.i = fptosi double %1 to i32
  %conv41.i = sitofp i32 %conv.i to double
  %div.i = fdiv double %conv41.i, %mulfor6.0.i
  %cmp42.i = fcmp oeq double %div.i, %val.addr.0.i
  br i1 %cmp42.i, label %_ZN7testing8internal21AppropriateResolutionIdEEiT_.exit, label %if.end70.i

if.else45.i:                                      ; preds = %entry
  %cmp46.i = fcmp olt double %val.addr.0.i, 1.000000e+10
  br i1 %cmp46.i, label %if.then47.i, label %if.end70.i

if.then47.i:                                      ; preds = %if.else45.i
  %cmp48.i = fcmp ult double %val.addr.0.i, 1.000000e+09
  br i1 %cmp48.i, label %if.else50.i, label %if.end62.i

if.else50.i:                                      ; preds = %if.then47.i
  %cmp51.i = fcmp ult double %val.addr.0.i, 1.000000e+08
  br i1 %cmp51.i, label %if.else53.i, label %if.end62.i

if.else53.i:                                      ; preds = %if.else50.i
  %cmp54.i = fcmp ult double %val.addr.0.i, 1.000000e+07
  br i1 %cmp54.i, label %if.else56.i, label %if.end62.i

if.else56.i:                                      ; preds = %if.else53.i
  %cmp57.i = fcmp ult double %val.addr.0.i, 1.000000e+06
  br i1 %cmp57.i, label %if.end62.i, label %if.then58.i

if.then58.i:                                      ; preds = %if.else56.i
  br label %if.end62.i

if.end62.i:                                       ; preds = %if.then58.i, %if.else56.i, %if.else53.i, %if.else50.i, %if.then47.i
  %divfor6.0.i = phi double [ 1.000000e+01, %if.then58.i ], [ 1.000000e+00, %if.else56.i ], [ 1.000000e+04, %if.then47.i ], [ 1.000000e+03, %if.else50.i ], [ 1.000000e+02, %if.else53.i ]
  %div63.i = fdiv double %val.addr.0.i, %divfor6.0.i
  %add.i = fadd double %div63.i, 5.000000e-01
  %conv64.i = fptosi double %add.i to i32
  %conv65.i = sitofp i32 %conv64.i to double
  %mul.i = fmul double %divfor6.0.i, %conv65.i
  %cmp66.i = fcmp oeq double %mul.i, %val.addr.0.i
  br i1 %cmp66.i, label %_ZN7testing8internal21AppropriateResolutionIdEEiT_.exit, label %if.end70.i

if.end70.i:                                       ; preds = %if.end62.i, %if.else45.i, %if.end40.i
  br label %_ZN7testing8internal21AppropriateResolutionIdEEiT_.exit

_ZN7testing8internal21AppropriateResolutionIdEEiT_.exit: ; preds = %if.end40.i, %if.end62.i, %if.end70.i
  %retval.0.i = phi i64 [ 17, %if.end70.i ], [ 6, %if.end40.i ], [ 6, %if.end62.i ]
  store i64 %retval.0.i, ptr %_M_precision.i, align 8
  %call7 = tail call noundef nonnull align 8 dereferenceable(8) ptr @_ZNSolsEd(ptr noundef nonnull align 8 dereferenceable(8) %os, double noundef %d)
  %vtable8 = load ptr, ptr %os, align 8
  %vbase.offset.ptr9 = getelementptr i8, ptr %vtable8, i64 -24
  %vbase.offset10 = load i64, ptr %vbase.offset.ptr9, align 8
  %add.ptr11 = getelementptr inbounds i8, ptr %os, i64 %vbase.offset10
  %_M_precision.i6 = getelementptr inbounds %"class.std::ios_base", ptr %add.ptr11, i64 0, i32 1
  store i64 %0, ptr %_M_precision.i6, align 8
  ret void
}

declare noundef nonnull align 8 dereferenceable(8) ptr @_ZNSolsEd(ptr noundef nonnull align 8 dereferenceable(8), double noundef) local_unnamed_addr #0

; Function Attrs: mustprogress nocallback nofree nosync nounwind speculatable willreturn memory(none)
declare double @llvm.fmuladd.f64(double, double, double) #12

; Function Attrs: mustprogress uwtable
define linkonce_odr dso_local void @_ZNSt6vectorIN7testing7MatcherIRKdEESaIS4_EE17_M_realloc_insertIJS4_EEEvN9__gnu_cxx17__normal_iteratorIPS4_S6_EEDpOT_(ptr noundef nonnull align 8 dereferenceable(24) %this, ptr %__position.coerce, ptr noundef nonnull align 8 dereferenceable(24) %__args) local_unnamed_addr #4 comdat align 2 personality ptr @__gxx_personality_v0 {
entry:
  %_M_finish.i.i = getelementptr inbounds %"struct.std::_Vector_base<testing::Matcher<const double &>, std::allocator<testing::Matcher<const double &>>>::_Vector_impl_data", ptr %this, i64 0, i32 1
  %0 = load ptr, ptr %_M_finish.i.i, align 8
  %1 = load ptr, ptr %this, align 8
  %sub.ptr.lhs.cast.i.i = ptrtoint ptr %0 to i64
  %sub.ptr.rhs.cast.i.i = ptrtoint ptr %1 to i64
  %sub.ptr.sub.i.i = sub i64 %sub.ptr.lhs.cast.i.i, %sub.ptr.rhs.cast.i.i
  %cmp.i = icmp eq i64 %sub.ptr.sub.i.i, 9223372036854775800
  br i1 %cmp.i, label %if.then.i, label %_ZNKSt6vectorIN7testing7MatcherIRKdEESaIS4_EE12_M_check_lenEmPKc.exit

if.then.i:                                        ; preds = %entry
  tail call void @_ZSt20__throw_length_errorPKc(ptr noundef nonnull @.str.31) #27
  unreachable

_ZNKSt6vectorIN7testing7MatcherIRKdEESaIS4_EE12_M_check_lenEmPKc.exit: ; preds = %entry
  %sub.ptr.div.i.i = sdiv exact i64 %sub.ptr.sub.i.i, 24
  %.sroa.speculated.i = tail call i64 @llvm.umax.i64(i64 %sub.ptr.div.i.i, i64 1)
  %add.i = add i64 %.sroa.speculated.i, %sub.ptr.div.i.i
  %cmp7.i = icmp ult i64 %add.i, %sub.ptr.div.i.i
  %cmp9.i = icmp ugt i64 %add.i, 384307168202282325
  %or.cond.i = or i1 %cmp7.i, %cmp9.i
  %cond.i = select i1 %or.cond.i, i64 384307168202282325, i64 %add.i
  %sub.ptr.lhs.cast.i = ptrtoint ptr %__position.coerce to i64
  %sub.ptr.sub.i = sub i64 %sub.ptr.lhs.cast.i, %sub.ptr.rhs.cast.i.i
  %sub.ptr.div.i = sdiv exact i64 %sub.ptr.sub.i, 24
  %cmp.not.i = icmp eq i64 %cond.i, 0
  br i1 %cmp.not.i, label %invoke.cont, label %_ZNSt16allocator_traitsISaIN7testing7MatcherIRKdEEEE8allocateERS5_m.exit.i

_ZNSt16allocator_traitsISaIN7testing7MatcherIRKdEEEE8allocateERS5_m.exit.i: ; preds = %_ZNKSt6vectorIN7testing7MatcherIRKdEESaIS4_EE12_M_check_lenEmPKc.exit
  %mul.i.i.i = mul nuw nsw i64 %cond.i, 24
  %call5.i.i.i = tail call noalias noundef nonnull ptr @_Znwm(i64 noundef %mul.i.i.i) #25
  br label %invoke.cont

invoke.cont:                                      ; preds = %_ZNSt16allocator_traitsISaIN7testing7MatcherIRKdEEEE8allocateERS5_m.exit.i, %_ZNKSt6vectorIN7testing7MatcherIRKdEESaIS4_EE12_M_check_lenEmPKc.exit
  %cond.i19 = phi ptr [ %call5.i.i.i, %_ZNSt16allocator_traitsISaIN7testing7MatcherIRKdEEEE8allocateERS5_m.exit.i ], [ null, %_ZNKSt6vectorIN7testing7MatcherIRKdEESaIS4_EE12_M_check_lenEmPKc.exit ]
  %add.ptr = getelementptr inbounds %"class.testing::Matcher.79", ptr %cond.i19, i64 %sub.ptr.div.i
  %vtable_.i.i.i.i = getelementptr inbounds %"class.testing::internal::MatcherBase.80", ptr %add.ptr, i64 0, i32 1
  %vtable_2.i.i.i.i = getelementptr inbounds %"class.testing::internal::MatcherBase.80", ptr %__args, i64 0, i32 1
  %2 = load ptr, ptr %vtable_2.i.i.i.i, align 8
  store ptr %2, ptr %vtable_.i.i.i.i, align 8
  %buffer_.i.i.i.i = getelementptr inbounds %"class.testing::internal::MatcherBase.80", ptr %add.ptr, i64 0, i32 2
  %buffer_3.i.i.i.i = getelementptr inbounds %"class.testing::internal::MatcherBase.80", ptr %__args, i64 0, i32 2
  %3 = load i64, ptr %buffer_3.i.i.i.i, align 8
  store i64 %3, ptr %buffer_.i.i.i.i, align 8
  store ptr null, ptr %vtable_2.i.i.i.i, align 8
  store ptr getelementptr inbounds ({ [6 x ptr] }, ptr @_ZTVN7testing7MatcherIRKdEE, i64 0, inrange i32 0, i64 2), ptr %add.ptr, align 8
  %cmp.not7.i.i.i.i.i = icmp eq ptr %1, %__position.coerce
  br i1 %cmp.not7.i.i.i.i.i, label %invoke.cont10, label %for.body.i.i.i.i.i

for.body.i.i.i.i.i:                               ; preds = %invoke.cont, %for.inc.i.i.i.i.i
  %__cur.09.i.i.i.i.i = phi ptr [ %incdec.ptr1.i.i.i.i.i, %for.inc.i.i.i.i.i ], [ %cond.i19, %invoke.cont ]
  %__first.addr.08.i.i.i.i.i = phi ptr [ %incdec.ptr.i.i.i.i.i, %for.inc.i.i.i.i.i ], [ %1, %invoke.cont ]
  %vtable_.i.i.i.i.i.i.i.i = getelementptr inbounds %"class.testing::internal::MatcherBase.80", ptr %__cur.09.i.i.i.i.i, i64 0, i32 1
  %vtable_2.i.i.i.i.i.i.i.i = getelementptr inbounds %"class.testing::internal::MatcherBase.80", ptr %__first.addr.08.i.i.i.i.i, i64 0, i32 1
  %4 = load ptr, ptr %vtable_2.i.i.i.i.i.i.i.i, align 8
  store ptr %4, ptr %vtable_.i.i.i.i.i.i.i.i, align 8
  %buffer_.i.i.i.i.i.i.i.i = getelementptr inbounds %"class.testing::internal::MatcherBase.80", ptr %__cur.09.i.i.i.i.i, i64 0, i32 2
  %buffer_3.i.i.i.i.i.i.i.i = getelementptr inbounds %"class.testing::internal::MatcherBase.80", ptr %__first.addr.08.i.i.i.i.i, i64 0, i32 2
  %5 = load i64, ptr %buffer_3.i.i.i.i.i.i.i.i, align 8
  store i64 %5, ptr %buffer_.i.i.i.i.i.i.i.i, align 8
  %cmp.not.i.i.i.i.i.i.i.i.i = icmp eq ptr %4, null
  %6 = inttoptr i64 %5 to ptr
  br i1 %cmp.not.i.i.i.i.i.i.i.i.i, label %for.inc.i.i.i.i.i, label %_ZNK7testing8internal11MatcherBaseIRKdE8IsSharedEv.exit.i.i.i.i.i.i.i.i

_ZNK7testing8internal11MatcherBaseIRKdE8IsSharedEv.exit.i.i.i.i.i.i.i.i: ; preds = %for.body.i.i.i.i.i
  %shared_destroy.i.i.i.i.i.i.i.i.i = getelementptr inbounds %"struct.testing::internal::MatcherBase<const double &>::VTable", ptr %4, i64 0, i32 3
  %7 = load ptr, ptr %shared_destroy.i.i.i.i.i.i.i.i.i, align 8
  %cmp3.i.not.i.i.i.i.i.i.i.i = icmp eq ptr %7, null
  br i1 %cmp3.i.not.i.i.i.i.i.i.i.i, label %for.inc.i.i.i.i.i, label %if.then.i.i.i.i.i.i.i.i

if.then.i.i.i.i.i.i.i.i:                          ; preds = %_ZNK7testing8internal11MatcherBaseIRKdE8IsSharedEv.exit.i.i.i.i.i.i.i.i
  %8 = atomicrmw add ptr %6, i32 1 monotonic, align 4
  br label %for.inc.i.i.i.i.i

for.inc.i.i.i.i.i:                                ; preds = %if.then.i.i.i.i.i.i.i.i, %_ZNK7testing8internal11MatcherBaseIRKdE8IsSharedEv.exit.i.i.i.i.i.i.i.i, %for.body.i.i.i.i.i
  store ptr getelementptr inbounds ({ [6 x ptr] }, ptr @_ZTVN7testing7MatcherIRKdEE, i64 0, inrange i32 0, i64 2), ptr %__cur.09.i.i.i.i.i, align 8
  %incdec.ptr.i.i.i.i.i = getelementptr inbounds %"class.testing::Matcher.79", ptr %__first.addr.08.i.i.i.i.i, i64 1
  %incdec.ptr1.i.i.i.i.i = getelementptr inbounds %"class.testing::Matcher.79", ptr %__cur.09.i.i.i.i.i, i64 1
  %cmp.not.i.i.i.i.i = icmp eq ptr %incdec.ptr.i.i.i.i.i, %__position.coerce
  br i1 %cmp.not.i.i.i.i.i, label %invoke.cont10, label %for.body.i.i.i.i.i, !llvm.loop !55

invoke.cont10:                                    ; preds = %for.inc.i.i.i.i.i, %invoke.cont
  %__cur.0.lcssa.i.i.i.i.i = phi ptr [ %cond.i19, %invoke.cont ], [ %incdec.ptr1.i.i.i.i.i, %for.inc.i.i.i.i.i ]
  %incdec.ptr = getelementptr inbounds %"class.testing::Matcher.79", ptr %__cur.0.lcssa.i.i.i.i.i, i64 1
  %cmp.not7.i.i.i.i.i20 = icmp eq ptr %0, %__position.coerce
  br i1 %cmp.not7.i.i.i.i.i20, label %invoke.cont14, label %for.body.i.i.i.i.i21

for.body.i.i.i.i.i21:                             ; preds = %invoke.cont10, %for.inc.i.i.i.i.i33
  %__cur.09.i.i.i.i.i22 = phi ptr [ %incdec.ptr1.i.i.i.i.i35, %for.inc.i.i.i.i.i33 ], [ %incdec.ptr, %invoke.cont10 ]
  %__first.addr.08.i.i.i.i.i23 = phi ptr [ %incdec.ptr.i.i.i.i.i34, %for.inc.i.i.i.i.i33 ], [ %__position.coerce, %invoke.cont10 ]
  store ptr getelementptr inbounds ({ [6 x ptr] }, ptr @_ZTVN7testing8internal11MatcherBaseIRKdEE, i64 0, inrange i32 0, i64 2), ptr %__cur.09.i.i.i.i.i22, align 8
  %vtable_.i.i.i.i.i.i.i.i24 = getelementptr inbounds %"class.testing::internal::MatcherBase.80", ptr %__cur.09.i.i.i.i.i22, i64 0, i32 1
  %vtable_2.i.i.i.i.i.i.i.i25 = getelementptr inbounds %"class.testing::internal::MatcherBase.80", ptr %__first.addr.08.i.i.i.i.i23, i64 0, i32 1
  %9 = load ptr, ptr %vtable_2.i.i.i.i.i.i.i.i25, align 8
  store ptr %9, ptr %vtable_.i.i.i.i.i.i.i.i24, align 8
  %buffer_.i.i.i.i.i.i.i.i26 = getelementptr inbounds %"class.testing::internal::MatcherBase.80", ptr %__cur.09.i.i.i.i.i22, i64 0, i32 2
  %buffer_3.i.i.i.i.i.i.i.i27 = getelementptr inbounds %"class.testing::internal::MatcherBase.80", ptr %__first.addr.08.i.i.i.i.i23, i64 0, i32 2
  %10 = load i64, ptr %buffer_3.i.i.i.i.i.i.i.i27, align 8
  store i64 %10, ptr %buffer_.i.i.i.i.i.i.i.i26, align 8
  %cmp.not.i.i.i.i.i.i.i.i.i28 = icmp eq ptr %9, null
  %11 = inttoptr i64 %10 to ptr
  br i1 %cmp.not.i.i.i.i.i.i.i.i.i28, label %for.inc.i.i.i.i.i33, label %_ZNK7testing8internal11MatcherBaseIRKdE8IsSharedEv.exit.i.i.i.i.i.i.i.i29

_ZNK7testing8internal11MatcherBaseIRKdE8IsSharedEv.exit.i.i.i.i.i.i.i.i29: ; preds = %for.body.i.i.i.i.i21
  %shared_destroy.i.i.i.i.i.i.i.i.i30 = getelementptr inbounds %"struct.testing::internal::MatcherBase<const double &>::VTable", ptr %9, i64 0, i32 3
  %12 = load ptr, ptr %shared_destroy.i.i.i.i.i.i.i.i.i30, align 8
  %cmp3.i.not.i.i.i.i.i.i.i.i31 = icmp eq ptr %12, null
  br i1 %cmp3.i.not.i.i.i.i.i.i.i.i31, label %for.inc.i.i.i.i.i33, label %if.then.i.i.i.i.i.i.i.i32

if.then.i.i.i.i.i.i.i.i32:                        ; preds = %_ZNK7testing8internal11MatcherBaseIRKdE8IsSharedEv.exit.i.i.i.i.i.i.i.i29
  %13 = atomicrmw add ptr %11, i32 1 monotonic, align 4
  br label %for.inc.i.i.i.i.i33

for.inc.i.i.i.i.i33:                              ; preds = %if.then.i.i.i.i.i.i.i.i32, %_ZNK7testing8internal11MatcherBaseIRKdE8IsSharedEv.exit.i.i.i.i.i.i.i.i29, %for.body.i.i.i.i.i21
  store ptr getelementptr inbounds ({ [6 x ptr] }, ptr @_ZTVN7testing7MatcherIRKdEE, i64 0, inrange i32 0, i64 2), ptr %__cur.09.i.i.i.i.i22, align 8
  %incdec.ptr.i.i.i.i.i34 = getelementptr inbounds %"class.testing::Matcher.79", ptr %__first.addr.08.i.i.i.i.i23, i64 1
  %incdec.ptr1.i.i.i.i.i35 = getelementptr inbounds %"class.testing::Matcher.79", ptr %__cur.09.i.i.i.i.i22, i64 1
  %cmp.not.i.i.i.i.i36 = icmp eq ptr %incdec.ptr.i.i.i.i.i34, %0
  br i1 %cmp.not.i.i.i.i.i36, label %invoke.cont14, label %for.body.i.i.i.i.i21, !llvm.loop !55

invoke.cont14:                                    ; preds = %for.inc.i.i.i.i.i33, %invoke.cont10
  %__cur.0.lcssa.i.i.i.i.i37 = phi ptr [ %incdec.ptr, %invoke.cont10 ], [ %incdec.ptr1.i.i.i.i.i35, %for.inc.i.i.i.i.i33 ]
  %cmp.not3.i.i.i = icmp eq ptr %1, %0
  br i1 %cmp.not3.i.i.i, label %_ZSt8_DestroyIPN7testing7MatcherIRKdEES4_EvT_S6_RSaIT0_E.exit, label %for.body.i.i.i

for.body.i.i.i:                                   ; preds = %invoke.cont14, %for.body.i.i.i
  %__first.addr.04.i.i.i = phi ptr [ %incdec.ptr.i.i.i, %for.body.i.i.i ], [ %1, %invoke.cont14 ]
  %vtable.i.i.i.i = load ptr, ptr %__first.addr.04.i.i.i, align 8
  %14 = load ptr, ptr %vtable.i.i.i.i, align 8
  tail call void %14(ptr noundef nonnull align 8 dereferenceable(24) %__first.addr.04.i.i.i) #23
  %incdec.ptr.i.i.i = getelementptr inbounds %"class.testing::Matcher.79", ptr %__first.addr.04.i.i.i, i64 1
  %cmp.not.i.i.i = icmp eq ptr %incdec.ptr.i.i.i, %0
  br i1 %cmp.not.i.i.i, label %_ZSt8_DestroyIPN7testing7MatcherIRKdEES4_EvT_S6_RSaIT0_E.exit, label %for.body.i.i.i, !llvm.loop !7

_ZSt8_DestroyIPN7testing7MatcherIRKdEES4_EvT_S6_RSaIT0_E.exit: ; preds = %for.body.i.i.i, %invoke.cont14
  %tobool.not.i = icmp eq ptr %1, null
  br i1 %tobool.not.i, label %_ZNSt12_Vector_baseIN7testing7MatcherIRKdEESaIS4_EE13_M_deallocateEPS4_m.exit, label %if.then.i39

if.then.i39:                                      ; preds = %_ZSt8_DestroyIPN7testing7MatcherIRKdEES4_EvT_S6_RSaIT0_E.exit
  tail call void @_ZdlPv(ptr noundef nonnull %1) #24
  br label %_ZNSt12_Vector_baseIN7testing7MatcherIRKdEESaIS4_EE13_M_deallocateEPS4_m.exit

_ZNSt12_Vector_baseIN7testing7MatcherIRKdEESaIS4_EE13_M_deallocateEPS4_m.exit: ; preds = %_ZSt8_DestroyIPN7testing7MatcherIRKdEES4_EvT_S6_RSaIT0_E.exit, %if.then.i39
  %_M_end_of_storage = getelementptr inbounds %"struct.std::_Vector_base<testing::Matcher<const double &>, std::allocator<testing::Matcher<const double &>>>::_Vector_impl_data", ptr %this, i64 0, i32 2
  store ptr %cond.i19, ptr %this, align 8
  store ptr %__cur.0.lcssa.i.i.i.i.i37, ptr %_M_finish.i.i, align 8
  %add.ptr29 = getelementptr inbounds %"class.testing::Matcher.79", ptr %cond.i19, i64 %cond.i
  store ptr %add.ptr29, ptr %_M_end_of_storage, align 8
  ret void
}

; Function Attrs: mustprogress nounwind uwtable
define linkonce_odr dso_local void @_ZN7testing8internal22ElementsAreMatcherImplIRKSt6vectorIdSaIdEEED2Ev(ptr noundef nonnull align 8 dereferenceable(32) %this) unnamed_addr #3 comdat align 2 personality ptr @__gxx_personality_v0 {
entry:
  store ptr getelementptr inbounds ({ [7 x ptr] }, ptr @_ZTVN7testing8internal22ElementsAreMatcherImplIRKSt6vectorIdSaIdEEEE, i64 0, inrange i32 0, i64 2), ptr %this, align 8
  %matchers_ = getelementptr inbounds %"class.testing::internal::ElementsAreMatcherImpl", ptr %this, i64 0, i32 1
  %0 = load ptr, ptr %matchers_, align 8
  %_M_finish.i = getelementptr inbounds %"class.testing::internal::ElementsAreMatcherImpl", ptr %this, i64 0, i32 1, i32 0, i32 0, i32 0, i32 1
  %1 = load ptr, ptr %_M_finish.i, align 8
  %cmp.not3.i.i.i.i = icmp eq ptr %0, %1
  br i1 %cmp.not3.i.i.i.i, label %invoke.cont.i, label %for.body.i.i.i.i

for.body.i.i.i.i:                                 ; preds = %entry, %for.body.i.i.i.i
  %__first.addr.04.i.i.i.i = phi ptr [ %incdec.ptr.i.i.i.i, %for.body.i.i.i.i ], [ %0, %entry ]
  %vtable.i.i.i.i.i = load ptr, ptr %__first.addr.04.i.i.i.i, align 8
  %2 = load ptr, ptr %vtable.i.i.i.i.i, align 8
  tail call void %2(ptr noundef nonnull align 8 dereferenceable(24) %__first.addr.04.i.i.i.i) #23
  %incdec.ptr.i.i.i.i = getelementptr inbounds %"class.testing::Matcher.79", ptr %__first.addr.04.i.i.i.i, i64 1
  %cmp.not.i.i.i.i = icmp eq ptr %incdec.ptr.i.i.i.i, %1
  br i1 %cmp.not.i.i.i.i, label %invoke.contthread-pre-split.i, label %for.body.i.i.i.i, !llvm.loop !7

invoke.contthread-pre-split.i:                    ; preds = %for.body.i.i.i.i
  %.pr.i = load ptr, ptr %matchers_, align 8
  br label %invoke.cont.i

invoke.cont.i:                                    ; preds = %invoke.contthread-pre-split.i, %entry
  %3 = phi ptr [ %.pr.i, %invoke.contthread-pre-split.i ], [ %0, %entry ]
  %tobool.not.i.i.i = icmp eq ptr %3, null
  br i1 %tobool.not.i.i.i, label %_ZNSt6vectorIN7testing7MatcherIRKdEESaIS4_EED2Ev.exit, label %if.then.i.i.i

if.then.i.i.i:                                    ; preds = %invoke.cont.i
  tail call void @_ZdlPv(ptr noundef nonnull %3) #24
  br label %_ZNSt6vectorIN7testing7MatcherIRKdEESaIS4_EED2Ev.exit

_ZNSt6vectorIN7testing7MatcherIRKdEESaIS4_EED2Ev.exit: ; preds = %invoke.cont.i, %if.then.i.i.i
  ret void
}

; Function Attrs: mustprogress nounwind uwtable
define linkonce_odr dso_local void @_ZN7testing8internal22ElementsAreMatcherImplIRKSt6vectorIdSaIdEEED0Ev(ptr noundef nonnull align 8 dereferenceable(32) %this) unnamed_addr #3 comdat align 2 personality ptr @__gxx_personality_v0 {
entry:
  store ptr getelementptr inbounds ({ [7 x ptr] }, ptr @_ZTVN7testing8internal22ElementsAreMatcherImplIRKSt6vectorIdSaIdEEEE, i64 0, inrange i32 0, i64 2), ptr %this, align 8
  %matchers_.i = getelementptr inbounds %"class.testing::internal::ElementsAreMatcherImpl", ptr %this, i64 0, i32 1
  %0 = load ptr, ptr %matchers_.i, align 8
  %_M_finish.i.i = getelementptr inbounds %"class.testing::internal::ElementsAreMatcherImpl", ptr %this, i64 0, i32 1, i32 0, i32 0, i32 0, i32 1
  %1 = load ptr, ptr %_M_finish.i.i, align 8
  %cmp.not3.i.i.i.i.i = icmp eq ptr %0, %1
  br i1 %cmp.not3.i.i.i.i.i, label %invoke.cont.i.i, label %for.body.i.i.i.i.i

for.body.i.i.i.i.i:                               ; preds = %entry, %for.body.i.i.i.i.i
  %__first.addr.04.i.i.i.i.i = phi ptr [ %incdec.ptr.i.i.i.i.i, %for.body.i.i.i.i.i ], [ %0, %entry ]
  %vtable.i.i.i.i.i.i = load ptr, ptr %__first.addr.04.i.i.i.i.i, align 8
  %2 = load ptr, ptr %vtable.i.i.i.i.i.i, align 8
  tail call void %2(ptr noundef nonnull align 8 dereferenceable(24) %__first.addr.04.i.i.i.i.i) #23
  %incdec.ptr.i.i.i.i.i = getelementptr inbounds %"class.testing::Matcher.79", ptr %__first.addr.04.i.i.i.i.i, i64 1
  %cmp.not.i.i.i.i.i = icmp eq ptr %incdec.ptr.i.i.i.i.i, %1
  br i1 %cmp.not.i.i.i.i.i, label %invoke.contthread-pre-split.i.i, label %for.body.i.i.i.i.i, !llvm.loop !7

invoke.contthread-pre-split.i.i:                  ; preds = %for.body.i.i.i.i.i
  %.pr.i.i = load ptr, ptr %matchers_.i, align 8
  br label %invoke.cont.i.i

invoke.cont.i.i:                                  ; preds = %invoke.contthread-pre-split.i.i, %entry
  %3 = phi ptr [ %.pr.i.i, %invoke.contthread-pre-split.i.i ], [ %0, %entry ]
  %tobool.not.i.i.i.i = icmp eq ptr %3, null
  br i1 %tobool.not.i.i.i.i, label %_ZN7testing8internal22ElementsAreMatcherImplIRKSt6vectorIdSaIdEEED2Ev.exit, label %if.then.i.i.i.i

if.then.i.i.i.i:                                  ; preds = %invoke.cont.i.i
  tail call void @_ZdlPv(ptr noundef nonnull %3) #24
  br label %_ZN7testing8internal22ElementsAreMatcherImplIRKSt6vectorIdSaIdEEED2Ev.exit

_ZN7testing8internal22ElementsAreMatcherImplIRKSt6vectorIdSaIdEEED2Ev.exit: ; preds = %invoke.cont.i.i, %if.then.i.i.i.i
  tail call void @_ZdlPv(ptr noundef nonnull %this) #24
  ret void
}

; Function Attrs: mustprogress uwtable
define linkonce_odr dso_local void @_ZNK7testing8internal22ElementsAreMatcherImplIRKSt6vectorIdSaIdEEE10DescribeToEPSo(ptr noundef nonnull align 8 dereferenceable(32) %this, ptr noundef %os) unnamed_addr #4 comdat align 2 personality ptr @__gxx_personality_v0 {
entry:
  %ref.tmp.i36 = alloca %"class.testing::internal::GTestLog", align 4
  %ref.tmp.i26 = alloca %"class.std::__cxx11::basic_string", align 8
  %ref.tmp.i23 = alloca %"class.testing::Message", align 8
  %ref.tmp.i = alloca %"class.testing::internal::GTestLog", align 4
  %ref.tmp = alloca %"class.testing::Message", align 8
  %matchers_.i = getelementptr inbounds %"class.testing::internal::ElementsAreMatcherImpl", ptr %this, i64 0, i32 1
  %_M_finish.i.i = getelementptr inbounds %"class.testing::internal::ElementsAreMatcherImpl", ptr %this, i64 0, i32 1, i32 0, i32 0, i32 0, i32 1
  %0 = load ptr, ptr %_M_finish.i.i, align 8
  %1 = load ptr, ptr %matchers_.i, align 8
  %sub.ptr.lhs.cast.i.i = ptrtoint ptr %0 to i64
  %sub.ptr.rhs.cast.i.i = ptrtoint ptr %1 to i64
  %sub.ptr.sub.i.i = sub i64 %sub.ptr.lhs.cast.i.i, %sub.ptr.rhs.cast.i.i
  %sub.ptr.div.i.i = sdiv exact i64 %sub.ptr.sub.i.i, 24
  switch i64 %sub.ptr.div.i.i, label %if.else8 [
    i64 0, label %if.then
    i64 1, label %if.then5
  ]

if.then:                                          ; preds = %entry
  %call2 = tail call noundef nonnull align 8 dereferenceable(8) ptr @_ZStlsISt11char_traitsIcEERSt13basic_ostreamIcT_ES5_PKc(ptr noundef nonnull align 8 dereferenceable(8) %os, ptr noundef nonnull @.str.32)
  br label %if.end26

if.then5:                                         ; preds = %entry
  %call6 = tail call noundef nonnull align 8 dereferenceable(8) ptr @_ZStlsISt11char_traitsIcEERSt13basic_ostreamIcT_ES5_PKc(ptr noundef nonnull align 8 dereferenceable(8) %os, ptr noundef nonnull @.str.33)
  %2 = load ptr, ptr %matchers_.i, align 8
  call void @llvm.lifetime.start.p0(i64 4, ptr nonnull %ref.tmp.i)
  %vtable_.i = getelementptr inbounds %"class.testing::internal::MatcherBase.80", ptr %2, i64 0, i32 1
  %3 = load ptr, ptr %vtable_.i, align 8
  %cmp.i = icmp ne ptr %3, null
  %call.i = tail call noundef zeroext i1 @_ZN7testing8internal6IsTrueEb(i1 noundef zeroext %cmp.i)
  br i1 %call.i, label %_ZNK7testing8internal11MatcherBaseIRKdE10DescribeToEPSo.exit, label %if.else.i

if.else.i:                                        ; preds = %if.then5
  call void @_ZN7testing8internal8GTestLogC1ENS0_16GTestLogSeverityEPKci(ptr noundef nonnull align 4 dereferenceable(4) %ref.tmp.i, i32 noundef 3, ptr noundef nonnull @.str.26, i32 noundef 245)
  %call4.i = invoke noundef nonnull align 8 dereferenceable(8) ptr @_ZStlsISt11char_traitsIcEERSt13basic_ostreamIcT_ES5_PKc(ptr noundef nonnull align 8 dereferenceable(8) @_ZSt4cerr, ptr noundef nonnull @.str.27)
          to label %invoke.cont3.i unwind label %lpad.i

invoke.cont3.i:                                   ; preds = %if.else.i
  call void @_ZN7testing8internal8GTestLogD1Ev(ptr noundef nonnull align 4 dereferenceable(4) %ref.tmp.i) #23
  br label %_ZNK7testing8internal11MatcherBaseIRKdE10DescribeToEPSo.exit

common.resume:                                    ; preds = %_ZNKSt14default_deleteINSt7__cxx1118basic_stringstreamIcSt11char_traitsIcESaIcEEEEclEPS5_.exit.i.i53, %lpad.body, %lpad.i24, %_ZNKSt14default_deleteINSt7__cxx1118basic_stringstreamIcSt11char_traitsIcESaIcEEEEclEPS5_.exit.i.i5.i, %lpad.i42, %lpad.i
  %common.resume.op = phi { ptr, i32 } [ %4, %lpad.i ], [ %23, %lpad.i42 ], [ %13, %_ZNKSt14default_deleteINSt7__cxx1118basic_stringstreamIcSt11char_traitsIcESaIcEEEEclEPS5_.exit.i.i5.i ], [ %13, %lpad.i24 ], [ %eh.lpad-body, %lpad.body ], [ %eh.lpad-body, %_ZNKSt14default_deleteINSt7__cxx1118basic_stringstreamIcSt11char_traitsIcESaIcEEEEclEPS5_.exit.i.i53 ]
  resume { ptr, i32 } %common.resume.op

lpad.i:                                           ; preds = %if.else.i
  %4 = landingpad { ptr, i32 }
          cleanup
  call void @_ZN7testing8internal8GTestLogD1Ev(ptr noundef nonnull align 4 dereferenceable(4) %ref.tmp.i) #23
  br label %common.resume

_ZNK7testing8internal11MatcherBaseIRKdE10DescribeToEPSo.exit: ; preds = %if.then5, %invoke.cont3.i
  %5 = load ptr, ptr %vtable_.i, align 8
  %describe.i = getelementptr inbounds %"struct.testing::internal::MatcherBase<const double &>::VTable", ptr %5, i64 0, i32 1
  %6 = load ptr, ptr %describe.i, align 8
  call void %6(ptr noundef nonnull align 8 dereferenceable(24) %2, ptr noundef nonnull %os, i1 noundef zeroext false)
  call void @llvm.lifetime.end.p0(i64 4, ptr nonnull %ref.tmp.i)
  br label %if.end26

if.else8:                                         ; preds = %entry
  %call9 = tail call noundef nonnull align 8 dereferenceable(8) ptr @_ZStlsISt11char_traitsIcEERSt13basic_ostreamIcT_ES5_PKc(ptr noundef nonnull align 8 dereferenceable(8) %os, ptr noundef nonnull @.str.34)
  %7 = load ptr, ptr %_M_finish.i.i, align 8
  %8 = load ptr, ptr %matchers_.i, align 8
  %sub.ptr.lhs.cast.i.i19 = ptrtoint ptr %7 to i64
  %sub.ptr.rhs.cast.i.i20 = ptrtoint ptr %8 to i64
  %sub.ptr.sub.i.i21 = sub i64 %sub.ptr.lhs.cast.i.i19, %sub.ptr.rhs.cast.i.i20
  %sub.ptr.div.i.i22 = sdiv exact i64 %sub.ptr.sub.i.i21, 24
  call void @llvm.lifetime.start.p0(i64 8, ptr nonnull %ref.tmp.i23)
  call void @_ZN7testing7MessageC1Ev(ptr noundef nonnull align 8 dereferenceable(8) %ref.tmp.i23), !noalias !56
  %9 = load ptr, ptr %ref.tmp.i23, align 8, !noalias !56
  %add.ptr.i.i = getelementptr inbounds i8, ptr %9, i64 16
  %call2.i1.i = invoke noundef nonnull align 8 dereferenceable(8) ptr @_ZNSolsEm(ptr noundef nonnull align 8 dereferenceable(8) %add.ptr.i.i, i64 noundef %sub.ptr.div.i.i22)
          to label %invoke.cont.i unwind label %lpad.i24, !noalias !56

invoke.cont.i:                                    ; preds = %if.else8
  %cmp.i25 = icmp eq i64 %sub.ptr.sub.i.i21, 24
  %cond.i = select i1 %cmp.i25, ptr @.str.38, ptr @.str.39
  %10 = load ptr, ptr %ref.tmp.i23, align 8, !noalias !56
  %add.ptr.i2.i = getelementptr inbounds i8, ptr %10, i64 16
  %call6.i3.i = invoke noundef nonnull align 8 dereferenceable(8) ptr @_ZStlsISt11char_traitsIcEERSt13basic_ostreamIcT_ES5_PKc(ptr noundef nonnull align 8 dereferenceable(8) %add.ptr.i2.i, ptr noundef nonnull %cond.i)
          to label %invoke.cont2.i unwind label %lpad.i24, !noalias !56

invoke.cont2.i:                                   ; preds = %invoke.cont.i
  invoke void @_ZN7testing7MessageC2ERKS0_(ptr noundef nonnull align 8 dereferenceable(8) %ref.tmp, ptr noundef nonnull align 8 dereferenceable(8) %ref.tmp.i23)
          to label %invoke.cont4.i unwind label %lpad.i24

invoke.cont4.i:                                   ; preds = %invoke.cont2.i
  %11 = load ptr, ptr %ref.tmp.i23, align 8, !noalias !56
  %cmp.not.i.i.i = icmp eq ptr %11, null
  br i1 %cmp.not.i.i.i, label %_ZN7testing8internal22ElementsAreMatcherImplIRKSt6vectorIdSaIdEEE8ElementsEm.exit, label %_ZNKSt14default_deleteINSt7__cxx1118basic_stringstreamIcSt11char_traitsIcESaIcEEEEclEPS5_.exit.i.i.i

_ZNKSt14default_deleteINSt7__cxx1118basic_stringstreamIcSt11char_traitsIcESaIcEEEEclEPS5_.exit.i.i.i: ; preds = %invoke.cont4.i
  %vtable.i.i.i.i = load ptr, ptr %11, align 8
  %vfn.i.i.i.i = getelementptr inbounds ptr, ptr %vtable.i.i.i.i, i64 1
  %12 = load ptr, ptr %vfn.i.i.i.i, align 8
  call void %12(ptr noundef nonnull align 8 dereferenceable(128) %11) #23
  br label %_ZN7testing8internal22ElementsAreMatcherImplIRKSt6vectorIdSaIdEEE8ElementsEm.exit

lpad.i24:                                         ; preds = %invoke.cont2.i, %invoke.cont.i, %if.else8
  %13 = landingpad { ptr, i32 }
          cleanup
  %14 = load ptr, ptr %ref.tmp.i23, align 8, !noalias !56
  %cmp.not.i.i4.i = icmp eq ptr %14, null
  br i1 %cmp.not.i.i4.i, label %common.resume, label %_ZNKSt14default_deleteINSt7__cxx1118basic_stringstreamIcSt11char_traitsIcESaIcEEEEclEPS5_.exit.i.i5.i

_ZNKSt14default_deleteINSt7__cxx1118basic_stringstreamIcSt11char_traitsIcESaIcEEEEclEPS5_.exit.i.i5.i: ; preds = %lpad.i24
  %vtable.i.i.i6.i = load ptr, ptr %14, align 8
  %vfn.i.i.i7.i = getelementptr inbounds ptr, ptr %vtable.i.i.i6.i, i64 1
  %15 = load ptr, ptr %vfn.i.i.i7.i, align 8
  call void %15(ptr noundef nonnull align 8 dereferenceable(128) %14) #23
  br label %common.resume

_ZN7testing8internal22ElementsAreMatcherImplIRKSt6vectorIdSaIdEEE8ElementsEm.exit: ; preds = %invoke.cont4.i, %_ZNKSt14default_deleteINSt7__cxx1118basic_stringstreamIcSt11char_traitsIcESaIcEEEEclEPS5_.exit.i.i.i
  call void @llvm.lifetime.end.p0(i64 8, ptr nonnull %ref.tmp.i23)
  call void @llvm.lifetime.start.p0(i64 32, ptr nonnull %ref.tmp.i26)
  invoke void @_ZNK7testing7Message9GetStringB5cxx11Ev(ptr nonnull sret(%"class.std::__cxx11::basic_string") align 8 %ref.tmp.i26, ptr noundef nonnull align 8 dereferenceable(8) %ref.tmp)
          to label %.noexc unwind label %lpad

.noexc:                                           ; preds = %_ZN7testing8internal22ElementsAreMatcherImplIRKSt6vectorIdSaIdEEE8ElementsEm.exit
  %call.i27 = invoke noundef nonnull align 8 dereferenceable(8) ptr @_ZStlsIcSt11char_traitsIcESaIcEERSt13basic_ostreamIT_T0_ES7_RKNSt7__cxx1112basic_stringIS4_S5_T1_EE(ptr noundef nonnull align 8 dereferenceable(8) %call9, ptr noundef nonnull align 8 dereferenceable(32) %ref.tmp.i26)
          to label %invoke.cont unwind label %lpad.i28

lpad.i28:                                         ; preds = %.noexc
  %16 = landingpad { ptr, i32 }
          cleanup
  call void @_ZNSt7__cxx1112basic_stringIcSt11char_traitsIcESaIcEED1Ev(ptr noundef nonnull align 8 dereferenceable(32) %ref.tmp.i26) #23
  br label %lpad.body

invoke.cont:                                      ; preds = %.noexc
  call void @_ZNSt7__cxx1112basic_stringIcSt11char_traitsIcESaIcEED1Ev(ptr noundef nonnull align 8 dereferenceable(32) %ref.tmp.i26) #23
  call void @llvm.lifetime.end.p0(i64 32, ptr nonnull %ref.tmp.i26)
  %call13 = invoke noundef nonnull align 8 dereferenceable(8) ptr @_ZStlsISt11char_traitsIcEERSt13basic_ostreamIcT_ES5_PKc(ptr noundef nonnull align 8 dereferenceable(8) %call.i27, ptr noundef nonnull @.str.35)
          to label %invoke.cont12 unwind label %lpad

invoke.cont12:                                    ; preds = %invoke.cont
  %17 = load ptr, ptr %ref.tmp, align 8
  %cmp.not.i.i = icmp eq ptr %17, null
  br i1 %cmp.not.i.i, label %_ZN7testing7MessageD2Ev.exit, label %_ZNKSt14default_deleteINSt7__cxx1118basic_stringstreamIcSt11char_traitsIcESaIcEEEEclEPS5_.exit.i.i

_ZNKSt14default_deleteINSt7__cxx1118basic_stringstreamIcSt11char_traitsIcESaIcEEEEclEPS5_.exit.i.i: ; preds = %invoke.cont12
  %vtable.i.i.i = load ptr, ptr %17, align 8
  %vfn.i.i.i = getelementptr inbounds ptr, ptr %vtable.i.i.i, i64 1
  %18 = load ptr, ptr %vfn.i.i.i, align 8
  call void %18(ptr noundef nonnull align 8 dereferenceable(128) %17) #23
  br label %_ZN7testing7MessageD2Ev.exit

_ZN7testing7MessageD2Ev.exit:                     ; preds = %invoke.cont12, %_ZNKSt14default_deleteINSt7__cxx1118basic_stringstreamIcSt11char_traitsIcESaIcEEEEclEPS5_.exit.i.i
  store ptr null, ptr %ref.tmp, align 8
  %19 = load ptr, ptr %_M_finish.i.i, align 8
  %20 = load ptr, ptr %matchers_.i, align 8
  %cmp15.not61 = icmp eq ptr %19, %20
  br i1 %cmp15.not61, label %if.end26, label %for.body

for.body:                                         ; preds = %_ZN7testing7MessageD2Ev.exit, %for.inc
  %i.062 = phi i64 [ %add, %for.inc ], [ 0, %_ZN7testing7MessageD2Ev.exit ]
  %call16 = call noundef nonnull align 8 dereferenceable(8) ptr @_ZStlsISt11char_traitsIcEERSt13basic_ostreamIcT_ES5_PKc(ptr noundef nonnull align 8 dereferenceable(8) %os, ptr noundef nonnull @.str.36)
  %call17 = call noundef nonnull align 8 dereferenceable(8) ptr @_ZNSolsEm(ptr noundef nonnull align 8 dereferenceable(8) %call16, i64 noundef %i.062)
  %call18 = call noundef nonnull align 8 dereferenceable(8) ptr @_ZStlsISt11char_traitsIcEERSt13basic_ostreamIcT_ES5_PKc(ptr noundef nonnull align 8 dereferenceable(8) %call17, ptr noundef nonnull @.str.28)
  %21 = load ptr, ptr %matchers_.i, align 8
  %add.ptr.i = getelementptr inbounds %"class.testing::Matcher.79", ptr %21, i64 %i.062
  call void @llvm.lifetime.start.p0(i64 4, ptr nonnull %ref.tmp.i36)
  %vtable_.i37 = getelementptr inbounds %"class.testing::internal::MatcherBase.80", ptr %add.ptr.i, i64 0, i32 1
  %22 = load ptr, ptr %vtable_.i37, align 8
  %cmp.i38 = icmp ne ptr %22, null
  %call.i39 = call noundef zeroext i1 @_ZN7testing8internal6IsTrueEb(i1 noundef zeroext %cmp.i38)
  br i1 %call.i39, label %_ZNK7testing8internal11MatcherBaseIRKdE10DescribeToEPSo.exit45, label %if.else.i40

if.else.i40:                                      ; preds = %for.body
  call void @_ZN7testing8internal8GTestLogC1ENS0_16GTestLogSeverityEPKci(ptr noundef nonnull align 4 dereferenceable(4) %ref.tmp.i36, i32 noundef 3, ptr noundef nonnull @.str.26, i32 noundef 245)
  %call4.i41 = invoke noundef nonnull align 8 dereferenceable(8) ptr @_ZStlsISt11char_traitsIcEERSt13basic_ostreamIcT_ES5_PKc(ptr noundef nonnull align 8 dereferenceable(8) @_ZSt4cerr, ptr noundef nonnull @.str.27)
          to label %invoke.cont3.i43 unwind label %lpad.i42

invoke.cont3.i43:                                 ; preds = %if.else.i40
  call void @_ZN7testing8internal8GTestLogD1Ev(ptr noundef nonnull align 4 dereferenceable(4) %ref.tmp.i36) #23
  br label %_ZNK7testing8internal11MatcherBaseIRKdE10DescribeToEPSo.exit45

lpad.i42:                                         ; preds = %if.else.i40
  %23 = landingpad { ptr, i32 }
          cleanup
  call void @_ZN7testing8internal8GTestLogD1Ev(ptr noundef nonnull align 4 dereferenceable(4) %ref.tmp.i36) #23
  br label %common.resume

_ZNK7testing8internal11MatcherBaseIRKdE10DescribeToEPSo.exit45: ; preds = %for.body, %invoke.cont3.i43
  %24 = load ptr, ptr %vtable_.i37, align 8
  %describe.i44 = getelementptr inbounds %"struct.testing::internal::MatcherBase<const double &>::VTable", ptr %24, i64 0, i32 1
  %25 = load ptr, ptr %describe.i44, align 8
  call void %25(ptr noundef nonnull align 8 dereferenceable(24) %add.ptr.i, ptr noundef nonnull %os, i1 noundef zeroext false)
  call void @llvm.lifetime.end.p0(i64 4, ptr nonnull %ref.tmp.i36)
  %add = add i64 %i.062, 1
  %26 = load ptr, ptr %_M_finish.i.i, align 8
  %27 = load ptr, ptr %matchers_.i, align 8
  %sub.ptr.lhs.cast.i.i48 = ptrtoint ptr %26 to i64
  %sub.ptr.rhs.cast.i.i49 = ptrtoint ptr %27 to i64
  %sub.ptr.sub.i.i50 = sub i64 %sub.ptr.lhs.cast.i.i48, %sub.ptr.rhs.cast.i.i49
  %sub.ptr.div.i.i51 = sdiv exact i64 %sub.ptr.sub.i.i50, 24
  %cmp22 = icmp ult i64 %add, %sub.ptr.div.i.i51
  br i1 %cmp22, label %if.then23, label %for.inc

if.then23:                                        ; preds = %_ZNK7testing8internal11MatcherBaseIRKdE10DescribeToEPSo.exit45
  %call24 = call noundef nonnull align 8 dereferenceable(8) ptr @_ZStlsISt11char_traitsIcEERSt13basic_ostreamIcT_ES5_PKc(ptr noundef nonnull align 8 dereferenceable(8) %os, ptr noundef nonnull @.str.37)
  %.pre = load ptr, ptr %_M_finish.i.i, align 8
  %.pre63 = load ptr, ptr %matchers_.i, align 8
  %.pre64 = ptrtoint ptr %.pre to i64
  %.pre65 = ptrtoint ptr %.pre63 to i64
  %.pre66 = sub i64 %.pre64, %.pre65
  %.pre67 = sdiv exact i64 %.pre66, 24
  br label %for.inc

lpad:                                             ; preds = %_ZN7testing8internal22ElementsAreMatcherImplIRKSt6vectorIdSaIdEEE8ElementsEm.exit, %invoke.cont
  %28 = landingpad { ptr, i32 }
          cleanup
  br label %lpad.body

lpad.body:                                        ; preds = %lpad.i28, %lpad
  %eh.lpad-body = phi { ptr, i32 } [ %28, %lpad ], [ %16, %lpad.i28 ]
  %29 = load ptr, ptr %ref.tmp, align 8
  %cmp.not.i.i52 = icmp eq ptr %29, null
  br i1 %cmp.not.i.i52, label %common.resume, label %_ZNKSt14default_deleteINSt7__cxx1118basic_stringstreamIcSt11char_traitsIcESaIcEEEEclEPS5_.exit.i.i53

_ZNKSt14default_deleteINSt7__cxx1118basic_stringstreamIcSt11char_traitsIcESaIcEEEEclEPS5_.exit.i.i53: ; preds = %lpad.body
  %vtable.i.i.i54 = load ptr, ptr %29, align 8
  %vfn.i.i.i55 = getelementptr inbounds ptr, ptr %vtable.i.i.i54, i64 1
  %30 = load ptr, ptr %vfn.i.i.i55, align 8
  call void %30(ptr noundef nonnull align 8 dereferenceable(128) %29) #23
  br label %common.resume

for.inc:                                          ; preds = %_ZNK7testing8internal11MatcherBaseIRKdE10DescribeToEPSo.exit45, %if.then23
  %sub.ptr.div.i.i35.pre-phi = phi i64 [ %sub.ptr.div.i.i51, %_ZNK7testing8internal11MatcherBaseIRKdE10DescribeToEPSo.exit45 ], [ %.pre67, %if.then23 ]
  %cmp15.not = icmp eq i64 %add, %sub.ptr.div.i.i35.pre-phi
  br i1 %cmp15.not, label %if.end26, label %for.body, !llvm.loop !59

if.end26:                                         ; preds = %for.inc, %_ZN7testing7MessageD2Ev.exit, %_ZNK7testing8internal11MatcherBaseIRKdE10DescribeToEPSo.exit, %if.then
  ret void
}

; Function Attrs: mustprogress uwtable
define linkonce_odr dso_local void @_ZNK7testing8internal22ElementsAreMatcherImplIRKSt6vectorIdSaIdEEE18DescribeNegationToEPSo(ptr noundef nonnull align 8 dereferenceable(32) %this, ptr noundef %os) unnamed_addr #4 comdat align 2 personality ptr @__gxx_personality_v0 {
entry:
  %ref.tmp.i24 = alloca %"class.testing::internal::GTestLog", align 4
  %ref.tmp.i15 = alloca %"class.std::__cxx11::basic_string", align 8
  %ref.tmp.i = alloca %"class.testing::Message", align 8
  %ref.tmp = alloca %"class.testing::Message", align 8
  %matchers_.i = getelementptr inbounds %"class.testing::internal::ElementsAreMatcherImpl", ptr %this, i64 0, i32 1
  %_M_finish.i.i = getelementptr inbounds %"class.testing::internal::ElementsAreMatcherImpl", ptr %this, i64 0, i32 1, i32 0, i32 0, i32 0, i32 1
  %0 = load ptr, ptr %_M_finish.i.i, align 8
  %1 = load ptr, ptr %matchers_.i, align 8
  %cmp = icmp eq ptr %0, %1
  br i1 %cmp, label %if.then, label %if.end

if.then:                                          ; preds = %entry
  %call2 = tail call noundef nonnull align 8 dereferenceable(8) ptr @_ZStlsISt11char_traitsIcEERSt13basic_ostreamIcT_ES5_PKc(ptr noundef nonnull align 8 dereferenceable(8) %os, ptr noundef nonnull @.str.41)
  br label %for.end

if.end:                                           ; preds = %entry
  %call3 = tail call noundef nonnull align 8 dereferenceable(8) ptr @_ZStlsISt11char_traitsIcEERSt13basic_ostreamIcT_ES5_PKc(ptr noundef nonnull align 8 dereferenceable(8) %os, ptr noundef nonnull @.str.42)
  %2 = load ptr, ptr %_M_finish.i.i, align 8
  %3 = load ptr, ptr %matchers_.i, align 8
  %sub.ptr.lhs.cast.i.i11 = ptrtoint ptr %2 to i64
  %sub.ptr.rhs.cast.i.i12 = ptrtoint ptr %3 to i64
  %sub.ptr.sub.i.i13 = sub i64 %sub.ptr.lhs.cast.i.i11, %sub.ptr.rhs.cast.i.i12
  %sub.ptr.div.i.i14 = sdiv exact i64 %sub.ptr.sub.i.i13, 24
  call void @llvm.lifetime.start.p0(i64 8, ptr nonnull %ref.tmp.i)
  call void @_ZN7testing7MessageC1Ev(ptr noundef nonnull align 8 dereferenceable(8) %ref.tmp.i), !noalias !60
  %4 = load ptr, ptr %ref.tmp.i, align 8, !noalias !60
  %add.ptr.i.i = getelementptr inbounds i8, ptr %4, i64 16
  %call2.i1.i = invoke noundef nonnull align 8 dereferenceable(8) ptr @_ZNSolsEm(ptr noundef nonnull align 8 dereferenceable(8) %add.ptr.i.i, i64 noundef %sub.ptr.div.i.i14)
          to label %invoke.cont.i unwind label %lpad.i, !noalias !60

invoke.cont.i:                                    ; preds = %if.end
  %cmp.i = icmp eq i64 %sub.ptr.sub.i.i13, 24
  %cond.i = select i1 %cmp.i, ptr @.str.38, ptr @.str.39
  %5 = load ptr, ptr %ref.tmp.i, align 8, !noalias !60
  %add.ptr.i2.i = getelementptr inbounds i8, ptr %5, i64 16
  %call6.i3.i = invoke noundef nonnull align 8 dereferenceable(8) ptr @_ZStlsISt11char_traitsIcEERSt13basic_ostreamIcT_ES5_PKc(ptr noundef nonnull align 8 dereferenceable(8) %add.ptr.i2.i, ptr noundef nonnull %cond.i)
          to label %invoke.cont2.i unwind label %lpad.i, !noalias !60

invoke.cont2.i:                                   ; preds = %invoke.cont.i
  invoke void @_ZN7testing7MessageC2ERKS0_(ptr noundef nonnull align 8 dereferenceable(8) %ref.tmp, ptr noundef nonnull align 8 dereferenceable(8) %ref.tmp.i)
          to label %invoke.cont4.i unwind label %lpad.i

invoke.cont4.i:                                   ; preds = %invoke.cont2.i
  %6 = load ptr, ptr %ref.tmp.i, align 8, !noalias !60
  %cmp.not.i.i.i = icmp eq ptr %6, null
  br i1 %cmp.not.i.i.i, label %_ZN7testing8internal22ElementsAreMatcherImplIRKSt6vectorIdSaIdEEE8ElementsEm.exit, label %_ZNKSt14default_deleteINSt7__cxx1118basic_stringstreamIcSt11char_traitsIcESaIcEEEEclEPS5_.exit.i.i.i

_ZNKSt14default_deleteINSt7__cxx1118basic_stringstreamIcSt11char_traitsIcESaIcEEEEclEPS5_.exit.i.i.i: ; preds = %invoke.cont4.i
  %vtable.i.i.i.i = load ptr, ptr %6, align 8
  %vfn.i.i.i.i = getelementptr inbounds ptr, ptr %vtable.i.i.i.i, i64 1
  %7 = load ptr, ptr %vfn.i.i.i.i, align 8
  call void %7(ptr noundef nonnull align 8 dereferenceable(128) %6) #23
  br label %_ZN7testing8internal22ElementsAreMatcherImplIRKSt6vectorIdSaIdEEE8ElementsEm.exit

lpad.i:                                           ; preds = %invoke.cont2.i, %invoke.cont.i, %if.end
  %8 = landingpad { ptr, i32 }
          cleanup
  %9 = load ptr, ptr %ref.tmp.i, align 8, !noalias !60
  %cmp.not.i.i4.i = icmp eq ptr %9, null
  br i1 %cmp.not.i.i4.i, label %common.resume, label %_ZNKSt14default_deleteINSt7__cxx1118basic_stringstreamIcSt11char_traitsIcESaIcEEEEclEPS5_.exit.i.i5.i

_ZNKSt14default_deleteINSt7__cxx1118basic_stringstreamIcSt11char_traitsIcESaIcEEEEclEPS5_.exit.i.i5.i: ; preds = %lpad.i
  %vtable.i.i.i6.i = load ptr, ptr %9, align 8
  %vfn.i.i.i7.i = getelementptr inbounds ptr, ptr %vtable.i.i.i6.i, i64 1
  %10 = load ptr, ptr %vfn.i.i.i7.i, align 8
  call void %10(ptr noundef nonnull align 8 dereferenceable(128) %9) #23
  br label %common.resume

common.resume:                                    ; preds = %_ZNKSt14default_deleteINSt7__cxx1118basic_stringstreamIcSt11char_traitsIcESaIcEEEEclEPS5_.exit.i.i36, %lpad.body, %lpad.i, %_ZNKSt14default_deleteINSt7__cxx1118basic_stringstreamIcSt11char_traitsIcESaIcEEEEclEPS5_.exit.i.i5.i, %lpad.i27
  %common.resume.op = phi { ptr, i32 } [ %18, %lpad.i27 ], [ %8, %_ZNKSt14default_deleteINSt7__cxx1118basic_stringstreamIcSt11char_traitsIcESaIcEEEEclEPS5_.exit.i.i5.i ], [ %8, %lpad.i ], [ %eh.lpad-body, %lpad.body ], [ %eh.lpad-body, %_ZNKSt14default_deleteINSt7__cxx1118basic_stringstreamIcSt11char_traitsIcESaIcEEEEclEPS5_.exit.i.i36 ]
  resume { ptr, i32 } %common.resume.op

_ZN7testing8internal22ElementsAreMatcherImplIRKSt6vectorIdSaIdEEE8ElementsEm.exit: ; preds = %invoke.cont4.i, %_ZNKSt14default_deleteINSt7__cxx1118basic_stringstreamIcSt11char_traitsIcESaIcEEEEclEPS5_.exit.i.i.i
  call void @llvm.lifetime.end.p0(i64 8, ptr nonnull %ref.tmp.i)
  call void @llvm.lifetime.start.p0(i64 32, ptr nonnull %ref.tmp.i15)
  invoke void @_ZNK7testing7Message9GetStringB5cxx11Ev(ptr nonnull sret(%"class.std::__cxx11::basic_string") align 8 %ref.tmp.i15, ptr noundef nonnull align 8 dereferenceable(8) %ref.tmp)
          to label %.noexc unwind label %lpad

.noexc:                                           ; preds = %_ZN7testing8internal22ElementsAreMatcherImplIRKSt6vectorIdSaIdEEE8ElementsEm.exit
  %call.i = invoke noundef nonnull align 8 dereferenceable(8) ptr @_ZStlsIcSt11char_traitsIcESaIcEERSt13basic_ostreamIT_T0_ES7_RKNSt7__cxx1112basic_stringIS4_S5_T1_EE(ptr noundef nonnull align 8 dereferenceable(8) %call3, ptr noundef nonnull align 8 dereferenceable(32) %ref.tmp.i15)
          to label %invoke.cont unwind label %lpad.i16

lpad.i16:                                         ; preds = %.noexc
  %11 = landingpad { ptr, i32 }
          cleanup
  call void @_ZNSt7__cxx1112basic_stringIcSt11char_traitsIcESaIcEED1Ev(ptr noundef nonnull align 8 dereferenceable(32) %ref.tmp.i15) #23
  br label %lpad.body

invoke.cont:                                      ; preds = %.noexc
  call void @_ZNSt7__cxx1112basic_stringIcSt11char_traitsIcESaIcEED1Ev(ptr noundef nonnull align 8 dereferenceable(32) %ref.tmp.i15) #23
  call void @llvm.lifetime.end.p0(i64 32, ptr nonnull %ref.tmp.i15)
  %call7 = invoke noundef nonnull align 8 dereferenceable(8) ptr @_ZStlsISt11char_traitsIcEERSt13basic_ostreamIcT_ES5_PKc(ptr noundef nonnull align 8 dereferenceable(8) %call.i, ptr noundef nonnull @.str.43)
          to label %invoke.cont6 unwind label %lpad

invoke.cont6:                                     ; preds = %invoke.cont
  %12 = load ptr, ptr %ref.tmp, align 8
  %cmp.not.i.i = icmp eq ptr %12, null
  br i1 %cmp.not.i.i, label %_ZN7testing7MessageD2Ev.exit, label %_ZNKSt14default_deleteINSt7__cxx1118basic_stringstreamIcSt11char_traitsIcESaIcEEEEclEPS5_.exit.i.i

_ZNKSt14default_deleteINSt7__cxx1118basic_stringstreamIcSt11char_traitsIcESaIcEEEEclEPS5_.exit.i.i: ; preds = %invoke.cont6
  %vtable.i.i.i = load ptr, ptr %12, align 8
  %vfn.i.i.i = getelementptr inbounds ptr, ptr %vtable.i.i.i, i64 1
  %13 = load ptr, ptr %vfn.i.i.i, align 8
  call void %13(ptr noundef nonnull align 8 dereferenceable(128) %12) #23
  br label %_ZN7testing7MessageD2Ev.exit

_ZN7testing7MessageD2Ev.exit:                     ; preds = %invoke.cont6, %_ZNKSt14default_deleteINSt7__cxx1118basic_stringstreamIcSt11char_traitsIcESaIcEEEEclEPS5_.exit.i.i
  store ptr null, ptr %ref.tmp, align 8
  %14 = load ptr, ptr %_M_finish.i.i, align 8
  %15 = load ptr, ptr %matchers_.i, align 8
  %cmp9.not44 = icmp eq ptr %14, %15
  br i1 %cmp9.not44, label %for.end, label %for.body

for.body:                                         ; preds = %_ZN7testing7MessageD2Ev.exit, %for.inc
  %i.045 = phi i64 [ %add, %for.inc ], [ 0, %_ZN7testing7MessageD2Ev.exit ]
  %call10 = call noundef nonnull align 8 dereferenceable(8) ptr @_ZStlsISt11char_traitsIcEERSt13basic_ostreamIcT_ES5_PKc(ptr noundef nonnull align 8 dereferenceable(8) %os, ptr noundef nonnull @.str.36)
  %call11 = call noundef nonnull align 8 dereferenceable(8) ptr @_ZNSolsEm(ptr noundef nonnull align 8 dereferenceable(8) %call10, i64 noundef %i.045)
  %call12 = call noundef nonnull align 8 dereferenceable(8) ptr @_ZStlsISt11char_traitsIcEERSt13basic_ostreamIcT_ES5_PKc(ptr noundef nonnull align 8 dereferenceable(8) %call11, ptr noundef nonnull @.str.28)
  %16 = load ptr, ptr %matchers_.i, align 8
  %add.ptr.i = getelementptr inbounds %"class.testing::Matcher.79", ptr %16, i64 %i.045
  call void @llvm.lifetime.start.p0(i64 4, ptr nonnull %ref.tmp.i24)
  %vtable_.i = getelementptr inbounds %"class.testing::internal::MatcherBase.80", ptr %add.ptr.i, i64 0, i32 1
  %17 = load ptr, ptr %vtable_.i, align 8
  %cmp.i25 = icmp ne ptr %17, null
  %call.i26 = call noundef zeroext i1 @_ZN7testing8internal6IsTrueEb(i1 noundef zeroext %cmp.i25)
  br i1 %call.i26, label %_ZNK7testing8internal11MatcherBaseIRKdE18DescribeNegationToEPSo.exit, label %if.else.i

if.else.i:                                        ; preds = %for.body
  call void @_ZN7testing8internal8GTestLogC1ENS0_16GTestLogSeverityEPKci(ptr noundef nonnull align 4 dereferenceable(4) %ref.tmp.i24, i32 noundef 3, ptr noundef nonnull @.str.26, i32 noundef 251)
  %call3.i = invoke noundef nonnull align 8 dereferenceable(8) ptr @_ZStlsISt11char_traitsIcEERSt13basic_ostreamIcT_ES5_PKc(ptr noundef nonnull align 8 dereferenceable(8) @_ZSt4cerr, ptr noundef nonnull @.str.27)
          to label %invoke.cont.i28 unwind label %lpad.i27

invoke.cont.i28:                                  ; preds = %if.else.i
  call void @_ZN7testing8internal8GTestLogD1Ev(ptr noundef nonnull align 4 dereferenceable(4) %ref.tmp.i24) #23
  br label %_ZNK7testing8internal11MatcherBaseIRKdE18DescribeNegationToEPSo.exit

lpad.i27:                                         ; preds = %if.else.i
  %18 = landingpad { ptr, i32 }
          cleanup
  call void @_ZN7testing8internal8GTestLogD1Ev(ptr noundef nonnull align 4 dereferenceable(4) %ref.tmp.i24) #23
  br label %common.resume

_ZNK7testing8internal11MatcherBaseIRKdE18DescribeNegationToEPSo.exit: ; preds = %for.body, %invoke.cont.i28
  %19 = load ptr, ptr %vtable_.i, align 8
  %describe.i = getelementptr inbounds %"struct.testing::internal::MatcherBase<const double &>::VTable", ptr %19, i64 0, i32 1
  %20 = load ptr, ptr %describe.i, align 8
  call void %20(ptr noundef nonnull align 8 dereferenceable(24) %add.ptr.i, ptr noundef nonnull %os, i1 noundef zeroext true)
  call void @llvm.lifetime.end.p0(i64 4, ptr nonnull %ref.tmp.i24)
  %add = add i64 %i.045, 1
  %21 = load ptr, ptr %_M_finish.i.i, align 8
  %22 = load ptr, ptr %matchers_.i, align 8
  %sub.ptr.lhs.cast.i.i31 = ptrtoint ptr %21 to i64
  %sub.ptr.rhs.cast.i.i32 = ptrtoint ptr %22 to i64
  %sub.ptr.sub.i.i33 = sub i64 %sub.ptr.lhs.cast.i.i31, %sub.ptr.rhs.cast.i.i32
  %sub.ptr.div.i.i34 = sdiv exact i64 %sub.ptr.sub.i.i33, 24
  %cmp15 = icmp ult i64 %add, %sub.ptr.div.i.i34
  br i1 %cmp15, label %if.then16, label %for.inc

if.then16:                                        ; preds = %_ZNK7testing8internal11MatcherBaseIRKdE18DescribeNegationToEPSo.exit
  %call17 = call noundef nonnull align 8 dereferenceable(8) ptr @_ZStlsISt11char_traitsIcEERSt13basic_ostreamIcT_ES5_PKc(ptr noundef nonnull align 8 dereferenceable(8) %os, ptr noundef nonnull @.str.43)
  %.pre = load ptr, ptr %_M_finish.i.i, align 8
  %.pre46 = load ptr, ptr %matchers_.i, align 8
  %.pre47 = ptrtoint ptr %.pre to i64
  %.pre48 = ptrtoint ptr %.pre46 to i64
  %.pre49 = sub i64 %.pre47, %.pre48
  %.pre50 = sdiv exact i64 %.pre49, 24
  br label %for.inc

lpad:                                             ; preds = %_ZN7testing8internal22ElementsAreMatcherImplIRKSt6vectorIdSaIdEEE8ElementsEm.exit, %invoke.cont
  %23 = landingpad { ptr, i32 }
          cleanup
  br label %lpad.body

lpad.body:                                        ; preds = %lpad.i16, %lpad
  %eh.lpad-body = phi { ptr, i32 } [ %23, %lpad ], [ %11, %lpad.i16 ]
  %24 = load ptr, ptr %ref.tmp, align 8
  %cmp.not.i.i35 = icmp eq ptr %24, null
  br i1 %cmp.not.i.i35, label %common.resume, label %_ZNKSt14default_deleteINSt7__cxx1118basic_stringstreamIcSt11char_traitsIcESaIcEEEEclEPS5_.exit.i.i36

_ZNKSt14default_deleteINSt7__cxx1118basic_stringstreamIcSt11char_traitsIcESaIcEEEEclEPS5_.exit.i.i36: ; preds = %lpad.body
  %vtable.i.i.i37 = load ptr, ptr %24, align 8
  %vfn.i.i.i38 = getelementptr inbounds ptr, ptr %vtable.i.i.i37, i64 1
  %25 = load ptr, ptr %vfn.i.i.i38, align 8
  call void %25(ptr noundef nonnull align 8 dereferenceable(128) %24) #23
  br label %common.resume

for.inc:                                          ; preds = %_ZNK7testing8internal11MatcherBaseIRKdE18DescribeNegationToEPSo.exit, %if.then16
  %sub.ptr.div.i.i23.pre-phi = phi i64 [ %sub.ptr.div.i.i34, %_ZNK7testing8internal11MatcherBaseIRKdE18DescribeNegationToEPSo.exit ], [ %.pre50, %if.then16 ]
  %cmp9.not = icmp eq i64 %add, %sub.ptr.div.i.i23.pre-phi
  br i1 %cmp9.not, label %for.end, label %for.body, !llvm.loop !63

for.end:                                          ; preds = %for.inc, %_ZN7testing7MessageD2Ev.exit, %if.then
  ret void
}

; Function Attrs: mustprogress uwtable
define linkonce_odr dso_local noundef zeroext i1 @_ZNK7testing8internal22ElementsAreMatcherImplIRKSt6vectorIdSaIdEEE15MatchAndExplainES6_PNS_19MatchResultListenerE(ptr noundef nonnull align 8 dereferenceable(32) %this, ptr noundef nonnull align 8 dereferenceable(24) %container, ptr noundef %listener) unnamed_addr #4 comdat align 2 personality ptr @__gxx_personality_v0 {
entry:
  %ref.tmp.i.i63 = alloca %"class.std::__cxx11::basic_string", align 8
  %ref.tmp.i56 = alloca %"class.testing::Message", align 8
  %ref.tmp.i.i = alloca %"class.testing::internal::GTestLog", align 4
  %dummy.i = alloca %"class.testing::internal::DummyMatchResultListener", align 8
  %ref.tmp.i = alloca %"class.testing::internal::GTestLog", align 4
  %explanations = alloca %"class.std::vector", align 8
  %s = alloca %"class.testing::StringMatchResultListener", align 8
  %ref.tmp19 = alloca %"class.std::__cxx11::basic_string", align 8
  %ref.tmp51 = alloca %"class.testing::Message", align 8
  %stream_.i = getelementptr inbounds %"class.testing::MatchResultListener", ptr %listener, i64 0, i32 1
  %0 = load ptr, ptr %stream_.i, align 8
  %.fr = freeze ptr %0
  %cmp.i = icmp ne ptr %.fr, null
  %matchers_.i = getelementptr inbounds %"class.testing::internal::ElementsAreMatcherImpl", ptr %this, i64 0, i32 1
  %_M_finish.i.i = getelementptr inbounds %"class.testing::internal::ElementsAreMatcherImpl", ptr %this, i64 0, i32 1, i32 0, i32 0, i32 0, i32 1
  %1 = load ptr, ptr %_M_finish.i.i, align 8
  %2 = load ptr, ptr %matchers_.i, align 8
  %sub.ptr.lhs.cast.i.i = ptrtoint ptr %1 to i64
  %sub.ptr.rhs.cast.i.i = ptrtoint ptr %2 to i64
  %sub.ptr.sub.i.i = sub i64 %sub.ptr.lhs.cast.i.i, %sub.ptr.rhs.cast.i.i
  %sub.ptr.div.i.i = sdiv exact i64 %sub.ptr.sub.i.i, 24
  %cmp.i.i = icmp ugt i64 %sub.ptr.div.i.i, 288230376151711743
  br i1 %cmp.i.i, label %if.then.i.i, label %_ZNSt6vectorINSt7__cxx1112basic_stringIcSt11char_traitsIcESaIcEEESaIS5_EE17_S_check_init_lenEmRKS6_.exit.i

if.then.i.i:                                      ; preds = %entry
  tail call void @_ZSt20__throw_length_errorPKc(ptr noundef nonnull @.str.17) #27
  unreachable

_ZNSt6vectorINSt7__cxx1112basic_stringIcSt11char_traitsIcESaIcEEESaIS5_EE17_S_check_init_lenEmRKS6_.exit.i: ; preds = %entry
  %cmp.not.i.i.i.i = icmp eq ptr %1, %2
  br i1 %cmp.not.i.i.i.i, label %_ZNSt12_Vector_baseINSt7__cxx1112basic_stringIcSt11char_traitsIcESaIcEEESaIS5_EEC2EmRKS6_.exit.thread.i, label %_ZNSt12_Vector_baseINSt7__cxx1112basic_stringIcSt11char_traitsIcESaIcEEESaIS5_EEC2EmRKS6_.exit.i

_ZNSt12_Vector_baseINSt7__cxx1112basic_stringIcSt11char_traitsIcESaIcEEESaIS5_EEC2EmRKS6_.exit.thread.i: ; preds = %_ZNSt6vectorINSt7__cxx1112basic_stringIcSt11char_traitsIcESaIcEEESaIS5_EE17_S_check_init_lenEmRKS6_.exit.i
  %_M_finish.i.i4.i = getelementptr inbounds %"struct.std::_Vector_base<std::__cxx11::basic_string<char>, std::allocator<std::__cxx11::basic_string<char>>>::_Vector_impl_data", ptr %explanations, i64 0, i32 1
  call void @llvm.memset.p0.i64(ptr noundef nonnull align 8 dereferenceable(24) %explanations, i8 0, i64 24, i1 false)
  br label %invoke.cont

_ZNSt12_Vector_baseINSt7__cxx1112basic_stringIcSt11char_traitsIcESaIcEEESaIS5_EEC2EmRKS6_.exit.i: ; preds = %_ZNSt6vectorINSt7__cxx1112basic_stringIcSt11char_traitsIcESaIcEEESaIS5_EE17_S_check_init_lenEmRKS6_.exit.i
  %mul.i.i.i.i.i.i = shl nuw nsw i64 %sub.ptr.div.i.i, 5
  %call5.i.i.i.i2.i.i18 = tail call noalias noundef nonnull ptr @_Znwm(i64 noundef %mul.i.i.i.i.i.i) #25
  store ptr %call5.i.i.i.i2.i.i18, ptr %explanations, align 8
  %_M_finish.i.i.i = getelementptr inbounds %"struct.std::_Vector_base<std::__cxx11::basic_string<char>, std::allocator<std::__cxx11::basic_string<char>>>::_Vector_impl_data", ptr %explanations, i64 0, i32 1
  store ptr %call5.i.i.i.i2.i.i18, ptr %_M_finish.i.i.i, align 8
  %add.ptr.i.i.i = getelementptr inbounds %"class.std::__cxx11::basic_string", ptr %call5.i.i.i.i2.i.i18, i64 %sub.ptr.div.i.i
  %_M_end_of_storage.i.i.i = getelementptr inbounds %"struct.std::_Vector_base<std::__cxx11::basic_string<char>, std::allocator<std::__cxx11::basic_string<char>>>::_Vector_impl_data", ptr %explanations, i64 0, i32 2
  store ptr %add.ptr.i.i.i, ptr %_M_end_of_storage.i.i.i, align 8
  br label %for.body.i.i.i.i.i

for.body.i.i.i.i.i:                               ; preds = %for.body.i.i.i.i.i, %_ZNSt12_Vector_baseINSt7__cxx1112basic_stringIcSt11char_traitsIcESaIcEEESaIS5_EEC2EmRKS6_.exit.i
  %__cur.06.i.i.i.i.i = phi ptr [ %incdec.ptr.i.i.i.i.i, %for.body.i.i.i.i.i ], [ %call5.i.i.i.i2.i.i18, %_ZNSt12_Vector_baseINSt7__cxx1112basic_stringIcSt11char_traitsIcESaIcEEESaIS5_EEC2EmRKS6_.exit.i ]
  %__n.addr.05.i.i.i.i.i = phi i64 [ %dec.i.i.i.i.i, %for.body.i.i.i.i.i ], [ %sub.ptr.div.i.i, %_ZNSt12_Vector_baseINSt7__cxx1112basic_stringIcSt11char_traitsIcESaIcEEESaIS5_EEC2EmRKS6_.exit.i ]
  tail call void @_ZNSt7__cxx1112basic_stringIcSt11char_traitsIcESaIcEEC1Ev(ptr noundef nonnull align 8 dereferenceable(32) %__cur.06.i.i.i.i.i) #23
  %dec.i.i.i.i.i = add i64 %__n.addr.05.i.i.i.i.i, -1
  %incdec.ptr.i.i.i.i.i = getelementptr inbounds %"class.std::__cxx11::basic_string", ptr %__cur.06.i.i.i.i.i, i64 1
  %cmp.not.i.i.i.i.i = icmp eq i64 %dec.i.i.i.i.i, 0
  br i1 %cmp.not.i.i.i.i.i, label %invoke.cont, label %for.body.i.i.i.i.i, !llvm.loop !64

invoke.cont:                                      ; preds = %for.body.i.i.i.i.i, %_ZNSt12_Vector_baseINSt7__cxx1112basic_stringIcSt11char_traitsIcESaIcEEESaIS5_EEC2EmRKS6_.exit.thread.i
  %3 = phi ptr [ null, %_ZNSt12_Vector_baseINSt7__cxx1112basic_stringIcSt11char_traitsIcESaIcEEESaIS5_EEC2EmRKS6_.exit.thread.i ], [ %call5.i.i.i.i2.i.i18, %for.body.i.i.i.i.i ]
  %_M_finish.i.i7.i = phi ptr [ %_M_finish.i.i4.i, %_ZNSt12_Vector_baseINSt7__cxx1112basic_stringIcSt11char_traitsIcESaIcEEESaIS5_EEC2EmRKS6_.exit.thread.i ], [ %_M_finish.i.i.i, %for.body.i.i.i.i.i ]
  %__cur.0.lcssa.i.i.i.i.i = phi ptr [ null, %_ZNSt12_Vector_baseINSt7__cxx1112basic_stringIcSt11char_traitsIcESaIcEEESaIS5_EEC2EmRKS6_.exit.thread.i ], [ %incdec.ptr.i.i.i.i.i, %for.body.i.i.i.i.i ]
  store ptr %__cur.0.lcssa.i.i.i.i.i, ptr %_M_finish.i.i7.i, align 8
  %4 = load ptr, ptr %container, align 8
  %_M_finish.i = getelementptr inbounds %"struct.std::_Vector_base<double, std::allocator<double>>::_Vector_impl_data", ptr %container, i64 0, i32 1
  %5 = load ptr, ptr %_M_finish.i, align 8
  %cmp.i19.not190 = icmp eq ptr %4, %5
  br i1 %cmp.i19.not190, label %for.end, label %land.rhs.lr.ph

land.rhs.lr.ph:                                   ; preds = %invoke.cont
  %stream_.i.i.i = getelementptr inbounds %"class.testing::MatchResultListener", ptr %dummy.i, i64 0, i32 1
  %ss_.i = getelementptr inbounds %"class.testing::StringMatchResultListener", ptr %s, i64 0, i32 1
  %add.ptr.i = getelementptr inbounds %"class.testing::StringMatchResultListener", ptr %s, i64 0, i32 1, i32 0, i32 1
  %stream_.i.i = getelementptr inbounds %"class.testing::MatchResultListener", ptr %s, i64 0, i32 1
  br i1 %cmp.i, label %land.rhs.us, label %land.rhs

land.rhs.us:                                      ; preds = %land.rhs.lr.ph, %for.inc.us
  %storemerge192.us = phi i64 [ %inc.us, %for.inc.us ], [ 0, %land.rhs.lr.ph ]
  %it.sroa.0.0191.us = phi ptr [ %incdec.ptr.i.us, %for.inc.us ], [ %4, %land.rhs.lr.ph ]
  %6 = load ptr, ptr %_M_finish.i.i, align 8
  %7 = load ptr, ptr %matchers_.i, align 8
  %sub.ptr.lhs.cast.i.i22.us = ptrtoint ptr %6 to i64
  %sub.ptr.rhs.cast.i.i23.us = ptrtoint ptr %7 to i64
  %sub.ptr.sub.i.i24.us = sub i64 %sub.ptr.lhs.cast.i.i22.us, %sub.ptr.rhs.cast.i.i23.us
  %sub.ptr.div.i.i25.us = sdiv exact i64 %sub.ptr.sub.i.i24.us, 24
  %cmp.not.us = icmp eq i64 %storemerge192.us, %sub.ptr.div.i.i25.us
  br i1 %cmp.not.us, label %for.end, label %for.body.us

for.body.us:                                      ; preds = %land.rhs.us
  store ptr %add.ptr.i, ptr %stream_.i.i, align 8
  store ptr getelementptr inbounds ({ [4 x ptr] }, ptr @_ZTVN7testing25StringMatchResultListenerE, i64 0, inrange i32 0, i64 2), ptr %s, align 8
  invoke void @_ZNSt7__cxx1118basic_stringstreamIcSt11char_traitsIcESaIcEEC1Ev(ptr noundef nonnull align 8 dereferenceable(128) %ss_.i)
          to label %invoke.cont12.us unwind label %lpad3.loopexit.split-lp.loopexit.split.us

invoke.cont12.us:                                 ; preds = %for.body.us
  %8 = load ptr, ptr %matchers_.i, align 8
  %add.ptr.i27.us = getelementptr inbounds %"class.testing::Matcher.79", ptr %8, i64 %storemerge192.us
  call void @llvm.lifetime.start.p0(i64 4, ptr nonnull %ref.tmp.i)
  %vtable_.i.us = getelementptr inbounds %"class.testing::internal::MatcherBase.80", ptr %add.ptr.i27.us, i64 0, i32 1
  %9 = load ptr, ptr %vtable_.i.us, align 8
  %cmp.i28.us = icmp ne ptr %9, null
  %call.i29.us = invoke noundef zeroext i1 @_ZN7testing8internal6IsTrueEb(i1 noundef zeroext %cmp.i28.us)
          to label %call.i.noexc.us unwind label %lpad15.split.us

call.i.noexc.us:                                  ; preds = %invoke.cont12.us
  br i1 %call.i29.us, label %if.end.i.us, label %if.else.i.us

if.else.i.us:                                     ; preds = %call.i.noexc.us
  invoke void @_ZN7testing8internal8GTestLogC1ENS0_16GTestLogSeverityEPKci(ptr noundef nonnull align 4 dereferenceable(4) %ref.tmp.i, i32 noundef 3, ptr noundef nonnull @.str.26, i32 noundef 233)
          to label %.noexc30.us unwind label %lpad15.split.us

.noexc30.us:                                      ; preds = %if.else.i.us
  %call3.i.us = invoke noundef nonnull align 8 dereferenceable(8) ptr @_ZStlsISt11char_traitsIcEERSt13basic_ostreamIcT_ES5_PKc(ptr noundef nonnull align 8 dereferenceable(8) @_ZSt4cerr, ptr noundef nonnull @.str.27)
          to label %invoke.cont.i.us unwind label %lpad.i.split.us

invoke.cont.i.us:                                 ; preds = %.noexc30.us
  call void @_ZN7testing8internal8GTestLogD1Ev(ptr noundef nonnull align 4 dereferenceable(4) %ref.tmp.i) #23
  br label %if.end.i.us

if.end.i.us:                                      ; preds = %invoke.cont.i.us, %call.i.noexc.us
  %10 = load ptr, ptr %vtable_.i.us, align 8
  %11 = load ptr, ptr %10, align 8
  %call5.i31.us = invoke noundef zeroext i1 %11(ptr noundef nonnull align 8 dereferenceable(24) %add.ptr.i27.us, ptr noundef nonnull align 8 dereferenceable(8) %it.sroa.0.0191.us, ptr noundef nonnull %s)
          to label %invoke.cont16.us unwind label %lpad15.split.us

invoke.cont16.us:                                 ; preds = %if.end.i.us
  call void @llvm.lifetime.end.p0(i64 4, ptr nonnull %ref.tmp.i)
  invoke void @_ZNKSt7__cxx1118basic_stringstreamIcSt11char_traitsIcESaIcEE3strEv(ptr nonnull sret(%"class.std::__cxx11::basic_string") align 8 %ref.tmp19, ptr noundef nonnull align 8 dereferenceable(128) %ss_.i)
          to label %invoke.cont20.us unwind label %lpad15.split.us

invoke.cont20.us:                                 ; preds = %invoke.cont16.us
  %add.ptr.i34.us = getelementptr inbounds %"class.std::__cxx11::basic_string", ptr %3, i64 %storemerge192.us
  %call22.us = call noundef nonnull align 8 dereferenceable(32) ptr @_ZNSt7__cxx1112basic_stringIcSt11char_traitsIcESaIcEEaSEOS4_(ptr noundef nonnull align 8 dereferenceable(32) %add.ptr.i34.us, ptr noundef nonnull align 8 dereferenceable(32) %ref.tmp19) #23
  call void @_ZNSt7__cxx1112basic_stringIcSt11char_traitsIcESaIcEED1Ev(ptr noundef nonnull align 8 dereferenceable(32) %ref.tmp19) #23
  store ptr getelementptr inbounds ({ [4 x ptr] }, ptr @_ZTVN7testing25StringMatchResultListenerE, i64 0, inrange i32 0, i64 2), ptr %s, align 8
  call void @_ZNSt7__cxx1118basic_stringstreamIcSt11char_traitsIcESaIcEED1Ev(ptr noundef nonnull align 8 dereferenceable(128) %ss_.i) #23
  br i1 %call5.i31.us, label %for.inc.us, label %for.end

for.inc.us:                                       ; preds = %invoke.cont20.us
  %incdec.ptr.i.us = getelementptr inbounds double, ptr %it.sroa.0.0191.us, i64 1
  %inc.us = add i64 %storemerge192.us, 1
  %12 = load ptr, ptr %_M_finish.i, align 8
  %cmp.i19.not.us = icmp eq ptr %incdec.ptr.i.us, %12
  br i1 %cmp.i19.not.us, label %for.end, label %land.rhs.us, !llvm.loop !65

lpad3.loopexit.split-lp.loopexit.split.us:        ; preds = %for.body.us
  %lpad.loopexit173.us = landingpad { ptr, i32 }
          cleanup
  br label %ehcleanup

lpad15.split.us:                                  ; preds = %invoke.cont16.us, %if.end.i.us, %if.else.i.us, %invoke.cont12.us
  %13 = landingpad { ptr, i32 }
          cleanup
  br label %lpad15.body

lpad.i.split.us:                                  ; preds = %.noexc30.us
  %14 = landingpad { ptr, i32 }
          cleanup
  call void @_ZN7testing8internal8GTestLogD1Ev(ptr noundef nonnull align 4 dereferenceable(4) %ref.tmp.i) #23
  br label %lpad15.body

land.rhs:                                         ; preds = %land.rhs.lr.ph, %for.inc
  %storemerge192 = phi i64 [ %inc, %for.inc ], [ 0, %land.rhs.lr.ph ]
  %it.sroa.0.0191 = phi ptr [ %incdec.ptr.i, %for.inc ], [ %4, %land.rhs.lr.ph ]
  %15 = load ptr, ptr %_M_finish.i.i, align 8
  %16 = load ptr, ptr %matchers_.i, align 8
  %sub.ptr.lhs.cast.i.i22 = ptrtoint ptr %15 to i64
  %sub.ptr.rhs.cast.i.i23 = ptrtoint ptr %16 to i64
  %sub.ptr.sub.i.i24 = sub i64 %sub.ptr.lhs.cast.i.i22, %sub.ptr.rhs.cast.i.i23
  %sub.ptr.div.i.i25 = sdiv exact i64 %sub.ptr.sub.i.i24, 24
  %cmp.not = icmp eq i64 %storemerge192, %sub.ptr.div.i.i25
  br i1 %cmp.not, label %for.end, label %for.body

for.body:                                         ; preds = %land.rhs
  %add.ptr.i37 = getelementptr inbounds %"class.testing::Matcher.79", ptr %16, i64 %storemerge192
  call void @llvm.lifetime.start.p0(i64 16, ptr nonnull %dummy.i)
  store ptr null, ptr %stream_.i.i.i, align 8
  store ptr getelementptr inbounds ({ [4 x ptr] }, ptr @_ZTVN7testing8internal24DummyMatchResultListenerE, i64 0, inrange i32 0, i64 2), ptr %dummy.i, align 8
  call void @llvm.lifetime.start.p0(i64 4, ptr nonnull %ref.tmp.i.i)
  %vtable_.i.i = getelementptr inbounds %"class.testing::internal::MatcherBase.80", ptr %add.ptr.i37, i64 0, i32 1
  %17 = load ptr, ptr %vtable_.i.i, align 8
  %cmp.i.i38 = icmp ne ptr %17, null
  %call.i1.i39 = invoke noundef zeroext i1 @_ZN7testing8internal6IsTrueEb(i1 noundef zeroext %cmp.i.i38)
          to label %call.i1.i.noexc unwind label %lpad3.loopexit.split-lp.loopexit.split

lpad3.loopexit:                                   ; preds = %if.then.i110, %if.then.i116, %if.then.i123, %if.then.i130, %if.then.i137
  %lpad.loopexit = landingpad { ptr, i32 }
          cleanup
  br label %ehcleanup

lpad3.loopexit.split-lp.loopexit.split:           ; preds = %if.end.i.i, %if.else.i.i, %for.body
  %lpad.loopexit173 = landingpad { ptr, i32 }
          cleanup
  br label %ehcleanup

lpad3.loopexit.split-lp.loopexit.split-lp:        ; preds = %call1.i.noexc, %if.then.i97, %if.then.i90, %if.then.i84, %if.then.i78, %invoke.cont49, %if.then.i
  %lpad.loopexit.split-lp174 = landingpad { ptr, i32 }
          cleanup
  br label %ehcleanup

lpad15.body:                                      ; preds = %lpad.i.split.us, %lpad15.split.us
  %eh.lpad-body = phi { ptr, i32 } [ %13, %lpad15.split.us ], [ %14, %lpad.i.split.us ]
  store ptr getelementptr inbounds ({ [4 x ptr] }, ptr @_ZTVN7testing25StringMatchResultListenerE, i64 0, inrange i32 0, i64 2), ptr %s, align 8
  call void @_ZNSt7__cxx1118basic_stringstreamIcSt11char_traitsIcESaIcEED1Ev(ptr noundef nonnull align 8 dereferenceable(128) %ss_.i) #23
  br label %ehcleanup

call.i1.i.noexc:                                  ; preds = %for.body
  br i1 %call.i1.i39, label %if.end.i.i, label %if.else.i.i

if.else.i.i:                                      ; preds = %call.i1.i.noexc
  invoke void @_ZN7testing8internal8GTestLogC1ENS0_16GTestLogSeverityEPKci(ptr noundef nonnull align 4 dereferenceable(4) %ref.tmp.i.i, i32 noundef 3, ptr noundef nonnull @.str.26, i32 noundef 233)
          to label %.noexc40 unwind label %lpad3.loopexit.split-lp.loopexit.split

.noexc40:                                         ; preds = %if.else.i.i
  %call3.i.i = invoke noundef nonnull align 8 dereferenceable(8) ptr @_ZStlsISt11char_traitsIcEERSt13basic_ostreamIcT_ES5_PKc(ptr noundef nonnull align 8 dereferenceable(8) @_ZSt4cerr, ptr noundef nonnull @.str.27)
          to label %invoke.cont.i.i unwind label %lpad.i.i

invoke.cont.i.i:                                  ; preds = %.noexc40
  call void @_ZN7testing8internal8GTestLogD1Ev(ptr noundef nonnull align 4 dereferenceable(4) %ref.tmp.i.i) #23
  br label %if.end.i.i

lpad.i.i:                                         ; preds = %.noexc40
  %18 = landingpad { ptr, i32 }
          cleanup
  call void @_ZN7testing8internal8GTestLogD1Ev(ptr noundef nonnull align 4 dereferenceable(4) %ref.tmp.i.i) #23
  br label %ehcleanup

if.end.i.i:                                       ; preds = %invoke.cont.i.i, %call.i1.i.noexc
  %19 = load ptr, ptr %vtable_.i.i, align 8
  %20 = load ptr, ptr %19, align 8
  %call5.i2.i42 = invoke noundef zeroext i1 %20(ptr noundef nonnull align 8 dereferenceable(24) %add.ptr.i37, ptr noundef nonnull align 8 dereferenceable(8) %it.sroa.0.0191, ptr noundef nonnull %dummy.i)
          to label %if.end unwind label %lpad3.loopexit.split-lp.loopexit.split

if.end:                                           ; preds = %if.end.i.i
  call void @llvm.lifetime.end.p0(i64 4, ptr nonnull %ref.tmp.i.i)
  call void @llvm.lifetime.end.p0(i64 16, ptr nonnull %dummy.i)
  br i1 %call5.i2.i42, label %for.inc, label %for.end

for.inc:                                          ; preds = %if.end
  %incdec.ptr.i = getelementptr inbounds double, ptr %it.sroa.0.0191, i64 1
  %inc = add i64 %storemerge192, 1
  %21 = load ptr, ptr %_M_finish.i, align 8
  %cmp.i19.not = icmp eq ptr %incdec.ptr.i, %21
  br i1 %cmp.i19.not, label %for.end, label %land.rhs, !llvm.loop !65

for.end:                                          ; preds = %land.rhs, %for.inc, %if.end, %land.rhs.us, %for.inc.us, %invoke.cont20.us, %invoke.cont
  %it.sroa.0.0.lcssa = phi ptr [ %4, %invoke.cont ], [ %it.sroa.0.0191.us, %invoke.cont20.us ], [ %incdec.ptr.i.us, %for.inc.us ], [ %it.sroa.0.0191.us, %land.rhs.us ], [ %it.sroa.0.0191, %if.end ], [ %incdec.ptr.i, %for.inc ], [ %it.sroa.0.0191, %land.rhs ]
  %storemerge.lcssa = phi i64 [ 0, %invoke.cont ], [ %storemerge192.us, %invoke.cont20.us ], [ %inc.us, %for.inc.us ], [ %storemerge192.us, %land.rhs.us ], [ %storemerge192, %if.end ], [ %inc, %for.inc ], [ %storemerge192, %land.rhs ]
  %mismatch_found.0 = phi i1 [ false, %invoke.cont ], [ true, %invoke.cont20.us ], [ false, %for.inc.us ], [ false, %land.rhs.us ], [ true, %if.end ], [ false, %for.inc ], [ false, %land.rhs ]
  %22 = load ptr, ptr %_M_finish.i, align 8
  %cmp.i44.not217 = icmp eq ptr %it.sroa.0.0.lcssa, %22
  br i1 %cmp.i44.not217, label %for.end42, label %for.body38.preheader

for.body38.preheader:                             ; preds = %for.end
  %23 = ptrtoint ptr %22 to i64
  %it.sroa.0.0.lcssa231 = ptrtoint ptr %it.sroa.0.0.lcssa to i64
  %24 = add i64 %23, -8
  %25 = sub i64 %24, %it.sroa.0.0.lcssa231
  %26 = lshr i64 %25, 3
  %27 = add i64 %storemerge.lcssa, %26
  %28 = add i64 %27, 1
  br label %for.end42

for.end42:                                        ; preds = %for.body38.preheader, %for.end
  %actual_count.0.lcssa = phi i64 [ %storemerge.lcssa, %for.end ], [ %28, %for.body38.preheader ]
  %29 = load ptr, ptr %_M_finish.i.i, align 8
  %30 = load ptr, ptr %matchers_.i, align 8
  %sub.ptr.lhs.cast.i.i48 = ptrtoint ptr %29 to i64
  %sub.ptr.rhs.cast.i.i49 = ptrtoint ptr %30 to i64
  %sub.ptr.sub.i.i50 = sub i64 %sub.ptr.lhs.cast.i.i48, %sub.ptr.rhs.cast.i.i49
  %sub.ptr.div.i.i51 = sdiv exact i64 %sub.ptr.sub.i.i50, 24
  %cmp44.not = icmp eq i64 %actual_count.0.lcssa, %sub.ptr.div.i.i51
  br i1 %cmp44.not, label %if.end57, label %if.then45

if.then45:                                        ; preds = %for.end42
  %cmp47 = icmp ne i64 %actual_count.0.lcssa, 0
  %or.cond = and i1 %cmp.i, %cmp47
  br i1 %or.cond, label %if.then48, label %cleanup

if.then48:                                        ; preds = %if.then45
  %31 = load ptr, ptr %stream_.i, align 8
  %cmp.not.i = icmp eq ptr %31, null
  br i1 %cmp.not.i, label %invoke.cont49, label %if.then.i

if.then.i:                                        ; preds = %if.then48
  %call.i55 = invoke noundef nonnull align 8 dereferenceable(8) ptr @_ZStlsISt11char_traitsIcEERSt13basic_ostreamIcT_ES5_PKc(ptr noundef nonnull align 8 dereferenceable(8) %31, ptr noundef nonnull @.str.44)
          to label %invoke.cont49 unwind label %lpad3.loopexit.split-lp.loopexit.split-lp

invoke.cont49:                                    ; preds = %if.then48, %if.then.i
  call void @llvm.lifetime.start.p0(i64 8, ptr nonnull %ref.tmp.i56)
  invoke void @_ZN7testing7MessageC1Ev(ptr noundef nonnull align 8 dereferenceable(8) %ref.tmp.i56)
          to label %.noexc60 unwind label %lpad3.loopexit.split-lp.loopexit.split-lp

.noexc60:                                         ; preds = %invoke.cont49
  %32 = load ptr, ptr %ref.tmp.i56, align 8, !noalias !66
  %add.ptr.i.i = getelementptr inbounds i8, ptr %32, i64 16
  %call2.i1.i = invoke noundef nonnull align 8 dereferenceable(8) ptr @_ZNSolsEm(ptr noundef nonnull align 8 dereferenceable(8) %add.ptr.i.i, i64 noundef %actual_count.0.lcssa)
          to label %invoke.cont.i58 unwind label %lpad.i57, !noalias !66

invoke.cont.i58:                                  ; preds = %.noexc60
  %cmp.i59 = icmp eq i64 %actual_count.0.lcssa, 1
  %cond.i = select i1 %cmp.i59, ptr @.str.38, ptr @.str.39
  %33 = load ptr, ptr %ref.tmp.i56, align 8, !noalias !66
  %add.ptr.i2.i = getelementptr inbounds i8, ptr %33, i64 16
  %call6.i3.i = invoke noundef nonnull align 8 dereferenceable(8) ptr @_ZStlsISt11char_traitsIcEERSt13basic_ostreamIcT_ES5_PKc(ptr noundef nonnull align 8 dereferenceable(8) %add.ptr.i2.i, ptr noundef nonnull %cond.i)
          to label %invoke.cont2.i unwind label %lpad.i57, !noalias !66

invoke.cont2.i:                                   ; preds = %invoke.cont.i58
  invoke void @_ZN7testing7MessageC2ERKS0_(ptr noundef nonnull align 8 dereferenceable(8) %ref.tmp51, ptr noundef nonnull align 8 dereferenceable(8) %ref.tmp.i56)
          to label %invoke.cont4.i unwind label %lpad.i57

invoke.cont4.i:                                   ; preds = %invoke.cont2.i
  %34 = load ptr, ptr %ref.tmp.i56, align 8, !noalias !66
  %cmp.not.i.i.i = icmp eq ptr %34, null
  br i1 %cmp.not.i.i.i, label %invoke.cont52, label %_ZNKSt14default_deleteINSt7__cxx1118basic_stringstreamIcSt11char_traitsIcESaIcEEEEclEPS5_.exit.i.i.i

_ZNKSt14default_deleteINSt7__cxx1118basic_stringstreamIcSt11char_traitsIcESaIcEEEEclEPS5_.exit.i.i.i: ; preds = %invoke.cont4.i
  %vtable.i.i.i.i = load ptr, ptr %34, align 8
  %vfn.i.i.i.i = getelementptr inbounds ptr, ptr %vtable.i.i.i.i, i64 1
  %35 = load ptr, ptr %vfn.i.i.i.i, align 8
  call void %35(ptr noundef nonnull align 8 dereferenceable(128) %34) #23
  br label %invoke.cont52

lpad.i57:                                         ; preds = %invoke.cont2.i, %invoke.cont.i58, %.noexc60
  %36 = landingpad { ptr, i32 }
          cleanup
  %37 = load ptr, ptr %ref.tmp.i56, align 8, !noalias !66
  %cmp.not.i.i4.i = icmp eq ptr %37, null
  br i1 %cmp.not.i.i4.i, label %ehcleanup, label %_ZNKSt14default_deleteINSt7__cxx1118basic_stringstreamIcSt11char_traitsIcESaIcEEEEclEPS5_.exit.i.i5.i

_ZNKSt14default_deleteINSt7__cxx1118basic_stringstreamIcSt11char_traitsIcESaIcEEEEclEPS5_.exit.i.i5.i: ; preds = %lpad.i57
  %vtable.i.i.i6.i = load ptr, ptr %37, align 8
  %vfn.i.i.i7.i = getelementptr inbounds ptr, ptr %vtable.i.i.i6.i, i64 1
  %38 = load ptr, ptr %vfn.i.i.i7.i, align 8
  call void %38(ptr noundef nonnull align 8 dereferenceable(128) %37) #23
  br label %ehcleanup

invoke.cont52:                                    ; preds = %_ZNKSt14default_deleteINSt7__cxx1118basic_stringstreamIcSt11char_traitsIcESaIcEEEEclEPS5_.exit.i.i.i, %invoke.cont4.i
  call void @llvm.lifetime.end.p0(i64 8, ptr nonnull %ref.tmp.i56)
  %39 = load ptr, ptr %stream_.i, align 8
  %cmp.not.i65 = icmp eq ptr %39, null
  br i1 %cmp.not.i65, label %invoke.cont54, label %if.then.i66

if.then.i66:                                      ; preds = %invoke.cont52
  call void @llvm.lifetime.start.p0(i64 32, ptr nonnull %ref.tmp.i.i63)
  invoke void @_ZNK7testing7Message9GetStringB5cxx11Ev(ptr nonnull sret(%"class.std::__cxx11::basic_string") align 8 %ref.tmp.i.i63, ptr noundef nonnull align 8 dereferenceable(8) %ref.tmp51)
          to label %.noexc69 unwind label %lpad53

.noexc69:                                         ; preds = %if.then.i66
  %call.i.i = invoke noundef nonnull align 8 dereferenceable(8) ptr @_ZStlsIcSt11char_traitsIcESaIcEERSt13basic_ostreamIT_T0_ES7_RKNSt7__cxx1112basic_stringIS4_S5_T1_EE(ptr noundef nonnull align 8 dereferenceable(8) %39, ptr noundef nonnull align 8 dereferenceable(32) %ref.tmp.i.i63)
          to label %_ZN7testinglsERSoRKNS_7MessageE.exit.i unwind label %lpad.i.i67

lpad.i.i67:                                       ; preds = %.noexc69
  %40 = landingpad { ptr, i32 }
          cleanup
  call void @_ZNSt7__cxx1112basic_stringIcSt11char_traitsIcESaIcEED1Ev(ptr noundef nonnull align 8 dereferenceable(32) %ref.tmp.i.i63) #23
  br label %lpad53.body

_ZN7testinglsERSoRKNS_7MessageE.exit.i:           ; preds = %.noexc69
  call void @_ZNSt7__cxx1112basic_stringIcSt11char_traitsIcESaIcEED1Ev(ptr noundef nonnull align 8 dereferenceable(32) %ref.tmp.i.i63) #23
  call void @llvm.lifetime.end.p0(i64 32, ptr nonnull %ref.tmp.i.i63)
  br label %invoke.cont54

invoke.cont54:                                    ; preds = %_ZN7testinglsERSoRKNS_7MessageE.exit.i, %invoke.cont52
  %41 = load ptr, ptr %ref.tmp51, align 8
  %cmp.not.i.i = icmp eq ptr %41, null
  br i1 %cmp.not.i.i, label %_ZN7testing7MessageD2Ev.exit, label %_ZNKSt14default_deleteINSt7__cxx1118basic_stringstreamIcSt11char_traitsIcESaIcEEEEclEPS5_.exit.i.i

_ZNKSt14default_deleteINSt7__cxx1118basic_stringstreamIcSt11char_traitsIcESaIcEEEEclEPS5_.exit.i.i: ; preds = %invoke.cont54
  %vtable.i.i.i = load ptr, ptr %41, align 8
  %vfn.i.i.i = getelementptr inbounds ptr, ptr %vtable.i.i.i, i64 1
  %42 = load ptr, ptr %vfn.i.i.i, align 8
  call void %42(ptr noundef nonnull align 8 dereferenceable(128) %41) #23
  br label %_ZN7testing7MessageD2Ev.exit

_ZN7testing7MessageD2Ev.exit:                     ; preds = %invoke.cont54, %_ZNKSt14default_deleteINSt7__cxx1118basic_stringstreamIcSt11char_traitsIcESaIcEEEEclEPS5_.exit.i.i
  store ptr null, ptr %ref.tmp51, align 8
  br label %cleanup

lpad53:                                           ; preds = %if.then.i66
  %43 = landingpad { ptr, i32 }
          cleanup
  br label %lpad53.body

lpad53.body:                                      ; preds = %lpad.i.i67, %lpad53
  %eh.lpad-body70 = phi { ptr, i32 } [ %43, %lpad53 ], [ %40, %lpad.i.i67 ]
  %44 = load ptr, ptr %ref.tmp51, align 8
  %cmp.not.i.i71 = icmp eq ptr %44, null
  br i1 %cmp.not.i.i71, label %_ZN7testing7MessageD2Ev.exit75, label %_ZNKSt14default_deleteINSt7__cxx1118basic_stringstreamIcSt11char_traitsIcESaIcEEEEclEPS5_.exit.i.i72

_ZNKSt14default_deleteINSt7__cxx1118basic_stringstreamIcSt11char_traitsIcESaIcEEEEclEPS5_.exit.i.i72: ; preds = %lpad53.body
  %vtable.i.i.i73 = load ptr, ptr %44, align 8
  %vfn.i.i.i74 = getelementptr inbounds ptr, ptr %vtable.i.i.i73, i64 1
  %45 = load ptr, ptr %vfn.i.i.i74, align 8
  call void %45(ptr noundef nonnull align 8 dereferenceable(128) %44) #23
  br label %_ZN7testing7MessageD2Ev.exit75

_ZN7testing7MessageD2Ev.exit75:                   ; preds = %lpad53.body, %_ZNKSt14default_deleteINSt7__cxx1118basic_stringstreamIcSt11char_traitsIcESaIcEEEEclEPS5_.exit.i.i72
  store ptr null, ptr %ref.tmp51, align 8
  br label %ehcleanup

if.end57:                                         ; preds = %for.end42
  br i1 %mismatch_found.0, label %if.then59, label %if.end72

if.then59:                                        ; preds = %if.end57
  br i1 %cmp.i, label %if.then61, label %cleanup

if.then61:                                        ; preds = %if.then59
  %46 = load ptr, ptr %stream_.i, align 8
  %cmp.not.i77 = icmp eq ptr %46, null
  br i1 %cmp.not.i77, label %invoke.cont66, label %if.then.i78

if.then.i78:                                      ; preds = %if.then61
  %call.i81 = invoke noundef nonnull align 8 dereferenceable(8) ptr @_ZStlsISt11char_traitsIcEERSt13basic_ostreamIcT_ES5_PKc(ptr noundef nonnull align 8 dereferenceable(8) %46, ptr noundef nonnull @.str.45)
          to label %invoke.cont62 unwind label %lpad3.loopexit.split-lp.loopexit.split-lp

invoke.cont62:                                    ; preds = %if.then.i78
  %.pr = load ptr, ptr %stream_.i, align 8
  %cmp.not.i83 = icmp eq ptr %.pr, null
  br i1 %cmp.not.i83, label %invoke.cont66, label %if.then.i84

if.then.i84:                                      ; preds = %invoke.cont62
  %call.i87 = invoke noundef nonnull align 8 dereferenceable(8) ptr @_ZNSolsEm(ptr noundef nonnull align 8 dereferenceable(8) %.pr, i64 noundef %storemerge.lcssa)
          to label %invoke.cont64 unwind label %lpad3.loopexit.split-lp.loopexit.split-lp

invoke.cont64:                                    ; preds = %if.then.i84
  %.pr159 = load ptr, ptr %stream_.i, align 8
  %cmp.not.i89 = icmp eq ptr %.pr159, null
  br i1 %cmp.not.i89, label %invoke.cont66, label %if.then.i90

if.then.i90:                                      ; preds = %invoke.cont64
  %call.i93 = invoke noundef nonnull align 8 dereferenceable(8) ptr @_ZStlsISt11char_traitsIcEERSt13basic_ostreamIcT_ES5_PKc(ptr noundef nonnull align 8 dereferenceable(8) %.pr159, ptr noundef nonnull @.str.46)
          to label %if.then.i90.invoke.cont66_crit_edge unwind label %lpad3.loopexit.split-lp.loopexit.split-lp

if.then.i90.invoke.cont66_crit_edge:              ; preds = %if.then.i90
  %.pre = load ptr, ptr %stream_.i, align 8
  br label %invoke.cont66

invoke.cont66:                                    ; preds = %if.then.i90.invoke.cont66_crit_edge, %if.then61, %invoke.cont62, %invoke.cont64
  %47 = phi ptr [ %.pre, %if.then.i90.invoke.cont66_crit_edge ], [ null, %if.then61 ], [ null, %invoke.cont62 ], [ null, %invoke.cont64 ]
  %add.ptr.i94 = getelementptr inbounds %"class.std::__cxx11::basic_string", ptr %3, i64 %storemerge.lcssa
  %call.i = call noundef zeroext i1 @_ZNKSt7__cxx1112basic_stringIcSt11char_traitsIcESaIcEE5emptyEv(ptr noundef nonnull align 8 dereferenceable(32) %add.ptr.i94) #23
  %cmp.i96 = icmp eq ptr %47, null
  %or.cond.not.i = or i1 %cmp.i96, %call.i
  br i1 %or.cond.not.i, label %cleanup, label %if.then.i97

if.then.i97:                                      ; preds = %invoke.cont66
  %call1.i99 = invoke noundef nonnull align 8 dereferenceable(8) ptr @_ZStlsISt11char_traitsIcEERSt13basic_ostreamIcT_ES5_PKc(ptr noundef nonnull align 8 dereferenceable(8) %47, ptr noundef nonnull @.str.49)
          to label %call1.i.noexc unwind label %lpad3.loopexit.split-lp.loopexit.split-lp

call1.i.noexc:                                    ; preds = %if.then.i97
  %call2.i100 = invoke noundef nonnull align 8 dereferenceable(8) ptr @_ZStlsIcSt11char_traitsIcESaIcEERSt13basic_ostreamIT_T0_ES7_RKNSt7__cxx1112basic_stringIS4_S5_T1_EE(ptr noundef nonnull align 8 dereferenceable(8) %call1.i99, ptr noundef nonnull align 8 dereferenceable(32) %add.ptr.i94)
          to label %cleanup unwind label %lpad3.loopexit.split-lp.loopexit.split-lp

if.end72:                                         ; preds = %if.end57
  %cmp77.not224 = icmp ne ptr %29, %30
  %or.cond236.not = and i1 %cmp77.not224, %cmp.i
  br i1 %or.cond236.not, label %for.body78, label %cleanup

for.body78:                                       ; preds = %if.end72, %for.inc97
  %reason_printed.0226 = phi i8 [ %reason_printed.1, %for.inc97 ], [ 0, %if.end72 ]
  %storemerge15225 = phi i64 [ %inc98, %for.inc97 ], [ 0, %if.end72 ]
  %add.ptr.i107 = getelementptr inbounds %"class.std::__cxx11::basic_string", ptr %3, i64 %storemerge15225
  %call81 = call noundef zeroext i1 @_ZNKSt7__cxx1112basic_stringIcSt11char_traitsIcESaIcEE5emptyEv(ptr noundef nonnull align 8 dereferenceable(32) %add.ptr.i107) #23
  br i1 %call81, label %for.inc97, label %if.then82

if.then82:                                        ; preds = %for.body78
  %48 = and i8 %reason_printed.0226, 1
  %tobool83.not = icmp eq i8 %48, 0
  br i1 %tobool83.not, label %if.end87, label %if.then84

if.then84:                                        ; preds = %if.then82
  %49 = load ptr, ptr %stream_.i, align 8
  %cmp.not.i109 = icmp eq ptr %49, null
  br i1 %cmp.not.i109, label %for.inc97, label %if.then.i110

if.then.i110:                                     ; preds = %if.then84
  %call.i111113 = invoke noundef nonnull align 8 dereferenceable(8) ptr @_ZStlsISt11char_traitsIcEERSt13basic_ostreamIcT_ES5_PKc(ptr noundef nonnull align 8 dereferenceable(8) %49, ptr noundef nonnull @.str.47)
          to label %if.end87 unwind label %lpad3.loopexit

if.end87:                                         ; preds = %if.then.i110, %if.then82
  %.pr161 = load ptr, ptr %stream_.i, align 8
  %cmp.not.i115 = icmp eq ptr %.pr161, null
  br i1 %cmp.not.i115, label %for.inc97, label %if.then.i116

if.then.i116:                                     ; preds = %if.end87
  %call.i117119 = invoke noundef nonnull align 8 dereferenceable(8) ptr @_ZStlsISt11char_traitsIcEERSt13basic_ostreamIcT_ES5_PKc(ptr noundef nonnull align 8 dereferenceable(8) %.pr161, ptr noundef nonnull @.str.45)
          to label %invoke.cont88 unwind label %lpad3.loopexit

invoke.cont88:                                    ; preds = %if.then.i116
  %.pr163 = load ptr, ptr %stream_.i, align 8
  %cmp.not.i122 = icmp eq ptr %.pr163, null
  br i1 %cmp.not.i122, label %for.inc97, label %if.then.i123

if.then.i123:                                     ; preds = %invoke.cont88
  %call.i124126 = invoke noundef nonnull align 8 dereferenceable(8) ptr @_ZNSolsEm(ptr noundef nonnull align 8 dereferenceable(8) %.pr163, i64 noundef %storemerge15225)
          to label %invoke.cont90 unwind label %lpad3.loopexit

invoke.cont90:                                    ; preds = %if.then.i123
  %.pr165.pr = load ptr, ptr %stream_.i, align 8
  %cmp.not.i129 = icmp eq ptr %.pr165.pr, null
  br i1 %cmp.not.i129, label %for.inc97, label %if.then.i130

if.then.i130:                                     ; preds = %invoke.cont90
  %call.i131133 = invoke noundef nonnull align 8 dereferenceable(8) ptr @_ZStlsISt11char_traitsIcEERSt13basic_ostreamIcT_ES5_PKc(ptr noundef nonnull align 8 dereferenceable(8) %.pr165.pr, ptr noundef nonnull @.str.48)
          to label %invoke.cont92 unwind label %lpad3.loopexit

invoke.cont92:                                    ; preds = %if.then.i130
  %.pr167 = load ptr, ptr %stream_.i, align 8
  %cmp.not.i136 = icmp eq ptr %.pr167, null
  br i1 %cmp.not.i136, label %for.inc97, label %if.then.i137

if.then.i137:                                     ; preds = %invoke.cont92
  %call.i138140 = invoke noundef nonnull align 8 dereferenceable(8) ptr @_ZStlsIcSt11char_traitsIcESaIcEERSt13basic_ostreamIT_T0_ES7_RKNSt7__cxx1112basic_stringIS4_S5_T1_EE(ptr noundef nonnull align 8 dereferenceable(8) %.pr167, ptr noundef nonnull align 8 dereferenceable(32) %add.ptr.i107)
          to label %for.inc97 unwind label %lpad3.loopexit

for.inc97:                                        ; preds = %if.end87, %if.then84, %invoke.cont88, %invoke.cont90, %invoke.cont92, %if.then.i137, %for.body78
  %reason_printed.1 = phi i8 [ %reason_printed.0226, %for.body78 ], [ 1, %if.then.i137 ], [ 1, %invoke.cont92 ], [ 1, %invoke.cont90 ], [ 1, %invoke.cont88 ], [ 1, %if.then84 ], [ 1, %if.end87 ]
  %inc98 = add i64 %storemerge15225, 1
  %50 = load ptr, ptr %_M_finish.i.i, align 8
  %51 = load ptr, ptr %matchers_.i, align 8
  %sub.ptr.lhs.cast.i.i103 = ptrtoint ptr %50 to i64
  %sub.ptr.rhs.cast.i.i104 = ptrtoint ptr %51 to i64
  %sub.ptr.sub.i.i105 = sub i64 %sub.ptr.lhs.cast.i.i103, %sub.ptr.rhs.cast.i.i104
  %sub.ptr.div.i.i106 = sdiv exact i64 %sub.ptr.sub.i.i105, 24
  %cmp77.not = icmp eq i64 %inc98, %sub.ptr.div.i.i106
  br i1 %cmp77.not, label %cleanup, label %for.body78, !llvm.loop !69

cleanup:                                          ; preds = %for.inc97, %invoke.cont66, %call1.i.noexc, %if.end72, %if.then59, %if.then45, %_ZN7testing7MessageD2Ev.exit
  %retval.0 = phi i1 [ false, %_ZN7testing7MessageD2Ev.exit ], [ false, %if.then45 ], [ false, %if.then59 ], [ true, %if.end72 ], [ false, %call1.i.noexc ], [ false, %invoke.cont66 ], [ true, %for.inc97 ]
  %52 = load ptr, ptr %explanations, align 8
  %_M_finish.i141 = getelementptr inbounds %"struct.std::_Vector_base<std::__cxx11::basic_string<char>, std::allocator<std::__cxx11::basic_string<char>>>::_Vector_impl_data", ptr %explanations, i64 0, i32 1
  %53 = load ptr, ptr %_M_finish.i141, align 8
  %cmp.not3.i.i.i.i = icmp eq ptr %52, %53
  br i1 %cmp.not3.i.i.i.i, label %invoke.cont.i143, label %for.body.i.i.i.i

for.body.i.i.i.i:                                 ; preds = %cleanup, %for.body.i.i.i.i
  %__first.addr.04.i.i.i.i = phi ptr [ %incdec.ptr.i.i.i.i, %for.body.i.i.i.i ], [ %52, %cleanup ]
  call void @_ZNSt7__cxx1112basic_stringIcSt11char_traitsIcESaIcEED1Ev(ptr noundef nonnull align 8 dereferenceable(32) %__first.addr.04.i.i.i.i) #23
  %incdec.ptr.i.i.i.i = getelementptr inbounds %"class.std::__cxx11::basic_string", ptr %__first.addr.04.i.i.i.i, i64 1
  %cmp.not.i.i.i.i142 = icmp eq ptr %incdec.ptr.i.i.i.i, %53
  br i1 %cmp.not.i.i.i.i142, label %invoke.cont.i143, label %for.body.i.i.i.i, !llvm.loop !5

invoke.cont.i143:                                 ; preds = %for.body.i.i.i.i, %cleanup
  %tobool.not.i.i.i = icmp eq ptr %52, null
  br i1 %tobool.not.i.i.i, label %_ZNSt6vectorINSt7__cxx1112basic_stringIcSt11char_traitsIcESaIcEEESaIS5_EED2Ev.exit, label %if.then.i.i.i

if.then.i.i.i:                                    ; preds = %invoke.cont.i143
  call void @_ZdlPv(ptr noundef nonnull %52) #24
  br label %_ZNSt6vectorINSt7__cxx1112basic_stringIcSt11char_traitsIcESaIcEEESaIS5_EED2Ev.exit

_ZNSt6vectorINSt7__cxx1112basic_stringIcSt11char_traitsIcESaIcEEESaIS5_EED2Ev.exit: ; preds = %invoke.cont.i143, %if.then.i.i.i
  ret i1 %retval.0

ehcleanup:                                        ; preds = %lpad3.loopexit, %lpad3.loopexit.split-lp.loopexit.split, %lpad3.loopexit.split-lp.loopexit.split.us, %lpad3.loopexit.split-lp.loopexit.split-lp, %lpad.i57, %_ZNKSt14default_deleteINSt7__cxx1118basic_stringstreamIcSt11char_traitsIcESaIcEEEEclEPS5_.exit.i.i5.i, %lpad.i.i, %_ZN7testing7MessageD2Ev.exit75, %lpad15.body
  %.pn = phi { ptr, i32 } [ %eh.lpad-body70, %_ZN7testing7MessageD2Ev.exit75 ], [ %eh.lpad-body, %lpad15.body ], [ %18, %lpad.i.i ], [ %36, %_ZNKSt14default_deleteINSt7__cxx1118basic_stringstreamIcSt11char_traitsIcESaIcEEEEclEPS5_.exit.i.i5.i ], [ %36, %lpad.i57 ], [ %lpad.loopexit, %lpad3.loopexit ], [ %lpad.loopexit.split-lp174, %lpad3.loopexit.split-lp.loopexit.split-lp ], [ %lpad.loopexit173, %lpad3.loopexit.split-lp.loopexit.split ], [ %lpad.loopexit173.us, %lpad3.loopexit.split-lp.loopexit.split.us ]
  call void @_ZNSt6vectorINSt7__cxx1112basic_stringIcSt11char_traitsIcESaIcEEESaIS5_EED2Ev(ptr noundef nonnull align 8 dereferenceable(24) %explanations) #23
  resume { ptr, i32 } %.pn
}

declare noundef nonnull align 8 dereferenceable(8) ptr @_ZNSolsEm(ptr noundef nonnull align 8 dereferenceable(8), i64 noundef) local_unnamed_addr #0

declare void @_ZNK7testing7Message9GetStringB5cxx11Ev(ptr sret(%"class.std::__cxx11::basic_string") align 8, ptr noundef nonnull align 8 dereferenceable(8)) local_unnamed_addr #0

; Function Attrs: mustprogress uwtable
define linkonce_odr dso_local void @_ZN7testing7MessageC2ERKS0_(ptr noundef nonnull align 8 dereferenceable(8) %this, ptr noundef nonnull align 8 dereferenceable(8) %msg) unnamed_addr #4 comdat align 2 personality ptr @__gxx_personality_v0 {
entry:
  %ref.tmp = alloca %"class.std::__cxx11::basic_string", align 8
  %call = tail call noalias noundef nonnull dereferenceable(392) ptr @_Znwm(i64 noundef 392) #25
  invoke void @_ZNSt7__cxx1118basic_stringstreamIcSt11char_traitsIcESaIcEEC1Ev(ptr noundef nonnull align 8 dereferenceable(128) %call)
          to label %invoke.cont unwind label %lpad

invoke.cont:                                      ; preds = %entry
  store ptr %call, ptr %this, align 8
  invoke void @_ZNK7testing7Message9GetStringB5cxx11Ev(ptr nonnull sret(%"class.std::__cxx11::basic_string") align 8 %ref.tmp, ptr noundef nonnull align 8 dereferenceable(8) %msg)
          to label %invoke.cont5 unwind label %lpad4

invoke.cont5:                                     ; preds = %invoke.cont
  %add.ptr = getelementptr inbounds i8, ptr %call, i64 16
  %call8 = invoke noundef nonnull align 8 dereferenceable(8) ptr @_ZStlsIcSt11char_traitsIcESaIcEERSt13basic_ostreamIT_T0_ES7_RKNSt7__cxx1112basic_stringIS4_S5_T1_EE(ptr noundef nonnull align 8 dereferenceable(8) %add.ptr, ptr noundef nonnull align 8 dereferenceable(32) %ref.tmp)
          to label %invoke.cont7 unwind label %lpad6

invoke.cont7:                                     ; preds = %invoke.cont5
  call void @_ZNSt7__cxx1112basic_stringIcSt11char_traitsIcESaIcEED1Ev(ptr noundef nonnull align 8 dereferenceable(32) %ref.tmp) #23
  ret void

lpad:                                             ; preds = %entry
  %0 = landingpad { ptr, i32 }
          cleanup
  tail call void @_ZdlPv(ptr noundef nonnull %call) #24
  br label %eh.resume

lpad4:                                            ; preds = %invoke.cont
  %1 = landingpad { ptr, i32 }
          cleanup
  br label %ehcleanup

lpad6:                                            ; preds = %invoke.cont5
  %2 = landingpad { ptr, i32 }
          cleanup
  call void @_ZNSt7__cxx1112basic_stringIcSt11char_traitsIcESaIcEED1Ev(ptr noundef nonnull align 8 dereferenceable(32) %ref.tmp) #23
  br label %ehcleanup

ehcleanup:                                        ; preds = %lpad6, %lpad4
  %.pn = phi { ptr, i32 } [ %2, %lpad6 ], [ %1, %lpad4 ]
  %3 = load ptr, ptr %this, align 8
  %cmp.not.i = icmp eq ptr %3, null
  br i1 %cmp.not.i, label %_ZNSt10unique_ptrINSt7__cxx1118basic_stringstreamIcSt11char_traitsIcESaIcEEESt14default_deleteIS5_EED2Ev.exit, label %_ZNKSt14default_deleteINSt7__cxx1118basic_stringstreamIcSt11char_traitsIcESaIcEEEEclEPS5_.exit.i

_ZNKSt14default_deleteINSt7__cxx1118basic_stringstreamIcSt11char_traitsIcESaIcEEEEclEPS5_.exit.i: ; preds = %ehcleanup
  %vtable.i.i = load ptr, ptr %3, align 8
  %vfn.i.i = getelementptr inbounds ptr, ptr %vtable.i.i, i64 1
  %4 = load ptr, ptr %vfn.i.i, align 8
  call void %4(ptr noundef nonnull align 8 dereferenceable(128) %3) #23
  br label %_ZNSt10unique_ptrINSt7__cxx1118basic_stringstreamIcSt11char_traitsIcESaIcEEESt14default_deleteIS5_EED2Ev.exit

_ZNSt10unique_ptrINSt7__cxx1118basic_stringstreamIcSt11char_traitsIcESaIcEEESt14default_deleteIS5_EED2Ev.exit: ; preds = %ehcleanup, %_ZNKSt14default_deleteINSt7__cxx1118basic_stringstreamIcSt11char_traitsIcESaIcEEEEclEPS5_.exit.i
  store ptr null, ptr %this, align 8
  br label %eh.resume

eh.resume:                                        ; preds = %_ZNSt10unique_ptrINSt7__cxx1118basic_stringstreamIcSt11char_traitsIcESaIcEEESt14default_deleteIS5_EED2Ev.exit, %lpad
  %.pn.pn = phi { ptr, i32 } [ %.pn, %_ZNSt10unique_ptrINSt7__cxx1118basic_stringstreamIcSt11char_traitsIcESaIcEEESt14default_deleteIS5_EED2Ev.exit ], [ %0, %lpad ]
  resume { ptr, i32 } %.pn.pn
}

; Function Attrs: nounwind
declare noundef nonnull align 8 dereferenceable(32) ptr @_ZNSt7__cxx1112basic_stringIcSt11char_traitsIcESaIcEEaSEOS4_(ptr noundef nonnull align 8 dereferenceable(32), ptr noundef nonnull align 8 dereferenceable(32)) local_unnamed_addr #1

; Function Attrs: nounwind
declare noundef zeroext i1 @_ZNKSt7__cxx1112basic_stringIcSt11char_traitsIcESaIcEE5emptyEv(ptr noundef nonnull align 8 dereferenceable(32)) local_unnamed_addr #1

; Function Attrs: nounwind
declare void @_ZNSt7__cxx1112basic_stringIcSt11char_traitsIcESaIcEEC1Ev(ptr noundef nonnull align 8 dereferenceable(32)) unnamed_addr #1

; Function Attrs: mustprogress nounwind uwtable
define linkonce_odr dso_local void @_ZN7testing8internal24DummyMatchResultListenerD2Ev(ptr noundef nonnull align 8 dereferenceable(16) %this) unnamed_addr #3 comdat align 2 {
entry:
  ret void
}

; Function Attrs: mustprogress nounwind uwtable
define linkonce_odr dso_local void @_ZN7testing8internal24DummyMatchResultListenerD0Ev(ptr noundef nonnull align 8 dereferenceable(16) %this) unnamed_addr #3 comdat align 2 {
entry:
  tail call void @_ZdlPv(ptr noundef nonnull %this) #24
  ret void
}

; Function Attrs: mustprogress nounwind uwtable
define linkonce_odr dso_local void @_ZN7testing7MatcherIRKSt6vectorIdSaIdEEED0Ev(ptr noundef nonnull align 8 dereferenceable(24) %this) unnamed_addr #3 comdat align 2 personality ptr @__gxx_personality_v0 {
entry:
  store ptr getelementptr inbounds ({ [6 x ptr] }, ptr @_ZTVN7testing8internal11MatcherBaseIRKSt6vectorIdSaIdEEEE, i64 0, inrange i32 0, i64 2), ptr %this, align 8
  %vtable_.i.i.i.i = getelementptr inbounds %"class.testing::internal::MatcherBase", ptr %this, i64 0, i32 1
  %0 = load ptr, ptr %vtable_.i.i.i.i, align 8
  %cmp.not.i.i.i.i = icmp eq ptr %0, null
  br i1 %cmp.not.i.i.i.i, label %_ZN7testing7MatcherIRKSt6vectorIdSaIdEEED2Ev.exit, label %_ZNK7testing8internal11MatcherBaseIRKSt6vectorIdSaIdEEE8IsSharedEv.exit.i.i.i

_ZNK7testing8internal11MatcherBaseIRKSt6vectorIdSaIdEEE8IsSharedEv.exit.i.i.i: ; preds = %entry
  %shared_destroy.i.i.i.i = getelementptr inbounds %"struct.testing::internal::MatcherBase<const std::vector<double> &>::VTable", ptr %0, i64 0, i32 3
  %1 = load ptr, ptr %shared_destroy.i.i.i.i, align 8
  %cmp3.i.not.i.i.i = icmp eq ptr %1, null
  br i1 %cmp3.i.not.i.i.i, label %_ZN7testing7MatcherIRKSt6vectorIdSaIdEEED2Ev.exit, label %land.lhs.true.i.i.i

land.lhs.true.i.i.i:                              ; preds = %_ZNK7testing8internal11MatcherBaseIRKSt6vectorIdSaIdEEE8IsSharedEv.exit.i.i.i
  %buffer_.i.i.i = getelementptr inbounds %"class.testing::internal::MatcherBase", ptr %this, i64 0, i32 2
  %2 = load ptr, ptr %buffer_.i.i.i, align 8
  %3 = atomicrmw sub ptr %2, i32 1 acq_rel, align 4
  %cmp.i.i.i.i = icmp eq i32 %3, 1
  br i1 %cmp.i.i.i.i, label %if.then.i.i.i, label %_ZN7testing7MatcherIRKSt6vectorIdSaIdEEED2Ev.exit

if.then.i.i.i:                                    ; preds = %land.lhs.true.i.i.i
  %4 = load ptr, ptr %vtable_.i.i.i.i, align 8
  %shared_destroy.i.i.i = getelementptr inbounds %"struct.testing::internal::MatcherBase<const std::vector<double> &>::VTable", ptr %4, i64 0, i32 3
  %5 = load ptr, ptr %shared_destroy.i.i.i, align 8
  %6 = load ptr, ptr %buffer_.i.i.i, align 8
  invoke void %5(ptr noundef %6)
          to label %_ZN7testing7MatcherIRKSt6vectorIdSaIdEEED2Ev.exit unwind label %terminate.lpad.i.i

terminate.lpad.i.i:                               ; preds = %if.then.i.i.i
  %7 = landingpad { ptr, i32 }
          catch ptr null
  %8 = extractvalue { ptr, i32 } %7, 0
  tail call void @__clang_call_terminate(ptr %8) #26
  unreachable

_ZN7testing7MatcherIRKSt6vectorIdSaIdEEED2Ev.exit: ; preds = %entry, %_ZNK7testing8internal11MatcherBaseIRKSt6vectorIdSaIdEEE8IsSharedEv.exit.i.i.i, %land.lhs.true.i.i.i, %if.then.i.i.i
  tail call void @_ZdlPv(ptr noundef nonnull %this) #24
  ret void
}

; Function Attrs: mustprogress uwtable
define linkonce_odr dso_local void @_ZNK7testing8internal11MatcherBaseIRKSt6vectorIdSaIdEEE18DescribeNegationToEPSo(ptr noundef nonnull align 8 dereferenceable(24) %this, ptr noundef %os) unnamed_addr #4 comdat align 2 personality ptr @__gxx_personality_v0 {
entry:
  %ref.tmp = alloca %"class.testing::internal::GTestLog", align 4
  %vtable_ = getelementptr inbounds %"class.testing::internal::MatcherBase", ptr %this, i64 0, i32 1
  %0 = load ptr, ptr %vtable_, align 8
  %cmp = icmp ne ptr %0, null
  %call = tail call noundef zeroext i1 @_ZN7testing8internal6IsTrueEb(i1 noundef zeroext %cmp)
  br i1 %call, label %if.end, label %if.else

if.else:                                          ; preds = %entry
  call void @_ZN7testing8internal8GTestLogC1ENS0_16GTestLogSeverityEPKci(ptr noundef nonnull align 4 dereferenceable(4) %ref.tmp, i32 noundef 3, ptr noundef nonnull @.str.26, i32 noundef 251)
  %call3 = invoke noundef nonnull align 8 dereferenceable(8) ptr @_ZStlsISt11char_traitsIcEERSt13basic_ostreamIcT_ES5_PKc(ptr noundef nonnull align 8 dereferenceable(8) @_ZSt4cerr, ptr noundef nonnull @.str.27)
          to label %invoke.cont unwind label %lpad

invoke.cont:                                      ; preds = %if.else
  call void @_ZN7testing8internal8GTestLogD1Ev(ptr noundef nonnull align 4 dereferenceable(4) %ref.tmp) #23
  br label %if.end

lpad:                                             ; preds = %if.else
  %1 = landingpad { ptr, i32 }
          cleanup
  call void @_ZN7testing8internal8GTestLogD1Ev(ptr noundef nonnull align 4 dereferenceable(4) %ref.tmp) #23
  resume { ptr, i32 } %1

if.end:                                           ; preds = %entry, %invoke.cont
  %2 = load ptr, ptr %vtable_, align 8
  %describe = getelementptr inbounds %"struct.testing::internal::MatcherBase<const std::vector<double> &>::VTable", ptr %2, i64 0, i32 1
  %3 = load ptr, ptr %describe, align 8
  call void %3(ptr noundef nonnull align 8 dereferenceable(24) %this, ptr noundef %os, i1 noundef zeroext true)
  ret void
}

; Function Attrs: mustprogress nounwind uwtable
define linkonce_odr dso_local void @_ZN7testing8internal11MatcherBaseIRKSt6vectorIdSaIdEEED2Ev(ptr noundef nonnull align 8 dereferenceable(24) %this) unnamed_addr #3 comdat align 2 personality ptr @__gxx_personality_v0 {
entry:
  store ptr getelementptr inbounds ({ [6 x ptr] }, ptr @_ZTVN7testing8internal11MatcherBaseIRKSt6vectorIdSaIdEEEE, i64 0, inrange i32 0, i64 2), ptr %this, align 8
  %vtable_.i.i = getelementptr inbounds %"class.testing::internal::MatcherBase", ptr %this, i64 0, i32 1
  %0 = load ptr, ptr %vtable_.i.i, align 8
  %cmp.not.i.i = icmp eq ptr %0, null
  br i1 %cmp.not.i.i, label %invoke.cont, label %_ZNK7testing8internal11MatcherBaseIRKSt6vectorIdSaIdEEE8IsSharedEv.exit.i

_ZNK7testing8internal11MatcherBaseIRKSt6vectorIdSaIdEEE8IsSharedEv.exit.i: ; preds = %entry
  %shared_destroy.i.i = getelementptr inbounds %"struct.testing::internal::MatcherBase<const std::vector<double> &>::VTable", ptr %0, i64 0, i32 3
  %1 = load ptr, ptr %shared_destroy.i.i, align 8
  %cmp3.i.not.i = icmp eq ptr %1, null
  br i1 %cmp3.i.not.i, label %invoke.cont, label %land.lhs.true.i

land.lhs.true.i:                                  ; preds = %_ZNK7testing8internal11MatcherBaseIRKSt6vectorIdSaIdEEE8IsSharedEv.exit.i
  %buffer_.i = getelementptr inbounds %"class.testing::internal::MatcherBase", ptr %this, i64 0, i32 2
  %2 = load ptr, ptr %buffer_.i, align 8
  %3 = atomicrmw sub ptr %2, i32 1 acq_rel, align 4
  %cmp.i.i = icmp eq i32 %3, 1
  br i1 %cmp.i.i, label %if.then.i, label %invoke.cont

if.then.i:                                        ; preds = %land.lhs.true.i
  %4 = load ptr, ptr %vtable_.i.i, align 8
  %shared_destroy.i = getelementptr inbounds %"struct.testing::internal::MatcherBase<const std::vector<double> &>::VTable", ptr %4, i64 0, i32 3
  %5 = load ptr, ptr %shared_destroy.i, align 8
  %6 = load ptr, ptr %buffer_.i, align 8
  invoke void %5(ptr noundef %6)
          to label %invoke.cont unwind label %terminate.lpad

invoke.cont:                                      ; preds = %land.lhs.true.i, %_ZNK7testing8internal11MatcherBaseIRKSt6vectorIdSaIdEEE8IsSharedEv.exit.i, %entry, %if.then.i
  ret void

terminate.lpad:                                   ; preds = %if.then.i
  %7 = landingpad { ptr, i32 }
          catch ptr null
  %8 = extractvalue { ptr, i32 } %7, 0
  tail call void @__clang_call_terminate(ptr %8) #26
  unreachable
}

; Function Attrs: mustprogress nounwind uwtable
define linkonce_odr dso_local void @_ZN7testing8internal11MatcherBaseIRKSt6vectorIdSaIdEEED0Ev(ptr noundef nonnull align 8 dereferenceable(24) %this) unnamed_addr #3 comdat align 2 personality ptr @__gxx_personality_v0 {
entry:
  store ptr getelementptr inbounds ({ [6 x ptr] }, ptr @_ZTVN7testing8internal11MatcherBaseIRKSt6vectorIdSaIdEEEE, i64 0, inrange i32 0, i64 2), ptr %this, align 8
  %vtable_.i.i.i = getelementptr inbounds %"class.testing::internal::MatcherBase", ptr %this, i64 0, i32 1
  %0 = load ptr, ptr %vtable_.i.i.i, align 8
  %cmp.not.i.i.i = icmp eq ptr %0, null
  br i1 %cmp.not.i.i.i, label %_ZN7testing8internal11MatcherBaseIRKSt6vectorIdSaIdEEED2Ev.exit, label %_ZNK7testing8internal11MatcherBaseIRKSt6vectorIdSaIdEEE8IsSharedEv.exit.i.i

_ZNK7testing8internal11MatcherBaseIRKSt6vectorIdSaIdEEE8IsSharedEv.exit.i.i: ; preds = %entry
  %shared_destroy.i.i.i = getelementptr inbounds %"struct.testing::internal::MatcherBase<const std::vector<double> &>::VTable", ptr %0, i64 0, i32 3
  %1 = load ptr, ptr %shared_destroy.i.i.i, align 8
  %cmp3.i.not.i.i = icmp eq ptr %1, null
  br i1 %cmp3.i.not.i.i, label %_ZN7testing8internal11MatcherBaseIRKSt6vectorIdSaIdEEED2Ev.exit, label %land.lhs.true.i.i

land.lhs.true.i.i:                                ; preds = %_ZNK7testing8internal11MatcherBaseIRKSt6vectorIdSaIdEEE8IsSharedEv.exit.i.i
  %buffer_.i.i = getelementptr inbounds %"class.testing::internal::MatcherBase", ptr %this, i64 0, i32 2
  %2 = load ptr, ptr %buffer_.i.i, align 8
  %3 = atomicrmw sub ptr %2, i32 1 acq_rel, align 4
  %cmp.i.i.i = icmp eq i32 %3, 1
  br i1 %cmp.i.i.i, label %if.then.i.i, label %_ZN7testing8internal11MatcherBaseIRKSt6vectorIdSaIdEEED2Ev.exit

if.then.i.i:                                      ; preds = %land.lhs.true.i.i
  %4 = load ptr, ptr %vtable_.i.i.i, align 8
  %shared_destroy.i.i = getelementptr inbounds %"struct.testing::internal::MatcherBase<const std::vector<double> &>::VTable", ptr %4, i64 0, i32 3
  %5 = load ptr, ptr %shared_destroy.i.i, align 8
  %6 = load ptr, ptr %buffer_.i.i, align 8
  invoke void %5(ptr noundef %6)
          to label %_ZN7testing8internal11MatcherBaseIRKSt6vectorIdSaIdEEED2Ev.exit unwind label %terminate.lpad.i

terminate.lpad.i:                                 ; preds = %if.then.i.i
  %7 = landingpad { ptr, i32 }
          catch ptr null
  %8 = extractvalue { ptr, i32 } %7, 0
  tail call void @__clang_call_terminate(ptr %8) #26
  unreachable

_ZN7testing8internal11MatcherBaseIRKSt6vectorIdSaIdEEED2Ev.exit: ; preds = %entry, %_ZNK7testing8internal11MatcherBaseIRKSt6vectorIdSaIdEEE8IsSharedEv.exit.i.i, %land.lhs.true.i.i, %if.then.i.i
  tail call void @_ZdlPv(ptr noundef nonnull %this) #24
  ret void
}

; Function Attrs: mustprogress uwtable
define linkonce_odr dso_local noundef zeroext i1 @_ZN7testing8internal11MatcherBaseIRKSt6vectorIdSaIdEEE19MatchAndExplainImplINS7_11ValuePolicyIPKNS_16MatcherInterfaceIS6_EELb1EEEEEDTcldtclsrT_3Getfp_E15MatchAndExplainfp0_fp1_EERKS7_S6_PNS_19MatchResultListenerE(ptr noundef nonnull align 8 dereferenceable(24) %m, ptr noundef nonnull align 8 dereferenceable(24) %value, ptr noundef %listener) #4 comdat align 2 {
entry:
  %buffer_.i = getelementptr inbounds %"class.testing::internal::MatcherBase", ptr %m, i64 0, i32 2
  %0 = load ptr, ptr %buffer_.i, align 8
  %value.i = getelementptr inbounds %"struct.testing::internal::SharedPayload", ptr %0, i64 0, i32 1
  %1 = load ptr, ptr %value.i, align 8
  %vtable = load ptr, ptr %1, align 8
  %vfn = getelementptr inbounds ptr, ptr %vtable, i64 4
  %2 = load ptr, ptr %vfn, align 8
  %call1 = tail call noundef zeroext i1 %2(ptr noundef nonnull align 8 dereferenceable(8) %1, ptr noundef nonnull align 8 dereferenceable(24) %value, ptr noundef %listener)
  ret i1 %call1
}

; Function Attrs: mustprogress uwtable
define linkonce_odr dso_local void @_ZN7testing8internal11MatcherBaseIRKSt6vectorIdSaIdEEE12DescribeImplINS7_11ValuePolicyIPKNS_16MatcherInterfaceIS6_EELb1EEEEEvRKS7_PSob(ptr noundef nonnull align 8 dereferenceable(24) %m, ptr noundef %os, i1 noundef zeroext %negation) #4 comdat align 2 {
entry:
  %buffer_.i = getelementptr inbounds %"class.testing::internal::MatcherBase", ptr %m, i64 0, i32 2
  %0 = load ptr, ptr %buffer_.i, align 8
  %value.i = getelementptr inbounds %"struct.testing::internal::SharedPayload", ptr %0, i64 0, i32 1
  %1 = load ptr, ptr %value.i, align 8
  %vtable = load ptr, ptr %1, align 8
  %. = select i1 %negation, i64 3, i64 2
  %vfn3 = getelementptr inbounds ptr, ptr %vtable, i64 %.
  %2 = load ptr, ptr %vfn3, align 8
  tail call void %2(ptr noundef nonnull align 8 dereferenceable(8) %1, ptr noundef %os)
  ret void
}

; Function Attrs: mustprogress uwtable
define linkonce_odr dso_local noundef ptr @_ZN7testing8internal11MatcherBaseIRKSt6vectorIdSaIdEEE16GetDescriberImplINS7_11ValuePolicyIPKNS_16MatcherInterfaceIS6_EELb1EEEEEPKNS_25MatcherDescriberInterfaceERKS7_(ptr noundef nonnull align 8 dereferenceable(24) %m) #4 comdat align 2 personality ptr @__gxx_personality_v0 {
entry:
  %buffer_.i = getelementptr inbounds %"class.testing::internal::MatcherBase", ptr %m, i64 0, i32 2
  %0 = load ptr, ptr %buffer_.i, align 8
  %value.i = getelementptr inbounds %"struct.testing::internal::SharedPayload", ptr %0, i64 0, i32 1
  %1 = load ptr, ptr %value.i, align 8
  ret ptr %1
}

; Function Attrs: mustprogress nounwind uwtable
define linkonce_odr dso_local void @_ZN7testing8internal13SharedPayloadISt10unique_ptrIKNS_16MatcherInterfaceIRKSt6vectorIdSaIdEEEESt14default_deleteISA_EEE7DestroyEPNS0_17SharedPayloadBaseE(ptr noundef %shared) #3 comdat align 2 personality ptr @__gxx_personality_v0 {
entry:
  %isnull = icmp eq ptr %shared, null
  br i1 %isnull, label %delete.end, label %delete.notnull

delete.notnull:                                   ; preds = %entry
  %value.i = getelementptr inbounds %"struct.testing::internal::SharedPayload", ptr %shared, i64 0, i32 1
  %0 = load ptr, ptr %value.i, align 8
  %cmp.not.i.i = icmp eq ptr %0, null
  br i1 %cmp.not.i.i, label %_ZN7testing8internal13SharedPayloadISt10unique_ptrIKNS_16MatcherInterfaceIRKSt6vectorIdSaIdEEEESt14default_deleteISA_EEED2Ev.exit, label %_ZNKSt14default_deleteIKN7testing16MatcherInterfaceIRKSt6vectorIdSaIdEEEEEclEPS8_.exit.i.i

_ZNKSt14default_deleteIKN7testing16MatcherInterfaceIRKSt6vectorIdSaIdEEEEEclEPS8_.exit.i.i: ; preds = %delete.notnull
  %vtable.i.i.i = load ptr, ptr %0, align 8
  %vfn.i.i.i = getelementptr inbounds ptr, ptr %vtable.i.i.i, i64 1
  %1 = load ptr, ptr %vfn.i.i.i, align 8
  tail call void %1(ptr noundef nonnull align 8 dereferenceable(8) %0) #23
  br label %_ZN7testing8internal13SharedPayloadISt10unique_ptrIKNS_16MatcherInterfaceIRKSt6vectorIdSaIdEEEESt14default_deleteISA_EEED2Ev.exit

_ZN7testing8internal13SharedPayloadISt10unique_ptrIKNS_16MatcherInterfaceIRKSt6vectorIdSaIdEEEESt14default_deleteISA_EEED2Ev.exit: ; preds = %delete.notnull, %_ZNKSt14default_deleteIKN7testing16MatcherInterfaceIRKSt6vectorIdSaIdEEEEEclEPS8_.exit.i.i
  tail call void @_ZdlPv(ptr noundef nonnull %shared) #24
  br label %delete.end

delete.end:                                       ; preds = %_ZN7testing8internal13SharedPayloadISt10unique_ptrIKNS_16MatcherInterfaceIRKSt6vectorIdSaIdEEEESt14default_deleteISA_EEED2Ev.exit, %entry
  ret void
}

; Function Attrs: mustprogress nounwind uwtable
define linkonce_odr dso_local void @_ZN7testing25StringMatchResultListenerD0Ev(ptr noundef nonnull align 8 dereferenceable(408) %this) unnamed_addr #3 comdat align 2 {
entry:
  store ptr getelementptr inbounds ({ [4 x ptr] }, ptr @_ZTVN7testing25StringMatchResultListenerE, i64 0, inrange i32 0, i64 2), ptr %this, align 8
  %ss_.i = getelementptr inbounds %"class.testing::StringMatchResultListener", ptr %this, i64 0, i32 1
  tail call void @_ZNSt7__cxx1118basic_stringstreamIcSt11char_traitsIcESaIcEED1Ev(ptr noundef nonnull align 8 dereferenceable(128) %ss_.i) #23
  tail call void @_ZdlPv(ptr noundef nonnull %this) #24
  ret void
}

; Function Attrs: mustprogress uwtable
define linkonce_odr dso_local void @_ZN7testing8internal16ContainerPrinter10PrintValueISt6vectorIdSaIdEEvEEvRKT_PSo(ptr noundef nonnull align 8 dereferenceable(24) %container, ptr noundef %os) local_unnamed_addr #4 comdat align 2 {
entry:
  %call = tail call noundef nonnull align 8 dereferenceable(8) ptr @_ZStlsISt11char_traitsIcEERSt13basic_ostreamIcT_ES5_c(ptr noundef nonnull align 8 dereferenceable(8) %os, i8 noundef signext 123)
  %0 = load ptr, ptr %container, align 8
  %_M_finish.i = getelementptr inbounds %"struct.std::_Vector_base<double, std::allocator<double>>::_Vector_impl_data", ptr %container, i64 0, i32 1
  %1 = load ptr, ptr %_M_finish.i, align 8
  %cmp.i.not15 = icmp eq ptr %0, %1
  br i1 %cmp.i.not15, label %if.end16, label %for.body

for.body:                                         ; preds = %entry, %if.end10
  %count.017 = phi i64 [ %inc, %if.end10 ], [ 0, %entry ]
  %__begin0.sroa.0.016 = phi ptr [ %incdec.ptr.i, %if.end10 ], [ %0, %entry ]
  %cmp.not = icmp eq i64 %count.017, 0
  br i1 %cmp.not, label %if.end10, label %if.then

if.then:                                          ; preds = %for.body
  %call6 = tail call noundef nonnull align 8 dereferenceable(8) ptr @_ZStlsISt11char_traitsIcEERSt13basic_ostreamIcT_ES5_c(ptr noundef nonnull align 8 dereferenceable(8) %os, i8 noundef signext 44)
  %cmp7 = icmp eq i64 %count.017, 32
  br i1 %cmp7, label %for.end.thread, label %if.end10

for.end.thread:                                   ; preds = %if.then
  %call9 = tail call noundef nonnull align 8 dereferenceable(8) ptr @_ZStlsISt11char_traitsIcEERSt13basic_ostreamIcT_ES5_PKc(ptr noundef nonnull align 8 dereferenceable(8) %os, ptr noundef nonnull @.str.51)
  br label %if.then14

if.end10:                                         ; preds = %if.then, %for.body
  %call11 = tail call noundef nonnull align 8 dereferenceable(8) ptr @_ZStlsISt11char_traitsIcEERSt13basic_ostreamIcT_ES5_c(ptr noundef nonnull align 8 dereferenceable(8) %os, i8 noundef signext 32)
  %2 = load double, ptr %__begin0.sroa.0.016, align 8
  tail call void @_ZN7testing8internal7PrintToEdPSo(double noundef %2, ptr noundef nonnull %os)
  %inc = add i64 %count.017, 1
  %incdec.ptr.i = getelementptr inbounds double, ptr %__begin0.sroa.0.016, i64 1
  %cmp.i.not = icmp eq ptr %incdec.ptr.i, %1
  br i1 %cmp.i.not, label %for.end, label %for.body

for.end:                                          ; preds = %if.end10
  %3 = icmp eq i64 %inc, 0
  br i1 %3, label %if.end16, label %if.then14

if.then14:                                        ; preds = %for.end.thread, %for.end
  %call15 = tail call noundef nonnull align 8 dereferenceable(8) ptr @_ZStlsISt11char_traitsIcEERSt13basic_ostreamIcT_ES5_c(ptr noundef nonnull align 8 dereferenceable(8) %os, i8 noundef signext 32)
  br label %if.end16

if.end16:                                         ; preds = %entry, %if.then14, %for.end
  %call17 = tail call noundef nonnull align 8 dereferenceable(8) ptr @_ZStlsISt11char_traitsIcEERSt13basic_ostreamIcT_ES5_c(ptr noundef nonnull align 8 dereferenceable(8) %os, i8 noundef signext 125)
  ret void
}

declare noundef nonnull align 8 dereferenceable(8) ptr @_ZStlsISt11char_traitsIcEERSt13basic_ostreamIcT_ES5_c(ptr noundef nonnull align 8 dereferenceable(8), i8 noundef signext) local_unnamed_addr #0

; Function Attrs: mustprogress uwtable
define linkonce_odr dso_local void @_ZN7testing8internal11GetTypeNameB5cxx11ERKSt9type_info(ptr noalias sret(%"class.std::__cxx11::basic_string") align 8 %agg.result, ptr noundef nonnull align 8 dereferenceable(16) %type) local_unnamed_addr #4 comdat personality ptr @__gxx_personality_v0 {
entry:
  %status = alloca i32, align 4
  %name_str = alloca %"class.std::__cxx11::basic_string", align 8
  %ref.tmp = alloca %"class.std::allocator", align 1
  %agg.tmp = alloca %"class.std::__cxx11::basic_string", align 8
  %__name.i = getelementptr inbounds %"class.std::type_info", ptr %type, i64 0, i32 1
  %0 = load ptr, ptr %__name.i, align 8
  %1 = load i8, ptr %0, align 1
  %cmp.i = icmp eq i8 %1, 42
  %cond.idx.i = zext i1 %cmp.i to i64
  %cond.i = getelementptr inbounds i8, ptr %0, i64 %cond.idx.i
  store i32 0, ptr %status, align 4
  %call1 = call ptr @__cxa_demangle(ptr noundef nonnull %cond.i, ptr noundef null, ptr noundef null, ptr noundef nonnull %status)
  %2 = load i32, ptr %status, align 4
  %cmp = icmp eq i32 %2, 0
  %cond = select i1 %cmp, ptr %call1, ptr %cond.i
  call void @_ZNSaIcEC1Ev(ptr noundef nonnull align 1 dereferenceable(1) %ref.tmp) #23
  %call.i6 = invoke noundef ptr @_ZNSt7__cxx1112basic_stringIcSt11char_traitsIcESaIcEE13_M_local_dataEv(ptr noundef nonnull align 8 dereferenceable(32) %name_str)
          to label %call.i.noexc unwind label %lpad

call.i.noexc:                                     ; preds = %entry
  invoke void @_ZNSt7__cxx1112basic_stringIcSt11char_traitsIcESaIcEE12_Alloc_hiderC1EPcRKS3_(ptr noundef nonnull align 8 dereferenceable(8) %name_str, ptr noundef %call.i6, ptr noundef nonnull align 1 dereferenceable(1) %ref.tmp)
          to label %.noexc unwind label %lpad

.noexc:                                           ; preds = %call.i.noexc
  %cmp.i5 = icmp eq ptr %cond, null
  br i1 %cmp.i5, label %if.then.i, label %if.end.i

if.then.i:                                        ; preds = %.noexc
  invoke void @_ZSt19__throw_logic_errorPKc(ptr noundef nonnull @.str.83) #27
          to label %invoke.cont.i unwind label %lpad.i

invoke.cont.i:                                    ; preds = %if.then.i
  unreachable

lpad.i:                                           ; preds = %if.end.i, %if.then.i
  %3 = landingpad { ptr, i32 }
          cleanup
  call void @_ZNSaIcED2Ev(ptr noundef nonnull align 1 dereferenceable(1) %name_str) #23
  br label %lpad.body

if.end.i:                                         ; preds = %.noexc
  %call.i.i = call noundef i64 @strlen(ptr noundef nonnull dereferenceable(1) %cond) #23
  %add.ptr.i = getelementptr inbounds i8, ptr %cond, i64 %call.i.i
  invoke void @_ZNSt7__cxx1112basic_stringIcSt11char_traitsIcESaIcEE12_M_constructIPKcEEvT_S8_St20forward_iterator_tag(ptr noundef nonnull align 8 dereferenceable(32) %name_str, ptr noundef nonnull %cond, ptr noundef nonnull %add.ptr.i)
          to label %invoke.cont unwind label %lpad.i

invoke.cont:                                      ; preds = %if.end.i
  call void @_ZNSaIcED1Ev(ptr noundef nonnull align 1 dereferenceable(1) %ref.tmp) #23
  call void @free(ptr noundef %call1) #23
  invoke void @_ZNSt7__cxx1112basic_stringIcSt11char_traitsIcESaIcEEC1ERKS4_(ptr noundef nonnull align 8 dereferenceable(32) %agg.tmp, ptr noundef nonnull align 8 dereferenceable(32) %name_str)
          to label %invoke.cont3 unwind label %lpad2

invoke.cont3:                                     ; preds = %invoke.cont
  invoke void @_ZN7testing8internal31CanonicalizeForStdLibVersioningENSt7__cxx1112basic_stringIcSt11char_traitsIcESaIcEEE(ptr sret(%"class.std::__cxx11::basic_string") align 8 %agg.result, ptr noundef nonnull %agg.tmp)
          to label %invoke.cont5 unwind label %lpad4

invoke.cont5:                                     ; preds = %invoke.cont3
  call void @_ZNSt7__cxx1112basic_stringIcSt11char_traitsIcESaIcEED1Ev(ptr noundef nonnull align 8 dereferenceable(32) %agg.tmp) #23
  call void @_ZNSt7__cxx1112basic_stringIcSt11char_traitsIcESaIcEED1Ev(ptr noundef nonnull align 8 dereferenceable(32) %name_str) #23
  ret void

lpad:                                             ; preds = %call.i.noexc, %entry
  %4 = landingpad { ptr, i32 }
          cleanup
  br label %lpad.body

lpad.body:                                        ; preds = %lpad.i, %lpad
  %eh.lpad-body = phi { ptr, i32 } [ %4, %lpad ], [ %3, %lpad.i ]
  call void @_ZNSaIcED1Ev(ptr noundef nonnull align 1 dereferenceable(1) %ref.tmp) #23
  br label %eh.resume

lpad2:                                            ; preds = %invoke.cont
  %5 = landingpad { ptr, i32 }
          cleanup
  br label %ehcleanup

lpad4:                                            ; preds = %invoke.cont3
  %6 = landingpad { ptr, i32 }
          cleanup
  call void @_ZNSt7__cxx1112basic_stringIcSt11char_traitsIcESaIcEED1Ev(ptr noundef nonnull align 8 dereferenceable(32) %agg.tmp) #23
  br label %ehcleanup

ehcleanup:                                        ; preds = %lpad4, %lpad2
  %.pn = phi { ptr, i32 } [ %6, %lpad4 ], [ %5, %lpad2 ]
  call void @_ZNSt7__cxx1112basic_stringIcSt11char_traitsIcESaIcEED1Ev(ptr noundef nonnull align 8 dereferenceable(32) %name_str) #23
  br label %eh.resume

eh.resume:                                        ; preds = %ehcleanup, %lpad.body
  %.pn.pn = phi { ptr, i32 } [ %.pn, %ehcleanup ], [ %eh.lpad-body, %lpad.body ]
  resume { ptr, i32 } %.pn.pn
}

declare ptr @__cxa_demangle(ptr noundef, ptr noundef, ptr noundef, ptr noundef) local_unnamed_addr #0

; Function Attrs: mustprogress nounwind willreturn allockind("free") memory(argmem: readwrite, inaccessiblemem: readwrite)
declare void @free(ptr allocptr nocapture noundef) local_unnamed_addr #13
