; ModuleID = 'bench/abseil-cpp/original/invoke_test.cc.ll'
source_filename = "bench/abseil-cpp/original/invoke_test.cc.ll"
target datalayout = "e-m:e-p270:32:32-p271:32:32-p272:64:64-i64:64-i128:128-f80:128-n8:16:32:64-S128"
target triple = "x86_64-unknown-linux-gnu"

%"class.std::ios_base::Init" = type { i8 }
%"struct.testing::internal::MatcherBase<const int &>::VTable" = type { ptr, ptr, ptr, ptr }
%"class.std::basic_ostream" = type { ptr, %"class.std::basic_ios" }
%"class.std::basic_ios" = type { %"class.std::ios_base", ptr, i8, i8, ptr, ptr, ptr, ptr }
%"class.std::ios_base" = type { ptr, i64, i64, i32, i32, i32, ptr, %"struct.std::ios_base::_Words", [8 x %"struct.std::ios_base::_Words"], i32, ptr, %"class.std::locale" }
%"struct.std::ios_base::_Words" = type { ptr, i64 }
%"class.std::locale" = type { ptr }
%"struct.testing::internal::MatcherBase<const std::unique_ptr<int> &>::VTable" = type { ptr, ptr, ptr, ptr }
%"class.testing::internal::GTestLog" = type { i32 }
%"class.testing::AssertionResult" = type { i8, %"class.std::unique_ptr.28" }
%"class.std::unique_ptr.28" = type { %"struct.std::__uniq_ptr_data.29" }
%"struct.std::__uniq_ptr_data.29" = type { %"class.std::__uniq_ptr_impl.30" }
%"class.std::__uniq_ptr_impl.30" = type { %"class.std::tuple.31" }
%"class.std::tuple.31" = type { %"struct.std::_Tuple_impl.32" }
%"struct.std::_Tuple_impl.32" = type { %"struct.std::_Head_base.35" }
%"struct.std::_Head_base.35" = type { ptr }
%"class.testing::Message" = type { %"class.std::unique_ptr.36" }
%"class.std::unique_ptr.36" = type { %"struct.std::__uniq_ptr_data.37" }
%"struct.std::__uniq_ptr_data.37" = type { %"class.std::__uniq_ptr_impl.38" }
%"class.std::__uniq_ptr_impl.38" = type { %"class.std::tuple.39" }
%"class.std::tuple.39" = type { %"struct.std::_Tuple_impl.40" }
%"struct.std::_Tuple_impl.40" = type { %"struct.std::_Head_base.43" }
%"struct.std::_Head_base.43" = type { ptr }
%"class.testing::internal::AssertHelper" = type { ptr }
%"class.std::__cxx11::basic_stringstream" = type { %"class.std::basic_iostream.base", %"class.std::__cxx11::basic_stringbuf", %"class.std::basic_ios" }
%"class.std::basic_iostream.base" = type { %"class.std::basic_istream.base", %"class.std::basic_ostream.base" }
%"class.std::basic_istream.base" = type { ptr, i64 }
%"class.std::basic_ostream.base" = type { ptr }
%"class.std::__cxx11::basic_stringbuf" = type { %"class.std::basic_streambuf", i32, %"class.std::__cxx11::basic_string" }
%"class.std::basic_streambuf" = type { ptr, ptr, ptr, ptr, ptr, ptr, ptr, %"class.std::locale" }
%"class.std::__cxx11::basic_string" = type { %"struct.std::__cxx11::basic_string<char>::_Alloc_hider", i64, %union.anon }
%"struct.std::__cxx11::basic_string<char>::_Alloc_hider" = type { ptr }
%union.anon = type { i64, [8 x i8] }
%"class.testing::internal::PredicateFormatterFromMatcher" = type { %"class.testing::internal::PointeeMatcher" }
%"class.testing::internal::PointeeMatcher" = type { i32 }
%"class.std::unique_ptr.46" = type { %"struct.std::__uniq_ptr_data.47" }
%"struct.std::__uniq_ptr_data.47" = type { %"class.std::__uniq_ptr_impl.48" }
%"class.std::__uniq_ptr_impl.48" = type { %"class.std::tuple.49" }
%"class.std::tuple.49" = type { %"struct.std::_Tuple_impl.50" }
%"struct.std::_Tuple_impl.50" = type { %"struct.std::_Head_base.53" }
%"struct.std::_Head_base.53" = type { ptr }
%"class.testing::internal::DummyMatchResultListener" = type { %"class.testing::MatchResultListener" }
%"class.testing::MatchResultListener" = type { ptr, ptr }
%"class.testing::Matcher" = type { %"class.testing::internal::MatcherBase" }
%"class.testing::internal::MatcherBase" = type { %"class.testing::MatcherDescriberInterface", ptr, %"union.testing::internal::MatcherBase<const std::unique_ptr<int> &>::Buffer" }
%"class.testing::MatcherDescriberInterface" = type { ptr }
%"union.testing::internal::MatcherBase<const std::unique_ptr<int> &>::Buffer" = type { ptr }
%"class.testing::StringMatchResultListener" = type { %"class.testing::MatchResultListener", %"class.std::__cxx11::basic_stringstream" }
%"class.testing::internal::PointeeMatcher<int>::Impl" = type { %"class.testing::MatcherInterface", %"class.testing::Matcher.58" }
%"class.testing::MatcherInterface" = type { %"class.testing::MatcherDescriberInterface" }
%"class.testing::Matcher.58" = type { %"class.testing::internal::MatcherBase.59" }
%"class.testing::internal::MatcherBase.59" = type { %"class.testing::MatcherDescriberInterface", ptr, %"union.testing::internal::MatcherBase<const int &>::Buffer" }
%"union.testing::internal::MatcherBase<const int &>::Buffer" = type { ptr }
%"struct.testing::internal::SharedPayload" = type { %"struct.testing::internal::SharedPayloadBase", %"class.std::unique_ptr.67" }
%"struct.testing::internal::SharedPayloadBase" = type { %"struct.std::atomic" }
%"struct.std::atomic" = type { %"struct.std::__atomic_base" }
%"struct.std::__atomic_base" = type { i32 }
%"class.std::unique_ptr.67" = type { %"struct.std::__uniq_ptr_data.68" }
%"struct.std::__uniq_ptr_data.68" = type { %"class.std::__uniq_ptr_impl.69" }
%"class.std::__uniq_ptr_impl.69" = type { %"class.std::tuple.70" }
%"class.std::tuple.70" = type { %"struct.std::_Tuple_impl.71" }
%"struct.std::_Tuple_impl.71" = type { %"struct.std::_Head_base.74" }
%"struct.std::_Head_base.74" = type { ptr }
%"class.std::allocator" = type { i8 }
%"class.std::type_info" = type { ptr, ptr }
%"class.absl::AlphaNum" = type { %"class.std::basic_string_view", [32 x i8] }
%"class.std::basic_string_view" = type { i64, ptr }
%struct._Guard = type { ptr }
%"struct.testing::internal::CodeLocation" = type <{ %"class.std::__cxx11::basic_string", i32, [4 x i8] }>

$_ZN7testing8internal16SuiteApiResolverINS_4TestEE19GetSetUpCaseOrSuiteEPKci = comdat any

$_ZN7testing8internal16SuiteApiResolverINS_4TestEE22GetTearDownCaseOrSuiteEPKci = comdat any

$_ZN7testing4Test5SetupEv = comdat any

$_ZN7testing15AssertionResultD2Ev = comdat any

$_ZN7testing8internal18CmpHelperEQFailureIiiEENS_15AssertionResultEPKcS4_RKT_RKT0_ = comdat any

$__clang_call_terminate = comdat any

$_ZNK7testing8internal29PredicateFormatterFromMatcherINS0_14PointeeMatcherIiEEEclISt10unique_ptrIiSt14default_deleteIiEEEENS_15AssertionResultEPKcRKT_ = comdat any

$_ZNK7testing8internal11MatcherBaseIRKSt10unique_ptrIiSt14default_deleteIiEEE10DescribeToEPSo = comdat any

$_ZN7testing8internal20MatchPrintAndExplainIKSt10unique_ptrIiSt14default_deleteIiEERS6_EEbRT_RKNS_7MatcherIT0_EEPNS_19MatchResultListenerE = comdat any

$_ZN7testing25StringMatchResultListenerD2Ev = comdat any

$_ZN7testing7MatcherIRKSt10unique_ptrIiSt14default_deleteIiEEED2Ev = comdat any

$_ZN7testing8internal14PointeeMatcherIiE4ImplIRKSt10unique_ptrIiSt14default_deleteIiEEED2Ev = comdat any

$_ZN7testing8internal14PointeeMatcherIiE4ImplIRKSt10unique_ptrIiSt14default_deleteIiEEED0Ev = comdat any

$_ZNK7testing8internal14PointeeMatcherIiE4ImplIRKSt10unique_ptrIiSt14default_deleteIiEEE10DescribeToEPSo = comdat any

$_ZNK7testing8internal14PointeeMatcherIiE4ImplIRKSt10unique_ptrIiSt14default_deleteIiEEE18DescribeNegationToEPSo = comdat any

$_ZNK7testing8internal14PointeeMatcherIiE4ImplIRKSt10unique_ptrIiSt14default_deleteIiEEE15MatchAndExplainES9_PNS_19MatchResultListenerE = comdat any

$_ZN7testing7MatcherIRKiED2Ev = comdat any

$_ZN7testing7MatcherIRKiED0Ev = comdat any

$_ZNK7testing8internal11MatcherBaseIRKiE10DescribeToEPSo = comdat any

$_ZNK7testing8internal11MatcherBaseIRKiE18DescribeNegationToEPSo = comdat any

$_ZN7testing8internal11MatcherBaseIRKiED2Ev = comdat any

$_ZN7testing8internal11MatcherBaseIRKiED0Ev = comdat any

$_ZN7testing8internal11MatcherBaseIRKiE19MatchAndExplainImplINS4_11ValuePolicyINS0_9EqMatcherIiEELb1EEEEEDTcldtclsrT_3Getfp_E15MatchAndExplainfp0_clptfp1_6streamEEERKS4_S3_PNS_19MatchResultListenerE = comdat any

$_ZN7testing8internal11MatcherBaseIRKiE12DescribeImplINS4_11ValuePolicyINS0_9EqMatcherIiEELb1EEEEEvRKS4_PSob = comdat any

$_ZN7testing8internal11MatcherBaseIRKiE16GetDescriberImplINS4_11ValuePolicyINS0_9EqMatcherIiEELb1EEEEEPKNS_25MatcherDescriberInterfaceERKS4_ = comdat any

$_ZN7testing8internal20MatchPrintAndExplainIiRKiEEbRT_RKNS_7MatcherIT0_EEPNS_19MatchResultListenerE = comdat any

$_ZN7testing8internal24DummyMatchResultListenerD2Ev = comdat any

$_ZN7testing8internal24DummyMatchResultListenerD0Ev = comdat any

$_ZN7testing8internal11GetTypeNameB5cxx11ERKSt9type_info = comdat any

$_ZN7testing8internal31CanonicalizeForStdLibVersioningENSt7__cxx1112basic_stringIcSt11char_traitsIcESaIcEEE = comdat any

$_ZN7testing7MatcherIRKSt10unique_ptrIiSt14default_deleteIiEEED0Ev = comdat any

$_ZNK7testing8internal11MatcherBaseIRKSt10unique_ptrIiSt14default_deleteIiEEE18DescribeNegationToEPSo = comdat any

$_ZN7testing8internal11MatcherBaseIRKSt10unique_ptrIiSt14default_deleteIiEEED2Ev = comdat any

$_ZN7testing8internal11MatcherBaseIRKSt10unique_ptrIiSt14default_deleteIiEEED0Ev = comdat any

$_ZN7testing8internal11MatcherBaseIRKSt10unique_ptrIiSt14default_deleteIiEEE19MatchAndExplainImplINS8_11ValuePolicyIPKNS_16MatcherInterfaceIS7_EELb1EEEEEDTcldtclsrT_3Getfp_E15MatchAndExplainfp0_fp1_EERKS8_S7_PNS_19MatchResultListenerE = comdat any

$_ZN7testing8internal11MatcherBaseIRKSt10unique_ptrIiSt14default_deleteIiEEE12DescribeImplINS8_11ValuePolicyIPKNS_16MatcherInterfaceIS7_EELb1EEEEEvRKS8_PSob = comdat any

$_ZN7testing8internal11MatcherBaseIRKSt10unique_ptrIiSt14default_deleteIiEEE16GetDescriberImplINS8_11ValuePolicyIPKNS_16MatcherInterfaceIS7_EELb1EEEEEPKNS_25MatcherDescriberInterfaceERKS8_ = comdat any

$_ZN7testing8internal13SharedPayloadISt10unique_ptrIKNS_16MatcherInterfaceIRKS2_IiSt14default_deleteIiEEEES4_ISA_EEE7DestroyEPNS0_17SharedPayloadBaseE = comdat any

$_ZN7testing25StringMatchResultListenerD0Ev = comdat any

$_ZN7testing15AssertionResult13AppendMessageERKNS_7MessageE = comdat any

$_ZN7testing8internal18CmpHelperEQFailureIA2_cNSt7__cxx1112basic_stringIcSt11char_traitsIcESaIcEEEEENS_15AssertionResultEPKcSB_RKT_RKT0_ = comdat any

$_ZN7testing8internal21UniversalTersePrinterIPKcE5PrintES3_PSo = comdat any

$_ZN7testing8internal18CmpHelperEQFailureIA5_cNSt7__cxx1112basic_stringIcSt11char_traitsIcESaIcEEEEENS_15AssertionResultEPKcSB_RKT_RKT0_ = comdat any

$_ZN7testing8internal18CmpHelperEQFailureIA7_cNSt7__cxx1112basic_stringIcSt11char_traitsIcESaIcEEEEENS_15AssertionResultEPKcSB_RKT_RKT0_ = comdat any

$_ZN7testing8internal18CmpHelperEQFailureIA10_cNSt7__cxx1112basic_stringIcSt11char_traitsIcESaIcEEEEENS_15AssertionResultEPKcSB_RKT_RKT0_ = comdat any

$_ZN7testing8internal18CmpHelperEQFailureIA3_cNSt7__cxx1112basic_stringIcSt11char_traitsIcESaIcEEEEENS_15AssertionResultEPKcSB_RKT_RKT0_ = comdat any

$_ZN7testing8internal18CmpHelperEQFailureIA6_cNSt7__cxx1112basic_stringIcSt11char_traitsIcESaIcEEEEENS_15AssertionResultEPKcSB_RKT_RKT0_ = comdat any

$_ZNSt7__cxx1112basic_stringIcSt11char_traitsIcESaIcEE12_M_constructIPKcEEvT_S8_St20forward_iterator_tag = comdat any

$_ZZNSt7__cxx1112basic_stringIcSt11char_traitsIcESaIcEE12_M_constructIPKcEEvT_S8_St20forward_iterator_tagEN6_GuardD2Ev = comdat any

$_ZTSN7testing8internal15TestFactoryBaseE = comdat any

$_ZTIN7testing8internal15TestFactoryBaseE = comdat any

$_ZTVN7testing8internal14PointeeMatcherIiE4ImplIRKSt10unique_ptrIiSt14default_deleteIiEEEE = comdat any

$_ZTSN7testing8internal14PointeeMatcherIiE4ImplIRKSt10unique_ptrIiSt14default_deleteIiEEEE = comdat any

$_ZTSN7testing16MatcherInterfaceIRKSt10unique_ptrIiSt14default_deleteIiEEEE = comdat any

$_ZTSN7testing25MatcherDescriberInterfaceE = comdat any

$_ZTIN7testing25MatcherDescriberInterfaceE = comdat any

$_ZTIN7testing16MatcherInterfaceIRKSt10unique_ptrIiSt14default_deleteIiEEEE = comdat any

$_ZTIN7testing8internal14PointeeMatcherIiE4ImplIRKSt10unique_ptrIiSt14default_deleteIiEEEE = comdat any

$_ZTVN7testing7MatcherIRKiEE = comdat any

$_ZTSN7testing7MatcherIRKiEE = comdat any

$_ZTSN7testing8internal11MatcherBaseIRKiEE = comdat any

$_ZTIN7testing8internal11MatcherBaseIRKiEE = comdat any

$_ZTIN7testing7MatcherIRKiEE = comdat any

$_ZTVN7testing8internal11MatcherBaseIRKiEE = comdat any

$_ZZN7testing8internal11MatcherBaseIRKiE9GetVTableINS4_11ValuePolicyINS0_9EqMatcherIiEELb1EEEEEPKNS4_6VTableEvE7kVTable = comdat any

$_ZTVN7testing8internal24DummyMatchResultListenerE = comdat any

$_ZTSN7testing8internal24DummyMatchResultListenerE = comdat any

$_ZTSN7testing19MatchResultListenerE = comdat any

$_ZTIN7testing19MatchResultListenerE = comdat any

$_ZTIN7testing8internal24DummyMatchResultListenerE = comdat any

$_ZZN7testing8internal31CanonicalizeForStdLibVersioningENSt7__cxx1112basic_stringIcSt11char_traitsIcESaIcEEEE6prefix = comdat any

$_ZZN7testing8internal31CanonicalizeForStdLibVersioningENSt7__cxx1112basic_stringIcSt11char_traitsIcESaIcEEEE9to_search = comdat any

$_ZZN7testing8internal31CanonicalizeForStdLibVersioningENSt7__cxx1112basic_stringIcSt11char_traitsIcESaIcEEEE11replace_str = comdat any

$_ZTVN7testing7MatcherIRKSt10unique_ptrIiSt14default_deleteIiEEEE = comdat any

$_ZTSN7testing7MatcherIRKSt10unique_ptrIiSt14default_deleteIiEEEE = comdat any

$_ZTSN7testing8internal11MatcherBaseIRKSt10unique_ptrIiSt14default_deleteIiEEEE = comdat any

$_ZTIN7testing8internal11MatcherBaseIRKSt10unique_ptrIiSt14default_deleteIiEEEE = comdat any

$_ZTIN7testing7MatcherIRKSt10unique_ptrIiSt14default_deleteIiEEEE = comdat any

$_ZTVN7testing8internal11MatcherBaseIRKSt10unique_ptrIiSt14default_deleteIiEEEE = comdat any

$_ZZN7testing8internal11MatcherBaseIRKSt10unique_ptrIiSt14default_deleteIiEEE9GetVTableINS8_11ValuePolicyIPKNS_16MatcherInterfaceIS7_EELb1EEEEEPKNS8_6VTableEvE7kVTable = comdat any

$_ZTVN7testing25StringMatchResultListenerE = comdat any

$_ZTSN7testing25StringMatchResultListenerE = comdat any

$_ZTIN7testing25StringMatchResultListenerE = comdat any

$_ZTSSt10unique_ptrIiSt14default_deleteIiEE = comdat any

$_ZTISt10unique_ptrIiSt14default_deleteIiEE = comdat any

@_ZStL8__ioinit = internal global %"class.std::ios_base::Init" zeroinitializer, align 1
@__dso_handle = external hidden global i8
@_ZN4absl13base_internal12_GLOBAL__N_124InvokeTest_Function_Test10test_info_E = internal unnamed_addr global ptr null, align 8
@.str = private unnamed_addr constant [11 x i8] c"InvokeTest\00", align 1
@.str.2 = private unnamed_addr constant [9 x i8] c"Function\00", align 1
@.str.3 = private unnamed_addr constant [124 x i8] c"generated/home/dtcxzyw/WorkSpace/Projects/compilers/llvm-opt-benchmark/bench/abseil-cpp/abseil-cpp/absl/base/invoke_test.cc\00", align 1
@_ZN4absl13base_internal12_GLOBAL__N_135InvokeTest_NonCopyableArgument_Test10test_info_E = internal unnamed_addr global ptr null, align 8
@.str.5 = private unnamed_addr constant [20 x i8] c"NonCopyableArgument\00", align 1
@_ZN4absl13base_internal12_GLOBAL__N_133InvokeTest_NonCopyableResult_Test10test_info_E = internal unnamed_addr global ptr null, align 8
@.str.7 = private unnamed_addr constant [18 x i8] c"NonCopyableResult\00", align 1
@_ZN4absl13base_internal12_GLOBAL__N_126InvokeTest_VoidResult_Test10test_info_E = internal unnamed_addr global ptr null, align 8
@.str.9 = private unnamed_addr constant [11 x i8] c"VoidResult\00", align 1
@_ZN4absl13base_internal12_GLOBAL__N_128InvokeTest_ConstFunctor_Test10test_info_E = internal unnamed_addr global ptr null, align 8
@.str.11 = private unnamed_addr constant [13 x i8] c"ConstFunctor\00", align 1
@_ZN4absl13base_internal12_GLOBAL__N_130InvokeTest_MutableFunctor_Test10test_info_E = internal unnamed_addr global ptr null, align 8
@.str.13 = private unnamed_addr constant [15 x i8] c"MutableFunctor\00", align 1
@_ZN4absl13base_internal12_GLOBAL__N_132InvokeTest_EphemeralFunctor_Test10test_info_E = internal unnamed_addr global ptr null, align 8
@.str.15 = private unnamed_addr constant [17 x i8] c"EphemeralFunctor\00", align 1
@_ZN4absl13base_internal12_GLOBAL__N_133InvokeTest_OverloadedFunctor_Test10test_info_E = internal unnamed_addr global ptr null, align 8
@.str.17 = private unnamed_addr constant [18 x i8] c"OverloadedFunctor\00", align 1
@_ZN4absl13base_internal12_GLOBAL__N_132InvokeTest_ReferenceWrapper_Test10test_info_E = internal unnamed_addr global ptr null, align 8
@.str.19 = private unnamed_addr constant [17 x i8] c"ReferenceWrapper\00", align 1
@_ZN4absl13base_internal12_GLOBAL__N_130InvokeTest_MemberFunction_Test10test_info_E = internal unnamed_addr global ptr null, align 8
@.str.21 = private unnamed_addr constant [15 x i8] c"MemberFunction\00", align 1
@_ZN4absl13base_internal12_GLOBAL__N_126InvokeTest_DataMember_Test10test_info_E = internal unnamed_addr global ptr null, align 8
@.str.23 = private unnamed_addr constant [11 x i8] c"DataMember\00", align 1
@_ZN4absl13base_internal12_GLOBAL__N_124InvokeTest_FlipFlop_Test10test_info_E = internal unnamed_addr global ptr null, align 8
@.str.25 = private unnamed_addr constant [9 x i8] c"FlipFlop\00", align 1
@_ZN4absl13base_internal12_GLOBAL__N_130InvokeTest_SfinaeFriendly_Test10test_info_E = internal unnamed_addr global ptr null, align 8
@.str.27 = private unnamed_addr constant [15 x i8] c"SfinaeFriendly\00", align 1
@_ZN4absl13base_internal12_GLOBAL__N_140IsInvocableRTest_CallableExactMatch_Test10test_info_E = internal unnamed_addr global ptr null, align 8
@.str.29 = private unnamed_addr constant [17 x i8] c"IsInvocableRTest\00", align 1
@.str.30 = private unnamed_addr constant [19 x i8] c"CallableExactMatch\00", align 1
@_ZN4absl13base_internal12_GLOBAL__N_153IsInvocableRTest_CallableArgumentConversionMatch_Test10test_info_E = internal unnamed_addr global ptr null, align 8
@.str.32 = private unnamed_addr constant [32 x i8] c"CallableArgumentConversionMatch\00", align 1
@_ZN4absl13base_internal12_GLOBAL__N_151IsInvocableRTest_CallableReturnConversionMatch_Test10test_info_E = internal unnamed_addr global ptr null, align 8
@.str.34 = private unnamed_addr constant [30 x i8] c"CallableReturnConversionMatch\00", align 1
@_ZN4absl13base_internal12_GLOBAL__N_140IsInvocableRTest_CallableReturnVoid_Test10test_info_E = internal unnamed_addr global ptr null, align 8
@.str.36 = private unnamed_addr constant [19 x i8] c"CallableReturnVoid\00", align 1
@_ZN4absl13base_internal12_GLOBAL__N_150IsInvocableRTest_CallableRefQualifierMismatch_Test10test_info_E = internal unnamed_addr global ptr null, align 8
@.str.38 = private unnamed_addr constant [29 x i8] c"CallableRefQualifierMismatch\00", align 1
@_ZN4absl13base_internal12_GLOBAL__N_150IsInvocableRTest_CallableArgumentTypeMismatch_Test10test_info_E = internal unnamed_addr global ptr null, align 8
@.str.40 = private unnamed_addr constant [29 x i8] c"CallableArgumentTypeMismatch\00", align 1
@_ZN4absl13base_internal12_GLOBAL__N_148IsInvocableRTest_CallableReturnTypeMismatch_Test10test_info_E = internal unnamed_addr global ptr null, align 8
@.str.42 = private unnamed_addr constant [27 x i8] c"CallableReturnTypeMismatch\00", align 1
@_ZN4absl13base_internal12_GLOBAL__N_140IsInvocableRTest_CallableTooFewArgs_Test10test_info_E = internal unnamed_addr global ptr null, align 8
@.str.44 = private unnamed_addr constant [19 x i8] c"CallableTooFewArgs\00", align 1
@_ZN4absl13base_internal12_GLOBAL__N_141IsInvocableRTest_CallableTooManyArgs_Test10test_info_E = internal unnamed_addr global ptr null, align 8
@.str.46 = private unnamed_addr constant [20 x i8] c"CallableTooManyArgs\00", align 1
@_ZN4absl13base_internal12_GLOBAL__N_148IsInvocableRTest_MemberFunctionAndReference_Test10test_info_E = internal unnamed_addr global ptr null, align 8
@.str.48 = private unnamed_addr constant [27 x i8] c"MemberFunctionAndReference\00", align 1
@_ZN4absl13base_internal12_GLOBAL__N_146IsInvocableRTest_MemberFunctionAndPointer_Test10test_info_E = internal unnamed_addr global ptr null, align 8
@.str.50 = private unnamed_addr constant [25 x i8] c"MemberFunctionAndPointer\00", align 1
@_ZN4absl13base_internal12_GLOBAL__N_144IsInvocableRTest_DataMemberAndReference_Test10test_info_E = internal unnamed_addr global ptr null, align 8
@.str.52 = private unnamed_addr constant [23 x i8] c"DataMemberAndReference\00", align 1
@_ZN4absl13base_internal12_GLOBAL__N_142IsInvocableRTest_DataMemberAndPointer_Test10test_info_E = internal unnamed_addr global ptr null, align 8
@.str.54 = private unnamed_addr constant [21 x i8] c"DataMemberAndPointer\00", align 1
@_ZN4absl13base_internal12_GLOBAL__N_138IsInvocableRTest_CallableZeroArgs_Test10test_info_E = internal unnamed_addr global ptr null, align 8
@.str.56 = private unnamed_addr constant [17 x i8] c"CallableZeroArgs\00", align 1
@_ZTVN7testing8internal15TestFactoryImplIN4absl13base_internal12_GLOBAL__N_124InvokeTest_Function_TestEEE = internal unnamed_addr constant { [5 x ptr] } { [5 x ptr] [ptr null, ptr @_ZTIN7testing8internal15TestFactoryImplIN4absl13base_internal12_GLOBAL__N_124InvokeTest_Function_TestEEE, ptr @_ZN7testing8internal15TestFactoryImplIN4absl13base_internal12_GLOBAL__N_124InvokeTest_Function_TestEED2Ev, ptr @_ZN7testing8internal15TestFactoryImplIN4absl13base_internal12_GLOBAL__N_124InvokeTest_Function_TestEED0Ev, ptr @_ZN7testing8internal15TestFactoryImplIN4absl13base_internal12_GLOBAL__N_124InvokeTest_Function_TestEE10CreateTestEv] }, align 8
@_ZTVN10__cxxabiv120__si_class_type_infoE = external global [0 x ptr]
@_ZTSN7testing8internal15TestFactoryImplIN4absl13base_internal12_GLOBAL__N_124InvokeTest_Function_TestEEE = internal constant [101 x i8] c"N7testing8internal15TestFactoryImplIN4absl13base_internal12_GLOBAL__N_124InvokeTest_Function_TestEEE\00", align 1
@_ZTVN10__cxxabiv117__class_type_infoE = external global [0 x ptr]
@_ZTSN7testing8internal15TestFactoryBaseE = linkonce_odr dso_local constant [37 x i8] c"N7testing8internal15TestFactoryBaseE\00", comdat, align 1
@_ZTIN7testing8internal15TestFactoryBaseE = linkonce_odr dso_local constant { ptr, ptr } { ptr getelementptr inbounds (ptr, ptr @_ZTVN10__cxxabiv117__class_type_infoE, i64 2), ptr @_ZTSN7testing8internal15TestFactoryBaseE }, comdat, align 8
@_ZTIN7testing8internal15TestFactoryImplIN4absl13base_internal12_GLOBAL__N_124InvokeTest_Function_TestEEE = internal constant { ptr, ptr, ptr } { ptr getelementptr inbounds (ptr, ptr @_ZTVN10__cxxabiv120__si_class_type_infoE, i64 2), ptr @_ZTSN7testing8internal15TestFactoryImplIN4absl13base_internal12_GLOBAL__N_124InvokeTest_Function_TestEEE, ptr @_ZTIN7testing8internal15TestFactoryBaseE }, align 8
@_ZTVN4absl13base_internal12_GLOBAL__N_124InvokeTest_Function_TestE = internal unnamed_addr constant { [8 x ptr] } { [8 x ptr] [ptr null, ptr @_ZTIN4absl13base_internal12_GLOBAL__N_124InvokeTest_Function_TestE, ptr @_ZN4absl13base_internal12_GLOBAL__N_124InvokeTest_Function_TestD2Ev, ptr @_ZN4absl13base_internal12_GLOBAL__N_124InvokeTest_Function_TestD0Ev, ptr @_ZN7testing4Test5SetUpEv, ptr @_ZN7testing4Test8TearDownEv, ptr @_ZN4absl13base_internal12_GLOBAL__N_124InvokeTest_Function_Test8TestBodyEv, ptr @_ZN7testing4Test5SetupEv] }, align 8
@_ZTSN4absl13base_internal12_GLOBAL__N_124InvokeTest_Function_TestE = internal constant [63 x i8] c"N4absl13base_internal12_GLOBAL__N_124InvokeTest_Function_TestE\00", align 1
@_ZTIN7testing4TestE = external constant ptr
@_ZTIN4absl13base_internal12_GLOBAL__N_124InvokeTest_Function_TestE = internal constant { ptr, ptr, ptr } { ptr getelementptr inbounds (ptr, ptr @_ZTVN10__cxxabiv120__si_class_type_infoE, i64 2), ptr @_ZTSN4absl13base_internal12_GLOBAL__N_124InvokeTest_Function_TestE, ptr @_ZTIN7testing4TestE }, align 8
@.str.60 = private unnamed_addr constant [1 x i8] zeroinitializer, align 1
@_ZTVN7testing8internal15TestFactoryImplIN4absl13base_internal12_GLOBAL__N_135InvokeTest_NonCopyableArgument_TestEEE = internal unnamed_addr constant { [5 x ptr] } { [5 x ptr] [ptr null, ptr @_ZTIN7testing8internal15TestFactoryImplIN4absl13base_internal12_GLOBAL__N_135InvokeTest_NonCopyableArgument_TestEEE, ptr @_ZN7testing8internal15TestFactoryImplIN4absl13base_internal12_GLOBAL__N_135InvokeTest_NonCopyableArgument_TestEED2Ev, ptr @_ZN7testing8internal15TestFactoryImplIN4absl13base_internal12_GLOBAL__N_135InvokeTest_NonCopyableArgument_TestEED0Ev, ptr @_ZN7testing8internal15TestFactoryImplIN4absl13base_internal12_GLOBAL__N_135InvokeTest_NonCopyableArgument_TestEE10CreateTestEv] }, align 8
@_ZTSN7testing8internal15TestFactoryImplIN4absl13base_internal12_GLOBAL__N_135InvokeTest_NonCopyableArgument_TestEEE = internal constant [112 x i8] c"N7testing8internal15TestFactoryImplIN4absl13base_internal12_GLOBAL__N_135InvokeTest_NonCopyableArgument_TestEEE\00", align 1
@_ZTIN7testing8internal15TestFactoryImplIN4absl13base_internal12_GLOBAL__N_135InvokeTest_NonCopyableArgument_TestEEE = internal constant { ptr, ptr, ptr } { ptr getelementptr inbounds (ptr, ptr @_ZTVN10__cxxabiv120__si_class_type_infoE, i64 2), ptr @_ZTSN7testing8internal15TestFactoryImplIN4absl13base_internal12_GLOBAL__N_135InvokeTest_NonCopyableArgument_TestEEE, ptr @_ZTIN7testing8internal15TestFactoryBaseE }, align 8
@_ZTVN4absl13base_internal12_GLOBAL__N_135InvokeTest_NonCopyableArgument_TestE = internal unnamed_addr constant { [8 x ptr] } { [8 x ptr] [ptr null, ptr @_ZTIN4absl13base_internal12_GLOBAL__N_135InvokeTest_NonCopyableArgument_TestE, ptr @_ZN4absl13base_internal12_GLOBAL__N_135InvokeTest_NonCopyableArgument_TestD2Ev, ptr @_ZN4absl13base_internal12_GLOBAL__N_135InvokeTest_NonCopyableArgument_TestD0Ev, ptr @_ZN7testing4Test5SetUpEv, ptr @_ZN7testing4Test8TearDownEv, ptr @_ZN4absl13base_internal12_GLOBAL__N_135InvokeTest_NonCopyableArgument_Test8TestBodyEv, ptr @_ZN7testing4Test5SetupEv] }, align 8
@_ZTSN4absl13base_internal12_GLOBAL__N_135InvokeTest_NonCopyableArgument_TestE = internal constant [74 x i8] c"N4absl13base_internal12_GLOBAL__N_135InvokeTest_NonCopyableArgument_TestE\00", align 1
@_ZTIN4absl13base_internal12_GLOBAL__N_135InvokeTest_NonCopyableArgument_TestE = internal constant { ptr, ptr, ptr } { ptr getelementptr inbounds (ptr, ptr @_ZTVN10__cxxabiv120__si_class_type_infoE, i64 2), ptr @_ZTSN4absl13base_internal12_GLOBAL__N_135InvokeTest_NonCopyableArgument_TestE, ptr @_ZTIN7testing4TestE }, align 8
@.str.61 = private unnamed_addr constant [3 x i8] c"42\00", align 1
@_ZTVN7testing8internal15TestFactoryImplIN4absl13base_internal12_GLOBAL__N_133InvokeTest_NonCopyableResult_TestEEE = internal unnamed_addr constant { [5 x ptr] } { [5 x ptr] [ptr null, ptr @_ZTIN7testing8internal15TestFactoryImplIN4absl13base_internal12_GLOBAL__N_133InvokeTest_NonCopyableResult_TestEEE, ptr @_ZN7testing8internal15TestFactoryImplIN4absl13base_internal12_GLOBAL__N_133InvokeTest_NonCopyableResult_TestEED2Ev, ptr @_ZN7testing8internal15TestFactoryImplIN4absl13base_internal12_GLOBAL__N_133InvokeTest_NonCopyableResult_TestEED0Ev, ptr @_ZN7testing8internal15TestFactoryImplIN4absl13base_internal12_GLOBAL__N_133InvokeTest_NonCopyableResult_TestEE10CreateTestEv] }, align 8
@_ZTSN7testing8internal15TestFactoryImplIN4absl13base_internal12_GLOBAL__N_133InvokeTest_NonCopyableResult_TestEEE = internal constant [110 x i8] c"N7testing8internal15TestFactoryImplIN4absl13base_internal12_GLOBAL__N_133InvokeTest_NonCopyableResult_TestEEE\00", align 1
@_ZTIN7testing8internal15TestFactoryImplIN4absl13base_internal12_GLOBAL__N_133InvokeTest_NonCopyableResult_TestEEE = internal constant { ptr, ptr, ptr } { ptr getelementptr inbounds (ptr, ptr @_ZTVN10__cxxabiv120__si_class_type_infoE, i64 2), ptr @_ZTSN7testing8internal15TestFactoryImplIN4absl13base_internal12_GLOBAL__N_133InvokeTest_NonCopyableResult_TestEEE, ptr @_ZTIN7testing8internal15TestFactoryBaseE }, align 8
@_ZTVN4absl13base_internal12_GLOBAL__N_133InvokeTest_NonCopyableResult_TestE = internal unnamed_addr constant { [8 x ptr] } { [8 x ptr] [ptr null, ptr @_ZTIN4absl13base_internal12_GLOBAL__N_133InvokeTest_NonCopyableResult_TestE, ptr @_ZN4absl13base_internal12_GLOBAL__N_133InvokeTest_NonCopyableResult_TestD2Ev, ptr @_ZN4absl13base_internal12_GLOBAL__N_133InvokeTest_NonCopyableResult_TestD0Ev, ptr @_ZN7testing4Test5SetUpEv, ptr @_ZN7testing4Test8TearDownEv, ptr @_ZN4absl13base_internal12_GLOBAL__N_133InvokeTest_NonCopyableResult_Test8TestBodyEv, ptr @_ZN7testing4Test5SetupEv] }, align 8
@_ZTSN4absl13base_internal12_GLOBAL__N_133InvokeTest_NonCopyableResult_TestE = internal constant [72 x i8] c"N4absl13base_internal12_GLOBAL__N_133InvokeTest_NonCopyableResult_TestE\00", align 1
@_ZTIN4absl13base_internal12_GLOBAL__N_133InvokeTest_NonCopyableResult_TestE = internal constant { ptr, ptr, ptr } { ptr getelementptr inbounds (ptr, ptr @_ZTVN10__cxxabiv120__si_class_type_infoE, i64 2), ptr @_ZTSN4absl13base_internal12_GLOBAL__N_133InvokeTest_NonCopyableResult_TestE, ptr @_ZTIN7testing4TestE }, align 8
@.str.63 = private unnamed_addr constant [35 x i8] c"base_internal::invoke(Factory, 42)\00", align 1
@.str.64 = private unnamed_addr constant [11 x i8] c"Value of: \00", align 1
@.str.65 = private unnamed_addr constant [2 x i8] c"\0A\00", align 1
@.str.66 = private unnamed_addr constant [11 x i8] c"Expected: \00", align 1
@.str.67 = private unnamed_addr constant [97 x i8] c"\0A  The matcher failed on the initial attempt; but passed when rerun to generate the explanation.\00", align 1
@.str.68 = private unnamed_addr constant [12 x i8] c"\0A  Actual: \00", align 1
@_ZTVN7testing8internal14PointeeMatcherIiE4ImplIRKSt10unique_ptrIiSt14default_deleteIiEEEE = linkonce_odr dso_local unnamed_addr constant { [7 x ptr] } { [7 x ptr] [ptr null, ptr @_ZTIN7testing8internal14PointeeMatcherIiE4ImplIRKSt10unique_ptrIiSt14default_deleteIiEEEE, ptr @_ZN7testing8internal14PointeeMatcherIiE4ImplIRKSt10unique_ptrIiSt14default_deleteIiEEED2Ev, ptr @_ZN7testing8internal14PointeeMatcherIiE4ImplIRKSt10unique_ptrIiSt14default_deleteIiEEED0Ev, ptr @_ZNK7testing8internal14PointeeMatcherIiE4ImplIRKSt10unique_ptrIiSt14default_deleteIiEEE10DescribeToEPSo, ptr @_ZNK7testing8internal14PointeeMatcherIiE4ImplIRKSt10unique_ptrIiSt14default_deleteIiEEE18DescribeNegationToEPSo, ptr @_ZNK7testing8internal14PointeeMatcherIiE4ImplIRKSt10unique_ptrIiSt14default_deleteIiEEE15MatchAndExplainES9_PNS_19MatchResultListenerE] }, comdat, align 8
@_ZTSN7testing8internal14PointeeMatcherIiE4ImplIRKSt10unique_ptrIiSt14default_deleteIiEEEE = linkonce_odr dso_local constant [86 x i8] c"N7testing8internal14PointeeMatcherIiE4ImplIRKSt10unique_ptrIiSt14default_deleteIiEEEE\00", comdat, align 1
@_ZTSN7testing16MatcherInterfaceIRKSt10unique_ptrIiSt14default_deleteIiEEEE = linkonce_odr dso_local constant [71 x i8] c"N7testing16MatcherInterfaceIRKSt10unique_ptrIiSt14default_deleteIiEEEE\00", comdat, align 1
@_ZTSN7testing25MatcherDescriberInterfaceE = linkonce_odr dso_local constant [38 x i8] c"N7testing25MatcherDescriberInterfaceE\00", comdat, align 1
@_ZTIN7testing25MatcherDescriberInterfaceE = linkonce_odr dso_local constant { ptr, ptr } { ptr getelementptr inbounds (ptr, ptr @_ZTVN10__cxxabiv117__class_type_infoE, i64 2), ptr @_ZTSN7testing25MatcherDescriberInterfaceE }, comdat, align 8
@_ZTIN7testing16MatcherInterfaceIRKSt10unique_ptrIiSt14default_deleteIiEEEE = linkonce_odr dso_local constant { ptr, ptr, ptr } { ptr getelementptr inbounds (ptr, ptr @_ZTVN10__cxxabiv120__si_class_type_infoE, i64 2), ptr @_ZTSN7testing16MatcherInterfaceIRKSt10unique_ptrIiSt14default_deleteIiEEEE, ptr @_ZTIN7testing25MatcherDescriberInterfaceE }, comdat, align 8
@_ZTIN7testing8internal14PointeeMatcherIiE4ImplIRKSt10unique_ptrIiSt14default_deleteIiEEEE = linkonce_odr dso_local constant { ptr, ptr, ptr } { ptr getelementptr inbounds (ptr, ptr @_ZTVN10__cxxabiv120__si_class_type_infoE, i64 2), ptr @_ZTSN7testing8internal14PointeeMatcherIiE4ImplIRKSt10unique_ptrIiSt14default_deleteIiEEEE, ptr @_ZTIN7testing16MatcherInterfaceIRKSt10unique_ptrIiSt14default_deleteIiEEEE }, comdat, align 8
@.str.70 = private unnamed_addr constant [2 x i8] c")\00", align 1
@_ZTVN7testing7MatcherIRKiEE = linkonce_odr dso_local unnamed_addr constant { [6 x ptr] } { [6 x ptr] [ptr null, ptr @_ZTIN7testing7MatcherIRKiEE, ptr @_ZN7testing7MatcherIRKiED2Ev, ptr @_ZN7testing7MatcherIRKiED0Ev, ptr @_ZNK7testing8internal11MatcherBaseIRKiE10DescribeToEPSo, ptr @_ZNK7testing8internal11MatcherBaseIRKiE18DescribeNegationToEPSo] }, comdat, align 8
@_ZTSN7testing7MatcherIRKiEE = linkonce_odr dso_local constant [24 x i8] c"N7testing7MatcherIRKiEE\00", comdat, align 1
@_ZTVN10__cxxabiv121__vmi_class_type_infoE = external global [0 x ptr]
@_ZTSN7testing8internal11MatcherBaseIRKiEE = linkonce_odr dso_local constant [38 x i8] c"N7testing8internal11MatcherBaseIRKiEE\00", comdat, align 1
@_ZTIN7testing8internal11MatcherBaseIRKiEE = linkonce_odr dso_local constant { ptr, ptr, i32, i32, ptr, i64 } { ptr getelementptr inbounds (ptr, ptr @_ZTVN10__cxxabiv121__vmi_class_type_infoE, i64 2), ptr @_ZTSN7testing8internal11MatcherBaseIRKiEE, i32 0, i32 1, ptr @_ZTIN7testing25MatcherDescriberInterfaceE, i64 0 }, comdat, align 8
@_ZTIN7testing7MatcherIRKiEE = linkonce_odr dso_local constant { ptr, ptr, ptr } { ptr getelementptr inbounds (ptr, ptr @_ZTVN10__cxxabiv120__si_class_type_infoE, i64 2), ptr @_ZTSN7testing7MatcherIRKiEE, ptr @_ZTIN7testing8internal11MatcherBaseIRKiEE }, comdat, align 8
@_ZTVN7testing8internal11MatcherBaseIRKiEE = linkonce_odr dso_local unnamed_addr constant { [6 x ptr] } { [6 x ptr] [ptr null, ptr @_ZTIN7testing8internal11MatcherBaseIRKiEE, ptr @_ZN7testing8internal11MatcherBaseIRKiED2Ev, ptr @_ZN7testing8internal11MatcherBaseIRKiED0Ev, ptr @_ZNK7testing8internal11MatcherBaseIRKiE10DescribeToEPSo, ptr @_ZNK7testing8internal11MatcherBaseIRKiE18DescribeNegationToEPSo] }, comdat, align 8
@_ZZN7testing8internal11MatcherBaseIRKiE9GetVTableINS4_11ValuePolicyINS0_9EqMatcherIiEELb1EEEEEPKNS4_6VTableEvE7kVTable = linkonce_odr dso_local constant %"struct.testing::internal::MatcherBase<const int &>::VTable" { ptr @_ZN7testing8internal11MatcherBaseIRKiE19MatchAndExplainImplINS4_11ValuePolicyINS0_9EqMatcherIiEELb1EEEEEDTcldtclsrT_3Getfp_E15MatchAndExplainfp0_clptfp1_6streamEEERKS4_S3_PNS_19MatchResultListenerE, ptr @_ZN7testing8internal11MatcherBaseIRKiE12DescribeImplINS4_11ValuePolicyINS0_9EqMatcherIiEELb1EEEEEvRKS4_PSob, ptr @_ZN7testing8internal11MatcherBaseIRKiE16GetDescriberImplINS4_11ValuePolicyINS0_9EqMatcherIiEELb1EEEEEPKNS_25MatcherDescriberInterfaceERKS4_, ptr null }, comdat, align 8
@.str.71 = private unnamed_addr constant [2 x i8] c" \00", align 1
@.str.72 = private unnamed_addr constant [15 x i8] c"isn't equal to\00", align 1
@.str.73 = private unnamed_addr constant [12 x i8] c"is equal to\00", align 1
@.str.74 = private unnamed_addr constant [157 x i8] c"generated/home/dtcxzyw/WorkSpace/Projects/compilers/llvm-opt-benchmark/bench/abseil-cpp/bench_build/googletest-src/googletest/include/gtest/gtest-matchers.h\00", align 1
@.str.75 = private unnamed_addr constant [38 x i8] c"Condition vtable_ != nullptr failed. \00", align 1
@_ZSt4cerr = external global %"class.std::basic_ostream", align 8
@.str.76 = private unnamed_addr constant [24 x i8] c"points to a value that \00", align 1
@.str.77 = private unnamed_addr constant [32 x i8] c"does not point to a value that \00", align 1
@.str.78 = private unnamed_addr constant [17 x i8] c"which points to \00", align 1
@.str.79 = private unnamed_addr constant [11 x i8] c" (of type \00", align 1
@_ZTVN7testing8internal24DummyMatchResultListenerE = linkonce_odr dso_local unnamed_addr constant { [4 x ptr] } { [4 x ptr] [ptr null, ptr @_ZTIN7testing8internal24DummyMatchResultListenerE, ptr @_ZN7testing8internal24DummyMatchResultListenerD2Ev, ptr @_ZN7testing8internal24DummyMatchResultListenerD0Ev] }, comdat, align 8
@_ZTSN7testing8internal24DummyMatchResultListenerE = linkonce_odr dso_local constant [46 x i8] c"N7testing8internal24DummyMatchResultListenerE\00", comdat, align 1
@_ZTSN7testing19MatchResultListenerE = linkonce_odr dso_local constant [32 x i8] c"N7testing19MatchResultListenerE\00", comdat, align 1
@_ZTIN7testing19MatchResultListenerE = linkonce_odr dso_local constant { ptr, ptr } { ptr getelementptr inbounds (ptr, ptr @_ZTVN10__cxxabiv117__class_type_infoE, i64 2), ptr @_ZTSN7testing19MatchResultListenerE }, comdat, align 8
@_ZTIN7testing8internal24DummyMatchResultListenerE = linkonce_odr dso_local constant { ptr, ptr, ptr } { ptr getelementptr inbounds (ptr, ptr @_ZTVN10__cxxabiv120__si_class_type_infoE, i64 2), ptr @_ZTSN7testing8internal24DummyMatchResultListenerE, ptr @_ZTIN7testing19MatchResultListenerE }, comdat, align 8
@_ZTIi = external constant ptr
@_ZZN7testing8internal31CanonicalizeForStdLibVersioningENSt7__cxx1112basic_stringIcSt11char_traitsIcESaIcEEEE6prefix = linkonce_odr dso_local constant [8 x i8] c"std::__\00", comdat, align 1
@.str.80 = private unnamed_addr constant [3 x i8] c"::\00", align 1
@_ZZN7testing8internal31CanonicalizeForStdLibVersioningENSt7__cxx1112basic_stringIcSt11char_traitsIcESaIcEEEE9to_search = linkonce_odr dso_local constant [3 x i8] c", \00", comdat, align 1
@_ZZN7testing8internal31CanonicalizeForStdLibVersioningENSt7__cxx1112basic_stringIcSt11char_traitsIcESaIcEEEE11replace_str = linkonce_odr dso_local constant [2 x i8] c",\00", comdat, align 1
@.str.81 = private unnamed_addr constant [3 x i8] c"<(\00", align 1
@.str.82 = private unnamed_addr constant [3 x i8] c", \00", align 1
@_ZTVN7testing7MatcherIRKSt10unique_ptrIiSt14default_deleteIiEEEE = linkonce_odr dso_local unnamed_addr constant { [6 x ptr] } { [6 x ptr] [ptr null, ptr @_ZTIN7testing7MatcherIRKSt10unique_ptrIiSt14default_deleteIiEEEE, ptr @_ZN7testing7MatcherIRKSt10unique_ptrIiSt14default_deleteIiEEED2Ev, ptr @_ZN7testing7MatcherIRKSt10unique_ptrIiSt14default_deleteIiEEED0Ev, ptr @_ZNK7testing8internal11MatcherBaseIRKSt10unique_ptrIiSt14default_deleteIiEEE10DescribeToEPSo, ptr @_ZNK7testing8internal11MatcherBaseIRKSt10unique_ptrIiSt14default_deleteIiEEE18DescribeNegationToEPSo] }, comdat, align 8
@_ZTSN7testing7MatcherIRKSt10unique_ptrIiSt14default_deleteIiEEEE = linkonce_odr dso_local constant [61 x i8] c"N7testing7MatcherIRKSt10unique_ptrIiSt14default_deleteIiEEEE\00", comdat, align 1
@_ZTSN7testing8internal11MatcherBaseIRKSt10unique_ptrIiSt14default_deleteIiEEEE = linkonce_odr dso_local constant [75 x i8] c"N7testing8internal11MatcherBaseIRKSt10unique_ptrIiSt14default_deleteIiEEEE\00", comdat, align 1
@_ZTIN7testing8internal11MatcherBaseIRKSt10unique_ptrIiSt14default_deleteIiEEEE = linkonce_odr dso_local constant { ptr, ptr, i32, i32, ptr, i64 } { ptr getelementptr inbounds (ptr, ptr @_ZTVN10__cxxabiv121__vmi_class_type_infoE, i64 2), ptr @_ZTSN7testing8internal11MatcherBaseIRKSt10unique_ptrIiSt14default_deleteIiEEEE, i32 0, i32 1, ptr @_ZTIN7testing25MatcherDescriberInterfaceE, i64 0 }, comdat, align 8
@_ZTIN7testing7MatcherIRKSt10unique_ptrIiSt14default_deleteIiEEEE = linkonce_odr dso_local constant { ptr, ptr, ptr } { ptr getelementptr inbounds (ptr, ptr @_ZTVN10__cxxabiv120__si_class_type_infoE, i64 2), ptr @_ZTSN7testing7MatcherIRKSt10unique_ptrIiSt14default_deleteIiEEEE, ptr @_ZTIN7testing8internal11MatcherBaseIRKSt10unique_ptrIiSt14default_deleteIiEEEE }, comdat, align 8
@_ZTVN7testing8internal11MatcherBaseIRKSt10unique_ptrIiSt14default_deleteIiEEEE = linkonce_odr dso_local unnamed_addr constant { [6 x ptr] } { [6 x ptr] [ptr null, ptr @_ZTIN7testing8internal11MatcherBaseIRKSt10unique_ptrIiSt14default_deleteIiEEEE, ptr @_ZN7testing8internal11MatcherBaseIRKSt10unique_ptrIiSt14default_deleteIiEEED2Ev, ptr @_ZN7testing8internal11MatcherBaseIRKSt10unique_ptrIiSt14default_deleteIiEEED0Ev, ptr @_ZNK7testing8internal11MatcherBaseIRKSt10unique_ptrIiSt14default_deleteIiEEE10DescribeToEPSo, ptr @_ZNK7testing8internal11MatcherBaseIRKSt10unique_ptrIiSt14default_deleteIiEEE18DescribeNegationToEPSo] }, comdat, align 8
@_ZZN7testing8internal11MatcherBaseIRKSt10unique_ptrIiSt14default_deleteIiEEE9GetVTableINS8_11ValuePolicyIPKNS_16MatcherInterfaceIS7_EELb1EEEEEPKNS8_6VTableEvE7kVTable = linkonce_odr dso_local constant %"struct.testing::internal::MatcherBase<const std::unique_ptr<int> &>::VTable" { ptr @_ZN7testing8internal11MatcherBaseIRKSt10unique_ptrIiSt14default_deleteIiEEE19MatchAndExplainImplINS8_11ValuePolicyIPKNS_16MatcherInterfaceIS7_EELb1EEEEEDTcldtclsrT_3Getfp_E15MatchAndExplainfp0_fp1_EERKS8_S7_PNS_19MatchResultListenerE, ptr @_ZN7testing8internal11MatcherBaseIRKSt10unique_ptrIiSt14default_deleteIiEEE12DescribeImplINS8_11ValuePolicyIPKNS_16MatcherInterfaceIS7_EELb1EEEEEvRKS8_PSob, ptr @_ZN7testing8internal11MatcherBaseIRKSt10unique_ptrIiSt14default_deleteIiEEE16GetDescriberImplINS8_11ValuePolicyIPKNS_16MatcherInterfaceIS7_EELb1EEEEEPKNS_25MatcherDescriberInterfaceERKS8_, ptr @_ZN7testing8internal13SharedPayloadISt10unique_ptrIKNS_16MatcherInterfaceIRKS2_IiSt14default_deleteIiEEEES4_ISA_EEE7DestroyEPNS0_17SharedPayloadBaseE }, comdat, align 8
@_ZTVN7testing25StringMatchResultListenerE = linkonce_odr dso_local unnamed_addr constant { [4 x ptr] } { [4 x ptr] [ptr null, ptr @_ZTIN7testing25StringMatchResultListenerE, ptr @_ZN7testing25StringMatchResultListenerD2Ev, ptr @_ZN7testing25StringMatchResultListenerD0Ev] }, comdat, align 8
@_ZTSN7testing25StringMatchResultListenerE = linkonce_odr dso_local constant [38 x i8] c"N7testing25StringMatchResultListenerE\00", comdat, align 1
@_ZTIN7testing25StringMatchResultListenerE = linkonce_odr dso_local constant { ptr, ptr, ptr } { ptr getelementptr inbounds (ptr, ptr @_ZTVN10__cxxabiv120__si_class_type_infoE, i64 2), ptr @_ZTSN7testing25StringMatchResultListenerE, ptr @_ZTIN7testing19MatchResultListenerE }, comdat, align 8
@.str.83 = private unnamed_addr constant [10 x i8] c"(nullptr)\00", align 1
@.str.84 = private unnamed_addr constant [8 x i8] c"(ptr = \00", align 1
@.str.85 = private unnamed_addr constant [11 x i8] c", value = \00", align 1
@_ZTSSt10unique_ptrIiSt14default_deleteIiEE = linkonce_odr dso_local constant [39 x i8] c"St10unique_ptrIiSt14default_deleteIiEE\00", comdat, align 1
@_ZTISt10unique_ptrIiSt14default_deleteIiEE = linkonce_odr dso_local constant { ptr, ptr } { ptr getelementptr inbounds (ptr, ptr @_ZTVN10__cxxabiv117__class_type_infoE, i64 2), ptr @_ZTSSt10unique_ptrIiSt14default_deleteIiEE }, comdat, align 8
@_ZTVN7testing8internal15TestFactoryImplIN4absl13base_internal12_GLOBAL__N_126InvokeTest_VoidResult_TestEEE = internal unnamed_addr constant { [5 x ptr] } { [5 x ptr] [ptr null, ptr @_ZTIN7testing8internal15TestFactoryImplIN4absl13base_internal12_GLOBAL__N_126InvokeTest_VoidResult_TestEEE, ptr @_ZN7testing8internal15TestFactoryImplIN4absl13base_internal12_GLOBAL__N_126InvokeTest_VoidResult_TestEED2Ev, ptr @_ZN7testing8internal15TestFactoryImplIN4absl13base_internal12_GLOBAL__N_126InvokeTest_VoidResult_TestEED0Ev, ptr @_ZN7testing8internal15TestFactoryImplIN4absl13base_internal12_GLOBAL__N_126InvokeTest_VoidResult_TestEE10CreateTestEv] }, align 8
@_ZTSN7testing8internal15TestFactoryImplIN4absl13base_internal12_GLOBAL__N_126InvokeTest_VoidResult_TestEEE = internal constant [103 x i8] c"N7testing8internal15TestFactoryImplIN4absl13base_internal12_GLOBAL__N_126InvokeTest_VoidResult_TestEEE\00", align 1
@_ZTIN7testing8internal15TestFactoryImplIN4absl13base_internal12_GLOBAL__N_126InvokeTest_VoidResult_TestEEE = internal constant { ptr, ptr, ptr } { ptr getelementptr inbounds (ptr, ptr @_ZTVN10__cxxabiv120__si_class_type_infoE, i64 2), ptr @_ZTSN7testing8internal15TestFactoryImplIN4absl13base_internal12_GLOBAL__N_126InvokeTest_VoidResult_TestEEE, ptr @_ZTIN7testing8internal15TestFactoryBaseE }, align 8
@_ZTVN4absl13base_internal12_GLOBAL__N_126InvokeTest_VoidResult_TestE = internal unnamed_addr constant { [8 x ptr] } { [8 x ptr] [ptr null, ptr @_ZTIN4absl13base_internal12_GLOBAL__N_126InvokeTest_VoidResult_TestE, ptr @_ZN4absl13base_internal12_GLOBAL__N_126InvokeTest_VoidResult_TestD2Ev, ptr @_ZN4absl13base_internal12_GLOBAL__N_126InvokeTest_VoidResult_TestD0Ev, ptr @_ZN7testing4Test5SetUpEv, ptr @_ZN7testing4Test8TearDownEv, ptr @_ZN4absl13base_internal12_GLOBAL__N_126InvokeTest_VoidResult_Test8TestBodyEv, ptr @_ZN7testing4Test5SetupEv] }, align 8
@_ZTSN4absl13base_internal12_GLOBAL__N_126InvokeTest_VoidResult_TestE = internal constant [65 x i8] c"N4absl13base_internal12_GLOBAL__N_126InvokeTest_VoidResult_TestE\00", align 1
@_ZTIN4absl13base_internal12_GLOBAL__N_126InvokeTest_VoidResult_TestE = internal constant { ptr, ptr, ptr } { ptr getelementptr inbounds (ptr, ptr @_ZTVN10__cxxabiv120__si_class_type_infoE, i64 2), ptr @_ZTSN4absl13base_internal12_GLOBAL__N_126InvokeTest_VoidResult_TestE, ptr @_ZTIN7testing4TestE }, align 8
@_ZTVN7testing8internal15TestFactoryImplIN4absl13base_internal12_GLOBAL__N_128InvokeTest_ConstFunctor_TestEEE = internal unnamed_addr constant { [5 x ptr] } { [5 x ptr] [ptr null, ptr @_ZTIN7testing8internal15TestFactoryImplIN4absl13base_internal12_GLOBAL__N_128InvokeTest_ConstFunctor_TestEEE, ptr @_ZN7testing8internal15TestFactoryImplIN4absl13base_internal12_GLOBAL__N_128InvokeTest_ConstFunctor_TestEED2Ev, ptr @_ZN7testing8internal15TestFactoryImplIN4absl13base_internal12_GLOBAL__N_128InvokeTest_ConstFunctor_TestEED0Ev, ptr @_ZN7testing8internal15TestFactoryImplIN4absl13base_internal12_GLOBAL__N_128InvokeTest_ConstFunctor_TestEE10CreateTestEv] }, align 8
@_ZTSN7testing8internal15TestFactoryImplIN4absl13base_internal12_GLOBAL__N_128InvokeTest_ConstFunctor_TestEEE = internal constant [105 x i8] c"N7testing8internal15TestFactoryImplIN4absl13base_internal12_GLOBAL__N_128InvokeTest_ConstFunctor_TestEEE\00", align 1
@_ZTIN7testing8internal15TestFactoryImplIN4absl13base_internal12_GLOBAL__N_128InvokeTest_ConstFunctor_TestEEE = internal constant { ptr, ptr, ptr } { ptr getelementptr inbounds (ptr, ptr @_ZTVN10__cxxabiv120__si_class_type_infoE, i64 2), ptr @_ZTSN7testing8internal15TestFactoryImplIN4absl13base_internal12_GLOBAL__N_128InvokeTest_ConstFunctor_TestEEE, ptr @_ZTIN7testing8internal15TestFactoryBaseE }, align 8
@_ZTVN4absl13base_internal12_GLOBAL__N_128InvokeTest_ConstFunctor_TestE = internal unnamed_addr constant { [8 x ptr] } { [8 x ptr] [ptr null, ptr @_ZTIN4absl13base_internal12_GLOBAL__N_128InvokeTest_ConstFunctor_TestE, ptr @_ZN4absl13base_internal12_GLOBAL__N_128InvokeTest_ConstFunctor_TestD2Ev, ptr @_ZN4absl13base_internal12_GLOBAL__N_128InvokeTest_ConstFunctor_TestD0Ev, ptr @_ZN7testing4Test5SetUpEv, ptr @_ZN7testing4Test8TearDownEv, ptr @_ZN4absl13base_internal12_GLOBAL__N_128InvokeTest_ConstFunctor_Test8TestBodyEv, ptr @_ZN7testing4Test5SetupEv] }, align 8
@_ZTSN4absl13base_internal12_GLOBAL__N_128InvokeTest_ConstFunctor_TestE = internal constant [67 x i8] c"N4absl13base_internal12_GLOBAL__N_128InvokeTest_ConstFunctor_TestE\00", align 1
@_ZTIN4absl13base_internal12_GLOBAL__N_128InvokeTest_ConstFunctor_TestE = internal constant { ptr, ptr, ptr } { ptr getelementptr inbounds (ptr, ptr @_ZTVN10__cxxabiv120__si_class_type_infoE, i64 2), ptr @_ZTSN4absl13base_internal12_GLOBAL__N_128InvokeTest_ConstFunctor_TestE, ptr @_ZTIN7testing4TestE }, align 8
@_ZTVN7testing8internal15TestFactoryImplIN4absl13base_internal12_GLOBAL__N_130InvokeTest_MutableFunctor_TestEEE = internal unnamed_addr constant { [5 x ptr] } { [5 x ptr] [ptr null, ptr @_ZTIN7testing8internal15TestFactoryImplIN4absl13base_internal12_GLOBAL__N_130InvokeTest_MutableFunctor_TestEEE, ptr @_ZN7testing8internal15TestFactoryImplIN4absl13base_internal12_GLOBAL__N_130InvokeTest_MutableFunctor_TestEED2Ev, ptr @_ZN7testing8internal15TestFactoryImplIN4absl13base_internal12_GLOBAL__N_130InvokeTest_MutableFunctor_TestEED0Ev, ptr @_ZN7testing8internal15TestFactoryImplIN4absl13base_internal12_GLOBAL__N_130InvokeTest_MutableFunctor_TestEE10CreateTestEv] }, align 8
@_ZTSN7testing8internal15TestFactoryImplIN4absl13base_internal12_GLOBAL__N_130InvokeTest_MutableFunctor_TestEEE = internal constant [107 x i8] c"N7testing8internal15TestFactoryImplIN4absl13base_internal12_GLOBAL__N_130InvokeTest_MutableFunctor_TestEEE\00", align 1
@_ZTIN7testing8internal15TestFactoryImplIN4absl13base_internal12_GLOBAL__N_130InvokeTest_MutableFunctor_TestEEE = internal constant { ptr, ptr, ptr } { ptr getelementptr inbounds (ptr, ptr @_ZTVN10__cxxabiv120__si_class_type_infoE, i64 2), ptr @_ZTSN7testing8internal15TestFactoryImplIN4absl13base_internal12_GLOBAL__N_130InvokeTest_MutableFunctor_TestEEE, ptr @_ZTIN7testing8internal15TestFactoryBaseE }, align 8
@_ZTVN4absl13base_internal12_GLOBAL__N_130InvokeTest_MutableFunctor_TestE = internal unnamed_addr constant { [8 x ptr] } { [8 x ptr] [ptr null, ptr @_ZTIN4absl13base_internal12_GLOBAL__N_130InvokeTest_MutableFunctor_TestE, ptr @_ZN4absl13base_internal12_GLOBAL__N_130InvokeTest_MutableFunctor_TestD2Ev, ptr @_ZN4absl13base_internal12_GLOBAL__N_130InvokeTest_MutableFunctor_TestD0Ev, ptr @_ZN7testing4Test5SetUpEv, ptr @_ZN7testing4Test8TearDownEv, ptr @_ZN4absl13base_internal12_GLOBAL__N_130InvokeTest_MutableFunctor_Test8TestBodyEv, ptr @_ZN7testing4Test5SetupEv] }, align 8
@_ZTSN4absl13base_internal12_GLOBAL__N_130InvokeTest_MutableFunctor_TestE = internal constant [69 x i8] c"N4absl13base_internal12_GLOBAL__N_130InvokeTest_MutableFunctor_TestE\00", align 1
@_ZTIN4absl13base_internal12_GLOBAL__N_130InvokeTest_MutableFunctor_TestE = internal constant { ptr, ptr, ptr } { ptr getelementptr inbounds (ptr, ptr @_ZTVN10__cxxabiv120__si_class_type_infoE, i64 2), ptr @_ZTSN4absl13base_internal12_GLOBAL__N_130InvokeTest_MutableFunctor_TestE, ptr @_ZTIN7testing4TestE }, align 8
@_ZTVN7testing8internal15TestFactoryImplIN4absl13base_internal12_GLOBAL__N_132InvokeTest_EphemeralFunctor_TestEEE = internal unnamed_addr constant { [5 x ptr] } { [5 x ptr] [ptr null, ptr @_ZTIN7testing8internal15TestFactoryImplIN4absl13base_internal12_GLOBAL__N_132InvokeTest_EphemeralFunctor_TestEEE, ptr @_ZN7testing8internal15TestFactoryImplIN4absl13base_internal12_GLOBAL__N_132InvokeTest_EphemeralFunctor_TestEED2Ev, ptr @_ZN7testing8internal15TestFactoryImplIN4absl13base_internal12_GLOBAL__N_132InvokeTest_EphemeralFunctor_TestEED0Ev, ptr @_ZN7testing8internal15TestFactoryImplIN4absl13base_internal12_GLOBAL__N_132InvokeTest_EphemeralFunctor_TestEE10CreateTestEv] }, align 8
@_ZTSN7testing8internal15TestFactoryImplIN4absl13base_internal12_GLOBAL__N_132InvokeTest_EphemeralFunctor_TestEEE = internal constant [109 x i8] c"N7testing8internal15TestFactoryImplIN4absl13base_internal12_GLOBAL__N_132InvokeTest_EphemeralFunctor_TestEEE\00", align 1
@_ZTIN7testing8internal15TestFactoryImplIN4absl13base_internal12_GLOBAL__N_132InvokeTest_EphemeralFunctor_TestEEE = internal constant { ptr, ptr, ptr } { ptr getelementptr inbounds (ptr, ptr @_ZTVN10__cxxabiv120__si_class_type_infoE, i64 2), ptr @_ZTSN7testing8internal15TestFactoryImplIN4absl13base_internal12_GLOBAL__N_132InvokeTest_EphemeralFunctor_TestEEE, ptr @_ZTIN7testing8internal15TestFactoryBaseE }, align 8
@_ZTVN4absl13base_internal12_GLOBAL__N_132InvokeTest_EphemeralFunctor_TestE = internal unnamed_addr constant { [8 x ptr] } { [8 x ptr] [ptr null, ptr @_ZTIN4absl13base_internal12_GLOBAL__N_132InvokeTest_EphemeralFunctor_TestE, ptr @_ZN4absl13base_internal12_GLOBAL__N_132InvokeTest_EphemeralFunctor_TestD2Ev, ptr @_ZN4absl13base_internal12_GLOBAL__N_132InvokeTest_EphemeralFunctor_TestD0Ev, ptr @_ZN7testing4Test5SetUpEv, ptr @_ZN7testing4Test8TearDownEv, ptr @_ZN4absl13base_internal12_GLOBAL__N_132InvokeTest_EphemeralFunctor_Test8TestBodyEv, ptr @_ZN7testing4Test5SetupEv] }, align 8
@_ZTSN4absl13base_internal12_GLOBAL__N_132InvokeTest_EphemeralFunctor_TestE = internal constant [71 x i8] c"N4absl13base_internal12_GLOBAL__N_132InvokeTest_EphemeralFunctor_TestE\00", align 1
@_ZTIN4absl13base_internal12_GLOBAL__N_132InvokeTest_EphemeralFunctor_TestE = internal constant { ptr, ptr, ptr } { ptr getelementptr inbounds (ptr, ptr @_ZTVN10__cxxabiv120__si_class_type_infoE, i64 2), ptr @_ZTSN4absl13base_internal12_GLOBAL__N_132InvokeTest_EphemeralFunctor_TestE, ptr @_ZTIN7testing4TestE }, align 8
@_ZTVN7testing8internal15TestFactoryImplIN4absl13base_internal12_GLOBAL__N_133InvokeTest_OverloadedFunctor_TestEEE = internal unnamed_addr constant { [5 x ptr] } { [5 x ptr] [ptr null, ptr @_ZTIN7testing8internal15TestFactoryImplIN4absl13base_internal12_GLOBAL__N_133InvokeTest_OverloadedFunctor_TestEEE, ptr @_ZN7testing8internal15TestFactoryImplIN4absl13base_internal12_GLOBAL__N_133InvokeTest_OverloadedFunctor_TestEED2Ev, ptr @_ZN7testing8internal15TestFactoryImplIN4absl13base_internal12_GLOBAL__N_133InvokeTest_OverloadedFunctor_TestEED0Ev, ptr @_ZN7testing8internal15TestFactoryImplIN4absl13base_internal12_GLOBAL__N_133InvokeTest_OverloadedFunctor_TestEE10CreateTestEv] }, align 8
@_ZTSN7testing8internal15TestFactoryImplIN4absl13base_internal12_GLOBAL__N_133InvokeTest_OverloadedFunctor_TestEEE = internal constant [110 x i8] c"N7testing8internal15TestFactoryImplIN4absl13base_internal12_GLOBAL__N_133InvokeTest_OverloadedFunctor_TestEEE\00", align 1
@_ZTIN7testing8internal15TestFactoryImplIN4absl13base_internal12_GLOBAL__N_133InvokeTest_OverloadedFunctor_TestEEE = internal constant { ptr, ptr, ptr } { ptr getelementptr inbounds (ptr, ptr @_ZTVN10__cxxabiv120__si_class_type_infoE, i64 2), ptr @_ZTSN7testing8internal15TestFactoryImplIN4absl13base_internal12_GLOBAL__N_133InvokeTest_OverloadedFunctor_TestEEE, ptr @_ZTIN7testing8internal15TestFactoryBaseE }, align 8
@_ZTVN4absl13base_internal12_GLOBAL__N_133InvokeTest_OverloadedFunctor_TestE = internal unnamed_addr constant { [8 x ptr] } { [8 x ptr] [ptr null, ptr @_ZTIN4absl13base_internal12_GLOBAL__N_133InvokeTest_OverloadedFunctor_TestE, ptr @_ZN4absl13base_internal12_GLOBAL__N_133InvokeTest_OverloadedFunctor_TestD2Ev, ptr @_ZN4absl13base_internal12_GLOBAL__N_133InvokeTest_OverloadedFunctor_TestD0Ev, ptr @_ZN7testing4Test5SetUpEv, ptr @_ZN7testing4Test8TearDownEv, ptr @_ZN4absl13base_internal12_GLOBAL__N_133InvokeTest_OverloadedFunctor_Test8TestBodyEv, ptr @_ZN7testing4Test5SetupEv] }, align 8
@_ZTSN4absl13base_internal12_GLOBAL__N_133InvokeTest_OverloadedFunctor_TestE = internal constant [72 x i8] c"N4absl13base_internal12_GLOBAL__N_133InvokeTest_OverloadedFunctor_TestE\00", align 1
@_ZTIN4absl13base_internal12_GLOBAL__N_133InvokeTest_OverloadedFunctor_TestE = internal constant { ptr, ptr, ptr } { ptr getelementptr inbounds (ptr, ptr @_ZTVN10__cxxabiv120__si_class_type_infoE, i64 2), ptr @_ZTSN4absl13base_internal12_GLOBAL__N_133InvokeTest_OverloadedFunctor_TestE, ptr @_ZTIN7testing4TestE }, align 8
@.str.91 = private unnamed_addr constant [4 x i8] c"\22&\22\00", align 1
@.str.92 = private unnamed_addr constant [25 x i8] c"base_internal::invoke(f)\00", align 1
@.str.93 = private unnamed_addr constant [2 x i8] c"&\00", align 1
@.str.94 = private unnamed_addr constant [7 x i8] c"\22& 42\22\00", align 1
@.str.95 = private unnamed_addr constant [32 x i8] c"base_internal::invoke(f, \22 42\22)\00", align 1
@.str.96 = private unnamed_addr constant [5 x i8] c"& 42\00", align 1
@.str.97 = private unnamed_addr constant [4 x i8] c" 42\00", align 1
@.str.98 = private unnamed_addr constant [9 x i8] c"\22const&\22\00", align 1
@.str.99 = private unnamed_addr constant [26 x i8] c"base_internal::invoke(cf)\00", align 1
@.str.100 = private unnamed_addr constant [7 x i8] c"const&\00", align 1
@.str.101 = private unnamed_addr constant [12 x i8] c"\22const& 42\22\00", align 1
@.str.102 = private unnamed_addr constant [33 x i8] c"base_internal::invoke(cf, \22 42\22)\00", align 1
@.str.103 = private unnamed_addr constant [10 x i8] c"const& 42\00", align 1
@.str.104 = private unnamed_addr constant [5 x i8] c"\22&&\22\00", align 1
@.str.105 = private unnamed_addr constant [36 x i8] c"base_internal::invoke(std::move(f))\00", align 1
@.str.106 = private unnamed_addr constant [3 x i8] c"&&\00", align 1
@.str.107 = private unnamed_addr constant [8 x i8] c"\22&& 42\22\00", align 1
@.str.108 = private unnamed_addr constant [44 x i8] c"base_internal::invoke(std::move(f2), \22 42\22)\00", align 1
@.str.109 = private unnamed_addr constant [6 x i8] c"&& 42\00", align 1
@.str.110 = private unnamed_addr constant [5 x i8] c"NULL\00", align 1
@_ZTVN7testing8internal15TestFactoryImplIN4absl13base_internal12_GLOBAL__N_132InvokeTest_ReferenceWrapper_TestEEE = internal unnamed_addr constant { [5 x ptr] } { [5 x ptr] [ptr null, ptr @_ZTIN7testing8internal15TestFactoryImplIN4absl13base_internal12_GLOBAL__N_132InvokeTest_ReferenceWrapper_TestEEE, ptr @_ZN7testing8internal15TestFactoryImplIN4absl13base_internal12_GLOBAL__N_132InvokeTest_ReferenceWrapper_TestEED2Ev, ptr @_ZN7testing8internal15TestFactoryImplIN4absl13base_internal12_GLOBAL__N_132InvokeTest_ReferenceWrapper_TestEED0Ev, ptr @_ZN7testing8internal15TestFactoryImplIN4absl13base_internal12_GLOBAL__N_132InvokeTest_ReferenceWrapper_TestEE10CreateTestEv] }, align 8
@_ZTSN7testing8internal15TestFactoryImplIN4absl13base_internal12_GLOBAL__N_132InvokeTest_ReferenceWrapper_TestEEE = internal constant [109 x i8] c"N7testing8internal15TestFactoryImplIN4absl13base_internal12_GLOBAL__N_132InvokeTest_ReferenceWrapper_TestEEE\00", align 1
@_ZTIN7testing8internal15TestFactoryImplIN4absl13base_internal12_GLOBAL__N_132InvokeTest_ReferenceWrapper_TestEEE = internal constant { ptr, ptr, ptr } { ptr getelementptr inbounds (ptr, ptr @_ZTVN10__cxxabiv120__si_class_type_infoE, i64 2), ptr @_ZTSN7testing8internal15TestFactoryImplIN4absl13base_internal12_GLOBAL__N_132InvokeTest_ReferenceWrapper_TestEEE, ptr @_ZTIN7testing8internal15TestFactoryBaseE }, align 8
@_ZTVN4absl13base_internal12_GLOBAL__N_132InvokeTest_ReferenceWrapper_TestE = internal unnamed_addr constant { [8 x ptr] } { [8 x ptr] [ptr null, ptr @_ZTIN4absl13base_internal12_GLOBAL__N_132InvokeTest_ReferenceWrapper_TestE, ptr @_ZN4absl13base_internal12_GLOBAL__N_132InvokeTest_ReferenceWrapper_TestD2Ev, ptr @_ZN4absl13base_internal12_GLOBAL__N_132InvokeTest_ReferenceWrapper_TestD0Ev, ptr @_ZN7testing4Test5SetUpEv, ptr @_ZN7testing4Test8TearDownEv, ptr @_ZN4absl13base_internal12_GLOBAL__N_132InvokeTest_ReferenceWrapper_Test8TestBodyEv, ptr @_ZN7testing4Test5SetupEv] }, align 8
@_ZTSN4absl13base_internal12_GLOBAL__N_132InvokeTest_ReferenceWrapper_TestE = internal constant [71 x i8] c"N4absl13base_internal12_GLOBAL__N_132InvokeTest_ReferenceWrapper_TestE\00", align 1
@_ZTIN4absl13base_internal12_GLOBAL__N_132InvokeTest_ReferenceWrapper_TestE = internal constant { ptr, ptr, ptr } { ptr getelementptr inbounds (ptr, ptr @_ZTVN10__cxxabiv120__si_class_type_infoE, i64 2), ptr @_ZTSN4absl13base_internal12_GLOBAL__N_132InvokeTest_ReferenceWrapper_TestE, ptr @_ZTIN7testing4TestE }, align 8
@_ZTVN7testing8internal15TestFactoryImplIN4absl13base_internal12_GLOBAL__N_130InvokeTest_MemberFunction_TestEEE = internal unnamed_addr constant { [5 x ptr] } { [5 x ptr] [ptr null, ptr @_ZTIN7testing8internal15TestFactoryImplIN4absl13base_internal12_GLOBAL__N_130InvokeTest_MemberFunction_TestEEE, ptr @_ZN7testing8internal15TestFactoryImplIN4absl13base_internal12_GLOBAL__N_130InvokeTest_MemberFunction_TestEED2Ev, ptr @_ZN7testing8internal15TestFactoryImplIN4absl13base_internal12_GLOBAL__N_130InvokeTest_MemberFunction_TestEED0Ev, ptr @_ZN7testing8internal15TestFactoryImplIN4absl13base_internal12_GLOBAL__N_130InvokeTest_MemberFunction_TestEE10CreateTestEv] }, align 8
@_ZTSN7testing8internal15TestFactoryImplIN4absl13base_internal12_GLOBAL__N_130InvokeTest_MemberFunction_TestEEE = internal constant [107 x i8] c"N7testing8internal15TestFactoryImplIN4absl13base_internal12_GLOBAL__N_130InvokeTest_MemberFunction_TestEEE\00", align 1
@_ZTIN7testing8internal15TestFactoryImplIN4absl13base_internal12_GLOBAL__N_130InvokeTest_MemberFunction_TestEEE = internal constant { ptr, ptr, ptr } { ptr getelementptr inbounds (ptr, ptr @_ZTVN10__cxxabiv120__si_class_type_infoE, i64 2), ptr @_ZTSN7testing8internal15TestFactoryImplIN4absl13base_internal12_GLOBAL__N_130InvokeTest_MemberFunction_TestEEE, ptr @_ZTIN7testing8internal15TestFactoryBaseE }, align 8
@_ZTVN4absl13base_internal12_GLOBAL__N_130InvokeTest_MemberFunction_TestE = internal unnamed_addr constant { [8 x ptr] } { [8 x ptr] [ptr null, ptr @_ZTIN4absl13base_internal12_GLOBAL__N_130InvokeTest_MemberFunction_TestE, ptr @_ZN4absl13base_internal12_GLOBAL__N_130InvokeTest_MemberFunction_TestD2Ev, ptr @_ZN4absl13base_internal12_GLOBAL__N_130InvokeTest_MemberFunction_TestD0Ev, ptr @_ZN7testing4Test5SetUpEv, ptr @_ZN7testing4Test8TearDownEv, ptr @_ZN4absl13base_internal12_GLOBAL__N_130InvokeTest_MemberFunction_Test8TestBodyEv, ptr @_ZN7testing4Test5SetupEv] }, align 8
@_ZTSN4absl13base_internal12_GLOBAL__N_130InvokeTest_MemberFunction_TestE = internal constant [69 x i8] c"N4absl13base_internal12_GLOBAL__N_130InvokeTest_MemberFunction_TestE\00", align 1
@_ZTIN4absl13base_internal12_GLOBAL__N_130InvokeTest_MemberFunction_TestE = internal constant { ptr, ptr, ptr } { ptr getelementptr inbounds (ptr, ptr @_ZTVN10__cxxabiv120__si_class_type_infoE, i64 2), ptr @_ZTSN4absl13base_internal12_GLOBAL__N_130InvokeTest_MemberFunction_TestE, ptr @_ZTIN7testing4TestE }, align 8
@_ZTVN7testing8internal15TestFactoryImplIN4absl13base_internal12_GLOBAL__N_126InvokeTest_DataMember_TestEEE = internal unnamed_addr constant { [5 x ptr] } { [5 x ptr] [ptr null, ptr @_ZTIN7testing8internal15TestFactoryImplIN4absl13base_internal12_GLOBAL__N_126InvokeTest_DataMember_TestEEE, ptr @_ZN7testing8internal15TestFactoryImplIN4absl13base_internal12_GLOBAL__N_126InvokeTest_DataMember_TestEED2Ev, ptr @_ZN7testing8internal15TestFactoryImplIN4absl13base_internal12_GLOBAL__N_126InvokeTest_DataMember_TestEED0Ev, ptr @_ZN7testing8internal15TestFactoryImplIN4absl13base_internal12_GLOBAL__N_126InvokeTest_DataMember_TestEE10CreateTestEv] }, align 8
@_ZTSN7testing8internal15TestFactoryImplIN4absl13base_internal12_GLOBAL__N_126InvokeTest_DataMember_TestEEE = internal constant [103 x i8] c"N7testing8internal15TestFactoryImplIN4absl13base_internal12_GLOBAL__N_126InvokeTest_DataMember_TestEEE\00", align 1
@_ZTIN7testing8internal15TestFactoryImplIN4absl13base_internal12_GLOBAL__N_126InvokeTest_DataMember_TestEEE = internal constant { ptr, ptr, ptr } { ptr getelementptr inbounds (ptr, ptr @_ZTVN10__cxxabiv120__si_class_type_infoE, i64 2), ptr @_ZTSN7testing8internal15TestFactoryImplIN4absl13base_internal12_GLOBAL__N_126InvokeTest_DataMember_TestEEE, ptr @_ZTIN7testing8internal15TestFactoryBaseE }, align 8
@_ZTVN4absl13base_internal12_GLOBAL__N_126InvokeTest_DataMember_TestE = internal unnamed_addr constant { [8 x ptr] } { [8 x ptr] [ptr null, ptr @_ZTIN4absl13base_internal12_GLOBAL__N_126InvokeTest_DataMember_TestE, ptr @_ZN4absl13base_internal12_GLOBAL__N_126InvokeTest_DataMember_TestD2Ev, ptr @_ZN4absl13base_internal12_GLOBAL__N_126InvokeTest_DataMember_TestD0Ev, ptr @_ZN7testing4Test5SetUpEv, ptr @_ZN7testing4Test8TearDownEv, ptr @_ZN4absl13base_internal12_GLOBAL__N_126InvokeTest_DataMember_Test8TestBodyEv, ptr @_ZN7testing4Test5SetupEv] }, align 8
@_ZTSN4absl13base_internal12_GLOBAL__N_126InvokeTest_DataMember_TestE = internal constant [65 x i8] c"N4absl13base_internal12_GLOBAL__N_126InvokeTest_DataMember_TestE\00", align 1
@_ZTIN4absl13base_internal12_GLOBAL__N_126InvokeTest_DataMember_TestE = internal constant { ptr, ptr, ptr } { ptr getelementptr inbounds (ptr, ptr @_ZTVN10__cxxabiv120__si_class_type_infoE, i64 2), ptr @_ZTSN4absl13base_internal12_GLOBAL__N_126InvokeTest_DataMember_TestE, ptr @_ZTIN7testing4TestE }, align 8
@.str.140 = private unnamed_addr constant [42 x i8] c"base_internal::invoke(&Class::member, *p)\00", align 1
@.str.141 = private unnamed_addr constant [47 x i8] c"base_internal::invoke(&Class::member, p.get())\00", align 1
@.str.142 = private unnamed_addr constant [42 x i8] c"base_internal::invoke(&Class::member, cp)\00", align 1
@.str.143 = private unnamed_addr constant [43 x i8] c"base_internal::invoke(&Class::member, *cp)\00", align 1
@.str.144 = private unnamed_addr constant [48 x i8] c"base_internal::invoke(&Class::member, cp.get())\00", align 1
@_ZTVN7testing8internal15TestFactoryImplIN4absl13base_internal12_GLOBAL__N_124InvokeTest_FlipFlop_TestEEE = internal unnamed_addr constant { [5 x ptr] } { [5 x ptr] [ptr null, ptr @_ZTIN7testing8internal15TestFactoryImplIN4absl13base_internal12_GLOBAL__N_124InvokeTest_FlipFlop_TestEEE, ptr @_ZN7testing8internal15TestFactoryImplIN4absl13base_internal12_GLOBAL__N_124InvokeTest_FlipFlop_TestEED2Ev, ptr @_ZN7testing8internal15TestFactoryImplIN4absl13base_internal12_GLOBAL__N_124InvokeTest_FlipFlop_TestEED0Ev, ptr @_ZN7testing8internal15TestFactoryImplIN4absl13base_internal12_GLOBAL__N_124InvokeTest_FlipFlop_TestEE10CreateTestEv] }, align 8
@_ZTSN7testing8internal15TestFactoryImplIN4absl13base_internal12_GLOBAL__N_124InvokeTest_FlipFlop_TestEEE = internal constant [101 x i8] c"N7testing8internal15TestFactoryImplIN4absl13base_internal12_GLOBAL__N_124InvokeTest_FlipFlop_TestEEE\00", align 1
@_ZTIN7testing8internal15TestFactoryImplIN4absl13base_internal12_GLOBAL__N_124InvokeTest_FlipFlop_TestEEE = internal constant { ptr, ptr, ptr } { ptr getelementptr inbounds (ptr, ptr @_ZTVN10__cxxabiv120__si_class_type_infoE, i64 2), ptr @_ZTSN7testing8internal15TestFactoryImplIN4absl13base_internal12_GLOBAL__N_124InvokeTest_FlipFlop_TestEEE, ptr @_ZTIN7testing8internal15TestFactoryBaseE }, align 8
@_ZTVN4absl13base_internal12_GLOBAL__N_124InvokeTest_FlipFlop_TestE = internal unnamed_addr constant { [8 x ptr] } { [8 x ptr] [ptr null, ptr @_ZTIN4absl13base_internal12_GLOBAL__N_124InvokeTest_FlipFlop_TestE, ptr @_ZN4absl13base_internal12_GLOBAL__N_124InvokeTest_FlipFlop_TestD2Ev, ptr @_ZN4absl13base_internal12_GLOBAL__N_124InvokeTest_FlipFlop_TestD0Ev, ptr @_ZN7testing4Test5SetUpEv, ptr @_ZN7testing4Test8TearDownEv, ptr @_ZN4absl13base_internal12_GLOBAL__N_124InvokeTest_FlipFlop_Test8TestBodyEv, ptr @_ZN7testing4Test5SetupEv] }, align 8
@_ZTSN4absl13base_internal12_GLOBAL__N_124InvokeTest_FlipFlop_TestE = internal constant [63 x i8] c"N4absl13base_internal12_GLOBAL__N_124InvokeTest_FlipFlop_TestE\00", align 1
@_ZTIN4absl13base_internal12_GLOBAL__N_124InvokeTest_FlipFlop_TestE = internal constant { ptr, ptr, ptr } { ptr getelementptr inbounds (ptr, ptr @_ZTVN10__cxxabiv120__si_class_type_infoE, i64 2), ptr @_ZTSN4absl13base_internal12_GLOBAL__N_124InvokeTest_FlipFlop_TestE, ptr @_ZTIN7testing4TestE }, align 8
@_ZTVN7testing8internal15TestFactoryImplIN4absl13base_internal12_GLOBAL__N_130InvokeTest_SfinaeFriendly_TestEEE = internal unnamed_addr constant { [5 x ptr] } { [5 x ptr] [ptr null, ptr @_ZTIN7testing8internal15TestFactoryImplIN4absl13base_internal12_GLOBAL__N_130InvokeTest_SfinaeFriendly_TestEEE, ptr @_ZN7testing8internal15TestFactoryImplIN4absl13base_internal12_GLOBAL__N_130InvokeTest_SfinaeFriendly_TestEED2Ev, ptr @_ZN7testing8internal15TestFactoryImplIN4absl13base_internal12_GLOBAL__N_130InvokeTest_SfinaeFriendly_TestEED0Ev, ptr @_ZN7testing8internal15TestFactoryImplIN4absl13base_internal12_GLOBAL__N_130InvokeTest_SfinaeFriendly_TestEE10CreateTestEv] }, align 8
@_ZTSN7testing8internal15TestFactoryImplIN4absl13base_internal12_GLOBAL__N_130InvokeTest_SfinaeFriendly_TestEEE = internal constant [107 x i8] c"N7testing8internal15TestFactoryImplIN4absl13base_internal12_GLOBAL__N_130InvokeTest_SfinaeFriendly_TestEEE\00", align 1
@_ZTIN7testing8internal15TestFactoryImplIN4absl13base_internal12_GLOBAL__N_130InvokeTest_SfinaeFriendly_TestEEE = internal constant { ptr, ptr, ptr } { ptr getelementptr inbounds (ptr, ptr @_ZTVN10__cxxabiv120__si_class_type_infoE, i64 2), ptr @_ZTSN7testing8internal15TestFactoryImplIN4absl13base_internal12_GLOBAL__N_130InvokeTest_SfinaeFriendly_TestEEE, ptr @_ZTIN7testing8internal15TestFactoryBaseE }, align 8
@_ZTVN4absl13base_internal12_GLOBAL__N_130InvokeTest_SfinaeFriendly_TestE = internal unnamed_addr constant { [8 x ptr] } { [8 x ptr] [ptr null, ptr @_ZTIN4absl13base_internal12_GLOBAL__N_130InvokeTest_SfinaeFriendly_TestE, ptr @_ZN4absl13base_internal12_GLOBAL__N_130InvokeTest_SfinaeFriendly_TestD2Ev, ptr @_ZN4absl13base_internal12_GLOBAL__N_130InvokeTest_SfinaeFriendly_TestD0Ev, ptr @_ZN7testing4Test5SetUpEv, ptr @_ZN7testing4Test8TearDownEv, ptr @_ZN4absl13base_internal12_GLOBAL__N_130InvokeTest_SfinaeFriendly_Test8TestBodyEv, ptr @_ZN7testing4Test5SetupEv] }, align 8
@_ZTSN4absl13base_internal12_GLOBAL__N_130InvokeTest_SfinaeFriendly_TestE = internal constant [69 x i8] c"N4absl13base_internal12_GLOBAL__N_130InvokeTest_SfinaeFriendly_TestE\00", align 1
@_ZTIN4absl13base_internal12_GLOBAL__N_130InvokeTest_SfinaeFriendly_TestE = internal constant { ptr, ptr, ptr } { ptr getelementptr inbounds (ptr, ptr @_ZTVN10__cxxabiv120__si_class_type_infoE, i64 2), ptr @_ZTSN4absl13base_internal12_GLOBAL__N_130InvokeTest_SfinaeFriendly_TestE, ptr @_ZTIN7testing4TestE }, align 8
@.str.147 = private unnamed_addr constant [26 x i8] c"CallMaybeWithArg(Factory)\00", align 1
@_ZTVN7testing8internal15TestFactoryImplIN4absl13base_internal12_GLOBAL__N_140IsInvocableRTest_CallableExactMatch_TestEEE = internal unnamed_addr constant { [5 x ptr] } { [5 x ptr] [ptr null, ptr @_ZTIN7testing8internal15TestFactoryImplIN4absl13base_internal12_GLOBAL__N_140IsInvocableRTest_CallableExactMatch_TestEEE, ptr @_ZN7testing8internal15TestFactoryImplIN4absl13base_internal12_GLOBAL__N_140IsInvocableRTest_CallableExactMatch_TestEED2Ev, ptr @_ZN7testing8internal15TestFactoryImplIN4absl13base_internal12_GLOBAL__N_140IsInvocableRTest_CallableExactMatch_TestEED0Ev, ptr @_ZN7testing8internal15TestFactoryImplIN4absl13base_internal12_GLOBAL__N_140IsInvocableRTest_CallableExactMatch_TestEE10CreateTestEv] }, align 8
@_ZTSN7testing8internal15TestFactoryImplIN4absl13base_internal12_GLOBAL__N_140IsInvocableRTest_CallableExactMatch_TestEEE = internal constant [117 x i8] c"N7testing8internal15TestFactoryImplIN4absl13base_internal12_GLOBAL__N_140IsInvocableRTest_CallableExactMatch_TestEEE\00", align 1
@_ZTIN7testing8internal15TestFactoryImplIN4absl13base_internal12_GLOBAL__N_140IsInvocableRTest_CallableExactMatch_TestEEE = internal constant { ptr, ptr, ptr } { ptr getelementptr inbounds (ptr, ptr @_ZTVN10__cxxabiv120__si_class_type_infoE, i64 2), ptr @_ZTSN7testing8internal15TestFactoryImplIN4absl13base_internal12_GLOBAL__N_140IsInvocableRTest_CallableExactMatch_TestEEE, ptr @_ZTIN7testing8internal15TestFactoryBaseE }, align 8
@_ZTVN4absl13base_internal12_GLOBAL__N_140IsInvocableRTest_CallableExactMatch_TestE = internal unnamed_addr constant { [8 x ptr] } { [8 x ptr] [ptr null, ptr @_ZTIN4absl13base_internal12_GLOBAL__N_140IsInvocableRTest_CallableExactMatch_TestE, ptr @_ZN4absl13base_internal12_GLOBAL__N_140IsInvocableRTest_CallableExactMatch_TestD2Ev, ptr @_ZN4absl13base_internal12_GLOBAL__N_140IsInvocableRTest_CallableExactMatch_TestD0Ev, ptr @_ZN7testing4Test5SetUpEv, ptr @_ZN7testing4Test8TearDownEv, ptr @_ZN4absl13base_internal12_GLOBAL__N_140IsInvocableRTest_CallableExactMatch_Test8TestBodyEv, ptr @_ZN7testing4Test5SetupEv] }, align 8
@_ZTSN4absl13base_internal12_GLOBAL__N_140IsInvocableRTest_CallableExactMatch_TestE = internal constant [79 x i8] c"N4absl13base_internal12_GLOBAL__N_140IsInvocableRTest_CallableExactMatch_TestE\00", align 1
@_ZTIN4absl13base_internal12_GLOBAL__N_140IsInvocableRTest_CallableExactMatch_TestE = internal constant { ptr, ptr, ptr } { ptr getelementptr inbounds (ptr, ptr @_ZTVN10__cxxabiv120__si_class_type_infoE, i64 2), ptr @_ZTSN4absl13base_internal12_GLOBAL__N_140IsInvocableRTest_CallableExactMatch_TestE, ptr @_ZTIN7testing4TestE }, align 8
@_ZTVN7testing8internal15TestFactoryImplIN4absl13base_internal12_GLOBAL__N_153IsInvocableRTest_CallableArgumentConversionMatch_TestEEE = internal unnamed_addr constant { [5 x ptr] } { [5 x ptr] [ptr null, ptr @_ZTIN7testing8internal15TestFactoryImplIN4absl13base_internal12_GLOBAL__N_153IsInvocableRTest_CallableArgumentConversionMatch_TestEEE, ptr @_ZN7testing8internal15TestFactoryImplIN4absl13base_internal12_GLOBAL__N_153IsInvocableRTest_CallableArgumentConversionMatch_TestEED2Ev, ptr @_ZN7testing8internal15TestFactoryImplIN4absl13base_internal12_GLOBAL__N_153IsInvocableRTest_CallableArgumentConversionMatch_TestEED0Ev, ptr @_ZN7testing8internal15TestFactoryImplIN4absl13base_internal12_GLOBAL__N_153IsInvocableRTest_CallableArgumentConversionMatch_TestEE10CreateTestEv] }, align 8
@_ZTSN7testing8internal15TestFactoryImplIN4absl13base_internal12_GLOBAL__N_153IsInvocableRTest_CallableArgumentConversionMatch_TestEEE = internal constant [130 x i8] c"N7testing8internal15TestFactoryImplIN4absl13base_internal12_GLOBAL__N_153IsInvocableRTest_CallableArgumentConversionMatch_TestEEE\00", align 1
@_ZTIN7testing8internal15TestFactoryImplIN4absl13base_internal12_GLOBAL__N_153IsInvocableRTest_CallableArgumentConversionMatch_TestEEE = internal constant { ptr, ptr, ptr } { ptr getelementptr inbounds (ptr, ptr @_ZTVN10__cxxabiv120__si_class_type_infoE, i64 2), ptr @_ZTSN7testing8internal15TestFactoryImplIN4absl13base_internal12_GLOBAL__N_153IsInvocableRTest_CallableArgumentConversionMatch_TestEEE, ptr @_ZTIN7testing8internal15TestFactoryBaseE }, align 8
@_ZTVN4absl13base_internal12_GLOBAL__N_153IsInvocableRTest_CallableArgumentConversionMatch_TestE = internal unnamed_addr constant { [8 x ptr] } { [8 x ptr] [ptr null, ptr @_ZTIN4absl13base_internal12_GLOBAL__N_153IsInvocableRTest_CallableArgumentConversionMatch_TestE, ptr @_ZN4absl13base_internal12_GLOBAL__N_153IsInvocableRTest_CallableArgumentConversionMatch_TestD2Ev, ptr @_ZN4absl13base_internal12_GLOBAL__N_153IsInvocableRTest_CallableArgumentConversionMatch_TestD0Ev, ptr @_ZN7testing4Test5SetUpEv, ptr @_ZN7testing4Test8TearDownEv, ptr @_ZN4absl13base_internal12_GLOBAL__N_153IsInvocableRTest_CallableArgumentConversionMatch_Test8TestBodyEv, ptr @_ZN7testing4Test5SetupEv] }, align 8
@_ZTSN4absl13base_internal12_GLOBAL__N_153IsInvocableRTest_CallableArgumentConversionMatch_TestE = internal constant [92 x i8] c"N4absl13base_internal12_GLOBAL__N_153IsInvocableRTest_CallableArgumentConversionMatch_TestE\00", align 1
@_ZTIN4absl13base_internal12_GLOBAL__N_153IsInvocableRTest_CallableArgumentConversionMatch_TestE = internal constant { ptr, ptr, ptr } { ptr getelementptr inbounds (ptr, ptr @_ZTVN10__cxxabiv120__si_class_type_infoE, i64 2), ptr @_ZTSN4absl13base_internal12_GLOBAL__N_153IsInvocableRTest_CallableArgumentConversionMatch_TestE, ptr @_ZTIN7testing4TestE }, align 8
@_ZTVN7testing8internal15TestFactoryImplIN4absl13base_internal12_GLOBAL__N_151IsInvocableRTest_CallableReturnConversionMatch_TestEEE = internal unnamed_addr constant { [5 x ptr] } { [5 x ptr] [ptr null, ptr @_ZTIN7testing8internal15TestFactoryImplIN4absl13base_internal12_GLOBAL__N_151IsInvocableRTest_CallableReturnConversionMatch_TestEEE, ptr @_ZN7testing8internal15TestFactoryImplIN4absl13base_internal12_GLOBAL__N_151IsInvocableRTest_CallableReturnConversionMatch_TestEED2Ev, ptr @_ZN7testing8internal15TestFactoryImplIN4absl13base_internal12_GLOBAL__N_151IsInvocableRTest_CallableReturnConversionMatch_TestEED0Ev, ptr @_ZN7testing8internal15TestFactoryImplIN4absl13base_internal12_GLOBAL__N_151IsInvocableRTest_CallableReturnConversionMatch_TestEE10CreateTestEv] }, align 8
@_ZTSN7testing8internal15TestFactoryImplIN4absl13base_internal12_GLOBAL__N_151IsInvocableRTest_CallableReturnConversionMatch_TestEEE = internal constant [128 x i8] c"N7testing8internal15TestFactoryImplIN4absl13base_internal12_GLOBAL__N_151IsInvocableRTest_CallableReturnConversionMatch_TestEEE\00", align 1
@_ZTIN7testing8internal15TestFactoryImplIN4absl13base_internal12_GLOBAL__N_151IsInvocableRTest_CallableReturnConversionMatch_TestEEE = internal constant { ptr, ptr, ptr } { ptr getelementptr inbounds (ptr, ptr @_ZTVN10__cxxabiv120__si_class_type_infoE, i64 2), ptr @_ZTSN7testing8internal15TestFactoryImplIN4absl13base_internal12_GLOBAL__N_151IsInvocableRTest_CallableReturnConversionMatch_TestEEE, ptr @_ZTIN7testing8internal15TestFactoryBaseE }, align 8
@_ZTVN4absl13base_internal12_GLOBAL__N_151IsInvocableRTest_CallableReturnConversionMatch_TestE = internal unnamed_addr constant { [8 x ptr] } { [8 x ptr] [ptr null, ptr @_ZTIN4absl13base_internal12_GLOBAL__N_151IsInvocableRTest_CallableReturnConversionMatch_TestE, ptr @_ZN4absl13base_internal12_GLOBAL__N_151IsInvocableRTest_CallableReturnConversionMatch_TestD2Ev, ptr @_ZN4absl13base_internal12_GLOBAL__N_151IsInvocableRTest_CallableReturnConversionMatch_TestD0Ev, ptr @_ZN7testing4Test5SetUpEv, ptr @_ZN7testing4Test8TearDownEv, ptr @_ZN4absl13base_internal12_GLOBAL__N_151IsInvocableRTest_CallableReturnConversionMatch_Test8TestBodyEv, ptr @_ZN7testing4Test5SetupEv] }, align 8
@_ZTSN4absl13base_internal12_GLOBAL__N_151IsInvocableRTest_CallableReturnConversionMatch_TestE = internal constant [90 x i8] c"N4absl13base_internal12_GLOBAL__N_151IsInvocableRTest_CallableReturnConversionMatch_TestE\00", align 1
@_ZTIN4absl13base_internal12_GLOBAL__N_151IsInvocableRTest_CallableReturnConversionMatch_TestE = internal constant { ptr, ptr, ptr } { ptr getelementptr inbounds (ptr, ptr @_ZTVN10__cxxabiv120__si_class_type_infoE, i64 2), ptr @_ZTSN4absl13base_internal12_GLOBAL__N_151IsInvocableRTest_CallableReturnConversionMatch_TestE, ptr @_ZTIN7testing4TestE }, align 8
@_ZTVN7testing8internal15TestFactoryImplIN4absl13base_internal12_GLOBAL__N_140IsInvocableRTest_CallableReturnVoid_TestEEE = internal unnamed_addr constant { [5 x ptr] } { [5 x ptr] [ptr null, ptr @_ZTIN7testing8internal15TestFactoryImplIN4absl13base_internal12_GLOBAL__N_140IsInvocableRTest_CallableReturnVoid_TestEEE, ptr @_ZN7testing8internal15TestFactoryImplIN4absl13base_internal12_GLOBAL__N_140IsInvocableRTest_CallableReturnVoid_TestEED2Ev, ptr @_ZN7testing8internal15TestFactoryImplIN4absl13base_internal12_GLOBAL__N_140IsInvocableRTest_CallableReturnVoid_TestEED0Ev, ptr @_ZN7testing8internal15TestFactoryImplIN4absl13base_internal12_GLOBAL__N_140IsInvocableRTest_CallableReturnVoid_TestEE10CreateTestEv] }, align 8
@_ZTSN7testing8internal15TestFactoryImplIN4absl13base_internal12_GLOBAL__N_140IsInvocableRTest_CallableReturnVoid_TestEEE = internal constant [117 x i8] c"N7testing8internal15TestFactoryImplIN4absl13base_internal12_GLOBAL__N_140IsInvocableRTest_CallableReturnVoid_TestEEE\00", align 1
@_ZTIN7testing8internal15TestFactoryImplIN4absl13base_internal12_GLOBAL__N_140IsInvocableRTest_CallableReturnVoid_TestEEE = internal constant { ptr, ptr, ptr } { ptr getelementptr inbounds (ptr, ptr @_ZTVN10__cxxabiv120__si_class_type_infoE, i64 2), ptr @_ZTSN7testing8internal15TestFactoryImplIN4absl13base_internal12_GLOBAL__N_140IsInvocableRTest_CallableReturnVoid_TestEEE, ptr @_ZTIN7testing8internal15TestFactoryBaseE }, align 8
@_ZTVN4absl13base_internal12_GLOBAL__N_140IsInvocableRTest_CallableReturnVoid_TestE = internal unnamed_addr constant { [8 x ptr] } { [8 x ptr] [ptr null, ptr @_ZTIN4absl13base_internal12_GLOBAL__N_140IsInvocableRTest_CallableReturnVoid_TestE, ptr @_ZN4absl13base_internal12_GLOBAL__N_140IsInvocableRTest_CallableReturnVoid_TestD2Ev, ptr @_ZN4absl13base_internal12_GLOBAL__N_140IsInvocableRTest_CallableReturnVoid_TestD0Ev, ptr @_ZN7testing4Test5SetUpEv, ptr @_ZN7testing4Test8TearDownEv, ptr @_ZN4absl13base_internal12_GLOBAL__N_140IsInvocableRTest_CallableReturnVoid_Test8TestBodyEv, ptr @_ZN7testing4Test5SetupEv] }, align 8
@_ZTSN4absl13base_internal12_GLOBAL__N_140IsInvocableRTest_CallableReturnVoid_TestE = internal constant [79 x i8] c"N4absl13base_internal12_GLOBAL__N_140IsInvocableRTest_CallableReturnVoid_TestE\00", align 1
@_ZTIN4absl13base_internal12_GLOBAL__N_140IsInvocableRTest_CallableReturnVoid_TestE = internal constant { ptr, ptr, ptr } { ptr getelementptr inbounds (ptr, ptr @_ZTVN10__cxxabiv120__si_class_type_infoE, i64 2), ptr @_ZTSN4absl13base_internal12_GLOBAL__N_140IsInvocableRTest_CallableReturnVoid_TestE, ptr @_ZTIN7testing4TestE }, align 8
@_ZTVN7testing8internal15TestFactoryImplIN4absl13base_internal12_GLOBAL__N_150IsInvocableRTest_CallableRefQualifierMismatch_TestEEE = internal unnamed_addr constant { [5 x ptr] } { [5 x ptr] [ptr null, ptr @_ZTIN7testing8internal15TestFactoryImplIN4absl13base_internal12_GLOBAL__N_150IsInvocableRTest_CallableRefQualifierMismatch_TestEEE, ptr @_ZN7testing8internal15TestFactoryImplIN4absl13base_internal12_GLOBAL__N_150IsInvocableRTest_CallableRefQualifierMismatch_TestEED2Ev, ptr @_ZN7testing8internal15TestFactoryImplIN4absl13base_internal12_GLOBAL__N_150IsInvocableRTest_CallableRefQualifierMismatch_TestEED0Ev, ptr @_ZN7testing8internal15TestFactoryImplIN4absl13base_internal12_GLOBAL__N_150IsInvocableRTest_CallableRefQualifierMismatch_TestEE10CreateTestEv] }, align 8
@_ZTSN7testing8internal15TestFactoryImplIN4absl13base_internal12_GLOBAL__N_150IsInvocableRTest_CallableRefQualifierMismatch_TestEEE = internal constant [127 x i8] c"N7testing8internal15TestFactoryImplIN4absl13base_internal12_GLOBAL__N_150IsInvocableRTest_CallableRefQualifierMismatch_TestEEE\00", align 1
@_ZTIN7testing8internal15TestFactoryImplIN4absl13base_internal12_GLOBAL__N_150IsInvocableRTest_CallableRefQualifierMismatch_TestEEE = internal constant { ptr, ptr, ptr } { ptr getelementptr inbounds (ptr, ptr @_ZTVN10__cxxabiv120__si_class_type_infoE, i64 2), ptr @_ZTSN7testing8internal15TestFactoryImplIN4absl13base_internal12_GLOBAL__N_150IsInvocableRTest_CallableRefQualifierMismatch_TestEEE, ptr @_ZTIN7testing8internal15TestFactoryBaseE }, align 8
@_ZTVN4absl13base_internal12_GLOBAL__N_150IsInvocableRTest_CallableRefQualifierMismatch_TestE = internal unnamed_addr constant { [8 x ptr] } { [8 x ptr] [ptr null, ptr @_ZTIN4absl13base_internal12_GLOBAL__N_150IsInvocableRTest_CallableRefQualifierMismatch_TestE, ptr @_ZN4absl13base_internal12_GLOBAL__N_150IsInvocableRTest_CallableRefQualifierMismatch_TestD2Ev, ptr @_ZN4absl13base_internal12_GLOBAL__N_150IsInvocableRTest_CallableRefQualifierMismatch_TestD0Ev, ptr @_ZN7testing4Test5SetUpEv, ptr @_ZN7testing4Test8TearDownEv, ptr @_ZN4absl13base_internal12_GLOBAL__N_150IsInvocableRTest_CallableRefQualifierMismatch_Test8TestBodyEv, ptr @_ZN7testing4Test5SetupEv] }, align 8
@_ZTSN4absl13base_internal12_GLOBAL__N_150IsInvocableRTest_CallableRefQualifierMismatch_TestE = internal constant [89 x i8] c"N4absl13base_internal12_GLOBAL__N_150IsInvocableRTest_CallableRefQualifierMismatch_TestE\00", align 1
@_ZTIN4absl13base_internal12_GLOBAL__N_150IsInvocableRTest_CallableRefQualifierMismatch_TestE = internal constant { ptr, ptr, ptr } { ptr getelementptr inbounds (ptr, ptr @_ZTVN10__cxxabiv120__si_class_type_infoE, i64 2), ptr @_ZTSN4absl13base_internal12_GLOBAL__N_150IsInvocableRTest_CallableRefQualifierMismatch_TestE, ptr @_ZTIN7testing4TestE }, align 8
@_ZTVN7testing8internal15TestFactoryImplIN4absl13base_internal12_GLOBAL__N_150IsInvocableRTest_CallableArgumentTypeMismatch_TestEEE = internal unnamed_addr constant { [5 x ptr] } { [5 x ptr] [ptr null, ptr @_ZTIN7testing8internal15TestFactoryImplIN4absl13base_internal12_GLOBAL__N_150IsInvocableRTest_CallableArgumentTypeMismatch_TestEEE, ptr @_ZN7testing8internal15TestFactoryImplIN4absl13base_internal12_GLOBAL__N_150IsInvocableRTest_CallableArgumentTypeMismatch_TestEED2Ev, ptr @_ZN7testing8internal15TestFactoryImplIN4absl13base_internal12_GLOBAL__N_150IsInvocableRTest_CallableArgumentTypeMismatch_TestEED0Ev, ptr @_ZN7testing8internal15TestFactoryImplIN4absl13base_internal12_GLOBAL__N_150IsInvocableRTest_CallableArgumentTypeMismatch_TestEE10CreateTestEv] }, align 8
@_ZTSN7testing8internal15TestFactoryImplIN4absl13base_internal12_GLOBAL__N_150IsInvocableRTest_CallableArgumentTypeMismatch_TestEEE = internal constant [127 x i8] c"N7testing8internal15TestFactoryImplIN4absl13base_internal12_GLOBAL__N_150IsInvocableRTest_CallableArgumentTypeMismatch_TestEEE\00", align 1
@_ZTIN7testing8internal15TestFactoryImplIN4absl13base_internal12_GLOBAL__N_150IsInvocableRTest_CallableArgumentTypeMismatch_TestEEE = internal constant { ptr, ptr, ptr } { ptr getelementptr inbounds (ptr, ptr @_ZTVN10__cxxabiv120__si_class_type_infoE, i64 2), ptr @_ZTSN7testing8internal15TestFactoryImplIN4absl13base_internal12_GLOBAL__N_150IsInvocableRTest_CallableArgumentTypeMismatch_TestEEE, ptr @_ZTIN7testing8internal15TestFactoryBaseE }, align 8
@_ZTVN4absl13base_internal12_GLOBAL__N_150IsInvocableRTest_CallableArgumentTypeMismatch_TestE = internal unnamed_addr constant { [8 x ptr] } { [8 x ptr] [ptr null, ptr @_ZTIN4absl13base_internal12_GLOBAL__N_150IsInvocableRTest_CallableArgumentTypeMismatch_TestE, ptr @_ZN4absl13base_internal12_GLOBAL__N_150IsInvocableRTest_CallableArgumentTypeMismatch_TestD2Ev, ptr @_ZN4absl13base_internal12_GLOBAL__N_150IsInvocableRTest_CallableArgumentTypeMismatch_TestD0Ev, ptr @_ZN7testing4Test5SetUpEv, ptr @_ZN7testing4Test8TearDownEv, ptr @_ZN4absl13base_internal12_GLOBAL__N_150IsInvocableRTest_CallableArgumentTypeMismatch_Test8TestBodyEv, ptr @_ZN7testing4Test5SetupEv] }, align 8
@_ZTSN4absl13base_internal12_GLOBAL__N_150IsInvocableRTest_CallableArgumentTypeMismatch_TestE = internal constant [89 x i8] c"N4absl13base_internal12_GLOBAL__N_150IsInvocableRTest_CallableArgumentTypeMismatch_TestE\00", align 1
@_ZTIN4absl13base_internal12_GLOBAL__N_150IsInvocableRTest_CallableArgumentTypeMismatch_TestE = internal constant { ptr, ptr, ptr } { ptr getelementptr inbounds (ptr, ptr @_ZTVN10__cxxabiv120__si_class_type_infoE, i64 2), ptr @_ZTSN4absl13base_internal12_GLOBAL__N_150IsInvocableRTest_CallableArgumentTypeMismatch_TestE, ptr @_ZTIN7testing4TestE }, align 8
@_ZTVN7testing8internal15TestFactoryImplIN4absl13base_internal12_GLOBAL__N_148IsInvocableRTest_CallableReturnTypeMismatch_TestEEE = internal unnamed_addr constant { [5 x ptr] } { [5 x ptr] [ptr null, ptr @_ZTIN7testing8internal15TestFactoryImplIN4absl13base_internal12_GLOBAL__N_148IsInvocableRTest_CallableReturnTypeMismatch_TestEEE, ptr @_ZN7testing8internal15TestFactoryImplIN4absl13base_internal12_GLOBAL__N_148IsInvocableRTest_CallableReturnTypeMismatch_TestEED2Ev, ptr @_ZN7testing8internal15TestFactoryImplIN4absl13base_internal12_GLOBAL__N_148IsInvocableRTest_CallableReturnTypeMismatch_TestEED0Ev, ptr @_ZN7testing8internal15TestFactoryImplIN4absl13base_internal12_GLOBAL__N_148IsInvocableRTest_CallableReturnTypeMismatch_TestEE10CreateTestEv] }, align 8
@_ZTSN7testing8internal15TestFactoryImplIN4absl13base_internal12_GLOBAL__N_148IsInvocableRTest_CallableReturnTypeMismatch_TestEEE = internal constant [125 x i8] c"N7testing8internal15TestFactoryImplIN4absl13base_internal12_GLOBAL__N_148IsInvocableRTest_CallableReturnTypeMismatch_TestEEE\00", align 1
@_ZTIN7testing8internal15TestFactoryImplIN4absl13base_internal12_GLOBAL__N_148IsInvocableRTest_CallableReturnTypeMismatch_TestEEE = internal constant { ptr, ptr, ptr } { ptr getelementptr inbounds (ptr, ptr @_ZTVN10__cxxabiv120__si_class_type_infoE, i64 2), ptr @_ZTSN7testing8internal15TestFactoryImplIN4absl13base_internal12_GLOBAL__N_148IsInvocableRTest_CallableReturnTypeMismatch_TestEEE, ptr @_ZTIN7testing8internal15TestFactoryBaseE }, align 8
@_ZTVN4absl13base_internal12_GLOBAL__N_148IsInvocableRTest_CallableReturnTypeMismatch_TestE = internal unnamed_addr constant { [8 x ptr] } { [8 x ptr] [ptr null, ptr @_ZTIN4absl13base_internal12_GLOBAL__N_148IsInvocableRTest_CallableReturnTypeMismatch_TestE, ptr @_ZN4absl13base_internal12_GLOBAL__N_148IsInvocableRTest_CallableReturnTypeMismatch_TestD2Ev, ptr @_ZN4absl13base_internal12_GLOBAL__N_148IsInvocableRTest_CallableReturnTypeMismatch_TestD0Ev, ptr @_ZN7testing4Test5SetUpEv, ptr @_ZN7testing4Test8TearDownEv, ptr @_ZN4absl13base_internal12_GLOBAL__N_148IsInvocableRTest_CallableReturnTypeMismatch_Test8TestBodyEv, ptr @_ZN7testing4Test5SetupEv] }, align 8
@_ZTSN4absl13base_internal12_GLOBAL__N_148IsInvocableRTest_CallableReturnTypeMismatch_TestE = internal constant [87 x i8] c"N4absl13base_internal12_GLOBAL__N_148IsInvocableRTest_CallableReturnTypeMismatch_TestE\00", align 1
@_ZTIN4absl13base_internal12_GLOBAL__N_148IsInvocableRTest_CallableReturnTypeMismatch_TestE = internal constant { ptr, ptr, ptr } { ptr getelementptr inbounds (ptr, ptr @_ZTVN10__cxxabiv120__si_class_type_infoE, i64 2), ptr @_ZTSN4absl13base_internal12_GLOBAL__N_148IsInvocableRTest_CallableReturnTypeMismatch_TestE, ptr @_ZTIN7testing4TestE }, align 8
@_ZTVN7testing8internal15TestFactoryImplIN4absl13base_internal12_GLOBAL__N_140IsInvocableRTest_CallableTooFewArgs_TestEEE = internal unnamed_addr constant { [5 x ptr] } { [5 x ptr] [ptr null, ptr @_ZTIN7testing8internal15TestFactoryImplIN4absl13base_internal12_GLOBAL__N_140IsInvocableRTest_CallableTooFewArgs_TestEEE, ptr @_ZN7testing8internal15TestFactoryImplIN4absl13base_internal12_GLOBAL__N_140IsInvocableRTest_CallableTooFewArgs_TestEED2Ev, ptr @_ZN7testing8internal15TestFactoryImplIN4absl13base_internal12_GLOBAL__N_140IsInvocableRTest_CallableTooFewArgs_TestEED0Ev, ptr @_ZN7testing8internal15TestFactoryImplIN4absl13base_internal12_GLOBAL__N_140IsInvocableRTest_CallableTooFewArgs_TestEE10CreateTestEv] }, align 8
@_ZTSN7testing8internal15TestFactoryImplIN4absl13base_internal12_GLOBAL__N_140IsInvocableRTest_CallableTooFewArgs_TestEEE = internal constant [117 x i8] c"N7testing8internal15TestFactoryImplIN4absl13base_internal12_GLOBAL__N_140IsInvocableRTest_CallableTooFewArgs_TestEEE\00", align 1
@_ZTIN7testing8internal15TestFactoryImplIN4absl13base_internal12_GLOBAL__N_140IsInvocableRTest_CallableTooFewArgs_TestEEE = internal constant { ptr, ptr, ptr } { ptr getelementptr inbounds (ptr, ptr @_ZTVN10__cxxabiv120__si_class_type_infoE, i64 2), ptr @_ZTSN7testing8internal15TestFactoryImplIN4absl13base_internal12_GLOBAL__N_140IsInvocableRTest_CallableTooFewArgs_TestEEE, ptr @_ZTIN7testing8internal15TestFactoryBaseE }, align 8
@_ZTVN4absl13base_internal12_GLOBAL__N_140IsInvocableRTest_CallableTooFewArgs_TestE = internal unnamed_addr constant { [8 x ptr] } { [8 x ptr] [ptr null, ptr @_ZTIN4absl13base_internal12_GLOBAL__N_140IsInvocableRTest_CallableTooFewArgs_TestE, ptr @_ZN4absl13base_internal12_GLOBAL__N_140IsInvocableRTest_CallableTooFewArgs_TestD2Ev, ptr @_ZN4absl13base_internal12_GLOBAL__N_140IsInvocableRTest_CallableTooFewArgs_TestD0Ev, ptr @_ZN7testing4Test5SetUpEv, ptr @_ZN7testing4Test8TearDownEv, ptr @_ZN4absl13base_internal12_GLOBAL__N_140IsInvocableRTest_CallableTooFewArgs_Test8TestBodyEv, ptr @_ZN7testing4Test5SetupEv] }, align 8
@_ZTSN4absl13base_internal12_GLOBAL__N_140IsInvocableRTest_CallableTooFewArgs_TestE = internal constant [79 x i8] c"N4absl13base_internal12_GLOBAL__N_140IsInvocableRTest_CallableTooFewArgs_TestE\00", align 1
@_ZTIN4absl13base_internal12_GLOBAL__N_140IsInvocableRTest_CallableTooFewArgs_TestE = internal constant { ptr, ptr, ptr } { ptr getelementptr inbounds (ptr, ptr @_ZTVN10__cxxabiv120__si_class_type_infoE, i64 2), ptr @_ZTSN4absl13base_internal12_GLOBAL__N_140IsInvocableRTest_CallableTooFewArgs_TestE, ptr @_ZTIN7testing4TestE }, align 8
@_ZTVN7testing8internal15TestFactoryImplIN4absl13base_internal12_GLOBAL__N_141IsInvocableRTest_CallableTooManyArgs_TestEEE = internal unnamed_addr constant { [5 x ptr] } { [5 x ptr] [ptr null, ptr @_ZTIN7testing8internal15TestFactoryImplIN4absl13base_internal12_GLOBAL__N_141IsInvocableRTest_CallableTooManyArgs_TestEEE, ptr @_ZN7testing8internal15TestFactoryImplIN4absl13base_internal12_GLOBAL__N_141IsInvocableRTest_CallableTooManyArgs_TestEED2Ev, ptr @_ZN7testing8internal15TestFactoryImplIN4absl13base_internal12_GLOBAL__N_141IsInvocableRTest_CallableTooManyArgs_TestEED0Ev, ptr @_ZN7testing8internal15TestFactoryImplIN4absl13base_internal12_GLOBAL__N_141IsInvocableRTest_CallableTooManyArgs_TestEE10CreateTestEv] }, align 8
@_ZTSN7testing8internal15TestFactoryImplIN4absl13base_internal12_GLOBAL__N_141IsInvocableRTest_CallableTooManyArgs_TestEEE = internal constant [118 x i8] c"N7testing8internal15TestFactoryImplIN4absl13base_internal12_GLOBAL__N_141IsInvocableRTest_CallableTooManyArgs_TestEEE\00", align 1
@_ZTIN7testing8internal15TestFactoryImplIN4absl13base_internal12_GLOBAL__N_141IsInvocableRTest_CallableTooManyArgs_TestEEE = internal constant { ptr, ptr, ptr } { ptr getelementptr inbounds (ptr, ptr @_ZTVN10__cxxabiv120__si_class_type_infoE, i64 2), ptr @_ZTSN7testing8internal15TestFactoryImplIN4absl13base_internal12_GLOBAL__N_141IsInvocableRTest_CallableTooManyArgs_TestEEE, ptr @_ZTIN7testing8internal15TestFactoryBaseE }, align 8
@_ZTVN4absl13base_internal12_GLOBAL__N_141IsInvocableRTest_CallableTooManyArgs_TestE = internal unnamed_addr constant { [8 x ptr] } { [8 x ptr] [ptr null, ptr @_ZTIN4absl13base_internal12_GLOBAL__N_141IsInvocableRTest_CallableTooManyArgs_TestE, ptr @_ZN4absl13base_internal12_GLOBAL__N_141IsInvocableRTest_CallableTooManyArgs_TestD2Ev, ptr @_ZN4absl13base_internal12_GLOBAL__N_141IsInvocableRTest_CallableTooManyArgs_TestD0Ev, ptr @_ZN7testing4Test5SetUpEv, ptr @_ZN7testing4Test8TearDownEv, ptr @_ZN4absl13base_internal12_GLOBAL__N_141IsInvocableRTest_CallableTooManyArgs_Test8TestBodyEv, ptr @_ZN7testing4Test5SetupEv] }, align 8
@_ZTSN4absl13base_internal12_GLOBAL__N_141IsInvocableRTest_CallableTooManyArgs_TestE = internal constant [80 x i8] c"N4absl13base_internal12_GLOBAL__N_141IsInvocableRTest_CallableTooManyArgs_TestE\00", align 1
@_ZTIN4absl13base_internal12_GLOBAL__N_141IsInvocableRTest_CallableTooManyArgs_TestE = internal constant { ptr, ptr, ptr } { ptr getelementptr inbounds (ptr, ptr @_ZTVN10__cxxabiv120__si_class_type_infoE, i64 2), ptr @_ZTSN4absl13base_internal12_GLOBAL__N_141IsInvocableRTest_CallableTooManyArgs_TestE, ptr @_ZTIN7testing4TestE }, align 8
@_ZTVN7testing8internal15TestFactoryImplIN4absl13base_internal12_GLOBAL__N_148IsInvocableRTest_MemberFunctionAndReference_TestEEE = internal unnamed_addr constant { [5 x ptr] } { [5 x ptr] [ptr null, ptr @_ZTIN7testing8internal15TestFactoryImplIN4absl13base_internal12_GLOBAL__N_148IsInvocableRTest_MemberFunctionAndReference_TestEEE, ptr @_ZN7testing8internal15TestFactoryImplIN4absl13base_internal12_GLOBAL__N_148IsInvocableRTest_MemberFunctionAndReference_TestEED2Ev, ptr @_ZN7testing8internal15TestFactoryImplIN4absl13base_internal12_GLOBAL__N_148IsInvocableRTest_MemberFunctionAndReference_TestEED0Ev, ptr @_ZN7testing8internal15TestFactoryImplIN4absl13base_internal12_GLOBAL__N_148IsInvocableRTest_MemberFunctionAndReference_TestEE10CreateTestEv] }, align 8
@_ZTSN7testing8internal15TestFactoryImplIN4absl13base_internal12_GLOBAL__N_148IsInvocableRTest_MemberFunctionAndReference_TestEEE = internal constant [125 x i8] c"N7testing8internal15TestFactoryImplIN4absl13base_internal12_GLOBAL__N_148IsInvocableRTest_MemberFunctionAndReference_TestEEE\00", align 1
@_ZTIN7testing8internal15TestFactoryImplIN4absl13base_internal12_GLOBAL__N_148IsInvocableRTest_MemberFunctionAndReference_TestEEE = internal constant { ptr, ptr, ptr } { ptr getelementptr inbounds (ptr, ptr @_ZTVN10__cxxabiv120__si_class_type_infoE, i64 2), ptr @_ZTSN7testing8internal15TestFactoryImplIN4absl13base_internal12_GLOBAL__N_148IsInvocableRTest_MemberFunctionAndReference_TestEEE, ptr @_ZTIN7testing8internal15TestFactoryBaseE }, align 8
@_ZTVN4absl13base_internal12_GLOBAL__N_148IsInvocableRTest_MemberFunctionAndReference_TestE = internal unnamed_addr constant { [8 x ptr] } { [8 x ptr] [ptr null, ptr @_ZTIN4absl13base_internal12_GLOBAL__N_148IsInvocableRTest_MemberFunctionAndReference_TestE, ptr @_ZN4absl13base_internal12_GLOBAL__N_148IsInvocableRTest_MemberFunctionAndReference_TestD2Ev, ptr @_ZN4absl13base_internal12_GLOBAL__N_148IsInvocableRTest_MemberFunctionAndReference_TestD0Ev, ptr @_ZN7testing4Test5SetUpEv, ptr @_ZN7testing4Test8TearDownEv, ptr @_ZN4absl13base_internal12_GLOBAL__N_148IsInvocableRTest_MemberFunctionAndReference_Test8TestBodyEv, ptr @_ZN7testing4Test5SetupEv] }, align 8
@_ZTSN4absl13base_internal12_GLOBAL__N_148IsInvocableRTest_MemberFunctionAndReference_TestE = internal constant [87 x i8] c"N4absl13base_internal12_GLOBAL__N_148IsInvocableRTest_MemberFunctionAndReference_TestE\00", align 1
@_ZTIN4absl13base_internal12_GLOBAL__N_148IsInvocableRTest_MemberFunctionAndReference_TestE = internal constant { ptr, ptr, ptr } { ptr getelementptr inbounds (ptr, ptr @_ZTVN10__cxxabiv120__si_class_type_infoE, i64 2), ptr @_ZTSN4absl13base_internal12_GLOBAL__N_148IsInvocableRTest_MemberFunctionAndReference_TestE, ptr @_ZTIN7testing4TestE }, align 8
@_ZTVN7testing8internal15TestFactoryImplIN4absl13base_internal12_GLOBAL__N_146IsInvocableRTest_MemberFunctionAndPointer_TestEEE = internal unnamed_addr constant { [5 x ptr] } { [5 x ptr] [ptr null, ptr @_ZTIN7testing8internal15TestFactoryImplIN4absl13base_internal12_GLOBAL__N_146IsInvocableRTest_MemberFunctionAndPointer_TestEEE, ptr @_ZN7testing8internal15TestFactoryImplIN4absl13base_internal12_GLOBAL__N_146IsInvocableRTest_MemberFunctionAndPointer_TestEED2Ev, ptr @_ZN7testing8internal15TestFactoryImplIN4absl13base_internal12_GLOBAL__N_146IsInvocableRTest_MemberFunctionAndPointer_TestEED0Ev, ptr @_ZN7testing8internal15TestFactoryImplIN4absl13base_internal12_GLOBAL__N_146IsInvocableRTest_MemberFunctionAndPointer_TestEE10CreateTestEv] }, align 8
@_ZTSN7testing8internal15TestFactoryImplIN4absl13base_internal12_GLOBAL__N_146IsInvocableRTest_MemberFunctionAndPointer_TestEEE = internal constant [123 x i8] c"N7testing8internal15TestFactoryImplIN4absl13base_internal12_GLOBAL__N_146IsInvocableRTest_MemberFunctionAndPointer_TestEEE\00", align 1
@_ZTIN7testing8internal15TestFactoryImplIN4absl13base_internal12_GLOBAL__N_146IsInvocableRTest_MemberFunctionAndPointer_TestEEE = internal constant { ptr, ptr, ptr } { ptr getelementptr inbounds (ptr, ptr @_ZTVN10__cxxabiv120__si_class_type_infoE, i64 2), ptr @_ZTSN7testing8internal15TestFactoryImplIN4absl13base_internal12_GLOBAL__N_146IsInvocableRTest_MemberFunctionAndPointer_TestEEE, ptr @_ZTIN7testing8internal15TestFactoryBaseE }, align 8
@_ZTVN4absl13base_internal12_GLOBAL__N_146IsInvocableRTest_MemberFunctionAndPointer_TestE = internal unnamed_addr constant { [8 x ptr] } { [8 x ptr] [ptr null, ptr @_ZTIN4absl13base_internal12_GLOBAL__N_146IsInvocableRTest_MemberFunctionAndPointer_TestE, ptr @_ZN4absl13base_internal12_GLOBAL__N_146IsInvocableRTest_MemberFunctionAndPointer_TestD2Ev, ptr @_ZN4absl13base_internal12_GLOBAL__N_146IsInvocableRTest_MemberFunctionAndPointer_TestD0Ev, ptr @_ZN7testing4Test5SetUpEv, ptr @_ZN7testing4Test8TearDownEv, ptr @_ZN4absl13base_internal12_GLOBAL__N_146IsInvocableRTest_MemberFunctionAndPointer_Test8TestBodyEv, ptr @_ZN7testing4Test5SetupEv] }, align 8
@_ZTSN4absl13base_internal12_GLOBAL__N_146IsInvocableRTest_MemberFunctionAndPointer_TestE = internal constant [85 x i8] c"N4absl13base_internal12_GLOBAL__N_146IsInvocableRTest_MemberFunctionAndPointer_TestE\00", align 1
@_ZTIN4absl13base_internal12_GLOBAL__N_146IsInvocableRTest_MemberFunctionAndPointer_TestE = internal constant { ptr, ptr, ptr } { ptr getelementptr inbounds (ptr, ptr @_ZTVN10__cxxabiv120__si_class_type_infoE, i64 2), ptr @_ZTSN4absl13base_internal12_GLOBAL__N_146IsInvocableRTest_MemberFunctionAndPointer_TestE, ptr @_ZTIN7testing4TestE }, align 8
@_ZTVN7testing8internal15TestFactoryImplIN4absl13base_internal12_GLOBAL__N_144IsInvocableRTest_DataMemberAndReference_TestEEE = internal unnamed_addr constant { [5 x ptr] } { [5 x ptr] [ptr null, ptr @_ZTIN7testing8internal15TestFactoryImplIN4absl13base_internal12_GLOBAL__N_144IsInvocableRTest_DataMemberAndReference_TestEEE, ptr @_ZN7testing8internal15TestFactoryImplIN4absl13base_internal12_GLOBAL__N_144IsInvocableRTest_DataMemberAndReference_TestEED2Ev, ptr @_ZN7testing8internal15TestFactoryImplIN4absl13base_internal12_GLOBAL__N_144IsInvocableRTest_DataMemberAndReference_TestEED0Ev, ptr @_ZN7testing8internal15TestFactoryImplIN4absl13base_internal12_GLOBAL__N_144IsInvocableRTest_DataMemberAndReference_TestEE10CreateTestEv] }, align 8
@_ZTSN7testing8internal15TestFactoryImplIN4absl13base_internal12_GLOBAL__N_144IsInvocableRTest_DataMemberAndReference_TestEEE = internal constant [121 x i8] c"N7testing8internal15TestFactoryImplIN4absl13base_internal12_GLOBAL__N_144IsInvocableRTest_DataMemberAndReference_TestEEE\00", align 1
@_ZTIN7testing8internal15TestFactoryImplIN4absl13base_internal12_GLOBAL__N_144IsInvocableRTest_DataMemberAndReference_TestEEE = internal constant { ptr, ptr, ptr } { ptr getelementptr inbounds (ptr, ptr @_ZTVN10__cxxabiv120__si_class_type_infoE, i64 2), ptr @_ZTSN7testing8internal15TestFactoryImplIN4absl13base_internal12_GLOBAL__N_144IsInvocableRTest_DataMemberAndReference_TestEEE, ptr @_ZTIN7testing8internal15TestFactoryBaseE }, align 8
@_ZTVN4absl13base_internal12_GLOBAL__N_144IsInvocableRTest_DataMemberAndReference_TestE = internal unnamed_addr constant { [8 x ptr] } { [8 x ptr] [ptr null, ptr @_ZTIN4absl13base_internal12_GLOBAL__N_144IsInvocableRTest_DataMemberAndReference_TestE, ptr @_ZN4absl13base_internal12_GLOBAL__N_144IsInvocableRTest_DataMemberAndReference_TestD2Ev, ptr @_ZN4absl13base_internal12_GLOBAL__N_144IsInvocableRTest_DataMemberAndReference_TestD0Ev, ptr @_ZN7testing4Test5SetUpEv, ptr @_ZN7testing4Test8TearDownEv, ptr @_ZN4absl13base_internal12_GLOBAL__N_144IsInvocableRTest_DataMemberAndReference_Test8TestBodyEv, ptr @_ZN7testing4Test5SetupEv] }, align 8
@_ZTSN4absl13base_internal12_GLOBAL__N_144IsInvocableRTest_DataMemberAndReference_TestE = internal constant [83 x i8] c"N4absl13base_internal12_GLOBAL__N_144IsInvocableRTest_DataMemberAndReference_TestE\00", align 1
@_ZTIN4absl13base_internal12_GLOBAL__N_144IsInvocableRTest_DataMemberAndReference_TestE = internal constant { ptr, ptr, ptr } { ptr getelementptr inbounds (ptr, ptr @_ZTVN10__cxxabiv120__si_class_type_infoE, i64 2), ptr @_ZTSN4absl13base_internal12_GLOBAL__N_144IsInvocableRTest_DataMemberAndReference_TestE, ptr @_ZTIN7testing4TestE }, align 8
@_ZTVN7testing8internal15TestFactoryImplIN4absl13base_internal12_GLOBAL__N_142IsInvocableRTest_DataMemberAndPointer_TestEEE = internal unnamed_addr constant { [5 x ptr] } { [5 x ptr] [ptr null, ptr @_ZTIN7testing8internal15TestFactoryImplIN4absl13base_internal12_GLOBAL__N_142IsInvocableRTest_DataMemberAndPointer_TestEEE, ptr @_ZN7testing8internal15TestFactoryImplIN4absl13base_internal12_GLOBAL__N_142IsInvocableRTest_DataMemberAndPointer_TestEED2Ev, ptr @_ZN7testing8internal15TestFactoryImplIN4absl13base_internal12_GLOBAL__N_142IsInvocableRTest_DataMemberAndPointer_TestEED0Ev, ptr @_ZN7testing8internal15TestFactoryImplIN4absl13base_internal12_GLOBAL__N_142IsInvocableRTest_DataMemberAndPointer_TestEE10CreateTestEv] }, align 8
@_ZTSN7testing8internal15TestFactoryImplIN4absl13base_internal12_GLOBAL__N_142IsInvocableRTest_DataMemberAndPointer_TestEEE = internal constant [119 x i8] c"N7testing8internal15TestFactoryImplIN4absl13base_internal12_GLOBAL__N_142IsInvocableRTest_DataMemberAndPointer_TestEEE\00", align 1
@_ZTIN7testing8internal15TestFactoryImplIN4absl13base_internal12_GLOBAL__N_142IsInvocableRTest_DataMemberAndPointer_TestEEE = internal constant { ptr, ptr, ptr } { ptr getelementptr inbounds (ptr, ptr @_ZTVN10__cxxabiv120__si_class_type_infoE, i64 2), ptr @_ZTSN7testing8internal15TestFactoryImplIN4absl13base_internal12_GLOBAL__N_142IsInvocableRTest_DataMemberAndPointer_TestEEE, ptr @_ZTIN7testing8internal15TestFactoryBaseE }, align 8
@_ZTVN4absl13base_internal12_GLOBAL__N_142IsInvocableRTest_DataMemberAndPointer_TestE = internal unnamed_addr constant { [8 x ptr] } { [8 x ptr] [ptr null, ptr @_ZTIN4absl13base_internal12_GLOBAL__N_142IsInvocableRTest_DataMemberAndPointer_TestE, ptr @_ZN4absl13base_internal12_GLOBAL__N_142IsInvocableRTest_DataMemberAndPointer_TestD2Ev, ptr @_ZN4absl13base_internal12_GLOBAL__N_142IsInvocableRTest_DataMemberAndPointer_TestD0Ev, ptr @_ZN7testing4Test5SetUpEv, ptr @_ZN7testing4Test8TearDownEv, ptr @_ZN4absl13base_internal12_GLOBAL__N_142IsInvocableRTest_DataMemberAndPointer_Test8TestBodyEv, ptr @_ZN7testing4Test5SetupEv] }, align 8
@_ZTSN4absl13base_internal12_GLOBAL__N_142IsInvocableRTest_DataMemberAndPointer_TestE = internal constant [81 x i8] c"N4absl13base_internal12_GLOBAL__N_142IsInvocableRTest_DataMemberAndPointer_TestE\00", align 1
@_ZTIN4absl13base_internal12_GLOBAL__N_142IsInvocableRTest_DataMemberAndPointer_TestE = internal constant { ptr, ptr, ptr } { ptr getelementptr inbounds (ptr, ptr @_ZTVN10__cxxabiv120__si_class_type_infoE, i64 2), ptr @_ZTSN4absl13base_internal12_GLOBAL__N_142IsInvocableRTest_DataMemberAndPointer_TestE, ptr @_ZTIN7testing4TestE }, align 8
@_ZTVN7testing8internal15TestFactoryImplIN4absl13base_internal12_GLOBAL__N_138IsInvocableRTest_CallableZeroArgs_TestEEE = internal unnamed_addr constant { [5 x ptr] } { [5 x ptr] [ptr null, ptr @_ZTIN7testing8internal15TestFactoryImplIN4absl13base_internal12_GLOBAL__N_138IsInvocableRTest_CallableZeroArgs_TestEEE, ptr @_ZN7testing8internal15TestFactoryImplIN4absl13base_internal12_GLOBAL__N_138IsInvocableRTest_CallableZeroArgs_TestEED2Ev, ptr @_ZN7testing8internal15TestFactoryImplIN4absl13base_internal12_GLOBAL__N_138IsInvocableRTest_CallableZeroArgs_TestEED0Ev, ptr @_ZN7testing8internal15TestFactoryImplIN4absl13base_internal12_GLOBAL__N_138IsInvocableRTest_CallableZeroArgs_TestEE10CreateTestEv] }, align 8
@_ZTSN7testing8internal15TestFactoryImplIN4absl13base_internal12_GLOBAL__N_138IsInvocableRTest_CallableZeroArgs_TestEEE = internal constant [115 x i8] c"N7testing8internal15TestFactoryImplIN4absl13base_internal12_GLOBAL__N_138IsInvocableRTest_CallableZeroArgs_TestEEE\00", align 1
@_ZTIN7testing8internal15TestFactoryImplIN4absl13base_internal12_GLOBAL__N_138IsInvocableRTest_CallableZeroArgs_TestEEE = internal constant { ptr, ptr, ptr } { ptr getelementptr inbounds (ptr, ptr @_ZTVN10__cxxabiv120__si_class_type_infoE, i64 2), ptr @_ZTSN7testing8internal15TestFactoryImplIN4absl13base_internal12_GLOBAL__N_138IsInvocableRTest_CallableZeroArgs_TestEEE, ptr @_ZTIN7testing8internal15TestFactoryBaseE }, align 8
@_ZTVN4absl13base_internal12_GLOBAL__N_138IsInvocableRTest_CallableZeroArgs_TestE = internal unnamed_addr constant { [8 x ptr] } { [8 x ptr] [ptr null, ptr @_ZTIN4absl13base_internal12_GLOBAL__N_138IsInvocableRTest_CallableZeroArgs_TestE, ptr @_ZN4absl13base_internal12_GLOBAL__N_138IsInvocableRTest_CallableZeroArgs_TestD2Ev, ptr @_ZN4absl13base_internal12_GLOBAL__N_138IsInvocableRTest_CallableZeroArgs_TestD0Ev, ptr @_ZN7testing4Test5SetUpEv, ptr @_ZN7testing4Test8TearDownEv, ptr @_ZN4absl13base_internal12_GLOBAL__N_138IsInvocableRTest_CallableZeroArgs_Test8TestBodyEv, ptr @_ZN7testing4Test5SetupEv] }, align 8
@_ZTSN4absl13base_internal12_GLOBAL__N_138IsInvocableRTest_CallableZeroArgs_TestE = internal constant [77 x i8] c"N4absl13base_internal12_GLOBAL__N_138IsInvocableRTest_CallableZeroArgs_TestE\00", align 1
@_ZTIN4absl13base_internal12_GLOBAL__N_138IsInvocableRTest_CallableZeroArgs_TestE = internal constant { ptr, ptr, ptr } { ptr getelementptr inbounds (ptr, ptr @_ZTVN10__cxxabiv120__si_class_type_infoE, i64 2), ptr @_ZTSN4absl13base_internal12_GLOBAL__N_138IsInvocableRTest_CallableZeroArgs_TestE, ptr @_ZTIN7testing4TestE }, align 8
@.str.148 = private unnamed_addr constant [50 x i8] c"basic_string: construction from null is not valid\00", align 1
@.str.149 = private unnamed_addr constant [166 x i8] c"generated/home/dtcxzyw/WorkSpace/Projects/compilers/llvm-opt-benchmark/bench/abseil-cpp/bench_build/googletest-src/googletest/include/gtest/internal/gtest-internal.h\00", align 1
@.str.150 = private unnamed_addr constant [51 x i8] c"Condition !test_case_fp || !test_suite_fp failed. \00", align 1
@.str.151 = private unnamed_addr constant [107 x i8] c"Test can not provide both SetUpTestSuite and SetUpTestCase, please make sure there is only one present at \00", align 1
@.str.152 = private unnamed_addr constant [2 x i8] c":\00", align 1
@.str.153 = private unnamed_addr constant [112 x i8] c"Test can not provide both TearDownTestSuite and TearDownTestCase, please make sure there is only one present at\00", align 1
@llvm.global_ctors = appending global [1 x { i32, ptr, ptr }] [{ i32, ptr, ptr } { i32 65535, ptr @_GLOBAL__sub_I_invoke_test.cc, ptr null }]

declare void @_ZNSt8ios_base4InitC1Ev(ptr noundef nonnull align 1 dereferenceable(1)) unnamed_addr #0

; Function Attrs: nounwind
declare void @_ZNSt8ios_base4InitD1Ev(ptr noundef nonnull align 1 dereferenceable(1)) unnamed_addr #1

; Function Attrs: nofree nounwind
declare i32 @__cxa_atexit(ptr, ptr, ptr) local_unnamed_addr #2

declare noundef ptr @_ZN7testing8internal23MakeAndRegisterTestInfoEPKcS2_S2_S2_NS0_12CodeLocationEPKvPFvvES7_PNS0_15TestFactoryBaseE(ptr noundef, ptr noundef, ptr noundef, ptr noundef, ptr noundef, ptr noundef, ptr noundef, ptr noundef, ptr noundef) local_unnamed_addr #0

; Function Attrs: nounwind
declare void @_ZNSaIcEC1Ev(ptr noundef nonnull align 1 dereferenceable(1)) unnamed_addr #1

declare i32 @__gxx_personality_v0(...)

declare noundef ptr @_ZN7testing8internal13GetTestTypeIdEv() local_unnamed_addr #0

; Function Attrs: mustprogress uwtable
define linkonce_odr dso_local noundef ptr @_ZN7testing8internal16SuiteApiResolverINS_4TestEE19GetSetUpCaseOrSuiteEPKci(ptr noundef %filename, i32 noundef %line_num) local_unnamed_addr #3 comdat align 2 personality ptr @__gxx_personality_v0 {
entry:
  %ref.tmp = alloca %"class.testing::internal::GTestLog", align 4
  %call3 = tail call noundef zeroext i1 @_ZN7testing8internal6IsTrueEb(i1 noundef zeroext true)
  br i1 %call3, label %if.end, label %if.else

if.else:                                          ; preds = %entry
  call void @_ZN7testing8internal8GTestLogC1ENS0_16GTestLogSeverityEPKci(ptr noundef nonnull align 4 dereferenceable(4) %ref.tmp, i32 noundef 3, ptr noundef nonnull @.str.149, i32 noundef 513)
  %call5 = invoke noundef nonnull align 8 dereferenceable(8) ptr @_ZStlsISt11char_traitsIcEERSt13basic_ostreamIcT_ES5_PKc(ptr noundef nonnull align 8 dereferenceable(8) @_ZSt4cerr, ptr noundef nonnull @.str.150)
          to label %invoke.cont unwind label %lpad

invoke.cont:                                      ; preds = %if.else
  %call7 = invoke noundef nonnull align 8 dereferenceable(8) ptr @_ZStlsISt11char_traitsIcEERSt13basic_ostreamIcT_ES5_PKc(ptr noundef nonnull align 8 dereferenceable(8) %call5, ptr noundef nonnull @.str.151)
          to label %invoke.cont6 unwind label %lpad

invoke.cont6:                                     ; preds = %invoke.cont
  %call9 = invoke noundef nonnull align 8 dereferenceable(8) ptr @_ZStlsISt11char_traitsIcEERSt13basic_ostreamIcT_ES5_PKc(ptr noundef nonnull align 8 dereferenceable(8) %call7, ptr noundef %filename)
          to label %invoke.cont8 unwind label %lpad

invoke.cont8:                                     ; preds = %invoke.cont6
  %call11 = invoke noundef nonnull align 8 dereferenceable(8) ptr @_ZStlsISt11char_traitsIcEERSt13basic_ostreamIcT_ES5_PKc(ptr noundef nonnull align 8 dereferenceable(8) %call9, ptr noundef nonnull @.str.152)
          to label %invoke.cont10 unwind label %lpad

invoke.cont10:                                    ; preds = %invoke.cont8
  %call13 = invoke noundef nonnull align 8 dereferenceable(8) ptr @_ZNSolsEi(ptr noundef nonnull align 8 dereferenceable(8) %call11, i32 noundef %line_num)
          to label %invoke.cont12 unwind label %lpad

invoke.cont12:                                    ; preds = %invoke.cont10
  call void @_ZN7testing8internal8GTestLogD1Ev(ptr noundef nonnull align 4 dereferenceable(4) %ref.tmp) #15
  br label %if.end

lpad:                                             ; preds = %invoke.cont10, %invoke.cont8, %invoke.cont6, %invoke.cont, %if.else
  %0 = landingpad { ptr, i32 }
          cleanup
  call void @_ZN7testing8internal8GTestLogD1Ev(ptr noundef nonnull align 4 dereferenceable(4) %ref.tmp) #15
  resume { ptr, i32 } %0

if.end:                                           ; preds = %entry, %invoke.cont12
  ret ptr null
}

; Function Attrs: mustprogress uwtable
define linkonce_odr dso_local noundef ptr @_ZN7testing8internal16SuiteApiResolverINS_4TestEE22GetTearDownCaseOrSuiteEPKci(ptr noundef %filename, i32 noundef %line_num) local_unnamed_addr #3 comdat align 2 personality ptr @__gxx_personality_v0 {
entry:
  %ref.tmp = alloca %"class.testing::internal::GTestLog", align 4
  %call3 = tail call noundef zeroext i1 @_ZN7testing8internal6IsTrueEb(i1 noundef zeroext true)
  br i1 %call3, label %if.end, label %if.else

if.else:                                          ; preds = %entry
  call void @_ZN7testing8internal8GTestLogC1ENS0_16GTestLogSeverityEPKci(ptr noundef nonnull align 4 dereferenceable(4) %ref.tmp, i32 noundef 3, ptr noundef nonnull @.str.149, i32 noundef 534)
  %call5 = invoke noundef nonnull align 8 dereferenceable(8) ptr @_ZStlsISt11char_traitsIcEERSt13basic_ostreamIcT_ES5_PKc(ptr noundef nonnull align 8 dereferenceable(8) @_ZSt4cerr, ptr noundef nonnull @.str.150)
          to label %invoke.cont unwind label %lpad

invoke.cont:                                      ; preds = %if.else
  %call7 = invoke noundef nonnull align 8 dereferenceable(8) ptr @_ZStlsISt11char_traitsIcEERSt13basic_ostreamIcT_ES5_PKc(ptr noundef nonnull align 8 dereferenceable(8) %call5, ptr noundef nonnull @.str.153)
          to label %invoke.cont6 unwind label %lpad

invoke.cont6:                                     ; preds = %invoke.cont
  %call9 = invoke noundef nonnull align 8 dereferenceable(8) ptr @_ZStlsISt11char_traitsIcEERSt13basic_ostreamIcT_ES5_PKc(ptr noundef nonnull align 8 dereferenceable(8) %call7, ptr noundef %filename)
          to label %invoke.cont8 unwind label %lpad

invoke.cont8:                                     ; preds = %invoke.cont6
  %call11 = invoke noundef nonnull align 8 dereferenceable(8) ptr @_ZStlsISt11char_traitsIcEERSt13basic_ostreamIcT_ES5_PKc(ptr noundef nonnull align 8 dereferenceable(8) %call9, ptr noundef nonnull @.str.152)
          to label %invoke.cont10 unwind label %lpad

invoke.cont10:                                    ; preds = %invoke.cont8
  %call13 = invoke noundef nonnull align 8 dereferenceable(8) ptr @_ZNSolsEi(ptr noundef nonnull align 8 dereferenceable(8) %call11, i32 noundef %line_num)
          to label %invoke.cont12 unwind label %lpad

invoke.cont12:                                    ; preds = %invoke.cont10
  call void @_ZN7testing8internal8GTestLogD1Ev(ptr noundef nonnull align 4 dereferenceable(4) %ref.tmp) #15
  br label %if.end

lpad:                                             ; preds = %invoke.cont10, %invoke.cont8, %invoke.cont6, %invoke.cont, %if.else
  %0 = landingpad { ptr, i32 }
          cleanup
  call void @_ZN7testing8internal8GTestLogD1Ev(ptr noundef nonnull align 4 dereferenceable(4) %ref.tmp) #15
  resume { ptr, i32 } %0

if.end:                                           ; preds = %entry, %invoke.cont12
  ret ptr null
}

; Function Attrs: nobuiltin allocsize(0)
declare noundef nonnull ptr @_Znwm(i64 noundef) local_unnamed_addr #4

; Function Attrs: nobuiltin nounwind
declare void @_ZdlPv(ptr noundef) local_unnamed_addr #5

; Function Attrs: nounwind
declare void @_ZNSt7__cxx1112basic_stringIcSt11char_traitsIcESaIcEED1Ev(ptr noundef nonnull align 8 dereferenceable(32)) unnamed_addr #1

; Function Attrs: nounwind
declare void @_ZNSaIcED1Ev(ptr noundef nonnull align 1 dereferenceable(1)) unnamed_addr #1

declare void @_ZNSt7__cxx1112basic_stringIcSt11char_traitsIcESaIcEEC1ERKS4_(ptr noundef nonnull align 8 dereferenceable(32), ptr noundef nonnull align 8 dereferenceable(32)) unnamed_addr #0

; Function Attrs: mustprogress nofree norecurse nosync nounwind willreturn memory(none) uwtable
define internal void @_ZN7testing8internal15TestFactoryImplIN4absl13base_internal12_GLOBAL__N_124InvokeTest_Function_TestEED2Ev(ptr nocapture nonnull readnone align 8 %this) unnamed_addr #6 align 2 {
entry:
  ret void
}

; Function Attrs: mustprogress nounwind uwtable
define internal void @_ZN7testing8internal15TestFactoryImplIN4absl13base_internal12_GLOBAL__N_124InvokeTest_Function_TestEED0Ev(ptr noundef nonnull align 8 dereferenceable(8) %this) unnamed_addr #7 align 2 {
entry:
  tail call void @_ZdlPv(ptr noundef nonnull %this) #16
  ret void
}

; Function Attrs: mustprogress uwtable
define internal noundef nonnull ptr @_ZN7testing8internal15TestFactoryImplIN4absl13base_internal12_GLOBAL__N_124InvokeTest_Function_TestEE10CreateTestEv(ptr nocapture nonnull readnone align 8 %this) unnamed_addr #3 align 2 personality ptr @__gxx_personality_v0 {
entry:
  %call = tail call noalias noundef nonnull dereferenceable(16) ptr @_Znwm(i64 noundef 16) #17
  invoke void @_ZN7testing4TestC2Ev(ptr noundef nonnull align 8 dereferenceable(16) %call)
          to label %invoke.cont unwind label %lpad

invoke.cont:                                      ; preds = %entry
  store ptr getelementptr inbounds ({ [8 x ptr] }, ptr @_ZTVN4absl13base_internal12_GLOBAL__N_124InvokeTest_Function_TestE, i64 0, inrange i32 0, i64 2), ptr %call, align 8
  ret ptr %call

lpad:                                             ; preds = %entry
  %0 = landingpad { ptr, i32 }
          cleanup
  tail call void @_ZdlPv(ptr noundef nonnull %call) #16
  resume { ptr, i32 } %0
}

declare void @_ZN7testing4TestC2Ev(ptr noundef nonnull align 8 dereferenceable(16)) unnamed_addr #0

; Function Attrs: mustprogress nounwind uwtable
define internal void @_ZN4absl13base_internal12_GLOBAL__N_124InvokeTest_Function_TestD2Ev(ptr noundef nonnull align 8 dereferenceable(16) %this) unnamed_addr #7 align 2 {
entry:
  tail call void @_ZN7testing4TestD2Ev(ptr noundef nonnull align 8 dereferenceable(16) %this) #15
  ret void
}

; Function Attrs: mustprogress nounwind uwtable
define internal void @_ZN4absl13base_internal12_GLOBAL__N_124InvokeTest_Function_TestD0Ev(ptr noundef nonnull align 8 dereferenceable(16) %this) unnamed_addr #7 align 2 {
entry:
  tail call void @_ZN7testing4TestD2Ev(ptr noundef nonnull align 8 dereferenceable(16) %this) #15
  tail call void @_ZdlPv(ptr noundef nonnull %this) #16
  ret void
}

declare void @_ZN7testing4Test5SetUpEv(ptr noundef nonnull align 8 dereferenceable(16)) unnamed_addr #0

declare void @_ZN7testing4Test8TearDownEv(ptr noundef nonnull align 8 dereferenceable(16)) unnamed_addr #0

; Function Attrs: mustprogress uwtable
define internal void @_ZN4absl13base_internal12_GLOBAL__N_124InvokeTest_Function_Test8TestBodyEv(ptr nocapture nonnull readnone align 8 %this) unnamed_addr #3 align 2 personality ptr @__gxx_personality_v0 {
_ZN7testing8internal8EqHelper7CompareIiiTnPNSt9enable_ifIXoontsr3std11is_integralIT_EE5valuentsr3std10is_pointerIT0_EE5valueEvE4typeELPv0EEENS_15AssertionResultEPKcSC_RKS4_RKS5_.exit:
  %gtest_ar = alloca %"class.testing::AssertionResult", align 8
  %ref.tmp6 = alloca %"class.testing::Message", align 8
  %ref.tmp8 = alloca %"class.testing::internal::AssertHelper", align 8
  %gtest_ar16 = alloca %"class.testing::AssertionResult", align 8
  %ref.tmp28 = alloca %"class.testing::Message", align 8
  %ref.tmp30 = alloca %"class.testing::internal::AssertHelper", align 8
  call void @_ZN7testing16AssertionSuccessEv(ptr nonnull sret(%"class.testing::AssertionResult") align 8 %gtest_ar)
  %0 = load i8, ptr %gtest_ar, align 8
  %1 = and i8 %0, 1
  %tobool.i.not = icmp eq i8 %1, 0
  br i1 %tobool.i.not, label %if.else, label %if.end

lpad:                                             ; preds = %if.else
  %2 = landingpad { ptr, i32 }
          cleanup
  br label %eh.resume

if.else:                                          ; preds = %_ZN7testing8internal8EqHelper7CompareIiiTnPNSt9enable_ifIXoontsr3std11is_integralIT_EE5valuentsr3std10is_pointerIT0_EE5valueEvE4typeELPv0EEENS_15AssertionResultEPKcSC_RKS4_RKS5_.exit
  invoke void @_ZN7testing7MessageC1Ev(ptr noundef nonnull align 8 dereferenceable(8) %ref.tmp6)
          to label %invoke.cont7 unwind label %lpad

invoke.cont7:                                     ; preds = %if.else
  %message_.i.i = getelementptr inbounds %"class.testing::AssertionResult", ptr %gtest_ar, i64 0, i32 1
  %3 = load ptr, ptr %message_.i.i, align 8
  %cmp.i.i.not.i.i = icmp eq ptr %3, null
  br i1 %cmp.i.i.not.i.i, label %invoke.cont10, label %cond.true.i.i

cond.true.i.i:                                    ; preds = %invoke.cont7
  %call4.i.i = call noundef ptr @_ZNKSt7__cxx1112basic_stringIcSt11char_traitsIcESaIcEE5c_strEv(ptr noundef nonnull align 8 dereferenceable(32) %3) #15
  br label %invoke.cont10

invoke.cont10:                                    ; preds = %cond.true.i.i, %invoke.cont7
  %cond.i.i = phi ptr [ %call4.i.i, %cond.true.i.i ], [ @.str.60, %invoke.cont7 ]
  invoke void @_ZN7testing8internal12AssertHelperC1ENS_14TestPartResult4TypeEPKciS5_(ptr noundef nonnull align 8 dereferenceable(8) %ref.tmp8, i32 noundef 1, ptr noundef nonnull @.str.3, i32 noundef 112, ptr noundef %cond.i.i)
          to label %invoke.cont12 unwind label %lpad9

invoke.cont12:                                    ; preds = %invoke.cont10
  invoke void @_ZNK7testing8internal12AssertHelperaSERKNS_7MessageE(ptr noundef nonnull align 8 dereferenceable(8) %ref.tmp8, ptr noundef nonnull align 8 dereferenceable(8) %ref.tmp6)
          to label %invoke.cont14 unwind label %lpad13

invoke.cont14:                                    ; preds = %invoke.cont12
  call void @_ZN7testing8internal12AssertHelperD1Ev(ptr noundef nonnull align 8 dereferenceable(8) %ref.tmp8) #15
  %4 = load ptr, ptr %ref.tmp6, align 8
  %cmp.not.i.i = icmp eq ptr %4, null
  br i1 %cmp.not.i.i, label %_ZN7testing7MessageD2Ev.exit, label %_ZNKSt14default_deleteINSt7__cxx1118basic_stringstreamIcSt11char_traitsIcESaIcEEEEclEPS5_.exit.i.i

_ZNKSt14default_deleteINSt7__cxx1118basic_stringstreamIcSt11char_traitsIcESaIcEEEEclEPS5_.exit.i.i: ; preds = %invoke.cont14
  %vtable.i.i.i = load ptr, ptr %4, align 8
  %vfn.i.i.i = getelementptr inbounds ptr, ptr %vtable.i.i.i, i64 1
  %5 = load ptr, ptr %vfn.i.i.i, align 8
  call void %5(ptr noundef nonnull align 8 dereferenceable(128) %4) #15
  br label %_ZN7testing7MessageD2Ev.exit

_ZN7testing7MessageD2Ev.exit:                     ; preds = %invoke.cont14, %_ZNKSt14default_deleteINSt7__cxx1118basic_stringstreamIcSt11char_traitsIcESaIcEEEEclEPS5_.exit.i.i
  store ptr null, ptr %ref.tmp6, align 8
  br label %if.end

lpad9:                                            ; preds = %invoke.cont10
  %6 = landingpad { ptr, i32 }
          cleanup
  br label %ehcleanup

lpad13:                                           ; preds = %invoke.cont12
  %7 = landingpad { ptr, i32 }
          cleanup
  call void @_ZN7testing8internal12AssertHelperD1Ev(ptr noundef nonnull align 8 dereferenceable(8) %ref.tmp8) #15
  br label %ehcleanup

ehcleanup:                                        ; preds = %lpad13, %lpad9
  %.pn = phi { ptr, i32 } [ %7, %lpad13 ], [ %6, %lpad9 ]
  %8 = load ptr, ptr %ref.tmp6, align 8
  %cmp.not.i.i7 = icmp eq ptr %8, null
  br i1 %cmp.not.i.i7, label %_ZN7testing7MessageD2Ev.exit11, label %_ZNKSt14default_deleteINSt7__cxx1118basic_stringstreamIcSt11char_traitsIcESaIcEEEEclEPS5_.exit.i.i8

_ZNKSt14default_deleteINSt7__cxx1118basic_stringstreamIcSt11char_traitsIcESaIcEEEEclEPS5_.exit.i.i8: ; preds = %ehcleanup
  %vtable.i.i.i9 = load ptr, ptr %8, align 8
  %vfn.i.i.i10 = getelementptr inbounds ptr, ptr %vtable.i.i.i9, i64 1
  %9 = load ptr, ptr %vfn.i.i.i10, align 8
  call void %9(ptr noundef nonnull align 8 dereferenceable(128) %8) #15
  br label %_ZN7testing7MessageD2Ev.exit11

_ZN7testing7MessageD2Ev.exit11:                   ; preds = %ehcleanup, %_ZNKSt14default_deleteINSt7__cxx1118basic_stringstreamIcSt11char_traitsIcESaIcEEEEclEPS5_.exit.i.i8
  store ptr null, ptr %ref.tmp6, align 8
  br label %eh.resume

if.end:                                           ; preds = %_ZN7testing8internal8EqHelper7CompareIiiTnPNSt9enable_ifIXoontsr3std11is_integralIT_EE5valuentsr3std10is_pointerIT0_EE5valueEvE4typeELPv0EEENS_15AssertionResultEPKcSC_RKS4_RKS5_.exit, %_ZN7testing7MessageD2Ev.exit
  %message_.i = getelementptr inbounds %"class.testing::AssertionResult", ptr %gtest_ar, i64 0, i32 1
  %10 = load ptr, ptr %message_.i, align 8
  %cmp.not.i.i12 = icmp eq ptr %10, null
  br i1 %cmp.not.i.i12, label %_ZN7testing8internal8EqHelper7CompareIiiTnPNSt9enable_ifIXoontsr3std11is_integralIT_EE5valuentsr3std10is_pointerIT0_EE5valueEvE4typeELPv0EEENS_15AssertionResultEPKcSC_RKS4_RKS5_.exit17, label %_ZNKSt14default_deleteINSt7__cxx1112basic_stringIcSt11char_traitsIcESaIcEEEEclEPS5_.exit.i.i

_ZNKSt14default_deleteINSt7__cxx1112basic_stringIcSt11char_traitsIcESaIcEEEEclEPS5_.exit.i.i: ; preds = %if.end
  call void @_ZNSt7__cxx1112basic_stringIcSt11char_traitsIcESaIcEED1Ev(ptr noundef nonnull align 8 dereferenceable(32) %10) #15
  call void @_ZdlPv(ptr noundef nonnull %10) #16
  br label %_ZN7testing8internal8EqHelper7CompareIiiTnPNSt9enable_ifIXoontsr3std11is_integralIT_EE5valuentsr3std10is_pointerIT0_EE5valueEvE4typeELPv0EEENS_15AssertionResultEPKcSC_RKS4_RKS5_.exit17

_ZN7testing8internal8EqHelper7CompareIiiTnPNSt9enable_ifIXoontsr3std11is_integralIT_EE5valuentsr3std10is_pointerIT0_EE5valueEvE4typeELPv0EEENS_15AssertionResultEPKcSC_RKS4_RKS5_.exit17: ; preds = %if.end, %_ZNKSt14default_deleteINSt7__cxx1112basic_stringIcSt11char_traitsIcESaIcEEEEclEPS5_.exit.i.i
  store ptr null, ptr %message_.i, align 8
  call void @_ZN7testing16AssertionSuccessEv(ptr nonnull sret(%"class.testing::AssertionResult") align 8 %gtest_ar16)
  %11 = load i8, ptr %gtest_ar16, align 8
  %12 = and i8 %11, 1
  %tobool.i18.not = icmp eq i8 %12, 0
  br i1 %tobool.i18.not, label %if.else27, label %if.end39

lpad23:                                           ; preds = %if.else27
  %13 = landingpad { ptr, i32 }
          cleanup
  br label %eh.resume

if.else27:                                        ; preds = %_ZN7testing8internal8EqHelper7CompareIiiTnPNSt9enable_ifIXoontsr3std11is_integralIT_EE5valuentsr3std10is_pointerIT0_EE5valueEvE4typeELPv0EEENS_15AssertionResultEPKcSC_RKS4_RKS5_.exit17
  invoke void @_ZN7testing7MessageC1Ev(ptr noundef nonnull align 8 dereferenceable(8) %ref.tmp28)
          to label %invoke.cont29 unwind label %lpad23

invoke.cont29:                                    ; preds = %if.else27
  %message_.i.i19 = getelementptr inbounds %"class.testing::AssertionResult", ptr %gtest_ar16, i64 0, i32 1
  %14 = load ptr, ptr %message_.i.i19, align 8
  %cmp.i.i.not.i.i20 = icmp eq ptr %14, null
  br i1 %cmp.i.i.not.i.i20, label %invoke.cont32, label %cond.true.i.i21

cond.true.i.i21:                                  ; preds = %invoke.cont29
  %call4.i.i22 = call noundef ptr @_ZNKSt7__cxx1112basic_stringIcSt11char_traitsIcESaIcEE5c_strEv(ptr noundef nonnull align 8 dereferenceable(32) %14) #15
  br label %invoke.cont32

invoke.cont32:                                    ; preds = %cond.true.i.i21, %invoke.cont29
  %cond.i.i23 = phi ptr [ %call4.i.i22, %cond.true.i.i21 ], [ @.str.60, %invoke.cont29 ]
  invoke void @_ZN7testing8internal12AssertHelperC1ENS_14TestPartResult4TypeEPKciS5_(ptr noundef nonnull align 8 dereferenceable(8) %ref.tmp30, i32 noundef 1, ptr noundef nonnull @.str.3, i32 noundef 113, ptr noundef %cond.i.i23)
          to label %invoke.cont34 unwind label %lpad31

invoke.cont34:                                    ; preds = %invoke.cont32
  invoke void @_ZNK7testing8internal12AssertHelperaSERKNS_7MessageE(ptr noundef nonnull align 8 dereferenceable(8) %ref.tmp30, ptr noundef nonnull align 8 dereferenceable(8) %ref.tmp28)
          to label %invoke.cont36 unwind label %lpad35

invoke.cont36:                                    ; preds = %invoke.cont34
  call void @_ZN7testing8internal12AssertHelperD1Ev(ptr noundef nonnull align 8 dereferenceable(8) %ref.tmp30) #15
  %15 = load ptr, ptr %ref.tmp28, align 8
  %cmp.not.i.i25 = icmp eq ptr %15, null
  br i1 %cmp.not.i.i25, label %_ZN7testing7MessageD2Ev.exit29, label %_ZNKSt14default_deleteINSt7__cxx1118basic_stringstreamIcSt11char_traitsIcESaIcEEEEclEPS5_.exit.i.i26

_ZNKSt14default_deleteINSt7__cxx1118basic_stringstreamIcSt11char_traitsIcESaIcEEEEclEPS5_.exit.i.i26: ; preds = %invoke.cont36
  %vtable.i.i.i27 = load ptr, ptr %15, align 8
  %vfn.i.i.i28 = getelementptr inbounds ptr, ptr %vtable.i.i.i27, i64 1
  %16 = load ptr, ptr %vfn.i.i.i28, align 8
  call void %16(ptr noundef nonnull align 8 dereferenceable(128) %15) #15
  br label %_ZN7testing7MessageD2Ev.exit29

_ZN7testing7MessageD2Ev.exit29:                   ; preds = %invoke.cont36, %_ZNKSt14default_deleteINSt7__cxx1118basic_stringstreamIcSt11char_traitsIcESaIcEEEEclEPS5_.exit.i.i26
  store ptr null, ptr %ref.tmp28, align 8
  br label %if.end39

lpad31:                                           ; preds = %invoke.cont32
  %17 = landingpad { ptr, i32 }
          cleanup
  br label %ehcleanup38

lpad35:                                           ; preds = %invoke.cont34
  %18 = landingpad { ptr, i32 }
          cleanup
  call void @_ZN7testing8internal12AssertHelperD1Ev(ptr noundef nonnull align 8 dereferenceable(8) %ref.tmp30) #15
  br label %ehcleanup38

ehcleanup38:                                      ; preds = %lpad35, %lpad31
  %.pn3 = phi { ptr, i32 } [ %18, %lpad35 ], [ %17, %lpad31 ]
  %19 = load ptr, ptr %ref.tmp28, align 8
  %cmp.not.i.i30 = icmp eq ptr %19, null
  br i1 %cmp.not.i.i30, label %_ZN7testing7MessageD2Ev.exit34, label %_ZNKSt14default_deleteINSt7__cxx1118basic_stringstreamIcSt11char_traitsIcESaIcEEEEclEPS5_.exit.i.i31

_ZNKSt14default_deleteINSt7__cxx1118basic_stringstreamIcSt11char_traitsIcESaIcEEEEclEPS5_.exit.i.i31: ; preds = %ehcleanup38
  %vtable.i.i.i32 = load ptr, ptr %19, align 8
  %vfn.i.i.i33 = getelementptr inbounds ptr, ptr %vtable.i.i.i32, i64 1
  %20 = load ptr, ptr %vfn.i.i.i33, align 8
  call void %20(ptr noundef nonnull align 8 dereferenceable(128) %19) #15
  br label %_ZN7testing7MessageD2Ev.exit34

_ZN7testing7MessageD2Ev.exit34:                   ; preds = %ehcleanup38, %_ZNKSt14default_deleteINSt7__cxx1118basic_stringstreamIcSt11char_traitsIcESaIcEEEEclEPS5_.exit.i.i31
  store ptr null, ptr %ref.tmp28, align 8
  br label %eh.resume

if.end39:                                         ; preds = %_ZN7testing8internal8EqHelper7CompareIiiTnPNSt9enable_ifIXoontsr3std11is_integralIT_EE5valuentsr3std10is_pointerIT0_EE5valueEvE4typeELPv0EEENS_15AssertionResultEPKcSC_RKS4_RKS5_.exit17, %_ZN7testing7MessageD2Ev.exit29
  %message_.i35 = getelementptr inbounds %"class.testing::AssertionResult", ptr %gtest_ar16, i64 0, i32 1
  %21 = load ptr, ptr %message_.i35, align 8
  %cmp.not.i.i36 = icmp eq ptr %21, null
  br i1 %cmp.not.i.i36, label %_ZN7testing15AssertionResultD2Ev.exit38, label %_ZNKSt14default_deleteINSt7__cxx1112basic_stringIcSt11char_traitsIcESaIcEEEEclEPS5_.exit.i.i37

_ZNKSt14default_deleteINSt7__cxx1112basic_stringIcSt11char_traitsIcESaIcEEEEclEPS5_.exit.i.i37: ; preds = %if.end39
  call void @_ZNSt7__cxx1112basic_stringIcSt11char_traitsIcESaIcEED1Ev(ptr noundef nonnull align 8 dereferenceable(32) %21) #15
  call void @_ZdlPv(ptr noundef nonnull %21) #16
  br label %_ZN7testing15AssertionResultD2Ev.exit38

_ZN7testing15AssertionResultD2Ev.exit38:          ; preds = %if.end39, %_ZNKSt14default_deleteINSt7__cxx1112basic_stringIcSt11char_traitsIcESaIcEEEEclEPS5_.exit.i.i37
  ret void

eh.resume:                                        ; preds = %lpad23, %_ZN7testing7MessageD2Ev.exit34, %lpad, %_ZN7testing7MessageD2Ev.exit11
  %gtest_ar16.sink = phi ptr [ %gtest_ar, %_ZN7testing7MessageD2Ev.exit11 ], [ %gtest_ar, %lpad ], [ %gtest_ar16, %_ZN7testing7MessageD2Ev.exit34 ], [ %gtest_ar16, %lpad23 ]
  %.pn3.pn.pn = phi { ptr, i32 } [ %.pn, %_ZN7testing7MessageD2Ev.exit11 ], [ %2, %lpad ], [ %.pn3, %_ZN7testing7MessageD2Ev.exit34 ], [ %13, %lpad23 ]
  call void @_ZN7testing15AssertionResultD2Ev(ptr noundef nonnull align 8 dereferenceable(16) %gtest_ar16.sink) #15
  resume { ptr, i32 } %.pn3.pn.pn
}

; Function Attrs: mustprogress nounwind uwtable
define linkonce_odr dso_local noundef ptr @_ZN7testing4Test5SetupEv(ptr noundef nonnull align 8 dereferenceable(16) %this) unnamed_addr #7 comdat align 2 {
entry:
  ret ptr null
}

; Function Attrs: nounwind
declare void @_ZN7testing4TestD2Ev(ptr noundef nonnull align 8 dereferenceable(16)) unnamed_addr #1

declare void @_ZN7testing7MessageC1Ev(ptr noundef nonnull align 8 dereferenceable(8)) unnamed_addr #0

declare void @_ZN7testing8internal12AssertHelperC1ENS_14TestPartResult4TypeEPKciS5_(ptr noundef nonnull align 8 dereferenceable(8), i32 noundef, ptr noundef, i32 noundef, ptr noundef) unnamed_addr #0

declare void @_ZNK7testing8internal12AssertHelperaSERKNS_7MessageE(ptr noundef nonnull align 8 dereferenceable(8), ptr noundef nonnull align 8 dereferenceable(8)) local_unnamed_addr #0

; Function Attrs: nounwind
declare void @_ZN7testing8internal12AssertHelperD1Ev(ptr noundef nonnull align 8 dereferenceable(8)) unnamed_addr #1

; Function Attrs: mustprogress nounwind uwtable
define linkonce_odr dso_local void @_ZN7testing15AssertionResultD2Ev(ptr noundef nonnull align 8 dereferenceable(16) %this) unnamed_addr #7 comdat align 2 personality ptr @__gxx_personality_v0 {
entry:
  %message_ = getelementptr inbounds %"class.testing::AssertionResult", ptr %this, i64 0, i32 1
  %0 = load ptr, ptr %message_, align 8
  %cmp.not.i = icmp eq ptr %0, null
  br i1 %cmp.not.i, label %_ZNSt10unique_ptrINSt7__cxx1112basic_stringIcSt11char_traitsIcESaIcEEESt14default_deleteIS5_EED2Ev.exit, label %_ZNKSt14default_deleteINSt7__cxx1112basic_stringIcSt11char_traitsIcESaIcEEEEclEPS5_.exit.i

_ZNKSt14default_deleteINSt7__cxx1112basic_stringIcSt11char_traitsIcESaIcEEEEclEPS5_.exit.i: ; preds = %entry
  tail call void @_ZNSt7__cxx1112basic_stringIcSt11char_traitsIcESaIcEED1Ev(ptr noundef nonnull align 8 dereferenceable(32) %0) #15
  tail call void @_ZdlPv(ptr noundef nonnull %0) #16
  br label %_ZNSt10unique_ptrINSt7__cxx1112basic_stringIcSt11char_traitsIcESaIcEEESt14default_deleteIS5_EED2Ev.exit

_ZNSt10unique_ptrINSt7__cxx1112basic_stringIcSt11char_traitsIcESaIcEEESt14default_deleteIS5_EED2Ev.exit: ; preds = %entry, %_ZNKSt14default_deleteINSt7__cxx1112basic_stringIcSt11char_traitsIcESaIcEEEEclEPS5_.exit.i
  store ptr null, ptr %message_, align 8
  ret void
}

declare void @_ZN7testing16AssertionSuccessEv(ptr sret(%"class.testing::AssertionResult") align 8) local_unnamed_addr #0

; Function Attrs: mustprogress uwtable
define linkonce_odr dso_local void @_ZN7testing8internal18CmpHelperEQFailureIiiEENS_15AssertionResultEPKcS4_RKT_RKT0_(ptr noalias sret(%"class.testing::AssertionResult") align 8 %agg.result, ptr noundef %lhs_expression, ptr noundef %rhs_expression, ptr noundef nonnull align 4 dereferenceable(4) %lhs, ptr noundef nonnull align 4 dereferenceable(4) %rhs) local_unnamed_addr #3 comdat personality ptr @__gxx_personality_v0 {
entry:
  %ss.i.i.i4 = alloca %"class.std::__cxx11::basic_stringstream", align 8
  %ss.i.i.i = alloca %"class.std::__cxx11::basic_stringstream", align 8
  %ref.tmp = alloca %"class.std::__cxx11::basic_string", align 8
  %ref.tmp1 = alloca %"class.std::__cxx11::basic_string", align 8
  call void @llvm.lifetime.start.p0(i64 392, ptr nonnull %ss.i.i.i), !noalias !5
  call void @_ZNSt7__cxx1118basic_stringstreamIcSt11char_traitsIcESaIcEEC1Ev(ptr noundef nonnull align 8 dereferenceable(128) %ss.i.i.i), !noalias !10
  %add.ptr.i.i.i = getelementptr inbounds i8, ptr %ss.i.i.i, i64 16
  %0 = load i32, ptr %lhs, align 4, !noalias !10
  %call.i.i.i.i.i.i1.i.i.i = invoke noundef nonnull align 8 dereferenceable(8) ptr @_ZNSolsEi(ptr noundef nonnull align 8 dereferenceable(8) %add.ptr.i.i.i, i32 noundef %0)
          to label %invoke.cont.i.i.i unwind label %lpad.i.i.i, !noalias !10

invoke.cont.i.i.i:                                ; preds = %entry
  invoke void @_ZNKSt7__cxx1118basic_stringstreamIcSt11char_traitsIcESaIcEE3strEv(ptr nonnull sret(%"class.std::__cxx11::basic_string") align 8 %ref.tmp, ptr noundef nonnull align 8 dereferenceable(128) %ss.i.i.i)
          to label %_ZN7testing8internal33FormatForComparisonFailureMessageIiiEENSt7__cxx1112basic_stringIcSt11char_traitsIcESaIcEEERKT_RKT0_.exit unwind label %lpad.i.i.i

common.resume:                                    ; preds = %ehcleanup, %lpad.i.i.i
  %common.resume.op = phi { ptr, i32 } [ %1, %lpad.i.i.i ], [ %.pn, %ehcleanup ]
  resume { ptr, i32 } %common.resume.op

lpad.i.i.i:                                       ; preds = %invoke.cont.i.i.i, %entry
  %1 = landingpad { ptr, i32 }
          cleanup
  call void @_ZNSt7__cxx1118basic_stringstreamIcSt11char_traitsIcESaIcEED1Ev(ptr noundef nonnull align 8 dereferenceable(128) %ss.i.i.i) #15
  br label %common.resume

_ZN7testing8internal33FormatForComparisonFailureMessageIiiEENSt7__cxx1112basic_stringIcSt11char_traitsIcESaIcEEERKT_RKT0_.exit: ; preds = %invoke.cont.i.i.i
  call void @_ZNSt7__cxx1118basic_stringstreamIcSt11char_traitsIcESaIcEED1Ev(ptr noundef nonnull align 8 dereferenceable(128) %ss.i.i.i) #15
  call void @llvm.lifetime.end.p0(i64 392, ptr nonnull %ss.i.i.i), !noalias !5
  call void @llvm.lifetime.start.p0(i64 392, ptr nonnull %ss.i.i.i4), !noalias !13
  invoke void @_ZNSt7__cxx1118basic_stringstreamIcSt11char_traitsIcESaIcEEC1Ev(ptr noundef nonnull align 8 dereferenceable(128) %ss.i.i.i4)
          to label %.noexc unwind label %lpad

.noexc:                                           ; preds = %_ZN7testing8internal33FormatForComparisonFailureMessageIiiEENSt7__cxx1112basic_stringIcSt11char_traitsIcESaIcEEERKT_RKT0_.exit
  %add.ptr.i.i.i5 = getelementptr inbounds i8, ptr %ss.i.i.i4, i64 16
  %2 = load i32, ptr %rhs, align 4, !noalias !18
  %call.i.i.i.i.i.i1.i.i.i6 = invoke noundef nonnull align 8 dereferenceable(8) ptr @_ZNSolsEi(ptr noundef nonnull align 8 dereferenceable(8) %add.ptr.i.i.i5, i32 noundef %2)
          to label %invoke.cont.i.i.i8 unwind label %lpad.i.i.i7, !noalias !18

invoke.cont.i.i.i8:                               ; preds = %.noexc
  invoke void @_ZNKSt7__cxx1118basic_stringstreamIcSt11char_traitsIcESaIcEE3strEv(ptr nonnull sret(%"class.std::__cxx11::basic_string") align 8 %ref.tmp1, ptr noundef nonnull align 8 dereferenceable(128) %ss.i.i.i4)
          to label %invoke.cont unwind label %lpad.i.i.i7

lpad.i.i.i7:                                      ; preds = %invoke.cont.i.i.i8, %.noexc
  %3 = landingpad { ptr, i32 }
          cleanup
  call void @_ZNSt7__cxx1118basic_stringstreamIcSt11char_traitsIcESaIcEED1Ev(ptr noundef nonnull align 8 dereferenceable(128) %ss.i.i.i4) #15
  br label %ehcleanup

invoke.cont:                                      ; preds = %invoke.cont.i.i.i8
  call void @_ZNSt7__cxx1118basic_stringstreamIcSt11char_traitsIcESaIcEED1Ev(ptr noundef nonnull align 8 dereferenceable(128) %ss.i.i.i4) #15
  call void @llvm.lifetime.end.p0(i64 392, ptr nonnull %ss.i.i.i4), !noalias !13
  invoke void @_ZN7testing8internal9EqFailureEPKcS2_RKNSt7__cxx1112basic_stringIcSt11char_traitsIcESaIcEEESA_b(ptr sret(%"class.testing::AssertionResult") align 8 %agg.result, ptr noundef %lhs_expression, ptr noundef %rhs_expression, ptr noundef nonnull align 8 dereferenceable(32) %ref.tmp, ptr noundef nonnull align 8 dereferenceable(32) %ref.tmp1, i1 noundef zeroext false)
          to label %invoke.cont3 unwind label %lpad2

invoke.cont3:                                     ; preds = %invoke.cont
  call void @_ZNSt7__cxx1112basic_stringIcSt11char_traitsIcESaIcEED1Ev(ptr noundef nonnull align 8 dereferenceable(32) %ref.tmp1) #15
  call void @_ZNSt7__cxx1112basic_stringIcSt11char_traitsIcESaIcEED1Ev(ptr noundef nonnull align 8 dereferenceable(32) %ref.tmp) #15
  ret void

lpad:                                             ; preds = %_ZN7testing8internal33FormatForComparisonFailureMessageIiiEENSt7__cxx1112basic_stringIcSt11char_traitsIcESaIcEEERKT_RKT0_.exit
  %4 = landingpad { ptr, i32 }
          cleanup
  br label %ehcleanup

lpad2:                                            ; preds = %invoke.cont
  %5 = landingpad { ptr, i32 }
          cleanup
  call void @_ZNSt7__cxx1112basic_stringIcSt11char_traitsIcESaIcEED1Ev(ptr noundef nonnull align 8 dereferenceable(32) %ref.tmp1) #15
  br label %ehcleanup

ehcleanup:                                        ; preds = %lpad, %lpad.i.i.i7, %lpad2
  %.pn = phi { ptr, i32 } [ %5, %lpad2 ], [ %4, %lpad ], [ %3, %lpad.i.i.i7 ]
  call void @_ZNSt7__cxx1112basic_stringIcSt11char_traitsIcESaIcEED1Ev(ptr noundef nonnull align 8 dereferenceable(32) %ref.tmp) #15
  br label %common.resume
}

declare void @_ZN7testing8internal9EqFailureEPKcS2_RKNSt7__cxx1112basic_stringIcSt11char_traitsIcESaIcEEESA_b(ptr sret(%"class.testing::AssertionResult") align 8, ptr noundef, ptr noundef, ptr noundef nonnull align 8 dereferenceable(32), ptr noundef nonnull align 8 dereferenceable(32), i1 noundef zeroext) local_unnamed_addr #0

declare void @_ZNSt7__cxx1118basic_stringstreamIcSt11char_traitsIcESaIcEEC1Ev(ptr noundef nonnull align 8 dereferenceable(128)) unnamed_addr #0

declare void @_ZNKSt7__cxx1118basic_stringstreamIcSt11char_traitsIcESaIcEE3strEv(ptr sret(%"class.std::__cxx11::basic_string") align 8, ptr noundef nonnull align 8 dereferenceable(128)) local_unnamed_addr #0

; Function Attrs: nounwind
declare void @_ZNSt7__cxx1118basic_stringstreamIcSt11char_traitsIcESaIcEED1Ev(ptr noundef nonnull align 8 dereferenceable(128)) unnamed_addr #1

declare noundef nonnull align 8 dereferenceable(8) ptr @_ZNSolsEi(ptr noundef nonnull align 8 dereferenceable(8), i32 noundef) local_unnamed_addr #0

; Function Attrs: nounwind
declare noundef ptr @_ZNKSt7__cxx1112basic_stringIcSt11char_traitsIcESaIcEE5c_strEv(ptr noundef nonnull align 8 dereferenceable(32)) local_unnamed_addr #1

; Function Attrs: noreturn nounwind uwtable
define linkonce_odr hidden void @__clang_call_terminate(ptr noundef %0) local_unnamed_addr #8 comdat {
  %2 = tail call ptr @__cxa_begin_catch(ptr %0) #15
  tail call void @_ZSt9terminatev() #18
  unreachable
}

declare ptr @__cxa_begin_catch(ptr) local_unnamed_addr

declare void @_ZSt9terminatev() local_unnamed_addr

; Function Attrs: mustprogress nofree norecurse nosync nounwind willreturn memory(none) uwtable
define internal void @_ZN7testing8internal15TestFactoryImplIN4absl13base_internal12_GLOBAL__N_135InvokeTest_NonCopyableArgument_TestEED2Ev(ptr nocapture nonnull readnone align 8 %this) unnamed_addr #6 align 2 {
entry:
  ret void
}

; Function Attrs: mustprogress nounwind uwtable
define internal void @_ZN7testing8internal15TestFactoryImplIN4absl13base_internal12_GLOBAL__N_135InvokeTest_NonCopyableArgument_TestEED0Ev(ptr noundef nonnull align 8 dereferenceable(8) %this) unnamed_addr #7 align 2 {
entry:
  tail call void @_ZdlPv(ptr noundef nonnull %this) #16
  ret void
}

; Function Attrs: mustprogress uwtable
define internal noundef nonnull ptr @_ZN7testing8internal15TestFactoryImplIN4absl13base_internal12_GLOBAL__N_135InvokeTest_NonCopyableArgument_TestEE10CreateTestEv(ptr nocapture nonnull readnone align 8 %this) unnamed_addr #3 align 2 personality ptr @__gxx_personality_v0 {
entry:
  %call = tail call noalias noundef nonnull dereferenceable(16) ptr @_Znwm(i64 noundef 16) #17
  invoke void @_ZN7testing4TestC2Ev(ptr noundef nonnull align 8 dereferenceable(16) %call)
          to label %invoke.cont unwind label %lpad

invoke.cont:                                      ; preds = %entry
  store ptr getelementptr inbounds ({ [8 x ptr] }, ptr @_ZTVN4absl13base_internal12_GLOBAL__N_135InvokeTest_NonCopyableArgument_TestE, i64 0, inrange i32 0, i64 2), ptr %call, align 8
  ret ptr %call

lpad:                                             ; preds = %entry
  %0 = landingpad { ptr, i32 }
          cleanup
  tail call void @_ZdlPv(ptr noundef nonnull %call) #16
  resume { ptr, i32 } %0
}

; Function Attrs: mustprogress nounwind uwtable
define internal void @_ZN4absl13base_internal12_GLOBAL__N_135InvokeTest_NonCopyableArgument_TestD2Ev(ptr noundef nonnull align 8 dereferenceable(16) %this) unnamed_addr #7 align 2 {
entry:
  tail call void @_ZN7testing4TestD2Ev(ptr noundef nonnull align 8 dereferenceable(16) %this) #15
  ret void
}

; Function Attrs: mustprogress nounwind uwtable
define internal void @_ZN4absl13base_internal12_GLOBAL__N_135InvokeTest_NonCopyableArgument_TestD0Ev(ptr noundef nonnull align 8 dereferenceable(16) %this) unnamed_addr #7 align 2 {
entry:
  tail call void @_ZN7testing4TestD2Ev(ptr noundef nonnull align 8 dereferenceable(16) %this) #15
  tail call void @_ZdlPv(ptr noundef nonnull %this) #16
  ret void
}

; Function Attrs: mustprogress uwtable
define internal void @_ZN4absl13base_internal12_GLOBAL__N_135InvokeTest_NonCopyableArgument_Test8TestBodyEv(ptr nocapture nonnull readnone align 8 %this) unnamed_addr #3 align 2 personality ptr @__gxx_personality_v0 {
invoke.cont:
  %gtest_ar = alloca %"class.testing::AssertionResult", align 8
  %ref.tmp7 = alloca %"class.testing::Message", align 8
  %ref.tmp10 = alloca %"class.testing::internal::AssertHelper", align 8
  call void @_ZN7testing16AssertionSuccessEv(ptr nonnull sret(%"class.testing::AssertionResult") align 8 %gtest_ar)
  %0 = load i8, ptr %gtest_ar, align 8
  %1 = and i8 %0, 1
  %tobool.i.not = icmp eq i8 %1, 0
  br i1 %tobool.i.not, label %if.else, label %if.end

if.else:                                          ; preds = %invoke.cont
  invoke void @_ZN7testing7MessageC1Ev(ptr noundef nonnull align 8 dereferenceable(8) %ref.tmp7)
          to label %invoke.cont9 unwind label %lpad8

invoke.cont9:                                     ; preds = %if.else
  %message_.i.i = getelementptr inbounds %"class.testing::AssertionResult", ptr %gtest_ar, i64 0, i32 1
  %2 = load ptr, ptr %message_.i.i, align 8
  %cmp.i.i.not.i.i = icmp eq ptr %2, null
  br i1 %cmp.i.i.not.i.i, label %invoke.cont12, label %cond.true.i.i

cond.true.i.i:                                    ; preds = %invoke.cont9
  %call4.i.i = call noundef ptr @_ZNKSt7__cxx1112basic_stringIcSt11char_traitsIcESaIcEE5c_strEv(ptr noundef nonnull align 8 dereferenceable(32) %2) #15
  br label %invoke.cont12

invoke.cont12:                                    ; preds = %cond.true.i.i, %invoke.cont9
  %cond.i.i = phi ptr [ %call4.i.i, %cond.true.i.i ], [ @.str.60, %invoke.cont9 ]
  invoke void @_ZN7testing8internal12AssertHelperC1ENS_14TestPartResult4TypeEPKciS5_(ptr noundef nonnull align 8 dereferenceable(8) %ref.tmp10, i32 noundef 1, ptr noundef nonnull @.str.3, i32 noundef 117, ptr noundef %cond.i.i)
          to label %invoke.cont14 unwind label %lpad11

invoke.cont14:                                    ; preds = %invoke.cont12
  invoke void @_ZNK7testing8internal12AssertHelperaSERKNS_7MessageE(ptr noundef nonnull align 8 dereferenceable(8) %ref.tmp10, ptr noundef nonnull align 8 dereferenceable(8) %ref.tmp7)
          to label %invoke.cont16 unwind label %lpad15

invoke.cont16:                                    ; preds = %invoke.cont14
  call void @_ZN7testing8internal12AssertHelperD1Ev(ptr noundef nonnull align 8 dereferenceable(8) %ref.tmp10) #15
  %3 = load ptr, ptr %ref.tmp7, align 8
  %cmp.not.i.i = icmp eq ptr %3, null
  br i1 %cmp.not.i.i, label %_ZN7testing7MessageD2Ev.exit, label %_ZNKSt14default_deleteINSt7__cxx1118basic_stringstreamIcSt11char_traitsIcESaIcEEEEclEPS5_.exit.i.i

_ZNKSt14default_deleteINSt7__cxx1118basic_stringstreamIcSt11char_traitsIcESaIcEEEEclEPS5_.exit.i.i: ; preds = %invoke.cont16
  %vtable.i.i.i = load ptr, ptr %3, align 8
  %vfn.i.i.i = getelementptr inbounds ptr, ptr %vtable.i.i.i, i64 1
  %4 = load ptr, ptr %vfn.i.i.i, align 8
  call void %4(ptr noundef nonnull align 8 dereferenceable(128) %3) #15
  br label %_ZN7testing7MessageD2Ev.exit

_ZN7testing7MessageD2Ev.exit:                     ; preds = %invoke.cont16, %_ZNKSt14default_deleteINSt7__cxx1118basic_stringstreamIcSt11char_traitsIcESaIcEEEEclEPS5_.exit.i.i
  store ptr null, ptr %ref.tmp7, align 8
  br label %if.end

lpad8:                                            ; preds = %if.else
  %5 = landingpad { ptr, i32 }
          cleanup
  br label %ehcleanup17

lpad11:                                           ; preds = %invoke.cont12
  %6 = landingpad { ptr, i32 }
          cleanup
  br label %ehcleanup

lpad15:                                           ; preds = %invoke.cont14
  %7 = landingpad { ptr, i32 }
          cleanup
  call void @_ZN7testing8internal12AssertHelperD1Ev(ptr noundef nonnull align 8 dereferenceable(8) %ref.tmp10) #15
  br label %ehcleanup

ehcleanup:                                        ; preds = %lpad15, %lpad11
  %.pn = phi { ptr, i32 } [ %7, %lpad15 ], [ %6, %lpad11 ]
  %8 = load ptr, ptr %ref.tmp7, align 8
  %cmp.not.i.i8 = icmp eq ptr %8, null
  br i1 %cmp.not.i.i8, label %_ZN7testing7MessageD2Ev.exit12, label %_ZNKSt14default_deleteINSt7__cxx1118basic_stringstreamIcSt11char_traitsIcESaIcEEEEclEPS5_.exit.i.i9

_ZNKSt14default_deleteINSt7__cxx1118basic_stringstreamIcSt11char_traitsIcESaIcEEEEclEPS5_.exit.i.i9: ; preds = %ehcleanup
  %vtable.i.i.i10 = load ptr, ptr %8, align 8
  %vfn.i.i.i11 = getelementptr inbounds ptr, ptr %vtable.i.i.i10, i64 1
  %9 = load ptr, ptr %vfn.i.i.i11, align 8
  call void %9(ptr noundef nonnull align 8 dereferenceable(128) %8) #15
  br label %_ZN7testing7MessageD2Ev.exit12

_ZN7testing7MessageD2Ev.exit12:                   ; preds = %ehcleanup, %_ZNKSt14default_deleteINSt7__cxx1118basic_stringstreamIcSt11char_traitsIcESaIcEEEEclEPS5_.exit.i.i9
  store ptr null, ptr %ref.tmp7, align 8
  br label %ehcleanup17

if.end:                                           ; preds = %invoke.cont, %_ZN7testing7MessageD2Ev.exit
  %message_.i = getelementptr inbounds %"class.testing::AssertionResult", ptr %gtest_ar, i64 0, i32 1
  %10 = load ptr, ptr %message_.i, align 8
  %cmp.not.i.i13 = icmp eq ptr %10, null
  br i1 %cmp.not.i.i13, label %_ZN7testing15AssertionResultD2Ev.exit, label %_ZNKSt14default_deleteINSt7__cxx1112basic_stringIcSt11char_traitsIcESaIcEEEEclEPS5_.exit.i.i

_ZNKSt14default_deleteINSt7__cxx1112basic_stringIcSt11char_traitsIcESaIcEEEEclEPS5_.exit.i.i: ; preds = %if.end
  call void @_ZNSt7__cxx1112basic_stringIcSt11char_traitsIcESaIcEED1Ev(ptr noundef nonnull align 8 dereferenceable(32) %10) #15
  call void @_ZdlPv(ptr noundef nonnull %10) #16
  br label %_ZN7testing15AssertionResultD2Ev.exit

_ZN7testing15AssertionResultD2Ev.exit:            ; preds = %if.end, %_ZNKSt14default_deleteINSt7__cxx1112basic_stringIcSt11char_traitsIcESaIcEEEEclEPS5_.exit.i.i
  ret void

ehcleanup17:                                      ; preds = %_ZN7testing7MessageD2Ev.exit12, %lpad8
  %.pn.pn = phi { ptr, i32 } [ %.pn, %_ZN7testing7MessageD2Ev.exit12 ], [ %5, %lpad8 ]
  call void @_ZN7testing15AssertionResultD2Ev(ptr noundef nonnull align 8 dereferenceable(16) %gtest_ar) #15
  resume { ptr, i32 } %.pn.pn
}

; Function Attrs: mustprogress nofree norecurse nosync nounwind willreturn memory(none) uwtable
define internal void @_ZN7testing8internal15TestFactoryImplIN4absl13base_internal12_GLOBAL__N_133InvokeTest_NonCopyableResult_TestEED2Ev(ptr nocapture nonnull readnone align 8 %this) unnamed_addr #6 align 2 {
entry:
  ret void
}

; Function Attrs: mustprogress nounwind uwtable
define internal void @_ZN7testing8internal15TestFactoryImplIN4absl13base_internal12_GLOBAL__N_133InvokeTest_NonCopyableResult_TestEED0Ev(ptr noundef nonnull align 8 dereferenceable(8) %this) unnamed_addr #7 align 2 {
entry:
  tail call void @_ZdlPv(ptr noundef nonnull %this) #16
  ret void
}

; Function Attrs: mustprogress uwtable
define internal noundef nonnull ptr @_ZN7testing8internal15TestFactoryImplIN4absl13base_internal12_GLOBAL__N_133InvokeTest_NonCopyableResult_TestEE10CreateTestEv(ptr nocapture nonnull readnone align 8 %this) unnamed_addr #3 align 2 personality ptr @__gxx_personality_v0 {
entry:
  %call = tail call noalias noundef nonnull dereferenceable(16) ptr @_Znwm(i64 noundef 16) #17
  invoke void @_ZN7testing4TestC2Ev(ptr noundef nonnull align 8 dereferenceable(16) %call)
          to label %invoke.cont unwind label %lpad

invoke.cont:                                      ; preds = %entry
  store ptr getelementptr inbounds ({ [8 x ptr] }, ptr @_ZTVN4absl13base_internal12_GLOBAL__N_133InvokeTest_NonCopyableResult_TestE, i64 0, inrange i32 0, i64 2), ptr %call, align 8
  ret ptr %call

lpad:                                             ; preds = %entry
  %0 = landingpad { ptr, i32 }
          cleanup
  tail call void @_ZdlPv(ptr noundef nonnull %call) #16
  resume { ptr, i32 } %0
}

; Function Attrs: mustprogress nounwind uwtable
define internal void @_ZN4absl13base_internal12_GLOBAL__N_133InvokeTest_NonCopyableResult_TestD2Ev(ptr noundef nonnull align 8 dereferenceable(16) %this) unnamed_addr #7 align 2 {
entry:
  tail call void @_ZN7testing4TestD2Ev(ptr noundef nonnull align 8 dereferenceable(16) %this) #15
  ret void
}

; Function Attrs: mustprogress nounwind uwtable
define internal void @_ZN4absl13base_internal12_GLOBAL__N_133InvokeTest_NonCopyableResult_TestD0Ev(ptr noundef nonnull align 8 dereferenceable(16) %this) unnamed_addr #7 align 2 {
entry:
  tail call void @_ZN7testing4TestD2Ev(ptr noundef nonnull align 8 dereferenceable(16) %this) #15
  tail call void @_ZdlPv(ptr noundef nonnull %this) #16
  ret void
}

; Function Attrs: mustprogress uwtable
define internal void @_ZN4absl13base_internal12_GLOBAL__N_133InvokeTest_NonCopyableResult_Test8TestBodyEv(ptr nocapture nonnull readnone align 8 %this) unnamed_addr #3 align 2 personality ptr @__gxx_personality_v0 {
entry:
  %gtest_ar = alloca %"class.testing::AssertionResult", align 8
  %ref.tmp = alloca %"class.testing::internal::PredicateFormatterFromMatcher", align 4
  %ref.tmp7 = alloca %"class.std::unique_ptr.46", align 8
  %ref.tmp10 = alloca %"class.testing::Message", align 8
  %ref.tmp13 = alloca %"class.testing::internal::AssertHelper", align 8
  store i32 42, ptr %ref.tmp, align 4
  tail call void @llvm.experimental.noalias.scope.decl(metadata !21)
  tail call void @llvm.experimental.noalias.scope.decl(metadata !24)
  %call.i.i = tail call noalias noundef nonnull dereferenceable(4) ptr @_Znwm(i64 noundef 4) #17, !noalias !27
  store i32 42, ptr %call.i.i, align 4, !noalias !27
  store ptr %call.i.i, ptr %ref.tmp7, align 8, !alias.scope !27
  invoke void @_ZNK7testing8internal29PredicateFormatterFromMatcherINS0_14PointeeMatcherIiEEEclISt10unique_ptrIiSt14default_deleteIiEEEENS_15AssertionResultEPKcRKT_(ptr nonnull sret(%"class.testing::AssertionResult") align 8 %gtest_ar, ptr noundef nonnull align 4 dereferenceable(4) %ref.tmp, ptr noundef nonnull @.str.63, ptr noundef nonnull align 8 dereferenceable(8) %ref.tmp7)
          to label %invoke.cont unwind label %lpad

invoke.cont:                                      ; preds = %entry
  %0 = load ptr, ptr %ref.tmp7, align 8
  %cmp.not.i = icmp eq ptr %0, null
  br i1 %cmp.not.i, label %_ZNSt10unique_ptrIiSt14default_deleteIiEED2Ev.exit, label %_ZNKSt14default_deleteIiEclEPi.exit.i

_ZNKSt14default_deleteIiEclEPi.exit.i:            ; preds = %invoke.cont
  call void @_ZdlPv(ptr noundef nonnull %0) #16
  br label %_ZNSt10unique_ptrIiSt14default_deleteIiEED2Ev.exit

_ZNSt10unique_ptrIiSt14default_deleteIiEED2Ev.exit: ; preds = %invoke.cont, %_ZNKSt14default_deleteIiEclEPi.exit.i
  store ptr null, ptr %ref.tmp7, align 8
  %1 = load i8, ptr %gtest_ar, align 8
  %2 = and i8 %1, 1
  %tobool.i.not = icmp eq i8 %2, 0
  br i1 %tobool.i.not, label %if.else, label %if.end

lpad:                                             ; preds = %entry
  %3 = landingpad { ptr, i32 }
          cleanup
  %4 = load ptr, ptr %ref.tmp7, align 8
  %cmp.not.i4 = icmp eq ptr %4, null
  br i1 %cmp.not.i4, label %eh.resume, label %_ZNKSt14default_deleteIiEclEPi.exit.i5

_ZNKSt14default_deleteIiEclEPi.exit.i5:           ; preds = %lpad
  call void @_ZdlPv(ptr noundef nonnull %4) #16
  br label %eh.resume

if.else:                                          ; preds = %_ZNSt10unique_ptrIiSt14default_deleteIiEED2Ev.exit
  invoke void @_ZN7testing7MessageC1Ev(ptr noundef nonnull align 8 dereferenceable(8) %ref.tmp10)
          to label %invoke.cont12 unwind label %lpad11

invoke.cont12:                                    ; preds = %if.else
  %message_.i.i = getelementptr inbounds %"class.testing::AssertionResult", ptr %gtest_ar, i64 0, i32 1
  %5 = load ptr, ptr %message_.i.i, align 8
  %cmp.i.i.not.i.i = icmp eq ptr %5, null
  br i1 %cmp.i.i.not.i.i, label %invoke.cont15, label %cond.true.i.i

cond.true.i.i:                                    ; preds = %invoke.cont12
  %call4.i.i = call noundef ptr @_ZNKSt7__cxx1112basic_stringIcSt11char_traitsIcESaIcEE5c_strEv(ptr noundef nonnull align 8 dereferenceable(32) %5) #15
  br label %invoke.cont15

invoke.cont15:                                    ; preds = %cond.true.i.i, %invoke.cont12
  %cond.i.i = phi ptr [ %call4.i.i, %cond.true.i.i ], [ @.str.60, %invoke.cont12 ]
  invoke void @_ZN7testing8internal12AssertHelperC1ENS_14TestPartResult4TypeEPKciS5_(ptr noundef nonnull align 8 dereferenceable(8) %ref.tmp13, i32 noundef 1, ptr noundef nonnull @.str.3, i32 noundef 121, ptr noundef %cond.i.i)
          to label %invoke.cont17 unwind label %lpad14

invoke.cont17:                                    ; preds = %invoke.cont15
  invoke void @_ZNK7testing8internal12AssertHelperaSERKNS_7MessageE(ptr noundef nonnull align 8 dereferenceable(8) %ref.tmp13, ptr noundef nonnull align 8 dereferenceable(8) %ref.tmp10)
          to label %invoke.cont19 unwind label %lpad18

invoke.cont19:                                    ; preds = %invoke.cont17
  call void @_ZN7testing8internal12AssertHelperD1Ev(ptr noundef nonnull align 8 dereferenceable(8) %ref.tmp13) #15
  %6 = load ptr, ptr %ref.tmp10, align 8
  %cmp.not.i.i = icmp eq ptr %6, null
  br i1 %cmp.not.i.i, label %_ZN7testing7MessageD2Ev.exit, label %_ZNKSt14default_deleteINSt7__cxx1118basic_stringstreamIcSt11char_traitsIcESaIcEEEEclEPS5_.exit.i.i

_ZNKSt14default_deleteINSt7__cxx1118basic_stringstreamIcSt11char_traitsIcESaIcEEEEclEPS5_.exit.i.i: ; preds = %invoke.cont19
  %vtable.i.i.i = load ptr, ptr %6, align 8
  %vfn.i.i.i = getelementptr inbounds ptr, ptr %vtable.i.i.i, i64 1
  %7 = load ptr, ptr %vfn.i.i.i, align 8
  call void %7(ptr noundef nonnull align 8 dereferenceable(128) %6) #15
  br label %_ZN7testing7MessageD2Ev.exit

_ZN7testing7MessageD2Ev.exit:                     ; preds = %invoke.cont19, %_ZNKSt14default_deleteINSt7__cxx1118basic_stringstreamIcSt11char_traitsIcESaIcEEEEclEPS5_.exit.i.i
  store ptr null, ptr %ref.tmp10, align 8
  br label %if.end

lpad11:                                           ; preds = %if.else
  %8 = landingpad { ptr, i32 }
          cleanup
  br label %ehcleanup20

lpad14:                                           ; preds = %invoke.cont15
  %9 = landingpad { ptr, i32 }
          cleanup
  br label %ehcleanup

lpad18:                                           ; preds = %invoke.cont17
  %10 = landingpad { ptr, i32 }
          cleanup
  call void @_ZN7testing8internal12AssertHelperD1Ev(ptr noundef nonnull align 8 dereferenceable(8) %ref.tmp13) #15
  br label %ehcleanup

ehcleanup:                                        ; preds = %lpad18, %lpad14
  %.pn = phi { ptr, i32 } [ %10, %lpad18 ], [ %9, %lpad14 ]
  %11 = load ptr, ptr %ref.tmp10, align 8
  %cmp.not.i.i7 = icmp eq ptr %11, null
  br i1 %cmp.not.i.i7, label %_ZN7testing7MessageD2Ev.exit11, label %_ZNKSt14default_deleteINSt7__cxx1118basic_stringstreamIcSt11char_traitsIcESaIcEEEEclEPS5_.exit.i.i8

_ZNKSt14default_deleteINSt7__cxx1118basic_stringstreamIcSt11char_traitsIcESaIcEEEEclEPS5_.exit.i.i8: ; preds = %ehcleanup
  %vtable.i.i.i9 = load ptr, ptr %11, align 8
  %vfn.i.i.i10 = getelementptr inbounds ptr, ptr %vtable.i.i.i9, i64 1
  %12 = load ptr, ptr %vfn.i.i.i10, align 8
  call void %12(ptr noundef nonnull align 8 dereferenceable(128) %11) #15
  br label %_ZN7testing7MessageD2Ev.exit11

_ZN7testing7MessageD2Ev.exit11:                   ; preds = %ehcleanup, %_ZNKSt14default_deleteINSt7__cxx1118basic_stringstreamIcSt11char_traitsIcESaIcEEEEclEPS5_.exit.i.i8
  store ptr null, ptr %ref.tmp10, align 8
  br label %ehcleanup20

if.end:                                           ; preds = %_ZNSt10unique_ptrIiSt14default_deleteIiEED2Ev.exit, %_ZN7testing7MessageD2Ev.exit
  %message_.i = getelementptr inbounds %"class.testing::AssertionResult", ptr %gtest_ar, i64 0, i32 1
  %13 = load ptr, ptr %message_.i, align 8
  %cmp.not.i.i12 = icmp eq ptr %13, null
  br i1 %cmp.not.i.i12, label %_ZN7testing15AssertionResultD2Ev.exit, label %_ZNKSt14default_deleteINSt7__cxx1112basic_stringIcSt11char_traitsIcESaIcEEEEclEPS5_.exit.i.i

_ZNKSt14default_deleteINSt7__cxx1112basic_stringIcSt11char_traitsIcESaIcEEEEclEPS5_.exit.i.i: ; preds = %if.end
  call void @_ZNSt7__cxx1112basic_stringIcSt11char_traitsIcESaIcEED1Ev(ptr noundef nonnull align 8 dereferenceable(32) %13) #15
  call void @_ZdlPv(ptr noundef nonnull %13) #16
  br label %_ZN7testing15AssertionResultD2Ev.exit

_ZN7testing15AssertionResultD2Ev.exit:            ; preds = %if.end, %_ZNKSt14default_deleteINSt7__cxx1112basic_stringIcSt11char_traitsIcESaIcEEEEclEPS5_.exit.i.i
  ret void

ehcleanup20:                                      ; preds = %_ZN7testing7MessageD2Ev.exit11, %lpad11
  %.pn.pn = phi { ptr, i32 } [ %.pn, %_ZN7testing7MessageD2Ev.exit11 ], [ %8, %lpad11 ]
  call void @_ZN7testing15AssertionResultD2Ev(ptr noundef nonnull align 8 dereferenceable(16) %gtest_ar) #15
  br label %eh.resume

eh.resume:                                        ; preds = %_ZNKSt14default_deleteIiEclEPi.exit.i5, %lpad, %ehcleanup20
  %.pn.pn.pn = phi { ptr, i32 } [ %.pn.pn, %ehcleanup20 ], [ %3, %lpad ], [ %3, %_ZNKSt14default_deleteIiEclEPi.exit.i5 ]
  resume { ptr, i32 } %.pn.pn.pn
}

; Function Attrs: mustprogress uwtable
define linkonce_odr dso_local void @_ZNK7testing8internal29PredicateFormatterFromMatcherINS0_14PointeeMatcherIiEEEclISt10unique_ptrIiSt14default_deleteIiEEEENS_15AssertionResultEPKcRKT_(ptr noalias sret(%"class.testing::AssertionResult") align 8 %agg.result, ptr noundef nonnull align 4 dereferenceable(4) %this, ptr noundef %value_text, ptr noundef nonnull align 8 dereferenceable(8) %x) local_unnamed_addr #3 comdat align 2 personality ptr @__gxx_personality_v0 {
entry:
  %ref.tmp.i16 = alloca %"class.testing::Message", align 8
  %ref.tmp.i = alloca %"class.testing::internal::GTestLog", align 4
  %ref.tmp.i.i = alloca %"class.testing::internal::GTestLog", align 4
  %dummy.i = alloca %"class.testing::internal::DummyMatchResultListener", align 8
  %matcher = alloca %"class.testing::Matcher", align 8
  %ss = alloca %"class.std::__cxx11::basic_stringstream", align 8
  %listener = alloca %"class.testing::StringMatchResultListener", align 8
  %ref.tmp = alloca %"class.std::__cxx11::basic_string", align 8
  %ref.tmp31 = alloca %"class.testing::AssertionResult", align 8
  %ref.tmp33 = alloca %"class.std::__cxx11::basic_string", align 8
  tail call void @llvm.experimental.noalias.scope.decl(metadata !28)
  tail call void @llvm.experimental.noalias.scope.decl(metadata !31)
  tail call void @llvm.experimental.noalias.scope.decl(metadata !34)
  tail call void @llvm.experimental.noalias.scope.decl(metadata !37)
  tail call void @llvm.experimental.noalias.scope.decl(metadata !40)
  %call.i.i.i.i.i = tail call noalias noundef nonnull dereferenceable(32) ptr @_Znwm(i64 noundef 32) #17, !noalias !43
  store ptr getelementptr inbounds ({ [7 x ptr] }, ptr @_ZTVN7testing8internal14PointeeMatcherIiE4ImplIRKSt10unique_ptrIiSt14default_deleteIiEEEE, i64 0, inrange i32 0, i64 2), ptr %call.i.i.i.i.i, align 8, !noalias !43
  %matcher_.i.i.i.i.i.i = getelementptr inbounds %"class.testing::internal::PointeeMatcher<int>::Impl", ptr %call.i.i.i.i.i, i64 0, i32 1
  tail call void @llvm.experimental.noalias.scope.decl(metadata !44)
  tail call void @llvm.experimental.noalias.scope.decl(metadata !47)
  tail call void @llvm.experimental.noalias.scope.decl(metadata !50)
  %vtable_.i.i.i.i.i.i.i.i.i.i.i = getelementptr inbounds %"class.testing::internal::PointeeMatcher<int>::Impl", ptr %call.i.i.i.i.i, i64 0, i32 1, i32 0, i32 1
  store ptr getelementptr inbounds ({ [6 x ptr] }, ptr @_ZTVN7testing7MatcherIRKiEE, i64 0, inrange i32 0, i64 2), ptr %matcher_.i.i.i.i.i.i, align 8, !alias.scope !53, !noalias !43
  %0 = load i32, ptr %this, align 4, !noalias !54
  %ref.tmp.i.sroa.2.16.insert.ext.i.i.i.i.i.i.i.i.i = zext i32 %0 to i64
  store ptr @_ZZN7testing8internal11MatcherBaseIRKiE9GetVTableINS4_11ValuePolicyINS0_9EqMatcherIiEELb1EEEEEPKNS4_6VTableEvE7kVTable, ptr %vtable_.i.i.i.i.i.i.i.i.i.i.i, align 8, !alias.scope !53, !noalias !43
  %buffer_3.i.i.i.i.i.i.i.i.i.i.i.i = getelementptr inbounds %"class.testing::internal::PointeeMatcher<int>::Impl", ptr %call.i.i.i.i.i, i64 0, i32 1, i32 0, i32 2
  store i64 %ref.tmp.i.sroa.2.16.insert.ext.i.i.i.i.i.i.i.i.i, ptr %buffer_3.i.i.i.i.i.i.i.i.i.i.i.i, align 8, !alias.scope !53, !noalias !43
  %vtable_.i.i.i.i.i.i.i = getelementptr inbounds %"class.testing::internal::MatcherBase", ptr %matcher, i64 0, i32 1
  %buffer_.i.i.i.i.i.i.i = getelementptr inbounds %"class.testing::internal::MatcherBase", ptr %matcher, i64 0, i32 2
  store ptr @_ZZN7testing8internal11MatcherBaseIRKSt10unique_ptrIiSt14default_deleteIiEEE9GetVTableINS8_11ValuePolicyIPKNS_16MatcherInterfaceIS7_EELb1EEEEEPKNS8_6VTableEvE7kVTable, ptr %vtable_.i.i.i.i.i.i.i, align 8, !alias.scope !43
  %call.i.i1.i.i.i.i.i.i.i = tail call noalias noundef nonnull dereferenceable(16) ptr @_Znwm(i64 noundef 16) #17, !noalias !43
  store i32 1, ptr %call.i.i1.i.i.i.i.i.i.i, align 4, !noalias !43
  %value.i.i.i.i.i.i.i.i.i.i = getelementptr inbounds %"struct.testing::internal::SharedPayload", ptr %call.i.i1.i.i.i.i.i.i.i, i64 0, i32 1
  store ptr %call.i.i.i.i.i, ptr %value.i.i.i.i.i.i.i.i.i.i, align 8, !noalias !43
  store ptr %call.i.i1.i.i.i.i.i.i.i, ptr %buffer_.i.i.i.i.i.i.i, align 8, !alias.scope !43
  store ptr getelementptr inbounds ({ [6 x ptr] }, ptr @_ZTVN7testing7MatcherIRKSt10unique_ptrIiSt14default_deleteIiEEEE, i64 0, inrange i32 0, i64 2), ptr %matcher, align 8, !alias.scope !43
  call void @llvm.lifetime.start.p0(i64 16, ptr nonnull %dummy.i)
  %stream_.i.i.i = getelementptr inbounds %"class.testing::MatchResultListener", ptr %dummy.i, i64 0, i32 1
  store ptr null, ptr %stream_.i.i.i, align 8
  store ptr getelementptr inbounds ({ [4 x ptr] }, ptr @_ZTVN7testing8internal24DummyMatchResultListenerE, i64 0, inrange i32 0, i64 2), ptr %dummy.i, align 8
  call void @llvm.lifetime.start.p0(i64 4, ptr nonnull %ref.tmp.i.i)
  %call.i1.i7 = invoke noundef zeroext i1 @_ZN7testing8internal6IsTrueEb(i1 noundef zeroext true)
          to label %call.i1.i.noexc unwind label %lpad

call.i1.i.noexc:                                  ; preds = %entry
  br i1 %call.i1.i7, label %if.end.i.i, label %if.else.i.i

if.else.i.i:                                      ; preds = %call.i1.i.noexc
  invoke void @_ZN7testing8internal8GTestLogC1ENS0_16GTestLogSeverityEPKci(ptr noundef nonnull align 4 dereferenceable(4) %ref.tmp.i.i, i32 noundef 3, ptr noundef nonnull @.str.74, i32 noundef 233)
          to label %.noexc unwind label %lpad

.noexc:                                           ; preds = %if.else.i.i
  %call3.i.i = invoke noundef nonnull align 8 dereferenceable(8) ptr @_ZStlsISt11char_traitsIcEERSt13basic_ostreamIcT_ES5_PKc(ptr noundef nonnull align 8 dereferenceable(8) @_ZSt4cerr, ptr noundef nonnull @.str.75)
          to label %invoke.cont.i.i unwind label %lpad.i.i

invoke.cont.i.i:                                  ; preds = %.noexc
  call void @_ZN7testing8internal8GTestLogD1Ev(ptr noundef nonnull align 4 dereferenceable(4) %ref.tmp.i.i) #15
  br label %if.end.i.i

lpad.i.i:                                         ; preds = %.noexc
  %1 = landingpad { ptr, i32 }
          cleanup
  call void @_ZN7testing8internal8GTestLogD1Ev(ptr noundef nonnull align 4 dereferenceable(4) %ref.tmp.i.i) #15
  br label %ehcleanup42

if.end.i.i:                                       ; preds = %invoke.cont.i.i, %call.i1.i.noexc
  %2 = load ptr, ptr %vtable_.i.i.i.i.i.i.i, align 8
  %3 = load ptr, ptr %2, align 8
  %call5.i2.i8 = invoke noundef zeroext i1 %3(ptr noundef nonnull align 8 dereferenceable(24) %matcher, ptr noundef nonnull align 8 dereferenceable(8) %x, ptr noundef nonnull %dummy.i)
          to label %invoke.cont unwind label %lpad

invoke.cont:                                      ; preds = %if.end.i.i
  call void @llvm.lifetime.end.p0(i64 4, ptr nonnull %ref.tmp.i.i)
  call void @llvm.lifetime.end.p0(i64 16, ptr nonnull %dummy.i)
  br i1 %call5.i2.i8, label %if.then, label %if.end

if.then:                                          ; preds = %invoke.cont
  invoke void @_ZN7testing16AssertionSuccessEv(ptr sret(%"class.testing::AssertionResult") align 8 %agg.result)
          to label %cleanup unwind label %lpad

lpad:                                             ; preds = %if.end.i.i, %if.else.i.i, %entry, %if.end, %if.then
  %4 = landingpad { ptr, i32 }
          cleanup
  br label %ehcleanup42

if.end:                                           ; preds = %invoke.cont
  invoke void @_ZNSt7__cxx1118basic_stringstreamIcSt11char_traitsIcESaIcEEC1Ev(ptr noundef nonnull align 8 dereferenceable(128) %ss)
          to label %invoke.cont3 unwind label %lpad

invoke.cont3:                                     ; preds = %if.end
  %add.ptr = getelementptr inbounds i8, ptr %ss, i64 16
  %call6 = invoke noundef nonnull align 8 dereferenceable(8) ptr @_ZStlsISt11char_traitsIcEERSt13basic_ostreamIcT_ES5_PKc(ptr noundef nonnull align 8 dereferenceable(8) %add.ptr, ptr noundef nonnull @.str.64)
          to label %invoke.cont5 unwind label %lpad4

invoke.cont5:                                     ; preds = %invoke.cont3
  %call8 = invoke noundef nonnull align 8 dereferenceable(8) ptr @_ZStlsISt11char_traitsIcEERSt13basic_ostreamIcT_ES5_PKc(ptr noundef nonnull align 8 dereferenceable(8) %call6, ptr noundef %value_text)
          to label %invoke.cont7 unwind label %lpad4

invoke.cont7:                                     ; preds = %invoke.cont5
  %call10 = invoke noundef nonnull align 8 dereferenceable(8) ptr @_ZStlsISt11char_traitsIcEERSt13basic_ostreamIcT_ES5_PKc(ptr noundef nonnull align 8 dereferenceable(8) %call8, ptr noundef nonnull @.str.65)
          to label %invoke.cont9 unwind label %lpad4

invoke.cont9:                                     ; preds = %invoke.cont7
  %call12 = invoke noundef nonnull align 8 dereferenceable(8) ptr @_ZStlsISt11char_traitsIcEERSt13basic_ostreamIcT_ES5_PKc(ptr noundef nonnull align 8 dereferenceable(8) %call10, ptr noundef nonnull @.str.66)
          to label %invoke.cont11 unwind label %lpad4

invoke.cont11:                                    ; preds = %invoke.cont9
  call void @llvm.lifetime.start.p0(i64 4, ptr nonnull %ref.tmp.i)
  %5 = load ptr, ptr %vtable_.i.i.i.i.i.i.i, align 8
  %cmp.i = icmp ne ptr %5, null
  %call.i9 = invoke noundef zeroext i1 @_ZN7testing8internal6IsTrueEb(i1 noundef zeroext %cmp.i)
          to label %call.i.noexc unwind label %lpad4

call.i.noexc:                                     ; preds = %invoke.cont11
  br i1 %call.i9, label %if.end.i, label %if.else.i

if.else.i:                                        ; preds = %call.i.noexc
  invoke void @_ZN7testing8internal8GTestLogC1ENS0_16GTestLogSeverityEPKci(ptr noundef nonnull align 4 dereferenceable(4) %ref.tmp.i, i32 noundef 3, ptr noundef nonnull @.str.74, i32 noundef 245)
          to label %.noexc10 unwind label %lpad4

.noexc10:                                         ; preds = %if.else.i
  %call3.i = invoke noundef nonnull align 8 dereferenceable(8) ptr @_ZStlsISt11char_traitsIcEERSt13basic_ostreamIcT_ES5_PKc(ptr noundef nonnull align 8 dereferenceable(8) @_ZSt4cerr, ptr noundef nonnull @.str.75)
          to label %invoke.cont.i unwind label %lpad.i

invoke.cont.i:                                    ; preds = %.noexc10
  call void @_ZN7testing8internal8GTestLogD1Ev(ptr noundef nonnull align 4 dereferenceable(4) %ref.tmp.i) #15
  br label %if.end.i

lpad.i:                                           ; preds = %.noexc10
  %6 = landingpad { ptr, i32 }
          cleanup
  call void @_ZN7testing8internal8GTestLogD1Ev(ptr noundef nonnull align 4 dereferenceable(4) %ref.tmp.i) #15
  br label %ehcleanup41

if.end.i:                                         ; preds = %invoke.cont.i, %call.i.noexc
  %7 = load ptr, ptr %vtable_.i.i.i.i.i.i.i, align 8
  %describe.i = getelementptr inbounds %"struct.testing::internal::MatcherBase<const std::unique_ptr<int> &>::VTable", ptr %7, i64 0, i32 1
  %8 = load ptr, ptr %describe.i, align 8
  invoke void %8(ptr noundef nonnull align 8 dereferenceable(24) %matcher, ptr noundef nonnull %add.ptr, i1 noundef zeroext false)
          to label %invoke.cont14 unwind label %lpad4

invoke.cont14:                                    ; preds = %if.end.i
  call void @llvm.lifetime.end.p0(i64 4, ptr nonnull %ref.tmp.i)
  %ss_.i = getelementptr inbounds %"class.testing::StringMatchResultListener", ptr %listener, i64 0, i32 1
  %add.ptr.i = getelementptr inbounds %"class.testing::StringMatchResultListener", ptr %listener, i64 0, i32 1, i32 0, i32 1
  %stream_.i.i = getelementptr inbounds %"class.testing::MatchResultListener", ptr %listener, i64 0, i32 1
  store ptr %add.ptr.i, ptr %stream_.i.i, align 8
  store ptr getelementptr inbounds ({ [4 x ptr] }, ptr @_ZTVN7testing25StringMatchResultListenerE, i64 0, inrange i32 0, i64 2), ptr %listener, align 8
  invoke void @_ZNSt7__cxx1118basic_stringstreamIcSt11char_traitsIcESaIcEEC1Ev(ptr noundef nonnull align 8 dereferenceable(128) %ss_.i)
          to label %invoke.cont15 unwind label %lpad4

invoke.cont15:                                    ; preds = %invoke.cont14
  %call18 = invoke noundef zeroext i1 @_ZN7testing8internal20MatchPrintAndExplainIKSt10unique_ptrIiSt14default_deleteIiEERS6_EEbRT_RKNS_7MatcherIT0_EEPNS_19MatchResultListenerE(ptr noundef nonnull align 8 dereferenceable(8) %x, ptr noundef nonnull align 8 dereferenceable(24) %matcher, ptr noundef nonnull %listener)
          to label %invoke.cont17 unwind label %lpad16

invoke.cont17:                                    ; preds = %invoke.cont15
  br i1 %call18, label %if.then19, label %if.end23

if.then19:                                        ; preds = %invoke.cont17
  %call22 = invoke noundef nonnull align 8 dereferenceable(8) ptr @_ZStlsISt11char_traitsIcEERSt13basic_ostreamIcT_ES5_PKc(ptr noundef nonnull align 8 dereferenceable(8) %add.ptr, ptr noundef nonnull @.str.67)
          to label %if.end23 unwind label %lpad16

lpad4:                                            ; preds = %invoke.cont14, %if.end.i, %if.else.i, %invoke.cont11, %invoke.cont9, %invoke.cont7, %invoke.cont5, %invoke.cont3
  %9 = landingpad { ptr, i32 }
          cleanup
  br label %ehcleanup41

lpad16:                                           ; preds = %invoke.cont25, %invoke.cont29, %if.end23, %if.then19, %invoke.cont15
  %10 = landingpad { ptr, i32 }
          cleanup
  br label %ehcleanup40

if.end23:                                         ; preds = %if.then19, %invoke.cont17
  %call26 = invoke noundef nonnull align 8 dereferenceable(8) ptr @_ZStlsISt11char_traitsIcEERSt13basic_ostreamIcT_ES5_PKc(ptr noundef nonnull align 8 dereferenceable(8) %add.ptr, ptr noundef nonnull @.str.68)
          to label %invoke.cont25 unwind label %lpad16

invoke.cont25:                                    ; preds = %if.end23
  invoke void @_ZNKSt7__cxx1118basic_stringstreamIcSt11char_traitsIcESaIcEE3strEv(ptr nonnull sret(%"class.std::__cxx11::basic_string") align 8 %ref.tmp, ptr noundef nonnull align 8 dereferenceable(128) %ss_.i)
          to label %invoke.cont27 unwind label %lpad16

invoke.cont27:                                    ; preds = %invoke.cont25
  %call30 = invoke noundef nonnull align 8 dereferenceable(8) ptr @_ZStlsIcSt11char_traitsIcESaIcEERSt13basic_ostreamIT_T0_ES7_RKNSt7__cxx1112basic_stringIS4_S5_T1_EE(ptr noundef nonnull align 8 dereferenceable(8) %call26, ptr noundef nonnull align 8 dereferenceable(32) %ref.tmp)
          to label %invoke.cont29 unwind label %lpad28

invoke.cont29:                                    ; preds = %invoke.cont27
  call void @_ZNSt7__cxx1112basic_stringIcSt11char_traitsIcESaIcEED1Ev(ptr noundef nonnull align 8 dereferenceable(32) %ref.tmp) #15
  invoke void @_ZN7testing16AssertionFailureEv(ptr nonnull sret(%"class.testing::AssertionResult") align 8 %ref.tmp31)
          to label %invoke.cont32 unwind label %lpad16

invoke.cont32:                                    ; preds = %invoke.cont29
  invoke void @_ZNKSt7__cxx1118basic_stringstreamIcSt11char_traitsIcESaIcEE3strEv(ptr nonnull sret(%"class.std::__cxx11::basic_string") align 8 %ref.tmp33, ptr noundef nonnull align 8 dereferenceable(128) %ss)
          to label %invoke.cont35 unwind label %lpad34

invoke.cont35:                                    ; preds = %invoke.cont32
  call void @llvm.lifetime.start.p0(i64 8, ptr nonnull %ref.tmp.i16)
  invoke void @_ZN7testing7MessageC1Ev(ptr noundef nonnull align 8 dereferenceable(8) %ref.tmp.i16)
          to label %.noexc19 unwind label %lpad36

.noexc19:                                         ; preds = %invoke.cont35
  %11 = load ptr, ptr %ref.tmp.i16, align 8
  %add.ptr.i.i = getelementptr inbounds i8, ptr %11, i64 16
  %call2.i1.i = invoke noundef nonnull align 8 dereferenceable(8) ptr @_ZStlsIcSt11char_traitsIcESaIcEERSt13basic_ostreamIT_T0_ES7_RKNSt7__cxx1112basic_stringIS4_S5_T1_EE(ptr noundef nonnull align 8 dereferenceable(8) %add.ptr.i.i, ptr noundef nonnull align 8 dereferenceable(32) %ref.tmp33)
          to label %invoke.cont.i18 unwind label %lpad.i17

invoke.cont.i18:                                  ; preds = %.noexc19
  invoke void @_ZN7testing15AssertionResult13AppendMessageERKNS_7MessageE(ptr noundef nonnull align 8 dereferenceable(16) %ref.tmp31, ptr noundef nonnull align 8 dereferenceable(8) %ref.tmp.i16)
          to label %invoke.cont2.i unwind label %lpad.i17

invoke.cont2.i:                                   ; preds = %invoke.cont.i18
  %12 = load ptr, ptr %ref.tmp.i16, align 8
  %cmp.not.i.i.i = icmp eq ptr %12, null
  br i1 %cmp.not.i.i.i, label %invoke.cont37, label %_ZNKSt14default_deleteINSt7__cxx1118basic_stringstreamIcSt11char_traitsIcESaIcEEEEclEPS5_.exit.i.i.i

_ZNKSt14default_deleteINSt7__cxx1118basic_stringstreamIcSt11char_traitsIcESaIcEEEEclEPS5_.exit.i.i.i: ; preds = %invoke.cont2.i
  %vtable.i.i.i.i = load ptr, ptr %12, align 8
  %vfn.i.i.i.i = getelementptr inbounds ptr, ptr %vtable.i.i.i.i, i64 1
  %13 = load ptr, ptr %vfn.i.i.i.i, align 8
  call void %13(ptr noundef nonnull align 8 dereferenceable(128) %12) #15
  br label %invoke.cont37

lpad.i17:                                         ; preds = %invoke.cont.i18, %.noexc19
  %14 = landingpad { ptr, i32 }
          cleanup
  %15 = load ptr, ptr %ref.tmp.i16, align 8
  %cmp.not.i.i2.i = icmp eq ptr %15, null
  br i1 %cmp.not.i.i2.i, label %lpad36.body, label %_ZNKSt14default_deleteINSt7__cxx1118basic_stringstreamIcSt11char_traitsIcESaIcEEEEclEPS5_.exit.i.i3.i

_ZNKSt14default_deleteINSt7__cxx1118basic_stringstreamIcSt11char_traitsIcESaIcEEEEclEPS5_.exit.i.i3.i: ; preds = %lpad.i17
  %vtable.i.i.i4.i = load ptr, ptr %15, align 8
  %vfn.i.i.i5.i = getelementptr inbounds ptr, ptr %vtable.i.i.i4.i, i64 1
  %16 = load ptr, ptr %vfn.i.i.i5.i, align 8
  call void %16(ptr noundef nonnull align 8 dereferenceable(128) %15) #15
  br label %lpad36.body

invoke.cont37:                                    ; preds = %_ZNKSt14default_deleteINSt7__cxx1118basic_stringstreamIcSt11char_traitsIcESaIcEEEEclEPS5_.exit.i.i.i, %invoke.cont2.i
  call void @llvm.lifetime.end.p0(i64 8, ptr nonnull %ref.tmp.i16)
  invoke void @_ZN7testing15AssertionResultC1ERKS0_(ptr noundef nonnull align 8 dereferenceable(16) %agg.result, ptr noundef nonnull align 8 dereferenceable(16) %ref.tmp31)
          to label %invoke.cont39 unwind label %lpad36

invoke.cont39:                                    ; preds = %invoke.cont37
  call void @_ZNSt7__cxx1112basic_stringIcSt11char_traitsIcESaIcEED1Ev(ptr noundef nonnull align 8 dereferenceable(32) %ref.tmp33) #15
  %message_.i = getelementptr inbounds %"class.testing::AssertionResult", ptr %ref.tmp31, i64 0, i32 1
  %17 = load ptr, ptr %message_.i, align 8
  %cmp.not.i.i = icmp eq ptr %17, null
  br i1 %cmp.not.i.i, label %_ZN7testing15AssertionResultD2Ev.exit, label %_ZNKSt14default_deleteINSt7__cxx1112basic_stringIcSt11char_traitsIcESaIcEEEEclEPS5_.exit.i.i

_ZNKSt14default_deleteINSt7__cxx1112basic_stringIcSt11char_traitsIcESaIcEEEEclEPS5_.exit.i.i: ; preds = %invoke.cont39
  call void @_ZNSt7__cxx1112basic_stringIcSt11char_traitsIcESaIcEED1Ev(ptr noundef nonnull align 8 dereferenceable(32) %17) #15
  call void @_ZdlPv(ptr noundef nonnull %17) #16
  br label %_ZN7testing15AssertionResultD2Ev.exit

_ZN7testing15AssertionResultD2Ev.exit:            ; preds = %invoke.cont39, %_ZNKSt14default_deleteINSt7__cxx1112basic_stringIcSt11char_traitsIcESaIcEEEEclEPS5_.exit.i.i
  store ptr null, ptr %message_.i, align 8
  store ptr getelementptr inbounds ({ [4 x ptr] }, ptr @_ZTVN7testing25StringMatchResultListenerE, i64 0, inrange i32 0, i64 2), ptr %listener, align 8
  call void @_ZNSt7__cxx1118basic_stringstreamIcSt11char_traitsIcESaIcEED1Ev(ptr noundef nonnull align 8 dereferenceable(128) %ss_.i) #15
  call void @_ZNSt7__cxx1118basic_stringstreamIcSt11char_traitsIcESaIcEED1Ev(ptr noundef nonnull align 8 dereferenceable(128) %ss) #15
  br label %cleanup

lpad28:                                           ; preds = %invoke.cont27
  %18 = landingpad { ptr, i32 }
          cleanup
  call void @_ZNSt7__cxx1112basic_stringIcSt11char_traitsIcESaIcEED1Ev(ptr noundef nonnull align 8 dereferenceable(32) %ref.tmp) #15
  br label %ehcleanup40

lpad34:                                           ; preds = %invoke.cont32
  %19 = landingpad { ptr, i32 }
          cleanup
  br label %ehcleanup

lpad36:                                           ; preds = %invoke.cont35, %invoke.cont37
  %20 = landingpad { ptr, i32 }
          cleanup
  br label %lpad36.body

lpad36.body:                                      ; preds = %lpad.i17, %_ZNKSt14default_deleteINSt7__cxx1118basic_stringstreamIcSt11char_traitsIcESaIcEEEEclEPS5_.exit.i.i3.i, %lpad36
  %eh.lpad-body20 = phi { ptr, i32 } [ %20, %lpad36 ], [ %14, %_ZNKSt14default_deleteINSt7__cxx1118basic_stringstreamIcSt11char_traitsIcESaIcEEEEclEPS5_.exit.i.i3.i ], [ %14, %lpad.i17 ]
  call void @_ZNSt7__cxx1112basic_stringIcSt11char_traitsIcESaIcEED1Ev(ptr noundef nonnull align 8 dereferenceable(32) %ref.tmp33) #15
  br label %ehcleanup

ehcleanup:                                        ; preds = %lpad36.body, %lpad34
  %.pn = phi { ptr, i32 } [ %eh.lpad-body20, %lpad36.body ], [ %19, %lpad34 ]
  call void @_ZN7testing15AssertionResultD2Ev(ptr noundef nonnull align 8 dereferenceable(16) %ref.tmp31) #15
  br label %ehcleanup40

ehcleanup40:                                      ; preds = %ehcleanup, %lpad28, %lpad16
  %.pn.pn = phi { ptr, i32 } [ %.pn, %ehcleanup ], [ %10, %lpad16 ], [ %18, %lpad28 ]
  store ptr getelementptr inbounds ({ [4 x ptr] }, ptr @_ZTVN7testing25StringMatchResultListenerE, i64 0, inrange i32 0, i64 2), ptr %listener, align 8
  call void @_ZNSt7__cxx1118basic_stringstreamIcSt11char_traitsIcESaIcEED1Ev(ptr noundef nonnull align 8 dereferenceable(128) %ss_.i) #15
  br label %ehcleanup41

ehcleanup41:                                      ; preds = %lpad4, %lpad.i, %ehcleanup40
  %.pn.pn.pn = phi { ptr, i32 } [ %.pn.pn, %ehcleanup40 ], [ %9, %lpad4 ], [ %6, %lpad.i ]
  call void @_ZNSt7__cxx1118basic_stringstreamIcSt11char_traitsIcESaIcEED1Ev(ptr noundef nonnull align 8 dereferenceable(128) %ss) #15
  br label %ehcleanup42

cleanup:                                          ; preds = %if.then, %_ZN7testing15AssertionResultD2Ev.exit
  store ptr getelementptr inbounds ({ [6 x ptr] }, ptr @_ZTVN7testing8internal11MatcherBaseIRKSt10unique_ptrIiSt14default_deleteIiEEEE, i64 0, inrange i32 0, i64 2), ptr %matcher, align 8
  %21 = load ptr, ptr %vtable_.i.i.i.i.i.i.i, align 8
  %cmp.not.i.i.i.i = icmp eq ptr %21, null
  br i1 %cmp.not.i.i.i.i, label %_ZN7testing7MatcherIRKSt10unique_ptrIiSt14default_deleteIiEEED2Ev.exit, label %_ZNK7testing8internal11MatcherBaseIRKSt10unique_ptrIiSt14default_deleteIiEEE8IsSharedEv.exit.i.i.i

_ZNK7testing8internal11MatcherBaseIRKSt10unique_ptrIiSt14default_deleteIiEEE8IsSharedEv.exit.i.i.i: ; preds = %cleanup
  %shared_destroy.i.i.i.i = getelementptr inbounds %"struct.testing::internal::MatcherBase<const std::unique_ptr<int> &>::VTable", ptr %21, i64 0, i32 3
  %22 = load ptr, ptr %shared_destroy.i.i.i.i, align 8
  %cmp3.i.not.i.i.i = icmp eq ptr %22, null
  br i1 %cmp3.i.not.i.i.i, label %_ZN7testing7MatcherIRKSt10unique_ptrIiSt14default_deleteIiEEED2Ev.exit, label %land.lhs.true.i.i.i

land.lhs.true.i.i.i:                              ; preds = %_ZNK7testing8internal11MatcherBaseIRKSt10unique_ptrIiSt14default_deleteIiEEE8IsSharedEv.exit.i.i.i
  %23 = load ptr, ptr %buffer_.i.i.i.i.i.i.i, align 8
  %24 = atomicrmw sub ptr %23, i32 1 acq_rel, align 4
  %cmp.i.i.i.i = icmp eq i32 %24, 1
  br i1 %cmp.i.i.i.i, label %if.then.i.i.i, label %_ZN7testing7MatcherIRKSt10unique_ptrIiSt14default_deleteIiEEED2Ev.exit

if.then.i.i.i:                                    ; preds = %land.lhs.true.i.i.i
  %25 = load ptr, ptr %vtable_.i.i.i.i.i.i.i, align 8
  %shared_destroy.i.i.i = getelementptr inbounds %"struct.testing::internal::MatcherBase<const std::unique_ptr<int> &>::VTable", ptr %25, i64 0, i32 3
  %26 = load ptr, ptr %shared_destroy.i.i.i, align 8
  %27 = load ptr, ptr %buffer_.i.i.i.i.i.i.i, align 8
  invoke void %26(ptr noundef %27)
          to label %_ZN7testing7MatcherIRKSt10unique_ptrIiSt14default_deleteIiEEED2Ev.exit unwind label %terminate.lpad.i.i

terminate.lpad.i.i:                               ; preds = %if.then.i.i.i
  %28 = landingpad { ptr, i32 }
          catch ptr null
  %29 = extractvalue { ptr, i32 } %28, 0
  call void @__clang_call_terminate(ptr %29) #18
  unreachable

_ZN7testing7MatcherIRKSt10unique_ptrIiSt14default_deleteIiEEED2Ev.exit: ; preds = %cleanup, %_ZNK7testing8internal11MatcherBaseIRKSt10unique_ptrIiSt14default_deleteIiEEE8IsSharedEv.exit.i.i.i, %land.lhs.true.i.i.i, %if.then.i.i.i
  ret void

ehcleanup42:                                      ; preds = %lpad, %lpad.i.i, %ehcleanup41
  %.pn5 = phi { ptr, i32 } [ %.pn.pn.pn, %ehcleanup41 ], [ %4, %lpad ], [ %1, %lpad.i.i ]
  call void @_ZN7testing7MatcherIRKSt10unique_ptrIiSt14default_deleteIiEEED2Ev(ptr noundef nonnull align 8 dereferenceable(24) %matcher) #15
  resume { ptr, i32 } %.pn5
}

declare noundef nonnull align 8 dereferenceable(8) ptr @_ZStlsISt11char_traitsIcEERSt13basic_ostreamIcT_ES5_PKc(ptr noundef nonnull align 8 dereferenceable(8), ptr noundef) local_unnamed_addr #0

; Function Attrs: mustprogress uwtable
define linkonce_odr dso_local void @_ZNK7testing8internal11MatcherBaseIRKSt10unique_ptrIiSt14default_deleteIiEEE10DescribeToEPSo(ptr noundef nonnull align 8 dereferenceable(24) %this, ptr noundef %os) unnamed_addr #3 comdat align 2 personality ptr @__gxx_personality_v0 {
entry:
  %ref.tmp = alloca %"class.testing::internal::GTestLog", align 4
  %vtable_ = getelementptr inbounds %"class.testing::internal::MatcherBase", ptr %this, i64 0, i32 1
  %0 = load ptr, ptr %vtable_, align 8
  %cmp = icmp ne ptr %0, null
  %call = tail call noundef zeroext i1 @_ZN7testing8internal6IsTrueEb(i1 noundef zeroext %cmp)
  br i1 %call, label %if.end, label %if.else

if.else:                                          ; preds = %entry
  call void @_ZN7testing8internal8GTestLogC1ENS0_16GTestLogSeverityEPKci(ptr noundef nonnull align 4 dereferenceable(4) %ref.tmp, i32 noundef 3, ptr noundef nonnull @.str.74, i32 noundef 245)
  %call3 = invoke noundef nonnull align 8 dereferenceable(8) ptr @_ZStlsISt11char_traitsIcEERSt13basic_ostreamIcT_ES5_PKc(ptr noundef nonnull align 8 dereferenceable(8) @_ZSt4cerr, ptr noundef nonnull @.str.75)
          to label %invoke.cont unwind label %lpad

invoke.cont:                                      ; preds = %if.else
  call void @_ZN7testing8internal8GTestLogD1Ev(ptr noundef nonnull align 4 dereferenceable(4) %ref.tmp) #15
  br label %if.end

lpad:                                             ; preds = %if.else
  %1 = landingpad { ptr, i32 }
          cleanup
  call void @_ZN7testing8internal8GTestLogD1Ev(ptr noundef nonnull align 4 dereferenceable(4) %ref.tmp) #15
  resume { ptr, i32 } %1

if.end:                                           ; preds = %entry, %invoke.cont
  %2 = load ptr, ptr %vtable_, align 8
  %describe = getelementptr inbounds %"struct.testing::internal::MatcherBase<const std::unique_ptr<int> &>::VTable", ptr %2, i64 0, i32 1
  %3 = load ptr, ptr %describe, align 8
  call void %3(ptr noundef nonnull align 8 dereferenceable(24) %this, ptr noundef %os, i1 noundef zeroext false)
  ret void
}

; Function Attrs: mustprogress uwtable
define linkonce_odr dso_local noundef zeroext i1 @_ZN7testing8internal20MatchPrintAndExplainIKSt10unique_ptrIiSt14default_deleteIiEERS6_EEbRT_RKNS_7MatcherIT0_EEPNS_19MatchResultListenerE(ptr noundef nonnull align 8 dereferenceable(8) %value, ptr noundef nonnull align 8 dereferenceable(24) %matcher, ptr noundef %listener) local_unnamed_addr #3 comdat personality ptr @__gxx_personality_v0 {
entry:
  %ref.tmp.i = alloca %"class.testing::internal::GTestLog", align 4
  %ref.tmp.i.i = alloca %"class.testing::internal::GTestLog", align 4
  %dummy.i = alloca %"class.testing::internal::DummyMatchResultListener", align 8
  %inner_listener = alloca %"class.testing::StringMatchResultListener", align 8
  %ref.tmp = alloca %"class.std::__cxx11::basic_string", align 8
  %ref.tmp17 = alloca %"class.std::__cxx11::basic_string", align 8
  %stream_.i = getelementptr inbounds %"class.testing::MatchResultListener", ptr %listener, i64 0, i32 1
  %0 = load ptr, ptr %stream_.i, align 8
  %cmp.i.not = icmp eq ptr %0, null
  br i1 %cmp.i.not, label %if.then, label %if.end

if.then:                                          ; preds = %entry
  call void @llvm.lifetime.start.p0(i64 16, ptr nonnull %dummy.i)
  %stream_.i.i.i = getelementptr inbounds %"class.testing::MatchResultListener", ptr %dummy.i, i64 0, i32 1
  store ptr null, ptr %stream_.i.i.i, align 8
  store ptr getelementptr inbounds ({ [4 x ptr] }, ptr @_ZTVN7testing8internal24DummyMatchResultListenerE, i64 0, inrange i32 0, i64 2), ptr %dummy.i, align 8
  call void @llvm.lifetime.start.p0(i64 4, ptr nonnull %ref.tmp.i.i)
  %vtable_.i.i = getelementptr inbounds %"class.testing::internal::MatcherBase", ptr %matcher, i64 0, i32 1
  %1 = load ptr, ptr %vtable_.i.i, align 8
  %cmp.i.i = icmp ne ptr %1, null
  %call.i1.i = tail call noundef zeroext i1 @_ZN7testing8internal6IsTrueEb(i1 noundef zeroext %cmp.i.i)
  br i1 %call.i1.i, label %_ZNK7testing8internal11MatcherBaseIRKSt10unique_ptrIiSt14default_deleteIiEEE7MatchesES7_.exit, label %if.else.i.i

if.else.i.i:                                      ; preds = %if.then
  call void @_ZN7testing8internal8GTestLogC1ENS0_16GTestLogSeverityEPKci(ptr noundef nonnull align 4 dereferenceable(4) %ref.tmp.i.i, i32 noundef 3, ptr noundef nonnull @.str.74, i32 noundef 233)
  %call3.i.i = invoke noundef nonnull align 8 dereferenceable(8) ptr @_ZStlsISt11char_traitsIcEERSt13basic_ostreamIcT_ES5_PKc(ptr noundef nonnull align 8 dereferenceable(8) @_ZSt4cerr, ptr noundef nonnull @.str.75)
          to label %invoke.cont.i.i unwind label %lpad.i.i

invoke.cont.i.i:                                  ; preds = %if.else.i.i
  call void @_ZN7testing8internal8GTestLogD1Ev(ptr noundef nonnull align 4 dereferenceable(4) %ref.tmp.i.i) #15
  br label %_ZNK7testing8internal11MatcherBaseIRKSt10unique_ptrIiSt14default_deleteIiEEE7MatchesES7_.exit

common.resume:                                    ; preds = %ehcleanup22, %lpad.i.i
  %common.resume.op = phi { ptr, i32 } [ %2, %lpad.i.i ], [ %.pn.pn, %ehcleanup22 ]
  resume { ptr, i32 } %common.resume.op

lpad.i.i:                                         ; preds = %if.else.i.i
  %2 = landingpad { ptr, i32 }
          cleanup
  call void @_ZN7testing8internal8GTestLogD1Ev(ptr noundef nonnull align 4 dereferenceable(4) %ref.tmp.i.i) #15
  br label %common.resume

_ZNK7testing8internal11MatcherBaseIRKSt10unique_ptrIiSt14default_deleteIiEEE7MatchesES7_.exit: ; preds = %if.then, %invoke.cont.i.i
  %3 = load ptr, ptr %vtable_.i.i, align 8
  %4 = load ptr, ptr %3, align 8
  %call5.i2.i = call noundef zeroext i1 %4(ptr noundef nonnull align 8 dereferenceable(24) %matcher, ptr noundef nonnull align 8 dereferenceable(8) %value, ptr noundef nonnull %dummy.i)
  call void @llvm.lifetime.end.p0(i64 4, ptr nonnull %ref.tmp.i.i)
  call void @llvm.lifetime.end.p0(i64 16, ptr nonnull %dummy.i)
  br label %return

if.end:                                           ; preds = %entry
  %ss_.i = getelementptr inbounds %"class.testing::StringMatchResultListener", ptr %inner_listener, i64 0, i32 1
  %add.ptr.i = getelementptr inbounds %"class.testing::StringMatchResultListener", ptr %inner_listener, i64 0, i32 1, i32 0, i32 1
  %stream_.i.i = getelementptr inbounds %"class.testing::MatchResultListener", ptr %inner_listener, i64 0, i32 1
  store ptr %add.ptr.i, ptr %stream_.i.i, align 8
  store ptr getelementptr inbounds ({ [4 x ptr] }, ptr @_ZTVN7testing25StringMatchResultListenerE, i64 0, inrange i32 0, i64 2), ptr %inner_listener, align 8
  call void @_ZNSt7__cxx1118basic_stringstreamIcSt11char_traitsIcESaIcEEC1Ev(ptr noundef nonnull align 8 dereferenceable(128) %ss_.i)
  call void @llvm.lifetime.start.p0(i64 4, ptr nonnull %ref.tmp.i)
  %vtable_.i = getelementptr inbounds %"class.testing::internal::MatcherBase", ptr %matcher, i64 0, i32 1
  %5 = load ptr, ptr %vtable_.i, align 8
  %cmp.i10 = icmp ne ptr %5, null
  %call.i11 = invoke noundef zeroext i1 @_ZN7testing8internal6IsTrueEb(i1 noundef zeroext %cmp.i10)
          to label %call.i.noexc unwind label %lpad

call.i.noexc:                                     ; preds = %if.end
  br i1 %call.i11, label %if.end.i, label %if.else.i

if.else.i:                                        ; preds = %call.i.noexc
  invoke void @_ZN7testing8internal8GTestLogC1ENS0_16GTestLogSeverityEPKci(ptr noundef nonnull align 4 dereferenceable(4) %ref.tmp.i, i32 noundef 3, ptr noundef nonnull @.str.74, i32 noundef 233)
          to label %.noexc unwind label %lpad

.noexc:                                           ; preds = %if.else.i
  %call3.i = invoke noundef nonnull align 8 dereferenceable(8) ptr @_ZStlsISt11char_traitsIcEERSt13basic_ostreamIcT_ES5_PKc(ptr noundef nonnull align 8 dereferenceable(8) @_ZSt4cerr, ptr noundef nonnull @.str.75)
          to label %invoke.cont.i unwind label %lpad.i

invoke.cont.i:                                    ; preds = %.noexc
  call void @_ZN7testing8internal8GTestLogD1Ev(ptr noundef nonnull align 4 dereferenceable(4) %ref.tmp.i) #15
  br label %if.end.i

lpad.i:                                           ; preds = %.noexc
  %6 = landingpad { ptr, i32 }
          cleanup
  call void @_ZN7testing8internal8GTestLogD1Ev(ptr noundef nonnull align 4 dereferenceable(4) %ref.tmp.i) #15
  br label %ehcleanup22

if.end.i:                                         ; preds = %invoke.cont.i, %call.i.noexc
  %7 = load ptr, ptr %vtable_.i, align 8
  %8 = load ptr, ptr %7, align 8
  %call5.i12 = invoke noundef zeroext i1 %8(ptr noundef nonnull align 8 dereferenceable(24) %matcher, ptr noundef nonnull align 8 dereferenceable(8) %value, ptr noundef nonnull %inner_listener)
          to label %invoke.cont unwind label %lpad

invoke.cont:                                      ; preds = %if.end.i
  call void @llvm.lifetime.end.p0(i64 4, ptr nonnull %ref.tmp.i)
  %9 = load ptr, ptr %stream_.i, align 8
  %10 = load ptr, ptr %value, align 8
  %cmp.i.not.i.i.i.i.i = icmp eq ptr %10, null
  br i1 %cmp.i.not.i.i.i.i.i, label %_ZN7testing8internal16UniversalPrinterISt10unique_ptrIiSt14default_deleteIiEEE5PrintERKS5_PSo.exit.i, label %if.else.i.i.i.i

if.else.i.i.i.i:                                  ; preds = %invoke.cont
  %call2.i.i.i.i14 = invoke noundef nonnull align 8 dereferenceable(8) ptr @_ZStlsISt11char_traitsIcEERSt13basic_ostreamIcT_ES5_PKc(ptr noundef nonnull align 8 dereferenceable(8) %9, ptr noundef nonnull @.str.84)
          to label %call2.i.i.i.i.noexc unwind label %lpad

call2.i.i.i.i.noexc:                              ; preds = %if.else.i.i.i.i
  %11 = load ptr, ptr %value, align 8
  %call5.i.i.i.i15 = invoke noundef nonnull align 8 dereferenceable(8) ptr @_ZNSolsEPKv(ptr noundef nonnull align 8 dereferenceable(8) %call2.i.i.i.i14, ptr noundef %11)
          to label %call5.i.i.i.i.noexc unwind label %lpad

call5.i.i.i.i.noexc:                              ; preds = %call2.i.i.i.i.noexc
  %call6.i.i.i.i16 = invoke noundef nonnull align 8 dereferenceable(8) ptr @_ZStlsISt11char_traitsIcEERSt13basic_ostreamIcT_ES5_PKc(ptr noundef nonnull align 8 dereferenceable(8) %call5.i.i.i.i15, ptr noundef nonnull @.str.85)
          to label %call6.i.i.i.i.noexc unwind label %lpad

call6.i.i.i.i.noexc:                              ; preds = %call5.i.i.i.i.noexc
  %12 = load ptr, ptr %value, align 8
  %13 = load i32, ptr %12, align 4
  %call.i.i.i.i.i.i.i.i17 = invoke noundef nonnull align 8 dereferenceable(8) ptr @_ZNSolsEi(ptr noundef nonnull align 8 dereferenceable(8) %9, i32 noundef %13)
          to label %_ZN7testing8internal16UniversalPrinterISt10unique_ptrIiSt14default_deleteIiEEE5PrintERKS5_PSo.exit.i unwind label %lpad

_ZN7testing8internal16UniversalPrinterISt10unique_ptrIiSt14default_deleteIiEEE5PrintERKS5_PSo.exit.i: ; preds = %call6.i.i.i.i.noexc, %invoke.cont
  %.str.70.sink.i.i.i.i = phi ptr [ @.str.83, %invoke.cont ], [ @.str.70, %call6.i.i.i.i.noexc ]
  %call8.i.i.i.i18 = invoke noundef nonnull align 8 dereferenceable(8) ptr @_ZStlsISt11char_traitsIcEERSt13basic_ostreamIcT_ES5_PKc(ptr noundef nonnull align 8 dereferenceable(8) %9, ptr noundef nonnull %.str.70.sink.i.i.i.i)
          to label %invoke.cont4 unwind label %lpad

invoke.cont4:                                     ; preds = %_ZN7testing8internal16UniversalPrinterISt10unique_ptrIiSt14default_deleteIiEEE5PrintERKS5_PSo.exit.i
  invoke void @_ZN7testing8internal11GetTypeNameB5cxx11ERKSt9type_info(ptr nonnull sret(%"class.std::__cxx11::basic_string") align 8 %ref.tmp, ptr noundef nonnull align 8 dereferenceable(16) @_ZTISt10unique_ptrIiSt14default_deleteIiEE)
          to label %invoke.cont5 unwind label %lpad

invoke.cont5:                                     ; preds = %invoke.cont4
  %call.i = call noundef i64 @_ZNKSt7__cxx1112basic_stringIcSt11char_traitsIcESaIcEE6lengthEv(ptr noundef nonnull align 8 dereferenceable(32) %ref.tmp) #15
  %cmp.i20 = icmp ult i64 %call.i, 21
  br i1 %cmp.i20, label %if.then7, label %_ZN7testing8internal18IsReadableTypeNameERKNSt7__cxx1112basic_stringIcSt11char_traitsIcESaIcEEE.exit

_ZN7testing8internal18IsReadableTypeNameERKNSt7__cxx1112basic_stringIcSt11char_traitsIcESaIcEEE.exit: ; preds = %invoke.cont5
  %call1.i = call noundef i64 @_ZNKSt7__cxx1112basic_stringIcSt11char_traitsIcESaIcEE13find_first_ofEPKcm(ptr noundef nonnull align 8 dereferenceable(32) %ref.tmp, ptr noundef nonnull @.str.81, i64 noundef 0) #15
  %cmp2.i = icmp eq i64 %call1.i, -1
  br i1 %cmp2.i, label %if.then7, label %if.end16

if.then7:                                         ; preds = %invoke.cont5, %_ZN7testing8internal18IsReadableTypeNameERKNSt7__cxx1112basic_stringIcSt11char_traitsIcESaIcEEE.exit
  %14 = load ptr, ptr %stream_.i, align 8
  %call11 = invoke noundef nonnull align 8 dereferenceable(8) ptr @_ZStlsISt11char_traitsIcEERSt13basic_ostreamIcT_ES5_PKc(ptr noundef nonnull align 8 dereferenceable(8) %14, ptr noundef nonnull @.str.79)
          to label %invoke.cont10 unwind label %lpad9

invoke.cont10:                                    ; preds = %if.then7
  %call13 = invoke noundef nonnull align 8 dereferenceable(8) ptr @_ZStlsIcSt11char_traitsIcESaIcEERSt13basic_ostreamIT_T0_ES7_RKNSt7__cxx1112basic_stringIS4_S5_T1_EE(ptr noundef nonnull align 8 dereferenceable(8) %call11, ptr noundef nonnull align 8 dereferenceable(32) %ref.tmp)
          to label %invoke.cont12 unwind label %lpad9

invoke.cont12:                                    ; preds = %invoke.cont10
  %call15 = invoke noundef nonnull align 8 dereferenceable(8) ptr @_ZStlsISt11char_traitsIcEERSt13basic_ostreamIcT_ES5_PKc(ptr noundef nonnull align 8 dereferenceable(8) %call13, ptr noundef nonnull @.str.70)
          to label %if.end16 unwind label %lpad9

lpad:                                             ; preds = %invoke.cont4, %_ZN7testing8internal16UniversalPrinterISt10unique_ptrIiSt14default_deleteIiEEE5PrintERKS5_PSo.exit.i, %call6.i.i.i.i.noexc, %call5.i.i.i.i.noexc, %call2.i.i.i.i.noexc, %if.else.i.i.i.i, %if.end.i, %if.else.i, %if.end
  %15 = landingpad { ptr, i32 }
          cleanup
  br label %ehcleanup22

lpad9:                                            ; preds = %if.end16, %invoke.cont12, %invoke.cont10, %if.then7
  %16 = landingpad { ptr, i32 }
          cleanup
  br label %ehcleanup

if.end16:                                         ; preds = %invoke.cont12, %_ZN7testing8internal18IsReadableTypeNameERKNSt7__cxx1112basic_stringIcSt11char_traitsIcESaIcEEE.exit
  invoke void @_ZNKSt7__cxx1118basic_stringstreamIcSt11char_traitsIcESaIcEE3strEv(ptr nonnull sret(%"class.std::__cxx11::basic_string") align 8 %ref.tmp17, ptr noundef nonnull align 8 dereferenceable(128) %ss_.i)
          to label %invoke.cont18 unwind label %lpad9

invoke.cont18:                                    ; preds = %if.end16
  %17 = load ptr, ptr %stream_.i, align 8
  %call.i25 = call noundef zeroext i1 @_ZNKSt7__cxx1112basic_stringIcSt11char_traitsIcESaIcEE5emptyEv(ptr noundef nonnull align 8 dereferenceable(32) %ref.tmp17) #15
  %cmp.i26 = icmp eq ptr %17, null
  %or.cond.not.i = or i1 %cmp.i26, %call.i25
  br i1 %or.cond.not.i, label %invoke.cont21, label %if.then.i

if.then.i:                                        ; preds = %invoke.cont18
  %call1.i2729 = invoke noundef nonnull align 8 dereferenceable(8) ptr @_ZStlsISt11char_traitsIcEERSt13basic_ostreamIcT_ES5_PKc(ptr noundef nonnull align 8 dereferenceable(8) %17, ptr noundef nonnull @.str.82)
          to label %call1.i27.noexc unwind label %lpad20

call1.i27.noexc:                                  ; preds = %if.then.i
  %call2.i30 = invoke noundef nonnull align 8 dereferenceable(8) ptr @_ZStlsIcSt11char_traitsIcESaIcEERSt13basic_ostreamIT_T0_ES7_RKNSt7__cxx1112basic_stringIS4_S5_T1_EE(ptr noundef nonnull align 8 dereferenceable(8) %call1.i2729, ptr noundef nonnull align 8 dereferenceable(32) %ref.tmp17)
          to label %invoke.cont21 unwind label %lpad20

invoke.cont21:                                    ; preds = %invoke.cont18, %call1.i27.noexc
  call void @_ZNSt7__cxx1112basic_stringIcSt11char_traitsIcESaIcEED1Ev(ptr noundef nonnull align 8 dereferenceable(32) %ref.tmp17) #15
  call void @_ZNSt7__cxx1112basic_stringIcSt11char_traitsIcESaIcEED1Ev(ptr noundef nonnull align 8 dereferenceable(32) %ref.tmp) #15
  store ptr getelementptr inbounds ({ [4 x ptr] }, ptr @_ZTVN7testing25StringMatchResultListenerE, i64 0, inrange i32 0, i64 2), ptr %inner_listener, align 8
  call void @_ZNSt7__cxx1118basic_stringstreamIcSt11char_traitsIcESaIcEED1Ev(ptr noundef nonnull align 8 dereferenceable(128) %ss_.i) #15
  br label %return

lpad20:                                           ; preds = %call1.i27.noexc, %if.then.i
  %18 = landingpad { ptr, i32 }
          cleanup
  call void @_ZNSt7__cxx1112basic_stringIcSt11char_traitsIcESaIcEED1Ev(ptr noundef nonnull align 8 dereferenceable(32) %ref.tmp17) #15
  br label %ehcleanup

ehcleanup:                                        ; preds = %lpad20, %lpad9
  %.pn = phi { ptr, i32 } [ %18, %lpad20 ], [ %16, %lpad9 ]
  call void @_ZNSt7__cxx1112basic_stringIcSt11char_traitsIcESaIcEED1Ev(ptr noundef nonnull align 8 dereferenceable(32) %ref.tmp) #15
  br label %ehcleanup22

ehcleanup22:                                      ; preds = %lpad, %lpad.i, %ehcleanup
  %.pn.pn = phi { ptr, i32 } [ %.pn, %ehcleanup ], [ %15, %lpad ], [ %6, %lpad.i ]
  store ptr getelementptr inbounds ({ [4 x ptr] }, ptr @_ZTVN7testing25StringMatchResultListenerE, i64 0, inrange i32 0, i64 2), ptr %inner_listener, align 8
  call void @_ZNSt7__cxx1118basic_stringstreamIcSt11char_traitsIcESaIcEED1Ev(ptr noundef nonnull align 8 dereferenceable(128) %ss_.i) #15
  br label %common.resume

return:                                           ; preds = %invoke.cont21, %_ZNK7testing8internal11MatcherBaseIRKSt10unique_ptrIiSt14default_deleteIiEEE7MatchesES7_.exit
  %retval.0 = phi i1 [ %call5.i12, %invoke.cont21 ], [ %call5.i2.i, %_ZNK7testing8internal11MatcherBaseIRKSt10unique_ptrIiSt14default_deleteIiEEE7MatchesES7_.exit ]
  ret i1 %retval.0
}

declare noundef nonnull align 8 dereferenceable(8) ptr @_ZStlsIcSt11char_traitsIcESaIcEERSt13basic_ostreamIT_T0_ES7_RKNSt7__cxx1112basic_stringIS4_S5_T1_EE(ptr noundef nonnull align 8 dereferenceable(8), ptr noundef nonnull align 8 dereferenceable(32)) local_unnamed_addr #0

declare void @_ZN7testing16AssertionFailureEv(ptr sret(%"class.testing::AssertionResult") align 8) local_unnamed_addr #0

declare void @_ZN7testing15AssertionResultC1ERKS0_(ptr noundef nonnull align 8 dereferenceable(16), ptr noundef nonnull align 8 dereferenceable(16)) unnamed_addr #0

; Function Attrs: mustprogress nounwind uwtable
define linkonce_odr dso_local void @_ZN7testing25StringMatchResultListenerD2Ev(ptr noundef nonnull align 8 dereferenceable(408) %this) unnamed_addr #7 comdat align 2 {
entry:
  store ptr getelementptr inbounds ({ [4 x ptr] }, ptr @_ZTVN7testing25StringMatchResultListenerE, i64 0, inrange i32 0, i64 2), ptr %this, align 8
  %ss_ = getelementptr inbounds %"class.testing::StringMatchResultListener", ptr %this, i64 0, i32 1
  tail call void @_ZNSt7__cxx1118basic_stringstreamIcSt11char_traitsIcESaIcEED1Ev(ptr noundef nonnull align 8 dereferenceable(128) %ss_) #15
  ret void
}

; Function Attrs: mustprogress nounwind uwtable
define linkonce_odr dso_local void @_ZN7testing7MatcherIRKSt10unique_ptrIiSt14default_deleteIiEEED2Ev(ptr noundef nonnull align 8 dereferenceable(24) %this) unnamed_addr #7 comdat align 2 personality ptr @__gxx_personality_v0 {
entry:
  store ptr getelementptr inbounds ({ [6 x ptr] }, ptr @_ZTVN7testing8internal11MatcherBaseIRKSt10unique_ptrIiSt14default_deleteIiEEEE, i64 0, inrange i32 0, i64 2), ptr %this, align 8
  %vtable_.i.i.i = getelementptr inbounds %"class.testing::internal::MatcherBase", ptr %this, i64 0, i32 1
  %0 = load ptr, ptr %vtable_.i.i.i, align 8
  %cmp.not.i.i.i = icmp eq ptr %0, null
  br i1 %cmp.not.i.i.i, label %_ZN7testing8internal11MatcherBaseIRKSt10unique_ptrIiSt14default_deleteIiEEED2Ev.exit, label %_ZNK7testing8internal11MatcherBaseIRKSt10unique_ptrIiSt14default_deleteIiEEE8IsSharedEv.exit.i.i

_ZNK7testing8internal11MatcherBaseIRKSt10unique_ptrIiSt14default_deleteIiEEE8IsSharedEv.exit.i.i: ; preds = %entry
  %shared_destroy.i.i.i = getelementptr inbounds %"struct.testing::internal::MatcherBase<const std::unique_ptr<int> &>::VTable", ptr %0, i64 0, i32 3
  %1 = load ptr, ptr %shared_destroy.i.i.i, align 8
  %cmp3.i.not.i.i = icmp eq ptr %1, null
  br i1 %cmp3.i.not.i.i, label %_ZN7testing8internal11MatcherBaseIRKSt10unique_ptrIiSt14default_deleteIiEEED2Ev.exit, label %land.lhs.true.i.i

land.lhs.true.i.i:                                ; preds = %_ZNK7testing8internal11MatcherBaseIRKSt10unique_ptrIiSt14default_deleteIiEEE8IsSharedEv.exit.i.i
  %buffer_.i.i = getelementptr inbounds %"class.testing::internal::MatcherBase", ptr %this, i64 0, i32 2
  %2 = load ptr, ptr %buffer_.i.i, align 8
  %3 = atomicrmw sub ptr %2, i32 1 acq_rel, align 4
  %cmp.i.i.i = icmp eq i32 %3, 1
  br i1 %cmp.i.i.i, label %if.then.i.i, label %_ZN7testing8internal11MatcherBaseIRKSt10unique_ptrIiSt14default_deleteIiEEED2Ev.exit

if.then.i.i:                                      ; preds = %land.lhs.true.i.i
  %4 = load ptr, ptr %vtable_.i.i.i, align 8
  %shared_destroy.i.i = getelementptr inbounds %"struct.testing::internal::MatcherBase<const std::unique_ptr<int> &>::VTable", ptr %4, i64 0, i32 3
  %5 = load ptr, ptr %shared_destroy.i.i, align 8
  %6 = load ptr, ptr %buffer_.i.i, align 8
  invoke void %5(ptr noundef %6)
          to label %_ZN7testing8internal11MatcherBaseIRKSt10unique_ptrIiSt14default_deleteIiEEED2Ev.exit unwind label %terminate.lpad.i

terminate.lpad.i:                                 ; preds = %if.then.i.i
  %7 = landingpad { ptr, i32 }
          catch ptr null
  %8 = extractvalue { ptr, i32 } %7, 0
  tail call void @__clang_call_terminate(ptr %8) #18
  unreachable

_ZN7testing8internal11MatcherBaseIRKSt10unique_ptrIiSt14default_deleteIiEEED2Ev.exit: ; preds = %entry, %_ZNK7testing8internal11MatcherBaseIRKSt10unique_ptrIiSt14default_deleteIiEEE8IsSharedEv.exit.i.i, %land.lhs.true.i.i, %if.then.i.i
  ret void
}

; Function Attrs: mustprogress nounwind uwtable
define linkonce_odr dso_local void @_ZN7testing8internal14PointeeMatcherIiE4ImplIRKSt10unique_ptrIiSt14default_deleteIiEEED2Ev(ptr noundef nonnull align 8 dereferenceable(32) %this) unnamed_addr #7 comdat align 2 personality ptr @__gxx_personality_v0 {
entry:
  store ptr getelementptr inbounds ({ [7 x ptr] }, ptr @_ZTVN7testing8internal14PointeeMatcherIiE4ImplIRKSt10unique_ptrIiSt14default_deleteIiEEEE, i64 0, inrange i32 0, i64 2), ptr %this, align 8
  %matcher_ = getelementptr inbounds %"class.testing::internal::PointeeMatcher<int>::Impl", ptr %this, i64 0, i32 1
  store ptr getelementptr inbounds ({ [6 x ptr] }, ptr @_ZTVN7testing8internal11MatcherBaseIRKiEE, i64 0, inrange i32 0, i64 2), ptr %matcher_, align 8
  %vtable_.i.i.i.i = getelementptr inbounds %"class.testing::internal::PointeeMatcher<int>::Impl", ptr %this, i64 0, i32 1, i32 0, i32 1
  %0 = load ptr, ptr %vtable_.i.i.i.i, align 8
  %cmp.not.i.i.i.i = icmp eq ptr %0, null
  br i1 %cmp.not.i.i.i.i, label %_ZN7testing7MatcherIRKiED2Ev.exit, label %_ZNK7testing8internal11MatcherBaseIRKiE8IsSharedEv.exit.i.i.i

_ZNK7testing8internal11MatcherBaseIRKiE8IsSharedEv.exit.i.i.i: ; preds = %entry
  %shared_destroy.i.i.i.i = getelementptr inbounds %"struct.testing::internal::MatcherBase<const int &>::VTable", ptr %0, i64 0, i32 3
  %1 = load ptr, ptr %shared_destroy.i.i.i.i, align 8
  %cmp3.i.not.i.i.i = icmp eq ptr %1, null
  br i1 %cmp3.i.not.i.i.i, label %_ZN7testing7MatcherIRKiED2Ev.exit, label %land.lhs.true.i.i.i

land.lhs.true.i.i.i:                              ; preds = %_ZNK7testing8internal11MatcherBaseIRKiE8IsSharedEv.exit.i.i.i
  %buffer_.i.i.i = getelementptr inbounds %"class.testing::internal::PointeeMatcher<int>::Impl", ptr %this, i64 0, i32 1, i32 0, i32 2
  %2 = load ptr, ptr %buffer_.i.i.i, align 8
  %3 = atomicrmw sub ptr %2, i32 1 acq_rel, align 4
  %cmp.i.i.i.i = icmp eq i32 %3, 1
  br i1 %cmp.i.i.i.i, label %if.then.i.i.i, label %_ZN7testing7MatcherIRKiED2Ev.exit

if.then.i.i.i:                                    ; preds = %land.lhs.true.i.i.i
  %4 = load ptr, ptr %vtable_.i.i.i.i, align 8
  %shared_destroy.i.i.i = getelementptr inbounds %"struct.testing::internal::MatcherBase<const int &>::VTable", ptr %4, i64 0, i32 3
  %5 = load ptr, ptr %shared_destroy.i.i.i, align 8
  %6 = load ptr, ptr %buffer_.i.i.i, align 8
  invoke void %5(ptr noundef %6)
          to label %_ZN7testing7MatcherIRKiED2Ev.exit unwind label %terminate.lpad.i.i

terminate.lpad.i.i:                               ; preds = %if.then.i.i.i
  %7 = landingpad { ptr, i32 }
          catch ptr null
  %8 = extractvalue { ptr, i32 } %7, 0
  tail call void @__clang_call_terminate(ptr %8) #18
  unreachable

_ZN7testing7MatcherIRKiED2Ev.exit:                ; preds = %entry, %_ZNK7testing8internal11MatcherBaseIRKiE8IsSharedEv.exit.i.i.i, %land.lhs.true.i.i.i, %if.then.i.i.i
  ret void
}

; Function Attrs: mustprogress nounwind uwtable
define linkonce_odr dso_local void @_ZN7testing8internal14PointeeMatcherIiE4ImplIRKSt10unique_ptrIiSt14default_deleteIiEEED0Ev(ptr noundef nonnull align 8 dereferenceable(32) %this) unnamed_addr #7 comdat align 2 personality ptr @__gxx_personality_v0 {
entry:
  store ptr getelementptr inbounds ({ [7 x ptr] }, ptr @_ZTVN7testing8internal14PointeeMatcherIiE4ImplIRKSt10unique_ptrIiSt14default_deleteIiEEEE, i64 0, inrange i32 0, i64 2), ptr %this, align 8
  %matcher_.i = getelementptr inbounds %"class.testing::internal::PointeeMatcher<int>::Impl", ptr %this, i64 0, i32 1
  store ptr getelementptr inbounds ({ [6 x ptr] }, ptr @_ZTVN7testing8internal11MatcherBaseIRKiEE, i64 0, inrange i32 0, i64 2), ptr %matcher_.i, align 8
  %vtable_.i.i.i.i.i = getelementptr inbounds %"class.testing::internal::PointeeMatcher<int>::Impl", ptr %this, i64 0, i32 1, i32 0, i32 1
  %0 = load ptr, ptr %vtable_.i.i.i.i.i, align 8
  %cmp.not.i.i.i.i.i = icmp eq ptr %0, null
  br i1 %cmp.not.i.i.i.i.i, label %_ZN7testing8internal14PointeeMatcherIiE4ImplIRKSt10unique_ptrIiSt14default_deleteIiEEED2Ev.exit, label %_ZNK7testing8internal11MatcherBaseIRKiE8IsSharedEv.exit.i.i.i.i

_ZNK7testing8internal11MatcherBaseIRKiE8IsSharedEv.exit.i.i.i.i: ; preds = %entry
  %shared_destroy.i.i.i.i.i = getelementptr inbounds %"struct.testing::internal::MatcherBase<const int &>::VTable", ptr %0, i64 0, i32 3
  %1 = load ptr, ptr %shared_destroy.i.i.i.i.i, align 8
  %cmp3.i.not.i.i.i.i = icmp eq ptr %1, null
  br i1 %cmp3.i.not.i.i.i.i, label %_ZN7testing8internal14PointeeMatcherIiE4ImplIRKSt10unique_ptrIiSt14default_deleteIiEEED2Ev.exit, label %land.lhs.true.i.i.i.i

land.lhs.true.i.i.i.i:                            ; preds = %_ZNK7testing8internal11MatcherBaseIRKiE8IsSharedEv.exit.i.i.i.i
  %buffer_.i.i.i.i = getelementptr inbounds %"class.testing::internal::PointeeMatcher<int>::Impl", ptr %this, i64 0, i32 1, i32 0, i32 2
  %2 = load ptr, ptr %buffer_.i.i.i.i, align 8
  %3 = atomicrmw sub ptr %2, i32 1 acq_rel, align 4
  %cmp.i.i.i.i.i = icmp eq i32 %3, 1
  br i1 %cmp.i.i.i.i.i, label %if.then.i.i.i.i, label %_ZN7testing8internal14PointeeMatcherIiE4ImplIRKSt10unique_ptrIiSt14default_deleteIiEEED2Ev.exit

if.then.i.i.i.i:                                  ; preds = %land.lhs.true.i.i.i.i
  %4 = load ptr, ptr %vtable_.i.i.i.i.i, align 8
  %shared_destroy.i.i.i.i = getelementptr inbounds %"struct.testing::internal::MatcherBase<const int &>::VTable", ptr %4, i64 0, i32 3
  %5 = load ptr, ptr %shared_destroy.i.i.i.i, align 8
  %6 = load ptr, ptr %buffer_.i.i.i.i, align 8
  invoke void %5(ptr noundef %6)
          to label %_ZN7testing8internal14PointeeMatcherIiE4ImplIRKSt10unique_ptrIiSt14default_deleteIiEEED2Ev.exit unwind label %terminate.lpad.i.i.i

terminate.lpad.i.i.i:                             ; preds = %if.then.i.i.i.i
  %7 = landingpad { ptr, i32 }
          catch ptr null
  %8 = extractvalue { ptr, i32 } %7, 0
  tail call void @__clang_call_terminate(ptr %8) #18
  unreachable

_ZN7testing8internal14PointeeMatcherIiE4ImplIRKSt10unique_ptrIiSt14default_deleteIiEEED2Ev.exit: ; preds = %entry, %_ZNK7testing8internal11MatcherBaseIRKiE8IsSharedEv.exit.i.i.i.i, %land.lhs.true.i.i.i.i, %if.then.i.i.i.i
  tail call void @_ZdlPv(ptr noundef nonnull %this) #16
  ret void
}

; Function Attrs: mustprogress uwtable
define linkonce_odr dso_local void @_ZNK7testing8internal14PointeeMatcherIiE4ImplIRKSt10unique_ptrIiSt14default_deleteIiEEE10DescribeToEPSo(ptr noundef nonnull align 8 dereferenceable(32) %this, ptr noundef %os) unnamed_addr #3 comdat align 2 personality ptr @__gxx_personality_v0 {
entry:
  %ref.tmp.i = alloca %"class.testing::internal::GTestLog", align 4
  %call = tail call noundef nonnull align 8 dereferenceable(8) ptr @_ZStlsISt11char_traitsIcEERSt13basic_ostreamIcT_ES5_PKc(ptr noundef nonnull align 8 dereferenceable(8) %os, ptr noundef nonnull @.str.76)
  call void @llvm.lifetime.start.p0(i64 4, ptr nonnull %ref.tmp.i)
  %vtable_.i = getelementptr inbounds %"class.testing::internal::PointeeMatcher<int>::Impl", ptr %this, i64 0, i32 1, i32 0, i32 1
  %0 = load ptr, ptr %vtable_.i, align 8
  %cmp.i = icmp ne ptr %0, null
  %call.i = tail call noundef zeroext i1 @_ZN7testing8internal6IsTrueEb(i1 noundef zeroext %cmp.i)
  br i1 %call.i, label %_ZNK7testing8internal11MatcherBaseIRKiE10DescribeToEPSo.exit, label %if.else.i

if.else.i:                                        ; preds = %entry
  call void @_ZN7testing8internal8GTestLogC1ENS0_16GTestLogSeverityEPKci(ptr noundef nonnull align 4 dereferenceable(4) %ref.tmp.i, i32 noundef 3, ptr noundef nonnull @.str.74, i32 noundef 245)
  %call4.i = invoke noundef nonnull align 8 dereferenceable(8) ptr @_ZStlsISt11char_traitsIcEERSt13basic_ostreamIcT_ES5_PKc(ptr noundef nonnull align 8 dereferenceable(8) @_ZSt4cerr, ptr noundef nonnull @.str.75)
          to label %invoke.cont3.i unwind label %lpad.i

invoke.cont3.i:                                   ; preds = %if.else.i
  call void @_ZN7testing8internal8GTestLogD1Ev(ptr noundef nonnull align 4 dereferenceable(4) %ref.tmp.i) #15
  br label %_ZNK7testing8internal11MatcherBaseIRKiE10DescribeToEPSo.exit

lpad.i:                                           ; preds = %if.else.i
  %1 = landingpad { ptr, i32 }
          cleanup
  call void @_ZN7testing8internal8GTestLogD1Ev(ptr noundef nonnull align 4 dereferenceable(4) %ref.tmp.i) #15
  resume { ptr, i32 } %1

_ZNK7testing8internal11MatcherBaseIRKiE10DescribeToEPSo.exit: ; preds = %entry, %invoke.cont3.i
  %matcher_ = getelementptr inbounds %"class.testing::internal::PointeeMatcher<int>::Impl", ptr %this, i64 0, i32 1
  %2 = load ptr, ptr %vtable_.i, align 8
  %describe.i = getelementptr inbounds %"struct.testing::internal::MatcherBase<const int &>::VTable", ptr %2, i64 0, i32 1
  %3 = load ptr, ptr %describe.i, align 8
  call void %3(ptr noundef nonnull align 8 dereferenceable(24) %matcher_, ptr noundef nonnull %os, i1 noundef zeroext false)
  call void @llvm.lifetime.end.p0(i64 4, ptr nonnull %ref.tmp.i)
  ret void
}

; Function Attrs: mustprogress uwtable
define linkonce_odr dso_local void @_ZNK7testing8internal14PointeeMatcherIiE4ImplIRKSt10unique_ptrIiSt14default_deleteIiEEE18DescribeNegationToEPSo(ptr noundef nonnull align 8 dereferenceable(32) %this, ptr noundef %os) unnamed_addr #3 comdat align 2 personality ptr @__gxx_personality_v0 {
entry:
  %ref.tmp.i = alloca %"class.testing::internal::GTestLog", align 4
  %call = tail call noundef nonnull align 8 dereferenceable(8) ptr @_ZStlsISt11char_traitsIcEERSt13basic_ostreamIcT_ES5_PKc(ptr noundef nonnull align 8 dereferenceable(8) %os, ptr noundef nonnull @.str.77)
  call void @llvm.lifetime.start.p0(i64 4, ptr nonnull %ref.tmp.i)
  %vtable_.i = getelementptr inbounds %"class.testing::internal::PointeeMatcher<int>::Impl", ptr %this, i64 0, i32 1, i32 0, i32 1
  %0 = load ptr, ptr %vtable_.i, align 8
  %cmp.i = icmp ne ptr %0, null
  %call.i = tail call noundef zeroext i1 @_ZN7testing8internal6IsTrueEb(i1 noundef zeroext %cmp.i)
  br i1 %call.i, label %_ZNK7testing8internal11MatcherBaseIRKiE10DescribeToEPSo.exit, label %if.else.i

if.else.i:                                        ; preds = %entry
  call void @_ZN7testing8internal8GTestLogC1ENS0_16GTestLogSeverityEPKci(ptr noundef nonnull align 4 dereferenceable(4) %ref.tmp.i, i32 noundef 3, ptr noundef nonnull @.str.74, i32 noundef 245)
  %call4.i = invoke noundef nonnull align 8 dereferenceable(8) ptr @_ZStlsISt11char_traitsIcEERSt13basic_ostreamIcT_ES5_PKc(ptr noundef nonnull align 8 dereferenceable(8) @_ZSt4cerr, ptr noundef nonnull @.str.75)
          to label %invoke.cont3.i unwind label %lpad.i

invoke.cont3.i:                                   ; preds = %if.else.i
  call void @_ZN7testing8internal8GTestLogD1Ev(ptr noundef nonnull align 4 dereferenceable(4) %ref.tmp.i) #15
  br label %_ZNK7testing8internal11MatcherBaseIRKiE10DescribeToEPSo.exit

lpad.i:                                           ; preds = %if.else.i
  %1 = landingpad { ptr, i32 }
          cleanup
  call void @_ZN7testing8internal8GTestLogD1Ev(ptr noundef nonnull align 4 dereferenceable(4) %ref.tmp.i) #15
  resume { ptr, i32 } %1

_ZNK7testing8internal11MatcherBaseIRKiE10DescribeToEPSo.exit: ; preds = %entry, %invoke.cont3.i
  %matcher_ = getelementptr inbounds %"class.testing::internal::PointeeMatcher<int>::Impl", ptr %this, i64 0, i32 1
  %2 = load ptr, ptr %vtable_.i, align 8
  %describe.i = getelementptr inbounds %"struct.testing::internal::MatcherBase<const int &>::VTable", ptr %2, i64 0, i32 1
  %3 = load ptr, ptr %describe.i, align 8
  call void %3(ptr noundef nonnull align 8 dereferenceable(24) %matcher_, ptr noundef nonnull %os, i1 noundef zeroext false)
  call void @llvm.lifetime.end.p0(i64 4, ptr nonnull %ref.tmp.i)
  ret void
}

; Function Attrs: mustprogress uwtable
define linkonce_odr dso_local noundef zeroext i1 @_ZNK7testing8internal14PointeeMatcherIiE4ImplIRKSt10unique_ptrIiSt14default_deleteIiEEE15MatchAndExplainES9_PNS_19MatchResultListenerE(ptr noundef nonnull align 8 dereferenceable(32) %this, ptr noundef nonnull align 8 dereferenceable(8) %pointer, ptr noundef %listener) unnamed_addr #3 comdat align 2 {
entry:
  %0 = load ptr, ptr %pointer, align 8
  %cmp = icmp eq ptr %0, null
  br i1 %cmp, label %return, label %if.end

if.end:                                           ; preds = %entry
  %stream_.i = getelementptr inbounds %"class.testing::MatchResultListener", ptr %listener, i64 0, i32 1
  %1 = load ptr, ptr %stream_.i, align 8
  %cmp.not.i = icmp eq ptr %1, null
  br i1 %cmp.not.i, label %_ZN7testing19MatchResultListenerlsIA17_cEERS0_RKT_.exit, label %if.then.i

if.then.i:                                        ; preds = %if.end
  %call.i = tail call noundef nonnull align 8 dereferenceable(8) ptr @_ZStlsISt11char_traitsIcEERSt13basic_ostreamIcT_ES5_PKc(ptr noundef nonnull align 8 dereferenceable(8) %1, ptr noundef nonnull @.str.78)
  %.pre = load ptr, ptr %pointer, align 8
  br label %_ZN7testing19MatchResultListenerlsIA17_cEERS0_RKT_.exit

_ZN7testing19MatchResultListenerlsIA17_cEERS0_RKT_.exit: ; preds = %if.end, %if.then.i
  %2 = phi ptr [ %0, %if.end ], [ %.pre, %if.then.i ]
  %matcher_ = getelementptr inbounds %"class.testing::internal::PointeeMatcher<int>::Impl", ptr %this, i64 0, i32 1
  %call4 = tail call noundef zeroext i1 @_ZN7testing8internal20MatchPrintAndExplainIiRKiEEbRT_RKNS_7MatcherIT0_EEPNS_19MatchResultListenerE(ptr noundef nonnull align 4 dereferenceable(4) %2, ptr noundef nonnull align 8 dereferenceable(24) %matcher_, ptr noundef nonnull %listener)
  br label %return

return:                                           ; preds = %entry, %_ZN7testing19MatchResultListenerlsIA17_cEERS0_RKT_.exit
  %retval.0 = phi i1 [ %call4, %_ZN7testing19MatchResultListenerlsIA17_cEERS0_RKT_.exit ], [ false, %entry ]
  ret i1 %retval.0
}

; Function Attrs: mustprogress nounwind uwtable
define linkonce_odr dso_local void @_ZN7testing7MatcherIRKiED2Ev(ptr noundef nonnull align 8 dereferenceable(24) %this) unnamed_addr #7 comdat align 2 personality ptr @__gxx_personality_v0 {
entry:
  store ptr getelementptr inbounds ({ [6 x ptr] }, ptr @_ZTVN7testing8internal11MatcherBaseIRKiEE, i64 0, inrange i32 0, i64 2), ptr %this, align 8
  %vtable_.i.i.i = getelementptr inbounds %"class.testing::internal::MatcherBase.59", ptr %this, i64 0, i32 1
  %0 = load ptr, ptr %vtable_.i.i.i, align 8
  %cmp.not.i.i.i = icmp eq ptr %0, null
  br i1 %cmp.not.i.i.i, label %_ZN7testing8internal11MatcherBaseIRKiED2Ev.exit, label %_ZNK7testing8internal11MatcherBaseIRKiE8IsSharedEv.exit.i.i

_ZNK7testing8internal11MatcherBaseIRKiE8IsSharedEv.exit.i.i: ; preds = %entry
  %shared_destroy.i.i.i = getelementptr inbounds %"struct.testing::internal::MatcherBase<const int &>::VTable", ptr %0, i64 0, i32 3
  %1 = load ptr, ptr %shared_destroy.i.i.i, align 8
  %cmp3.i.not.i.i = icmp eq ptr %1, null
  br i1 %cmp3.i.not.i.i, label %_ZN7testing8internal11MatcherBaseIRKiED2Ev.exit, label %land.lhs.true.i.i

land.lhs.true.i.i:                                ; preds = %_ZNK7testing8internal11MatcherBaseIRKiE8IsSharedEv.exit.i.i
  %buffer_.i.i = getelementptr inbounds %"class.testing::internal::MatcherBase.59", ptr %this, i64 0, i32 2
  %2 = load ptr, ptr %buffer_.i.i, align 8
  %3 = atomicrmw sub ptr %2, i32 1 acq_rel, align 4
  %cmp.i.i.i = icmp eq i32 %3, 1
  br i1 %cmp.i.i.i, label %if.then.i.i, label %_ZN7testing8internal11MatcherBaseIRKiED2Ev.exit

if.then.i.i:                                      ; preds = %land.lhs.true.i.i
  %4 = load ptr, ptr %vtable_.i.i.i, align 8
  %shared_destroy.i.i = getelementptr inbounds %"struct.testing::internal::MatcherBase<const int &>::VTable", ptr %4, i64 0, i32 3
  %5 = load ptr, ptr %shared_destroy.i.i, align 8
  %6 = load ptr, ptr %buffer_.i.i, align 8
  invoke void %5(ptr noundef %6)
          to label %_ZN7testing8internal11MatcherBaseIRKiED2Ev.exit unwind label %terminate.lpad.i

terminate.lpad.i:                                 ; preds = %if.then.i.i
  %7 = landingpad { ptr, i32 }
          catch ptr null
  %8 = extractvalue { ptr, i32 } %7, 0
  tail call void @__clang_call_terminate(ptr %8) #18
  unreachable

_ZN7testing8internal11MatcherBaseIRKiED2Ev.exit:  ; preds = %entry, %_ZNK7testing8internal11MatcherBaseIRKiE8IsSharedEv.exit.i.i, %land.lhs.true.i.i, %if.then.i.i
  ret void
}

; Function Attrs: mustprogress nounwind uwtable
define linkonce_odr dso_local void @_ZN7testing7MatcherIRKiED0Ev(ptr noundef nonnull align 8 dereferenceable(24) %this) unnamed_addr #7 comdat align 2 personality ptr @__gxx_personality_v0 {
entry:
  store ptr getelementptr inbounds ({ [6 x ptr] }, ptr @_ZTVN7testing8internal11MatcherBaseIRKiEE, i64 0, inrange i32 0, i64 2), ptr %this, align 8
  %vtable_.i.i.i.i = getelementptr inbounds %"class.testing::internal::MatcherBase.59", ptr %this, i64 0, i32 1
  %0 = load ptr, ptr %vtable_.i.i.i.i, align 8
  %cmp.not.i.i.i.i = icmp eq ptr %0, null
  br i1 %cmp.not.i.i.i.i, label %_ZN7testing7MatcherIRKiED2Ev.exit, label %_ZNK7testing8internal11MatcherBaseIRKiE8IsSharedEv.exit.i.i.i

_ZNK7testing8internal11MatcherBaseIRKiE8IsSharedEv.exit.i.i.i: ; preds = %entry
  %shared_destroy.i.i.i.i = getelementptr inbounds %"struct.testing::internal::MatcherBase<const int &>::VTable", ptr %0, i64 0, i32 3
  %1 = load ptr, ptr %shared_destroy.i.i.i.i, align 8
  %cmp3.i.not.i.i.i = icmp eq ptr %1, null
  br i1 %cmp3.i.not.i.i.i, label %_ZN7testing7MatcherIRKiED2Ev.exit, label %land.lhs.true.i.i.i

land.lhs.true.i.i.i:                              ; preds = %_ZNK7testing8internal11MatcherBaseIRKiE8IsSharedEv.exit.i.i.i
  %buffer_.i.i.i = getelementptr inbounds %"class.testing::internal::MatcherBase.59", ptr %this, i64 0, i32 2
  %2 = load ptr, ptr %buffer_.i.i.i, align 8
  %3 = atomicrmw sub ptr %2, i32 1 acq_rel, align 4
  %cmp.i.i.i.i = icmp eq i32 %3, 1
  br i1 %cmp.i.i.i.i, label %if.then.i.i.i, label %_ZN7testing7MatcherIRKiED2Ev.exit

if.then.i.i.i:                                    ; preds = %land.lhs.true.i.i.i
  %4 = load ptr, ptr %vtable_.i.i.i.i, align 8
  %shared_destroy.i.i.i = getelementptr inbounds %"struct.testing::internal::MatcherBase<const int &>::VTable", ptr %4, i64 0, i32 3
  %5 = load ptr, ptr %shared_destroy.i.i.i, align 8
  %6 = load ptr, ptr %buffer_.i.i.i, align 8
  invoke void %5(ptr noundef %6)
          to label %_ZN7testing7MatcherIRKiED2Ev.exit unwind label %terminate.lpad.i.i

terminate.lpad.i.i:                               ; preds = %if.then.i.i.i
  %7 = landingpad { ptr, i32 }
          catch ptr null
  %8 = extractvalue { ptr, i32 } %7, 0
  tail call void @__clang_call_terminate(ptr %8) #18
  unreachable

_ZN7testing7MatcherIRKiED2Ev.exit:                ; preds = %entry, %_ZNK7testing8internal11MatcherBaseIRKiE8IsSharedEv.exit.i.i.i, %land.lhs.true.i.i.i, %if.then.i.i.i
  tail call void @_ZdlPv(ptr noundef nonnull %this) #16
  ret void
}

; Function Attrs: mustprogress uwtable
define linkonce_odr dso_local void @_ZNK7testing8internal11MatcherBaseIRKiE10DescribeToEPSo(ptr noundef nonnull align 8 dereferenceable(24) %this, ptr noundef %os) unnamed_addr #3 comdat align 2 personality ptr @__gxx_personality_v0 {
entry:
  %ref.tmp = alloca %"class.testing::internal::GTestLog", align 4
  %vtable_ = getelementptr inbounds %"class.testing::internal::MatcherBase.59", ptr %this, i64 0, i32 1
  %0 = load ptr, ptr %vtable_, align 8
  %cmp = icmp ne ptr %0, null
  %call = tail call noundef zeroext i1 @_ZN7testing8internal6IsTrueEb(i1 noundef zeroext %cmp)
  br i1 %call, label %if.end, label %if.else

if.else:                                          ; preds = %entry
  call void @_ZN7testing8internal8GTestLogC1ENS0_16GTestLogSeverityEPKci(ptr noundef nonnull align 4 dereferenceable(4) %ref.tmp, i32 noundef 3, ptr noundef nonnull @.str.74, i32 noundef 245)
  %call4 = invoke noundef nonnull align 8 dereferenceable(8) ptr @_ZStlsISt11char_traitsIcEERSt13basic_ostreamIcT_ES5_PKc(ptr noundef nonnull align 8 dereferenceable(8) @_ZSt4cerr, ptr noundef nonnull @.str.75)
          to label %invoke.cont3 unwind label %lpad

invoke.cont3:                                     ; preds = %if.else
  call void @_ZN7testing8internal8GTestLogD1Ev(ptr noundef nonnull align 4 dereferenceable(4) %ref.tmp) #15
  br label %if.end

lpad:                                             ; preds = %if.else
  %1 = landingpad { ptr, i32 }
          cleanup
  call void @_ZN7testing8internal8GTestLogD1Ev(ptr noundef nonnull align 4 dereferenceable(4) %ref.tmp) #15
  resume { ptr, i32 } %1

if.end:                                           ; preds = %entry, %invoke.cont3
  %2 = load ptr, ptr %vtable_, align 8
  %describe = getelementptr inbounds %"struct.testing::internal::MatcherBase<const int &>::VTable", ptr %2, i64 0, i32 1
  %3 = load ptr, ptr %describe, align 8
  call void %3(ptr noundef nonnull align 8 dereferenceable(24) %this, ptr noundef %os, i1 noundef zeroext false)
  ret void
}

; Function Attrs: mustprogress uwtable
define linkonce_odr dso_local void @_ZNK7testing8internal11MatcherBaseIRKiE18DescribeNegationToEPSo(ptr noundef nonnull align 8 dereferenceable(24) %this, ptr noundef %os) unnamed_addr #3 comdat align 2 personality ptr @__gxx_personality_v0 {
entry:
  %ref.tmp = alloca %"class.testing::internal::GTestLog", align 4
  %vtable_ = getelementptr inbounds %"class.testing::internal::MatcherBase.59", ptr %this, i64 0, i32 1
  %0 = load ptr, ptr %vtable_, align 8
  %cmp = icmp ne ptr %0, null
  %call = tail call noundef zeroext i1 @_ZN7testing8internal6IsTrueEb(i1 noundef zeroext %cmp)
  br i1 %call, label %if.end, label %if.else

if.else:                                          ; preds = %entry
  call void @_ZN7testing8internal8GTestLogC1ENS0_16GTestLogSeverityEPKci(ptr noundef nonnull align 4 dereferenceable(4) %ref.tmp, i32 noundef 3, ptr noundef nonnull @.str.74, i32 noundef 251)
  %call3 = invoke noundef nonnull align 8 dereferenceable(8) ptr @_ZStlsISt11char_traitsIcEERSt13basic_ostreamIcT_ES5_PKc(ptr noundef nonnull align 8 dereferenceable(8) @_ZSt4cerr, ptr noundef nonnull @.str.75)
          to label %invoke.cont unwind label %lpad

invoke.cont:                                      ; preds = %if.else
  call void @_ZN7testing8internal8GTestLogD1Ev(ptr noundef nonnull align 4 dereferenceable(4) %ref.tmp) #15
  br label %if.end

lpad:                                             ; preds = %if.else
  %1 = landingpad { ptr, i32 }
          cleanup
  call void @_ZN7testing8internal8GTestLogD1Ev(ptr noundef nonnull align 4 dereferenceable(4) %ref.tmp) #15
  resume { ptr, i32 } %1

if.end:                                           ; preds = %entry, %invoke.cont
  %2 = load ptr, ptr %vtable_, align 8
  %describe = getelementptr inbounds %"struct.testing::internal::MatcherBase<const int &>::VTable", ptr %2, i64 0, i32 1
  %3 = load ptr, ptr %describe, align 8
  call void %3(ptr noundef nonnull align 8 dereferenceable(24) %this, ptr noundef %os, i1 noundef zeroext true)
  ret void
}

; Function Attrs: mustprogress nounwind uwtable
define linkonce_odr dso_local void @_ZN7testing8internal11MatcherBaseIRKiED2Ev(ptr noundef nonnull align 8 dereferenceable(24) %this) unnamed_addr #7 comdat align 2 personality ptr @__gxx_personality_v0 {
entry:
  store ptr getelementptr inbounds ({ [6 x ptr] }, ptr @_ZTVN7testing8internal11MatcherBaseIRKiEE, i64 0, inrange i32 0, i64 2), ptr %this, align 8
  %vtable_.i.i = getelementptr inbounds %"class.testing::internal::MatcherBase.59", ptr %this, i64 0, i32 1
  %0 = load ptr, ptr %vtable_.i.i, align 8
  %cmp.not.i.i = icmp eq ptr %0, null
  br i1 %cmp.not.i.i, label %invoke.cont, label %_ZNK7testing8internal11MatcherBaseIRKiE8IsSharedEv.exit.i

_ZNK7testing8internal11MatcherBaseIRKiE8IsSharedEv.exit.i: ; preds = %entry
  %shared_destroy.i.i = getelementptr inbounds %"struct.testing::internal::MatcherBase<const int &>::VTable", ptr %0, i64 0, i32 3
  %1 = load ptr, ptr %shared_destroy.i.i, align 8
  %cmp3.i.not.i = icmp eq ptr %1, null
  br i1 %cmp3.i.not.i, label %invoke.cont, label %land.lhs.true.i

land.lhs.true.i:                                  ; preds = %_ZNK7testing8internal11MatcherBaseIRKiE8IsSharedEv.exit.i
  %buffer_.i = getelementptr inbounds %"class.testing::internal::MatcherBase.59", ptr %this, i64 0, i32 2
  %2 = load ptr, ptr %buffer_.i, align 8
  %3 = atomicrmw sub ptr %2, i32 1 acq_rel, align 4
  %cmp.i.i = icmp eq i32 %3, 1
  br i1 %cmp.i.i, label %if.then.i, label %invoke.cont

if.then.i:                                        ; preds = %land.lhs.true.i
  %4 = load ptr, ptr %vtable_.i.i, align 8
  %shared_destroy.i = getelementptr inbounds %"struct.testing::internal::MatcherBase<const int &>::VTable", ptr %4, i64 0, i32 3
  %5 = load ptr, ptr %shared_destroy.i, align 8
  %6 = load ptr, ptr %buffer_.i, align 8
  invoke void %5(ptr noundef %6)
          to label %invoke.cont unwind label %terminate.lpad

invoke.cont:                                      ; preds = %land.lhs.true.i, %_ZNK7testing8internal11MatcherBaseIRKiE8IsSharedEv.exit.i, %entry, %if.then.i
  ret void

terminate.lpad:                                   ; preds = %if.then.i
  %7 = landingpad { ptr, i32 }
          catch ptr null
  %8 = extractvalue { ptr, i32 } %7, 0
  tail call void @__clang_call_terminate(ptr %8) #18
  unreachable
}

; Function Attrs: mustprogress nounwind uwtable
define linkonce_odr dso_local void @_ZN7testing8internal11MatcherBaseIRKiED0Ev(ptr noundef nonnull align 8 dereferenceable(24) %this) unnamed_addr #7 comdat align 2 personality ptr @__gxx_personality_v0 {
entry:
  store ptr getelementptr inbounds ({ [6 x ptr] }, ptr @_ZTVN7testing8internal11MatcherBaseIRKiEE, i64 0, inrange i32 0, i64 2), ptr %this, align 8
  %vtable_.i.i.i = getelementptr inbounds %"class.testing::internal::MatcherBase.59", ptr %this, i64 0, i32 1
  %0 = load ptr, ptr %vtable_.i.i.i, align 8
  %cmp.not.i.i.i = icmp eq ptr %0, null
  br i1 %cmp.not.i.i.i, label %_ZN7testing8internal11MatcherBaseIRKiED2Ev.exit, label %_ZNK7testing8internal11MatcherBaseIRKiE8IsSharedEv.exit.i.i

_ZNK7testing8internal11MatcherBaseIRKiE8IsSharedEv.exit.i.i: ; preds = %entry
  %shared_destroy.i.i.i = getelementptr inbounds %"struct.testing::internal::MatcherBase<const int &>::VTable", ptr %0, i64 0, i32 3
  %1 = load ptr, ptr %shared_destroy.i.i.i, align 8
  %cmp3.i.not.i.i = icmp eq ptr %1, null
  br i1 %cmp3.i.not.i.i, label %_ZN7testing8internal11MatcherBaseIRKiED2Ev.exit, label %land.lhs.true.i.i

land.lhs.true.i.i:                                ; preds = %_ZNK7testing8internal11MatcherBaseIRKiE8IsSharedEv.exit.i.i
  %buffer_.i.i = getelementptr inbounds %"class.testing::internal::MatcherBase.59", ptr %this, i64 0, i32 2
  %2 = load ptr, ptr %buffer_.i.i, align 8
  %3 = atomicrmw sub ptr %2, i32 1 acq_rel, align 4
  %cmp.i.i.i = icmp eq i32 %3, 1
  br i1 %cmp.i.i.i, label %if.then.i.i, label %_ZN7testing8internal11MatcherBaseIRKiED2Ev.exit

if.then.i.i:                                      ; preds = %land.lhs.true.i.i
  %4 = load ptr, ptr %vtable_.i.i.i, align 8
  %shared_destroy.i.i = getelementptr inbounds %"struct.testing::internal::MatcherBase<const int &>::VTable", ptr %4, i64 0, i32 3
  %5 = load ptr, ptr %shared_destroy.i.i, align 8
  %6 = load ptr, ptr %buffer_.i.i, align 8
  invoke void %5(ptr noundef %6)
          to label %_ZN7testing8internal11MatcherBaseIRKiED2Ev.exit unwind label %terminate.lpad.i

terminate.lpad.i:                                 ; preds = %if.then.i.i
  %7 = landingpad { ptr, i32 }
          catch ptr null
  %8 = extractvalue { ptr, i32 } %7, 0
  tail call void @__clang_call_terminate(ptr %8) #18
  unreachable

_ZN7testing8internal11MatcherBaseIRKiED2Ev.exit:  ; preds = %entry, %_ZNK7testing8internal11MatcherBaseIRKiE8IsSharedEv.exit.i.i, %land.lhs.true.i.i, %if.then.i.i
  tail call void @_ZdlPv(ptr noundef nonnull %this) #16
  ret void
}

; Function Attrs: mustprogress uwtable
define linkonce_odr dso_local noundef zeroext i1 @_ZN7testing8internal11MatcherBaseIRKiE19MatchAndExplainImplINS4_11ValuePolicyINS0_9EqMatcherIiEELb1EEEEEDTcldtclsrT_3Getfp_E15MatchAndExplainfp0_clptfp1_6streamEEERKS4_S3_PNS_19MatchResultListenerE(ptr noundef nonnull align 8 dereferenceable(24) %m, ptr noundef nonnull align 4 dereferenceable(4) %value, ptr noundef %listener) #3 comdat align 2 {
entry:
  %buffer_.i = getelementptr inbounds %"class.testing::internal::MatcherBase.59", ptr %m, i64 0, i32 2
  %0 = load i32, ptr %value, align 4
  %1 = load i32, ptr %buffer_.i, align 8
  %cmp.i.i = icmp eq i32 %0, %1
  ret i1 %cmp.i.i
}

; Function Attrs: mustprogress uwtable
define linkonce_odr dso_local void @_ZN7testing8internal11MatcherBaseIRKiE12DescribeImplINS4_11ValuePolicyINS0_9EqMatcherIiEELb1EEEEEvRKS4_PSob(ptr noundef nonnull align 8 dereferenceable(24) %m, ptr noundef %os, i1 noundef zeroext %negation) #3 comdat align 2 {
entry:
  %buffer_.i = getelementptr inbounds %"class.testing::internal::MatcherBase.59", ptr %m, i64 0, i32 2
  %.str.72..str.73 = select i1 %negation, ptr @.str.72, ptr @.str.73
  %call2.i4 = tail call noundef nonnull align 8 dereferenceable(8) ptr @_ZStlsISt11char_traitsIcEERSt13basic_ostreamIcT_ES5_PKc(ptr noundef nonnull align 8 dereferenceable(8) %os, ptr noundef nonnull %.str.72..str.73)
  %call3.i5 = tail call noundef nonnull align 8 dereferenceable(8) ptr @_ZStlsISt11char_traitsIcEERSt13basic_ostreamIcT_ES5_PKc(ptr noundef nonnull align 8 dereferenceable(8) %call2.i4, ptr noundef nonnull @.str.71)
  %0 = load i32, ptr %buffer_.i, align 8
  %call.i.i.i.i.i.i6 = tail call noundef nonnull align 8 dereferenceable(8) ptr @_ZNSolsEi(ptr noundef nonnull align 8 dereferenceable(8) %os, i32 noundef %0)
  ret void
}

; Function Attrs: mustprogress uwtable
define linkonce_odr dso_local noundef ptr @_ZN7testing8internal11MatcherBaseIRKiE16GetDescriberImplINS4_11ValuePolicyINS0_9EqMatcherIiEELb1EEEEEPKNS_25MatcherDescriberInterfaceERKS4_(ptr noundef nonnull align 8 dereferenceable(24) %m) #3 comdat align 2 personality ptr @__gxx_personality_v0 {
entry:
  ret ptr %m
}

declare noundef zeroext i1 @_ZN7testing8internal6IsTrueEb(i1 noundef zeroext) local_unnamed_addr #0

declare void @_ZN7testing8internal8GTestLogC1ENS0_16GTestLogSeverityEPKci(ptr noundef nonnull align 4 dereferenceable(4), i32 noundef, ptr noundef, i32 noundef) unnamed_addr #0

; Function Attrs: nounwind
declare void @_ZN7testing8internal8GTestLogD1Ev(ptr noundef nonnull align 4 dereferenceable(4)) unnamed_addr #1

; Function Attrs: mustprogress uwtable
define linkonce_odr dso_local noundef zeroext i1 @_ZN7testing8internal20MatchPrintAndExplainIiRKiEEbRT_RKNS_7MatcherIT0_EEPNS_19MatchResultListenerE(ptr noundef nonnull align 4 dereferenceable(4) %value, ptr noundef nonnull align 8 dereferenceable(24) %matcher, ptr noundef %listener) local_unnamed_addr #3 comdat personality ptr @__gxx_personality_v0 {
entry:
  %ref.tmp.i = alloca %"class.testing::internal::GTestLog", align 4
  %ref.tmp.i.i = alloca %"class.testing::internal::GTestLog", align 4
  %dummy.i = alloca %"class.testing::internal::DummyMatchResultListener", align 8
  %inner_listener = alloca %"class.testing::StringMatchResultListener", align 8
  %ref.tmp = alloca %"class.std::__cxx11::basic_string", align 8
  %ref.tmp18 = alloca %"class.std::__cxx11::basic_string", align 8
  %stream_.i = getelementptr inbounds %"class.testing::MatchResultListener", ptr %listener, i64 0, i32 1
  %0 = load ptr, ptr %stream_.i, align 8
  %cmp.i.not = icmp eq ptr %0, null
  br i1 %cmp.i.not, label %if.then, label %if.end

if.then:                                          ; preds = %entry
  call void @llvm.lifetime.start.p0(i64 16, ptr nonnull %dummy.i)
  %stream_.i.i.i = getelementptr inbounds %"class.testing::MatchResultListener", ptr %dummy.i, i64 0, i32 1
  store ptr null, ptr %stream_.i.i.i, align 8
  store ptr getelementptr inbounds ({ [4 x ptr] }, ptr @_ZTVN7testing8internal24DummyMatchResultListenerE, i64 0, inrange i32 0, i64 2), ptr %dummy.i, align 8
  call void @llvm.lifetime.start.p0(i64 4, ptr nonnull %ref.tmp.i.i)
  %vtable_.i.i = getelementptr inbounds %"class.testing::internal::MatcherBase.59", ptr %matcher, i64 0, i32 1
  %1 = load ptr, ptr %vtable_.i.i, align 8
  %cmp.i.i = icmp ne ptr %1, null
  %call.i1.i = tail call noundef zeroext i1 @_ZN7testing8internal6IsTrueEb(i1 noundef zeroext %cmp.i.i)
  br i1 %call.i1.i, label %_ZNK7testing8internal11MatcherBaseIRKiE7MatchesES3_.exit, label %if.else.i.i

if.else.i.i:                                      ; preds = %if.then
  call void @_ZN7testing8internal8GTestLogC1ENS0_16GTestLogSeverityEPKci(ptr noundef nonnull align 4 dereferenceable(4) %ref.tmp.i.i, i32 noundef 3, ptr noundef nonnull @.str.74, i32 noundef 233)
  %call3.i.i = invoke noundef nonnull align 8 dereferenceable(8) ptr @_ZStlsISt11char_traitsIcEERSt13basic_ostreamIcT_ES5_PKc(ptr noundef nonnull align 8 dereferenceable(8) @_ZSt4cerr, ptr noundef nonnull @.str.75)
          to label %invoke.cont.i.i unwind label %lpad.i.i

invoke.cont.i.i:                                  ; preds = %if.else.i.i
  call void @_ZN7testing8internal8GTestLogD1Ev(ptr noundef nonnull align 4 dereferenceable(4) %ref.tmp.i.i) #15
  br label %_ZNK7testing8internal11MatcherBaseIRKiE7MatchesES3_.exit

common.resume:                                    ; preds = %ehcleanup23, %lpad.i.i
  %common.resume.op = phi { ptr, i32 } [ %2, %lpad.i.i ], [ %.pn.pn, %ehcleanup23 ]
  resume { ptr, i32 } %common.resume.op

lpad.i.i:                                         ; preds = %if.else.i.i
  %2 = landingpad { ptr, i32 }
          cleanup
  call void @_ZN7testing8internal8GTestLogD1Ev(ptr noundef nonnull align 4 dereferenceable(4) %ref.tmp.i.i) #15
  br label %common.resume

_ZNK7testing8internal11MatcherBaseIRKiE7MatchesES3_.exit: ; preds = %if.then, %invoke.cont.i.i
  %3 = load ptr, ptr %vtable_.i.i, align 8
  %4 = load ptr, ptr %3, align 8
  %call5.i2.i = call noundef zeroext i1 %4(ptr noundef nonnull align 8 dereferenceable(24) %matcher, ptr noundef nonnull align 4 dereferenceable(4) %value, ptr noundef nonnull %dummy.i)
  call void @llvm.lifetime.end.p0(i64 4, ptr nonnull %ref.tmp.i.i)
  call void @llvm.lifetime.end.p0(i64 16, ptr nonnull %dummy.i)
  br label %return

if.end:                                           ; preds = %entry
  %ss_.i = getelementptr inbounds %"class.testing::StringMatchResultListener", ptr %inner_listener, i64 0, i32 1
  %add.ptr.i = getelementptr inbounds %"class.testing::StringMatchResultListener", ptr %inner_listener, i64 0, i32 1, i32 0, i32 1
  %stream_.i.i = getelementptr inbounds %"class.testing::MatchResultListener", ptr %inner_listener, i64 0, i32 1
  store ptr %add.ptr.i, ptr %stream_.i.i, align 8
  store ptr getelementptr inbounds ({ [4 x ptr] }, ptr @_ZTVN7testing25StringMatchResultListenerE, i64 0, inrange i32 0, i64 2), ptr %inner_listener, align 8
  call void @_ZNSt7__cxx1118basic_stringstreamIcSt11char_traitsIcESaIcEEC1Ev(ptr noundef nonnull align 8 dereferenceable(128) %ss_.i)
  call void @llvm.lifetime.start.p0(i64 4, ptr nonnull %ref.tmp.i)
  %vtable_.i = getelementptr inbounds %"class.testing::internal::MatcherBase.59", ptr %matcher, i64 0, i32 1
  %5 = load ptr, ptr %vtable_.i, align 8
  %cmp.i10 = icmp ne ptr %5, null
  %call.i11 = invoke noundef zeroext i1 @_ZN7testing8internal6IsTrueEb(i1 noundef zeroext %cmp.i10)
          to label %call.i.noexc unwind label %lpad

call.i.noexc:                                     ; preds = %if.end
  br i1 %call.i11, label %if.end.i, label %if.else.i

if.else.i:                                        ; preds = %call.i.noexc
  invoke void @_ZN7testing8internal8GTestLogC1ENS0_16GTestLogSeverityEPKci(ptr noundef nonnull align 4 dereferenceable(4) %ref.tmp.i, i32 noundef 3, ptr noundef nonnull @.str.74, i32 noundef 233)
          to label %.noexc unwind label %lpad

.noexc:                                           ; preds = %if.else.i
  %call3.i = invoke noundef nonnull align 8 dereferenceable(8) ptr @_ZStlsISt11char_traitsIcEERSt13basic_ostreamIcT_ES5_PKc(ptr noundef nonnull align 8 dereferenceable(8) @_ZSt4cerr, ptr noundef nonnull @.str.75)
          to label %invoke.cont.i unwind label %lpad.i

invoke.cont.i:                                    ; preds = %.noexc
  call void @_ZN7testing8internal8GTestLogD1Ev(ptr noundef nonnull align 4 dereferenceable(4) %ref.tmp.i) #15
  br label %if.end.i

lpad.i:                                           ; preds = %.noexc
  %6 = landingpad { ptr, i32 }
          cleanup
  call void @_ZN7testing8internal8GTestLogD1Ev(ptr noundef nonnull align 4 dereferenceable(4) %ref.tmp.i) #15
  br label %ehcleanup23

if.end.i:                                         ; preds = %invoke.cont.i, %call.i.noexc
  %7 = load ptr, ptr %vtable_.i, align 8
  %8 = load ptr, ptr %7, align 8
  %call5.i12 = invoke noundef zeroext i1 %8(ptr noundef nonnull align 8 dereferenceable(24) %matcher, ptr noundef nonnull align 4 dereferenceable(4) %value, ptr noundef nonnull %inner_listener)
          to label %invoke.cont unwind label %lpad

invoke.cont:                                      ; preds = %if.end.i
  call void @llvm.lifetime.end.p0(i64 4, ptr nonnull %ref.tmp.i)
  %9 = load ptr, ptr %stream_.i, align 8
  %10 = load i32, ptr %value, align 4
  %call.i.i.i.i.i14 = invoke noundef nonnull align 8 dereferenceable(8) ptr @_ZNSolsEi(ptr noundef nonnull align 8 dereferenceable(8) %9, i32 noundef %10)
          to label %invoke.cont4 unwind label %lpad

invoke.cont4:                                     ; preds = %invoke.cont
  invoke void @_ZN7testing8internal11GetTypeNameB5cxx11ERKSt9type_info(ptr nonnull sret(%"class.std::__cxx11::basic_string") align 8 %ref.tmp, ptr noundef nonnull align 8 dereferenceable(16) @_ZTIi)
          to label %invoke.cont5 unwind label %lpad

invoke.cont5:                                     ; preds = %invoke.cont4
  %call.i = call noundef i64 @_ZNKSt7__cxx1112basic_stringIcSt11char_traitsIcESaIcEE6lengthEv(ptr noundef nonnull align 8 dereferenceable(32) %ref.tmp) #15
  %cmp.i16 = icmp ult i64 %call.i, 21
  br i1 %cmp.i16, label %if.then9, label %_ZN7testing8internal18IsReadableTypeNameERKNSt7__cxx1112basic_stringIcSt11char_traitsIcESaIcEEE.exit

_ZN7testing8internal18IsReadableTypeNameERKNSt7__cxx1112basic_stringIcSt11char_traitsIcESaIcEEE.exit: ; preds = %invoke.cont5
  %call1.i = call noundef i64 @_ZNKSt7__cxx1112basic_stringIcSt11char_traitsIcESaIcEE13find_first_ofEPKcm(ptr noundef nonnull align 8 dereferenceable(32) %ref.tmp, ptr noundef nonnull @.str.81, i64 noundef 0) #15
  %cmp2.i = icmp eq i64 %call1.i, -1
  br i1 %cmp2.i, label %if.then9, label %if.end17

if.then9:                                         ; preds = %invoke.cont5, %_ZN7testing8internal18IsReadableTypeNameERKNSt7__cxx1112basic_stringIcSt11char_traitsIcESaIcEEE.exit
  %11 = load ptr, ptr %stream_.i, align 8
  %call12 = invoke noundef nonnull align 8 dereferenceable(8) ptr @_ZStlsISt11char_traitsIcEERSt13basic_ostreamIcT_ES5_PKc(ptr noundef nonnull align 8 dereferenceable(8) %11, ptr noundef nonnull @.str.79)
          to label %invoke.cont11 unwind label %lpad6

invoke.cont11:                                    ; preds = %if.then9
  %call14 = invoke noundef nonnull align 8 dereferenceable(8) ptr @_ZStlsIcSt11char_traitsIcESaIcEERSt13basic_ostreamIT_T0_ES7_RKNSt7__cxx1112basic_stringIS4_S5_T1_EE(ptr noundef nonnull align 8 dereferenceable(8) %call12, ptr noundef nonnull align 8 dereferenceable(32) %ref.tmp)
          to label %invoke.cont13 unwind label %lpad6

invoke.cont13:                                    ; preds = %invoke.cont11
  %call16 = invoke noundef nonnull align 8 dereferenceable(8) ptr @_ZStlsISt11char_traitsIcEERSt13basic_ostreamIcT_ES5_PKc(ptr noundef nonnull align 8 dereferenceable(8) %call14, ptr noundef nonnull @.str.70)
          to label %if.end17 unwind label %lpad6

lpad:                                             ; preds = %invoke.cont4, %invoke.cont, %if.end.i, %if.else.i, %if.end
  %12 = landingpad { ptr, i32 }
          cleanup
  br label %ehcleanup23

lpad6:                                            ; preds = %if.end17, %invoke.cont13, %invoke.cont11, %if.then9
  %13 = landingpad { ptr, i32 }
          cleanup
  br label %ehcleanup

if.end17:                                         ; preds = %invoke.cont13, %_ZN7testing8internal18IsReadableTypeNameERKNSt7__cxx1112basic_stringIcSt11char_traitsIcESaIcEEE.exit
  invoke void @_ZNKSt7__cxx1118basic_stringstreamIcSt11char_traitsIcESaIcEE3strEv(ptr nonnull sret(%"class.std::__cxx11::basic_string") align 8 %ref.tmp18, ptr noundef nonnull align 8 dereferenceable(128) %ss_.i)
          to label %invoke.cont19 unwind label %lpad6

invoke.cont19:                                    ; preds = %if.end17
  %14 = load ptr, ptr %stream_.i, align 8
  %call.i21 = call noundef zeroext i1 @_ZNKSt7__cxx1112basic_stringIcSt11char_traitsIcESaIcEE5emptyEv(ptr noundef nonnull align 8 dereferenceable(32) %ref.tmp18) #15
  %cmp.i22 = icmp eq ptr %14, null
  %or.cond.not.i = or i1 %cmp.i22, %call.i21
  br i1 %or.cond.not.i, label %invoke.cont22, label %if.then.i

if.then.i:                                        ; preds = %invoke.cont19
  %call1.i2325 = invoke noundef nonnull align 8 dereferenceable(8) ptr @_ZStlsISt11char_traitsIcEERSt13basic_ostreamIcT_ES5_PKc(ptr noundef nonnull align 8 dereferenceable(8) %14, ptr noundef nonnull @.str.82)
          to label %call1.i23.noexc unwind label %lpad21

call1.i23.noexc:                                  ; preds = %if.then.i
  %call2.i26 = invoke noundef nonnull align 8 dereferenceable(8) ptr @_ZStlsIcSt11char_traitsIcESaIcEERSt13basic_ostreamIT_T0_ES7_RKNSt7__cxx1112basic_stringIS4_S5_T1_EE(ptr noundef nonnull align 8 dereferenceable(8) %call1.i2325, ptr noundef nonnull align 8 dereferenceable(32) %ref.tmp18)
          to label %invoke.cont22 unwind label %lpad21

invoke.cont22:                                    ; preds = %invoke.cont19, %call1.i23.noexc
  call void @_ZNSt7__cxx1112basic_stringIcSt11char_traitsIcESaIcEED1Ev(ptr noundef nonnull align 8 dereferenceable(32) %ref.tmp18) #15
  call void @_ZNSt7__cxx1112basic_stringIcSt11char_traitsIcESaIcEED1Ev(ptr noundef nonnull align 8 dereferenceable(32) %ref.tmp) #15
  store ptr getelementptr inbounds ({ [4 x ptr] }, ptr @_ZTVN7testing25StringMatchResultListenerE, i64 0, inrange i32 0, i64 2), ptr %inner_listener, align 8
  call void @_ZNSt7__cxx1118basic_stringstreamIcSt11char_traitsIcESaIcEED1Ev(ptr noundef nonnull align 8 dereferenceable(128) %ss_.i) #15
  br label %return

lpad21:                                           ; preds = %call1.i23.noexc, %if.then.i
  %15 = landingpad { ptr, i32 }
          cleanup
  call void @_ZNSt7__cxx1112basic_stringIcSt11char_traitsIcESaIcEED1Ev(ptr noundef nonnull align 8 dereferenceable(32) %ref.tmp18) #15
  br label %ehcleanup

ehcleanup:                                        ; preds = %lpad21, %lpad6
  %.pn = phi { ptr, i32 } [ %15, %lpad21 ], [ %13, %lpad6 ]
  call void @_ZNSt7__cxx1112basic_stringIcSt11char_traitsIcESaIcEED1Ev(ptr noundef nonnull align 8 dereferenceable(32) %ref.tmp) #15
  br label %ehcleanup23

ehcleanup23:                                      ; preds = %lpad, %lpad.i, %ehcleanup
  %.pn.pn = phi { ptr, i32 } [ %.pn, %ehcleanup ], [ %12, %lpad ], [ %6, %lpad.i ]
  store ptr getelementptr inbounds ({ [4 x ptr] }, ptr @_ZTVN7testing25StringMatchResultListenerE, i64 0, inrange i32 0, i64 2), ptr %inner_listener, align 8
  call void @_ZNSt7__cxx1118basic_stringstreamIcSt11char_traitsIcESaIcEED1Ev(ptr noundef nonnull align 8 dereferenceable(128) %ss_.i) #15
  br label %common.resume

return:                                           ; preds = %invoke.cont22, %_ZNK7testing8internal11MatcherBaseIRKiE7MatchesES3_.exit
  %retval.0 = phi i1 [ %call5.i12, %invoke.cont22 ], [ %call5.i2.i, %_ZNK7testing8internal11MatcherBaseIRKiE7MatchesES3_.exit ]
  ret i1 %retval.0
}

; Function Attrs: mustprogress nounwind uwtable
define linkonce_odr dso_local void @_ZN7testing8internal24DummyMatchResultListenerD2Ev(ptr noundef nonnull align 8 dereferenceable(16) %this) unnamed_addr #7 comdat align 2 {
entry:
  ret void
}

; Function Attrs: mustprogress nounwind uwtable
define linkonce_odr dso_local void @_ZN7testing8internal24DummyMatchResultListenerD0Ev(ptr noundef nonnull align 8 dereferenceable(16) %this) unnamed_addr #7 comdat align 2 {
entry:
  tail call void @_ZdlPv(ptr noundef nonnull %this) #16
  ret void
}

; Function Attrs: mustprogress uwtable
define linkonce_odr dso_local void @_ZN7testing8internal11GetTypeNameB5cxx11ERKSt9type_info(ptr noalias sret(%"class.std::__cxx11::basic_string") align 8 %agg.result, ptr noundef nonnull align 8 dereferenceable(16) %type) local_unnamed_addr #3 comdat personality ptr @__gxx_personality_v0 {
entry:
  %status = alloca i32, align 4
  %name_str = alloca %"class.std::__cxx11::basic_string", align 8
  %ref.tmp = alloca %"class.std::allocator", align 1
  %agg.tmp = alloca %"class.std::__cxx11::basic_string", align 8
  %__name.i = getelementptr inbounds %"class.std::type_info", ptr %type, i64 0, i32 1
  %0 = load ptr, ptr %__name.i, align 8
  %1 = load i8, ptr %0, align 1
  %cmp.i = icmp eq i8 %1, 42
  %cond.idx.i = zext i1 %cmp.i to i64
  %cond.i = getelementptr inbounds i8, ptr %0, i64 %cond.idx.i
  store i32 0, ptr %status, align 4
  %call1 = call ptr @__cxa_demangle(ptr noundef nonnull %cond.i, ptr noundef null, ptr noundef null, ptr noundef nonnull %status)
  %2 = load i32, ptr %status, align 4
  %cmp = icmp eq i32 %2, 0
  %cond = select i1 %cmp, ptr %call1, ptr %cond.i
  call void @_ZNSaIcEC1Ev(ptr noundef nonnull align 1 dereferenceable(1) %ref.tmp) #15
  %call.i6 = invoke noundef ptr @_ZNSt7__cxx1112basic_stringIcSt11char_traitsIcESaIcEE13_M_local_dataEv(ptr noundef nonnull align 8 dereferenceable(32) %name_str)
          to label %call.i.noexc unwind label %lpad

call.i.noexc:                                     ; preds = %entry
  invoke void @_ZNSt7__cxx1112basic_stringIcSt11char_traitsIcESaIcEE12_Alloc_hiderC1EPcRKS3_(ptr noundef nonnull align 8 dereferenceable(8) %name_str, ptr noundef %call.i6, ptr noundef nonnull align 1 dereferenceable(1) %ref.tmp)
          to label %.noexc unwind label %lpad

.noexc:                                           ; preds = %call.i.noexc
  %cmp.i5 = icmp eq ptr %cond, null
  br i1 %cmp.i5, label %if.then.i, label %if.end.i

if.then.i:                                        ; preds = %.noexc
  invoke void @_ZSt19__throw_logic_errorPKc(ptr noundef nonnull @.str.148) #19
          to label %invoke.cont.i unwind label %lpad.i

invoke.cont.i:                                    ; preds = %if.then.i
  unreachable

lpad.i:                                           ; preds = %if.end.i, %if.then.i
  %3 = landingpad { ptr, i32 }
          cleanup
  call void @_ZNSaIcED2Ev(ptr noundef nonnull align 1 dereferenceable(1) %name_str) #15
  br label %lpad.body

if.end.i:                                         ; preds = %.noexc
  %call.i.i = call noundef i64 @strlen(ptr noundef nonnull dereferenceable(1) %cond) #15
  %add.ptr.i = getelementptr inbounds i8, ptr %cond, i64 %call.i.i
  invoke void @_ZNSt7__cxx1112basic_stringIcSt11char_traitsIcESaIcEE12_M_constructIPKcEEvT_S8_St20forward_iterator_tag(ptr noundef nonnull align 8 dereferenceable(32) %name_str, ptr noundef nonnull %cond, ptr noundef nonnull %add.ptr.i)
          to label %invoke.cont unwind label %lpad.i

invoke.cont:                                      ; preds = %if.end.i
  call void @_ZNSaIcED1Ev(ptr noundef nonnull align 1 dereferenceable(1) %ref.tmp) #15
  call void @free(ptr noundef %call1) #15
  invoke void @_ZNSt7__cxx1112basic_stringIcSt11char_traitsIcESaIcEEC1ERKS4_(ptr noundef nonnull align 8 dereferenceable(32) %agg.tmp, ptr noundef nonnull align 8 dereferenceable(32) %name_str)
          to label %invoke.cont3 unwind label %lpad2

invoke.cont3:                                     ; preds = %invoke.cont
  invoke void @_ZN7testing8internal31CanonicalizeForStdLibVersioningENSt7__cxx1112basic_stringIcSt11char_traitsIcESaIcEEE(ptr sret(%"class.std::__cxx11::basic_string") align 8 %agg.result, ptr noundef nonnull %agg.tmp)
          to label %invoke.cont5 unwind label %lpad4

invoke.cont5:                                     ; preds = %invoke.cont3
  call void @_ZNSt7__cxx1112basic_stringIcSt11char_traitsIcESaIcEED1Ev(ptr noundef nonnull align 8 dereferenceable(32) %agg.tmp) #15
  call void @_ZNSt7__cxx1112basic_stringIcSt11char_traitsIcESaIcEED1Ev(ptr noundef nonnull align 8 dereferenceable(32) %name_str) #15
  ret void

lpad:                                             ; preds = %call.i.noexc, %entry
  %4 = landingpad { ptr, i32 }
          cleanup
  br label %lpad.body

lpad.body:                                        ; preds = %lpad.i, %lpad
  %eh.lpad-body = phi { ptr, i32 } [ %4, %lpad ], [ %3, %lpad.i ]
  call void @_ZNSaIcED1Ev(ptr noundef nonnull align 1 dereferenceable(1) %ref.tmp) #15
  br label %eh.resume

lpad2:                                            ; preds = %invoke.cont
  %5 = landingpad { ptr, i32 }
          cleanup
  br label %ehcleanup

lpad4:                                            ; preds = %invoke.cont3
  %6 = landingpad { ptr, i32 }
          cleanup
  call void @_ZNSt7__cxx1112basic_stringIcSt11char_traitsIcESaIcEED1Ev(ptr noundef nonnull align 8 dereferenceable(32) %agg.tmp) #15
  br label %ehcleanup

ehcleanup:                                        ; preds = %lpad4, %lpad2
  %.pn = phi { ptr, i32 } [ %6, %lpad4 ], [ %5, %lpad2 ]
  call void @_ZNSt7__cxx1112basic_stringIcSt11char_traitsIcESaIcEED1Ev(ptr noundef nonnull align 8 dereferenceable(32) %name_str) #15
  br label %eh.resume

eh.resume:                                        ; preds = %ehcleanup, %lpad.body
  %.pn.pn = phi { ptr, i32 } [ %.pn, %ehcleanup ], [ %eh.lpad-body, %lpad.body ]
  resume { ptr, i32 } %.pn.pn
}

declare ptr @__cxa_demangle(ptr noundef, ptr noundef, ptr noundef, ptr noundef) local_unnamed_addr #0

; Function Attrs: mustprogress nounwind willreturn allockind("free") memory(argmem: readwrite, inaccessiblemem: readwrite)
declare void @free(ptr allocptr nocapture noundef) local_unnamed_addr #9

; Function Attrs: mustprogress uwtable
define linkonce_odr dso_local void @_ZN7testing8internal31CanonicalizeForStdLibVersioningENSt7__cxx1112basic_stringIcSt11char_traitsIcESaIcEEE(ptr noalias sret(%"class.std::__cxx11::basic_string") align 8 %agg.result, ptr noundef %s) local_unnamed_addr #3 comdat {
entry:
  %call = tail call noundef i32 @_ZNKSt7__cxx1112basic_stringIcSt11char_traitsIcESaIcEE7compareEmmPKc(ptr noundef nonnull align 8 dereferenceable(32) %s, i64 noundef 0, i64 noundef 7, ptr noundef nonnull @_ZZN7testing8internal31CanonicalizeForStdLibVersioningENSt7__cxx1112basic_stringIcSt11char_traitsIcESaIcEEEE6prefix)
  %cmp = icmp eq i32 %call, 0
  br i1 %cmp, label %if.then, label %if.end5

if.then:                                          ; preds = %entry
  %call1 = tail call noundef i64 @_ZNKSt7__cxx1112basic_stringIcSt11char_traitsIcESaIcEE4findEPKcm(ptr noundef nonnull align 8 dereferenceable(32) %s, ptr noundef nonnull @.str.80, i64 noundef 7) #15
  %cmp2.not = icmp eq i64 %call1, -1
  br i1 %cmp2.not, label %if.end5, label %if.then3

if.then3:                                         ; preds = %if.then
  %sub = add i64 %call1, -3
  %call4 = tail call noundef nonnull align 8 dereferenceable(32) ptr @_ZNSt7__cxx1112basic_stringIcSt11char_traitsIcESaIcEE5eraseEmm(ptr noundef nonnull align 8 dereferenceable(32) %s, i64 noundef 3, i64 noundef %sub)
  br label %if.end5

if.end5:                                          ; preds = %if.then, %if.then3, %entry
  %call65 = tail call noundef i64 @_ZNKSt7__cxx1112basic_stringIcSt11char_traitsIcESaIcEE4findEPKcm(ptr noundef nonnull align 8 dereferenceable(32) %s, ptr noundef nonnull @_ZZN7testing8internal31CanonicalizeForStdLibVersioningENSt7__cxx1112basic_stringIcSt11char_traitsIcESaIcEEEE9to_search, i64 noundef 0) #15
  %cmp76 = icmp eq i64 %call65, -1
  br i1 %cmp76, label %while.end, label %if.end9

if.end9:                                          ; preds = %if.end5, %if.end9
  %call67 = phi i64 [ %call6, %if.end9 ], [ %call65, %if.end5 ]
  %call10 = tail call noundef nonnull align 8 dereferenceable(32) ptr @_ZNSt7__cxx1112basic_stringIcSt11char_traitsIcESaIcEE7replaceEmmPKc(ptr noundef nonnull align 8 dereferenceable(32) %s, i64 noundef %call67, i64 noundef 2, ptr noundef nonnull @_ZZN7testing8internal31CanonicalizeForStdLibVersioningENSt7__cxx1112basic_stringIcSt11char_traitsIcESaIcEEEE11replace_str)
  %add = add nuw i64 %call67, 1
  %call6 = tail call noundef i64 @_ZNKSt7__cxx1112basic_stringIcSt11char_traitsIcESaIcEE4findEPKcm(ptr noundef nonnull align 8 dereferenceable(32) %s, ptr noundef nonnull @_ZZN7testing8internal31CanonicalizeForStdLibVersioningENSt7__cxx1112basic_stringIcSt11char_traitsIcESaIcEEEE9to_search, i64 noundef %add) #15
  %cmp7 = icmp eq i64 %call6, -1
  br i1 %cmp7, label %while.end, label %if.end9, !llvm.loop !55

while.end:                                        ; preds = %if.end9, %if.end5
  tail call void @_ZNSt7__cxx1112basic_stringIcSt11char_traitsIcESaIcEEC1EOS4_(ptr noundef nonnull align 8 dereferenceable(32) %agg.result, ptr noundef nonnull align 8 dereferenceable(32) %s) #15
  ret void
}

declare noundef i32 @_ZNKSt7__cxx1112basic_stringIcSt11char_traitsIcESaIcEE7compareEmmPKc(ptr noundef nonnull align 8 dereferenceable(32), i64 noundef, i64 noundef, ptr noundef) local_unnamed_addr #0

; Function Attrs: nounwind
declare noundef i64 @_ZNKSt7__cxx1112basic_stringIcSt11char_traitsIcESaIcEE4findEPKcm(ptr noundef nonnull align 8 dereferenceable(32), ptr noundef, i64 noundef) local_unnamed_addr #1

declare noundef nonnull align 8 dereferenceable(32) ptr @_ZNSt7__cxx1112basic_stringIcSt11char_traitsIcESaIcEE5eraseEmm(ptr noundef nonnull align 8 dereferenceable(32), i64 noundef, i64 noundef) local_unnamed_addr #0

declare noundef nonnull align 8 dereferenceable(32) ptr @_ZNSt7__cxx1112basic_stringIcSt11char_traitsIcESaIcEE7replaceEmmPKc(ptr noundef nonnull align 8 dereferenceable(32), i64 noundef, i64 noundef, ptr noundef) local_unnamed_addr #0

; Function Attrs: nounwind
declare void @_ZNSt7__cxx1112basic_stringIcSt11char_traitsIcESaIcEEC1EOS4_(ptr noundef nonnull align 8 dereferenceable(32), ptr noundef nonnull align 8 dereferenceable(32)) unnamed_addr #1

; Function Attrs: nounwind
declare noundef i64 @_ZNKSt7__cxx1112basic_stringIcSt11char_traitsIcESaIcEE6lengthEv(ptr noundef nonnull align 8 dereferenceable(32)) local_unnamed_addr #1

; Function Attrs: nounwind
declare noundef i64 @_ZNKSt7__cxx1112basic_stringIcSt11char_traitsIcESaIcEE13find_first_ofEPKcm(ptr noundef nonnull align 8 dereferenceable(32), ptr noundef, i64 noundef) local_unnamed_addr #1

; Function Attrs: nounwind
declare noundef zeroext i1 @_ZNKSt7__cxx1112basic_stringIcSt11char_traitsIcESaIcEE5emptyEv(ptr noundef nonnull align 8 dereferenceable(32)) local_unnamed_addr #1

; Function Attrs: mustprogress nounwind uwtable
define linkonce_odr dso_local void @_ZN7testing7MatcherIRKSt10unique_ptrIiSt14default_deleteIiEEED0Ev(ptr noundef nonnull align 8 dereferenceable(24) %this) unnamed_addr #7 comdat align 2 personality ptr @__gxx_personality_v0 {
entry:
  store ptr getelementptr inbounds ({ [6 x ptr] }, ptr @_ZTVN7testing8internal11MatcherBaseIRKSt10unique_ptrIiSt14default_deleteIiEEEE, i64 0, inrange i32 0, i64 2), ptr %this, align 8
  %vtable_.i.i.i.i = getelementptr inbounds %"class.testing::internal::MatcherBase", ptr %this, i64 0, i32 1
  %0 = load ptr, ptr %vtable_.i.i.i.i, align 8
  %cmp.not.i.i.i.i = icmp eq ptr %0, null
  br i1 %cmp.not.i.i.i.i, label %_ZN7testing7MatcherIRKSt10unique_ptrIiSt14default_deleteIiEEED2Ev.exit, label %_ZNK7testing8internal11MatcherBaseIRKSt10unique_ptrIiSt14default_deleteIiEEE8IsSharedEv.exit.i.i.i

_ZNK7testing8internal11MatcherBaseIRKSt10unique_ptrIiSt14default_deleteIiEEE8IsSharedEv.exit.i.i.i: ; preds = %entry
  %shared_destroy.i.i.i.i = getelementptr inbounds %"struct.testing::internal::MatcherBase<const std::unique_ptr<int> &>::VTable", ptr %0, i64 0, i32 3
  %1 = load ptr, ptr %shared_destroy.i.i.i.i, align 8
  %cmp3.i.not.i.i.i = icmp eq ptr %1, null
  br i1 %cmp3.i.not.i.i.i, label %_ZN7testing7MatcherIRKSt10unique_ptrIiSt14default_deleteIiEEED2Ev.exit, label %land.lhs.true.i.i.i

land.lhs.true.i.i.i:                              ; preds = %_ZNK7testing8internal11MatcherBaseIRKSt10unique_ptrIiSt14default_deleteIiEEE8IsSharedEv.exit.i.i.i
  %buffer_.i.i.i = getelementptr inbounds %"class.testing::internal::MatcherBase", ptr %this, i64 0, i32 2
  %2 = load ptr, ptr %buffer_.i.i.i, align 8
  %3 = atomicrmw sub ptr %2, i32 1 acq_rel, align 4
  %cmp.i.i.i.i = icmp eq i32 %3, 1
  br i1 %cmp.i.i.i.i, label %if.then.i.i.i, label %_ZN7testing7MatcherIRKSt10unique_ptrIiSt14default_deleteIiEEED2Ev.exit

if.then.i.i.i:                                    ; preds = %land.lhs.true.i.i.i
  %4 = load ptr, ptr %vtable_.i.i.i.i, align 8
  %shared_destroy.i.i.i = getelementptr inbounds %"struct.testing::internal::MatcherBase<const std::unique_ptr<int> &>::VTable", ptr %4, i64 0, i32 3
  %5 = load ptr, ptr %shared_destroy.i.i.i, align 8
  %6 = load ptr, ptr %buffer_.i.i.i, align 8
  invoke void %5(ptr noundef %6)
          to label %_ZN7testing7MatcherIRKSt10unique_ptrIiSt14default_deleteIiEEED2Ev.exit unwind label %terminate.lpad.i.i

terminate.lpad.i.i:                               ; preds = %if.then.i.i.i
  %7 = landingpad { ptr, i32 }
          catch ptr null
  %8 = extractvalue { ptr, i32 } %7, 0
  tail call void @__clang_call_terminate(ptr %8) #18
  unreachable

_ZN7testing7MatcherIRKSt10unique_ptrIiSt14default_deleteIiEEED2Ev.exit: ; preds = %entry, %_ZNK7testing8internal11MatcherBaseIRKSt10unique_ptrIiSt14default_deleteIiEEE8IsSharedEv.exit.i.i.i, %land.lhs.true.i.i.i, %if.then.i.i.i
  tail call void @_ZdlPv(ptr noundef nonnull %this) #16
  ret void
}

; Function Attrs: mustprogress uwtable
define linkonce_odr dso_local void @_ZNK7testing8internal11MatcherBaseIRKSt10unique_ptrIiSt14default_deleteIiEEE18DescribeNegationToEPSo(ptr noundef nonnull align 8 dereferenceable(24) %this, ptr noundef %os) unnamed_addr #3 comdat align 2 personality ptr @__gxx_personality_v0 {
entry:
  %ref.tmp = alloca %"class.testing::internal::GTestLog", align 4
  %vtable_ = getelementptr inbounds %"class.testing::internal::MatcherBase", ptr %this, i64 0, i32 1
  %0 = load ptr, ptr %vtable_, align 8
  %cmp = icmp ne ptr %0, null
  %call = tail call noundef zeroext i1 @_ZN7testing8internal6IsTrueEb(i1 noundef zeroext %cmp)
  br i1 %call, label %if.end, label %if.else

if.else:                                          ; preds = %entry
  call void @_ZN7testing8internal8GTestLogC1ENS0_16GTestLogSeverityEPKci(ptr noundef nonnull align 4 dereferenceable(4) %ref.tmp, i32 noundef 3, ptr noundef nonnull @.str.74, i32 noundef 251)
  %call3 = invoke noundef nonnull align 8 dereferenceable(8) ptr @_ZStlsISt11char_traitsIcEERSt13basic_ostreamIcT_ES5_PKc(ptr noundef nonnull align 8 dereferenceable(8) @_ZSt4cerr, ptr noundef nonnull @.str.75)
          to label %invoke.cont unwind label %lpad

invoke.cont:                                      ; preds = %if.else
  call void @_ZN7testing8internal8GTestLogD1Ev(ptr noundef nonnull align 4 dereferenceable(4) %ref.tmp) #15
  br label %if.end

lpad:                                             ; preds = %if.else
  %1 = landingpad { ptr, i32 }
          cleanup
  call void @_ZN7testing8internal8GTestLogD1Ev(ptr noundef nonnull align 4 dereferenceable(4) %ref.tmp) #15
  resume { ptr, i32 } %1

if.end:                                           ; preds = %entry, %invoke.cont
  %2 = load ptr, ptr %vtable_, align 8
  %describe = getelementptr inbounds %"struct.testing::internal::MatcherBase<const std::unique_ptr<int> &>::VTable", ptr %2, i64 0, i32 1
  %3 = load ptr, ptr %describe, align 8
  call void %3(ptr noundef nonnull align 8 dereferenceable(24) %this, ptr noundef %os, i1 noundef zeroext true)
  ret void
}

; Function Attrs: mustprogress nounwind uwtable
define linkonce_odr dso_local void @_ZN7testing8internal11MatcherBaseIRKSt10unique_ptrIiSt14default_deleteIiEEED2Ev(ptr noundef nonnull align 8 dereferenceable(24) %this) unnamed_addr #7 comdat align 2 personality ptr @__gxx_personality_v0 {
entry:
  store ptr getelementptr inbounds ({ [6 x ptr] }, ptr @_ZTVN7testing8internal11MatcherBaseIRKSt10unique_ptrIiSt14default_deleteIiEEEE, i64 0, inrange i32 0, i64 2), ptr %this, align 8
  %vtable_.i.i = getelementptr inbounds %"class.testing::internal::MatcherBase", ptr %this, i64 0, i32 1
  %0 = load ptr, ptr %vtable_.i.i, align 8
  %cmp.not.i.i = icmp eq ptr %0, null
  br i1 %cmp.not.i.i, label %invoke.cont, label %_ZNK7testing8internal11MatcherBaseIRKSt10unique_ptrIiSt14default_deleteIiEEE8IsSharedEv.exit.i

_ZNK7testing8internal11MatcherBaseIRKSt10unique_ptrIiSt14default_deleteIiEEE8IsSharedEv.exit.i: ; preds = %entry
  %shared_destroy.i.i = getelementptr inbounds %"struct.testing::internal::MatcherBase<const std::unique_ptr<int> &>::VTable", ptr %0, i64 0, i32 3
  %1 = load ptr, ptr %shared_destroy.i.i, align 8
  %cmp3.i.not.i = icmp eq ptr %1, null
  br i1 %cmp3.i.not.i, label %invoke.cont, label %land.lhs.true.i

land.lhs.true.i:                                  ; preds = %_ZNK7testing8internal11MatcherBaseIRKSt10unique_ptrIiSt14default_deleteIiEEE8IsSharedEv.exit.i
  %buffer_.i = getelementptr inbounds %"class.testing::internal::MatcherBase", ptr %this, i64 0, i32 2
  %2 = load ptr, ptr %buffer_.i, align 8
  %3 = atomicrmw sub ptr %2, i32 1 acq_rel, align 4
  %cmp.i.i = icmp eq i32 %3, 1
  br i1 %cmp.i.i, label %if.then.i, label %invoke.cont

if.then.i:                                        ; preds = %land.lhs.true.i
  %4 = load ptr, ptr %vtable_.i.i, align 8
  %shared_destroy.i = getelementptr inbounds %"struct.testing::internal::MatcherBase<const std::unique_ptr<int> &>::VTable", ptr %4, i64 0, i32 3
  %5 = load ptr, ptr %shared_destroy.i, align 8
  %6 = load ptr, ptr %buffer_.i, align 8
  invoke void %5(ptr noundef %6)
          to label %invoke.cont unwind label %terminate.lpad

invoke.cont:                                      ; preds = %land.lhs.true.i, %_ZNK7testing8internal11MatcherBaseIRKSt10unique_ptrIiSt14default_deleteIiEEE8IsSharedEv.exit.i, %entry, %if.then.i
  ret void

terminate.lpad:                                   ; preds = %if.then.i
  %7 = landingpad { ptr, i32 }
          catch ptr null
  %8 = extractvalue { ptr, i32 } %7, 0
  tail call void @__clang_call_terminate(ptr %8) #18
  unreachable
}

; Function Attrs: mustprogress nounwind uwtable
define linkonce_odr dso_local void @_ZN7testing8internal11MatcherBaseIRKSt10unique_ptrIiSt14default_deleteIiEEED0Ev(ptr noundef nonnull align 8 dereferenceable(24) %this) unnamed_addr #7 comdat align 2 personality ptr @__gxx_personality_v0 {
entry:
  store ptr getelementptr inbounds ({ [6 x ptr] }, ptr @_ZTVN7testing8internal11MatcherBaseIRKSt10unique_ptrIiSt14default_deleteIiEEEE, i64 0, inrange i32 0, i64 2), ptr %this, align 8
  %vtable_.i.i.i = getelementptr inbounds %"class.testing::internal::MatcherBase", ptr %this, i64 0, i32 1
  %0 = load ptr, ptr %vtable_.i.i.i, align 8
  %cmp.not.i.i.i = icmp eq ptr %0, null
  br i1 %cmp.not.i.i.i, label %_ZN7testing8internal11MatcherBaseIRKSt10unique_ptrIiSt14default_deleteIiEEED2Ev.exit, label %_ZNK7testing8internal11MatcherBaseIRKSt10unique_ptrIiSt14default_deleteIiEEE8IsSharedEv.exit.i.i

_ZNK7testing8internal11MatcherBaseIRKSt10unique_ptrIiSt14default_deleteIiEEE8IsSharedEv.exit.i.i: ; preds = %entry
  %shared_destroy.i.i.i = getelementptr inbounds %"struct.testing::internal::MatcherBase<const std::unique_ptr<int> &>::VTable", ptr %0, i64 0, i32 3
  %1 = load ptr, ptr %shared_destroy.i.i.i, align 8
  %cmp3.i.not.i.i = icmp eq ptr %1, null
  br i1 %cmp3.i.not.i.i, label %_ZN7testing8internal11MatcherBaseIRKSt10unique_ptrIiSt14default_deleteIiEEED2Ev.exit, label %land.lhs.true.i.i

land.lhs.true.i.i:                                ; preds = %_ZNK7testing8internal11MatcherBaseIRKSt10unique_ptrIiSt14default_deleteIiEEE8IsSharedEv.exit.i.i
  %buffer_.i.i = getelementptr inbounds %"class.testing::internal::MatcherBase", ptr %this, i64 0, i32 2
  %2 = load ptr, ptr %buffer_.i.i, align 8
  %3 = atomicrmw sub ptr %2, i32 1 acq_rel, align 4
  %cmp.i.i.i = icmp eq i32 %3, 1
  br i1 %cmp.i.i.i, label %if.then.i.i, label %_ZN7testing8internal11MatcherBaseIRKSt10unique_ptrIiSt14default_deleteIiEEED2Ev.exit

if.then.i.i:                                      ; preds = %land.lhs.true.i.i
  %4 = load ptr, ptr %vtable_.i.i.i, align 8
  %shared_destroy.i.i = getelementptr inbounds %"struct.testing::internal::MatcherBase<const std::unique_ptr<int> &>::VTable", ptr %4, i64 0, i32 3
  %5 = load ptr, ptr %shared_destroy.i.i, align 8
  %6 = load ptr, ptr %buffer_.i.i, align 8
  invoke void %5(ptr noundef %6)
          to label %_ZN7testing8internal11MatcherBaseIRKSt10unique_ptrIiSt14default_deleteIiEEED2Ev.exit unwind label %terminate.lpad.i

terminate.lpad.i:                                 ; preds = %if.then.i.i
  %7 = landingpad { ptr, i32 }
          catch ptr null
  %8 = extractvalue { ptr, i32 } %7, 0
  tail call void @__clang_call_terminate(ptr %8) #18
  unreachable

_ZN7testing8internal11MatcherBaseIRKSt10unique_ptrIiSt14default_deleteIiEEED2Ev.exit: ; preds = %entry, %_ZNK7testing8internal11MatcherBaseIRKSt10unique_ptrIiSt14default_deleteIiEEE8IsSharedEv.exit.i.i, %land.lhs.true.i.i, %if.then.i.i
  tail call void @_ZdlPv(ptr noundef nonnull %this) #16
  ret void
}

; Function Attrs: mustprogress uwtable
define linkonce_odr dso_local noundef zeroext i1 @_ZN7testing8internal11MatcherBaseIRKSt10unique_ptrIiSt14default_deleteIiEEE19MatchAndExplainImplINS8_11ValuePolicyIPKNS_16MatcherInterfaceIS7_EELb1EEEEEDTcldtclsrT_3Getfp_E15MatchAndExplainfp0_fp1_EERKS8_S7_PNS_19MatchResultListenerE(ptr noundef nonnull align 8 dereferenceable(24) %m, ptr noundef nonnull align 8 dereferenceable(8) %value, ptr noundef %listener) #3 comdat align 2 {
entry:
  %buffer_.i = getelementptr inbounds %"class.testing::internal::MatcherBase", ptr %m, i64 0, i32 2
  %0 = load ptr, ptr %buffer_.i, align 8
  %value.i = getelementptr inbounds %"struct.testing::internal::SharedPayload", ptr %0, i64 0, i32 1
  %1 = load ptr, ptr %value.i, align 8
  %vtable = load ptr, ptr %1, align 8
  %vfn = getelementptr inbounds ptr, ptr %vtable, i64 4
  %2 = load ptr, ptr %vfn, align 8
  %call1 = tail call noundef zeroext i1 %2(ptr noundef nonnull align 8 dereferenceable(8) %1, ptr noundef nonnull align 8 dereferenceable(8) %value, ptr noundef %listener)
  ret i1 %call1
}

; Function Attrs: mustprogress uwtable
define linkonce_odr dso_local void @_ZN7testing8internal11MatcherBaseIRKSt10unique_ptrIiSt14default_deleteIiEEE12DescribeImplINS8_11ValuePolicyIPKNS_16MatcherInterfaceIS7_EELb1EEEEEvRKS8_PSob(ptr noundef nonnull align 8 dereferenceable(24) %m, ptr noundef %os, i1 noundef zeroext %negation) #3 comdat align 2 {
entry:
  %buffer_.i = getelementptr inbounds %"class.testing::internal::MatcherBase", ptr %m, i64 0, i32 2
  %0 = load ptr, ptr %buffer_.i, align 8
  %value.i = getelementptr inbounds %"struct.testing::internal::SharedPayload", ptr %0, i64 0, i32 1
  %1 = load ptr, ptr %value.i, align 8
  %vtable = load ptr, ptr %1, align 8
  %. = select i1 %negation, i64 3, i64 2
  %vfn3 = getelementptr inbounds ptr, ptr %vtable, i64 %.
  %2 = load ptr, ptr %vfn3, align 8
  tail call void %2(ptr noundef nonnull align 8 dereferenceable(8) %1, ptr noundef %os)
  ret void
}

; Function Attrs: mustprogress uwtable
define linkonce_odr dso_local noundef ptr @_ZN7testing8internal11MatcherBaseIRKSt10unique_ptrIiSt14default_deleteIiEEE16GetDescriberImplINS8_11ValuePolicyIPKNS_16MatcherInterfaceIS7_EELb1EEEEEPKNS_25MatcherDescriberInterfaceERKS8_(ptr noundef nonnull align 8 dereferenceable(24) %m) #3 comdat align 2 personality ptr @__gxx_personality_v0 {
entry:
  %buffer_.i = getelementptr inbounds %"class.testing::internal::MatcherBase", ptr %m, i64 0, i32 2
  %0 = load ptr, ptr %buffer_.i, align 8
  %value.i = getelementptr inbounds %"struct.testing::internal::SharedPayload", ptr %0, i64 0, i32 1
  %1 = load ptr, ptr %value.i, align 8
  ret ptr %1
}

; Function Attrs: mustprogress nounwind uwtable
define linkonce_odr dso_local void @_ZN7testing8internal13SharedPayloadISt10unique_ptrIKNS_16MatcherInterfaceIRKS2_IiSt14default_deleteIiEEEES4_ISA_EEE7DestroyEPNS0_17SharedPayloadBaseE(ptr noundef %shared) #7 comdat align 2 personality ptr @__gxx_personality_v0 {
entry:
  %isnull = icmp eq ptr %shared, null
  br i1 %isnull, label %delete.end, label %delete.notnull

delete.notnull:                                   ; preds = %entry
  %value.i = getelementptr inbounds %"struct.testing::internal::SharedPayload", ptr %shared, i64 0, i32 1
  %0 = load ptr, ptr %value.i, align 8
  %cmp.not.i.i = icmp eq ptr %0, null
  br i1 %cmp.not.i.i, label %_ZN7testing8internal13SharedPayloadISt10unique_ptrIKNS_16MatcherInterfaceIRKS2_IiSt14default_deleteIiEEEES4_ISA_EEED2Ev.exit, label %_ZNKSt14default_deleteIKN7testing16MatcherInterfaceIRKSt10unique_ptrIiS_IiEEEEEclEPS8_.exit.i.i

_ZNKSt14default_deleteIKN7testing16MatcherInterfaceIRKSt10unique_ptrIiS_IiEEEEEclEPS8_.exit.i.i: ; preds = %delete.notnull
  %vtable.i.i.i = load ptr, ptr %0, align 8
  %vfn.i.i.i = getelementptr inbounds ptr, ptr %vtable.i.i.i, i64 1
  %1 = load ptr, ptr %vfn.i.i.i, align 8
  tail call void %1(ptr noundef nonnull align 8 dereferenceable(8) %0) #15
  br label %_ZN7testing8internal13SharedPayloadISt10unique_ptrIKNS_16MatcherInterfaceIRKS2_IiSt14default_deleteIiEEEES4_ISA_EEED2Ev.exit

_ZN7testing8internal13SharedPayloadISt10unique_ptrIKNS_16MatcherInterfaceIRKS2_IiSt14default_deleteIiEEEES4_ISA_EEED2Ev.exit: ; preds = %delete.notnull, %_ZNKSt14default_deleteIKN7testing16MatcherInterfaceIRKSt10unique_ptrIiS_IiEEEEEclEPS8_.exit.i.i
  tail call void @_ZdlPv(ptr noundef nonnull %shared) #16
  br label %delete.end

delete.end:                                       ; preds = %_ZN7testing8internal13SharedPayloadISt10unique_ptrIKNS_16MatcherInterfaceIRKS2_IiSt14default_deleteIiEEEES4_ISA_EEED2Ev.exit, %entry
  ret void
}

; Function Attrs: mustprogress nounwind uwtable
define linkonce_odr dso_local void @_ZN7testing25StringMatchResultListenerD0Ev(ptr noundef nonnull align 8 dereferenceable(408) %this) unnamed_addr #7 comdat align 2 {
entry:
  store ptr getelementptr inbounds ({ [4 x ptr] }, ptr @_ZTVN7testing25StringMatchResultListenerE, i64 0, inrange i32 0, i64 2), ptr %this, align 8
  %ss_.i = getelementptr inbounds %"class.testing::StringMatchResultListener", ptr %this, i64 0, i32 1
  tail call void @_ZNSt7__cxx1118basic_stringstreamIcSt11char_traitsIcESaIcEED1Ev(ptr noundef nonnull align 8 dereferenceable(128) %ss_.i) #15
  tail call void @_ZdlPv(ptr noundef nonnull %this) #16
  ret void
}

declare noundef nonnull align 8 dereferenceable(8) ptr @_ZNSolsEPKv(ptr noundef nonnull align 8 dereferenceable(8), ptr noundef) local_unnamed_addr #0

; Function Attrs: mustprogress uwtable
define linkonce_odr dso_local void @_ZN7testing15AssertionResult13AppendMessageERKNS_7MessageE(ptr noundef nonnull align 8 dereferenceable(16) %this, ptr noundef nonnull align 8 dereferenceable(8) %a_message) local_unnamed_addr #3 comdat align 2 personality ptr @__gxx_personality_v0 {
entry:
  %ref.tmp6 = alloca %"class.std::__cxx11::basic_string", align 8
  %message_ = getelementptr inbounds %"class.testing::AssertionResult", ptr %this, i64 0, i32 1
  %0 = load ptr, ptr %message_, align 8
  %cmp.i.not.i = icmp eq ptr %0, null
  br i1 %cmp.i.not.i, label %if.then, label %if.end

if.then:                                          ; preds = %entry
  %call.i = tail call noalias noundef nonnull dereferenceable(32) ptr @_Znwm(i64 noundef 32) #17, !noalias !57
  tail call void @_ZNSt7__cxx1112basic_stringIcSt11char_traitsIcESaIcEEC1Ev(ptr noundef nonnull align 8 dereferenceable(32) %call.i) #15, !noalias !57
  %1 = load ptr, ptr %message_, align 8
  store ptr %call.i, ptr %message_, align 8
  %tobool.not.i.i.i.i = icmp eq ptr %1, null
  br i1 %tobool.not.i.i.i.i, label %if.end, label %_ZNKSt14default_deleteINSt7__cxx1112basic_stringIcSt11char_traitsIcESaIcEEEEclEPS5_.exit.i.i.i.i

_ZNKSt14default_deleteINSt7__cxx1112basic_stringIcSt11char_traitsIcESaIcEEEEclEPS5_.exit.i.i.i.i: ; preds = %if.then
  tail call void @_ZNSt7__cxx1112basic_stringIcSt11char_traitsIcESaIcEED1Ev(ptr noundef nonnull align 8 dereferenceable(32) %1) #15
  tail call void @_ZdlPv(ptr noundef nonnull %1) #16
  %.pre = load ptr, ptr %message_, align 8
  br label %if.end

if.end:                                           ; preds = %if.then, %_ZNKSt14default_deleteINSt7__cxx1112basic_stringIcSt11char_traitsIcESaIcEEEEclEPS5_.exit.i.i.i.i, %entry
  %2 = phi ptr [ %call.i, %if.then ], [ %.pre, %_ZNKSt14default_deleteINSt7__cxx1112basic_stringIcSt11char_traitsIcESaIcEEEEclEPS5_.exit.i.i.i.i ], [ %0, %entry ]
  call void @_ZNK7testing7Message9GetStringB5cxx11Ev(ptr nonnull sret(%"class.std::__cxx11::basic_string") align 8 %ref.tmp6, ptr noundef nonnull align 8 dereferenceable(8) %a_message)
  %call7 = call noundef ptr @_ZNKSt7__cxx1112basic_stringIcSt11char_traitsIcESaIcEE5c_strEv(ptr noundef nonnull align 8 dereferenceable(32) %ref.tmp6) #15
  %call8 = invoke noundef nonnull align 8 dereferenceable(32) ptr @_ZNSt7__cxx1112basic_stringIcSt11char_traitsIcESaIcEE6appendEPKc(ptr noundef nonnull align 8 dereferenceable(32) %2, ptr noundef %call7)
          to label %invoke.cont unwind label %lpad

invoke.cont:                                      ; preds = %if.end
  call void @_ZNSt7__cxx1112basic_stringIcSt11char_traitsIcESaIcEED1Ev(ptr noundef nonnull align 8 dereferenceable(32) %ref.tmp6) #15
  ret void

lpad:                                             ; preds = %if.end
  %3 = landingpad { ptr, i32 }
          cleanup
  call void @_ZNSt7__cxx1112basic_stringIcSt11char_traitsIcESaIcEED1Ev(ptr noundef nonnull align 8 dereferenceable(32) %ref.tmp6) #15
  resume { ptr, i32 } %3
}

declare noundef nonnull align 8 dereferenceable(32) ptr @_ZNSt7__cxx1112basic_stringIcSt11char_traitsIcESaIcEE6appendEPKc(ptr noundef nonnull align 8 dereferenceable(32), ptr noundef) local_unnamed_addr #0

declare void @_ZNK7testing7Message9GetStringB5cxx11Ev(ptr sret(%"class.std::__cxx11::basic_string") align 8, ptr noundef nonnull align 8 dereferenceable(8)) local_unnamed_addr #0

; Function Attrs: nounwind
declare void @_ZNSt7__cxx1112basic_stringIcSt11char_traitsIcESaIcEEC1Ev(ptr noundef nonnull align 8 dereferenceable(32)) unnamed_addr #1

; Function Attrs: mustprogress nofree norecurse nosync nounwind willreturn memory(none) uwtable
define internal void @_ZN7testing8internal15TestFactoryImplIN4absl13base_internal12_GLOBAL__N_126InvokeTest_VoidResult_TestEED2Ev(ptr nocapture nonnull readnone align 8 %this) unnamed_addr #6 align 2 {
entry:
  ret void
}

; Function Attrs: mustprogress nounwind uwtable
define internal void @_ZN7testing8internal15TestFactoryImplIN4absl13base_internal12_GLOBAL__N_126InvokeTest_VoidResult_TestEED0Ev(ptr noundef nonnull align 8 dereferenceable(8) %this) unnamed_addr #7 align 2 {
entry:
  tail call void @_ZdlPv(ptr noundef nonnull %this) #16
  ret void
}

; Function Attrs: mustprogress uwtable
define internal noundef nonnull ptr @_ZN7testing8internal15TestFactoryImplIN4absl13base_internal12_GLOBAL__N_126InvokeTest_VoidResult_TestEE10CreateTestEv(ptr nocapture nonnull readnone align 8 %this) unnamed_addr #3 align 2 personality ptr @__gxx_personality_v0 {
entry:
  %call = tail call noalias noundef nonnull dereferenceable(16) ptr @_Znwm(i64 noundef 16) #17
  invoke void @_ZN7testing4TestC2Ev(ptr noundef nonnull align 8 dereferenceable(16) %call)
          to label %invoke.cont unwind label %lpad

invoke.cont:                                      ; preds = %entry
  store ptr getelementptr inbounds ({ [8 x ptr] }, ptr @_ZTVN4absl13base_internal12_GLOBAL__N_126InvokeTest_VoidResult_TestE, i64 0, inrange i32 0, i64 2), ptr %call, align 8
  ret ptr %call

lpad:                                             ; preds = %entry
  %0 = landingpad { ptr, i32 }
          cleanup
  tail call void @_ZdlPv(ptr noundef nonnull %call) #16
  resume { ptr, i32 } %0
}

; Function Attrs: mustprogress nounwind uwtable
define internal void @_ZN4absl13base_internal12_GLOBAL__N_126InvokeTest_VoidResult_TestD2Ev(ptr noundef nonnull align 8 dereferenceable(16) %this) unnamed_addr #7 align 2 {
entry:
  tail call void @_ZN7testing4TestD2Ev(ptr noundef nonnull align 8 dereferenceable(16) %this) #15
  ret void
}

; Function Attrs: mustprogress nounwind uwtable
define internal void @_ZN4absl13base_internal12_GLOBAL__N_126InvokeTest_VoidResult_TestD0Ev(ptr noundef nonnull align 8 dereferenceable(16) %this) unnamed_addr #7 align 2 {
entry:
  tail call void @_ZN7testing4TestD2Ev(ptr noundef nonnull align 8 dereferenceable(16) %this) #15
  tail call void @_ZdlPv(ptr noundef nonnull %this) #16
  ret void
}

; Function Attrs: mustprogress nofree norecurse nosync nounwind willreturn memory(none) uwtable
define internal void @_ZN4absl13base_internal12_GLOBAL__N_126InvokeTest_VoidResult_Test8TestBodyEv(ptr nocapture nonnull readnone align 8 %this) unnamed_addr #6 align 2 {
entry:
  ret void
}

; Function Attrs: mustprogress nofree norecurse nosync nounwind willreturn memory(none) uwtable
define internal void @_ZN7testing8internal15TestFactoryImplIN4absl13base_internal12_GLOBAL__N_128InvokeTest_ConstFunctor_TestEED2Ev(ptr nocapture nonnull readnone align 8 %this) unnamed_addr #6 align 2 {
entry:
  ret void
}

; Function Attrs: mustprogress nounwind uwtable
define internal void @_ZN7testing8internal15TestFactoryImplIN4absl13base_internal12_GLOBAL__N_128InvokeTest_ConstFunctor_TestEED0Ev(ptr noundef nonnull align 8 dereferenceable(8) %this) unnamed_addr #7 align 2 {
entry:
  tail call void @_ZdlPv(ptr noundef nonnull %this) #16
  ret void
}

; Function Attrs: mustprogress uwtable
define internal noundef nonnull ptr @_ZN7testing8internal15TestFactoryImplIN4absl13base_internal12_GLOBAL__N_128InvokeTest_ConstFunctor_TestEE10CreateTestEv(ptr nocapture nonnull readnone align 8 %this) unnamed_addr #3 align 2 personality ptr @__gxx_personality_v0 {
entry:
  %call = tail call noalias noundef nonnull dereferenceable(16) ptr @_Znwm(i64 noundef 16) #17
  invoke void @_ZN7testing4TestC2Ev(ptr noundef nonnull align 8 dereferenceable(16) %call)
          to label %invoke.cont unwind label %lpad

invoke.cont:                                      ; preds = %entry
  store ptr getelementptr inbounds ({ [8 x ptr] }, ptr @_ZTVN4absl13base_internal12_GLOBAL__N_128InvokeTest_ConstFunctor_TestE, i64 0, inrange i32 0, i64 2), ptr %call, align 8
  ret ptr %call

lpad:                                             ; preds = %entry
  %0 = landingpad { ptr, i32 }
          cleanup
  tail call void @_ZdlPv(ptr noundef nonnull %call) #16
  resume { ptr, i32 } %0
}

; Function Attrs: mustprogress nounwind uwtable
define internal void @_ZN4absl13base_internal12_GLOBAL__N_128InvokeTest_ConstFunctor_TestD2Ev(ptr noundef nonnull align 8 dereferenceable(16) %this) unnamed_addr #7 align 2 {
entry:
  tail call void @_ZN7testing4TestD2Ev(ptr noundef nonnull align 8 dereferenceable(16) %this) #15
  ret void
}

; Function Attrs: mustprogress nounwind uwtable
define internal void @_ZN4absl13base_internal12_GLOBAL__N_128InvokeTest_ConstFunctor_TestD0Ev(ptr noundef nonnull align 8 dereferenceable(16) %this) unnamed_addr #7 align 2 {
entry:
  tail call void @_ZN7testing4TestD2Ev(ptr noundef nonnull align 8 dereferenceable(16) %this) #15
  tail call void @_ZdlPv(ptr noundef nonnull %this) #16
  ret void
}

; Function Attrs: mustprogress uwtable
define internal void @_ZN4absl13base_internal12_GLOBAL__N_128InvokeTest_ConstFunctor_Test8TestBodyEv(ptr nocapture nonnull readnone align 8 %this) unnamed_addr #3 align 2 personality ptr @__gxx_personality_v0 {
_ZN7testing8internal8EqHelper7CompareIiiTnPNSt9enable_ifIXoontsr3std11is_integralIT_EE5valuentsr3std10is_pointerIT0_EE5valueEvE4typeELPv0EEENS_15AssertionResultEPKcSC_RKS4_RKS5_.exit:
  %gtest_ar = alloca %"class.testing::AssertionResult", align 8
  %ref.tmp7 = alloca %"class.testing::Message", align 8
  %ref.tmp8 = alloca %"class.testing::internal::AssertHelper", align 8
  call void @_ZN7testing16AssertionSuccessEv(ptr nonnull sret(%"class.testing::AssertionResult") align 8 %gtest_ar)
  %0 = load i8, ptr %gtest_ar, align 8
  %1 = and i8 %0, 1
  %tobool.i.not = icmp eq i8 %1, 0
  br i1 %tobool.i.not, label %if.else, label %if.end

if.else:                                          ; preds = %_ZN7testing8internal8EqHelper7CompareIiiTnPNSt9enable_ifIXoontsr3std11is_integralIT_EE5valuentsr3std10is_pointerIT0_EE5valueEvE4typeELPv0EEENS_15AssertionResultEPKcSC_RKS4_RKS5_.exit
  invoke void @_ZN7testing7MessageC1Ev(ptr noundef nonnull align 8 dereferenceable(8) %ref.tmp7)
          to label %invoke.cont unwind label %lpad

invoke.cont:                                      ; preds = %if.else
  %message_.i.i = getelementptr inbounds %"class.testing::AssertionResult", ptr %gtest_ar, i64 0, i32 1
  %2 = load ptr, ptr %message_.i.i, align 8
  %cmp.i.i.not.i.i = icmp eq ptr %2, null
  br i1 %cmp.i.i.not.i.i, label %invoke.cont10, label %cond.true.i.i

cond.true.i.i:                                    ; preds = %invoke.cont
  %call4.i.i = call noundef ptr @_ZNKSt7__cxx1112basic_stringIcSt11char_traitsIcESaIcEE5c_strEv(ptr noundef nonnull align 8 dereferenceable(32) %2) #15
  br label %invoke.cont10

invoke.cont10:                                    ; preds = %cond.true.i.i, %invoke.cont
  %cond.i.i = phi ptr [ %call4.i.i, %cond.true.i.i ], [ @.str.60, %invoke.cont ]
  invoke void @_ZN7testing8internal12AssertHelperC1ENS_14TestPartResult4TypeEPKciS5_(ptr noundef nonnull align 8 dereferenceable(8) %ref.tmp8, i32 noundef 1, ptr noundef nonnull @.str.3, i32 noundef 127, ptr noundef %cond.i.i)
          to label %invoke.cont12 unwind label %lpad9

invoke.cont12:                                    ; preds = %invoke.cont10
  invoke void @_ZNK7testing8internal12AssertHelperaSERKNS_7MessageE(ptr noundef nonnull align 8 dereferenceable(8) %ref.tmp8, ptr noundef nonnull align 8 dereferenceable(8) %ref.tmp7)
          to label %invoke.cont14 unwind label %lpad13

invoke.cont14:                                    ; preds = %invoke.cont12
  call void @_ZN7testing8internal12AssertHelperD1Ev(ptr noundef nonnull align 8 dereferenceable(8) %ref.tmp8) #15
  %3 = load ptr, ptr %ref.tmp7, align 8
  %cmp.not.i.i = icmp eq ptr %3, null
  br i1 %cmp.not.i.i, label %_ZN7testing7MessageD2Ev.exit, label %_ZNKSt14default_deleteINSt7__cxx1118basic_stringstreamIcSt11char_traitsIcESaIcEEEEclEPS5_.exit.i.i

_ZNKSt14default_deleteINSt7__cxx1118basic_stringstreamIcSt11char_traitsIcESaIcEEEEclEPS5_.exit.i.i: ; preds = %invoke.cont14
  %vtable.i.i.i = load ptr, ptr %3, align 8
  %vfn.i.i.i = getelementptr inbounds ptr, ptr %vtable.i.i.i, i64 1
  %4 = load ptr, ptr %vfn.i.i.i, align 8
  call void %4(ptr noundef nonnull align 8 dereferenceable(128) %3) #15
  br label %_ZN7testing7MessageD2Ev.exit

_ZN7testing7MessageD2Ev.exit:                     ; preds = %invoke.cont14, %_ZNKSt14default_deleteINSt7__cxx1118basic_stringstreamIcSt11char_traitsIcESaIcEEEEclEPS5_.exit.i.i
  store ptr null, ptr %ref.tmp7, align 8
  br label %if.end

lpad:                                             ; preds = %if.else
  %5 = landingpad { ptr, i32 }
          cleanup
  br label %ehcleanup15

lpad9:                                            ; preds = %invoke.cont10
  %6 = landingpad { ptr, i32 }
          cleanup
  br label %ehcleanup

lpad13:                                           ; preds = %invoke.cont12
  %7 = landingpad { ptr, i32 }
          cleanup
  call void @_ZN7testing8internal12AssertHelperD1Ev(ptr noundef nonnull align 8 dereferenceable(8) %ref.tmp8) #15
  br label %ehcleanup

ehcleanup:                                        ; preds = %lpad13, %lpad9
  %.pn = phi { ptr, i32 } [ %7, %lpad13 ], [ %6, %lpad9 ]
  %8 = load ptr, ptr %ref.tmp7, align 8
  %cmp.not.i.i3 = icmp eq ptr %8, null
  br i1 %cmp.not.i.i3, label %_ZN7testing7MessageD2Ev.exit7, label %_ZNKSt14default_deleteINSt7__cxx1118basic_stringstreamIcSt11char_traitsIcESaIcEEEEclEPS5_.exit.i.i4

_ZNKSt14default_deleteINSt7__cxx1118basic_stringstreamIcSt11char_traitsIcESaIcEEEEclEPS5_.exit.i.i4: ; preds = %ehcleanup
  %vtable.i.i.i5 = load ptr, ptr %8, align 8
  %vfn.i.i.i6 = getelementptr inbounds ptr, ptr %vtable.i.i.i5, i64 1
  %9 = load ptr, ptr %vfn.i.i.i6, align 8
  call void %9(ptr noundef nonnull align 8 dereferenceable(128) %8) #15
  br label %_ZN7testing7MessageD2Ev.exit7

_ZN7testing7MessageD2Ev.exit7:                    ; preds = %ehcleanup, %_ZNKSt14default_deleteINSt7__cxx1118basic_stringstreamIcSt11char_traitsIcESaIcEEEEclEPS5_.exit.i.i4
  store ptr null, ptr %ref.tmp7, align 8
  br label %ehcleanup15

if.end:                                           ; preds = %_ZN7testing8internal8EqHelper7CompareIiiTnPNSt9enable_ifIXoontsr3std11is_integralIT_EE5valuentsr3std10is_pointerIT0_EE5valueEvE4typeELPv0EEENS_15AssertionResultEPKcSC_RKS4_RKS5_.exit, %_ZN7testing7MessageD2Ev.exit
  %message_.i = getelementptr inbounds %"class.testing::AssertionResult", ptr %gtest_ar, i64 0, i32 1
  %10 = load ptr, ptr %message_.i, align 8
  %cmp.not.i.i8 = icmp eq ptr %10, null
  br i1 %cmp.not.i.i8, label %_ZN7testing15AssertionResultD2Ev.exit, label %_ZNKSt14default_deleteINSt7__cxx1112basic_stringIcSt11char_traitsIcESaIcEEEEclEPS5_.exit.i.i

_ZNKSt14default_deleteINSt7__cxx1112basic_stringIcSt11char_traitsIcESaIcEEEEclEPS5_.exit.i.i: ; preds = %if.end
  call void @_ZNSt7__cxx1112basic_stringIcSt11char_traitsIcESaIcEED1Ev(ptr noundef nonnull align 8 dereferenceable(32) %10) #15
  call void @_ZdlPv(ptr noundef nonnull %10) #16
  br label %_ZN7testing15AssertionResultD2Ev.exit

_ZN7testing15AssertionResultD2Ev.exit:            ; preds = %if.end, %_ZNKSt14default_deleteINSt7__cxx1112basic_stringIcSt11char_traitsIcESaIcEEEEclEPS5_.exit.i.i
  ret void

ehcleanup15:                                      ; preds = %_ZN7testing7MessageD2Ev.exit7, %lpad
  %.pn.pn = phi { ptr, i32 } [ %.pn, %_ZN7testing7MessageD2Ev.exit7 ], [ %5, %lpad ]
  call void @_ZN7testing15AssertionResultD2Ev(ptr noundef nonnull align 8 dereferenceable(16) %gtest_ar) #15
  resume { ptr, i32 } %.pn.pn
}

; Function Attrs: mustprogress nofree norecurse nosync nounwind willreturn memory(none) uwtable
define internal void @_ZN7testing8internal15TestFactoryImplIN4absl13base_internal12_GLOBAL__N_130InvokeTest_MutableFunctor_TestEED2Ev(ptr nocapture nonnull readnone align 8 %this) unnamed_addr #6 align 2 {
entry:
  ret void
}

; Function Attrs: mustprogress nounwind uwtable
define internal void @_ZN7testing8internal15TestFactoryImplIN4absl13base_internal12_GLOBAL__N_130InvokeTest_MutableFunctor_TestEED0Ev(ptr noundef nonnull align 8 dereferenceable(8) %this) unnamed_addr #7 align 2 {
entry:
  tail call void @_ZdlPv(ptr noundef nonnull %this) #16
  ret void
}

; Function Attrs: mustprogress uwtable
define internal noundef nonnull ptr @_ZN7testing8internal15TestFactoryImplIN4absl13base_internal12_GLOBAL__N_130InvokeTest_MutableFunctor_TestEE10CreateTestEv(ptr nocapture nonnull readnone align 8 %this) unnamed_addr #3 align 2 personality ptr @__gxx_personality_v0 {
entry:
  %call = tail call noalias noundef nonnull dereferenceable(16) ptr @_Znwm(i64 noundef 16) #17
  invoke void @_ZN7testing4TestC2Ev(ptr noundef nonnull align 8 dereferenceable(16) %call)
          to label %invoke.cont unwind label %lpad

invoke.cont:                                      ; preds = %entry
  store ptr getelementptr inbounds ({ [8 x ptr] }, ptr @_ZTVN4absl13base_internal12_GLOBAL__N_130InvokeTest_MutableFunctor_TestE, i64 0, inrange i32 0, i64 2), ptr %call, align 8
  ret ptr %call

lpad:                                             ; preds = %entry
  %0 = landingpad { ptr, i32 }
          cleanup
  tail call void @_ZdlPv(ptr noundef nonnull %call) #16
  resume { ptr, i32 } %0
}

; Function Attrs: mustprogress nounwind uwtable
define internal void @_ZN4absl13base_internal12_GLOBAL__N_130InvokeTest_MutableFunctor_TestD2Ev(ptr noundef nonnull align 8 dereferenceable(16) %this) unnamed_addr #7 align 2 {
entry:
  tail call void @_ZN7testing4TestD2Ev(ptr noundef nonnull align 8 dereferenceable(16) %this) #15
  ret void
}

; Function Attrs: mustprogress nounwind uwtable
define internal void @_ZN4absl13base_internal12_GLOBAL__N_130InvokeTest_MutableFunctor_TestD0Ev(ptr noundef nonnull align 8 dereferenceable(16) %this) unnamed_addr #7 align 2 {
entry:
  tail call void @_ZN7testing4TestD2Ev(ptr noundef nonnull align 8 dereferenceable(16) %this) #15
  tail call void @_ZdlPv(ptr noundef nonnull %this) #16
  ret void
}

; Function Attrs: mustprogress uwtable
define internal void @_ZN4absl13base_internal12_GLOBAL__N_130InvokeTest_MutableFunctor_Test8TestBodyEv(ptr nocapture nonnull readnone align 8 %this) unnamed_addr #3 align 2 personality ptr @__gxx_personality_v0 {
_ZN7testing8internal8EqHelper7CompareIiiTnPNSt9enable_ifIXoontsr3std11is_integralIT_EE5valuentsr3std10is_pointerIT0_EE5valueEvE4typeELPv0EEENS_15AssertionResultEPKcSC_RKS4_RKS5_.exit:
  %gtest_ar = alloca %"class.testing::AssertionResult", align 8
  %ref.tmp6 = alloca %"class.testing::Message", align 8
  %ref.tmp7 = alloca %"class.testing::internal::AssertHelper", align 8
  %gtest_ar15 = alloca %"class.testing::AssertionResult", align 8
  %ref.tmp25 = alloca %"class.testing::Message", align 8
  %ref.tmp28 = alloca %"class.testing::internal::AssertHelper", align 8
  call void @_ZN7testing16AssertionSuccessEv(ptr nonnull sret(%"class.testing::AssertionResult") align 8 %gtest_ar)
  %0 = load i8, ptr %gtest_ar, align 8
  %1 = and i8 %0, 1
  %tobool.i.not = icmp eq i8 %1, 0
  br i1 %tobool.i.not, label %if.else, label %if.end

if.else:                                          ; preds = %_ZN7testing8internal8EqHelper7CompareIiiTnPNSt9enable_ifIXoontsr3std11is_integralIT_EE5valuentsr3std10is_pointerIT0_EE5valueEvE4typeELPv0EEENS_15AssertionResultEPKcSC_RKS4_RKS5_.exit
  invoke void @_ZN7testing7MessageC1Ev(ptr noundef nonnull align 8 dereferenceable(8) %ref.tmp6)
          to label %invoke.cont unwind label %lpad

invoke.cont:                                      ; preds = %if.else
  %message_.i.i = getelementptr inbounds %"class.testing::AssertionResult", ptr %gtest_ar, i64 0, i32 1
  %2 = load ptr, ptr %message_.i.i, align 8
  %cmp.i.i.not.i.i = icmp eq ptr %2, null
  br i1 %cmp.i.i.not.i.i, label %invoke.cont9, label %cond.true.i.i

cond.true.i.i:                                    ; preds = %invoke.cont
  %call4.i.i = call noundef ptr @_ZNKSt7__cxx1112basic_stringIcSt11char_traitsIcESaIcEE5c_strEv(ptr noundef nonnull align 8 dereferenceable(32) %2) #15
  br label %invoke.cont9

invoke.cont9:                                     ; preds = %cond.true.i.i, %invoke.cont
  %cond.i.i = phi ptr [ %call4.i.i, %cond.true.i.i ], [ @.str.60, %invoke.cont ]
  invoke void @_ZN7testing8internal12AssertHelperC1ENS_14TestPartResult4TypeEPKciS5_(ptr noundef nonnull align 8 dereferenceable(8) %ref.tmp7, i32 noundef 1, ptr noundef nonnull @.str.3, i32 noundef 132, ptr noundef %cond.i.i)
          to label %invoke.cont11 unwind label %lpad8

invoke.cont11:                                    ; preds = %invoke.cont9
  invoke void @_ZNK7testing8internal12AssertHelperaSERKNS_7MessageE(ptr noundef nonnull align 8 dereferenceable(8) %ref.tmp7, ptr noundef nonnull align 8 dereferenceable(8) %ref.tmp6)
          to label %invoke.cont13 unwind label %lpad12

invoke.cont13:                                    ; preds = %invoke.cont11
  call void @_ZN7testing8internal12AssertHelperD1Ev(ptr noundef nonnull align 8 dereferenceable(8) %ref.tmp7) #15
  %3 = load ptr, ptr %ref.tmp6, align 8
  %cmp.not.i.i = icmp eq ptr %3, null
  br i1 %cmp.not.i.i, label %_ZN7testing7MessageD2Ev.exit, label %_ZNKSt14default_deleteINSt7__cxx1118basic_stringstreamIcSt11char_traitsIcESaIcEEEEclEPS5_.exit.i.i

_ZNKSt14default_deleteINSt7__cxx1118basic_stringstreamIcSt11char_traitsIcESaIcEEEEclEPS5_.exit.i.i: ; preds = %invoke.cont13
  %vtable.i.i.i = load ptr, ptr %3, align 8
  %vfn.i.i.i = getelementptr inbounds ptr, ptr %vtable.i.i.i, i64 1
  %4 = load ptr, ptr %vfn.i.i.i, align 8
  call void %4(ptr noundef nonnull align 8 dereferenceable(128) %3) #15
  br label %_ZN7testing7MessageD2Ev.exit

_ZN7testing7MessageD2Ev.exit:                     ; preds = %invoke.cont13, %_ZNKSt14default_deleteINSt7__cxx1118basic_stringstreamIcSt11char_traitsIcESaIcEEEEclEPS5_.exit.i.i
  store ptr null, ptr %ref.tmp6, align 8
  br label %if.end

lpad:                                             ; preds = %if.else
  %5 = landingpad { ptr, i32 }
          cleanup
  br label %eh.resume

lpad8:                                            ; preds = %invoke.cont9
  %6 = landingpad { ptr, i32 }
          cleanup
  br label %ehcleanup

lpad12:                                           ; preds = %invoke.cont11
  %7 = landingpad { ptr, i32 }
          cleanup
  call void @_ZN7testing8internal12AssertHelperD1Ev(ptr noundef nonnull align 8 dereferenceable(8) %ref.tmp7) #15
  br label %ehcleanup

ehcleanup:                                        ; preds = %lpad12, %lpad8
  %.pn = phi { ptr, i32 } [ %7, %lpad12 ], [ %6, %lpad8 ]
  %8 = load ptr, ptr %ref.tmp6, align 8
  %cmp.not.i.i7 = icmp eq ptr %8, null
  br i1 %cmp.not.i.i7, label %_ZN7testing7MessageD2Ev.exit11, label %_ZNKSt14default_deleteINSt7__cxx1118basic_stringstreamIcSt11char_traitsIcESaIcEEEEclEPS5_.exit.i.i8

_ZNKSt14default_deleteINSt7__cxx1118basic_stringstreamIcSt11char_traitsIcESaIcEEEEclEPS5_.exit.i.i8: ; preds = %ehcleanup
  %vtable.i.i.i9 = load ptr, ptr %8, align 8
  %vfn.i.i.i10 = getelementptr inbounds ptr, ptr %vtable.i.i.i9, i64 1
  %9 = load ptr, ptr %vfn.i.i.i10, align 8
  call void %9(ptr noundef nonnull align 8 dereferenceable(128) %8) #15
  br label %_ZN7testing7MessageD2Ev.exit11

_ZN7testing7MessageD2Ev.exit11:                   ; preds = %ehcleanup, %_ZNKSt14default_deleteINSt7__cxx1118basic_stringstreamIcSt11char_traitsIcESaIcEEEEclEPS5_.exit.i.i8
  store ptr null, ptr %ref.tmp6, align 8
  br label %eh.resume

if.end:                                           ; preds = %_ZN7testing8internal8EqHelper7CompareIiiTnPNSt9enable_ifIXoontsr3std11is_integralIT_EE5valuentsr3std10is_pointerIT0_EE5valueEvE4typeELPv0EEENS_15AssertionResultEPKcSC_RKS4_RKS5_.exit, %_ZN7testing7MessageD2Ev.exit
  %message_.i = getelementptr inbounds %"class.testing::AssertionResult", ptr %gtest_ar, i64 0, i32 1
  %10 = load ptr, ptr %message_.i, align 8
  %cmp.not.i.i12 = icmp eq ptr %10, null
  br i1 %cmp.not.i.i12, label %_ZN7testing8internal8EqHelper7CompareIiiTnPNSt9enable_ifIXoontsr3std11is_integralIT_EE5valuentsr3std10is_pointerIT0_EE5valueEvE4typeELPv0EEENS_15AssertionResultEPKcSC_RKS4_RKS5_.exit17, label %_ZNKSt14default_deleteINSt7__cxx1112basic_stringIcSt11char_traitsIcESaIcEEEEclEPS5_.exit.i.i

_ZNKSt14default_deleteINSt7__cxx1112basic_stringIcSt11char_traitsIcESaIcEEEEclEPS5_.exit.i.i: ; preds = %if.end
  call void @_ZNSt7__cxx1112basic_stringIcSt11char_traitsIcESaIcEED1Ev(ptr noundef nonnull align 8 dereferenceable(32) %10) #15
  call void @_ZdlPv(ptr noundef nonnull %10) #16
  br label %_ZN7testing8internal8EqHelper7CompareIiiTnPNSt9enable_ifIXoontsr3std11is_integralIT_EE5valuentsr3std10is_pointerIT0_EE5valueEvE4typeELPv0EEENS_15AssertionResultEPKcSC_RKS4_RKS5_.exit17

_ZN7testing8internal8EqHelper7CompareIiiTnPNSt9enable_ifIXoontsr3std11is_integralIT_EE5valuentsr3std10is_pointerIT0_EE5valueEvE4typeELPv0EEENS_15AssertionResultEPKcSC_RKS4_RKS5_.exit17: ; preds = %if.end, %_ZNKSt14default_deleteINSt7__cxx1112basic_stringIcSt11char_traitsIcESaIcEEEEclEPS5_.exit.i.i
  store ptr null, ptr %message_.i, align 8
  call void @_ZN7testing16AssertionSuccessEv(ptr nonnull sret(%"class.testing::AssertionResult") align 8 %gtest_ar15)
  %11 = load i8, ptr %gtest_ar15, align 8
  %12 = and i8 %11, 1
  %tobool.i18.not = icmp eq i8 %12, 0
  br i1 %tobool.i18.not, label %if.else24, label %if.end37

if.else24:                                        ; preds = %_ZN7testing8internal8EqHelper7CompareIiiTnPNSt9enable_ifIXoontsr3std11is_integralIT_EE5valuentsr3std10is_pointerIT0_EE5valueEvE4typeELPv0EEENS_15AssertionResultEPKcSC_RKS4_RKS5_.exit17
  invoke void @_ZN7testing7MessageC1Ev(ptr noundef nonnull align 8 dereferenceable(8) %ref.tmp25)
          to label %invoke.cont27 unwind label %lpad26

invoke.cont27:                                    ; preds = %if.else24
  %message_.i.i19 = getelementptr inbounds %"class.testing::AssertionResult", ptr %gtest_ar15, i64 0, i32 1
  %13 = load ptr, ptr %message_.i.i19, align 8
  %cmp.i.i.not.i.i20 = icmp eq ptr %13, null
  br i1 %cmp.i.i.not.i.i20, label %invoke.cont30, label %cond.true.i.i21

cond.true.i.i21:                                  ; preds = %invoke.cont27
  %call4.i.i22 = call noundef ptr @_ZNKSt7__cxx1112basic_stringIcSt11char_traitsIcESaIcEE5c_strEv(ptr noundef nonnull align 8 dereferenceable(32) %13) #15
  br label %invoke.cont30

invoke.cont30:                                    ; preds = %cond.true.i.i21, %invoke.cont27
  %cond.i.i23 = phi ptr [ %call4.i.i22, %cond.true.i.i21 ], [ @.str.60, %invoke.cont27 ]
  invoke void @_ZN7testing8internal12AssertHelperC1ENS_14TestPartResult4TypeEPKciS5_(ptr noundef nonnull align 8 dereferenceable(8) %ref.tmp28, i32 noundef 1, ptr noundef nonnull @.str.3, i32 noundef 133, ptr noundef %cond.i.i23)
          to label %invoke.cont32 unwind label %lpad29

invoke.cont32:                                    ; preds = %invoke.cont30
  invoke void @_ZNK7testing8internal12AssertHelperaSERKNS_7MessageE(ptr noundef nonnull align 8 dereferenceable(8) %ref.tmp28, ptr noundef nonnull align 8 dereferenceable(8) %ref.tmp25)
          to label %invoke.cont34 unwind label %lpad33

invoke.cont34:                                    ; preds = %invoke.cont32
  call void @_ZN7testing8internal12AssertHelperD1Ev(ptr noundef nonnull align 8 dereferenceable(8) %ref.tmp28) #15
  %14 = load ptr, ptr %ref.tmp25, align 8
  %cmp.not.i.i25 = icmp eq ptr %14, null
  br i1 %cmp.not.i.i25, label %_ZN7testing7MessageD2Ev.exit29, label %_ZNKSt14default_deleteINSt7__cxx1118basic_stringstreamIcSt11char_traitsIcESaIcEEEEclEPS5_.exit.i.i26

_ZNKSt14default_deleteINSt7__cxx1118basic_stringstreamIcSt11char_traitsIcESaIcEEEEclEPS5_.exit.i.i26: ; preds = %invoke.cont34
  %vtable.i.i.i27 = load ptr, ptr %14, align 8
  %vfn.i.i.i28 = getelementptr inbounds ptr, ptr %vtable.i.i.i27, i64 1
  %15 = load ptr, ptr %vfn.i.i.i28, align 8
  call void %15(ptr noundef nonnull align 8 dereferenceable(128) %14) #15
  br label %_ZN7testing7MessageD2Ev.exit29

_ZN7testing7MessageD2Ev.exit29:                   ; preds = %invoke.cont34, %_ZNKSt14default_deleteINSt7__cxx1118basic_stringstreamIcSt11char_traitsIcESaIcEEEEclEPS5_.exit.i.i26
  store ptr null, ptr %ref.tmp25, align 8
  br label %if.end37

lpad26:                                           ; preds = %if.else24
  %16 = landingpad { ptr, i32 }
          cleanup
  br label %eh.resume

lpad29:                                           ; preds = %invoke.cont30
  %17 = landingpad { ptr, i32 }
          cleanup
  br label %ehcleanup36

lpad33:                                           ; preds = %invoke.cont32
  %18 = landingpad { ptr, i32 }
          cleanup
  call void @_ZN7testing8internal12AssertHelperD1Ev(ptr noundef nonnull align 8 dereferenceable(8) %ref.tmp28) #15
  br label %ehcleanup36

ehcleanup36:                                      ; preds = %lpad33, %lpad29
  %.pn3 = phi { ptr, i32 } [ %18, %lpad33 ], [ %17, %lpad29 ]
  %19 = load ptr, ptr %ref.tmp25, align 8
  %cmp.not.i.i30 = icmp eq ptr %19, null
  br i1 %cmp.not.i.i30, label %_ZN7testing7MessageD2Ev.exit34, label %_ZNKSt14default_deleteINSt7__cxx1118basic_stringstreamIcSt11char_traitsIcESaIcEEEEclEPS5_.exit.i.i31

_ZNKSt14default_deleteINSt7__cxx1118basic_stringstreamIcSt11char_traitsIcESaIcEEEEclEPS5_.exit.i.i31: ; preds = %ehcleanup36
  %vtable.i.i.i32 = load ptr, ptr %19, align 8
  %vfn.i.i.i33 = getelementptr inbounds ptr, ptr %vtable.i.i.i32, i64 1
  %20 = load ptr, ptr %vfn.i.i.i33, align 8
  call void %20(ptr noundef nonnull align 8 dereferenceable(128) %19) #15
  br label %_ZN7testing7MessageD2Ev.exit34

_ZN7testing7MessageD2Ev.exit34:                   ; preds = %ehcleanup36, %_ZNKSt14default_deleteINSt7__cxx1118basic_stringstreamIcSt11char_traitsIcESaIcEEEEclEPS5_.exit.i.i31
  store ptr null, ptr %ref.tmp25, align 8
  br label %eh.resume

if.end37:                                         ; preds = %_ZN7testing8internal8EqHelper7CompareIiiTnPNSt9enable_ifIXoontsr3std11is_integralIT_EE5valuentsr3std10is_pointerIT0_EE5valueEvE4typeELPv0EEENS_15AssertionResultEPKcSC_RKS4_RKS5_.exit17, %_ZN7testing7MessageD2Ev.exit29
  %message_.i35 = getelementptr inbounds %"class.testing::AssertionResult", ptr %gtest_ar15, i64 0, i32 1
  %21 = load ptr, ptr %message_.i35, align 8
  %cmp.not.i.i36 = icmp eq ptr %21, null
  br i1 %cmp.not.i.i36, label %_ZN7testing15AssertionResultD2Ev.exit38, label %_ZNKSt14default_deleteINSt7__cxx1112basic_stringIcSt11char_traitsIcESaIcEEEEclEPS5_.exit.i.i37

_ZNKSt14default_deleteINSt7__cxx1112basic_stringIcSt11char_traitsIcESaIcEEEEclEPS5_.exit.i.i37: ; preds = %if.end37
  call void @_ZNSt7__cxx1112basic_stringIcSt11char_traitsIcESaIcEED1Ev(ptr noundef nonnull align 8 dereferenceable(32) %21) #15
  call void @_ZdlPv(ptr noundef nonnull %21) #16
  br label %_ZN7testing15AssertionResultD2Ev.exit38

_ZN7testing15AssertionResultD2Ev.exit38:          ; preds = %if.end37, %_ZNKSt14default_deleteINSt7__cxx1112basic_stringIcSt11char_traitsIcESaIcEEEEclEPS5_.exit.i.i37
  ret void

eh.resume:                                        ; preds = %lpad26, %_ZN7testing7MessageD2Ev.exit34, %lpad, %_ZN7testing7MessageD2Ev.exit11
  %gtest_ar15.sink = phi ptr [ %gtest_ar, %_ZN7testing7MessageD2Ev.exit11 ], [ %gtest_ar, %lpad ], [ %gtest_ar15, %_ZN7testing7MessageD2Ev.exit34 ], [ %gtest_ar15, %lpad26 ]
  %.pn3.pn.pn = phi { ptr, i32 } [ %.pn, %_ZN7testing7MessageD2Ev.exit11 ], [ %5, %lpad ], [ %.pn3, %_ZN7testing7MessageD2Ev.exit34 ], [ %16, %lpad26 ]
  call void @_ZN7testing15AssertionResultD2Ev(ptr noundef nonnull align 8 dereferenceable(16) %gtest_ar15.sink) #15
  resume { ptr, i32 } %.pn3.pn.pn
}

; Function Attrs: mustprogress nofree norecurse nosync nounwind willreturn memory(none) uwtable
define internal void @_ZN7testing8internal15TestFactoryImplIN4absl13base_internal12_GLOBAL__N_132InvokeTest_EphemeralFunctor_TestEED2Ev(ptr nocapture nonnull readnone align 8 %this) unnamed_addr #6 align 2 {
entry:
  ret void
}

; Function Attrs: mustprogress nounwind uwtable
define internal void @_ZN7testing8internal15TestFactoryImplIN4absl13base_internal12_GLOBAL__N_132InvokeTest_EphemeralFunctor_TestEED0Ev(ptr noundef nonnull align 8 dereferenceable(8) %this) unnamed_addr #7 align 2 {
entry:
  tail call void @_ZdlPv(ptr noundef nonnull %this) #16
  ret void
}

; Function Attrs: mustprogress uwtable
define internal noundef nonnull ptr @_ZN7testing8internal15TestFactoryImplIN4absl13base_internal12_GLOBAL__N_132InvokeTest_EphemeralFunctor_TestEE10CreateTestEv(ptr nocapture nonnull readnone align 8 %this) unnamed_addr #3 align 2 personality ptr @__gxx_personality_v0 {
entry:
  %call = tail call noalias noundef nonnull dereferenceable(16) ptr @_Znwm(i64 noundef 16) #17
  invoke void @_ZN7testing4TestC2Ev(ptr noundef nonnull align 8 dereferenceable(16) %call)
          to label %invoke.cont unwind label %lpad

invoke.cont:                                      ; preds = %entry
  store ptr getelementptr inbounds ({ [8 x ptr] }, ptr @_ZTVN4absl13base_internal12_GLOBAL__N_132InvokeTest_EphemeralFunctor_TestE, i64 0, inrange i32 0, i64 2), ptr %call, align 8
  ret ptr %call

lpad:                                             ; preds = %entry
  %0 = landingpad { ptr, i32 }
          cleanup
  tail call void @_ZdlPv(ptr noundef nonnull %call) #16
  resume { ptr, i32 } %0
}

; Function Attrs: mustprogress nounwind uwtable
define internal void @_ZN4absl13base_internal12_GLOBAL__N_132InvokeTest_EphemeralFunctor_TestD2Ev(ptr noundef nonnull align 8 dereferenceable(16) %this) unnamed_addr #7 align 2 {
entry:
  tail call void @_ZN7testing4TestD2Ev(ptr noundef nonnull align 8 dereferenceable(16) %this) #15
  ret void
}

; Function Attrs: mustprogress nounwind uwtable
define internal void @_ZN4absl13base_internal12_GLOBAL__N_132InvokeTest_EphemeralFunctor_TestD0Ev(ptr noundef nonnull align 8 dereferenceable(16) %this) unnamed_addr #7 align 2 {
entry:
  tail call void @_ZN7testing4TestD2Ev(ptr noundef nonnull align 8 dereferenceable(16) %this) #15
  tail call void @_ZdlPv(ptr noundef nonnull %this) #16
  ret void
}

; Function Attrs: mustprogress uwtable
define internal void @_ZN4absl13base_internal12_GLOBAL__N_132InvokeTest_EphemeralFunctor_Test8TestBodyEv(ptr nocapture nonnull readnone align 8 %this) unnamed_addr #3 align 2 personality ptr @__gxx_personality_v0 {
_ZN7testing8internal8EqHelper7CompareIiiTnPNSt9enable_ifIXoontsr3std11is_integralIT_EE5valuentsr3std10is_pointerIT0_EE5valueEvE4typeELPv0EEENS_15AssertionResultEPKcSC_RKS4_RKS5_.exit:
  %gtest_ar = alloca %"class.testing::AssertionResult", align 8
  %ref.tmp6 = alloca %"class.testing::Message", align 8
  %ref.tmp7 = alloca %"class.testing::internal::AssertHelper", align 8
  %gtest_ar15 = alloca %"class.testing::AssertionResult", align 8
  %ref.tmp25 = alloca %"class.testing::Message", align 8
  %ref.tmp28 = alloca %"class.testing::internal::AssertHelper", align 8
  call void @_ZN7testing16AssertionSuccessEv(ptr nonnull sret(%"class.testing::AssertionResult") align 8 %gtest_ar)
  %0 = load i8, ptr %gtest_ar, align 8
  %1 = and i8 %0, 1
  %tobool.i.not = icmp eq i8 %1, 0
  br i1 %tobool.i.not, label %if.else, label %if.end

if.else:                                          ; preds = %_ZN7testing8internal8EqHelper7CompareIiiTnPNSt9enable_ifIXoontsr3std11is_integralIT_EE5valuentsr3std10is_pointerIT0_EE5valueEvE4typeELPv0EEENS_15AssertionResultEPKcSC_RKS4_RKS5_.exit
  invoke void @_ZN7testing7MessageC1Ev(ptr noundef nonnull align 8 dereferenceable(8) %ref.tmp6)
          to label %invoke.cont unwind label %lpad

invoke.cont:                                      ; preds = %if.else
  %message_.i.i = getelementptr inbounds %"class.testing::AssertionResult", ptr %gtest_ar, i64 0, i32 1
  %2 = load ptr, ptr %message_.i.i, align 8
  %cmp.i.i.not.i.i = icmp eq ptr %2, null
  br i1 %cmp.i.i.not.i.i, label %invoke.cont9, label %cond.true.i.i

cond.true.i.i:                                    ; preds = %invoke.cont
  %call4.i.i = call noundef ptr @_ZNKSt7__cxx1112basic_stringIcSt11char_traitsIcESaIcEE5c_strEv(ptr noundef nonnull align 8 dereferenceable(32) %2) #15
  br label %invoke.cont9

invoke.cont9:                                     ; preds = %cond.true.i.i, %invoke.cont
  %cond.i.i = phi ptr [ %call4.i.i, %cond.true.i.i ], [ @.str.60, %invoke.cont ]
  invoke void @_ZN7testing8internal12AssertHelperC1ENS_14TestPartResult4TypeEPKciS5_(ptr noundef nonnull align 8 dereferenceable(8) %ref.tmp7, i32 noundef 1, ptr noundef nonnull @.str.3, i32 noundef 138, ptr noundef %cond.i.i)
          to label %invoke.cont11 unwind label %lpad8

invoke.cont11:                                    ; preds = %invoke.cont9
  invoke void @_ZNK7testing8internal12AssertHelperaSERKNS_7MessageE(ptr noundef nonnull align 8 dereferenceable(8) %ref.tmp7, ptr noundef nonnull align 8 dereferenceable(8) %ref.tmp6)
          to label %invoke.cont13 unwind label %lpad12

invoke.cont13:                                    ; preds = %invoke.cont11
  call void @_ZN7testing8internal12AssertHelperD1Ev(ptr noundef nonnull align 8 dereferenceable(8) %ref.tmp7) #15
  %3 = load ptr, ptr %ref.tmp6, align 8
  %cmp.not.i.i = icmp eq ptr %3, null
  br i1 %cmp.not.i.i, label %_ZN7testing7MessageD2Ev.exit, label %_ZNKSt14default_deleteINSt7__cxx1118basic_stringstreamIcSt11char_traitsIcESaIcEEEEclEPS5_.exit.i.i

_ZNKSt14default_deleteINSt7__cxx1118basic_stringstreamIcSt11char_traitsIcESaIcEEEEclEPS5_.exit.i.i: ; preds = %invoke.cont13
  %vtable.i.i.i = load ptr, ptr %3, align 8
  %vfn.i.i.i = getelementptr inbounds ptr, ptr %vtable.i.i.i, i64 1
  %4 = load ptr, ptr %vfn.i.i.i, align 8
  call void %4(ptr noundef nonnull align 8 dereferenceable(128) %3) #15
  br label %_ZN7testing7MessageD2Ev.exit

_ZN7testing7MessageD2Ev.exit:                     ; preds = %invoke.cont13, %_ZNKSt14default_deleteINSt7__cxx1118basic_stringstreamIcSt11char_traitsIcESaIcEEEEclEPS5_.exit.i.i
  store ptr null, ptr %ref.tmp6, align 8
  br label %if.end

lpad:                                             ; preds = %if.else
  %5 = landingpad { ptr, i32 }
          cleanup
  br label %eh.resume

lpad8:                                            ; preds = %invoke.cont9
  %6 = landingpad { ptr, i32 }
          cleanup
  br label %ehcleanup

lpad12:                                           ; preds = %invoke.cont11
  %7 = landingpad { ptr, i32 }
          cleanup
  call void @_ZN7testing8internal12AssertHelperD1Ev(ptr noundef nonnull align 8 dereferenceable(8) %ref.tmp7) #15
  br label %ehcleanup

ehcleanup:                                        ; preds = %lpad12, %lpad8
  %.pn = phi { ptr, i32 } [ %7, %lpad12 ], [ %6, %lpad8 ]
  %8 = load ptr, ptr %ref.tmp6, align 8
  %cmp.not.i.i7 = icmp eq ptr %8, null
  br i1 %cmp.not.i.i7, label %_ZN7testing7MessageD2Ev.exit11, label %_ZNKSt14default_deleteINSt7__cxx1118basic_stringstreamIcSt11char_traitsIcESaIcEEEEclEPS5_.exit.i.i8

_ZNKSt14default_deleteINSt7__cxx1118basic_stringstreamIcSt11char_traitsIcESaIcEEEEclEPS5_.exit.i.i8: ; preds = %ehcleanup
  %vtable.i.i.i9 = load ptr, ptr %8, align 8
  %vfn.i.i.i10 = getelementptr inbounds ptr, ptr %vtable.i.i.i9, i64 1
  %9 = load ptr, ptr %vfn.i.i.i10, align 8
  call void %9(ptr noundef nonnull align 8 dereferenceable(128) %8) #15
  br label %_ZN7testing7MessageD2Ev.exit11

_ZN7testing7MessageD2Ev.exit11:                   ; preds = %ehcleanup, %_ZNKSt14default_deleteINSt7__cxx1118basic_stringstreamIcSt11char_traitsIcESaIcEEEEclEPS5_.exit.i.i8
  store ptr null, ptr %ref.tmp6, align 8
  br label %eh.resume

if.end:                                           ; preds = %_ZN7testing8internal8EqHelper7CompareIiiTnPNSt9enable_ifIXoontsr3std11is_integralIT_EE5valuentsr3std10is_pointerIT0_EE5valueEvE4typeELPv0EEENS_15AssertionResultEPKcSC_RKS4_RKS5_.exit, %_ZN7testing7MessageD2Ev.exit
  %message_.i = getelementptr inbounds %"class.testing::AssertionResult", ptr %gtest_ar, i64 0, i32 1
  %10 = load ptr, ptr %message_.i, align 8
  %cmp.not.i.i12 = icmp eq ptr %10, null
  br i1 %cmp.not.i.i12, label %_ZN7testing8internal8EqHelper7CompareIiiTnPNSt9enable_ifIXoontsr3std11is_integralIT_EE5valuentsr3std10is_pointerIT0_EE5valueEvE4typeELPv0EEENS_15AssertionResultEPKcSC_RKS4_RKS5_.exit17, label %_ZNKSt14default_deleteINSt7__cxx1112basic_stringIcSt11char_traitsIcESaIcEEEEclEPS5_.exit.i.i

_ZNKSt14default_deleteINSt7__cxx1112basic_stringIcSt11char_traitsIcESaIcEEEEclEPS5_.exit.i.i: ; preds = %if.end
  call void @_ZNSt7__cxx1112basic_stringIcSt11char_traitsIcESaIcEED1Ev(ptr noundef nonnull align 8 dereferenceable(32) %10) #15
  call void @_ZdlPv(ptr noundef nonnull %10) #16
  br label %_ZN7testing8internal8EqHelper7CompareIiiTnPNSt9enable_ifIXoontsr3std11is_integralIT_EE5valuentsr3std10is_pointerIT0_EE5valueEvE4typeELPv0EEENS_15AssertionResultEPKcSC_RKS4_RKS5_.exit17

_ZN7testing8internal8EqHelper7CompareIiiTnPNSt9enable_ifIXoontsr3std11is_integralIT_EE5valuentsr3std10is_pointerIT0_EE5valueEvE4typeELPv0EEENS_15AssertionResultEPKcSC_RKS4_RKS5_.exit17: ; preds = %if.end, %_ZNKSt14default_deleteINSt7__cxx1112basic_stringIcSt11char_traitsIcESaIcEEEEclEPS5_.exit.i.i
  store ptr null, ptr %message_.i, align 8
  call void @_ZN7testing16AssertionSuccessEv(ptr nonnull sret(%"class.testing::AssertionResult") align 8 %gtest_ar15)
  %11 = load i8, ptr %gtest_ar15, align 8
  %12 = and i8 %11, 1
  %tobool.i18.not = icmp eq i8 %12, 0
  br i1 %tobool.i18.not, label %if.else24, label %if.end37

if.else24:                                        ; preds = %_ZN7testing8internal8EqHelper7CompareIiiTnPNSt9enable_ifIXoontsr3std11is_integralIT_EE5valuentsr3std10is_pointerIT0_EE5valueEvE4typeELPv0EEENS_15AssertionResultEPKcSC_RKS4_RKS5_.exit17
  invoke void @_ZN7testing7MessageC1Ev(ptr noundef nonnull align 8 dereferenceable(8) %ref.tmp25)
          to label %invoke.cont27 unwind label %lpad26

invoke.cont27:                                    ; preds = %if.else24
  %message_.i.i19 = getelementptr inbounds %"class.testing::AssertionResult", ptr %gtest_ar15, i64 0, i32 1
  %13 = load ptr, ptr %message_.i.i19, align 8
  %cmp.i.i.not.i.i20 = icmp eq ptr %13, null
  br i1 %cmp.i.i.not.i.i20, label %invoke.cont30, label %cond.true.i.i21

cond.true.i.i21:                                  ; preds = %invoke.cont27
  %call4.i.i22 = call noundef ptr @_ZNKSt7__cxx1112basic_stringIcSt11char_traitsIcESaIcEE5c_strEv(ptr noundef nonnull align 8 dereferenceable(32) %13) #15
  br label %invoke.cont30

invoke.cont30:                                    ; preds = %cond.true.i.i21, %invoke.cont27
  %cond.i.i23 = phi ptr [ %call4.i.i22, %cond.true.i.i21 ], [ @.str.60, %invoke.cont27 ]
  invoke void @_ZN7testing8internal12AssertHelperC1ENS_14TestPartResult4TypeEPKciS5_(ptr noundef nonnull align 8 dereferenceable(8) %ref.tmp28, i32 noundef 1, ptr noundef nonnull @.str.3, i32 noundef 139, ptr noundef %cond.i.i23)
          to label %invoke.cont32 unwind label %lpad29

invoke.cont32:                                    ; preds = %invoke.cont30
  invoke void @_ZNK7testing8internal12AssertHelperaSERKNS_7MessageE(ptr noundef nonnull align 8 dereferenceable(8) %ref.tmp28, ptr noundef nonnull align 8 dereferenceable(8) %ref.tmp25)
          to label %invoke.cont34 unwind label %lpad33

invoke.cont34:                                    ; preds = %invoke.cont32
  call void @_ZN7testing8internal12AssertHelperD1Ev(ptr noundef nonnull align 8 dereferenceable(8) %ref.tmp28) #15
  %14 = load ptr, ptr %ref.tmp25, align 8
  %cmp.not.i.i25 = icmp eq ptr %14, null
  br i1 %cmp.not.i.i25, label %_ZN7testing7MessageD2Ev.exit29, label %_ZNKSt14default_deleteINSt7__cxx1118basic_stringstreamIcSt11char_traitsIcESaIcEEEEclEPS5_.exit.i.i26

_ZNKSt14default_deleteINSt7__cxx1118basic_stringstreamIcSt11char_traitsIcESaIcEEEEclEPS5_.exit.i.i26: ; preds = %invoke.cont34
  %vtable.i.i.i27 = load ptr, ptr %14, align 8
  %vfn.i.i.i28 = getelementptr inbounds ptr, ptr %vtable.i.i.i27, i64 1
  %15 = load ptr, ptr %vfn.i.i.i28, align 8
  call void %15(ptr noundef nonnull align 8 dereferenceable(128) %14) #15
  br label %_ZN7testing7MessageD2Ev.exit29

_ZN7testing7MessageD2Ev.exit29:                   ; preds = %invoke.cont34, %_ZNKSt14default_deleteINSt7__cxx1118basic_stringstreamIcSt11char_traitsIcESaIcEEEEclEPS5_.exit.i.i26
  store ptr null, ptr %ref.tmp25, align 8
  br label %if.end37

lpad26:                                           ; preds = %if.else24
  %16 = landingpad { ptr, i32 }
          cleanup
  br label %eh.resume

lpad29:                                           ; preds = %invoke.cont30
  %17 = landingpad { ptr, i32 }
          cleanup
  br label %ehcleanup36

lpad33:                                           ; preds = %invoke.cont32
  %18 = landingpad { ptr, i32 }
          cleanup
  call void @_ZN7testing8internal12AssertHelperD1Ev(ptr noundef nonnull align 8 dereferenceable(8) %ref.tmp28) #15
  br label %ehcleanup36

ehcleanup36:                                      ; preds = %lpad33, %lpad29
  %.pn3 = phi { ptr, i32 } [ %18, %lpad33 ], [ %17, %lpad29 ]
  %19 = load ptr, ptr %ref.tmp25, align 8
  %cmp.not.i.i30 = icmp eq ptr %19, null
  br i1 %cmp.not.i.i30, label %_ZN7testing7MessageD2Ev.exit34, label %_ZNKSt14default_deleteINSt7__cxx1118basic_stringstreamIcSt11char_traitsIcESaIcEEEEclEPS5_.exit.i.i31

_ZNKSt14default_deleteINSt7__cxx1118basic_stringstreamIcSt11char_traitsIcESaIcEEEEclEPS5_.exit.i.i31: ; preds = %ehcleanup36
  %vtable.i.i.i32 = load ptr, ptr %19, align 8
  %vfn.i.i.i33 = getelementptr inbounds ptr, ptr %vtable.i.i.i32, i64 1
  %20 = load ptr, ptr %vfn.i.i.i33, align 8
  call void %20(ptr noundef nonnull align 8 dereferenceable(128) %19) #15
  br label %_ZN7testing7MessageD2Ev.exit34

_ZN7testing7MessageD2Ev.exit34:                   ; preds = %ehcleanup36, %_ZNKSt14default_deleteINSt7__cxx1118basic_stringstreamIcSt11char_traitsIcESaIcEEEEclEPS5_.exit.i.i31
  store ptr null, ptr %ref.tmp25, align 8
  br label %eh.resume

if.end37:                                         ; preds = %_ZN7testing8internal8EqHelper7CompareIiiTnPNSt9enable_ifIXoontsr3std11is_integralIT_EE5valuentsr3std10is_pointerIT0_EE5valueEvE4typeELPv0EEENS_15AssertionResultEPKcSC_RKS4_RKS5_.exit17, %_ZN7testing7MessageD2Ev.exit29
  %message_.i35 = getelementptr inbounds %"class.testing::AssertionResult", ptr %gtest_ar15, i64 0, i32 1
  %21 = load ptr, ptr %message_.i35, align 8
  %cmp.not.i.i36 = icmp eq ptr %21, null
  br i1 %cmp.not.i.i36, label %_ZN7testing15AssertionResultD2Ev.exit38, label %_ZNKSt14default_deleteINSt7__cxx1112basic_stringIcSt11char_traitsIcESaIcEEEEclEPS5_.exit.i.i37

_ZNKSt14default_deleteINSt7__cxx1112basic_stringIcSt11char_traitsIcESaIcEEEEclEPS5_.exit.i.i37: ; preds = %if.end37
  call void @_ZNSt7__cxx1112basic_stringIcSt11char_traitsIcESaIcEED1Ev(ptr noundef nonnull align 8 dereferenceable(32) %21) #15
  call void @_ZdlPv(ptr noundef nonnull %21) #16
  br label %_ZN7testing15AssertionResultD2Ev.exit38

_ZN7testing15AssertionResultD2Ev.exit38:          ; preds = %if.end37, %_ZNKSt14default_deleteINSt7__cxx1112basic_stringIcSt11char_traitsIcESaIcEEEEclEPS5_.exit.i.i37
  ret void

eh.resume:                                        ; preds = %lpad26, %_ZN7testing7MessageD2Ev.exit34, %lpad, %_ZN7testing7MessageD2Ev.exit11
  %gtest_ar15.sink = phi ptr [ %gtest_ar, %_ZN7testing7MessageD2Ev.exit11 ], [ %gtest_ar, %lpad ], [ %gtest_ar15, %_ZN7testing7MessageD2Ev.exit34 ], [ %gtest_ar15, %lpad26 ]
  %.pn3.pn.pn = phi { ptr, i32 } [ %.pn, %_ZN7testing7MessageD2Ev.exit11 ], [ %5, %lpad ], [ %.pn3, %_ZN7testing7MessageD2Ev.exit34 ], [ %16, %lpad26 ]
  call void @_ZN7testing15AssertionResultD2Ev(ptr noundef nonnull align 8 dereferenceable(16) %gtest_ar15.sink) #15
  resume { ptr, i32 } %.pn3.pn.pn
}

; Function Attrs: mustprogress nofree norecurse nosync nounwind willreturn memory(none) uwtable
define internal void @_ZN7testing8internal15TestFactoryImplIN4absl13base_internal12_GLOBAL__N_133InvokeTest_OverloadedFunctor_TestEED2Ev(ptr nocapture nonnull readnone align 8 %this) unnamed_addr #6 align 2 {
entry:
  ret void
}

; Function Attrs: mustprogress nounwind uwtable
define internal void @_ZN7testing8internal15TestFactoryImplIN4absl13base_internal12_GLOBAL__N_133InvokeTest_OverloadedFunctor_TestEED0Ev(ptr noundef nonnull align 8 dereferenceable(8) %this) unnamed_addr #7 align 2 {
entry:
  tail call void @_ZdlPv(ptr noundef nonnull %this) #16
  ret void
}

; Function Attrs: mustprogress uwtable
define internal noundef nonnull ptr @_ZN7testing8internal15TestFactoryImplIN4absl13base_internal12_GLOBAL__N_133InvokeTest_OverloadedFunctor_TestEE10CreateTestEv(ptr nocapture nonnull readnone align 8 %this) unnamed_addr #3 align 2 personality ptr @__gxx_personality_v0 {
entry:
  %call = tail call noalias noundef nonnull dereferenceable(16) ptr @_Znwm(i64 noundef 16) #17
  invoke void @_ZN7testing4TestC2Ev(ptr noundef nonnull align 8 dereferenceable(16) %call)
          to label %invoke.cont unwind label %lpad

invoke.cont:                                      ; preds = %entry
  store ptr getelementptr inbounds ({ [8 x ptr] }, ptr @_ZTVN4absl13base_internal12_GLOBAL__N_133InvokeTest_OverloadedFunctor_TestE, i64 0, inrange i32 0, i64 2), ptr %call, align 8
  ret ptr %call

lpad:                                             ; preds = %entry
  %0 = landingpad { ptr, i32 }
          cleanup
  tail call void @_ZdlPv(ptr noundef nonnull %call) #16
  resume { ptr, i32 } %0
}

; Function Attrs: mustprogress nounwind uwtable
define internal void @_ZN4absl13base_internal12_GLOBAL__N_133InvokeTest_OverloadedFunctor_TestD2Ev(ptr noundef nonnull align 8 dereferenceable(16) %this) unnamed_addr #7 align 2 {
entry:
  tail call void @_ZN7testing4TestD2Ev(ptr noundef nonnull align 8 dereferenceable(16) %this) #15
  ret void
}

; Function Attrs: mustprogress nounwind uwtable
define internal void @_ZN4absl13base_internal12_GLOBAL__N_133InvokeTest_OverloadedFunctor_TestD0Ev(ptr noundef nonnull align 8 dereferenceable(16) %this) unnamed_addr #7 align 2 {
entry:
  tail call void @_ZN7testing4TestD2Ev(ptr noundef nonnull align 8 dereferenceable(16) %this) #15
  tail call void @_ZdlPv(ptr noundef nonnull %this) #16
  ret void
}

; Function Attrs: mustprogress uwtable
define internal void @_ZN4absl13base_internal12_GLOBAL__N_133InvokeTest_OverloadedFunctor_Test8TestBodyEv(ptr nocapture nonnull readnone align 8 %this) unnamed_addr #3 align 2 personality ptr @__gxx_personality_v0 {
entry:
  %ref.tmp.i.i.i.i141 = alloca %"class.absl::AlphaNum", align 8
  %ref.tmp2.i.i.i.i142 = alloca %"class.absl::AlphaNum", align 8
  %ref.tmp.i.i.i.i.i112 = alloca %"class.std::allocator", align 1
  %ref.tmp.i.i.i.i83 = alloca %"class.absl::AlphaNum", align 8
  %ref.tmp2.i.i.i.i84 = alloca %"class.absl::AlphaNum", align 8
  %ref.tmp.i.i.i.i.i54 = alloca %"class.std::allocator", align 1
  %ref.tmp.i.i.i.i = alloca %"class.absl::AlphaNum", align 8
  %ref.tmp2.i.i.i.i = alloca %"class.absl::AlphaNum", align 8
  %ref.tmp.i.i.i.i.i = alloca %"class.std::allocator", align 1
  %gtest_ar = alloca %"class.testing::AssertionResult", align 8
  %ref.tmp = alloca %"class.std::__cxx11::basic_string", align 8
  %ref.tmp2 = alloca %"class.testing::Message", align 8
  %ref.tmp5 = alloca %"class.testing::internal::AssertHelper", align 8
  %gtest_ar13 = alloca %"class.testing::AssertionResult", align 8
  %ref.tmp14 = alloca %"class.std::__cxx11::basic_string", align 8
  %ref.tmp21 = alloca %"class.testing::Message", align 8
  %ref.tmp24 = alloca %"class.testing::internal::AssertHelper", align 8
  %gtest_ar35 = alloca %"class.testing::AssertionResult", align 8
  %ref.tmp36 = alloca %"class.std::__cxx11::basic_string", align 8
  %ref.tmp43 = alloca %"class.testing::Message", align 8
  %ref.tmp46 = alloca %"class.testing::internal::AssertHelper", align 8
  %gtest_ar57 = alloca %"class.testing::AssertionResult", align 8
  %ref.tmp58 = alloca %"class.std::__cxx11::basic_string", align 8
  %ref.tmp65 = alloca %"class.testing::Message", align 8
  %ref.tmp68 = alloca %"class.testing::internal::AssertHelper", align 8
  %gtest_ar79 = alloca %"class.testing::AssertionResult", align 8
  %ref.tmp80 = alloca %"class.std::__cxx11::basic_string", align 8
  %ref.tmp87 = alloca %"class.testing::Message", align 8
  %ref.tmp90 = alloca %"class.testing::internal::AssertHelper", align 8
  %gtest_ar101 = alloca %"class.testing::AssertionResult", align 8
  %ref.tmp102 = alloca %"class.std::__cxx11::basic_string", align 8
  %ref.tmp109 = alloca %"class.testing::Message", align 8
  %ref.tmp112 = alloca %"class.testing::internal::AssertHelper", align 8
  call void @llvm.lifetime.start.p0(i64 1, ptr nonnull %ref.tmp.i.i.i.i.i), !noalias !60
  call void @_ZNSaIcEC1Ev(ptr noundef nonnull align 1 dereferenceable(1) %ref.tmp.i.i.i.i.i) #15, !noalias !69
  invoke void @_ZNSt7__cxx1112basic_stringIcSt11char_traitsIcESaIcEEC1EPKcmRKS3_(ptr noundef nonnull align 8 dereferenceable(32) %ref.tmp, ptr noundef nonnull @.str.93, i64 noundef 1, ptr noundef nonnull align 1 dereferenceable(1) %ref.tmp.i.i.i.i.i)
          to label %_ZSt6invokeB5cxx11IRN4absl13base_internal12_GLOBAL__N_117OverloadedFunctorEJEENSt13invoke_resultIT_JDpT0_EE4typeEOS6_DpOS7_.exit unwind label %lpad.i.i.i.i.i

common.resume:                                    ; preds = %lpad, %ehcleanup12, %lpad15, %ehcleanup34, %lpad37, %ehcleanup56, %lpad59, %ehcleanup78, %lpad81, %ehcleanup100, %lpad103, %ehcleanup122, %lpad.i.i.i.i.i113, %lpad.i.i.i.i.i55, %lpad.i.i.i.i.i
  %common.resume.op = phi { ptr, i32 } [ %0, %lpad.i.i.i.i.i ], [ %27, %lpad.i.i.i.i.i55 ], [ %54, %lpad.i.i.i.i.i113 ], [ %.pn16.pn, %ehcleanup122 ], [ %71, %lpad103 ], [ %.pn13.pn, %ehcleanup100 ], [ %57, %lpad81 ], [ %.pn10.pn, %ehcleanup78 ], [ %44, %lpad59 ], [ %.pn7.pn, %ehcleanup56 ], [ %30, %lpad37 ], [ %.pn4.pn, %ehcleanup34 ], [ %17, %lpad15 ], [ %.pn.pn, %ehcleanup12 ], [ %3, %lpad ]
  resume { ptr, i32 } %common.resume.op

lpad.i.i.i.i.i:                                   ; preds = %entry
  %0 = landingpad { ptr, i32 }
          cleanup
  call void @_ZNSaIcED1Ev(ptr noundef nonnull align 1 dereferenceable(1) %ref.tmp.i.i.i.i.i) #15
  br label %common.resume

_ZSt6invokeB5cxx11IRN4absl13base_internal12_GLOBAL__N_117OverloadedFunctorEJEENSt13invoke_resultIT_JDpT0_EE4typeEOS6_DpOS7_.exit: ; preds = %entry
  call void @_ZNSaIcED1Ev(ptr noundef nonnull align 1 dereferenceable(1) %ref.tmp.i.i.i.i.i) #15
  call void @llvm.lifetime.end.p0(i64 1, ptr nonnull %ref.tmp.i.i.i.i.i), !noalias !60
  %call.i.i.i = call noundef i32 @_ZNKSt7__cxx1112basic_stringIcSt11char_traitsIcESaIcEE7compareEPKc(ptr noundef nonnull align 8 dereferenceable(32) %ref.tmp, ptr noundef nonnull @.str.93) #15, !noalias !72
  %cmp.i.i.i = icmp eq i32 %call.i.i.i, 0
  br i1 %cmp.i.i.i, label %if.then.i.i, label %if.end.i.i

if.then.i.i:                                      ; preds = %_ZSt6invokeB5cxx11IRN4absl13base_internal12_GLOBAL__N_117OverloadedFunctorEJEENSt13invoke_resultIT_JDpT0_EE4typeEOS6_DpOS7_.exit
  invoke void @_ZN7testing16AssertionSuccessEv(ptr nonnull sret(%"class.testing::AssertionResult") align 8 %gtest_ar)
          to label %invoke.cont unwind label %lpad

if.end.i.i:                                       ; preds = %_ZSt6invokeB5cxx11IRN4absl13base_internal12_GLOBAL__N_117OverloadedFunctorEJEENSt13invoke_resultIT_JDpT0_EE4typeEOS6_DpOS7_.exit
  invoke void @_ZN7testing8internal18CmpHelperEQFailureIA2_cNSt7__cxx1112basic_stringIcSt11char_traitsIcESaIcEEEEENS_15AssertionResultEPKcSB_RKT_RKT0_(ptr nonnull sret(%"class.testing::AssertionResult") align 8 %gtest_ar, ptr noundef nonnull @.str.91, ptr noundef nonnull @.str.92, ptr noundef nonnull align 1 dereferenceable(2) @.str.93, ptr noundef nonnull align 8 dereferenceable(32) %ref.tmp)
          to label %invoke.cont unwind label %lpad

invoke.cont:                                      ; preds = %if.then.i.i, %if.end.i.i
  call void @_ZNSt7__cxx1112basic_stringIcSt11char_traitsIcESaIcEED1Ev(ptr noundef nonnull align 8 dereferenceable(32) %ref.tmp) #15
  %1 = load i8, ptr %gtest_ar, align 8
  %2 = and i8 %1, 1
  %tobool.i.not = icmp eq i8 %2, 0
  br i1 %tobool.i.not, label %if.else, label %if.end

lpad:                                             ; preds = %if.end.i.i, %if.then.i.i
  %3 = landingpad { ptr, i32 }
          cleanup
  call void @_ZNSt7__cxx1112basic_stringIcSt11char_traitsIcESaIcEED1Ev(ptr noundef nonnull align 8 dereferenceable(32) %ref.tmp) #15
  br label %common.resume

if.else:                                          ; preds = %invoke.cont
  invoke void @_ZN7testing7MessageC1Ev(ptr noundef nonnull align 8 dereferenceable(8) %ref.tmp2)
          to label %invoke.cont4 unwind label %lpad3

invoke.cont4:                                     ; preds = %if.else
  %message_.i.i = getelementptr inbounds %"class.testing::AssertionResult", ptr %gtest_ar, i64 0, i32 1
  %4 = load ptr, ptr %message_.i.i, align 8
  %cmp.i.i.not.i.i = icmp eq ptr %4, null
  br i1 %cmp.i.i.not.i.i, label %invoke.cont7, label %cond.true.i.i

cond.true.i.i:                                    ; preds = %invoke.cont4
  %call4.i.i = call noundef ptr @_ZNKSt7__cxx1112basic_stringIcSt11char_traitsIcESaIcEE5c_strEv(ptr noundef nonnull align 8 dereferenceable(32) %4) #15
  br label %invoke.cont7

invoke.cont7:                                     ; preds = %cond.true.i.i, %invoke.cont4
  %cond.i.i = phi ptr [ %call4.i.i, %cond.true.i.i ], [ @.str.60, %invoke.cont4 ]
  invoke void @_ZN7testing8internal12AssertHelperC1ENS_14TestPartResult4TypeEPKciS5_(ptr noundef nonnull align 8 dereferenceable(8) %ref.tmp5, i32 noundef 1, ptr noundef nonnull @.str.3, i32 noundef 146, ptr noundef %cond.i.i)
          to label %invoke.cont9 unwind label %lpad6

invoke.cont9:                                     ; preds = %invoke.cont7
  invoke void @_ZNK7testing8internal12AssertHelperaSERKNS_7MessageE(ptr noundef nonnull align 8 dereferenceable(8) %ref.tmp5, ptr noundef nonnull align 8 dereferenceable(8) %ref.tmp2)
          to label %invoke.cont11 unwind label %lpad10

invoke.cont11:                                    ; preds = %invoke.cont9
  call void @_ZN7testing8internal12AssertHelperD1Ev(ptr noundef nonnull align 8 dereferenceable(8) %ref.tmp5) #15
  %5 = load ptr, ptr %ref.tmp2, align 8
  %cmp.not.i.i = icmp eq ptr %5, null
  br i1 %cmp.not.i.i, label %_ZN7testing7MessageD2Ev.exit, label %_ZNKSt14default_deleteINSt7__cxx1118basic_stringstreamIcSt11char_traitsIcESaIcEEEEclEPS5_.exit.i.i

_ZNKSt14default_deleteINSt7__cxx1118basic_stringstreamIcSt11char_traitsIcESaIcEEEEclEPS5_.exit.i.i: ; preds = %invoke.cont11
  %vtable.i.i.i = load ptr, ptr %5, align 8
  %vfn.i.i.i = getelementptr inbounds ptr, ptr %vtable.i.i.i, i64 1
  %6 = load ptr, ptr %vfn.i.i.i, align 8
  call void %6(ptr noundef nonnull align 8 dereferenceable(128) %5) #15
  br label %_ZN7testing7MessageD2Ev.exit

_ZN7testing7MessageD2Ev.exit:                     ; preds = %invoke.cont11, %_ZNKSt14default_deleteINSt7__cxx1118basic_stringstreamIcSt11char_traitsIcESaIcEEEEclEPS5_.exit.i.i
  store ptr null, ptr %ref.tmp2, align 8
  br label %if.end

lpad3:                                            ; preds = %if.else
  %7 = landingpad { ptr, i32 }
          cleanup
  br label %ehcleanup12

lpad6:                                            ; preds = %invoke.cont7
  %8 = landingpad { ptr, i32 }
          cleanup
  br label %ehcleanup

lpad10:                                           ; preds = %invoke.cont9
  %9 = landingpad { ptr, i32 }
          cleanup
  call void @_ZN7testing8internal12AssertHelperD1Ev(ptr noundef nonnull align 8 dereferenceable(8) %ref.tmp5) #15
  br label %ehcleanup

ehcleanup:                                        ; preds = %lpad10, %lpad6
  %.pn = phi { ptr, i32 } [ %9, %lpad10 ], [ %8, %lpad6 ]
  %10 = load ptr, ptr %ref.tmp2, align 8
  %cmp.not.i.i21 = icmp eq ptr %10, null
  br i1 %cmp.not.i.i21, label %_ZN7testing7MessageD2Ev.exit25, label %_ZNKSt14default_deleteINSt7__cxx1118basic_stringstreamIcSt11char_traitsIcESaIcEEEEclEPS5_.exit.i.i22

_ZNKSt14default_deleteINSt7__cxx1118basic_stringstreamIcSt11char_traitsIcESaIcEEEEclEPS5_.exit.i.i22: ; preds = %ehcleanup
  %vtable.i.i.i23 = load ptr, ptr %10, align 8
  %vfn.i.i.i24 = getelementptr inbounds ptr, ptr %vtable.i.i.i23, i64 1
  %11 = load ptr, ptr %vfn.i.i.i24, align 8
  call void %11(ptr noundef nonnull align 8 dereferenceable(128) %10) #15
  br label %_ZN7testing7MessageD2Ev.exit25

_ZN7testing7MessageD2Ev.exit25:                   ; preds = %ehcleanup, %_ZNKSt14default_deleteINSt7__cxx1118basic_stringstreamIcSt11char_traitsIcESaIcEEEEclEPS5_.exit.i.i22
  store ptr null, ptr %ref.tmp2, align 8
  br label %ehcleanup12

if.end:                                           ; preds = %invoke.cont, %_ZN7testing7MessageD2Ev.exit
  %message_.i = getelementptr inbounds %"class.testing::AssertionResult", ptr %gtest_ar, i64 0, i32 1
  %12 = load ptr, ptr %message_.i, align 8
  %cmp.not.i.i26 = icmp eq ptr %12, null
  br i1 %cmp.not.i.i26, label %_ZN7testing15AssertionResultD2Ev.exit, label %_ZNKSt14default_deleteINSt7__cxx1112basic_stringIcSt11char_traitsIcESaIcEEEEclEPS5_.exit.i.i

_ZNKSt14default_deleteINSt7__cxx1112basic_stringIcSt11char_traitsIcESaIcEEEEclEPS5_.exit.i.i: ; preds = %if.end
  call void @_ZNSt7__cxx1112basic_stringIcSt11char_traitsIcESaIcEED1Ev(ptr noundef nonnull align 8 dereferenceable(32) %12) #15
  call void @_ZdlPv(ptr noundef nonnull %12) #16
  br label %_ZN7testing15AssertionResultD2Ev.exit

_ZN7testing15AssertionResultD2Ev.exit:            ; preds = %if.end, %_ZNKSt14default_deleteINSt7__cxx1112basic_stringIcSt11char_traitsIcESaIcEEEEclEPS5_.exit.i.i
  store ptr null, ptr %message_.i, align 8
  call void @llvm.lifetime.start.p0(i64 48, ptr nonnull %ref.tmp.i.i.i.i), !noalias !77
  call void @llvm.lifetime.start.p0(i64 48, ptr nonnull %ref.tmp2.i.i.i.i), !noalias !77
  store i64 1, ptr %ref.tmp.i.i.i.i, align 8, !noalias !84
  %13 = getelementptr inbounds { i64, ptr }, ptr %ref.tmp.i.i.i.i, i64 0, i32 1
  store ptr @.str.93, ptr %13, align 8, !noalias !84
  store i64 3, ptr %ref.tmp2.i.i.i.i, align 8, !noalias !84
  %14 = getelementptr inbounds { i64, ptr }, ptr %ref.tmp2.i.i.i.i, i64 0, i32 1
  store ptr @.str.97, ptr %14, align 8, !noalias !84
  call void @_ZN4absl6StrCatB5cxx11ERKNS_8AlphaNumES2_(ptr nonnull sret(%"class.std::__cxx11::basic_string") align 8 %ref.tmp14, ptr noundef nonnull align 8 dereferenceable(48) %ref.tmp.i.i.i.i, ptr noundef nonnull align 8 dereferenceable(48) %ref.tmp2.i.i.i.i)
  call void @llvm.lifetime.end.p0(i64 48, ptr nonnull %ref.tmp.i.i.i.i), !noalias !77
  call void @llvm.lifetime.end.p0(i64 48, ptr nonnull %ref.tmp2.i.i.i.i), !noalias !77
  %call.i.i.i27 = call noundef i32 @_ZNKSt7__cxx1112basic_stringIcSt11char_traitsIcESaIcEE7compareEPKc(ptr noundef nonnull align 8 dereferenceable(32) %ref.tmp14, ptr noundef nonnull @.str.96) #15, !noalias !87
  %cmp.i.i.i28 = icmp eq i32 %call.i.i.i27, 0
  br i1 %cmp.i.i.i28, label %if.then.i.i30, label %if.end.i.i29

if.then.i.i30:                                    ; preds = %_ZN7testing15AssertionResultD2Ev.exit
  invoke void @_ZN7testing16AssertionSuccessEv(ptr nonnull sret(%"class.testing::AssertionResult") align 8 %gtest_ar13)
          to label %invoke.cont16 unwind label %lpad15

if.end.i.i29:                                     ; preds = %_ZN7testing15AssertionResultD2Ev.exit
  invoke void @_ZN7testing8internal18CmpHelperEQFailureIA5_cNSt7__cxx1112basic_stringIcSt11char_traitsIcESaIcEEEEENS_15AssertionResultEPKcSB_RKT_RKT0_(ptr nonnull sret(%"class.testing::AssertionResult") align 8 %gtest_ar13, ptr noundef nonnull @.str.94, ptr noundef nonnull @.str.95, ptr noundef nonnull align 1 dereferenceable(5) @.str.96, ptr noundef nonnull align 8 dereferenceable(32) %ref.tmp14)
          to label %invoke.cont16 unwind label %lpad15

invoke.cont16:                                    ; preds = %if.then.i.i30, %if.end.i.i29
  call void @_ZNSt7__cxx1112basic_stringIcSt11char_traitsIcESaIcEED1Ev(ptr noundef nonnull align 8 dereferenceable(32) %ref.tmp14) #15
  %15 = load i8, ptr %gtest_ar13, align 8
  %16 = and i8 %15, 1
  %tobool.i33.not = icmp eq i8 %16, 0
  br i1 %tobool.i33.not, label %if.else20, label %if.end33

ehcleanup12:                                      ; preds = %_ZN7testing7MessageD2Ev.exit25, %lpad3
  %.pn.pn = phi { ptr, i32 } [ %.pn, %_ZN7testing7MessageD2Ev.exit25 ], [ %7, %lpad3 ]
  call void @_ZN7testing15AssertionResultD2Ev(ptr noundef nonnull align 8 dereferenceable(16) %gtest_ar) #15
  br label %common.resume

lpad15:                                           ; preds = %if.end.i.i29, %if.then.i.i30
  %17 = landingpad { ptr, i32 }
          cleanup
  call void @_ZNSt7__cxx1112basic_stringIcSt11char_traitsIcESaIcEED1Ev(ptr noundef nonnull align 8 dereferenceable(32) %ref.tmp14) #15
  br label %common.resume

if.else20:                                        ; preds = %invoke.cont16
  invoke void @_ZN7testing7MessageC1Ev(ptr noundef nonnull align 8 dereferenceable(8) %ref.tmp21)
          to label %invoke.cont23 unwind label %lpad22

invoke.cont23:                                    ; preds = %if.else20
  %message_.i.i34 = getelementptr inbounds %"class.testing::AssertionResult", ptr %gtest_ar13, i64 0, i32 1
  %18 = load ptr, ptr %message_.i.i34, align 8
  %cmp.i.i.not.i.i35 = icmp eq ptr %18, null
  br i1 %cmp.i.i.not.i.i35, label %invoke.cont26, label %cond.true.i.i36

cond.true.i.i36:                                  ; preds = %invoke.cont23
  %call4.i.i37 = call noundef ptr @_ZNKSt7__cxx1112basic_stringIcSt11char_traitsIcESaIcEE5c_strEv(ptr noundef nonnull align 8 dereferenceable(32) %18) #15
  br label %invoke.cont26

invoke.cont26:                                    ; preds = %cond.true.i.i36, %invoke.cont23
  %cond.i.i38 = phi ptr [ %call4.i.i37, %cond.true.i.i36 ], [ @.str.60, %invoke.cont23 ]
  invoke void @_ZN7testing8internal12AssertHelperC1ENS_14TestPartResult4TypeEPKciS5_(ptr noundef nonnull align 8 dereferenceable(8) %ref.tmp24, i32 noundef 1, ptr noundef nonnull @.str.3, i32 noundef 147, ptr noundef %cond.i.i38)
          to label %invoke.cont28 unwind label %lpad25

invoke.cont28:                                    ; preds = %invoke.cont26
  invoke void @_ZNK7testing8internal12AssertHelperaSERKNS_7MessageE(ptr noundef nonnull align 8 dereferenceable(8) %ref.tmp24, ptr noundef nonnull align 8 dereferenceable(8) %ref.tmp21)
          to label %invoke.cont30 unwind label %lpad29

invoke.cont30:                                    ; preds = %invoke.cont28
  call void @_ZN7testing8internal12AssertHelperD1Ev(ptr noundef nonnull align 8 dereferenceable(8) %ref.tmp24) #15
  %19 = load ptr, ptr %ref.tmp21, align 8
  %cmp.not.i.i40 = icmp eq ptr %19, null
  br i1 %cmp.not.i.i40, label %_ZN7testing7MessageD2Ev.exit44, label %_ZNKSt14default_deleteINSt7__cxx1118basic_stringstreamIcSt11char_traitsIcESaIcEEEEclEPS5_.exit.i.i41

_ZNKSt14default_deleteINSt7__cxx1118basic_stringstreamIcSt11char_traitsIcESaIcEEEEclEPS5_.exit.i.i41: ; preds = %invoke.cont30
  %vtable.i.i.i42 = load ptr, ptr %19, align 8
  %vfn.i.i.i43 = getelementptr inbounds ptr, ptr %vtable.i.i.i42, i64 1
  %20 = load ptr, ptr %vfn.i.i.i43, align 8
  call void %20(ptr noundef nonnull align 8 dereferenceable(128) %19) #15
  br label %_ZN7testing7MessageD2Ev.exit44

_ZN7testing7MessageD2Ev.exit44:                   ; preds = %invoke.cont30, %_ZNKSt14default_deleteINSt7__cxx1118basic_stringstreamIcSt11char_traitsIcESaIcEEEEclEPS5_.exit.i.i41
  store ptr null, ptr %ref.tmp21, align 8
  br label %if.end33

lpad22:                                           ; preds = %if.else20
  %21 = landingpad { ptr, i32 }
          cleanup
  br label %ehcleanup34

lpad25:                                           ; preds = %invoke.cont26
  %22 = landingpad { ptr, i32 }
          cleanup
  br label %ehcleanup32

lpad29:                                           ; preds = %invoke.cont28
  %23 = landingpad { ptr, i32 }
          cleanup
  call void @_ZN7testing8internal12AssertHelperD1Ev(ptr noundef nonnull align 8 dereferenceable(8) %ref.tmp24) #15
  br label %ehcleanup32

ehcleanup32:                                      ; preds = %lpad29, %lpad25
  %.pn4 = phi { ptr, i32 } [ %23, %lpad29 ], [ %22, %lpad25 ]
  %24 = load ptr, ptr %ref.tmp21, align 8
  %cmp.not.i.i45 = icmp eq ptr %24, null
  br i1 %cmp.not.i.i45, label %_ZN7testing7MessageD2Ev.exit49, label %_ZNKSt14default_deleteINSt7__cxx1118basic_stringstreamIcSt11char_traitsIcESaIcEEEEclEPS5_.exit.i.i46

_ZNKSt14default_deleteINSt7__cxx1118basic_stringstreamIcSt11char_traitsIcESaIcEEEEclEPS5_.exit.i.i46: ; preds = %ehcleanup32
  %vtable.i.i.i47 = load ptr, ptr %24, align 8
  %vfn.i.i.i48 = getelementptr inbounds ptr, ptr %vtable.i.i.i47, i64 1
  %25 = load ptr, ptr %vfn.i.i.i48, align 8
  call void %25(ptr noundef nonnull align 8 dereferenceable(128) %24) #15
  br label %_ZN7testing7MessageD2Ev.exit49

_ZN7testing7MessageD2Ev.exit49:                   ; preds = %ehcleanup32, %_ZNKSt14default_deleteINSt7__cxx1118basic_stringstreamIcSt11char_traitsIcESaIcEEEEclEPS5_.exit.i.i46
  store ptr null, ptr %ref.tmp21, align 8
  br label %ehcleanup34

if.end33:                                         ; preds = %invoke.cont16, %_ZN7testing7MessageD2Ev.exit44
  %message_.i50 = getelementptr inbounds %"class.testing::AssertionResult", ptr %gtest_ar13, i64 0, i32 1
  %26 = load ptr, ptr %message_.i50, align 8
  %cmp.not.i.i51 = icmp eq ptr %26, null
  br i1 %cmp.not.i.i51, label %_ZN7testing15AssertionResultD2Ev.exit53, label %_ZNKSt14default_deleteINSt7__cxx1112basic_stringIcSt11char_traitsIcESaIcEEEEclEPS5_.exit.i.i52

_ZNKSt14default_deleteINSt7__cxx1112basic_stringIcSt11char_traitsIcESaIcEEEEclEPS5_.exit.i.i52: ; preds = %if.end33
  call void @_ZNSt7__cxx1112basic_stringIcSt11char_traitsIcESaIcEED1Ev(ptr noundef nonnull align 8 dereferenceable(32) %26) #15
  call void @_ZdlPv(ptr noundef nonnull %26) #16
  br label %_ZN7testing15AssertionResultD2Ev.exit53

_ZN7testing15AssertionResultD2Ev.exit53:          ; preds = %if.end33, %_ZNKSt14default_deleteINSt7__cxx1112basic_stringIcSt11char_traitsIcESaIcEEEEclEPS5_.exit.i.i52
  store ptr null, ptr %message_.i50, align 8
  call void @llvm.lifetime.start.p0(i64 1, ptr nonnull %ref.tmp.i.i.i.i.i54), !noalias !92
  call void @_ZNSaIcEC1Ev(ptr noundef nonnull align 1 dereferenceable(1) %ref.tmp.i.i.i.i.i54) #15, !noalias !101
  invoke void @_ZNSt7__cxx1112basic_stringIcSt11char_traitsIcESaIcEEC1EPKcmRKS3_(ptr noundef nonnull align 8 dereferenceable(32) %ref.tmp36, ptr noundef nonnull @.str.100, i64 noundef 6, ptr noundef nonnull align 1 dereferenceable(1) %ref.tmp.i.i.i.i.i54)
          to label %_ZSt6invokeB5cxx11IRKN4absl13base_internal12_GLOBAL__N_117OverloadedFunctorEJEENSt13invoke_resultIT_JDpT0_EE4typeEOS7_DpOS8_.exit unwind label %lpad.i.i.i.i.i55

lpad.i.i.i.i.i55:                                 ; preds = %_ZN7testing15AssertionResultD2Ev.exit53
  %27 = landingpad { ptr, i32 }
          cleanup
  call void @_ZNSaIcED1Ev(ptr noundef nonnull align 1 dereferenceable(1) %ref.tmp.i.i.i.i.i54) #15
  br label %common.resume

_ZSt6invokeB5cxx11IRKN4absl13base_internal12_GLOBAL__N_117OverloadedFunctorEJEENSt13invoke_resultIT_JDpT0_EE4typeEOS7_DpOS8_.exit: ; preds = %_ZN7testing15AssertionResultD2Ev.exit53
  call void @_ZNSaIcED1Ev(ptr noundef nonnull align 1 dereferenceable(1) %ref.tmp.i.i.i.i.i54) #15
  call void @llvm.lifetime.end.p0(i64 1, ptr nonnull %ref.tmp.i.i.i.i.i54), !noalias !92
  %call.i.i.i56 = call noundef i32 @_ZNKSt7__cxx1112basic_stringIcSt11char_traitsIcESaIcEE7compareEPKc(ptr noundef nonnull align 8 dereferenceable(32) %ref.tmp36, ptr noundef nonnull @.str.100) #15, !noalias !104
  %cmp.i.i.i57 = icmp eq i32 %call.i.i.i56, 0
  br i1 %cmp.i.i.i57, label %if.then.i.i59, label %if.end.i.i58

if.then.i.i59:                                    ; preds = %_ZSt6invokeB5cxx11IRKN4absl13base_internal12_GLOBAL__N_117OverloadedFunctorEJEENSt13invoke_resultIT_JDpT0_EE4typeEOS7_DpOS8_.exit
  invoke void @_ZN7testing16AssertionSuccessEv(ptr nonnull sret(%"class.testing::AssertionResult") align 8 %gtest_ar35)
          to label %invoke.cont38 unwind label %lpad37

if.end.i.i58:                                     ; preds = %_ZSt6invokeB5cxx11IRKN4absl13base_internal12_GLOBAL__N_117OverloadedFunctorEJEENSt13invoke_resultIT_JDpT0_EE4typeEOS7_DpOS8_.exit
  invoke void @_ZN7testing8internal18CmpHelperEQFailureIA7_cNSt7__cxx1112basic_stringIcSt11char_traitsIcESaIcEEEEENS_15AssertionResultEPKcSB_RKT_RKT0_(ptr nonnull sret(%"class.testing::AssertionResult") align 8 %gtest_ar35, ptr noundef nonnull @.str.98, ptr noundef nonnull @.str.99, ptr noundef nonnull align 1 dereferenceable(7) @.str.100, ptr noundef nonnull align 8 dereferenceable(32) %ref.tmp36)
          to label %invoke.cont38 unwind label %lpad37

invoke.cont38:                                    ; preds = %if.then.i.i59, %if.end.i.i58
  call void @_ZNSt7__cxx1112basic_stringIcSt11char_traitsIcESaIcEED1Ev(ptr noundef nonnull align 8 dereferenceable(32) %ref.tmp36) #15
  %28 = load i8, ptr %gtest_ar35, align 8
  %29 = and i8 %28, 1
  %tobool.i62.not = icmp eq i8 %29, 0
  br i1 %tobool.i62.not, label %if.else42, label %if.end55

ehcleanup34:                                      ; preds = %_ZN7testing7MessageD2Ev.exit49, %lpad22
  %.pn4.pn = phi { ptr, i32 } [ %.pn4, %_ZN7testing7MessageD2Ev.exit49 ], [ %21, %lpad22 ]
  call void @_ZN7testing15AssertionResultD2Ev(ptr noundef nonnull align 8 dereferenceable(16) %gtest_ar13) #15
  br label %common.resume

lpad37:                                           ; preds = %if.end.i.i58, %if.then.i.i59
  %30 = landingpad { ptr, i32 }
          cleanup
  call void @_ZNSt7__cxx1112basic_stringIcSt11char_traitsIcESaIcEED1Ev(ptr noundef nonnull align 8 dereferenceable(32) %ref.tmp36) #15
  br label %common.resume

if.else42:                                        ; preds = %invoke.cont38
  invoke void @_ZN7testing7MessageC1Ev(ptr noundef nonnull align 8 dereferenceable(8) %ref.tmp43)
          to label %invoke.cont45 unwind label %lpad44

invoke.cont45:                                    ; preds = %if.else42
  %message_.i.i63 = getelementptr inbounds %"class.testing::AssertionResult", ptr %gtest_ar35, i64 0, i32 1
  %31 = load ptr, ptr %message_.i.i63, align 8
  %cmp.i.i.not.i.i64 = icmp eq ptr %31, null
  br i1 %cmp.i.i.not.i.i64, label %invoke.cont48, label %cond.true.i.i65

cond.true.i.i65:                                  ; preds = %invoke.cont45
  %call4.i.i66 = call noundef ptr @_ZNKSt7__cxx1112basic_stringIcSt11char_traitsIcESaIcEE5c_strEv(ptr noundef nonnull align 8 dereferenceable(32) %31) #15
  br label %invoke.cont48

invoke.cont48:                                    ; preds = %cond.true.i.i65, %invoke.cont45
  %cond.i.i67 = phi ptr [ %call4.i.i66, %cond.true.i.i65 ], [ @.str.60, %invoke.cont45 ]
  invoke void @_ZN7testing8internal12AssertHelperC1ENS_14TestPartResult4TypeEPKciS5_(ptr noundef nonnull align 8 dereferenceable(8) %ref.tmp46, i32 noundef 1, ptr noundef nonnull @.str.3, i32 noundef 149, ptr noundef %cond.i.i67)
          to label %invoke.cont50 unwind label %lpad47

invoke.cont50:                                    ; preds = %invoke.cont48
  invoke void @_ZNK7testing8internal12AssertHelperaSERKNS_7MessageE(ptr noundef nonnull align 8 dereferenceable(8) %ref.tmp46, ptr noundef nonnull align 8 dereferenceable(8) %ref.tmp43)
          to label %invoke.cont52 unwind label %lpad51

invoke.cont52:                                    ; preds = %invoke.cont50
  call void @_ZN7testing8internal12AssertHelperD1Ev(ptr noundef nonnull align 8 dereferenceable(8) %ref.tmp46) #15
  %32 = load ptr, ptr %ref.tmp43, align 8
  %cmp.not.i.i69 = icmp eq ptr %32, null
  br i1 %cmp.not.i.i69, label %_ZN7testing7MessageD2Ev.exit73, label %_ZNKSt14default_deleteINSt7__cxx1118basic_stringstreamIcSt11char_traitsIcESaIcEEEEclEPS5_.exit.i.i70

_ZNKSt14default_deleteINSt7__cxx1118basic_stringstreamIcSt11char_traitsIcESaIcEEEEclEPS5_.exit.i.i70: ; preds = %invoke.cont52
  %vtable.i.i.i71 = load ptr, ptr %32, align 8
  %vfn.i.i.i72 = getelementptr inbounds ptr, ptr %vtable.i.i.i71, i64 1
  %33 = load ptr, ptr %vfn.i.i.i72, align 8
  call void %33(ptr noundef nonnull align 8 dereferenceable(128) %32) #15
  br label %_ZN7testing7MessageD2Ev.exit73

_ZN7testing7MessageD2Ev.exit73:                   ; preds = %invoke.cont52, %_ZNKSt14default_deleteINSt7__cxx1118basic_stringstreamIcSt11char_traitsIcESaIcEEEEclEPS5_.exit.i.i70
  store ptr null, ptr %ref.tmp43, align 8
  br label %if.end55

lpad44:                                           ; preds = %if.else42
  %34 = landingpad { ptr, i32 }
          cleanup
  br label %ehcleanup56

lpad47:                                           ; preds = %invoke.cont48
  %35 = landingpad { ptr, i32 }
          cleanup
  br label %ehcleanup54

lpad51:                                           ; preds = %invoke.cont50
  %36 = landingpad { ptr, i32 }
          cleanup
  call void @_ZN7testing8internal12AssertHelperD1Ev(ptr noundef nonnull align 8 dereferenceable(8) %ref.tmp46) #15
  br label %ehcleanup54

ehcleanup54:                                      ; preds = %lpad51, %lpad47
  %.pn7 = phi { ptr, i32 } [ %36, %lpad51 ], [ %35, %lpad47 ]
  %37 = load ptr, ptr %ref.tmp43, align 8
  %cmp.not.i.i74 = icmp eq ptr %37, null
  br i1 %cmp.not.i.i74, label %_ZN7testing7MessageD2Ev.exit78, label %_ZNKSt14default_deleteINSt7__cxx1118basic_stringstreamIcSt11char_traitsIcESaIcEEEEclEPS5_.exit.i.i75

_ZNKSt14default_deleteINSt7__cxx1118basic_stringstreamIcSt11char_traitsIcESaIcEEEEclEPS5_.exit.i.i75: ; preds = %ehcleanup54
  %vtable.i.i.i76 = load ptr, ptr %37, align 8
  %vfn.i.i.i77 = getelementptr inbounds ptr, ptr %vtable.i.i.i76, i64 1
  %38 = load ptr, ptr %vfn.i.i.i77, align 8
  call void %38(ptr noundef nonnull align 8 dereferenceable(128) %37) #15
  br label %_ZN7testing7MessageD2Ev.exit78

_ZN7testing7MessageD2Ev.exit78:                   ; preds = %ehcleanup54, %_ZNKSt14default_deleteINSt7__cxx1118basic_stringstreamIcSt11char_traitsIcESaIcEEEEclEPS5_.exit.i.i75
  store ptr null, ptr %ref.tmp43, align 8
  br label %ehcleanup56

if.end55:                                         ; preds = %invoke.cont38, %_ZN7testing7MessageD2Ev.exit73
  %message_.i79 = getelementptr inbounds %"class.testing::AssertionResult", ptr %gtest_ar35, i64 0, i32 1
  %39 = load ptr, ptr %message_.i79, align 8
  %cmp.not.i.i80 = icmp eq ptr %39, null
  br i1 %cmp.not.i.i80, label %_ZN7testing15AssertionResultD2Ev.exit82, label %_ZNKSt14default_deleteINSt7__cxx1112basic_stringIcSt11char_traitsIcESaIcEEEEclEPS5_.exit.i.i81

_ZNKSt14default_deleteINSt7__cxx1112basic_stringIcSt11char_traitsIcESaIcEEEEclEPS5_.exit.i.i81: ; preds = %if.end55
  call void @_ZNSt7__cxx1112basic_stringIcSt11char_traitsIcESaIcEED1Ev(ptr noundef nonnull align 8 dereferenceable(32) %39) #15
  call void @_ZdlPv(ptr noundef nonnull %39) #16
  br label %_ZN7testing15AssertionResultD2Ev.exit82

_ZN7testing15AssertionResultD2Ev.exit82:          ; preds = %if.end55, %_ZNKSt14default_deleteINSt7__cxx1112basic_stringIcSt11char_traitsIcESaIcEEEEclEPS5_.exit.i.i81
  store ptr null, ptr %message_.i79, align 8
  call void @llvm.lifetime.start.p0(i64 48, ptr nonnull %ref.tmp.i.i.i.i83), !noalias !109
  call void @llvm.lifetime.start.p0(i64 48, ptr nonnull %ref.tmp2.i.i.i.i84), !noalias !109
  store i64 6, ptr %ref.tmp.i.i.i.i83, align 8, !noalias !116
  %40 = getelementptr inbounds { i64, ptr }, ptr %ref.tmp.i.i.i.i83, i64 0, i32 1
  store ptr @.str.100, ptr %40, align 8, !noalias !116
  store i64 3, ptr %ref.tmp2.i.i.i.i84, align 8, !noalias !116
  %41 = getelementptr inbounds { i64, ptr }, ptr %ref.tmp2.i.i.i.i84, i64 0, i32 1
  store ptr @.str.97, ptr %41, align 8, !noalias !116
  call void @_ZN4absl6StrCatB5cxx11ERKNS_8AlphaNumES2_(ptr nonnull sret(%"class.std::__cxx11::basic_string") align 8 %ref.tmp58, ptr noundef nonnull align 8 dereferenceable(48) %ref.tmp.i.i.i.i83, ptr noundef nonnull align 8 dereferenceable(48) %ref.tmp2.i.i.i.i84)
  call void @llvm.lifetime.end.p0(i64 48, ptr nonnull %ref.tmp.i.i.i.i83), !noalias !109
  call void @llvm.lifetime.end.p0(i64 48, ptr nonnull %ref.tmp2.i.i.i.i84), !noalias !109
  %call.i.i.i85 = call noundef i32 @_ZNKSt7__cxx1112basic_stringIcSt11char_traitsIcESaIcEE7compareEPKc(ptr noundef nonnull align 8 dereferenceable(32) %ref.tmp58, ptr noundef nonnull @.str.103) #15, !noalias !119
  %cmp.i.i.i86 = icmp eq i32 %call.i.i.i85, 0
  br i1 %cmp.i.i.i86, label %if.then.i.i88, label %if.end.i.i87

if.then.i.i88:                                    ; preds = %_ZN7testing15AssertionResultD2Ev.exit82
  invoke void @_ZN7testing16AssertionSuccessEv(ptr nonnull sret(%"class.testing::AssertionResult") align 8 %gtest_ar57)
          to label %invoke.cont60 unwind label %lpad59

if.end.i.i87:                                     ; preds = %_ZN7testing15AssertionResultD2Ev.exit82
  invoke void @_ZN7testing8internal18CmpHelperEQFailureIA10_cNSt7__cxx1112basic_stringIcSt11char_traitsIcESaIcEEEEENS_15AssertionResultEPKcSB_RKT_RKT0_(ptr nonnull sret(%"class.testing::AssertionResult") align 8 %gtest_ar57, ptr noundef nonnull @.str.101, ptr noundef nonnull @.str.102, ptr noundef nonnull align 1 dereferenceable(10) @.str.103, ptr noundef nonnull align 8 dereferenceable(32) %ref.tmp58)
          to label %invoke.cont60 unwind label %lpad59

invoke.cont60:                                    ; preds = %if.then.i.i88, %if.end.i.i87
  call void @_ZNSt7__cxx1112basic_stringIcSt11char_traitsIcESaIcEED1Ev(ptr noundef nonnull align 8 dereferenceable(32) %ref.tmp58) #15
  %42 = load i8, ptr %gtest_ar57, align 8
  %43 = and i8 %42, 1
  %tobool.i91.not = icmp eq i8 %43, 0
  br i1 %tobool.i91.not, label %if.else64, label %if.end77

ehcleanup56:                                      ; preds = %_ZN7testing7MessageD2Ev.exit78, %lpad44
  %.pn7.pn = phi { ptr, i32 } [ %.pn7, %_ZN7testing7MessageD2Ev.exit78 ], [ %34, %lpad44 ]
  call void @_ZN7testing15AssertionResultD2Ev(ptr noundef nonnull align 8 dereferenceable(16) %gtest_ar35) #15
  br label %common.resume

lpad59:                                           ; preds = %if.end.i.i87, %if.then.i.i88
  %44 = landingpad { ptr, i32 }
          cleanup
  call void @_ZNSt7__cxx1112basic_stringIcSt11char_traitsIcESaIcEED1Ev(ptr noundef nonnull align 8 dereferenceable(32) %ref.tmp58) #15
  br label %common.resume

if.else64:                                        ; preds = %invoke.cont60
  invoke void @_ZN7testing7MessageC1Ev(ptr noundef nonnull align 8 dereferenceable(8) %ref.tmp65)
          to label %invoke.cont67 unwind label %lpad66

invoke.cont67:                                    ; preds = %if.else64
  %message_.i.i92 = getelementptr inbounds %"class.testing::AssertionResult", ptr %gtest_ar57, i64 0, i32 1
  %45 = load ptr, ptr %message_.i.i92, align 8
  %cmp.i.i.not.i.i93 = icmp eq ptr %45, null
  br i1 %cmp.i.i.not.i.i93, label %invoke.cont70, label %cond.true.i.i94

cond.true.i.i94:                                  ; preds = %invoke.cont67
  %call4.i.i95 = call noundef ptr @_ZNKSt7__cxx1112basic_stringIcSt11char_traitsIcESaIcEE5c_strEv(ptr noundef nonnull align 8 dereferenceable(32) %45) #15
  br label %invoke.cont70

invoke.cont70:                                    ; preds = %cond.true.i.i94, %invoke.cont67
  %cond.i.i96 = phi ptr [ %call4.i.i95, %cond.true.i.i94 ], [ @.str.60, %invoke.cont67 ]
  invoke void @_ZN7testing8internal12AssertHelperC1ENS_14TestPartResult4TypeEPKciS5_(ptr noundef nonnull align 8 dereferenceable(8) %ref.tmp68, i32 noundef 1, ptr noundef nonnull @.str.3, i32 noundef 150, ptr noundef %cond.i.i96)
          to label %invoke.cont72 unwind label %lpad69

invoke.cont72:                                    ; preds = %invoke.cont70
  invoke void @_ZNK7testing8internal12AssertHelperaSERKNS_7MessageE(ptr noundef nonnull align 8 dereferenceable(8) %ref.tmp68, ptr noundef nonnull align 8 dereferenceable(8) %ref.tmp65)
          to label %invoke.cont74 unwind label %lpad73

invoke.cont74:                                    ; preds = %invoke.cont72
  call void @_ZN7testing8internal12AssertHelperD1Ev(ptr noundef nonnull align 8 dereferenceable(8) %ref.tmp68) #15
  %46 = load ptr, ptr %ref.tmp65, align 8
  %cmp.not.i.i98 = icmp eq ptr %46, null
  br i1 %cmp.not.i.i98, label %_ZN7testing7MessageD2Ev.exit102, label %_ZNKSt14default_deleteINSt7__cxx1118basic_stringstreamIcSt11char_traitsIcESaIcEEEEclEPS5_.exit.i.i99

_ZNKSt14default_deleteINSt7__cxx1118basic_stringstreamIcSt11char_traitsIcESaIcEEEEclEPS5_.exit.i.i99: ; preds = %invoke.cont74
  %vtable.i.i.i100 = load ptr, ptr %46, align 8
  %vfn.i.i.i101 = getelementptr inbounds ptr, ptr %vtable.i.i.i100, i64 1
  %47 = load ptr, ptr %vfn.i.i.i101, align 8
  call void %47(ptr noundef nonnull align 8 dereferenceable(128) %46) #15
  br label %_ZN7testing7MessageD2Ev.exit102

_ZN7testing7MessageD2Ev.exit102:                  ; preds = %invoke.cont74, %_ZNKSt14default_deleteINSt7__cxx1118basic_stringstreamIcSt11char_traitsIcESaIcEEEEclEPS5_.exit.i.i99
  store ptr null, ptr %ref.tmp65, align 8
  br label %if.end77

lpad66:                                           ; preds = %if.else64
  %48 = landingpad { ptr, i32 }
          cleanup
  br label %ehcleanup78

lpad69:                                           ; preds = %invoke.cont70
  %49 = landingpad { ptr, i32 }
          cleanup
  br label %ehcleanup76

lpad73:                                           ; preds = %invoke.cont72
  %50 = landingpad { ptr, i32 }
          cleanup
  call void @_ZN7testing8internal12AssertHelperD1Ev(ptr noundef nonnull align 8 dereferenceable(8) %ref.tmp68) #15
  br label %ehcleanup76

ehcleanup76:                                      ; preds = %lpad73, %lpad69
  %.pn10 = phi { ptr, i32 } [ %50, %lpad73 ], [ %49, %lpad69 ]
  %51 = load ptr, ptr %ref.tmp65, align 8
  %cmp.not.i.i103 = icmp eq ptr %51, null
  br i1 %cmp.not.i.i103, label %_ZN7testing7MessageD2Ev.exit107, label %_ZNKSt14default_deleteINSt7__cxx1118basic_stringstreamIcSt11char_traitsIcESaIcEEEEclEPS5_.exit.i.i104

_ZNKSt14default_deleteINSt7__cxx1118basic_stringstreamIcSt11char_traitsIcESaIcEEEEclEPS5_.exit.i.i104: ; preds = %ehcleanup76
  %vtable.i.i.i105 = load ptr, ptr %51, align 8
  %vfn.i.i.i106 = getelementptr inbounds ptr, ptr %vtable.i.i.i105, i64 1
  %52 = load ptr, ptr %vfn.i.i.i106, align 8
  call void %52(ptr noundef nonnull align 8 dereferenceable(128) %51) #15
  br label %_ZN7testing7MessageD2Ev.exit107

_ZN7testing7MessageD2Ev.exit107:                  ; preds = %ehcleanup76, %_ZNKSt14default_deleteINSt7__cxx1118basic_stringstreamIcSt11char_traitsIcESaIcEEEEclEPS5_.exit.i.i104
  store ptr null, ptr %ref.tmp65, align 8
  br label %ehcleanup78

if.end77:                                         ; preds = %invoke.cont60, %_ZN7testing7MessageD2Ev.exit102
  %message_.i108 = getelementptr inbounds %"class.testing::AssertionResult", ptr %gtest_ar57, i64 0, i32 1
  %53 = load ptr, ptr %message_.i108, align 8
  %cmp.not.i.i109 = icmp eq ptr %53, null
  br i1 %cmp.not.i.i109, label %_ZN7testing15AssertionResultD2Ev.exit111, label %_ZNKSt14default_deleteINSt7__cxx1112basic_stringIcSt11char_traitsIcESaIcEEEEclEPS5_.exit.i.i110

_ZNKSt14default_deleteINSt7__cxx1112basic_stringIcSt11char_traitsIcESaIcEEEEclEPS5_.exit.i.i110: ; preds = %if.end77
  call void @_ZNSt7__cxx1112basic_stringIcSt11char_traitsIcESaIcEED1Ev(ptr noundef nonnull align 8 dereferenceable(32) %53) #15
  call void @_ZdlPv(ptr noundef nonnull %53) #16
  br label %_ZN7testing15AssertionResultD2Ev.exit111

_ZN7testing15AssertionResultD2Ev.exit111:         ; preds = %if.end77, %_ZNKSt14default_deleteINSt7__cxx1112basic_stringIcSt11char_traitsIcESaIcEEEEclEPS5_.exit.i.i110
  store ptr null, ptr %message_.i108, align 8
  call void @llvm.lifetime.start.p0(i64 1, ptr nonnull %ref.tmp.i.i.i.i.i112), !noalias !124
  call void @_ZNSaIcEC1Ev(ptr noundef nonnull align 1 dereferenceable(1) %ref.tmp.i.i.i.i.i112) #15, !noalias !133
  invoke void @_ZNSt7__cxx1112basic_stringIcSt11char_traitsIcESaIcEEC1EPKcmRKS3_(ptr noundef nonnull align 8 dereferenceable(32) %ref.tmp80, ptr noundef nonnull @.str.106, i64 noundef 2, ptr noundef nonnull align 1 dereferenceable(1) %ref.tmp.i.i.i.i.i112)
          to label %_ZSt6invokeB5cxx11IN4absl13base_internal12_GLOBAL__N_117OverloadedFunctorEJEENSt13invoke_resultIT_JDpT0_EE4typeEOS5_DpOS6_.exit unwind label %lpad.i.i.i.i.i113

lpad.i.i.i.i.i113:                                ; preds = %_ZN7testing15AssertionResultD2Ev.exit111
  %54 = landingpad { ptr, i32 }
          cleanup
  call void @_ZNSaIcED1Ev(ptr noundef nonnull align 1 dereferenceable(1) %ref.tmp.i.i.i.i.i112) #15
  br label %common.resume

_ZSt6invokeB5cxx11IN4absl13base_internal12_GLOBAL__N_117OverloadedFunctorEJEENSt13invoke_resultIT_JDpT0_EE4typeEOS5_DpOS6_.exit: ; preds = %_ZN7testing15AssertionResultD2Ev.exit111
  call void @_ZNSaIcED1Ev(ptr noundef nonnull align 1 dereferenceable(1) %ref.tmp.i.i.i.i.i112) #15
  call void @llvm.lifetime.end.p0(i64 1, ptr nonnull %ref.tmp.i.i.i.i.i112), !noalias !124
  %call.i.i.i114 = call noundef i32 @_ZNKSt7__cxx1112basic_stringIcSt11char_traitsIcESaIcEE7compareEPKc(ptr noundef nonnull align 8 dereferenceable(32) %ref.tmp80, ptr noundef nonnull @.str.106) #15, !noalias !136
  %cmp.i.i.i115 = icmp eq i32 %call.i.i.i114, 0
  br i1 %cmp.i.i.i115, label %if.then.i.i117, label %if.end.i.i116

if.then.i.i117:                                   ; preds = %_ZSt6invokeB5cxx11IN4absl13base_internal12_GLOBAL__N_117OverloadedFunctorEJEENSt13invoke_resultIT_JDpT0_EE4typeEOS5_DpOS6_.exit
  invoke void @_ZN7testing16AssertionSuccessEv(ptr nonnull sret(%"class.testing::AssertionResult") align 8 %gtest_ar79)
          to label %invoke.cont82 unwind label %lpad81

if.end.i.i116:                                    ; preds = %_ZSt6invokeB5cxx11IN4absl13base_internal12_GLOBAL__N_117OverloadedFunctorEJEENSt13invoke_resultIT_JDpT0_EE4typeEOS5_DpOS6_.exit
  invoke void @_ZN7testing8internal18CmpHelperEQFailureIA3_cNSt7__cxx1112basic_stringIcSt11char_traitsIcESaIcEEEEENS_15AssertionResultEPKcSB_RKT_RKT0_(ptr nonnull sret(%"class.testing::AssertionResult") align 8 %gtest_ar79, ptr noundef nonnull @.str.104, ptr noundef nonnull @.str.105, ptr noundef nonnull align 1 dereferenceable(3) @.str.106, ptr noundef nonnull align 8 dereferenceable(32) %ref.tmp80)
          to label %invoke.cont82 unwind label %lpad81

invoke.cont82:                                    ; preds = %if.then.i.i117, %if.end.i.i116
  call void @_ZNSt7__cxx1112basic_stringIcSt11char_traitsIcESaIcEED1Ev(ptr noundef nonnull align 8 dereferenceable(32) %ref.tmp80) #15
  %55 = load i8, ptr %gtest_ar79, align 8
  %56 = and i8 %55, 1
  %tobool.i120.not = icmp eq i8 %56, 0
  br i1 %tobool.i120.not, label %if.else86, label %if.end99

ehcleanup78:                                      ; preds = %_ZN7testing7MessageD2Ev.exit107, %lpad66
  %.pn10.pn = phi { ptr, i32 } [ %.pn10, %_ZN7testing7MessageD2Ev.exit107 ], [ %48, %lpad66 ]
  call void @_ZN7testing15AssertionResultD2Ev(ptr noundef nonnull align 8 dereferenceable(16) %gtest_ar57) #15
  br label %common.resume

lpad81:                                           ; preds = %if.end.i.i116, %if.then.i.i117
  %57 = landingpad { ptr, i32 }
          cleanup
  call void @_ZNSt7__cxx1112basic_stringIcSt11char_traitsIcESaIcEED1Ev(ptr noundef nonnull align 8 dereferenceable(32) %ref.tmp80) #15
  br label %common.resume

if.else86:                                        ; preds = %invoke.cont82
  invoke void @_ZN7testing7MessageC1Ev(ptr noundef nonnull align 8 dereferenceable(8) %ref.tmp87)
          to label %invoke.cont89 unwind label %lpad88

invoke.cont89:                                    ; preds = %if.else86
  %message_.i.i121 = getelementptr inbounds %"class.testing::AssertionResult", ptr %gtest_ar79, i64 0, i32 1
  %58 = load ptr, ptr %message_.i.i121, align 8
  %cmp.i.i.not.i.i122 = icmp eq ptr %58, null
  br i1 %cmp.i.i.not.i.i122, label %invoke.cont92, label %cond.true.i.i123

cond.true.i.i123:                                 ; preds = %invoke.cont89
  %call4.i.i124 = call noundef ptr @_ZNKSt7__cxx1112basic_stringIcSt11char_traitsIcESaIcEE5c_strEv(ptr noundef nonnull align 8 dereferenceable(32) %58) #15
  br label %invoke.cont92

invoke.cont92:                                    ; preds = %cond.true.i.i123, %invoke.cont89
  %cond.i.i125 = phi ptr [ %call4.i.i124, %cond.true.i.i123 ], [ @.str.60, %invoke.cont89 ]
  invoke void @_ZN7testing8internal12AssertHelperC1ENS_14TestPartResult4TypeEPKciS5_(ptr noundef nonnull align 8 dereferenceable(8) %ref.tmp90, i32 noundef 1, ptr noundef nonnull @.str.3, i32 noundef 152, ptr noundef %cond.i.i125)
          to label %invoke.cont94 unwind label %lpad91

invoke.cont94:                                    ; preds = %invoke.cont92
  invoke void @_ZNK7testing8internal12AssertHelperaSERKNS_7MessageE(ptr noundef nonnull align 8 dereferenceable(8) %ref.tmp90, ptr noundef nonnull align 8 dereferenceable(8) %ref.tmp87)
          to label %invoke.cont96 unwind label %lpad95

invoke.cont96:                                    ; preds = %invoke.cont94
  call void @_ZN7testing8internal12AssertHelperD1Ev(ptr noundef nonnull align 8 dereferenceable(8) %ref.tmp90) #15
  %59 = load ptr, ptr %ref.tmp87, align 8
  %cmp.not.i.i127 = icmp eq ptr %59, null
  br i1 %cmp.not.i.i127, label %_ZN7testing7MessageD2Ev.exit131, label %_ZNKSt14default_deleteINSt7__cxx1118basic_stringstreamIcSt11char_traitsIcESaIcEEEEclEPS5_.exit.i.i128

_ZNKSt14default_deleteINSt7__cxx1118basic_stringstreamIcSt11char_traitsIcESaIcEEEEclEPS5_.exit.i.i128: ; preds = %invoke.cont96
  %vtable.i.i.i129 = load ptr, ptr %59, align 8
  %vfn.i.i.i130 = getelementptr inbounds ptr, ptr %vtable.i.i.i129, i64 1
  %60 = load ptr, ptr %vfn.i.i.i130, align 8
  call void %60(ptr noundef nonnull align 8 dereferenceable(128) %59) #15
  br label %_ZN7testing7MessageD2Ev.exit131

_ZN7testing7MessageD2Ev.exit131:                  ; preds = %invoke.cont96, %_ZNKSt14default_deleteINSt7__cxx1118basic_stringstreamIcSt11char_traitsIcESaIcEEEEclEPS5_.exit.i.i128
  store ptr null, ptr %ref.tmp87, align 8
  br label %if.end99

lpad88:                                           ; preds = %if.else86
  %61 = landingpad { ptr, i32 }
          cleanup
  br label %ehcleanup100

lpad91:                                           ; preds = %invoke.cont92
  %62 = landingpad { ptr, i32 }
          cleanup
  br label %ehcleanup98

lpad95:                                           ; preds = %invoke.cont94
  %63 = landingpad { ptr, i32 }
          cleanup
  call void @_ZN7testing8internal12AssertHelperD1Ev(ptr noundef nonnull align 8 dereferenceable(8) %ref.tmp90) #15
  br label %ehcleanup98

ehcleanup98:                                      ; preds = %lpad95, %lpad91
  %.pn13 = phi { ptr, i32 } [ %63, %lpad95 ], [ %62, %lpad91 ]
  %64 = load ptr, ptr %ref.tmp87, align 8
  %cmp.not.i.i132 = icmp eq ptr %64, null
  br i1 %cmp.not.i.i132, label %_ZN7testing7MessageD2Ev.exit136, label %_ZNKSt14default_deleteINSt7__cxx1118basic_stringstreamIcSt11char_traitsIcESaIcEEEEclEPS5_.exit.i.i133

_ZNKSt14default_deleteINSt7__cxx1118basic_stringstreamIcSt11char_traitsIcESaIcEEEEclEPS5_.exit.i.i133: ; preds = %ehcleanup98
  %vtable.i.i.i134 = load ptr, ptr %64, align 8
  %vfn.i.i.i135 = getelementptr inbounds ptr, ptr %vtable.i.i.i134, i64 1
  %65 = load ptr, ptr %vfn.i.i.i135, align 8
  call void %65(ptr noundef nonnull align 8 dereferenceable(128) %64) #15
  br label %_ZN7testing7MessageD2Ev.exit136

_ZN7testing7MessageD2Ev.exit136:                  ; preds = %ehcleanup98, %_ZNKSt14default_deleteINSt7__cxx1118basic_stringstreamIcSt11char_traitsIcESaIcEEEEclEPS5_.exit.i.i133
  store ptr null, ptr %ref.tmp87, align 8
  br label %ehcleanup100

if.end99:                                         ; preds = %invoke.cont82, %_ZN7testing7MessageD2Ev.exit131
  %message_.i137 = getelementptr inbounds %"class.testing::AssertionResult", ptr %gtest_ar79, i64 0, i32 1
  %66 = load ptr, ptr %message_.i137, align 8
  %cmp.not.i.i138 = icmp eq ptr %66, null
  br i1 %cmp.not.i.i138, label %_ZN7testing15AssertionResultD2Ev.exit140, label %_ZNKSt14default_deleteINSt7__cxx1112basic_stringIcSt11char_traitsIcESaIcEEEEclEPS5_.exit.i.i139

_ZNKSt14default_deleteINSt7__cxx1112basic_stringIcSt11char_traitsIcESaIcEEEEclEPS5_.exit.i.i139: ; preds = %if.end99
  call void @_ZNSt7__cxx1112basic_stringIcSt11char_traitsIcESaIcEED1Ev(ptr noundef nonnull align 8 dereferenceable(32) %66) #15
  call void @_ZdlPv(ptr noundef nonnull %66) #16
  br label %_ZN7testing15AssertionResultD2Ev.exit140

_ZN7testing15AssertionResultD2Ev.exit140:         ; preds = %if.end99, %_ZNKSt14default_deleteINSt7__cxx1112basic_stringIcSt11char_traitsIcESaIcEEEEclEPS5_.exit.i.i139
  store ptr null, ptr %message_.i137, align 8
  call void @llvm.lifetime.start.p0(i64 48, ptr nonnull %ref.tmp.i.i.i.i141), !noalias !141
  call void @llvm.lifetime.start.p0(i64 48, ptr nonnull %ref.tmp2.i.i.i.i142), !noalias !141
  store i64 2, ptr %ref.tmp.i.i.i.i141, align 8, !noalias !148
  %67 = getelementptr inbounds { i64, ptr }, ptr %ref.tmp.i.i.i.i141, i64 0, i32 1
  store ptr @.str.106, ptr %67, align 8, !noalias !148
  store i64 3, ptr %ref.tmp2.i.i.i.i142, align 8, !noalias !148
  %68 = getelementptr inbounds { i64, ptr }, ptr %ref.tmp2.i.i.i.i142, i64 0, i32 1
  store ptr @.str.97, ptr %68, align 8, !noalias !148
  call void @_ZN4absl6StrCatB5cxx11ERKNS_8AlphaNumES2_(ptr nonnull sret(%"class.std::__cxx11::basic_string") align 8 %ref.tmp102, ptr noundef nonnull align 8 dereferenceable(48) %ref.tmp.i.i.i.i141, ptr noundef nonnull align 8 dereferenceable(48) %ref.tmp2.i.i.i.i142)
  call void @llvm.lifetime.end.p0(i64 48, ptr nonnull %ref.tmp.i.i.i.i141), !noalias !141
  call void @llvm.lifetime.end.p0(i64 48, ptr nonnull %ref.tmp2.i.i.i.i142), !noalias !141
  %call.i.i.i143 = call noundef i32 @_ZNKSt7__cxx1112basic_stringIcSt11char_traitsIcESaIcEE7compareEPKc(ptr noundef nonnull align 8 dereferenceable(32) %ref.tmp102, ptr noundef nonnull @.str.109) #15, !noalias !151
  %cmp.i.i.i144 = icmp eq i32 %call.i.i.i143, 0
  br i1 %cmp.i.i.i144, label %if.then.i.i146, label %if.end.i.i145

if.then.i.i146:                                   ; preds = %_ZN7testing15AssertionResultD2Ev.exit140
  invoke void @_ZN7testing16AssertionSuccessEv(ptr nonnull sret(%"class.testing::AssertionResult") align 8 %gtest_ar101)
          to label %invoke.cont104 unwind label %lpad103

if.end.i.i145:                                    ; preds = %_ZN7testing15AssertionResultD2Ev.exit140
  invoke void @_ZN7testing8internal18CmpHelperEQFailureIA6_cNSt7__cxx1112basic_stringIcSt11char_traitsIcESaIcEEEEENS_15AssertionResultEPKcSB_RKT_RKT0_(ptr nonnull sret(%"class.testing::AssertionResult") align 8 %gtest_ar101, ptr noundef nonnull @.str.107, ptr noundef nonnull @.str.108, ptr noundef nonnull align 1 dereferenceable(6) @.str.109, ptr noundef nonnull align 8 dereferenceable(32) %ref.tmp102)
          to label %invoke.cont104 unwind label %lpad103

invoke.cont104:                                   ; preds = %if.then.i.i146, %if.end.i.i145
  call void @_ZNSt7__cxx1112basic_stringIcSt11char_traitsIcESaIcEED1Ev(ptr noundef nonnull align 8 dereferenceable(32) %ref.tmp102) #15
  %69 = load i8, ptr %gtest_ar101, align 8
  %70 = and i8 %69, 1
  %tobool.i149.not = icmp eq i8 %70, 0
  br i1 %tobool.i149.not, label %if.else108, label %if.end121

ehcleanup100:                                     ; preds = %_ZN7testing7MessageD2Ev.exit136, %lpad88
  %.pn13.pn = phi { ptr, i32 } [ %.pn13, %_ZN7testing7MessageD2Ev.exit136 ], [ %61, %lpad88 ]
  call void @_ZN7testing15AssertionResultD2Ev(ptr noundef nonnull align 8 dereferenceable(16) %gtest_ar79) #15
  br label %common.resume

lpad103:                                          ; preds = %if.end.i.i145, %if.then.i.i146
  %71 = landingpad { ptr, i32 }
          cleanup
  call void @_ZNSt7__cxx1112basic_stringIcSt11char_traitsIcESaIcEED1Ev(ptr noundef nonnull align 8 dereferenceable(32) %ref.tmp102) #15
  br label %common.resume

if.else108:                                       ; preds = %invoke.cont104
  invoke void @_ZN7testing7MessageC1Ev(ptr noundef nonnull align 8 dereferenceable(8) %ref.tmp109)
          to label %invoke.cont111 unwind label %lpad110

invoke.cont111:                                   ; preds = %if.else108
  %message_.i.i150 = getelementptr inbounds %"class.testing::AssertionResult", ptr %gtest_ar101, i64 0, i32 1
  %72 = load ptr, ptr %message_.i.i150, align 8
  %cmp.i.i.not.i.i151 = icmp eq ptr %72, null
  br i1 %cmp.i.i.not.i.i151, label %invoke.cont114, label %cond.true.i.i152

cond.true.i.i152:                                 ; preds = %invoke.cont111
  %call4.i.i153 = call noundef ptr @_ZNKSt7__cxx1112basic_stringIcSt11char_traitsIcESaIcEE5c_strEv(ptr noundef nonnull align 8 dereferenceable(32) %72) #15
  br label %invoke.cont114

invoke.cont114:                                   ; preds = %cond.true.i.i152, %invoke.cont111
  %cond.i.i154 = phi ptr [ %call4.i.i153, %cond.true.i.i152 ], [ @.str.60, %invoke.cont111 ]
  invoke void @_ZN7testing8internal12AssertHelperC1ENS_14TestPartResult4TypeEPKciS5_(ptr noundef nonnull align 8 dereferenceable(8) %ref.tmp112, i32 noundef 1, ptr noundef nonnull @.str.3, i32 noundef 155, ptr noundef %cond.i.i154)
          to label %invoke.cont116 unwind label %lpad113

invoke.cont116:                                   ; preds = %invoke.cont114
  invoke void @_ZNK7testing8internal12AssertHelperaSERKNS_7MessageE(ptr noundef nonnull align 8 dereferenceable(8) %ref.tmp112, ptr noundef nonnull align 8 dereferenceable(8) %ref.tmp109)
          to label %invoke.cont118 unwind label %lpad117

invoke.cont118:                                   ; preds = %invoke.cont116
  call void @_ZN7testing8internal12AssertHelperD1Ev(ptr noundef nonnull align 8 dereferenceable(8) %ref.tmp112) #15
  %73 = load ptr, ptr %ref.tmp109, align 8
  %cmp.not.i.i156 = icmp eq ptr %73, null
  br i1 %cmp.not.i.i156, label %_ZN7testing7MessageD2Ev.exit160, label %_ZNKSt14default_deleteINSt7__cxx1118basic_stringstreamIcSt11char_traitsIcESaIcEEEEclEPS5_.exit.i.i157

_ZNKSt14default_deleteINSt7__cxx1118basic_stringstreamIcSt11char_traitsIcESaIcEEEEclEPS5_.exit.i.i157: ; preds = %invoke.cont118
  %vtable.i.i.i158 = load ptr, ptr %73, align 8
  %vfn.i.i.i159 = getelementptr inbounds ptr, ptr %vtable.i.i.i158, i64 1
  %74 = load ptr, ptr %vfn.i.i.i159, align 8
  call void %74(ptr noundef nonnull align 8 dereferenceable(128) %73) #15
  br label %_ZN7testing7MessageD2Ev.exit160

_ZN7testing7MessageD2Ev.exit160:                  ; preds = %invoke.cont118, %_ZNKSt14default_deleteINSt7__cxx1118basic_stringstreamIcSt11char_traitsIcESaIcEEEEclEPS5_.exit.i.i157
  store ptr null, ptr %ref.tmp109, align 8
  br label %if.end121

lpad110:                                          ; preds = %if.else108
  %75 = landingpad { ptr, i32 }
          cleanup
  br label %ehcleanup122

lpad113:                                          ; preds = %invoke.cont114
  %76 = landingpad { ptr, i32 }
          cleanup
  br label %ehcleanup120

lpad117:                                          ; preds = %invoke.cont116
  %77 = landingpad { ptr, i32 }
          cleanup
  call void @_ZN7testing8internal12AssertHelperD1Ev(ptr noundef nonnull align 8 dereferenceable(8) %ref.tmp112) #15
  br label %ehcleanup120

ehcleanup120:                                     ; preds = %lpad117, %lpad113
  %.pn16 = phi { ptr, i32 } [ %77, %lpad117 ], [ %76, %lpad113 ]
  %78 = load ptr, ptr %ref.tmp109, align 8
  %cmp.not.i.i161 = icmp eq ptr %78, null
  br i1 %cmp.not.i.i161, label %_ZN7testing7MessageD2Ev.exit165, label %_ZNKSt14default_deleteINSt7__cxx1118basic_stringstreamIcSt11char_traitsIcESaIcEEEEclEPS5_.exit.i.i162

_ZNKSt14default_deleteINSt7__cxx1118basic_stringstreamIcSt11char_traitsIcESaIcEEEEclEPS5_.exit.i.i162: ; preds = %ehcleanup120
  %vtable.i.i.i163 = load ptr, ptr %78, align 8
  %vfn.i.i.i164 = getelementptr inbounds ptr, ptr %vtable.i.i.i163, i64 1
  %79 = load ptr, ptr %vfn.i.i.i164, align 8
  call void %79(ptr noundef nonnull align 8 dereferenceable(128) %78) #15
  br label %_ZN7testing7MessageD2Ev.exit165

_ZN7testing7MessageD2Ev.exit165:                  ; preds = %ehcleanup120, %_ZNKSt14default_deleteINSt7__cxx1118basic_stringstreamIcSt11char_traitsIcESaIcEEEEclEPS5_.exit.i.i162
  store ptr null, ptr %ref.tmp109, align 8
  br label %ehcleanup122

if.end121:                                        ; preds = %invoke.cont104, %_ZN7testing7MessageD2Ev.exit160
  %message_.i166 = getelementptr inbounds %"class.testing::AssertionResult", ptr %gtest_ar101, i64 0, i32 1
  %80 = load ptr, ptr %message_.i166, align 8
  %cmp.not.i.i167 = icmp eq ptr %80, null
  br i1 %cmp.not.i.i167, label %_ZN7testing15AssertionResultD2Ev.exit169, label %_ZNKSt14default_deleteINSt7__cxx1112basic_stringIcSt11char_traitsIcESaIcEEEEclEPS5_.exit.i.i168

_ZNKSt14default_deleteINSt7__cxx1112basic_stringIcSt11char_traitsIcESaIcEEEEclEPS5_.exit.i.i168: ; preds = %if.end121
  call void @_ZNSt7__cxx1112basic_stringIcSt11char_traitsIcESaIcEED1Ev(ptr noundef nonnull align 8 dereferenceable(32) %80) #15
  call void @_ZdlPv(ptr noundef nonnull %80) #16
  br label %_ZN7testing15AssertionResultD2Ev.exit169

_ZN7testing15AssertionResultD2Ev.exit169:         ; preds = %if.end121, %_ZNKSt14default_deleteINSt7__cxx1112basic_stringIcSt11char_traitsIcESaIcEEEEclEPS5_.exit.i.i168
  ret void

ehcleanup122:                                     ; preds = %_ZN7testing7MessageD2Ev.exit165, %lpad110
  %.pn16.pn = phi { ptr, i32 } [ %.pn16, %_ZN7testing7MessageD2Ev.exit165 ], [ %75, %lpad110 ]
  call void @_ZN7testing15AssertionResultD2Ev(ptr noundef nonnull align 8 dereferenceable(16) %gtest_ar101) #15
  br label %common.resume
}

; Function Attrs: mustprogress uwtable
define linkonce_odr dso_local void @_ZN7testing8internal18CmpHelperEQFailureIA2_cNSt7__cxx1112basic_stringIcSt11char_traitsIcESaIcEEEEENS_15AssertionResultEPKcSB_RKT_RKT0_(ptr noalias sret(%"class.testing::AssertionResult") align 8 %agg.result, ptr noundef %lhs_expression, ptr noundef %rhs_expression, ptr noundef nonnull align 1 dereferenceable(2) %lhs, ptr noundef nonnull align 8 dereferenceable(32) %rhs) local_unnamed_addr #3 comdat personality ptr @__gxx_personality_v0 {
entry:
  %ss.i.i.i = alloca %"class.std::__cxx11::basic_stringstream", align 8
  %ss.i.i.i.i = alloca %"class.std::__cxx11::basic_stringstream", align 8
  %ref.tmp = alloca %"class.std::__cxx11::basic_string", align 8
  %ref.tmp1 = alloca %"class.std::__cxx11::basic_string", align 8
  call void @llvm.lifetime.start.p0(i64 392, ptr nonnull %ss.i.i.i.i), !noalias !156
  call void @_ZNSt7__cxx1118basic_stringstreamIcSt11char_traitsIcESaIcEEC1Ev(ptr noundef nonnull align 8 dereferenceable(128) %ss.i.i.i.i), !noalias !163
  %add.ptr.i.i.i.i = getelementptr inbounds i8, ptr %ss.i.i.i.i, i64 16
  invoke void @_ZN7testing8internal21UniversalTersePrinterIPKcE5PrintES3_PSo(ptr noundef nonnull %lhs, ptr noundef nonnull %add.ptr.i.i.i.i)
          to label %invoke.cont.i.i.i.i unwind label %lpad.i.i.i.i, !noalias !163

invoke.cont.i.i.i.i:                              ; preds = %entry
  invoke void @_ZNKSt7__cxx1118basic_stringstreamIcSt11char_traitsIcESaIcEE3strEv(ptr nonnull sret(%"class.std::__cxx11::basic_string") align 8 %ref.tmp, ptr noundef nonnull align 8 dereferenceable(128) %ss.i.i.i.i)
          to label %_ZN7testing8internal33FormatForComparisonFailureMessageIA2_cNSt7__cxx1112basic_stringIcSt11char_traitsIcESaIcEEEEES8_RKT_RKT0_.exit unwind label %lpad.i.i.i.i

common.resume:                                    ; preds = %ehcleanup, %lpad.i.i.i.i
  %common.resume.op = phi { ptr, i32 } [ %0, %lpad.i.i.i.i ], [ %.pn, %ehcleanup ]
  resume { ptr, i32 } %common.resume.op

lpad.i.i.i.i:                                     ; preds = %invoke.cont.i.i.i.i, %entry
  %0 = landingpad { ptr, i32 }
          cleanup
  call void @_ZNSt7__cxx1118basic_stringstreamIcSt11char_traitsIcESaIcEED1Ev(ptr noundef nonnull align 8 dereferenceable(128) %ss.i.i.i.i) #15
  br label %common.resume

_ZN7testing8internal33FormatForComparisonFailureMessageIA2_cNSt7__cxx1112basic_stringIcSt11char_traitsIcESaIcEEEEES8_RKT_RKT0_.exit: ; preds = %invoke.cont.i.i.i.i
  call void @_ZNSt7__cxx1118basic_stringstreamIcSt11char_traitsIcESaIcEED1Ev(ptr noundef nonnull align 8 dereferenceable(128) %ss.i.i.i.i) #15
  call void @llvm.lifetime.end.p0(i64 392, ptr nonnull %ss.i.i.i.i), !noalias !156
  call void @llvm.lifetime.start.p0(i64 392, ptr nonnull %ss.i.i.i), !noalias !166
  invoke void @_ZNSt7__cxx1118basic_stringstreamIcSt11char_traitsIcESaIcEEC1Ev(ptr noundef nonnull align 8 dereferenceable(128) %ss.i.i.i)
          to label %.noexc unwind label %lpad

.noexc:                                           ; preds = %_ZN7testing8internal33FormatForComparisonFailureMessageIA2_cNSt7__cxx1112basic_stringIcSt11char_traitsIcESaIcEEEEES8_RKT_RKT0_.exit
  %add.ptr.i.i.i = getelementptr inbounds i8, ptr %ss.i.i.i, i64 16
  invoke void @_ZN7testing8internal13PrintStringToERKNSt7__cxx1112basic_stringIcSt11char_traitsIcESaIcEEEPSo(ptr noundef nonnull align 8 dereferenceable(32) %rhs, ptr noundef nonnull %add.ptr.i.i.i)
          to label %invoke.cont.i.i.i unwind label %lpad.i.i.i, !noalias !171

invoke.cont.i.i.i:                                ; preds = %.noexc
  invoke void @_ZNKSt7__cxx1118basic_stringstreamIcSt11char_traitsIcESaIcEE3strEv(ptr nonnull sret(%"class.std::__cxx11::basic_string") align 8 %ref.tmp1, ptr noundef nonnull align 8 dereferenceable(128) %ss.i.i.i)
          to label %invoke.cont unwind label %lpad.i.i.i

lpad.i.i.i:                                       ; preds = %invoke.cont.i.i.i, %.noexc
  %1 = landingpad { ptr, i32 }
          cleanup
  call void @_ZNSt7__cxx1118basic_stringstreamIcSt11char_traitsIcESaIcEED1Ev(ptr noundef nonnull align 8 dereferenceable(128) %ss.i.i.i) #15
  br label %ehcleanup

invoke.cont:                                      ; preds = %invoke.cont.i.i.i
  call void @_ZNSt7__cxx1118basic_stringstreamIcSt11char_traitsIcESaIcEED1Ev(ptr noundef nonnull align 8 dereferenceable(128) %ss.i.i.i) #15
  call void @llvm.lifetime.end.p0(i64 392, ptr nonnull %ss.i.i.i), !noalias !166
  invoke void @_ZN7testing8internal9EqFailureEPKcS2_RKNSt7__cxx1112basic_stringIcSt11char_traitsIcESaIcEEESA_b(ptr sret(%"class.testing::AssertionResult") align 8 %agg.result, ptr noundef %lhs_expression, ptr noundef %rhs_expression, ptr noundef nonnull align 8 dereferenceable(32) %ref.tmp, ptr noundef nonnull align 8 dereferenceable(32) %ref.tmp1, i1 noundef zeroext false)
          to label %invoke.cont3 unwind label %lpad2

invoke.cont3:                                     ; preds = %invoke.cont
  call void @_ZNSt7__cxx1112basic_stringIcSt11char_traitsIcESaIcEED1Ev(ptr noundef nonnull align 8 dereferenceable(32) %ref.tmp1) #15
  call void @_ZNSt7__cxx1112basic_stringIcSt11char_traitsIcESaIcEED1Ev(ptr noundef nonnull align 8 dereferenceable(32) %ref.tmp) #15
  ret void

lpad:                                             ; preds = %_ZN7testing8internal33FormatForComparisonFailureMessageIA2_cNSt7__cxx1112basic_stringIcSt11char_traitsIcESaIcEEEEES8_RKT_RKT0_.exit
  %2 = landingpad { ptr, i32 }
          cleanup
  br label %ehcleanup

lpad2:                                            ; preds = %invoke.cont
  %3 = landingpad { ptr, i32 }
          cleanup
  call void @_ZNSt7__cxx1112basic_stringIcSt11char_traitsIcESaIcEED1Ev(ptr noundef nonnull align 8 dereferenceable(32) %ref.tmp1) #15
  br label %ehcleanup

ehcleanup:                                        ; preds = %lpad, %lpad.i.i.i, %lpad2
  %.pn = phi { ptr, i32 } [ %3, %lpad2 ], [ %2, %lpad ], [ %1, %lpad.i.i.i ]
  call void @_ZNSt7__cxx1112basic_stringIcSt11char_traitsIcESaIcEED1Ev(ptr noundef nonnull align 8 dereferenceable(32) %ref.tmp) #15
  br label %common.resume
}

; Function Attrs: nounwind
declare noundef i32 @_ZNKSt7__cxx1112basic_stringIcSt11char_traitsIcESaIcEE7compareEPKc(ptr noundef nonnull align 8 dereferenceable(32), ptr noundef) local_unnamed_addr #1

; Function Attrs: mustprogress uwtable
define linkonce_odr dso_local void @_ZN7testing8internal21UniversalTersePrinterIPKcE5PrintES3_PSo(ptr noundef %str, ptr noundef %os) local_unnamed_addr #3 comdat align 2 personality ptr @__gxx_personality_v0 {
entry:
  %ref.tmp = alloca %"class.std::__cxx11::basic_string", align 8
  %ref.tmp1 = alloca %"class.std::allocator", align 1
  %cmp = icmp eq ptr %str, null
  br i1 %cmp, label %if.then, label %if.else

if.then:                                          ; preds = %entry
  %call = tail call noundef nonnull align 8 dereferenceable(8) ptr @_ZStlsISt11char_traitsIcEERSt13basic_ostreamIcT_ES5_PKc(ptr noundef nonnull align 8 dereferenceable(8) %os, ptr noundef nonnull @.str.110)
  br label %if.end

if.else:                                          ; preds = %entry
  call void @_ZNSaIcEC1Ev(ptr noundef nonnull align 1 dereferenceable(1) %ref.tmp1) #15
  %call.i4 = invoke noundef ptr @_ZNSt7__cxx1112basic_stringIcSt11char_traitsIcESaIcEE13_M_local_dataEv(ptr noundef nonnull align 8 dereferenceable(32) %ref.tmp)
          to label %call.i.noexc unwind label %lpad

call.i.noexc:                                     ; preds = %if.else
  invoke void @_ZNSt7__cxx1112basic_stringIcSt11char_traitsIcESaIcEE12_Alloc_hiderC1EPcRKS3_(ptr noundef nonnull align 8 dereferenceable(8) %ref.tmp, ptr noundef %call.i4, ptr noundef nonnull align 1 dereferenceable(1) %ref.tmp1)
          to label %if.end.i unwind label %lpad

lpad.i:                                           ; preds = %if.end.i
  %0 = landingpad { ptr, i32 }
          cleanup
  call void @_ZNSaIcED2Ev(ptr noundef nonnull align 1 dereferenceable(1) %ref.tmp) #15
  br label %ehcleanup

if.end.i:                                         ; preds = %call.i.noexc
  %call.i.i = call noundef i64 @strlen(ptr noundef nonnull dereferenceable(1) %str) #15
  %add.ptr.i = getelementptr inbounds i8, ptr %str, i64 %call.i.i
  invoke void @_ZNSt7__cxx1112basic_stringIcSt11char_traitsIcESaIcEE12_M_constructIPKcEEvT_S8_St20forward_iterator_tag(ptr noundef nonnull align 8 dereferenceable(32) %ref.tmp, ptr noundef nonnull %str, ptr noundef nonnull %add.ptr.i)
          to label %invoke.cont unwind label %lpad.i

invoke.cont:                                      ; preds = %if.end.i
  invoke void @_ZN7testing8internal13PrintStringToERKNSt7__cxx1112basic_stringIcSt11char_traitsIcESaIcEEEPSo(ptr noundef nonnull align 8 dereferenceable(32) %ref.tmp, ptr noundef %os)
          to label %invoke.cont3 unwind label %lpad2

invoke.cont3:                                     ; preds = %invoke.cont
  call void @_ZNSt7__cxx1112basic_stringIcSt11char_traitsIcESaIcEED1Ev(ptr noundef nonnull align 8 dereferenceable(32) %ref.tmp) #15
  call void @_ZNSaIcED1Ev(ptr noundef nonnull align 1 dereferenceable(1) %ref.tmp1) #15
  br label %if.end

lpad:                                             ; preds = %call.i.noexc, %if.else
  %1 = landingpad { ptr, i32 }
          cleanup
  br label %ehcleanup

lpad2:                                            ; preds = %invoke.cont
  %2 = landingpad { ptr, i32 }
          cleanup
  call void @_ZNSt7__cxx1112basic_stringIcSt11char_traitsIcESaIcEED1Ev(ptr noundef nonnull align 8 dereferenceable(32) %ref.tmp) #15
  br label %ehcleanup

ehcleanup:                                        ; preds = %lpad, %lpad.i, %lpad2
  %.pn = phi { ptr, i32 } [ %2, %lpad2 ], [ %1, %lpad ], [ %0, %lpad.i ]
  call void @_ZNSaIcED1Ev(ptr noundef nonnull align 1 dereferenceable(1) %ref.tmp1) #15
  resume { ptr, i32 } %.pn

if.end:                                           ; preds = %invoke.cont3, %if.then
  ret void
}

declare void @_ZN7testing8internal13PrintStringToERKNSt7__cxx1112basic_stringIcSt11char_traitsIcESaIcEEEPSo(ptr noundef nonnull align 8 dereferenceable(32), ptr noundef) local_unnamed_addr #0

declare void @_ZNSt7__cxx1112basic_stringIcSt11char_traitsIcESaIcEEC1EPKcmRKS3_(ptr noundef nonnull align 8 dereferenceable(32), ptr noundef, i64 noundef, ptr noundef nonnull align 1 dereferenceable(1)) unnamed_addr #0

; Function Attrs: mustprogress nofree nounwind willreturn memory(argmem: read)
declare i64 @strlen(ptr nocapture noundef) local_unnamed_addr #10

; Function Attrs: mustprogress uwtable
define linkonce_odr dso_local void @_ZN7testing8internal18CmpHelperEQFailureIA5_cNSt7__cxx1112basic_stringIcSt11char_traitsIcESaIcEEEEENS_15AssertionResultEPKcSB_RKT_RKT0_(ptr noalias sret(%"class.testing::AssertionResult") align 8 %agg.result, ptr noundef %lhs_expression, ptr noundef %rhs_expression, ptr noundef nonnull align 1 dereferenceable(5) %lhs, ptr noundef nonnull align 8 dereferenceable(32) %rhs) local_unnamed_addr #3 comdat personality ptr @__gxx_personality_v0 {
entry:
  %ss.i.i.i = alloca %"class.std::__cxx11::basic_stringstream", align 8
  %ss.i.i.i.i = alloca %"class.std::__cxx11::basic_stringstream", align 8
  %ref.tmp = alloca %"class.std::__cxx11::basic_string", align 8
  %ref.tmp1 = alloca %"class.std::__cxx11::basic_string", align 8
  call void @llvm.lifetime.start.p0(i64 392, ptr nonnull %ss.i.i.i.i), !noalias !174
  call void @_ZNSt7__cxx1118basic_stringstreamIcSt11char_traitsIcESaIcEEC1Ev(ptr noundef nonnull align 8 dereferenceable(128) %ss.i.i.i.i), !noalias !181
  %add.ptr.i.i.i.i = getelementptr inbounds i8, ptr %ss.i.i.i.i, i64 16
  invoke void @_ZN7testing8internal21UniversalTersePrinterIPKcE5PrintES3_PSo(ptr noundef nonnull %lhs, ptr noundef nonnull %add.ptr.i.i.i.i)
          to label %invoke.cont.i.i.i.i unwind label %lpad.i.i.i.i, !noalias !181

invoke.cont.i.i.i.i:                              ; preds = %entry
  invoke void @_ZNKSt7__cxx1118basic_stringstreamIcSt11char_traitsIcESaIcEE3strEv(ptr nonnull sret(%"class.std::__cxx11::basic_string") align 8 %ref.tmp, ptr noundef nonnull align 8 dereferenceable(128) %ss.i.i.i.i)
          to label %_ZN7testing8internal33FormatForComparisonFailureMessageIA5_cNSt7__cxx1112basic_stringIcSt11char_traitsIcESaIcEEEEES8_RKT_RKT0_.exit unwind label %lpad.i.i.i.i

common.resume:                                    ; preds = %ehcleanup, %lpad.i.i.i.i
  %common.resume.op = phi { ptr, i32 } [ %0, %lpad.i.i.i.i ], [ %.pn, %ehcleanup ]
  resume { ptr, i32 } %common.resume.op

lpad.i.i.i.i:                                     ; preds = %invoke.cont.i.i.i.i, %entry
  %0 = landingpad { ptr, i32 }
          cleanup
  call void @_ZNSt7__cxx1118basic_stringstreamIcSt11char_traitsIcESaIcEED1Ev(ptr noundef nonnull align 8 dereferenceable(128) %ss.i.i.i.i) #15
  br label %common.resume

_ZN7testing8internal33FormatForComparisonFailureMessageIA5_cNSt7__cxx1112basic_stringIcSt11char_traitsIcESaIcEEEEES8_RKT_RKT0_.exit: ; preds = %invoke.cont.i.i.i.i
  call void @_ZNSt7__cxx1118basic_stringstreamIcSt11char_traitsIcESaIcEED1Ev(ptr noundef nonnull align 8 dereferenceable(128) %ss.i.i.i.i) #15
  call void @llvm.lifetime.end.p0(i64 392, ptr nonnull %ss.i.i.i.i), !noalias !174
  call void @llvm.lifetime.start.p0(i64 392, ptr nonnull %ss.i.i.i), !noalias !184
  invoke void @_ZNSt7__cxx1118basic_stringstreamIcSt11char_traitsIcESaIcEEC1Ev(ptr noundef nonnull align 8 dereferenceable(128) %ss.i.i.i)
          to label %.noexc unwind label %lpad

.noexc:                                           ; preds = %_ZN7testing8internal33FormatForComparisonFailureMessageIA5_cNSt7__cxx1112basic_stringIcSt11char_traitsIcESaIcEEEEES8_RKT_RKT0_.exit
  %add.ptr.i.i.i = getelementptr inbounds i8, ptr %ss.i.i.i, i64 16
  invoke void @_ZN7testing8internal13PrintStringToERKNSt7__cxx1112basic_stringIcSt11char_traitsIcESaIcEEEPSo(ptr noundef nonnull align 8 dereferenceable(32) %rhs, ptr noundef nonnull %add.ptr.i.i.i)
          to label %invoke.cont.i.i.i unwind label %lpad.i.i.i, !noalias !189

invoke.cont.i.i.i:                                ; preds = %.noexc
  invoke void @_ZNKSt7__cxx1118basic_stringstreamIcSt11char_traitsIcESaIcEE3strEv(ptr nonnull sret(%"class.std::__cxx11::basic_string") align 8 %ref.tmp1, ptr noundef nonnull align 8 dereferenceable(128) %ss.i.i.i)
          to label %invoke.cont unwind label %lpad.i.i.i

lpad.i.i.i:                                       ; preds = %invoke.cont.i.i.i, %.noexc
  %1 = landingpad { ptr, i32 }
          cleanup
  call void @_ZNSt7__cxx1118basic_stringstreamIcSt11char_traitsIcESaIcEED1Ev(ptr noundef nonnull align 8 dereferenceable(128) %ss.i.i.i) #15
  br label %ehcleanup

invoke.cont:                                      ; preds = %invoke.cont.i.i.i
  call void @_ZNSt7__cxx1118basic_stringstreamIcSt11char_traitsIcESaIcEED1Ev(ptr noundef nonnull align 8 dereferenceable(128) %ss.i.i.i) #15
  call void @llvm.lifetime.end.p0(i64 392, ptr nonnull %ss.i.i.i), !noalias !184
  invoke void @_ZN7testing8internal9EqFailureEPKcS2_RKNSt7__cxx1112basic_stringIcSt11char_traitsIcESaIcEEESA_b(ptr sret(%"class.testing::AssertionResult") align 8 %agg.result, ptr noundef %lhs_expression, ptr noundef %rhs_expression, ptr noundef nonnull align 8 dereferenceable(32) %ref.tmp, ptr noundef nonnull align 8 dereferenceable(32) %ref.tmp1, i1 noundef zeroext false)
          to label %invoke.cont3 unwind label %lpad2

invoke.cont3:                                     ; preds = %invoke.cont
  call void @_ZNSt7__cxx1112basic_stringIcSt11char_traitsIcESaIcEED1Ev(ptr noundef nonnull align 8 dereferenceable(32) %ref.tmp1) #15
  call void @_ZNSt7__cxx1112basic_stringIcSt11char_traitsIcESaIcEED1Ev(ptr noundef nonnull align 8 dereferenceable(32) %ref.tmp) #15
  ret void

lpad:                                             ; preds = %_ZN7testing8internal33FormatForComparisonFailureMessageIA5_cNSt7__cxx1112basic_stringIcSt11char_traitsIcESaIcEEEEES8_RKT_RKT0_.exit
  %2 = landingpad { ptr, i32 }
          cleanup
  br label %ehcleanup

lpad2:                                            ; preds = %invoke.cont
  %3 = landingpad { ptr, i32 }
          cleanup
  call void @_ZNSt7__cxx1112basic_stringIcSt11char_traitsIcESaIcEED1Ev(ptr noundef nonnull align 8 dereferenceable(32) %ref.tmp1) #15
  br label %ehcleanup

ehcleanup:                                        ; preds = %lpad, %lpad.i.i.i, %lpad2
  %.pn = phi { ptr, i32 } [ %3, %lpad2 ], [ %2, %lpad ], [ %1, %lpad.i.i.i ]
  call void @_ZNSt7__cxx1112basic_stringIcSt11char_traitsIcESaIcEED1Ev(ptr noundef nonnull align 8 dereferenceable(32) %ref.tmp) #15
  br label %common.resume
}

declare void @_ZN4absl6StrCatB5cxx11ERKNS_8AlphaNumES2_(ptr sret(%"class.std::__cxx11::basic_string") align 8, ptr noundef nonnull align 8 dereferenceable(48), ptr noundef nonnull align 8 dereferenceable(48)) local_unnamed_addr #0

; Function Attrs: mustprogress uwtable
define linkonce_odr dso_local void @_ZN7testing8internal18CmpHelperEQFailureIA7_cNSt7__cxx1112basic_stringIcSt11char_traitsIcESaIcEEEEENS_15AssertionResultEPKcSB_RKT_RKT0_(ptr noalias sret(%"class.testing::AssertionResult") align 8 %agg.result, ptr noundef %lhs_expression, ptr noundef %rhs_expression, ptr noundef nonnull align 1 dereferenceable(7) %lhs, ptr noundef nonnull align 8 dereferenceable(32) %rhs) local_unnamed_addr #3 comdat personality ptr @__gxx_personality_v0 {
entry:
  %ss.i.i.i = alloca %"class.std::__cxx11::basic_stringstream", align 8
  %ss.i.i.i.i = alloca %"class.std::__cxx11::basic_stringstream", align 8
  %ref.tmp = alloca %"class.std::__cxx11::basic_string", align 8
  %ref.tmp1 = alloca %"class.std::__cxx11::basic_string", align 8
  call void @llvm.lifetime.start.p0(i64 392, ptr nonnull %ss.i.i.i.i), !noalias !192
  call void @_ZNSt7__cxx1118basic_stringstreamIcSt11char_traitsIcESaIcEEC1Ev(ptr noundef nonnull align 8 dereferenceable(128) %ss.i.i.i.i), !noalias !199
  %add.ptr.i.i.i.i = getelementptr inbounds i8, ptr %ss.i.i.i.i, i64 16
  invoke void @_ZN7testing8internal21UniversalTersePrinterIPKcE5PrintES3_PSo(ptr noundef nonnull %lhs, ptr noundef nonnull %add.ptr.i.i.i.i)
          to label %invoke.cont.i.i.i.i unwind label %lpad.i.i.i.i, !noalias !199

invoke.cont.i.i.i.i:                              ; preds = %entry
  invoke void @_ZNKSt7__cxx1118basic_stringstreamIcSt11char_traitsIcESaIcEE3strEv(ptr nonnull sret(%"class.std::__cxx11::basic_string") align 8 %ref.tmp, ptr noundef nonnull align 8 dereferenceable(128) %ss.i.i.i.i)
          to label %_ZN7testing8internal33FormatForComparisonFailureMessageIA7_cNSt7__cxx1112basic_stringIcSt11char_traitsIcESaIcEEEEES8_RKT_RKT0_.exit unwind label %lpad.i.i.i.i

common.resume:                                    ; preds = %ehcleanup, %lpad.i.i.i.i
  %common.resume.op = phi { ptr, i32 } [ %0, %lpad.i.i.i.i ], [ %.pn, %ehcleanup ]
  resume { ptr, i32 } %common.resume.op

lpad.i.i.i.i:                                     ; preds = %invoke.cont.i.i.i.i, %entry
  %0 = landingpad { ptr, i32 }
          cleanup
  call void @_ZNSt7__cxx1118basic_stringstreamIcSt11char_traitsIcESaIcEED1Ev(ptr noundef nonnull align 8 dereferenceable(128) %ss.i.i.i.i) #15
  br label %common.resume

_ZN7testing8internal33FormatForComparisonFailureMessageIA7_cNSt7__cxx1112basic_stringIcSt11char_traitsIcESaIcEEEEES8_RKT_RKT0_.exit: ; preds = %invoke.cont.i.i.i.i
  call void @_ZNSt7__cxx1118basic_stringstreamIcSt11char_traitsIcESaIcEED1Ev(ptr noundef nonnull align 8 dereferenceable(128) %ss.i.i.i.i) #15
  call void @llvm.lifetime.end.p0(i64 392, ptr nonnull %ss.i.i.i.i), !noalias !192
  call void @llvm.lifetime.start.p0(i64 392, ptr nonnull %ss.i.i.i), !noalias !202
  invoke void @_ZNSt7__cxx1118basic_stringstreamIcSt11char_traitsIcESaIcEEC1Ev(ptr noundef nonnull align 8 dereferenceable(128) %ss.i.i.i)
          to label %.noexc unwind label %lpad

.noexc:                                           ; preds = %_ZN7testing8internal33FormatForComparisonFailureMessageIA7_cNSt7__cxx1112basic_stringIcSt11char_traitsIcESaIcEEEEES8_RKT_RKT0_.exit
  %add.ptr.i.i.i = getelementptr inbounds i8, ptr %ss.i.i.i, i64 16
  invoke void @_ZN7testing8internal13PrintStringToERKNSt7__cxx1112basic_stringIcSt11char_traitsIcESaIcEEEPSo(ptr noundef nonnull align 8 dereferenceable(32) %rhs, ptr noundef nonnull %add.ptr.i.i.i)
          to label %invoke.cont.i.i.i unwind label %lpad.i.i.i, !noalias !207

invoke.cont.i.i.i:                                ; preds = %.noexc
  invoke void @_ZNKSt7__cxx1118basic_stringstreamIcSt11char_traitsIcESaIcEE3strEv(ptr nonnull sret(%"class.std::__cxx11::basic_string") align 8 %ref.tmp1, ptr noundef nonnull align 8 dereferenceable(128) %ss.i.i.i)
          to label %invoke.cont unwind label %lpad.i.i.i

lpad.i.i.i:                                       ; preds = %invoke.cont.i.i.i, %.noexc
  %1 = landingpad { ptr, i32 }
          cleanup
  call void @_ZNSt7__cxx1118basic_stringstreamIcSt11char_traitsIcESaIcEED1Ev(ptr noundef nonnull align 8 dereferenceable(128) %ss.i.i.i) #15
  br label %ehcleanup

invoke.cont:                                      ; preds = %invoke.cont.i.i.i
  call void @_ZNSt7__cxx1118basic_stringstreamIcSt11char_traitsIcESaIcEED1Ev(ptr noundef nonnull align 8 dereferenceable(128) %ss.i.i.i) #15
  call void @llvm.lifetime.end.p0(i64 392, ptr nonnull %ss.i.i.i), !noalias !202
  invoke void @_ZN7testing8internal9EqFailureEPKcS2_RKNSt7__cxx1112basic_stringIcSt11char_traitsIcESaIcEEESA_b(ptr sret(%"class.testing::AssertionResult") align 8 %agg.result, ptr noundef %lhs_expression, ptr noundef %rhs_expression, ptr noundef nonnull align 8 dereferenceable(32) %ref.tmp, ptr noundef nonnull align 8 dereferenceable(32) %ref.tmp1, i1 noundef zeroext false)
          to label %invoke.cont3 unwind label %lpad2

invoke.cont3:                                     ; preds = %invoke.cont
  call void @_ZNSt7__cxx1112basic_stringIcSt11char_traitsIcESaIcEED1Ev(ptr noundef nonnull align 8 dereferenceable(32) %ref.tmp1) #15
  call void @_ZNSt7__cxx1112basic_stringIcSt11char_traitsIcESaIcEED1Ev(ptr noundef nonnull align 8 dereferenceable(32) %ref.tmp) #15
  ret void

lpad:                                             ; preds = %_ZN7testing8internal33FormatForComparisonFailureMessageIA7_cNSt7__cxx1112basic_stringIcSt11char_traitsIcESaIcEEEEES8_RKT_RKT0_.exit
  %2 = landingpad { ptr, i32 }
          cleanup
  br label %ehcleanup

lpad2:                                            ; preds = %invoke.cont
  %3 = landingpad { ptr, i32 }
          cleanup
  call void @_ZNSt7__cxx1112basic_stringIcSt11char_traitsIcESaIcEED1Ev(ptr noundef nonnull align 8 dereferenceable(32) %ref.tmp1) #15
  br label %ehcleanup

ehcleanup:                                        ; preds = %lpad, %lpad.i.i.i, %lpad2
  %.pn = phi { ptr, i32 } [ %3, %lpad2 ], [ %2, %lpad ], [ %1, %lpad.i.i.i ]
  call void @_ZNSt7__cxx1112basic_stringIcSt11char_traitsIcESaIcEED1Ev(ptr noundef nonnull align 8 dereferenceable(32) %ref.tmp) #15
  br label %common.resume
}

; Function Attrs: mustprogress uwtable
define linkonce_odr dso_local void @_ZN7testing8internal18CmpHelperEQFailureIA10_cNSt7__cxx1112basic_stringIcSt11char_traitsIcESaIcEEEEENS_15AssertionResultEPKcSB_RKT_RKT0_(ptr noalias sret(%"class.testing::AssertionResult") align 8 %agg.result, ptr noundef %lhs_expression, ptr noundef %rhs_expression, ptr noundef nonnull align 1 dereferenceable(10) %lhs, ptr noundef nonnull align 8 dereferenceable(32) %rhs) local_unnamed_addr #3 comdat personality ptr @__gxx_personality_v0 {
entry:
  %ss.i.i.i = alloca %"class.std::__cxx11::basic_stringstream", align 8
  %ss.i.i.i.i = alloca %"class.std::__cxx11::basic_stringstream", align 8
  %ref.tmp = alloca %"class.std::__cxx11::basic_string", align 8
  %ref.tmp1 = alloca %"class.std::__cxx11::basic_string", align 8
  call void @llvm.lifetime.start.p0(i64 392, ptr nonnull %ss.i.i.i.i), !noalias !210
  call void @_ZNSt7__cxx1118basic_stringstreamIcSt11char_traitsIcESaIcEEC1Ev(ptr noundef nonnull align 8 dereferenceable(128) %ss.i.i.i.i), !noalias !217
  %add.ptr.i.i.i.i = getelementptr inbounds i8, ptr %ss.i.i.i.i, i64 16
  invoke void @_ZN7testing8internal21UniversalTersePrinterIPKcE5PrintES3_PSo(ptr noundef nonnull %lhs, ptr noundef nonnull %add.ptr.i.i.i.i)
          to label %invoke.cont.i.i.i.i unwind label %lpad.i.i.i.i, !noalias !217

invoke.cont.i.i.i.i:                              ; preds = %entry
  invoke void @_ZNKSt7__cxx1118basic_stringstreamIcSt11char_traitsIcESaIcEE3strEv(ptr nonnull sret(%"class.std::__cxx11::basic_string") align 8 %ref.tmp, ptr noundef nonnull align 8 dereferenceable(128) %ss.i.i.i.i)
          to label %_ZN7testing8internal33FormatForComparisonFailureMessageIA10_cNSt7__cxx1112basic_stringIcSt11char_traitsIcESaIcEEEEES8_RKT_RKT0_.exit unwind label %lpad.i.i.i.i

common.resume:                                    ; preds = %ehcleanup, %lpad.i.i.i.i
  %common.resume.op = phi { ptr, i32 } [ %0, %lpad.i.i.i.i ], [ %.pn, %ehcleanup ]
  resume { ptr, i32 } %common.resume.op

lpad.i.i.i.i:                                     ; preds = %invoke.cont.i.i.i.i, %entry
  %0 = landingpad { ptr, i32 }
          cleanup
  call void @_ZNSt7__cxx1118basic_stringstreamIcSt11char_traitsIcESaIcEED1Ev(ptr noundef nonnull align 8 dereferenceable(128) %ss.i.i.i.i) #15
  br label %common.resume

_ZN7testing8internal33FormatForComparisonFailureMessageIA10_cNSt7__cxx1112basic_stringIcSt11char_traitsIcESaIcEEEEES8_RKT_RKT0_.exit: ; preds = %invoke.cont.i.i.i.i
  call void @_ZNSt7__cxx1118basic_stringstreamIcSt11char_traitsIcESaIcEED1Ev(ptr noundef nonnull align 8 dereferenceable(128) %ss.i.i.i.i) #15
  call void @llvm.lifetime.end.p0(i64 392, ptr nonnull %ss.i.i.i.i), !noalias !210
  call void @llvm.lifetime.start.p0(i64 392, ptr nonnull %ss.i.i.i), !noalias !220
  invoke void @_ZNSt7__cxx1118basic_stringstreamIcSt11char_traitsIcESaIcEEC1Ev(ptr noundef nonnull align 8 dereferenceable(128) %ss.i.i.i)
          to label %.noexc unwind label %lpad

.noexc:                                           ; preds = %_ZN7testing8internal33FormatForComparisonFailureMessageIA10_cNSt7__cxx1112basic_stringIcSt11char_traitsIcESaIcEEEEES8_RKT_RKT0_.exit
  %add.ptr.i.i.i = getelementptr inbounds i8, ptr %ss.i.i.i, i64 16
  invoke void @_ZN7testing8internal13PrintStringToERKNSt7__cxx1112basic_stringIcSt11char_traitsIcESaIcEEEPSo(ptr noundef nonnull align 8 dereferenceable(32) %rhs, ptr noundef nonnull %add.ptr.i.i.i)
          to label %invoke.cont.i.i.i unwind label %lpad.i.i.i, !noalias !225

invoke.cont.i.i.i:                                ; preds = %.noexc
  invoke void @_ZNKSt7__cxx1118basic_stringstreamIcSt11char_traitsIcESaIcEE3strEv(ptr nonnull sret(%"class.std::__cxx11::basic_string") align 8 %ref.tmp1, ptr noundef nonnull align 8 dereferenceable(128) %ss.i.i.i)
          to label %invoke.cont unwind label %lpad.i.i.i

lpad.i.i.i:                                       ; preds = %invoke.cont.i.i.i, %.noexc
  %1 = landingpad { ptr, i32 }
          cleanup
  call void @_ZNSt7__cxx1118basic_stringstreamIcSt11char_traitsIcESaIcEED1Ev(ptr noundef nonnull align 8 dereferenceable(128) %ss.i.i.i) #15
  br label %ehcleanup

invoke.cont:                                      ; preds = %invoke.cont.i.i.i
  call void @_ZNSt7__cxx1118basic_stringstreamIcSt11char_traitsIcESaIcEED1Ev(ptr noundef nonnull align 8 dereferenceable(128) %ss.i.i.i) #15
  call void @llvm.lifetime.end.p0(i64 392, ptr nonnull %ss.i.i.i), !noalias !220
  invoke void @_ZN7testing8internal9EqFailureEPKcS2_RKNSt7__cxx1112basic_stringIcSt11char_traitsIcESaIcEEESA_b(ptr sret(%"class.testing::AssertionResult") align 8 %agg.result, ptr noundef %lhs_expression, ptr noundef %rhs_expression, ptr noundef nonnull align 8 dereferenceable(32) %ref.tmp, ptr noundef nonnull align 8 dereferenceable(32) %ref.tmp1, i1 noundef zeroext false)
          to label %invoke.cont3 unwind label %lpad2

invoke.cont3:                                     ; preds = %invoke.cont
  call void @_ZNSt7__cxx1112basic_stringIcSt11char_traitsIcESaIcEED1Ev(ptr noundef nonnull align 8 dereferenceable(32) %ref.tmp1) #15
  call void @_ZNSt7__cxx1112basic_stringIcSt11char_traitsIcESaIcEED1Ev(ptr noundef nonnull align 8 dereferenceable(32) %ref.tmp) #15
  ret void

lpad:                                             ; preds = %_ZN7testing8internal33FormatForComparisonFailureMessageIA10_cNSt7__cxx1112basic_stringIcSt11char_traitsIcESaIcEEEEES8_RKT_RKT0_.exit
  %2 = landingpad { ptr, i32 }
          cleanup
  br label %ehcleanup

lpad2:                                            ; preds = %invoke.cont
  %3 = landingpad { ptr, i32 }
          cleanup
  call void @_ZNSt7__cxx1112basic_stringIcSt11char_traitsIcESaIcEED1Ev(ptr noundef nonnull align 8 dereferenceable(32) %ref.tmp1) #15
  br label %ehcleanup

ehcleanup:                                        ; preds = %lpad, %lpad.i.i.i, %lpad2
  %.pn = phi { ptr, i32 } [ %3, %lpad2 ], [ %2, %lpad ], [ %1, %lpad.i.i.i ]
  call void @_ZNSt7__cxx1112basic_stringIcSt11char_traitsIcESaIcEED1Ev(ptr noundef nonnull align 8 dereferenceable(32) %ref.tmp) #15
  br label %common.resume
}

; Function Attrs: mustprogress uwtable
define linkonce_odr dso_local void @_ZN7testing8internal18CmpHelperEQFailureIA3_cNSt7__cxx1112basic_stringIcSt11char_traitsIcESaIcEEEEENS_15AssertionResultEPKcSB_RKT_RKT0_(ptr noalias sret(%"class.testing::AssertionResult") align 8 %agg.result, ptr noundef %lhs_expression, ptr noundef %rhs_expression, ptr noundef nonnull align 1 dereferenceable(3) %lhs, ptr noundef nonnull align 8 dereferenceable(32) %rhs) local_unnamed_addr #3 comdat personality ptr @__gxx_personality_v0 {
entry:
  %ss.i.i.i = alloca %"class.std::__cxx11::basic_stringstream", align 8
  %ss.i.i.i.i = alloca %"class.std::__cxx11::basic_stringstream", align 8
  %ref.tmp = alloca %"class.std::__cxx11::basic_string", align 8
  %ref.tmp1 = alloca %"class.std::__cxx11::basic_string", align 8
  call void @llvm.lifetime.start.p0(i64 392, ptr nonnull %ss.i.i.i.i), !noalias !228
  call void @_ZNSt7__cxx1118basic_stringstreamIcSt11char_traitsIcESaIcEEC1Ev(ptr noundef nonnull align 8 dereferenceable(128) %ss.i.i.i.i), !noalias !235
  %add.ptr.i.i.i.i = getelementptr inbounds i8, ptr %ss.i.i.i.i, i64 16
  invoke void @_ZN7testing8internal21UniversalTersePrinterIPKcE5PrintES3_PSo(ptr noundef nonnull %lhs, ptr noundef nonnull %add.ptr.i.i.i.i)
          to label %invoke.cont.i.i.i.i unwind label %lpad.i.i.i.i, !noalias !235

invoke.cont.i.i.i.i:                              ; preds = %entry
  invoke void @_ZNKSt7__cxx1118basic_stringstreamIcSt11char_traitsIcESaIcEE3strEv(ptr nonnull sret(%"class.std::__cxx11::basic_string") align 8 %ref.tmp, ptr noundef nonnull align 8 dereferenceable(128) %ss.i.i.i.i)
          to label %_ZN7testing8internal33FormatForComparisonFailureMessageIA3_cNSt7__cxx1112basic_stringIcSt11char_traitsIcESaIcEEEEES8_RKT_RKT0_.exit unwind label %lpad.i.i.i.i

common.resume:                                    ; preds = %ehcleanup, %lpad.i.i.i.i
  %common.resume.op = phi { ptr, i32 } [ %0, %lpad.i.i.i.i ], [ %.pn, %ehcleanup ]
  resume { ptr, i32 } %common.resume.op

lpad.i.i.i.i:                                     ; preds = %invoke.cont.i.i.i.i, %entry
  %0 = landingpad { ptr, i32 }
          cleanup
  call void @_ZNSt7__cxx1118basic_stringstreamIcSt11char_traitsIcESaIcEED1Ev(ptr noundef nonnull align 8 dereferenceable(128) %ss.i.i.i.i) #15
  br label %common.resume

_ZN7testing8internal33FormatForComparisonFailureMessageIA3_cNSt7__cxx1112basic_stringIcSt11char_traitsIcESaIcEEEEES8_RKT_RKT0_.exit: ; preds = %invoke.cont.i.i.i.i
  call void @_ZNSt7__cxx1118basic_stringstreamIcSt11char_traitsIcESaIcEED1Ev(ptr noundef nonnull align 8 dereferenceable(128) %ss.i.i.i.i) #15
  call void @llvm.lifetime.end.p0(i64 392, ptr nonnull %ss.i.i.i.i), !noalias !228
  call void @llvm.lifetime.start.p0(i64 392, ptr nonnull %ss.i.i.i), !noalias !238
  invoke void @_ZNSt7__cxx1118basic_stringstreamIcSt11char_traitsIcESaIcEEC1Ev(ptr noundef nonnull align 8 dereferenceable(128) %ss.i.i.i)
          to label %.noexc unwind label %lpad

.noexc:                                           ; preds = %_ZN7testing8internal33FormatForComparisonFailureMessageIA3_cNSt7__cxx1112basic_stringIcSt11char_traitsIcESaIcEEEEES8_RKT_RKT0_.exit
  %add.ptr.i.i.i = getelementptr inbounds i8, ptr %ss.i.i.i, i64 16
  invoke void @_ZN7testing8internal13PrintStringToERKNSt7__cxx1112basic_stringIcSt11char_traitsIcESaIcEEEPSo(ptr noundef nonnull align 8 dereferenceable(32) %rhs, ptr noundef nonnull %add.ptr.i.i.i)
          to label %invoke.cont.i.i.i unwind label %lpad.i.i.i, !noalias !243

invoke.cont.i.i.i:                                ; preds = %.noexc
  invoke void @_ZNKSt7__cxx1118basic_stringstreamIcSt11char_traitsIcESaIcEE3strEv(ptr nonnull sret(%"class.std::__cxx11::basic_string") align 8 %ref.tmp1, ptr noundef nonnull align 8 dereferenceable(128) %ss.i.i.i)
          to label %invoke.cont unwind label %lpad.i.i.i

lpad.i.i.i:                                       ; preds = %invoke.cont.i.i.i, %.noexc
  %1 = landingpad { ptr, i32 }
          cleanup
  call void @_ZNSt7__cxx1118basic_stringstreamIcSt11char_traitsIcESaIcEED1Ev(ptr noundef nonnull align 8 dereferenceable(128) %ss.i.i.i) #15
  br label %ehcleanup

invoke.cont:                                      ; preds = %invoke.cont.i.i.i
  call void @_ZNSt7__cxx1118basic_stringstreamIcSt11char_traitsIcESaIcEED1Ev(ptr noundef nonnull align 8 dereferenceable(128) %ss.i.i.i) #15
  call void @llvm.lifetime.end.p0(i64 392, ptr nonnull %ss.i.i.i), !noalias !238
  invoke void @_ZN7testing8internal9EqFailureEPKcS2_RKNSt7__cxx1112basic_stringIcSt11char_traitsIcESaIcEEESA_b(ptr sret(%"class.testing::AssertionResult") align 8 %agg.result, ptr noundef %lhs_expression, ptr noundef %rhs_expression, ptr noundef nonnull align 8 dereferenceable(32) %ref.tmp, ptr noundef nonnull align 8 dereferenceable(32) %ref.tmp1, i1 noundef zeroext false)
          to label %invoke.cont3 unwind label %lpad2

invoke.cont3:                                     ; preds = %invoke.cont
  call void @_ZNSt7__cxx1112basic_stringIcSt11char_traitsIcESaIcEED1Ev(ptr noundef nonnull align 8 dereferenceable(32) %ref.tmp1) #15
  call void @_ZNSt7__cxx1112basic_stringIcSt11char_traitsIcESaIcEED1Ev(ptr noundef nonnull align 8 dereferenceable(32) %ref.tmp) #15
  ret void

lpad:                                             ; preds = %_ZN7testing8internal33FormatForComparisonFailureMessageIA3_cNSt7__cxx1112basic_stringIcSt11char_traitsIcESaIcEEEEES8_RKT_RKT0_.exit
  %2 = landingpad { ptr, i32 }
          cleanup
  br label %ehcleanup

lpad2:                                            ; preds = %invoke.cont
  %3 = landingpad { ptr, i32 }
          cleanup
  call void @_ZNSt7__cxx1112basic_stringIcSt11char_traitsIcESaIcEED1Ev(ptr noundef nonnull align 8 dereferenceable(32) %ref.tmp1) #15
  br label %ehcleanup

ehcleanup:                                        ; preds = %lpad, %lpad.i.i.i, %lpad2
  %.pn = phi { ptr, i32 } [ %3, %lpad2 ], [ %2, %lpad ], [ %1, %lpad.i.i.i ]
  call void @_ZNSt7__cxx1112basic_stringIcSt11char_traitsIcESaIcEED1Ev(ptr noundef nonnull align 8 dereferenceable(32) %ref.tmp) #15
  br label %common.resume
}

; Function Attrs: mustprogress uwtable
define linkonce_odr dso_local void @_ZN7testing8internal18CmpHelperEQFailureIA6_cNSt7__cxx1112basic_stringIcSt11char_traitsIcESaIcEEEEENS_15AssertionResultEPKcSB_RKT_RKT0_(ptr noalias sret(%"class.testing::AssertionResult") align 8 %agg.result, ptr noundef %lhs_expression, ptr noundef %rhs_expression, ptr noundef nonnull align 1 dereferenceable(6) %lhs, ptr noundef nonnull align 8 dereferenceable(32) %rhs) local_unnamed_addr #3 comdat personality ptr @__gxx_personality_v0 {
entry:
  %ss.i.i.i = alloca %"class.std::__cxx11::basic_stringstream", align 8
  %ss.i.i.i.i = alloca %"class.std::__cxx11::basic_stringstream", align 8
  %ref.tmp = alloca %"class.std::__cxx11::basic_string", align 8
  %ref.tmp1 = alloca %"class.std::__cxx11::basic_string", align 8
  call void @llvm.lifetime.start.p0(i64 392, ptr nonnull %ss.i.i.i.i), !noalias !246
  call void @_ZNSt7__cxx1118basic_stringstreamIcSt11char_traitsIcESaIcEEC1Ev(ptr noundef nonnull align 8 dereferenceable(128) %ss.i.i.i.i), !noalias !253
  %add.ptr.i.i.i.i = getelementptr inbounds i8, ptr %ss.i.i.i.i, i64 16
  invoke void @_ZN7testing8internal21UniversalTersePrinterIPKcE5PrintES3_PSo(ptr noundef nonnull %lhs, ptr noundef nonnull %add.ptr.i.i.i.i)
          to label %invoke.cont.i.i.i.i unwind label %lpad.i.i.i.i, !noalias !253

invoke.cont.i.i.i.i:                              ; preds = %entry
  invoke void @_ZNKSt7__cxx1118basic_stringstreamIcSt11char_traitsIcESaIcEE3strEv(ptr nonnull sret(%"class.std::__cxx11::basic_string") align 8 %ref.tmp, ptr noundef nonnull align 8 dereferenceable(128) %ss.i.i.i.i)
          to label %_ZN7testing8internal33FormatForComparisonFailureMessageIA6_cNSt7__cxx1112basic_stringIcSt11char_traitsIcESaIcEEEEES8_RKT_RKT0_.exit unwind label %lpad.i.i.i.i

common.resume:                                    ; preds = %ehcleanup, %lpad.i.i.i.i
  %common.resume.op = phi { ptr, i32 } [ %0, %lpad.i.i.i.i ], [ %.pn, %ehcleanup ]
  resume { ptr, i32 } %common.resume.op

lpad.i.i.i.i:                                     ; preds = %invoke.cont.i.i.i.i, %entry
  %0 = landingpad { ptr, i32 }
          cleanup
  call void @_ZNSt7__cxx1118basic_stringstreamIcSt11char_traitsIcESaIcEED1Ev(ptr noundef nonnull align 8 dereferenceable(128) %ss.i.i.i.i) #15
  br label %common.resume

_ZN7testing8internal33FormatForComparisonFailureMessageIA6_cNSt7__cxx1112basic_stringIcSt11char_traitsIcESaIcEEEEES8_RKT_RKT0_.exit: ; preds = %invoke.cont.i.i.i.i
  call void @_ZNSt7__cxx1118basic_stringstreamIcSt11char_traitsIcESaIcEED1Ev(ptr noundef nonnull align 8 dereferenceable(128) %ss.i.i.i.i) #15
  call void @llvm.lifetime.end.p0(i64 392, ptr nonnull %ss.i.i.i.i), !noalias !246
  call void @llvm.lifetime.start.p0(i64 392, ptr nonnull %ss.i.i.i), !noalias !256
  invoke void @_ZNSt7__cxx1118basic_stringstreamIcSt11char_traitsIcESaIcEEC1Ev(ptr noundef nonnull align 8 dereferenceable(128) %ss.i.i.i)
          to label %.noexc unwind label %lpad

.noexc:                                           ; preds = %_ZN7testing8internal33FormatForComparisonFailureMessageIA6_cNSt7__cxx1112basic_stringIcSt11char_traitsIcESaIcEEEEES8_RKT_RKT0_.exit
  %add.ptr.i.i.i = getelementptr inbounds i8, ptr %ss.i.i.i, i64 16
  invoke void @_ZN7testing8internal13PrintStringToERKNSt7__cxx1112basic_stringIcSt11char_traitsIcESaIcEEEPSo(ptr noundef nonnull align 8 dereferenceable(32) %rhs, ptr noundef nonnull %add.ptr.i.i.i)
          to label %invoke.cont.i.i.i unwind label %lpad.i.i.i, !noalias !261

invoke.cont.i.i.i:                                ; preds = %.noexc
  invoke void @_ZNKSt7__cxx1118basic_stringstreamIcSt11char_traitsIcESaIcEE3strEv(ptr nonnull sret(%"class.std::__cxx11::basic_string") align 8 %ref.tmp1, ptr noundef nonnull align 8 dereferenceable(128) %ss.i.i.i)
          to label %invoke.cont unwind label %lpad.i.i.i

lpad.i.i.i:                                       ; preds = %invoke.cont.i.i.i, %.noexc
  %1 = landingpad { ptr, i32 }
          cleanup
  call void @_ZNSt7__cxx1118basic_stringstreamIcSt11char_traitsIcESaIcEED1Ev(ptr noundef nonnull align 8 dereferenceable(128) %ss.i.i.i) #15
  br label %ehcleanup

invoke.cont:                                      ; preds = %invoke.cont.i.i.i
  call void @_ZNSt7__cxx1118basic_stringstreamIcSt11char_traitsIcESaIcEED1Ev(ptr noundef nonnull align 8 dereferenceable(128) %ss.i.i.i) #15
  call void @llvm.lifetime.end.p0(i64 392, ptr nonnull %ss.i.i.i), !noalias !256
  invoke void @_ZN7testing8internal9EqFailureEPKcS2_RKNSt7__cxx1112basic_stringIcSt11char_traitsIcESaIcEEESA_b(ptr sret(%"class.testing::AssertionResult") align 8 %agg.result, ptr noundef %lhs_expression, ptr noundef %rhs_expression, ptr noundef nonnull align 8 dereferenceable(32) %ref.tmp, ptr noundef nonnull align 8 dereferenceable(32) %ref.tmp1, i1 noundef zeroext false)
          to label %invoke.cont3 unwind label %lpad2

invoke.cont3:                                     ; preds = %invoke.cont
  call void @_ZNSt7__cxx1112basic_stringIcSt11char_traitsIcESaIcEED1Ev(ptr noundef nonnull align 8 dereferenceable(32) %ref.tmp1) #15
  call void @_ZNSt7__cxx1112basic_stringIcSt11char_traitsIcESaIcEED1Ev(ptr noundef nonnull align 8 dereferenceable(32) %ref.tmp) #15
  ret void

lpad:                                             ; preds = %_ZN7testing8internal33FormatForComparisonFailureMessageIA6_cNSt7__cxx1112basic_stringIcSt11char_traitsIcESaIcEEEEES8_RKT_RKT0_.exit
  %2 = landingpad { ptr, i32 }
          cleanup
  br label %ehcleanup

lpad2:                                            ; preds = %invoke.cont
  %3 = landingpad { ptr, i32 }
          cleanup
  call void @_ZNSt7__cxx1112basic_stringIcSt11char_traitsIcESaIcEED1Ev(ptr noundef nonnull align 8 dereferenceable(32) %ref.tmp1) #15
  br label %ehcleanup

ehcleanup:                                        ; preds = %lpad, %lpad.i.i.i, %lpad2
  %.pn = phi { ptr, i32 } [ %3, %lpad2 ], [ %2, %lpad ], [ %1, %lpad.i.i.i ]
  call void @_ZNSt7__cxx1112basic_stringIcSt11char_traitsIcESaIcEED1Ev(ptr noundef nonnull align 8 dereferenceable(32) %ref.tmp) #15
  br label %common.resume
}

; Function Attrs: mustprogress nofree norecurse nosync nounwind willreturn memory(none) uwtable
define internal void @_ZN7testing8internal15TestFactoryImplIN4absl13base_internal12_GLOBAL__N_132InvokeTest_ReferenceWrapper_TestEED2Ev(ptr nocapture nonnull readnone align 8 %this) unnamed_addr #6 align 2 {
entry:
  ret void
}

; Function Attrs: mustprogress nounwind uwtable
define internal void @_ZN7testing8internal15TestFactoryImplIN4absl13base_internal12_GLOBAL__N_132InvokeTest_ReferenceWrapper_TestEED0Ev(ptr noundef nonnull align 8 dereferenceable(8) %this) unnamed_addr #7 align 2 {
entry:
  tail call void @_ZdlPv(ptr noundef nonnull %this) #16
  ret void
}

; Function Attrs: mustprogress uwtable
define internal noundef nonnull ptr @_ZN7testing8internal15TestFactoryImplIN4absl13base_internal12_GLOBAL__N_132InvokeTest_ReferenceWrapper_TestEE10CreateTestEv(ptr nocapture nonnull readnone align 8 %this) unnamed_addr #3 align 2 personality ptr @__gxx_personality_v0 {
entry:
  %call = tail call noalias noundef nonnull dereferenceable(16) ptr @_Znwm(i64 noundef 16) #17
  invoke void @_ZN7testing4TestC2Ev(ptr noundef nonnull align 8 dereferenceable(16) %call)
          to label %invoke.cont unwind label %lpad

invoke.cont:                                      ; preds = %entry
  store ptr getelementptr inbounds ({ [8 x ptr] }, ptr @_ZTVN4absl13base_internal12_GLOBAL__N_132InvokeTest_ReferenceWrapper_TestE, i64 0, inrange i32 0, i64 2), ptr %call, align 8
  ret ptr %call

lpad:                                             ; preds = %entry
  %0 = landingpad { ptr, i32 }
          cleanup
  tail call void @_ZdlPv(ptr noundef nonnull %call) #16
  resume { ptr, i32 } %0
}

; Function Attrs: mustprogress nounwind uwtable
define internal void @_ZN4absl13base_internal12_GLOBAL__N_132InvokeTest_ReferenceWrapper_TestD2Ev(ptr noundef nonnull align 8 dereferenceable(16) %this) unnamed_addr #7 align 2 {
entry:
  tail call void @_ZN7testing4TestD2Ev(ptr noundef nonnull align 8 dereferenceable(16) %this) #15
  ret void
}

; Function Attrs: mustprogress nounwind uwtable
define internal void @_ZN4absl13base_internal12_GLOBAL__N_132InvokeTest_ReferenceWrapper_TestD0Ev(ptr noundef nonnull align 8 dereferenceable(16) %this) unnamed_addr #7 align 2 {
entry:
  tail call void @_ZN7testing4TestD2Ev(ptr noundef nonnull align 8 dereferenceable(16) %this) #15
  tail call void @_ZdlPv(ptr noundef nonnull %this) #16
  ret void
}

; Function Attrs: mustprogress uwtable
define internal void @_ZN4absl13base_internal12_GLOBAL__N_132InvokeTest_ReferenceWrapper_Test8TestBodyEv(ptr nocapture nonnull readnone align 8 %this) unnamed_addr #3 align 2 personality ptr @__gxx_personality_v0 {
_ZN7testing8internal8EqHelper7CompareIiiTnPNSt9enable_ifIXoontsr3std11is_integralIT_EE5valuentsr3std10is_pointerIT0_EE5valueEvE4typeELPv0EEENS_15AssertionResultEPKcSC_RKS4_RKS5_.exit:
  %gtest_ar = alloca %"class.testing::AssertionResult", align 8
  %ref.tmp8 = alloca %"class.testing::Message", align 8
  %ref.tmp9 = alloca %"class.testing::internal::AssertHelper", align 8
  %gtest_ar17 = alloca %"class.testing::AssertionResult", align 8
  %ref.tmp29 = alloca %"class.testing::Message", align 8
  %ref.tmp32 = alloca %"class.testing::internal::AssertHelper", align 8
  %gtest_ar43 = alloca %"class.testing::AssertionResult", align 8
  %ref.tmp55 = alloca %"class.testing::Message", align 8
  %ref.tmp58 = alloca %"class.testing::internal::AssertHelper", align 8
  call void @_ZN7testing16AssertionSuccessEv(ptr nonnull sret(%"class.testing::AssertionResult") align 8 %gtest_ar)
  %0 = load i8, ptr %gtest_ar, align 8
  %1 = and i8 %0, 1
  %tobool.i.not = icmp eq i8 %1, 0
  br i1 %tobool.i.not, label %if.else, label %if.end

if.else:                                          ; preds = %_ZN7testing8internal8EqHelper7CompareIiiTnPNSt9enable_ifIXoontsr3std11is_integralIT_EE5valuentsr3std10is_pointerIT0_EE5valueEvE4typeELPv0EEENS_15AssertionResultEPKcSC_RKS4_RKS5_.exit
  invoke void @_ZN7testing7MessageC1Ev(ptr noundef nonnull align 8 dereferenceable(8) %ref.tmp8)
          to label %invoke.cont unwind label %lpad

invoke.cont:                                      ; preds = %if.else
  %message_.i.i = getelementptr inbounds %"class.testing::AssertionResult", ptr %gtest_ar, i64 0, i32 1
  %2 = load ptr, ptr %message_.i.i, align 8
  %cmp.i.i.not.i.i = icmp eq ptr %2, null
  br i1 %cmp.i.i.not.i.i, label %invoke.cont11, label %cond.true.i.i

cond.true.i.i:                                    ; preds = %invoke.cont
  %call4.i.i = call noundef ptr @_ZNKSt7__cxx1112basic_stringIcSt11char_traitsIcESaIcEE5c_strEv(ptr noundef nonnull align 8 dereferenceable(32) %2) #15
  br label %invoke.cont11

invoke.cont11:                                    ; preds = %cond.true.i.i, %invoke.cont
  %cond.i.i = phi ptr [ %call4.i.i, %cond.true.i.i ], [ @.str.60, %invoke.cont ]
  invoke void @_ZN7testing8internal12AssertHelperC1ENS_14TestPartResult4TypeEPKciS5_(ptr noundef nonnull align 8 dereferenceable(8) %ref.tmp9, i32 noundef 1, ptr noundef nonnull @.str.3, i32 noundef 161, ptr noundef %cond.i.i)
          to label %invoke.cont13 unwind label %lpad10

invoke.cont13:                                    ; preds = %invoke.cont11
  invoke void @_ZNK7testing8internal12AssertHelperaSERKNS_7MessageE(ptr noundef nonnull align 8 dereferenceable(8) %ref.tmp9, ptr noundef nonnull align 8 dereferenceable(8) %ref.tmp8)
          to label %invoke.cont15 unwind label %lpad14

invoke.cont15:                                    ; preds = %invoke.cont13
  call void @_ZN7testing8internal12AssertHelperD1Ev(ptr noundef nonnull align 8 dereferenceable(8) %ref.tmp9) #15
  %3 = load ptr, ptr %ref.tmp8, align 8
  %cmp.not.i.i = icmp eq ptr %3, null
  br i1 %cmp.not.i.i, label %_ZN7testing7MessageD2Ev.exit, label %_ZNKSt14default_deleteINSt7__cxx1118basic_stringstreamIcSt11char_traitsIcESaIcEEEEclEPS5_.exit.i.i

_ZNKSt14default_deleteINSt7__cxx1118basic_stringstreamIcSt11char_traitsIcESaIcEEEEclEPS5_.exit.i.i: ; preds = %invoke.cont15
  %vtable.i.i.i = load ptr, ptr %3, align 8
  %vfn.i.i.i = getelementptr inbounds ptr, ptr %vtable.i.i.i, i64 1
  %4 = load ptr, ptr %vfn.i.i.i, align 8
  call void %4(ptr noundef nonnull align 8 dereferenceable(128) %3) #15
  br label %_ZN7testing7MessageD2Ev.exit

_ZN7testing7MessageD2Ev.exit:                     ; preds = %invoke.cont15, %_ZNKSt14default_deleteINSt7__cxx1118basic_stringstreamIcSt11char_traitsIcESaIcEEEEclEPS5_.exit.i.i
  store ptr null, ptr %ref.tmp8, align 8
  br label %if.end

lpad:                                             ; preds = %if.else
  %5 = landingpad { ptr, i32 }
          cleanup
  br label %eh.resume

lpad10:                                           ; preds = %invoke.cont11
  %6 = landingpad { ptr, i32 }
          cleanup
  br label %ehcleanup

lpad14:                                           ; preds = %invoke.cont13
  %7 = landingpad { ptr, i32 }
          cleanup
  call void @_ZN7testing8internal12AssertHelperD1Ev(ptr noundef nonnull align 8 dereferenceable(8) %ref.tmp9) #15
  br label %ehcleanup

ehcleanup:                                        ; preds = %lpad14, %lpad10
  %.pn = phi { ptr, i32 } [ %7, %lpad14 ], [ %6, %lpad10 ]
  %8 = load ptr, ptr %ref.tmp8, align 8
  %cmp.not.i.i10 = icmp eq ptr %8, null
  br i1 %cmp.not.i.i10, label %_ZN7testing7MessageD2Ev.exit14, label %_ZNKSt14default_deleteINSt7__cxx1118basic_stringstreamIcSt11char_traitsIcESaIcEEEEclEPS5_.exit.i.i11

_ZNKSt14default_deleteINSt7__cxx1118basic_stringstreamIcSt11char_traitsIcESaIcEEEEclEPS5_.exit.i.i11: ; preds = %ehcleanup
  %vtable.i.i.i12 = load ptr, ptr %8, align 8
  %vfn.i.i.i13 = getelementptr inbounds ptr, ptr %vtable.i.i.i12, i64 1
  %9 = load ptr, ptr %vfn.i.i.i13, align 8
  call void %9(ptr noundef nonnull align 8 dereferenceable(128) %8) #15
  br label %_ZN7testing7MessageD2Ev.exit14

_ZN7testing7MessageD2Ev.exit14:                   ; preds = %ehcleanup, %_ZNKSt14default_deleteINSt7__cxx1118basic_stringstreamIcSt11char_traitsIcESaIcEEEEclEPS5_.exit.i.i11
  store ptr null, ptr %ref.tmp8, align 8
  br label %eh.resume

if.end:                                           ; preds = %_ZN7testing8internal8EqHelper7CompareIiiTnPNSt9enable_ifIXoontsr3std11is_integralIT_EE5valuentsr3std10is_pointerIT0_EE5valueEvE4typeELPv0EEENS_15AssertionResultEPKcSC_RKS4_RKS5_.exit, %_ZN7testing7MessageD2Ev.exit
  %message_.i = getelementptr inbounds %"class.testing::AssertionResult", ptr %gtest_ar, i64 0, i32 1
  %10 = load ptr, ptr %message_.i, align 8
  %cmp.not.i.i15 = icmp eq ptr %10, null
  br i1 %cmp.not.i.i15, label %_ZN7testing8internal8EqHelper7CompareIiiTnPNSt9enable_ifIXoontsr3std11is_integralIT_EE5valuentsr3std10is_pointerIT0_EE5valueEvE4typeELPv0EEENS_15AssertionResultEPKcSC_RKS4_RKS5_.exit20, label %_ZNKSt14default_deleteINSt7__cxx1112basic_stringIcSt11char_traitsIcESaIcEEEEclEPS5_.exit.i.i

_ZNKSt14default_deleteINSt7__cxx1112basic_stringIcSt11char_traitsIcESaIcEEEEclEPS5_.exit.i.i: ; preds = %if.end
  call void @_ZNSt7__cxx1112basic_stringIcSt11char_traitsIcESaIcEED1Ev(ptr noundef nonnull align 8 dereferenceable(32) %10) #15
  call void @_ZdlPv(ptr noundef nonnull %10) #16
  br label %_ZN7testing8internal8EqHelper7CompareIiiTnPNSt9enable_ifIXoontsr3std11is_integralIT_EE5valuentsr3std10is_pointerIT0_EE5valueEvE4typeELPv0EEENS_15AssertionResultEPKcSC_RKS4_RKS5_.exit20

_ZN7testing8internal8EqHelper7CompareIiiTnPNSt9enable_ifIXoontsr3std11is_integralIT_EE5valuentsr3std10is_pointerIT0_EE5valueEvE4typeELPv0EEENS_15AssertionResultEPKcSC_RKS4_RKS5_.exit20: ; preds = %if.end, %_ZNKSt14default_deleteINSt7__cxx1112basic_stringIcSt11char_traitsIcESaIcEEEEclEPS5_.exit.i.i
  store ptr null, ptr %message_.i, align 8
  call void @_ZN7testing16AssertionSuccessEv(ptr nonnull sret(%"class.testing::AssertionResult") align 8 %gtest_ar17)
  %11 = load i8, ptr %gtest_ar17, align 8
  %12 = and i8 %11, 1
  %tobool.i21.not = icmp eq i8 %12, 0
  br i1 %tobool.i21.not, label %if.else28, label %if.end41

if.else28:                                        ; preds = %_ZN7testing8internal8EqHelper7CompareIiiTnPNSt9enable_ifIXoontsr3std11is_integralIT_EE5valuentsr3std10is_pointerIT0_EE5valueEvE4typeELPv0EEENS_15AssertionResultEPKcSC_RKS4_RKS5_.exit20
  invoke void @_ZN7testing7MessageC1Ev(ptr noundef nonnull align 8 dereferenceable(8) %ref.tmp29)
          to label %invoke.cont31 unwind label %lpad30

invoke.cont31:                                    ; preds = %if.else28
  %message_.i.i22 = getelementptr inbounds %"class.testing::AssertionResult", ptr %gtest_ar17, i64 0, i32 1
  %13 = load ptr, ptr %message_.i.i22, align 8
  %cmp.i.i.not.i.i23 = icmp eq ptr %13, null
  br i1 %cmp.i.i.not.i.i23, label %invoke.cont34, label %cond.true.i.i24

cond.true.i.i24:                                  ; preds = %invoke.cont31
  %call4.i.i25 = call noundef ptr @_ZNKSt7__cxx1112basic_stringIcSt11char_traitsIcESaIcEE5c_strEv(ptr noundef nonnull align 8 dereferenceable(32) %13) #15
  br label %invoke.cont34

invoke.cont34:                                    ; preds = %cond.true.i.i24, %invoke.cont31
  %cond.i.i26 = phi ptr [ %call4.i.i25, %cond.true.i.i24 ], [ @.str.60, %invoke.cont31 ]
  invoke void @_ZN7testing8internal12AssertHelperC1ENS_14TestPartResult4TypeEPKciS5_(ptr noundef nonnull align 8 dereferenceable(8) %ref.tmp32, i32 noundef 1, ptr noundef nonnull @.str.3, i32 noundef 162, ptr noundef %cond.i.i26)
          to label %invoke.cont36 unwind label %lpad33

invoke.cont36:                                    ; preds = %invoke.cont34
  invoke void @_ZNK7testing8internal12AssertHelperaSERKNS_7MessageE(ptr noundef nonnull align 8 dereferenceable(8) %ref.tmp32, ptr noundef nonnull align 8 dereferenceable(8) %ref.tmp29)
          to label %invoke.cont38 unwind label %lpad37

invoke.cont38:                                    ; preds = %invoke.cont36
  call void @_ZN7testing8internal12AssertHelperD1Ev(ptr noundef nonnull align 8 dereferenceable(8) %ref.tmp32) #15
  %14 = load ptr, ptr %ref.tmp29, align 8
  %cmp.not.i.i28 = icmp eq ptr %14, null
  br i1 %cmp.not.i.i28, label %_ZN7testing7MessageD2Ev.exit32, label %_ZNKSt14default_deleteINSt7__cxx1118basic_stringstreamIcSt11char_traitsIcESaIcEEEEclEPS5_.exit.i.i29

_ZNKSt14default_deleteINSt7__cxx1118basic_stringstreamIcSt11char_traitsIcESaIcEEEEclEPS5_.exit.i.i29: ; preds = %invoke.cont38
  %vtable.i.i.i30 = load ptr, ptr %14, align 8
  %vfn.i.i.i31 = getelementptr inbounds ptr, ptr %vtable.i.i.i30, i64 1
  %15 = load ptr, ptr %vfn.i.i.i31, align 8
  call void %15(ptr noundef nonnull align 8 dereferenceable(128) %14) #15
  br label %_ZN7testing7MessageD2Ev.exit32

_ZN7testing7MessageD2Ev.exit32:                   ; preds = %invoke.cont38, %_ZNKSt14default_deleteINSt7__cxx1118basic_stringstreamIcSt11char_traitsIcESaIcEEEEclEPS5_.exit.i.i29
  store ptr null, ptr %ref.tmp29, align 8
  br label %if.end41

lpad30:                                           ; preds = %if.else28
  %16 = landingpad { ptr, i32 }
          cleanup
  br label %eh.resume

lpad33:                                           ; preds = %invoke.cont34
  %17 = landingpad { ptr, i32 }
          cleanup
  br label %ehcleanup40

lpad37:                                           ; preds = %invoke.cont36
  %18 = landingpad { ptr, i32 }
          cleanup
  call void @_ZN7testing8internal12AssertHelperD1Ev(ptr noundef nonnull align 8 dereferenceable(8) %ref.tmp32) #15
  br label %ehcleanup40

ehcleanup40:                                      ; preds = %lpad37, %lpad33
  %.pn3 = phi { ptr, i32 } [ %18, %lpad37 ], [ %17, %lpad33 ]
  %19 = load ptr, ptr %ref.tmp29, align 8
  %cmp.not.i.i33 = icmp eq ptr %19, null
  br i1 %cmp.not.i.i33, label %_ZN7testing7MessageD2Ev.exit37, label %_ZNKSt14default_deleteINSt7__cxx1118basic_stringstreamIcSt11char_traitsIcESaIcEEEEclEPS5_.exit.i.i34

_ZNKSt14default_deleteINSt7__cxx1118basic_stringstreamIcSt11char_traitsIcESaIcEEEEclEPS5_.exit.i.i34: ; preds = %ehcleanup40
  %vtable.i.i.i35 = load ptr, ptr %19, align 8
  %vfn.i.i.i36 = getelementptr inbounds ptr, ptr %vtable.i.i.i35, i64 1
  %20 = load ptr, ptr %vfn.i.i.i36, align 8
  call void %20(ptr noundef nonnull align 8 dereferenceable(128) %19) #15
  br label %_ZN7testing7MessageD2Ev.exit37

_ZN7testing7MessageD2Ev.exit37:                   ; preds = %ehcleanup40, %_ZNKSt14default_deleteINSt7__cxx1118basic_stringstreamIcSt11char_traitsIcESaIcEEEEclEPS5_.exit.i.i34
  store ptr null, ptr %ref.tmp29, align 8
  br label %eh.resume

if.end41:                                         ; preds = %_ZN7testing8internal8EqHelper7CompareIiiTnPNSt9enable_ifIXoontsr3std11is_integralIT_EE5valuentsr3std10is_pointerIT0_EE5valueEvE4typeELPv0EEENS_15AssertionResultEPKcSC_RKS4_RKS5_.exit20, %_ZN7testing7MessageD2Ev.exit32
  %message_.i38 = getelementptr inbounds %"class.testing::AssertionResult", ptr %gtest_ar17, i64 0, i32 1
  %21 = load ptr, ptr %message_.i38, align 8
  %cmp.not.i.i39 = icmp eq ptr %21, null
  br i1 %cmp.not.i.i39, label %_ZN7testing8internal8EqHelper7CompareIiiTnPNSt9enable_ifIXoontsr3std11is_integralIT_EE5valuentsr3std10is_pointerIT0_EE5valueEvE4typeELPv0EEENS_15AssertionResultEPKcSC_RKS4_RKS5_.exit46, label %_ZNKSt14default_deleteINSt7__cxx1112basic_stringIcSt11char_traitsIcESaIcEEEEclEPS5_.exit.i.i40

_ZNKSt14default_deleteINSt7__cxx1112basic_stringIcSt11char_traitsIcESaIcEEEEclEPS5_.exit.i.i40: ; preds = %if.end41
  call void @_ZNSt7__cxx1112basic_stringIcSt11char_traitsIcESaIcEED1Ev(ptr noundef nonnull align 8 dereferenceable(32) %21) #15
  call void @_ZdlPv(ptr noundef nonnull %21) #16
  br label %_ZN7testing8internal8EqHelper7CompareIiiTnPNSt9enable_ifIXoontsr3std11is_integralIT_EE5valuentsr3std10is_pointerIT0_EE5valueEvE4typeELPv0EEENS_15AssertionResultEPKcSC_RKS4_RKS5_.exit46

_ZN7testing8internal8EqHelper7CompareIiiTnPNSt9enable_ifIXoontsr3std11is_integralIT_EE5valuentsr3std10is_pointerIT0_EE5valueEvE4typeELPv0EEENS_15AssertionResultEPKcSC_RKS4_RKS5_.exit46: ; preds = %if.end41, %_ZNKSt14default_deleteINSt7__cxx1112basic_stringIcSt11char_traitsIcESaIcEEEEclEPS5_.exit.i.i40
  store ptr null, ptr %message_.i38, align 8
  call void @_ZN7testing16AssertionSuccessEv(ptr nonnull sret(%"class.testing::AssertionResult") align 8 %gtest_ar43)
  %22 = load i8, ptr %gtest_ar43, align 8
  %23 = and i8 %22, 1
  %tobool.i47.not = icmp eq i8 %23, 0
  br i1 %tobool.i47.not, label %if.else54, label %if.end67

if.else54:                                        ; preds = %_ZN7testing8internal8EqHelper7CompareIiiTnPNSt9enable_ifIXoontsr3std11is_integralIT_EE5valuentsr3std10is_pointerIT0_EE5valueEvE4typeELPv0EEENS_15AssertionResultEPKcSC_RKS4_RKS5_.exit46
  invoke void @_ZN7testing7MessageC1Ev(ptr noundef nonnull align 8 dereferenceable(8) %ref.tmp55)
          to label %invoke.cont57 unwind label %lpad56

invoke.cont57:                                    ; preds = %if.else54
  %message_.i.i48 = getelementptr inbounds %"class.testing::AssertionResult", ptr %gtest_ar43, i64 0, i32 1
  %24 = load ptr, ptr %message_.i.i48, align 8
  %cmp.i.i.not.i.i49 = icmp eq ptr %24, null
  br i1 %cmp.i.i.not.i.i49, label %invoke.cont60, label %cond.true.i.i50

cond.true.i.i50:                                  ; preds = %invoke.cont57
  %call4.i.i51 = call noundef ptr @_ZNKSt7__cxx1112basic_stringIcSt11char_traitsIcESaIcEE5c_strEv(ptr noundef nonnull align 8 dereferenceable(32) %24) #15
  br label %invoke.cont60

invoke.cont60:                                    ; preds = %cond.true.i.i50, %invoke.cont57
  %cond.i.i52 = phi ptr [ %call4.i.i51, %cond.true.i.i50 ], [ @.str.60, %invoke.cont57 ]
  invoke void @_ZN7testing8internal12AssertHelperC1ENS_14TestPartResult4TypeEPKciS5_(ptr noundef nonnull align 8 dereferenceable(8) %ref.tmp58, i32 noundef 1, ptr noundef nonnull @.str.3, i32 noundef 163, ptr noundef %cond.i.i52)
          to label %invoke.cont62 unwind label %lpad59

invoke.cont62:                                    ; preds = %invoke.cont60
  invoke void @_ZNK7testing8internal12AssertHelperaSERKNS_7MessageE(ptr noundef nonnull align 8 dereferenceable(8) %ref.tmp58, ptr noundef nonnull align 8 dereferenceable(8) %ref.tmp55)
          to label %invoke.cont64 unwind label %lpad63

invoke.cont64:                                    ; preds = %invoke.cont62
  call void @_ZN7testing8internal12AssertHelperD1Ev(ptr noundef nonnull align 8 dereferenceable(8) %ref.tmp58) #15
  %25 = load ptr, ptr %ref.tmp55, align 8
  %cmp.not.i.i54 = icmp eq ptr %25, null
  br i1 %cmp.not.i.i54, label %_ZN7testing7MessageD2Ev.exit58, label %_ZNKSt14default_deleteINSt7__cxx1118basic_stringstreamIcSt11char_traitsIcESaIcEEEEclEPS5_.exit.i.i55

_ZNKSt14default_deleteINSt7__cxx1118basic_stringstreamIcSt11char_traitsIcESaIcEEEEclEPS5_.exit.i.i55: ; preds = %invoke.cont64
  %vtable.i.i.i56 = load ptr, ptr %25, align 8
  %vfn.i.i.i57 = getelementptr inbounds ptr, ptr %vtable.i.i.i56, i64 1
  %26 = load ptr, ptr %vfn.i.i.i57, align 8
  call void %26(ptr noundef nonnull align 8 dereferenceable(128) %25) #15
  br label %_ZN7testing7MessageD2Ev.exit58

_ZN7testing7MessageD2Ev.exit58:                   ; preds = %invoke.cont64, %_ZNKSt14default_deleteINSt7__cxx1118basic_stringstreamIcSt11char_traitsIcESaIcEEEEclEPS5_.exit.i.i55
  store ptr null, ptr %ref.tmp55, align 8
  br label %if.end67

lpad56:                                           ; preds = %if.else54
  %27 = landingpad { ptr, i32 }
          cleanup
  br label %eh.resume

lpad59:                                           ; preds = %invoke.cont60
  %28 = landingpad { ptr, i32 }
          cleanup
  br label %ehcleanup66

lpad63:                                           ; preds = %invoke.cont62
  %29 = landingpad { ptr, i32 }
          cleanup
  call void @_ZN7testing8internal12AssertHelperD1Ev(ptr noundef nonnull align 8 dereferenceable(8) %ref.tmp58) #15
  br label %ehcleanup66

ehcleanup66:                                      ; preds = %lpad63, %lpad59
  %.pn6 = phi { ptr, i32 } [ %29, %lpad63 ], [ %28, %lpad59 ]
  %30 = load ptr, ptr %ref.tmp55, align 8
  %cmp.not.i.i59 = icmp eq ptr %30, null
  br i1 %cmp.not.i.i59, label %_ZN7testing7MessageD2Ev.exit63, label %_ZNKSt14default_deleteINSt7__cxx1118basic_stringstreamIcSt11char_traitsIcESaIcEEEEclEPS5_.exit.i.i60

_ZNKSt14default_deleteINSt7__cxx1118basic_stringstreamIcSt11char_traitsIcESaIcEEEEclEPS5_.exit.i.i60: ; preds = %ehcleanup66
  %vtable.i.i.i61 = load ptr, ptr %30, align 8
  %vfn.i.i.i62 = getelementptr inbounds ptr, ptr %vtable.i.i.i61, i64 1
  %31 = load ptr, ptr %vfn.i.i.i62, align 8
  call void %31(ptr noundef nonnull align 8 dereferenceable(128) %30) #15
  br label %_ZN7testing7MessageD2Ev.exit63

_ZN7testing7MessageD2Ev.exit63:                   ; preds = %ehcleanup66, %_ZNKSt14default_deleteINSt7__cxx1118basic_stringstreamIcSt11char_traitsIcESaIcEEEEclEPS5_.exit.i.i60
  store ptr null, ptr %ref.tmp55, align 8
  br label %eh.resume

if.end67:                                         ; preds = %_ZN7testing8internal8EqHelper7CompareIiiTnPNSt9enable_ifIXoontsr3std11is_integralIT_EE5valuentsr3std10is_pointerIT0_EE5valueEvE4typeELPv0EEENS_15AssertionResultEPKcSC_RKS4_RKS5_.exit46, %_ZN7testing7MessageD2Ev.exit58
  %message_.i64 = getelementptr inbounds %"class.testing::AssertionResult", ptr %gtest_ar43, i64 0, i32 1
  %32 = load ptr, ptr %message_.i64, align 8
  %cmp.not.i.i65 = icmp eq ptr %32, null
  br i1 %cmp.not.i.i65, label %_ZN7testing15AssertionResultD2Ev.exit67, label %_ZNKSt14default_deleteINSt7__cxx1112basic_stringIcSt11char_traitsIcESaIcEEEEclEPS5_.exit.i.i66

_ZNKSt14default_deleteINSt7__cxx1112basic_stringIcSt11char_traitsIcESaIcEEEEclEPS5_.exit.i.i66: ; preds = %if.end67
  call void @_ZNSt7__cxx1112basic_stringIcSt11char_traitsIcESaIcEED1Ev(ptr noundef nonnull align 8 dereferenceable(32) %32) #15
  call void @_ZdlPv(ptr noundef nonnull %32) #16
  br label %_ZN7testing15AssertionResultD2Ev.exit67

_ZN7testing15AssertionResultD2Ev.exit67:          ; preds = %if.end67, %_ZNKSt14default_deleteINSt7__cxx1112basic_stringIcSt11char_traitsIcESaIcEEEEclEPS5_.exit.i.i66
  ret void

eh.resume:                                        ; preds = %lpad56, %_ZN7testing7MessageD2Ev.exit63, %lpad30, %_ZN7testing7MessageD2Ev.exit37, %lpad, %_ZN7testing7MessageD2Ev.exit14
  %gtest_ar43.sink = phi ptr [ %gtest_ar, %_ZN7testing7MessageD2Ev.exit14 ], [ %gtest_ar, %lpad ], [ %gtest_ar17, %_ZN7testing7MessageD2Ev.exit37 ], [ %gtest_ar17, %lpad30 ], [ %gtest_ar43, %_ZN7testing7MessageD2Ev.exit63 ], [ %gtest_ar43, %lpad56 ]
  %.pn6.pn.pn = phi { ptr, i32 } [ %.pn, %_ZN7testing7MessageD2Ev.exit14 ], [ %5, %lpad ], [ %.pn3, %_ZN7testing7MessageD2Ev.exit37 ], [ %16, %lpad30 ], [ %.pn6, %_ZN7testing7MessageD2Ev.exit63 ], [ %27, %lpad56 ]
  call void @_ZN7testing15AssertionResultD2Ev(ptr noundef nonnull align 8 dereferenceable(16) %gtest_ar43.sink) #15
  resume { ptr, i32 } %.pn6.pn.pn
}

; Function Attrs: mustprogress nofree norecurse nosync nounwind willreturn memory(none) uwtable
define internal void @_ZN7testing8internal15TestFactoryImplIN4absl13base_internal12_GLOBAL__N_130InvokeTest_MemberFunction_TestEED2Ev(ptr nocapture nonnull readnone align 8 %this) unnamed_addr #6 align 2 {
entry:
  ret void
}

; Function Attrs: mustprogress nounwind uwtable
define internal void @_ZN7testing8internal15TestFactoryImplIN4absl13base_internal12_GLOBAL__N_130InvokeTest_MemberFunction_TestEED0Ev(ptr noundef nonnull align 8 dereferenceable(8) %this) unnamed_addr #7 align 2 {
entry:
  tail call void @_ZdlPv(ptr noundef nonnull %this) #16
  ret void
}

; Function Attrs: mustprogress uwtable
define internal noundef nonnull ptr @_ZN7testing8internal15TestFactoryImplIN4absl13base_internal12_GLOBAL__N_130InvokeTest_MemberFunction_TestEE10CreateTestEv(ptr nocapture nonnull readnone align 8 %this) unnamed_addr #3 align 2 personality ptr @__gxx_personality_v0 {
entry:
  %call = tail call noalias noundef nonnull dereferenceable(16) ptr @_Znwm(i64 noundef 16) #17
  invoke void @_ZN7testing4TestC2Ev(ptr noundef nonnull align 8 dereferenceable(16) %call)
          to label %invoke.cont unwind label %lpad

invoke.cont:                                      ; preds = %entry
  store ptr getelementptr inbounds ({ [8 x ptr] }, ptr @_ZTVN4absl13base_internal12_GLOBAL__N_130InvokeTest_MemberFunction_TestE, i64 0, inrange i32 0, i64 2), ptr %call, align 8
  ret ptr %call

lpad:                                             ; preds = %entry
  %0 = landingpad { ptr, i32 }
          cleanup
  tail call void @_ZdlPv(ptr noundef nonnull %call) #16
  resume { ptr, i32 } %0
}

; Function Attrs: mustprogress nounwind uwtable
define internal void @_ZN4absl13base_internal12_GLOBAL__N_130InvokeTest_MemberFunction_TestD2Ev(ptr noundef nonnull align 8 dereferenceable(16) %this) unnamed_addr #7 align 2 {
entry:
  tail call void @_ZN7testing4TestD2Ev(ptr noundef nonnull align 8 dereferenceable(16) %this) #15
  ret void
}

; Function Attrs: mustprogress nounwind uwtable
define internal void @_ZN4absl13base_internal12_GLOBAL__N_130InvokeTest_MemberFunction_TestD0Ev(ptr noundef nonnull align 8 dereferenceable(16) %this) unnamed_addr #7 align 2 {
entry:
  tail call void @_ZN7testing4TestD2Ev(ptr noundef nonnull align 8 dereferenceable(16) %this) #15
  tail call void @_ZdlPv(ptr noundef nonnull %this) #16
  ret void
}

; Function Attrs: mustprogress uwtable
define internal void @_ZN4absl13base_internal12_GLOBAL__N_130InvokeTest_MemberFunction_Test8TestBodyEv(ptr nocapture nonnull readnone align 8 %this) unnamed_addr #3 align 2 personality ptr @__gxx_personality_v0 {
entry:
  %gtest_ar = alloca %"class.testing::AssertionResult", align 8
  %ref.tmp15 = alloca %"class.testing::Message", align 8
  %ref.tmp18 = alloca %"class.testing::internal::AssertHelper", align 8
  %gtest_ar26 = alloca %"class.testing::AssertionResult", align 8
  %ref.tmp40 = alloca %"class.testing::Message", align 8
  %ref.tmp43 = alloca %"class.testing::internal::AssertHelper", align 8
  %gtest_ar54 = alloca %"class.testing::AssertionResult", align 8
  %ref.tmp67 = alloca %"class.testing::Message", align 8
  %ref.tmp70 = alloca %"class.testing::internal::AssertHelper", align 8
  %gtest_ar81 = alloca %"class.testing::AssertionResult", align 8
  %ref.tmp93 = alloca %"class.testing::Message", align 8
  %ref.tmp96 = alloca %"class.testing::internal::AssertHelper", align 8
  %gtest_ar107 = alloca %"class.testing::AssertionResult", align 8
  %ref.tmp121 = alloca %"class.testing::Message", align 8
  %ref.tmp124 = alloca %"class.testing::internal::AssertHelper", align 8
  %gtest_ar135 = alloca %"class.testing::AssertionResult", align 8
  %ref.tmp148 = alloca %"class.testing::Message", align 8
  %ref.tmp151 = alloca %"class.testing::internal::AssertHelper", align 8
  %gtest_ar162 = alloca %"class.testing::AssertionResult", align 8
  %ref.tmp175 = alloca %"class.testing::Message", align 8
  %ref.tmp178 = alloca %"class.testing::internal::AssertHelper", align 8
  %gtest_ar189 = alloca %"class.testing::AssertionResult", align 8
  %ref.tmp200 = alloca %"class.testing::Message", align 8
  %ref.tmp203 = alloca %"class.testing::internal::AssertHelper", align 8
  %gtest_ar214 = alloca %"class.testing::AssertionResult", align 8
  %ref.tmp227 = alloca %"class.testing::Message", align 8
  %ref.tmp230 = alloca %"class.testing::internal::AssertHelper", align 8
  %gtest_ar241 = alloca %"class.testing::AssertionResult", align 8
  %ref.tmp253 = alloca %"class.testing::Message", align 8
  %ref.tmp256 = alloca %"class.testing::internal::AssertHelper", align 8
  %gtest_ar267 = alloca %"class.testing::AssertionResult", align 8
  %ref.tmp279 = alloca %"class.testing::Message", align 8
  %ref.tmp282 = alloca %"class.testing::internal::AssertHelper", align 8
  %gtest_ar293 = alloca %"class.testing::AssertionResult", align 8
  %ref.tmp307 = alloca %"class.testing::Message", align 8
  %ref.tmp310 = alloca %"class.testing::internal::AssertHelper", align 8
  %gtest_ar321 = alloca %"class.testing::AssertionResult", align 8
  %ref.tmp334 = alloca %"class.testing::Message", align 8
  %ref.tmp337 = alloca %"class.testing::internal::AssertHelper", align 8
  %gtest_ar348 = alloca %"class.testing::AssertionResult", align 8
  %ref.tmp360 = alloca %"class.testing::Message", align 8
  %ref.tmp363 = alloca %"class.testing::internal::AssertHelper", align 8
  %gtest_ar374 = alloca %"class.testing::AssertionResult", align 8
  %ref.tmp388 = alloca %"class.testing::Message", align 8
  %ref.tmp391 = alloca %"class.testing::internal::AssertHelper", align 8
  %gtest_ar402 = alloca %"class.testing::AssertionResult", align 8
  %ref.tmp415 = alloca %"class.testing::Message", align 8
  %ref.tmp418 = alloca %"class.testing::internal::AssertHelper", align 8
  %gtest_ar429 = alloca %"class.testing::AssertionResult", align 8
  %ref.tmp441 = alloca %"class.testing::Message", align 8
  %ref.tmp444 = alloca %"class.testing::internal::AssertHelper", align 8
  %gtest_ar455 = alloca %"class.testing::AssertionResult", align 8
  %ref.tmp469 = alloca %"class.testing::Message", align 8
  %ref.tmp472 = alloca %"class.testing::internal::AssertHelper", align 8
  %gtest_ar483 = alloca %"class.testing::AssertionResult", align 8
  %ref.tmp496 = alloca %"class.testing::Message", align 8
  %ref.tmp499 = alloca %"class.testing::internal::AssertHelper", align 8
  %gtest_ar510 = alloca %"class.testing::AssertionResult", align 8
  %ref.tmp522 = alloca %"class.testing::Message", align 8
  %ref.tmp525 = alloca %"class.testing::internal::AssertHelper", align 8
  %gtest_ar536 = alloca %"class.testing::AssertionResult", align 8
  %ref.tmp550 = alloca %"class.testing::Message", align 8
  %ref.tmp553 = alloca %"class.testing::internal::AssertHelper", align 8
  %gtest_ar564 = alloca %"class.testing::AssertionResult", align 8
  %ref.tmp577 = alloca %"class.testing::Message", align 8
  %ref.tmp580 = alloca %"class.testing::internal::AssertHelper", align 8
  %gtest_ar591 = alloca %"class.testing::AssertionResult", align 8
  %ref.tmp607 = alloca %"class.testing::Message", align 8
  %ref.tmp610 = alloca %"class.testing::internal::AssertHelper", align 8
  %gtest_ar621 = alloca %"class.testing::AssertionResult", align 8
  %ref.tmp637 = alloca %"class.testing::Message", align 8
  %ref.tmp640 = alloca %"class.testing::internal::AssertHelper", align 8
  %gtest_ar651 = alloca %"class.testing::AssertionResult", align 8
  %ref.tmp667 = alloca %"class.testing::Message", align 8
  %ref.tmp670 = alloca %"class.testing::internal::AssertHelper", align 8
  call void @_ZN7testing16AssertionSuccessEv(ptr nonnull sret(%"class.testing::AssertionResult") align 8 %gtest_ar)
  %0 = load i8, ptr %gtest_ar, align 8
  %1 = and i8 %0, 1
  %tobool.i.not = icmp eq i8 %1, 0
  br i1 %tobool.i.not, label %if.else, label %if.end

if.else:                                          ; preds = %entry
  invoke void @_ZN7testing7MessageC1Ev(ptr noundef nonnull align 8 dereferenceable(8) %ref.tmp15)
          to label %invoke.cont17 unwind label %lpad16

invoke.cont17:                                    ; preds = %if.else
  %message_.i.i = getelementptr inbounds %"class.testing::AssertionResult", ptr %gtest_ar, i64 0, i32 1
  %2 = load ptr, ptr %message_.i.i, align 8
  %cmp.i.i.not.i.i = icmp eq ptr %2, null
  br i1 %cmp.i.i.not.i.i, label %invoke.cont20, label %cond.true.i.i

cond.true.i.i:                                    ; preds = %invoke.cont17
  %call4.i.i = call noundef ptr @_ZNKSt7__cxx1112basic_stringIcSt11char_traitsIcESaIcEE5c_strEv(ptr noundef nonnull align 8 dereferenceable(32) %2) #15
  br label %invoke.cont20

invoke.cont20:                                    ; preds = %cond.true.i.i, %invoke.cont17
  %cond.i.i = phi ptr [ %call4.i.i, %cond.true.i.i ], [ @.str.60, %invoke.cont17 ]
  invoke void @_ZN7testing8internal12AssertHelperC1ENS_14TestPartResult4TypeEPKciS5_(ptr noundef nonnull align 8 dereferenceable(8) %ref.tmp18, i32 noundef 1, ptr noundef nonnull @.str.3, i32 noundef 171, ptr noundef %cond.i.i)
          to label %invoke.cont22 unwind label %lpad19

invoke.cont22:                                    ; preds = %invoke.cont20
  invoke void @_ZNK7testing8internal12AssertHelperaSERKNS_7MessageE(ptr noundef nonnull align 8 dereferenceable(8) %ref.tmp18, ptr noundef nonnull align 8 dereferenceable(8) %ref.tmp15)
          to label %invoke.cont24 unwind label %lpad23

invoke.cont24:                                    ; preds = %invoke.cont22
  call void @_ZN7testing8internal12AssertHelperD1Ev(ptr noundef nonnull align 8 dereferenceable(8) %ref.tmp18) #15
  %3 = load ptr, ptr %ref.tmp15, align 8
  %cmp.not.i.i = icmp eq ptr %3, null
  br i1 %cmp.not.i.i, label %_ZN7testing7MessageD2Ev.exit, label %_ZNKSt14default_deleteINSt7__cxx1118basic_stringstreamIcSt11char_traitsIcESaIcEEEEclEPS5_.exit.i.i

_ZNKSt14default_deleteINSt7__cxx1118basic_stringstreamIcSt11char_traitsIcESaIcEEEEclEPS5_.exit.i.i: ; preds = %invoke.cont24
  %vtable.i.i.i172 = load ptr, ptr %3, align 8
  %vfn.i.i.i = getelementptr inbounds ptr, ptr %vtable.i.i.i172, i64 1
  %4 = load ptr, ptr %vfn.i.i.i, align 8
  call void %4(ptr noundef nonnull align 8 dereferenceable(128) %3) #15
  br label %_ZN7testing7MessageD2Ev.exit

_ZN7testing7MessageD2Ev.exit:                     ; preds = %invoke.cont24, %_ZNKSt14default_deleteINSt7__cxx1118basic_stringstreamIcSt11char_traitsIcESaIcEEEEclEPS5_.exit.i.i
  store ptr null, ptr %ref.tmp15, align 8
  br label %if.end

lpad16:                                           ; preds = %if.else
  %5 = landingpad { ptr, i32 }
          cleanup
  br label %_ZNSt10unique_ptrIN4absl13base_internal12_GLOBAL__N_15ClassESt14default_deleteIS3_EED2Ev.exit1040

lpad19:                                           ; preds = %invoke.cont20
  %6 = landingpad { ptr, i32 }
          cleanup
  br label %ehcleanup

lpad23:                                           ; preds = %invoke.cont22
  %7 = landingpad { ptr, i32 }
          cleanup
  call void @_ZN7testing8internal12AssertHelperD1Ev(ptr noundef nonnull align 8 dereferenceable(8) %ref.tmp18) #15
  br label %ehcleanup

ehcleanup:                                        ; preds = %lpad23, %lpad19
  %.pn = phi { ptr, i32 } [ %7, %lpad23 ], [ %6, %lpad19 ]
  %8 = load ptr, ptr %ref.tmp15, align 8
  %cmp.not.i.i173 = icmp eq ptr %8, null
  br i1 %cmp.not.i.i173, label %_ZN7testing7MessageD2Ev.exit177, label %_ZNKSt14default_deleteINSt7__cxx1118basic_stringstreamIcSt11char_traitsIcESaIcEEEEclEPS5_.exit.i.i174

_ZNKSt14default_deleteINSt7__cxx1118basic_stringstreamIcSt11char_traitsIcESaIcEEEEclEPS5_.exit.i.i174: ; preds = %ehcleanup
  %vtable.i.i.i175 = load ptr, ptr %8, align 8
  %vfn.i.i.i176 = getelementptr inbounds ptr, ptr %vtable.i.i.i175, i64 1
  %9 = load ptr, ptr %vfn.i.i.i176, align 8
  call void %9(ptr noundef nonnull align 8 dereferenceable(128) %8) #15
  br label %_ZN7testing7MessageD2Ev.exit177

_ZN7testing7MessageD2Ev.exit177:                  ; preds = %ehcleanup, %_ZNKSt14default_deleteINSt7__cxx1118basic_stringstreamIcSt11char_traitsIcESaIcEEEEclEPS5_.exit.i.i174
  store ptr null, ptr %ref.tmp15, align 8
  br label %_ZNSt10unique_ptrIN4absl13base_internal12_GLOBAL__N_15ClassESt14default_deleteIS3_EED2Ev.exit1040

if.end:                                           ; preds = %entry, %_ZN7testing7MessageD2Ev.exit
  %message_.i = getelementptr inbounds %"class.testing::AssertionResult", ptr %gtest_ar, i64 0, i32 1
  %10 = load ptr, ptr %message_.i, align 8
  %cmp.not.i.i178 = icmp eq ptr %10, null
  br i1 %cmp.not.i.i178, label %if.then.i.i188, label %_ZNKSt14default_deleteINSt7__cxx1112basic_stringIcSt11char_traitsIcESaIcEEEEclEPS5_.exit.i.i

_ZNKSt14default_deleteINSt7__cxx1112basic_stringIcSt11char_traitsIcESaIcEEEEclEPS5_.exit.i.i: ; preds = %if.end
  call void @_ZNSt7__cxx1112basic_stringIcSt11char_traitsIcESaIcEED1Ev(ptr noundef nonnull align 8 dereferenceable(32) %10) #15
  call void @_ZdlPv(ptr noundef nonnull %10) #16
  br label %if.then.i.i188

if.then.i.i188:                                   ; preds = %_ZNKSt14default_deleteINSt7__cxx1112basic_stringIcSt11char_traitsIcESaIcEEEEclEPS5_.exit.i.i, %if.end
  store ptr null, ptr %message_.i, align 8
  call void @_ZN7testing16AssertionSuccessEv(ptr nonnull sret(%"class.testing::AssertionResult") align 8 %gtest_ar26)
  %11 = load i8, ptr %gtest_ar26, align 8
  %12 = and i8 %11, 1
  %tobool.i192.not = icmp eq i8 %12, 0
  br i1 %tobool.i192.not, label %if.else39, label %if.end52

if.else39:                                        ; preds = %if.then.i.i188
  invoke void @_ZN7testing7MessageC1Ev(ptr noundef nonnull align 8 dereferenceable(8) %ref.tmp40)
          to label %invoke.cont42 unwind label %lpad41

invoke.cont42:                                    ; preds = %if.else39
  %message_.i.i193 = getelementptr inbounds %"class.testing::AssertionResult", ptr %gtest_ar26, i64 0, i32 1
  %13 = load ptr, ptr %message_.i.i193, align 8
  %cmp.i.i.not.i.i194 = icmp eq ptr %13, null
  br i1 %cmp.i.i.not.i.i194, label %invoke.cont45, label %cond.true.i.i195

cond.true.i.i195:                                 ; preds = %invoke.cont42
  %call4.i.i196 = call noundef ptr @_ZNKSt7__cxx1112basic_stringIcSt11char_traitsIcESaIcEE5c_strEv(ptr noundef nonnull align 8 dereferenceable(32) %13) #15
  br label %invoke.cont45

invoke.cont45:                                    ; preds = %cond.true.i.i195, %invoke.cont42
  %cond.i.i197 = phi ptr [ %call4.i.i196, %cond.true.i.i195 ], [ @.str.60, %invoke.cont42 ]
  invoke void @_ZN7testing8internal12AssertHelperC1ENS_14TestPartResult4TypeEPKciS5_(ptr noundef nonnull align 8 dereferenceable(8) %ref.tmp43, i32 noundef 1, ptr noundef nonnull @.str.3, i32 noundef 172, ptr noundef %cond.i.i197)
          to label %invoke.cont47 unwind label %lpad44

invoke.cont47:                                    ; preds = %invoke.cont45
  invoke void @_ZNK7testing8internal12AssertHelperaSERKNS_7MessageE(ptr noundef nonnull align 8 dereferenceable(8) %ref.tmp43, ptr noundef nonnull align 8 dereferenceable(8) %ref.tmp40)
          to label %invoke.cont49 unwind label %lpad48

invoke.cont49:                                    ; preds = %invoke.cont47
  call void @_ZN7testing8internal12AssertHelperD1Ev(ptr noundef nonnull align 8 dereferenceable(8) %ref.tmp43) #15
  %14 = load ptr, ptr %ref.tmp40, align 8
  %cmp.not.i.i199 = icmp eq ptr %14, null
  br i1 %cmp.not.i.i199, label %_ZN7testing7MessageD2Ev.exit203, label %_ZNKSt14default_deleteINSt7__cxx1118basic_stringstreamIcSt11char_traitsIcESaIcEEEEclEPS5_.exit.i.i200

_ZNKSt14default_deleteINSt7__cxx1118basic_stringstreamIcSt11char_traitsIcESaIcEEEEclEPS5_.exit.i.i200: ; preds = %invoke.cont49
  %vtable.i.i.i201 = load ptr, ptr %14, align 8
  %vfn.i.i.i202 = getelementptr inbounds ptr, ptr %vtable.i.i.i201, i64 1
  %15 = load ptr, ptr %vfn.i.i.i202, align 8
  call void %15(ptr noundef nonnull align 8 dereferenceable(128) %14) #15
  br label %_ZN7testing7MessageD2Ev.exit203

_ZN7testing7MessageD2Ev.exit203:                  ; preds = %invoke.cont49, %_ZNKSt14default_deleteINSt7__cxx1118basic_stringstreamIcSt11char_traitsIcESaIcEEEEclEPS5_.exit.i.i200
  store ptr null, ptr %ref.tmp40, align 8
  br label %if.end52

lpad41:                                           ; preds = %if.else39
  %16 = landingpad { ptr, i32 }
          cleanup
  br label %_ZNSt10unique_ptrIN4absl13base_internal12_GLOBAL__N_15ClassESt14default_deleteIS3_EED2Ev.exit1040

lpad44:                                           ; preds = %invoke.cont45
  %17 = landingpad { ptr, i32 }
          cleanup
  br label %ehcleanup51

lpad48:                                           ; preds = %invoke.cont47
  %18 = landingpad { ptr, i32 }
          cleanup
  call void @_ZN7testing8internal12AssertHelperD1Ev(ptr noundef nonnull align 8 dereferenceable(8) %ref.tmp43) #15
  br label %ehcleanup51

ehcleanup51:                                      ; preds = %lpad48, %lpad44
  %.pn51 = phi { ptr, i32 } [ %18, %lpad48 ], [ %17, %lpad44 ]
  %19 = load ptr, ptr %ref.tmp40, align 8
  %cmp.not.i.i204 = icmp eq ptr %19, null
  br i1 %cmp.not.i.i204, label %_ZN7testing7MessageD2Ev.exit208, label %_ZNKSt14default_deleteINSt7__cxx1118basic_stringstreamIcSt11char_traitsIcESaIcEEEEclEPS5_.exit.i.i205

_ZNKSt14default_deleteINSt7__cxx1118basic_stringstreamIcSt11char_traitsIcESaIcEEEEclEPS5_.exit.i.i205: ; preds = %ehcleanup51
  %vtable.i.i.i206 = load ptr, ptr %19, align 8
  %vfn.i.i.i207 = getelementptr inbounds ptr, ptr %vtable.i.i.i206, i64 1
  %20 = load ptr, ptr %vfn.i.i.i207, align 8
  call void %20(ptr noundef nonnull align 8 dereferenceable(128) %19) #15
  br label %_ZN7testing7MessageD2Ev.exit208

_ZN7testing7MessageD2Ev.exit208:                  ; preds = %ehcleanup51, %_ZNKSt14default_deleteINSt7__cxx1118basic_stringstreamIcSt11char_traitsIcESaIcEEEEclEPS5_.exit.i.i205
  store ptr null, ptr %ref.tmp40, align 8
  br label %_ZNSt10unique_ptrIN4absl13base_internal12_GLOBAL__N_15ClassESt14default_deleteIS3_EED2Ev.exit1040

if.end52:                                         ; preds = %if.then.i.i188, %_ZN7testing7MessageD2Ev.exit203
  %message_.i209 = getelementptr inbounds %"class.testing::AssertionResult", ptr %gtest_ar26, i64 0, i32 1
  %21 = load ptr, ptr %message_.i209, align 8
  %cmp.not.i.i210 = icmp eq ptr %21, null
  br i1 %cmp.not.i.i210, label %if.then.i.i222, label %_ZNKSt14default_deleteINSt7__cxx1112basic_stringIcSt11char_traitsIcESaIcEEEEclEPS5_.exit.i.i211

_ZNKSt14default_deleteINSt7__cxx1112basic_stringIcSt11char_traitsIcESaIcEEEEclEPS5_.exit.i.i211: ; preds = %if.end52
  call void @_ZNSt7__cxx1112basic_stringIcSt11char_traitsIcESaIcEED1Ev(ptr noundef nonnull align 8 dereferenceable(32) %21) #15
  call void @_ZdlPv(ptr noundef nonnull %21) #16
  br label %if.then.i.i222

if.then.i.i222:                                   ; preds = %_ZNKSt14default_deleteINSt7__cxx1112basic_stringIcSt11char_traitsIcESaIcEEEEclEPS5_.exit.i.i211, %if.end52
  store ptr null, ptr %message_.i209, align 8
  call void @_ZN7testing16AssertionSuccessEv(ptr nonnull sret(%"class.testing::AssertionResult") align 8 %gtest_ar54)
  %22 = load i8, ptr %gtest_ar54, align 8
  %23 = and i8 %22, 1
  %tobool.i226.not = icmp eq i8 %23, 0
  br i1 %tobool.i226.not, label %if.else66, label %if.end79

if.else66:                                        ; preds = %if.then.i.i222
  invoke void @_ZN7testing7MessageC1Ev(ptr noundef nonnull align 8 dereferenceable(8) %ref.tmp67)
          to label %invoke.cont69 unwind label %lpad68

invoke.cont69:                                    ; preds = %if.else66
  %message_.i.i227 = getelementptr inbounds %"class.testing::AssertionResult", ptr %gtest_ar54, i64 0, i32 1
  %24 = load ptr, ptr %message_.i.i227, align 8
  %cmp.i.i.not.i.i228 = icmp eq ptr %24, null
  br i1 %cmp.i.i.not.i.i228, label %invoke.cont72, label %cond.true.i.i229

cond.true.i.i229:                                 ; preds = %invoke.cont69
  %call4.i.i230 = call noundef ptr @_ZNKSt7__cxx1112basic_stringIcSt11char_traitsIcESaIcEE5c_strEv(ptr noundef nonnull align 8 dereferenceable(32) %24) #15
  br label %invoke.cont72

invoke.cont72:                                    ; preds = %cond.true.i.i229, %invoke.cont69
  %cond.i.i231 = phi ptr [ %call4.i.i230, %cond.true.i.i229 ], [ @.str.60, %invoke.cont69 ]
  invoke void @_ZN7testing8internal12AssertHelperC1ENS_14TestPartResult4TypeEPKciS5_(ptr noundef nonnull align 8 dereferenceable(8) %ref.tmp70, i32 noundef 1, ptr noundef nonnull @.str.3, i32 noundef 173, ptr noundef %cond.i.i231)
          to label %invoke.cont74 unwind label %lpad71

invoke.cont74:                                    ; preds = %invoke.cont72
  invoke void @_ZNK7testing8internal12AssertHelperaSERKNS_7MessageE(ptr noundef nonnull align 8 dereferenceable(8) %ref.tmp70, ptr noundef nonnull align 8 dereferenceable(8) %ref.tmp67)
          to label %invoke.cont76 unwind label %lpad75

invoke.cont76:                                    ; preds = %invoke.cont74
  call void @_ZN7testing8internal12AssertHelperD1Ev(ptr noundef nonnull align 8 dereferenceable(8) %ref.tmp70) #15
  %25 = load ptr, ptr %ref.tmp67, align 8
  %cmp.not.i.i233 = icmp eq ptr %25, null
  br i1 %cmp.not.i.i233, label %_ZN7testing7MessageD2Ev.exit237, label %_ZNKSt14default_deleteINSt7__cxx1118basic_stringstreamIcSt11char_traitsIcESaIcEEEEclEPS5_.exit.i.i234

_ZNKSt14default_deleteINSt7__cxx1118basic_stringstreamIcSt11char_traitsIcESaIcEEEEclEPS5_.exit.i.i234: ; preds = %invoke.cont76
  %vtable.i.i.i235 = load ptr, ptr %25, align 8
  %vfn.i.i.i236 = getelementptr inbounds ptr, ptr %vtable.i.i.i235, i64 1
  %26 = load ptr, ptr %vfn.i.i.i236, align 8
  call void %26(ptr noundef nonnull align 8 dereferenceable(128) %25) #15
  br label %_ZN7testing7MessageD2Ev.exit237

_ZN7testing7MessageD2Ev.exit237:                  ; preds = %invoke.cont76, %_ZNKSt14default_deleteINSt7__cxx1118basic_stringstreamIcSt11char_traitsIcESaIcEEEEclEPS5_.exit.i.i234
  store ptr null, ptr %ref.tmp67, align 8
  br label %if.end79

lpad68:                                           ; preds = %if.else66
  %27 = landingpad { ptr, i32 }
          cleanup
  br label %_ZNSt10unique_ptrIN4absl13base_internal12_GLOBAL__N_15ClassESt14default_deleteIS3_EED2Ev.exit1040

lpad71:                                           ; preds = %invoke.cont72
  %28 = landingpad { ptr, i32 }
          cleanup
  br label %ehcleanup78

lpad75:                                           ; preds = %invoke.cont74
  %29 = landingpad { ptr, i32 }
          cleanup
  call void @_ZN7testing8internal12AssertHelperD1Ev(ptr noundef nonnull align 8 dereferenceable(8) %ref.tmp70) #15
  br label %ehcleanup78

ehcleanup78:                                      ; preds = %lpad75, %lpad71
  %.pn54 = phi { ptr, i32 } [ %29, %lpad75 ], [ %28, %lpad71 ]
  %30 = load ptr, ptr %ref.tmp67, align 8
  %cmp.not.i.i238 = icmp eq ptr %30, null
  br i1 %cmp.not.i.i238, label %_ZN7testing7MessageD2Ev.exit242, label %_ZNKSt14default_deleteINSt7__cxx1118basic_stringstreamIcSt11char_traitsIcESaIcEEEEclEPS5_.exit.i.i239

_ZNKSt14default_deleteINSt7__cxx1118basic_stringstreamIcSt11char_traitsIcESaIcEEEEclEPS5_.exit.i.i239: ; preds = %ehcleanup78
  %vtable.i.i.i240 = load ptr, ptr %30, align 8
  %vfn.i.i.i241 = getelementptr inbounds ptr, ptr %vtable.i.i.i240, i64 1
  %31 = load ptr, ptr %vfn.i.i.i241, align 8
  call void %31(ptr noundef nonnull align 8 dereferenceable(128) %30) #15
  br label %_ZN7testing7MessageD2Ev.exit242

_ZN7testing7MessageD2Ev.exit242:                  ; preds = %ehcleanup78, %_ZNKSt14default_deleteINSt7__cxx1118basic_stringstreamIcSt11char_traitsIcESaIcEEEEclEPS5_.exit.i.i239
  store ptr null, ptr %ref.tmp67, align 8
  br label %_ZNSt10unique_ptrIN4absl13base_internal12_GLOBAL__N_15ClassESt14default_deleteIS3_EED2Ev.exit1040

if.end79:                                         ; preds = %if.then.i.i222, %_ZN7testing7MessageD2Ev.exit237
  %message_.i243 = getelementptr inbounds %"class.testing::AssertionResult", ptr %gtest_ar54, i64 0, i32 1
  %32 = load ptr, ptr %message_.i243, align 8
  %cmp.not.i.i244 = icmp eq ptr %32, null
  br i1 %cmp.not.i.i244, label %if.then.i.i256, label %_ZNKSt14default_deleteINSt7__cxx1112basic_stringIcSt11char_traitsIcESaIcEEEEclEPS5_.exit.i.i245

_ZNKSt14default_deleteINSt7__cxx1112basic_stringIcSt11char_traitsIcESaIcEEEEclEPS5_.exit.i.i245: ; preds = %if.end79
  call void @_ZNSt7__cxx1112basic_stringIcSt11char_traitsIcESaIcEED1Ev(ptr noundef nonnull align 8 dereferenceable(32) %32) #15
  call void @_ZdlPv(ptr noundef nonnull %32) #16
  br label %if.then.i.i256

if.then.i.i256:                                   ; preds = %_ZNKSt14default_deleteINSt7__cxx1112basic_stringIcSt11char_traitsIcESaIcEEEEclEPS5_.exit.i.i245, %if.end79
  store ptr null, ptr %message_.i243, align 8
  call void @_ZN7testing16AssertionSuccessEv(ptr nonnull sret(%"class.testing::AssertionResult") align 8 %gtest_ar81)
  %33 = load i8, ptr %gtest_ar81, align 8
  %34 = and i8 %33, 1
  %tobool.i260.not = icmp eq i8 %34, 0
  br i1 %tobool.i260.not, label %if.else92, label %if.end105

if.else92:                                        ; preds = %if.then.i.i256
  invoke void @_ZN7testing7MessageC1Ev(ptr noundef nonnull align 8 dereferenceable(8) %ref.tmp93)
          to label %invoke.cont95 unwind label %lpad94

invoke.cont95:                                    ; preds = %if.else92
  %message_.i.i261 = getelementptr inbounds %"class.testing::AssertionResult", ptr %gtest_ar81, i64 0, i32 1
  %35 = load ptr, ptr %message_.i.i261, align 8
  %cmp.i.i.not.i.i262 = icmp eq ptr %35, null
  br i1 %cmp.i.i.not.i.i262, label %invoke.cont98, label %cond.true.i.i263

cond.true.i.i263:                                 ; preds = %invoke.cont95
  %call4.i.i264 = call noundef ptr @_ZNKSt7__cxx1112basic_stringIcSt11char_traitsIcESaIcEE5c_strEv(ptr noundef nonnull align 8 dereferenceable(32) %35) #15
  br label %invoke.cont98

invoke.cont98:                                    ; preds = %cond.true.i.i263, %invoke.cont95
  %cond.i.i265 = phi ptr [ %call4.i.i264, %cond.true.i.i263 ], [ @.str.60, %invoke.cont95 ]
  invoke void @_ZN7testing8internal12AssertHelperC1ENS_14TestPartResult4TypeEPKciS5_(ptr noundef nonnull align 8 dereferenceable(8) %ref.tmp96, i32 noundef 1, ptr noundef nonnull @.str.3, i32 noundef 174, ptr noundef %cond.i.i265)
          to label %invoke.cont100 unwind label %lpad97

invoke.cont100:                                   ; preds = %invoke.cont98
  invoke void @_ZNK7testing8internal12AssertHelperaSERKNS_7MessageE(ptr noundef nonnull align 8 dereferenceable(8) %ref.tmp96, ptr noundef nonnull align 8 dereferenceable(8) %ref.tmp93)
          to label %invoke.cont102 unwind label %lpad101

invoke.cont102:                                   ; preds = %invoke.cont100
  call void @_ZN7testing8internal12AssertHelperD1Ev(ptr noundef nonnull align 8 dereferenceable(8) %ref.tmp96) #15
  %36 = load ptr, ptr %ref.tmp93, align 8
  %cmp.not.i.i267 = icmp eq ptr %36, null
  br i1 %cmp.not.i.i267, label %_ZN7testing7MessageD2Ev.exit271, label %_ZNKSt14default_deleteINSt7__cxx1118basic_stringstreamIcSt11char_traitsIcESaIcEEEEclEPS5_.exit.i.i268

_ZNKSt14default_deleteINSt7__cxx1118basic_stringstreamIcSt11char_traitsIcESaIcEEEEclEPS5_.exit.i.i268: ; preds = %invoke.cont102
  %vtable.i.i.i269 = load ptr, ptr %36, align 8
  %vfn.i.i.i270 = getelementptr inbounds ptr, ptr %vtable.i.i.i269, i64 1
  %37 = load ptr, ptr %vfn.i.i.i270, align 8
  call void %37(ptr noundef nonnull align 8 dereferenceable(128) %36) #15
  br label %_ZN7testing7MessageD2Ev.exit271

_ZN7testing7MessageD2Ev.exit271:                  ; preds = %invoke.cont102, %_ZNKSt14default_deleteINSt7__cxx1118basic_stringstreamIcSt11char_traitsIcESaIcEEEEclEPS5_.exit.i.i268
  store ptr null, ptr %ref.tmp93, align 8
  br label %if.end105

lpad94:                                           ; preds = %if.else92
  %38 = landingpad { ptr, i32 }
          cleanup
  br label %_ZNSt10unique_ptrIN4absl13base_internal12_GLOBAL__N_15ClassESt14default_deleteIS3_EED2Ev.exit1040

lpad97:                                           ; preds = %invoke.cont98
  %39 = landingpad { ptr, i32 }
          cleanup
  br label %ehcleanup104

lpad101:                                          ; preds = %invoke.cont100
  %40 = landingpad { ptr, i32 }
          cleanup
  call void @_ZN7testing8internal12AssertHelperD1Ev(ptr noundef nonnull align 8 dereferenceable(8) %ref.tmp96) #15
  br label %ehcleanup104

ehcleanup104:                                     ; preds = %lpad101, %lpad97
  %.pn57 = phi { ptr, i32 } [ %40, %lpad101 ], [ %39, %lpad97 ]
  %41 = load ptr, ptr %ref.tmp93, align 8
  %cmp.not.i.i272 = icmp eq ptr %41, null
  br i1 %cmp.not.i.i272, label %_ZN7testing7MessageD2Ev.exit276, label %_ZNKSt14default_deleteINSt7__cxx1118basic_stringstreamIcSt11char_traitsIcESaIcEEEEclEPS5_.exit.i.i273

_ZNKSt14default_deleteINSt7__cxx1118basic_stringstreamIcSt11char_traitsIcESaIcEEEEclEPS5_.exit.i.i273: ; preds = %ehcleanup104
  %vtable.i.i.i274 = load ptr, ptr %41, align 8
  %vfn.i.i.i275 = getelementptr inbounds ptr, ptr %vtable.i.i.i274, i64 1
  %42 = load ptr, ptr %vfn.i.i.i275, align 8
  call void %42(ptr noundef nonnull align 8 dereferenceable(128) %41) #15
  br label %_ZN7testing7MessageD2Ev.exit276

_ZN7testing7MessageD2Ev.exit276:                  ; preds = %ehcleanup104, %_ZNKSt14default_deleteINSt7__cxx1118basic_stringstreamIcSt11char_traitsIcESaIcEEEEclEPS5_.exit.i.i273
  store ptr null, ptr %ref.tmp93, align 8
  br label %_ZNSt10unique_ptrIN4absl13base_internal12_GLOBAL__N_15ClassESt14default_deleteIS3_EED2Ev.exit1040

if.end105:                                        ; preds = %if.then.i.i256, %_ZN7testing7MessageD2Ev.exit271
  %message_.i277 = getelementptr inbounds %"class.testing::AssertionResult", ptr %gtest_ar81, i64 0, i32 1
  %43 = load ptr, ptr %message_.i277, align 8
  %cmp.not.i.i278 = icmp eq ptr %43, null
  br i1 %cmp.not.i.i278, label %if.then.i.i290, label %_ZNKSt14default_deleteINSt7__cxx1112basic_stringIcSt11char_traitsIcESaIcEEEEclEPS5_.exit.i.i279

_ZNKSt14default_deleteINSt7__cxx1112basic_stringIcSt11char_traitsIcESaIcEEEEclEPS5_.exit.i.i279: ; preds = %if.end105
  call void @_ZNSt7__cxx1112basic_stringIcSt11char_traitsIcESaIcEED1Ev(ptr noundef nonnull align 8 dereferenceable(32) %43) #15
  call void @_ZdlPv(ptr noundef nonnull %43) #16
  br label %if.then.i.i290

if.then.i.i290:                                   ; preds = %_ZNKSt14default_deleteINSt7__cxx1112basic_stringIcSt11char_traitsIcESaIcEEEEclEPS5_.exit.i.i279, %if.end105
  store ptr null, ptr %message_.i277, align 8
  call void @_ZN7testing16AssertionSuccessEv(ptr nonnull sret(%"class.testing::AssertionResult") align 8 %gtest_ar107)
  %44 = load i8, ptr %gtest_ar107, align 8
  %45 = and i8 %44, 1
  %tobool.i294.not = icmp eq i8 %45, 0
  br i1 %tobool.i294.not, label %if.else120, label %if.end133

if.else120:                                       ; preds = %if.then.i.i290
  invoke void @_ZN7testing7MessageC1Ev(ptr noundef nonnull align 8 dereferenceable(8) %ref.tmp121)
          to label %invoke.cont123 unwind label %lpad122

invoke.cont123:                                   ; preds = %if.else120
  %message_.i.i295 = getelementptr inbounds %"class.testing::AssertionResult", ptr %gtest_ar107, i64 0, i32 1
  %46 = load ptr, ptr %message_.i.i295, align 8
  %cmp.i.i.not.i.i296 = icmp eq ptr %46, null
  br i1 %cmp.i.i.not.i.i296, label %invoke.cont126, label %cond.true.i.i297

cond.true.i.i297:                                 ; preds = %invoke.cont123
  %call4.i.i298 = call noundef ptr @_ZNKSt7__cxx1112basic_stringIcSt11char_traitsIcESaIcEE5c_strEv(ptr noundef nonnull align 8 dereferenceable(32) %46) #15
  br label %invoke.cont126

invoke.cont126:                                   ; preds = %cond.true.i.i297, %invoke.cont123
  %cond.i.i299 = phi ptr [ %call4.i.i298, %cond.true.i.i297 ], [ @.str.60, %invoke.cont123 ]
  invoke void @_ZN7testing8internal12AssertHelperC1ENS_14TestPartResult4TypeEPKciS5_(ptr noundef nonnull align 8 dereferenceable(8) %ref.tmp124, i32 noundef 1, ptr noundef nonnull @.str.3, i32 noundef 175, ptr noundef %cond.i.i299)
          to label %invoke.cont128 unwind label %lpad125

invoke.cont128:                                   ; preds = %invoke.cont126
  invoke void @_ZNK7testing8internal12AssertHelperaSERKNS_7MessageE(ptr noundef nonnull align 8 dereferenceable(8) %ref.tmp124, ptr noundef nonnull align 8 dereferenceable(8) %ref.tmp121)
          to label %invoke.cont130 unwind label %lpad129

invoke.cont130:                                   ; preds = %invoke.cont128
  call void @_ZN7testing8internal12AssertHelperD1Ev(ptr noundef nonnull align 8 dereferenceable(8) %ref.tmp124) #15
  %47 = load ptr, ptr %ref.tmp121, align 8
  %cmp.not.i.i301 = icmp eq ptr %47, null
  br i1 %cmp.not.i.i301, label %_ZN7testing7MessageD2Ev.exit305, label %_ZNKSt14default_deleteINSt7__cxx1118basic_stringstreamIcSt11char_traitsIcESaIcEEEEclEPS5_.exit.i.i302

_ZNKSt14default_deleteINSt7__cxx1118basic_stringstreamIcSt11char_traitsIcESaIcEEEEclEPS5_.exit.i.i302: ; preds = %invoke.cont130
  %vtable.i.i.i303 = load ptr, ptr %47, align 8
  %vfn.i.i.i304 = getelementptr inbounds ptr, ptr %vtable.i.i.i303, i64 1
  %48 = load ptr, ptr %vfn.i.i.i304, align 8
  call void %48(ptr noundef nonnull align 8 dereferenceable(128) %47) #15
  br label %_ZN7testing7MessageD2Ev.exit305

_ZN7testing7MessageD2Ev.exit305:                  ; preds = %invoke.cont130, %_ZNKSt14default_deleteINSt7__cxx1118basic_stringstreamIcSt11char_traitsIcESaIcEEEEclEPS5_.exit.i.i302
  store ptr null, ptr %ref.tmp121, align 8
  br label %if.end133

lpad122:                                          ; preds = %if.else120
  %49 = landingpad { ptr, i32 }
          cleanup
  br label %_ZNSt10unique_ptrIN4absl13base_internal12_GLOBAL__N_15ClassESt14default_deleteIS3_EED2Ev.exit1040

lpad125:                                          ; preds = %invoke.cont126
  %50 = landingpad { ptr, i32 }
          cleanup
  br label %ehcleanup132

lpad129:                                          ; preds = %invoke.cont128
  %51 = landingpad { ptr, i32 }
          cleanup
  call void @_ZN7testing8internal12AssertHelperD1Ev(ptr noundef nonnull align 8 dereferenceable(8) %ref.tmp124) #15
  br label %ehcleanup132

ehcleanup132:                                     ; preds = %lpad129, %lpad125
  %.pn60 = phi { ptr, i32 } [ %51, %lpad129 ], [ %50, %lpad125 ]
  %52 = load ptr, ptr %ref.tmp121, align 8
  %cmp.not.i.i306 = icmp eq ptr %52, null
  br i1 %cmp.not.i.i306, label %_ZN7testing7MessageD2Ev.exit310, label %_ZNKSt14default_deleteINSt7__cxx1118basic_stringstreamIcSt11char_traitsIcESaIcEEEEclEPS5_.exit.i.i307

_ZNKSt14default_deleteINSt7__cxx1118basic_stringstreamIcSt11char_traitsIcESaIcEEEEclEPS5_.exit.i.i307: ; preds = %ehcleanup132
  %vtable.i.i.i308 = load ptr, ptr %52, align 8
  %vfn.i.i.i309 = getelementptr inbounds ptr, ptr %vtable.i.i.i308, i64 1
  %53 = load ptr, ptr %vfn.i.i.i309, align 8
  call void %53(ptr noundef nonnull align 8 dereferenceable(128) %52) #15
  br label %_ZN7testing7MessageD2Ev.exit310

_ZN7testing7MessageD2Ev.exit310:                  ; preds = %ehcleanup132, %_ZNKSt14default_deleteINSt7__cxx1118basic_stringstreamIcSt11char_traitsIcESaIcEEEEclEPS5_.exit.i.i307
  store ptr null, ptr %ref.tmp121, align 8
  br label %_ZNSt10unique_ptrIN4absl13base_internal12_GLOBAL__N_15ClassESt14default_deleteIS3_EED2Ev.exit1040

if.end133:                                        ; preds = %if.then.i.i290, %_ZN7testing7MessageD2Ev.exit305
  %message_.i311 = getelementptr inbounds %"class.testing::AssertionResult", ptr %gtest_ar107, i64 0, i32 1
  %54 = load ptr, ptr %message_.i311, align 8
  %cmp.not.i.i312 = icmp eq ptr %54, null
  br i1 %cmp.not.i.i312, label %if.then.i.i324, label %_ZNKSt14default_deleteINSt7__cxx1112basic_stringIcSt11char_traitsIcESaIcEEEEclEPS5_.exit.i.i313

_ZNKSt14default_deleteINSt7__cxx1112basic_stringIcSt11char_traitsIcESaIcEEEEclEPS5_.exit.i.i313: ; preds = %if.end133
  call void @_ZNSt7__cxx1112basic_stringIcSt11char_traitsIcESaIcEED1Ev(ptr noundef nonnull align 8 dereferenceable(32) %54) #15
  call void @_ZdlPv(ptr noundef nonnull %54) #16
  br label %if.then.i.i324

if.then.i.i324:                                   ; preds = %_ZNKSt14default_deleteINSt7__cxx1112basic_stringIcSt11char_traitsIcESaIcEEEEclEPS5_.exit.i.i313, %if.end133
  store ptr null, ptr %message_.i311, align 8
  call void @_ZN7testing16AssertionSuccessEv(ptr nonnull sret(%"class.testing::AssertionResult") align 8 %gtest_ar135)
  %55 = load i8, ptr %gtest_ar135, align 8
  %56 = and i8 %55, 1
  %tobool.i328.not = icmp eq i8 %56, 0
  br i1 %tobool.i328.not, label %if.else147, label %if.end160

if.else147:                                       ; preds = %if.then.i.i324
  invoke void @_ZN7testing7MessageC1Ev(ptr noundef nonnull align 8 dereferenceable(8) %ref.tmp148)
          to label %invoke.cont150 unwind label %lpad149

invoke.cont150:                                   ; preds = %if.else147
  %message_.i.i329 = getelementptr inbounds %"class.testing::AssertionResult", ptr %gtest_ar135, i64 0, i32 1
  %57 = load ptr, ptr %message_.i.i329, align 8
  %cmp.i.i.not.i.i330 = icmp eq ptr %57, null
  br i1 %cmp.i.i.not.i.i330, label %invoke.cont153, label %cond.true.i.i331

cond.true.i.i331:                                 ; preds = %invoke.cont150
  %call4.i.i332 = call noundef ptr @_ZNKSt7__cxx1112basic_stringIcSt11char_traitsIcESaIcEE5c_strEv(ptr noundef nonnull align 8 dereferenceable(32) %57) #15
  br label %invoke.cont153

invoke.cont153:                                   ; preds = %cond.true.i.i331, %invoke.cont150
  %cond.i.i333 = phi ptr [ %call4.i.i332, %cond.true.i.i331 ], [ @.str.60, %invoke.cont150 ]
  invoke void @_ZN7testing8internal12AssertHelperC1ENS_14TestPartResult4TypeEPKciS5_(ptr noundef nonnull align 8 dereferenceable(8) %ref.tmp151, i32 noundef 1, ptr noundef nonnull @.str.3, i32 noundef 176, ptr noundef %cond.i.i333)
          to label %invoke.cont155 unwind label %lpad152

invoke.cont155:                                   ; preds = %invoke.cont153
  invoke void @_ZNK7testing8internal12AssertHelperaSERKNS_7MessageE(ptr noundef nonnull align 8 dereferenceable(8) %ref.tmp151, ptr noundef nonnull align 8 dereferenceable(8) %ref.tmp148)
          to label %invoke.cont157 unwind label %lpad156

invoke.cont157:                                   ; preds = %invoke.cont155
  call void @_ZN7testing8internal12AssertHelperD1Ev(ptr noundef nonnull align 8 dereferenceable(8) %ref.tmp151) #15
  %58 = load ptr, ptr %ref.tmp148, align 8
  %cmp.not.i.i335 = icmp eq ptr %58, null
  br i1 %cmp.not.i.i335, label %_ZN7testing7MessageD2Ev.exit339, label %_ZNKSt14default_deleteINSt7__cxx1118basic_stringstreamIcSt11char_traitsIcESaIcEEEEclEPS5_.exit.i.i336

_ZNKSt14default_deleteINSt7__cxx1118basic_stringstreamIcSt11char_traitsIcESaIcEEEEclEPS5_.exit.i.i336: ; preds = %invoke.cont157
  %vtable.i.i.i337 = load ptr, ptr %58, align 8
  %vfn.i.i.i338 = getelementptr inbounds ptr, ptr %vtable.i.i.i337, i64 1
  %59 = load ptr, ptr %vfn.i.i.i338, align 8
  call void %59(ptr noundef nonnull align 8 dereferenceable(128) %58) #15
  br label %_ZN7testing7MessageD2Ev.exit339

_ZN7testing7MessageD2Ev.exit339:                  ; preds = %invoke.cont157, %_ZNKSt14default_deleteINSt7__cxx1118basic_stringstreamIcSt11char_traitsIcESaIcEEEEclEPS5_.exit.i.i336
  store ptr null, ptr %ref.tmp148, align 8
  br label %if.end160

lpad149:                                          ; preds = %if.else147
  %60 = landingpad { ptr, i32 }
          cleanup
  br label %_ZNSt10unique_ptrIN4absl13base_internal12_GLOBAL__N_15ClassESt14default_deleteIS3_EED2Ev.exit1040

lpad152:                                          ; preds = %invoke.cont153
  %61 = landingpad { ptr, i32 }
          cleanup
  br label %ehcleanup159

lpad156:                                          ; preds = %invoke.cont155
  %62 = landingpad { ptr, i32 }
          cleanup
  call void @_ZN7testing8internal12AssertHelperD1Ev(ptr noundef nonnull align 8 dereferenceable(8) %ref.tmp151) #15
  br label %ehcleanup159

ehcleanup159:                                     ; preds = %lpad156, %lpad152
  %.pn63 = phi { ptr, i32 } [ %62, %lpad156 ], [ %61, %lpad152 ]
  %63 = load ptr, ptr %ref.tmp148, align 8
  %cmp.not.i.i340 = icmp eq ptr %63, null
  br i1 %cmp.not.i.i340, label %_ZN7testing7MessageD2Ev.exit344, label %_ZNKSt14default_deleteINSt7__cxx1118basic_stringstreamIcSt11char_traitsIcESaIcEEEEclEPS5_.exit.i.i341

_ZNKSt14default_deleteINSt7__cxx1118basic_stringstreamIcSt11char_traitsIcESaIcEEEEclEPS5_.exit.i.i341: ; preds = %ehcleanup159
  %vtable.i.i.i342 = load ptr, ptr %63, align 8
  %vfn.i.i.i343 = getelementptr inbounds ptr, ptr %vtable.i.i.i342, i64 1
  %64 = load ptr, ptr %vfn.i.i.i343, align 8
  call void %64(ptr noundef nonnull align 8 dereferenceable(128) %63) #15
  br label %_ZN7testing7MessageD2Ev.exit344

_ZN7testing7MessageD2Ev.exit344:                  ; preds = %ehcleanup159, %_ZNKSt14default_deleteINSt7__cxx1118basic_stringstreamIcSt11char_traitsIcESaIcEEEEclEPS5_.exit.i.i341
  store ptr null, ptr %ref.tmp148, align 8
  br label %_ZNSt10unique_ptrIN4absl13base_internal12_GLOBAL__N_15ClassESt14default_deleteIS3_EED2Ev.exit1040

if.end160:                                        ; preds = %if.then.i.i324, %_ZN7testing7MessageD2Ev.exit339
  %message_.i345 = getelementptr inbounds %"class.testing::AssertionResult", ptr %gtest_ar135, i64 0, i32 1
  %65 = load ptr, ptr %message_.i345, align 8
  %cmp.not.i.i346 = icmp eq ptr %65, null
  br i1 %cmp.not.i.i346, label %if.then.i.i358, label %_ZNKSt14default_deleteINSt7__cxx1112basic_stringIcSt11char_traitsIcESaIcEEEEclEPS5_.exit.i.i347

_ZNKSt14default_deleteINSt7__cxx1112basic_stringIcSt11char_traitsIcESaIcEEEEclEPS5_.exit.i.i347: ; preds = %if.end160
  call void @_ZNSt7__cxx1112basic_stringIcSt11char_traitsIcESaIcEED1Ev(ptr noundef nonnull align 8 dereferenceable(32) %65) #15
  call void @_ZdlPv(ptr noundef nonnull %65) #16
  br label %if.then.i.i358

if.then.i.i358:                                   ; preds = %_ZNKSt14default_deleteINSt7__cxx1112basic_stringIcSt11char_traitsIcESaIcEEEEclEPS5_.exit.i.i347, %if.end160
  store ptr null, ptr %message_.i345, align 8
  call void @_ZN7testing16AssertionSuccessEv(ptr nonnull sret(%"class.testing::AssertionResult") align 8 %gtest_ar162)
  %66 = load i8, ptr %gtest_ar162, align 8
  %67 = and i8 %66, 1
  %tobool.i362.not = icmp eq i8 %67, 0
  br i1 %tobool.i362.not, label %if.else174, label %if.end187

if.else174:                                       ; preds = %if.then.i.i358
  invoke void @_ZN7testing7MessageC1Ev(ptr noundef nonnull align 8 dereferenceable(8) %ref.tmp175)
          to label %invoke.cont177 unwind label %lpad176

invoke.cont177:                                   ; preds = %if.else174
  %message_.i.i363 = getelementptr inbounds %"class.testing::AssertionResult", ptr %gtest_ar162, i64 0, i32 1
  %68 = load ptr, ptr %message_.i.i363, align 8
  %cmp.i.i.not.i.i364 = icmp eq ptr %68, null
  br i1 %cmp.i.i.not.i.i364, label %invoke.cont180, label %cond.true.i.i365

cond.true.i.i365:                                 ; preds = %invoke.cont177
  %call4.i.i366 = call noundef ptr @_ZNKSt7__cxx1112basic_stringIcSt11char_traitsIcESaIcEE5c_strEv(ptr noundef nonnull align 8 dereferenceable(32) %68) #15
  br label %invoke.cont180

invoke.cont180:                                   ; preds = %cond.true.i.i365, %invoke.cont177
  %cond.i.i367 = phi ptr [ %call4.i.i366, %cond.true.i.i365 ], [ @.str.60, %invoke.cont177 ]
  invoke void @_ZN7testing8internal12AssertHelperC1ENS_14TestPartResult4TypeEPKciS5_(ptr noundef nonnull align 8 dereferenceable(8) %ref.tmp178, i32 noundef 1, ptr noundef nonnull @.str.3, i32 noundef 178, ptr noundef %cond.i.i367)
          to label %invoke.cont182 unwind label %lpad179

invoke.cont182:                                   ; preds = %invoke.cont180
  invoke void @_ZNK7testing8internal12AssertHelperaSERKNS_7MessageE(ptr noundef nonnull align 8 dereferenceable(8) %ref.tmp178, ptr noundef nonnull align 8 dereferenceable(8) %ref.tmp175)
          to label %invoke.cont184 unwind label %lpad183

invoke.cont184:                                   ; preds = %invoke.cont182
  call void @_ZN7testing8internal12AssertHelperD1Ev(ptr noundef nonnull align 8 dereferenceable(8) %ref.tmp178) #15
  %69 = load ptr, ptr %ref.tmp175, align 8
  %cmp.not.i.i369 = icmp eq ptr %69, null
  br i1 %cmp.not.i.i369, label %_ZN7testing7MessageD2Ev.exit373, label %_ZNKSt14default_deleteINSt7__cxx1118basic_stringstreamIcSt11char_traitsIcESaIcEEEEclEPS5_.exit.i.i370

_ZNKSt14default_deleteINSt7__cxx1118basic_stringstreamIcSt11char_traitsIcESaIcEEEEclEPS5_.exit.i.i370: ; preds = %invoke.cont184
  %vtable.i.i.i371 = load ptr, ptr %69, align 8
  %vfn.i.i.i372 = getelementptr inbounds ptr, ptr %vtable.i.i.i371, i64 1
  %70 = load ptr, ptr %vfn.i.i.i372, align 8
  call void %70(ptr noundef nonnull align 8 dereferenceable(128) %69) #15
  br label %_ZN7testing7MessageD2Ev.exit373

_ZN7testing7MessageD2Ev.exit373:                  ; preds = %invoke.cont184, %_ZNKSt14default_deleteINSt7__cxx1118basic_stringstreamIcSt11char_traitsIcESaIcEEEEclEPS5_.exit.i.i370
  store ptr null, ptr %ref.tmp175, align 8
  br label %if.end187

lpad176:                                          ; preds = %if.else174
  %71 = landingpad { ptr, i32 }
          cleanup
  br label %_ZNSt10unique_ptrIN4absl13base_internal12_GLOBAL__N_15ClassESt14default_deleteIS3_EED2Ev.exit1040

lpad179:                                          ; preds = %invoke.cont180
  %72 = landingpad { ptr, i32 }
          cleanup
  br label %ehcleanup186

lpad183:                                          ; preds = %invoke.cont182
  %73 = landingpad { ptr, i32 }
          cleanup
  call void @_ZN7testing8internal12AssertHelperD1Ev(ptr noundef nonnull align 8 dereferenceable(8) %ref.tmp178) #15
  br label %ehcleanup186

ehcleanup186:                                     ; preds = %lpad183, %lpad179
  %.pn66 = phi { ptr, i32 } [ %73, %lpad183 ], [ %72, %lpad179 ]
  %74 = load ptr, ptr %ref.tmp175, align 8
  %cmp.not.i.i374 = icmp eq ptr %74, null
  br i1 %cmp.not.i.i374, label %_ZN7testing7MessageD2Ev.exit378, label %_ZNKSt14default_deleteINSt7__cxx1118basic_stringstreamIcSt11char_traitsIcESaIcEEEEclEPS5_.exit.i.i375

_ZNKSt14default_deleteINSt7__cxx1118basic_stringstreamIcSt11char_traitsIcESaIcEEEEclEPS5_.exit.i.i375: ; preds = %ehcleanup186
  %vtable.i.i.i376 = load ptr, ptr %74, align 8
  %vfn.i.i.i377 = getelementptr inbounds ptr, ptr %vtable.i.i.i376, i64 1
  %75 = load ptr, ptr %vfn.i.i.i377, align 8
  call void %75(ptr noundef nonnull align 8 dereferenceable(128) %74) #15
  br label %_ZN7testing7MessageD2Ev.exit378

_ZN7testing7MessageD2Ev.exit378:                  ; preds = %ehcleanup186, %_ZNKSt14default_deleteINSt7__cxx1118basic_stringstreamIcSt11char_traitsIcESaIcEEEEclEPS5_.exit.i.i375
  store ptr null, ptr %ref.tmp175, align 8
  br label %_ZNSt10unique_ptrIN4absl13base_internal12_GLOBAL__N_15ClassESt14default_deleteIS3_EED2Ev.exit1040

if.end187:                                        ; preds = %if.then.i.i358, %_ZN7testing7MessageD2Ev.exit373
  %message_.i379 = getelementptr inbounds %"class.testing::AssertionResult", ptr %gtest_ar162, i64 0, i32 1
  %76 = load ptr, ptr %message_.i379, align 8
  %cmp.not.i.i380 = icmp eq ptr %76, null
  br i1 %cmp.not.i.i380, label %if.then.i.i391, label %_ZNKSt14default_deleteINSt7__cxx1112basic_stringIcSt11char_traitsIcESaIcEEEEclEPS5_.exit.i.i381

_ZNKSt14default_deleteINSt7__cxx1112basic_stringIcSt11char_traitsIcESaIcEEEEclEPS5_.exit.i.i381: ; preds = %if.end187
  call void @_ZNSt7__cxx1112basic_stringIcSt11char_traitsIcESaIcEED1Ev(ptr noundef nonnull align 8 dereferenceable(32) %76) #15
  call void @_ZdlPv(ptr noundef nonnull %76) #16
  br label %if.then.i.i391

if.then.i.i391:                                   ; preds = %_ZNKSt14default_deleteINSt7__cxx1112basic_stringIcSt11char_traitsIcESaIcEEEEclEPS5_.exit.i.i381, %if.end187
  store ptr null, ptr %message_.i379, align 8
  call void @_ZN7testing16AssertionSuccessEv(ptr nonnull sret(%"class.testing::AssertionResult") align 8 %gtest_ar189)
  %77 = load i8, ptr %gtest_ar189, align 8
  %78 = and i8 %77, 1
  %tobool.i395.not = icmp eq i8 %78, 0
  br i1 %tobool.i395.not, label %if.else199, label %if.end212

if.else199:                                       ; preds = %if.then.i.i391
  invoke void @_ZN7testing7MessageC1Ev(ptr noundef nonnull align 8 dereferenceable(8) %ref.tmp200)
          to label %invoke.cont202 unwind label %lpad201

invoke.cont202:                                   ; preds = %if.else199
  %message_.i.i396 = getelementptr inbounds %"class.testing::AssertionResult", ptr %gtest_ar189, i64 0, i32 1
  %79 = load ptr, ptr %message_.i.i396, align 8
  %cmp.i.i.not.i.i397 = icmp eq ptr %79, null
  br i1 %cmp.i.i.not.i.i397, label %invoke.cont205, label %cond.true.i.i398

cond.true.i.i398:                                 ; preds = %invoke.cont202
  %call4.i.i399 = call noundef ptr @_ZNKSt7__cxx1112basic_stringIcSt11char_traitsIcESaIcEE5c_strEv(ptr noundef nonnull align 8 dereferenceable(32) %79) #15
  br label %invoke.cont205

invoke.cont205:                                   ; preds = %cond.true.i.i398, %invoke.cont202
  %cond.i.i400 = phi ptr [ %call4.i.i399, %cond.true.i.i398 ], [ @.str.60, %invoke.cont202 ]
  invoke void @_ZN7testing8internal12AssertHelperC1ENS_14TestPartResult4TypeEPKciS5_(ptr noundef nonnull align 8 dereferenceable(8) %ref.tmp203, i32 noundef 1, ptr noundef nonnull @.str.3, i32 noundef 179, ptr noundef %cond.i.i400)
          to label %invoke.cont207 unwind label %lpad204

invoke.cont207:                                   ; preds = %invoke.cont205
  invoke void @_ZNK7testing8internal12AssertHelperaSERKNS_7MessageE(ptr noundef nonnull align 8 dereferenceable(8) %ref.tmp203, ptr noundef nonnull align 8 dereferenceable(8) %ref.tmp200)
          to label %invoke.cont209 unwind label %lpad208

invoke.cont209:                                   ; preds = %invoke.cont207
  call void @_ZN7testing8internal12AssertHelperD1Ev(ptr noundef nonnull align 8 dereferenceable(8) %ref.tmp203) #15
  %80 = load ptr, ptr %ref.tmp200, align 8
  %cmp.not.i.i402 = icmp eq ptr %80, null
  br i1 %cmp.not.i.i402, label %_ZN7testing7MessageD2Ev.exit406, label %_ZNKSt14default_deleteINSt7__cxx1118basic_stringstreamIcSt11char_traitsIcESaIcEEEEclEPS5_.exit.i.i403

_ZNKSt14default_deleteINSt7__cxx1118basic_stringstreamIcSt11char_traitsIcESaIcEEEEclEPS5_.exit.i.i403: ; preds = %invoke.cont209
  %vtable.i.i.i404 = load ptr, ptr %80, align 8
  %vfn.i.i.i405 = getelementptr inbounds ptr, ptr %vtable.i.i.i404, i64 1
  %81 = load ptr, ptr %vfn.i.i.i405, align 8
  call void %81(ptr noundef nonnull align 8 dereferenceable(128) %80) #15
  br label %_ZN7testing7MessageD2Ev.exit406

