; ModuleID = 'bench/abseil-cpp/original/pcg_engine_test.cc.ll'
source_filename = "bench/abseil-cpp/original/pcg_engine_test.cc.ll"
target datalayout = "e-m:e-p270:32:32-p271:32:32-p272:64:64-i64:64-i128:128-f80:128-n8:16:32:64-S128"
target triple = "x86_64-unknown-linux-gnu"

%"class.std::ios_base::Init" = type { i8 }
%"class.std::basic_ostream" = type { ptr, %"class.std::basic_ios" }
%"class.std::basic_ios" = type { %"class.std::ios_base", ptr, i8, i8, ptr, ptr, ptr, ptr }
%"class.std::ios_base" = type { ptr, i64, i64, i32, i32, i32, ptr, %"struct.std::ios_base::_Words", [8 x %"struct.std::ios_base::_Words"], i32, ptr, %"class.std::locale" }
%"struct.std::ios_base::_Words" = type { ptr, i64 }
%"class.std::locale" = type { ptr }
%"struct.std::_Vector_base<std::__cxx11::basic_string<char>, std::allocator<std::__cxx11::basic_string<char>>>::_Vector_impl_data" = type { ptr, ptr, ptr }
%"class.std::__cxx11::basic_string" = type { %"struct.std::__cxx11::basic_string<char>::_Alloc_hider", i64, %union.anon }
%"struct.std::__cxx11::basic_string<char>::_Alloc_hider" = type { ptr }
%union.anon = type { i64, [8 x i8] }
%"class.testing::internal::GTestLog" = type { i32 }
%"class.testing::AssertionResult" = type { i8, %"class.std::unique_ptr.10" }
%"class.std::unique_ptr.10" = type { %"struct.std::__uniq_ptr_data.11" }
%"struct.std::__uniq_ptr_data.11" = type { %"class.std::__uniq_ptr_impl.12" }
%"class.std::__uniq_ptr_impl.12" = type { %"class.std::tuple.13" }
%"class.std::tuple.13" = type { %"struct.std::_Tuple_impl.14" }
%"struct.std::_Tuple_impl.14" = type { %"struct.std::_Head_base.17" }
%"struct.std::_Head_base.17" = type { ptr }
%"class.testing::Message" = type { %"class.std::unique_ptr.18" }
%"class.std::unique_ptr.18" = type { %"struct.std::__uniq_ptr_data.19" }
%"struct.std::__uniq_ptr_data.19" = type { %"class.std::__uniq_ptr_impl.20" }
%"class.std::__uniq_ptr_impl.20" = type { %"class.std::tuple.21" }
%"class.std::tuple.21" = type { %"struct.std::_Tuple_impl.22" }
%"struct.std::_Tuple_impl.22" = type { %"struct.std::_Head_base.25" }
%"struct.std::_Head_base.25" = type { ptr }
%"class.testing::internal::AssertHelper" = type { ptr }
%"class.std::__cxx11::basic_stringstream" = type { %"class.std::basic_iostream.base", %"class.std::__cxx11::basic_stringbuf", %"class.std::basic_ios" }
%"class.std::basic_iostream.base" = type { %"class.std::basic_istream.base", %"class.std::basic_ostream.base" }
%"class.std::basic_istream.base" = type { ptr, i64 }
%"class.std::basic_ostream.base" = type { ptr }
%"class.std::__cxx11::basic_stringbuf" = type { %"class.std::basic_streambuf", i32, %"class.std::__cxx11::basic_string" }
%"class.std::basic_streambuf" = type { ptr, ptr, ptr, ptr, ptr, ptr, ptr, %"class.std::locale" }
%"class.absl::random_internal::pcg_engine" = type { %"class.absl::uint128" }
%"class.absl::uint128" = type { i64, i64 }
%"class.std::__cxx11::basic_istringstream" = type { %"class.std::basic_istream.base", %"class.std::__cxx11::basic_stringbuf", %"class.std::basic_ios" }
%"class.std::allocator" = type { i8 }
%"class.absl::random_internal::pcg_engine.34" = type { i64 }
%struct._Guard = type { ptr }
%"class.std::type_info" = type { ptr, ptr }
%"class.std::seed_seq" = type { %"class.std::vector.28" }
%"class.std::vector.28" = type { %"struct.std::_Vector_base.29" }
%"struct.std::_Vector_base.29" = type { %"struct.std::_Vector_base<unsigned int, std::allocator<unsigned int>>::_Vector_impl" }
%"struct.std::_Vector_base<unsigned int, std::allocator<unsigned int>>::_Vector_impl" = type { %"struct.std::_Vector_base<unsigned int, std::allocator<unsigned int>>::_Vector_impl_data" }
%"struct.std::_Vector_base<unsigned int, std::allocator<unsigned int>>::_Vector_impl_data" = type { ptr, ptr, ptr }
%"class.std::random_device" = type { %union.anon.38 }
%union.anon.38 = type { %"class.std::mersenne_twister_engine" }
%"class.std::mersenne_twister_engine" = type { [624 x i64], i64 }
%"class.std::__cxx11::basic_ostringstream" = type { %"class.std::basic_ostream.base.61", %"class.std::__cxx11::basic_stringbuf.62", %"class.std::basic_ios.60" }
%"class.std::basic_ostream.base.61" = type { ptr }
%"class.std::__cxx11::basic_stringbuf.62" = type { %"class.std::basic_streambuf.63", i32, %"class.std::__cxx11::basic_string.64" }
%"class.std::basic_streambuf.63" = type { ptr, ptr, ptr, ptr, ptr, ptr, ptr, %"class.std::locale" }
%"class.std::__cxx11::basic_string.64" = type { %"struct.std::__cxx11::basic_string<wchar_t>::_Alloc_hider", i64, %union.anon.68 }
%"struct.std::__cxx11::basic_string<wchar_t>::_Alloc_hider" = type { ptr }
%union.anon.68 = type { i64, [8 x i8] }
%"class.std::basic_ios.60" = type { %"class.std::ios_base", ptr, i32, i8, ptr, ptr, ptr, ptr }
%"class.std::__cxx11::basic_istringstream.69" = type { %"class.std::basic_istream.base.71", %"class.std::__cxx11::basic_stringbuf.62", %"class.std::basic_ios.60" }
%"class.std::basic_istream.base.71" = type { ptr, i64 }
%"class.absl::random_internal::ostream_state_saver" = type { ptr, i32, i32, i64 }
%"class.absl::random_internal::ostream_state_saver.76" = type { ptr, i32, i8, i64 }
%"struct.testing::internal::CodeLocation" = type <{ %"class.std::__cxx11::basic_string", i32, [4 x i8] }>
%"class.std::vector" = type { %"struct.std::_Vector_base" }
%"struct.std::_Vector_base" = type { %"struct.std::_Vector_base<std::__cxx11::basic_string<char>, std::allocator<std::__cxx11::basic_string<char>>>::_Vector_impl" }
%"struct.std::_Vector_base<std::__cxx11::basic_string<char>, std::allocator<std::__cxx11::basic_string<char>>>::_Vector_impl" = type { %"struct.std::_Vector_base<std::__cxx11::basic_string<char>, std::allocator<std::__cxx11::basic_string<char>>>::_Vector_impl_data" }

$_ZNSt6vectorINSt7__cxx1112basic_stringIcSt11char_traitsIcESaIcEEESaIS5_EED2Ev = comdat any

$_ZN7testing8internal16SuiteApiResolverINS_4TestEE19GetSetUpCaseOrSuiteEPKci = comdat any

$_ZN7testing8internal16SuiteApiResolverINS_4TestEE22GetTearDownCaseOrSuiteEPKci = comdat any

$_ZN7testing4Test5SetupEv = comdat any

$_ZN7testing15AssertionResultD2Ev = comdat any

$_ZN7testing8internal18CmpHelperEQFailureImmEENS_15AssertionResultEPKcS4_RKT_RKT0_ = comdat any

$__clang_call_terminate = comdat any

$_ZN4absl15random_internalrsIcSt11char_traitsIcEEENSt9enable_ifILb1ERSt13basic_istreamIT_T0_EE4typeES9_RNS0_10pcg_engineINS0_13pcg128_paramsILm2549297995355413924ELm4865540595714422341ELm6364136223846793005ELm1442695040888963407EEENS0_17pcg_xsl_rr_128_64EEE = comdat any

$_ZN7testing8internal18CmpHelperEQFailureIjjEENS_15AssertionResultEPKcS4_RKT_RKT0_ = comdat any

$_ZN4absl15random_internalrsIcSt11char_traitsIcEEENSt9enable_ifILb1ERSt13basic_istreamIT_T0_EE4typeES9_RNS0_10pcg_engineINS0_12pcg64_paramsILm6364136223846793005ELm1442695040888963407EEENS0_16pcg_xsh_rr_64_32EEE = comdat any

$_ZN7testing8internal18CmpHelperEQFailureImjEENS_15AssertionResultEPKcS4_RKT_RKT0_ = comdat any

$_ZNSt7__cxx1112basic_stringIcSt11char_traitsIcESaIcEE12_M_constructIPKcEEvT_S8_St20forward_iterator_tag = comdat any

$_ZZNSt7__cxx1112basic_stringIcSt11char_traitsIcESaIcEE12_M_constructIPKcEEvT_S8_St20forward_iterator_tagEN6_GuardD2Ev = comdat any

$_ZN7testing8internal19GetPrefixUntilCommaB5cxx11EPKc = comdat any

$_ZN7testing8internal11GetTypeNameB5cxx11ERKSt9type_info = comdat any

$_ZN7testing8internal31CanonicalizeForStdLibVersioningENSt7__cxx1112basic_stringIcSt11char_traitsIcESaIcEEE = comdat any

$_ZNSt8seed_seqC2IivEESt16initializer_listIT_E = comdat any

$_ZNSt13random_deviceC2Ev = comdat any

$_ZNSt8seed_seqC2IjvEESt16initializer_listIT_E = comdat any

$_ZNSt8seed_seq8generateIPjEEvT_S2_ = comdat any

$_ZN7testing8internal18CmpHelperOpFailureImdEENS_15AssertionResultEPKcS4_RKT_RKT0_S4_ = comdat any

$_ZN7testing15AssertionResult13AppendMessageERKNS_7MessageE = comdat any

$_ZN7testing8internal7PrintToEdPSo = comdat any

$_ZN7testing8internal24GenerateNamesRecursivelyINS0_20DefaultNameGeneratorENS0_5TypesIN4absl15random_internal10pcg_engineINS5_13pcg128_paramsILm2549297995355413924ELm4865540595714422341ELm6364136223846793005ELm1442695040888963407EEENS5_17pcg_xsl_rr_128_64EEEJNS6_INS5_12pcg64_paramsILm6364136223846793005ELm1442695040888963407EEENS5_16pcg_xsh_rr_64_32EEEEEEEEvT0_PSt6vectorINSt7__cxx1112basic_stringIcSt11char_traitsIcESaIcEEESaISN_EEi = comdat any

$_ZN7testing8internal24GenerateNamesRecursivelyINS0_20DefaultNameGeneratorENS0_5TypesIN4absl15random_internal10pcg_engineINS5_12pcg64_paramsILm6364136223846793005ELm1442695040888963407EEENS5_16pcg_xsh_rr_64_32EEEJEEEEEvT0_PSt6vectorINSt7__cxx1112basic_stringIcSt11char_traitsIcESaIcEEESaISJ_EEi = comdat any

$_ZNSt6vectorINSt7__cxx1112basic_stringIcSt11char_traitsIcESaIcEEESaIS5_EE17_M_realloc_insertIJS5_EEEvN9__gnu_cxx17__normal_iteratorIPS5_S7_EEDpOT_ = comdat any

$_ZN4absl15random_internallsIwSt11char_traitsIwEEENSt9enable_ifILb1ERSt13basic_ostreamIT_T0_EE4typeES9_RKNS0_10pcg_engineINS0_13pcg128_paramsILm2549297995355413924ELm4865540595714422341ELm6364136223846793005ELm1442695040888963407EEENS0_17pcg_xsl_rr_128_64EEE = comdat any

$_ZN4absl15random_internalrsIwSt11char_traitsIwEEENSt9enable_ifILb1ERSt13basic_istreamIT_T0_EE4typeES9_RNS0_10pcg_engineINS0_13pcg128_paramsILm2549297995355413924ELm4865540595714422341ELm6364136223846793005ELm1442695040888963407EEENS0_17pcg_xsl_rr_128_64EEE = comdat any

$_ZN7testing8internal18CmpHelperEQFailureIPSt13basic_ostreamIwSt11char_traitsIwEEPNSt7__cxx1119basic_ostringstreamIwS4_SaIwEEEEENS_15AssertionResultEPKcSE_RKT_RKT0_ = comdat any

$_ZN4absl15random_internal19ostream_state_saverISt13basic_ostreamIwSt11char_traitsIwEEED2Ev = comdat any

$_ZN7testing8internal18CmpHelperEQFailureIPSt13basic_istreamIwSt11char_traitsIwEEPNSt7__cxx1119basic_istringstreamIwS4_SaIwEEEEENS_15AssertionResultEPKcSE_RKT_RKT0_ = comdat any

$_ZN4absl15random_internallsIwSt11char_traitsIwEEENSt9enable_ifILb1ERSt13basic_ostreamIT_T0_EE4typeES9_RKNS0_10pcg_engineINS0_12pcg64_paramsILm6364136223846793005ELm1442695040888963407EEENS0_16pcg_xsh_rr_64_32EEE = comdat any

$_ZN4absl15random_internalrsIwSt11char_traitsIwEEENSt9enable_ifILb1ERSt13basic_istreamIT_T0_EE4typeES9_RNS0_10pcg_engineINS0_12pcg64_paramsILm6364136223846793005ELm1442695040888963407EEENS0_16pcg_xsh_rr_64_32EEE = comdat any

$_ZN4absl15random_internallsIcSt11char_traitsIcEEENSt9enable_ifILb1ERSt13basic_ostreamIT_T0_EE4typeES9_RKNS0_10pcg_engineINS0_13pcg128_paramsILm2549297995355413924ELm4865540595714422341ELm6364136223846793005ELm1442695040888963407EEENS0_17pcg_xsl_rr_128_64EEE = comdat any

$_ZN4absl15random_internal19ostream_state_saverISoED2Ev = comdat any

$_ZN4absl15random_internallsIcSt11char_traitsIcEEENSt9enable_ifILb1ERSt13basic_ostreamIT_T0_EE4typeES9_RKNS0_10pcg_engineINS0_12pcg64_paramsILm6364136223846793005ELm1442695040888963407EEENS0_16pcg_xsh_rr_64_32EEE = comdat any

$_ZTSN7testing8internal15TestFactoryBaseE = comdat any

$_ZTIN7testing8internal15TestFactoryBaseE = comdat any

$_ZTSN4absl15random_internal10pcg_engineINS0_13pcg128_paramsILm2549297995355413924ELm4865540595714422341ELm6364136223846793005ELm1442695040888963407EEENS0_17pcg_xsl_rr_128_64EEE = comdat any

$_ZTIN4absl15random_internal10pcg_engineINS0_13pcg128_paramsILm2549297995355413924ELm4865540595714422341ELm6364136223846793005ELm1442695040888963407EEENS0_17pcg_xsl_rr_128_64EEE = comdat any

$_ZZN7testing8internal31CanonicalizeForStdLibVersioningENSt7__cxx1112basic_stringIcSt11char_traitsIcESaIcEEEE6prefix = comdat any

$_ZZN7testing8internal31CanonicalizeForStdLibVersioningENSt7__cxx1112basic_stringIcSt11char_traitsIcESaIcEEEE9to_search = comdat any

$_ZZN7testing8internal31CanonicalizeForStdLibVersioningENSt7__cxx1112basic_stringIcSt11char_traitsIcESaIcEEEE11replace_str = comdat any

$_ZTSN4absl15random_internal10pcg_engineINS0_12pcg64_paramsILm6364136223846793005ELm1442695040888963407EEENS0_16pcg_xsh_rr_64_32EEE = comdat any

$_ZTIN4absl15random_internal10pcg_engineINS0_12pcg64_paramsILm6364136223846793005ELm1442695040888963407EEENS0_16pcg_xsh_rr_64_32EEE = comdat any

@_ZStL8__ioinit = internal global %"class.std::ios_base::Init" zeroinitializer, align 1
@__dso_handle = external hidden global i8
@.str = private unnamed_addr constant [1 x i8] zeroinitializer, align 1
@.str.2 = private unnamed_addr constant [139 x i8] c"generated/home/dtcxzyw/WorkSpace/Projects/compilers/llvm-opt-benchmark/bench/abseil-cpp/abseil-cpp/absl/random/internal/pcg_engine_test.cc\00", align 1
@.str.3 = private unnamed_addr constant [14 x i8] c"PCGEngineTest\00", align 1
@.str.4 = private unnamed_addr constant [29 x i8] c"VerifyReseedChangesAllValues\00", align 1
@.str.6 = private unnamed_addr constant [14 x i8] c"VerifyDiscard\00", align 1
@.str.8 = private unnamed_addr constant [22 x i8] c"StreamOperatorsResult\00", align 1
@.str.10 = private unnamed_addr constant [20 x i8] c"StreamSerialization\00", align 1
@.str.12 = private unnamed_addr constant [28 x i8] c"RandomNumberEngineInterface\00", align 1
@.str.14 = private unnamed_addr constant [23 x i8] c"RandenEngineSFINAETest\00", align 1
@_ZN12_GLOBAL__N_137PCG642018EngineTest_VerifyGolden_Test10test_info_E = internal unnamed_addr global ptr null, align 8
@.str.16 = private unnamed_addr constant [20 x i8] c"PCG642018EngineTest\00", align 1
@.str.17 = private unnamed_addr constant [13 x i8] c"VerifyGolden\00", align 1
@_ZN12_GLOBAL__N_143PCG642018EngineTest_VerifyGoldenSeeded_Test10test_info_E = internal unnamed_addr global ptr null, align 8
@.str.19 = private unnamed_addr constant [19 x i8] c"VerifyGoldenSeeded\00", align 1
@_ZN12_GLOBAL__N_159PCG642018EngineTest_VerifyGoldenFromDeserializedEngine_Test10test_info_E = internal unnamed_addr global ptr null, align 8
@.str.21 = private unnamed_addr constant [35 x i8] c"VerifyGoldenFromDeserializedEngine\00", align 1
@_ZN12_GLOBAL__N_137PCG322018EngineTest_VerifyGolden_Test10test_info_E = internal unnamed_addr global ptr null, align 8
@.str.23 = private unnamed_addr constant [20 x i8] c"PCG322018EngineTest\00", align 1
@_ZN12_GLOBAL__N_143PCG322018EngineTest_VerifyGoldenSeeded_Test10test_info_E = internal unnamed_addr global ptr null, align 8
@_ZN12_GLOBAL__N_159PCG322018EngineTest_VerifyGoldenFromDeserializedEngine_Test10test_info_E = internal unnamed_addr global ptr null, align 8
@_ZTVN7testing8internal15TestFactoryImplIN12_GLOBAL__N_137PCG642018EngineTest_VerifyGolden_TestEEE = internal unnamed_addr constant { [5 x ptr] } { [5 x ptr] [ptr null, ptr @_ZTIN7testing8internal15TestFactoryImplIN12_GLOBAL__N_137PCG642018EngineTest_VerifyGolden_TestEEE, ptr @_ZN7testing8internal15TestFactoryImplIN12_GLOBAL__N_137PCG642018EngineTest_VerifyGolden_TestEED2Ev, ptr @_ZN7testing8internal15TestFactoryImplIN12_GLOBAL__N_137PCG642018EngineTest_VerifyGolden_TestEED0Ev, ptr @_ZN7testing8internal15TestFactoryImplIN12_GLOBAL__N_137PCG642018EngineTest_VerifyGolden_TestEE10CreateTestEv] }, align 8
@_ZTVN10__cxxabiv120__si_class_type_infoE = external global [0 x ptr]
@_ZTSN7testing8internal15TestFactoryImplIN12_GLOBAL__N_137PCG642018EngineTest_VerifyGolden_TestEEE = internal constant [94 x i8] c"N7testing8internal15TestFactoryImplIN12_GLOBAL__N_137PCG642018EngineTest_VerifyGolden_TestEEE\00", align 1
@_ZTVN10__cxxabiv117__class_type_infoE = external global [0 x ptr]
@_ZTSN7testing8internal15TestFactoryBaseE = linkonce_odr dso_local constant [37 x i8] c"N7testing8internal15TestFactoryBaseE\00", comdat, align 1
@_ZTIN7testing8internal15TestFactoryBaseE = linkonce_odr dso_local constant { ptr, ptr } { ptr getelementptr inbounds (ptr, ptr @_ZTVN10__cxxabiv117__class_type_infoE, i64 2), ptr @_ZTSN7testing8internal15TestFactoryBaseE }, comdat, align 8
@_ZTIN7testing8internal15TestFactoryImplIN12_GLOBAL__N_137PCG642018EngineTest_VerifyGolden_TestEEE = internal constant { ptr, ptr, ptr } { ptr getelementptr inbounds (ptr, ptr @_ZTVN10__cxxabiv120__si_class_type_infoE, i64 2), ptr @_ZTSN7testing8internal15TestFactoryImplIN12_GLOBAL__N_137PCG642018EngineTest_VerifyGolden_TestEEE, ptr @_ZTIN7testing8internal15TestFactoryBaseE }, align 8
@_ZTVN12_GLOBAL__N_137PCG642018EngineTest_VerifyGolden_TestE = internal unnamed_addr constant { [8 x ptr] } { [8 x ptr] [ptr null, ptr @_ZTIN12_GLOBAL__N_137PCG642018EngineTest_VerifyGolden_TestE, ptr @_ZN12_GLOBAL__N_137PCG642018EngineTest_VerifyGolden_TestD2Ev, ptr @_ZN12_GLOBAL__N_137PCG642018EngineTest_VerifyGolden_TestD0Ev, ptr @_ZN7testing4Test5SetUpEv, ptr @_ZN7testing4Test8TearDownEv, ptr @_ZN12_GLOBAL__N_137PCG642018EngineTest_VerifyGolden_Test8TestBodyEv, ptr @_ZN7testing4Test5SetupEv] }, align 8
@_ZTSN12_GLOBAL__N_137PCG642018EngineTest_VerifyGolden_TestE = internal constant [56 x i8] c"N12_GLOBAL__N_137PCG642018EngineTest_VerifyGolden_TestE\00", align 1
@_ZTIN7testing4TestE = external constant ptr
@_ZTIN12_GLOBAL__N_137PCG642018EngineTest_VerifyGolden_TestE = internal constant { ptr, ptr, ptr } { ptr getelementptr inbounds (ptr, ptr @_ZTVN10__cxxabiv120__si_class_type_infoE, i64 2), ptr @_ZTSN12_GLOBAL__N_137PCG642018EngineTest_VerifyGolden_TestE, ptr @_ZTIN7testing4TestE }, align 8
@__const._ZN12_GLOBAL__N_137PCG642018EngineTest_VerifyGolden_Test8TestBodyEv.kGolden = private unnamed_addr constant [127 x i64] [i64 74029666500212977, i64 8088122161323000979, i64 -1924914382715075334, i64 -7632739411327113122, i64 9052198920789078554, i64 7381380909356947872, i64 -7485149332228263313, i64 -5944627205623820838, i64 -2160948814193123287, i64 6715870808026712034, i64 528819992478005418, i64 2284534088986354339, i64 -8277543313762785726, i64 3813019469742317492, i64 -7853983889947293002, i64 7367238674766648970, i64 8217673022687244206, i64 3185531743396549562, i64 4800618912728694941, i64 -5445527160353164476, i64 1176407869339060974, i64 4150604921837518705, i64 -3300865037478801463, i64 994800405537611429, i64 -3517501760192341585, i64 3154703689421785657, i64 -4788749511954947684, i64 6249946986953333237, i64 1660217323733090078, i64 -4441200888786690131, i64 -1861742700235527461, i64 1666516127252300525, i64 2520622342062774609, i64 9082651322321000509, i64 -2739126216355576308, i64 -6115183527948141871, i64 6406546869475516057, i64 -4349023476550129465, i64 105262242311684541, i64 8294782069855283264, i64 4633297685661641163, i64 6612006991566468995, i64 8580220009698662865, i64 8532728303557126422, i64 -8001681597625236664, i64 -1116635155101181427, i64 1533223081929501252, i64 9032221229430595433, i64 85744951902259612, i64 5072914322092137863, i64 1705557957893756992, i64 -7660209745731649730, i64 171055579667516423, i64 -5522006660369569441, i64 -1706565194162746247, i64 1381545967461782227, i64 3884297591412308228, i64 -6963871933048276103, i64 4532672523855618611, i64 5402165089034676429, i64 911196135802991530, i64 5721628401196675474, i64 -8601142270490740941, i64 8121722726619544262, i64 6418390600164794941, i64 -7648062390299463135, i64 -7899171217207422885, i64 -7181037101771856303, i64 -8814902646195111075, i64 -4193582843265142446, i64 3487965410964113806, i64 1348106002602736901, i64 -4886869159902432004, i64 -7890095505808474143, i64 -7457520539311508418, i64 -7377709171775774925, i64 -6919734642903313854, i64 -463444231742505324, i64 -1083800286071219115, i64 4355076706608268429, i64 7398716852201294433, i64 3041100610853721552, i64 8728113967719027725, i64 -1549472192128056272, i64 -6887339072091064773, i64 -3810660019200557540, i64 5716513312488662692, i64 -7617920244327345537, i64 3512684089851768805, i64 -6371158255237626672, i64 -4962187290485103465, i64 -2902156340097891979, i64 1008545732055793944, i64 -6687373193428845956, i64 5249745689662851170, i64 3624394618964842085, i64 -1088686873637560380, i64 8993023195683161014, i64 -6868053102213865920, i64 -1268367558244091344, i64 -5093448845224843142, i64 -3917319776418547040, i64 4177824568197517782, i64 -4698343321435489976, i64 7778988443811410815, i64 -9194696743324892233, i64 -6992375062401542247, i64 -6023233579709637355, i64 -3247790943225594984, i64 -5938635904531899294, i64 -7250600371370439101, i64 849144443972678235, i64 5366042653427013937, i64 5044836495604047913, i64 -5533336512188806456, i64 168581266862557880, i64 892257883531561177, i64 -1886985109840564344, i64 -7361606255491777145, i64 -8266206715006991579, i64 1183416690486707853, i64 8304998909831325816, i64 -9184358784585808047, i64 3718330567954916309, i64 6057578968889374870, i64 -2862561170752304637, i64 2268827376874419298], align 16
@.str.26 = private unnamed_addr constant [5 x i8] c"elem\00", align 1
@.str.27 = private unnamed_addr constant [9 x i8] c"engine()\00", align 1
@_ZTVN7testing8internal15TestFactoryImplIN12_GLOBAL__N_143PCG642018EngineTest_VerifyGoldenSeeded_TestEEE = internal unnamed_addr constant { [5 x ptr] } { [5 x ptr] [ptr null, ptr @_ZTIN7testing8internal15TestFactoryImplIN12_GLOBAL__N_143PCG642018EngineTest_VerifyGoldenSeeded_TestEEE, ptr @_ZN7testing8internal15TestFactoryImplIN12_GLOBAL__N_143PCG642018EngineTest_VerifyGoldenSeeded_TestEED2Ev, ptr @_ZN7testing8internal15TestFactoryImplIN12_GLOBAL__N_143PCG642018EngineTest_VerifyGoldenSeeded_TestEED0Ev, ptr @_ZN7testing8internal15TestFactoryImplIN12_GLOBAL__N_143PCG642018EngineTest_VerifyGoldenSeeded_TestEE10CreateTestEv] }, align 8
@_ZTSN7testing8internal15TestFactoryImplIN12_GLOBAL__N_143PCG642018EngineTest_VerifyGoldenSeeded_TestEEE = internal constant [100 x i8] c"N7testing8internal15TestFactoryImplIN12_GLOBAL__N_143PCG642018EngineTest_VerifyGoldenSeeded_TestEEE\00", align 1
@_ZTIN7testing8internal15TestFactoryImplIN12_GLOBAL__N_143PCG642018EngineTest_VerifyGoldenSeeded_TestEEE = internal constant { ptr, ptr, ptr } { ptr getelementptr inbounds (ptr, ptr @_ZTVN10__cxxabiv120__si_class_type_infoE, i64 2), ptr @_ZTSN7testing8internal15TestFactoryImplIN12_GLOBAL__N_143PCG642018EngineTest_VerifyGoldenSeeded_TestEEE, ptr @_ZTIN7testing8internal15TestFactoryBaseE }, align 8
@_ZTVN12_GLOBAL__N_143PCG642018EngineTest_VerifyGoldenSeeded_TestE = internal unnamed_addr constant { [8 x ptr] } { [8 x ptr] [ptr null, ptr @_ZTIN12_GLOBAL__N_143PCG642018EngineTest_VerifyGoldenSeeded_TestE, ptr @_ZN12_GLOBAL__N_143PCG642018EngineTest_VerifyGoldenSeeded_TestD2Ev, ptr @_ZN12_GLOBAL__N_143PCG642018EngineTest_VerifyGoldenSeeded_TestD0Ev, ptr @_ZN7testing4Test5SetUpEv, ptr @_ZN7testing4Test8TearDownEv, ptr @_ZN12_GLOBAL__N_143PCG642018EngineTest_VerifyGoldenSeeded_Test8TestBodyEv, ptr @_ZN7testing4Test5SetupEv] }, align 8
@_ZTSN12_GLOBAL__N_143PCG642018EngineTest_VerifyGoldenSeeded_TestE = internal constant [62 x i8] c"N12_GLOBAL__N_143PCG642018EngineTest_VerifyGoldenSeeded_TestE\00", align 1
@_ZTIN12_GLOBAL__N_143PCG642018EngineTest_VerifyGoldenSeeded_TestE = internal constant { ptr, ptr, ptr } { ptr getelementptr inbounds (ptr, ptr @_ZTVN10__cxxabiv120__si_class_type_infoE, i64 2), ptr @_ZTSN12_GLOBAL__N_143PCG642018EngineTest_VerifyGoldenSeeded_TestE, ptr @_ZTIN7testing4TestE }, align 8
@__const._ZN12_GLOBAL__N_143PCG642018EngineTest_VerifyGoldenSeeded_Test8TestBodyEv.kGolden = private unnamed_addr constant [127 x i64] [i64 -5748412876874935826, i64 -4816003085892458118, i64 -8142271919402300158, i64 1739447793153300342, i64 3446848185349962, i64 -395490863704973412, i64 -4110798889935379372, i64 4704848850425845442, i64 5117114729607640081, i64 -7361609255193414060, i64 -4969744311740204476, i64 8785122796939272497, i64 -690507091519182047, i64 1372474004680078423, i64 6675101652601322625, i64 -74381153663811988, i64 2096231744718163391, i64 -2928612480094848887, i64 -4369468953397727067, i64 5105513560145543934, i64 5053769261428955874, i64 -4738704457125126245, i64 -1746416671530631215, i64 1674597968287245763, i64 1060180566274872610, i64 -5692705755133637261, i64 -8589600053445810825, i64 -5329602112444376809, i64 -3200901712446226303, i64 2941203462334704186, i64 4365793001378288202, i64 -2654662720513068291, i64 738384572328988964, i64 8847574405593395410, i64 8498356551433918810, i64 -5849882587859484067, i64 -5104202250539271460, i64 -2718520474560902586, i64 8418242224041575420, i64 -5294540463217653302, i64 5531275756439875003, i64 -873235447490213508, i64 6374349872335214237, i64 -3378765844173714080, i64 3176679682451037927, i64 -8538720279675443828, i64 2554882727851726219, i64 -7312912333207686515, i64 1841835398944231898, i64 -7588577014329897389, i64 -2923807771169362369, i64 2567083508858858113, i64 4241043309117745299, i64 -5534574115671035073, i64 342575047135351845, i64 2269667909628843377, i64 -5919135552679485753, i64 6671524746153205570, i64 -8919137815633484726, i64 5272556159764620158, i64 -7175358038264461808, i64 -4619410681529062165, i64 -5341066166065534464, i64 -7122426542373828201, i64 2958194910683331755, i64 -1241376356708473616, i64 8245670116400370958, i64 1904450438288000556, i64 4008534721413016501, i64 4385626417399969221, i64 3196811095585170030, i64 -6394287829514563388, i64 63311567433599541, i64 4412427130170702859, i64 2121412165650661137, i64 -307501167709779665, i64 7033822117569847076, i64 7615419981714810308, i64 -4691474968746705011, i64 1204614768377757248, i64 -6303378325905711350, i64 6483065006487663952, i64 2659381999065012493, i64 -8788369257679726447, i64 -3877166529812097267, i64 7373137980847358260, i64 6777927124199240895, i64 -3759353915541565467, i64 -195347355687531241, i64 -1243182603995197338, i64 5093419966821369035, i64 -3169825474164992271, i64 -3101827422481538813, i64 8858739790214345586, i64 -7436100453423860158, i64 -12336992606658513, i64 2091287369367623488, i64 -1137446459875844028, i64 8680829399838149752, i64 6216187037422400048, i64 763327658263480395, i64 -7579081864416825163, i64 -3984615100990115788, i64 653962826661197565, i64 -6485673629418856564, i64 3706950931684423349, i64 9074386218501261717, i64 8054358236010662337, i64 8434833940984509450, i64 -9119078875862038113, i64 3776256117485267859, i64 6841153677035332623, i64 4840727889718659466, i64 7244296664761794754, i64 2521412331882480780, i64 1563461145072585821, i64 -6349455079687156786, i64 -3999511296486748002, i64 2451664710069831145, i64 -3757489742044662394, i64 -8268322521249314940, i64 1919713563497311712, i64 -6035091896415449636, i64 1654020127250517179, i64 7447568134668534971, i64 7903944545208361773, i64 6282306675741325510], align 16
@.str.28 = private unnamed_addr constant [26 x i8] c"vector::_M_realloc_insert\00", align 1
@_ZTVN7testing8internal15TestFactoryImplIN12_GLOBAL__N_159PCG642018EngineTest_VerifyGoldenFromDeserializedEngine_TestEEE = internal unnamed_addr constant { [5 x ptr] } { [5 x ptr] [ptr null, ptr @_ZTIN7testing8internal15TestFactoryImplIN12_GLOBAL__N_159PCG642018EngineTest_VerifyGoldenFromDeserializedEngine_TestEEE, ptr @_ZN7testing8internal15TestFactoryImplIN12_GLOBAL__N_159PCG642018EngineTest_VerifyGoldenFromDeserializedEngine_TestEED2Ev, ptr @_ZN7testing8internal15TestFactoryImplIN12_GLOBAL__N_159PCG642018EngineTest_VerifyGoldenFromDeserializedEngine_TestEED0Ev, ptr @_ZN7testing8internal15TestFactoryImplIN12_GLOBAL__N_159PCG642018EngineTest_VerifyGoldenFromDeserializedEngine_TestEE10CreateTestEv] }, align 8
@_ZTSN7testing8internal15TestFactoryImplIN12_GLOBAL__N_159PCG642018EngineTest_VerifyGoldenFromDeserializedEngine_TestEEE = internal constant [116 x i8] c"N7testing8internal15TestFactoryImplIN12_GLOBAL__N_159PCG642018EngineTest_VerifyGoldenFromDeserializedEngine_TestEEE\00", align 1
@_ZTIN7testing8internal15TestFactoryImplIN12_GLOBAL__N_159PCG642018EngineTest_VerifyGoldenFromDeserializedEngine_TestEEE = internal constant { ptr, ptr, ptr } { ptr getelementptr inbounds (ptr, ptr @_ZTVN10__cxxabiv120__si_class_type_infoE, i64 2), ptr @_ZTSN7testing8internal15TestFactoryImplIN12_GLOBAL__N_159PCG642018EngineTest_VerifyGoldenFromDeserializedEngine_TestEEE, ptr @_ZTIN7testing8internal15TestFactoryBaseE }, align 8
@_ZTVN12_GLOBAL__N_159PCG642018EngineTest_VerifyGoldenFromDeserializedEngine_TestE = internal unnamed_addr constant { [8 x ptr] } { [8 x ptr] [ptr null, ptr @_ZTIN12_GLOBAL__N_159PCG642018EngineTest_VerifyGoldenFromDeserializedEngine_TestE, ptr @_ZN12_GLOBAL__N_159PCG642018EngineTest_VerifyGoldenFromDeserializedEngine_TestD2Ev, ptr @_ZN12_GLOBAL__N_159PCG642018EngineTest_VerifyGoldenFromDeserializedEngine_TestD0Ev, ptr @_ZN7testing4Test5SetUpEv, ptr @_ZN7testing4Test8TearDownEv, ptr @_ZN12_GLOBAL__N_159PCG642018EngineTest_VerifyGoldenFromDeserializedEngine_Test8TestBodyEv, ptr @_ZN7testing4Test5SetupEv] }, align 8
@_ZTSN12_GLOBAL__N_159PCG642018EngineTest_VerifyGoldenFromDeserializedEngine_TestE = internal constant [78 x i8] c"N12_GLOBAL__N_159PCG642018EngineTest_VerifyGoldenFromDeserializedEngine_TestE\00", align 1
@_ZTIN12_GLOBAL__N_159PCG642018EngineTest_VerifyGoldenFromDeserializedEngine_TestE = internal constant { ptr, ptr, ptr } { ptr getelementptr inbounds (ptr, ptr @_ZTVN10__cxxabiv120__si_class_type_infoE, i64 2), ptr @_ZTSN12_GLOBAL__N_159PCG642018EngineTest_VerifyGoldenFromDeserializedEngine_TestE, ptr @_ZTIN7testing4TestE }, align 8
@__const._ZN12_GLOBAL__N_159PCG642018EngineTest_VerifyGoldenFromDeserializedEngine_Test8TestBodyEv.kGolden = private unnamed_addr constant [127 x i64] [i64 -2503338079342739990, i64 1947551084169151664, i64 7726224396904246850, i64 -6816494142356840125, i64 -20587429103014249, i64 -5566448910884671311, i64 -8089782647032294111, i64 -254283685359485893, i64 4797795888946738005, i64 -4724129358157720957, i64 6629088994636712811, i64 -1723953833604525164, i64 -6317437226001790963, i64 9102764767711860526, i64 -2233237993259413268, i64 7990250397179344493, i64 -6307170800702375465, i64 -79337861350562384, i64 6911028904147789747, i64 139906140756851869, i64 -4754317731518123998, i64 1362144278187580362, i64 -5688743650581426636, i64 -1725600024336447371, i64 3133413417514685678, i64 3070558035359316838, i64 6700321724576691185, i64 2037655511951569141, i64 -8815525726285768864, i64 7656745875403481991, i64 -8241314169119755428, i64 -1128802314655549619, i64 5219255699518695840, i64 5527378785089983197, i64 -570917091157798645, i64 2399339320307047822, i64 8382063361895642615, i64 -6417587156201867490, i64 7256797358984365220, i64 -6712905862795118852, i64 5046863931285681579, i64 8574044298425468928, i64 8572030247816859037, i64 2285397253995309210, i64 -7062447270938758529, i64 -7335904976657281378, i64 -7994516722209892320, i64 -2977168651136570352, i64 -2200223576506301915, i64 -2294586781777644868, i64 -4467910294088595272, i64 -5348222014419255514, i64 8196440332451193469, i64 2734968847455866845, i64 -8047289404409471914, i64 6641532031280766109, i64 -6976391412891450516, i64 -185521783556016150, i64 -3155385065286380172, i64 7745819496616950150, i64 7466261491290466462, i64 5289543243902241246, i64 4856797357798520010, i64 6053522627797810157, i64 -6223900445971109677, i64 -3970365191507381070, i64 4661379833149738176, i64 2111165742031682496, i64 1853239574142168621, i64 8055442929951071193, i64 -6256431734591044722, i64 -8379570424051670376, i64 8995502552410180852, i64 -8640608399882830676, i64 -3453182882050298394, i64 -3538678580390546493, i64 6736284066566267016, i64 -3217951280140829401, i64 4068399021693913459, i64 -298721908491953066, i64 -16609413478338109, i64 2536742713606688748, i64 3899010474891403770, i64 -1232437056820124713, i64 -8394932181047841864, i64 -5576300621374640218, i64 2496014421727077483, i64 -7869356552562913171, i64 4652834020580184539, i64 -7087400145338269654, i64 -9142924155729336869, i64 -697412656993250391, i64 5970057320706521501, i64 5715141073572135431, i64 -692061998132929341, i64 53366108429985761, i64 -1163611736545626637, i64 5102491468099430439, i64 -4455413077604502606, i64 -3340966652892719574, i64 -6174599975947772673, i64 -131791502580779046, i64 -1597316341172026438, i64 -1925895332005354275, i64 -419453251077718104, i64 -2730861366437926984, i64 1858173686731521412, i64 3237824914814110856, i64 6000530612052267314, i64 1687464097724315982, i64 -1553736928090908789, i64 6322112716464381151, i64 -2858736786353818172, i64 8499663839067719541, i64 2349813006925493502, i64 -6223768220355049854, i64 6772908866746630682, i64 -4413426768262371631, i64 7919589351591022954, i64 7669632115327902102, i64 -2739506310750624921, i64 1365471276804401407, i64 7878757240840540213, i64 1409399873264285866, i64 6412115091812752095, i64 -3654506946209553354, i64 2873241904545443719], align 16
@.str.29 = private unnamed_addr constant [121 x i8] c"2549297995355413924 4865540595714422341 6364136223846793005 1442695040888963407 18088519957565336995 4845369368158826708\00", align 1
@_ZTVN7testing8internal15TestFactoryImplIN12_GLOBAL__N_137PCG322018EngineTest_VerifyGolden_TestEEE = internal unnamed_addr constant { [5 x ptr] } { [5 x ptr] [ptr null, ptr @_ZTIN7testing8internal15TestFactoryImplIN12_GLOBAL__N_137PCG322018EngineTest_VerifyGolden_TestEEE, ptr @_ZN7testing8internal15TestFactoryImplIN12_GLOBAL__N_137PCG322018EngineTest_VerifyGolden_TestEED2Ev, ptr @_ZN7testing8internal15TestFactoryImplIN12_GLOBAL__N_137PCG322018EngineTest_VerifyGolden_TestEED0Ev, ptr @_ZN7testing8internal15TestFactoryImplIN12_GLOBAL__N_137PCG322018EngineTest_VerifyGolden_TestEE10CreateTestEv] }, align 8
@_ZTSN7testing8internal15TestFactoryImplIN12_GLOBAL__N_137PCG322018EngineTest_VerifyGolden_TestEEE = internal constant [94 x i8] c"N7testing8internal15TestFactoryImplIN12_GLOBAL__N_137PCG322018EngineTest_VerifyGolden_TestEEE\00", align 1
@_ZTIN7testing8internal15TestFactoryImplIN12_GLOBAL__N_137PCG322018EngineTest_VerifyGolden_TestEEE = internal constant { ptr, ptr, ptr } { ptr getelementptr inbounds (ptr, ptr @_ZTVN10__cxxabiv120__si_class_type_infoE, i64 2), ptr @_ZTSN7testing8internal15TestFactoryImplIN12_GLOBAL__N_137PCG322018EngineTest_VerifyGolden_TestEEE, ptr @_ZTIN7testing8internal15TestFactoryBaseE }, align 8
@_ZTVN12_GLOBAL__N_137PCG322018EngineTest_VerifyGolden_TestE = internal unnamed_addr constant { [8 x ptr] } { [8 x ptr] [ptr null, ptr @_ZTIN12_GLOBAL__N_137PCG322018EngineTest_VerifyGolden_TestE, ptr @_ZN12_GLOBAL__N_137PCG322018EngineTest_VerifyGolden_TestD2Ev, ptr @_ZN12_GLOBAL__N_137PCG322018EngineTest_VerifyGolden_TestD0Ev, ptr @_ZN7testing4Test5SetUpEv, ptr @_ZN7testing4Test8TearDownEv, ptr @_ZN12_GLOBAL__N_137PCG322018EngineTest_VerifyGolden_Test8TestBodyEv, ptr @_ZN7testing4Test5SetupEv] }, align 8
@_ZTSN12_GLOBAL__N_137PCG322018EngineTest_VerifyGolden_TestE = internal constant [56 x i8] c"N12_GLOBAL__N_137PCG322018EngineTest_VerifyGolden_TestE\00", align 1
@_ZTIN12_GLOBAL__N_137PCG322018EngineTest_VerifyGolden_TestE = internal constant { ptr, ptr, ptr } { ptr getelementptr inbounds (ptr, ptr @_ZTVN10__cxxabiv120__si_class_type_infoE, i64 2), ptr @_ZTSN12_GLOBAL__N_137PCG322018EngineTest_VerifyGolden_TestE, ptr @_ZTIN7testing4TestE }, align 8
@__const._ZN12_GLOBAL__N_137PCG322018EngineTest_VerifyGolden_Test8TestBodyEv.kGolden = private unnamed_addr constant [127 x i32] [i32 2055130073, i32 -1979880442, i32 -1369150808, i32 -851642043, i32 1644475139, i32 428639621, i32 1241310737, i32 -773248646, i32 338531392, i32 -294259349, i32 1195020567, i32 -475768573, i32 -1125644383, i32 -447848627, i32 1232956497, i32 1635946854, i32 -1488959669, i32 51974824, i32 -1646010630, i32 -765010959, i32 255377083, i32 -331591835, i32 130352509, i32 -1144126520, i32 -47528024, i32 -3192973, i32 1527820283, i32 -303970238, i32 -500497993, i32 -636273524, i32 -1349930764, i32 634501308, i32 -1620945790, i32 2080204930, i32 773984448, i32 747616678, i32 1120615299, i32 1087245739, i32 1682584848, i32 908267250, i32 -489984701, i32 269660995, i32 1953262751, i32 913394936, i32 -316714970, i32 -1950615490, i32 -377024268, i32 -1976894922, i32 151212873, i32 1841407111, i32 1747673931, i32 -1056540337, i32 2111278059, i32 1653351979, i32 -2060471758, i32 -1319916468, i32 1326882075, i32 -1499809932, i32 1272231666, i32 -600498733, i32 -1811989364, i32 -1559750229, i32 -16288372, i32 1521564770, i32 -781353035, i32 -996864006, i32 -754340279, i32 -1184400761, i32 1147462423, i32 -1864612623, i32 -963329580, i32 492704104, i32 -1376552403, i32 -633825011, i32 516209971, i32 919217614, i32 -99760278, i32 -1769300669, i32 1766894649, i32 -583895364, i32 114665246, i32 527378477, i32 1549954146, i32 -572261327, i32 354522318, i32 -1017196212, i32 -1309203890, i32 1207397304, i32 -1286611704, i32 1880176990, i32 372058697, i32 219934879, i32 -1809274542, i32 63292228, i32 -749578730, i32 2014773235, i32 1808709800, i32 -2092588927, i32 912531709, i32 405454554, i32 1895311173, i32 -1357521192, i32 -940233566, i32 -1450329659, i32 -1851942470, i32 -1674089444, i32 -309513022, i32 1902832117, i32 -284807259, i32 -298095530, i32 1379030616, i32 1638902211, i32 -38862096, i32 -1776487509, i32 -1624697499, i32 1337929797, i32 93374617, i32 -560983163, i32 1157652475, i32 1352511842, i32 640657729, i32 1279399507, i32 1259848222, i32 -368241360, i32 -562022331, i32 1639961877, i32 1132798959], align 16
@_ZTVN7testing8internal15TestFactoryImplIN12_GLOBAL__N_143PCG322018EngineTest_VerifyGoldenSeeded_TestEEE = internal unnamed_addr constant { [5 x ptr] } { [5 x ptr] [ptr null, ptr @_ZTIN7testing8internal15TestFactoryImplIN12_GLOBAL__N_143PCG322018EngineTest_VerifyGoldenSeeded_TestEEE, ptr @_ZN7testing8internal15TestFactoryImplIN12_GLOBAL__N_143PCG322018EngineTest_VerifyGoldenSeeded_TestEED2Ev, ptr @_ZN7testing8internal15TestFactoryImplIN12_GLOBAL__N_143PCG322018EngineTest_VerifyGoldenSeeded_TestEED0Ev, ptr @_ZN7testing8internal15TestFactoryImplIN12_GLOBAL__N_143PCG322018EngineTest_VerifyGoldenSeeded_TestEE10CreateTestEv] }, align 8
@_ZTSN7testing8internal15TestFactoryImplIN12_GLOBAL__N_143PCG322018EngineTest_VerifyGoldenSeeded_TestEEE = internal constant [100 x i8] c"N7testing8internal15TestFactoryImplIN12_GLOBAL__N_143PCG322018EngineTest_VerifyGoldenSeeded_TestEEE\00", align 1
@_ZTIN7testing8internal15TestFactoryImplIN12_GLOBAL__N_143PCG322018EngineTest_VerifyGoldenSeeded_TestEEE = internal constant { ptr, ptr, ptr } { ptr getelementptr inbounds (ptr, ptr @_ZTVN10__cxxabiv120__si_class_type_infoE, i64 2), ptr @_ZTSN7testing8internal15TestFactoryImplIN12_GLOBAL__N_143PCG322018EngineTest_VerifyGoldenSeeded_TestEEE, ptr @_ZTIN7testing8internal15TestFactoryBaseE }, align 8
@_ZTVN12_GLOBAL__N_143PCG322018EngineTest_VerifyGoldenSeeded_TestE = internal unnamed_addr constant { [8 x ptr] } { [8 x ptr] [ptr null, ptr @_ZTIN12_GLOBAL__N_143PCG322018EngineTest_VerifyGoldenSeeded_TestE, ptr @_ZN12_GLOBAL__N_143PCG322018EngineTest_VerifyGoldenSeeded_TestD2Ev, ptr @_ZN12_GLOBAL__N_143PCG322018EngineTest_VerifyGoldenSeeded_TestD0Ev, ptr @_ZN7testing4Test5SetUpEv, ptr @_ZN7testing4Test8TearDownEv, ptr @_ZN12_GLOBAL__N_143PCG322018EngineTest_VerifyGoldenSeeded_Test8TestBodyEv, ptr @_ZN7testing4Test5SetupEv] }, align 8
@_ZTSN12_GLOBAL__N_143PCG322018EngineTest_VerifyGoldenSeeded_TestE = internal constant [62 x i8] c"N12_GLOBAL__N_143PCG322018EngineTest_VerifyGoldenSeeded_TestE\00", align 1
@_ZTIN12_GLOBAL__N_143PCG322018EngineTest_VerifyGoldenSeeded_TestE = internal constant { ptr, ptr, ptr } { ptr getelementptr inbounds (ptr, ptr @_ZTVN10__cxxabiv120__si_class_type_infoE, i64 2), ptr @_ZTSN12_GLOBAL__N_143PCG322018EngineTest_VerifyGoldenSeeded_TestE, ptr @_ZTIN7testing4TestE }, align 8
@__const._ZN12_GLOBAL__N_143PCG322018EngineTest_VerifyGoldenSeeded_Test8TestBodyEv.kGolden = private unnamed_addr constant [127 x i32] [i32 1622517324, i32 -1752890631, i32 -2136514720, i32 606015832, i32 -1530061381, i32 -416792553, i32 996642213, i32 1378086041, i32 -457320999, i32 1914244717, i32 -421068087, i32 -8337560, i32 -820875565, i32 532488363, i32 1620575369, i32 -1133330551, i32 1081788096, i32 12532817, i32 -116885353, i32 388910774, i32 -370871229, i32 442538175, i32 -1085998910, i32 -578510619, i32 -643488924, i32 -1058871418, i32 102425274, i32 -1616070429, i32 1627996973, i32 -723476461, i32 -1114719834, i32 2122761142, i32 1654394472, i32 87258160, i32 -1265255948, i32 298636893, i32 -1250370779, i32 1727079533, i32 1861356159, i32 1581422610, i32 293019952, i32 -1186679358, i32 23216424, i32 -1573365065, i32 -740225739, i32 -1101590845, i32 -917412497, i32 -1098300256, i32 2078543970, i32 1460271385, i32 -683278630, i32 -1737442898, i32 -1270120088, i32 434595899, i32 -556269185, i32 -958081724, i32 -1850850779, i32 -697016390, i32 -1181551996, i32 1706109747, i32 -1445593676, i32 -251277798, i32 902437486, i32 804720080, i32 -667722167, i32 -76423694, i32 -890586231, i32 1550802820, i32 -1702815107, i32 -1125336111, i32 258349984, i32 -1697039459, i32 -304988661, i32 1107701576, i32 -745678876, i32 1825979548, i32 1678481582, i32 1275024979, i32 308437873, i32 321282071, i32 -408512296, i32 969360999, i32 -386010397, i32 1384135672, i32 720800091, i32 -1858905221, i32 1771981153, i32 10751999, i32 624947894, i32 1248654962, i32 -1786451873, i32 -224067572, i32 1297656744, i32 -1202635158, i32 1988078949, i32 -1909297250, i32 405738913, i32 373140306, i32 -543570048, i32 74613409, i32 -296775459, i32 -721185618, i32 1822414320, i32 -1335193196, i32 947796032, i32 78203003, i32 -159865662, i32 -794327024, i32 -721237634, i32 -693522134, i32 1254933980, i32 1097782590, i32 1346442550, i32 -289891292, i32 -2126874366, i32 55491750, i32 -5951876, i32 2127379726, i32 -97017646, i32 -1308892479, i32 -1209022767, i32 -274412306, i32 -151518172, i32 579072985, i32 1752375940, i32 -1795967544, i32 -1143025991], align 16
@_ZTVN7testing8internal15TestFactoryImplIN12_GLOBAL__N_159PCG322018EngineTest_VerifyGoldenFromDeserializedEngine_TestEEE = internal unnamed_addr constant { [5 x ptr] } { [5 x ptr] [ptr null, ptr @_ZTIN7testing8internal15TestFactoryImplIN12_GLOBAL__N_159PCG322018EngineTest_VerifyGoldenFromDeserializedEngine_TestEEE, ptr @_ZN7testing8internal15TestFactoryImplIN12_GLOBAL__N_159PCG322018EngineTest_VerifyGoldenFromDeserializedEngine_TestEED2Ev, ptr @_ZN7testing8internal15TestFactoryImplIN12_GLOBAL__N_159PCG322018EngineTest_VerifyGoldenFromDeserializedEngine_TestEED0Ev, ptr @_ZN7testing8internal15TestFactoryImplIN12_GLOBAL__N_159PCG322018EngineTest_VerifyGoldenFromDeserializedEngine_TestEE10CreateTestEv] }, align 8
@_ZTSN7testing8internal15TestFactoryImplIN12_GLOBAL__N_159PCG322018EngineTest_VerifyGoldenFromDeserializedEngine_TestEEE = internal constant [116 x i8] c"N7testing8internal15TestFactoryImplIN12_GLOBAL__N_159PCG322018EngineTest_VerifyGoldenFromDeserializedEngine_TestEEE\00", align 1
@_ZTIN7testing8internal15TestFactoryImplIN12_GLOBAL__N_159PCG322018EngineTest_VerifyGoldenFromDeserializedEngine_TestEEE = internal constant { ptr, ptr, ptr } { ptr getelementptr inbounds (ptr, ptr @_ZTVN10__cxxabiv120__si_class_type_infoE, i64 2), ptr @_ZTSN7testing8internal15TestFactoryImplIN12_GLOBAL__N_159PCG322018EngineTest_VerifyGoldenFromDeserializedEngine_TestEEE, ptr @_ZTIN7testing8internal15TestFactoryBaseE }, align 8
@_ZTVN12_GLOBAL__N_159PCG322018EngineTest_VerifyGoldenFromDeserializedEngine_TestE = internal unnamed_addr constant { [8 x ptr] } { [8 x ptr] [ptr null, ptr @_ZTIN12_GLOBAL__N_159PCG322018EngineTest_VerifyGoldenFromDeserializedEngine_TestE, ptr @_ZN12_GLOBAL__N_159PCG322018EngineTest_VerifyGoldenFromDeserializedEngine_TestD2Ev, ptr @_ZN12_GLOBAL__N_159PCG322018EngineTest_VerifyGoldenFromDeserializedEngine_TestD0Ev, ptr @_ZN7testing4Test5SetUpEv, ptr @_ZN7testing4Test8TearDownEv, ptr @_ZN12_GLOBAL__N_159PCG322018EngineTest_VerifyGoldenFromDeserializedEngine_Test8TestBodyEv, ptr @_ZN7testing4Test5SetupEv] }, align 8
@_ZTSN12_GLOBAL__N_159PCG322018EngineTest_VerifyGoldenFromDeserializedEngine_TestE = internal constant [78 x i8] c"N12_GLOBAL__N_159PCG322018EngineTest_VerifyGoldenFromDeserializedEngine_TestE\00", align 1
@_ZTIN12_GLOBAL__N_159PCG322018EngineTest_VerifyGoldenFromDeserializedEngine_TestE = internal constant { ptr, ptr, ptr } { ptr getelementptr inbounds (ptr, ptr @_ZTVN10__cxxabiv120__si_class_type_infoE, i64 2), ptr @_ZTSN12_GLOBAL__N_159PCG322018EngineTest_VerifyGoldenFromDeserializedEngine_TestE, ptr @_ZTIN7testing4TestE }, align 8
@__const._ZN12_GLOBAL__N_159PCG322018EngineTest_VerifyGoldenFromDeserializedEngine_Test8TestBodyEv.kGolden = private unnamed_addr constant [127 x i64] [i64 2014277698, i64 3121836565, i64 1135308578, i64 213212998, i64 1152541309, i64 2203424687, i64 3935780513, i64 220904757, i64 1339908124, i64 2890089214, i64 2109204796, i64 3849239727, i64 899041034, i64 2003872173, i64 2609460000, i64 1473983509, i64 3023232596, i64 2687217521, i64 2723588827, i64 2291277767, i64 2740954803, i64 3728656966, i64 1616329127, i64 2828056619, i64 3830953901, i64 861911299, i64 3943069964, i64 3016051702, i64 1631708226, i64 2778309762, i64 3079243724, i64 3323854493, i64 253586126, i64 390464916, i64 2406109281, i64 138265428, i64 3921885179, i64 3486582263, i64 2456249526, i64 1670194396, i64 3937166602, i64 1741867932, i64 3624366908, i64 543147310, i64 4114193966, i64 1816583628, i64 3053709429, i64 3457235493, i64 1015891987, i64 4216868280, i64 4140979711, i64 3934295375, i64 1122549381, i64 3003051634, i64 1656589590, i64 467968322, i64 2547818916, i64 3715003187, i64 2999624206, i64 2703955336, i64 3946469914, i64 1873132169, i64 125741361, i64 2379945747, i64 231747705, i64 741058917, i64 2810162199, i64 3358742338, i64 2344129471, i64 3258013505, i64 3939430034, i64 2178756322, i64 3844162070, i64 463179698, i64 23358723, i64 620416037, i64 3636519099, i64 2738872582, i64 4082100598, i64 3014964302, i64 1700892653, i64 53240210, i64 2849862350, i64 4086401147, i64 4095502958, i64 96779629, i64 939140622, i64 1185961561, i64 3052811402, i64 1657957769, i64 972440877, i64 2977640610, i64 3185059651, i64 955035195, i64 4270911650, i64 3408732781, i64 3481930524, i64 250428749, i64 2717293820, i64 3618388901, i64 3466435179, i64 303950668, i64 1242366963, i64 3246530257, i64 1505905068, i64 3232478324, i64 672438661, i64 4254761658, i64 1499513778, i64 4025486522, i64 1618192919, i64 635177241, i64 2574672494, i64 3710700595, i64 971814636, i64 3336658195, i64 4207496445, i64 684708687, i64 4073898797, i64 1371684104, i64 1339764552, i64 2545592327, i64 4072734796, i64 3299770678, i64 1911757972, i64 2358433281, i64 919270861], align 16
@.str.30 = private unnamed_addr constant [60 x i8] c"6364136223846793005 1442695040888963407 6537028157270659894\00", align 1
@.str.31 = private unnamed_addr constant [50 x i8] c"basic_string: construction from null is not valid\00", align 1
@.str.32 = private unnamed_addr constant [2 x i8] c"/\00", align 1
@_ZTSN4absl15random_internal10pcg_engineINS0_13pcg128_paramsILm2549297995355413924ELm4865540595714422341ELm6364136223846793005ELm1442695040888963407EEENS0_17pcg_xsl_rr_128_64EEE = linkonce_odr dso_local constant [173 x i8] c"N4absl15random_internal10pcg_engineINS0_13pcg128_paramsILm2549297995355413924ELm4865540595714422341ELm6364136223846793005ELm1442695040888963407EEENS0_17pcg_xsl_rr_128_64EEE\00", comdat, align 1
@_ZTIN4absl15random_internal10pcg_engineINS0_13pcg128_paramsILm2549297995355413924ELm4865540595714422341ELm6364136223846793005ELm1442695040888963407EEENS0_17pcg_xsl_rr_128_64EEE = linkonce_odr dso_local constant { ptr, ptr } { ptr getelementptr inbounds (ptr, ptr @_ZTVN10__cxxabiv117__class_type_infoE, i64 2), ptr @_ZTSN4absl15random_internal10pcg_engineINS0_13pcg128_paramsILm2549297995355413924ELm4865540595714422341ELm6364136223846793005ELm1442695040888963407EEENS0_17pcg_xsl_rr_128_64EEE }, comdat, align 8
@_ZZN7testing8internal31CanonicalizeForStdLibVersioningENSt7__cxx1112basic_stringIcSt11char_traitsIcESaIcEEEE6prefix = linkonce_odr dso_local constant [8 x i8] c"std::__\00", comdat, align 1
@.str.33 = private unnamed_addr constant [3 x i8] c"::\00", align 1
@_ZZN7testing8internal31CanonicalizeForStdLibVersioningENSt7__cxx1112basic_stringIcSt11char_traitsIcESaIcEEEE9to_search = linkonce_odr dso_local constant [3 x i8] c", \00", comdat, align 1
@_ZZN7testing8internal31CanonicalizeForStdLibVersioningENSt7__cxx1112basic_stringIcSt11char_traitsIcESaIcEEEE11replace_str = linkonce_odr dso_local constant [2 x i8] c",\00", comdat, align 1
@_ZN7testing8internal12TypeIdHelperIN12_GLOBAL__N_113PCGEngineTestIN4absl15random_internal10pcg_engineINS5_13pcg128_paramsILm2549297995355413924ELm4865540595714422341ELm6364136223846793005ELm1442695040888963407EEENS5_17pcg_xsl_rr_128_64EEEEEE6dummy_E = internal global i8 0, align 1
@.str.34 = private unnamed_addr constant [166 x i8] c"generated/home/dtcxzyw/WorkSpace/Projects/compilers/llvm-opt-benchmark/bench/abseil-cpp/bench_build/googletest-src/googletest/include/gtest/internal/gtest-internal.h\00", align 1
@.str.35 = private unnamed_addr constant [51 x i8] c"Condition !test_case_fp || !test_suite_fp failed. \00", align 1
@.str.36 = private unnamed_addr constant [107 x i8] c"Test can not provide both SetUpTestSuite and SetUpTestCase, please make sure there is only one present at \00", align 1
@.str.37 = private unnamed_addr constant [2 x i8] c":\00", align 1
@_ZSt4cerr = external global %"class.std::basic_ostream", align 8
@.str.38 = private unnamed_addr constant [112 x i8] c"Test can not provide both TearDownTestSuite and TearDownTestCase, please make sure there is only one present at\00", align 1
@_ZTVN7testing8internal15TestFactoryImplIN12_GLOBAL__N_147PCGEngineTest_VerifyReseedChangesAllValues_TestIN4absl15random_internal10pcg_engineINS5_13pcg128_paramsILm2549297995355413924ELm4865540595714422341ELm6364136223846793005ELm1442695040888963407EEENS5_17pcg_xsl_rr_128_64EEEEEEE = internal unnamed_addr constant { [5 x ptr] } { [5 x ptr] [ptr null, ptr @_ZTIN7testing8internal15TestFactoryImplIN12_GLOBAL__N_147PCGEngineTest_VerifyReseedChangesAllValues_TestIN4absl15random_internal10pcg_engineINS5_13pcg128_paramsILm2549297995355413924ELm4865540595714422341ELm6364136223846793005ELm1442695040888963407EEENS5_17pcg_xsl_rr_128_64EEEEEEE, ptr @_ZN7testing8internal15TestFactoryImplIN12_GLOBAL__N_147PCGEngineTest_VerifyReseedChangesAllValues_TestIN4absl15random_internal10pcg_engineINS5_13pcg128_paramsILm2549297995355413924ELm4865540595714422341ELm6364136223846793005ELm1442695040888963407EEENS5_17pcg_xsl_rr_128_64EEEEEED2Ev, ptr @_ZN7testing8internal15TestFactoryImplIN12_GLOBAL__N_147PCGEngineTest_VerifyReseedChangesAllValues_TestIN4absl15random_internal10pcg_engineINS5_13pcg128_paramsILm2549297995355413924ELm4865540595714422341ELm6364136223846793005ELm1442695040888963407EEENS5_17pcg_xsl_rr_128_64EEEEEED0Ev, ptr @_ZN7testing8internal15TestFactoryImplIN12_GLOBAL__N_147PCGEngineTest_VerifyReseedChangesAllValues_TestIN4absl15random_internal10pcg_engineINS5_13pcg128_paramsILm2549297995355413924ELm4865540595714422341ELm6364136223846793005ELm1442695040888963407EEENS5_17pcg_xsl_rr_128_64EEEEEE10CreateTestEv] }, align 8
@_ZTSN7testing8internal15TestFactoryImplIN12_GLOBAL__N_147PCGEngineTest_VerifyReseedChangesAllValues_TestIN4absl15random_internal10pcg_engineINS5_13pcg128_paramsILm2549297995355413924ELm4865540595714422341ELm6364136223846793005ELm1442695040888963407EEENS5_17pcg_xsl_rr_128_64EEEEEEE = internal constant [278 x i8] c"N7testing8internal15TestFactoryImplIN12_GLOBAL__N_147PCGEngineTest_VerifyReseedChangesAllValues_TestIN4absl15random_internal10pcg_engineINS5_13pcg128_paramsILm2549297995355413924ELm4865540595714422341ELm6364136223846793005ELm1442695040888963407EEENS5_17pcg_xsl_rr_128_64EEEEEEE\00", align 1
@_ZTIN7testing8internal15TestFactoryImplIN12_GLOBAL__N_147PCGEngineTest_VerifyReseedChangesAllValues_TestIN4absl15random_internal10pcg_engineINS5_13pcg128_paramsILm2549297995355413924ELm4865540595714422341ELm6364136223846793005ELm1442695040888963407EEENS5_17pcg_xsl_rr_128_64EEEEEEE = internal constant { ptr, ptr, ptr } { ptr getelementptr inbounds (ptr, ptr @_ZTVN10__cxxabiv120__si_class_type_infoE, i64 2), ptr @_ZTSN7testing8internal15TestFactoryImplIN12_GLOBAL__N_147PCGEngineTest_VerifyReseedChangesAllValues_TestIN4absl15random_internal10pcg_engineINS5_13pcg128_paramsILm2549297995355413924ELm4865540595714422341ELm6364136223846793005ELm1442695040888963407EEENS5_17pcg_xsl_rr_128_64EEEEEEE, ptr @_ZTIN7testing8internal15TestFactoryBaseE }, align 8
@_ZTVN12_GLOBAL__N_147PCGEngineTest_VerifyReseedChangesAllValues_TestIN4absl15random_internal10pcg_engineINS2_13pcg128_paramsILm2549297995355413924ELm4865540595714422341ELm6364136223846793005ELm1442695040888963407EEENS2_17pcg_xsl_rr_128_64EEEEE = internal unnamed_addr constant { [8 x ptr] } { [8 x ptr] [ptr null, ptr @_ZTIN12_GLOBAL__N_147PCGEngineTest_VerifyReseedChangesAllValues_TestIN4absl15random_internal10pcg_engineINS2_13pcg128_paramsILm2549297995355413924ELm4865540595714422341ELm6364136223846793005ELm1442695040888963407EEENS2_17pcg_xsl_rr_128_64EEEEE, ptr @_ZN12_GLOBAL__N_147PCGEngineTest_VerifyReseedChangesAllValues_TestIN4absl15random_internal10pcg_engineINS2_13pcg128_paramsILm2549297995355413924ELm4865540595714422341ELm6364136223846793005ELm1442695040888963407EEENS2_17pcg_xsl_rr_128_64EEEED2Ev, ptr @_ZN12_GLOBAL__N_147PCGEngineTest_VerifyReseedChangesAllValues_TestIN4absl15random_internal10pcg_engineINS2_13pcg128_paramsILm2549297995355413924ELm4865540595714422341ELm6364136223846793005ELm1442695040888963407EEENS2_17pcg_xsl_rr_128_64EEEED0Ev, ptr @_ZN7testing4Test5SetUpEv, ptr @_ZN7testing4Test8TearDownEv, ptr @_ZN12_GLOBAL__N_147PCGEngineTest_VerifyReseedChangesAllValues_TestIN4absl15random_internal10pcg_engineINS2_13pcg128_paramsILm2549297995355413924ELm4865540595714422341ELm6364136223846793005ELm1442695040888963407EEENS2_17pcg_xsl_rr_128_64EEEE8TestBodyEv, ptr @_ZN7testing4Test5SetupEv] }, align 8
@_ZTSN12_GLOBAL__N_147PCGEngineTest_VerifyReseedChangesAllValues_TestIN4absl15random_internal10pcg_engineINS2_13pcg128_paramsILm2549297995355413924ELm4865540595714422341ELm6364136223846793005ELm1442695040888963407EEENS2_17pcg_xsl_rr_128_64EEEEE = internal constant [240 x i8] c"N12_GLOBAL__N_147PCGEngineTest_VerifyReseedChangesAllValues_TestIN4absl15random_internal10pcg_engineINS2_13pcg128_paramsILm2549297995355413924ELm4865540595714422341ELm6364136223846793005ELm1442695040888963407EEENS2_17pcg_xsl_rr_128_64EEEEE\00", align 1
@_ZTSN12_GLOBAL__N_113PCGEngineTestIN4absl15random_internal10pcg_engineINS2_13pcg128_paramsILm2549297995355413924ELm4865540595714422341ELm6364136223846793005ELm1442695040888963407EEENS2_17pcg_xsl_rr_128_64EEEEE = internal constant [206 x i8] c"N12_GLOBAL__N_113PCGEngineTestIN4absl15random_internal10pcg_engineINS2_13pcg128_paramsILm2549297995355413924ELm4865540595714422341ELm6364136223846793005ELm1442695040888963407EEENS2_17pcg_xsl_rr_128_64EEEEE\00", align 1
@_ZTIN12_GLOBAL__N_113PCGEngineTestIN4absl15random_internal10pcg_engineINS2_13pcg128_paramsILm2549297995355413924ELm4865540595714422341ELm6364136223846793005ELm1442695040888963407EEENS2_17pcg_xsl_rr_128_64EEEEE = internal constant { ptr, ptr, ptr } { ptr getelementptr inbounds (ptr, ptr @_ZTVN10__cxxabiv120__si_class_type_infoE, i64 2), ptr @_ZTSN12_GLOBAL__N_113PCGEngineTestIN4absl15random_internal10pcg_engineINS2_13pcg128_paramsILm2549297995355413924ELm4865540595714422341ELm6364136223846793005ELm1442695040888963407EEENS2_17pcg_xsl_rr_128_64EEEEE, ptr @_ZTIN7testing4TestE }, align 8
@_ZTIN12_GLOBAL__N_147PCGEngineTest_VerifyReseedChangesAllValues_TestIN4absl15random_internal10pcg_engineINS2_13pcg128_paramsILm2549297995355413924ELm4865540595714422341ELm6364136223846793005ELm1442695040888963407EEENS2_17pcg_xsl_rr_128_64EEEEE = internal constant { ptr, ptr, ptr } { ptr getelementptr inbounds (ptr, ptr @_ZTVN10__cxxabiv120__si_class_type_infoE, i64 2), ptr @_ZTSN12_GLOBAL__N_147PCGEngineTest_VerifyReseedChangesAllValues_TestIN4absl15random_internal10pcg_engineINS2_13pcg128_paramsILm2549297995355413924ELm4865540595714422341ELm6364136223846793005ELm1442695040888963407EEENS2_17pcg_xsl_rr_128_64EEEEE, ptr @_ZTIN12_GLOBAL__N_113PCGEngineTestIN4absl15random_internal10pcg_engineINS2_13pcg128_paramsILm2549297995355413924ELm4865540595714422341ELm6364136223846793005ELm1442695040888963407EEENS2_17pcg_xsl_rr_128_64EEEEE }, align 8
@.str.39 = private unnamed_addr constant [13 x i8] c"changed_bits\00", align 1
@.str.40 = private unnamed_addr constant [39 x i8] c"0.60 * (changed_bits + unchanged_bits)\00", align 1
@.str.41 = private unnamed_addr constant [39 x i8] c"0.40 * (changed_bits + unchanged_bits)\00", align 1
@.str.42 = private unnamed_addr constant [10 x i8] c"total_set\00", align 1
@.str.43 = private unnamed_addr constant [17 x i8] c"total_bits * 0.5\00", align 1
@.str.44 = private unnamed_addr constant [26 x i8] c"4 * std::sqrt(total_bits)\00", align 1
@.str.45 = private unnamed_addr constant [2 x i8] c"@\00", align 1
@.str.46 = private unnamed_addr constant [12 x i8] c"equal_count\00", align 1
@.str.47 = private unnamed_addr constant [16 x i8] c"1.0 + kExpected\00", align 1
@.str.48 = private unnamed_addr constant [16 x i8] c"vector::reserve\00", align 1
@.str.49 = private unnamed_addr constant [8 x i8] c"default\00", align 1
@.str.50 = private unnamed_addr constant [3 x i8] c"<=\00", align 1
@.str.51 = private unnamed_addr constant [12 x i8] c"Expected: (\00", align 1
@.str.52 = private unnamed_addr constant [3 x i8] c") \00", align 1
@.str.53 = private unnamed_addr constant [3 x i8] c" (\00", align 1
@.str.54 = private unnamed_addr constant [12 x i8] c"), actual: \00", align 1
@.str.55 = private unnamed_addr constant [5 x i8] c" vs \00", align 1
@.str.56 = private unnamed_addr constant [7 x i8] c"(null)\00", align 1
@.str.57 = private unnamed_addr constant [3 x i8] c">=\00", align 1
@_ZTSN4absl15random_internal10pcg_engineINS0_12pcg64_paramsILm6364136223846793005ELm1442695040888963407EEENS0_16pcg_xsh_rr_64_32EEE = linkonce_odr dso_local constant [127 x i8] c"N4absl15random_internal10pcg_engineINS0_12pcg64_paramsILm6364136223846793005ELm1442695040888963407EEENS0_16pcg_xsh_rr_64_32EEE\00", comdat, align 1
@_ZTIN4absl15random_internal10pcg_engineINS0_12pcg64_paramsILm6364136223846793005ELm1442695040888963407EEENS0_16pcg_xsh_rr_64_32EEE = linkonce_odr dso_local constant { ptr, ptr } { ptr getelementptr inbounds (ptr, ptr @_ZTVN10__cxxabiv117__class_type_infoE, i64 2), ptr @_ZTSN4absl15random_internal10pcg_engineINS0_12pcg64_paramsILm6364136223846793005ELm1442695040888963407EEENS0_16pcg_xsh_rr_64_32EEE }, comdat, align 8
@_ZN7testing8internal12TypeIdHelperIN12_GLOBAL__N_113PCGEngineTestIN4absl15random_internal10pcg_engineINS5_12pcg64_paramsILm6364136223846793005ELm1442695040888963407EEENS5_16pcg_xsh_rr_64_32EEEEEE6dummy_E = internal global i8 0, align 1
@_ZTVN7testing8internal15TestFactoryImplIN12_GLOBAL__N_147PCGEngineTest_VerifyReseedChangesAllValues_TestIN4absl15random_internal10pcg_engineINS5_12pcg64_paramsILm6364136223846793005ELm1442695040888963407EEENS5_16pcg_xsh_rr_64_32EEEEEEE = internal unnamed_addr constant { [5 x ptr] } { [5 x ptr] [ptr null, ptr @_ZTIN7testing8internal15TestFactoryImplIN12_GLOBAL__N_147PCGEngineTest_VerifyReseedChangesAllValues_TestIN4absl15random_internal10pcg_engineINS5_12pcg64_paramsILm6364136223846793005ELm1442695040888963407EEENS5_16pcg_xsh_rr_64_32EEEEEEE, ptr @_ZN7testing8internal15TestFactoryImplIN12_GLOBAL__N_147PCGEngineTest_VerifyReseedChangesAllValues_TestIN4absl15random_internal10pcg_engineINS5_12pcg64_paramsILm6364136223846793005ELm1442695040888963407EEENS5_16pcg_xsh_rr_64_32EEEEEED2Ev, ptr @_ZN7testing8internal15TestFactoryImplIN12_GLOBAL__N_147PCGEngineTest_VerifyReseedChangesAllValues_TestIN4absl15random_internal10pcg_engineINS5_12pcg64_paramsILm6364136223846793005ELm1442695040888963407EEENS5_16pcg_xsh_rr_64_32EEEEEED0Ev, ptr @_ZN7testing8internal15TestFactoryImplIN12_GLOBAL__N_147PCGEngineTest_VerifyReseedChangesAllValues_TestIN4absl15random_internal10pcg_engineINS5_12pcg64_paramsILm6364136223846793005ELm1442695040888963407EEENS5_16pcg_xsh_rr_64_32EEEEEE10CreateTestEv] }, align 8
@_ZTSN7testing8internal15TestFactoryImplIN12_GLOBAL__N_147PCGEngineTest_VerifyReseedChangesAllValues_TestIN4absl15random_internal10pcg_engineINS5_12pcg64_paramsILm6364136223846793005ELm1442695040888963407EEENS5_16pcg_xsh_rr_64_32EEEEEEE = internal constant [232 x i8] c"N7testing8internal15TestFactoryImplIN12_GLOBAL__N_147PCGEngineTest_VerifyReseedChangesAllValues_TestIN4absl15random_internal10pcg_engineINS5_12pcg64_paramsILm6364136223846793005ELm1442695040888963407EEENS5_16pcg_xsh_rr_64_32EEEEEEE\00", align 1
@_ZTIN7testing8internal15TestFactoryImplIN12_GLOBAL__N_147PCGEngineTest_VerifyReseedChangesAllValues_TestIN4absl15random_internal10pcg_engineINS5_12pcg64_paramsILm6364136223846793005ELm1442695040888963407EEENS5_16pcg_xsh_rr_64_32EEEEEEE = internal constant { ptr, ptr, ptr } { ptr getelementptr inbounds (ptr, ptr @_ZTVN10__cxxabiv120__si_class_type_infoE, i64 2), ptr @_ZTSN7testing8internal15TestFactoryImplIN12_GLOBAL__N_147PCGEngineTest_VerifyReseedChangesAllValues_TestIN4absl15random_internal10pcg_engineINS5_12pcg64_paramsILm6364136223846793005ELm1442695040888963407EEENS5_16pcg_xsh_rr_64_32EEEEEEE, ptr @_ZTIN7testing8internal15TestFactoryBaseE }, align 8
@_ZTVN12_GLOBAL__N_147PCGEngineTest_VerifyReseedChangesAllValues_TestIN4absl15random_internal10pcg_engineINS2_12pcg64_paramsILm6364136223846793005ELm1442695040888963407EEENS2_16pcg_xsh_rr_64_32EEEEE = internal unnamed_addr constant { [8 x ptr] } { [8 x ptr] [ptr null, ptr @_ZTIN12_GLOBAL__N_147PCGEngineTest_VerifyReseedChangesAllValues_TestIN4absl15random_internal10pcg_engineINS2_12pcg64_paramsILm6364136223846793005ELm1442695040888963407EEENS2_16pcg_xsh_rr_64_32EEEEE, ptr @_ZN12_GLOBAL__N_147PCGEngineTest_VerifyReseedChangesAllValues_TestIN4absl15random_internal10pcg_engineINS2_12pcg64_paramsILm6364136223846793005ELm1442695040888963407EEENS2_16pcg_xsh_rr_64_32EEEED2Ev, ptr @_ZN12_GLOBAL__N_147PCGEngineTest_VerifyReseedChangesAllValues_TestIN4absl15random_internal10pcg_engineINS2_12pcg64_paramsILm6364136223846793005ELm1442695040888963407EEENS2_16pcg_xsh_rr_64_32EEEED0Ev, ptr @_ZN7testing4Test5SetUpEv, ptr @_ZN7testing4Test8TearDownEv, ptr @_ZN12_GLOBAL__N_147PCGEngineTest_VerifyReseedChangesAllValues_TestIN4absl15random_internal10pcg_engineINS2_12pcg64_paramsILm6364136223846793005ELm1442695040888963407EEENS2_16pcg_xsh_rr_64_32EEEE8TestBodyEv, ptr @_ZN7testing4Test5SetupEv] }, align 8
@_ZTSN12_GLOBAL__N_147PCGEngineTest_VerifyReseedChangesAllValues_TestIN4absl15random_internal10pcg_engineINS2_12pcg64_paramsILm6364136223846793005ELm1442695040888963407EEENS2_16pcg_xsh_rr_64_32EEEEE = internal constant [194 x i8] c"N12_GLOBAL__N_147PCGEngineTest_VerifyReseedChangesAllValues_TestIN4absl15random_internal10pcg_engineINS2_12pcg64_paramsILm6364136223846793005ELm1442695040888963407EEENS2_16pcg_xsh_rr_64_32EEEEE\00", align 1
@_ZTSN12_GLOBAL__N_113PCGEngineTestIN4absl15random_internal10pcg_engineINS2_12pcg64_paramsILm6364136223846793005ELm1442695040888963407EEENS2_16pcg_xsh_rr_64_32EEEEE = internal constant [160 x i8] c"N12_GLOBAL__N_113PCGEngineTestIN4absl15random_internal10pcg_engineINS2_12pcg64_paramsILm6364136223846793005ELm1442695040888963407EEENS2_16pcg_xsh_rr_64_32EEEEE\00", align 1
@_ZTIN12_GLOBAL__N_113PCGEngineTestIN4absl15random_internal10pcg_engineINS2_12pcg64_paramsILm6364136223846793005ELm1442695040888963407EEENS2_16pcg_xsh_rr_64_32EEEEE = internal constant { ptr, ptr, ptr } { ptr getelementptr inbounds (ptr, ptr @_ZTVN10__cxxabiv120__si_class_type_infoE, i64 2), ptr @_ZTSN12_GLOBAL__N_113PCGEngineTestIN4absl15random_internal10pcg_engineINS2_12pcg64_paramsILm6364136223846793005ELm1442695040888963407EEENS2_16pcg_xsh_rr_64_32EEEEE, ptr @_ZTIN7testing4TestE }, align 8
@_ZTIN12_GLOBAL__N_147PCGEngineTest_VerifyReseedChangesAllValues_TestIN4absl15random_internal10pcg_engineINS2_12pcg64_paramsILm6364136223846793005ELm1442695040888963407EEENS2_16pcg_xsh_rr_64_32EEEEE = internal constant { ptr, ptr, ptr } { ptr getelementptr inbounds (ptr, ptr @_ZTVN10__cxxabiv120__si_class_type_infoE, i64 2), ptr @_ZTSN12_GLOBAL__N_147PCGEngineTest_VerifyReseedChangesAllValues_TestIN4absl15random_internal10pcg_engineINS2_12pcg64_paramsILm6364136223846793005ELm1442695040888963407EEENS2_16pcg_xsh_rr_64_32EEEEE, ptr @_ZTIN12_GLOBAL__N_113PCGEngineTestIN4absl15random_internal10pcg_engineINS2_12pcg64_paramsILm6364136223846793005ELm1442695040888963407EEENS2_16pcg_xsh_rr_64_32EEEEE }, align 8
@constinit.58 = private unnamed_addr constant [7 x i32] [i32 1, i32 2, i32 3, i32 4, i32 5, i32 6, i32 7], align 4
@_ZTVN7testing8internal15TestFactoryImplIN12_GLOBAL__N_132PCGEngineTest_VerifyDiscard_TestIN4absl15random_internal10pcg_engineINS5_13pcg128_paramsILm2549297995355413924ELm4865540595714422341ELm6364136223846793005ELm1442695040888963407EEENS5_17pcg_xsl_rr_128_64EEEEEEE = internal unnamed_addr constant { [5 x ptr] } { [5 x ptr] [ptr null, ptr @_ZTIN7testing8internal15TestFactoryImplIN12_GLOBAL__N_132PCGEngineTest_VerifyDiscard_TestIN4absl15random_internal10pcg_engineINS5_13pcg128_paramsILm2549297995355413924ELm4865540595714422341ELm6364136223846793005ELm1442695040888963407EEENS5_17pcg_xsl_rr_128_64EEEEEEE, ptr @_ZN7testing8internal15TestFactoryImplIN12_GLOBAL__N_132PCGEngineTest_VerifyDiscard_TestIN4absl15random_internal10pcg_engineINS5_13pcg128_paramsILm2549297995355413924ELm4865540595714422341ELm6364136223846793005ELm1442695040888963407EEENS5_17pcg_xsl_rr_128_64EEEEEED2Ev, ptr @_ZN7testing8internal15TestFactoryImplIN12_GLOBAL__N_132PCGEngineTest_VerifyDiscard_TestIN4absl15random_internal10pcg_engineINS5_13pcg128_paramsILm2549297995355413924ELm4865540595714422341ELm6364136223846793005ELm1442695040888963407EEENS5_17pcg_xsl_rr_128_64EEEEEED0Ev, ptr @_ZN7testing8internal15TestFactoryImplIN12_GLOBAL__N_132PCGEngineTest_VerifyDiscard_TestIN4absl15random_internal10pcg_engineINS5_13pcg128_paramsILm2549297995355413924ELm4865540595714422341ELm6364136223846793005ELm1442695040888963407EEENS5_17pcg_xsl_rr_128_64EEEEEE10CreateTestEv] }, align 8
@_ZTSN7testing8internal15TestFactoryImplIN12_GLOBAL__N_132PCGEngineTest_VerifyDiscard_TestIN4absl15random_internal10pcg_engineINS5_13pcg128_paramsILm2549297995355413924ELm4865540595714422341ELm6364136223846793005ELm1442695040888963407EEENS5_17pcg_xsl_rr_128_64EEEEEEE = internal constant [263 x i8] c"N7testing8internal15TestFactoryImplIN12_GLOBAL__N_132PCGEngineTest_VerifyDiscard_TestIN4absl15random_internal10pcg_engineINS5_13pcg128_paramsILm2549297995355413924ELm4865540595714422341ELm6364136223846793005ELm1442695040888963407EEENS5_17pcg_xsl_rr_128_64EEEEEEE\00", align 1
@_ZTIN7testing8internal15TestFactoryImplIN12_GLOBAL__N_132PCGEngineTest_VerifyDiscard_TestIN4absl15random_internal10pcg_engineINS5_13pcg128_paramsILm2549297995355413924ELm4865540595714422341ELm6364136223846793005ELm1442695040888963407EEENS5_17pcg_xsl_rr_128_64EEEEEEE = internal constant { ptr, ptr, ptr } { ptr getelementptr inbounds (ptr, ptr @_ZTVN10__cxxabiv120__si_class_type_infoE, i64 2), ptr @_ZTSN7testing8internal15TestFactoryImplIN12_GLOBAL__N_132PCGEngineTest_VerifyDiscard_TestIN4absl15random_internal10pcg_engineINS5_13pcg128_paramsILm2549297995355413924ELm4865540595714422341ELm6364136223846793005ELm1442695040888963407EEENS5_17pcg_xsl_rr_128_64EEEEEEE, ptr @_ZTIN7testing8internal15TestFactoryBaseE }, align 8
@_ZTVN12_GLOBAL__N_132PCGEngineTest_VerifyDiscard_TestIN4absl15random_internal10pcg_engineINS2_13pcg128_paramsILm2549297995355413924ELm4865540595714422341ELm6364136223846793005ELm1442695040888963407EEENS2_17pcg_xsl_rr_128_64EEEEE = internal unnamed_addr constant { [8 x ptr] } { [8 x ptr] [ptr null, ptr @_ZTIN12_GLOBAL__N_132PCGEngineTest_VerifyDiscard_TestIN4absl15random_internal10pcg_engineINS2_13pcg128_paramsILm2549297995355413924ELm4865540595714422341ELm6364136223846793005ELm1442695040888963407EEENS2_17pcg_xsl_rr_128_64EEEEE, ptr @_ZN12_GLOBAL__N_132PCGEngineTest_VerifyDiscard_TestIN4absl15random_internal10pcg_engineINS2_13pcg128_paramsILm2549297995355413924ELm4865540595714422341ELm6364136223846793005ELm1442695040888963407EEENS2_17pcg_xsl_rr_128_64EEEED2Ev, ptr @_ZN12_GLOBAL__N_132PCGEngineTest_VerifyDiscard_TestIN4absl15random_internal10pcg_engineINS2_13pcg128_paramsILm2549297995355413924ELm4865540595714422341ELm6364136223846793005ELm1442695040888963407EEENS2_17pcg_xsl_rr_128_64EEEED0Ev, ptr @_ZN7testing4Test5SetUpEv, ptr @_ZN7testing4Test8TearDownEv, ptr @_ZN12_GLOBAL__N_132PCGEngineTest_VerifyDiscard_TestIN4absl15random_internal10pcg_engineINS2_13pcg128_paramsILm2549297995355413924ELm4865540595714422341ELm6364136223846793005ELm1442695040888963407EEENS2_17pcg_xsl_rr_128_64EEEE8TestBodyEv, ptr @_ZN7testing4Test5SetupEv] }, align 8
@_ZTSN12_GLOBAL__N_132PCGEngineTest_VerifyDiscard_TestIN4absl15random_internal10pcg_engineINS2_13pcg128_paramsILm2549297995355413924ELm4865540595714422341ELm6364136223846793005ELm1442695040888963407EEENS2_17pcg_xsl_rr_128_64EEEEE = internal constant [225 x i8] c"N12_GLOBAL__N_132PCGEngineTest_VerifyDiscard_TestIN4absl15random_internal10pcg_engineINS2_13pcg128_paramsILm2549297995355413924ELm4865540595714422341ELm6364136223846793005ELm1442695040888963407EEENS2_17pcg_xsl_rr_128_64EEEEE\00", align 1
@_ZTIN12_GLOBAL__N_132PCGEngineTest_VerifyDiscard_TestIN4absl15random_internal10pcg_engineINS2_13pcg128_paramsILm2549297995355413924ELm4865540595714422341ELm6364136223846793005ELm1442695040888963407EEENS2_17pcg_xsl_rr_128_64EEEEE = internal constant { ptr, ptr, ptr } { ptr getelementptr inbounds (ptr, ptr @_ZTVN10__cxxabiv120__si_class_type_infoE, i64 2), ptr @_ZTSN12_GLOBAL__N_132PCGEngineTest_VerifyDiscard_TestIN4absl15random_internal10pcg_engineINS2_13pcg128_paramsILm2549297995355413924ELm4865540595714422341ELm6364136223846793005ELm1442695040888963407EEENS2_17pcg_xsl_rr_128_64EEEEE, ptr @_ZTIN12_GLOBAL__N_113PCGEngineTestIN4absl15random_internal10pcg_engineINS2_13pcg128_paramsILm2549297995355413924ELm4865540595714422341ELm6364136223846793005ELm1442695040888963407EEENS2_17pcg_xsl_rr_128_64EEEEE }, align 8
@.str.59 = private unnamed_addr constant [3 x i8] c"r1\00", align 1
@.str.60 = private unnamed_addr constant [3 x i8] c"r2\00", align 1
@.str.61 = private unnamed_addr constant [6 x i8] c"used=\00", align 1
@.str.62 = private unnamed_addr constant [10 x i8] c" discard=\00", align 1
@_ZTVN7testing8internal15TestFactoryImplIN12_GLOBAL__N_132PCGEngineTest_VerifyDiscard_TestIN4absl15random_internal10pcg_engineINS5_12pcg64_paramsILm6364136223846793005ELm1442695040888963407EEENS5_16pcg_xsh_rr_64_32EEEEEEE = internal unnamed_addr constant { [5 x ptr] } { [5 x ptr] [ptr null, ptr @_ZTIN7testing8internal15TestFactoryImplIN12_GLOBAL__N_132PCGEngineTest_VerifyDiscard_TestIN4absl15random_internal10pcg_engineINS5_12pcg64_paramsILm6364136223846793005ELm1442695040888963407EEENS5_16pcg_xsh_rr_64_32EEEEEEE, ptr @_ZN7testing8internal15TestFactoryImplIN12_GLOBAL__N_132PCGEngineTest_VerifyDiscard_TestIN4absl15random_internal10pcg_engineINS5_12pcg64_paramsILm6364136223846793005ELm1442695040888963407EEENS5_16pcg_xsh_rr_64_32EEEEEED2Ev, ptr @_ZN7testing8internal15TestFactoryImplIN12_GLOBAL__N_132PCGEngineTest_VerifyDiscard_TestIN4absl15random_internal10pcg_engineINS5_12pcg64_paramsILm6364136223846793005ELm1442695040888963407EEENS5_16pcg_xsh_rr_64_32EEEEEED0Ev, ptr @_ZN7testing8internal15TestFactoryImplIN12_GLOBAL__N_132PCGEngineTest_VerifyDiscard_TestIN4absl15random_internal10pcg_engineINS5_12pcg64_paramsILm6364136223846793005ELm1442695040888963407EEENS5_16pcg_xsh_rr_64_32EEEEEE10CreateTestEv] }, align 8
@_ZTSN7testing8internal15TestFactoryImplIN12_GLOBAL__N_132PCGEngineTest_VerifyDiscard_TestIN4absl15random_internal10pcg_engineINS5_12pcg64_paramsILm6364136223846793005ELm1442695040888963407EEENS5_16pcg_xsh_rr_64_32EEEEEEE = internal constant [217 x i8] c"N7testing8internal15TestFactoryImplIN12_GLOBAL__N_132PCGEngineTest_VerifyDiscard_TestIN4absl15random_internal10pcg_engineINS5_12pcg64_paramsILm6364136223846793005ELm1442695040888963407EEENS5_16pcg_xsh_rr_64_32EEEEEEE\00", align 1
@_ZTIN7testing8internal15TestFactoryImplIN12_GLOBAL__N_132PCGEngineTest_VerifyDiscard_TestIN4absl15random_internal10pcg_engineINS5_12pcg64_paramsILm6364136223846793005ELm1442695040888963407EEENS5_16pcg_xsh_rr_64_32EEEEEEE = internal constant { ptr, ptr, ptr } { ptr getelementptr inbounds (ptr, ptr @_ZTVN10__cxxabiv120__si_class_type_infoE, i64 2), ptr @_ZTSN7testing8internal15TestFactoryImplIN12_GLOBAL__N_132PCGEngineTest_VerifyDiscard_TestIN4absl15random_internal10pcg_engineINS5_12pcg64_paramsILm6364136223846793005ELm1442695040888963407EEENS5_16pcg_xsh_rr_64_32EEEEEEE, ptr @_ZTIN7testing8internal15TestFactoryBaseE }, align 8
@_ZTVN12_GLOBAL__N_132PCGEngineTest_VerifyDiscard_TestIN4absl15random_internal10pcg_engineINS2_12pcg64_paramsILm6364136223846793005ELm1442695040888963407EEENS2_16pcg_xsh_rr_64_32EEEEE = internal unnamed_addr constant { [8 x ptr] } { [8 x ptr] [ptr null, ptr @_ZTIN12_GLOBAL__N_132PCGEngineTest_VerifyDiscard_TestIN4absl15random_internal10pcg_engineINS2_12pcg64_paramsILm6364136223846793005ELm1442695040888963407EEENS2_16pcg_xsh_rr_64_32EEEEE, ptr @_ZN12_GLOBAL__N_132PCGEngineTest_VerifyDiscard_TestIN4absl15random_internal10pcg_engineINS2_12pcg64_paramsILm6364136223846793005ELm1442695040888963407EEENS2_16pcg_xsh_rr_64_32EEEED2Ev, ptr @_ZN12_GLOBAL__N_132PCGEngineTest_VerifyDiscard_TestIN4absl15random_internal10pcg_engineINS2_12pcg64_paramsILm6364136223846793005ELm1442695040888963407EEENS2_16pcg_xsh_rr_64_32EEEED0Ev, ptr @_ZN7testing4Test5SetUpEv, ptr @_ZN7testing4Test8TearDownEv, ptr @_ZN12_GLOBAL__N_132PCGEngineTest_VerifyDiscard_TestIN4absl15random_internal10pcg_engineINS2_12pcg64_paramsILm6364136223846793005ELm1442695040888963407EEENS2_16pcg_xsh_rr_64_32EEEE8TestBodyEv, ptr @_ZN7testing4Test5SetupEv] }, align 8
@_ZTSN12_GLOBAL__N_132PCGEngineTest_VerifyDiscard_TestIN4absl15random_internal10pcg_engineINS2_12pcg64_paramsILm6364136223846793005ELm1442695040888963407EEENS2_16pcg_xsh_rr_64_32EEEEE = internal constant [179 x i8] c"N12_GLOBAL__N_132PCGEngineTest_VerifyDiscard_TestIN4absl15random_internal10pcg_engineINS2_12pcg64_paramsILm6364136223846793005ELm1442695040888963407EEENS2_16pcg_xsh_rr_64_32EEEEE\00", align 1
@_ZTIN12_GLOBAL__N_132PCGEngineTest_VerifyDiscard_TestIN4absl15random_internal10pcg_engineINS2_12pcg64_paramsILm6364136223846793005ELm1442695040888963407EEENS2_16pcg_xsh_rr_64_32EEEEE = internal constant { ptr, ptr, ptr } { ptr getelementptr inbounds (ptr, ptr @_ZTVN10__cxxabiv120__si_class_type_infoE, i64 2), ptr @_ZTSN12_GLOBAL__N_132PCGEngineTest_VerifyDiscard_TestIN4absl15random_internal10pcg_engineINS2_12pcg64_paramsILm6364136223846793005ELm1442695040888963407EEENS2_16pcg_xsh_rr_64_32EEEEE, ptr @_ZTIN12_GLOBAL__N_113PCGEngineTestIN4absl15random_internal10pcg_engineINS2_12pcg64_paramsILm6364136223846793005ELm1442695040888963407EEENS2_16pcg_xsh_rr_64_32EEEEE }, align 8
@_ZTVN7testing8internal15TestFactoryImplIN12_GLOBAL__N_140PCGEngineTest_StreamOperatorsResult_TestIN4absl15random_internal10pcg_engineINS5_13pcg128_paramsILm2549297995355413924ELm4865540595714422341ELm6364136223846793005ELm1442695040888963407EEENS5_17pcg_xsl_rr_128_64EEEEEEE = internal unnamed_addr constant { [5 x ptr] } { [5 x ptr] [ptr null, ptr @_ZTIN7testing8internal15TestFactoryImplIN12_GLOBAL__N_140PCGEngineTest_StreamOperatorsResult_TestIN4absl15random_internal10pcg_engineINS5_13pcg128_paramsILm2549297995355413924ELm4865540595714422341ELm6364136223846793005ELm1442695040888963407EEENS5_17pcg_xsl_rr_128_64EEEEEEE, ptr @_ZN7testing8internal15TestFactoryImplIN12_GLOBAL__N_140PCGEngineTest_StreamOperatorsResult_TestIN4absl15random_internal10pcg_engineINS5_13pcg128_paramsILm2549297995355413924ELm4865540595714422341ELm6364136223846793005ELm1442695040888963407EEENS5_17pcg_xsl_rr_128_64EEEEEED2Ev, ptr @_ZN7testing8internal15TestFactoryImplIN12_GLOBAL__N_140PCGEngineTest_StreamOperatorsResult_TestIN4absl15random_internal10pcg_engineINS5_13pcg128_paramsILm2549297995355413924ELm4865540595714422341ELm6364136223846793005ELm1442695040888963407EEENS5_17pcg_xsl_rr_128_64EEEEEED0Ev, ptr @_ZN7testing8internal15TestFactoryImplIN12_GLOBAL__N_140PCGEngineTest_StreamOperatorsResult_TestIN4absl15random_internal10pcg_engineINS5_13pcg128_paramsILm2549297995355413924ELm4865540595714422341ELm6364136223846793005ELm1442695040888963407EEENS5_17pcg_xsl_rr_128_64EEEEEE10CreateTestEv] }, align 8
@_ZTSN7testing8internal15TestFactoryImplIN12_GLOBAL__N_140PCGEngineTest_StreamOperatorsResult_TestIN4absl15random_internal10pcg_engineINS5_13pcg128_paramsILm2549297995355413924ELm4865540595714422341ELm6364136223846793005ELm1442695040888963407EEENS5_17pcg_xsl_rr_128_64EEEEEEE = internal constant [271 x i8] c"N7testing8internal15TestFactoryImplIN12_GLOBAL__N_140PCGEngineTest_StreamOperatorsResult_TestIN4absl15random_internal10pcg_engineINS5_13pcg128_paramsILm2549297995355413924ELm4865540595714422341ELm6364136223846793005ELm1442695040888963407EEENS5_17pcg_xsl_rr_128_64EEEEEEE\00", align 1
@_ZTIN7testing8internal15TestFactoryImplIN12_GLOBAL__N_140PCGEngineTest_StreamOperatorsResult_TestIN4absl15random_internal10pcg_engineINS5_13pcg128_paramsILm2549297995355413924ELm4865540595714422341ELm6364136223846793005ELm1442695040888963407EEENS5_17pcg_xsl_rr_128_64EEEEEEE = internal constant { ptr, ptr, ptr } { ptr getelementptr inbounds (ptr, ptr @_ZTVN10__cxxabiv120__si_class_type_infoE, i64 2), ptr @_ZTSN7testing8internal15TestFactoryImplIN12_GLOBAL__N_140PCGEngineTest_StreamOperatorsResult_TestIN4absl15random_internal10pcg_engineINS5_13pcg128_paramsILm2549297995355413924ELm4865540595714422341ELm6364136223846793005ELm1442695040888963407EEENS5_17pcg_xsl_rr_128_64EEEEEEE, ptr @_ZTIN7testing8internal15TestFactoryBaseE }, align 8
@_ZTVN12_GLOBAL__N_140PCGEngineTest_StreamOperatorsResult_TestIN4absl15random_internal10pcg_engineINS2_13pcg128_paramsILm2549297995355413924ELm4865540595714422341ELm6364136223846793005ELm1442695040888963407EEENS2_17pcg_xsl_rr_128_64EEEEE = internal unnamed_addr constant { [8 x ptr] } { [8 x ptr] [ptr null, ptr @_ZTIN12_GLOBAL__N_140PCGEngineTest_StreamOperatorsResult_TestIN4absl15random_internal10pcg_engineINS2_13pcg128_paramsILm2549297995355413924ELm4865540595714422341ELm6364136223846793005ELm1442695040888963407EEENS2_17pcg_xsl_rr_128_64EEEEE, ptr @_ZN12_GLOBAL__N_140PCGEngineTest_StreamOperatorsResult_TestIN4absl15random_internal10pcg_engineINS2_13pcg128_paramsILm2549297995355413924ELm4865540595714422341ELm6364136223846793005ELm1442695040888963407EEENS2_17pcg_xsl_rr_128_64EEEED2Ev, ptr @_ZN12_GLOBAL__N_140PCGEngineTest_StreamOperatorsResult_TestIN4absl15random_internal10pcg_engineINS2_13pcg128_paramsILm2549297995355413924ELm4865540595714422341ELm6364136223846793005ELm1442695040888963407EEENS2_17pcg_xsl_rr_128_64EEEED0Ev, ptr @_ZN7testing4Test5SetUpEv, ptr @_ZN7testing4Test8TearDownEv, ptr @_ZN12_GLOBAL__N_140PCGEngineTest_StreamOperatorsResult_TestIN4absl15random_internal10pcg_engineINS2_13pcg128_paramsILm2549297995355413924ELm4865540595714422341ELm6364136223846793005ELm1442695040888963407EEENS2_17pcg_xsl_rr_128_64EEEE8TestBodyEv, ptr @_ZN7testing4Test5SetupEv] }, align 8
@_ZTSN12_GLOBAL__N_140PCGEngineTest_StreamOperatorsResult_TestIN4absl15random_internal10pcg_engineINS2_13pcg128_paramsILm2549297995355413924ELm4865540595714422341ELm6364136223846793005ELm1442695040888963407EEENS2_17pcg_xsl_rr_128_64EEEEE = internal constant [233 x i8] c"N12_GLOBAL__N_140PCGEngineTest_StreamOperatorsResult_TestIN4absl15random_internal10pcg_engineINS2_13pcg128_paramsILm2549297995355413924ELm4865540595714422341ELm6364136223846793005ELm1442695040888963407EEENS2_17pcg_xsl_rr_128_64EEEEE\00", align 1
@_ZTIN12_GLOBAL__N_140PCGEngineTest_StreamOperatorsResult_TestIN4absl15random_internal10pcg_engineINS2_13pcg128_paramsILm2549297995355413924ELm4865540595714422341ELm6364136223846793005ELm1442695040888963407EEENS2_17pcg_xsl_rr_128_64EEEEE = internal constant { ptr, ptr, ptr } { ptr getelementptr inbounds (ptr, ptr @_ZTVN10__cxxabiv120__si_class_type_infoE, i64 2), ptr @_ZTSN12_GLOBAL__N_140PCGEngineTest_StreamOperatorsResult_TestIN4absl15random_internal10pcg_engineINS2_13pcg128_paramsILm2549297995355413924ELm4865540595714422341ELm6364136223846793005ELm1442695040888963407EEENS2_17pcg_xsl_rr_128_64EEEEE, ptr @_ZTIN12_GLOBAL__N_113PCGEngineTestIN4absl15random_internal10pcg_engineINS2_13pcg128_paramsILm2549297995355413924ELm4865540595714422341ELm6364136223846793005ELm1442695040888963407EEENS2_17pcg_xsl_rr_128_64EEEEE }, align 8
@.str.63 = private unnamed_addr constant [16 x i8] c"&(os << engine)\00", align 1
@.str.64 = private unnamed_addr constant [4 x i8] c"&os\00", align 1
@.str.65 = private unnamed_addr constant [16 x i8] c"&(is >> engine)\00", align 1
@.str.66 = private unnamed_addr constant [4 x i8] c"&is\00", align 1
@.str.67 = private unnamed_addr constant [5 x i8] c"NULL\00", align 1
@_ZTVN7testing8internal15TestFactoryImplIN12_GLOBAL__N_140PCGEngineTest_StreamOperatorsResult_TestIN4absl15random_internal10pcg_engineINS5_12pcg64_paramsILm6364136223846793005ELm1442695040888963407EEENS5_16pcg_xsh_rr_64_32EEEEEEE = internal unnamed_addr constant { [5 x ptr] } { [5 x ptr] [ptr null, ptr @_ZTIN7testing8internal15TestFactoryImplIN12_GLOBAL__N_140PCGEngineTest_StreamOperatorsResult_TestIN4absl15random_internal10pcg_engineINS5_12pcg64_paramsILm6364136223846793005ELm1442695040888963407EEENS5_16pcg_xsh_rr_64_32EEEEEEE, ptr @_ZN7testing8internal15TestFactoryImplIN12_GLOBAL__N_140PCGEngineTest_StreamOperatorsResult_TestIN4absl15random_internal10pcg_engineINS5_12pcg64_paramsILm6364136223846793005ELm1442695040888963407EEENS5_16pcg_xsh_rr_64_32EEEEEED2Ev, ptr @_ZN7testing8internal15TestFactoryImplIN12_GLOBAL__N_140PCGEngineTest_StreamOperatorsResult_TestIN4absl15random_internal10pcg_engineINS5_12pcg64_paramsILm6364136223846793005ELm1442695040888963407EEENS5_16pcg_xsh_rr_64_32EEEEEED0Ev, ptr @_ZN7testing8internal15TestFactoryImplIN12_GLOBAL__N_140PCGEngineTest_StreamOperatorsResult_TestIN4absl15random_internal10pcg_engineINS5_12pcg64_paramsILm6364136223846793005ELm1442695040888963407EEENS5_16pcg_xsh_rr_64_32EEEEEE10CreateTestEv] }, align 8
@_ZTSN7testing8internal15TestFactoryImplIN12_GLOBAL__N_140PCGEngineTest_StreamOperatorsResult_TestIN4absl15random_internal10pcg_engineINS5_12pcg64_paramsILm6364136223846793005ELm1442695040888963407EEENS5_16pcg_xsh_rr_64_32EEEEEEE = internal constant [225 x i8] c"N7testing8internal15TestFactoryImplIN12_GLOBAL__N_140PCGEngineTest_StreamOperatorsResult_TestIN4absl15random_internal10pcg_engineINS5_12pcg64_paramsILm6364136223846793005ELm1442695040888963407EEENS5_16pcg_xsh_rr_64_32EEEEEEE\00", align 1
@_ZTIN7testing8internal15TestFactoryImplIN12_GLOBAL__N_140PCGEngineTest_StreamOperatorsResult_TestIN4absl15random_internal10pcg_engineINS5_12pcg64_paramsILm6364136223846793005ELm1442695040888963407EEENS5_16pcg_xsh_rr_64_32EEEEEEE = internal constant { ptr, ptr, ptr } { ptr getelementptr inbounds (ptr, ptr @_ZTVN10__cxxabiv120__si_class_type_infoE, i64 2), ptr @_ZTSN7testing8internal15TestFactoryImplIN12_GLOBAL__N_140PCGEngineTest_StreamOperatorsResult_TestIN4absl15random_internal10pcg_engineINS5_12pcg64_paramsILm6364136223846793005ELm1442695040888963407EEENS5_16pcg_xsh_rr_64_32EEEEEEE, ptr @_ZTIN7testing8internal15TestFactoryBaseE }, align 8
@_ZTVN12_GLOBAL__N_140PCGEngineTest_StreamOperatorsResult_TestIN4absl15random_internal10pcg_engineINS2_12pcg64_paramsILm6364136223846793005ELm1442695040888963407EEENS2_16pcg_xsh_rr_64_32EEEEE = internal unnamed_addr constant { [8 x ptr] } { [8 x ptr] [ptr null, ptr @_ZTIN12_GLOBAL__N_140PCGEngineTest_StreamOperatorsResult_TestIN4absl15random_internal10pcg_engineINS2_12pcg64_paramsILm6364136223846793005ELm1442695040888963407EEENS2_16pcg_xsh_rr_64_32EEEEE, ptr @_ZN12_GLOBAL__N_140PCGEngineTest_StreamOperatorsResult_TestIN4absl15random_internal10pcg_engineINS2_12pcg64_paramsILm6364136223846793005ELm1442695040888963407EEENS2_16pcg_xsh_rr_64_32EEEED2Ev, ptr @_ZN12_GLOBAL__N_140PCGEngineTest_StreamOperatorsResult_TestIN4absl15random_internal10pcg_engineINS2_12pcg64_paramsILm6364136223846793005ELm1442695040888963407EEENS2_16pcg_xsh_rr_64_32EEEED0Ev, ptr @_ZN7testing4Test5SetUpEv, ptr @_ZN7testing4Test8TearDownEv, ptr @_ZN12_GLOBAL__N_140PCGEngineTest_StreamOperatorsResult_TestIN4absl15random_internal10pcg_engineINS2_12pcg64_paramsILm6364136223846793005ELm1442695040888963407EEENS2_16pcg_xsh_rr_64_32EEEE8TestBodyEv, ptr @_ZN7testing4Test5SetupEv] }, align 8
@_ZTSN12_GLOBAL__N_140PCGEngineTest_StreamOperatorsResult_TestIN4absl15random_internal10pcg_engineINS2_12pcg64_paramsILm6364136223846793005ELm1442695040888963407EEENS2_16pcg_xsh_rr_64_32EEEEE = internal constant [187 x i8] c"N12_GLOBAL__N_140PCGEngineTest_StreamOperatorsResult_TestIN4absl15random_internal10pcg_engineINS2_12pcg64_paramsILm6364136223846793005ELm1442695040888963407EEENS2_16pcg_xsh_rr_64_32EEEEE\00", align 1
@_ZTIN12_GLOBAL__N_140PCGEngineTest_StreamOperatorsResult_TestIN4absl15random_internal10pcg_engineINS2_12pcg64_paramsILm6364136223846793005ELm1442695040888963407EEENS2_16pcg_xsh_rr_64_32EEEEE = internal constant { ptr, ptr, ptr } { ptr getelementptr inbounds (ptr, ptr @_ZTVN10__cxxabiv120__si_class_type_infoE, i64 2), ptr @_ZTSN12_GLOBAL__N_140PCGEngineTest_StreamOperatorsResult_TestIN4absl15random_internal10pcg_engineINS2_12pcg64_paramsILm6364136223846793005ELm1442695040888963407EEENS2_16pcg_xsh_rr_64_32EEEEE, ptr @_ZTIN12_GLOBAL__N_113PCGEngineTestIN4absl15random_internal10pcg_engineINS2_12pcg64_paramsILm6364136223846793005ELm1442695040888963407EEENS2_16pcg_xsh_rr_64_32EEEEE }, align 8
@_ZTVN7testing8internal15TestFactoryImplIN12_GLOBAL__N_138PCGEngineTest_StreamSerialization_TestIN4absl15random_internal10pcg_engineINS5_13pcg128_paramsILm2549297995355413924ELm4865540595714422341ELm6364136223846793005ELm1442695040888963407EEENS5_17pcg_xsl_rr_128_64EEEEEEE = internal unnamed_addr constant { [5 x ptr] } { [5 x ptr] [ptr null, ptr @_ZTIN7testing8internal15TestFactoryImplIN12_GLOBAL__N_138PCGEngineTest_StreamSerialization_TestIN4absl15random_internal10pcg_engineINS5_13pcg128_paramsILm2549297995355413924ELm4865540595714422341ELm6364136223846793005ELm1442695040888963407EEENS5_17pcg_xsl_rr_128_64EEEEEEE, ptr @_ZN7testing8internal15TestFactoryImplIN12_GLOBAL__N_138PCGEngineTest_StreamSerialization_TestIN4absl15random_internal10pcg_engineINS5_13pcg128_paramsILm2549297995355413924ELm4865540595714422341ELm6364136223846793005ELm1442695040888963407EEENS5_17pcg_xsl_rr_128_64EEEEEED2Ev, ptr @_ZN7testing8internal15TestFactoryImplIN12_GLOBAL__N_138PCGEngineTest_StreamSerialization_TestIN4absl15random_internal10pcg_engineINS5_13pcg128_paramsILm2549297995355413924ELm4865540595714422341ELm6364136223846793005ELm1442695040888963407EEENS5_17pcg_xsl_rr_128_64EEEEEED0Ev, ptr @_ZN7testing8internal15TestFactoryImplIN12_GLOBAL__N_138PCGEngineTest_StreamSerialization_TestIN4absl15random_internal10pcg_engineINS5_13pcg128_paramsILm2549297995355413924ELm4865540595714422341ELm6364136223846793005ELm1442695040888963407EEENS5_17pcg_xsl_rr_128_64EEEEEE10CreateTestEv] }, align 8
@_ZTSN7testing8internal15TestFactoryImplIN12_GLOBAL__N_138PCGEngineTest_StreamSerialization_TestIN4absl15random_internal10pcg_engineINS5_13pcg128_paramsILm2549297995355413924ELm4865540595714422341ELm6364136223846793005ELm1442695040888963407EEENS5_17pcg_xsl_rr_128_64EEEEEEE = internal constant [269 x i8] c"N7testing8internal15TestFactoryImplIN12_GLOBAL__N_138PCGEngineTest_StreamSerialization_TestIN4absl15random_internal10pcg_engineINS5_13pcg128_paramsILm2549297995355413924ELm4865540595714422341ELm6364136223846793005ELm1442695040888963407EEENS5_17pcg_xsl_rr_128_64EEEEEEE\00", align 1
@_ZTIN7testing8internal15TestFactoryImplIN12_GLOBAL__N_138PCGEngineTest_StreamSerialization_TestIN4absl15random_internal10pcg_engineINS5_13pcg128_paramsILm2549297995355413924ELm4865540595714422341ELm6364136223846793005ELm1442695040888963407EEENS5_17pcg_xsl_rr_128_64EEEEEEE = internal constant { ptr, ptr, ptr } { ptr getelementptr inbounds (ptr, ptr @_ZTVN10__cxxabiv120__si_class_type_infoE, i64 2), ptr @_ZTSN7testing8internal15TestFactoryImplIN12_GLOBAL__N_138PCGEngineTest_StreamSerialization_TestIN4absl15random_internal10pcg_engineINS5_13pcg128_paramsILm2549297995355413924ELm4865540595714422341ELm6364136223846793005ELm1442695040888963407EEENS5_17pcg_xsl_rr_128_64EEEEEEE, ptr @_ZTIN7testing8internal15TestFactoryBaseE }, align 8
@_ZTVN12_GLOBAL__N_138PCGEngineTest_StreamSerialization_TestIN4absl15random_internal10pcg_engineINS2_13pcg128_paramsILm2549297995355413924ELm4865540595714422341ELm6364136223846793005ELm1442695040888963407EEENS2_17pcg_xsl_rr_128_64EEEEE = internal unnamed_addr constant { [8 x ptr] } { [8 x ptr] [ptr null, ptr @_ZTIN12_GLOBAL__N_138PCGEngineTest_StreamSerialization_TestIN4absl15random_internal10pcg_engineINS2_13pcg128_paramsILm2549297995355413924ELm4865540595714422341ELm6364136223846793005ELm1442695040888963407EEENS2_17pcg_xsl_rr_128_64EEEEE, ptr @_ZN12_GLOBAL__N_138PCGEngineTest_StreamSerialization_TestIN4absl15random_internal10pcg_engineINS2_13pcg128_paramsILm2549297995355413924ELm4865540595714422341ELm6364136223846793005ELm1442695040888963407EEENS2_17pcg_xsl_rr_128_64EEEED2Ev, ptr @_ZN12_GLOBAL__N_138PCGEngineTest_StreamSerialization_TestIN4absl15random_internal10pcg_engineINS2_13pcg128_paramsILm2549297995355413924ELm4865540595714422341ELm6364136223846793005ELm1442695040888963407EEENS2_17pcg_xsl_rr_128_64EEEED0Ev, ptr @_ZN7testing4Test5SetUpEv, ptr @_ZN7testing4Test8TearDownEv, ptr @_ZN12_GLOBAL__N_138PCGEngineTest_StreamSerialization_TestIN4absl15random_internal10pcg_engineINS2_13pcg128_paramsILm2549297995355413924ELm4865540595714422341ELm6364136223846793005ELm1442695040888963407EEENS2_17pcg_xsl_rr_128_64EEEE8TestBodyEv, ptr @_ZN7testing4Test5SetupEv] }, align 8
@_ZTSN12_GLOBAL__N_138PCGEngineTest_StreamSerialization_TestIN4absl15random_internal10pcg_engineINS2_13pcg128_paramsILm2549297995355413924ELm4865540595714422341ELm6364136223846793005ELm1442695040888963407EEENS2_17pcg_xsl_rr_128_64EEEEE = internal constant [231 x i8] c"N12_GLOBAL__N_138PCGEngineTest_StreamSerialization_TestIN4absl15random_internal10pcg_engineINS2_13pcg128_paramsILm2549297995355413924ELm4865540595714422341ELm6364136223846793005ELm1442695040888963407EEENS2_17pcg_xsl_rr_128_64EEEEE\00", align 1
@_ZTIN12_GLOBAL__N_138PCGEngineTest_StreamSerialization_TestIN4absl15random_internal10pcg_engineINS2_13pcg128_paramsILm2549297995355413924ELm4865540595714422341ELm6364136223846793005ELm1442695040888963407EEENS2_17pcg_xsl_rr_128_64EEEEE = internal constant { ptr, ptr, ptr } { ptr getelementptr inbounds (ptr, ptr @_ZTVN10__cxxabiv120__si_class_type_infoE, i64 2), ptr @_ZTSN12_GLOBAL__N_138PCGEngineTest_StreamSerialization_TestIN4absl15random_internal10pcg_engineINS2_13pcg128_paramsILm2549297995355413924ELm4865540595714422341ELm6364136223846793005ELm1442695040888963407EEENS2_17pcg_xsl_rr_128_64EEEEE, ptr @_ZTIN12_GLOBAL__N_113PCGEngineTestIN4absl15random_internal10pcg_engineINS2_13pcg128_paramsILm2549297995355413924ELm4865540595714422341ELm6364136223846793005ELm1442695040888963407EEENS2_17pcg_xsl_rr_128_64EEEEE }, align 8
@.str.68 = private unnamed_addr constant [13 x i8] c"new_engine()\00", align 1
@.str.69 = private unnamed_addr constant [2 x i8] c" \00", align 1
@_ZTVN7testing8internal15TestFactoryImplIN12_GLOBAL__N_138PCGEngineTest_StreamSerialization_TestIN4absl15random_internal10pcg_engineINS5_12pcg64_paramsILm6364136223846793005ELm1442695040888963407EEENS5_16pcg_xsh_rr_64_32EEEEEEE = internal unnamed_addr constant { [5 x ptr] } { [5 x ptr] [ptr null, ptr @_ZTIN7testing8internal15TestFactoryImplIN12_GLOBAL__N_138PCGEngineTest_StreamSerialization_TestIN4absl15random_internal10pcg_engineINS5_12pcg64_paramsILm6364136223846793005ELm1442695040888963407EEENS5_16pcg_xsh_rr_64_32EEEEEEE, ptr @_ZN7testing8internal15TestFactoryImplIN12_GLOBAL__N_138PCGEngineTest_StreamSerialization_TestIN4absl15random_internal10pcg_engineINS5_12pcg64_paramsILm6364136223846793005ELm1442695040888963407EEENS5_16pcg_xsh_rr_64_32EEEEEED2Ev, ptr @_ZN7testing8internal15TestFactoryImplIN12_GLOBAL__N_138PCGEngineTest_StreamSerialization_TestIN4absl15random_internal10pcg_engineINS5_12pcg64_paramsILm6364136223846793005ELm1442695040888963407EEENS5_16pcg_xsh_rr_64_32EEEEEED0Ev, ptr @_ZN7testing8internal15TestFactoryImplIN12_GLOBAL__N_138PCGEngineTest_StreamSerialization_TestIN4absl15random_internal10pcg_engineINS5_12pcg64_paramsILm6364136223846793005ELm1442695040888963407EEENS5_16pcg_xsh_rr_64_32EEEEEE10CreateTestEv] }, align 8
@_ZTSN7testing8internal15TestFactoryImplIN12_GLOBAL__N_138PCGEngineTest_StreamSerialization_TestIN4absl15random_internal10pcg_engineINS5_12pcg64_paramsILm6364136223846793005ELm1442695040888963407EEENS5_16pcg_xsh_rr_64_32EEEEEEE = internal constant [223 x i8] c"N7testing8internal15TestFactoryImplIN12_GLOBAL__N_138PCGEngineTest_StreamSerialization_TestIN4absl15random_internal10pcg_engineINS5_12pcg64_paramsILm6364136223846793005ELm1442695040888963407EEENS5_16pcg_xsh_rr_64_32EEEEEEE\00", align 1
@_ZTIN7testing8internal15TestFactoryImplIN12_GLOBAL__N_138PCGEngineTest_StreamSerialization_TestIN4absl15random_internal10pcg_engineINS5_12pcg64_paramsILm6364136223846793005ELm1442695040888963407EEENS5_16pcg_xsh_rr_64_32EEEEEEE = internal constant { ptr, ptr, ptr } { ptr getelementptr inbounds (ptr, ptr @_ZTVN10__cxxabiv120__si_class_type_infoE, i64 2), ptr @_ZTSN7testing8internal15TestFactoryImplIN12_GLOBAL__N_138PCGEngineTest_StreamSerialization_TestIN4absl15random_internal10pcg_engineINS5_12pcg64_paramsILm6364136223846793005ELm1442695040888963407EEENS5_16pcg_xsh_rr_64_32EEEEEEE, ptr @_ZTIN7testing8internal15TestFactoryBaseE }, align 8
@_ZTVN12_GLOBAL__N_138PCGEngineTest_StreamSerialization_TestIN4absl15random_internal10pcg_engineINS2_12pcg64_paramsILm6364136223846793005ELm1442695040888963407EEENS2_16pcg_xsh_rr_64_32EEEEE = internal unnamed_addr constant { [8 x ptr] } { [8 x ptr] [ptr null, ptr @_ZTIN12_GLOBAL__N_138PCGEngineTest_StreamSerialization_TestIN4absl15random_internal10pcg_engineINS2_12pcg64_paramsILm6364136223846793005ELm1442695040888963407EEENS2_16pcg_xsh_rr_64_32EEEEE, ptr @_ZN12_GLOBAL__N_138PCGEngineTest_StreamSerialization_TestIN4absl15random_internal10pcg_engineINS2_12pcg64_paramsILm6364136223846793005ELm1442695040888963407EEENS2_16pcg_xsh_rr_64_32EEEED2Ev, ptr @_ZN12_GLOBAL__N_138PCGEngineTest_StreamSerialization_TestIN4absl15random_internal10pcg_engineINS2_12pcg64_paramsILm6364136223846793005ELm1442695040888963407EEENS2_16pcg_xsh_rr_64_32EEEED0Ev, ptr @_ZN7testing4Test5SetUpEv, ptr @_ZN7testing4Test8TearDownEv, ptr @_ZN12_GLOBAL__N_138PCGEngineTest_StreamSerialization_TestIN4absl15random_internal10pcg_engineINS2_12pcg64_paramsILm6364136223846793005ELm1442695040888963407EEENS2_16pcg_xsh_rr_64_32EEEE8TestBodyEv, ptr @_ZN7testing4Test5SetupEv] }, align 8
@_ZTSN12_GLOBAL__N_138PCGEngineTest_StreamSerialization_TestIN4absl15random_internal10pcg_engineINS2_12pcg64_paramsILm6364136223846793005ELm1442695040888963407EEENS2_16pcg_xsh_rr_64_32EEEEE = internal constant [185 x i8] c"N12_GLOBAL__N_138PCGEngineTest_StreamSerialization_TestIN4absl15random_internal10pcg_engineINS2_12pcg64_paramsILm6364136223846793005ELm1442695040888963407EEENS2_16pcg_xsh_rr_64_32EEEEE\00", align 1
@_ZTIN12_GLOBAL__N_138PCGEngineTest_StreamSerialization_TestIN4absl15random_internal10pcg_engineINS2_12pcg64_paramsILm6364136223846793005ELm1442695040888963407EEENS2_16pcg_xsh_rr_64_32EEEEE = internal constant { ptr, ptr, ptr } { ptr getelementptr inbounds (ptr, ptr @_ZTVN10__cxxabiv120__si_class_type_infoE, i64 2), ptr @_ZTSN12_GLOBAL__N_138PCGEngineTest_StreamSerialization_TestIN4absl15random_internal10pcg_engineINS2_12pcg64_paramsILm6364136223846793005ELm1442695040888963407EEENS2_16pcg_xsh_rr_64_32EEEEE, ptr @_ZTIN12_GLOBAL__N_113PCGEngineTestIN4absl15random_internal10pcg_engineINS2_12pcg64_paramsILm6364136223846793005ELm1442695040888963407EEENS2_16pcg_xsh_rr_64_32EEEEE }, align 8
@_ZTVN7testing8internal15TestFactoryImplIN12_GLOBAL__N_146PCGEngineTest_RandomNumberEngineInterface_TestIN4absl15random_internal10pcg_engineINS5_13pcg128_paramsILm2549297995355413924ELm4865540595714422341ELm6364136223846793005ELm1442695040888963407EEENS5_17pcg_xsl_rr_128_64EEEEEEE = internal unnamed_addr constant { [5 x ptr] } { [5 x ptr] [ptr null, ptr @_ZTIN7testing8internal15TestFactoryImplIN12_GLOBAL__N_146PCGEngineTest_RandomNumberEngineInterface_TestIN4absl15random_internal10pcg_engineINS5_13pcg128_paramsILm2549297995355413924ELm4865540595714422341ELm6364136223846793005ELm1442695040888963407EEENS5_17pcg_xsl_rr_128_64EEEEEEE, ptr @_ZN7testing8internal15TestFactoryImplIN12_GLOBAL__N_146PCGEngineTest_RandomNumberEngineInterface_TestIN4absl15random_internal10pcg_engineINS5_13pcg128_paramsILm2549297995355413924ELm4865540595714422341ELm6364136223846793005ELm1442695040888963407EEENS5_17pcg_xsl_rr_128_64EEEEEED2Ev, ptr @_ZN7testing8internal15TestFactoryImplIN12_GLOBAL__N_146PCGEngineTest_RandomNumberEngineInterface_TestIN4absl15random_internal10pcg_engineINS5_13pcg128_paramsILm2549297995355413924ELm4865540595714422341ELm6364136223846793005ELm1442695040888963407EEENS5_17pcg_xsl_rr_128_64EEEEEED0Ev, ptr @_ZN7testing8internal15TestFactoryImplIN12_GLOBAL__N_146PCGEngineTest_RandomNumberEngineInterface_TestIN4absl15random_internal10pcg_engineINS5_13pcg128_paramsILm2549297995355413924ELm4865540595714422341ELm6364136223846793005ELm1442695040888963407EEENS5_17pcg_xsl_rr_128_64EEEEEE10CreateTestEv] }, align 8
@_ZTSN7testing8internal15TestFactoryImplIN12_GLOBAL__N_146PCGEngineTest_RandomNumberEngineInterface_TestIN4absl15random_internal10pcg_engineINS5_13pcg128_paramsILm2549297995355413924ELm4865540595714422341ELm6364136223846793005ELm1442695040888963407EEENS5_17pcg_xsl_rr_128_64EEEEEEE = internal constant [277 x i8] c"N7testing8internal15TestFactoryImplIN12_GLOBAL__N_146PCGEngineTest_RandomNumberEngineInterface_TestIN4absl15random_internal10pcg_engineINS5_13pcg128_paramsILm2549297995355413924ELm4865540595714422341ELm6364136223846793005ELm1442695040888963407EEENS5_17pcg_xsl_rr_128_64EEEEEEE\00", align 1
@_ZTIN7testing8internal15TestFactoryImplIN12_GLOBAL__N_146PCGEngineTest_RandomNumberEngineInterface_TestIN4absl15random_internal10pcg_engineINS5_13pcg128_paramsILm2549297995355413924ELm4865540595714422341ELm6364136223846793005ELm1442695040888963407EEENS5_17pcg_xsl_rr_128_64EEEEEEE = internal constant { ptr, ptr, ptr } { ptr getelementptr inbounds (ptr, ptr @_ZTVN10__cxxabiv120__si_class_type_infoE, i64 2), ptr @_ZTSN7testing8internal15TestFactoryImplIN12_GLOBAL__N_146PCGEngineTest_RandomNumberEngineInterface_TestIN4absl15random_internal10pcg_engineINS5_13pcg128_paramsILm2549297995355413924ELm4865540595714422341ELm6364136223846793005ELm1442695040888963407EEENS5_17pcg_xsl_rr_128_64EEEEEEE, ptr @_ZTIN7testing8internal15TestFactoryBaseE }, align 8
@_ZTVN12_GLOBAL__N_146PCGEngineTest_RandomNumberEngineInterface_TestIN4absl15random_internal10pcg_engineINS2_13pcg128_paramsILm2549297995355413924ELm4865540595714422341ELm6364136223846793005ELm1442695040888963407EEENS2_17pcg_xsl_rr_128_64EEEEE = internal unnamed_addr constant { [8 x ptr] } { [8 x ptr] [ptr null, ptr @_ZTIN12_GLOBAL__N_146PCGEngineTest_RandomNumberEngineInterface_TestIN4absl15random_internal10pcg_engineINS2_13pcg128_paramsILm2549297995355413924ELm4865540595714422341ELm6364136223846793005ELm1442695040888963407EEENS2_17pcg_xsl_rr_128_64EEEEE, ptr @_ZN12_GLOBAL__N_146PCGEngineTest_RandomNumberEngineInterface_TestIN4absl15random_internal10pcg_engineINS2_13pcg128_paramsILm2549297995355413924ELm4865540595714422341ELm6364136223846793005ELm1442695040888963407EEENS2_17pcg_xsl_rr_128_64EEEED2Ev, ptr @_ZN12_GLOBAL__N_146PCGEngineTest_RandomNumberEngineInterface_TestIN4absl15random_internal10pcg_engineINS2_13pcg128_paramsILm2549297995355413924ELm4865540595714422341ELm6364136223846793005ELm1442695040888963407EEENS2_17pcg_xsl_rr_128_64EEEED0Ev, ptr @_ZN7testing4Test5SetUpEv, ptr @_ZN7testing4Test8TearDownEv, ptr @_ZN12_GLOBAL__N_146PCGEngineTest_RandomNumberEngineInterface_TestIN4absl15random_internal10pcg_engineINS2_13pcg128_paramsILm2549297995355413924ELm4865540595714422341ELm6364136223846793005ELm1442695040888963407EEENS2_17pcg_xsl_rr_128_64EEEE8TestBodyEv, ptr @_ZN7testing4Test5SetupEv] }, align 8
@_ZTSN12_GLOBAL__N_146PCGEngineTest_RandomNumberEngineInterface_TestIN4absl15random_internal10pcg_engineINS2_13pcg128_paramsILm2549297995355413924ELm4865540595714422341ELm6364136223846793005ELm1442695040888963407EEENS2_17pcg_xsl_rr_128_64EEEEE = internal constant [239 x i8] c"N12_GLOBAL__N_146PCGEngineTest_RandomNumberEngineInterface_TestIN4absl15random_internal10pcg_engineINS2_13pcg128_paramsILm2549297995355413924ELm4865540595714422341ELm6364136223846793005ELm1442695040888963407EEENS2_17pcg_xsl_rr_128_64EEEEE\00", align 1
@_ZTIN12_GLOBAL__N_146PCGEngineTest_RandomNumberEngineInterface_TestIN4absl15random_internal10pcg_engineINS2_13pcg128_paramsILm2549297995355413924ELm4865540595714422341ELm6364136223846793005ELm1442695040888963407EEENS2_17pcg_xsl_rr_128_64EEEEE = internal constant { ptr, ptr, ptr } { ptr getelementptr inbounds (ptr, ptr @_ZTVN10__cxxabiv120__si_class_type_infoE, i64 2), ptr @_ZTSN12_GLOBAL__N_146PCGEngineTest_RandomNumberEngineInterface_TestIN4absl15random_internal10pcg_engineINS2_13pcg128_paramsILm2549297995355413924ELm4865540595714422341ELm6364136223846793005ELm1442695040888963407EEENS2_17pcg_xsl_rr_128_64EEEEE, ptr @_ZTIN12_GLOBAL__N_113PCGEngineTestIN4absl15random_internal10pcg_engineINS2_13pcg128_paramsILm2549297995355413924ELm4865540595714422341ELm6364136223846793005ELm1442695040888963407EEENS2_17pcg_xsl_rr_128_64EEEEE }, align 8
@.str.71 = private unnamed_addr constant [6 x i8] c"false\00", align 1
@.str.72 = private unnamed_addr constant [5 x i8] c"true\00", align 1
@.str.73 = private unnamed_addr constant [9 x i8] c"e == tmp\00", align 1
@.str.74 = private unnamed_addr constant [9 x i8] c"e != tmp\00", align 1
@_ZTVN7testing8internal15TestFactoryImplIN12_GLOBAL__N_146PCGEngineTest_RandomNumberEngineInterface_TestIN4absl15random_internal10pcg_engineINS5_12pcg64_paramsILm6364136223846793005ELm1442695040888963407EEENS5_16pcg_xsh_rr_64_32EEEEEEE = internal unnamed_addr constant { [5 x ptr] } { [5 x ptr] [ptr null, ptr @_ZTIN7testing8internal15TestFactoryImplIN12_GLOBAL__N_146PCGEngineTest_RandomNumberEngineInterface_TestIN4absl15random_internal10pcg_engineINS5_12pcg64_paramsILm6364136223846793005ELm1442695040888963407EEENS5_16pcg_xsh_rr_64_32EEEEEEE, ptr @_ZN7testing8internal15TestFactoryImplIN12_GLOBAL__N_146PCGEngineTest_RandomNumberEngineInterface_TestIN4absl15random_internal10pcg_engineINS5_12pcg64_paramsILm6364136223846793005ELm1442695040888963407EEENS5_16pcg_xsh_rr_64_32EEEEEED2Ev, ptr @_ZN7testing8internal15TestFactoryImplIN12_GLOBAL__N_146PCGEngineTest_RandomNumberEngineInterface_TestIN4absl15random_internal10pcg_engineINS5_12pcg64_paramsILm6364136223846793005ELm1442695040888963407EEENS5_16pcg_xsh_rr_64_32EEEEEED0Ev, ptr @_ZN7testing8internal15TestFactoryImplIN12_GLOBAL__N_146PCGEngineTest_RandomNumberEngineInterface_TestIN4absl15random_internal10pcg_engineINS5_12pcg64_paramsILm6364136223846793005ELm1442695040888963407EEENS5_16pcg_xsh_rr_64_32EEEEEE10CreateTestEv] }, align 8
@_ZTSN7testing8internal15TestFactoryImplIN12_GLOBAL__N_146PCGEngineTest_RandomNumberEngineInterface_TestIN4absl15random_internal10pcg_engineINS5_12pcg64_paramsILm6364136223846793005ELm1442695040888963407EEENS5_16pcg_xsh_rr_64_32EEEEEEE = internal constant [231 x i8] c"N7testing8internal15TestFactoryImplIN12_GLOBAL__N_146PCGEngineTest_RandomNumberEngineInterface_TestIN4absl15random_internal10pcg_engineINS5_12pcg64_paramsILm6364136223846793005ELm1442695040888963407EEENS5_16pcg_xsh_rr_64_32EEEEEEE\00", align 1
@_ZTIN7testing8internal15TestFactoryImplIN12_GLOBAL__N_146PCGEngineTest_RandomNumberEngineInterface_TestIN4absl15random_internal10pcg_engineINS5_12pcg64_paramsILm6364136223846793005ELm1442695040888963407EEENS5_16pcg_xsh_rr_64_32EEEEEEE = internal constant { ptr, ptr, ptr } { ptr getelementptr inbounds (ptr, ptr @_ZTVN10__cxxabiv120__si_class_type_infoE, i64 2), ptr @_ZTSN7testing8internal15TestFactoryImplIN12_GLOBAL__N_146PCGEngineTest_RandomNumberEngineInterface_TestIN4absl15random_internal10pcg_engineINS5_12pcg64_paramsILm6364136223846793005ELm1442695040888963407EEENS5_16pcg_xsh_rr_64_32EEEEEEE, ptr @_ZTIN7testing8internal15TestFactoryBaseE }, align 8
@_ZTVN12_GLOBAL__N_146PCGEngineTest_RandomNumberEngineInterface_TestIN4absl15random_internal10pcg_engineINS2_12pcg64_paramsILm6364136223846793005ELm1442695040888963407EEENS2_16pcg_xsh_rr_64_32EEEEE = internal unnamed_addr constant { [8 x ptr] } { [8 x ptr] [ptr null, ptr @_ZTIN12_GLOBAL__N_146PCGEngineTest_RandomNumberEngineInterface_TestIN4absl15random_internal10pcg_engineINS2_12pcg64_paramsILm6364136223846793005ELm1442695040888963407EEENS2_16pcg_xsh_rr_64_32EEEEE, ptr @_ZN12_GLOBAL__N_146PCGEngineTest_RandomNumberEngineInterface_TestIN4absl15random_internal10pcg_engineINS2_12pcg64_paramsILm6364136223846793005ELm1442695040888963407EEENS2_16pcg_xsh_rr_64_32EEEED2Ev, ptr @_ZN12_GLOBAL__N_146PCGEngineTest_RandomNumberEngineInterface_TestIN4absl15random_internal10pcg_engineINS2_12pcg64_paramsILm6364136223846793005ELm1442695040888963407EEENS2_16pcg_xsh_rr_64_32EEEED0Ev, ptr @_ZN7testing4Test5SetUpEv, ptr @_ZN7testing4Test8TearDownEv, ptr @_ZN12_GLOBAL__N_146PCGEngineTest_RandomNumberEngineInterface_TestIN4absl15random_internal10pcg_engineINS2_12pcg64_paramsILm6364136223846793005ELm1442695040888963407EEENS2_16pcg_xsh_rr_64_32EEEE8TestBodyEv, ptr @_ZN7testing4Test5SetupEv] }, align 8
@_ZTSN12_GLOBAL__N_146PCGEngineTest_RandomNumberEngineInterface_TestIN4absl15random_internal10pcg_engineINS2_12pcg64_paramsILm6364136223846793005ELm1442695040888963407EEENS2_16pcg_xsh_rr_64_32EEEEE = internal constant [193 x i8] c"N12_GLOBAL__N_146PCGEngineTest_RandomNumberEngineInterface_TestIN4absl15random_internal10pcg_engineINS2_12pcg64_paramsILm6364136223846793005ELm1442695040888963407EEENS2_16pcg_xsh_rr_64_32EEEEE\00", align 1
@_ZTIN12_GLOBAL__N_146PCGEngineTest_RandomNumberEngineInterface_TestIN4absl15random_internal10pcg_engineINS2_12pcg64_paramsILm6364136223846793005ELm1442695040888963407EEENS2_16pcg_xsh_rr_64_32EEEEE = internal constant { ptr, ptr, ptr } { ptr getelementptr inbounds (ptr, ptr @_ZTVN10__cxxabiv120__si_class_type_infoE, i64 2), ptr @_ZTSN12_GLOBAL__N_146PCGEngineTest_RandomNumberEngineInterface_TestIN4absl15random_internal10pcg_engineINS2_12pcg64_paramsILm6364136223846793005ELm1442695040888963407EEENS2_16pcg_xsh_rr_64_32EEEEE, ptr @_ZTIN12_GLOBAL__N_113PCGEngineTestIN4absl15random_internal10pcg_engineINS2_12pcg64_paramsILm6364136223846793005ELm1442695040888963407EEENS2_16pcg_xsh_rr_64_32EEEEE }, align 8
@_ZTVN7testing8internal15TestFactoryImplIN12_GLOBAL__N_141PCGEngineTest_RandenEngineSFINAETest_TestIN4absl15random_internal10pcg_engineINS5_13pcg128_paramsILm2549297995355413924ELm4865540595714422341ELm6364136223846793005ELm1442695040888963407EEENS5_17pcg_xsl_rr_128_64EEEEEEE = internal unnamed_addr constant { [5 x ptr] } { [5 x ptr] [ptr null, ptr @_ZTIN7testing8internal15TestFactoryImplIN12_GLOBAL__N_141PCGEngineTest_RandenEngineSFINAETest_TestIN4absl15random_internal10pcg_engineINS5_13pcg128_paramsILm2549297995355413924ELm4865540595714422341ELm6364136223846793005ELm1442695040888963407EEENS5_17pcg_xsl_rr_128_64EEEEEEE, ptr @_ZN7testing8internal15TestFactoryImplIN12_GLOBAL__N_141PCGEngineTest_RandenEngineSFINAETest_TestIN4absl15random_internal10pcg_engineINS5_13pcg128_paramsILm2549297995355413924ELm4865540595714422341ELm6364136223846793005ELm1442695040888963407EEENS5_17pcg_xsl_rr_128_64EEEEEED2Ev, ptr @_ZN7testing8internal15TestFactoryImplIN12_GLOBAL__N_141PCGEngineTest_RandenEngineSFINAETest_TestIN4absl15random_internal10pcg_engineINS5_13pcg128_paramsILm2549297995355413924ELm4865540595714422341ELm6364136223846793005ELm1442695040888963407EEENS5_17pcg_xsl_rr_128_64EEEEEED0Ev, ptr @_ZN7testing8internal15TestFactoryImplIN12_GLOBAL__N_141PCGEngineTest_RandenEngineSFINAETest_TestIN4absl15random_internal10pcg_engineINS5_13pcg128_paramsILm2549297995355413924ELm4865540595714422341ELm6364136223846793005ELm1442695040888963407EEENS5_17pcg_xsl_rr_128_64EEEEEE10CreateTestEv] }, align 8
@_ZTSN7testing8internal15TestFactoryImplIN12_GLOBAL__N_141PCGEngineTest_RandenEngineSFINAETest_TestIN4absl15random_internal10pcg_engineINS5_13pcg128_paramsILm2549297995355413924ELm4865540595714422341ELm6364136223846793005ELm1442695040888963407EEENS5_17pcg_xsl_rr_128_64EEEEEEE = internal constant [272 x i8] c"N7testing8internal15TestFactoryImplIN12_GLOBAL__N_141PCGEngineTest_RandenEngineSFINAETest_TestIN4absl15random_internal10pcg_engineINS5_13pcg128_paramsILm2549297995355413924ELm4865540595714422341ELm6364136223846793005ELm1442695040888963407EEENS5_17pcg_xsl_rr_128_64EEEEEEE\00", align 1
@_ZTIN7testing8internal15TestFactoryImplIN12_GLOBAL__N_141PCGEngineTest_RandenEngineSFINAETest_TestIN4absl15random_internal10pcg_engineINS5_13pcg128_paramsILm2549297995355413924ELm4865540595714422341ELm6364136223846793005ELm1442695040888963407EEENS5_17pcg_xsl_rr_128_64EEEEEEE = internal constant { ptr, ptr, ptr } { ptr getelementptr inbounds (ptr, ptr @_ZTVN10__cxxabiv120__si_class_type_infoE, i64 2), ptr @_ZTSN7testing8internal15TestFactoryImplIN12_GLOBAL__N_141PCGEngineTest_RandenEngineSFINAETest_TestIN4absl15random_internal10pcg_engineINS5_13pcg128_paramsILm2549297995355413924ELm4865540595714422341ELm6364136223846793005ELm1442695040888963407EEENS5_17pcg_xsl_rr_128_64EEEEEEE, ptr @_ZTIN7testing8internal15TestFactoryBaseE }, align 8
@_ZTVN12_GLOBAL__N_141PCGEngineTest_RandenEngineSFINAETest_TestIN4absl15random_internal10pcg_engineINS2_13pcg128_paramsILm2549297995355413924ELm4865540595714422341ELm6364136223846793005ELm1442695040888963407EEENS2_17pcg_xsl_rr_128_64EEEEE = internal unnamed_addr constant { [8 x ptr] } { [8 x ptr] [ptr null, ptr @_ZTIN12_GLOBAL__N_141PCGEngineTest_RandenEngineSFINAETest_TestIN4absl15random_internal10pcg_engineINS2_13pcg128_paramsILm2549297995355413924ELm4865540595714422341ELm6364136223846793005ELm1442695040888963407EEENS2_17pcg_xsl_rr_128_64EEEEE, ptr @_ZN12_GLOBAL__N_141PCGEngineTest_RandenEngineSFINAETest_TestIN4absl15random_internal10pcg_engineINS2_13pcg128_paramsILm2549297995355413924ELm4865540595714422341ELm6364136223846793005ELm1442695040888963407EEENS2_17pcg_xsl_rr_128_64EEEED2Ev, ptr @_ZN12_GLOBAL__N_141PCGEngineTest_RandenEngineSFINAETest_TestIN4absl15random_internal10pcg_engineINS2_13pcg128_paramsILm2549297995355413924ELm4865540595714422341ELm6364136223846793005ELm1442695040888963407EEENS2_17pcg_xsl_rr_128_64EEEED0Ev, ptr @_ZN7testing4Test5SetUpEv, ptr @_ZN7testing4Test8TearDownEv, ptr @_ZN12_GLOBAL__N_141PCGEngineTest_RandenEngineSFINAETest_TestIN4absl15random_internal10pcg_engineINS2_13pcg128_paramsILm2549297995355413924ELm4865540595714422341ELm6364136223846793005ELm1442695040888963407EEENS2_17pcg_xsl_rr_128_64EEEE8TestBodyEv, ptr @_ZN7testing4Test5SetupEv] }, align 8
@_ZTSN12_GLOBAL__N_141PCGEngineTest_RandenEngineSFINAETest_TestIN4absl15random_internal10pcg_engineINS2_13pcg128_paramsILm2549297995355413924ELm4865540595714422341ELm6364136223846793005ELm1442695040888963407EEENS2_17pcg_xsl_rr_128_64EEEEE = internal constant [234 x i8] c"N12_GLOBAL__N_141PCGEngineTest_RandenEngineSFINAETest_TestIN4absl15random_internal10pcg_engineINS2_13pcg128_paramsILm2549297995355413924ELm4865540595714422341ELm6364136223846793005ELm1442695040888963407EEENS2_17pcg_xsl_rr_128_64EEEEE\00", align 1
@_ZTIN12_GLOBAL__N_141PCGEngineTest_RandenEngineSFINAETest_TestIN4absl15random_internal10pcg_engineINS2_13pcg128_paramsILm2549297995355413924ELm4865540595714422341ELm6364136223846793005ELm1442695040888963407EEENS2_17pcg_xsl_rr_128_64EEEEE = internal constant { ptr, ptr, ptr } { ptr getelementptr inbounds (ptr, ptr @_ZTVN10__cxxabiv120__si_class_type_infoE, i64 2), ptr @_ZTSN12_GLOBAL__N_141PCGEngineTest_RandenEngineSFINAETest_TestIN4absl15random_internal10pcg_engineINS2_13pcg128_paramsILm2549297995355413924ELm4865540595714422341ELm6364136223846793005ELm1442695040888963407EEENS2_17pcg_xsl_rr_128_64EEEEE, ptr @_ZTIN12_GLOBAL__N_113PCGEngineTestIN4absl15random_internal10pcg_engineINS2_13pcg128_paramsILm2549297995355413924ELm4865540595714422341ELm6364136223846793005ELm1442695040888963407EEENS2_17pcg_xsl_rr_128_64EEEEE }, align 8
@_ZTVN7testing8internal15TestFactoryImplIN12_GLOBAL__N_141PCGEngineTest_RandenEngineSFINAETest_TestIN4absl15random_internal10pcg_engineINS5_12pcg64_paramsILm6364136223846793005ELm1442695040888963407EEENS5_16pcg_xsh_rr_64_32EEEEEEE = internal unnamed_addr constant { [5 x ptr] } { [5 x ptr] [ptr null, ptr @_ZTIN7testing8internal15TestFactoryImplIN12_GLOBAL__N_141PCGEngineTest_RandenEngineSFINAETest_TestIN4absl15random_internal10pcg_engineINS5_12pcg64_paramsILm6364136223846793005ELm1442695040888963407EEENS5_16pcg_xsh_rr_64_32EEEEEEE, ptr @_ZN7testing8internal15TestFactoryImplIN12_GLOBAL__N_141PCGEngineTest_RandenEngineSFINAETest_TestIN4absl15random_internal10pcg_engineINS5_12pcg64_paramsILm6364136223846793005ELm1442695040888963407EEENS5_16pcg_xsh_rr_64_32EEEEEED2Ev, ptr @_ZN7testing8internal15TestFactoryImplIN12_GLOBAL__N_141PCGEngineTest_RandenEngineSFINAETest_TestIN4absl15random_internal10pcg_engineINS5_12pcg64_paramsILm6364136223846793005ELm1442695040888963407EEENS5_16pcg_xsh_rr_64_32EEEEEED0Ev, ptr @_ZN7testing8internal15TestFactoryImplIN12_GLOBAL__N_141PCGEngineTest_RandenEngineSFINAETest_TestIN4absl15random_internal10pcg_engineINS5_12pcg64_paramsILm6364136223846793005ELm1442695040888963407EEENS5_16pcg_xsh_rr_64_32EEEEEE10CreateTestEv] }, align 8
@_ZTSN7testing8internal15TestFactoryImplIN12_GLOBAL__N_141PCGEngineTest_RandenEngineSFINAETest_TestIN4absl15random_internal10pcg_engineINS5_12pcg64_paramsILm6364136223846793005ELm1442695040888963407EEENS5_16pcg_xsh_rr_64_32EEEEEEE = internal constant [226 x i8] c"N7testing8internal15TestFactoryImplIN12_GLOBAL__N_141PCGEngineTest_RandenEngineSFINAETest_TestIN4absl15random_internal10pcg_engineINS5_12pcg64_paramsILm6364136223846793005ELm1442695040888963407EEENS5_16pcg_xsh_rr_64_32EEEEEEE\00", align 1
@_ZTIN7testing8internal15TestFactoryImplIN12_GLOBAL__N_141PCGEngineTest_RandenEngineSFINAETest_TestIN4absl15random_internal10pcg_engineINS5_12pcg64_paramsILm6364136223846793005ELm1442695040888963407EEENS5_16pcg_xsh_rr_64_32EEEEEEE = internal constant { ptr, ptr, ptr } { ptr getelementptr inbounds (ptr, ptr @_ZTVN10__cxxabiv120__si_class_type_infoE, i64 2), ptr @_ZTSN7testing8internal15TestFactoryImplIN12_GLOBAL__N_141PCGEngineTest_RandenEngineSFINAETest_TestIN4absl15random_internal10pcg_engineINS5_12pcg64_paramsILm6364136223846793005ELm1442695040888963407EEENS5_16pcg_xsh_rr_64_32EEEEEEE, ptr @_ZTIN7testing8internal15TestFactoryBaseE }, align 8
@_ZTVN12_GLOBAL__N_141PCGEngineTest_RandenEngineSFINAETest_TestIN4absl15random_internal10pcg_engineINS2_12pcg64_paramsILm6364136223846793005ELm1442695040888963407EEENS2_16pcg_xsh_rr_64_32EEEEE = internal unnamed_addr constant { [8 x ptr] } { [8 x ptr] [ptr null, ptr @_ZTIN12_GLOBAL__N_141PCGEngineTest_RandenEngineSFINAETest_TestIN4absl15random_internal10pcg_engineINS2_12pcg64_paramsILm6364136223846793005ELm1442695040888963407EEENS2_16pcg_xsh_rr_64_32EEEEE, ptr @_ZN12_GLOBAL__N_141PCGEngineTest_RandenEngineSFINAETest_TestIN4absl15random_internal10pcg_engineINS2_12pcg64_paramsILm6364136223846793005ELm1442695040888963407EEENS2_16pcg_xsh_rr_64_32EEEED2Ev, ptr @_ZN12_GLOBAL__N_141PCGEngineTest_RandenEngineSFINAETest_TestIN4absl15random_internal10pcg_engineINS2_12pcg64_paramsILm6364136223846793005ELm1442695040888963407EEENS2_16pcg_xsh_rr_64_32EEEED0Ev, ptr @_ZN7testing4Test5SetUpEv, ptr @_ZN7testing4Test8TearDownEv, ptr @_ZN12_GLOBAL__N_141PCGEngineTest_RandenEngineSFINAETest_TestIN4absl15random_internal10pcg_engineINS2_12pcg64_paramsILm6364136223846793005ELm1442695040888963407EEENS2_16pcg_xsh_rr_64_32EEEE8TestBodyEv, ptr @_ZN7testing4Test5SetupEv] }, align 8
@_ZTSN12_GLOBAL__N_141PCGEngineTest_RandenEngineSFINAETest_TestIN4absl15random_internal10pcg_engineINS2_12pcg64_paramsILm6364136223846793005ELm1442695040888963407EEENS2_16pcg_xsh_rr_64_32EEEEE = internal constant [188 x i8] c"N12_GLOBAL__N_141PCGEngineTest_RandenEngineSFINAETest_TestIN4absl15random_internal10pcg_engineINS2_12pcg64_paramsILm6364136223846793005ELm1442695040888963407EEENS2_16pcg_xsh_rr_64_32EEEEE\00", align 1
@_ZTIN12_GLOBAL__N_141PCGEngineTest_RandenEngineSFINAETest_TestIN4absl15random_internal10pcg_engineINS2_12pcg64_paramsILm6364136223846793005ELm1442695040888963407EEENS2_16pcg_xsh_rr_64_32EEEEE = internal constant { ptr, ptr, ptr } { ptr getelementptr inbounds (ptr, ptr @_ZTVN10__cxxabiv120__si_class_type_infoE, i64 2), ptr @_ZTSN12_GLOBAL__N_141PCGEngineTest_RandenEngineSFINAETest_TestIN4absl15random_internal10pcg_engineINS2_12pcg64_paramsILm6364136223846793005ELm1442695040888963407EEENS2_16pcg_xsh_rr_64_32EEEEE, ptr @_ZTIN12_GLOBAL__N_113PCGEngineTestIN4absl15random_internal10pcg_engineINS2_12pcg64_paramsILm6364136223846793005ELm1442695040888963407EEENS2_16pcg_xsh_rr_64_32EEEEE }, align 8
@llvm.global_ctors = appending global [1 x { i32, ptr, ptr }] [{ i32, ptr, ptr } { i32 65535, ptr @_GLOBAL__sub_I_pcg_engine_test.cc, ptr null }]

declare void @_ZNSt8ios_base4InitC1Ev(ptr noundef nonnull align 1 dereferenceable(1)) unnamed_addr #0

; Function Attrs: nounwind
declare void @_ZNSt8ios_base4InitD1Ev(ptr noundef nonnull align 1 dereferenceable(1)) unnamed_addr #1

; Function Attrs: nofree nounwind
declare i32 @__cxa_atexit(ptr, ptr, ptr) local_unnamed_addr #2

; Function Attrs: nounwind
declare void @_ZNSaIcEC1Ev(ptr noundef nonnull align 1 dereferenceable(1)) unnamed_addr #1

declare i32 @__gxx_personality_v0(...)

; Function Attrs: mustprogress nounwind uwtable
define linkonce_odr dso_local void @_ZNSt6vectorINSt7__cxx1112basic_stringIcSt11char_traitsIcESaIcEEESaIS5_EED2Ev(ptr noundef nonnull align 8 dereferenceable(24) %this) unnamed_addr #3 comdat align 2 personality ptr @__gxx_personality_v0 {
entry:
  %0 = load ptr, ptr %this, align 8
  %_M_finish = getelementptr inbounds %"struct.std::_Vector_base<std::__cxx11::basic_string<char>, std::allocator<std::__cxx11::basic_string<char>>>::_Vector_impl_data", ptr %this, i64 0, i32 1
  %1 = load ptr, ptr %_M_finish, align 8
  %cmp.not3.i.i.i = icmp eq ptr %0, %1
  br i1 %cmp.not3.i.i.i, label %invoke.cont, label %for.body.i.i.i

for.body.i.i.i:                                   ; preds = %entry, %for.body.i.i.i
  %__first.addr.04.i.i.i = phi ptr [ %incdec.ptr.i.i.i, %for.body.i.i.i ], [ %0, %entry ]
  tail call void @_ZNSt7__cxx1112basic_stringIcSt11char_traitsIcESaIcEED1Ev(ptr noundef nonnull align 8 dereferenceable(32) %__first.addr.04.i.i.i) #20
  %incdec.ptr.i.i.i = getelementptr inbounds %"class.std::__cxx11::basic_string", ptr %__first.addr.04.i.i.i, i64 1
  %cmp.not.i.i.i = icmp eq ptr %incdec.ptr.i.i.i, %1
  br i1 %cmp.not.i.i.i, label %invoke.contthread-pre-split, label %for.body.i.i.i, !llvm.loop !5

invoke.contthread-pre-split:                      ; preds = %for.body.i.i.i
  %.pr = load ptr, ptr %this, align 8
  br label %invoke.cont

invoke.cont:                                      ; preds = %invoke.contthread-pre-split, %entry
  %2 = phi ptr [ %.pr, %invoke.contthread-pre-split ], [ %0, %entry ]
  %tobool.not.i.i = icmp eq ptr %2, null
  br i1 %tobool.not.i.i, label %_ZNSt12_Vector_baseINSt7__cxx1112basic_stringIcSt11char_traitsIcESaIcEEESaIS5_EED2Ev.exit, label %if.then.i.i

if.then.i.i:                                      ; preds = %invoke.cont
  tail call void @_ZdlPv(ptr noundef nonnull %2) #21
  br label %_ZNSt12_Vector_baseINSt7__cxx1112basic_stringIcSt11char_traitsIcESaIcEEESaIS5_EED2Ev.exit

_ZNSt12_Vector_baseINSt7__cxx1112basic_stringIcSt11char_traitsIcESaIcEEESaIS5_EED2Ev.exit: ; preds = %invoke.cont, %if.then.i.i
  ret void
}

; Function Attrs: nounwind
declare void @_ZNSt7__cxx1112basic_stringIcSt11char_traitsIcESaIcEED1Ev(ptr noundef nonnull align 8 dereferenceable(32)) unnamed_addr #1

; Function Attrs: nounwind
declare void @_ZNSaIcED1Ev(ptr noundef nonnull align 1 dereferenceable(1)) unnamed_addr #1

declare noundef ptr @_ZN7testing8internal23MakeAndRegisterTestInfoEPKcS2_S2_S2_NS0_12CodeLocationEPKvPFvvES7_PNS0_15TestFactoryBaseE(ptr noundef, ptr noundef, ptr noundef, ptr noundef, ptr noundef, ptr noundef, ptr noundef, ptr noundef, ptr noundef) local_unnamed_addr #0

declare noundef ptr @_ZN7testing8internal13GetTestTypeIdEv() local_unnamed_addr #0

; Function Attrs: mustprogress uwtable
define linkonce_odr dso_local noundef ptr @_ZN7testing8internal16SuiteApiResolverINS_4TestEE19GetSetUpCaseOrSuiteEPKci(ptr noundef %filename, i32 noundef %line_num) local_unnamed_addr #4 comdat align 2 personality ptr @__gxx_personality_v0 {
entry:
  %ref.tmp = alloca %"class.testing::internal::GTestLog", align 4
  %call3 = tail call noundef zeroext i1 @_ZN7testing8internal6IsTrueEb(i1 noundef zeroext true)
  br i1 %call3, label %if.end, label %if.else

if.else:                                          ; preds = %entry
  call void @_ZN7testing8internal8GTestLogC1ENS0_16GTestLogSeverityEPKci(ptr noundef nonnull align 4 dereferenceable(4) %ref.tmp, i32 noundef 3, ptr noundef nonnull @.str.34, i32 noundef 513)
  %call5 = invoke noundef nonnull align 8 dereferenceable(8) ptr @_ZStlsISt11char_traitsIcEERSt13basic_ostreamIcT_ES5_PKc(ptr noundef nonnull align 8 dereferenceable(8) @_ZSt4cerr, ptr noundef nonnull @.str.35)
          to label %invoke.cont unwind label %lpad

invoke.cont:                                      ; preds = %if.else
  %call7 = invoke noundef nonnull align 8 dereferenceable(8) ptr @_ZStlsISt11char_traitsIcEERSt13basic_ostreamIcT_ES5_PKc(ptr noundef nonnull align 8 dereferenceable(8) %call5, ptr noundef nonnull @.str.36)
          to label %invoke.cont6 unwind label %lpad

invoke.cont6:                                     ; preds = %invoke.cont
  %call9 = invoke noundef nonnull align 8 dereferenceable(8) ptr @_ZStlsISt11char_traitsIcEERSt13basic_ostreamIcT_ES5_PKc(ptr noundef nonnull align 8 dereferenceable(8) %call7, ptr noundef %filename)
          to label %invoke.cont8 unwind label %lpad

invoke.cont8:                                     ; preds = %invoke.cont6
  %call11 = invoke noundef nonnull align 8 dereferenceable(8) ptr @_ZStlsISt11char_traitsIcEERSt13basic_ostreamIcT_ES5_PKc(ptr noundef nonnull align 8 dereferenceable(8) %call9, ptr noundef nonnull @.str.37)
          to label %invoke.cont10 unwind label %lpad

invoke.cont10:                                    ; preds = %invoke.cont8
  %call13 = invoke noundef nonnull align 8 dereferenceable(8) ptr @_ZNSolsEi(ptr noundef nonnull align 8 dereferenceable(8) %call11, i32 noundef %line_num)
          to label %invoke.cont12 unwind label %lpad

invoke.cont12:                                    ; preds = %invoke.cont10
  call void @_ZN7testing8internal8GTestLogD1Ev(ptr noundef nonnull align 4 dereferenceable(4) %ref.tmp) #20
  br label %if.end

lpad:                                             ; preds = %invoke.cont10, %invoke.cont8, %invoke.cont6, %invoke.cont, %if.else
  %0 = landingpad { ptr, i32 }
          cleanup
  call void @_ZN7testing8internal8GTestLogD1Ev(ptr noundef nonnull align 4 dereferenceable(4) %ref.tmp) #20
  resume { ptr, i32 } %0

if.end:                                           ; preds = %entry, %invoke.cont12
  ret ptr null
}

; Function Attrs: mustprogress uwtable
define linkonce_odr dso_local noundef ptr @_ZN7testing8internal16SuiteApiResolverINS_4TestEE22GetTearDownCaseOrSuiteEPKci(ptr noundef %filename, i32 noundef %line_num) local_unnamed_addr #4 comdat align 2 personality ptr @__gxx_personality_v0 {
entry:
  %ref.tmp = alloca %"class.testing::internal::GTestLog", align 4
  %call3 = tail call noundef zeroext i1 @_ZN7testing8internal6IsTrueEb(i1 noundef zeroext true)
  br i1 %call3, label %if.end, label %if.else

if.else:                                          ; preds = %entry
  call void @_ZN7testing8internal8GTestLogC1ENS0_16GTestLogSeverityEPKci(ptr noundef nonnull align 4 dereferenceable(4) %ref.tmp, i32 noundef 3, ptr noundef nonnull @.str.34, i32 noundef 534)
  %call5 = invoke noundef nonnull align 8 dereferenceable(8) ptr @_ZStlsISt11char_traitsIcEERSt13basic_ostreamIcT_ES5_PKc(ptr noundef nonnull align 8 dereferenceable(8) @_ZSt4cerr, ptr noundef nonnull @.str.35)
          to label %invoke.cont unwind label %lpad

invoke.cont:                                      ; preds = %if.else
  %call7 = invoke noundef nonnull align 8 dereferenceable(8) ptr @_ZStlsISt11char_traitsIcEERSt13basic_ostreamIcT_ES5_PKc(ptr noundef nonnull align 8 dereferenceable(8) %call5, ptr noundef nonnull @.str.38)
          to label %invoke.cont6 unwind label %lpad

invoke.cont6:                                     ; preds = %invoke.cont
  %call9 = invoke noundef nonnull align 8 dereferenceable(8) ptr @_ZStlsISt11char_traitsIcEERSt13basic_ostreamIcT_ES5_PKc(ptr noundef nonnull align 8 dereferenceable(8) %call7, ptr noundef %filename)
          to label %invoke.cont8 unwind label %lpad

invoke.cont8:                                     ; preds = %invoke.cont6
  %call11 = invoke noundef nonnull align 8 dereferenceable(8) ptr @_ZStlsISt11char_traitsIcEERSt13basic_ostreamIcT_ES5_PKc(ptr noundef nonnull align 8 dereferenceable(8) %call9, ptr noundef nonnull @.str.37)
          to label %invoke.cont10 unwind label %lpad

invoke.cont10:                                    ; preds = %invoke.cont8
  %call13 = invoke noundef nonnull align 8 dereferenceable(8) ptr @_ZNSolsEi(ptr noundef nonnull align 8 dereferenceable(8) %call11, i32 noundef %line_num)
          to label %invoke.cont12 unwind label %lpad

invoke.cont12:                                    ; preds = %invoke.cont10
  call void @_ZN7testing8internal8GTestLogD1Ev(ptr noundef nonnull align 4 dereferenceable(4) %ref.tmp) #20
  br label %if.end

lpad:                                             ; preds = %invoke.cont10, %invoke.cont8, %invoke.cont6, %invoke.cont, %if.else
  %0 = landingpad { ptr, i32 }
          cleanup
  call void @_ZN7testing8internal8GTestLogD1Ev(ptr noundef nonnull align 4 dereferenceable(4) %ref.tmp) #20
  resume { ptr, i32 } %0

if.end:                                           ; preds = %entry, %invoke.cont12
  ret ptr null
}

; Function Attrs: nobuiltin allocsize(0)
declare noundef nonnull ptr @_Znwm(i64 noundef) local_unnamed_addr #5

; Function Attrs: nobuiltin nounwind
declare void @_ZdlPv(ptr noundef) local_unnamed_addr #6

declare void @_ZNSt7__cxx1112basic_stringIcSt11char_traitsIcESaIcEEC1ERKS4_(ptr noundef nonnull align 8 dereferenceable(32), ptr noundef nonnull align 8 dereferenceable(32)) unnamed_addr #0

; Function Attrs: mustprogress nofree norecurse nosync nounwind willreturn memory(none) uwtable
define internal void @_ZN7testing8internal15TestFactoryImplIN12_GLOBAL__N_137PCG642018EngineTest_VerifyGolden_TestEED2Ev(ptr nocapture nonnull readnone align 8 %this) unnamed_addr #7 align 2 {
entry:
  ret void
}

; Function Attrs: mustprogress nounwind uwtable
define internal void @_ZN7testing8internal15TestFactoryImplIN12_GLOBAL__N_137PCG642018EngineTest_VerifyGolden_TestEED0Ev(ptr noundef nonnull align 8 dereferenceable(8) %this) unnamed_addr #3 align 2 {
entry:
  tail call void @_ZdlPv(ptr noundef nonnull %this) #21
  ret void
}

; Function Attrs: mustprogress uwtable
define internal noundef nonnull ptr @_ZN7testing8internal15TestFactoryImplIN12_GLOBAL__N_137PCG642018EngineTest_VerifyGolden_TestEE10CreateTestEv(ptr nocapture nonnull readnone align 8 %this) unnamed_addr #4 align 2 personality ptr @__gxx_personality_v0 {
entry:
  %call = tail call noalias noundef nonnull dereferenceable(16) ptr @_Znwm(i64 noundef 16) #22
  invoke void @_ZN7testing4TestC2Ev(ptr noundef nonnull align 8 dereferenceable(16) %call)
          to label %invoke.cont unwind label %lpad

invoke.cont:                                      ; preds = %entry
  store ptr getelementptr inbounds ({ [8 x ptr] }, ptr @_ZTVN12_GLOBAL__N_137PCG642018EngineTest_VerifyGolden_TestE, i64 0, inrange i32 0, i64 2), ptr %call, align 8
  ret ptr %call

lpad:                                             ; preds = %entry
  %0 = landingpad { ptr, i32 }
          cleanup
  tail call void @_ZdlPv(ptr noundef nonnull %call) #21
  resume { ptr, i32 } %0
}

declare void @_ZN7testing4TestC2Ev(ptr noundef nonnull align 8 dereferenceable(16)) unnamed_addr #0

; Function Attrs: mustprogress nounwind uwtable
define internal void @_ZN12_GLOBAL__N_137PCG642018EngineTest_VerifyGolden_TestD2Ev(ptr noundef nonnull align 8 dereferenceable(16) %this) unnamed_addr #3 align 2 {
entry:
  tail call void @_ZN7testing4TestD2Ev(ptr noundef nonnull align 8 dereferenceable(16) %this) #20
  ret void
}

; Function Attrs: mustprogress nounwind uwtable
define internal void @_ZN12_GLOBAL__N_137PCG642018EngineTest_VerifyGolden_TestD0Ev(ptr noundef nonnull align 8 dereferenceable(16) %this) unnamed_addr #3 align 2 {
entry:
  tail call void @_ZN7testing4TestD2Ev(ptr noundef nonnull align 8 dereferenceable(16) %this) #20
  tail call void @_ZdlPv(ptr noundef nonnull %this) #21
  ret void
}

declare void @_ZN7testing4Test5SetUpEv(ptr noundef nonnull align 8 dereferenceable(16)) unnamed_addr #0

declare void @_ZN7testing4Test8TearDownEv(ptr noundef nonnull align 8 dereferenceable(16)) unnamed_addr #0

; Function Attrs: mustprogress uwtable
define internal void @_ZN12_GLOBAL__N_137PCG642018EngineTest_VerifyGolden_Test8TestBodyEv(ptr nocapture nonnull readnone align 8 %this) unnamed_addr #4 align 2 personality ptr @__gxx_personality_v0 {
entry:
  %kGolden = alloca [127 x i64], align 16
  %gtest_ar = alloca %"class.testing::AssertionResult", align 8
  %ref.tmp3 = alloca i64, align 8
  %ref.tmp5 = alloca %"class.testing::Message", align 8
  %ref.tmp7 = alloca %"class.testing::internal::AssertHelper", align 8
  %gtest_ar25 = alloca %"class.testing::AssertionResult", align 8
  %ref.tmp26 = alloca i64, align 8
  %ref.tmp33 = alloca %"class.testing::Message", align 8
  %ref.tmp35 = alloca %"class.testing::internal::AssertHelper", align 8
  call void @llvm.memcpy.p0.p0.i64(ptr noundef nonnull align 16 dereferenceable(1016) %kGolden, ptr noundef nonnull align 16 dereferenceable(1016) @__const._ZN12_GLOBAL__N_137PCG642018EngineTest_VerifyGolden_Test8TestBodyEv.kGolden, i64 1016, i1 false)
  %message_.i.i = getelementptr inbounds %"class.testing::AssertionResult", ptr %gtest_ar, i64 0, i32 1
  br label %for.body

for.cond21.preheader:                             ; preds = %_ZN7testing15AssertionResultD2Ev.exit
  %message_.i.i43 = getelementptr inbounds %"class.testing::AssertionResult", ptr %gtest_ar25, i64 0, i32 1
  br label %for.body23

for.body:                                         ; preds = %entry, %_ZN7testing15AssertionResultD2Ev.exit
  %__begin1.0.idx67 = phi i64 [ 0, %entry ], [ %__begin1.0.add, %_ZN7testing15AssertionResultD2Ev.exit ]
  %engine.sroa.6.066 = phi i64 [ 5220163216168088568, %entry ], [ %.narrow.i.i.i16, %_ZN7testing15AssertionResultD2Ev.exit ]
  %engine.sroa.0.065 = phi i64 [ -6043960321096071782, %entry ], [ %coerce3.sroa.0.0.extract.trunc.i7.i.i, %_ZN7testing15AssertionResultD2Ev.exit ]
  %__begin1.0.ptr = getelementptr inbounds i8, ptr %kGolden, i64 %__begin1.0.idx67
  %coerce.sroa.2.0.insert.ext.i.i.i = zext i64 %engine.sroa.6.066 to i128
  %coerce.sroa.2.0.insert.shift.i.i.i = shl nuw i128 %coerce.sroa.2.0.insert.ext.i.i.i, 64
  %coerce.sroa.0.0.insert.ext.i.i.i13 = zext i64 %engine.sroa.0.065 to i128
  %coerce.sroa.0.0.insert.insert.i.i.i14 = or disjoint i128 %coerce.sroa.2.0.insert.shift.i.i.i, %coerce.sroa.0.0.insert.ext.i.i.i13
  %mul.i.i.i = mul i128 %coerce.sroa.0.0.insert.insert.i.i.i14, 47026247687942121848144207491837523525
  %coerce.sroa.0.0.insert.insert.i6.i.i = add i128 %mul.i.i.i, 1442695040888963407
  %coerce3.sroa.0.0.extract.trunc.i7.i.i = trunc i128 %coerce.sroa.0.0.insert.insert.i6.i.i to i64
  %0 = lshr i128 %coerce.sroa.0.0.insert.insert.i6.i.i, 64
  %.tr.i.i.i15 = trunc i128 %0 to i64
  %.narrow.i.i.i16 = add i64 %.tr.i.i.i15, 6364136223846793005
  %shr.i.i.i = lshr i64 %.narrow.i.i.i16, 58
  %xor.i.i12.i.i = xor i64 %.narrow.i.i.i16, %coerce3.sroa.0.0.extract.trunc.i7.i.i
  %or.i.i.i.i = call noundef i64 @llvm.fshr.i64(i64 %xor.i.i12.i.i, i64 %xor.i.i12.i.i, i64 %shr.i.i.i)
  store i64 %or.i.i.i.i, ptr %ref.tmp3, align 8
  %1 = load i64, ptr %__begin1.0.ptr, align 8, !noalias !7
  %cmp.i.i = icmp eq i64 %1, %or.i.i.i.i
  br i1 %cmp.i.i, label %if.then.i.i, label %if.end.i.i

if.then.i.i:                                      ; preds = %for.body
  call void @_ZN7testing16AssertionSuccessEv(ptr nonnull sret(%"class.testing::AssertionResult") align 8 %gtest_ar)
  br label %_ZN7testing8internal8EqHelper7CompareImmTnPNSt9enable_ifIXoontsr3std11is_integralIT_EE5valuentsr3std10is_pointerIT0_EE5valueEvE4typeELPv0EEENS_15AssertionResultEPKcSC_RKS4_RKS5_.exit

if.end.i.i:                                       ; preds = %for.body
  call void @_ZN7testing8internal18CmpHelperEQFailureImmEENS_15AssertionResultEPKcS4_RKT_RKT0_(ptr nonnull sret(%"class.testing::AssertionResult") align 8 %gtest_ar, ptr noundef nonnull @.str.26, ptr noundef nonnull @.str.27, ptr noundef nonnull align 8 dereferenceable(8) %__begin1.0.ptr, ptr noundef nonnull align 8 dereferenceable(8) %ref.tmp3)
  br label %_ZN7testing8internal8EqHelper7CompareImmTnPNSt9enable_ifIXoontsr3std11is_integralIT_EE5valuentsr3std10is_pointerIT0_EE5valueEvE4typeELPv0EEENS_15AssertionResultEPKcSC_RKS4_RKS5_.exit

_ZN7testing8internal8EqHelper7CompareImmTnPNSt9enable_ifIXoontsr3std11is_integralIT_EE5valuentsr3std10is_pointerIT0_EE5valueEvE4typeELPv0EEENS_15AssertionResultEPKcSC_RKS4_RKS5_.exit: ; preds = %if.then.i.i, %if.end.i.i
  %2 = load i8, ptr %gtest_ar, align 8
  %3 = and i8 %2, 1
  %tobool.i.not = icmp eq i8 %3, 0
  br i1 %tobool.i.not, label %if.else, label %if.end

lpad:                                             ; preds = %if.else
  %4 = landingpad { ptr, i32 }
          cleanup
  br label %eh.resume

if.else:                                          ; preds = %_ZN7testing8internal8EqHelper7CompareImmTnPNSt9enable_ifIXoontsr3std11is_integralIT_EE5valuentsr3std10is_pointerIT0_EE5valueEvE4typeELPv0EEENS_15AssertionResultEPKcSC_RKS4_RKS5_.exit
  invoke void @_ZN7testing7MessageC1Ev(ptr noundef nonnull align 8 dereferenceable(8) %ref.tmp5)
          to label %invoke.cont6 unwind label %lpad

invoke.cont6:                                     ; preds = %if.else
  %5 = load ptr, ptr %message_.i.i, align 8
  %cmp.i.i.not.i.i = icmp eq ptr %5, null
  br i1 %cmp.i.i.not.i.i, label %invoke.cont9, label %cond.true.i.i

cond.true.i.i:                                    ; preds = %invoke.cont6
  %call4.i.i = call noundef ptr @_ZNKSt7__cxx1112basic_stringIcSt11char_traitsIcESaIcEE5c_strEv(ptr noundef nonnull align 8 dereferenceable(32) %5) #20
  br label %invoke.cont9

invoke.cont9:                                     ; preds = %cond.true.i.i, %invoke.cont6
  %cond.i.i = phi ptr [ %call4.i.i, %cond.true.i.i ], [ @.str, %invoke.cont6 ]
  invoke void @_ZN7testing8internal12AssertHelperC1ENS_14TestPartResult4TypeEPKciS5_(ptr noundef nonnull align 8 dereferenceable(8) %ref.tmp7, i32 noundef 1, ptr noundef nonnull @.str.2, i32 noundef 334, ptr noundef %cond.i.i)
          to label %invoke.cont11 unwind label %lpad8

invoke.cont11:                                    ; preds = %invoke.cont9
  invoke void @_ZNK7testing8internal12AssertHelperaSERKNS_7MessageE(ptr noundef nonnull align 8 dereferenceable(8) %ref.tmp7, ptr noundef nonnull align 8 dereferenceable(8) %ref.tmp5)
          to label %invoke.cont13 unwind label %lpad12

invoke.cont13:                                    ; preds = %invoke.cont11
  call void @_ZN7testing8internal12AssertHelperD1Ev(ptr noundef nonnull align 8 dereferenceable(8) %ref.tmp7) #20
  %6 = load ptr, ptr %ref.tmp5, align 8
  %cmp.not.i.i = icmp eq ptr %6, null
  br i1 %cmp.not.i.i, label %_ZN7testing7MessageD2Ev.exit, label %_ZNKSt14default_deleteINSt7__cxx1118basic_stringstreamIcSt11char_traitsIcESaIcEEEEclEPS5_.exit.i.i

_ZNKSt14default_deleteINSt7__cxx1118basic_stringstreamIcSt11char_traitsIcESaIcEEEEclEPS5_.exit.i.i: ; preds = %invoke.cont13
  %vtable.i.i.i = load ptr, ptr %6, align 8
  %vfn.i.i.i = getelementptr inbounds ptr, ptr %vtable.i.i.i, i64 1
  %7 = load ptr, ptr %vfn.i.i.i, align 8
  call void %7(ptr noundef nonnull align 8 dereferenceable(128) %6) #20
  br label %_ZN7testing7MessageD2Ev.exit

_ZN7testing7MessageD2Ev.exit:                     ; preds = %invoke.cont13, %_ZNKSt14default_deleteINSt7__cxx1118basic_stringstreamIcSt11char_traitsIcESaIcEEEEclEPS5_.exit.i.i
  store ptr null, ptr %ref.tmp5, align 8
  br label %if.end

lpad8:                                            ; preds = %invoke.cont9
  %8 = landingpad { ptr, i32 }
          cleanup
  br label %ehcleanup

lpad12:                                           ; preds = %invoke.cont11
  %9 = landingpad { ptr, i32 }
          cleanup
  call void @_ZN7testing8internal12AssertHelperD1Ev(ptr noundef nonnull align 8 dereferenceable(8) %ref.tmp7) #20
  br label %ehcleanup

ehcleanup:                                        ; preds = %lpad12, %lpad8
  %.pn9 = phi { ptr, i32 } [ %9, %lpad12 ], [ %8, %lpad8 ]
  %10 = load ptr, ptr %ref.tmp5, align 8
  %cmp.not.i.i17 = icmp eq ptr %10, null
  br i1 %cmp.not.i.i17, label %_ZN7testing7MessageD2Ev.exit21, label %_ZNKSt14default_deleteINSt7__cxx1118basic_stringstreamIcSt11char_traitsIcESaIcEEEEclEPS5_.exit.i.i18

_ZNKSt14default_deleteINSt7__cxx1118basic_stringstreamIcSt11char_traitsIcESaIcEEEEclEPS5_.exit.i.i18: ; preds = %ehcleanup
  %vtable.i.i.i19 = load ptr, ptr %10, align 8
  %vfn.i.i.i20 = getelementptr inbounds ptr, ptr %vtable.i.i.i19, i64 1
  %11 = load ptr, ptr %vfn.i.i.i20, align 8
  call void %11(ptr noundef nonnull align 8 dereferenceable(128) %10) #20
  br label %_ZN7testing7MessageD2Ev.exit21

_ZN7testing7MessageD2Ev.exit21:                   ; preds = %ehcleanup, %_ZNKSt14default_deleteINSt7__cxx1118basic_stringstreamIcSt11char_traitsIcESaIcEEEEclEPS5_.exit.i.i18
  store ptr null, ptr %ref.tmp5, align 8
  br label %eh.resume

if.end:                                           ; preds = %_ZN7testing8internal8EqHelper7CompareImmTnPNSt9enable_ifIXoontsr3std11is_integralIT_EE5valuentsr3std10is_pointerIT0_EE5valueEvE4typeELPv0EEENS_15AssertionResultEPKcSC_RKS4_RKS5_.exit, %_ZN7testing7MessageD2Ev.exit
  %12 = load ptr, ptr %message_.i.i, align 8
  %cmp.not.i.i22 = icmp eq ptr %12, null
  br i1 %cmp.not.i.i22, label %_ZN7testing15AssertionResultD2Ev.exit, label %_ZNKSt14default_deleteINSt7__cxx1112basic_stringIcSt11char_traitsIcESaIcEEEEclEPS5_.exit.i.i

_ZNKSt14default_deleteINSt7__cxx1112basic_stringIcSt11char_traitsIcESaIcEEEEclEPS5_.exit.i.i: ; preds = %if.end
  call void @_ZNSt7__cxx1112basic_stringIcSt11char_traitsIcESaIcEED1Ev(ptr noundef nonnull align 8 dereferenceable(32) %12) #20
  call void @_ZdlPv(ptr noundef nonnull %12) #21
  br label %_ZN7testing15AssertionResultD2Ev.exit

_ZN7testing15AssertionResultD2Ev.exit:            ; preds = %if.end, %_ZNKSt14default_deleteINSt7__cxx1112basic_stringIcSt11char_traitsIcESaIcEEEEclEPS5_.exit.i.i
  store ptr null, ptr %message_.i.i, align 8
  %__begin1.0.add = add nuw nsw i64 %__begin1.0.idx67, 8
  %cmp.not = icmp eq i64 %__begin1.0.add, 1016
  br i1 %cmp.not, label %for.cond21.preheader, label %for.body

for.body23:                                       ; preds = %for.cond21.preheader, %_ZN7testing15AssertionResultD2Ev.exit62
  %__begin116.0.idx70 = phi i64 [ 0, %for.cond21.preheader ], [ %__begin116.0.add, %_ZN7testing15AssertionResultD2Ev.exit62 ]
  %engine.sroa.6.169 = phi i64 [ 5220163216168088568, %for.cond21.preheader ], [ %.narrow.i.i.i34, %_ZN7testing15AssertionResultD2Ev.exit62 ]
  %engine.sroa.0.168 = phi i64 [ -6043960321096071782, %for.cond21.preheader ], [ %coerce3.sroa.0.0.extract.trunc.i7.i.i32, %_ZN7testing15AssertionResultD2Ev.exit62 ]
  %__begin116.0.ptr = getelementptr inbounds i8, ptr %kGolden, i64 %__begin116.0.idx70
  %coerce.sroa.2.0.insert.ext.i.i.i26 = zext i64 %engine.sroa.6.169 to i128
  %coerce.sroa.2.0.insert.shift.i.i.i27 = shl nuw i128 %coerce.sroa.2.0.insert.ext.i.i.i26, 64
  %coerce.sroa.0.0.insert.ext.i.i.i28 = zext i64 %engine.sroa.0.168 to i128
  %coerce.sroa.0.0.insert.insert.i.i.i29 = or disjoint i128 %coerce.sroa.2.0.insert.shift.i.i.i27, %coerce.sroa.0.0.insert.ext.i.i.i28
  %mul.i.i.i30 = mul i128 %coerce.sroa.0.0.insert.insert.i.i.i29, 47026247687942121848144207491837523525
  %coerce.sroa.0.0.insert.insert.i6.i.i31 = add i128 %mul.i.i.i30, 1442695040888963407
  %coerce3.sroa.0.0.extract.trunc.i7.i.i32 = trunc i128 %coerce.sroa.0.0.insert.insert.i6.i.i31 to i64
  %13 = lshr i128 %coerce.sroa.0.0.insert.insert.i6.i.i31, 64
  %.tr.i.i.i33 = trunc i128 %13 to i64
  %.narrow.i.i.i34 = add i64 %.tr.i.i.i33, 6364136223846793005
  %shr.i.i.i35 = lshr i64 %.narrow.i.i.i34, 58
  %xor.i.i12.i.i36 = xor i64 %.narrow.i.i.i34, %coerce3.sroa.0.0.extract.trunc.i7.i.i32
  %or.i.i.i.i37 = call noundef i64 @llvm.fshr.i64(i64 %xor.i.i12.i.i36, i64 %xor.i.i12.i.i36, i64 %shr.i.i.i35)
  store i64 %or.i.i.i.i37, ptr %ref.tmp26, align 8
  %14 = load i64, ptr %__begin116.0.ptr, align 8, !noalias !12
  %cmp.i.i38 = icmp eq i64 %14, %or.i.i.i.i37
  br i1 %cmp.i.i38, label %if.then.i.i40, label %if.end.i.i39

if.then.i.i40:                                    ; preds = %for.body23
  call void @_ZN7testing16AssertionSuccessEv(ptr nonnull sret(%"class.testing::AssertionResult") align 8 %gtest_ar25)
  br label %_ZN7testing8internal8EqHelper7CompareImmTnPNSt9enable_ifIXoontsr3std11is_integralIT_EE5valuentsr3std10is_pointerIT0_EE5valueEvE4typeELPv0EEENS_15AssertionResultEPKcSC_RKS4_RKS5_.exit41

if.end.i.i39:                                     ; preds = %for.body23
  call void @_ZN7testing8internal18CmpHelperEQFailureImmEENS_15AssertionResultEPKcS4_RKT_RKT0_(ptr nonnull sret(%"class.testing::AssertionResult") align 8 %gtest_ar25, ptr noundef nonnull @.str.26, ptr noundef nonnull @.str.27, ptr noundef nonnull align 8 dereferenceable(8) %__begin116.0.ptr, ptr noundef nonnull align 8 dereferenceable(8) %ref.tmp26)
  br label %_ZN7testing8internal8EqHelper7CompareImmTnPNSt9enable_ifIXoontsr3std11is_integralIT_EE5valuentsr3std10is_pointerIT0_EE5valueEvE4typeELPv0EEENS_15AssertionResultEPKcSC_RKS4_RKS5_.exit41

_ZN7testing8internal8EqHelper7CompareImmTnPNSt9enable_ifIXoontsr3std11is_integralIT_EE5valuentsr3std10is_pointerIT0_EE5valueEvE4typeELPv0EEENS_15AssertionResultEPKcSC_RKS4_RKS5_.exit41: ; preds = %if.then.i.i40, %if.end.i.i39
  %15 = load i8, ptr %gtest_ar25, align 8
  %16 = and i8 %15, 1
  %tobool.i42.not = icmp eq i8 %16, 0
  br i1 %tobool.i42.not, label %if.else32, label %if.end44

lpad28:                                           ; preds = %if.else32
  %17 = landingpad { ptr, i32 }
          cleanup
  br label %eh.resume

if.else32:                                        ; preds = %_ZN7testing8internal8EqHelper7CompareImmTnPNSt9enable_ifIXoontsr3std11is_integralIT_EE5valuentsr3std10is_pointerIT0_EE5valueEvE4typeELPv0EEENS_15AssertionResultEPKcSC_RKS4_RKS5_.exit41
  invoke void @_ZN7testing7MessageC1Ev(ptr noundef nonnull align 8 dereferenceable(8) %ref.tmp33)
          to label %invoke.cont34 unwind label %lpad28

invoke.cont34:                                    ; preds = %if.else32
  %18 = load ptr, ptr %message_.i.i43, align 8
  %cmp.i.i.not.i.i44 = icmp eq ptr %18, null
  br i1 %cmp.i.i.not.i.i44, label %invoke.cont37, label %cond.true.i.i45

cond.true.i.i45:                                  ; preds = %invoke.cont34
  %call4.i.i46 = call noundef ptr @_ZNKSt7__cxx1112basic_stringIcSt11char_traitsIcESaIcEE5c_strEv(ptr noundef nonnull align 8 dereferenceable(32) %18) #20
  br label %invoke.cont37

invoke.cont37:                                    ; preds = %cond.true.i.i45, %invoke.cont34
  %cond.i.i47 = phi ptr [ %call4.i.i46, %cond.true.i.i45 ], [ @.str, %invoke.cont34 ]
  invoke void @_ZN7testing8internal12AssertHelperC1ENS_14TestPartResult4TypeEPKciS5_(ptr noundef nonnull align 8 dereferenceable(8) %ref.tmp35, i32 noundef 1, ptr noundef nonnull @.str.2, i32 noundef 338, ptr noundef %cond.i.i47)
          to label %invoke.cont39 unwind label %lpad36

invoke.cont39:                                    ; preds = %invoke.cont37
  invoke void @_ZNK7testing8internal12AssertHelperaSERKNS_7MessageE(ptr noundef nonnull align 8 dereferenceable(8) %ref.tmp35, ptr noundef nonnull align 8 dereferenceable(8) %ref.tmp33)
          to label %invoke.cont41 unwind label %lpad40

invoke.cont41:                                    ; preds = %invoke.cont39
  call void @_ZN7testing8internal12AssertHelperD1Ev(ptr noundef nonnull align 8 dereferenceable(8) %ref.tmp35) #20
  %19 = load ptr, ptr %ref.tmp33, align 8
  %cmp.not.i.i49 = icmp eq ptr %19, null
  br i1 %cmp.not.i.i49, label %_ZN7testing7MessageD2Ev.exit53, label %_ZNKSt14default_deleteINSt7__cxx1118basic_stringstreamIcSt11char_traitsIcESaIcEEEEclEPS5_.exit.i.i50

_ZNKSt14default_deleteINSt7__cxx1118basic_stringstreamIcSt11char_traitsIcESaIcEEEEclEPS5_.exit.i.i50: ; preds = %invoke.cont41
  %vtable.i.i.i51 = load ptr, ptr %19, align 8
  %vfn.i.i.i52 = getelementptr inbounds ptr, ptr %vtable.i.i.i51, i64 1
  %20 = load ptr, ptr %vfn.i.i.i52, align 8
  call void %20(ptr noundef nonnull align 8 dereferenceable(128) %19) #20
  br label %_ZN7testing7MessageD2Ev.exit53

_ZN7testing7MessageD2Ev.exit53:                   ; preds = %invoke.cont41, %_ZNKSt14default_deleteINSt7__cxx1118basic_stringstreamIcSt11char_traitsIcESaIcEEEEclEPS5_.exit.i.i50
  store ptr null, ptr %ref.tmp33, align 8
  br label %if.end44

lpad36:                                           ; preds = %invoke.cont37
  %21 = landingpad { ptr, i32 }
          cleanup
  br label %ehcleanup43

lpad40:                                           ; preds = %invoke.cont39
  %22 = landingpad { ptr, i32 }
          cleanup
  call void @_ZN7testing8internal12AssertHelperD1Ev(ptr noundef nonnull align 8 dereferenceable(8) %ref.tmp35) #20
  br label %ehcleanup43

ehcleanup43:                                      ; preds = %lpad40, %lpad36
  %.pn = phi { ptr, i32 } [ %22, %lpad40 ], [ %21, %lpad36 ]
  %23 = load ptr, ptr %ref.tmp33, align 8
  %cmp.not.i.i54 = icmp eq ptr %23, null
  br i1 %cmp.not.i.i54, label %_ZN7testing7MessageD2Ev.exit58, label %_ZNKSt14default_deleteINSt7__cxx1118basic_stringstreamIcSt11char_traitsIcESaIcEEEEclEPS5_.exit.i.i55

_ZNKSt14default_deleteINSt7__cxx1118basic_stringstreamIcSt11char_traitsIcESaIcEEEEclEPS5_.exit.i.i55: ; preds = %ehcleanup43
  %vtable.i.i.i56 = load ptr, ptr %23, align 8
  %vfn.i.i.i57 = getelementptr inbounds ptr, ptr %vtable.i.i.i56, i64 1
  %24 = load ptr, ptr %vfn.i.i.i57, align 8
  call void %24(ptr noundef nonnull align 8 dereferenceable(128) %23) #20
  br label %_ZN7testing7MessageD2Ev.exit58

_ZN7testing7MessageD2Ev.exit58:                   ; preds = %ehcleanup43, %_ZNKSt14default_deleteINSt7__cxx1118basic_stringstreamIcSt11char_traitsIcESaIcEEEEclEPS5_.exit.i.i55
  store ptr null, ptr %ref.tmp33, align 8
  br label %eh.resume

if.end44:                                         ; preds = %_ZN7testing8internal8EqHelper7CompareImmTnPNSt9enable_ifIXoontsr3std11is_integralIT_EE5valuentsr3std10is_pointerIT0_EE5valueEvE4typeELPv0EEENS_15AssertionResultEPKcSC_RKS4_RKS5_.exit41, %_ZN7testing7MessageD2Ev.exit53
  %25 = load ptr, ptr %message_.i.i43, align 8
  %cmp.not.i.i60 = icmp eq ptr %25, null
  br i1 %cmp.not.i.i60, label %_ZN7testing15AssertionResultD2Ev.exit62, label %_ZNKSt14default_deleteINSt7__cxx1112basic_stringIcSt11char_traitsIcESaIcEEEEclEPS5_.exit.i.i61

_ZNKSt14default_deleteINSt7__cxx1112basic_stringIcSt11char_traitsIcESaIcEEEEclEPS5_.exit.i.i61: ; preds = %if.end44
  call void @_ZNSt7__cxx1112basic_stringIcSt11char_traitsIcESaIcEED1Ev(ptr noundef nonnull align 8 dereferenceable(32) %25) #20
  call void @_ZdlPv(ptr noundef nonnull %25) #21
  br label %_ZN7testing15AssertionResultD2Ev.exit62

_ZN7testing15AssertionResultD2Ev.exit62:          ; preds = %if.end44, %_ZNKSt14default_deleteINSt7__cxx1112basic_stringIcSt11char_traitsIcESaIcEEEEclEPS5_.exit.i.i61
  store ptr null, ptr %message_.i.i43, align 8
  %__begin116.0.add = add nuw nsw i64 %__begin116.0.idx70, 8
  %cmp22.not = icmp eq i64 %__begin116.0.add, 1016
  br i1 %cmp22.not, label %for.end48, label %for.body23

for.end48:                                        ; preds = %_ZN7testing15AssertionResultD2Ev.exit62
  ret void

eh.resume:                                        ; preds = %lpad28, %_ZN7testing7MessageD2Ev.exit58, %lpad, %_ZN7testing7MessageD2Ev.exit21
  %gtest_ar25.sink = phi ptr [ %gtest_ar, %_ZN7testing7MessageD2Ev.exit21 ], [ %gtest_ar, %lpad ], [ %gtest_ar25, %_ZN7testing7MessageD2Ev.exit58 ], [ %gtest_ar25, %lpad28 ]
  %.pn9.pn.pn = phi { ptr, i32 } [ %.pn9, %_ZN7testing7MessageD2Ev.exit21 ], [ %4, %lpad ], [ %.pn, %_ZN7testing7MessageD2Ev.exit58 ], [ %17, %lpad28 ]
  call void @_ZN7testing15AssertionResultD2Ev(ptr noundef nonnull align 8 dereferenceable(16) %gtest_ar25.sink) #20
  resume { ptr, i32 } %.pn9.pn.pn
}

; Function Attrs: mustprogress nounwind uwtable
define linkonce_odr dso_local noundef ptr @_ZN7testing4Test5SetupEv(ptr noundef nonnull align 8 dereferenceable(16) %this) unnamed_addr #3 comdat align 2 {
entry:
  ret ptr null
}

; Function Attrs: nounwind
declare void @_ZN7testing4TestD2Ev(ptr noundef nonnull align 8 dereferenceable(16)) unnamed_addr #1

; Function Attrs: mustprogress nocallback nofree nounwind willreturn memory(argmem: readwrite)
declare void @llvm.memcpy.p0.p0.i64(ptr noalias nocapture writeonly, ptr noalias nocapture readonly, i64, i1 immarg) #8

declare void @_ZN7testing7MessageC1Ev(ptr noundef nonnull align 8 dereferenceable(8)) unnamed_addr #0

declare void @_ZN7testing8internal12AssertHelperC1ENS_14TestPartResult4TypeEPKciS5_(ptr noundef nonnull align 8 dereferenceable(8), i32 noundef, ptr noundef, i32 noundef, ptr noundef) unnamed_addr #0

declare void @_ZNK7testing8internal12AssertHelperaSERKNS_7MessageE(ptr noundef nonnull align 8 dereferenceable(8), ptr noundef nonnull align 8 dereferenceable(8)) local_unnamed_addr #0

; Function Attrs: nounwind
declare void @_ZN7testing8internal12AssertHelperD1Ev(ptr noundef nonnull align 8 dereferenceable(8)) unnamed_addr #1

; Function Attrs: mustprogress nounwind uwtable
define linkonce_odr dso_local void @_ZN7testing15AssertionResultD2Ev(ptr noundef nonnull align 8 dereferenceable(16) %this) unnamed_addr #3 comdat align 2 personality ptr @__gxx_personality_v0 {
entry:
  %message_ = getelementptr inbounds %"class.testing::AssertionResult", ptr %this, i64 0, i32 1
  %0 = load ptr, ptr %message_, align 8
  %cmp.not.i = icmp eq ptr %0, null
  br i1 %cmp.not.i, label %_ZNSt10unique_ptrINSt7__cxx1112basic_stringIcSt11char_traitsIcESaIcEEESt14default_deleteIS5_EED2Ev.exit, label %_ZNKSt14default_deleteINSt7__cxx1112basic_stringIcSt11char_traitsIcESaIcEEEEclEPS5_.exit.i

_ZNKSt14default_deleteINSt7__cxx1112basic_stringIcSt11char_traitsIcESaIcEEEEclEPS5_.exit.i: ; preds = %entry
  tail call void @_ZNSt7__cxx1112basic_stringIcSt11char_traitsIcESaIcEED1Ev(ptr noundef nonnull align 8 dereferenceable(32) %0) #20
  tail call void @_ZdlPv(ptr noundef nonnull %0) #21
  br label %_ZNSt10unique_ptrINSt7__cxx1112basic_stringIcSt11char_traitsIcESaIcEEESt14default_deleteIS5_EED2Ev.exit

_ZNSt10unique_ptrINSt7__cxx1112basic_stringIcSt11char_traitsIcESaIcEEESt14default_deleteIS5_EED2Ev.exit: ; preds = %entry, %_ZNKSt14default_deleteINSt7__cxx1112basic_stringIcSt11char_traitsIcESaIcEEEEclEPS5_.exit.i
  store ptr null, ptr %message_, align 8
  ret void
}

declare void @_ZN7testing16AssertionSuccessEv(ptr sret(%"class.testing::AssertionResult") align 8) local_unnamed_addr #0

; Function Attrs: mustprogress uwtable
define linkonce_odr dso_local void @_ZN7testing8internal18CmpHelperEQFailureImmEENS_15AssertionResultEPKcS4_RKT_RKT0_(ptr noalias sret(%"class.testing::AssertionResult") align 8 %agg.result, ptr noundef %lhs_expression, ptr noundef %rhs_expression, ptr noundef nonnull align 8 dereferenceable(8) %lhs, ptr noundef nonnull align 8 dereferenceable(8) %rhs) local_unnamed_addr #4 comdat personality ptr @__gxx_personality_v0 {
entry:
  %ss.i.i.i4 = alloca %"class.std::__cxx11::basic_stringstream", align 8
  %ss.i.i.i = alloca %"class.std::__cxx11::basic_stringstream", align 8
  %ref.tmp = alloca %"class.std::__cxx11::basic_string", align 8
  %ref.tmp1 = alloca %"class.std::__cxx11::basic_string", align 8
  call void @llvm.lifetime.start.p0(i64 392, ptr nonnull %ss.i.i.i), !noalias !17
  call void @_ZNSt7__cxx1118basic_stringstreamIcSt11char_traitsIcESaIcEEC1Ev(ptr noundef nonnull align 8 dereferenceable(128) %ss.i.i.i), !noalias !22
  %add.ptr.i.i.i = getelementptr inbounds i8, ptr %ss.i.i.i, i64 16
  %0 = load i64, ptr %lhs, align 8, !noalias !22
  %call.i.i.i.i.i.i1.i.i.i = invoke noundef nonnull align 8 dereferenceable(8) ptr @_ZNSolsEm(ptr noundef nonnull align 8 dereferenceable(8) %add.ptr.i.i.i, i64 noundef %0)
          to label %invoke.cont.i.i.i unwind label %lpad.i.i.i, !noalias !22

invoke.cont.i.i.i:                                ; preds = %entry
  invoke void @_ZNKSt7__cxx1118basic_stringstreamIcSt11char_traitsIcESaIcEE3strEv(ptr nonnull sret(%"class.std::__cxx11::basic_string") align 8 %ref.tmp, ptr noundef nonnull align 8 dereferenceable(128) %ss.i.i.i)
          to label %_ZN7testing8internal33FormatForComparisonFailureMessageImmEENSt7__cxx1112basic_stringIcSt11char_traitsIcESaIcEEERKT_RKT0_.exit unwind label %lpad.i.i.i

common.resume:                                    ; preds = %ehcleanup, %lpad.i.i.i
  %common.resume.op = phi { ptr, i32 } [ %1, %lpad.i.i.i ], [ %.pn, %ehcleanup ]
  resume { ptr, i32 } %common.resume.op

lpad.i.i.i:                                       ; preds = %invoke.cont.i.i.i, %entry
  %1 = landingpad { ptr, i32 }
          cleanup
  call void @_ZNSt7__cxx1118basic_stringstreamIcSt11char_traitsIcESaIcEED1Ev(ptr noundef nonnull align 8 dereferenceable(128) %ss.i.i.i) #20
  br label %common.resume

_ZN7testing8internal33FormatForComparisonFailureMessageImmEENSt7__cxx1112basic_stringIcSt11char_traitsIcESaIcEEERKT_RKT0_.exit: ; preds = %invoke.cont.i.i.i
  call void @_ZNSt7__cxx1118basic_stringstreamIcSt11char_traitsIcESaIcEED1Ev(ptr noundef nonnull align 8 dereferenceable(128) %ss.i.i.i) #20
  call void @llvm.lifetime.end.p0(i64 392, ptr nonnull %ss.i.i.i), !noalias !17
  call void @llvm.lifetime.start.p0(i64 392, ptr nonnull %ss.i.i.i4), !noalias !25
  invoke void @_ZNSt7__cxx1118basic_stringstreamIcSt11char_traitsIcESaIcEEC1Ev(ptr noundef nonnull align 8 dereferenceable(128) %ss.i.i.i4)
          to label %.noexc unwind label %lpad

.noexc:                                           ; preds = %_ZN7testing8internal33FormatForComparisonFailureMessageImmEENSt7__cxx1112basic_stringIcSt11char_traitsIcESaIcEEERKT_RKT0_.exit
  %add.ptr.i.i.i5 = getelementptr inbounds i8, ptr %ss.i.i.i4, i64 16
  %2 = load i64, ptr %rhs, align 8, !noalias !30
  %call.i.i.i.i.i.i1.i.i.i6 = invoke noundef nonnull align 8 dereferenceable(8) ptr @_ZNSolsEm(ptr noundef nonnull align 8 dereferenceable(8) %add.ptr.i.i.i5, i64 noundef %2)
          to label %invoke.cont.i.i.i8 unwind label %lpad.i.i.i7, !noalias !30

invoke.cont.i.i.i8:                               ; preds = %.noexc
  invoke void @_ZNKSt7__cxx1118basic_stringstreamIcSt11char_traitsIcESaIcEE3strEv(ptr nonnull sret(%"class.std::__cxx11::basic_string") align 8 %ref.tmp1, ptr noundef nonnull align 8 dereferenceable(128) %ss.i.i.i4)
          to label %invoke.cont unwind label %lpad.i.i.i7

lpad.i.i.i7:                                      ; preds = %invoke.cont.i.i.i8, %.noexc
  %3 = landingpad { ptr, i32 }
          cleanup
  call void @_ZNSt7__cxx1118basic_stringstreamIcSt11char_traitsIcESaIcEED1Ev(ptr noundef nonnull align 8 dereferenceable(128) %ss.i.i.i4) #20
  br label %ehcleanup

invoke.cont:                                      ; preds = %invoke.cont.i.i.i8
  call void @_ZNSt7__cxx1118basic_stringstreamIcSt11char_traitsIcESaIcEED1Ev(ptr noundef nonnull align 8 dereferenceable(128) %ss.i.i.i4) #20
  call void @llvm.lifetime.end.p0(i64 392, ptr nonnull %ss.i.i.i4), !noalias !25
  invoke void @_ZN7testing8internal9EqFailureEPKcS2_RKNSt7__cxx1112basic_stringIcSt11char_traitsIcESaIcEEESA_b(ptr sret(%"class.testing::AssertionResult") align 8 %agg.result, ptr noundef %lhs_expression, ptr noundef %rhs_expression, ptr noundef nonnull align 8 dereferenceable(32) %ref.tmp, ptr noundef nonnull align 8 dereferenceable(32) %ref.tmp1, i1 noundef zeroext false)
          to label %invoke.cont3 unwind label %lpad2

invoke.cont3:                                     ; preds = %invoke.cont
  call void @_ZNSt7__cxx1112basic_stringIcSt11char_traitsIcESaIcEED1Ev(ptr noundef nonnull align 8 dereferenceable(32) %ref.tmp1) #20
  call void @_ZNSt7__cxx1112basic_stringIcSt11char_traitsIcESaIcEED1Ev(ptr noundef nonnull align 8 dereferenceable(32) %ref.tmp) #20
  ret void

lpad:                                             ; preds = %_ZN7testing8internal33FormatForComparisonFailureMessageImmEENSt7__cxx1112basic_stringIcSt11char_traitsIcESaIcEEERKT_RKT0_.exit
  %4 = landingpad { ptr, i32 }
          cleanup
  br label %ehcleanup

lpad2:                                            ; preds = %invoke.cont
  %5 = landingpad { ptr, i32 }
          cleanup
  call void @_ZNSt7__cxx1112basic_stringIcSt11char_traitsIcESaIcEED1Ev(ptr noundef nonnull align 8 dereferenceable(32) %ref.tmp1) #20
  br label %ehcleanup

ehcleanup:                                        ; preds = %lpad, %lpad.i.i.i7, %lpad2
  %.pn = phi { ptr, i32 } [ %5, %lpad2 ], [ %4, %lpad ], [ %3, %lpad.i.i.i7 ]
  call void @_ZNSt7__cxx1112basic_stringIcSt11char_traitsIcESaIcEED1Ev(ptr noundef nonnull align 8 dereferenceable(32) %ref.tmp) #20
  br label %common.resume
}

declare void @_ZN7testing8internal9EqFailureEPKcS2_RKNSt7__cxx1112basic_stringIcSt11char_traitsIcESaIcEEESA_b(ptr sret(%"class.testing::AssertionResult") align 8, ptr noundef, ptr noundef, ptr noundef nonnull align 8 dereferenceable(32), ptr noundef nonnull align 8 dereferenceable(32), i1 noundef zeroext) local_unnamed_addr #0

declare void @_ZNSt7__cxx1118basic_stringstreamIcSt11char_traitsIcESaIcEEC1Ev(ptr noundef nonnull align 8 dereferenceable(128)) unnamed_addr #0

declare void @_ZNKSt7__cxx1118basic_stringstreamIcSt11char_traitsIcESaIcEE3strEv(ptr sret(%"class.std::__cxx11::basic_string") align 8, ptr noundef nonnull align 8 dereferenceable(128)) local_unnamed_addr #0

; Function Attrs: nounwind
declare void @_ZNSt7__cxx1118basic_stringstreamIcSt11char_traitsIcESaIcEED1Ev(ptr noundef nonnull align 8 dereferenceable(128)) unnamed_addr #1

declare noundef nonnull align 8 dereferenceable(8) ptr @_ZNSolsEm(ptr noundef nonnull align 8 dereferenceable(8), i64 noundef) local_unnamed_addr #0

; Function Attrs: nounwind
declare noundef ptr @_ZNKSt7__cxx1112basic_stringIcSt11char_traitsIcESaIcEE5c_strEv(ptr noundef nonnull align 8 dereferenceable(32)) local_unnamed_addr #1

; Function Attrs: noreturn nounwind uwtable
define linkonce_odr hidden void @__clang_call_terminate(ptr noundef %0) local_unnamed_addr #9 comdat {
  %2 = tail call ptr @__cxa_begin_catch(ptr %0) #20
  tail call void @_ZSt9terminatev() #23
  unreachable
}

declare ptr @__cxa_begin_catch(ptr) local_unnamed_addr

declare void @_ZSt9terminatev() local_unnamed_addr

; Function Attrs: mustprogress nofree norecurse nosync nounwind willreturn memory(none) uwtable
define internal void @_ZN7testing8internal15TestFactoryImplIN12_GLOBAL__N_143PCG642018EngineTest_VerifyGoldenSeeded_TestEED2Ev(ptr nocapture nonnull readnone align 8 %this) unnamed_addr #7 align 2 {
entry:
  ret void
}

; Function Attrs: mustprogress nounwind uwtable
define internal void @_ZN7testing8internal15TestFactoryImplIN12_GLOBAL__N_143PCG642018EngineTest_VerifyGoldenSeeded_TestEED0Ev(ptr noundef nonnull align 8 dereferenceable(8) %this) unnamed_addr #3 align 2 {
entry:
  tail call void @_ZdlPv(ptr noundef nonnull %this) #21
  ret void
}

; Function Attrs: mustprogress uwtable
define internal noundef nonnull ptr @_ZN7testing8internal15TestFactoryImplIN12_GLOBAL__N_143PCG642018EngineTest_VerifyGoldenSeeded_TestEE10CreateTestEv(ptr nocapture nonnull readnone align 8 %this) unnamed_addr #4 align 2 personality ptr @__gxx_personality_v0 {
entry:
  %call = tail call noalias noundef nonnull dereferenceable(16) ptr @_Znwm(i64 noundef 16) #22
  invoke void @_ZN7testing4TestC2Ev(ptr noundef nonnull align 8 dereferenceable(16) %call)
          to label %invoke.cont unwind label %lpad

invoke.cont:                                      ; preds = %entry
  store ptr getelementptr inbounds ({ [8 x ptr] }, ptr @_ZTVN12_GLOBAL__N_143PCG642018EngineTest_VerifyGoldenSeeded_TestE, i64 0, inrange i32 0, i64 2), ptr %call, align 8
  ret ptr %call

lpad:                                             ; preds = %entry
  %0 = landingpad { ptr, i32 }
          cleanup
  tail call void @_ZdlPv(ptr noundef nonnull %call) #21
  resume { ptr, i32 } %0
}

; Function Attrs: mustprogress nounwind uwtable
define internal void @_ZN12_GLOBAL__N_143PCG642018EngineTest_VerifyGoldenSeeded_TestD2Ev(ptr noundef nonnull align 8 dereferenceable(16) %this) unnamed_addr #3 align 2 {
entry:
  tail call void @_ZN7testing4TestD2Ev(ptr noundef nonnull align 8 dereferenceable(16) %this) #20
  ret void
}

; Function Attrs: mustprogress nounwind uwtable
define internal void @_ZN12_GLOBAL__N_143PCG642018EngineTest_VerifyGoldenSeeded_TestD0Ev(ptr noundef nonnull align 8 dereferenceable(16) %this) unnamed_addr #3 align 2 {
entry:
  tail call void @_ZN7testing4TestD2Ev(ptr noundef nonnull align 8 dereferenceable(16) %this) #20
  tail call void @_ZdlPv(ptr noundef nonnull %this) #21
  ret void
}

; Function Attrs: mustprogress uwtable
define internal void @_ZN12_GLOBAL__N_143PCG642018EngineTest_VerifyGoldenSeeded_Test8TestBodyEv(ptr nocapture nonnull readnone align 8 %this) unnamed_addr #4 align 2 personality ptr @__gxx_personality_v0 {
entry:
  %buffer.i.i = alloca [4 x i32], align 16
  %buffer.i.i.i = alloca [4 x i32], align 16
  %kGolden = alloca [127 x i64], align 16
  %ref.tmp = alloca [3 x i32], align 4
  %gtest_ar = alloca %"class.testing::AssertionResult", align 8
  %ref.tmp4 = alloca i64, align 8
  %ref.tmp8 = alloca %"class.testing::Message", align 8
  %ref.tmp11 = alloca %"class.testing::internal::AssertHelper", align 8
  %gtest_ar30 = alloca %"class.testing::AssertionResult", align 8
  %ref.tmp31 = alloca i64, align 8
  %ref.tmp38 = alloca %"class.testing::Message", align 8
  %ref.tmp41 = alloca %"class.testing::internal::AssertHelper", align 8
  call void @llvm.memcpy.p0.p0.i64(ptr noundef nonnull align 16 dereferenceable(1016) %kGolden, ptr noundef nonnull align 16 dereferenceable(1016) @__const._ZN12_GLOBAL__N_143PCG642018EngineTest_VerifyGoldenSeeded_Test8TestBodyEv.kGolden, i64 1016, i1 false)
  store i32 12, ptr %ref.tmp, align 4
  %arrayinit.element = getelementptr inbounds i32, ptr %ref.tmp, i64 1
  store i32 34, ptr %arrayinit.element, align 4
  %arrayinit.element2 = getelementptr inbounds i32, ptr %ref.tmp, i64 2
  store i32 56, ptr %arrayinit.element2, align 4
  br label %for.body.i

for.body.i:                                       ; preds = %for.inc.i, %entry
  %seed_sequence.sroa.0.0 = phi ptr [ null, %entry ], [ %seed_sequence.sroa.0.1, %for.inc.i ]
  %seed_sequence.sroa.8.0 = phi ptr [ null, %entry ], [ %seed_sequence.sroa.8.1, %for.inc.i ]
  %seed_sequence.sroa.13.0 = phi ptr [ null, %entry ], [ %seed_sequence.sroa.13.1, %for.inc.i ]
  %it.08.i.idx = phi i64 [ 0, %entry ], [ %it.08.i.add, %for.inc.i ]
  %it.08.i.ptr = getelementptr inbounds i8, ptr %ref.tmp, i64 %it.08.i.idx
  %0 = load i32, ptr %it.08.i.ptr, align 4
  %cmp.not.i.i.i76 = icmp eq ptr %seed_sequence.sroa.8.0, %seed_sequence.sroa.13.0
  br i1 %cmp.not.i.i.i76, label %if.else.i.i.i, label %if.then.i.i.i

if.then.i.i.i:                                    ; preds = %for.body.i
  store i32 %0, ptr %seed_sequence.sroa.8.0, align 4
  br label %for.inc.i

if.else.i.i.i:                                    ; preds = %for.body.i
  %sub.ptr.lhs.cast.i.i.i.i.i.i = ptrtoint ptr %seed_sequence.sroa.8.0 to i64
  %sub.ptr.rhs.cast.i.i.i.i.i.i = ptrtoint ptr %seed_sequence.sroa.0.0 to i64
  %sub.ptr.sub.i.i.i.i.i.i = sub i64 %sub.ptr.lhs.cast.i.i.i.i.i.i, %sub.ptr.rhs.cast.i.i.i.i.i.i
  %cmp.i.i.i.i.i77 = icmp eq i64 %sub.ptr.sub.i.i.i.i.i.i, 9223372036854775804
  br i1 %cmp.i.i.i.i.i77, label %if.then.i.i.i.i.i, label %_ZNKSt6vectorIjSaIjEE12_M_check_lenEmPKc.exit.i.i.i.i

if.then.i.i.i.i.i:                                ; preds = %if.else.i.i.i
  invoke void @_ZSt20__throw_length_errorPKc(ptr noundef nonnull @.str.28) #24
          to label %.noexc.i unwind label %lpad.loopexit.split-lp.i

.noexc.i:                                         ; preds = %if.then.i.i.i.i.i
  unreachable

_ZNKSt6vectorIjSaIjEE12_M_check_lenEmPKc.exit.i.i.i.i: ; preds = %if.else.i.i.i
  %sub.ptr.div.i.i.i.i.i.i = ashr exact i64 %sub.ptr.sub.i.i.i.i.i.i, 2
  %.sroa.speculated.i.i.i.i.i = tail call i64 @llvm.umax.i64(i64 %sub.ptr.div.i.i.i.i.i.i, i64 1)
  %add.i.i.i.i.i = add nsw i64 %.sroa.speculated.i.i.i.i.i, %sub.ptr.div.i.i.i.i.i.i
  %cmp7.i.i.i.i.i = icmp ult i64 %add.i.i.i.i.i, %sub.ptr.div.i.i.i.i.i.i
  %1 = tail call i64 @llvm.umin.i64(i64 %add.i.i.i.i.i, i64 2305843009213693951)
  %cond.i.i.i.i.i = select i1 %cmp7.i.i.i.i.i, i64 2305843009213693951, i64 %1
  %cmp.not.i.i.i.i.i = icmp eq i64 %cond.i.i.i.i.i, 0
  br i1 %cmp.not.i.i.i.i.i, label %_ZNSt12_Vector_baseIjSaIjEE11_M_allocateEm.exit.i.i.i.i, label %cond.true.i.i.i.i.i

cond.true.i.i.i.i.i:                              ; preds = %_ZNKSt6vectorIjSaIjEE12_M_check_lenEmPKc.exit.i.i.i.i
  %mul.i.i.i.i.i.i.i = shl nuw nsw i64 %cond.i.i.i.i.i, 2
  %call5.i.i.i.i.i.i3.i = invoke noalias noundef nonnull ptr @_Znwm(i64 noundef %mul.i.i.i.i.i.i.i) #22
          to label %_ZNSt12_Vector_baseIjSaIjEE11_M_allocateEm.exit.i.i.i.i unwind label %lpad.loopexit.i

_ZNSt12_Vector_baseIjSaIjEE11_M_allocateEm.exit.i.i.i.i: ; preds = %cond.true.i.i.i.i.i, %_ZNKSt6vectorIjSaIjEE12_M_check_lenEmPKc.exit.i.i.i.i
  %cond.i10.i.i.i.i = phi ptr [ null, %_ZNKSt6vectorIjSaIjEE12_M_check_lenEmPKc.exit.i.i.i.i ], [ %call5.i.i.i.i.i.i3.i, %cond.true.i.i.i.i.i ]
  %add.ptr.i.i.i.i80 = getelementptr inbounds i32, ptr %cond.i10.i.i.i.i, i64 %sub.ptr.div.i.i.i.i.i.i
  store i32 %0, ptr %add.ptr.i.i.i.i80, align 4
  %cmp.i.i.i.i.i.i.i = icmp sgt i64 %sub.ptr.sub.i.i.i.i.i.i, 0
  br i1 %cmp.i.i.i.i.i.i.i, label %if.then.i.i.i.i.i.i.i, label %_ZNSt6vectorIjSaIjEE11_S_relocateEPjS2_S2_RS0_.exit17.i.i.i.i

if.then.i.i.i.i.i.i.i:                            ; preds = %_ZNSt12_Vector_baseIjSaIjEE11_M_allocateEm.exit.i.i.i.i
  tail call void @llvm.memmove.p0.p0.i64(ptr nonnull align 4 %cond.i10.i.i.i.i, ptr align 4 %seed_sequence.sroa.0.0, i64 %sub.ptr.sub.i.i.i.i.i.i, i1 false)
  br label %_ZNSt6vectorIjSaIjEE11_S_relocateEPjS2_S2_RS0_.exit17.i.i.i.i

_ZNSt6vectorIjSaIjEE11_S_relocateEPjS2_S2_RS0_.exit17.i.i.i.i: ; preds = %if.then.i.i.i.i.i.i.i, %_ZNSt12_Vector_baseIjSaIjEE11_M_allocateEm.exit.i.i.i.i
  %add.ptr.i.i.i.i.i.i.i = getelementptr inbounds i8, ptr %cond.i10.i.i.i.i, i64 %sub.ptr.sub.i.i.i.i.i.i
  %tobool.not.i.i.i.i.i = icmp eq ptr %seed_sequence.sroa.0.0, null
  br i1 %tobool.not.i.i.i.i.i, label %_ZNSt6vectorIjSaIjEE17_M_realloc_insertIJjEEEvN9__gnu_cxx17__normal_iteratorIPjS1_EEDpOT_.exit.i.i.i, label %if.then.i18.i.i.i.i

if.then.i18.i.i.i.i:                              ; preds = %_ZNSt6vectorIjSaIjEE11_S_relocateEPjS2_S2_RS0_.exit17.i.i.i.i
  tail call void @_ZdlPv(ptr noundef nonnull %seed_sequence.sroa.0.0) #21
  br label %_ZNSt6vectorIjSaIjEE17_M_realloc_insertIJjEEEvN9__gnu_cxx17__normal_iteratorIPjS1_EEDpOT_.exit.i.i.i

_ZNSt6vectorIjSaIjEE17_M_realloc_insertIJjEEEvN9__gnu_cxx17__normal_iteratorIPjS1_EEDpOT_.exit.i.i.i: ; preds = %if.then.i18.i.i.i.i, %_ZNSt6vectorIjSaIjEE11_S_relocateEPjS2_S2_RS0_.exit17.i.i.i.i
  %add.ptr19.i.i.i.i = getelementptr inbounds i32, ptr %cond.i10.i.i.i.i, i64 %cond.i.i.i.i.i
  br label %for.inc.i

for.inc.i:                                        ; preds = %_ZNSt6vectorIjSaIjEE17_M_realloc_insertIJjEEEvN9__gnu_cxx17__normal_iteratorIPjS1_EEDpOT_.exit.i.i.i, %if.then.i.i.i
  %seed_sequence.sroa.0.1 = phi ptr [ %cond.i10.i.i.i.i, %_ZNSt6vectorIjSaIjEE17_M_realloc_insertIJjEEEvN9__gnu_cxx17__normal_iteratorIPjS1_EEDpOT_.exit.i.i.i ], [ %seed_sequence.sroa.0.0, %if.then.i.i.i ]
  %add.ptr.i.i.i.i.i.i.i.pn = phi ptr [ %add.ptr.i.i.i.i.i.i.i, %_ZNSt6vectorIjSaIjEE17_M_realloc_insertIJjEEEvN9__gnu_cxx17__normal_iteratorIPjS1_EEDpOT_.exit.i.i.i ], [ %seed_sequence.sroa.8.0, %if.then.i.i.i ]
  %seed_sequence.sroa.13.1 = phi ptr [ %add.ptr19.i.i.i.i, %_ZNSt6vectorIjSaIjEE17_M_realloc_insertIJjEEEvN9__gnu_cxx17__normal_iteratorIPjS1_EEDpOT_.exit.i.i.i ], [ %seed_sequence.sroa.13.0, %if.then.i.i.i ]
  %seed_sequence.sroa.8.1 = getelementptr inbounds i32, ptr %add.ptr.i.i.i.i.i.i.i.pn, i64 1
  %it.08.i.add = add nuw nsw i64 %it.08.i.idx, 4
  %cmp.not.i = icmp eq i64 %it.08.i.add, 12
  br i1 %cmp.not.i, label %_ZN4absl15random_internal15ExplicitSeedSeqC2IPKiEET_S5_.exit, label %for.body.i, !llvm.loop !33

lpad.loopexit.i:                                  ; preds = %cond.true.i.i.i.i.i
  %lpad.loopexit5.i = landingpad { ptr, i32 }
          cleanup
  br label %lpad.i

lpad.loopexit.split-lp.i:                         ; preds = %if.then.i.i.i.i.i
  %lpad.loopexit.split-lp6.i = landingpad { ptr, i32 }
          cleanup
  br label %lpad.i

lpad.i:                                           ; preds = %lpad.loopexit.split-lp.i, %lpad.loopexit.i
  %lpad.phi.i = phi { ptr, i32 } [ %lpad.loopexit5.i, %lpad.loopexit.i ], [ %lpad.loopexit.split-lp6.i, %lpad.loopexit.split-lp.i ]
  %tobool.not.i.i.i.i78 = icmp eq ptr %seed_sequence.sroa.0.0, null
  br i1 %tobool.not.i.i.i.i78, label %common.resume, label %if.then.i.i.i.i79

if.then.i.i.i.i79:                                ; preds = %lpad.i
  tail call void @_ZdlPv(ptr noundef nonnull %seed_sequence.sroa.0.0) #21
  br label %common.resume

common.resume:                                    ; preds = %if.then.i.i.i.i74, %ehcleanup55, %lpad.i, %if.then.i.i.i.i79
  %common.resume.op = phi { ptr, i32 } [ %lpad.phi.i, %if.then.i.i.i.i79 ], [ %lpad.phi.i, %lpad.i ], [ %.pn9.pn.pn, %ehcleanup55 ], [ %.pn9.pn.pn, %if.then.i.i.i.i74 ]
  resume { ptr, i32 } %common.resume.op

_ZN4absl15random_internal15ExplicitSeedSeqC2IPKiEET_S5_.exit: ; preds = %for.inc.i
  call void @llvm.lifetime.start.p0(i64 16, ptr nonnull %buffer.i.i.i)
  %cmp.i.i.i.i.i.i = icmp eq ptr %seed_sequence.sroa.0.1, %seed_sequence.sroa.8.1
  %sub.ptr.lhs.cast.i.i.i.i.i = ptrtoint ptr %seed_sequence.sroa.8.1 to i64
  %sub.ptr.rhs.cast.i.i.i.i.i = ptrtoint ptr %seed_sequence.sroa.0.1 to i64
  %sub.ptr.sub.i.i.i.i.i = sub i64 %sub.ptr.lhs.cast.i.i.i.i.i, %sub.ptr.rhs.cast.i.i.i.i.i
  %sub.ptr.div.i.i.i.i.i = ashr exact i64 %sub.ptr.sub.i.i.i.i.i, 2
  br i1 %cmp.i.i.i.i.i.i, label %for.body.i.us.preheader.i.i.i, label %for.body.i.i.i.i

for.body.i.us.preheader.i.i.i:                    ; preds = %_ZN4absl15random_internal15ExplicitSeedSeqC2IPKiEET_S5_.exit
  call void @llvm.memset.p0.i64(ptr noundef nonnull align 16 dereferenceable(16) %buffer.i.i.i, i8 0, i64 16, i1 false)
  br label %for.body.i.i.i.preheader

for.body.i.i.i.i:                                 ; preds = %_ZN4absl15random_internal15ExplicitSeedSeqC2IPKiEET_S5_.exit, %for.body.i.i.i.i
  %index.06.i.i.i.i = phi i64 [ %spec.select.i.i.i.i, %for.body.i.i.i.i ], [ 0, %_ZN4absl15random_internal15ExplicitSeedSeqC2IPKiEET_S5_.exit ]
  %begin.addr.05.i.idx.i.i.i = phi i64 [ %begin.addr.05.i.add.i.i.i, %for.body.i.i.i.i ], [ 0, %_ZN4absl15random_internal15ExplicitSeedSeqC2IPKiEET_S5_.exit ]
  %begin.addr.05.i.ptr.i.i.i = getelementptr inbounds i8, ptr %buffer.i.i.i, i64 %begin.addr.05.i.idx.i.i.i
  %inc.i.i.i.i = add i64 %index.06.i.i.i.i, 1
  %add.ptr.i.i.i.i.i = getelementptr inbounds i32, ptr %seed_sequence.sroa.0.1, i64 %index.06.i.i.i.i
  %2 = load i32, ptr %add.ptr.i.i.i.i.i, align 4
  store i32 %2, ptr %begin.addr.05.i.ptr.i.i.i, align 4
  %cmp6.not.i.i.i.i = icmp ult i64 %inc.i.i.i.i, %sub.ptr.div.i.i.i.i.i
  %spec.select.i.i.i.i = select i1 %cmp6.not.i.i.i.i, i64 %inc.i.i.i.i, i64 0
  %begin.addr.05.i.add.i.i.i = add nuw nsw i64 %begin.addr.05.i.idx.i.i.i, 4
  %cmp.not.i.i.i.i = icmp eq i64 %begin.addr.05.i.add.i.i.i, 16
  br i1 %cmp.not.i.i.i.i, label %_ZN4absl15random_internal15ExplicitSeedSeq8generateIPjEEvT_S4_.exit.loopexit19.i.i.i, label %for.body.i.i.i.i, !llvm.loop !34

_ZN4absl15random_internal15ExplicitSeedSeq8generateIPjEEvT_S4_.exit.loopexit19.i.i.i: ; preds = %for.body.i.i.i.i
  %.pre.i.i.i = load i32, ptr %buffer.i.i.i, align 16
  %3 = zext i32 %.pre.i.i.i to i64
  br label %for.body.i.i.i.preheader

for.body.i.i.i.preheader:                         ; preds = %_ZN4absl15random_internal15ExplicitSeedSeq8generateIPjEEvT_S4_.exit.loopexit19.i.i.i, %for.body.i.us.preheader.i.i.i
  %tmp.sroa.0.016.i.i.i.ph = phi i64 [ 0, %for.body.i.us.preheader.i.i.i ], [ %3, %_ZN4absl15random_internal15ExplicitSeedSeq8generateIPjEEvT_S4_.exit.loopexit19.i.i.i ]
  br label %for.body.i.i.i

for.body.i.i.i:                                   ; preds = %for.body.i.i.i.preheader, %for.body.i.i.i
  %i.018.i.i.i = phi i64 [ %inc.i.i.i, %for.body.i.i.i ], [ 1, %for.body.i.i.i.preheader ]
  %tmp.sroa.6.017.i.i.i = phi i64 [ %coerce1.sroa.2.0.extract.trunc.i.i.i.i.i, %for.body.i.i.i ], [ 0, %for.body.i.i.i.preheader ]
  %tmp.sroa.0.016.i.i.i = phi i64 [ %coerce.sroa.0.0.insert.insert.i1.i.i.i.i, %for.body.i.i.i ], [ %tmp.sroa.0.016.i.i.i.ph, %for.body.i.i.i.preheader ]
  %coerce.sroa.2.0.insert.ext.i.i.i.i.i = zext i64 %tmp.sroa.6.017.i.i.i to i128
  %coerce.sroa.0.0.insert.ext.i.i.i.i.i = zext i64 %tmp.sroa.0.016.i.i.i to i128
  %4 = shl i128 %coerce.sroa.2.0.insert.ext.i.i.i.i.i, 96
  %5 = shl nuw nsw i128 %coerce.sroa.0.0.insert.ext.i.i.i.i.i, 32
  %shl.i.i.i.i.i = or disjoint i128 %5, %4
  %coerce1.sroa.0.0.extract.trunc.i.i.i.i.i = trunc i128 %5 to i64
  %coerce1.sroa.2.0.extract.shift.i.i.i.i.i = lshr i128 %shl.i.i.i.i.i, 64
  %coerce1.sroa.2.0.extract.trunc.i.i.i.i.i = trunc i128 %coerce1.sroa.2.0.extract.shift.i.i.i.i.i to i64
  %arrayidx4.i.i.i = getelementptr inbounds [4 x i32], ptr %buffer.i.i.i, i64 0, i64 %i.018.i.i.i
  %6 = load i32, ptr %arrayidx4.i.i.i, align 4
  %conv.i3.i.i.i = zext i32 %6 to i64
  %coerce.sroa.0.0.insert.insert.i1.i.i.i.i = or disjoint i64 %coerce1.sroa.0.0.extract.trunc.i.i.i.i.i, %conv.i3.i.i.i
  %inc.i.i.i = add nuw nsw i64 %i.018.i.i.i, 1
  %exitcond.not.i.i.i = icmp eq i64 %inc.i.i.i, 4
  br i1 %exitcond.not.i.i.i, label %_ZN4absl15random_internal10pcg_engineINS0_13pcg128_paramsILm2549297995355413924ELm4865540595714422341ELm6364136223846793005ELm1442695040888963407EEENS0_17pcg_xsl_rr_128_64EEC2IRNS0_15ExplicitSeedSeqEvEEOT_.exit, label %for.body.i.i.i, !llvm.loop !35

_ZN4absl15random_internal10pcg_engineINS0_13pcg128_paramsILm2549297995355413924ELm4865540595714422341ELm6364136223846793005ELm1442695040888963407EEENS0_17pcg_xsl_rr_128_64EEC2IRNS0_15ExplicitSeedSeqEvEEOT_.exit: ; preds = %for.body.i.i.i
  %coerce.sroa.2.0.insert.shift.i.i.i.i = and i128 %shl.i.i.i.i.i, -18446744073709551616
  %coerce.sroa.0.0.insert.ext.i.i.i.i = zext i64 %coerce.sroa.0.0.insert.insert.i1.i.i.i.i to i128
  %coerce2.sroa.0.0.insert.insert.i.i.i.i = add nuw nsw i128 %coerce.sroa.0.0.insert.ext.i.i.i.i, 1442695040888963407
  %coerce.sroa.0.0.insert.insert.i.i.i.i = add i128 %coerce2.sroa.0.0.insert.insert.i.i.i.i, %coerce.sroa.2.0.insert.shift.i.i.i.i
  %7 = lshr i128 %coerce.sroa.0.0.insert.insert.i.i.i.i, 64
  %.tr.i.i.i.i = trunc i128 %7 to i64
  %.narrow.i.i.i.i = add i64 %.tr.i.i.i.i, 6364136223846793005
  %coerce.sroa.2.0.insert.ext.i.i8.i.i.i = zext i64 %.narrow.i.i.i.i to i128
  %coerce.sroa.2.0.insert.shift.i.i9.i.i.i = shl nuw i128 %coerce.sroa.2.0.insert.ext.i.i8.i.i.i, 64
  %coerce.sroa.0.0.insert.ext.i.i10.i.i.i = and i128 %coerce2.sroa.0.0.insert.insert.i.i.i.i, 18446744073709551615
  %coerce.sroa.0.0.insert.insert.i.i11.i.i.i = or disjoint i128 %coerce.sroa.2.0.insert.shift.i.i9.i.i.i, %coerce.sroa.0.0.insert.ext.i.i10.i.i.i
  %mul.i.i.i.i.i = mul i128 %coerce.sroa.0.0.insert.insert.i.i11.i.i.i, 47026247687942121848144207491837523525
  %coerce.sroa.0.0.insert.insert.i6.i.i.i.i = add i128 %mul.i.i.i.i.i, 1442695040888963407
  %coerce3.sroa.0.0.extract.trunc.i7.i.i.i.i = trunc i128 %coerce.sroa.0.0.insert.insert.i6.i.i.i.i to i64
  %8 = lshr i128 %coerce.sroa.0.0.insert.insert.i6.i.i.i.i, 64
  %.tr.i.i.i.i.i = trunc i128 %8 to i64
  %.narrow.i.i.i.i.i = add i64 %.tr.i.i.i.i.i, 6364136223846793005
  call void @llvm.lifetime.end.p0(i64 16, ptr nonnull %buffer.i.i.i)
  %message_.i.i = getelementptr inbounds %"class.testing::AssertionResult", ptr %gtest_ar, i64 0, i32 1
  br label %invoke.cont5

invoke.cont5:                                     ; preds = %_ZN4absl15random_internal10pcg_engineINS0_13pcg128_paramsILm2549297995355413924ELm4865540595714422341ELm6364136223846793005ELm1442695040888963407EEENS0_17pcg_xsl_rr_128_64EEC2IRNS0_15ExplicitSeedSeqEvEEOT_.exit, %_ZN7testing15AssertionResultD2Ev.exit
  %__begin1.0.ptr93 = phi ptr [ %kGolden, %_ZN4absl15random_internal10pcg_engineINS0_13pcg128_paramsILm2549297995355413924ELm4865540595714422341ELm6364136223846793005ELm1442695040888963407EEENS0_17pcg_xsl_rr_128_64EEC2IRNS0_15ExplicitSeedSeqEvEEOT_.exit ], [ %__begin1.0.ptr, %_ZN7testing15AssertionResultD2Ev.exit ]
  %__begin1.0.idx92 = phi i64 [ 0, %_ZN4absl15random_internal10pcg_engineINS0_13pcg128_paramsILm2549297995355413924ELm4865540595714422341ELm6364136223846793005ELm1442695040888963407EEENS0_17pcg_xsl_rr_128_64EEC2IRNS0_15ExplicitSeedSeqEvEEOT_.exit ], [ %__begin1.0.add, %_ZN7testing15AssertionResultD2Ev.exit ]
  %engine.sroa.0.091 = phi i64 [ %coerce3.sroa.0.0.extract.trunc.i7.i.i.i.i, %_ZN4absl15random_internal10pcg_engineINS0_13pcg128_paramsILm2549297995355413924ELm4865540595714422341ELm6364136223846793005ELm1442695040888963407EEENS0_17pcg_xsl_rr_128_64EEC2IRNS0_15ExplicitSeedSeqEvEEOT_.exit ], [ %coerce3.sroa.0.0.extract.trunc.i7.i.i, %_ZN7testing15AssertionResultD2Ev.exit ]
  %engine.sroa.6.090 = phi i64 [ %.narrow.i.i.i.i.i, %_ZN4absl15random_internal10pcg_engineINS0_13pcg128_paramsILm2549297995355413924ELm4865540595714422341ELm6364136223846793005ELm1442695040888963407EEENS0_17pcg_xsl_rr_128_64EEC2IRNS0_15ExplicitSeedSeqEvEEOT_.exit ], [ %.narrow.i.i.i, %_ZN7testing15AssertionResultD2Ev.exit ]
  %coerce.sroa.2.0.insert.ext.i.i.i = zext i64 %engine.sroa.6.090 to i128
  %coerce.sroa.2.0.insert.shift.i.i.i = shl nuw i128 %coerce.sroa.2.0.insert.ext.i.i.i, 64
  %coerce.sroa.0.0.insert.ext.i.i.i = zext i64 %engine.sroa.0.091 to i128
  %coerce.sroa.0.0.insert.insert.i.i.i = or disjoint i128 %coerce.sroa.2.0.insert.shift.i.i.i, %coerce.sroa.0.0.insert.ext.i.i.i
  %mul.i.i.i = mul i128 %coerce.sroa.0.0.insert.insert.i.i.i, 47026247687942121848144207491837523525
  %coerce.sroa.0.0.insert.insert.i6.i.i = add i128 %mul.i.i.i, 1442695040888963407
  %coerce3.sroa.0.0.extract.trunc.i7.i.i = trunc i128 %coerce.sroa.0.0.insert.insert.i6.i.i to i64
  %9 = lshr i128 %coerce.sroa.0.0.insert.insert.i6.i.i, 64
  %.tr.i.i.i = trunc i128 %9 to i64
  %.narrow.i.i.i = add i64 %.tr.i.i.i, 6364136223846793005
  %shr.i.i.i = lshr i64 %.narrow.i.i.i, 58
  %xor.i.i12.i.i = xor i64 %.narrow.i.i.i, %coerce3.sroa.0.0.extract.trunc.i7.i.i
  %or.i.i.i.i = call noundef i64 @llvm.fshr.i64(i64 %xor.i.i12.i.i, i64 %xor.i.i12.i.i, i64 %shr.i.i.i)
  store i64 %or.i.i.i.i, ptr %ref.tmp4, align 8
  %10 = load i64, ptr %__begin1.0.ptr93, align 8, !noalias !36
  %cmp.i.i = icmp eq i64 %10, %or.i.i.i.i
  br i1 %cmp.i.i, label %if.then.i.i, label %if.end.i.i

if.then.i.i:                                      ; preds = %invoke.cont5
  invoke void @_ZN7testing16AssertionSuccessEv(ptr nonnull sret(%"class.testing::AssertionResult") align 8 %gtest_ar)
          to label %invoke.cont6 unwind label %lpad.loopexit.split-lp

if.end.i.i:                                       ; preds = %invoke.cont5
  invoke void @_ZN7testing8internal18CmpHelperEQFailureImmEENS_15AssertionResultEPKcS4_RKT_RKT0_(ptr nonnull sret(%"class.testing::AssertionResult") align 8 %gtest_ar, ptr noundef nonnull @.str.26, ptr noundef nonnull @.str.27, ptr noundef nonnull align 8 dereferenceable(8) %__begin1.0.ptr93, ptr noundef nonnull align 8 dereferenceable(8) %ref.tmp4)
          to label %invoke.cont6 unwind label %lpad.loopexit.split-lp

invoke.cont6:                                     ; preds = %if.then.i.i, %if.end.i.i
  %11 = load i8, ptr %gtest_ar, align 8
  %12 = and i8 %11, 1
  %tobool.i.not = icmp eq i8 %12, 0
  br i1 %tobool.i.not, label %if.else, label %if.end

lpad.loopexit:                                    ; preds = %if.then.i.i48, %if.end.i.i47
  %lpad.loopexit85 = landingpad { ptr, i32 }
          cleanup
  br label %ehcleanup55

lpad.loopexit.split-lp:                           ; preds = %if.then.i.i, %if.end.i.i
  %lpad.loopexit.split-lp86 = landingpad { ptr, i32 }
          cleanup
  br label %ehcleanup55

if.else:                                          ; preds = %invoke.cont6
  invoke void @_ZN7testing7MessageC1Ev(ptr noundef nonnull align 8 dereferenceable(8) %ref.tmp8)
          to label %invoke.cont10 unwind label %lpad9

invoke.cont10:                                    ; preds = %if.else
  %13 = load ptr, ptr %message_.i.i, align 8
  %cmp.i.i.not.i.i = icmp eq ptr %13, null
  br i1 %cmp.i.i.not.i.i, label %invoke.cont13, label %cond.true.i.i

cond.true.i.i:                                    ; preds = %invoke.cont10
  %call4.i.i = call noundef ptr @_ZNKSt7__cxx1112basic_stringIcSt11char_traitsIcESaIcEE5c_strEv(ptr noundef nonnull align 8 dereferenceable(32) %13) #20
  br label %invoke.cont13

invoke.cont13:                                    ; preds = %cond.true.i.i, %invoke.cont10
  %cond.i.i = phi ptr [ %call4.i.i, %cond.true.i.i ], [ @.str, %invoke.cont10 ]
  invoke void @_ZN7testing8internal12AssertHelperC1ENS_14TestPartResult4TypeEPKciS5_(ptr noundef nonnull align 8 dereferenceable(8) %ref.tmp11, i32 noundef 1, ptr noundef nonnull @.str.2, i32 noundef 403, ptr noundef %cond.i.i)
          to label %invoke.cont15 unwind label %lpad12

invoke.cont15:                                    ; preds = %invoke.cont13
  invoke void @_ZNK7testing8internal12AssertHelperaSERKNS_7MessageE(ptr noundef nonnull align 8 dereferenceable(8) %ref.tmp11, ptr noundef nonnull align 8 dereferenceable(8) %ref.tmp8)
          to label %invoke.cont17 unwind label %lpad16

invoke.cont17:                                    ; preds = %invoke.cont15
  call void @_ZN7testing8internal12AssertHelperD1Ev(ptr noundef nonnull align 8 dereferenceable(8) %ref.tmp11) #20
  %14 = load ptr, ptr %ref.tmp8, align 8
  %cmp.not.i.i = icmp eq ptr %14, null
  br i1 %cmp.not.i.i, label %_ZN7testing7MessageD2Ev.exit, label %_ZNKSt14default_deleteINSt7__cxx1118basic_stringstreamIcSt11char_traitsIcESaIcEEEEclEPS5_.exit.i.i

_ZNKSt14default_deleteINSt7__cxx1118basic_stringstreamIcSt11char_traitsIcESaIcEEEEclEPS5_.exit.i.i: ; preds = %invoke.cont17
  %vtable.i.i.i = load ptr, ptr %14, align 8
  %vfn.i.i.i = getelementptr inbounds ptr, ptr %vtable.i.i.i, i64 1
  %15 = load ptr, ptr %vfn.i.i.i, align 8
  call void %15(ptr noundef nonnull align 8 dereferenceable(128) %14) #20
  br label %_ZN7testing7MessageD2Ev.exit

_ZN7testing7MessageD2Ev.exit:                     ; preds = %invoke.cont17, %_ZNKSt14default_deleteINSt7__cxx1118basic_stringstreamIcSt11char_traitsIcESaIcEEEEclEPS5_.exit.i.i
  store ptr null, ptr %ref.tmp8, align 8
  br label %if.end

lpad9:                                            ; preds = %if.else
  %16 = landingpad { ptr, i32 }
          cleanup
  br label %ehcleanup18

lpad12:                                           ; preds = %invoke.cont13
  %17 = landingpad { ptr, i32 }
          cleanup
  br label %ehcleanup

lpad16:                                           ; preds = %invoke.cont15
  %18 = landingpad { ptr, i32 }
          cleanup
  call void @_ZN7testing8internal12AssertHelperD1Ev(ptr noundef nonnull align 8 dereferenceable(8) %ref.tmp11) #20
  br label %ehcleanup

ehcleanup:                                        ; preds = %lpad16, %lpad12
  %.pn9 = phi { ptr, i32 } [ %18, %lpad16 ], [ %17, %lpad12 ]
  %19 = load ptr, ptr %ref.tmp8, align 8
  %cmp.not.i.i14 = icmp eq ptr %19, null
  br i1 %cmp.not.i.i14, label %_ZN7testing7MessageD2Ev.exit18, label %_ZNKSt14default_deleteINSt7__cxx1118basic_stringstreamIcSt11char_traitsIcESaIcEEEEclEPS5_.exit.i.i15

_ZNKSt14default_deleteINSt7__cxx1118basic_stringstreamIcSt11char_traitsIcESaIcEEEEclEPS5_.exit.i.i15: ; preds = %ehcleanup
  %vtable.i.i.i16 = load ptr, ptr %19, align 8
  %vfn.i.i.i17 = getelementptr inbounds ptr, ptr %vtable.i.i.i16, i64 1
  %20 = load ptr, ptr %vfn.i.i.i17, align 8
  call void %20(ptr noundef nonnull align 8 dereferenceable(128) %19) #20
  br label %_ZN7testing7MessageD2Ev.exit18

_ZN7testing7MessageD2Ev.exit18:                   ; preds = %ehcleanup, %_ZNKSt14default_deleteINSt7__cxx1118basic_stringstreamIcSt11char_traitsIcESaIcEEEEclEPS5_.exit.i.i15
  store ptr null, ptr %ref.tmp8, align 8
  br label %ehcleanup18

if.end:                                           ; preds = %invoke.cont6, %_ZN7testing7MessageD2Ev.exit
  %21 = load ptr, ptr %message_.i.i, align 8
  %cmp.not.i.i19 = icmp eq ptr %21, null
  br i1 %cmp.not.i.i19, label %_ZN7testing15AssertionResultD2Ev.exit, label %_ZNKSt14default_deleteINSt7__cxx1112basic_stringIcSt11char_traitsIcESaIcEEEEclEPS5_.exit.i.i

_ZNKSt14default_deleteINSt7__cxx1112basic_stringIcSt11char_traitsIcESaIcEEEEclEPS5_.exit.i.i: ; preds = %if.end
  call void @_ZNSt7__cxx1112basic_stringIcSt11char_traitsIcESaIcEED1Ev(ptr noundef nonnull align 8 dereferenceable(32) %21) #20
  call void @_ZdlPv(ptr noundef nonnull %21) #21
  br label %_ZN7testing15AssertionResultD2Ev.exit

_ZN7testing15AssertionResultD2Ev.exit:            ; preds = %if.end, %_ZNKSt14default_deleteINSt7__cxx1112basic_stringIcSt11char_traitsIcESaIcEEEEclEPS5_.exit.i.i
  store ptr null, ptr %message_.i.i, align 8
  %__begin1.0.add = add nuw nsw i64 %__begin1.0.idx92, 8
  %__begin1.0.ptr = getelementptr inbounds i8, ptr %kGolden, i64 %__begin1.0.add
  %cmp.not = icmp eq i64 %__begin1.0.add, 1016
  br i1 %cmp.not, label %for.end, label %invoke.cont5

ehcleanup18:                                      ; preds = %_ZN7testing7MessageD2Ev.exit18, %lpad9
  %.pn9.pn = phi { ptr, i32 } [ %.pn9, %_ZN7testing7MessageD2Ev.exit18 ], [ %16, %lpad9 ]
  call void @_ZN7testing15AssertionResultD2Ev(ptr noundef nonnull align 8 dereferenceable(16) %gtest_ar) #20
  br label %ehcleanup55

for.end:                                          ; preds = %_ZN7testing15AssertionResultD2Ev.exit
  call void @llvm.lifetime.start.p0(i64 16, ptr nonnull %buffer.i.i)
  br i1 %cmp.i.i.i.i.i.i, label %for.body.i.us.preheader.i.i, label %for.body.i.i.i21

for.body.i.us.preheader.i.i:                      ; preds = %for.end
  call void @llvm.memset.p0.i64(ptr noundef nonnull align 16 dereferenceable(16) %buffer.i.i, i8 0, i64 16, i1 false)
  br label %for.body.i.i.preheader

for.body.i.i.i21:                                 ; preds = %for.end, %for.body.i.i.i21
  %index.06.i.i.i = phi i64 [ %spec.select.i.i.i, %for.body.i.i.i21 ], [ 0, %for.end ]
  %begin.addr.05.i.idx.i.i = phi i64 [ %begin.addr.05.i.add.i.i, %for.body.i.i.i21 ], [ 0, %for.end ]
  %begin.addr.05.i.ptr.i.i = getelementptr inbounds i8, ptr %buffer.i.i, i64 %begin.addr.05.i.idx.i.i
  %inc.i.i.i22 = add i64 %index.06.i.i.i, 1
  %add.ptr.i.i.i.i = getelementptr inbounds i32, ptr %seed_sequence.sroa.0.1, i64 %index.06.i.i.i
  %22 = load i32, ptr %add.ptr.i.i.i.i, align 4
  store i32 %22, ptr %begin.addr.05.i.ptr.i.i, align 4
  %cmp6.not.i.i.i = icmp ult i64 %inc.i.i.i22, %sub.ptr.div.i.i.i.i.i
  %spec.select.i.i.i = select i1 %cmp6.not.i.i.i, i64 %inc.i.i.i22, i64 0
  %begin.addr.05.i.add.i.i = add nuw nsw i64 %begin.addr.05.i.idx.i.i, 4
  %cmp.not.i.i.i = icmp eq i64 %begin.addr.05.i.add.i.i, 16
  br i1 %cmp.not.i.i.i, label %_ZN4absl15random_internal15ExplicitSeedSeq8generateIPjEEvT_S4_.exit.loopexit19.i.i, label %for.body.i.i.i21, !llvm.loop !34

_ZN4absl15random_internal15ExplicitSeedSeq8generateIPjEEvT_S4_.exit.loopexit19.i.i: ; preds = %for.body.i.i.i21
  %.pre.i.i = load i32, ptr %buffer.i.i, align 16
  %23 = zext i32 %.pre.i.i to i64
  br label %for.body.i.i.preheader

for.body.i.i.preheader:                           ; preds = %_ZN4absl15random_internal15ExplicitSeedSeq8generateIPjEEvT_S4_.exit.loopexit19.i.i, %for.body.i.us.preheader.i.i
  %tmp.sroa.0.016.i.i.ph = phi i64 [ 0, %for.body.i.us.preheader.i.i ], [ %23, %_ZN4absl15random_internal15ExplicitSeedSeq8generateIPjEEvT_S4_.exit.loopexit19.i.i ]
  br label %for.body.i.i

for.body.i.i:                                     ; preds = %for.body.i.i.preheader, %for.body.i.i
  %i.018.i.i = phi i64 [ %inc.i.i, %for.body.i.i ], [ 1, %for.body.i.i.preheader ]
  %tmp.sroa.6.017.i.i = phi i64 [ %coerce1.sroa.2.0.extract.trunc.i.i.i.i, %for.body.i.i ], [ 0, %for.body.i.i.preheader ]
  %tmp.sroa.0.016.i.i = phi i64 [ %coerce.sroa.0.0.insert.insert.i1.i.i.i, %for.body.i.i ], [ %tmp.sroa.0.016.i.i.ph, %for.body.i.i.preheader ]
  %coerce.sroa.2.0.insert.ext.i.i.i.i = zext i64 %tmp.sroa.6.017.i.i to i128
  %coerce.sroa.0.0.insert.ext.i.i.i.i23 = zext i64 %tmp.sroa.0.016.i.i to i128
  %24 = shl i128 %coerce.sroa.2.0.insert.ext.i.i.i.i, 96
  %25 = shl nuw nsw i128 %coerce.sroa.0.0.insert.ext.i.i.i.i23, 32
  %shl.i.i.i.i = or disjoint i128 %25, %24
  %coerce1.sroa.0.0.extract.trunc.i.i.i.i = trunc i128 %25 to i64
  %coerce1.sroa.2.0.extract.shift.i.i.i.i = lshr i128 %shl.i.i.i.i, 64
  %coerce1.sroa.2.0.extract.trunc.i.i.i.i = trunc i128 %coerce1.sroa.2.0.extract.shift.i.i.i.i to i64
  %arrayidx4.i.i = getelementptr inbounds [4 x i32], ptr %buffer.i.i, i64 0, i64 %i.018.i.i
  %26 = load i32, ptr %arrayidx4.i.i, align 4
  %conv.i3.i.i = zext i32 %26 to i64
  %coerce.sroa.0.0.insert.insert.i1.i.i.i = or disjoint i64 %coerce1.sroa.0.0.extract.trunc.i.i.i.i, %conv.i3.i.i
  %inc.i.i = add nuw nsw i64 %i.018.i.i, 1
  %exitcond.not.i.i = icmp eq i64 %inc.i.i, 4
  br i1 %exitcond.not.i.i, label %_ZN4absl15random_internal10pcg_engineINS0_13pcg128_paramsILm2549297995355413924ELm4865540595714422341ELm6364136223846793005ELm1442695040888963407EEENS0_17pcg_xsl_rr_128_64EE4seedIRNS0_15ExplicitSeedSeqEEENSt9enable_ifIXntsr3std14is_convertibleIT_mEE5valueEvE4typeEOSA_.exit, label %for.body.i.i, !llvm.loop !35

_ZN4absl15random_internal10pcg_engineINS0_13pcg128_paramsILm2549297995355413924ELm4865540595714422341ELm6364136223846793005ELm1442695040888963407EEENS0_17pcg_xsl_rr_128_64EE4seedIRNS0_15ExplicitSeedSeqEEENSt9enable_ifIXntsr3std14is_convertibleIT_mEE5valueEvE4typeEOSA_.exit: ; preds = %for.body.i.i
  %coerce.sroa.2.0.insert.shift.i.i.i24 = and i128 %shl.i.i.i.i, -18446744073709551616
  %coerce.sroa.0.0.insert.ext.i.i.i25 = zext i64 %coerce.sroa.0.0.insert.insert.i1.i.i.i to i128
  %coerce2.sroa.0.0.insert.insert.i.i.i = add nuw nsw i128 %coerce.sroa.0.0.insert.ext.i.i.i25, 1442695040888963407
  %coerce.sroa.0.0.insert.insert.i.i.i26 = add i128 %coerce2.sroa.0.0.insert.insert.i.i.i, %coerce.sroa.2.0.insert.shift.i.i.i24
  %27 = lshr i128 %coerce.sroa.0.0.insert.insert.i.i.i26, 64
  %.tr.i.i.i27 = trunc i128 %27 to i64
  %.narrow.i.i.i28 = add i64 %.tr.i.i.i27, 6364136223846793005
  %coerce.sroa.2.0.insert.ext.i.i8.i.i = zext i64 %.narrow.i.i.i28 to i128
  %coerce.sroa.2.0.insert.shift.i.i9.i.i = shl nuw i128 %coerce.sroa.2.0.insert.ext.i.i8.i.i, 64
  %coerce.sroa.0.0.insert.ext.i.i10.i.i = and i128 %coerce2.sroa.0.0.insert.insert.i.i.i, 18446744073709551615
  %coerce.sroa.0.0.insert.insert.i.i11.i.i = or disjoint i128 %coerce.sroa.2.0.insert.shift.i.i9.i.i, %coerce.sroa.0.0.insert.ext.i.i10.i.i
  %mul.i.i.i.i = mul i128 %coerce.sroa.0.0.insert.insert.i.i11.i.i, 47026247687942121848144207491837523525
  %coerce.sroa.0.0.insert.insert.i6.i.i.i = add i128 %mul.i.i.i.i, 1442695040888963407
  %coerce3.sroa.0.0.extract.trunc.i7.i.i.i = trunc i128 %coerce.sroa.0.0.insert.insert.i6.i.i.i to i64
  %28 = lshr i128 %coerce.sroa.0.0.insert.insert.i6.i.i.i, 64
  %.tr.i.i.i.i29 = trunc i128 %28 to i64
  %.narrow.i.i.i.i30 = add i64 %.tr.i.i.i.i29, 6364136223846793005
  call void @llvm.lifetime.end.p0(i64 16, ptr nonnull %buffer.i.i)
  %message_.i.i53 = getelementptr inbounds %"class.testing::AssertionResult", ptr %gtest_ar30, i64 0, i32 1
  br label %invoke.cont32

invoke.cont32:                                    ; preds = %_ZN4absl15random_internal10pcg_engineINS0_13pcg128_paramsILm2549297995355413924ELm4865540595714422341ELm6364136223846793005ELm1442695040888963407EEENS0_17pcg_xsl_rr_128_64EE4seedIRNS0_15ExplicitSeedSeqEEENSt9enable_ifIXntsr3std14is_convertibleIT_mEE5valueEvE4typeEOSA_.exit, %_ZN7testing15AssertionResultD2Ev.exit72
  %__begin121.0.ptr97 = phi ptr [ %kGolden, %_ZN4absl15random_internal10pcg_engineINS0_13pcg128_paramsILm2549297995355413924ELm4865540595714422341ELm6364136223846793005ELm1442695040888963407EEENS0_17pcg_xsl_rr_128_64EE4seedIRNS0_15ExplicitSeedSeqEEENSt9enable_ifIXntsr3std14is_convertibleIT_mEE5valueEvE4typeEOSA_.exit ], [ %__begin121.0.ptr, %_ZN7testing15AssertionResultD2Ev.exit72 ]
  %__begin121.0.idx96 = phi i64 [ 0, %_ZN4absl15random_internal10pcg_engineINS0_13pcg128_paramsILm2549297995355413924ELm4865540595714422341ELm6364136223846793005ELm1442695040888963407EEENS0_17pcg_xsl_rr_128_64EE4seedIRNS0_15ExplicitSeedSeqEEENSt9enable_ifIXntsr3std14is_convertibleIT_mEE5valueEvE4typeEOSA_.exit ], [ %__begin121.0.add, %_ZN7testing15AssertionResultD2Ev.exit72 ]
  %engine.sroa.0.195 = phi i64 [ %coerce3.sroa.0.0.extract.trunc.i7.i.i.i, %_ZN4absl15random_internal10pcg_engineINS0_13pcg128_paramsILm2549297995355413924ELm4865540595714422341ELm6364136223846793005ELm1442695040888963407EEENS0_17pcg_xsl_rr_128_64EE4seedIRNS0_15ExplicitSeedSeqEEENSt9enable_ifIXntsr3std14is_convertibleIT_mEE5valueEvE4typeEOSA_.exit ], [ %coerce3.sroa.0.0.extract.trunc.i7.i.i40, %_ZN7testing15AssertionResultD2Ev.exit72 ]
  %engine.sroa.6.194 = phi i64 [ %.narrow.i.i.i.i30, %_ZN4absl15random_internal10pcg_engineINS0_13pcg128_paramsILm2549297995355413924ELm4865540595714422341ELm6364136223846793005ELm1442695040888963407EEENS0_17pcg_xsl_rr_128_64EE4seedIRNS0_15ExplicitSeedSeqEEENSt9enable_ifIXntsr3std14is_convertibleIT_mEE5valueEvE4typeEOSA_.exit ], [ %.narrow.i.i.i42, %_ZN7testing15AssertionResultD2Ev.exit72 ]
  %coerce.sroa.2.0.insert.ext.i.i.i34 = zext i64 %engine.sroa.6.194 to i128
  %coerce.sroa.2.0.insert.shift.i.i.i35 = shl nuw i128 %coerce.sroa.2.0.insert.ext.i.i.i34, 64
  %coerce.sroa.0.0.insert.ext.i.i.i36 = zext i64 %engine.sroa.0.195 to i128
  %coerce.sroa.0.0.insert.insert.i.i.i37 = or disjoint i128 %coerce.sroa.2.0.insert.shift.i.i.i35, %coerce.sroa.0.0.insert.ext.i.i.i36
  %mul.i.i.i38 = mul i128 %coerce.sroa.0.0.insert.insert.i.i.i37, 47026247687942121848144207491837523525
  %coerce.sroa.0.0.insert.insert.i6.i.i39 = add i128 %mul.i.i.i38, 1442695040888963407
  %coerce3.sroa.0.0.extract.trunc.i7.i.i40 = trunc i128 %coerce.sroa.0.0.insert.insert.i6.i.i39 to i64
  %29 = lshr i128 %coerce.sroa.0.0.insert.insert.i6.i.i39, 64
  %.tr.i.i.i41 = trunc i128 %29 to i64
  %.narrow.i.i.i42 = add i64 %.tr.i.i.i41, 6364136223846793005
  %shr.i.i.i43 = lshr i64 %.narrow.i.i.i42, 58
  %xor.i.i12.i.i44 = xor i64 %.narrow.i.i.i42, %coerce3.sroa.0.0.extract.trunc.i7.i.i40
  %or.i.i.i.i45 = call noundef i64 @llvm.fshr.i64(i64 %xor.i.i12.i.i44, i64 %xor.i.i12.i.i44, i64 %shr.i.i.i43)
  store i64 %or.i.i.i.i45, ptr %ref.tmp31, align 8
  %30 = load i64, ptr %__begin121.0.ptr97, align 8, !noalias !41
  %cmp.i.i46 = icmp eq i64 %30, %or.i.i.i.i45
  br i1 %cmp.i.i46, label %if.then.i.i48, label %if.end.i.i47

if.then.i.i48:                                    ; preds = %invoke.cont32
  invoke void @_ZN7testing16AssertionSuccessEv(ptr nonnull sret(%"class.testing::AssertionResult") align 8 %gtest_ar30)
          to label %invoke.cont34 unwind label %lpad.loopexit

if.end.i.i47:                                     ; preds = %invoke.cont32
  invoke void @_ZN7testing8internal18CmpHelperEQFailureImmEENS_15AssertionResultEPKcS4_RKT_RKT0_(ptr nonnull sret(%"class.testing::AssertionResult") align 8 %gtest_ar30, ptr noundef nonnull @.str.26, ptr noundef nonnull @.str.27, ptr noundef nonnull align 8 dereferenceable(8) %__begin121.0.ptr97, ptr noundef nonnull align 8 dereferenceable(8) %ref.tmp31)
          to label %invoke.cont34 unwind label %lpad.loopexit

invoke.cont34:                                    ; preds = %if.then.i.i48, %if.end.i.i47
  %31 = load i8, ptr %gtest_ar30, align 8
  %32 = and i8 %31, 1
  %tobool.i52.not = icmp eq i8 %32, 0
  br i1 %tobool.i52.not, label %if.else37, label %if.end50

if.else37:                                        ; preds = %invoke.cont34
  invoke void @_ZN7testing7MessageC1Ev(ptr noundef nonnull align 8 dereferenceable(8) %ref.tmp38)
          to label %invoke.cont40 unwind label %lpad39

invoke.cont40:                                    ; preds = %if.else37
  %33 = load ptr, ptr %message_.i.i53, align 8
  %cmp.i.i.not.i.i54 = icmp eq ptr %33, null
  br i1 %cmp.i.i.not.i.i54, label %invoke.cont43, label %cond.true.i.i55

cond.true.i.i55:                                  ; preds = %invoke.cont40
  %call4.i.i56 = call noundef ptr @_ZNKSt7__cxx1112basic_stringIcSt11char_traitsIcESaIcEE5c_strEv(ptr noundef nonnull align 8 dereferenceable(32) %33) #20
  br label %invoke.cont43

invoke.cont43:                                    ; preds = %cond.true.i.i55, %invoke.cont40
  %cond.i.i57 = phi ptr [ %call4.i.i56, %cond.true.i.i55 ], [ @.str, %invoke.cont40 ]
  invoke void @_ZN7testing8internal12AssertHelperC1ENS_14TestPartResult4TypeEPKciS5_(ptr noundef nonnull align 8 dereferenceable(8) %ref.tmp41, i32 noundef 1, ptr noundef nonnull @.str.2, i32 noundef 407, ptr noundef %cond.i.i57)
          to label %invoke.cont45 unwind label %lpad42

invoke.cont45:                                    ; preds = %invoke.cont43
  invoke void @_ZNK7testing8internal12AssertHelperaSERKNS_7MessageE(ptr noundef nonnull align 8 dereferenceable(8) %ref.tmp41, ptr noundef nonnull align 8 dereferenceable(8) %ref.tmp38)
          to label %invoke.cont47 unwind label %lpad46

invoke.cont47:                                    ; preds = %invoke.cont45
  call void @_ZN7testing8internal12AssertHelperD1Ev(ptr noundef nonnull align 8 dereferenceable(8) %ref.tmp41) #20
  %34 = load ptr, ptr %ref.tmp38, align 8
  %cmp.not.i.i59 = icmp eq ptr %34, null
  br i1 %cmp.not.i.i59, label %_ZN7testing7MessageD2Ev.exit63, label %_ZNKSt14default_deleteINSt7__cxx1118basic_stringstreamIcSt11char_traitsIcESaIcEEEEclEPS5_.exit.i.i60

_ZNKSt14default_deleteINSt7__cxx1118basic_stringstreamIcSt11char_traitsIcESaIcEEEEclEPS5_.exit.i.i60: ; preds = %invoke.cont47
  %vtable.i.i.i61 = load ptr, ptr %34, align 8
  %vfn.i.i.i62 = getelementptr inbounds ptr, ptr %vtable.i.i.i61, i64 1
  %35 = load ptr, ptr %vfn.i.i.i62, align 8
  call void %35(ptr noundef nonnull align 8 dereferenceable(128) %34) #20
  br label %_ZN7testing7MessageD2Ev.exit63

_ZN7testing7MessageD2Ev.exit63:                   ; preds = %invoke.cont47, %_ZNKSt14default_deleteINSt7__cxx1118basic_stringstreamIcSt11char_traitsIcESaIcEEEEclEPS5_.exit.i.i60
  store ptr null, ptr %ref.tmp38, align 8
  br label %if.end50

lpad39:                                           ; preds = %if.else37
  %36 = landingpad { ptr, i32 }
          cleanup
  br label %ehcleanup51

lpad42:                                           ; preds = %invoke.cont43
  %37 = landingpad { ptr, i32 }
          cleanup
  br label %ehcleanup49

lpad46:                                           ; preds = %invoke.cont45
  %38 = landingpad { ptr, i32 }
          cleanup
  call void @_ZN7testing8internal12AssertHelperD1Ev(ptr noundef nonnull align 8 dereferenceable(8) %ref.tmp41) #20
  br label %ehcleanup49

ehcleanup49:                                      ; preds = %lpad46, %lpad42
  %.pn = phi { ptr, i32 } [ %38, %lpad46 ], [ %37, %lpad42 ]
  %39 = load ptr, ptr %ref.tmp38, align 8
  %cmp.not.i.i64 = icmp eq ptr %39, null
  br i1 %cmp.not.i.i64, label %_ZN7testing7MessageD2Ev.exit68, label %_ZNKSt14default_deleteINSt7__cxx1118basic_stringstreamIcSt11char_traitsIcESaIcEEEEclEPS5_.exit.i.i65

_ZNKSt14default_deleteINSt7__cxx1118basic_stringstreamIcSt11char_traitsIcESaIcEEEEclEPS5_.exit.i.i65: ; preds = %ehcleanup49
  %vtable.i.i.i66 = load ptr, ptr %39, align 8
  %vfn.i.i.i67 = getelementptr inbounds ptr, ptr %vtable.i.i.i66, i64 1
  %40 = load ptr, ptr %vfn.i.i.i67, align 8
  call void %40(ptr noundef nonnull align 8 dereferenceable(128) %39) #20
  br label %_ZN7testing7MessageD2Ev.exit68

_ZN7testing7MessageD2Ev.exit68:                   ; preds = %ehcleanup49, %_ZNKSt14default_deleteINSt7__cxx1118basic_stringstreamIcSt11char_traitsIcESaIcEEEEclEPS5_.exit.i.i65
  store ptr null, ptr %ref.tmp38, align 8
  br label %ehcleanup51

if.end50:                                         ; preds = %invoke.cont34, %_ZN7testing7MessageD2Ev.exit63
  %41 = load ptr, ptr %message_.i.i53, align 8
  %cmp.not.i.i70 = icmp eq ptr %41, null
  br i1 %cmp.not.i.i70, label %_ZN7testing15AssertionResultD2Ev.exit72, label %_ZNKSt14default_deleteINSt7__cxx1112basic_stringIcSt11char_traitsIcESaIcEEEEclEPS5_.exit.i.i71

_ZNKSt14default_deleteINSt7__cxx1112basic_stringIcSt11char_traitsIcESaIcEEEEclEPS5_.exit.i.i71: ; preds = %if.end50
  call void @_ZNSt7__cxx1112basic_stringIcSt11char_traitsIcESaIcEED1Ev(ptr noundef nonnull align 8 dereferenceable(32) %41) #20
  call void @_ZdlPv(ptr noundef nonnull %41) #21
  br label %_ZN7testing15AssertionResultD2Ev.exit72

_ZN7testing15AssertionResultD2Ev.exit72:          ; preds = %if.end50, %_ZNKSt14default_deleteINSt7__cxx1112basic_stringIcSt11char_traitsIcESaIcEEEEclEPS5_.exit.i.i71
  store ptr null, ptr %message_.i.i53, align 8
  %__begin121.0.add = add nuw nsw i64 %__begin121.0.idx96, 8
  %__begin121.0.ptr = getelementptr inbounds i8, ptr %kGolden, i64 %__begin121.0.add
  %cmp27.not = icmp eq i64 %__begin121.0.add, 1016
  br i1 %cmp27.not, label %for.end54, label %invoke.cont32

ehcleanup51:                                      ; preds = %_ZN7testing7MessageD2Ev.exit68, %lpad39
  %.pn.pn = phi { ptr, i32 } [ %.pn, %_ZN7testing7MessageD2Ev.exit68 ], [ %36, %lpad39 ]
  call void @_ZN7testing15AssertionResultD2Ev(ptr noundef nonnull align 8 dereferenceable(16) %gtest_ar30) #20
  br label %ehcleanup55

for.end54:                                        ; preds = %_ZN7testing15AssertionResultD2Ev.exit72
  %tobool.not.i.i.i.i = icmp eq ptr %seed_sequence.sroa.0.1, null
  br i1 %tobool.not.i.i.i.i, label %_ZN4absl15random_internal15ExplicitSeedSeqD2Ev.exit, label %if.then.i.i.i.i

if.then.i.i.i.i:                                  ; preds = %for.end54
  call void @_ZdlPv(ptr noundef nonnull %seed_sequence.sroa.0.1) #21
  br label %_ZN4absl15random_internal15ExplicitSeedSeqD2Ev.exit

_ZN4absl15random_internal15ExplicitSeedSeqD2Ev.exit: ; preds = %for.end54, %if.then.i.i.i.i
  ret void

ehcleanup55:                                      ; preds = %lpad.loopexit, %lpad.loopexit.split-lp, %ehcleanup51, %ehcleanup18
  %.pn9.pn.pn = phi { ptr, i32 } [ %.pn9.pn, %ehcleanup18 ], [ %.pn.pn, %ehcleanup51 ], [ %lpad.loopexit85, %lpad.loopexit ], [ %lpad.loopexit.split-lp86, %lpad.loopexit.split-lp ]
  %tobool.not.i.i.i.i73 = icmp eq ptr %seed_sequence.sroa.0.1, null
  br i1 %tobool.not.i.i.i.i73, label %common.resume, label %if.then.i.i.i.i74

if.then.i.i.i.i74:                                ; preds = %ehcleanup55
  call void @_ZdlPv(ptr noundef nonnull %seed_sequence.sroa.0.1) #21
  br label %common.resume
}

; Function Attrs: noreturn
declare void @_ZSt20__throw_length_errorPKc(ptr noundef) local_unnamed_addr #10

; Function Attrs: mustprogress nocallback nofree nounwind willreturn memory(argmem: readwrite)
declare void @llvm.memmove.p0.p0.i64(ptr nocapture writeonly, ptr nocapture readonly, i64, i1 immarg) #8

; Function Attrs: mustprogress nofree norecurse nosync nounwind willreturn memory(none) uwtable
define internal void @_ZN7testing8internal15TestFactoryImplIN12_GLOBAL__N_159PCG642018EngineTest_VerifyGoldenFromDeserializedEngine_TestEED2Ev(ptr nocapture nonnull readnone align 8 %this) unnamed_addr #7 align 2 {
entry:
  ret void
}

; Function Attrs: mustprogress nounwind uwtable
define internal void @_ZN7testing8internal15TestFactoryImplIN12_GLOBAL__N_159PCG642018EngineTest_VerifyGoldenFromDeserializedEngine_TestEED0Ev(ptr noundef nonnull align 8 dereferenceable(8) %this) unnamed_addr #3 align 2 {
entry:
  tail call void @_ZdlPv(ptr noundef nonnull %this) #21
  ret void
}

; Function Attrs: mustprogress uwtable
define internal noundef nonnull ptr @_ZN7testing8internal15TestFactoryImplIN12_GLOBAL__N_159PCG642018EngineTest_VerifyGoldenFromDeserializedEngine_TestEE10CreateTestEv(ptr nocapture nonnull readnone align 8 %this) unnamed_addr #4 align 2 personality ptr @__gxx_personality_v0 {
entry:
  %call = tail call noalias noundef nonnull dereferenceable(16) ptr @_Znwm(i64 noundef 16) #22
  invoke void @_ZN7testing4TestC2Ev(ptr noundef nonnull align 8 dereferenceable(16) %call)
          to label %invoke.cont unwind label %lpad

invoke.cont:                                      ; preds = %entry
  store ptr getelementptr inbounds ({ [8 x ptr] }, ptr @_ZTVN12_GLOBAL__N_159PCG642018EngineTest_VerifyGoldenFromDeserializedEngine_TestE, i64 0, inrange i32 0, i64 2), ptr %call, align 8
  ret ptr %call

lpad:                                             ; preds = %entry
  %0 = landingpad { ptr, i32 }
          cleanup
  tail call void @_ZdlPv(ptr noundef nonnull %call) #21
  resume { ptr, i32 } %0
}

; Function Attrs: mustprogress nounwind uwtable
define internal void @_ZN12_GLOBAL__N_159PCG642018EngineTest_VerifyGoldenFromDeserializedEngine_TestD2Ev(ptr noundef nonnull align 8 dereferenceable(16) %this) unnamed_addr #3 align 2 {
entry:
  tail call void @_ZN7testing4TestD2Ev(ptr noundef nonnull align 8 dereferenceable(16) %this) #20
  ret void
}

; Function Attrs: mustprogress nounwind uwtable
define internal void @_ZN12_GLOBAL__N_159PCG642018EngineTest_VerifyGoldenFromDeserializedEngine_TestD0Ev(ptr noundef nonnull align 8 dereferenceable(16) %this) unnamed_addr #3 align 2 {
entry:
  tail call void @_ZN7testing4TestD2Ev(ptr noundef nonnull align 8 dereferenceable(16) %this) #20
  tail call void @_ZdlPv(ptr noundef nonnull %this) #21
  ret void
}

; Function Attrs: mustprogress uwtable
define internal void @_ZN12_GLOBAL__N_159PCG642018EngineTest_VerifyGoldenFromDeserializedEngine_Test8TestBodyEv(ptr nocapture nonnull readnone align 8 %this) unnamed_addr #4 align 2 personality ptr @__gxx_personality_v0 {
entry:
  %kGolden = alloca [127 x i64], align 16
  %engine = alloca %"class.absl::random_internal::pcg_engine", align 16
  %stream = alloca %"class.std::__cxx11::basic_istringstream", align 8
  %ref.tmp = alloca %"class.std::__cxx11::basic_string", align 8
  %ref.tmp2 = alloca %"class.std::allocator", align 1
  %gtest_ar = alloca %"class.testing::AssertionResult", align 8
  %ref.tmp8 = alloca i64, align 8
  %ref.tmp13 = alloca %"class.testing::Message", align 8
  %ref.tmp16 = alloca %"class.testing::internal::AssertHelper", align 8
  call void @llvm.memcpy.p0.p0.i64(ptr noundef nonnull align 16 dereferenceable(1016) %kGolden, ptr noundef nonnull align 16 dereferenceable(1016) @__const._ZN12_GLOBAL__N_159PCG642018EngineTest_VerifyGoldenFromDeserializedEngine_Test8TestBodyEv.kGolden, i64 1016, i1 false)
  store i64 -6043960321096071782, ptr %engine, align 16
  %ref.tmp.sroa.2.0.state_.sroa_idx.i.i = getelementptr inbounds i8, ptr %engine, i64 8
  store i64 5220163216168088568, ptr %ref.tmp.sroa.2.0.state_.sroa_idx.i.i, align 8
  call void @_ZNSaIcEC1Ev(ptr noundef nonnull align 1 dereferenceable(1) %ref.tmp2) #20
  %call.i10 = invoke noundef ptr @_ZNSt7__cxx1112basic_stringIcSt11char_traitsIcESaIcEE13_M_local_dataEv(ptr noundef nonnull align 8 dereferenceable(32) %ref.tmp)
          to label %call.i.noexc unwind label %lpad

call.i.noexc:                                     ; preds = %entry
  invoke void @_ZNSt7__cxx1112basic_stringIcSt11char_traitsIcESaIcEE12_Alloc_hiderC1EPcRKS3_(ptr noundef nonnull align 8 dereferenceable(8) %ref.tmp, ptr noundef %call.i10, ptr noundef nonnull align 1 dereferenceable(1) %ref.tmp2)
          to label %.noexc unwind label %lpad

.noexc:                                           ; preds = %call.i.noexc
  invoke void @_ZNSt7__cxx1112basic_stringIcSt11char_traitsIcESaIcEE12_M_constructIPKcEEvT_S8_St20forward_iterator_tag(ptr noundef nonnull align 8 dereferenceable(32) %ref.tmp, ptr noundef nonnull @.str.29, ptr noundef nonnull getelementptr inbounds ([121 x i8], ptr @.str.29, i64 0, i64 120))
          to label %invoke.cont unwind label %lpad.i

lpad.i:                                           ; preds = %.noexc
  %0 = landingpad { ptr, i32 }
          cleanup
  call void @_ZNSaIcED2Ev(ptr noundef nonnull align 1 dereferenceable(1) %ref.tmp) #20
  br label %ehcleanup

invoke.cont:                                      ; preds = %.noexc
  invoke void @_ZNSt7__cxx1119basic_istringstreamIcSt11char_traitsIcESaIcEEC1ERKNS_12basic_stringIcS2_S3_EESt13_Ios_Openmode(ptr noundef nonnull align 8 dereferenceable(120) %stream, ptr noundef nonnull align 8 dereferenceable(32) %ref.tmp, i32 noundef 8)
          to label %invoke.cont4 unwind label %lpad3

invoke.cont4:                                     ; preds = %invoke.cont
  call void @_ZNSt7__cxx1112basic_stringIcSt11char_traitsIcESaIcEED1Ev(ptr noundef nonnull align 8 dereferenceable(32) %ref.tmp) #20
  call void @_ZNSaIcED1Ev(ptr noundef nonnull align 1 dereferenceable(1) %ref.tmp2) #20
  %call = invoke noundef nonnull align 8 dereferenceable(16) ptr @_ZN4absl15random_internalrsIcSt11char_traitsIcEEENSt9enable_ifILb1ERSt13basic_istreamIT_T0_EE4typeES9_RNS0_10pcg_engineINS0_13pcg128_paramsILm2549297995355413924ELm4865540595714422341ELm6364136223846793005ELm1442695040888963407EEENS0_17pcg_xsl_rr_128_64EEE(ptr noundef nonnull align 8 dereferenceable(16) %stream, ptr noundef nonnull align 16 dereferenceable(16) %engine)
          to label %for.cond.preheader unwind label %lpad5.loopexit.split-lp

for.cond.preheader:                               ; preds = %invoke.cont4
  %message_.i.i = getelementptr inbounds %"class.testing::AssertionResult", ptr %gtest_ar, i64 0, i32 1
  br label %invoke.cont9

invoke.cont9:                                     ; preds = %for.cond.preheader, %_ZN7testing15AssertionResultD2Ev.exit
  %__begin1.0.ptr20 = phi ptr [ %kGolden, %for.cond.preheader ], [ %__begin1.0.ptr, %_ZN7testing15AssertionResultD2Ev.exit ]
  %__begin1.0.idx19 = phi i64 [ 0, %for.cond.preheader ], [ %__begin1.0.add, %_ZN7testing15AssertionResultD2Ev.exit ]
  %agg.tmp.sroa.0.0.copyload.i = load i64, ptr %engine, align 16
  %agg.tmp.sroa.2.0.copyload.i = load i64, ptr %ref.tmp.sroa.2.0.state_.sroa_idx.i.i, align 8
  %coerce.sroa.2.0.insert.ext.i.i.i = zext i64 %agg.tmp.sroa.2.0.copyload.i to i128
  %coerce.sroa.2.0.insert.shift.i.i.i = shl nuw i128 %coerce.sroa.2.0.insert.ext.i.i.i, 64
  %coerce.sroa.0.0.insert.ext.i.i.i = zext i64 %agg.tmp.sroa.0.0.copyload.i to i128
  %coerce.sroa.0.0.insert.insert.i.i.i = or disjoint i128 %coerce.sroa.2.0.insert.shift.i.i.i, %coerce.sroa.0.0.insert.ext.i.i.i
  %mul.i.i.i = mul i128 %coerce.sroa.0.0.insert.insert.i.i.i, 47026247687942121848144207491837523525
  %coerce.sroa.0.0.insert.insert.i6.i.i = add i128 %mul.i.i.i, 1442695040888963407
  %coerce3.sroa.0.0.extract.trunc.i7.i.i = trunc i128 %coerce.sroa.0.0.insert.insert.i6.i.i to i64
  %1 = lshr i128 %coerce.sroa.0.0.insert.insert.i6.i.i, 64
  %.tr.i.i.i = trunc i128 %1 to i64
  %.narrow.i.i.i = add i64 %.tr.i.i.i, 6364136223846793005
  store i64 %coerce3.sroa.0.0.extract.trunc.i7.i.i, ptr %engine, align 16
  store i64 %.narrow.i.i.i, ptr %ref.tmp.sroa.2.0.state_.sroa_idx.i.i, align 8
  %shr.i.i.i = lshr i64 %.narrow.i.i.i, 58
  %xor.i.i12.i.i = xor i64 %.narrow.i.i.i, %coerce3.sroa.0.0.extract.trunc.i7.i.i
  %or.i.i.i.i = call noundef i64 @llvm.fshr.i64(i64 %xor.i.i12.i.i, i64 %xor.i.i12.i.i, i64 %shr.i.i.i)
  store i64 %or.i.i.i.i, ptr %ref.tmp8, align 8
  %2 = load i64, ptr %__begin1.0.ptr20, align 8, !noalias !46
  %cmp.i.i = icmp eq i64 %2, %or.i.i.i.i
  br i1 %cmp.i.i, label %if.then.i.i, label %if.end.i.i

if.then.i.i:                                      ; preds = %invoke.cont9
  invoke void @_ZN7testing16AssertionSuccessEv(ptr nonnull sret(%"class.testing::AssertionResult") align 8 %gtest_ar)
          to label %invoke.cont11 unwind label %lpad5.loopexit

if.end.i.i:                                       ; preds = %invoke.cont9
  invoke void @_ZN7testing8internal18CmpHelperEQFailureImmEENS_15AssertionResultEPKcS4_RKT_RKT0_(ptr nonnull sret(%"class.testing::AssertionResult") align 8 %gtest_ar, ptr noundef nonnull @.str.26, ptr noundef nonnull @.str.27, ptr noundef nonnull align 8 dereferenceable(8) %__begin1.0.ptr20, ptr noundef nonnull align 8 dereferenceable(8) %ref.tmp8)
          to label %invoke.cont11 unwind label %lpad5.loopexit

invoke.cont11:                                    ; preds = %if.then.i.i, %if.end.i.i
  %3 = load i8, ptr %gtest_ar, align 8
  %4 = and i8 %3, 1
  %tobool.i.not = icmp eq i8 %4, 0
  br i1 %tobool.i.not, label %if.else, label %if.end

lpad:                                             ; preds = %call.i.noexc, %entry
  %5 = landingpad { ptr, i32 }
          cleanup
  br label %ehcleanup

lpad3:                                            ; preds = %invoke.cont
  %6 = landingpad { ptr, i32 }
          cleanup
  call void @_ZNSt7__cxx1112basic_stringIcSt11char_traitsIcESaIcEED1Ev(ptr noundef nonnull align 8 dereferenceable(32) %ref.tmp) #20
  br label %ehcleanup

ehcleanup:                                        ; preds = %lpad, %lpad.i, %lpad3
  %.pn = phi { ptr, i32 } [ %6, %lpad3 ], [ %5, %lpad ], [ %0, %lpad.i ]
  call void @_ZNSaIcED1Ev(ptr noundef nonnull align 1 dereferenceable(1) %ref.tmp2) #20
  br label %eh.resume

lpad5.loopexit:                                   ; preds = %if.then.i.i, %if.end.i.i
  %lpad.loopexit = landingpad { ptr, i32 }
          cleanup
  br label %ehcleanup26

lpad5.loopexit.split-lp:                          ; preds = %invoke.cont4
  %lpad.loopexit.split-lp = landingpad { ptr, i32 }
          cleanup
  br label %ehcleanup26

if.else:                                          ; preds = %invoke.cont11
  invoke void @_ZN7testing7MessageC1Ev(ptr noundef nonnull align 8 dereferenceable(8) %ref.tmp13)
          to label %invoke.cont15 unwind label %lpad14

invoke.cont15:                                    ; preds = %if.else
  %7 = load ptr, ptr %message_.i.i, align 8
  %cmp.i.i.not.i.i = icmp eq ptr %7, null
  br i1 %cmp.i.i.not.i.i, label %invoke.cont18, label %cond.true.i.i

cond.true.i.i:                                    ; preds = %invoke.cont15
  %call4.i.i = call noundef ptr @_ZNKSt7__cxx1112basic_stringIcSt11char_traitsIcESaIcEE5c_strEv(ptr noundef nonnull align 8 dereferenceable(32) %7) #20
  br label %invoke.cont18

invoke.cont18:                                    ; preds = %cond.true.i.i, %invoke.cont15
  %cond.i.i = phi ptr [ %call4.i.i, %cond.true.i.i ], [ @.str, %invoke.cont15 ]
  invoke void @_ZN7testing8internal12AssertHelperC1ENS_14TestPartResult4TypeEPKciS5_(ptr noundef nonnull align 8 dereferenceable(8) %ref.tmp16, i32 noundef 1, ptr noundef nonnull @.str.2, i32 noundef 481, ptr noundef %cond.i.i)
          to label %invoke.cont20 unwind label %lpad17

invoke.cont20:                                    ; preds = %invoke.cont18
  invoke void @_ZNK7testing8internal12AssertHelperaSERKNS_7MessageE(ptr noundef nonnull align 8 dereferenceable(8) %ref.tmp16, ptr noundef nonnull align 8 dereferenceable(8) %ref.tmp13)
          to label %invoke.cont22 unwind label %lpad21

invoke.cont22:                                    ; preds = %invoke.cont20
  call void @_ZN7testing8internal12AssertHelperD1Ev(ptr noundef nonnull align 8 dereferenceable(8) %ref.tmp16) #20
  %8 = load ptr, ptr %ref.tmp13, align 8
  %cmp.not.i.i = icmp eq ptr %8, null
  br i1 %cmp.not.i.i, label %_ZN7testing7MessageD2Ev.exit, label %_ZNKSt14default_deleteINSt7__cxx1118basic_stringstreamIcSt11char_traitsIcESaIcEEEEclEPS5_.exit.i.i

_ZNKSt14default_deleteINSt7__cxx1118basic_stringstreamIcSt11char_traitsIcESaIcEEEEclEPS5_.exit.i.i: ; preds = %invoke.cont22
  %vtable.i.i.i = load ptr, ptr %8, align 8
  %vfn.i.i.i = getelementptr inbounds ptr, ptr %vtable.i.i.i, i64 1
  %9 = load ptr, ptr %vfn.i.i.i, align 8
  call void %9(ptr noundef nonnull align 8 dereferenceable(128) %8) #20
  br label %_ZN7testing7MessageD2Ev.exit

_ZN7testing7MessageD2Ev.exit:                     ; preds = %invoke.cont22, %_ZNKSt14default_deleteINSt7__cxx1118basic_stringstreamIcSt11char_traitsIcESaIcEEEEclEPS5_.exit.i.i
  store ptr null, ptr %ref.tmp13, align 8
  br label %if.end

lpad14:                                           ; preds = %if.else
  %10 = landingpad { ptr, i32 }
          cleanup
  br label %ehcleanup25

lpad17:                                           ; preds = %invoke.cont18
  %11 = landingpad { ptr, i32 }
          cleanup
  br label %ehcleanup24

lpad21:                                           ; preds = %invoke.cont20
  %12 = landingpad { ptr, i32 }
          cleanup
  call void @_ZN7testing8internal12AssertHelperD1Ev(ptr noundef nonnull align 8 dereferenceable(8) %ref.tmp16) #20
  br label %ehcleanup24

ehcleanup24:                                      ; preds = %lpad21, %lpad17
  %.pn5 = phi { ptr, i32 } [ %12, %lpad21 ], [ %11, %lpad17 ]
  %13 = load ptr, ptr %ref.tmp13, align 8
  %cmp.not.i.i13 = icmp eq ptr %13, null
  br i1 %cmp.not.i.i13, label %_ZN7testing7MessageD2Ev.exit17, label %_ZNKSt14default_deleteINSt7__cxx1118basic_stringstreamIcSt11char_traitsIcESaIcEEEEclEPS5_.exit.i.i14

_ZNKSt14default_deleteINSt7__cxx1118basic_stringstreamIcSt11char_traitsIcESaIcEEEEclEPS5_.exit.i.i14: ; preds = %ehcleanup24
  %vtable.i.i.i15 = load ptr, ptr %13, align 8
  %vfn.i.i.i16 = getelementptr inbounds ptr, ptr %vtable.i.i.i15, i64 1
  %14 = load ptr, ptr %vfn.i.i.i16, align 8
  call void %14(ptr noundef nonnull align 8 dereferenceable(128) %13) #20
  br label %_ZN7testing7MessageD2Ev.exit17

_ZN7testing7MessageD2Ev.exit17:                   ; preds = %ehcleanup24, %_ZNKSt14default_deleteINSt7__cxx1118basic_stringstreamIcSt11char_traitsIcESaIcEEEEclEPS5_.exit.i.i14
  store ptr null, ptr %ref.tmp13, align 8
  br label %ehcleanup25

if.end:                                           ; preds = %invoke.cont11, %_ZN7testing7MessageD2Ev.exit
  %15 = load ptr, ptr %message_.i.i, align 8
  %cmp.not.i.i18 = icmp eq ptr %15, null
  br i1 %cmp.not.i.i18, label %_ZN7testing15AssertionResultD2Ev.exit, label %_ZNKSt14default_deleteINSt7__cxx1112basic_stringIcSt11char_traitsIcESaIcEEEEclEPS5_.exit.i.i

_ZNKSt14default_deleteINSt7__cxx1112basic_stringIcSt11char_traitsIcESaIcEEEEclEPS5_.exit.i.i: ; preds = %if.end
  call void @_ZNSt7__cxx1112basic_stringIcSt11char_traitsIcESaIcEED1Ev(ptr noundef nonnull align 8 dereferenceable(32) %15) #20
  call void @_ZdlPv(ptr noundef nonnull %15) #21
  br label %_ZN7testing15AssertionResultD2Ev.exit

_ZN7testing15AssertionResultD2Ev.exit:            ; preds = %if.end, %_ZNKSt14default_deleteINSt7__cxx1112basic_stringIcSt11char_traitsIcESaIcEEEEclEPS5_.exit.i.i
  store ptr null, ptr %message_.i.i, align 8
  %__begin1.0.add = add nuw nsw i64 %__begin1.0.idx19, 8
  %__begin1.0.ptr = getelementptr inbounds i8, ptr %kGolden, i64 %__begin1.0.add
  %cmp.not = icmp eq i64 %__begin1.0.add, 1016
  br i1 %cmp.not, label %for.end, label %invoke.cont9

ehcleanup25:                                      ; preds = %_ZN7testing7MessageD2Ev.exit17, %lpad14
  %.pn5.pn = phi { ptr, i32 } [ %.pn5, %_ZN7testing7MessageD2Ev.exit17 ], [ %10, %lpad14 ]
  call void @_ZN7testing15AssertionResultD2Ev(ptr noundef nonnull align 8 dereferenceable(16) %gtest_ar) #20
  br label %ehcleanup26

for.end:                                          ; preds = %_ZN7testing15AssertionResultD2Ev.exit
  call void @_ZNSt7__cxx1119basic_istringstreamIcSt11char_traitsIcESaIcEED1Ev(ptr noundef nonnull align 8 dereferenceable(120) %stream) #20
  ret void

ehcleanup26:                                      ; preds = %lpad5.loopexit, %lpad5.loopexit.split-lp, %ehcleanup25
  %.pn5.pn.pn = phi { ptr, i32 } [ %.pn5.pn, %ehcleanup25 ], [ %lpad.loopexit, %lpad5.loopexit ], [ %lpad.loopexit.split-lp, %lpad5.loopexit.split-lp ]
  call void @_ZNSt7__cxx1119basic_istringstreamIcSt11char_traitsIcESaIcEED1Ev(ptr noundef nonnull align 8 dereferenceable(120) %stream) #20
  br label %eh.resume

eh.resume:                                        ; preds = %ehcleanup26, %ehcleanup
  %.pn5.pn.pn.pn = phi { ptr, i32 } [ %.pn5.pn.pn, %ehcleanup26 ], [ %.pn, %ehcleanup ]
  resume { ptr, i32 } %.pn5.pn.pn.pn
}

declare void @_ZNSt7__cxx1119basic_istringstreamIcSt11char_traitsIcESaIcEEC1ERKNS_12basic_stringIcS2_S3_EESt13_Ios_Openmode(ptr noundef nonnull align 8 dereferenceable(120), ptr noundef nonnull align 8 dereferenceable(32), i32 noundef) unnamed_addr #0

; Function Attrs: mustprogress uwtable
define linkonce_odr dso_local noundef nonnull align 8 dereferenceable(16) ptr @_ZN4absl15random_internalrsIcSt11char_traitsIcEEENSt9enable_ifILb1ERSt13basic_istreamIT_T0_EE4typeES9_RNS0_10pcg_engineINS0_13pcg128_paramsILm2549297995355413924ELm4865540595714422341ELm6364136223846793005ELm1442695040888963407EEENS0_17pcg_xsl_rr_128_64EEE(ptr noundef nonnull align 8 dereferenceable(16) %is, ptr noundef nonnull align 16 dereferenceable(16) %engine) local_unnamed_addr #4 comdat {
entry:
  %h.i13 = alloca i64, align 8
  %l.i14 = alloca i64, align 8
  %h.i7 = alloca i64, align 8
  %l.i8 = alloca i64, align 8
  %h.i = alloca i64, align 8
  %l.i = alloca i64, align 8
  call void @llvm.lifetime.start.p0(i64 8, ptr nonnull %h.i)
  call void @llvm.lifetime.start.p0(i64 8, ptr nonnull %l.i)
  store i64 0, ptr %h.i, align 8
  store i64 0, ptr %l.i, align 8
  %call.i = call noundef nonnull align 8 dereferenceable(16) ptr @_ZNSirsERm(ptr noundef nonnull align 8 dereferenceable(16) %is, ptr noundef nonnull align 8 dereferenceable(8) %h.i)
  %call2.i = call noundef nonnull align 8 dereferenceable(16) ptr @_ZNSirsERm(ptr noundef nonnull align 8 dereferenceable(16) %call.i, ptr noundef nonnull align 8 dereferenceable(8) %l.i)
  %0 = load i64, ptr %h.i, align 8
  %1 = load i64, ptr %l.i, align 8
  call void @llvm.lifetime.end.p0(i64 8, ptr nonnull %h.i)
  call void @llvm.lifetime.end.p0(i64 8, ptr nonnull %l.i)
  call void @llvm.lifetime.start.p0(i64 8, ptr nonnull %h.i7)
  call void @llvm.lifetime.start.p0(i64 8, ptr nonnull %l.i8)
  store i64 0, ptr %h.i7, align 8
  store i64 0, ptr %l.i8, align 8
  %call.i9 = call noundef nonnull align 8 dereferenceable(16) ptr @_ZNSirsERm(ptr noundef nonnull align 8 dereferenceable(16) %is, ptr noundef nonnull align 8 dereferenceable(8) %h.i7)
  %call2.i10 = call noundef nonnull align 8 dereferenceable(16) ptr @_ZNSirsERm(ptr noundef nonnull align 8 dereferenceable(16) %call.i9, ptr noundef nonnull align 8 dereferenceable(8) %l.i8)
  %2 = load i64, ptr %h.i7, align 8
  %3 = load i64, ptr %l.i8, align 8
  call void @llvm.lifetime.end.p0(i64 8, ptr nonnull %h.i7)
  call void @llvm.lifetime.end.p0(i64 8, ptr nonnull %l.i8)
  call void @llvm.lifetime.start.p0(i64 8, ptr nonnull %h.i13)
  call void @llvm.lifetime.start.p0(i64 8, ptr nonnull %l.i14)
  store i64 0, ptr %h.i13, align 8
  store i64 0, ptr %l.i14, align 8
  %call.i15 = call noundef nonnull align 8 dereferenceable(16) ptr @_ZNSirsERm(ptr noundef nonnull align 8 dereferenceable(16) %is, ptr noundef nonnull align 8 dereferenceable(8) %h.i13)
  %call2.i16 = call noundef nonnull align 8 dereferenceable(16) ptr @_ZNSirsERm(ptr noundef nonnull align 8 dereferenceable(16) %call.i15, ptr noundef nonnull align 8 dereferenceable(8) %l.i14)
  %4 = load i64, ptr %h.i13, align 8
  %5 = load i64, ptr %l.i14, align 8
  call void @llvm.lifetime.end.p0(i64 8, ptr nonnull %h.i13)
  call void @llvm.lifetime.end.p0(i64 8, ptr nonnull %l.i14)
  %coerce.sroa.2.0.insert.ext.i.i = zext i64 %0 to i128
  %coerce.sroa.2.0.insert.shift.i.i = shl nuw i128 %coerce.sroa.2.0.insert.ext.i.i, 64
  %coerce.sroa.0.0.insert.ext.i.i = zext i64 %1 to i128
  %coerce.sroa.0.0.insert.insert.i.i = or disjoint i128 %coerce.sroa.2.0.insert.shift.i.i, %coerce.sroa.0.0.insert.ext.i.i
  %cmp.i.i.not = icmp eq i128 %coerce.sroa.0.0.insert.insert.i.i, 47026247687942121848144207491837523525
  br i1 %cmp.i.i.not, label %lor.lhs.false, label %if.then

lor.lhs.false:                                    ; preds = %entry
  %coerce.sroa.2.0.insert.ext.i.i19 = zext i64 %2 to i128
  %coerce.sroa.2.0.insert.shift.i.i20 = shl nuw i128 %coerce.sroa.2.0.insert.ext.i.i19, 64
  %coerce.sroa.0.0.insert.ext.i.i21 = zext i64 %3 to i128
  %coerce.sroa.0.0.insert.insert.i.i22 = or disjoint i128 %coerce.sroa.2.0.insert.shift.i.i20, %coerce.sroa.0.0.insert.ext.i.i21
  %cmp.i.i27.not = icmp eq i128 %coerce.sroa.0.0.insert.insert.i.i22, 117397592171526113268558934119004209487
  br i1 %cmp.i.i27.not, label %if.end, label %if.then

if.then:                                          ; preds = %lor.lhs.false, %entry
  %vtable = load ptr, ptr %is, align 8
  %vbase.offset.ptr = getelementptr i8, ptr %vtable, i64 -24
  %vbase.offset = load i64, ptr %vbase.offset.ptr, align 8
  %add.ptr = getelementptr inbounds i8, ptr %is, i64 %vbase.offset
  %call14 = call noundef i32 @_ZNKSt9basic_iosIcSt11char_traitsIcEE7rdstateEv(ptr noundef nonnull align 8 dereferenceable(264) %add.ptr)
  %or.i = or i32 %call14, 4
  call void @_ZNSt9basic_iosIcSt11char_traitsIcEE8setstateESt12_Ios_Iostate(ptr noundef nonnull align 8 dereferenceable(264) %add.ptr, i32 noundef %or.i)
  br label %if.end

if.end:                                           ; preds = %if.then, %lor.lhs.false
  %vtable16 = load ptr, ptr %is, align 8
  %vbase.offset.ptr17 = getelementptr i8, ptr %vtable16, i64 -24
  %vbase.offset18 = load i64, ptr %vbase.offset.ptr17, align 8
  %add.ptr19 = getelementptr inbounds i8, ptr %is, i64 %vbase.offset18
  %call20 = call noundef zeroext i1 @_ZNKSt9basic_iosIcSt11char_traitsIcEE4failEv(ptr noundef nonnull align 8 dereferenceable(264) %add.ptr19)
  br i1 %call20, label %if.end22, label %if.then21

if.then21:                                        ; preds = %if.end
  store i64 %5, ptr %engine, align 16
  %tmp.sroa.2.0.state_.sroa_idx = getelementptr inbounds i8, ptr %engine, i64 8
  store i64 %4, ptr %tmp.sroa.2.0.state_.sroa_idx, align 8
  br label %if.end22

if.end22:                                         ; preds = %if.then21, %if.end
  ret ptr %is
}

; Function Attrs: nounwind
declare void @_ZNSt7__cxx1119basic_istringstreamIcSt11char_traitsIcESaIcEED1Ev(ptr noundef nonnull align 8 dereferenceable(120)) unnamed_addr #1

declare void @_ZNSt9basic_iosIcSt11char_traitsIcEE8setstateESt12_Ios_Iostate(ptr noundef nonnull align 8 dereferenceable(264), i32 noundef) local_unnamed_addr #0

declare noundef i32 @_ZNKSt9basic_iosIcSt11char_traitsIcEE7rdstateEv(ptr noundef nonnull align 8 dereferenceable(264)) local_unnamed_addr #0

declare noundef zeroext i1 @_ZNKSt9basic_iosIcSt11char_traitsIcEE4failEv(ptr noundef nonnull align 8 dereferenceable(264)) local_unnamed_addr #0

declare noundef nonnull align 8 dereferenceable(16) ptr @_ZNSirsERm(ptr noundef nonnull align 8 dereferenceable(16), ptr noundef nonnull align 8 dereferenceable(8)) local_unnamed_addr #0

; Function Attrs: mustprogress nofree norecurse nosync nounwind willreturn memory(none) uwtable
define internal void @_ZN7testing8internal15TestFactoryImplIN12_GLOBAL__N_137PCG322018EngineTest_VerifyGolden_TestEED2Ev(ptr nocapture nonnull readnone align 8 %this) unnamed_addr #7 align 2 {
entry:
  ret void
}

; Function Attrs: mustprogress nounwind uwtable
define internal void @_ZN7testing8internal15TestFactoryImplIN12_GLOBAL__N_137PCG322018EngineTest_VerifyGolden_TestEED0Ev(ptr noundef nonnull align 8 dereferenceable(8) %this) unnamed_addr #3 align 2 {
entry:
  tail call void @_ZdlPv(ptr noundef nonnull %this) #21
  ret void
}

; Function Attrs: mustprogress uwtable
define internal noundef nonnull ptr @_ZN7testing8internal15TestFactoryImplIN12_GLOBAL__N_137PCG322018EngineTest_VerifyGolden_TestEE10CreateTestEv(ptr nocapture nonnull readnone align 8 %this) unnamed_addr #4 align 2 personality ptr @__gxx_personality_v0 {
entry:
  %call = tail call noalias noundef nonnull dereferenceable(16) ptr @_Znwm(i64 noundef 16) #22
  invoke void @_ZN7testing4TestC2Ev(ptr noundef nonnull align 8 dereferenceable(16) %call)
          to label %invoke.cont unwind label %lpad

invoke.cont:                                      ; preds = %entry
  store ptr getelementptr inbounds ({ [8 x ptr] }, ptr @_ZTVN12_GLOBAL__N_137PCG322018EngineTest_VerifyGolden_TestE, i64 0, inrange i32 0, i64 2), ptr %call, align 8
  ret ptr %call

lpad:                                             ; preds = %entry
  %0 = landingpad { ptr, i32 }
          cleanup
  tail call void @_ZdlPv(ptr noundef nonnull %call) #21
  resume { ptr, i32 } %0
}

; Function Attrs: mustprogress nounwind uwtable
define internal void @_ZN12_GLOBAL__N_137PCG322018EngineTest_VerifyGolden_TestD2Ev(ptr noundef nonnull align 8 dereferenceable(16) %this) unnamed_addr #3 align 2 {
entry:
  tail call void @_ZN7testing4TestD2Ev(ptr noundef nonnull align 8 dereferenceable(16) %this) #20
  ret void
}

; Function Attrs: mustprogress nounwind uwtable
define internal void @_ZN12_GLOBAL__N_137PCG322018EngineTest_VerifyGolden_TestD0Ev(ptr noundef nonnull align 8 dereferenceable(16) %this) unnamed_addr #3 align 2 {
entry:
  tail call void @_ZN7testing4TestD2Ev(ptr noundef nonnull align 8 dereferenceable(16) %this) #20
  tail call void @_ZdlPv(ptr noundef nonnull %this) #21
  ret void
}

; Function Attrs: mustprogress uwtable
define internal void @_ZN12_GLOBAL__N_137PCG322018EngineTest_VerifyGolden_Test8TestBodyEv(ptr nocapture nonnull readnone align 8 %this) unnamed_addr #4 align 2 personality ptr @__gxx_personality_v0 {
entry:
  %kGolden = alloca [127 x i32], align 16
  %gtest_ar = alloca %"class.testing::AssertionResult", align 8
  %ref.tmp3 = alloca i32, align 4
  %ref.tmp5 = alloca %"class.testing::Message", align 8
  %ref.tmp6 = alloca %"class.testing::internal::AssertHelper", align 8
  %gtest_ar24 = alloca %"class.testing::AssertionResult", align 8
  %ref.tmp25 = alloca i32, align 4
  %ref.tmp30 = alloca %"class.testing::Message", align 8
  %ref.tmp33 = alloca %"class.testing::internal::AssertHelper", align 8
  call void @llvm.memcpy.p0.p0.i64(ptr noundef nonnull align 16 dereferenceable(508) %kGolden, ptr noundef nonnull align 16 dereferenceable(508) @__const._ZN12_GLOBAL__N_137PCG322018EngineTest_VerifyGolden_Test8TestBodyEv.kGolden, i64 508, i1 false)
  %message_.i.i = getelementptr inbounds %"class.testing::AssertionResult", ptr %gtest_ar, i64 0, i32 1
  br label %for.body

for.cond20.preheader:                             ; preds = %_ZN7testing15AssertionResultD2Ev.exit
  %message_.i.i31 = getelementptr inbounds %"class.testing::AssertionResult", ptr %gtest_ar24, i64 0, i32 1
  br label %for.body22

for.body:                                         ; preds = %entry, %_ZN7testing15AssertionResultD2Ev.exit
  %__begin1.0.idx53 = phi i64 [ 0, %entry ], [ %__begin1.0.add, %_ZN7testing15AssertionResultD2Ev.exit ]
  %engine.sroa.0.052 = phi i64 [ 1876011003808476466, %entry ], [ %add.i.i, %_ZN7testing15AssertionResultD2Ev.exit ]
  %__begin1.0.ptr = getelementptr inbounds i8, ptr %kGolden, i64 %__begin1.0.idx53
  %mul.i.i = mul i64 %engine.sroa.0.052, 6364136223846793005
  %add.i.i = add i64 %mul.i.i, 1442695040888963407
  %0 = lshr i64 %add.i.i, 45
  %1 = lshr i64 %add.i.i, 27
  %shr2.i.i = xor i64 %0, %1
  %conv.i.i = trunc i64 %shr2.i.i to i32
  %shr3.i.i = lshr i64 %add.i.i, 59
  %conv4.i.i = trunc i64 %shr3.i.i to i32
  %or.i.i.i.i = call noundef i32 @llvm.fshr.i32(i32 %conv.i.i, i32 %conv.i.i, i32 %conv4.i.i)
  store i32 %or.i.i.i.i, ptr %ref.tmp3, align 4
  %2 = load i32, ptr %__begin1.0.ptr, align 4, !noalias !51
  %cmp.i.i = icmp eq i32 %2, %or.i.i.i.i
  br i1 %cmp.i.i, label %if.then.i.i, label %if.end.i.i

if.then.i.i:                                      ; preds = %for.body
  call void @_ZN7testing16AssertionSuccessEv(ptr nonnull sret(%"class.testing::AssertionResult") align 8 %gtest_ar)
  br label %_ZN7testing8internal8EqHelper7CompareIjjTnPNSt9enable_ifIXoontsr3std11is_integralIT_EE5valuentsr3std10is_pointerIT0_EE5valueEvE4typeELPv0EEENS_15AssertionResultEPKcSC_RKS4_RKS5_.exit

if.end.i.i:                                       ; preds = %for.body
  call void @_ZN7testing8internal18CmpHelperEQFailureIjjEENS_15AssertionResultEPKcS4_RKT_RKT0_(ptr nonnull sret(%"class.testing::AssertionResult") align 8 %gtest_ar, ptr noundef nonnull @.str.26, ptr noundef nonnull @.str.27, ptr noundef nonnull align 4 dereferenceable(4) %__begin1.0.ptr, ptr noundef nonnull align 4 dereferenceable(4) %ref.tmp3)
  br label %_ZN7testing8internal8EqHelper7CompareIjjTnPNSt9enable_ifIXoontsr3std11is_integralIT_EE5valuentsr3std10is_pointerIT0_EE5valueEvE4typeELPv0EEENS_15AssertionResultEPKcSC_RKS4_RKS5_.exit

_ZN7testing8internal8EqHelper7CompareIjjTnPNSt9enable_ifIXoontsr3std11is_integralIT_EE5valuentsr3std10is_pointerIT0_EE5valueEvE4typeELPv0EEENS_15AssertionResultEPKcSC_RKS4_RKS5_.exit: ; preds = %if.then.i.i, %if.end.i.i
  %3 = load i8, ptr %gtest_ar, align 8
  %4 = and i8 %3, 1
  %tobool.i.not = icmp eq i8 %4, 0
  br i1 %tobool.i.not, label %if.else, label %if.end

if.else:                                          ; preds = %_ZN7testing8internal8EqHelper7CompareIjjTnPNSt9enable_ifIXoontsr3std11is_integralIT_EE5valuentsr3std10is_pointerIT0_EE5valueEvE4typeELPv0EEENS_15AssertionResultEPKcSC_RKS4_RKS5_.exit
  invoke void @_ZN7testing7MessageC1Ev(ptr noundef nonnull align 8 dereferenceable(8) %ref.tmp5)
          to label %invoke.cont unwind label %lpad

invoke.cont:                                      ; preds = %if.else
  %5 = load ptr, ptr %message_.i.i, align 8
  %cmp.i.i.not.i.i = icmp eq ptr %5, null
  br i1 %cmp.i.i.not.i.i, label %invoke.cont8, label %cond.true.i.i

cond.true.i.i:                                    ; preds = %invoke.cont
  %call4.i.i = call noundef ptr @_ZNKSt7__cxx1112basic_stringIcSt11char_traitsIcESaIcEE5c_strEv(ptr noundef nonnull align 8 dereferenceable(32) %5) #20
  br label %invoke.cont8

invoke.cont8:                                     ; preds = %cond.true.i.i, %invoke.cont
  %cond.i.i = phi ptr [ %call4.i.i, %cond.true.i.i ], [ @.str, %invoke.cont ]
  invoke void @_ZN7testing8internal12AssertHelperC1ENS_14TestPartResult4TypeEPKciS5_(ptr noundef nonnull align 8 dereferenceable(8) %ref.tmp6, i32 noundef 1, ptr noundef nonnull @.str.2, i32 noundef 527, ptr noundef %cond.i.i)
          to label %invoke.cont10 unwind label %lpad7

invoke.cont10:                                    ; preds = %invoke.cont8
  invoke void @_ZNK7testing8internal12AssertHelperaSERKNS_7MessageE(ptr noundef nonnull align 8 dereferenceable(8) %ref.tmp6, ptr noundef nonnull align 8 dereferenceable(8) %ref.tmp5)
          to label %invoke.cont12 unwind label %lpad11

invoke.cont12:                                    ; preds = %invoke.cont10
  call void @_ZN7testing8internal12AssertHelperD1Ev(ptr noundef nonnull align 8 dereferenceable(8) %ref.tmp6) #20
  %6 = load ptr, ptr %ref.tmp5, align 8
  %cmp.not.i.i = icmp eq ptr %6, null
  br i1 %cmp.not.i.i, label %_ZN7testing7MessageD2Ev.exit, label %_ZNKSt14default_deleteINSt7__cxx1118basic_stringstreamIcSt11char_traitsIcESaIcEEEEclEPS5_.exit.i.i

_ZNKSt14default_deleteINSt7__cxx1118basic_stringstreamIcSt11char_traitsIcESaIcEEEEclEPS5_.exit.i.i: ; preds = %invoke.cont12
  %vtable.i.i.i = load ptr, ptr %6, align 8
  %vfn.i.i.i = getelementptr inbounds ptr, ptr %vtable.i.i.i, i64 1
  %7 = load ptr, ptr %vfn.i.i.i, align 8
  call void %7(ptr noundef nonnull align 8 dereferenceable(128) %6) #20
  br label %_ZN7testing7MessageD2Ev.exit

_ZN7testing7MessageD2Ev.exit:                     ; preds = %invoke.cont12, %_ZNKSt14default_deleteINSt7__cxx1118basic_stringstreamIcSt11char_traitsIcESaIcEEEEclEPS5_.exit.i.i
  store ptr null, ptr %ref.tmp5, align 8
  br label %if.end

lpad:                                             ; preds = %if.else
  %8 = landingpad { ptr, i32 }
          cleanup
  br label %eh.resume

lpad7:                                            ; preds = %invoke.cont8
  %9 = landingpad { ptr, i32 }
          cleanup
  br label %ehcleanup

lpad11:                                           ; preds = %invoke.cont10
  %10 = landingpad { ptr, i32 }
          cleanup
  call void @_ZN7testing8internal12AssertHelperD1Ev(ptr noundef nonnull align 8 dereferenceable(8) %ref.tmp6) #20
  br label %ehcleanup

ehcleanup:                                        ; preds = %lpad11, %lpad7
  %.pn9 = phi { ptr, i32 } [ %10, %lpad11 ], [ %9, %lpad7 ]
  %11 = load ptr, ptr %ref.tmp5, align 8
  %cmp.not.i.i13 = icmp eq ptr %11, null
  br i1 %cmp.not.i.i13, label %_ZN7testing7MessageD2Ev.exit17, label %_ZNKSt14default_deleteINSt7__cxx1118basic_stringstreamIcSt11char_traitsIcESaIcEEEEclEPS5_.exit.i.i14

_ZNKSt14default_deleteINSt7__cxx1118basic_stringstreamIcSt11char_traitsIcESaIcEEEEclEPS5_.exit.i.i14: ; preds = %ehcleanup
  %vtable.i.i.i15 = load ptr, ptr %11, align 8
  %vfn.i.i.i16 = getelementptr inbounds ptr, ptr %vtable.i.i.i15, i64 1
  %12 = load ptr, ptr %vfn.i.i.i16, align 8
  call void %12(ptr noundef nonnull align 8 dereferenceable(128) %11) #20
  br label %_ZN7testing7MessageD2Ev.exit17

_ZN7testing7MessageD2Ev.exit17:                   ; preds = %ehcleanup, %_ZNKSt14default_deleteINSt7__cxx1118basic_stringstreamIcSt11char_traitsIcESaIcEEEEclEPS5_.exit.i.i14
  store ptr null, ptr %ref.tmp5, align 8
  br label %eh.resume

if.end:                                           ; preds = %_ZN7testing8internal8EqHelper7CompareIjjTnPNSt9enable_ifIXoontsr3std11is_integralIT_EE5valuentsr3std10is_pointerIT0_EE5valueEvE4typeELPv0EEENS_15AssertionResultEPKcSC_RKS4_RKS5_.exit, %_ZN7testing7MessageD2Ev.exit
  %13 = load ptr, ptr %message_.i.i, align 8
  %cmp.not.i.i18 = icmp eq ptr %13, null
  br i1 %cmp.not.i.i18, label %_ZN7testing15AssertionResultD2Ev.exit, label %_ZNKSt14default_deleteINSt7__cxx1112basic_stringIcSt11char_traitsIcESaIcEEEEclEPS5_.exit.i.i

_ZNKSt14default_deleteINSt7__cxx1112basic_stringIcSt11char_traitsIcESaIcEEEEclEPS5_.exit.i.i: ; preds = %if.end
  call void @_ZNSt7__cxx1112basic_stringIcSt11char_traitsIcESaIcEED1Ev(ptr noundef nonnull align 8 dereferenceable(32) %13) #20
  call void @_ZdlPv(ptr noundef nonnull %13) #21
  br label %_ZN7testing15AssertionResultD2Ev.exit

_ZN7testing15AssertionResultD2Ev.exit:            ; preds = %if.end, %_ZNKSt14default_deleteINSt7__cxx1112basic_stringIcSt11char_traitsIcESaIcEEEEclEPS5_.exit.i.i
  store ptr null, ptr %message_.i.i, align 8
  %__begin1.0.add = add nuw nsw i64 %__begin1.0.idx53, 4
  %cmp.not = icmp eq i64 %__begin1.0.add, 508
  br i1 %cmp.not, label %for.cond20.preheader, label %for.body

for.body22:                                       ; preds = %for.cond20.preheader, %_ZN7testing15AssertionResultD2Ev.exit50
  %__begin115.0.idx55 = phi i64 [ 0, %for.cond20.preheader ], [ %__begin115.0.add, %_ZN7testing15AssertionResultD2Ev.exit50 ]
  %engine.sroa.0.154 = phi i64 [ 1876011003808476466, %for.cond20.preheader ], [ %add.i.i20, %_ZN7testing15AssertionResultD2Ev.exit50 ]
  %__begin115.0.ptr = getelementptr inbounds i8, ptr %kGolden, i64 %__begin115.0.idx55
  %mul.i.i19 = mul i64 %engine.sroa.0.154, 6364136223846793005
  %add.i.i20 = add i64 %mul.i.i19, 1442695040888963407
  %14 = lshr i64 %add.i.i20, 45
  %15 = lshr i64 %add.i.i20, 27
  %shr2.i.i21 = xor i64 %14, %15
  %conv.i.i22 = trunc i64 %shr2.i.i21 to i32
  %shr3.i.i23 = lshr i64 %add.i.i20, 59
  %conv4.i.i24 = trunc i64 %shr3.i.i23 to i32
  %or.i.i.i.i25 = call noundef i32 @llvm.fshr.i32(i32 %conv.i.i22, i32 %conv.i.i22, i32 %conv4.i.i24)
  store i32 %or.i.i.i.i25, ptr %ref.tmp25, align 4
  %16 = load i32, ptr %__begin115.0.ptr, align 4, !noalias !56
  %cmp.i.i26 = icmp eq i32 %16, %or.i.i.i.i25
  br i1 %cmp.i.i26, label %if.then.i.i28, label %if.end.i.i27

if.then.i.i28:                                    ; preds = %for.body22
  call void @_ZN7testing16AssertionSuccessEv(ptr nonnull sret(%"class.testing::AssertionResult") align 8 %gtest_ar24)
  br label %_ZN7testing8internal8EqHelper7CompareIjjTnPNSt9enable_ifIXoontsr3std11is_integralIT_EE5valuentsr3std10is_pointerIT0_EE5valueEvE4typeELPv0EEENS_15AssertionResultEPKcSC_RKS4_RKS5_.exit29

if.end.i.i27:                                     ; preds = %for.body22
  call void @_ZN7testing8internal18CmpHelperEQFailureIjjEENS_15AssertionResultEPKcS4_RKT_RKT0_(ptr nonnull sret(%"class.testing::AssertionResult") align 8 %gtest_ar24, ptr noundef nonnull @.str.26, ptr noundef nonnull @.str.27, ptr noundef nonnull align 4 dereferenceable(4) %__begin115.0.ptr, ptr noundef nonnull align 4 dereferenceable(4) %ref.tmp25)
  br label %_ZN7testing8internal8EqHelper7CompareIjjTnPNSt9enable_ifIXoontsr3std11is_integralIT_EE5valuentsr3std10is_pointerIT0_EE5valueEvE4typeELPv0EEENS_15AssertionResultEPKcSC_RKS4_RKS5_.exit29

_ZN7testing8internal8EqHelper7CompareIjjTnPNSt9enable_ifIXoontsr3std11is_integralIT_EE5valuentsr3std10is_pointerIT0_EE5valueEvE4typeELPv0EEENS_15AssertionResultEPKcSC_RKS4_RKS5_.exit29: ; preds = %if.then.i.i28, %if.end.i.i27
  %17 = load i8, ptr %gtest_ar24, align 8
  %18 = and i8 %17, 1
  %tobool.i30.not = icmp eq i8 %18, 0
  br i1 %tobool.i30.not, label %if.else29, label %if.end42

if.else29:                                        ; preds = %_ZN7testing8internal8EqHelper7CompareIjjTnPNSt9enable_ifIXoontsr3std11is_integralIT_EE5valuentsr3std10is_pointerIT0_EE5valueEvE4typeELPv0EEENS_15AssertionResultEPKcSC_RKS4_RKS5_.exit29
  invoke void @_ZN7testing7MessageC1Ev(ptr noundef nonnull align 8 dereferenceable(8) %ref.tmp30)
          to label %invoke.cont32 unwind label %lpad31

invoke.cont32:                                    ; preds = %if.else29
  %19 = load ptr, ptr %message_.i.i31, align 8
  %cmp.i.i.not.i.i32 = icmp eq ptr %19, null
  br i1 %cmp.i.i.not.i.i32, label %invoke.cont35, label %cond.true.i.i33

cond.true.i.i33:                                  ; preds = %invoke.cont32
  %call4.i.i34 = call noundef ptr @_ZNKSt7__cxx1112basic_stringIcSt11char_traitsIcESaIcEE5c_strEv(ptr noundef nonnull align 8 dereferenceable(32) %19) #20
  br label %invoke.cont35

invoke.cont35:                                    ; preds = %cond.true.i.i33, %invoke.cont32
  %cond.i.i35 = phi ptr [ %call4.i.i34, %cond.true.i.i33 ], [ @.str, %invoke.cont32 ]
  invoke void @_ZN7testing8internal12AssertHelperC1ENS_14TestPartResult4TypeEPKciS5_(ptr noundef nonnull align 8 dereferenceable(8) %ref.tmp33, i32 noundef 1, ptr noundef nonnull @.str.2, i32 noundef 531, ptr noundef %cond.i.i35)
          to label %invoke.cont37 unwind label %lpad34

invoke.cont37:                                    ; preds = %invoke.cont35
  invoke void @_ZNK7testing8internal12AssertHelperaSERKNS_7MessageE(ptr noundef nonnull align 8 dereferenceable(8) %ref.tmp33, ptr noundef nonnull align 8 dereferenceable(8) %ref.tmp30)
          to label %invoke.cont39 unwind label %lpad38

invoke.cont39:                                    ; preds = %invoke.cont37
  call void @_ZN7testing8internal12AssertHelperD1Ev(ptr noundef nonnull align 8 dereferenceable(8) %ref.tmp33) #20
  %20 = load ptr, ptr %ref.tmp30, align 8
  %cmp.not.i.i37 = icmp eq ptr %20, null
  br i1 %cmp.not.i.i37, label %_ZN7testing7MessageD2Ev.exit41, label %_ZNKSt14default_deleteINSt7__cxx1118basic_stringstreamIcSt11char_traitsIcESaIcEEEEclEPS5_.exit.i.i38

_ZNKSt14default_deleteINSt7__cxx1118basic_stringstreamIcSt11char_traitsIcESaIcEEEEclEPS5_.exit.i.i38: ; preds = %invoke.cont39
  %vtable.i.i.i39 = load ptr, ptr %20, align 8
  %vfn.i.i.i40 = getelementptr inbounds ptr, ptr %vtable.i.i.i39, i64 1
  %21 = load ptr, ptr %vfn.i.i.i40, align 8
  call void %21(ptr noundef nonnull align 8 dereferenceable(128) %20) #20
  br label %_ZN7testing7MessageD2Ev.exit41

_ZN7testing7MessageD2Ev.exit41:                   ; preds = %invoke.cont39, %_ZNKSt14default_deleteINSt7__cxx1118basic_stringstreamIcSt11char_traitsIcESaIcEEEEclEPS5_.exit.i.i38
  store ptr null, ptr %ref.tmp30, align 8
  br label %if.end42

lpad31:                                           ; preds = %if.else29
  %22 = landingpad { ptr, i32 }
          cleanup
  br label %eh.resume

lpad34:                                           ; preds = %invoke.cont35
  %23 = landingpad { ptr, i32 }
          cleanup
  br label %ehcleanup41

lpad38:                                           ; preds = %invoke.cont37
  %24 = landingpad { ptr, i32 }
          cleanup
  call void @_ZN7testing8internal12AssertHelperD1Ev(ptr noundef nonnull align 8 dereferenceable(8) %ref.tmp33) #20
  br label %ehcleanup41

ehcleanup41:                                      ; preds = %lpad38, %lpad34
  %.pn = phi { ptr, i32 } [ %24, %lpad38 ], [ %23, %lpad34 ]
  %25 = load ptr, ptr %ref.tmp30, align 8
  %cmp.not.i.i42 = icmp eq ptr %25, null
  br i1 %cmp.not.i.i42, label %_ZN7testing7MessageD2Ev.exit46, label %_ZNKSt14default_deleteINSt7__cxx1118basic_stringstreamIcSt11char_traitsIcESaIcEEEEclEPS5_.exit.i.i43

_ZNKSt14default_deleteINSt7__cxx1118basic_stringstreamIcSt11char_traitsIcESaIcEEEEclEPS5_.exit.i.i43: ; preds = %ehcleanup41
  %vtable.i.i.i44 = load ptr, ptr %25, align 8
  %vfn.i.i.i45 = getelementptr inbounds ptr, ptr %vtable.i.i.i44, i64 1
  %26 = load ptr, ptr %vfn.i.i.i45, align 8
  call void %26(ptr noundef nonnull align 8 dereferenceable(128) %25) #20
  br label %_ZN7testing7MessageD2Ev.exit46

_ZN7testing7MessageD2Ev.exit46:                   ; preds = %ehcleanup41, %_ZNKSt14default_deleteINSt7__cxx1118basic_stringstreamIcSt11char_traitsIcESaIcEEEEclEPS5_.exit.i.i43
  store ptr null, ptr %ref.tmp30, align 8
  br label %eh.resume

if.end42:                                         ; preds = %_ZN7testing8internal8EqHelper7CompareIjjTnPNSt9enable_ifIXoontsr3std11is_integralIT_EE5valuentsr3std10is_pointerIT0_EE5valueEvE4typeELPv0EEENS_15AssertionResultEPKcSC_RKS4_RKS5_.exit29, %_ZN7testing7MessageD2Ev.exit41
  %27 = load ptr, ptr %message_.i.i31, align 8
  %cmp.not.i.i48 = icmp eq ptr %27, null
  br i1 %cmp.not.i.i48, label %_ZN7testing15AssertionResultD2Ev.exit50, label %_ZNKSt14default_deleteINSt7__cxx1112basic_stringIcSt11char_traitsIcESaIcEEEEclEPS5_.exit.i.i49

_ZNKSt14default_deleteINSt7__cxx1112basic_stringIcSt11char_traitsIcESaIcEEEEclEPS5_.exit.i.i49: ; preds = %if.end42
  call void @_ZNSt7__cxx1112basic_stringIcSt11char_traitsIcESaIcEED1Ev(ptr noundef nonnull align 8 dereferenceable(32) %27) #20
  call void @_ZdlPv(ptr noundef nonnull %27) #21
  br label %_ZN7testing15AssertionResultD2Ev.exit50

_ZN7testing15AssertionResultD2Ev.exit50:          ; preds = %if.end42, %_ZNKSt14default_deleteINSt7__cxx1112basic_stringIcSt11char_traitsIcESaIcEEEEclEPS5_.exit.i.i49
  store ptr null, ptr %message_.i.i31, align 8
  %__begin115.0.add = add nuw nsw i64 %__begin115.0.idx55, 4
  %cmp21.not = icmp eq i64 %__begin115.0.add, 508
  br i1 %cmp21.not, label %for.end46, label %for.body22

for.end46:                                        ; preds = %_ZN7testing15AssertionResultD2Ev.exit50
  ret void

eh.resume:                                        ; preds = %lpad31, %_ZN7testing7MessageD2Ev.exit46, %lpad, %_ZN7testing7MessageD2Ev.exit17
  %gtest_ar24.sink = phi ptr [ %gtest_ar, %_ZN7testing7MessageD2Ev.exit17 ], [ %gtest_ar, %lpad ], [ %gtest_ar24, %_ZN7testing7MessageD2Ev.exit46 ], [ %gtest_ar24, %lpad31 ]
  %.pn9.pn.pn = phi { ptr, i32 } [ %.pn9, %_ZN7testing7MessageD2Ev.exit17 ], [ %8, %lpad ], [ %.pn, %_ZN7testing7MessageD2Ev.exit46 ], [ %22, %lpad31 ]
  call void @_ZN7testing15AssertionResultD2Ev(ptr noundef nonnull align 8 dereferenceable(16) %gtest_ar24.sink) #20
  resume { ptr, i32 } %.pn9.pn.pn
}

; Function Attrs: mustprogress uwtable
define linkonce_odr dso_local void @_ZN7testing8internal18CmpHelperEQFailureIjjEENS_15AssertionResultEPKcS4_RKT_RKT0_(ptr noalias sret(%"class.testing::AssertionResult") align 8 %agg.result, ptr noundef %lhs_expression, ptr noundef %rhs_expression, ptr noundef nonnull align 4 dereferenceable(4) %lhs, ptr noundef nonnull align 4 dereferenceable(4) %rhs) local_unnamed_addr #4 comdat personality ptr @__gxx_personality_v0 {
entry:
  %ss.i.i.i4 = alloca %"class.std::__cxx11::basic_stringstream", align 8
  %ss.i.i.i = alloca %"class.std::__cxx11::basic_stringstream", align 8
  %ref.tmp = alloca %"class.std::__cxx11::basic_string", align 8
  %ref.tmp1 = alloca %"class.std::__cxx11::basic_string", align 8
  call void @llvm.lifetime.start.p0(i64 392, ptr nonnull %ss.i.i.i), !noalias !61
  call void @_ZNSt7__cxx1118basic_stringstreamIcSt11char_traitsIcESaIcEEC1Ev(ptr noundef nonnull align 8 dereferenceable(128) %ss.i.i.i), !noalias !66
  %add.ptr.i.i.i = getelementptr inbounds i8, ptr %ss.i.i.i, i64 16
  %0 = load i32, ptr %lhs, align 4, !noalias !66
  %call.i.i.i.i.i.i1.i.i.i = invoke noundef nonnull align 8 dereferenceable(8) ptr @_ZNSolsEj(ptr noundef nonnull align 8 dereferenceable(8) %add.ptr.i.i.i, i32 noundef %0)
          to label %invoke.cont.i.i.i unwind label %lpad.i.i.i, !noalias !66

invoke.cont.i.i.i:                                ; preds = %entry
  invoke void @_ZNKSt7__cxx1118basic_stringstreamIcSt11char_traitsIcESaIcEE3strEv(ptr nonnull sret(%"class.std::__cxx11::basic_string") align 8 %ref.tmp, ptr noundef nonnull align 8 dereferenceable(128) %ss.i.i.i)
          to label %_ZN7testing8internal33FormatForComparisonFailureMessageIjjEENSt7__cxx1112basic_stringIcSt11char_traitsIcESaIcEEERKT_RKT0_.exit unwind label %lpad.i.i.i

common.resume:                                    ; preds = %ehcleanup, %lpad.i.i.i
  %common.resume.op = phi { ptr, i32 } [ %1, %lpad.i.i.i ], [ %.pn, %ehcleanup ]
  resume { ptr, i32 } %common.resume.op

lpad.i.i.i:                                       ; preds = %invoke.cont.i.i.i, %entry
  %1 = landingpad { ptr, i32 }
          cleanup
  call void @_ZNSt7__cxx1118basic_stringstreamIcSt11char_traitsIcESaIcEED1Ev(ptr noundef nonnull align 8 dereferenceable(128) %ss.i.i.i) #20
  br label %common.resume

_ZN7testing8internal33FormatForComparisonFailureMessageIjjEENSt7__cxx1112basic_stringIcSt11char_traitsIcESaIcEEERKT_RKT0_.exit: ; preds = %invoke.cont.i.i.i
  call void @_ZNSt7__cxx1118basic_stringstreamIcSt11char_traitsIcESaIcEED1Ev(ptr noundef nonnull align 8 dereferenceable(128) %ss.i.i.i) #20
  call void @llvm.lifetime.end.p0(i64 392, ptr nonnull %ss.i.i.i), !noalias !61
  call void @llvm.lifetime.start.p0(i64 392, ptr nonnull %ss.i.i.i4), !noalias !69
  invoke void @_ZNSt7__cxx1118basic_stringstreamIcSt11char_traitsIcESaIcEEC1Ev(ptr noundef nonnull align 8 dereferenceable(128) %ss.i.i.i4)
          to label %.noexc unwind label %lpad

.noexc:                                           ; preds = %_ZN7testing8internal33FormatForComparisonFailureMessageIjjEENSt7__cxx1112basic_stringIcSt11char_traitsIcESaIcEEERKT_RKT0_.exit
  %add.ptr.i.i.i5 = getelementptr inbounds i8, ptr %ss.i.i.i4, i64 16
  %2 = load i32, ptr %rhs, align 4, !noalias !74
  %call.i.i.i.i.i.i1.i.i.i6 = invoke noundef nonnull align 8 dereferenceable(8) ptr @_ZNSolsEj(ptr noundef nonnull align 8 dereferenceable(8) %add.ptr.i.i.i5, i32 noundef %2)
          to label %invoke.cont.i.i.i8 unwind label %lpad.i.i.i7, !noalias !74

invoke.cont.i.i.i8:                               ; preds = %.noexc
  invoke void @_ZNKSt7__cxx1118basic_stringstreamIcSt11char_traitsIcESaIcEE3strEv(ptr nonnull sret(%"class.std::__cxx11::basic_string") align 8 %ref.tmp1, ptr noundef nonnull align 8 dereferenceable(128) %ss.i.i.i4)
          to label %invoke.cont unwind label %lpad.i.i.i7

lpad.i.i.i7:                                      ; preds = %invoke.cont.i.i.i8, %.noexc
  %3 = landingpad { ptr, i32 }
          cleanup
  call void @_ZNSt7__cxx1118basic_stringstreamIcSt11char_traitsIcESaIcEED1Ev(ptr noundef nonnull align 8 dereferenceable(128) %ss.i.i.i4) #20
  br label %ehcleanup

invoke.cont:                                      ; preds = %invoke.cont.i.i.i8
  call void @_ZNSt7__cxx1118basic_stringstreamIcSt11char_traitsIcESaIcEED1Ev(ptr noundef nonnull align 8 dereferenceable(128) %ss.i.i.i4) #20
  call void @llvm.lifetime.end.p0(i64 392, ptr nonnull %ss.i.i.i4), !noalias !69
  invoke void @_ZN7testing8internal9EqFailureEPKcS2_RKNSt7__cxx1112basic_stringIcSt11char_traitsIcESaIcEEESA_b(ptr sret(%"class.testing::AssertionResult") align 8 %agg.result, ptr noundef %lhs_expression, ptr noundef %rhs_expression, ptr noundef nonnull align 8 dereferenceable(32) %ref.tmp, ptr noundef nonnull align 8 dereferenceable(32) %ref.tmp1, i1 noundef zeroext false)
          to label %invoke.cont3 unwind label %lpad2

invoke.cont3:                                     ; preds = %invoke.cont
  call void @_ZNSt7__cxx1112basic_stringIcSt11char_traitsIcESaIcEED1Ev(ptr noundef nonnull align 8 dereferenceable(32) %ref.tmp1) #20
  call void @_ZNSt7__cxx1112basic_stringIcSt11char_traitsIcESaIcEED1Ev(ptr noundef nonnull align 8 dereferenceable(32) %ref.tmp) #20
  ret void

lpad:                                             ; preds = %_ZN7testing8internal33FormatForComparisonFailureMessageIjjEENSt7__cxx1112basic_stringIcSt11char_traitsIcESaIcEEERKT_RKT0_.exit
  %4 = landingpad { ptr, i32 }
          cleanup
  br label %ehcleanup

lpad2:                                            ; preds = %invoke.cont
  %5 = landingpad { ptr, i32 }
          cleanup
  call void @_ZNSt7__cxx1112basic_stringIcSt11char_traitsIcESaIcEED1Ev(ptr noundef nonnull align 8 dereferenceable(32) %ref.tmp1) #20
  br label %ehcleanup

ehcleanup:                                        ; preds = %lpad, %lpad.i.i.i7, %lpad2
  %.pn = phi { ptr, i32 } [ %5, %lpad2 ], [ %4, %lpad ], [ %3, %lpad.i.i.i7 ]
  call void @_ZNSt7__cxx1112basic_stringIcSt11char_traitsIcESaIcEED1Ev(ptr noundef nonnull align 8 dereferenceable(32) %ref.tmp) #20
  br label %common.resume
}

declare noundef nonnull align 8 dereferenceable(8) ptr @_ZNSolsEj(ptr noundef nonnull align 8 dereferenceable(8), i32 noundef) local_unnamed_addr #0

; Function Attrs: mustprogress nofree norecurse nosync nounwind willreturn memory(none) uwtable
define internal void @_ZN7testing8internal15TestFactoryImplIN12_GLOBAL__N_143PCG322018EngineTest_VerifyGoldenSeeded_TestEED2Ev(ptr nocapture nonnull readnone align 8 %this) unnamed_addr #7 align 2 {
entry:
  ret void
}

; Function Attrs: mustprogress nounwind uwtable
define internal void @_ZN7testing8internal15TestFactoryImplIN12_GLOBAL__N_143PCG322018EngineTest_VerifyGoldenSeeded_TestEED0Ev(ptr noundef nonnull align 8 dereferenceable(8) %this) unnamed_addr #3 align 2 {
entry:
  tail call void @_ZdlPv(ptr noundef nonnull %this) #21
  ret void
}

; Function Attrs: mustprogress uwtable
define internal noundef nonnull ptr @_ZN7testing8internal15TestFactoryImplIN12_GLOBAL__N_143PCG322018EngineTest_VerifyGoldenSeeded_TestEE10CreateTestEv(ptr nocapture nonnull readnone align 8 %this) unnamed_addr #4 align 2 personality ptr @__gxx_personality_v0 {
entry:
  %call = tail call noalias noundef nonnull dereferenceable(16) ptr @_Znwm(i64 noundef 16) #22
  invoke void @_ZN7testing4TestC2Ev(ptr noundef nonnull align 8 dereferenceable(16) %call)
          to label %invoke.cont unwind label %lpad

invoke.cont:                                      ; preds = %entry
  store ptr getelementptr inbounds ({ [8 x ptr] }, ptr @_ZTVN12_GLOBAL__N_143PCG322018EngineTest_VerifyGoldenSeeded_TestE, i64 0, inrange i32 0, i64 2), ptr %call, align 8
  ret ptr %call

lpad:                                             ; preds = %entry
  %0 = landingpad { ptr, i32 }
          cleanup
  tail call void @_ZdlPv(ptr noundef nonnull %call) #21
  resume { ptr, i32 } %0
}

; Function Attrs: mustprogress nounwind uwtable
define internal void @_ZN12_GLOBAL__N_143PCG322018EngineTest_VerifyGoldenSeeded_TestD2Ev(ptr noundef nonnull align 8 dereferenceable(16) %this) unnamed_addr #3 align 2 {
entry:
  tail call void @_ZN7testing4TestD2Ev(ptr noundef nonnull align 8 dereferenceable(16) %this) #20
  ret void
}

; Function Attrs: mustprogress nounwind uwtable
define internal void @_ZN12_GLOBAL__N_143PCG322018EngineTest_VerifyGoldenSeeded_TestD0Ev(ptr noundef nonnull align 8 dereferenceable(16) %this) unnamed_addr #3 align 2 {
entry:
  tail call void @_ZN7testing4TestD2Ev(ptr noundef nonnull align 8 dereferenceable(16) %this) #20
  tail call void @_ZdlPv(ptr noundef nonnull %this) #21
  ret void
}

; Function Attrs: mustprogress uwtable
define internal void @_ZN12_GLOBAL__N_143PCG322018EngineTest_VerifyGoldenSeeded_Test8TestBodyEv(ptr nocapture nonnull readnone align 8 %this) unnamed_addr #4 align 2 personality ptr @__gxx_personality_v0 {
entry:
  %buffer.i.i = alloca [2 x i32], align 4
  %buffer.i.i.i = alloca [2 x i32], align 4
  %kGolden = alloca [127 x i32], align 16
  %ref.tmp = alloca [3 x i32], align 4
  %gtest_ar = alloca %"class.testing::AssertionResult", align 8
  %ref.tmp4 = alloca i32, align 4
  %ref.tmp8 = alloca %"class.testing::Message", align 8
  %ref.tmp11 = alloca %"class.testing::internal::AssertHelper", align 8
  %gtest_ar30 = alloca %"class.testing::AssertionResult", align 8
  %ref.tmp31 = alloca i32, align 4
  %ref.tmp38 = alloca %"class.testing::Message", align 8
  %ref.tmp41 = alloca %"class.testing::internal::AssertHelper", align 8
  call void @llvm.memcpy.p0.p0.i64(ptr noundef nonnull align 16 dereferenceable(508) %kGolden, ptr noundef nonnull align 16 dereferenceable(508) @__const._ZN12_GLOBAL__N_143PCG322018EngineTest_VerifyGoldenSeeded_Test8TestBodyEv.kGolden, i64 508, i1 false)
  store i32 12, ptr %ref.tmp, align 4
  %arrayinit.element = getelementptr inbounds i32, ptr %ref.tmp, i64 1
  store i32 34, ptr %arrayinit.element, align 4
  %arrayinit.element2 = getelementptr inbounds i32, ptr %ref.tmp, i64 2
  store i32 56, ptr %arrayinit.element2, align 4
  br label %for.body.i

for.body.i:                                       ; preds = %for.inc.i, %entry
  %seed_sequence.sroa.0.0 = phi ptr [ null, %entry ], [ %seed_sequence.sroa.0.1, %for.inc.i ]
  %seed_sequence.sroa.8.0 = phi ptr [ null, %entry ], [ %seed_sequence.sroa.8.1, %for.inc.i ]
  %seed_sequence.sroa.13.0 = phi ptr [ null, %entry ], [ %seed_sequence.sroa.13.1, %for.inc.i ]
  %it.08.i.idx = phi i64 [ 0, %entry ], [ %it.08.i.add, %for.inc.i ]
  %it.08.i.ptr = getelementptr inbounds i8, ptr %ref.tmp, i64 %it.08.i.idx
  %0 = load i32, ptr %it.08.i.ptr, align 4
  %cmp.not.i.i.i59 = icmp eq ptr %seed_sequence.sroa.8.0, %seed_sequence.sroa.13.0
  br i1 %cmp.not.i.i.i59, label %if.else.i.i.i, label %if.then.i.i.i

if.then.i.i.i:                                    ; preds = %for.body.i
  store i32 %0, ptr %seed_sequence.sroa.8.0, align 4
  br label %for.inc.i

if.else.i.i.i:                                    ; preds = %for.body.i
  %sub.ptr.lhs.cast.i.i.i.i.i.i = ptrtoint ptr %seed_sequence.sroa.8.0 to i64
  %sub.ptr.rhs.cast.i.i.i.i.i.i = ptrtoint ptr %seed_sequence.sroa.0.0 to i64
  %sub.ptr.sub.i.i.i.i.i.i = sub i64 %sub.ptr.lhs.cast.i.i.i.i.i.i, %sub.ptr.rhs.cast.i.i.i.i.i.i
  %cmp.i.i.i.i.i60 = icmp eq i64 %sub.ptr.sub.i.i.i.i.i.i, 9223372036854775804
  br i1 %cmp.i.i.i.i.i60, label %if.then.i.i.i.i.i, label %_ZNKSt6vectorIjSaIjEE12_M_check_lenEmPKc.exit.i.i.i.i

if.then.i.i.i.i.i:                                ; preds = %if.else.i.i.i
  invoke void @_ZSt20__throw_length_errorPKc(ptr noundef nonnull @.str.28) #24
          to label %.noexc.i unwind label %lpad.loopexit.split-lp.i

.noexc.i:                                         ; preds = %if.then.i.i.i.i.i
  unreachable

_ZNKSt6vectorIjSaIjEE12_M_check_lenEmPKc.exit.i.i.i.i: ; preds = %if.else.i.i.i
  %sub.ptr.div.i.i.i.i.i.i = ashr exact i64 %sub.ptr.sub.i.i.i.i.i.i, 2
  %.sroa.speculated.i.i.i.i.i = tail call i64 @llvm.umax.i64(i64 %sub.ptr.div.i.i.i.i.i.i, i64 1)
  %add.i.i.i.i.i = add nsw i64 %.sroa.speculated.i.i.i.i.i, %sub.ptr.div.i.i.i.i.i.i
  %cmp7.i.i.i.i.i = icmp ult i64 %add.i.i.i.i.i, %sub.ptr.div.i.i.i.i.i.i
  %1 = tail call i64 @llvm.umin.i64(i64 %add.i.i.i.i.i, i64 2305843009213693951)
  %cond.i.i.i.i.i = select i1 %cmp7.i.i.i.i.i, i64 2305843009213693951, i64 %1
  %cmp.not.i.i.i.i.i = icmp eq i64 %cond.i.i.i.i.i, 0
  br i1 %cmp.not.i.i.i.i.i, label %_ZNSt12_Vector_baseIjSaIjEE11_M_allocateEm.exit.i.i.i.i, label %cond.true.i.i.i.i.i

cond.true.i.i.i.i.i:                              ; preds = %_ZNKSt6vectorIjSaIjEE12_M_check_lenEmPKc.exit.i.i.i.i
  %mul.i.i.i.i.i.i.i = shl nuw nsw i64 %cond.i.i.i.i.i, 2
  %call5.i.i.i.i.i.i3.i = invoke noalias noundef nonnull ptr @_Znwm(i64 noundef %mul.i.i.i.i.i.i.i) #22
          to label %_ZNSt12_Vector_baseIjSaIjEE11_M_allocateEm.exit.i.i.i.i unwind label %lpad.loopexit.i

_ZNSt12_Vector_baseIjSaIjEE11_M_allocateEm.exit.i.i.i.i: ; preds = %cond.true.i.i.i.i.i, %_ZNKSt6vectorIjSaIjEE12_M_check_lenEmPKc.exit.i.i.i.i
  %cond.i10.i.i.i.i = phi ptr [ null, %_ZNKSt6vectorIjSaIjEE12_M_check_lenEmPKc.exit.i.i.i.i ], [ %call5.i.i.i.i.i.i3.i, %cond.true.i.i.i.i.i ]
  %add.ptr.i.i.i.i63 = getelementptr inbounds i32, ptr %cond.i10.i.i.i.i, i64 %sub.ptr.div.i.i.i.i.i.i
  store i32 %0, ptr %add.ptr.i.i.i.i63, align 4
  %cmp.i.i.i.i.i.i.i = icmp sgt i64 %sub.ptr.sub.i.i.i.i.i.i, 0
  br i1 %cmp.i.i.i.i.i.i.i, label %if.then.i.i.i.i.i.i.i, label %_ZNSt6vectorIjSaIjEE11_S_relocateEPjS2_S2_RS0_.exit17.i.i.i.i

if.then.i.i.i.i.i.i.i:                            ; preds = %_ZNSt12_Vector_baseIjSaIjEE11_M_allocateEm.exit.i.i.i.i
  tail call void @llvm.memmove.p0.p0.i64(ptr nonnull align 4 %cond.i10.i.i.i.i, ptr align 4 %seed_sequence.sroa.0.0, i64 %sub.ptr.sub.i.i.i.i.i.i, i1 false)
  br label %_ZNSt6vectorIjSaIjEE11_S_relocateEPjS2_S2_RS0_.exit17.i.i.i.i

_ZNSt6vectorIjSaIjEE11_S_relocateEPjS2_S2_RS0_.exit17.i.i.i.i: ; preds = %if.then.i.i.i.i.i.i.i, %_ZNSt12_Vector_baseIjSaIjEE11_M_allocateEm.exit.i.i.i.i
  %add.ptr.i.i.i.i.i.i.i = getelementptr inbounds i8, ptr %cond.i10.i.i.i.i, i64 %sub.ptr.sub.i.i.i.i.i.i
  %tobool.not.i.i.i.i.i = icmp eq ptr %seed_sequence.sroa.0.0, null
  br i1 %tobool.not.i.i.i.i.i, label %_ZNSt6vectorIjSaIjEE17_M_realloc_insertIJjEEEvN9__gnu_cxx17__normal_iteratorIPjS1_EEDpOT_.exit.i.i.i, label %if.then.i18.i.i.i.i

if.then.i18.i.i.i.i:                              ; preds = %_ZNSt6vectorIjSaIjEE11_S_relocateEPjS2_S2_RS0_.exit17.i.i.i.i
  tail call void @_ZdlPv(ptr noundef nonnull %seed_sequence.sroa.0.0) #21
  br label %_ZNSt6vectorIjSaIjEE17_M_realloc_insertIJjEEEvN9__gnu_cxx17__normal_iteratorIPjS1_EEDpOT_.exit.i.i.i

_ZNSt6vectorIjSaIjEE17_M_realloc_insertIJjEEEvN9__gnu_cxx17__normal_iteratorIPjS1_EEDpOT_.exit.i.i.i: ; preds = %if.then.i18.i.i.i.i, %_ZNSt6vectorIjSaIjEE11_S_relocateEPjS2_S2_RS0_.exit17.i.i.i.i
  %add.ptr19.i.i.i.i = getelementptr inbounds i32, ptr %cond.i10.i.i.i.i, i64 %cond.i.i.i.i.i
  br label %for.inc.i

for.inc.i:                                        ; preds = %_ZNSt6vectorIjSaIjEE17_M_realloc_insertIJjEEEvN9__gnu_cxx17__normal_iteratorIPjS1_EEDpOT_.exit.i.i.i, %if.then.i.i.i
  %seed_sequence.sroa.0.1 = phi ptr [ %cond.i10.i.i.i.i, %_ZNSt6vectorIjSaIjEE17_M_realloc_insertIJjEEEvN9__gnu_cxx17__normal_iteratorIPjS1_EEDpOT_.exit.i.i.i ], [ %seed_sequence.sroa.0.0, %if.then.i.i.i ]
  %add.ptr.i.i.i.i.i.i.i.pn = phi ptr [ %add.ptr.i.i.i.i.i.i.i, %_ZNSt6vectorIjSaIjEE17_M_realloc_insertIJjEEEvN9__gnu_cxx17__normal_iteratorIPjS1_EEDpOT_.exit.i.i.i ], [ %seed_sequence.sroa.8.0, %if.then.i.i.i ]
  %seed_sequence.sroa.13.1 = phi ptr [ %add.ptr19.i.i.i.i, %_ZNSt6vectorIjSaIjEE17_M_realloc_insertIJjEEEvN9__gnu_cxx17__normal_iteratorIPjS1_EEDpOT_.exit.i.i.i ], [ %seed_sequence.sroa.13.0, %if.then.i.i.i ]
  %seed_sequence.sroa.8.1 = getelementptr inbounds i32, ptr %add.ptr.i.i.i.i.i.i.i.pn, i64 1
  %it.08.i.add = add nuw nsw i64 %it.08.i.idx, 4
  %cmp.not.i = icmp eq i64 %it.08.i.add, 12
  br i1 %cmp.not.i, label %_ZN4absl15random_internal15ExplicitSeedSeqC2IPKiEET_S5_.exit, label %for.body.i, !llvm.loop !33

lpad.loopexit.i:                                  ; preds = %cond.true.i.i.i.i.i
  %lpad.loopexit5.i = landingpad { ptr, i32 }
          cleanup
  br label %lpad.i

lpad.loopexit.split-lp.i:                         ; preds = %if.then.i.i.i.i.i
  %lpad.loopexit.split-lp6.i = landingpad { ptr, i32 }
          cleanup
  br label %lpad.i

lpad.i:                                           ; preds = %lpad.loopexit.split-lp.i, %lpad.loopexit.i
  %lpad.phi.i = phi { ptr, i32 } [ %lpad.loopexit5.i, %lpad.loopexit.i ], [ %lpad.loopexit.split-lp6.i, %lpad.loopexit.split-lp.i ]
  %tobool.not.i.i.i.i61 = icmp eq ptr %seed_sequence.sroa.0.0, null
  br i1 %tobool.not.i.i.i.i61, label %common.resume, label %if.then.i.i.i.i62

if.then.i.i.i.i62:                                ; preds = %lpad.i
  tail call void @_ZdlPv(ptr noundef nonnull %seed_sequence.sroa.0.0) #21
  br label %common.resume

common.resume:                                    ; preds = %if.then.i.i.i.i57, %ehcleanup55, %lpad.i, %if.then.i.i.i.i62
  %common.resume.op = phi { ptr, i32 } [ %lpad.phi.i, %if.then.i.i.i.i62 ], [ %lpad.phi.i, %lpad.i ], [ %.pn9.pn.pn, %ehcleanup55 ], [ %.pn9.pn.pn, %if.then.i.i.i.i57 ]
  resume { ptr, i32 } %common.resume.op

_ZN4absl15random_internal15ExplicitSeedSeqC2IPKiEET_S5_.exit: ; preds = %for.inc.i
  call void @llvm.lifetime.start.p0(i64 8, ptr nonnull %buffer.i.i.i)
  %cmp.i.i.i.i.i.i = icmp eq ptr %seed_sequence.sroa.0.1, %seed_sequence.sroa.8.1
  %sub.ptr.lhs.cast.i.i.i.i.i = ptrtoint ptr %seed_sequence.sroa.8.1 to i64
  %sub.ptr.rhs.cast.i.i.i.i.i = ptrtoint ptr %seed_sequence.sroa.0.1 to i64
  %sub.ptr.sub.i.i.i.i.i = sub i64 %sub.ptr.lhs.cast.i.i.i.i.i, %sub.ptr.rhs.cast.i.i.i.i.i
  %sub.ptr.div.i.i.i.i.i = ashr exact i64 %sub.ptr.sub.i.i.i.i.i, 2
  br i1 %cmp.i.i.i.i.i.i, label %_ZN4absl15random_internal10pcg_engineINS0_12pcg64_paramsILm6364136223846793005ELm1442695040888963407EEENS0_16pcg_xsh_rr_64_32EEC2IRNS0_15ExplicitSeedSeqEvEEOT_.exit, label %for.body.i.i.i.i

for.body.i.i.i.i:                                 ; preds = %_ZN4absl15random_internal15ExplicitSeedSeqC2IPKiEET_S5_.exit, %for.body.i.i.i.i
  %index.06.i.i.i.i = phi i64 [ %spec.select.i.i.i.i, %for.body.i.i.i.i ], [ 0, %_ZN4absl15random_internal15ExplicitSeedSeqC2IPKiEET_S5_.exit ]
  %begin.addr.05.i.idx.i.i.i = phi i64 [ %begin.addr.05.i.add.i.i.i, %for.body.i.i.i.i ], [ 0, %_ZN4absl15random_internal15ExplicitSeedSeqC2IPKiEET_S5_.exit ]
  %begin.addr.05.i.ptr.i.i.i = getelementptr inbounds i8, ptr %buffer.i.i.i, i64 %begin.addr.05.i.idx.i.i.i
  %inc.i.i.i.i = add i64 %index.06.i.i.i.i, 1
  %add.ptr.i.i.i.i.i = getelementptr inbounds i32, ptr %seed_sequence.sroa.0.1, i64 %index.06.i.i.i.i
  %2 = load i32, ptr %add.ptr.i.i.i.i.i, align 4
  store i32 %2, ptr %begin.addr.05.i.ptr.i.i.i, align 4
  %cmp6.not.i.i.i.i = icmp ult i64 %inc.i.i.i.i, %sub.ptr.div.i.i.i.i.i
  %spec.select.i.i.i.i = select i1 %cmp6.not.i.i.i.i, i64 %inc.i.i.i.i, i64 0
  %begin.addr.05.i.add.i.i.i = add nuw nsw i64 %begin.addr.05.i.idx.i.i.i, 4
  %cmp.not.i.i.i.i = icmp eq i64 %begin.addr.05.i.add.i.i.i, 8
  br i1 %cmp.not.i.i.i.i, label %_ZN4absl15random_internal15ExplicitSeedSeq8generateIPjEEvT_S4_.exit.loopexit6.i.i.i, label %for.body.i.i.i.i, !llvm.loop !34

_ZN4absl15random_internal15ExplicitSeedSeq8generateIPjEEvT_S4_.exit.loopexit6.i.i.i: ; preds = %for.body.i.i.i.i
  %.pre.i.i.i = load i32, ptr %buffer.i.i.i, align 4
  %arrayidx3.phi.trans.insert.i.i.i = getelementptr inbounds [2 x i32], ptr %buffer.i.i.i, i64 0, i64 1
  %.pre7.i.i.i = load i32, ptr %arrayidx3.phi.trans.insert.i.i.i, align 4
  %3 = zext i32 %.pre.i.i.i to i64
  %4 = zext i32 %.pre7.i.i.i to i64
  %5 = shl nuw i64 %3, 32
  %6 = or disjoint i64 %5, %4
  %7 = mul i64 %6, 6364136223846793005
  %8 = add i64 %7, 1876011003808476466
  br label %_ZN4absl15random_internal10pcg_engineINS0_12pcg64_paramsILm6364136223846793005ELm1442695040888963407EEENS0_16pcg_xsh_rr_64_32EEC2IRNS0_15ExplicitSeedSeqEvEEOT_.exit

_ZN4absl15random_internal10pcg_engineINS0_12pcg64_paramsILm6364136223846793005ELm1442695040888963407EEENS0_16pcg_xsh_rr_64_32EEC2IRNS0_15ExplicitSeedSeqEvEEOT_.exit: ; preds = %_ZN4absl15random_internal15ExplicitSeedSeqC2IPKiEET_S5_.exit, %_ZN4absl15random_internal15ExplicitSeedSeq8generateIPjEEvT_S4_.exit.loopexit6.i.i.i
  %or.i.i.i = phi i64 [ %8, %_ZN4absl15random_internal15ExplicitSeedSeq8generateIPjEEvT_S4_.exit.loopexit6.i.i.i ], [ 1876011003808476466, %_ZN4absl15random_internal15ExplicitSeedSeqC2IPKiEET_S5_.exit ]
  call void @llvm.lifetime.end.p0(i64 8, ptr nonnull %buffer.i.i.i)
  %message_.i.i = getelementptr inbounds %"class.testing::AssertionResult", ptr %gtest_ar, i64 0, i32 1
  br label %invoke.cont5

invoke.cont5:                                     ; preds = %_ZN4absl15random_internal10pcg_engineINS0_12pcg64_paramsILm6364136223846793005ELm1442695040888963407EEENS0_16pcg_xsh_rr_64_32EEC2IRNS0_15ExplicitSeedSeqEvEEOT_.exit, %_ZN7testing15AssertionResultD2Ev.exit
  %__begin1.0.ptr74 = phi ptr [ %kGolden, %_ZN4absl15random_internal10pcg_engineINS0_12pcg64_paramsILm6364136223846793005ELm1442695040888963407EEENS0_16pcg_xsh_rr_64_32EEC2IRNS0_15ExplicitSeedSeqEvEEOT_.exit ], [ %__begin1.0.ptr, %_ZN7testing15AssertionResultD2Ev.exit ]
  %__begin1.0.idx73 = phi i64 [ 0, %_ZN4absl15random_internal10pcg_engineINS0_12pcg64_paramsILm6364136223846793005ELm1442695040888963407EEENS0_16pcg_xsh_rr_64_32EEC2IRNS0_15ExplicitSeedSeqEvEEOT_.exit ], [ %__begin1.0.add, %_ZN7testing15AssertionResultD2Ev.exit ]
  %engine.sroa.0.072 = phi i64 [ %or.i.i.i, %_ZN4absl15random_internal10pcg_engineINS0_12pcg64_paramsILm6364136223846793005ELm1442695040888963407EEENS0_16pcg_xsh_rr_64_32EEC2IRNS0_15ExplicitSeedSeqEvEEOT_.exit ], [ %add.i.i, %_ZN7testing15AssertionResultD2Ev.exit ]
  %mul.i.i = mul i64 %engine.sroa.0.072, 6364136223846793005
  %add.i.i = add i64 %mul.i.i, 1442695040888963407
  %9 = lshr i64 %add.i.i, 45
  %10 = lshr i64 %add.i.i, 27
  %shr2.i.i = xor i64 %9, %10
  %conv.i.i = trunc i64 %shr2.i.i to i32
  %shr3.i.i = lshr i64 %add.i.i, 59
  %conv4.i.i = trunc i64 %shr3.i.i to i32
  %or.i.i.i.i = call noundef i32 @llvm.fshr.i32(i32 %conv.i.i, i32 %conv.i.i, i32 %conv4.i.i)
  store i32 %or.i.i.i.i, ptr %ref.tmp4, align 4
  %11 = load i32, ptr %__begin1.0.ptr74, align 4, !noalias !77
  %cmp.i.i = icmp eq i32 %11, %or.i.i.i.i
  br i1 %cmp.i.i, label %if.then.i.i, label %if.end.i.i

if.then.i.i:                                      ; preds = %invoke.cont5
  invoke void @_ZN7testing16AssertionSuccessEv(ptr nonnull sret(%"class.testing::AssertionResult") align 8 %gtest_ar)
          to label %invoke.cont6 unwind label %lpad.loopexit.split-lp

if.end.i.i:                                       ; preds = %invoke.cont5
  invoke void @_ZN7testing8internal18CmpHelperEQFailureIjjEENS_15AssertionResultEPKcS4_RKT_RKT0_(ptr nonnull sret(%"class.testing::AssertionResult") align 8 %gtest_ar, ptr noundef nonnull @.str.26, ptr noundef nonnull @.str.27, ptr noundef nonnull align 4 dereferenceable(4) %__begin1.0.ptr74, ptr noundef nonnull align 4 dereferenceable(4) %ref.tmp4)
          to label %invoke.cont6 unwind label %lpad.loopexit.split-lp

invoke.cont6:                                     ; preds = %if.then.i.i, %if.end.i.i
  %12 = load i8, ptr %gtest_ar, align 8
  %13 = and i8 %12, 1
  %tobool.i.not = icmp eq i8 %13, 0
  br i1 %tobool.i.not, label %if.else, label %if.end

lpad.loopexit:                                    ; preds = %if.then.i.i31, %if.end.i.i30
  %lpad.loopexit67 = landingpad { ptr, i32 }
          cleanup
  br label %ehcleanup55

lpad.loopexit.split-lp:                           ; preds = %if.then.i.i, %if.end.i.i
  %lpad.loopexit.split-lp68 = landingpad { ptr, i32 }
          cleanup
  br label %ehcleanup55

if.else:                                          ; preds = %invoke.cont6
  invoke void @_ZN7testing7MessageC1Ev(ptr noundef nonnull align 8 dereferenceable(8) %ref.tmp8)
          to label %invoke.cont10 unwind label %lpad9

invoke.cont10:                                    ; preds = %if.else
  %14 = load ptr, ptr %message_.i.i, align 8
  %cmp.i.i.not.i.i = icmp eq ptr %14, null
  br i1 %cmp.i.i.not.i.i, label %invoke.cont13, label %cond.true.i.i

cond.true.i.i:                                    ; preds = %invoke.cont10
  %call4.i.i = call noundef ptr @_ZNKSt7__cxx1112basic_stringIcSt11char_traitsIcESaIcEE5c_strEv(ptr noundef nonnull align 8 dereferenceable(32) %14) #20
  br label %invoke.cont13

invoke.cont13:                                    ; preds = %cond.true.i.i, %invoke.cont10
  %cond.i.i = phi ptr [ %call4.i.i, %cond.true.i.i ], [ @.str, %invoke.cont10 ]
  invoke void @_ZN7testing8internal12AssertHelperC1ENS_14TestPartResult4TypeEPKciS5_(ptr noundef nonnull align 8 dereferenceable(8) %ref.tmp11, i32 noundef 1, ptr noundef nonnull @.str.2, i32 noundef 575, ptr noundef %cond.i.i)
          to label %invoke.cont15 unwind label %lpad12

invoke.cont15:                                    ; preds = %invoke.cont13
  invoke void @_ZNK7testing8internal12AssertHelperaSERKNS_7MessageE(ptr noundef nonnull align 8 dereferenceable(8) %ref.tmp11, ptr noundef nonnull align 8 dereferenceable(8) %ref.tmp8)
          to label %invoke.cont17 unwind label %lpad16

invoke.cont17:                                    ; preds = %invoke.cont15
  call void @_ZN7testing8internal12AssertHelperD1Ev(ptr noundef nonnull align 8 dereferenceable(8) %ref.tmp11) #20
  %15 = load ptr, ptr %ref.tmp8, align 8
  %cmp.not.i.i = icmp eq ptr %15, null
  br i1 %cmp.not.i.i, label %_ZN7testing7MessageD2Ev.exit, label %_ZNKSt14default_deleteINSt7__cxx1118basic_stringstreamIcSt11char_traitsIcESaIcEEEEclEPS5_.exit.i.i

_ZNKSt14default_deleteINSt7__cxx1118basic_stringstreamIcSt11char_traitsIcESaIcEEEEclEPS5_.exit.i.i: ; preds = %invoke.cont17
  %vtable.i.i.i = load ptr, ptr %15, align 8
  %vfn.i.i.i = getelementptr inbounds ptr, ptr %vtable.i.i.i, i64 1
  %16 = load ptr, ptr %vfn.i.i.i, align 8
  call void %16(ptr noundef nonnull align 8 dereferenceable(128) %15) #20
  br label %_ZN7testing7MessageD2Ev.exit

_ZN7testing7MessageD2Ev.exit:                     ; preds = %invoke.cont17, %_ZNKSt14default_deleteINSt7__cxx1118basic_stringstreamIcSt11char_traitsIcESaIcEEEEclEPS5_.exit.i.i
  store ptr null, ptr %ref.tmp8, align 8
  br label %if.end

lpad9:                                            ; preds = %if.else
  %17 = landingpad { ptr, i32 }
          cleanup
  br label %ehcleanup18

lpad12:                                           ; preds = %invoke.cont13
  %18 = landingpad { ptr, i32 }
          cleanup
  br label %ehcleanup

lpad16:                                           ; preds = %invoke.cont15
  %19 = landingpad { ptr, i32 }
          cleanup
  call void @_ZN7testing8internal12AssertHelperD1Ev(ptr noundef nonnull align 8 dereferenceable(8) %ref.tmp11) #20
  br label %ehcleanup

ehcleanup:                                        ; preds = %lpad16, %lpad12
  %.pn9 = phi { ptr, i32 } [ %19, %lpad16 ], [ %18, %lpad12 ]
  %20 = load ptr, ptr %ref.tmp8, align 8
  %cmp.not.i.i14 = icmp eq ptr %20, null
  br i1 %cmp.not.i.i14, label %_ZN7testing7MessageD2Ev.exit18, label %_ZNKSt14default_deleteINSt7__cxx1118basic_stringstreamIcSt11char_traitsIcESaIcEEEEclEPS5_.exit.i.i15

_ZNKSt14default_deleteINSt7__cxx1118basic_stringstreamIcSt11char_traitsIcESaIcEEEEclEPS5_.exit.i.i15: ; preds = %ehcleanup
  %vtable.i.i.i16 = load ptr, ptr %20, align 8
  %vfn.i.i.i17 = getelementptr inbounds ptr, ptr %vtable.i.i.i16, i64 1
  %21 = load ptr, ptr %vfn.i.i.i17, align 8
  call void %21(ptr noundef nonnull align 8 dereferenceable(128) %20) #20
  br label %_ZN7testing7MessageD2Ev.exit18

_ZN7testing7MessageD2Ev.exit18:                   ; preds = %ehcleanup, %_ZNKSt14default_deleteINSt7__cxx1118basic_stringstreamIcSt11char_traitsIcESaIcEEEEclEPS5_.exit.i.i15
  store ptr null, ptr %ref.tmp8, align 8
  br label %ehcleanup18

if.end:                                           ; preds = %invoke.cont6, %_ZN7testing7MessageD2Ev.exit
  %22 = load ptr, ptr %message_.i.i, align 8
  %cmp.not.i.i19 = icmp eq ptr %22, null
  br i1 %cmp.not.i.i19, label %_ZN7testing15AssertionResultD2Ev.exit, label %_ZNKSt14default_deleteINSt7__cxx1112basic_stringIcSt11char_traitsIcESaIcEEEEclEPS5_.exit.i.i

_ZNKSt14default_deleteINSt7__cxx1112basic_stringIcSt11char_traitsIcESaIcEEEEclEPS5_.exit.i.i: ; preds = %if.end
  call void @_ZNSt7__cxx1112basic_stringIcSt11char_traitsIcESaIcEED1Ev(ptr noundef nonnull align 8 dereferenceable(32) %22) #20
  call void @_ZdlPv(ptr noundef nonnull %22) #21
  br label %_ZN7testing15AssertionResultD2Ev.exit

_ZN7testing15AssertionResultD2Ev.exit:            ; preds = %if.end, %_ZNKSt14default_deleteINSt7__cxx1112basic_stringIcSt11char_traitsIcESaIcEEEEclEPS5_.exit.i.i
  store ptr null, ptr %message_.i.i, align 8
  %__begin1.0.add = add nuw nsw i64 %__begin1.0.idx73, 4
  %__begin1.0.ptr = getelementptr inbounds i8, ptr %kGolden, i64 %__begin1.0.add
  %cmp.not = icmp eq i64 %__begin1.0.add, 508
  br i1 %cmp.not, label %for.end, label %invoke.cont5

ehcleanup18:                                      ; preds = %_ZN7testing7MessageD2Ev.exit18, %lpad9
  %.pn9.pn = phi { ptr, i32 } [ %.pn9, %_ZN7testing7MessageD2Ev.exit18 ], [ %17, %lpad9 ]
  call void @_ZN7testing15AssertionResultD2Ev(ptr noundef nonnull align 8 dereferenceable(16) %gtest_ar) #20
  br label %ehcleanup55

for.end:                                          ; preds = %_ZN7testing15AssertionResultD2Ev.exit
  call void @llvm.lifetime.start.p0(i64 8, ptr nonnull %buffer.i.i)
  br i1 %cmp.i.i.i.i.i.i, label %_ZN4absl15random_internal10pcg_engineINS0_12pcg64_paramsILm6364136223846793005ELm1442695040888963407EEENS0_16pcg_xsh_rr_64_32EE4seedIRNS0_15ExplicitSeedSeqEEENSt9enable_ifIXntsr3std14is_convertibleIT_mEE5valueEvE4typeEOSA_.exit, label %for.body.i.i.i

for.body.i.i.i:                                   ; preds = %for.end, %for.body.i.i.i
  %index.06.i.i.i = phi i64 [ %spec.select.i.i.i, %for.body.i.i.i ], [ 0, %for.end ]
  %begin.addr.05.i.idx.i.i = phi i64 [ %begin.addr.05.i.add.i.i, %for.body.i.i.i ], [ 0, %for.end ]
  %begin.addr.05.i.ptr.i.i = getelementptr inbounds i8, ptr %buffer.i.i, i64 %begin.addr.05.i.idx.i.i
  %inc.i.i.i = add i64 %index.06.i.i.i, 1
  %add.ptr.i.i.i.i = getelementptr inbounds i32, ptr %seed_sequence.sroa.0.1, i64 %index.06.i.i.i
  %23 = load i32, ptr %add.ptr.i.i.i.i, align 4
  store i32 %23, ptr %begin.addr.05.i.ptr.i.i, align 4
  %cmp6.not.i.i.i = icmp ult i64 %inc.i.i.i, %sub.ptr.div.i.i.i.i.i
  %spec.select.i.i.i = select i1 %cmp6.not.i.i.i, i64 %inc.i.i.i, i64 0
  %begin.addr.05.i.add.i.i = add nuw nsw i64 %begin.addr.05.i.idx.i.i, 4
  %cmp.not.i.i.i = icmp eq i64 %begin.addr.05.i.add.i.i, 8
  br i1 %cmp.not.i.i.i, label %_ZN4absl15random_internal15ExplicitSeedSeq8generateIPjEEvT_S4_.exit.loopexit6.i.i, label %for.body.i.i.i, !llvm.loop !34

_ZN4absl15random_internal15ExplicitSeedSeq8generateIPjEEvT_S4_.exit.loopexit6.i.i: ; preds = %for.body.i.i.i
  %.pre.i.i = load i32, ptr %buffer.i.i, align 4
  %arrayidx3.phi.trans.insert.i.i = getelementptr inbounds [2 x i32], ptr %buffer.i.i, i64 0, i64 1
  %.pre7.i.i = load i32, ptr %arrayidx3.phi.trans.insert.i.i, align 4
  %24 = zext i32 %.pre.i.i to i64
  %25 = zext i32 %.pre7.i.i to i64
  %26 = shl nuw i64 %24, 32
  %27 = or disjoint i64 %26, %25
  %28 = mul i64 %27, 6364136223846793005
  %29 = add i64 %28, 1876011003808476466
  br label %_ZN4absl15random_internal10pcg_engineINS0_12pcg64_paramsILm6364136223846793005ELm1442695040888963407EEENS0_16pcg_xsh_rr_64_32EE4seedIRNS0_15ExplicitSeedSeqEEENSt9enable_ifIXntsr3std14is_convertibleIT_mEE5valueEvE4typeEOSA_.exit

_ZN4absl15random_internal10pcg_engineINS0_12pcg64_paramsILm6364136223846793005ELm1442695040888963407EEENS0_16pcg_xsh_rr_64_32EE4seedIRNS0_15ExplicitSeedSeqEEENSt9enable_ifIXntsr3std14is_convertibleIT_mEE5valueEvE4typeEOSA_.exit: ; preds = %for.end, %_ZN4absl15random_internal15ExplicitSeedSeq8generateIPjEEvT_S4_.exit.loopexit6.i.i
  %or.i.i = phi i64 [ %29, %_ZN4absl15random_internal15ExplicitSeedSeq8generateIPjEEvT_S4_.exit.loopexit6.i.i ], [ 1876011003808476466, %for.end ]
  call void @llvm.lifetime.end.p0(i64 8, ptr nonnull %buffer.i.i)
  %message_.i.i36 = getelementptr inbounds %"class.testing::AssertionResult", ptr %gtest_ar30, i64 0, i32 1
  br label %invoke.cont32

invoke.cont32:                                    ; preds = %_ZN4absl15random_internal10pcg_engineINS0_12pcg64_paramsILm6364136223846793005ELm1442695040888963407EEENS0_16pcg_xsh_rr_64_32EE4seedIRNS0_15ExplicitSeedSeqEEENSt9enable_ifIXntsr3std14is_convertibleIT_mEE5valueEvE4typeEOSA_.exit, %_ZN7testing15AssertionResultD2Ev.exit55
  %__begin121.0.ptr77 = phi ptr [ %kGolden, %_ZN4absl15random_internal10pcg_engineINS0_12pcg64_paramsILm6364136223846793005ELm1442695040888963407EEENS0_16pcg_xsh_rr_64_32EE4seedIRNS0_15ExplicitSeedSeqEEENSt9enable_ifIXntsr3std14is_convertibleIT_mEE5valueEvE4typeEOSA_.exit ], [ %__begin121.0.ptr, %_ZN7testing15AssertionResultD2Ev.exit55 ]
  %__begin121.0.idx76 = phi i64 [ 0, %_ZN4absl15random_internal10pcg_engineINS0_12pcg64_paramsILm6364136223846793005ELm1442695040888963407EEENS0_16pcg_xsh_rr_64_32EE4seedIRNS0_15ExplicitSeedSeqEEENSt9enable_ifIXntsr3std14is_convertibleIT_mEE5valueEvE4typeEOSA_.exit ], [ %__begin121.0.add, %_ZN7testing15AssertionResultD2Ev.exit55 ]
  %engine.sroa.0.175 = phi i64 [ %or.i.i, %_ZN4absl15random_internal10pcg_engineINS0_12pcg64_paramsILm6364136223846793005ELm1442695040888963407EEENS0_16pcg_xsh_rr_64_32EE4seedIRNS0_15ExplicitSeedSeqEEENSt9enable_ifIXntsr3std14is_convertibleIT_mEE5valueEvE4typeEOSA_.exit ], [ %add.i.i23, %_ZN7testing15AssertionResultD2Ev.exit55 ]
  %mul.i.i22 = mul i64 %engine.sroa.0.175, 6364136223846793005
  %add.i.i23 = add i64 %mul.i.i22, 1442695040888963407
  %30 = lshr i64 %add.i.i23, 45
  %31 = lshr i64 %add.i.i23, 27
  %shr2.i.i24 = xor i64 %30, %31
  %conv.i.i25 = trunc i64 %shr2.i.i24 to i32
  %shr3.i.i26 = lshr i64 %add.i.i23, 59
  %conv4.i.i27 = trunc i64 %shr3.i.i26 to i32
  %or.i.i.i.i28 = call noundef i32 @llvm.fshr.i32(i32 %conv.i.i25, i32 %conv.i.i25, i32 %conv4.i.i27)
  store i32 %or.i.i.i.i28, ptr %ref.tmp31, align 4
  %32 = load i32, ptr %__begin121.0.ptr77, align 4, !noalias !82
  %cmp.i.i29 = icmp eq i32 %32, %or.i.i.i.i28
  br i1 %cmp.i.i29, label %if.then.i.i31, label %if.end.i.i30

if.then.i.i31:                                    ; preds = %invoke.cont32
  invoke void @_ZN7testing16AssertionSuccessEv(ptr nonnull sret(%"class.testing::AssertionResult") align 8 %gtest_ar30)
          to label %invoke.cont34 unwind label %lpad.loopexit

if.end.i.i30:                                     ; preds = %invoke.cont32
  invoke void @_ZN7testing8internal18CmpHelperEQFailureIjjEENS_15AssertionResultEPKcS4_RKT_RKT0_(ptr nonnull sret(%"class.testing::AssertionResult") align 8 %gtest_ar30, ptr noundef nonnull @.str.26, ptr noundef nonnull @.str.27, ptr noundef nonnull align 4 dereferenceable(4) %__begin121.0.ptr77, ptr noundef nonnull align 4 dereferenceable(4) %ref.tmp31)
          to label %invoke.cont34 unwind label %lpad.loopexit

invoke.cont34:                                    ; preds = %if.then.i.i31, %if.end.i.i30
  %33 = load i8, ptr %gtest_ar30, align 8
  %34 = and i8 %33, 1
  %tobool.i35.not = icmp eq i8 %34, 0
  br i1 %tobool.i35.not, label %if.else37, label %if.end50

if.else37:                                        ; preds = %invoke.cont34
  invoke void @_ZN7testing7MessageC1Ev(ptr noundef nonnull align 8 dereferenceable(8) %ref.tmp38)
          to label %invoke.cont40 unwind label %lpad39

invoke.cont40:                                    ; preds = %if.else37
  %35 = load ptr, ptr %message_.i.i36, align 8
  %cmp.i.i.not.i.i37 = icmp eq ptr %35, null
  br i1 %cmp.i.i.not.i.i37, label %invoke.cont43, label %cond.true.i.i38

cond.true.i.i38:                                  ; preds = %invoke.cont40
  %call4.i.i39 = call noundef ptr @_ZNKSt7__cxx1112basic_stringIcSt11char_traitsIcESaIcEE5c_strEv(ptr noundef nonnull align 8 dereferenceable(32) %35) #20
  br label %invoke.cont43

invoke.cont43:                                    ; preds = %cond.true.i.i38, %invoke.cont40
  %cond.i.i40 = phi ptr [ %call4.i.i39, %cond.true.i.i38 ], [ @.str, %invoke.cont40 ]
  invoke void @_ZN7testing8internal12AssertHelperC1ENS_14TestPartResult4TypeEPKciS5_(ptr noundef nonnull align 8 dereferenceable(8) %ref.tmp41, i32 noundef 1, ptr noundef nonnull @.str.2, i32 noundef 579, ptr noundef %cond.i.i40)
          to label %invoke.cont45 unwind label %lpad42

invoke.cont45:                                    ; preds = %invoke.cont43
  invoke void @_ZNK7testing8internal12AssertHelperaSERKNS_7MessageE(ptr noundef nonnull align 8 dereferenceable(8) %ref.tmp41, ptr noundef nonnull align 8 dereferenceable(8) %ref.tmp38)
          to label %invoke.cont47 unwind label %lpad46

invoke.cont47:                                    ; preds = %invoke.cont45
  call void @_ZN7testing8internal12AssertHelperD1Ev(ptr noundef nonnull align 8 dereferenceable(8) %ref.tmp41) #20
  %36 = load ptr, ptr %ref.tmp38, align 8
  %cmp.not.i.i42 = icmp eq ptr %36, null
  br i1 %cmp.not.i.i42, label %_ZN7testing7MessageD2Ev.exit46, label %_ZNKSt14default_deleteINSt7__cxx1118basic_stringstreamIcSt11char_traitsIcESaIcEEEEclEPS5_.exit.i.i43

_ZNKSt14default_deleteINSt7__cxx1118basic_stringstreamIcSt11char_traitsIcESaIcEEEEclEPS5_.exit.i.i43: ; preds = %invoke.cont47
  %vtable.i.i.i44 = load ptr, ptr %36, align 8
  %vfn.i.i.i45 = getelementptr inbounds ptr, ptr %vtable.i.i.i44, i64 1
  %37 = load ptr, ptr %vfn.i.i.i45, align 8
  call void %37(ptr noundef nonnull align 8 dereferenceable(128) %36) #20
  br label %_ZN7testing7MessageD2Ev.exit46

_ZN7testing7MessageD2Ev.exit46:                   ; preds = %invoke.cont47, %_ZNKSt14default_deleteINSt7__cxx1118basic_stringstreamIcSt11char_traitsIcESaIcEEEEclEPS5_.exit.i.i43
  store ptr null, ptr %ref.tmp38, align 8
  br label %if.end50

lpad39:                                           ; preds = %if.else37
  %38 = landingpad { ptr, i32 }
          cleanup
  br label %ehcleanup51

lpad42:                                           ; preds = %invoke.cont43
  %39 = landingpad { ptr, i32 }
          cleanup
  br label %ehcleanup49

lpad46:                                           ; preds = %invoke.cont45
  %40 = landingpad { ptr, i32 }
          cleanup
  call void @_ZN7testing8internal12AssertHelperD1Ev(ptr noundef nonnull align 8 dereferenceable(8) %ref.tmp41) #20
  br label %ehcleanup49

ehcleanup49:                                      ; preds = %lpad46, %lpad42
  %.pn = phi { ptr, i32 } [ %40, %lpad46 ], [ %39, %lpad42 ]
  %41 = load ptr, ptr %ref.tmp38, align 8
  %cmp.not.i.i47 = icmp eq ptr %41, null
  br i1 %cmp.not.i.i47, label %_ZN7testing7MessageD2Ev.exit51, label %_ZNKSt14default_deleteINSt7__cxx1118basic_stringstreamIcSt11char_traitsIcESaIcEEEEclEPS5_.exit.i.i48

_ZNKSt14default_deleteINSt7__cxx1118basic_stringstreamIcSt11char_traitsIcESaIcEEEEclEPS5_.exit.i.i48: ; preds = %ehcleanup49
  %vtable.i.i.i49 = load ptr, ptr %41, align 8
  %vfn.i.i.i50 = getelementptr inbounds ptr, ptr %vtable.i.i.i49, i64 1
  %42 = load ptr, ptr %vfn.i.i.i50, align 8
  call void %42(ptr noundef nonnull align 8 dereferenceable(128) %41) #20
  br label %_ZN7testing7MessageD2Ev.exit51

_ZN7testing7MessageD2Ev.exit51:                   ; preds = %ehcleanup49, %_ZNKSt14default_deleteINSt7__cxx1118basic_stringstreamIcSt11char_traitsIcESaIcEEEEclEPS5_.exit.i.i48
  store ptr null, ptr %ref.tmp38, align 8
  br label %ehcleanup51

if.end50:                                         ; preds = %invoke.cont34, %_ZN7testing7MessageD2Ev.exit46
  %43 = load ptr, ptr %message_.i.i36, align 8
  %cmp.not.i.i53 = icmp eq ptr %43, null
  br i1 %cmp.not.i.i53, label %_ZN7testing15AssertionResultD2Ev.exit55, label %_ZNKSt14default_deleteINSt7__cxx1112basic_stringIcSt11char_traitsIcESaIcEEEEclEPS5_.exit.i.i54

_ZNKSt14default_deleteINSt7__cxx1112basic_stringIcSt11char_traitsIcESaIcEEEEclEPS5_.exit.i.i54: ; preds = %if.end50
  call void @_ZNSt7__cxx1112basic_stringIcSt11char_traitsIcESaIcEED1Ev(ptr noundef nonnull align 8 dereferenceable(32) %43) #20
  call void @_ZdlPv(ptr noundef nonnull %43) #21
  br label %_ZN7testing15AssertionResultD2Ev.exit55

_ZN7testing15AssertionResultD2Ev.exit55:          ; preds = %if.end50, %_ZNKSt14default_deleteINSt7__cxx1112basic_stringIcSt11char_traitsIcESaIcEEEEclEPS5_.exit.i.i54
  store ptr null, ptr %message_.i.i36, align 8
  %__begin121.0.add = add nuw nsw i64 %__begin121.0.idx76, 4
  %__begin121.0.ptr = getelementptr inbounds i8, ptr %kGolden, i64 %__begin121.0.add
  %cmp27.not = icmp eq i64 %__begin121.0.add, 508
  br i1 %cmp27.not, label %for.end54, label %invoke.cont32

ehcleanup51:                                      ; preds = %_ZN7testing7MessageD2Ev.exit51, %lpad39
  %.pn.pn = phi { ptr, i32 } [ %.pn, %_ZN7testing7MessageD2Ev.exit51 ], [ %38, %lpad39 ]
  call void @_ZN7testing15AssertionResultD2Ev(ptr noundef nonnull align 8 dereferenceable(16) %gtest_ar30) #20
  br label %ehcleanup55

for.end54:                                        ; preds = %_ZN7testing15AssertionResultD2Ev.exit55
  %tobool.not.i.i.i.i = icmp eq ptr %seed_sequence.sroa.0.1, null
  br i1 %tobool.not.i.i.i.i, label %_ZN4absl15random_internal15ExplicitSeedSeqD2Ev.exit, label %if.then.i.i.i.i

if.then.i.i.i.i:                                  ; preds = %for.end54
  call void @_ZdlPv(ptr noundef nonnull %seed_sequence.sroa.0.1) #21
  br label %_ZN4absl15random_internal15ExplicitSeedSeqD2Ev.exit

_ZN4absl15random_internal15ExplicitSeedSeqD2Ev.exit: ; preds = %for.end54, %if.then.i.i.i.i
  ret void

ehcleanup55:                                      ; preds = %lpad.loopexit, %lpad.loopexit.split-lp, %ehcleanup51, %ehcleanup18
  %.pn9.pn.pn = phi { ptr, i32 } [ %.pn9.pn, %ehcleanup18 ], [ %.pn.pn, %ehcleanup51 ], [ %lpad.loopexit67, %lpad.loopexit ], [ %lpad.loopexit.split-lp68, %lpad.loopexit.split-lp ]
  %tobool.not.i.i.i.i56 = icmp eq ptr %seed_sequence.sroa.0.1, null
  br i1 %tobool.not.i.i.i.i56, label %common.resume, label %if.then.i.i.i.i57

if.then.i.i.i.i57:                                ; preds = %ehcleanup55
  call void @_ZdlPv(ptr noundef nonnull %seed_sequence.sroa.0.1) #21
  br label %common.resume
}

; Function Attrs: mustprogress nofree norecurse nosync nounwind willreturn memory(none) uwtable
define internal void @_ZN7testing8internal15TestFactoryImplIN12_GLOBAL__N_159PCG322018EngineTest_VerifyGoldenFromDeserializedEngine_TestEED2Ev(ptr nocapture nonnull readnone align 8 %this) unnamed_addr #7 align 2 {
entry:
  ret void
}

; Function Attrs: mustprogress nounwind uwtable
define internal void @_ZN7testing8internal15TestFactoryImplIN12_GLOBAL__N_159PCG322018EngineTest_VerifyGoldenFromDeserializedEngine_TestEED0Ev(ptr noundef nonnull align 8 dereferenceable(8) %this) unnamed_addr #3 align 2 {
entry:
  tail call void @_ZdlPv(ptr noundef nonnull %this) #21
  ret void
}

; Function Attrs: mustprogress uwtable
define internal noundef nonnull ptr @_ZN7testing8internal15TestFactoryImplIN12_GLOBAL__N_159PCG322018EngineTest_VerifyGoldenFromDeserializedEngine_TestEE10CreateTestEv(ptr nocapture nonnull readnone align 8 %this) unnamed_addr #4 align 2 personality ptr @__gxx_personality_v0 {
entry:
  %call = tail call noalias noundef nonnull dereferenceable(16) ptr @_Znwm(i64 noundef 16) #22
  invoke void @_ZN7testing4TestC2Ev(ptr noundef nonnull align 8 dereferenceable(16) %call)
          to label %invoke.cont unwind label %lpad

invoke.cont:                                      ; preds = %entry
  store ptr getelementptr inbounds ({ [8 x ptr] }, ptr @_ZTVN12_GLOBAL__N_159PCG322018EngineTest_VerifyGoldenFromDeserializedEngine_TestE, i64 0, inrange i32 0, i64 2), ptr %call, align 8
  ret ptr %call

lpad:                                             ; preds = %entry
  %0 = landingpad { ptr, i32 }
          cleanup
  tail call void @_ZdlPv(ptr noundef nonnull %call) #21
  resume { ptr, i32 } %0
}

; Function Attrs: mustprogress nounwind uwtable
define internal void @_ZN12_GLOBAL__N_159PCG322018EngineTest_VerifyGoldenFromDeserializedEngine_TestD2Ev(ptr noundef nonnull align 8 dereferenceable(16) %this) unnamed_addr #3 align 2 {
entry:
  tail call void @_ZN7testing4TestD2Ev(ptr noundef nonnull align 8 dereferenceable(16) %this) #20
  ret void
}

; Function Attrs: mustprogress nounwind uwtable
define internal void @_ZN12_GLOBAL__N_159PCG322018EngineTest_VerifyGoldenFromDeserializedEngine_TestD0Ev(ptr noundef nonnull align 8 dereferenceable(16) %this) unnamed_addr #3 align 2 {
entry:
  tail call void @_ZN7testing4TestD2Ev(ptr noundef nonnull align 8 dereferenceable(16) %this) #20
  tail call void @_ZdlPv(ptr noundef nonnull %this) #21
  ret void
}

; Function Attrs: mustprogress uwtable
define internal void @_ZN12_GLOBAL__N_159PCG322018EngineTest_VerifyGoldenFromDeserializedEngine_Test8TestBodyEv(ptr nocapture nonnull readnone align 8 %this) unnamed_addr #4 align 2 personality ptr @__gxx_personality_v0 {
entry:
  %kGolden = alloca [127 x i64], align 16
  %engine = alloca %"class.absl::random_internal::pcg_engine.34", align 8
  %stream = alloca %"class.std::__cxx11::basic_istringstream", align 8
  %ref.tmp = alloca %"class.std::__cxx11::basic_string", align 8
  %ref.tmp2 = alloca %"class.std::allocator", align 1
  %gtest_ar = alloca %"class.testing::AssertionResult", align 8
  %ref.tmp8 = alloca i32, align 4
  %ref.tmp13 = alloca %"class.testing::Message", align 8
  %ref.tmp16 = alloca %"class.testing::internal::AssertHelper", align 8
  call void @llvm.memcpy.p0.p0.i64(ptr noundef nonnull align 16 dereferenceable(1016) %kGolden, ptr noundef nonnull align 16 dereferenceable(1016) @__const._ZN12_GLOBAL__N_159PCG322018EngineTest_VerifyGoldenFromDeserializedEngine_Test8TestBodyEv.kGolden, i64 1016, i1 false)
  store i64 1876011003808476466, ptr %engine, align 8
  call void @_ZNSaIcEC1Ev(ptr noundef nonnull align 1 dereferenceable(1) %ref.tmp2) #20
  %call.i10 = invoke noundef ptr @_ZNSt7__cxx1112basic_stringIcSt11char_traitsIcESaIcEE13_M_local_dataEv(ptr noundef nonnull align 8 dereferenceable(32) %ref.tmp)
          to label %call.i.noexc unwind label %lpad

call.i.noexc:                                     ; preds = %entry
  invoke void @_ZNSt7__cxx1112basic_stringIcSt11char_traitsIcESaIcEE12_Alloc_hiderC1EPcRKS3_(ptr noundef nonnull align 8 dereferenceable(8) %ref.tmp, ptr noundef %call.i10, ptr noundef nonnull align 1 dereferenceable(1) %ref.tmp2)
          to label %.noexc unwind label %lpad

.noexc:                                           ; preds = %call.i.noexc
  invoke void @_ZNSt7__cxx1112basic_stringIcSt11char_traitsIcESaIcEE12_M_constructIPKcEEvT_S8_St20forward_iterator_tag(ptr noundef nonnull align 8 dereferenceable(32) %ref.tmp, ptr noundef nonnull @.str.30, ptr noundef nonnull getelementptr inbounds ([60 x i8], ptr @.str.30, i64 0, i64 59))
          to label %invoke.cont unwind label %lpad.i

lpad.i:                                           ; preds = %.noexc
  %0 = landingpad { ptr, i32 }
          cleanup
  call void @_ZNSaIcED2Ev(ptr noundef nonnull align 1 dereferenceable(1) %ref.tmp) #20
  br label %ehcleanup

invoke.cont:                                      ; preds = %.noexc
  invoke void @_ZNSt7__cxx1119basic_istringstreamIcSt11char_traitsIcESaIcEEC1ERKNS_12basic_stringIcS2_S3_EESt13_Ios_Openmode(ptr noundef nonnull align 8 dereferenceable(120) %stream, ptr noundef nonnull align 8 dereferenceable(32) %ref.tmp, i32 noundef 8)
          to label %invoke.cont4 unwind label %lpad3

invoke.cont4:                                     ; preds = %invoke.cont
  call void @_ZNSt7__cxx1112basic_stringIcSt11char_traitsIcESaIcEED1Ev(ptr noundef nonnull align 8 dereferenceable(32) %ref.tmp) #20
  call void @_ZNSaIcED1Ev(ptr noundef nonnull align 1 dereferenceable(1) %ref.tmp2) #20
  %call = invoke noundef nonnull align 8 dereferenceable(16) ptr @_ZN4absl15random_internalrsIcSt11char_traitsIcEEENSt9enable_ifILb1ERSt13basic_istreamIT_T0_EE4typeES9_RNS0_10pcg_engineINS0_12pcg64_paramsILm6364136223846793005ELm1442695040888963407EEENS0_16pcg_xsh_rr_64_32EEE(ptr noundef nonnull align 8 dereferenceable(16) %stream, ptr noundef nonnull align 8 dereferenceable(8) %engine)
          to label %for.cond.preheader unwind label %lpad5.loopexit.split-lp

for.cond.preheader:                               ; preds = %invoke.cont4
  %message_.i.i = getelementptr inbounds %"class.testing::AssertionResult", ptr %gtest_ar, i64 0, i32 1
  br label %invoke.cont9

invoke.cont9:                                     ; preds = %for.cond.preheader, %_ZN7testing15AssertionResultD2Ev.exit
  %__begin1.0.ptr21 = phi ptr [ %kGolden, %for.cond.preheader ], [ %__begin1.0.ptr, %_ZN7testing15AssertionResultD2Ev.exit ]
  %__begin1.0.idx20 = phi i64 [ 0, %for.cond.preheader ], [ %__begin1.0.add, %_ZN7testing15AssertionResultD2Ev.exit ]
  %1 = load i64, ptr %engine, align 8
  %mul.i.i = mul i64 %1, 6364136223846793005
  %add.i.i = add i64 %mul.i.i, 1442695040888963407
  store i64 %add.i.i, ptr %engine, align 8
  %2 = lshr i64 %add.i.i, 45
  %3 = lshr i64 %add.i.i, 27
  %shr2.i.i = xor i64 %2, %3
  %conv.i.i = trunc i64 %shr2.i.i to i32
  %shr3.i.i = lshr i64 %add.i.i, 59
  %conv4.i.i = trunc i64 %shr3.i.i to i32
  %or.i.i.i.i = call noundef i32 @llvm.fshr.i32(i32 %conv.i.i, i32 %conv.i.i, i32 %conv4.i.i)
  store i32 %or.i.i.i.i, ptr %ref.tmp8, align 4
  %4 = load i64, ptr %__begin1.0.ptr21, align 8, !noalias !87
  %conv.i.i11 = zext i32 %or.i.i.i.i to i64
  %cmp.i.i = icmp eq i64 %4, %conv.i.i11
  br i1 %cmp.i.i, label %if.then.i.i, label %if.end.i.i

if.then.i.i:                                      ; preds = %invoke.cont9
  invoke void @_ZN7testing16AssertionSuccessEv(ptr nonnull sret(%"class.testing::AssertionResult") align 8 %gtest_ar)
          to label %invoke.cont11 unwind label %lpad5.loopexit

if.end.i.i:                                       ; preds = %invoke.cont9
  invoke void @_ZN7testing8internal18CmpHelperEQFailureImjEENS_15AssertionResultEPKcS4_RKT_RKT0_(ptr nonnull sret(%"class.testing::AssertionResult") align 8 %gtest_ar, ptr noundef nonnull @.str.26, ptr noundef nonnull @.str.27, ptr noundef nonnull align 8 dereferenceable(8) %__begin1.0.ptr21, ptr noundef nonnull align 4 dereferenceable(4) %ref.tmp8)
          to label %invoke.cont11 unwind label %lpad5.loopexit

invoke.cont11:                                    ; preds = %if.then.i.i, %if.end.i.i
  %5 = load i8, ptr %gtest_ar, align 8
  %6 = and i8 %5, 1
  %tobool.i.not = icmp eq i8 %6, 0
  br i1 %tobool.i.not, label %if.else, label %if.end

lpad:                                             ; preds = %call.i.noexc, %entry
  %7 = landingpad { ptr, i32 }
          cleanup
  br label %ehcleanup

lpad3:                                            ; preds = %invoke.cont
  %8 = landingpad { ptr, i32 }
          cleanup
  call void @_ZNSt7__cxx1112basic_stringIcSt11char_traitsIcESaIcEED1Ev(ptr noundef nonnull align 8 dereferenceable(32) %ref.tmp) #20
  br label %ehcleanup

ehcleanup:                                        ; preds = %lpad, %lpad.i, %lpad3
  %.pn = phi { ptr, i32 } [ %8, %lpad3 ], [ %7, %lpad ], [ %0, %lpad.i ]
  call void @_ZNSaIcED1Ev(ptr noundef nonnull align 1 dereferenceable(1) %ref.tmp2) #20
  br label %eh.resume

lpad5.loopexit:                                   ; preds = %if.then.i.i, %if.end.i.i
  %lpad.loopexit = landingpad { ptr, i32 }
          cleanup
  br label %ehcleanup26

lpad5.loopexit.split-lp:                          ; preds = %invoke.cont4
  %lpad.loopexit.split-lp = landingpad { ptr, i32 }
          cleanup
  br label %ehcleanup26

if.else:                                          ; preds = %invoke.cont11
  invoke void @_ZN7testing7MessageC1Ev(ptr noundef nonnull align 8 dereferenceable(8) %ref.tmp13)
          to label %invoke.cont15 unwind label %lpad14

invoke.cont15:                                    ; preds = %if.else
  %9 = load ptr, ptr %message_.i.i, align 8
  %cmp.i.i.not.i.i = icmp eq ptr %9, null
  br i1 %cmp.i.i.not.i.i, label %invoke.cont18, label %cond.true.i.i

cond.true.i.i:                                    ; preds = %invoke.cont15
  %call4.i.i = call noundef ptr @_ZNKSt7__cxx1112basic_stringIcSt11char_traitsIcESaIcEE5c_strEv(ptr noundef nonnull align 8 dereferenceable(32) %9) #20
  br label %invoke.cont18

invoke.cont18:                                    ; preds = %cond.true.i.i, %invoke.cont15
  %cond.i.i = phi ptr [ %call4.i.i, %cond.true.i.i ], [ @.str, %invoke.cont15 ]
  invoke void @_ZN7testing8internal12AssertHelperC1ENS_14TestPartResult4TypeEPKciS5_(ptr noundef nonnull align 8 dereferenceable(8) %ref.tmp16, i32 noundef 1, ptr noundef nonnull @.str.2, i32 noundef 633, ptr noundef %cond.i.i)
          to label %invoke.cont20 unwind label %lpad17

invoke.cont20:                                    ; preds = %invoke.cont18
  invoke void @_ZNK7testing8internal12AssertHelperaSERKNS_7MessageE(ptr noundef nonnull align 8 dereferenceable(8) %ref.tmp16, ptr noundef nonnull align 8 dereferenceable(8) %ref.tmp13)
          to label %invoke.cont22 unwind label %lpad21

invoke.cont22:                                    ; preds = %invoke.cont20
  call void @_ZN7testing8internal12AssertHelperD1Ev(ptr noundef nonnull align 8 dereferenceable(8) %ref.tmp16) #20
  %10 = load ptr, ptr %ref.tmp13, align 8
  %cmp.not.i.i = icmp eq ptr %10, null
  br i1 %cmp.not.i.i, label %_ZN7testing7MessageD2Ev.exit, label %_ZNKSt14default_deleteINSt7__cxx1118basic_stringstreamIcSt11char_traitsIcESaIcEEEEclEPS5_.exit.i.i

_ZNKSt14default_deleteINSt7__cxx1118basic_stringstreamIcSt11char_traitsIcESaIcEEEEclEPS5_.exit.i.i: ; preds = %invoke.cont22
  %vtable.i.i.i = load ptr, ptr %10, align 8
  %vfn.i.i.i = getelementptr inbounds ptr, ptr %vtable.i.i.i, i64 1
  %11 = load ptr, ptr %vfn.i.i.i, align 8
  call void %11(ptr noundef nonnull align 8 dereferenceable(128) %10) #20
  br label %_ZN7testing7MessageD2Ev.exit

_ZN7testing7MessageD2Ev.exit:                     ; preds = %invoke.cont22, %_ZNKSt14default_deleteINSt7__cxx1118basic_stringstreamIcSt11char_traitsIcESaIcEEEEclEPS5_.exit.i.i
  store ptr null, ptr %ref.tmp13, align 8
  br label %if.end

lpad14:                                           ; preds = %if.else
  %12 = landingpad { ptr, i32 }
          cleanup
  br label %ehcleanup25

lpad17:                                           ; preds = %invoke.cont18
  %13 = landingpad { ptr, i32 }
          cleanup
  br label %ehcleanup24

lpad21:                                           ; preds = %invoke.cont20
  %14 = landingpad { ptr, i32 }
          cleanup
  call void @_ZN7testing8internal12AssertHelperD1Ev(ptr noundef nonnull align 8 dereferenceable(8) %ref.tmp16) #20
  br label %ehcleanup24

ehcleanup24:                                      ; preds = %lpad21, %lpad17
  %.pn5 = phi { ptr, i32 } [ %14, %lpad21 ], [ %13, %lpad17 ]
  %15 = load ptr, ptr %ref.tmp13, align 8
  %cmp.not.i.i14 = icmp eq ptr %15, null
  br i1 %cmp.not.i.i14, label %_ZN7testing7MessageD2Ev.exit18, label %_ZNKSt14default_deleteINSt7__cxx1118basic_stringstreamIcSt11char_traitsIcESaIcEEEEclEPS5_.exit.i.i15

_ZNKSt14default_deleteINSt7__cxx1118basic_stringstreamIcSt11char_traitsIcESaIcEEEEclEPS5_.exit.i.i15: ; preds = %ehcleanup24
  %vtable.i.i.i16 = load ptr, ptr %15, align 8
  %vfn.i.i.i17 = getelementptr inbounds ptr, ptr %vtable.i.i.i16, i64 1
  %16 = load ptr, ptr %vfn.i.i.i17, align 8
  call void %16(ptr noundef nonnull align 8 dereferenceable(128) %15) #20
  br label %_ZN7testing7MessageD2Ev.exit18

_ZN7testing7MessageD2Ev.exit18:                   ; preds = %ehcleanup24, %_ZNKSt14default_deleteINSt7__cxx1118basic_stringstreamIcSt11char_traitsIcESaIcEEEEclEPS5_.exit.i.i15
  store ptr null, ptr %ref.tmp13, align 8
  br label %ehcleanup25

if.end:                                           ; preds = %invoke.cont11, %_ZN7testing7MessageD2Ev.exit
  %17 = load ptr, ptr %message_.i.i, align 8
  %cmp.not.i.i19 = icmp eq ptr %17, null
  br i1 %cmp.not.i.i19, label %_ZN7testing15AssertionResultD2Ev.exit, label %_ZNKSt14default_deleteINSt7__cxx1112basic_stringIcSt11char_traitsIcESaIcEEEEclEPS5_.exit.i.i

_ZNKSt14default_deleteINSt7__cxx1112basic_stringIcSt11char_traitsIcESaIcEEEEclEPS5_.exit.i.i: ; preds = %if.end
  call void @_ZNSt7__cxx1112basic_stringIcSt11char_traitsIcESaIcEED1Ev(ptr noundef nonnull align 8 dereferenceable(32) %17) #20
  call void @_ZdlPv(ptr noundef nonnull %17) #21
  br label %_ZN7testing15AssertionResultD2Ev.exit

_ZN7testing15AssertionResultD2Ev.exit:            ; preds = %if.end, %_ZNKSt14default_deleteINSt7__cxx1112basic_stringIcSt11char_traitsIcESaIcEEEEclEPS5_.exit.i.i
  store ptr null, ptr %message_.i.i, align 8
  %__begin1.0.add = add nuw nsw i64 %__begin1.0.idx20, 8
  %__begin1.0.ptr = getelementptr inbounds i8, ptr %kGolden, i64 %__begin1.0.add
  %cmp.not = icmp eq i64 %__begin1.0.add, 1016
  br i1 %cmp.not, label %for.end, label %invoke.cont9

ehcleanup25:                                      ; preds = %_ZN7testing7MessageD2Ev.exit18, %lpad14
  %.pn5.pn = phi { ptr, i32 } [ %.pn5, %_ZN7testing7MessageD2Ev.exit18 ], [ %12, %lpad14 ]
  call void @_ZN7testing15AssertionResultD2Ev(ptr noundef nonnull align 8 dereferenceable(16) %gtest_ar) #20
  br label %ehcleanup26

for.end:                                          ; preds = %_ZN7testing15AssertionResultD2Ev.exit
  call void @_ZNSt7__cxx1119basic_istringstreamIcSt11char_traitsIcESaIcEED1Ev(ptr noundef nonnull align 8 dereferenceable(120) %stream) #20
  ret void

ehcleanup26:                                      ; preds = %lpad5.loopexit, %lpad5.loopexit.split-lp, %ehcleanup25
  %.pn5.pn.pn = phi { ptr, i32 } [ %.pn5.pn, %ehcleanup25 ], [ %lpad.loopexit, %lpad5.loopexit ], [ %lpad.loopexit.split-lp, %lpad5.loopexit.split-lp ]
  call void @_ZNSt7__cxx1119basic_istringstreamIcSt11char_traitsIcESaIcEED1Ev(ptr noundef nonnull align 8 dereferenceable(120) %stream) #20
  br label %eh.resume

eh.resume:                                        ; preds = %ehcleanup26, %ehcleanup
  %.pn5.pn.pn.pn = phi { ptr, i32 } [ %.pn5.pn.pn, %ehcleanup26 ], [ %.pn, %ehcleanup ]
  resume { ptr, i32 } %.pn5.pn.pn.pn
}

; Function Attrs: mustprogress uwtable
define linkonce_odr dso_local noundef nonnull align 8 dereferenceable(16) ptr @_ZN4absl15random_internalrsIcSt11char_traitsIcEEENSt9enable_ifILb1ERSt13basic_istreamIT_T0_EE4typeES9_RNS0_10pcg_engineINS0_12pcg64_paramsILm6364136223846793005ELm1442695040888963407EEENS0_16pcg_xsh_rr_64_32EEE(ptr noundef nonnull align 8 dereferenceable(16) %is, ptr noundef nonnull align 8 dereferenceable(8) %engine) local_unnamed_addr #4 comdat {
entry:
  %mult = alloca i64, align 8
  %inc = alloca i64, align 8
  %tmp = alloca i64, align 8
  store i64 0, ptr %mult, align 8
  store i64 0, ptr %inc, align 8
  store i64 0, ptr %tmp, align 8
  %call = call noundef nonnull align 8 dereferenceable(16) ptr @_ZNSirsERm(ptr noundef nonnull align 8 dereferenceable(16) %is, ptr noundef nonnull align 8 dereferenceable(8) %mult)
  %call1 = call noundef nonnull align 8 dereferenceable(16) ptr @_ZNSirsERm(ptr noundef nonnull align 8 dereferenceable(16) %call, ptr noundef nonnull align 8 dereferenceable(8) %inc)
  %call2 = call noundef nonnull align 8 dereferenceable(16) ptr @_ZNSirsERm(ptr noundef nonnull align 8 dereferenceable(16) %call1, ptr noundef nonnull align 8 dereferenceable(8) %tmp)
  %0 = load i64, ptr %mult, align 8
  %cmp.not = icmp eq i64 %0, 6364136223846793005
  %1 = load i64, ptr %inc, align 8
  %cmp5.not = icmp eq i64 %1, 1442695040888963407
  %or.cond = select i1 %cmp.not, i1 %cmp5.not, i1 false
  br i1 %or.cond, label %if.end, label %if.then

if.then:                                          ; preds = %entry
  %vtable = load ptr, ptr %is, align 8
  %vbase.offset.ptr = getelementptr i8, ptr %vtable, i64 -24
  %vbase.offset = load i64, ptr %vbase.offset.ptr, align 8
  %add.ptr = getelementptr inbounds i8, ptr %is, i64 %vbase.offset
  %call10 = call noundef i32 @_ZNKSt9basic_iosIcSt11char_traitsIcEE7rdstateEv(ptr noundef nonnull align 8 dereferenceable(264) %add.ptr)
  %or.i = or i32 %call10, 4
  call void @_ZNSt9basic_iosIcSt11char_traitsIcEE8setstateESt12_Ios_Iostate(ptr noundef nonnull align 8 dereferenceable(264) %add.ptr, i32 noundef %or.i)
  br label %if.end

if.end:                                           ; preds = %entry, %if.then
  %vtable12 = load ptr, ptr %is, align 8
  %vbase.offset.ptr13 = getelementptr i8, ptr %vtable12, i64 -24
  %vbase.offset14 = load i64, ptr %vbase.offset.ptr13, align 8
  %add.ptr15 = getelementptr inbounds i8, ptr %is, i64 %vbase.offset14
  %call16 = call noundef zeroext i1 @_ZNKSt9basic_iosIcSt11char_traitsIcEE4failEv(ptr noundef nonnull align 8 dereferenceable(264) %add.ptr15)
  br i1 %call16, label %if.end18, label %if.then17

if.then17:                                        ; preds = %if.end
  %2 = load i64, ptr %tmp, align 8
  store i64 %2, ptr %engine, align 8
  br label %if.end18

if.end18:                                         ; preds = %if.then17, %if.end
  ret ptr %is
}

; Function Attrs: mustprogress uwtable
define linkonce_odr dso_local void @_ZN7testing8internal18CmpHelperEQFailureImjEENS_15AssertionResultEPKcS4_RKT_RKT0_(ptr noalias sret(%"class.testing::AssertionResult") align 8 %agg.result, ptr noundef %lhs_expression, ptr noundef %rhs_expression, ptr noundef nonnull align 8 dereferenceable(8) %lhs, ptr noundef nonnull align 4 dereferenceable(4) %rhs) local_unnamed_addr #4 comdat personality ptr @__gxx_personality_v0 {
entry:
  %ss.i.i.i4 = alloca %"class.std::__cxx11::basic_stringstream", align 8
  %ss.i.i.i = alloca %"class.std::__cxx11::basic_stringstream", align 8
  %ref.tmp = alloca %"class.std::__cxx11::basic_string", align 8
  %ref.tmp1 = alloca %"class.std::__cxx11::basic_string", align 8
  call void @llvm.lifetime.start.p0(i64 392, ptr nonnull %ss.i.i.i), !noalias !92
  call void @_ZNSt7__cxx1118basic_stringstreamIcSt11char_traitsIcESaIcEEC1Ev(ptr noundef nonnull align 8 dereferenceable(128) %ss.i.i.i), !noalias !97
  %add.ptr.i.i.i = getelementptr inbounds i8, ptr %ss.i.i.i, i64 16
  %0 = load i64, ptr %lhs, align 8, !noalias !97
  %call.i.i.i.i.i.i1.i.i.i = invoke noundef nonnull align 8 dereferenceable(8) ptr @_ZNSolsEm(ptr noundef nonnull align 8 dereferenceable(8) %add.ptr.i.i.i, i64 noundef %0)
          to label %invoke.cont.i.i.i unwind label %lpad.i.i.i, !noalias !97

invoke.cont.i.i.i:                                ; preds = %entry
  invoke void @_ZNKSt7__cxx1118basic_stringstreamIcSt11char_traitsIcESaIcEE3strEv(ptr nonnull sret(%"class.std::__cxx11::basic_string") align 8 %ref.tmp, ptr noundef nonnull align 8 dereferenceable(128) %ss.i.i.i)
          to label %_ZN7testing8internal33FormatForComparisonFailureMessageImjEENSt7__cxx1112basic_stringIcSt11char_traitsIcESaIcEEERKT_RKT0_.exit unwind label %lpad.i.i.i

common.resume:                                    ; preds = %ehcleanup, %lpad.i.i.i
  %common.resume.op = phi { ptr, i32 } [ %1, %lpad.i.i.i ], [ %.pn, %ehcleanup ]
  resume { ptr, i32 } %common.resume.op

lpad.i.i.i:                                       ; preds = %invoke.cont.i.i.i, %entry
  %1 = landingpad { ptr, i32 }
          cleanup
  call void @_ZNSt7__cxx1118basic_stringstreamIcSt11char_traitsIcESaIcEED1Ev(ptr noundef nonnull align 8 dereferenceable(128) %ss.i.i.i) #20
  br label %common.resume

_ZN7testing8internal33FormatForComparisonFailureMessageImjEENSt7__cxx1112basic_stringIcSt11char_traitsIcESaIcEEERKT_RKT0_.exit: ; preds = %invoke.cont.i.i.i
  call void @_ZNSt7__cxx1118basic_stringstreamIcSt11char_traitsIcESaIcEED1Ev(ptr noundef nonnull align 8 dereferenceable(128) %ss.i.i.i) #20
  call void @llvm.lifetime.end.p0(i64 392, ptr nonnull %ss.i.i.i), !noalias !92
  call void @llvm.lifetime.start.p0(i64 392, ptr nonnull %ss.i.i.i4), !noalias !100
  invoke void @_ZNSt7__cxx1118basic_stringstreamIcSt11char_traitsIcESaIcEEC1Ev(ptr noundef nonnull align 8 dereferenceable(128) %ss.i.i.i4)
          to label %.noexc unwind label %lpad

.noexc:                                           ; preds = %_ZN7testing8internal33FormatForComparisonFailureMessageImjEENSt7__cxx1112basic_stringIcSt11char_traitsIcESaIcEEERKT_RKT0_.exit
  %add.ptr.i.i.i5 = getelementptr inbounds i8, ptr %ss.i.i.i4, i64 16
  %2 = load i32, ptr %rhs, align 4, !noalias !105
  %call.i.i.i.i.i.i1.i.i.i6 = invoke noundef nonnull align 8 dereferenceable(8) ptr @_ZNSolsEj(ptr noundef nonnull align 8 dereferenceable(8) %add.ptr.i.i.i5, i32 noundef %2)
          to label %invoke.cont.i.i.i8 unwind label %lpad.i.i.i7, !noalias !105

invoke.cont.i.i.i8:                               ; preds = %.noexc
  invoke void @_ZNKSt7__cxx1118basic_stringstreamIcSt11char_traitsIcESaIcEE3strEv(ptr nonnull sret(%"class.std::__cxx11::basic_string") align 8 %ref.tmp1, ptr noundef nonnull align 8 dereferenceable(128) %ss.i.i.i4)
          to label %invoke.cont unwind label %lpad.i.i.i7

lpad.i.i.i7:                                      ; preds = %invoke.cont.i.i.i8, %.noexc
  %3 = landingpad { ptr, i32 }
          cleanup
  call void @_ZNSt7__cxx1118basic_stringstreamIcSt11char_traitsIcESaIcEED1Ev(ptr noundef nonnull align 8 dereferenceable(128) %ss.i.i.i4) #20
  br label %ehcleanup

invoke.cont:                                      ; preds = %invoke.cont.i.i.i8
  call void @_ZNSt7__cxx1118basic_stringstreamIcSt11char_traitsIcESaIcEED1Ev(ptr noundef nonnull align 8 dereferenceable(128) %ss.i.i.i4) #20
  call void @llvm.lifetime.end.p0(i64 392, ptr nonnull %ss.i.i.i4), !noalias !100
  invoke void @_ZN7testing8internal9EqFailureEPKcS2_RKNSt7__cxx1112basic_stringIcSt11char_traitsIcESaIcEEESA_b(ptr sret(%"class.testing::AssertionResult") align 8 %agg.result, ptr noundef %lhs_expression, ptr noundef %rhs_expression, ptr noundef nonnull align 8 dereferenceable(32) %ref.tmp, ptr noundef nonnull align 8 dereferenceable(32) %ref.tmp1, i1 noundef zeroext false)
          to label %invoke.cont3 unwind label %lpad2

invoke.cont3:                                     ; preds = %invoke.cont
  call void @_ZNSt7__cxx1112basic_stringIcSt11char_traitsIcESaIcEED1Ev(ptr noundef nonnull align 8 dereferenceable(32) %ref.tmp1) #20
  call void @_ZNSt7__cxx1112basic_stringIcSt11char_traitsIcESaIcEED1Ev(ptr noundef nonnull align 8 dereferenceable(32) %ref.tmp) #20
  ret void

lpad:                                             ; preds = %_ZN7testing8internal33FormatForComparisonFailureMessageImjEENSt7__cxx1112basic_stringIcSt11char_traitsIcESaIcEEERKT_RKT0_.exit
  %4 = landingpad { ptr, i32 }
          cleanup
  br label %ehcleanup

lpad2:                                            ; preds = %invoke.cont
  %5 = landingpad { ptr, i32 }
          cleanup
  call void @_ZNSt7__cxx1112basic_stringIcSt11char_traitsIcESaIcEED1Ev(ptr noundef nonnull align 8 dereferenceable(32) %ref.tmp1) #20
  br label %ehcleanup

ehcleanup:                                        ; preds = %lpad, %lpad.i.i.i7, %lpad2
  %.pn = phi { ptr, i32 } [ %5, %lpad2 ], [ %4, %lpad ], [ %3, %lpad.i.i.i7 ]
  call void @_ZNSt7__cxx1112basic_stringIcSt11char_traitsIcESaIcEED1Ev(ptr noundef nonnull align 8 dereferenceable(32) %ref.tmp) #20
  br label %common.resume
}

declare noundef ptr @_ZNSt7__cxx1112basic_stringIcSt11char_traitsIcESaIcEE13_M_local_dataEv(ptr noundef nonnull align 8 dereferenceable(32)) local_unnamed_addr #0

declare void @_ZNSt7__cxx1112basic_stringIcSt11char_traitsIcESaIcEE12_Alloc_hiderC1EPcRKS3_(ptr noundef nonnull align 8 dereferenceable(8), ptr noundef, ptr noundef nonnull align 1 dereferenceable(1)) unnamed_addr #0

; Function Attrs: noreturn
declare void @_ZSt19__throw_logic_errorPKc(ptr noundef) local_unnamed_addr #10

; Function Attrs: mustprogress uwtable
define linkonce_odr dso_local void @_ZNSt7__cxx1112basic_stringIcSt11char_traitsIcESaIcEE12_M_constructIPKcEEvT_S8_St20forward_iterator_tag(ptr noundef nonnull align 8 dereferenceable(32) %this, ptr noundef %__beg, ptr noundef %__end) local_unnamed_addr #4 comdat align 2 personality ptr @__gxx_personality_v0 {
entry:
  %__dnew = alloca i64, align 8
  %__guard = alloca %struct._Guard, align 8
  %sub.ptr.lhs.cast.i.i = ptrtoint ptr %__end to i64
  %sub.ptr.rhs.cast.i.i = ptrtoint ptr %__beg to i64
  %sub.ptr.sub.i.i = sub i64 %sub.ptr.lhs.cast.i.i, %sub.ptr.rhs.cast.i.i
  store i64 %sub.ptr.sub.i.i, ptr %__dnew, align 8
  %cmp = icmp ugt i64 %sub.ptr.sub.i.i, 15
  br i1 %cmp, label %if.then, label %if.else

if.then:                                          ; preds = %entry
  %call2 = call noundef ptr @_ZNSt7__cxx1112basic_stringIcSt11char_traitsIcESaIcEE9_M_createERmm(ptr noundef nonnull align 8 dereferenceable(32) %this, ptr noundef nonnull align 8 dereferenceable(8) %__dnew, i64 noundef 0)
  call void @_ZNSt7__cxx1112basic_stringIcSt11char_traitsIcESaIcEE7_M_dataEPc(ptr noundef nonnull align 8 dereferenceable(32) %this, ptr noundef %call2)
  %0 = load i64, ptr %__dnew, align 8
  call void @_ZNSt7__cxx1112basic_stringIcSt11char_traitsIcESaIcEE11_M_capacityEm(ptr noundef nonnull align 8 dereferenceable(32) %this, i64 noundef %0)
  br label %if.end

if.else:                                          ; preds = %entry
  %call.i = invoke noundef ptr @_ZNSt7__cxx1112basic_stringIcSt11char_traitsIcESaIcEE13_M_local_dataEv(ptr noundef nonnull align 8 dereferenceable(32) %this)
          to label %if.end unwind label %terminate.lpad.i

terminate.lpad.i:                                 ; preds = %if.else
  %1 = landingpad { ptr, i32 }
          catch ptr null
  %2 = extractvalue { ptr, i32 } %1, 0
  tail call void @__clang_call_terminate(ptr %2) #23
  unreachable

if.end:                                           ; preds = %if.else, %if.then
  store ptr %this, ptr %__guard, align 8
  %call4 = invoke noundef ptr @_ZNKSt7__cxx1112basic_stringIcSt11char_traitsIcESaIcEE7_M_dataEv(ptr noundef nonnull align 8 dereferenceable(32) %this)
          to label %invoke.cont unwind label %lpad

invoke.cont:                                      ; preds = %if.end
  call void @_ZNSt7__cxx1112basic_stringIcSt11char_traitsIcESaIcEE13_S_copy_charsEPcPKcS7_(ptr noundef %call4, ptr noundef %__beg, ptr noundef %__end) #20
  store ptr null, ptr %__guard, align 8
  %3 = load i64, ptr %__dnew, align 8
  invoke void @_ZNSt7__cxx1112basic_stringIcSt11char_traitsIcESaIcEE13_M_set_lengthEm(ptr noundef nonnull align 8 dereferenceable(32) %this, i64 noundef %3)
          to label %_ZZNSt7__cxx1112basic_stringIcSt11char_traitsIcESaIcEE12_M_constructIPKcEEvT_S8_St20forward_iterator_tagEN6_GuardD2Ev.exit unwind label %lpad

_ZZNSt7__cxx1112basic_stringIcSt11char_traitsIcESaIcEE12_M_constructIPKcEEvT_S8_St20forward_iterator_tagEN6_GuardD2Ev.exit: ; preds = %invoke.cont
  ret void

lpad:                                             ; preds = %invoke.cont, %if.end
  %4 = landingpad { ptr, i32 }
          cleanup
  call void @_ZZNSt7__cxx1112basic_stringIcSt11char_traitsIcESaIcEE12_M_constructIPKcEEvT_S8_St20forward_iterator_tagEN6_GuardD2Ev(ptr noundef nonnull align 8 dereferenceable(8) %__guard) #20
  resume { ptr, i32 } %4
}

; Function Attrs: mustprogress nofree nounwind willreturn memory(argmem: read)
declare i64 @strlen(ptr nocapture noundef) local_unnamed_addr #11

declare void @_ZNSt7__cxx1112basic_stringIcSt11char_traitsIcESaIcEE7_M_dataEPc(ptr noundef nonnull align 8 dereferenceable(32), ptr noundef) local_unnamed_addr #0

declare noundef ptr @_ZNSt7__cxx1112basic_stringIcSt11char_traitsIcESaIcEE9_M_createERmm(ptr noundef nonnull align 8 dereferenceable(32), ptr noundef nonnull align 8 dereferenceable(8), i64 noundef) local_unnamed_addr #0

declare void @_ZNSt7__cxx1112basic_stringIcSt11char_traitsIcESaIcEE11_M_capacityEm(ptr noundef nonnull align 8 dereferenceable(32), i64 noundef) local_unnamed_addr #0

; Function Attrs: nounwind
declare void @_ZNSt7__cxx1112basic_stringIcSt11char_traitsIcESaIcEE13_S_copy_charsEPcPKcS7_(ptr noundef, ptr noundef, ptr noundef) local_unnamed_addr #1

declare noundef ptr @_ZNKSt7__cxx1112basic_stringIcSt11char_traitsIcESaIcEE7_M_dataEv(ptr noundef nonnull align 8 dereferenceable(32)) local_unnamed_addr #0

declare void @_ZNSt7__cxx1112basic_stringIcSt11char_traitsIcESaIcEE13_M_set_lengthEm(ptr noundef nonnull align 8 dereferenceable(32), i64 noundef) local_unnamed_addr #0

; Function Attrs: mustprogress nounwind uwtable
define linkonce_odr dso_local void @_ZZNSt7__cxx1112basic_stringIcSt11char_traitsIcESaIcEE12_M_constructIPKcEEvT_S8_St20forward_iterator_tagEN6_GuardD2Ev(ptr noundef nonnull align 8 dereferenceable(8) %this) unnamed_addr #3 comdat align 2 personality ptr @__gxx_personality_v0 {
entry:
  %0 = load ptr, ptr %this, align 8
  %tobool.not = icmp eq ptr %0, null
  br i1 %tobool.not, label %if.end, label %if.then

if.then:                                          ; preds = %entry
  invoke void @_ZNSt7__cxx1112basic_stringIcSt11char_traitsIcESaIcEE10_M_disposeEv(ptr noundef nonnull align 8 dereferenceable(32) %0)
          to label %if.end unwind label %terminate.lpad

if.end:                                           ; preds = %if.then, %entry
  ret void

terminate.lpad:                                   ; preds = %if.then
  %1 = landingpad { ptr, i32 }
          catch ptr null
  %2 = extractvalue { ptr, i32 } %1, 0
  tail call void @__clang_call_terminate(ptr %2) #23
  unreachable
}

declare void @_ZNSt7__cxx1112basic_stringIcSt11char_traitsIcESaIcEE10_M_disposeEv(ptr noundef nonnull align 8 dereferenceable(32)) local_unnamed_addr #0

; Function Attrs: nounwind
declare void @_ZNSaIcED2Ev(ptr noundef nonnull align 1 dereferenceable(1)) unnamed_addr #1

; Function Attrs: mustprogress uwtable
define linkonce_odr dso_local void @_ZN7testing8internal19GetPrefixUntilCommaB5cxx11EPKc(ptr noalias sret(%"class.std::__cxx11::basic_string") align 8 %agg.result, ptr noundef %str) local_unnamed_addr #4 comdat personality ptr @__gxx_personality_v0 {
entry:
  %ref.tmp = alloca %"class.std::allocator", align 1
  %ref.tmp1 = alloca %"class.std::allocator", align 1
  %call = tail call noundef ptr @strchr(ptr noundef nonnull dereferenceable(1) %str, i32 noundef 44) #25
  %cmp.not = icmp eq ptr %call, null
  br i1 %cmp.not, label %cond.true, label %cond.false

cond.true:                                        ; preds = %entry
  call void @_ZNSaIcEC1Ev(ptr noundef nonnull align 1 dereferenceable(1) %ref.tmp) #20
  %call.i5 = invoke noundef ptr @_ZNSt7__cxx1112basic_stringIcSt11char_traitsIcESaIcEE13_M_local_dataEv(ptr noundef nonnull align 8 dereferenceable(32) %agg.result)
          to label %call.i.noexc unwind label %lpad

call.i.noexc:                                     ; preds = %cond.true
  invoke void @_ZNSt7__cxx1112basic_stringIcSt11char_traitsIcESaIcEE12_Alloc_hiderC1EPcRKS3_(ptr noundef nonnull align 8 dereferenceable(8) %agg.result, ptr noundef %call.i5, ptr noundef nonnull align 1 dereferenceable(1) %ref.tmp)
          to label %.noexc unwind label %lpad

.noexc:                                           ; preds = %call.i.noexc
  %cmp.i = icmp eq ptr %str, null
  br i1 %cmp.i, label %if.then.i, label %if.end.i

if.then.i:                                        ; preds = %.noexc
  invoke void @_ZSt19__throw_logic_errorPKc(ptr noundef nonnull @.str.31) #24
          to label %invoke.cont.i unwind label %lpad.i

invoke.cont.i:                                    ; preds = %if.then.i
  unreachable

lpad.i:                                           ; preds = %if.end.i, %if.then.i
  %0 = landingpad { ptr, i32 }
          cleanup
  call void @_ZNSaIcED2Ev(ptr noundef nonnull align 1 dereferenceable(1) %agg.result) #20
  br label %eh.resume

if.end.i:                                         ; preds = %.noexc
  %call.i.i = call noundef i64 @strlen(ptr noundef nonnull dereferenceable(1) %str) #20
  %add.ptr.i = getelementptr inbounds i8, ptr %str, i64 %call.i.i
  invoke void @_ZNSt7__cxx1112basic_stringIcSt11char_traitsIcESaIcEE12_M_constructIPKcEEvT_S8_St20forward_iterator_tag(ptr noundef nonnull align 8 dereferenceable(32) %agg.result, ptr noundef nonnull %str, ptr noundef nonnull %add.ptr.i)
          to label %cleanup.done10 unwind label %lpad.i

cond.false:                                       ; preds = %entry
  call void @_ZNSaIcEC1Ev(ptr noundef nonnull align 1 dereferenceable(1) %ref.tmp1) #20
  %call.i9 = invoke noundef ptr @_ZNSt7__cxx1112basic_stringIcSt11char_traitsIcESaIcEE13_M_local_dataEv(ptr noundef nonnull align 8 dereferenceable(32) %agg.result)
          to label %call.i.noexc8 unwind label %lpad3

call.i.noexc8:                                    ; preds = %cond.false
  invoke void @_ZNSt7__cxx1112basic_stringIcSt11char_traitsIcESaIcEE12_Alloc_hiderC1EPcRKS3_(ptr noundef nonnull align 8 dereferenceable(8) %agg.result, ptr noundef %call.i9, ptr noundef nonnull align 1 dereferenceable(1) %ref.tmp1)
          to label %.noexc10 unwind label %lpad3

.noexc10:                                         ; preds = %call.i.noexc8
  %_M_string_length.i = getelementptr inbounds %"class.std::__cxx11::basic_string", ptr %agg.result, i64 0, i32 1
  store i64 0, ptr %_M_string_length.i, align 8
  invoke void @_ZNSt7__cxx1112basic_stringIcSt11char_traitsIcESaIcEE12_M_constructIPKcEEvT_S8_St20forward_iterator_tag(ptr noundef nonnull align 8 dereferenceable(32) %agg.result, ptr noundef %str, ptr noundef nonnull %call)
          to label %cleanup.done10 unwind label %lpad.i6

lpad.i6:                                          ; preds = %.noexc10
  %1 = landingpad { ptr, i32 }
          cleanup
  call void @_ZNSaIcED2Ev(ptr noundef nonnull align 1 dereferenceable(1) %agg.result) #20
  br label %eh.resume

cleanup.done10:                                   ; preds = %if.end.i, %.noexc10
  %ref.tmp1.sink = phi ptr [ %ref.tmp1, %.noexc10 ], [ %ref.tmp, %if.end.i ]
  call void @_ZNSaIcED1Ev(ptr noundef nonnull align 1 dereferenceable(1) %ref.tmp1.sink) #20
  ret void

lpad:                                             ; preds = %call.i.noexc, %cond.true
  %2 = landingpad { ptr, i32 }
          cleanup
  br label %eh.resume

lpad3:                                            ; preds = %call.i.noexc8, %cond.false
  %3 = landingpad { ptr, i32 }
          cleanup
  br label %eh.resume

eh.resume:                                        ; preds = %lpad.i, %lpad, %lpad.i6, %lpad3
  %ref.tmp1.sink15 = phi ptr [ %ref.tmp1, %lpad3 ], [ %ref.tmp1, %lpad.i6 ], [ %ref.tmp, %lpad ], [ %ref.tmp, %lpad.i ]
  %.pn13 = phi { ptr, i32 } [ %3, %lpad3 ], [ %1, %lpad.i6 ], [ %2, %lpad ], [ %0, %lpad.i ]
  call void @_ZNSaIcED1Ev(ptr noundef nonnull align 1 dereferenceable(1) %ref.tmp1.sink15) #20
  resume { ptr, i32 } %.pn13
}

declare noundef nonnull align 8 dereferenceable(32) ptr @_ZNSt7__cxx1112basic_stringIcSt11char_traitsIcESaIcEE6appendERKS4_(ptr noundef nonnull align 8 dereferenceable(32), ptr noundef nonnull align 8 dereferenceable(32)) local_unnamed_addr #0

; Function Attrs: nounwind
declare void @_ZNSt7__cxx1112basic_stringIcSt11char_traitsIcESaIcEEC1EOS4_(ptr noundef nonnull align 8 dereferenceable(32), ptr noundef nonnull align 8 dereferenceable(32)) unnamed_addr #1

declare noundef nonnull align 8 dereferenceable(32) ptr @_ZNSt7__cxx1112basic_stringIcSt11char_traitsIcESaIcEE6appendEPKc(ptr noundef nonnull align 8 dereferenceable(32), ptr noundef) local_unnamed_addr #0

; Function Attrs: nounwind
declare ptr @_ZNSt7__cxx1112basic_stringIcSt11char_traitsIcESaIcEE3endEv(ptr noundef nonnull align 8 dereferenceable(32)) local_unnamed_addr #1

; Function Attrs: nounwind
declare ptr @_ZNSt7__cxx1112basic_stringIcSt11char_traitsIcESaIcEE5beginEv(ptr noundef nonnull align 8 dereferenceable(32)) local_unnamed_addr #1

declare ptr @_ZNSt7__cxx1112basic_stringIcSt11char_traitsIcESaIcEE5eraseEN9__gnu_cxx17__normal_iteratorIPKcS4_EE(ptr noundef nonnull align 8 dereferenceable(32), ptr) local_unnamed_addr #0

; Function Attrs: mustprogress nofree nounwind willreturn memory(read)
declare i32 @isspace(i32 noundef) local_unnamed_addr #12

; Function Attrs: mustprogress nofree nounwind willreturn memory(argmem: read)
declare noundef ptr @strchr(ptr noundef, i32 noundef) local_unnamed_addr #11

; Function Attrs: mustprogress uwtable
define linkonce_odr dso_local void @_ZN7testing8internal11GetTypeNameB5cxx11ERKSt9type_info(ptr noalias sret(%"class.std::__cxx11::basic_string") align 8 %agg.result, ptr noundef nonnull align 8 dereferenceable(16) %type) local_unnamed_addr #4 comdat personality ptr @__gxx_personality_v0 {
entry:
  %status = alloca i32, align 4
  %name_str = alloca %"class.std::__cxx11::basic_string", align 8
  %ref.tmp = alloca %"class.std::allocator", align 1
  %agg.tmp = alloca %"class.std::__cxx11::basic_string", align 8
  %__name.i = getelementptr inbounds %"class.std::type_info", ptr %type, i64 0, i32 1
  %0 = load ptr, ptr %__name.i, align 8
  %1 = load i8, ptr %0, align 1
  %cmp.i = icmp eq i8 %1, 42
  %cond.idx.i = zext i1 %cmp.i to i64
  %cond.i = getelementptr inbounds i8, ptr %0, i64 %cond.idx.i
  store i32 0, ptr %status, align 4
  %call1 = call ptr @__cxa_demangle(ptr noundef nonnull %cond.i, ptr noundef null, ptr noundef null, ptr noundef nonnull %status)
  %2 = load i32, ptr %status, align 4
  %cmp = icmp eq i32 %2, 0
  %cond = select i1 %cmp, ptr %call1, ptr %cond.i
  call void @_ZNSaIcEC1Ev(ptr noundef nonnull align 1 dereferenceable(1) %ref.tmp) #20
  %call.i6 = invoke noundef ptr @_ZNSt7__cxx1112basic_stringIcSt11char_traitsIcESaIcEE13_M_local_dataEv(ptr noundef nonnull align 8 dereferenceable(32) %name_str)
          to label %call.i.noexc unwind label %lpad

call.i.noexc:                                     ; preds = %entry
  invoke void @_ZNSt7__cxx1112basic_stringIcSt11char_traitsIcESaIcEE12_Alloc_hiderC1EPcRKS3_(ptr noundef nonnull align 8 dereferenceable(8) %name_str, ptr noundef %call.i6, ptr noundef nonnull align 1 dereferenceable(1) %ref.tmp)
          to label %.noexc unwind label %lpad

.noexc:                                           ; preds = %call.i.noexc
  %cmp.i5 = icmp eq ptr %cond, null
  br i1 %cmp.i5, label %if.then.i, label %if.end.i

if.then.i:                                        ; preds = %.noexc
  invoke void @_ZSt19__throw_logic_errorPKc(ptr noundef nonnull @.str.31) #24
          to label %invoke.cont.i unwind label %lpad.i

invoke.cont.i:                                    ; preds = %if.then.i
  unreachable

lpad.i:                                           ; preds = %if.end.i, %if.then.i
  %3 = landingpad { ptr, i32 }
          cleanup
  call void @_ZNSaIcED2Ev(ptr noundef nonnull align 1 dereferenceable(1) %name_str) #20
  br label %lpad.body

if.end.i:                                         ; preds = %.noexc
  %call.i.i = call noundef i64 @strlen(ptr noundef nonnull dereferenceable(1) %cond) #20
  %add.ptr.i = getelementptr inbounds i8, ptr %cond, i64 %call.i.i
  invoke void @_ZNSt7__cxx1112basic_stringIcSt11char_traitsIcESaIcEE12_M_constructIPKcEEvT_S8_St20forward_iterator_tag(ptr noundef nonnull align 8 dereferenceable(32) %name_str, ptr noundef nonnull %cond, ptr noundef nonnull %add.ptr.i)
          to label %invoke.cont unwind label %lpad.i

invoke.cont:                                      ; preds = %if.end.i
  call void @_ZNSaIcED1Ev(ptr noundef nonnull align 1 dereferenceable(1) %ref.tmp) #20
  call void @free(ptr noundef %call1) #20
  invoke void @_ZNSt7__cxx1112basic_stringIcSt11char_traitsIcESaIcEEC1ERKS4_(ptr noundef nonnull align 8 dereferenceable(32) %agg.tmp, ptr noundef nonnull align 8 dereferenceable(32) %name_str)
          to label %invoke.cont3 unwind label %lpad2

invoke.cont3:                                     ; preds = %invoke.cont
  invoke void @_ZN7testing8internal31CanonicalizeForStdLibVersioningENSt7__cxx1112basic_stringIcSt11char_traitsIcESaIcEEE(ptr sret(%"class.std::__cxx11::basic_string") align 8 %agg.result, ptr noundef nonnull %agg.tmp)
          to label %invoke.cont5 unwind label %lpad4

invoke.cont5:                                     ; preds = %invoke.cont3
  call void @_ZNSt7__cxx1112basic_stringIcSt11char_traitsIcESaIcEED1Ev(ptr noundef nonnull align 8 dereferenceable(32) %agg.tmp) #20
  call void @_ZNSt7__cxx1112basic_stringIcSt11char_traitsIcESaIcEED1Ev(ptr noundef nonnull align 8 dereferenceable(32) %name_str) #20
  ret void

lpad:                                             ; preds = %call.i.noexc, %entry
  %4 = landingpad { ptr, i32 }
          cleanup
  br label %lpad.body

lpad.body:                                        ; preds = %lpad.i, %lpad
  %eh.lpad-body = phi { ptr, i32 } [ %4, %lpad ], [ %3, %lpad.i ]
  call void @_ZNSaIcED1Ev(ptr noundef nonnull align 1 dereferenceable(1) %ref.tmp) #20
  br label %eh.resume

lpad2:                                            ; preds = %invoke.cont
  %5 = landingpad { ptr, i32 }
          cleanup
  br label %ehcleanup

lpad4:                                            ; preds = %invoke.cont3
  %6 = landingpad { ptr, i32 }
          cleanup
  call void @_ZNSt7__cxx1112basic_stringIcSt11char_traitsIcESaIcEED1Ev(ptr noundef nonnull align 8 dereferenceable(32) %agg.tmp) #20
  br label %ehcleanup

ehcleanup:                                        ; preds = %lpad4, %lpad2
  %.pn = phi { ptr, i32 } [ %6, %lpad4 ], [ %5, %lpad2 ]
  call void @_ZNSt7__cxx1112basic_stringIcSt11char_traitsIcESaIcEED1Ev(ptr noundef nonnull align 8 dereferenceable(32) %name_str) #20
  br label %eh.resume

eh.resume:                                        ; preds = %ehcleanup, %lpad.body
  %.pn.pn = phi { ptr, i32 } [ %.pn, %ehcleanup ], [ %eh.lpad-body, %lpad.body ]
  resume { ptr, i32 } %.pn.pn
}

declare ptr @__cxa_demangle(ptr noundef, ptr noundef, ptr noundef, ptr noundef) local_unnamed_addr #0

; Function Attrs: mustprogress nounwind willreturn allockind("free") memory(argmem: readwrite, inaccessiblemem: readwrite)
declare void @free(ptr allocptr nocapture noundef) local_unnamed_addr #13

; Function Attrs: mustprogress uwtable
define linkonce_odr dso_local void @_ZN7testing8internal31CanonicalizeForStdLibVersioningENSt7__cxx1112basic_stringIcSt11char_traitsIcESaIcEEE(ptr noalias sret(%"class.std::__cxx11::basic_string") align 8 %agg.result, ptr noundef %s) local_unnamed_addr #4 comdat {
entry:
  %call = tail call noundef i32 @_ZNKSt7__cxx1112basic_stringIcSt11char_traitsIcESaIcEE7compareEmmPKc(ptr noundef nonnull align 8 dereferenceable(32) %s, i64 noundef 0, i64 noundef 7, ptr noundef nonnull @_ZZN7testing8internal31CanonicalizeForStdLibVersioningENSt7__cxx1112basic_stringIcSt11char_traitsIcESaIcEEEE6prefix)
  %cmp = icmp eq i32 %call, 0
  br i1 %cmp, label %if.then, label %if.end5

if.then:                                          ; preds = %entry
  %call1 = tail call noundef i64 @_ZNKSt7__cxx1112basic_stringIcSt11char_traitsIcESaIcEE4findEPKcm(ptr noundef nonnull align 8 dereferenceable(32) %s, ptr noundef nonnull @.str.33, i64 noundef 7) #20
  %cmp2.not = icmp eq i64 %call1, -1
  br i1 %cmp2.not, label %if.end5, label %if.then3

if.then3:                                         ; preds = %if.then
  %sub = add i64 %call1, -3
  %call4 = tail call noundef nonnull align 8 dereferenceable(32) ptr @_ZNSt7__cxx1112basic_stringIcSt11char_traitsIcESaIcEE5eraseEmm(ptr noundef nonnull align 8 dereferenceable(32) %s, i64 noundef 3, i64 noundef %sub)
  br label %if.end5

if.end5:                                          ; preds = %if.then, %if.then3, %entry
  %call65 = tail call noundef i64 @_ZNKSt7__cxx1112basic_stringIcSt11char_traitsIcESaIcEE4findEPKcm(ptr noundef nonnull align 8 dereferenceable(32) %s, ptr noundef nonnull @_ZZN7testing8internal31CanonicalizeForStdLibVersioningENSt7__cxx1112basic_stringIcSt11char_traitsIcESaIcEEEE9to_search, i64 noundef 0) #20
  %cmp76 = icmp eq i64 %call65, -1
  br i1 %cmp76, label %while.end, label %if.end9

if.end9:                                          ; preds = %if.end5, %if.end9
  %call67 = phi i64 [ %call6, %if.end9 ], [ %call65, %if.end5 ]
  %call10 = tail call noundef nonnull align 8 dereferenceable(32) ptr @_ZNSt7__cxx1112basic_stringIcSt11char_traitsIcESaIcEE7replaceEmmPKc(ptr noundef nonnull align 8 dereferenceable(32) %s, i64 noundef %call67, i64 noundef 2, ptr noundef nonnull @_ZZN7testing8internal31CanonicalizeForStdLibVersioningENSt7__cxx1112basic_stringIcSt11char_traitsIcESaIcEEEE11replace_str)
  %add = add nuw i64 %call67, 1
  %call6 = tail call noundef i64 @_ZNKSt7__cxx1112basic_stringIcSt11char_traitsIcESaIcEE4findEPKcm(ptr noundef nonnull align 8 dereferenceable(32) %s, ptr noundef nonnull @_ZZN7testing8internal31CanonicalizeForStdLibVersioningENSt7__cxx1112basic_stringIcSt11char_traitsIcESaIcEEEE9to_search, i64 noundef %add) #20
  %cmp7 = icmp eq i64 %call6, -1
  br i1 %cmp7, label %while.end, label %if.end9, !llvm.loop !108

while.end:                                        ; preds = %if.end9, %if.end5
  tail call void @_ZNSt7__cxx1112basic_stringIcSt11char_traitsIcESaIcEEC1EOS4_(ptr noundef nonnull align 8 dereferenceable(32) %agg.result, ptr noundef nonnull align 8 dereferenceable(32) %s) #20
  ret void
}

declare noundef i32 @_ZNKSt7__cxx1112basic_stringIcSt11char_traitsIcESaIcEE7compareEmmPKc(ptr noundef nonnull align 8 dereferenceable(32), i64 noundef, i64 noundef, ptr noundef) local_unnamed_addr #0

; Function Attrs: nounwind
declare noundef i64 @_ZNKSt7__cxx1112basic_stringIcSt11char_traitsIcESaIcEE4findEPKcm(ptr noundef nonnull align 8 dereferenceable(32), ptr noundef, i64 noundef) local_unnamed_addr #1

declare noundef nonnull align 8 dereferenceable(32) ptr @_ZNSt7__cxx1112basic_stringIcSt11char_traitsIcESaIcEE5eraseEmm(ptr noundef nonnull align 8 dereferenceable(32), i64 noundef, i64 noundef) local_unnamed_addr #0

declare noundef nonnull align 8 dereferenceable(32) ptr @_ZNSt7__cxx1112basic_stringIcSt11char_traitsIcESaIcEE7replaceEmmPKc(ptr noundef nonnull align 8 dereferenceable(32), i64 noundef, i64 noundef, ptr noundef) local_unnamed_addr #0

declare noundef zeroext i1 @_ZN7testing8internal6IsTrueEb(i1 noundef zeroext) local_unnamed_addr #0

declare noundef nonnull align 8 dereferenceable(8) ptr @_ZStlsISt11char_traitsIcEERSt13basic_ostreamIcT_ES5_PKc(ptr noundef nonnull align 8 dereferenceable(8), ptr noundef) local_unnamed_addr #0

declare void @_ZN7testing8internal8GTestLogC1ENS0_16GTestLogSeverityEPKci(ptr noundef nonnull align 4 dereferenceable(4), i32 noundef, ptr noundef, i32 noundef) unnamed_addr #0

declare noundef nonnull align 8 dereferenceable(8) ptr @_ZNSolsEi(ptr noundef nonnull align 8 dereferenceable(8), i32 noundef) local_unnamed_addr #0

; Function Attrs: nounwind
declare void @_ZN7testing8internal8GTestLogD1Ev(ptr noundef nonnull align 4 dereferenceable(4)) unnamed_addr #1

; Function Attrs: mustprogress nofree norecurse nosync nounwind willreturn memory(none) uwtable
define internal void @_ZN7testing8internal15TestFactoryImplIN12_GLOBAL__N_147PCGEngineTest_VerifyReseedChangesAllValues_TestIN4absl15random_internal10pcg_engineINS5_13pcg128_paramsILm2549297995355413924ELm4865540595714422341ELm6364136223846793005ELm1442695040888963407EEENS5_17pcg_xsl_rr_128_64EEEEEED2Ev(ptr nocapture nonnull readnone align 8 %this) unnamed_addr #7 align 2 {
entry:
  ret void
}

; Function Attrs: mustprogress nounwind uwtable
define internal void @_ZN7testing8internal15TestFactoryImplIN12_GLOBAL__N_147PCGEngineTest_VerifyReseedChangesAllValues_TestIN4absl15random_internal10pcg_engineINS5_13pcg128_paramsILm2549297995355413924ELm4865540595714422341ELm6364136223846793005ELm1442695040888963407EEENS5_17pcg_xsl_rr_128_64EEEEEED0Ev(ptr noundef nonnull align 8 dereferenceable(8) %this) unnamed_addr #3 align 2 {
entry:
  tail call void @_ZdlPv(ptr noundef nonnull %this) #21
  ret void
}

; Function Attrs: mustprogress uwtable
define internal noundef nonnull ptr @_ZN7testing8internal15TestFactoryImplIN12_GLOBAL__N_147PCGEngineTest_VerifyReseedChangesAllValues_TestIN4absl15random_internal10pcg_engineINS5_13pcg128_paramsILm2549297995355413924ELm4865540595714422341ELm6364136223846793005ELm1442695040888963407EEENS5_17pcg_xsl_rr_128_64EEEEEE10CreateTestEv(ptr nocapture nonnull readnone align 8 %this) unnamed_addr #4 align 2 personality ptr @__gxx_personality_v0 {
entry:
  %call = tail call noalias noundef nonnull dereferenceable(16) ptr @_Znwm(i64 noundef 16) #22
  invoke void @_ZN7testing4TestC2Ev(ptr noundef nonnull align 8 dereferenceable(16) %call)
          to label %invoke.cont unwind label %lpad

invoke.cont:                                      ; preds = %entry
  store ptr getelementptr inbounds ({ [8 x ptr] }, ptr @_ZTVN12_GLOBAL__N_147PCGEngineTest_VerifyReseedChangesAllValues_TestIN4absl15random_internal10pcg_engineINS2_13pcg128_paramsILm2549297995355413924ELm4865540595714422341ELm6364136223846793005ELm1442695040888963407EEENS2_17pcg_xsl_rr_128_64EEEEE, i64 0, inrange i32 0, i64 2), ptr %call, align 8
  ret ptr %call

lpad:                                             ; preds = %entry
  %0 = landingpad { ptr, i32 }
          cleanup
  tail call void @_ZdlPv(ptr noundef nonnull %call) #21
  resume { ptr, i32 } %0
}

; Function Attrs: mustprogress nounwind uwtable
define internal void @_ZN12_GLOBAL__N_147PCGEngineTest_VerifyReseedChangesAllValues_TestIN4absl15random_internal10pcg_engineINS2_13pcg128_paramsILm2549297995355413924ELm4865540595714422341ELm6364136223846793005ELm1442695040888963407EEENS2_17pcg_xsl_rr_128_64EEEED2Ev(ptr noundef nonnull align 8 dereferenceable(16) %this) unnamed_addr #3 align 2 {
entry:
  tail call void @_ZN7testing4TestD2Ev(ptr noundef nonnull align 8 dereferenceable(16) %this) #20
  ret void
}

; Function Attrs: mustprogress nounwind uwtable
define internal void @_ZN12_GLOBAL__N_147PCGEngineTest_VerifyReseedChangesAllValues_TestIN4absl15random_internal10pcg_engineINS2_13pcg128_paramsILm2549297995355413924ELm4865540595714422341ELm6364136223846793005ELm1442695040888963407EEENS2_17pcg_xsl_rr_128_64EEEED0Ev(ptr noundef nonnull align 8 dereferenceable(16) %this) unnamed_addr #3 align 2 {
entry:
  tail call void @_ZN7testing4TestD2Ev(ptr noundef nonnull align 8 dereferenceable(16) %this) #20
  tail call void @_ZdlPv(ptr noundef nonnull %this) #21
  ret void
}

; Function Attrs: mustprogress uwtable
define internal void @_ZN12_GLOBAL__N_147PCGEngineTest_VerifyReseedChangesAllValues_TestIN4absl15random_internal10pcg_engineINS2_13pcg128_paramsILm2549297995355413924ELm4865540595714422341ELm6364136223846793005ELm1442695040888963407EEENS2_17pcg_xsl_rr_128_64EEEE8TestBodyEv(ptr nocapture nonnull readnone align 8 %this) unnamed_addr #4 align 2 personality ptr @__gxx_personality_v0 {
entry:
  %buffer.i.i35 = alloca [4 x i32], align 16
  %buffer.i.i = alloca [4 x i32], align 16
  %seq1 = alloca %"class.std::seed_seq", align 8
  %ref.tmp = alloca [7 x i32], align 4
  %a = alloca [16 x i64], align 16
  %rd = alloca %"class.std::random_device", align 8
  %seq2 = alloca %"class.std::seed_seq", align 8
  %ref.tmp7 = alloca [3 x i32], align 4
  %b = alloca [16 x i64], align 16
  %changed_bits = alloca i64, align 8
  %equal_count = alloca i64, align 8
  %gtest_ar = alloca %"class.testing::AssertionResult", align 8
  %ref.tmp45 = alloca double, align 8
  %ref.tmp49 = alloca %"class.testing::Message", align 8
  %ref.tmp52 = alloca %"class.testing::internal::AssertHelper", align 8
  %gtest_ar62 = alloca %"class.testing::AssertionResult", align 8
  %ref.tmp63 = alloca double, align 8
  %ref.tmp70 = alloca %"class.testing::Message", align 8
  %ref.tmp73 = alloca %"class.testing::internal::AssertHelper", align 8
  %gtest_ar84 = alloca %"class.testing::AssertionResult", align 8
  %ref.tmp93 = alloca %"class.testing::Message", align 8
  %ref.tmp104 = alloca %"class.testing::internal::AssertHelper", align 8
  %gtest_ar114 = alloca %"class.testing::AssertionResult", align 8
  %ref.tmp115 = alloca double, align 8
  %ref.tmp119 = alloca %"class.testing::Message", align 8
  %ref.tmp122 = alloca %"class.testing::internal::AssertHelper", align 8
  call void @llvm.memcpy.p0.p0.i64(ptr noundef nonnull align 4 dereferenceable(28) %ref.tmp, ptr noundef nonnull align 4 dereferenceable(28) @constinit.58, i64 28, i1 false)
  call void @_ZNSt8seed_seqC2IivEESt16initializer_listIT_E(ptr noundef nonnull align 8 dereferenceable(24) %seq1, ptr nonnull %ref.tmp, i64 7)
  call void @llvm.lifetime.start.p0(i64 16, ptr nonnull %buffer.i.i)
  %add.ptr.i.i.i = getelementptr inbounds i32, ptr %buffer.i.i, i64 4
  invoke void @_ZNSt8seed_seq8generateIPjEEvT_S2_(ptr noundef nonnull align 8 dereferenceable(24) %seq1, ptr noundef nonnull %buffer.i.i, ptr noundef nonnull %add.ptr.i.i.i)
          to label %.noexc unwind label %lpad

.noexc:                                           ; preds = %entry
  %0 = load i32, ptr %buffer.i.i, align 16
  %conv.i.i.i = zext i32 %0 to i64
  br label %for.body.i.i

for.body.i.i:                                     ; preds = %for.body.i.i, %.noexc
  %i.018.i.i = phi i64 [ 1, %.noexc ], [ %inc.i.i, %for.body.i.i ]
  %tmp.sroa.6.017.i.i = phi i64 [ 0, %.noexc ], [ %coerce1.sroa.2.0.extract.trunc.i.i.i.i, %for.body.i.i ]
  %tmp.sroa.0.016.i.i = phi i64 [ %conv.i.i.i, %.noexc ], [ %coerce.sroa.0.0.insert.insert.i1.i.i.i, %for.body.i.i ]
  %coerce.sroa.2.0.insert.ext.i.i.i.i = zext i64 %tmp.sroa.6.017.i.i to i128
  %coerce.sroa.0.0.insert.ext.i.i.i.i = zext i64 %tmp.sroa.0.016.i.i to i128
  %1 = shl i128 %coerce.sroa.2.0.insert.ext.i.i.i.i, 96
  %2 = shl nuw nsw i128 %coerce.sroa.0.0.insert.ext.i.i.i.i, 32
  %shl.i.i.i.i = or disjoint i128 %2, %1
  %coerce1.sroa.0.0.extract.trunc.i.i.i.i = trunc i128 %2 to i64
  %coerce1.sroa.2.0.extract.shift.i.i.i.i = lshr i128 %shl.i.i.i.i, 64
  %coerce1.sroa.2.0.extract.trunc.i.i.i.i = trunc i128 %coerce1.sroa.2.0.extract.shift.i.i.i.i to i64
  %arrayidx4.i.i = getelementptr inbounds [4 x i32], ptr %buffer.i.i, i64 0, i64 %i.018.i.i
  %3 = load i32, ptr %arrayidx4.i.i, align 4
  %conv.i3.i.i = zext i32 %3 to i64
  %coerce.sroa.0.0.insert.insert.i1.i.i.i = or disjoint i64 %coerce1.sroa.0.0.extract.trunc.i.i.i.i, %conv.i3.i.i
  %inc.i.i = add nuw nsw i64 %i.018.i.i, 1
  %exitcond.not.i.i = icmp eq i64 %inc.i.i, 4
  br i1 %exitcond.not.i.i, label %invoke.cont, label %for.body.i.i, !llvm.loop !109

invoke.cont:                                      ; preds = %for.body.i.i
  %coerce.sroa.2.0.insert.shift.i.i.i = and i128 %shl.i.i.i.i, -18446744073709551616
  %coerce.sroa.0.0.insert.ext.i.i.i = zext i64 %coerce.sroa.0.0.insert.insert.i1.i.i.i to i128
  %coerce2.sroa.0.0.insert.insert.i.i.i = add nuw nsw i128 %coerce.sroa.0.0.insert.ext.i.i.i, 1442695040888963407
  %coerce.sroa.0.0.insert.insert.i.i.i = add i128 %coerce2.sroa.0.0.insert.insert.i.i.i, %coerce.sroa.2.0.insert.shift.i.i.i
  %4 = lshr i128 %coerce.sroa.0.0.insert.insert.i.i.i, 64
  %.tr.i.i.i = trunc i128 %4 to i64
  %.narrow.i.i.i = add i64 %.tr.i.i.i, 6364136223846793005
  %coerce.sroa.2.0.insert.ext.i.i8.i.i = zext i64 %.narrow.i.i.i to i128
  %coerce.sroa.2.0.insert.shift.i.i9.i.i = shl nuw i128 %coerce.sroa.2.0.insert.ext.i.i8.i.i, 64
  %coerce.sroa.0.0.insert.ext.i.i10.i.i = and i128 %coerce2.sroa.0.0.insert.insert.i.i.i, 18446744073709551615
  %coerce.sroa.0.0.insert.insert.i.i11.i.i = or disjoint i128 %coerce.sroa.2.0.insert.shift.i.i9.i.i, %coerce.sroa.0.0.insert.ext.i.i10.i.i
  %mul.i.i.i.i = mul i128 %coerce.sroa.0.0.insert.insert.i.i11.i.i, 47026247687942121848144207491837523525
  %coerce.sroa.0.0.insert.insert.i6.i.i.i = add i128 %mul.i.i.i.i, 1442695040888963407
  %coerce3.sroa.0.0.extract.trunc.i7.i.i.i = trunc i128 %coerce.sroa.0.0.insert.insert.i6.i.i.i to i64
  %5 = lshr i128 %coerce.sroa.0.0.insert.insert.i6.i.i.i, 64
  %.tr.i.i.i.i = trunc i128 %5 to i64
  %.narrow.i.i.i.i = add i64 %.tr.i.i.i.i, 6364136223846793005
  call void @llvm.lifetime.end.p0(i64 16, ptr nonnull %buffer.i.i)
  %6 = load ptr, ptr %seq1, align 8
  %tobool.not.i.i.i.i = icmp eq ptr %6, null
  br i1 %tobool.not.i.i.i.i, label %for.body.i.preheader, label %if.then.i.i.i.i

if.then.i.i.i.i:                                  ; preds = %invoke.cont
  call void @_ZdlPv(ptr noundef nonnull %6) #21
  br label %for.body.i.preheader

for.body.i.preheader:                             ; preds = %invoke.cont, %if.then.i.i.i.i
  br label %for.body.i

for.body.i:                                       ; preds = %for.body.i.preheader, %for.body.i
  %engine.sroa.0.0 = phi i64 [ %coerce3.sroa.0.0.extract.trunc.i7.i.i.i.i.i.i, %for.body.i ], [ %coerce3.sroa.0.0.extract.trunc.i7.i.i.i, %for.body.i.preheader ]
  %engine.sroa.7.0 = phi i64 [ %.narrow.i.i.i.i.i.i.i, %for.body.i ], [ %.narrow.i.i.i.i, %for.body.i.preheader ]
  %__first.addr.04.i.idx = phi i64 [ %__first.addr.04.i.add, %for.body.i ], [ 0, %for.body.i.preheader ]
  %__first.addr.04.i.ptr = getelementptr inbounds i8, ptr %a, i64 %__first.addr.04.i.idx
  %coerce.sroa.2.0.insert.ext.i.i.i.i.i.i.i = zext i64 %engine.sroa.7.0 to i128
  %coerce.sroa.2.0.insert.shift.i.i.i.i.i.i.i = shl nuw i128 %coerce.sroa.2.0.insert.ext.i.i.i.i.i.i.i, 64
  %coerce.sroa.0.0.insert.ext.i.i.i.i.i.i.i = zext i64 %engine.sroa.0.0 to i128
  %coerce.sroa.0.0.insert.insert.i.i.i.i.i.i.i = or disjoint i128 %coerce.sroa.2.0.insert.shift.i.i.i.i.i.i.i, %coerce.sroa.0.0.insert.ext.i.i.i.i.i.i.i
  %mul.i.i.i.i.i.i.i = mul i128 %coerce.sroa.0.0.insert.insert.i.i.i.i.i.i.i, 47026247687942121848144207491837523525
  %coerce.sroa.0.0.insert.insert.i6.i.i.i.i.i.i = add i128 %mul.i.i.i.i.i.i.i, 1442695040888963407
  %coerce3.sroa.0.0.extract.trunc.i7.i.i.i.i.i.i = trunc i128 %coerce.sroa.0.0.insert.insert.i6.i.i.i.i.i.i to i64
  %7 = lshr i128 %coerce.sroa.0.0.insert.insert.i6.i.i.i.i.i.i, 64
  %.tr.i.i.i.i.i.i.i = trunc i128 %7 to i64
  %.narrow.i.i.i.i.i.i.i = add i64 %.tr.i.i.i.i.i.i.i, 6364136223846793005
  %shr.i.i.i.i.i.i.i = lshr i64 %.narrow.i.i.i.i.i.i.i, 58
  %xor.i.i12.i.i.i.i.i.i = xor i64 %.narrow.i.i.i.i.i.i.i, %coerce3.sroa.0.0.extract.trunc.i7.i.i.i.i.i.i
  %or.i.i.i.i.i.i.i.i = call noundef i64 @llvm.fshr.i64(i64 %xor.i.i12.i.i.i.i.i.i, i64 %xor.i.i12.i.i.i.i.i.i, i64 %shr.i.i.i.i.i.i.i)
  store i64 %or.i.i.i.i.i.i.i.i, ptr %__first.addr.04.i.ptr, align 8
  %__first.addr.04.i.add = add nuw nsw i64 %__first.addr.04.i.idx, 8
  %cmp.not.i = icmp eq i64 %__first.addr.04.i.add, 128
  br i1 %cmp.not.i, label %_ZSt8generateIPmSt17reference_wrapperIN4absl15random_internal10pcg_engineINS3_13pcg128_paramsILm2549297995355413924ELm4865540595714422341ELm6364136223846793005ELm1442695040888963407EEENS3_17pcg_xsl_rr_128_64EEEEEvT_SA_T0_.exit, label %for.body.i, !llvm.loop !110

_ZSt8generateIPmSt17reference_wrapperIN4absl15random_internal10pcg_engineINS3_13pcg128_paramsILm2549297995355413924ELm4865540595714422341ELm6364136223846793005ELm1442695040888963407EEENS3_17pcg_xsl_rr_128_64EEEEEvT_SA_T0_.exit: ; preds = %for.body.i
  call void @_ZNSt13random_deviceC2Ev(ptr noundef nonnull align 8 dereferenceable(5000) %rd)
  %call.i30 = invoke noundef i32 @_ZNSt13random_device9_M_getvalEv(ptr noundef nonnull align 8 dereferenceable(5000) %rd)
          to label %invoke.cont10 unwind label %lpad9

invoke.cont10:                                    ; preds = %_ZSt8generateIPmSt17reference_wrapperIN4absl15random_internal10pcg_engineINS3_13pcg128_paramsILm2549297995355413924ELm4865540595714422341ELm6364136223846793005ELm1442695040888963407EEENS3_17pcg_xsl_rr_128_64EEEEEvT_SA_T0_.exit
  store i32 %call.i30, ptr %ref.tmp7, align 4
  %call.i31 = invoke noundef i32 @_ZNSt13random_device9_M_getvalEv(ptr noundef nonnull align 8 dereferenceable(5000) %rd)
          to label %invoke.cont12 unwind label %lpad9

invoke.cont12:                                    ; preds = %invoke.cont10
  %arrayinit.element = getelementptr inbounds i32, ptr %ref.tmp7, i64 1
  store i32 %call.i31, ptr %arrayinit.element, align 4
  %call.i33 = invoke noundef i32 @_ZNSt13random_device9_M_getvalEv(ptr noundef nonnull align 8 dereferenceable(5000) %rd)
          to label %invoke.cont15 unwind label %lpad9

invoke.cont15:                                    ; preds = %invoke.cont12
  %arrayinit.element14 = getelementptr inbounds i32, ptr %ref.tmp7, i64 2
  store i32 %call.i33, ptr %arrayinit.element14, align 4
  invoke void @_ZNSt8seed_seqC2IjvEESt16initializer_listIT_E(ptr noundef nonnull align 8 dereferenceable(24) %seq2, ptr nonnull %ref.tmp7, i64 3)
          to label %invoke.cont20 unwind label %lpad9

invoke.cont20:                                    ; preds = %invoke.cont15
  call void @llvm.lifetime.start.p0(i64 16, ptr nonnull %buffer.i.i35)
  %add.ptr.i.i.i36 = getelementptr inbounds i32, ptr %buffer.i.i35, i64 4
  invoke void @_ZNSt8seed_seq8generateIPjEEvT_S2_(ptr noundef nonnull align 8 dereferenceable(24) %seq2, ptr noundef nonnull %buffer.i.i35, ptr noundef nonnull %add.ptr.i.i.i36)
          to label %.noexc69 unwind label %lpad21

.noexc69:                                         ; preds = %invoke.cont20
  %8 = load i32, ptr %buffer.i.i35, align 16
  %conv.i.i.i37 = zext i32 %8 to i64
  br label %for.body.i.i38

for.body.i.i38:                                   ; preds = %for.body.i.i38, %.noexc69
  %i.018.i.i39 = phi i64 [ 1, %.noexc69 ], [ %inc.i.i51, %for.body.i.i38 ]
  %tmp.sroa.6.017.i.i40 = phi i64 [ 0, %.noexc69 ], [ %coerce1.sroa.2.0.extract.trunc.i.i.i.i47, %for.body.i.i38 ]
  %tmp.sroa.0.016.i.i41 = phi i64 [ %conv.i.i.i37, %.noexc69 ], [ %coerce.sroa.0.0.insert.insert.i1.i.i.i50, %for.body.i.i38 ]
  %coerce.sroa.2.0.insert.ext.i.i.i.i42 = zext i64 %tmp.sroa.6.017.i.i40 to i128
  %coerce.sroa.0.0.insert.ext.i.i.i.i43 = zext i64 %tmp.sroa.0.016.i.i41 to i128
  %9 = shl i128 %coerce.sroa.2.0.insert.ext.i.i.i.i42, 96
  %10 = shl nuw nsw i128 %coerce.sroa.0.0.insert.ext.i.i.i.i43, 32
  %shl.i.i.i.i44 = or disjoint i128 %10, %9
  %coerce1.sroa.0.0.extract.trunc.i.i.i.i45 = trunc i128 %10 to i64
  %coerce1.sroa.2.0.extract.shift.i.i.i.i46 = lshr i128 %shl.i.i.i.i44, 64
  %coerce1.sroa.2.0.extract.trunc.i.i.i.i47 = trunc i128 %coerce1.sroa.2.0.extract.shift.i.i.i.i46 to i64
  %arrayidx4.i.i48 = getelementptr inbounds [4 x i32], ptr %buffer.i.i35, i64 0, i64 %i.018.i.i39
  %11 = load i32, ptr %arrayidx4.i.i48, align 4
  %conv.i3.i.i49 = zext i32 %11 to i64
  %coerce.sroa.0.0.insert.insert.i1.i.i.i50 = or disjoint i64 %coerce1.sroa.0.0.extract.trunc.i.i.i.i45, %conv.i3.i.i49
  %inc.i.i51 = add nuw nsw i64 %i.018.i.i39, 1
  %exitcond.not.i.i52 = icmp eq i64 %inc.i.i51, 4
  br i1 %exitcond.not.i.i52, label %invoke.cont22, label %for.body.i.i38, !llvm.loop !109

invoke.cont22:                                    ; preds = %for.body.i.i38
  %coerce.sroa.2.0.insert.shift.i.i.i53 = and i128 %shl.i.i.i.i44, -18446744073709551616
  %coerce.sroa.0.0.insert.ext.i.i.i54 = zext i64 %coerce.sroa.0.0.insert.insert.i1.i.i.i50 to i128
  %coerce2.sroa.0.0.insert.insert.i.i.i55 = add nuw nsw i128 %coerce.sroa.0.0.insert.ext.i.i.i54, 1442695040888963407
  %coerce.sroa.0.0.insert.insert.i.i.i56 = add i128 %coerce2.sroa.0.0.insert.insert.i.i.i55, %coerce.sroa.2.0.insert.shift.i.i.i53
  %12 = lshr i128 %coerce.sroa.0.0.insert.insert.i.i.i56, 64
  %.tr.i.i.i57 = trunc i128 %12 to i64
  %.narrow.i.i.i58 = add i64 %.tr.i.i.i57, 6364136223846793005
  %coerce.sroa.2.0.insert.ext.i.i8.i.i59 = zext i64 %.narrow.i.i.i58 to i128
  %coerce.sroa.2.0.insert.shift.i.i9.i.i60 = shl nuw i128 %coerce.sroa.2.0.insert.ext.i.i8.i.i59, 64
  %coerce.sroa.0.0.insert.ext.i.i10.i.i61 = and i128 %coerce2.sroa.0.0.insert.insert.i.i.i55, 18446744073709551615
  %coerce.sroa.0.0.insert.insert.i.i11.i.i62 = or disjoint i128 %coerce.sroa.2.0.insert.shift.i.i9.i.i60, %coerce.sroa.0.0.insert.ext.i.i10.i.i61
  %mul.i.i.i.i63 = mul i128 %coerce.sroa.0.0.insert.insert.i.i11.i.i62, 47026247687942121848144207491837523525
  %coerce.sroa.0.0.insert.insert.i6.i.i.i64 = add i128 %mul.i.i.i.i63, 1442695040888963407
  %coerce3.sroa.0.0.extract.trunc.i7.i.i.i65 = trunc i128 %coerce.sroa.0.0.insert.insert.i6.i.i.i64 to i64
  %13 = lshr i128 %coerce.sroa.0.0.insert.insert.i6.i.i.i64, 64
  %.tr.i.i.i.i66 = trunc i128 %13 to i64
  %.narrow.i.i.i.i67 = add i64 %.tr.i.i.i.i66, 6364136223846793005
  call void @llvm.lifetime.end.p0(i64 16, ptr nonnull %buffer.i.i35)
  %14 = load ptr, ptr %seq2, align 8
  %tobool.not.i.i.i.i71 = icmp eq ptr %14, null
  br i1 %tobool.not.i.i.i.i71, label %_ZNSt8seed_seqD2Ev.exit73, label %if.then.i.i.i.i72

if.then.i.i.i.i72:                                ; preds = %invoke.cont22
  call void @_ZdlPv(ptr noundef nonnull %14) #21
  br label %_ZNSt8seed_seqD2Ev.exit73

_ZNSt8seed_seqD2Ev.exit73:                        ; preds = %invoke.cont22, %if.then.i.i.i.i72
  invoke void @_ZNSt13random_device7_M_finiEv(ptr noundef nonnull align 8 dereferenceable(5000) %rd)
          to label %for.body.i76 unwind label %terminate.lpad.i

terminate.lpad.i:                                 ; preds = %_ZNSt8seed_seqD2Ev.exit73
  %15 = landingpad { ptr, i32 }
          catch ptr null
  %16 = extractvalue { ptr, i32 } %15, 0
  call void @__clang_call_terminate(ptr %16) #23
  unreachable

for.body.i76:                                     ; preds = %_ZNSt8seed_seqD2Ev.exit73, %for.body.i76
  %engine.sroa.0.1 = phi i64 [ %coerce3.sroa.0.0.extract.trunc.i7.i.i.i.i.i.i86, %for.body.i76 ], [ %coerce3.sroa.0.0.extract.trunc.i7.i.i.i65, %_ZNSt8seed_seqD2Ev.exit73 ]
  %engine.sroa.7.1 = phi i64 [ %.narrow.i.i.i.i.i.i.i88, %for.body.i76 ], [ %.narrow.i.i.i.i67, %_ZNSt8seed_seqD2Ev.exit73 ]
  %__first.addr.04.i77.idx = phi i64 [ %__first.addr.04.i77.add, %for.body.i76 ], [ 0, %_ZNSt8seed_seqD2Ev.exit73 ]
  %__first.addr.04.i77.ptr = getelementptr inbounds i8, ptr %b, i64 %__first.addr.04.i77.idx
  %coerce.sroa.2.0.insert.ext.i.i.i.i.i.i.i80 = zext i64 %engine.sroa.7.1 to i128
  %coerce.sroa.2.0.insert.shift.i.i.i.i.i.i.i81 = shl nuw i128 %coerce.sroa.2.0.insert.ext.i.i.i.i.i.i.i80, 64
  %coerce.sroa.0.0.insert.ext.i.i.i.i.i.i.i82 = zext i64 %engine.sroa.0.1 to i128
  %coerce.sroa.0.0.insert.insert.i.i.i.i.i.i.i83 = or disjoint i128 %coerce.sroa.2.0.insert.shift.i.i.i.i.i.i.i81, %coerce.sroa.0.0.insert.ext.i.i.i.i.i.i.i82
  %mul.i.i.i.i.i.i.i84 = mul i128 %coerce.sroa.0.0.insert.insert.i.i.i.i.i.i.i83, 47026247687942121848144207491837523525
  %coerce.sroa.0.0.insert.insert.i6.i.i.i.i.i.i85 = add i128 %mul.i.i.i.i.i.i.i84, 1442695040888963407
  %coerce3.sroa.0.0.extract.trunc.i7.i.i.i.i.i.i86 = trunc i128 %coerce.sroa.0.0.insert.insert.i6.i.i.i.i.i.i85 to i64
  %17 = lshr i128 %coerce.sroa.0.0.insert.insert.i6.i.i.i.i.i.i85, 64
  %.tr.i.i.i.i.i.i.i87 = trunc i128 %17 to i64
  %.narrow.i.i.i.i.i.i.i88 = add i64 %.tr.i.i.i.i.i.i.i87, 6364136223846793005
  %shr.i.i.i.i.i.i.i89 = lshr i64 %.narrow.i.i.i.i.i.i.i88, 58
  %xor.i.i12.i.i.i.i.i.i90 = xor i64 %.narrow.i.i.i.i.i.i.i88, %coerce3.sroa.0.0.extract.trunc.i7.i.i.i.i.i.i86
  %or.i.i.i.i.i.i.i.i91 = call noundef i64 @llvm.fshr.i64(i64 %xor.i.i12.i.i.i.i.i.i90, i64 %xor.i.i12.i.i.i.i.i.i90, i64 %shr.i.i.i.i.i.i.i89)
  store i64 %or.i.i.i.i.i.i.i.i91, ptr %__first.addr.04.i77.ptr, align 8
  %__first.addr.04.i77.add = add nuw nsw i64 %__first.addr.04.i77.idx, 8
  %cmp.not.i93 = icmp eq i64 %__first.addr.04.i77.add, 128
  br i1 %cmp.not.i93, label %for.body, label %for.body.i76, !llvm.loop !110

for.body:                                         ; preds = %for.body.i76, %for.body
  %i.0196 = phi i64 [ %inc, %for.body ], [ 0, %for.body.i76 ]
  %total_set.0194 = phi i64 [ %add43, %for.body ], [ 0, %for.body.i76 ]
  %unchanged_bits.0193 = phi i64 [ %add37, %for.body ], [ 0, %for.body.i76 ]
  %add189192 = phi i64 [ %add, %for.body ], [ 0, %for.body.i76 ]
  %add34190191 = phi i64 [ %add34, %for.body ], [ 0, %for.body.i76 ]
  %arrayidx = getelementptr inbounds [16 x i64], ptr %a, i64 0, i64 %i.0196
  %18 = load i64, ptr %arrayidx, align 8
  %arrayidx29 = getelementptr inbounds [16 x i64], ptr %b, i64 0, i64 %i.0196
  %19 = load i64, ptr %arrayidx29, align 8
  %cmp30 = icmp eq i64 %18, %19
  %conv = zext i1 %cmp30 to i64
  %add = add i64 %add189192, %conv
  %xor = xor i64 %19, %18
  %20 = call noundef i64 @llvm.ctpop.i64(i64 %xor), !range !111
  %add34 = add i64 %add34190191, %20
  %reass.sub = add i64 %unchanged_bits.0193, 64
  %add37 = sub i64 %reass.sub, %20
  %21 = call noundef i64 @llvm.ctpop.i64(i64 %18), !range !111
  %22 = call noundef i64 @llvm.ctpop.i64(i64 %19), !range !111
  %add42 = add i64 %21, %total_set.0194
  %add43 = add i64 %add42, %22
  %inc = add nuw nsw i64 %i.0196, 1
  %exitcond.not = icmp eq i64 %inc, 16
  br i1 %exitcond.not, label %for.end, label %for.body, !llvm.loop !112

lpad:                                             ; preds = %entry
  %23 = landingpad { ptr, i32 }
          cleanup
  %24 = load ptr, ptr %seq1, align 8
  %tobool.not.i.i.i.i95 = icmp eq ptr %24, null
  br i1 %tobool.not.i.i.i.i95, label %eh.resume, label %if.then.i.i.i.i96

if.then.i.i.i.i96:                                ; preds = %lpad
  call void @_ZdlPv(ptr noundef nonnull %24) #21
  br label %eh.resume

lpad9:                                            ; preds = %invoke.cont12, %invoke.cont10, %_ZSt8generateIPmSt17reference_wrapperIN4absl15random_internal10pcg_engineINS3_13pcg128_paramsILm2549297995355413924ELm4865540595714422341ELm6364136223846793005ELm1442695040888963407EEENS3_17pcg_xsl_rr_128_64EEEEEvT_SA_T0_.exit, %invoke.cont15
  %25 = landingpad { ptr, i32 }
          cleanup
  br label %ehcleanup

lpad21:                                           ; preds = %invoke.cont20
  %26 = landingpad { ptr, i32 }
          cleanup
  %27 = load ptr, ptr %seq2, align 8
  %tobool.not.i.i.i.i98 = icmp eq ptr %27, null
  br i1 %tobool.not.i.i.i.i98, label %ehcleanup, label %if.then.i.i.i.i99

if.then.i.i.i.i99:                                ; preds = %lpad21
  call void @_ZdlPv(ptr noundef nonnull %27) #21
  br label %ehcleanup

ehcleanup:                                        ; preds = %if.then.i.i.i.i99, %lpad21, %lpad9
  %.pn = phi { ptr, i32 } [ %25, %lpad9 ], [ %26, %lpad21 ], [ %26, %if.then.i.i.i.i99 ]
  invoke void @_ZNSt13random_device7_M_finiEv(ptr noundef nonnull align 8 dereferenceable(5000) %rd)
          to label %eh.resume unwind label %terminate.lpad.i101

terminate.lpad.i101:                              ; preds = %ehcleanup
  %28 = landingpad { ptr, i32 }
          catch ptr null
  %29 = extractvalue { ptr, i32 } %28, 0
  call void @__clang_call_terminate(ptr %29) #23
  unreachable

for.end:                                          ; preds = %for.body
  store i64 %add, ptr %equal_count, align 8
  store i64 %add34, ptr %changed_bits, align 8
  %add46 = add i64 %add34190191, %reass.sub
  %conv47 = uitofp i64 %add46 to double
  %mul = fmul double %conv47, 6.000000e-01
  store double %mul, ptr %ref.tmp45, align 8
  %conv.i = uitofp i64 %add34 to double
  %cmp.i = fcmp ult double %mul, %conv.i
  br i1 %cmp.i, label %if.else.i, label %if.then.i

if.then.i:                                        ; preds = %for.end
  call void @_ZN7testing16AssertionSuccessEv(ptr nonnull sret(%"class.testing::AssertionResult") align 8 %gtest_ar)
  br label %_ZN7testing8internal11CmpHelperLEImdEENS_15AssertionResultEPKcS4_RKT_RKT0_.exit

if.else.i:                                        ; preds = %for.end
  call void @_ZN7testing8internal18CmpHelperOpFailureImdEENS_15AssertionResultEPKcS4_RKT_RKT0_S4_(ptr nonnull sret(%"class.testing::AssertionResult") align 8 %gtest_ar, ptr noundef nonnull @.str.39, ptr noundef nonnull @.str.40, ptr noundef nonnull align 8 dereferenceable(8) %changed_bits, ptr noundef nonnull align 8 dereferenceable(8) %ref.tmp45, ptr noundef nonnull @.str.50)
  br label %_ZN7testing8internal11CmpHelperLEImdEENS_15AssertionResultEPKcS4_RKT_RKT0_.exit

_ZN7testing8internal11CmpHelperLEImdEENS_15AssertionResultEPKcS4_RKT_RKT0_.exit: ; preds = %if.then.i, %if.else.i
  %30 = load i8, ptr %gtest_ar, align 8
  %31 = and i8 %30, 1
  %tobool.i.not = icmp eq i8 %31, 0
  br i1 %tobool.i.not, label %if.else, label %if.end

if.else:                                          ; preds = %_ZN7testing8internal11CmpHelperLEImdEENS_15AssertionResultEPKcS4_RKT_RKT0_.exit
  invoke void @_ZN7testing7MessageC1Ev(ptr noundef nonnull align 8 dereferenceable(8) %ref.tmp49)
          to label %invoke.cont51 unwind label %lpad50

invoke.cont51:                                    ; preds = %if.else
  %message_.i.i = getelementptr inbounds %"class.testing::AssertionResult", ptr %gtest_ar, i64 0, i32 1
  %32 = load ptr, ptr %message_.i.i, align 8
  %cmp.i.i.not.i.i = icmp eq ptr %32, null
  br i1 %cmp.i.i.not.i.i, label %invoke.cont54, label %cond.true.i.i

cond.true.i.i:                                    ; preds = %invoke.cont51
  %call4.i.i = call noundef ptr @_ZNKSt7__cxx1112basic_stringIcSt11char_traitsIcESaIcEE5c_strEv(ptr noundef nonnull align 8 dereferenceable(32) %32) #20
  br label %invoke.cont54

invoke.cont54:                                    ; preds = %cond.true.i.i, %invoke.cont51
  %cond.i.i = phi ptr [ %call4.i.i, %cond.true.i.i ], [ @.str, %invoke.cont51 ]
  invoke void @_ZN7testing8internal12AssertHelperC1ENS_14TestPartResult4TypeEPKciS5_(ptr noundef nonnull align 8 dereferenceable(8) %ref.tmp52, i32 noundef 1, ptr noundef nonnull @.str.2, i32 noundef 86, ptr noundef %cond.i.i)
          to label %invoke.cont56 unwind label %lpad53

invoke.cont56:                                    ; preds = %invoke.cont54
  invoke void @_ZNK7testing8internal12AssertHelperaSERKNS_7MessageE(ptr noundef nonnull align 8 dereferenceable(8) %ref.tmp52, ptr noundef nonnull align 8 dereferenceable(8) %ref.tmp49)
          to label %invoke.cont58 unwind label %lpad57

invoke.cont58:                                    ; preds = %invoke.cont56
  call void @_ZN7testing8internal12AssertHelperD1Ev(ptr noundef nonnull align 8 dereferenceable(8) %ref.tmp52) #20
  %33 = load ptr, ptr %ref.tmp49, align 8
  %cmp.not.i.i = icmp eq ptr %33, null
  br i1 %cmp.not.i.i, label %_ZN7testing7MessageD2Ev.exit, label %_ZNKSt14default_deleteINSt7__cxx1118basic_stringstreamIcSt11char_traitsIcESaIcEEEEclEPS5_.exit.i.i

_ZNKSt14default_deleteINSt7__cxx1118basic_stringstreamIcSt11char_traitsIcESaIcEEEEclEPS5_.exit.i.i: ; preds = %invoke.cont58
  %vtable.i.i.i = load ptr, ptr %33, align 8
  %vfn.i.i.i = getelementptr inbounds ptr, ptr %vtable.i.i.i, i64 1
  %34 = load ptr, ptr %vfn.i.i.i, align 8
  call void %34(ptr noundef nonnull align 8 dereferenceable(128) %33) #20
  br label %_ZN7testing7MessageD2Ev.exit

_ZN7testing7MessageD2Ev.exit:                     ; preds = %invoke.cont58, %_ZNKSt14default_deleteINSt7__cxx1118basic_stringstreamIcSt11char_traitsIcESaIcEEEEclEPS5_.exit.i.i
  store ptr null, ptr %ref.tmp49, align 8
  br label %if.end

lpad50:                                           ; preds = %if.else
  %35 = landingpad { ptr, i32 }
          cleanup
  br label %ehcleanup61

lpad53:                                           ; preds = %invoke.cont54
  %36 = landingpad { ptr, i32 }
          cleanup
  br label %ehcleanup60

lpad57:                                           ; preds = %invoke.cont56
  %37 = landingpad { ptr, i32 }
          cleanup
  call void @_ZN7testing8internal12AssertHelperD1Ev(ptr noundef nonnull align 8 dereferenceable(8) %ref.tmp52) #20
  br label %ehcleanup60

ehcleanup60:                                      ; preds = %lpad57, %lpad53
  %.pn16 = phi { ptr, i32 } [ %37, %lpad57 ], [ %36, %lpad53 ]
  %38 = load ptr, ptr %ref.tmp49, align 8
  %cmp.not.i.i103 = icmp eq ptr %38, null
  br i1 %cmp.not.i.i103, label %_ZN7testing7MessageD2Ev.exit107, label %_ZNKSt14default_deleteINSt7__cxx1118basic_stringstreamIcSt11char_traitsIcESaIcEEEEclEPS5_.exit.i.i104

_ZNKSt14default_deleteINSt7__cxx1118basic_stringstreamIcSt11char_traitsIcESaIcEEEEclEPS5_.exit.i.i104: ; preds = %ehcleanup60
  %vtable.i.i.i105 = load ptr, ptr %38, align 8
  %vfn.i.i.i106 = getelementptr inbounds ptr, ptr %vtable.i.i.i105, i64 1
  %39 = load ptr, ptr %vfn.i.i.i106, align 8
  call void %39(ptr noundef nonnull align 8 dereferenceable(128) %38) #20
  br label %_ZN7testing7MessageD2Ev.exit107

_ZN7testing7MessageD2Ev.exit107:                  ; preds = %ehcleanup60, %_ZNKSt14default_deleteINSt7__cxx1118basic_stringstreamIcSt11char_traitsIcESaIcEEEEclEPS5_.exit.i.i104
  store ptr null, ptr %ref.tmp49, align 8
  br label %ehcleanup61

if.end:                                           ; preds = %_ZN7testing8internal11CmpHelperLEImdEENS_15AssertionResultEPKcS4_RKT_RKT0_.exit, %_ZN7testing7MessageD2Ev.exit
  %message_.i = getelementptr inbounds %"class.testing::AssertionResult", ptr %gtest_ar, i64 0, i32 1
  %40 = load ptr, ptr %message_.i, align 8
  %cmp.not.i.i108 = icmp eq ptr %40, null
  br i1 %cmp.not.i.i108, label %_ZN7testing15AssertionResultD2Ev.exit, label %_ZNKSt14default_deleteINSt7__cxx1112basic_stringIcSt11char_traitsIcESaIcEEEEclEPS5_.exit.i.i

_ZNKSt14default_deleteINSt7__cxx1112basic_stringIcSt11char_traitsIcESaIcEEEEclEPS5_.exit.i.i: ; preds = %if.end
  call void @_ZNSt7__cxx1112basic_stringIcSt11char_traitsIcESaIcEED1Ev(ptr noundef nonnull align 8 dereferenceable(32) %40) #20
  call void @_ZdlPv(ptr noundef nonnull %40) #21
  br label %_ZN7testing15AssertionResultD2Ev.exit

_ZN7testing15AssertionResultD2Ev.exit:            ; preds = %if.end, %_ZNKSt14default_deleteINSt7__cxx1112basic_stringIcSt11char_traitsIcESaIcEEEEclEPS5_.exit.i.i
  store ptr null, ptr %message_.i, align 8
  %41 = load i64, ptr %changed_bits, align 8
  %add64 = add i64 %41, %add37
  %conv65 = uitofp i64 %add64 to double
  %mul66 = fmul double %conv65, 4.000000e-01
  store double %mul66, ptr %ref.tmp63, align 8
  %conv.i109 = uitofp i64 %41 to double
  %cmp.i110 = fcmp ugt double %mul66, %conv.i109
  br i1 %cmp.i110, label %if.else.i112, label %if.then.i111

if.then.i111:                                     ; preds = %_ZN7testing15AssertionResultD2Ev.exit
  call void @_ZN7testing16AssertionSuccessEv(ptr nonnull sret(%"class.testing::AssertionResult") align 8 %gtest_ar62)
  br label %_ZN7testing8internal11CmpHelperGEImdEENS_15AssertionResultEPKcS4_RKT_RKT0_.exit

if.else.i112:                                     ; preds = %_ZN7testing15AssertionResultD2Ev.exit
  call void @_ZN7testing8internal18CmpHelperOpFailureImdEENS_15AssertionResultEPKcS4_RKT_RKT0_S4_(ptr nonnull sret(%"class.testing::AssertionResult") align 8 %gtest_ar62, ptr noundef nonnull @.str.39, ptr noundef nonnull @.str.41, ptr noundef nonnull align 8 dereferenceable(8) %changed_bits, ptr noundef nonnull align 8 dereferenceable(8) %ref.tmp63, ptr noundef nonnull @.str.57)
  br label %_ZN7testing8internal11CmpHelperGEImdEENS_15AssertionResultEPKcS4_RKT_RKT0_.exit

_ZN7testing8internal11CmpHelperGEImdEENS_15AssertionResultEPKcS4_RKT_RKT0_.exit: ; preds = %if.then.i111, %if.else.i112
  %42 = load i8, ptr %gtest_ar62, align 8
  %43 = and i8 %42, 1
  %tobool.i113.not = icmp eq i8 %43, 0
  br i1 %tobool.i113.not, label %if.else69, label %if.end82

ehcleanup61:                                      ; preds = %_ZN7testing7MessageD2Ev.exit107, %lpad50
  %.pn16.pn = phi { ptr, i32 } [ %.pn16, %_ZN7testing7MessageD2Ev.exit107 ], [ %35, %lpad50 ]
  call void @_ZN7testing15AssertionResultD2Ev(ptr noundef nonnull align 8 dereferenceable(16) %gtest_ar) #20
  br label %eh.resume

if.else69:                                        ; preds = %_ZN7testing8internal11CmpHelperGEImdEENS_15AssertionResultEPKcS4_RKT_RKT0_.exit
  invoke void @_ZN7testing7MessageC1Ev(ptr noundef nonnull align 8 dereferenceable(8) %ref.tmp70)
          to label %invoke.cont72 unwind label %lpad71

invoke.cont72:                                    ; preds = %if.else69
  %message_.i.i114 = getelementptr inbounds %"class.testing::AssertionResult", ptr %gtest_ar62, i64 0, i32 1
  %44 = load ptr, ptr %message_.i.i114, align 8
  %cmp.i.i.not.i.i115 = icmp eq ptr %44, null
  br i1 %cmp.i.i.not.i.i115, label %invoke.cont75, label %cond.true.i.i116

cond.true.i.i116:                                 ; preds = %invoke.cont72
  %call4.i.i117 = call noundef ptr @_ZNKSt7__cxx1112basic_stringIcSt11char_traitsIcESaIcEE5c_strEv(ptr noundef nonnull align 8 dereferenceable(32) %44) #20
  br label %invoke.cont75

invoke.cont75:                                    ; preds = %cond.true.i.i116, %invoke.cont72
  %cond.i.i118 = phi ptr [ %call4.i.i117, %cond.true.i.i116 ], [ @.str, %invoke.cont72 ]
  invoke void @_ZN7testing8internal12AssertHelperC1ENS_14TestPartResult4TypeEPKciS5_(ptr noundef nonnull align 8 dereferenceable(8) %ref.tmp73, i32 noundef 1, ptr noundef nonnull @.str.2, i32 noundef 87, ptr noundef %cond.i.i118)
          to label %invoke.cont77 unwind label %lpad74

invoke.cont77:                                    ; preds = %invoke.cont75
  invoke void @_ZNK7testing8internal12AssertHelperaSERKNS_7MessageE(ptr noundef nonnull align 8 dereferenceable(8) %ref.tmp73, ptr noundef nonnull align 8 dereferenceable(8) %ref.tmp70)
          to label %invoke.cont79 unwind label %lpad78

invoke.cont79:                                    ; preds = %invoke.cont77
  call void @_ZN7testing8internal12AssertHelperD1Ev(ptr noundef nonnull align 8 dereferenceable(8) %ref.tmp73) #20
  %45 = load ptr, ptr %ref.tmp70, align 8
  %cmp.not.i.i120 = icmp eq ptr %45, null
  br i1 %cmp.not.i.i120, label %_ZN7testing7MessageD2Ev.exit124, label %_ZNKSt14default_deleteINSt7__cxx1118basic_stringstreamIcSt11char_traitsIcESaIcEEEEclEPS5_.exit.i.i121

_ZNKSt14default_deleteINSt7__cxx1118basic_stringstreamIcSt11char_traitsIcESaIcEEEEclEPS5_.exit.i.i121: ; preds = %invoke.cont79
  %vtable.i.i.i122 = load ptr, ptr %45, align 8
  %vfn.i.i.i123 = getelementptr inbounds ptr, ptr %vtable.i.i.i122, i64 1
  %46 = load ptr, ptr %vfn.i.i.i123, align 8
  call void %46(ptr noundef nonnull align 8 dereferenceable(128) %45) #20
  br label %_ZN7testing7MessageD2Ev.exit124

_ZN7testing7MessageD2Ev.exit124:                  ; preds = %invoke.cont79, %_ZNKSt14default_deleteINSt7__cxx1118basic_stringstreamIcSt11char_traitsIcESaIcEEEEclEPS5_.exit.i.i121
  store ptr null, ptr %ref.tmp70, align 8
  br label %if.end82

lpad71:                                           ; preds = %if.else69
  %47 = landingpad { ptr, i32 }
          cleanup
  br label %ehcleanup83

lpad74:                                           ; preds = %invoke.cont75
  %48 = landingpad { ptr, i32 }
          cleanup
  br label %ehcleanup81

lpad78:                                           ; preds = %invoke.cont77
  %49 = landingpad { ptr, i32 }
          cleanup
  call void @_ZN7testing8internal12AssertHelperD1Ev(ptr noundef nonnull align 8 dereferenceable(8) %ref.tmp73) #20
  br label %ehcleanup81

ehcleanup81:                                      ; preds = %lpad78, %lpad74
  %.pn19 = phi { ptr, i32 } [ %49, %lpad78 ], [ %48, %lpad74 ]
  %50 = load ptr, ptr %ref.tmp70, align 8
  %cmp.not.i.i125 = icmp eq ptr %50, null
  br i1 %cmp.not.i.i125, label %_ZN7testing7MessageD2Ev.exit129, label %_ZNKSt14default_deleteINSt7__cxx1118basic_stringstreamIcSt11char_traitsIcESaIcEEEEclEPS5_.exit.i.i126

_ZNKSt14default_deleteINSt7__cxx1118basic_stringstreamIcSt11char_traitsIcESaIcEEEEclEPS5_.exit.i.i126: ; preds = %ehcleanup81
  %vtable.i.i.i127 = load ptr, ptr %50, align 8
  %vfn.i.i.i128 = getelementptr inbounds ptr, ptr %vtable.i.i.i127, i64 1
  %51 = load ptr, ptr %vfn.i.i.i128, align 8
  call void %51(ptr noundef nonnull align 8 dereferenceable(128) %50) #20
  br label %_ZN7testing7MessageD2Ev.exit129

_ZN7testing7MessageD2Ev.exit129:                  ; preds = %ehcleanup81, %_ZNKSt14default_deleteINSt7__cxx1118basic_stringstreamIcSt11char_traitsIcESaIcEEEEclEPS5_.exit.i.i126
  store ptr null, ptr %ref.tmp70, align 8
  br label %ehcleanup83

if.end82:                                         ; preds = %_ZN7testing8internal11CmpHelperGEImdEENS_15AssertionResultEPKcS4_RKT_RKT0_.exit, %_ZN7testing7MessageD2Ev.exit124
  %message_.i130 = getelementptr inbounds %"class.testing::AssertionResult", ptr %gtest_ar62, i64 0, i32 1
  %52 = load ptr, ptr %message_.i130, align 8
  %cmp.not.i.i131 = icmp eq ptr %52, null
  br i1 %cmp.not.i.i131, label %_ZN7testing15AssertionResultD2Ev.exit133, label %_ZNKSt14default_deleteINSt7__cxx1112basic_stringIcSt11char_traitsIcESaIcEEEEclEPS5_.exit.i.i132

_ZNKSt14default_deleteINSt7__cxx1112basic_stringIcSt11char_traitsIcESaIcEEEEclEPS5_.exit.i.i132: ; preds = %if.end82
  call void @_ZNSt7__cxx1112basic_stringIcSt11char_traitsIcESaIcEED1Ev(ptr noundef nonnull align 8 dereferenceable(32) %52) #20
  call void @_ZdlPv(ptr noundef nonnull %52) #21
  br label %_ZN7testing15AssertionResultD2Ev.exit133

_ZN7testing15AssertionResultD2Ev.exit133:         ; preds = %if.end82, %_ZNKSt14default_deleteINSt7__cxx1112basic_stringIcSt11char_traitsIcESaIcEEEEclEPS5_.exit.i.i132
  store ptr null, ptr %message_.i130, align 8
  %conv85 = uitofp i64 %add43 to double
  call void @_ZN7testing8internal20DoubleNearPredFormatEPKcS2_S2_ddd(ptr nonnull sret(%"class.testing::AssertionResult") align 8 %gtest_ar84, ptr noundef nonnull @.str.42, ptr noundef nonnull @.str.43, ptr noundef nonnull @.str.44, double noundef %conv85, double noundef 1.024000e+03, double noundef 0x4066A09E667F3BCD)
  %53 = load i8, ptr %gtest_ar84, align 8
  %54 = and i8 %53, 1
  %tobool.i135.not = icmp eq i8 %54, 0
  br i1 %tobool.i135.not, label %if.else92, label %if.end112

ehcleanup83:                                      ; preds = %_ZN7testing7MessageD2Ev.exit129, %lpad71
  %.pn19.pn = phi { ptr, i32 } [ %.pn19, %_ZN7testing7MessageD2Ev.exit129 ], [ %47, %lpad71 ]
  call void @_ZN7testing15AssertionResultD2Ev(ptr noundef nonnull align 8 dereferenceable(16) %gtest_ar62) #20
  br label %eh.resume

if.else92:                                        ; preds = %_ZN7testing15AssertionResultD2Ev.exit133
  invoke void @_ZN7testing7MessageC1Ev(ptr noundef nonnull align 8 dereferenceable(8) %ref.tmp93)
          to label %invoke.cont95 unwind label %lpad94

invoke.cont95:                                    ; preds = %if.else92
  %55 = load ptr, ptr %ref.tmp93, align 8
  %add.ptr.i136 = getelementptr inbounds i8, ptr %55, i64 16
  %call2.i137 = invoke noundef nonnull align 8 dereferenceable(8) ptr @_ZStlsISt11char_traitsIcEERSt13basic_ostreamIcT_ES5_PKc(ptr noundef nonnull align 8 dereferenceable(8) %add.ptr.i136, ptr noundef nonnull @.str.45)
          to label %invoke.cont97 unwind label %lpad96

invoke.cont97:                                    ; preds = %invoke.cont95
  %div = fmul double %conv85, 0x3F40000000000000
  %56 = load ptr, ptr %ref.tmp93, align 8
  %add.ptr.i138 = getelementptr inbounds i8, ptr %56, i64 16
  %call2.i139 = invoke noundef nonnull align 8 dereferenceable(8) ptr @_ZNSolsEd(ptr noundef nonnull align 8 dereferenceable(8) %add.ptr.i138, double noundef %div)
          to label %invoke.cont102 unwind label %lpad96

invoke.cont102:                                   ; preds = %invoke.cont97
  %message_.i.i140 = getelementptr inbounds %"class.testing::AssertionResult", ptr %gtest_ar84, i64 0, i32 1
  %57 = load ptr, ptr %message_.i.i140, align 8
  %cmp.i.i.not.i.i141 = icmp eq ptr %57, null
  br i1 %cmp.i.i.not.i.i141, label %invoke.cont105, label %cond.true.i.i142

cond.true.i.i142:                                 ; preds = %invoke.cont102
  %call4.i.i143 = call noundef ptr @_ZNKSt7__cxx1112basic_stringIcSt11char_traitsIcESaIcEE5c_strEv(ptr noundef nonnull align 8 dereferenceable(32) %57) #20
  br label %invoke.cont105

invoke.cont105:                                   ; preds = %cond.true.i.i142, %invoke.cont102
  %cond.i.i144 = phi ptr [ %call4.i.i143, %cond.true.i.i142 ], [ @.str, %invoke.cont102 ]
  invoke void @_ZN7testing8internal12AssertHelperC1ENS_14TestPartResult4TypeEPKciS5_(ptr noundef nonnull align 8 dereferenceable(8) %ref.tmp104, i32 noundef 1, ptr noundef nonnull @.str.2, i32 noundef 90, ptr noundef %cond.i.i144)
          to label %invoke.cont107 unwind label %lpad96

invoke.cont107:                                   ; preds = %invoke.cont105
  invoke void @_ZNK7testing8internal12AssertHelperaSERKNS_7MessageE(ptr noundef nonnull align 8 dereferenceable(8) %ref.tmp104, ptr noundef nonnull align 8 dereferenceable(8) %ref.tmp93)
          to label %invoke.cont109 unwind label %lpad108

invoke.cont109:                                   ; preds = %invoke.cont107
  call void @_ZN7testing8internal12AssertHelperD1Ev(ptr noundef nonnull align 8 dereferenceable(8) %ref.tmp104) #20
  %58 = load ptr, ptr %ref.tmp93, align 8
  %cmp.not.i.i146 = icmp eq ptr %58, null
  br i1 %cmp.not.i.i146, label %_ZN7testing7MessageD2Ev.exit150, label %_ZNKSt14default_deleteINSt7__cxx1118basic_stringstreamIcSt11char_traitsIcESaIcEEEEclEPS5_.exit.i.i147

_ZNKSt14default_deleteINSt7__cxx1118basic_stringstreamIcSt11char_traitsIcESaIcEEEEclEPS5_.exit.i.i147: ; preds = %invoke.cont109
  %vtable.i.i.i148 = load ptr, ptr %58, align 8
  %vfn.i.i.i149 = getelementptr inbounds ptr, ptr %vtable.i.i.i148, i64 1
  %59 = load ptr, ptr %vfn.i.i.i149, align 8
  call void %59(ptr noundef nonnull align 8 dereferenceable(128) %58) #20
  br label %_ZN7testing7MessageD2Ev.exit150

_ZN7testing7MessageD2Ev.exit150:                  ; preds = %invoke.cont109, %_ZNKSt14default_deleteINSt7__cxx1118basic_stringstreamIcSt11char_traitsIcESaIcEEEEclEPS5_.exit.i.i147
  store ptr null, ptr %ref.tmp93, align 8
  br label %if.end112

lpad94:                                           ; preds = %if.else92
  %60 = landingpad { ptr, i32 }
          cleanup
  br label %ehcleanup113

lpad96:                                           ; preds = %invoke.cont97, %invoke.cont95, %invoke.cont105
  %61 = landingpad { ptr, i32 }
          cleanup
  br label %ehcleanup111

lpad108:                                          ; preds = %invoke.cont107
  %62 = landingpad { ptr, i32 }
          cleanup
  call void @_ZN7testing8internal12AssertHelperD1Ev(ptr noundef nonnull align 8 dereferenceable(8) %ref.tmp104) #20
  br label %ehcleanup111

ehcleanup111:                                     ; preds = %lpad108, %lpad96
  %.pn22 = phi { ptr, i32 } [ %62, %lpad108 ], [ %61, %lpad96 ]
  %63 = load ptr, ptr %ref.tmp93, align 8
  %cmp.not.i.i151 = icmp eq ptr %63, null
  br i1 %cmp.not.i.i151, label %_ZN7testing7MessageD2Ev.exit155, label %_ZNKSt14default_deleteINSt7__cxx1118basic_stringstreamIcSt11char_traitsIcESaIcEEEEclEPS5_.exit.i.i152

_ZNKSt14default_deleteINSt7__cxx1118basic_stringstreamIcSt11char_traitsIcESaIcEEEEclEPS5_.exit.i.i152: ; preds = %ehcleanup111
  %vtable.i.i.i153 = load ptr, ptr %63, align 8
  %vfn.i.i.i154 = getelementptr inbounds ptr, ptr %vtable.i.i.i153, i64 1
  %64 = load ptr, ptr %vfn.i.i.i154, align 8
  call void %64(ptr noundef nonnull align 8 dereferenceable(128) %63) #20
  br label %_ZN7testing7MessageD2Ev.exit155

_ZN7testing7MessageD2Ev.exit155:                  ; preds = %ehcleanup111, %_ZNKSt14default_deleteINSt7__cxx1118basic_stringstreamIcSt11char_traitsIcESaIcEEEEclEPS5_.exit.i.i152
  store ptr null, ptr %ref.tmp93, align 8
  br label %ehcleanup113

if.end112:                                        ; preds = %_ZN7testing15AssertionResultD2Ev.exit133, %_ZN7testing7MessageD2Ev.exit150
  %message_.i156 = getelementptr inbounds %"class.testing::AssertionResult", ptr %gtest_ar84, i64 0, i32 1
  %65 = load ptr, ptr %message_.i156, align 8
  %cmp.not.i.i157 = icmp eq ptr %65, null
  br i1 %cmp.not.i.i157, label %_ZN7testing15AssertionResultD2Ev.exit159, label %_ZNKSt14default_deleteINSt7__cxx1112basic_stringIcSt11char_traitsIcESaIcEEEEclEPS5_.exit.i.i158

_ZNKSt14default_deleteINSt7__cxx1112basic_stringIcSt11char_traitsIcESaIcEEEEclEPS5_.exit.i.i158: ; preds = %if.end112
  call void @_ZNSt7__cxx1112basic_stringIcSt11char_traitsIcESaIcEED1Ev(ptr noundef nonnull align 8 dereferenceable(32) %65) #20
  call void @_ZdlPv(ptr noundef nonnull %65) #21
  br label %_ZN7testing15AssertionResultD2Ev.exit159

_ZN7testing15AssertionResultD2Ev.exit159:         ; preds = %if.end112, %_ZNKSt14default_deleteINSt7__cxx1112basic_stringIcSt11char_traitsIcESaIcEEEEclEPS5_.exit.i.i158
  store ptr null, ptr %message_.i156, align 8
  store double 1.250000e+00, ptr %ref.tmp115, align 8
  %cmp.i161 = icmp ugt i64 %add, 1
  br i1 %cmp.i161, label %if.else.i163, label %if.then.i162

if.then.i162:                                     ; preds = %_ZN7testing15AssertionResultD2Ev.exit159
  call void @_ZN7testing16AssertionSuccessEv(ptr nonnull sret(%"class.testing::AssertionResult") align 8 %gtest_ar114)
  br label %_ZN7testing8internal11CmpHelperLEImdEENS_15AssertionResultEPKcS4_RKT_RKT0_.exit164

if.else.i163:                                     ; preds = %_ZN7testing15AssertionResultD2Ev.exit159
  call void @_ZN7testing8internal18CmpHelperOpFailureImdEENS_15AssertionResultEPKcS4_RKT_RKT0_S4_(ptr nonnull sret(%"class.testing::AssertionResult") align 8 %gtest_ar114, ptr noundef nonnull @.str.46, ptr noundef nonnull @.str.47, ptr noundef nonnull align 8 dereferenceable(8) %equal_count, ptr noundef nonnull align 8 dereferenceable(8) %ref.tmp115, ptr noundef nonnull @.str.50)
  br label %_ZN7testing8internal11CmpHelperLEImdEENS_15AssertionResultEPKcS4_RKT_RKT0_.exit164

_ZN7testing8internal11CmpHelperLEImdEENS_15AssertionResultEPKcS4_RKT_RKT0_.exit164: ; preds = %if.then.i162, %if.else.i163
  %66 = load i8, ptr %gtest_ar114, align 8
  %67 = and i8 %66, 1
  %tobool.i165.not = icmp eq i8 %67, 0
  br i1 %tobool.i165.not, label %if.else118, label %if.end131

ehcleanup113:                                     ; preds = %_ZN7testing7MessageD2Ev.exit155, %lpad94
  %.pn22.pn = phi { ptr, i32 } [ %.pn22, %_ZN7testing7MessageD2Ev.exit155 ], [ %60, %lpad94 ]
  call void @_ZN7testing15AssertionResultD2Ev(ptr noundef nonnull align 8 dereferenceable(16) %gtest_ar84) #20
  br label %eh.resume

if.else118:                                       ; preds = %_ZN7testing8internal11CmpHelperLEImdEENS_15AssertionResultEPKcS4_RKT_RKT0_.exit164
  invoke void @_ZN7testing7MessageC1Ev(ptr noundef nonnull align 8 dereferenceable(8) %ref.tmp119)
          to label %invoke.cont121 unwind label %lpad120

invoke.cont121:                                   ; preds = %if.else118
  %message_.i.i166 = getelementptr inbounds %"class.testing::AssertionResult", ptr %gtest_ar114, i64 0, i32 1
  %68 = load ptr, ptr %message_.i.i166, align 8
  %cmp.i.i.not.i.i167 = icmp eq ptr %68, null
  br i1 %cmp.i.i.not.i.i167, label %invoke.cont124, label %cond.true.i.i168

cond.true.i.i168:                                 ; preds = %invoke.cont121
  %call4.i.i169 = call noundef ptr @_ZNKSt7__cxx1112basic_stringIcSt11char_traitsIcESaIcEE5c_strEv(ptr noundef nonnull align 8 dereferenceable(32) %68) #20
  br label %invoke.cont124

invoke.cont124:                                   ; preds = %cond.true.i.i168, %invoke.cont121
  %cond.i.i170 = phi ptr [ %call4.i.i169, %cond.true.i.i168 ], [ @.str, %invoke.cont121 ]
  invoke void @_ZN7testing8internal12AssertHelperC1ENS_14TestPartResult4TypeEPKciS5_(ptr noundef nonnull align 8 dereferenceable(8) %ref.tmp122, i32 noundef 1, ptr noundef nonnull @.str.2, i32 noundef 96, ptr noundef %cond.i.i170)
          to label %invoke.cont126 unwind label %lpad123

invoke.cont126:                                   ; preds = %invoke.cont124
  invoke void @_ZNK7testing8internal12AssertHelperaSERKNS_7MessageE(ptr noundef nonnull align 8 dereferenceable(8) %ref.tmp122, ptr noundef nonnull align 8 dereferenceable(8) %ref.tmp119)
          to label %invoke.cont128 unwind label %lpad127

invoke.cont128:                                   ; preds = %invoke.cont126
  call void @_ZN7testing8internal12AssertHelperD1Ev(ptr noundef nonnull align 8 dereferenceable(8) %ref.tmp122) #20
  %69 = load ptr, ptr %ref.tmp119, align 8
  %cmp.not.i.i172 = icmp eq ptr %69, null
  br i1 %cmp.not.i.i172, label %_ZN7testing7MessageD2Ev.exit176, label %_ZNKSt14default_deleteINSt7__cxx1118basic_stringstreamIcSt11char_traitsIcESaIcEEEEclEPS5_.exit.i.i173

_ZNKSt14default_deleteINSt7__cxx1118basic_stringstreamIcSt11char_traitsIcESaIcEEEEclEPS5_.exit.i.i173: ; preds = %invoke.cont128
  %vtable.i.i.i174 = load ptr, ptr %69, align 8
  %vfn.i.i.i175 = getelementptr inbounds ptr, ptr %vtable.i.i.i174, i64 1
  %70 = load ptr, ptr %vfn.i.i.i175, align 8
  call void %70(ptr noundef nonnull align 8 dereferenceable(128) %69) #20
  br label %_ZN7testing7MessageD2Ev.exit176

_ZN7testing7MessageD2Ev.exit176:                  ; preds = %invoke.cont128, %_ZNKSt14default_deleteINSt7__cxx1118basic_stringstreamIcSt11char_traitsIcESaIcEEEEclEPS5_.exit.i.i173
  store ptr null, ptr %ref.tmp119, align 8
  br label %if.end131

lpad120:                                          ; preds = %if.else118
  %71 = landingpad { ptr, i32 }
          cleanup
  br label %ehcleanup132

lpad123:                                          ; preds = %invoke.cont124
  %72 = landingpad { ptr, i32 }
          cleanup
  br label %ehcleanup130

lpad127:                                          ; preds = %invoke.cont126
  %73 = landingpad { ptr, i32 }
          cleanup
  call void @_ZN7testing8internal12AssertHelperD1Ev(ptr noundef nonnull align 8 dereferenceable(8) %ref.tmp122) #20
  br label %ehcleanup130

ehcleanup130:                                     ; preds = %lpad127, %lpad123
  %.pn25 = phi { ptr, i32 } [ %73, %lpad127 ], [ %72, %lpad123 ]
  %74 = load ptr, ptr %ref.tmp119, align 8
  %cmp.not.i.i177 = icmp eq ptr %74, null
  br i1 %cmp.not.i.i177, label %_ZN7testing7MessageD2Ev.exit181, label %_ZNKSt14default_deleteINSt7__cxx1118basic_stringstreamIcSt11char_traitsIcESaIcEEEEclEPS5_.exit.i.i178

_ZNKSt14default_deleteINSt7__cxx1118basic_stringstreamIcSt11char_traitsIcESaIcEEEEclEPS5_.exit.i.i178: ; preds = %ehcleanup130
  %vtable.i.i.i179 = load ptr, ptr %74, align 8
  %vfn.i.i.i180 = getelementptr inbounds ptr, ptr %vtable.i.i.i179, i64 1
  %75 = load ptr, ptr %vfn.i.i.i180, align 8
  call void %75(ptr noundef nonnull align 8 dereferenceable(128) %74) #20
  br label %_ZN7testing7MessageD2Ev.exit181

_ZN7testing7MessageD2Ev.exit181:                  ; preds = %ehcleanup130, %_ZNKSt14default_deleteINSt7__cxx1118basic_stringstreamIcSt11char_traitsIcESaIcEEEEclEPS5_.exit.i.i178
  store ptr null, ptr %ref.tmp119, align 8
  br label %ehcleanup132

if.end131:                                        ; preds = %_ZN7testing8internal11CmpHelperLEImdEENS_15AssertionResultEPKcS4_RKT_RKT0_.exit164, %_ZN7testing7MessageD2Ev.exit176
  %message_.i182 = getelementptr inbounds %"class.testing::AssertionResult", ptr %gtest_ar114, i64 0, i32 1
  %76 = load ptr, ptr %message_.i182, align 8
  %cmp.not.i.i183 = icmp eq ptr %76, null
  br i1 %cmp.not.i.i183, label %_ZN7testing15AssertionResultD2Ev.exit185, label %_ZNKSt14default_deleteINSt7__cxx1112basic_stringIcSt11char_traitsIcESaIcEEEEclEPS5_.exit.i.i184

_ZNKSt14default_deleteINSt7__cxx1112basic_stringIcSt11char_traitsIcESaIcEEEEclEPS5_.exit.i.i184: ; preds = %if.end131
  call void @_ZNSt7__cxx1112basic_stringIcSt11char_traitsIcESaIcEED1Ev(ptr noundef nonnull align 8 dereferenceable(32) %76) #20
  call void @_ZdlPv(ptr noundef nonnull %76) #21
  br label %_ZN7testing15AssertionResultD2Ev.exit185

_ZN7testing15AssertionResultD2Ev.exit185:         ; preds = %if.end131, %_ZNKSt14default_deleteINSt7__cxx1112basic_stringIcSt11char_traitsIcESaIcEEEEclEPS5_.exit.i.i184
  ret void

ehcleanup132:                                     ; preds = %_ZN7testing7MessageD2Ev.exit181, %lpad120
  %.pn25.pn = phi { ptr, i32 } [ %.pn25, %_ZN7testing7MessageD2Ev.exit181 ], [ %71, %lpad120 ]
  call void @_ZN7testing15AssertionResultD2Ev(ptr noundef nonnull align 8 dereferenceable(16) %gtest_ar114) #20
  br label %eh.resume

eh.resume:                                        ; preds = %ehcleanup, %if.then.i.i.i.i96, %lpad, %ehcleanup132, %ehcleanup113, %ehcleanup83, %ehcleanup61
  %.pn25.pn.pn = phi { ptr, i32 } [ %.pn25.pn, %ehcleanup132 ], [ %.pn22.pn, %ehcleanup113 ], [ %.pn19.pn, %ehcleanup83 ], [ %.pn16.pn, %ehcleanup61 ], [ %23, %lpad ], [ %23, %if.then.i.i.i.i96 ], [ %.pn, %ehcleanup ]
  resume { ptr, i32 } %.pn25.pn.pn
}

; Function Attrs: mustprogress uwtable
define linkonce_odr dso_local void @_ZNSt8seed_seqC2IivEESt16initializer_listIT_E(ptr noundef nonnull align 8 dereferenceable(24) %this, ptr %__il.coerce0, i64 %__il.coerce1) unnamed_addr #4 comdat align 2 personality ptr @__gxx_personality_v0 {
entry:
  tail call void @llvm.memset.p0.i64(ptr noundef nonnull align 8 dereferenceable(24) %this, i8 0, i64 24, i1 false)
  %cmp.i = icmp ugt i64 %__il.coerce1, 2305843009213693951
  br i1 %cmp.i, label %if.then.i.invoke, label %if.end.i

if.then.i.invoke:                                 ; preds = %if.else.i.i, %entry
  %0 = phi ptr [ @.str.48, %entry ], [ @.str.28, %if.else.i.i ]
  invoke void @_ZSt20__throw_length_errorPKc(ptr noundef nonnull %0) #24
          to label %if.then.i.cont unwind label %lpad.loopexit.split-lp

if.then.i.cont:                                   ; preds = %if.then.i.invoke
  unreachable

if.end.i:                                         ; preds = %entry
  %_M_end_of_storage.i.i = getelementptr inbounds %"struct.std::_Vector_base<unsigned int, std::allocator<unsigned int>>::_Vector_impl_data", ptr %this, i64 0, i32 2
  %cmp3.i.not = icmp eq i64 %__il.coerce1, 0
  br i1 %cmp3.i.not, label %for.end, label %_ZNSt12_Vector_baseIjSaIjEE11_M_allocateEm.exit.i

_ZNSt12_Vector_baseIjSaIjEE11_M_allocateEm.exit.i: ; preds = %if.end.i
  %mul.i.i.i.i = shl nuw nsw i64 %__il.coerce1, 2
  %call5.i.i.i.i3 = invoke noalias noundef nonnull ptr @_Znwm(i64 noundef %mul.i.i.i.i) #22
          to label %invoke.cont6.lr.ph unwind label %lpad.loopexit.split-lp

invoke.cont6.lr.ph:                               ; preds = %_ZNSt12_Vector_baseIjSaIjEE11_M_allocateEm.exit.i
  %_M_finish.i.i = getelementptr inbounds %"struct.std::_Vector_base<unsigned int, std::allocator<unsigned int>>::_Vector_impl_data", ptr %this, i64 0, i32 1
  store ptr %call5.i.i.i.i3, ptr %this, align 8
  store ptr %call5.i.i.i.i3, ptr %_M_finish.i.i, align 8
  %add.ptr21.i = getelementptr inbounds i32, ptr %call5.i.i.i.i3, i64 %__il.coerce1
  store ptr %add.ptr21.i, ptr %_M_end_of_storage.i.i, align 8
  %add.ptr.i4 = getelementptr inbounds i32, ptr %__il.coerce0, i64 %__il.coerce1
  %_M_finish.i.i5 = getelementptr inbounds %"struct.std::_Vector_base<unsigned int, std::allocator<unsigned int>>::_Vector_impl_data", ptr %this, i64 0, i32 1
  br label %invoke.cont6

invoke.cont6:                                     ; preds = %invoke.cont6.lr.ph, %for.inc
  %1 = phi ptr [ %call5.i.i.i.i3, %invoke.cont6.lr.ph ], [ %7, %for.inc ]
  %__iter.016 = phi ptr [ %__il.coerce0, %invoke.cont6.lr.ph ], [ %incdec.ptr, %for.inc ]
  %2 = load i32, ptr %__iter.016, align 4
  %3 = load ptr, ptr %_M_end_of_storage.i.i, align 8
  %cmp.not.i.i = icmp eq ptr %1, %3
  br i1 %cmp.not.i.i, label %if.else.i.i, label %if.then.i.i7

if.then.i.i7:                                     ; preds = %invoke.cont6
  store i32 %2, ptr %1, align 4
  %4 = load ptr, ptr %_M_finish.i.i5, align 8
  %incdec.ptr.i.i = getelementptr inbounds i32, ptr %4, i64 1
  store ptr %incdec.ptr.i.i, ptr %_M_finish.i.i5, align 8
  br label %for.inc

if.else.i.i:                                      ; preds = %invoke.cont6
  %5 = load ptr, ptr %this, align 8
  %sub.ptr.lhs.cast.i.i.i.i.i = ptrtoint ptr %1 to i64
  %sub.ptr.rhs.cast.i.i.i.i.i = ptrtoint ptr %5 to i64
  %sub.ptr.sub.i.i.i.i.i = sub i64 %sub.ptr.lhs.cast.i.i.i.i.i, %sub.ptr.rhs.cast.i.i.i.i.i
  %cmp.i.i.i.i = icmp eq i64 %sub.ptr.sub.i.i.i.i.i, 9223372036854775804
  br i1 %cmp.i.i.i.i, label %if.then.i.invoke, label %_ZNKSt6vectorIjSaIjEE12_M_check_lenEmPKc.exit.i.i.i

_ZNKSt6vectorIjSaIjEE12_M_check_lenEmPKc.exit.i.i.i: ; preds = %if.else.i.i
  %sub.ptr.div.i.i.i.i.i = ashr exact i64 %sub.ptr.sub.i.i.i.i.i, 2
  %.sroa.speculated.i.i.i.i = tail call i64 @llvm.umax.i64(i64 %sub.ptr.div.i.i.i.i.i, i64 1)
  %add.i.i.i.i = add nsw i64 %.sroa.speculated.i.i.i.i, %sub.ptr.div.i.i.i.i.i
  %cmp7.i.i.i.i = icmp ult i64 %add.i.i.i.i, %sub.ptr.div.i.i.i.i.i
  %6 = tail call i64 @llvm.umin.i64(i64 %add.i.i.i.i, i64 2305843009213693951)
  %cond.i.i.i.i = select i1 %cmp7.i.i.i.i, i64 2305843009213693951, i64 %6
  %cmp.not.i.i.i.i = icmp eq i64 %cond.i.i.i.i, 0
  br i1 %cmp.not.i.i.i.i, label %_ZNSt12_Vector_baseIjSaIjEE11_M_allocateEm.exit.i.i.i, label %cond.true.i.i.i.i

cond.true.i.i.i.i:                                ; preds = %_ZNKSt6vectorIjSaIjEE12_M_check_lenEmPKc.exit.i.i.i
  %mul.i.i.i.i.i.i = shl nuw nsw i64 %cond.i.i.i.i, 2
  %call5.i.i.i.i.i.i9 = invoke noalias noundef nonnull ptr @_Znwm(i64 noundef %mul.i.i.i.i.i.i) #22
          to label %_ZNSt12_Vector_baseIjSaIjEE11_M_allocateEm.exit.i.i.i unwind label %lpad.loopexit

_ZNSt12_Vector_baseIjSaIjEE11_M_allocateEm.exit.i.i.i: ; preds = %cond.true.i.i.i.i, %_ZNKSt6vectorIjSaIjEE12_M_check_lenEmPKc.exit.i.i.i
  %cond.i10.i.i.i = phi ptr [ null, %_ZNKSt6vectorIjSaIjEE12_M_check_lenEmPKc.exit.i.i.i ], [ %call5.i.i.i.i.i.i9, %cond.true.i.i.i.i ]
  %add.ptr.i.i.i = getelementptr inbounds i32, ptr %cond.i10.i.i.i, i64 %sub.ptr.div.i.i.i.i.i
  store i32 %2, ptr %add.ptr.i.i.i, align 4
  %cmp.i.i.i.i.i.i = icmp sgt i64 %sub.ptr.sub.i.i.i.i.i, 0
  br i1 %cmp.i.i.i.i.i.i, label %if.then.i.i.i.i.i.i, label %_ZNSt6vectorIjSaIjEE11_S_relocateEPjS2_S2_RS0_.exit17.i.i.i

if.then.i.i.i.i.i.i:                              ; preds = %_ZNSt12_Vector_baseIjSaIjEE11_M_allocateEm.exit.i.i.i
  tail call void @llvm.memmove.p0.p0.i64(ptr nonnull align 4 %cond.i10.i.i.i, ptr align 4 %5, i64 %sub.ptr.sub.i.i.i.i.i, i1 false)
  br label %_ZNSt6vectorIjSaIjEE11_S_relocateEPjS2_S2_RS0_.exit17.i.i.i

_ZNSt6vectorIjSaIjEE11_S_relocateEPjS2_S2_RS0_.exit17.i.i.i: ; preds = %if.then.i.i.i.i.i.i, %_ZNSt12_Vector_baseIjSaIjEE11_M_allocateEm.exit.i.i.i
  %add.ptr.i.i.i.i.i.i = getelementptr inbounds i8, ptr %cond.i10.i.i.i, i64 %sub.ptr.sub.i.i.i.i.i
  %incdec.ptr.i.i.i = getelementptr inbounds i32, ptr %add.ptr.i.i.i.i.i.i, i64 1
  %tobool.not.i.i.i.i = icmp eq ptr %5, null
  br i1 %tobool.not.i.i.i.i, label %_ZNSt6vectorIjSaIjEE17_M_realloc_insertIJjEEEvN9__gnu_cxx17__normal_iteratorIPjS1_EEDpOT_.exit.i.i, label %if.then.i18.i.i.i

if.then.i18.i.i.i:                                ; preds = %_ZNSt6vectorIjSaIjEE11_S_relocateEPjS2_S2_RS0_.exit17.i.i.i
  tail call void @_ZdlPv(ptr noundef nonnull %5) #21
  br label %_ZNSt6vectorIjSaIjEE17_M_realloc_insertIJjEEEvN9__gnu_cxx17__normal_iteratorIPjS1_EEDpOT_.exit.i.i

_ZNSt6vectorIjSaIjEE17_M_realloc_insertIJjEEEvN9__gnu_cxx17__normal_iteratorIPjS1_EEDpOT_.exit.i.i: ; preds = %if.then.i18.i.i.i, %_ZNSt6vectorIjSaIjEE11_S_relocateEPjS2_S2_RS0_.exit17.i.i.i
  store ptr %cond.i10.i.i.i, ptr %this, align 8
  store ptr %incdec.ptr.i.i.i, ptr %_M_finish.i.i5, align 8
  %add.ptr19.i.i.i = getelementptr inbounds i32, ptr %cond.i10.i.i.i, i64 %cond.i.i.i.i
  store ptr %add.ptr19.i.i.i, ptr %_M_end_of_storage.i.i, align 8
  br label %for.inc

for.inc:                                          ; preds = %_ZNSt6vectorIjSaIjEE17_M_realloc_insertIJjEEEvN9__gnu_cxx17__normal_iteratorIPjS1_EEDpOT_.exit.i.i, %if.then.i.i7
  %7 = phi ptr [ %incdec.ptr.i.i.i, %_ZNSt6vectorIjSaIjEE17_M_realloc_insertIJjEEEvN9__gnu_cxx17__normal_iteratorIPjS1_EEDpOT_.exit.i.i ], [ %incdec.ptr.i.i, %if.then.i.i7 ]
  %incdec.ptr = getelementptr inbounds i32, ptr %__iter.016, i64 1
  %cmp.not = icmp eq ptr %incdec.ptr, %add.ptr.i4
  br i1 %cmp.not, label %for.end, label %invoke.cont6, !llvm.loop !113

lpad.loopexit:                                    ; preds = %cond.true.i.i.i.i
  %lpad.loopexit13 = landingpad { ptr, i32 }
          cleanup
  br label %lpad

lpad.loopexit.split-lp:                           ; preds = %if.then.i.invoke, %_ZNSt12_Vector_baseIjSaIjEE11_M_allocateEm.exit.i
  %lpad.loopexit.split-lp14 = landingpad { ptr, i32 }
          cleanup
  %.pre = load ptr, ptr %this, align 8
  br label %lpad

lpad:                                             ; preds = %lpad.loopexit.split-lp, %lpad.loopexit
  %8 = phi ptr [ %5, %lpad.loopexit ], [ %.pre, %lpad.loopexit.split-lp ]
  %lpad.phi = phi { ptr, i32 } [ %lpad.loopexit13, %lpad.loopexit ], [ %lpad.loopexit.split-lp14, %lpad.loopexit.split-lp ]
  %tobool.not.i.i.i = icmp eq ptr %8, null
  br i1 %tobool.not.i.i.i, label %_ZNSt6vectorIjSaIjEED2Ev.exit, label %if.then.i.i.i

if.then.i.i.i:                                    ; preds = %lpad
  tail call void @_ZdlPv(ptr noundef nonnull %8) #21
  br label %_ZNSt6vectorIjSaIjEED2Ev.exit

_ZNSt6vectorIjSaIjEED2Ev.exit:                    ; preds = %lpad, %if.then.i.i.i
  resume { ptr, i32 } %lpad.phi

for.end:                                          ; preds = %for.inc, %if.end.i
  ret void
}

; Function Attrs: mustprogress uwtable
define linkonce_odr dso_local void @_ZNSt13random_deviceC2Ev(ptr noundef nonnull align 8 dereferenceable(5000) %this) unnamed_addr #4 comdat align 2 personality ptr @__gxx_personality_v0 {
entry:
  %ref.tmp = alloca %"class.std::__cxx11::basic_string", align 8
  %ref.tmp2 = alloca %"class.std::allocator", align 1
  call void @_ZNSaIcEC1Ev(ptr noundef nonnull align 1 dereferenceable(1) %ref.tmp2) #20
  %call.i2 = invoke noundef ptr @_ZNSt7__cxx1112basic_stringIcSt11char_traitsIcESaIcEE13_M_local_dataEv(ptr noundef nonnull align 8 dereferenceable(32) %ref.tmp)
          to label %call.i.noexc unwind label %lpad

call.i.noexc:                                     ; preds = %entry
  invoke void @_ZNSt7__cxx1112basic_stringIcSt11char_traitsIcESaIcEE12_Alloc_hiderC1EPcRKS3_(ptr noundef nonnull align 8 dereferenceable(8) %ref.tmp, ptr noundef %call.i2, ptr noundef nonnull align 1 dereferenceable(1) %ref.tmp2)
          to label %.noexc unwind label %lpad

.noexc:                                           ; preds = %call.i.noexc
  invoke void @_ZNSt7__cxx1112basic_stringIcSt11char_traitsIcESaIcEE12_M_constructIPKcEEvT_S8_St20forward_iterator_tag(ptr noundef nonnull align 8 dereferenceable(32) %ref.tmp, ptr noundef nonnull @.str.49, ptr noundef nonnull getelementptr inbounds ([8 x i8], ptr @.str.49, i64 0, i64 7))
          to label %invoke.cont unwind label %lpad.i

lpad.i:                                           ; preds = %.noexc
  %0 = landingpad { ptr, i32 }
          cleanup
  call void @_ZNSaIcED2Ev(ptr noundef nonnull align 1 dereferenceable(1) %ref.tmp) #20
  br label %ehcleanup

invoke.cont:                                      ; preds = %.noexc
  invoke void @_ZNSt13random_device7_M_initERKNSt7__cxx1112basic_stringIcSt11char_traitsIcESaIcEEE(ptr noundef nonnull align 8 dereferenceable(5000) %this, ptr noundef nonnull align 8 dereferenceable(32) %ref.tmp)
          to label %invoke.cont4 unwind label %lpad3

invoke.cont4:                                     ; preds = %invoke.cont
  call void @_ZNSt7__cxx1112basic_stringIcSt11char_traitsIcESaIcEED1Ev(ptr noundef nonnull align 8 dereferenceable(32) %ref.tmp) #20
  call void @_ZNSaIcED1Ev(ptr noundef nonnull align 1 dereferenceable(1) %ref.tmp2) #20
  ret void

lpad:                                             ; preds = %call.i.noexc, %entry
  %1 = landingpad { ptr, i32 }
          cleanup
  br label %ehcleanup

lpad3:                                            ; preds = %invoke.cont
  %2 = landingpad { ptr, i32 }
          cleanup
  call void @_ZNSt7__cxx1112basic_stringIcSt11char_traitsIcESaIcEED1Ev(ptr noundef nonnull align 8 dereferenceable(32) %ref.tmp) #20
  br label %ehcleanup

ehcleanup:                                        ; preds = %lpad, %lpad.i, %lpad3
  %.pn = phi { ptr, i32 } [ %2, %lpad3 ], [ %1, %lpad ], [ %0, %lpad.i ]
  call void @_ZNSaIcED1Ev(ptr noundef nonnull align 1 dereferenceable(1) %ref.tmp2) #20
  resume { ptr, i32 } %.pn
}

; Function Attrs: mustprogress uwtable
define linkonce_odr dso_local void @_ZNSt8seed_seqC2IjvEESt16initializer_listIT_E(ptr noundef nonnull align 8 dereferenceable(24) %this, ptr %__il.coerce0, i64 %__il.coerce1) unnamed_addr #4 comdat align 2 personality ptr @__gxx_personality_v0 {
entry:
  tail call void @llvm.memset.p0.i64(ptr noundef nonnull align 8 dereferenceable(24) %this, i8 0, i64 24, i1 false)
  %cmp.i = icmp ugt i64 %__il.coerce1, 2305843009213693951
  br i1 %cmp.i, label %if.then.i.invoke, label %if.end.i

if.then.i.invoke:                                 ; preds = %if.else.i.i, %entry
  %0 = phi ptr [ @.str.48, %entry ], [ @.str.28, %if.else.i.i ]
  invoke void @_ZSt20__throw_length_errorPKc(ptr noundef nonnull %0) #24
          to label %if.then.i.cont unwind label %lpad.loopexit.split-lp

if.then.i.cont:                                   ; preds = %if.then.i.invoke
  unreachable

if.end.i:                                         ; preds = %entry
  %_M_end_of_storage.i.i = getelementptr inbounds %"struct.std::_Vector_base<unsigned int, std::allocator<unsigned int>>::_Vector_impl_data", ptr %this, i64 0, i32 2
  %cmp3.i.not = icmp eq i64 %__il.coerce1, 0
  br i1 %cmp3.i.not, label %for.end, label %_ZNSt12_Vector_baseIjSaIjEE11_M_allocateEm.exit.i

_ZNSt12_Vector_baseIjSaIjEE11_M_allocateEm.exit.i: ; preds = %if.end.i
  %mul.i.i.i.i = shl nuw nsw i64 %__il.coerce1, 2
  %call5.i.i.i.i3 = invoke noalias noundef nonnull ptr @_Znwm(i64 noundef %mul.i.i.i.i) #22
          to label %invoke.cont6.lr.ph unwind label %lpad.loopexit.split-lp

invoke.cont6.lr.ph:                               ; preds = %_ZNSt12_Vector_baseIjSaIjEE11_M_allocateEm.exit.i
  %_M_finish.i.i = getelementptr inbounds %"struct.std::_Vector_base<unsigned int, std::allocator<unsigned int>>::_Vector_impl_data", ptr %this, i64 0, i32 1
  store ptr %call5.i.i.i.i3, ptr %this, align 8
  store ptr %call5.i.i.i.i3, ptr %_M_finish.i.i, align 8
  %add.ptr21.i = getelementptr inbounds i32, ptr %call5.i.i.i.i3, i64 %__il.coerce1
  store ptr %add.ptr21.i, ptr %_M_end_of_storage.i.i, align 8
  %add.ptr.i4 = getelementptr inbounds i32, ptr %__il.coerce0, i64 %__il.coerce1
  %_M_finish.i.i5 = getelementptr inbounds %"struct.std::_Vector_base<unsigned int, std::allocator<unsigned int>>::_Vector_impl_data", ptr %this, i64 0, i32 1
  br label %invoke.cont6

invoke.cont6:                                     ; preds = %invoke.cont6.lr.ph, %for.inc
  %1 = phi ptr [ %call5.i.i.i.i3, %invoke.cont6.lr.ph ], [ %7, %for.inc ]
  %__iter.016 = phi ptr [ %__il.coerce0, %invoke.cont6.lr.ph ], [ %incdec.ptr, %for.inc ]
  %2 = load i32, ptr %__iter.016, align 4
  %3 = load ptr, ptr %_M_end_of_storage.i.i, align 8
  %cmp.not.i.i = icmp eq ptr %1, %3
  br i1 %cmp.not.i.i, label %if.else.i.i, label %if.then.i.i7

if.then.i.i7:                                     ; preds = %invoke.cont6
  store i32 %2, ptr %1, align 4
  %4 = load ptr, ptr %_M_finish.i.i5, align 8
  %incdec.ptr.i.i = getelementptr inbounds i32, ptr %4, i64 1
  store ptr %incdec.ptr.i.i, ptr %_M_finish.i.i5, align 8
  br label %for.inc

if.else.i.i:                                      ; preds = %invoke.cont6
  %5 = load ptr, ptr %this, align 8
  %sub.ptr.lhs.cast.i.i.i.i.i = ptrtoint ptr %1 to i64
  %sub.ptr.rhs.cast.i.i.i.i.i = ptrtoint ptr %5 to i64
  %sub.ptr.sub.i.i.i.i.i = sub i64 %sub.ptr.lhs.cast.i.i.i.i.i, %sub.ptr.rhs.cast.i.i.i.i.i
  %cmp.i.i.i.i = icmp eq i64 %sub.ptr.sub.i.i.i.i.i, 9223372036854775804
  br i1 %cmp.i.i.i.i, label %if.then.i.invoke, label %_ZNKSt6vectorIjSaIjEE12_M_check_lenEmPKc.exit.i.i.i

_ZNKSt6vectorIjSaIjEE12_M_check_lenEmPKc.exit.i.i.i: ; preds = %if.else.i.i
  %sub.ptr.div.i.i.i.i.i = ashr exact i64 %sub.ptr.sub.i.i.i.i.i, 2
  %.sroa.speculated.i.i.i.i = tail call i64 @llvm.umax.i64(i64 %sub.ptr.div.i.i.i.i.i, i64 1)
  %add.i.i.i.i = add nsw i64 %.sroa.speculated.i.i.i.i, %sub.ptr.div.i.i.i.i.i
  %cmp7.i.i.i.i = icmp ult i64 %add.i.i.i.i, %sub.ptr.div.i.i.i.i.i
  %6 = tail call i64 @llvm.umin.i64(i64 %add.i.i.i.i, i64 2305843009213693951)
  %cond.i.i.i.i = select i1 %cmp7.i.i.i.i, i64 2305843009213693951, i64 %6
  %cmp.not.i.i.i.i = icmp eq i64 %cond.i.i.i.i, 0
  br i1 %cmp.not.i.i.i.i, label %_ZNSt12_Vector_baseIjSaIjEE11_M_allocateEm.exit.i.i.i, label %cond.true.i.i.i.i

cond.true.i.i.i.i:                                ; preds = %_ZNKSt6vectorIjSaIjEE12_M_check_lenEmPKc.exit.i.i.i
  %mul.i.i.i.i.i.i = shl nuw nsw i64 %cond.i.i.i.i, 2
  %call5.i.i.i.i.i.i9 = invoke noalias noundef nonnull ptr @_Znwm(i64 noundef %mul.i.i.i.i.i.i) #22
          to label %_ZNSt12_Vector_baseIjSaIjEE11_M_allocateEm.exit.i.i.i unwind label %lpad.loopexit

_ZNSt12_Vector_baseIjSaIjEE11_M_allocateEm.exit.i.i.i: ; preds = %cond.true.i.i.i.i, %_ZNKSt6vectorIjSaIjEE12_M_check_lenEmPKc.exit.i.i.i
  %cond.i10.i.i.i = phi ptr [ null, %_ZNKSt6vectorIjSaIjEE12_M_check_lenEmPKc.exit.i.i.i ], [ %call5.i.i.i.i.i.i9, %cond.true.i.i.i.i ]
  %add.ptr.i.i.i = getelementptr inbounds i32, ptr %cond.i10.i.i.i, i64 %sub.ptr.div.i.i.i.i.i
  store i32 %2, ptr %add.ptr.i.i.i, align 4
  %cmp.i.i.i.i.i.i = icmp sgt i64 %sub.ptr.sub.i.i.i.i.i, 0
  br i1 %cmp.i.i.i.i.i.i, label %if.then.i.i.i.i.i.i, label %_ZNSt6vectorIjSaIjEE11_S_relocateEPjS2_S2_RS0_.exit17.i.i.i

if.then.i.i.i.i.i.i:                              ; preds = %_ZNSt12_Vector_baseIjSaIjEE11_M_allocateEm.exit.i.i.i
  tail call void @llvm.memmove.p0.p0.i64(ptr nonnull align 4 %cond.i10.i.i.i, ptr align 4 %5, i64 %sub.ptr.sub.i.i.i.i.i, i1 false)
  br label %_ZNSt6vectorIjSaIjEE11_S_relocateEPjS2_S2_RS0_.exit17.i.i.i

_ZNSt6vectorIjSaIjEE11_S_relocateEPjS2_S2_RS0_.exit17.i.i.i: ; preds = %if.then.i.i.i.i.i.i, %_ZNSt12_Vector_baseIjSaIjEE11_M_allocateEm.exit.i.i.i
  %add.ptr.i.i.i.i.i.i = getelementptr inbounds i8, ptr %cond.i10.i.i.i, i64 %sub.ptr.sub.i.i.i.i.i
  %incdec.ptr.i.i.i = getelementptr inbounds i32, ptr %add.ptr.i.i.i.i.i.i, i64 1
  %tobool.not.i.i.i.i = icmp eq ptr %5, null
  br i1 %tobool.not.i.i.i.i, label %_ZNSt6vectorIjSaIjEE17_M_realloc_insertIJjEEEvN9__gnu_cxx17__normal_iteratorIPjS1_EEDpOT_.exit.i.i, label %if.then.i18.i.i.i

if.then.i18.i.i.i:                                ; preds = %_ZNSt6vectorIjSaIjEE11_S_relocateEPjS2_S2_RS0_.exit17.i.i.i
  tail call void @_ZdlPv(ptr noundef nonnull %5) #21
  br label %_ZNSt6vectorIjSaIjEE17_M_realloc_insertIJjEEEvN9__gnu_cxx17__normal_iteratorIPjS1_EEDpOT_.exit.i.i

_ZNSt6vectorIjSaIjEE17_M_realloc_insertIJjEEEvN9__gnu_cxx17__normal_iteratorIPjS1_EEDpOT_.exit.i.i: ; preds = %if.then.i18.i.i.i, %_ZNSt6vectorIjSaIjEE11_S_relocateEPjS2_S2_RS0_.exit17.i.i.i
  store ptr %cond.i10.i.i.i, ptr %this, align 8
  store ptr %incdec.ptr.i.i.i, ptr %_M_finish.i.i5, align 8
  %add.ptr19.i.i.i = getelementptr inbounds i32, ptr %cond.i10.i.i.i, i64 %cond.i.i.i.i
  store ptr %add.ptr19.i.i.i, ptr %_M_end_of_storage.i.i, align 8
  br label %for.inc

for.inc:                                          ; preds = %_ZNSt6vectorIjSaIjEE17_M_realloc_insertIJjEEEvN9__gnu_cxx17__normal_iteratorIPjS1_EEDpOT_.exit.i.i, %if.then.i.i7
  %7 = phi ptr [ %incdec.ptr.i.i.i, %_ZNSt6vectorIjSaIjEE17_M_realloc_insertIJjEEEvN9__gnu_cxx17__normal_iteratorIPjS1_EEDpOT_.exit.i.i ], [ %incdec.ptr.i.i, %if.then.i.i7 ]
  %incdec.ptr = getelementptr inbounds i32, ptr %__iter.016, i64 1
  %cmp.not = icmp eq ptr %incdec.ptr, %add.ptr.i4
  br i1 %cmp.not, label %for.end, label %invoke.cont6, !llvm.loop !114

lpad.loopexit:                                    ; preds = %cond.true.i.i.i.i
  %lpad.loopexit13 = landingpad { ptr, i32 }
          cleanup
  br label %lpad

lpad.loopexit.split-lp:                           ; preds = %if.then.i.invoke, %_ZNSt12_Vector_baseIjSaIjEE11_M_allocateEm.exit.i
  %lpad.loopexit.split-lp14 = landingpad { ptr, i32 }
          cleanup
  %.pre = load ptr, ptr %this, align 8
  br label %lpad

lpad:                                             ; preds = %lpad.loopexit.split-lp, %lpad.loopexit
  %8 = phi ptr [ %5, %lpad.loopexit ], [ %.pre, %lpad.loopexit.split-lp ]
  %lpad.phi = phi { ptr, i32 } [ %lpad.loopexit13, %lpad.loopexit ], [ %lpad.loopexit.split-lp14, %lpad.loopexit.split-lp ]
  %tobool.not.i.i.i = icmp eq ptr %8, null
  br i1 %tobool.not.i.i.i, label %_ZNSt6vectorIjSaIjEED2Ev.exit, label %if.then.i.i.i

if.then.i.i.i:                                    ; preds = %lpad
  tail call void @_ZdlPv(ptr noundef nonnull %8) #21
  br label %_ZNSt6vectorIjSaIjEED2Ev.exit

_ZNSt6vectorIjSaIjEED2Ev.exit:                    ; preds = %lpad, %if.then.i.i.i
  resume { ptr, i32 } %lpad.phi

for.end:                                          ; preds = %for.inc, %if.end.i
  ret void
}

declare void @_ZN7testing8internal20DoubleNearPredFormatEPKcS2_S2_ddd(ptr sret(%"class.testing::AssertionResult") align 8, ptr noundef, ptr noundef, ptr noundef, double noundef, double noundef, double noundef) local_unnamed_addr #0

; Function Attrs: mustprogress uwtable
define linkonce_odr dso_local void @_ZNSt8seed_seq8generateIPjEEvT_S2_(ptr noundef nonnull align 8 dereferenceable(24) %this, ptr noundef %__begin, ptr noundef %__end) local_unnamed_addr #4 comdat align 2 {
entry:
  %cmp = icmp eq ptr %__begin, %__end
  br i1 %cmp, label %for.end129, label %for.body.i.i.i.preheader

for.body.i.i.i.preheader:                         ; preds = %entry
  %__end101 = ptrtoint ptr %__end to i64
  %__begin102 = ptrtoint ptr %__begin to i64
  %0 = add i64 %__end101, -4
  %1 = sub i64 %0, %__begin102
  %2 = and i64 %1, -4
  %3 = add i64 %2, 4
  tail call void @llvm.memset.p0.i64(ptr align 4 %__begin, i8 -117, i64 %3, i1 false)
  %sub.ptr.sub = sub i64 %__end101, %__begin102
  %sub.ptr.div = ashr exact i64 %sub.ptr.sub, 2
  %_M_finish.i = getelementptr inbounds %"struct.std::_Vector_base<unsigned int, std::allocator<unsigned int>>::_Vector_impl_data", ptr %this, i64 0, i32 1
  %4 = load ptr, ptr %_M_finish.i, align 8
  %5 = load ptr, ptr %this, align 8
  %sub.ptr.lhs.cast.i = ptrtoint ptr %4 to i64
  %sub.ptr.rhs.cast.i = ptrtoint ptr %5 to i64
  %sub.ptr.sub.i = sub i64 %sub.ptr.lhs.cast.i, %sub.ptr.rhs.cast.i
  %sub.ptr.div.i = ashr exact i64 %sub.ptr.sub.i, 2
  %cmp2 = icmp ugt i64 %sub.ptr.div, 622
  br i1 %cmp2, label %cond.end16, label %cond.false

cond.false:                                       ; preds = %for.body.i.i.i.preheader
  %cmp3 = icmp ugt i64 %sub.ptr.div, 67
  br i1 %cmp3, label %cond.end16, label %cond.false5

cond.false5:                                      ; preds = %cond.false
  %cmp6 = icmp ugt i64 %sub.ptr.div, 38
  br i1 %cmp6, label %cond.end16, label %cond.false8

cond.false8:                                      ; preds = %cond.false5
  %cmp9 = icmp ugt i64 %sub.ptr.div, 6
  %sub = add nsw i64 %sub.ptr.div, -1
  %div86 = lshr i64 %sub, 1
  %cond = select i1 %cmp9, i64 3, i64 %div86
  br label %cond.end16

cond.end16:                                       ; preds = %cond.false, %cond.false5, %cond.false8, %for.body.i.i.i.preheader
  %cond17 = phi i64 [ 11, %for.body.i.i.i.preheader ], [ 7, %cond.false ], [ %cond, %cond.false8 ], [ 5, %cond.false5 ]
  %sub18 = sub i64 %sub.ptr.div, %cond17
  %div1987 = lshr i64 %sub18, 1
  %add = add nuw i64 %div1987, %cond17
  %add21 = add nsw i64 %sub.ptr.div.i, 1
  %.sroa.speculated = tail call i64 @llvm.umax.i64(i64 %add21, i64 %sub.ptr.div)
  %6 = trunc i64 %sub.ptr.div.i to i32
  %conv24 = add i32 %6, 1371501266
  %arrayidx = getelementptr inbounds i32, ptr %__begin, i64 %div1987
  %7 = load i32, ptr %arrayidx, align 4
  %add25 = add i32 %7, 1371501266
  store i32 %add25, ptr %arrayidx, align 4
  %arrayidx26 = getelementptr inbounds i32, ptr %__begin, i64 %add
  %8 = load i32, ptr %arrayidx26, align 4
  %add27 = add i32 %8, %conv24
  store i32 %add27, ptr %arrayidx26, align 4
  store i32 %conv24, ptr %__begin, align 4
  %cmp30.not95 = icmp eq ptr %4, %5
  br i1 %cmp30.not95, label %for.cond59.preheader, label %for.body.preheader

for.body.preheader:                               ; preds = %cond.end16
  %umax = tail call i64 @llvm.umax.i64(i64 %add21, i64 2)
  br label %for.body

for.cond59.preheader:                             ; preds = %for.body, %cond.end16
  %cmp6097 = icmp ugt i64 %sub.ptr.div, %add21
  br i1 %cmp6097, label %for.body61, label %for.cond96.preheader

for.body:                                         ; preds = %for.body.preheader, %for.body
  %__k.096 = phi i64 [ %inc, %for.body ], [ 1, %for.body.preheader ]
  %rem = urem i64 %__k.096, %sub.ptr.div
  %add31 = add i64 %__k.096, %div1987
  %rem32 = urem i64 %add31, %sub.ptr.div
  %add33 = add i64 %__k.096, %add
  %rem34 = urem i64 %add33, %sub.ptr.div
  %arrayidx35 = getelementptr inbounds i32, ptr %__begin, i64 %rem
  %9 = load i32, ptr %arrayidx35, align 4
  %arrayidx36 = getelementptr inbounds i32, ptr %__begin, i64 %rem32
  %10 = load i32, ptr %arrayidx36, align 4
  %sub37 = add i64 %__k.096, -1
  %rem38 = urem i64 %sub37, %sub.ptr.div
  %arrayidx39 = getelementptr inbounds i32, ptr %__begin, i64 %rem38
  %11 = load i32, ptr %arrayidx39, align 4
  %12 = xor i32 %9, %11
  %xor40 = xor i32 %12, %10
  %shr = lshr i32 %xor40, 27
  %xor42 = xor i32 %shr, %xor40
  %mul = mul i32 %xor42, 1664525
  %conv44 = trunc i64 %rem to i32
  %13 = load ptr, ptr %this, align 8
  %add.ptr.i = getelementptr inbounds i32, ptr %13, i64 %sub37
  %14 = load i32, ptr %add.ptr.i, align 4
  %add45 = add i32 %14, %conv44
  %add49 = add i32 %add45, %mul
  %add51 = add i32 %mul, %10
  store i32 %add51, ptr %arrayidx36, align 4
  %arrayidx53 = getelementptr inbounds i32, ptr %__begin, i64 %rem34
  %15 = load i32, ptr %arrayidx53, align 4
  %add54 = add i32 %add49, %15
  store i32 %add54, ptr %arrayidx53, align 4
  store i32 %add49, ptr %arrayidx35, align 4
  %inc = add nuw i64 %__k.096, 1
  %exitcond = icmp eq i64 %inc, %umax
  br i1 %exitcond, label %for.cond59.preheader, label %for.body, !llvm.loop !115

for.cond96.preheader:                             ; preds = %for.body61, %for.cond59.preheader
  %add97 = add nsw i64 %.sroa.speculated, %sub.ptr.div
  %cmp9899 = icmp ult i64 %.sroa.speculated, %add97
  br i1 %cmp9899, label %for.body99, label %for.end129

for.body61:                                       ; preds = %for.cond59.preheader, %for.body61
  %__k57.098 = phi i64 [ %inc93, %for.body61 ], [ %add21, %for.cond59.preheader ]
  %rem63 = urem i64 %__k57.098, %sub.ptr.div
  %add65 = add i64 %__k57.098, %div1987
  %rem66 = urem i64 %add65, %sub.ptr.div
  %add68 = add i64 %__k57.098, %add
  %rem69 = urem i64 %add68, %sub.ptr.div
  %arrayidx71 = getelementptr inbounds i32, ptr %__begin, i64 %rem63
  %16 = load i32, ptr %arrayidx71, align 4
  %arrayidx72 = getelementptr inbounds i32, ptr %__begin, i64 %rem66
  %17 = load i32, ptr %arrayidx72, align 4
  %sub74 = add i64 %__k57.098, -1
  %rem75 = urem i64 %sub74, %sub.ptr.div
  %arrayidx76 = getelementptr inbounds i32, ptr %__begin, i64 %rem75
  %18 = load i32, ptr %arrayidx76, align 4
  %19 = xor i32 %16, %18
  %xor77 = xor i32 %19, %17
  %shr79 = lshr i32 %xor77, 27
  %xor80 = xor i32 %shr79, %xor77
  %mul81 = mul i32 %xor80, 1664525
  %conv83 = trunc i64 %rem63 to i32
  %add84 = add i32 %mul81, %conv83
  %add86 = add i32 %mul81, %17
  store i32 %add86, ptr %arrayidx72, align 4
  %arrayidx88 = getelementptr inbounds i32, ptr %__begin, i64 %rem69
  %20 = load i32, ptr %arrayidx88, align 4
  %add89 = add i32 %add84, %20
  store i32 %add89, ptr %arrayidx88, align 4
  store i32 %add84, ptr %arrayidx71, align 4
  %inc93 = add nuw i64 %__k57.098, 1
  %exitcond103.not = icmp eq i64 %inc93, %.sroa.speculated
  br i1 %exitcond103.not, label %for.cond96.preheader, label %for.body61, !llvm.loop !116

for.body99:                                       ; preds = %for.cond96.preheader, %for.body99
  %__k95.0100 = phi i64 [ %inc128, %for.body99 ], [ %.sroa.speculated, %for.cond96.preheader ]
  %rem101 = urem i64 %__k95.0100, %sub.ptr.div
  %add103 = add i64 %__k95.0100, %div1987
  %rem104 = urem i64 %add103, %sub.ptr.div
  %add106 = add i64 %__k95.0100, %add
  %rem107 = urem i64 %add106, %sub.ptr.div
  %arrayidx109 = getelementptr inbounds i32, ptr %__begin, i64 %rem101
  %21 = load i32, ptr %arrayidx109, align 4
  %arrayidx110 = getelementptr inbounds i32, ptr %__begin, i64 %rem104
  %22 = load i32, ptr %arrayidx110, align 4
  %add111 = add i32 %22, %21
  %sub112 = add i64 %__k95.0100, -1
  %rem113 = urem i64 %sub112, %sub.ptr.div
  %arrayidx114 = getelementptr inbounds i32, ptr %__begin, i64 %rem113
  %23 = load i32, ptr %arrayidx114, align 4
  %add115 = add i32 %add111, %23
  %shr116 = lshr i32 %add115, 27
  %xor117 = xor i32 %shr116, %add115
  %mul118 = mul i32 %xor117, 1566083941
  %24 = trunc i64 %rem101 to i32
  %conv121 = sub i32 %mul118, %24
  %xor123 = xor i32 %mul118, %22
  store i32 %xor123, ptr %arrayidx110, align 4
  %arrayidx124 = getelementptr inbounds i32, ptr %__begin, i64 %rem107
  %25 = load i32, ptr %arrayidx124, align 4
  %xor125 = xor i32 %conv121, %25
  store i32 %xor125, ptr %arrayidx124, align 4
  store i32 %conv121, ptr %arrayidx109, align 4
  %inc128 = add nuw i64 %__k95.0100, 1
  %exitcond104.not = icmp eq i64 %inc128, %add97
  br i1 %exitcond104.not, label %for.end129, label %for.body99, !llvm.loop !117

for.end129:                                       ; preds = %for.body99, %for.cond96.preheader, %entry
  ret void
}

declare void @_ZNSt13random_device7_M_initERKNSt7__cxx1112basic_stringIcSt11char_traitsIcESaIcEEE(ptr noundef nonnull align 8 dereferenceable(5000), ptr noundef nonnull align 8 dereferenceable(32)) local_unnamed_addr #0

declare noundef i32 @_ZNSt13random_device9_M_getvalEv(ptr noundef nonnull align 8 dereferenceable(5000)) local_unnamed_addr #0

declare void @_ZNSt13random_device7_M_finiEv(ptr noundef nonnull align 8 dereferenceable(5000)) local_unnamed_addr #0

; Function Attrs: mustprogress nocallback nofree nosync nounwind speculatable willreturn memory(none)
declare i64 @llvm.ctpop.i64(i64) #14

; Function Attrs: mustprogress uwtable
define linkonce_odr dso_local void @_ZN7testing8internal18CmpHelperOpFailureImdEENS_15AssertionResultEPKcS4_RKT_RKT0_S4_(ptr noalias sret(%"class.testing::AssertionResult") align 8 %agg.result, ptr noundef %expr1, ptr noundef %expr2, ptr noundef nonnull align 8 dereferenceable(8) %val1, ptr noundef nonnull align 8 dereferenceable(8) %val2, ptr noundef %op) local_unnamed_addr #4 comdat personality ptr @__gxx_personality_v0 {
entry:
  %ref.tmp.i165 = alloca %"class.testing::Message", align 8
  %ss.i.i.i158 = alloca %"class.std::__cxx11::basic_stringstream", align 8
  %ref.tmp.i140 = alloca %"class.testing::Message", align 8
  %ref.tmp.i123 = alloca %"class.testing::Message", align 8
  %ss.i.i.i = alloca %"class.std::__cxx11::basic_stringstream", align 8
  %ref.tmp.i101 = alloca %"class.testing::Message", align 8
  %ref.tmp.i80 = alloca %"class.testing::Message", align 8
  %ref.tmp.i61 = alloca %"class.testing::Message", align 8
  %ref.tmp.i40 = alloca %"class.testing::Message", align 8
  %ref.tmp.i22 = alloca %"class.testing::Message", align 8
  %ref.tmp.i5 = alloca %"class.testing::Message", align 8
  %ref.tmp.i = alloca %"class.testing::Message", align 8
  %ref.tmp = alloca %"class.testing::AssertionResult", align 8
  %ref.tmp13 = alloca %"class.std::__cxx11::basic_string", align 8
  %ref.tmp20 = alloca %"class.std::__cxx11::basic_string", align 8
  call void @_ZN7testing16AssertionFailureEv(ptr nonnull sret(%"class.testing::AssertionResult") align 8 %ref.tmp)
  call void @llvm.lifetime.start.p0(i64 8, ptr nonnull %ref.tmp.i)
  invoke void @_ZN7testing7MessageC1Ev(ptr noundef nonnull align 8 dereferenceable(8) %ref.tmp.i)
          to label %.noexc unwind label %lpad

.noexc:                                           ; preds = %entry
  %0 = load ptr, ptr %ref.tmp.i, align 8
  %add.ptr.i.i = getelementptr inbounds i8, ptr %0, i64 16
  %call2.i1.i = invoke noundef nonnull align 8 dereferenceable(8) ptr @_ZStlsISt11char_traitsIcEERSt13basic_ostreamIcT_ES5_PKc(ptr noundef nonnull align 8 dereferenceable(8) %add.ptr.i.i, ptr noundef nonnull @.str.51)
          to label %invoke.cont.i unwind label %lpad.i

invoke.cont.i:                                    ; preds = %.noexc
  invoke void @_ZN7testing15AssertionResult13AppendMessageERKNS_7MessageE(ptr noundef nonnull align 8 dereferenceable(16) %ref.tmp, ptr noundef nonnull align 8 dereferenceable(8) %ref.tmp.i)
          to label %invoke.cont2.i unwind label %lpad.i

invoke.cont2.i:                                   ; preds = %invoke.cont.i
  %1 = load ptr, ptr %ref.tmp.i, align 8
  %cmp.not.i.i.i = icmp eq ptr %1, null
  br i1 %cmp.not.i.i.i, label %invoke.cont, label %_ZNKSt14default_deleteINSt7__cxx1118basic_stringstreamIcSt11char_traitsIcESaIcEEEEclEPS5_.exit.i.i.i

_ZNKSt14default_deleteINSt7__cxx1118basic_stringstreamIcSt11char_traitsIcESaIcEEEEclEPS5_.exit.i.i.i: ; preds = %invoke.cont2.i
  %vtable.i.i.i.i = load ptr, ptr %1, align 8
  %vfn.i.i.i.i = getelementptr inbounds ptr, ptr %vtable.i.i.i.i, i64 1
  %2 = load ptr, ptr %vfn.i.i.i.i, align 8
  call void %2(ptr noundef nonnull align 8 dereferenceable(128) %1) #20
  br label %invoke.cont

lpad.i:                                           ; preds = %invoke.cont.i, %.noexc
  %3 = landingpad { ptr, i32 }
          cleanup
  %4 = load ptr, ptr %ref.tmp.i, align 8
  %cmp.not.i.i2.i = icmp eq ptr %4, null
  br i1 %cmp.not.i.i2.i, label %ehcleanup26, label %_ZNKSt14default_deleteINSt7__cxx1118basic_stringstreamIcSt11char_traitsIcESaIcEEEEclEPS5_.exit.i.i3.i

_ZNKSt14default_deleteINSt7__cxx1118basic_stringstreamIcSt11char_traitsIcESaIcEEEEclEPS5_.exit.i.i3.i: ; preds = %lpad.i
  %vtable.i.i.i4.i = load ptr, ptr %4, align 8
  %vfn.i.i.i5.i = getelementptr inbounds ptr, ptr %vtable.i.i.i4.i, i64 1
  %5 = load ptr, ptr %vfn.i.i.i5.i, align 8
  call void %5(ptr noundef nonnull align 8 dereferenceable(128) %4) #20
  br label %ehcleanup26

invoke.cont:                                      ; preds = %_ZNKSt14default_deleteINSt7__cxx1118basic_stringstreamIcSt11char_traitsIcESaIcEEEEclEPS5_.exit.i.i.i, %invoke.cont2.i
  call void @llvm.lifetime.end.p0(i64 8, ptr nonnull %ref.tmp.i)
  call void @llvm.lifetime.start.p0(i64 8, ptr nonnull %ref.tmp.i5)
  invoke void @_ZN7testing7MessageC1Ev(ptr noundef nonnull align 8 dereferenceable(8) %ref.tmp.i5)
          to label %.noexc19 unwind label %lpad

.noexc19:                                         ; preds = %invoke.cont
  %cmp.i.i = icmp eq ptr %expr1, null
  %6 = load ptr, ptr %ref.tmp.i5, align 8
  %add.ptr.i.i6 = getelementptr inbounds i8, ptr %6, i64 16
  %.str.56..i.i = select i1 %cmp.i.i, ptr @.str.56, ptr %expr1
  %call6.i1.i = invoke noundef nonnull align 8 dereferenceable(8) ptr @_ZStlsISt11char_traitsIcEERSt13basic_ostreamIcT_ES5_PKc(ptr noundef nonnull align 8 dereferenceable(8) %add.ptr.i.i6, ptr noundef nonnull %.str.56..i.i)
          to label %invoke.cont.i13 unwind label %lpad.i7

invoke.cont.i13:                                  ; preds = %.noexc19
  invoke void @_ZN7testing15AssertionResult13AppendMessageERKNS_7MessageE(ptr noundef nonnull align 8 dereferenceable(16) %ref.tmp, ptr noundef nonnull align 8 dereferenceable(8) %ref.tmp.i5)
          to label %invoke.cont2.i14 unwind label %lpad.i7

invoke.cont2.i14:                                 ; preds = %invoke.cont.i13
  %7 = load ptr, ptr %ref.tmp.i5, align 8
  %cmp.not.i.i.i15 = icmp eq ptr %7, null
  br i1 %cmp.not.i.i.i15, label %invoke.cont1, label %_ZNKSt14default_deleteINSt7__cxx1118basic_stringstreamIcSt11char_traitsIcESaIcEEEEclEPS5_.exit.i.i.i16

_ZNKSt14default_deleteINSt7__cxx1118basic_stringstreamIcSt11char_traitsIcESaIcEEEEclEPS5_.exit.i.i.i16: ; preds = %invoke.cont2.i14
  %vtable.i.i.i.i17 = load ptr, ptr %7, align 8
  %vfn.i.i.i.i18 = getelementptr inbounds ptr, ptr %vtable.i.i.i.i17, i64 1
  %8 = load ptr, ptr %vfn.i.i.i.i18, align 8
  call void %8(ptr noundef nonnull align 8 dereferenceable(128) %7) #20
  br label %invoke.cont1

lpad.i7:                                          ; preds = %invoke.cont.i13, %.noexc19
  %9 = landingpad { ptr, i32 }
          cleanup
  %10 = load ptr, ptr %ref.tmp.i5, align 8
  %cmp.not.i.i2.i8 = icmp eq ptr %10, null
  br i1 %cmp.not.i.i2.i8, label %ehcleanup26, label %_ZNKSt14default_deleteINSt7__cxx1118basic_stringstreamIcSt11char_traitsIcESaIcEEEEclEPS5_.exit.i.i3.i9

_ZNKSt14default_deleteINSt7__cxx1118basic_stringstreamIcSt11char_traitsIcESaIcEEEEclEPS5_.exit.i.i3.i9: ; preds = %lpad.i7
  %vtable.i.i.i4.i10 = load ptr, ptr %10, align 8
  %vfn.i.i.i5.i11 = getelementptr inbounds ptr, ptr %vtable.i.i.i4.i10, i64 1
  %11 = load ptr, ptr %vfn.i.i.i5.i11, align 8
  call void %11(ptr noundef nonnull align 8 dereferenceable(128) %10) #20
  br label %ehcleanup26

invoke.cont1:                                     ; preds = %_ZNKSt14default_deleteINSt7__cxx1118basic_stringstreamIcSt11char_traitsIcESaIcEEEEclEPS5_.exit.i.i.i16, %invoke.cont2.i14
  call void @llvm.lifetime.end.p0(i64 8, ptr nonnull %ref.tmp.i5)
  call void @llvm.lifetime.start.p0(i64 8, ptr nonnull %ref.tmp.i22)
  invoke void @_ZN7testing7MessageC1Ev(ptr noundef nonnull align 8 dereferenceable(8) %ref.tmp.i22)
          to label %.noexc37 unwind label %lpad

.noexc37:                                         ; preds = %invoke.cont1
  %12 = load ptr, ptr %ref.tmp.i22, align 8
  %add.ptr.i.i23 = getelementptr inbounds i8, ptr %12, i64 16
  %call2.i1.i24 = invoke noundef nonnull align 8 dereferenceable(8) ptr @_ZStlsISt11char_traitsIcEERSt13basic_ostreamIcT_ES5_PKc(ptr noundef nonnull align 8 dereferenceable(8) %add.ptr.i.i23, ptr noundef nonnull @.str.52)
          to label %invoke.cont.i31 unwind label %lpad.i25

invoke.cont.i31:                                  ; preds = %.noexc37
  invoke void @_ZN7testing15AssertionResult13AppendMessageERKNS_7MessageE(ptr noundef nonnull align 8 dereferenceable(16) %ref.tmp, ptr noundef nonnull align 8 dereferenceable(8) %ref.tmp.i22)
          to label %invoke.cont2.i32 unwind label %lpad.i25

invoke.cont2.i32:                                 ; preds = %invoke.cont.i31
  %13 = load ptr, ptr %ref.tmp.i22, align 8
  %cmp.not.i.i.i33 = icmp eq ptr %13, null
  br i1 %cmp.not.i.i.i33, label %invoke.cont3, label %_ZNKSt14default_deleteINSt7__cxx1118basic_stringstreamIcSt11char_traitsIcESaIcEEEEclEPS5_.exit.i.i.i34

_ZNKSt14default_deleteINSt7__cxx1118basic_stringstreamIcSt11char_traitsIcESaIcEEEEclEPS5_.exit.i.i.i34: ; preds = %invoke.cont2.i32
  %vtable.i.i.i.i35 = load ptr, ptr %13, align 8
  %vfn.i.i.i.i36 = getelementptr inbounds ptr, ptr %vtable.i.i.i.i35, i64 1
  %14 = load ptr, ptr %vfn.i.i.i.i36, align 8
  call void %14(ptr noundef nonnull align 8 dereferenceable(128) %13) #20
  br label %invoke.cont3

lpad.i25:                                         ; preds = %invoke.cont.i31, %.noexc37
  %15 = landingpad { ptr, i32 }
          cleanup
  %16 = load ptr, ptr %ref.tmp.i22, align 8
  %cmp.not.i.i2.i26 = icmp eq ptr %16, null
  br i1 %cmp.not.i.i2.i26, label %ehcleanup26, label %_ZNKSt14default_deleteINSt7__cxx1118basic_stringstreamIcSt11char_traitsIcESaIcEEEEclEPS5_.exit.i.i3.i27

_ZNKSt14default_deleteINSt7__cxx1118basic_stringstreamIcSt11char_traitsIcESaIcEEEEclEPS5_.exit.i.i3.i27: ; preds = %lpad.i25
  %vtable.i.i.i4.i28 = load ptr, ptr %16, align 8
  %vfn.i.i.i5.i29 = getelementptr inbounds ptr, ptr %vtable.i.i.i4.i28, i64 1
  %17 = load ptr, ptr %vfn.i.i.i5.i29, align 8
  call void %17(ptr noundef nonnull align 8 dereferenceable(128) %16) #20
  br label %ehcleanup26

invoke.cont3:                                     ; preds = %_ZNKSt14default_deleteINSt7__cxx1118basic_stringstreamIcSt11char_traitsIcESaIcEEEEclEPS5_.exit.i.i.i34, %invoke.cont2.i32
  call void @llvm.lifetime.end.p0(i64 8, ptr nonnull %ref.tmp.i22)
  call void @llvm.lifetime.start.p0(i64 8, ptr nonnull %ref.tmp.i40)
  invoke void @_ZN7testing7MessageC1Ev(ptr noundef nonnull align 8 dereferenceable(8) %ref.tmp.i40)
          to label %.noexc57 unwind label %lpad

.noexc57:                                         ; preds = %invoke.cont3
  %cmp.i.i41 = icmp eq ptr %op, null
  %18 = load ptr, ptr %ref.tmp.i40, align 8
  %add.ptr.i.i42 = getelementptr inbounds i8, ptr %18, i64 16
  %.str.56..i.i43 = select i1 %cmp.i.i41, ptr @.str.56, ptr %op
  %call6.i1.i44 = invoke noundef nonnull align 8 dereferenceable(8) ptr @_ZStlsISt11char_traitsIcEERSt13basic_ostreamIcT_ES5_PKc(ptr noundef nonnull align 8 dereferenceable(8) %add.ptr.i.i42, ptr noundef nonnull %.str.56..i.i43)
          to label %invoke.cont.i51 unwind label %lpad.i45

invoke.cont.i51:                                  ; preds = %.noexc57
  invoke void @_ZN7testing15AssertionResult13AppendMessageERKNS_7MessageE(ptr noundef nonnull align 8 dereferenceable(16) %ref.tmp, ptr noundef nonnull align 8 dereferenceable(8) %ref.tmp.i40)
          to label %invoke.cont2.i52 unwind label %lpad.i45

invoke.cont2.i52:                                 ; preds = %invoke.cont.i51
  %19 = load ptr, ptr %ref.tmp.i40, align 8
  %cmp.not.i.i.i53 = icmp eq ptr %19, null
  br i1 %cmp.not.i.i.i53, label %invoke.cont5, label %_ZNKSt14default_deleteINSt7__cxx1118basic_stringstreamIcSt11char_traitsIcESaIcEEEEclEPS5_.exit.i.i.i54

_ZNKSt14default_deleteINSt7__cxx1118basic_stringstreamIcSt11char_traitsIcESaIcEEEEclEPS5_.exit.i.i.i54: ; preds = %invoke.cont2.i52
  %vtable.i.i.i.i55 = load ptr, ptr %19, align 8
  %vfn.i.i.i.i56 = getelementptr inbounds ptr, ptr %vtable.i.i.i.i55, i64 1
  %20 = load ptr, ptr %vfn.i.i.i.i56, align 8
  call void %20(ptr noundef nonnull align 8 dereferenceable(128) %19) #20
  br label %invoke.cont5

lpad.i45:                                         ; preds = %invoke.cont.i51, %.noexc57
  %21 = landingpad { ptr, i32 }
          cleanup
  %22 = load ptr, ptr %ref.tmp.i40, align 8
  %cmp.not.i.i2.i46 = icmp eq ptr %22, null
  br i1 %cmp.not.i.i2.i46, label %ehcleanup26, label %_ZNKSt14default_deleteINSt7__cxx1118basic_stringstreamIcSt11char_traitsIcESaIcEEEEclEPS5_.exit.i.i3.i47

_ZNKSt14default_deleteINSt7__cxx1118basic_stringstreamIcSt11char_traitsIcESaIcEEEEclEPS5_.exit.i.i3.i47: ; preds = %lpad.i45
  %vtable.i.i.i4.i48 = load ptr, ptr %22, align 8
  %vfn.i.i.i5.i49 = getelementptr inbounds ptr, ptr %vtable.i.i.i4.i48, i64 1
  %23 = load ptr, ptr %vfn.i.i.i5.i49, align 8
  call void %23(ptr noundef nonnull align 8 dereferenceable(128) %22) #20
  br label %ehcleanup26

invoke.cont5:                                     ; preds = %_ZNKSt14default_deleteINSt7__cxx1118basic_stringstreamIcSt11char_traitsIcESaIcEEEEclEPS5_.exit.i.i.i54, %invoke.cont2.i52
  call void @llvm.lifetime.end.p0(i64 8, ptr nonnull %ref.tmp.i40)
  call void @llvm.lifetime.start.p0(i64 8, ptr nonnull %ref.tmp.i61)
  invoke void @_ZN7testing7MessageC1Ev(ptr noundef nonnull align 8 dereferenceable(8) %ref.tmp.i61)
          to label %.noexc76 unwind label %lpad

.noexc76:                                         ; preds = %invoke.cont5
  %24 = load ptr, ptr %ref.tmp.i61, align 8
  %add.ptr.i.i62 = getelementptr inbounds i8, ptr %24, i64 16
  %call2.i1.i63 = invoke noundef nonnull align 8 dereferenceable(8) ptr @_ZStlsISt11char_traitsIcEERSt13basic_ostreamIcT_ES5_PKc(ptr noundef nonnull align 8 dereferenceable(8) %add.ptr.i.i62, ptr noundef nonnull @.str.53)
          to label %invoke.cont.i70 unwind label %lpad.i64

invoke.cont.i70:                                  ; preds = %.noexc76
  invoke void @_ZN7testing15AssertionResult13AppendMessageERKNS_7MessageE(ptr noundef nonnull align 8 dereferenceable(16) %ref.tmp, ptr noundef nonnull align 8 dereferenceable(8) %ref.tmp.i61)
          to label %invoke.cont2.i71 unwind label %lpad.i64

invoke.cont2.i71:                                 ; preds = %invoke.cont.i70
  %25 = load ptr, ptr %ref.tmp.i61, align 8
  %cmp.not.i.i.i72 = icmp eq ptr %25, null
  br i1 %cmp.not.i.i.i72, label %invoke.cont7, label %_ZNKSt14default_deleteINSt7__cxx1118basic_stringstreamIcSt11char_traitsIcESaIcEEEEclEPS5_.exit.i.i.i73

_ZNKSt14default_deleteINSt7__cxx1118basic_stringstreamIcSt11char_traitsIcESaIcEEEEclEPS5_.exit.i.i.i73: ; preds = %invoke.cont2.i71
  %vtable.i.i.i.i74 = load ptr, ptr %25, align 8
  %vfn.i.i.i.i75 = getelementptr inbounds ptr, ptr %vtable.i.i.i.i74, i64 1
  %26 = load ptr, ptr %vfn.i.i.i.i75, align 8
  call void %26(ptr noundef nonnull align 8 dereferenceable(128) %25) #20
  br label %invoke.cont7

lpad.i64:                                         ; preds = %invoke.cont.i70, %.noexc76
  %27 = landingpad { ptr, i32 }
          cleanup
  %28 = load ptr, ptr %ref.tmp.i61, align 8
  %cmp.not.i.i2.i65 = icmp eq ptr %28, null
  br i1 %cmp.not.i.i2.i65, label %ehcleanup26, label %_ZNKSt14default_deleteINSt7__cxx1118basic_stringstreamIcSt11char_traitsIcESaIcEEEEclEPS5_.exit.i.i3.i66

_ZNKSt14default_deleteINSt7__cxx1118basic_stringstreamIcSt11char_traitsIcESaIcEEEEclEPS5_.exit.i.i3.i66: ; preds = %lpad.i64
  %vtable.i.i.i4.i67 = load ptr, ptr %28, align 8
  %vfn.i.i.i5.i68 = getelementptr inbounds ptr, ptr %vtable.i.i.i4.i67, i64 1
  %29 = load ptr, ptr %vfn.i.i.i5.i68, align 8
  call void %29(ptr noundef nonnull align 8 dereferenceable(128) %28) #20
  br label %ehcleanup26

invoke.cont7:                                     ; preds = %_ZNKSt14default_deleteINSt7__cxx1118basic_stringstreamIcSt11char_traitsIcESaIcEEEEclEPS5_.exit.i.i.i73, %invoke.cont2.i71
  call void @llvm.lifetime.end.p0(i64 8, ptr nonnull %ref.tmp.i61)
  call void @llvm.lifetime.start.p0(i64 8, ptr nonnull %ref.tmp.i80)
  invoke void @_ZN7testing7MessageC1Ev(ptr noundef nonnull align 8 dereferenceable(8) %ref.tmp.i80)
          to label %.noexc97 unwind label %lpad

.noexc97:                                         ; preds = %invoke.cont7
  %cmp.i.i81 = icmp eq ptr %expr2, null
  %30 = load ptr, ptr %ref.tmp.i80, align 8
  %add.ptr.i.i82 = getelementptr inbounds i8, ptr %30, i64 16
  %.str.56..i.i83 = select i1 %cmp.i.i81, ptr @.str.56, ptr %expr2
  %call6.i1.i84 = invoke noundef nonnull align 8 dereferenceable(8) ptr @_ZStlsISt11char_traitsIcEERSt13basic_ostreamIcT_ES5_PKc(ptr noundef nonnull align 8 dereferenceable(8) %add.ptr.i.i82, ptr noundef nonnull %.str.56..i.i83)
          to label %invoke.cont.i91 unwind label %lpad.i85

invoke.cont.i91:                                  ; preds = %.noexc97
  invoke void @_ZN7testing15AssertionResult13AppendMessageERKNS_7MessageE(ptr noundef nonnull align 8 dereferenceable(16) %ref.tmp, ptr noundef nonnull align 8 dereferenceable(8) %ref.tmp.i80)
          to label %invoke.cont2.i92 unwind label %lpad.i85

invoke.cont2.i92:                                 ; preds = %invoke.cont.i91
  %31 = load ptr, ptr %ref.tmp.i80, align 8
  %cmp.not.i.i.i93 = icmp eq ptr %31, null
  br i1 %cmp.not.i.i.i93, label %invoke.cont9, label %_ZNKSt14default_deleteINSt7__cxx1118basic_stringstreamIcSt11char_traitsIcESaIcEEEEclEPS5_.exit.i.i.i94

_ZNKSt14default_deleteINSt7__cxx1118basic_stringstreamIcSt11char_traitsIcESaIcEEEEclEPS5_.exit.i.i.i94: ; preds = %invoke.cont2.i92
  %vtable.i.i.i.i95 = load ptr, ptr %31, align 8
  %vfn.i.i.i.i96 = getelementptr inbounds ptr, ptr %vtable.i.i.i.i95, i64 1
  %32 = load ptr, ptr %vfn.i.i.i.i96, align 8
  call void %32(ptr noundef nonnull align 8 dereferenceable(128) %31) #20
  br label %invoke.cont9

lpad.i85:                                         ; preds = %invoke.cont.i91, %.noexc97
  %33 = landingpad { ptr, i32 }
          cleanup
  %34 = load ptr, ptr %ref.tmp.i80, align 8
  %cmp.not.i.i2.i86 = icmp eq ptr %34, null
  br i1 %cmp.not.i.i2.i86, label %ehcleanup26, label %_ZNKSt14default_deleteINSt7__cxx1118basic_stringstreamIcSt11char_traitsIcESaIcEEEEclEPS5_.exit.i.i3.i87

_ZNKSt14default_deleteINSt7__cxx1118basic_stringstreamIcSt11char_traitsIcESaIcEEEEclEPS5_.exit.i.i3.i87: ; preds = %lpad.i85
  %vtable.i.i.i4.i88 = load ptr, ptr %34, align 8
  %vfn.i.i.i5.i89 = getelementptr inbounds ptr, ptr %vtable.i.i.i4.i88, i64 1
  %35 = load ptr, ptr %vfn.i.i.i5.i89, align 8
  call void %35(ptr noundef nonnull align 8 dereferenceable(128) %34) #20
  br label %ehcleanup26

invoke.cont9:                                     ; preds = %_ZNKSt14default_deleteINSt7__cxx1118basic_stringstreamIcSt11char_traitsIcESaIcEEEEclEPS5_.exit.i.i.i94, %invoke.cont2.i92
  call void @llvm.lifetime.end.p0(i64 8, ptr nonnull %ref.tmp.i80)
  call void @llvm.lifetime.start.p0(i64 8, ptr nonnull %ref.tmp.i101)
  invoke void @_ZN7testing7MessageC1Ev(ptr noundef nonnull align 8 dereferenceable(8) %ref.tmp.i101)
          to label %.noexc116 unwind label %lpad

.noexc116:                                        ; preds = %invoke.cont9
  %36 = load ptr, ptr %ref.tmp.i101, align 8
  %add.ptr.i.i102 = getelementptr inbounds i8, ptr %36, i64 16
  %call2.i1.i103 = invoke noundef nonnull align 8 dereferenceable(8) ptr @_ZStlsISt11char_traitsIcEERSt13basic_ostreamIcT_ES5_PKc(ptr noundef nonnull align 8 dereferenceable(8) %add.ptr.i.i102, ptr noundef nonnull @.str.54)
          to label %invoke.cont.i110 unwind label %lpad.i104

invoke.cont.i110:                                 ; preds = %.noexc116
  invoke void @_ZN7testing15AssertionResult13AppendMessageERKNS_7MessageE(ptr noundef nonnull align 8 dereferenceable(16) %ref.tmp, ptr noundef nonnull align 8 dereferenceable(8) %ref.tmp.i101)
          to label %invoke.cont2.i111 unwind label %lpad.i104

invoke.cont2.i111:                                ; preds = %invoke.cont.i110
  %37 = load ptr, ptr %ref.tmp.i101, align 8
  %cmp.not.i.i.i112 = icmp eq ptr %37, null
  br i1 %cmp.not.i.i.i112, label %invoke.cont11, label %_ZNKSt14default_deleteINSt7__cxx1118basic_stringstreamIcSt11char_traitsIcESaIcEEEEclEPS5_.exit.i.i.i113

_ZNKSt14default_deleteINSt7__cxx1118basic_stringstreamIcSt11char_traitsIcESaIcEEEEclEPS5_.exit.i.i.i113: ; preds = %invoke.cont2.i111
  %vtable.i.i.i.i114 = load ptr, ptr %37, align 8
  %vfn.i.i.i.i115 = getelementptr inbounds ptr, ptr %vtable.i.i.i.i114, i64 1
  %38 = load ptr, ptr %vfn.i.i.i.i115, align 8
  call void %38(ptr noundef nonnull align 8 dereferenceable(128) %37) #20
  br label %invoke.cont11

lpad.i104:                                        ; preds = %invoke.cont.i110, %.noexc116
  %39 = landingpad { ptr, i32 }
          cleanup
  %40 = load ptr, ptr %ref.tmp.i101, align 8
  %cmp.not.i.i2.i105 = icmp eq ptr %40, null
  br i1 %cmp.not.i.i2.i105, label %ehcleanup26, label %_ZNKSt14default_deleteINSt7__cxx1118basic_stringstreamIcSt11char_traitsIcESaIcEEEEclEPS5_.exit.i.i3.i106

_ZNKSt14default_deleteINSt7__cxx1118basic_stringstreamIcSt11char_traitsIcESaIcEEEEclEPS5_.exit.i.i3.i106: ; preds = %lpad.i104
  %vtable.i.i.i4.i107 = load ptr, ptr %40, align 8
  %vfn.i.i.i5.i108 = getelementptr inbounds ptr, ptr %vtable.i.i.i4.i107, i64 1
  %41 = load ptr, ptr %vfn.i.i.i5.i108, align 8
  call void %41(ptr noundef nonnull align 8 dereferenceable(128) %40) #20
  br label %ehcleanup26

invoke.cont11:                                    ; preds = %_ZNKSt14default_deleteINSt7__cxx1118basic_stringstreamIcSt11char_traitsIcESaIcEEEEclEPS5_.exit.i.i.i113, %invoke.cont2.i111
  call void @llvm.lifetime.end.p0(i64 8, ptr nonnull %ref.tmp.i101)
  call void @llvm.lifetime.start.p0(i64 392, ptr nonnull %ss.i.i.i), !noalias !118
  invoke void @_ZNSt7__cxx1118basic_stringstreamIcSt11char_traitsIcESaIcEEC1Ev(ptr noundef nonnull align 8 dereferenceable(128) %ss.i.i.i)
          to label %.noexc120 unwind label %lpad

.noexc120:                                        ; preds = %invoke.cont11
  %add.ptr.i.i.i = getelementptr inbounds i8, ptr %ss.i.i.i, i64 16
  %42 = load i64, ptr %val1, align 8, !noalias !123
  %call.i.i.i.i.i.i1.i.i.i = invoke noundef nonnull align 8 dereferenceable(8) ptr @_ZNSolsEm(ptr noundef nonnull align 8 dereferenceable(8) %add.ptr.i.i.i, i64 noundef %42)
          to label %invoke.cont.i.i.i unwind label %lpad.i.i.i, !noalias !123

invoke.cont.i.i.i:                                ; preds = %.noexc120
  invoke void @_ZNKSt7__cxx1118basic_stringstreamIcSt11char_traitsIcESaIcEE3strEv(ptr nonnull sret(%"class.std::__cxx11::basic_string") align 8 %ref.tmp13, ptr noundef nonnull align 8 dereferenceable(128) %ss.i.i.i)
          to label %invoke.cont14 unwind label %lpad.i.i.i

lpad.i.i.i:                                       ; preds = %invoke.cont.i.i.i, %.noexc120
  %43 = landingpad { ptr, i32 }
          cleanup
  call void @_ZNSt7__cxx1118basic_stringstreamIcSt11char_traitsIcESaIcEED1Ev(ptr noundef nonnull align 8 dereferenceable(128) %ss.i.i.i) #20
  br label %ehcleanup26

invoke.cont14:                                    ; preds = %invoke.cont.i.i.i
  call void @_ZNSt7__cxx1118basic_stringstreamIcSt11char_traitsIcESaIcEED1Ev(ptr noundef nonnull align 8 dereferenceable(128) %ss.i.i.i) #20
  call void @llvm.lifetime.end.p0(i64 392, ptr nonnull %ss.i.i.i), !noalias !118
  call void @llvm.lifetime.start.p0(i64 8, ptr nonnull %ref.tmp.i123)
  invoke void @_ZN7testing7MessageC1Ev(ptr noundef nonnull align 8 dereferenceable(8) %ref.tmp.i123)
          to label %.noexc138 unwind label %lpad15

.noexc138:                                        ; preds = %invoke.cont14
  %44 = load ptr, ptr %ref.tmp.i123, align 8
  %add.ptr.i.i124 = getelementptr inbounds i8, ptr %44, i64 16
  %call2.i1.i125 = invoke noundef nonnull align 8 dereferenceable(8) ptr @_ZStlsIcSt11char_traitsIcESaIcEERSt13basic_ostreamIT_T0_ES7_RKNSt7__cxx1112basic_stringIS4_S5_T1_EE(ptr noundef nonnull align 8 dereferenceable(8) %add.ptr.i.i124, ptr noundef nonnull align 8 dereferenceable(32) %ref.tmp13)
          to label %invoke.cont.i132 unwind label %lpad.i126

invoke.cont.i132:                                 ; preds = %.noexc138
  invoke void @_ZN7testing15AssertionResult13AppendMessageERKNS_7MessageE(ptr noundef nonnull align 8 dereferenceable(16) %ref.tmp, ptr noundef nonnull align 8 dereferenceable(8) %ref.tmp.i123)
          to label %invoke.cont2.i133 unwind label %lpad.i126

invoke.cont2.i133:                                ; preds = %invoke.cont.i132
  %45 = load ptr, ptr %ref.tmp.i123, align 8
  %cmp.not.i.i.i134 = icmp eq ptr %45, null
  br i1 %cmp.not.i.i.i134, label %invoke.cont16, label %_ZNKSt14default_deleteINSt7__cxx1118basic_stringstreamIcSt11char_traitsIcESaIcEEEEclEPS5_.exit.i.i.i135

_ZNKSt14default_deleteINSt7__cxx1118basic_stringstreamIcSt11char_traitsIcESaIcEEEEclEPS5_.exit.i.i.i135: ; preds = %invoke.cont2.i133
  %vtable.i.i.i.i136 = load ptr, ptr %45, align 8
  %vfn.i.i.i.i137 = getelementptr inbounds ptr, ptr %vtable.i.i.i.i136, i64 1
  %46 = load ptr, ptr %vfn.i.i.i.i137, align 8
  call void %46(ptr noundef nonnull align 8 dereferenceable(128) %45) #20
  br label %invoke.cont16

lpad.i126:                                        ; preds = %invoke.cont.i132, %.noexc138
  %47 = landingpad { ptr, i32 }
          cleanup
  %48 = load ptr, ptr %ref.tmp.i123, align 8
  %cmp.not.i.i2.i127 = icmp eq ptr %48, null
  br i1 %cmp.not.i.i2.i127, label %ehcleanup, label %_ZNKSt14default_deleteINSt7__cxx1118basic_stringstreamIcSt11char_traitsIcESaIcEEEEclEPS5_.exit.i.i3.i128

_ZNKSt14default_deleteINSt7__cxx1118basic_stringstreamIcSt11char_traitsIcESaIcEEEEclEPS5_.exit.i.i3.i128: ; preds = %lpad.i126
  %vtable.i.i.i4.i129 = load ptr, ptr %48, align 8
  %vfn.i.i.i5.i130 = getelementptr inbounds ptr, ptr %vtable.i.i.i4.i129, i64 1
  %49 = load ptr, ptr %vfn.i.i.i5.i130, align 8
  call void %49(ptr noundef nonnull align 8 dereferenceable(128) %48) #20
  br label %ehcleanup

invoke.cont16:                                    ; preds = %_ZNKSt14default_deleteINSt7__cxx1118basic_stringstreamIcSt11char_traitsIcESaIcEEEEclEPS5_.exit.i.i.i135, %invoke.cont2.i133
  call void @llvm.lifetime.end.p0(i64 8, ptr nonnull %ref.tmp.i123)
  call void @llvm.lifetime.start.p0(i64 8, ptr nonnull %ref.tmp.i140)
  invoke void @_ZN7testing7MessageC1Ev(ptr noundef nonnull align 8 dereferenceable(8) %ref.tmp.i140)
          to label %.noexc155 unwind label %lpad15

.noexc155:                                        ; preds = %invoke.cont16
  %50 = load ptr, ptr %ref.tmp.i140, align 8
  %add.ptr.i.i141 = getelementptr inbounds i8, ptr %50, i64 16
  %call2.i1.i142 = invoke noundef nonnull align 8 dereferenceable(8) ptr @_ZStlsISt11char_traitsIcEERSt13basic_ostreamIcT_ES5_PKc(ptr noundef nonnull align 8 dereferenceable(8) %add.ptr.i.i141, ptr noundef nonnull @.str.55)
          to label %invoke.cont.i149 unwind label %lpad.i143

invoke.cont.i149:                                 ; preds = %.noexc155
  invoke void @_ZN7testing15AssertionResult13AppendMessageERKNS_7MessageE(ptr noundef nonnull align 8 dereferenceable(16) %ref.tmp, ptr noundef nonnull align 8 dereferenceable(8) %ref.tmp.i140)
          to label %invoke.cont2.i150 unwind label %lpad.i143

invoke.cont2.i150:                                ; preds = %invoke.cont.i149
  %51 = load ptr, ptr %ref.tmp.i140, align 8
  %cmp.not.i.i.i151 = icmp eq ptr %51, null
  br i1 %cmp.not.i.i.i151, label %invoke.cont18, label %_ZNKSt14default_deleteINSt7__cxx1118basic_stringstreamIcSt11char_traitsIcESaIcEEEEclEPS5_.exit.i.i.i152

_ZNKSt14default_deleteINSt7__cxx1118basic_stringstreamIcSt11char_traitsIcESaIcEEEEclEPS5_.exit.i.i.i152: ; preds = %invoke.cont2.i150
  %vtable.i.i.i.i153 = load ptr, ptr %51, align 8
  %vfn.i.i.i.i154 = getelementptr inbounds ptr, ptr %vtable.i.i.i.i153, i64 1
  %52 = load ptr, ptr %vfn.i.i.i.i154, align 8
  call void %52(ptr noundef nonnull align 8 dereferenceable(128) %51) #20
  br label %invoke.cont18

lpad.i143:                                        ; preds = %invoke.cont.i149, %.noexc155
  %53 = landingpad { ptr, i32 }
          cleanup
  %54 = load ptr, ptr %ref.tmp.i140, align 8
  %cmp.not.i.i2.i144 = icmp eq ptr %54, null
  br i1 %cmp.not.i.i2.i144, label %ehcleanup, label %_ZNKSt14default_deleteINSt7__cxx1118basic_stringstreamIcSt11char_traitsIcESaIcEEEEclEPS5_.exit.i.i3.i145

_ZNKSt14default_deleteINSt7__cxx1118basic_stringstreamIcSt11char_traitsIcESaIcEEEEclEPS5_.exit.i.i3.i145: ; preds = %lpad.i143
  %vtable.i.i.i4.i146 = load ptr, ptr %54, align 8
  %vfn.i.i.i5.i147 = getelementptr inbounds ptr, ptr %vtable.i.i.i4.i146, i64 1
  %55 = load ptr, ptr %vfn.i.i.i5.i147, align 8
  call void %55(ptr noundef nonnull align 8 dereferenceable(128) %54) #20
  br label %ehcleanup

invoke.cont18:                                    ; preds = %_ZNKSt14default_deleteINSt7__cxx1118basic_stringstreamIcSt11char_traitsIcESaIcEEEEclEPS5_.exit.i.i.i152, %invoke.cont2.i150
  call void @llvm.lifetime.end.p0(i64 8, ptr nonnull %ref.tmp.i140)
  call void @llvm.lifetime.start.p0(i64 392, ptr nonnull %ss.i.i.i158), !noalias !126
  invoke void @_ZNSt7__cxx1118basic_stringstreamIcSt11char_traitsIcESaIcEEC1Ev(ptr noundef nonnull align 8 dereferenceable(128) %ss.i.i.i158)
          to label %.noexc162 unwind label %lpad15

.noexc162:                                        ; preds = %invoke.cont18
  %add.ptr.i.i.i159 = getelementptr inbounds i8, ptr %ss.i.i.i158, i64 16
  %56 = load double, ptr %val2, align 8, !noalias !131
  invoke void @_ZN7testing8internal7PrintToEdPSo(double noundef %56, ptr noundef nonnull %add.ptr.i.i.i159)
          to label %invoke.cont.i.i.i161 unwind label %lpad.i.i.i160, !noalias !131

invoke.cont.i.i.i161:                             ; preds = %.noexc162
  invoke void @_ZNKSt7__cxx1118basic_stringstreamIcSt11char_traitsIcESaIcEE3strEv(ptr nonnull sret(%"class.std::__cxx11::basic_string") align 8 %ref.tmp20, ptr noundef nonnull align 8 dereferenceable(128) %ss.i.i.i158)
          to label %invoke.cont21 unwind label %lpad.i.i.i160

lpad.i.i.i160:                                    ; preds = %invoke.cont.i.i.i161, %.noexc162
  %57 = landingpad { ptr, i32 }
          cleanup
  call void @_ZNSt7__cxx1118basic_stringstreamIcSt11char_traitsIcESaIcEED1Ev(ptr noundef nonnull align 8 dereferenceable(128) %ss.i.i.i158) #20
  br label %ehcleanup

invoke.cont21:                                    ; preds = %invoke.cont.i.i.i161
  call void @_ZNSt7__cxx1118basic_stringstreamIcSt11char_traitsIcESaIcEED1Ev(ptr noundef nonnull align 8 dereferenceable(128) %ss.i.i.i158) #20
  call void @llvm.lifetime.end.p0(i64 392, ptr nonnull %ss.i.i.i158), !noalias !126
  call void @llvm.lifetime.start.p0(i64 8, ptr nonnull %ref.tmp.i165)
  invoke void @_ZN7testing7MessageC1Ev(ptr noundef nonnull align 8 dereferenceable(8) %ref.tmp.i165)
          to label %.noexc180 unwind label %lpad22

.noexc180:                                        ; preds = %invoke.cont21
  %58 = load ptr, ptr %ref.tmp.i165, align 8
  %add.ptr.i.i166 = getelementptr inbounds i8, ptr %58, i64 16
  %call2.i1.i167 = invoke noundef nonnull align 8 dereferenceable(8) ptr @_ZStlsIcSt11char_traitsIcESaIcEERSt13basic_ostreamIT_T0_ES7_RKNSt7__cxx1112basic_stringIS4_S5_T1_EE(ptr noundef nonnull align 8 dereferenceable(8) %add.ptr.i.i166, ptr noundef nonnull align 8 dereferenceable(32) %ref.tmp20)
          to label %invoke.cont.i174 unwind label %lpad.i168

invoke.cont.i174:                                 ; preds = %.noexc180
  invoke void @_ZN7testing15AssertionResult13AppendMessageERKNS_7MessageE(ptr noundef nonnull align 8 dereferenceable(16) %ref.tmp, ptr noundef nonnull align 8 dereferenceable(8) %ref.tmp.i165)
          to label %invoke.cont2.i175 unwind label %lpad.i168

invoke.cont2.i175:                                ; preds = %invoke.cont.i174
  %59 = load ptr, ptr %ref.tmp.i165, align 8
  %cmp.not.i.i.i176 = icmp eq ptr %59, null
  br i1 %cmp.not.i.i.i176, label %invoke.cont23, label %_ZNKSt14default_deleteINSt7__cxx1118basic_stringstreamIcSt11char_traitsIcESaIcEEEEclEPS5_.exit.i.i.i177

_ZNKSt14default_deleteINSt7__cxx1118basic_stringstreamIcSt11char_traitsIcESaIcEEEEclEPS5_.exit.i.i.i177: ; preds = %invoke.cont2.i175
  %vtable.i.i.i.i178 = load ptr, ptr %59, align 8
  %vfn.i.i.i.i179 = getelementptr inbounds ptr, ptr %vtable.i.i.i.i178, i64 1
  %60 = load ptr, ptr %vfn.i.i.i.i179, align 8
  call void %60(ptr noundef nonnull align 8 dereferenceable(128) %59) #20
  br label %invoke.cont23

lpad.i168:                                        ; preds = %invoke.cont.i174, %.noexc180
  %61 = landingpad { ptr, i32 }
          cleanup
  %62 = load ptr, ptr %ref.tmp.i165, align 8
  %cmp.not.i.i2.i169 = icmp eq ptr %62, null
  br i1 %cmp.not.i.i2.i169, label %lpad22.body, label %_ZNKSt14default_deleteINSt7__cxx1118basic_stringstreamIcSt11char_traitsIcESaIcEEEEclEPS5_.exit.i.i3.i170

_ZNKSt14default_deleteINSt7__cxx1118basic_stringstreamIcSt11char_traitsIcESaIcEEEEclEPS5_.exit.i.i3.i170: ; preds = %lpad.i168
  %vtable.i.i.i4.i171 = load ptr, ptr %62, align 8
  %vfn.i.i.i5.i172 = getelementptr inbounds ptr, ptr %vtable.i.i.i4.i171, i64 1
  %63 = load ptr, ptr %vfn.i.i.i5.i172, align 8
  call void %63(ptr noundef nonnull align 8 dereferenceable(128) %62) #20
  br label %lpad22.body

invoke.cont23:                                    ; preds = %_ZNKSt14default_deleteINSt7__cxx1118basic_stringstreamIcSt11char_traitsIcESaIcEEEEclEPS5_.exit.i.i.i177, %invoke.cont2.i175
  call void @llvm.lifetime.end.p0(i64 8, ptr nonnull %ref.tmp.i165)
  invoke void @_ZN7testing15AssertionResultC1ERKS0_(ptr noundef nonnull align 8 dereferenceable(16) %agg.result, ptr noundef nonnull align 8 dereferenceable(16) %ref.tmp)
          to label %invoke.cont25 unwind label %lpad22

invoke.cont25:                                    ; preds = %invoke.cont23
  call void @_ZNSt7__cxx1112basic_stringIcSt11char_traitsIcESaIcEED1Ev(ptr noundef nonnull align 8 dereferenceable(32) %ref.tmp20) #20
  call void @_ZNSt7__cxx1112basic_stringIcSt11char_traitsIcESaIcEED1Ev(ptr noundef nonnull align 8 dereferenceable(32) %ref.tmp13) #20
  %message_.i = getelementptr inbounds %"class.testing::AssertionResult", ptr %ref.tmp, i64 0, i32 1
  %64 = load ptr, ptr %message_.i, align 8
  %cmp.not.i.i = icmp eq ptr %64, null
  br i1 %cmp.not.i.i, label %_ZN7testing15AssertionResultD2Ev.exit, label %_ZNKSt14default_deleteINSt7__cxx1112basic_stringIcSt11char_traitsIcESaIcEEEEclEPS5_.exit.i.i

_ZNKSt14default_deleteINSt7__cxx1112basic_stringIcSt11char_traitsIcESaIcEEEEclEPS5_.exit.i.i: ; preds = %invoke.cont25
  call void @_ZNSt7__cxx1112basic_stringIcSt11char_traitsIcESaIcEED1Ev(ptr noundef nonnull align 8 dereferenceable(32) %64) #20
  call void @_ZdlPv(ptr noundef nonnull %64) #21
  br label %_ZN7testing15AssertionResultD2Ev.exit

_ZN7testing15AssertionResultD2Ev.exit:            ; preds = %invoke.cont25, %_ZNKSt14default_deleteINSt7__cxx1112basic_stringIcSt11char_traitsIcESaIcEEEEclEPS5_.exit.i.i
  ret void

lpad:                                             ; preds = %invoke.cont11, %invoke.cont9, %invoke.cont7, %invoke.cont5, %invoke.cont3, %invoke.cont1, %invoke.cont, %entry
  %65 = landingpad { ptr, i32 }
          cleanup
  br label %ehcleanup26

lpad15:                                           ; preds = %invoke.cont18, %invoke.cont16, %invoke.cont14
  %66 = landingpad { ptr, i32 }
          cleanup
  br label %ehcleanup

lpad22:                                           ; preds = %invoke.cont21, %invoke.cont23
  %67 = landingpad { ptr, i32 }
          cleanup
  br label %lpad22.body

lpad22.body:                                      ; preds = %lpad.i168, %_ZNKSt14default_deleteINSt7__cxx1118basic_stringstreamIcSt11char_traitsIcESaIcEEEEclEPS5_.exit.i.i3.i170, %lpad22
  %eh.lpad-body181 = phi { ptr, i32 } [ %67, %lpad22 ], [ %61, %_ZNKSt14default_deleteINSt7__cxx1118basic_stringstreamIcSt11char_traitsIcESaIcEEEEclEPS5_.exit.i.i3.i170 ], [ %61, %lpad.i168 ]
  call void @_ZNSt7__cxx1112basic_stringIcSt11char_traitsIcESaIcEED1Ev(ptr noundef nonnull align 8 dereferenceable(32) %ref.tmp20) #20
  br label %ehcleanup

ehcleanup:                                        ; preds = %_ZNKSt14default_deleteINSt7__cxx1118basic_stringstreamIcSt11char_traitsIcESaIcEEEEclEPS5_.exit.i.i3.i128, %lpad.i126, %lpad15, %lpad.i.i.i160, %lpad.i143, %_ZNKSt14default_deleteINSt7__cxx1118basic_stringstreamIcSt11char_traitsIcESaIcEEEEclEPS5_.exit.i.i3.i145, %lpad22.body
  %.pn = phi { ptr, i32 } [ %eh.lpad-body181, %lpad22.body ], [ %47, %_ZNKSt14default_deleteINSt7__cxx1118basic_stringstreamIcSt11char_traitsIcESaIcEEEEclEPS5_.exit.i.i3.i128 ], [ %47, %lpad.i126 ], [ %53, %_ZNKSt14default_deleteINSt7__cxx1118basic_stringstreamIcSt11char_traitsIcESaIcEEEEclEPS5_.exit.i.i3.i145 ], [ %53, %lpad.i143 ], [ %66, %lpad15 ], [ %57, %lpad.i.i.i160 ]
  call void @_ZNSt7__cxx1112basic_stringIcSt11char_traitsIcESaIcEED1Ev(ptr noundef nonnull align 8 dereferenceable(32) %ref.tmp13) #20
  br label %ehcleanup26

ehcleanup26:                                      ; preds = %_ZNKSt14default_deleteINSt7__cxx1118basic_stringstreamIcSt11char_traitsIcESaIcEEEEclEPS5_.exit.i.i3.i, %lpad.i, %_ZNKSt14default_deleteINSt7__cxx1118basic_stringstreamIcSt11char_traitsIcESaIcEEEEclEPS5_.exit.i.i3.i27, %lpad.i25, %_ZNKSt14default_deleteINSt7__cxx1118basic_stringstreamIcSt11char_traitsIcESaIcEEEEclEPS5_.exit.i.i3.i66, %lpad.i64, %_ZNKSt14default_deleteINSt7__cxx1118basic_stringstreamIcSt11char_traitsIcESaIcEEEEclEPS5_.exit.i.i3.i106, %lpad.i104, %lpad.i.i.i, %lpad, %lpad.i85, %_ZNKSt14default_deleteINSt7__cxx1118basic_stringstreamIcSt11char_traitsIcESaIcEEEEclEPS5_.exit.i.i3.i87, %lpad.i45, %_ZNKSt14default_deleteINSt7__cxx1118basic_stringstreamIcSt11char_traitsIcESaIcEEEEclEPS5_.exit.i.i3.i47, %lpad.i7, %_ZNKSt14default_deleteINSt7__cxx1118basic_stringstreamIcSt11char_traitsIcESaIcEEEEclEPS5_.exit.i.i3.i9, %ehcleanup
  %.pn.pn = phi { ptr, i32 } [ %.pn, %ehcleanup ], [ %3, %_ZNKSt14default_deleteINSt7__cxx1118basic_stringstreamIcSt11char_traitsIcESaIcEEEEclEPS5_.exit.i.i3.i ], [ %3, %lpad.i ], [ %9, %_ZNKSt14default_deleteINSt7__cxx1118basic_stringstreamIcSt11char_traitsIcESaIcEEEEclEPS5_.exit.i.i3.i9 ], [ %9, %lpad.i7 ], [ %15, %_ZNKSt14default_deleteINSt7__cxx1118basic_stringstreamIcSt11char_traitsIcESaIcEEEEclEPS5_.exit.i.i3.i27 ], [ %15, %lpad.i25 ], [ %21, %_ZNKSt14default_deleteINSt7__cxx1118basic_stringstreamIcSt11char_traitsIcESaIcEEEEclEPS5_.exit.i.i3.i47 ], [ %21, %lpad.i45 ], [ %27, %_ZNKSt14default_deleteINSt7__cxx1118basic_stringstreamIcSt11char_traitsIcESaIcEEEEclEPS5_.exit.i.i3.i66 ], [ %27, %lpad.i64 ], [ %33, %_ZNKSt14default_deleteINSt7__cxx1118basic_stringstreamIcSt11char_traitsIcESaIcEEEEclEPS5_.exit.i.i3.i87 ], [ %33, %lpad.i85 ], [ %39, %_ZNKSt14default_deleteINSt7__cxx1118basic_stringstreamIcSt11char_traitsIcESaIcEEEEclEPS5_.exit.i.i3.i106 ], [ %39, %lpad.i104 ], [ %65, %lpad ], [ %43, %lpad.i.i.i ]
  call void @_ZN7testing15AssertionResultD2Ev(ptr noundef nonnull align 8 dereferenceable(16) %ref.tmp) #20
  resume { ptr, i32 } %.pn.pn
}

declare void @_ZN7testing16AssertionFailureEv(ptr sret(%"class.testing::AssertionResult") align 8) local_unnamed_addr #0

declare void @_ZN7testing15AssertionResultC1ERKS0_(ptr noundef nonnull align 8 dereferenceable(16), ptr noundef nonnull align 8 dereferenceable(16)) unnamed_addr #0

; Function Attrs: mustprogress uwtable
define linkonce_odr dso_local void @_ZN7testing15AssertionResult13AppendMessageERKNS_7MessageE(ptr noundef nonnull align 8 dereferenceable(16) %this, ptr noundef nonnull align 8 dereferenceable(8) %a_message) local_unnamed_addr #4 comdat align 2 personality ptr @__gxx_personality_v0 {
entry:
  %ref.tmp6 = alloca %"class.std::__cxx11::basic_string", align 8
  %message_ = getelementptr inbounds %"class.testing::AssertionResult", ptr %this, i64 0, i32 1
  %0 = load ptr, ptr %message_, align 8
  %cmp.i.not.i = icmp eq ptr %0, null
  br i1 %cmp.i.not.i, label %if.then, label %if.end

if.then:                                          ; preds = %entry
  %call.i = tail call noalias noundef nonnull dereferenceable(32) ptr @_Znwm(i64 noundef 32) #22, !noalias !134
  tail call void @_ZNSt7__cxx1112basic_stringIcSt11char_traitsIcESaIcEEC1Ev(ptr noundef nonnull align 8 dereferenceable(32) %call.i) #20, !noalias !134
  %1 = load ptr, ptr %message_, align 8
  store ptr %call.i, ptr %message_, align 8
  %tobool.not.i.i.i.i = icmp eq ptr %1, null
  br i1 %tobool.not.i.i.i.i, label %if.end, label %_ZNKSt14default_deleteINSt7__cxx1112basic_stringIcSt11char_traitsIcESaIcEEEEclEPS5_.exit.i.i.i.i

_ZNKSt14default_deleteINSt7__cxx1112basic_stringIcSt11char_traitsIcESaIcEEEEclEPS5_.exit.i.i.i.i: ; preds = %if.then
  tail call void @_ZNSt7__cxx1112basic_stringIcSt11char_traitsIcESaIcEED1Ev(ptr noundef nonnull align 8 dereferenceable(32) %1) #20
  tail call void @_ZdlPv(ptr noundef nonnull %1) #21
  %.pre = load ptr, ptr %message_, align 8
  br label %if.end

if.end:                                           ; preds = %if.then, %_ZNKSt14default_deleteINSt7__cxx1112basic_stringIcSt11char_traitsIcESaIcEEEEclEPS5_.exit.i.i.i.i, %entry
  %2 = phi ptr [ %call.i, %if.then ], [ %.pre, %_ZNKSt14default_deleteINSt7__cxx1112basic_stringIcSt11char_traitsIcESaIcEEEEclEPS5_.exit.i.i.i.i ], [ %0, %entry ]
  call void @_ZNK7testing7Message9GetStringB5cxx11Ev(ptr nonnull sret(%"class.std::__cxx11::basic_string") align 8 %ref.tmp6, ptr noundef nonnull align 8 dereferenceable(8) %a_message)
  %call7 = call noundef ptr @_ZNKSt7__cxx1112basic_stringIcSt11char_traitsIcESaIcEE5c_strEv(ptr noundef nonnull align 8 dereferenceable(32) %ref.tmp6) #20
  %call8 = invoke noundef nonnull align 8 dereferenceable(32) ptr @_ZNSt7__cxx1112basic_stringIcSt11char_traitsIcESaIcEE6appendEPKc(ptr noundef nonnull align 8 dereferenceable(32) %2, ptr noundef %call7)
          to label %invoke.cont unwind label %lpad

invoke.cont:                                      ; preds = %if.end
  call void @_ZNSt7__cxx1112basic_stringIcSt11char_traitsIcESaIcEED1Ev(ptr noundef nonnull align 8 dereferenceable(32) %ref.tmp6) #20
  ret void

lpad:                                             ; preds = %if.end
  %3 = landingpad { ptr, i32 }
          cleanup
  call void @_ZNSt7__cxx1112basic_stringIcSt11char_traitsIcESaIcEED1Ev(ptr noundef nonnull align 8 dereferenceable(32) %ref.tmp6) #20
  resume { ptr, i32 } %3
}

declare void @_ZNK7testing7Message9GetStringB5cxx11Ev(ptr sret(%"class.std::__cxx11::basic_string") align 8, ptr noundef nonnull align 8 dereferenceable(8)) local_unnamed_addr #0

; Function Attrs: nounwind
declare void @_ZNSt7__cxx1112basic_stringIcSt11char_traitsIcESaIcEEC1Ev(ptr noundef nonnull align 8 dereferenceable(32)) unnamed_addr #1

declare noundef nonnull align 8 dereferenceable(8) ptr @_ZStlsIcSt11char_traitsIcESaIcEERSt13basic_ostreamIT_T0_ES7_RKNSt7__cxx1112basic_stringIS4_S5_T1_EE(ptr noundef nonnull align 8 dereferenceable(8), ptr noundef nonnull align 8 dereferenceable(32)) local_unnamed_addr #0

; Function Attrs: mustprogress uwtable
define linkonce_odr dso_local void @_ZN7testing8internal7PrintToEdPSo(double noundef %d, ptr noundef %os) local_unnamed_addr #4 comdat {
entry:
  %vtable = load ptr, ptr %os, align 8
  %vbase.offset.ptr = getelementptr i8, ptr %vtable, i64 -24
  %vbase.offset = load i64, ptr %vbase.offset.ptr, align 8
  %add.ptr = getelementptr inbounds i8, ptr %os, i64 %vbase.offset
  %_M_precision.i = getelementptr inbounds %"class.std::ios_base", ptr %add.ptr, i64 0, i32 1
  %0 = load i64, ptr %_M_precision.i, align 8
  %cmp.i = fcmp olt double %d, 0.000000e+00
  %fneg.i = fneg double %d
  %val.addr.0.i = select i1 %cmp.i, double %fneg.i, double %d
  %cmp1.i = fcmp olt double %val.addr.0.i, 1.000000e+06
  br i1 %cmp1.i, label %if.then2.i, label %if.else45.i

if.then2.i:                                       ; preds = %entry
  %cmp3.i = fcmp ult double %val.addr.0.i, 1.000000e+05
  br i1 %cmp3.i, label %if.else.i, label %if.end40.i

if.else.i:                                        ; preds = %if.then2.i
  %cmp5.i = fcmp ult double %val.addr.0.i, 1.000000e+04
  br i1 %cmp5.i, label %if.else7.i, label %if.end40.i

if.else7.i:                                       ; preds = %if.else.i
  %cmp8.i = fcmp ult double %val.addr.0.i, 1.000000e+03
  br i1 %cmp8.i, label %if.else10.i, label %if.end40.i

if.else10.i:                                      ; preds = %if.else7.i
  %cmp11.i = fcmp ult double %val.addr.0.i, 1.000000e+02
  br i1 %cmp11.i, label %if.else13.i, label %if.end40.i

if.else13.i:                                      ; preds = %if.else10.i
  %cmp14.i = fcmp ult double %val.addr.0.i, 1.000000e+01
  br i1 %cmp14.i, label %if.else16.i, label %if.end40.i

if.else16.i:                                      ; preds = %if.else13.i
  %cmp17.i = fcmp ult double %val.addr.0.i, 1.000000e+00
  br i1 %cmp17.i, label %if.else19.i, label %if.end40.i

if.else19.i:                                      ; preds = %if.else16.i
  %cmp20.i = fcmp ult double %val.addr.0.i, 1.000000e-01
  br i1 %cmp20.i, label %if.else22.i, label %if.end40.i

if.else22.i:                                      ; preds = %if.else19.i
  %cmp23.i = fcmp ult double %val.addr.0.i, 1.000000e-02
  br i1 %cmp23.i, label %if.else25.i, label %if.end40.i

if.else25.i:                                      ; preds = %if.else22.i
  %cmp26.i = fcmp ult double %val.addr.0.i, 1.000000e-03
  br i1 %cmp26.i, label %if.else28.i, label %if.end40.i

if.else28.i:                                      ; preds = %if.else25.i
  %cmp29.i = fcmp ult double %val.addr.0.i, 1.000000e-04
  br i1 %cmp29.i, label %if.end40.i, label %if.then30.i

if.then30.i:                                      ; preds = %if.else28.i
  br label %if.end40.i

if.end40.i:                                       ; preds = %if.then30.i, %if.else28.i, %if.else25.i, %if.else22.i, %if.else19.i, %if.else16.i, %if.else13.i, %if.else10.i, %if.else7.i, %if.else.i, %if.then2.i
  %mulfor6.0.i = phi double [ 1.000000e+09, %if.then30.i ], [ 1.000000e+10, %if.else28.i ], [ 1.000000e+00, %if.then2.i ], [ 1.000000e+01, %if.else.i ], [ 1.000000e+02, %if.else7.i ], [ 1.000000e+03, %if.else10.i ], [ 1.000000e+04, %if.else13.i ], [ 1.000000e+05, %if.else16.i ], [ 1.000000e+06, %if.else19.i ], [ 1.000000e+07, %if.else22.i ], [ 1.000000e+08, %if.else25.i ]
  %1 = tail call double @llvm.fmuladd.f64(double %val.addr.0.i, double %mulfor6.0.i, double 5.000000e-01)
  %conv.i = fptosi double %1 to i32
  %conv41.i = sitofp i32 %conv.i to double
  %div.i = fdiv double %conv41.i, %mulfor6.0.i
  %cmp42.i = fcmp oeq double %div.i, %val.addr.0.i
  br i1 %cmp42.i, label %_ZN7testing8internal21AppropriateResolutionIdEEiT_.exit, label %if.end70.i

if.else45.i:                                      ; preds = %entry
  %cmp46.i = fcmp olt double %val.addr.0.i, 1.000000e+10
  br i1 %cmp46.i, label %if.then47.i, label %if.end70.i

if.then47.i:                                      ; preds = %if.else45.i
  %cmp48.i = fcmp ult double %val.addr.0.i, 1.000000e+09
  br i1 %cmp48.i, label %if.else50.i, label %if.end62.i

if.else50.i:                                      ; preds = %if.then47.i
  %cmp51.i = fcmp ult double %val.addr.0.i, 1.000000e+08
  br i1 %cmp51.i, label %if.else53.i, label %if.end62.i

if.else53.i:                                      ; preds = %if.else50.i
  %cmp54.i = fcmp ult double %val.addr.0.i, 1.000000e+07
  br i1 %cmp54.i, label %if.else56.i, label %if.end62.i

if.else56.i:                                      ; preds = %if.else53.i
  %cmp57.i = fcmp ult double %val.addr.0.i, 1.000000e+06
  br i1 %cmp57.i, label %if.end62.i, label %if.then58.i

if.then58.i:                                      ; preds = %if.else56.i
  br label %if.end62.i

if.end62.i:                                       ; preds = %if.then58.i, %if.else56.i, %if.else53.i, %if.else50.i, %if.then47.i
  %divfor6.0.i = phi double [ 1.000000e+01, %if.then58.i ], [ 1.000000e+00, %if.else56.i ], [ 1.000000e+04, %if.then47.i ], [ 1.000000e+03, %if.else50.i ], [ 1.000000e+02, %if.else53.i ]
  %div63.i = fdiv double %val.addr.0.i, %divfor6.0.i
  %add.i = fadd double %div63.i, 5.000000e-01
  %conv64.i = fptosi double %add.i to i32
  %conv65.i = sitofp i32 %conv64.i to double
  %mul.i = fmul double %divfor6.0.i, %conv65.i
  %cmp66.i = fcmp oeq double %mul.i, %val.addr.0.i
  br i1 %cmp66.i, label %_ZN7testing8internal21AppropriateResolutionIdEEiT_.exit, label %if.end70.i

if.end70.i:                                       ; preds = %if.end62.i, %if.else45.i, %if.end40.i
  br label %_ZN7testing8internal21AppropriateResolutionIdEEiT_.exit

_ZN7testing8internal21AppropriateResolutionIdEEiT_.exit: ; preds = %if.end40.i, %if.end62.i, %if.end70.i
  %retval.0.i = phi i64 [ 17, %if.end70.i ], [ 6, %if.end40.i ], [ 6, %if.end62.i ]
  store i64 %retval.0.i, ptr %_M_precision.i, align 8
  %call7 = tail call noundef nonnull align 8 dereferenceable(8) ptr @_ZNSolsEd(ptr noundef nonnull align 8 dereferenceable(8) %os, double noundef %d)
  %vtable8 = load ptr, ptr %os, align 8
  %vbase.offset.ptr9 = getelementptr i8, ptr %vtable8, i64 -24
  %vbase.offset10 = load i64, ptr %vbase.offset.ptr9, align 8
  %add.ptr11 = getelementptr inbounds i8, ptr %os, i64 %vbase.offset10
  %_M_precision.i6 = getelementptr inbounds %"class.std::ios_base", ptr %add.ptr11, i64 0, i32 1
  store i64 %0, ptr %_M_precision.i6, align 8
  ret void
}

declare noundef nonnull align 8 dereferenceable(8) ptr @_ZNSolsEd(ptr noundef nonnull align 8 dereferenceable(8), double noundef) local_unnamed_addr #0

; Function Attrs: mustprogress nocallback nofree nosync nounwind speculatable willreturn memory(none)
declare double @llvm.fmuladd.f64(double, double, double) #14

; Function Attrs: mustprogress nofree norecurse nosync nounwind willreturn memory(none) uwtable
define internal void @_ZN7testing8internal15TestFactoryImplIN12_GLOBAL__N_147PCGEngineTest_VerifyReseedChangesAllValues_TestIN4absl15random_internal10pcg_engineINS5_12pcg64_paramsILm6364136223846793005ELm1442695040888963407EEENS5_16pcg_xsh_rr_64_32EEEEEED2Ev(ptr nocapture nonnull readnone align 8 %this) unnamed_addr #7 align 2 {
entry:
  ret void
}

; Function Attrs: mustprogress nounwind uwtable
define internal void @_ZN7testing8internal15TestFactoryImplIN12_GLOBAL__N_147PCGEngineTest_VerifyReseedChangesAllValues_TestIN4absl15random_internal10pcg_engineINS5_12pcg64_paramsILm6364136223846793005ELm1442695040888963407EEENS5_16pcg_xsh_rr_64_32EEEEEED0Ev(ptr noundef nonnull align 8 dereferenceable(8) %this) unnamed_addr #3 align 2 {
entry:
  tail call void @_ZdlPv(ptr noundef nonnull %this) #21
  ret void
}

; Function Attrs: mustprogress uwtable
define internal noundef nonnull ptr @_ZN7testing8internal15TestFactoryImplIN12_GLOBAL__N_147PCGEngineTest_VerifyReseedChangesAllValues_TestIN4absl15random_internal10pcg_engineINS5_12pcg64_paramsILm6364136223846793005ELm1442695040888963407EEENS5_16pcg_xsh_rr_64_32EEEEEE10CreateTestEv(ptr nocapture nonnull readnone align 8 %this) unnamed_addr #4 align 2 personality ptr @__gxx_personality_v0 {
entry:
  %call = tail call noalias noundef nonnull dereferenceable(16) ptr @_Znwm(i64 noundef 16) #22
  invoke void @_ZN7testing4TestC2Ev(ptr noundef nonnull align 8 dereferenceable(16) %call)
          to label %invoke.cont unwind label %lpad

invoke.cont:                                      ; preds = %entry
  store ptr getelementptr inbounds ({ [8 x ptr] }, ptr @_ZTVN12_GLOBAL__N_147PCGEngineTest_VerifyReseedChangesAllValues_TestIN4absl15random_internal10pcg_engineINS2_12pcg64_paramsILm6364136223846793005ELm1442695040888963407EEENS2_16pcg_xsh_rr_64_32EEEEE, i64 0, inrange i32 0, i64 2), ptr %call, align 8
  ret ptr %call

lpad:                                             ; preds = %entry
  %0 = landingpad { ptr, i32 }
          cleanup
  tail call void @_ZdlPv(ptr noundef nonnull %call) #21
  resume { ptr, i32 } %0
}

; Function Attrs: mustprogress nounwind uwtable
define internal void @_ZN12_GLOBAL__N_147PCGEngineTest_VerifyReseedChangesAllValues_TestIN4absl15random_internal10pcg_engineINS2_12pcg64_paramsILm6364136223846793005ELm1442695040888963407EEENS2_16pcg_xsh_rr_64_32EEEED2Ev(ptr noundef nonnull align 8 dereferenceable(16) %this) unnamed_addr #3 align 2 {
entry:
  tail call void @_ZN7testing4TestD2Ev(ptr noundef nonnull align 8 dereferenceable(16) %this) #20
  ret void
}

; Function Attrs: mustprogress nounwind uwtable
define internal void @_ZN12_GLOBAL__N_147PCGEngineTest_VerifyReseedChangesAllValues_TestIN4absl15random_internal10pcg_engineINS2_12pcg64_paramsILm6364136223846793005ELm1442695040888963407EEENS2_16pcg_xsh_rr_64_32EEEED0Ev(ptr noundef nonnull align 8 dereferenceable(16) %this) unnamed_addr #3 align 2 {
entry:
  tail call void @_ZN7testing4TestD2Ev(ptr noundef nonnull align 8 dereferenceable(16) %this) #20
  tail call void @_ZdlPv(ptr noundef nonnull %this) #21
  ret void
}

; Function Attrs: mustprogress uwtable
define internal void @_ZN12_GLOBAL__N_147PCGEngineTest_VerifyReseedChangesAllValues_TestIN4absl15random_internal10pcg_engineINS2_12pcg64_paramsILm6364136223846793005ELm1442695040888963407EEENS2_16pcg_xsh_rr_64_32EEEE8TestBodyEv(ptr nocapture nonnull readnone align 8 %this) unnamed_addr #4 align 2 personality ptr @__gxx_personality_v0 {
entry:
  %buffer.i.i34 = alloca [2 x i32], align 4
  %buffer.i.i = alloca [2 x i32], align 4
  %seq1 = alloca %"class.std::seed_seq", align 8
  %ref.tmp = alloca [7 x i32], align 4
  %a = alloca [16 x i32], align 16
  %rd = alloca %"class.std::random_device", align 8
  %seq2 = alloca %"class.std::seed_seq", align 8
  %ref.tmp7 = alloca [3 x i32], align 4
  %b = alloca [16 x i32], align 16
  %changed_bits = alloca i64, align 8
  %equal_count = alloca i64, align 8
  %gtest_ar = alloca %"class.testing::AssertionResult", align 8
  %ref.tmp48 = alloca double, align 8
  %ref.tmp52 = alloca %"class.testing::Message", align 8
  %ref.tmp55 = alloca %"class.testing::internal::AssertHelper", align 8
  %gtest_ar65 = alloca %"class.testing::AssertionResult", align 8
  %ref.tmp66 = alloca double, align 8
  %ref.tmp73 = alloca %"class.testing::Message", align 8
  %ref.tmp76 = alloca %"class.testing::internal::AssertHelper", align 8
  %gtest_ar87 = alloca %"class.testing::AssertionResult", align 8
  %ref.tmp96 = alloca %"class.testing::Message", align 8
  %ref.tmp107 = alloca %"class.testing::internal::AssertHelper", align 8
  %gtest_ar117 = alloca %"class.testing::AssertionResult", align 8
  %ref.tmp118 = alloca double, align 8
  %ref.tmp122 = alloca %"class.testing::Message", align 8
  %ref.tmp125 = alloca %"class.testing::internal::AssertHelper", align 8
  call void @llvm.memcpy.p0.p0.i64(ptr noundef nonnull align 4 dereferenceable(28) %ref.tmp, ptr noundef nonnull align 4 dereferenceable(28) @constinit.58, i64 28, i1 false)
  call void @_ZNSt8seed_seqC2IivEESt16initializer_listIT_E(ptr noundef nonnull align 8 dereferenceable(24) %seq1, ptr nonnull %ref.tmp, i64 7)
  call void @llvm.lifetime.start.p0(i64 8, ptr nonnull %buffer.i.i)
  %add.ptr.i.i.i = getelementptr inbounds i32, ptr %buffer.i.i, i64 2
  invoke void @_ZNSt8seed_seq8generateIPjEEvT_S2_(ptr noundef nonnull align 8 dereferenceable(24) %seq1, ptr noundef nonnull %buffer.i.i, ptr noundef nonnull %add.ptr.i.i.i)
          to label %invoke.cont unwind label %lpad

invoke.cont:                                      ; preds = %entry
  %0 = load i32, ptr %buffer.i.i, align 4
  %conv.i.i = zext i32 %0 to i64
  %arrayidx3.i.i = getelementptr inbounds [2 x i32], ptr %buffer.i.i, i64 0, i64 1
  %1 = load i32, ptr %arrayidx3.i.i, align 4
  %conv4.i.i = zext i32 %1 to i64
  %shl.i.i = shl nuw i64 %conv.i.i, 32
  %or.i.i = or disjoint i64 %shl.i.i, %conv4.i.i
  %2 = mul i64 %or.i.i, 6364136223846793005
  %add.i.i.i = add i64 %2, 1876011003808476466
  call void @llvm.lifetime.end.p0(i64 8, ptr nonnull %buffer.i.i)
  %3 = load ptr, ptr %seq1, align 8
  %tobool.not.i.i.i.i = icmp eq ptr %3, null
  br i1 %tobool.not.i.i.i.i, label %for.body.i.preheader, label %if.then.i.i.i.i

if.then.i.i.i.i:                                  ; preds = %invoke.cont
  call void @_ZdlPv(ptr noundef nonnull %3) #21
  br label %for.body.i.preheader

for.body.i.preheader:                             ; preds = %invoke.cont, %if.then.i.i.i.i
  br label %for.body.i

for.body.i:                                       ; preds = %for.body.i.preheader, %for.body.i
  %engine.sroa.0.0 = phi i64 [ %add.i.i.i.i.i.i, %for.body.i ], [ %add.i.i.i, %for.body.i.preheader ]
  %__first.addr.04.i.idx = phi i64 [ %__first.addr.04.i.add, %for.body.i ], [ 0, %for.body.i.preheader ]
  %__first.addr.04.i.ptr = getelementptr inbounds i8, ptr %a, i64 %__first.addr.04.i.idx
  %mul.i.i.i.i.i.i = mul i64 %engine.sroa.0.0, 6364136223846793005
  %add.i.i.i.i.i.i = add i64 %mul.i.i.i.i.i.i, 1442695040888963407
  %4 = lshr i64 %add.i.i.i.i.i.i, 45
  %5 = lshr i64 %add.i.i.i.i.i.i, 27
  %shr2.i.i.i.i.i.i = xor i64 %4, %5
  %conv.i.i.i.i.i.i = trunc i64 %shr2.i.i.i.i.i.i to i32
  %shr3.i.i.i.i.i.i = lshr i64 %add.i.i.i.i.i.i, 59
  %conv4.i.i.i.i.i.i = trunc i64 %shr3.i.i.i.i.i.i to i32
  %or.i.i.i.i.i.i.i.i = call noundef i32 @llvm.fshr.i32(i32 %conv.i.i.i.i.i.i, i32 %conv.i.i.i.i.i.i, i32 %conv4.i.i.i.i.i.i)
  store i32 %or.i.i.i.i.i.i.i.i, ptr %__first.addr.04.i.ptr, align 4
  %__first.addr.04.i.add = add nuw nsw i64 %__first.addr.04.i.idx, 4
  %cmp.not.i = icmp eq i64 %__first.addr.04.i.add, 64
  br i1 %cmp.not.i, label %_ZSt8generateIPjSt17reference_wrapperIN4absl15random_internal10pcg_engineINS3_12pcg64_paramsILm6364136223846793005ELm1442695040888963407EEENS3_16pcg_xsh_rr_64_32EEEEEvT_SA_T0_.exit, label %for.body.i, !llvm.loop !137

_ZSt8generateIPjSt17reference_wrapperIN4absl15random_internal10pcg_engineINS3_12pcg64_paramsILm6364136223846793005ELm1442695040888963407EEENS3_16pcg_xsh_rr_64_32EEEEEvT_SA_T0_.exit: ; preds = %for.body.i
  call void @_ZNSt13random_deviceC2Ev(ptr noundef nonnull align 8 dereferenceable(5000) %rd)
  %call.i29 = invoke noundef i32 @_ZNSt13random_device9_M_getvalEv(ptr noundef nonnull align 8 dereferenceable(5000) %rd)
          to label %invoke.cont10 unwind label %lpad9

invoke.cont10:                                    ; preds = %_ZSt8generateIPjSt17reference_wrapperIN4absl15random_internal10pcg_engineINS3_12pcg64_paramsILm6364136223846793005ELm1442695040888963407EEENS3_16pcg_xsh_rr_64_32EEEEEvT_SA_T0_.exit
  store i32 %call.i29, ptr %ref.tmp7, align 4
  %call.i30 = invoke noundef i32 @_ZNSt13random_device9_M_getvalEv(ptr noundef nonnull align 8 dereferenceable(5000) %rd)
          to label %invoke.cont12 unwind label %lpad9

invoke.cont12:                                    ; preds = %invoke.cont10
  %arrayinit.element = getelementptr inbounds i32, ptr %ref.tmp7, i64 1
  store i32 %call.i30, ptr %arrayinit.element, align 4
  %call.i32 = invoke noundef i32 @_ZNSt13random_device9_M_getvalEv(ptr noundef nonnull align 8 dereferenceable(5000) %rd)
          to label %invoke.cont15 unwind label %lpad9

invoke.cont15:                                    ; preds = %invoke.cont12
  %arrayinit.element14 = getelementptr inbounds i32, ptr %ref.tmp7, i64 2
  store i32 %call.i32, ptr %arrayinit.element14, align 4
  invoke void @_ZNSt8seed_seqC2IjvEESt16initializer_listIT_E(ptr noundef nonnull align 8 dereferenceable(24) %seq2, ptr nonnull %ref.tmp7, i64 3)
          to label %invoke.cont20 unwind label %lpad9

invoke.cont20:                                    ; preds = %invoke.cont15
  call void @llvm.lifetime.start.p0(i64 8, ptr nonnull %buffer.i.i34)
  %add.ptr.i.i.i35 = getelementptr inbounds i32, ptr %buffer.i.i34, i64 2
  invoke void @_ZNSt8seed_seq8generateIPjEEvT_S2_(ptr noundef nonnull align 8 dereferenceable(24) %seq2, ptr noundef nonnull %buffer.i.i34, ptr noundef nonnull %add.ptr.i.i.i35)
          to label %invoke.cont22 unwind label %lpad21

invoke.cont22:                                    ; preds = %invoke.cont20
  %6 = load i32, ptr %buffer.i.i34, align 4
  %conv.i.i36 = zext i32 %6 to i64
  %arrayidx3.i.i37 = getelementptr inbounds [2 x i32], ptr %buffer.i.i34, i64 0, i64 1
  %7 = load i32, ptr %arrayidx3.i.i37, align 4
  %conv4.i.i38 = zext i32 %7 to i64
  %shl.i.i39 = shl nuw i64 %conv.i.i36, 32
  %or.i.i40 = or disjoint i64 %shl.i.i39, %conv4.i.i38
  %8 = mul i64 %or.i.i40, 6364136223846793005
  %add.i.i.i41 = add i64 %8, 1876011003808476466
  call void @llvm.lifetime.end.p0(i64 8, ptr nonnull %buffer.i.i34)
  %9 = load ptr, ptr %seq2, align 8
  %tobool.not.i.i.i.i43 = icmp eq ptr %9, null
  br i1 %tobool.not.i.i.i.i43, label %_ZNSt8seed_seqD2Ev.exit45, label %if.then.i.i.i.i44

if.then.i.i.i.i44:                                ; preds = %invoke.cont22
  call void @_ZdlPv(ptr noundef nonnull %9) #21
  br label %_ZNSt8seed_seqD2Ev.exit45

_ZNSt8seed_seqD2Ev.exit45:                        ; preds = %invoke.cont22, %if.then.i.i.i.i44
  invoke void @_ZNSt13random_device7_M_finiEv(ptr noundef nonnull align 8 dereferenceable(5000) %rd)
          to label %for.body.i47 unwind label %terminate.lpad.i

terminate.lpad.i:                                 ; preds = %_ZNSt8seed_seqD2Ev.exit45
  %10 = landingpad { ptr, i32 }
          catch ptr null
  %11 = extractvalue { ptr, i32 } %10, 0
  call void @__clang_call_terminate(ptr %11) #23
  unreachable

for.body.i47:                                     ; preds = %_ZNSt8seed_seqD2Ev.exit45, %for.body.i47
  %engine.sroa.0.1 = phi i64 [ %add.i.i.i.i.i.i50, %for.body.i47 ], [ %add.i.i.i41, %_ZNSt8seed_seqD2Ev.exit45 ]
  %__first.addr.04.i48.idx = phi i64 [ %__first.addr.04.i48.add, %for.body.i47 ], [ 0, %_ZNSt8seed_seqD2Ev.exit45 ]
  %__first.addr.04.i48.ptr = getelementptr inbounds i8, ptr %b, i64 %__first.addr.04.i48.idx
  %mul.i.i.i.i.i.i49 = mul i64 %engine.sroa.0.1, 6364136223846793005
  %add.i.i.i.i.i.i50 = add i64 %mul.i.i.i.i.i.i49, 1442695040888963407
  %12 = lshr i64 %add.i.i.i.i.i.i50, 45
  %13 = lshr i64 %add.i.i.i.i.i.i50, 27
  %shr2.i.i.i.i.i.i51 = xor i64 %12, %13
  %conv.i.i.i.i.i.i52 = trunc i64 %shr2.i.i.i.i.i.i51 to i32
  %shr3.i.i.i.i.i.i53 = lshr i64 %add.i.i.i.i.i.i50, 59
  %conv4.i.i.i.i.i.i54 = trunc i64 %shr3.i.i.i.i.i.i53 to i32
  %or.i.i.i.i.i.i.i.i55 = call noundef i32 @llvm.fshr.i32(i32 %conv.i.i.i.i.i.i52, i32 %conv.i.i.i.i.i.i52, i32 %conv4.i.i.i.i.i.i54)
  store i32 %or.i.i.i.i.i.i.i.i55, ptr %__first.addr.04.i48.ptr, align 4
  %__first.addr.04.i48.add = add nuw nsw i64 %__first.addr.04.i48.idx, 4
  %cmp.not.i57 = icmp eq i64 %__first.addr.04.i48.add, 64
  br i1 %cmp.not.i57, label %for.body, label %for.body.i47, !llvm.loop !137

for.body:                                         ; preds = %for.body.i47, %for.body
  %i.0161 = phi i64 [ %inc, %for.body ], [ 0, %for.body.i47 ]
  %total_set.0159 = phi i64 [ %add46, %for.body ], [ 0, %for.body.i47 ]
  %unchanged_bits.0158 = phi i64 [ %add38, %for.body ], [ 0, %for.body.i47 ]
  %add154157 = phi i64 [ %add, %for.body ], [ 0, %for.body.i47 ]
  %add35155156 = phi i64 [ %add35, %for.body ], [ 0, %for.body.i47 ]
  %arrayidx = getelementptr inbounds [16 x i32], ptr %a, i64 0, i64 %i.0161
  %14 = load i32, ptr %arrayidx, align 4
  %arrayidx29 = getelementptr inbounds [16 x i32], ptr %b, i64 0, i64 %i.0161
  %15 = load i32, ptr %arrayidx29, align 4
  %cmp30 = icmp eq i32 %14, %15
  %conv = zext i1 %cmp30 to i64
  %add = add i64 %add154157, %conv
  %xor = xor i32 %15, %14
  %16 = call i32 @llvm.ctpop.i32(i32 %xor), !range !138
  %17 = zext nneg i32 %16 to i64
  %add35 = add i64 %add35155156, %17
  %reass.sub = add i64 %unchanged_bits.0158, 32
  %add38 = sub i64 %reass.sub, %17
  %18 = call i32 @llvm.ctpop.i32(i32 %14), !range !138
  %19 = call i32 @llvm.ctpop.i32(i32 %15), !range !138
  %narrow = add nuw nsw i32 %19, %18
  %add45 = zext nneg i32 %narrow to i64
  %add46 = add i64 %total_set.0159, %add45
  %inc = add nuw nsw i64 %i.0161, 1
  %exitcond.not = icmp eq i64 %inc, 16
  br i1 %exitcond.not, label %for.end, label %for.body, !llvm.loop !139

lpad:                                             ; preds = %entry
  %20 = landingpad { ptr, i32 }
          cleanup
  %21 = load ptr, ptr %seq1, align 8
  %tobool.not.i.i.i.i61 = icmp eq ptr %21, null
  br i1 %tobool.not.i.i.i.i61, label %eh.resume, label %if.then.i.i.i.i62

if.then.i.i.i.i62:                                ; preds = %lpad
  call void @_ZdlPv(ptr noundef nonnull %21) #21
  br label %eh.resume

lpad9:                                            ; preds = %invoke.cont12, %invoke.cont10, %_ZSt8generateIPjSt17reference_wrapperIN4absl15random_internal10pcg_engineINS3_12pcg64_paramsILm6364136223846793005ELm1442695040888963407EEENS3_16pcg_xsh_rr_64_32EEEEEvT_SA_T0_.exit, %invoke.cont15
  %22 = landingpad { ptr, i32 }
          cleanup
  br label %ehcleanup

lpad21:                                           ; preds = %invoke.cont20
  %23 = landingpad { ptr, i32 }
          cleanup
  %24 = load ptr, ptr %seq2, align 8
  %tobool.not.i.i.i.i64 = icmp eq ptr %24, null
  br i1 %tobool.not.i.i.i.i64, label %ehcleanup, label %if.then.i.i.i.i65

if.then.i.i.i.i65:                                ; preds = %lpad21
  call void @_ZdlPv(ptr noundef nonnull %24) #21
  br label %ehcleanup

ehcleanup:                                        ; preds = %if.then.i.i.i.i65, %lpad21, %lpad9
  %.pn = phi { ptr, i32 } [ %22, %lpad9 ], [ %23, %lpad21 ], [ %23, %if.then.i.i.i.i65 ]
  invoke void @_ZNSt13random_device7_M_finiEv(ptr noundef nonnull align 8 dereferenceable(5000) %rd)
          to label %eh.resume unwind label %terminate.lpad.i67

terminate.lpad.i67:                               ; preds = %ehcleanup
  %25 = landingpad { ptr, i32 }
          catch ptr null
  %26 = extractvalue { ptr, i32 } %25, 0
  call void @__clang_call_terminate(ptr %26) #23
  unreachable

for.end:                                          ; preds = %for.body
  store i64 %add, ptr %equal_count, align 8
  store i64 %add35, ptr %changed_bits, align 8
  %add49 = add i64 %add35155156, %reass.sub
  %conv50 = uitofp i64 %add49 to double
  %mul = fmul double %conv50, 6.000000e-01
  store double %mul, ptr %ref.tmp48, align 8
  %conv.i = uitofp i64 %add35 to double
  %cmp.i = fcmp ult double %mul, %conv.i
  br i1 %cmp.i, label %if.else.i, label %if.then.i

if.then.i:                                        ; preds = %for.end
  call void @_ZN7testing16AssertionSuccessEv(ptr nonnull sret(%"class.testing::AssertionResult") align 8 %gtest_ar)
  br label %_ZN7testing8internal11CmpHelperLEImdEENS_15AssertionResultEPKcS4_RKT_RKT0_.exit

if.else.i:                                        ; preds = %for.end
  call void @_ZN7testing8internal18CmpHelperOpFailureImdEENS_15AssertionResultEPKcS4_RKT_RKT0_S4_(ptr nonnull sret(%"class.testing::AssertionResult") align 8 %gtest_ar, ptr noundef nonnull @.str.39, ptr noundef nonnull @.str.40, ptr noundef nonnull align 8 dereferenceable(8) %changed_bits, ptr noundef nonnull align 8 dereferenceable(8) %ref.tmp48, ptr noundef nonnull @.str.50)
  br label %_ZN7testing8internal11CmpHelperLEImdEENS_15AssertionResultEPKcS4_RKT_RKT0_.exit

_ZN7testing8internal11CmpHelperLEImdEENS_15AssertionResultEPKcS4_RKT_RKT0_.exit: ; preds = %if.then.i, %if.else.i
  %27 = load i8, ptr %gtest_ar, align 8
  %28 = and i8 %27, 1
  %tobool.i.not = icmp eq i8 %28, 0
  br i1 %tobool.i.not, label %if.else, label %if.end

if.else:                                          ; preds = %_ZN7testing8internal11CmpHelperLEImdEENS_15AssertionResultEPKcS4_RKT_RKT0_.exit
  invoke void @_ZN7testing7MessageC1Ev(ptr noundef nonnull align 8 dereferenceable(8) %ref.tmp52)
          to label %invoke.cont54 unwind label %lpad53

invoke.cont54:                                    ; preds = %if.else
  %message_.i.i = getelementptr inbounds %"class.testing::AssertionResult", ptr %gtest_ar, i64 0, i32 1
  %29 = load ptr, ptr %message_.i.i, align 8
  %cmp.i.i.not.i.i = icmp eq ptr %29, null
  br i1 %cmp.i.i.not.i.i, label %invoke.cont57, label %cond.true.i.i

cond.true.i.i:                                    ; preds = %invoke.cont54
  %call4.i.i = call noundef ptr @_ZNKSt7__cxx1112basic_stringIcSt11char_traitsIcESaIcEE5c_strEv(ptr noundef nonnull align 8 dereferenceable(32) %29) #20
  br label %invoke.cont57

invoke.cont57:                                    ; preds = %cond.true.i.i, %invoke.cont54
  %cond.i.i = phi ptr [ %call4.i.i, %cond.true.i.i ], [ @.str, %invoke.cont54 ]
  invoke void @_ZN7testing8internal12AssertHelperC1ENS_14TestPartResult4TypeEPKciS5_(ptr noundef nonnull align 8 dereferenceable(8) %ref.tmp55, i32 noundef 1, ptr noundef nonnull @.str.2, i32 noundef 86, ptr noundef %cond.i.i)
          to label %invoke.cont59 unwind label %lpad56

invoke.cont59:                                    ; preds = %invoke.cont57
  invoke void @_ZNK7testing8internal12AssertHelperaSERKNS_7MessageE(ptr noundef nonnull align 8 dereferenceable(8) %ref.tmp55, ptr noundef nonnull align 8 dereferenceable(8) %ref.tmp52)
          to label %invoke.cont61 unwind label %lpad60

invoke.cont61:                                    ; preds = %invoke.cont59
  call void @_ZN7testing8internal12AssertHelperD1Ev(ptr noundef nonnull align 8 dereferenceable(8) %ref.tmp55) #20
  %30 = load ptr, ptr %ref.tmp52, align 8
  %cmp.not.i.i = icmp eq ptr %30, null
  br i1 %cmp.not.i.i, label %_ZN7testing7MessageD2Ev.exit, label %_ZNKSt14default_deleteINSt7__cxx1118basic_stringstreamIcSt11char_traitsIcESaIcEEEEclEPS5_.exit.i.i

_ZNKSt14default_deleteINSt7__cxx1118basic_stringstreamIcSt11char_traitsIcESaIcEEEEclEPS5_.exit.i.i: ; preds = %invoke.cont61
  %vtable.i.i.i = load ptr, ptr %30, align 8
  %vfn.i.i.i = getelementptr inbounds ptr, ptr %vtable.i.i.i, i64 1
  %31 = load ptr, ptr %vfn.i.i.i, align 8
  call void %31(ptr noundef nonnull align 8 dereferenceable(128) %30) #20
  br label %_ZN7testing7MessageD2Ev.exit

_ZN7testing7MessageD2Ev.exit:                     ; preds = %invoke.cont61, %_ZNKSt14default_deleteINSt7__cxx1118basic_stringstreamIcSt11char_traitsIcESaIcEEEEclEPS5_.exit.i.i
  store ptr null, ptr %ref.tmp52, align 8
  br label %if.end

lpad53:                                           ; preds = %if.else
  %32 = landingpad { ptr, i32 }
          cleanup
  br label %ehcleanup64

lpad56:                                           ; preds = %invoke.cont57
  %33 = landingpad { ptr, i32 }
          cleanup
  br label %ehcleanup63

lpad60:                                           ; preds = %invoke.cont59
  %34 = landingpad { ptr, i32 }
          cleanup
  call void @_ZN7testing8internal12AssertHelperD1Ev(ptr noundef nonnull align 8 dereferenceable(8) %ref.tmp55) #20
  br label %ehcleanup63

ehcleanup63:                                      ; preds = %lpad60, %lpad56
  %.pn16 = phi { ptr, i32 } [ %34, %lpad60 ], [ %33, %lpad56 ]
  %35 = load ptr, ptr %ref.tmp52, align 8
  %cmp.not.i.i69 = icmp eq ptr %35, null
  br i1 %cmp.not.i.i69, label %_ZN7testing7MessageD2Ev.exit73, label %_ZNKSt14default_deleteINSt7__cxx1118basic_stringstreamIcSt11char_traitsIcESaIcEEEEclEPS5_.exit.i.i70

_ZNKSt14default_deleteINSt7__cxx1118basic_stringstreamIcSt11char_traitsIcESaIcEEEEclEPS5_.exit.i.i70: ; preds = %ehcleanup63
  %vtable.i.i.i71 = load ptr, ptr %35, align 8
  %vfn.i.i.i72 = getelementptr inbounds ptr, ptr %vtable.i.i.i71, i64 1
  %36 = load ptr, ptr %vfn.i.i.i72, align 8
  call void %36(ptr noundef nonnull align 8 dereferenceable(128) %35) #20
  br label %_ZN7testing7MessageD2Ev.exit73

_ZN7testing7MessageD2Ev.exit73:                   ; preds = %ehcleanup63, %_ZNKSt14default_deleteINSt7__cxx1118basic_stringstreamIcSt11char_traitsIcESaIcEEEEclEPS5_.exit.i.i70
  store ptr null, ptr %ref.tmp52, align 8
  br label %ehcleanup64

if.end:                                           ; preds = %_ZN7testing8internal11CmpHelperLEImdEENS_15AssertionResultEPKcS4_RKT_RKT0_.exit, %_ZN7testing7MessageD2Ev.exit
  %message_.i = getelementptr inbounds %"class.testing::AssertionResult", ptr %gtest_ar, i64 0, i32 1
  %37 = load ptr, ptr %message_.i, align 8
  %cmp.not.i.i74 = icmp eq ptr %37, null
  br i1 %cmp.not.i.i74, label %_ZN7testing15AssertionResultD2Ev.exit, label %_ZNKSt14default_deleteINSt7__cxx1112basic_stringIcSt11char_traitsIcESaIcEEEEclEPS5_.exit.i.i

_ZNKSt14default_deleteINSt7__cxx1112basic_stringIcSt11char_traitsIcESaIcEEEEclEPS5_.exit.i.i: ; preds = %if.end
  call void @_ZNSt7__cxx1112basic_stringIcSt11char_traitsIcESaIcEED1Ev(ptr noundef nonnull align 8 dereferenceable(32) %37) #20
  call void @_ZdlPv(ptr noundef nonnull %37) #21
  br label %_ZN7testing15AssertionResultD2Ev.exit

_ZN7testing15AssertionResultD2Ev.exit:            ; preds = %if.end, %_ZNKSt14default_deleteINSt7__cxx1112basic_stringIcSt11char_traitsIcESaIcEEEEclEPS5_.exit.i.i
  store ptr null, ptr %message_.i, align 8
  %38 = load i64, ptr %changed_bits, align 8
  %add67 = add i64 %38, %add38
  %conv68 = uitofp i64 %add67 to double
  %mul69 = fmul double %conv68, 4.000000e-01
  store double %mul69, ptr %ref.tmp66, align 8
  %conv.i75 = uitofp i64 %38 to double
  %cmp.i76 = fcmp ugt double %mul69, %conv.i75
  br i1 %cmp.i76, label %if.else.i78, label %if.then.i77

if.then.i77:                                      ; preds = %_ZN7testing15AssertionResultD2Ev.exit
  call void @_ZN7testing16AssertionSuccessEv(ptr nonnull sret(%"class.testing::AssertionResult") align 8 %gtest_ar65)
  br label %_ZN7testing8internal11CmpHelperGEImdEENS_15AssertionResultEPKcS4_RKT_RKT0_.exit

if.else.i78:                                      ; preds = %_ZN7testing15AssertionResultD2Ev.exit
  call void @_ZN7testing8internal18CmpHelperOpFailureImdEENS_15AssertionResultEPKcS4_RKT_RKT0_S4_(ptr nonnull sret(%"class.testing::AssertionResult") align 8 %gtest_ar65, ptr noundef nonnull @.str.39, ptr noundef nonnull @.str.41, ptr noundef nonnull align 8 dereferenceable(8) %changed_bits, ptr noundef nonnull align 8 dereferenceable(8) %ref.tmp66, ptr noundef nonnull @.str.57)
  br label %_ZN7testing8internal11CmpHelperGEImdEENS_15AssertionResultEPKcS4_RKT_RKT0_.exit

_ZN7testing8internal11CmpHelperGEImdEENS_15AssertionResultEPKcS4_RKT_RKT0_.exit: ; preds = %if.then.i77, %if.else.i78
  %39 = load i8, ptr %gtest_ar65, align 8
  %40 = and i8 %39, 1
  %tobool.i79.not = icmp eq i8 %40, 0
  br i1 %tobool.i79.not, label %if.else72, label %if.end85

ehcleanup64:                                      ; preds = %_ZN7testing7MessageD2Ev.exit73, %lpad53
  %.pn16.pn = phi { ptr, i32 } [ %.pn16, %_ZN7testing7MessageD2Ev.exit73 ], [ %32, %lpad53 ]
  call void @_ZN7testing15AssertionResultD2Ev(ptr noundef nonnull align 8 dereferenceable(16) %gtest_ar) #20
  br label %eh.resume

if.else72:                                        ; preds = %_ZN7testing8internal11CmpHelperGEImdEENS_15AssertionResultEPKcS4_RKT_RKT0_.exit
  invoke void @_ZN7testing7MessageC1Ev(ptr noundef nonnull align 8 dereferenceable(8) %ref.tmp73)
          to label %invoke.cont75 unwind label %lpad74

invoke.cont75:                                    ; preds = %if.else72
  %message_.i.i80 = getelementptr inbounds %"class.testing::AssertionResult", ptr %gtest_ar65, i64 0, i32 1
  %41 = load ptr, ptr %message_.i.i80, align 8
  %cmp.i.i.not.i.i81 = icmp eq ptr %41, null
  br i1 %cmp.i.i.not.i.i81, label %invoke.cont78, label %cond.true.i.i82

cond.true.i.i82:                                  ; preds = %invoke.cont75
  %call4.i.i83 = call noundef ptr @_ZNKSt7__cxx1112basic_stringIcSt11char_traitsIcESaIcEE5c_strEv(ptr noundef nonnull align 8 dereferenceable(32) %41) #20
  br label %invoke.cont78

invoke.cont78:                                    ; preds = %cond.true.i.i82, %invoke.cont75
  %cond.i.i84 = phi ptr [ %call4.i.i83, %cond.true.i.i82 ], [ @.str, %invoke.cont75 ]
  invoke void @_ZN7testing8internal12AssertHelperC1ENS_14TestPartResult4TypeEPKciS5_(ptr noundef nonnull align 8 dereferenceable(8) %ref.tmp76, i32 noundef 1, ptr noundef nonnull @.str.2, i32 noundef 87, ptr noundef %cond.i.i84)
          to label %invoke.cont80 unwind label %lpad77

invoke.cont80:                                    ; preds = %invoke.cont78
  invoke void @_ZNK7testing8internal12AssertHelperaSERKNS_7MessageE(ptr noundef nonnull align 8 dereferenceable(8) %ref.tmp76, ptr noundef nonnull align 8 dereferenceable(8) %ref.tmp73)
          to label %invoke.cont82 unwind label %lpad81

invoke.cont82:                                    ; preds = %invoke.cont80
  call void @_ZN7testing8internal12AssertHelperD1Ev(ptr noundef nonnull align 8 dereferenceable(8) %ref.tmp76) #20
  %42 = load ptr, ptr %ref.tmp73, align 8
  %cmp.not.i.i86 = icmp eq ptr %42, null
  br i1 %cmp.not.i.i86, label %_ZN7testing7MessageD2Ev.exit90, label %_ZNKSt14default_deleteINSt7__cxx1118basic_stringstreamIcSt11char_traitsIcESaIcEEEEclEPS5_.exit.i.i87

_ZNKSt14default_deleteINSt7__cxx1118basic_stringstreamIcSt11char_traitsIcESaIcEEEEclEPS5_.exit.i.i87: ; preds = %invoke.cont82
  %vtable.i.i.i88 = load ptr, ptr %42, align 8
  %vfn.i.i.i89 = getelementptr inbounds ptr, ptr %vtable.i.i.i88, i64 1
  %43 = load ptr, ptr %vfn.i.i.i89, align 8
  call void %43(ptr noundef nonnull align 8 dereferenceable(128) %42) #20
  br label %_ZN7testing7MessageD2Ev.exit90

_ZN7testing7MessageD2Ev.exit90:                   ; preds = %invoke.cont82, %_ZNKSt14default_deleteINSt7__cxx1118basic_stringstreamIcSt11char_traitsIcESaIcEEEEclEPS5_.exit.i.i87
  store ptr null, ptr %ref.tmp73, align 8
  br label %if.end85

lpad74:                                           ; preds = %if.else72
  %44 = landingpad { ptr, i32 }
          cleanup
  br label %ehcleanup86

lpad77:                                           ; preds = %invoke.cont78
  %45 = landingpad { ptr, i32 }
          cleanup
  br label %ehcleanup84

lpad81:                                           ; preds = %invoke.cont80
  %46 = landingpad { ptr, i32 }
          cleanup
  call void @_ZN7testing8internal12AssertHelperD1Ev(ptr noundef nonnull align 8 dereferenceable(8) %ref.tmp76) #20
  br label %ehcleanup84

ehcleanup84:                                      ; preds = %lpad81, %lpad77
  %.pn19 = phi { ptr, i32 } [ %46, %lpad81 ], [ %45, %lpad77 ]
  %47 = load ptr, ptr %ref.tmp73, align 8
  %cmp.not.i.i91 = icmp eq ptr %47, null
  br i1 %cmp.not.i.i91, label %_ZN7testing7MessageD2Ev.exit95, label %_ZNKSt14default_deleteINSt7__cxx1118basic_stringstreamIcSt11char_traitsIcESaIcEEEEclEPS5_.exit.i.i92

_ZNKSt14default_deleteINSt7__cxx1118basic_stringstreamIcSt11char_traitsIcESaIcEEEEclEPS5_.exit.i.i92: ; preds = %ehcleanup84
  %vtable.i.i.i93 = load ptr, ptr %47, align 8
  %vfn.i.i.i94 = getelementptr inbounds ptr, ptr %vtable.i.i.i93, i64 1
  %48 = load ptr, ptr %vfn.i.i.i94, align 8
  call void %48(ptr noundef nonnull align 8 dereferenceable(128) %47) #20
  br label %_ZN7testing7MessageD2Ev.exit95

_ZN7testing7MessageD2Ev.exit95:                   ; preds = %ehcleanup84, %_ZNKSt14default_deleteINSt7__cxx1118basic_stringstreamIcSt11char_traitsIcESaIcEEEEclEPS5_.exit.i.i92
  store ptr null, ptr %ref.tmp73, align 8
  br label %ehcleanup86

if.end85:                                         ; preds = %_ZN7testing8internal11CmpHelperGEImdEENS_15AssertionResultEPKcS4_RKT_RKT0_.exit, %_ZN7testing7MessageD2Ev.exit90
  %message_.i96 = getelementptr inbounds %"class.testing::AssertionResult", ptr %gtest_ar65, i64 0, i32 1
  %49 = load ptr, ptr %message_.i96, align 8
  %cmp.not.i.i97 = icmp eq ptr %49, null
  br i1 %cmp.not.i.i97, label %_ZN7testing15AssertionResultD2Ev.exit99, label %_ZNKSt14default_deleteINSt7__cxx1112basic_stringIcSt11char_traitsIcESaIcEEEEclEPS5_.exit.i.i98

