; ModuleID = 'bench/abseil-cpp/original/periodic_sampler_test.cc.ll'
source_filename = "bench/abseil-cpp/original/periodic_sampler_test.cc.ll"
target datalayout = "e-m:e-p270:32:32-p271:32:32-p272:64:64-i64:64-i128:128-f80:128-n8:16:32:64-S128"
target triple = "x86_64-unknown-linux-gnu"

%"class.std::ios_base::Init" = type { i8 }
%"class.testing::internal::MutexBase" = type { %union.pthread_mutex_t, i8, i64 }
%union.pthread_mutex_t = type { %struct.__pthread_mutex_s }
%struct.__pthread_mutex_s = type { i32, i32, i32, i32, i32, i16, i16, %struct.__pthread_internal_list }
%struct.__pthread_internal_list = type { ptr, ptr }
%"class.std::basic_ostream" = type { ptr, %"class.std::basic_ios" }
%"class.std::basic_ios" = type { %"class.std::ios_base", ptr, i8, i8, ptr, ptr, ptr, ptr }
%"class.std::ios_base" = type { ptr, i64, i64, i32, i32, i32, ptr, %"struct.std::ios_base::_Words", [8 x %"struct.std::ios_base::_Words"], i32, ptr, %"class.std::locale" }
%"struct.std::ios_base::_Words" = type { ptr, i64 }
%"class.std::locale" = type { ptr }
%"class.testing::internal::ThreadLocal" = type { i32, %"class.std::unique_ptr.66" }
%"class.std::unique_ptr.66" = type { %"struct.std::__uniq_ptr_data.67" }
%"struct.std::__uniq_ptr_data.67" = type { %"class.std::__uniq_ptr_impl.68" }
%"class.std::__uniq_ptr_impl.68" = type { %"class.std::tuple.69" }
%"class.std::tuple.69" = type { %"struct.std::_Tuple_impl.70" }
%"struct.std::_Tuple_impl.70" = type { %"struct.std::_Head_base.73" }
%"struct.std::_Head_base.73" = type { ptr }
%"struct.testing::internal::MatcherBase<const std::tuple<> &>::VTable" = type { ptr, ptr, ptr, ptr }
%"struct.testing::internal::MatcherBase<int>::VTable" = type { ptr, ptr, ptr, ptr }
%"struct.testing::internal::MatcherBase<const std::tuple<int> &>::VTable" = type { ptr, ptr, ptr, ptr }
%"struct.testing::internal::MatcherBase<const int &>::VTable" = type { ptr, ptr, ptr, ptr }
%"class.testing::internal::GTestLog" = type { i32 }
%"class.testing::StrictMock" = type { %"class.absl::profiling_internal::(anonymous namespace)::MockPeriodicSampler" }
%"class.absl::profiling_internal::(anonymous namespace)::MockPeriodicSampler" = type { %"class.absl::profiling_internal::PeriodicSamplerBase", %"class.testing::internal::FunctionMocker", %"class.testing::internal::FunctionMocker.19" }
%"class.absl::profiling_internal::PeriodicSamplerBase" = type { ptr, i64, %"class.absl::profiling_internal::ExponentialBiased" }
%"class.absl::profiling_internal::ExponentialBiased" = type <{ i64, double, i8, [7 x i8] }>
%"class.testing::internal::FunctionMocker" = type { %"class.testing::internal::UntypedFunctionMockerBase" }
%"class.testing::internal::UntypedFunctionMockerBase" = type { ptr, ptr, ptr, %"class.std::vector", %"class.std::vector.14" }
%"class.std::vector" = type { %"struct.std::_Vector_base" }
%"struct.std::_Vector_base" = type { %"struct.std::_Vector_base<const void *, std::allocator<const void *>>::_Vector_impl" }
%"struct.std::_Vector_base<const void *, std::allocator<const void *>>::_Vector_impl" = type { %"struct.std::_Vector_base<const void *, std::allocator<const void *>>::_Vector_impl_data" }
%"struct.std::_Vector_base<const void *, std::allocator<const void *>>::_Vector_impl_data" = type { ptr, ptr, ptr }
%"class.std::vector.14" = type { %"struct.std::_Vector_base.15" }
%"struct.std::_Vector_base.15" = type { %"struct.std::_Vector_base<std::shared_ptr<testing::internal::ExpectationBase>, std::allocator<std::shared_ptr<testing::internal::ExpectationBase>>>::_Vector_impl" }
%"struct.std::_Vector_base<std::shared_ptr<testing::internal::ExpectationBase>, std::allocator<std::shared_ptr<testing::internal::ExpectationBase>>>::_Vector_impl" = type { %"struct.std::_Vector_base<std::shared_ptr<testing::internal::ExpectationBase>, std::allocator<std::shared_ptr<testing::internal::ExpectationBase>>>::_Vector_impl_data" }
%"struct.std::_Vector_base<std::shared_ptr<testing::internal::ExpectationBase>, std::allocator<std::shared_ptr<testing::internal::ExpectationBase>>>::_Vector_impl_data" = type { ptr, ptr, ptr }
%"class.testing::internal::FunctionMocker.19" = type { %"class.testing::internal::UntypedFunctionMockerBase" }
%"class.testing::internal::MockSpec" = type <{ ptr, %"class.std::tuple.20", [7 x i8] }>
%"class.std::tuple.20" = type { i8 }
%"class.testing::Action" = type { %"class.std::function" }
%"class.std::function" = type { %"class.std::_Function_base", ptr }
%"class.std::_Function_base" = type { %"union.std::_Any_data", ptr }
%"union.std::_Any_data" = type { %"union.std::_Nocopy_types" }
%"union.std::_Nocopy_types" = type { { i64, i64 } }
%"class.testing::internal::ReturnAction" = type { i32 }
%"class.testing::internal::MockSpec.24" = type { ptr, %"class.std::tuple.25" }
%"class.std::tuple.25" = type { %"struct.std::_Tuple_impl.26" }
%"struct.std::_Tuple_impl.26" = type { %"struct.std::_Head_base.27" }
%"struct.std::_Head_base.27" = type { %"class.testing::Matcher.28" }
%"class.testing::Matcher.28" = type { %"class.testing::internal::MatcherBase.29" }
%"class.testing::internal::MatcherBase.29" = type { %"class.testing::MatcherDescriberInterface", ptr, %"union.testing::internal::MatcherBase<int>::Buffer" }
%"class.testing::MatcherDescriberInterface" = type { ptr }
%"union.testing::internal::MatcherBase<int>::Buffer" = type { ptr }
%"class.testing::OnceAction" = type { %"class.std::function.34" }
%"class.std::function.34" = type { %"class.std::_Function_base", ptr }
%"class.testing::AssertionResult" = type { i8, %"class.std::unique_ptr.36" }
%"class.std::unique_ptr.36" = type { %"struct.std::__uniq_ptr_data.37" }
%"struct.std::__uniq_ptr_data.37" = type { %"class.std::__uniq_ptr_impl.38" }
%"class.std::__uniq_ptr_impl.38" = type { %"class.std::tuple.39" }
%"class.std::tuple.39" = type { %"struct.std::_Tuple_impl.40" }
%"struct.std::_Tuple_impl.40" = type { %"struct.std::_Head_base.43" }
%"struct.std::_Head_base.43" = type { ptr }
%"class.testing::Message" = type { %"class.std::unique_ptr.44" }
%"class.std::unique_ptr.44" = type { %"struct.std::__uniq_ptr_data.45" }
%"struct.std::__uniq_ptr_data.45" = type { %"class.std::__uniq_ptr_impl.46" }
%"class.std::__uniq_ptr_impl.46" = type { %"class.std::tuple.47" }
%"class.std::tuple.47" = type { %"struct.std::_Tuple_impl.48" }
%"struct.std::_Tuple_impl.48" = type { %"struct.std::_Head_base.51" }
%"struct.std::_Head_base.51" = type { ptr }
%"class.testing::internal::AssertHelper" = type { ptr }
%"class.std::__cxx11::basic_string" = type { %"struct.std::__cxx11::basic_string<char>::_Alloc_hider", i64, %union.anon }
%"struct.std::__cxx11::basic_string<char>::_Alloc_hider" = type { ptr }
%union.anon = type { i64, [8 x i8] }
%"class.std::allocator" = type { i8 }
%"class.testing::Cardinality" = type { %"class.std::shared_ptr" }
%"class.std::shared_ptr" = type { %"class.std::__shared_ptr" }
%"class.std::__shared_ptr" = type { ptr, %"class.std::__shared_count" }
%"class.std::__shared_count" = type { ptr }
%"class.std::_Sp_counted_base" = type { ptr, i32, i32 }
%"class.testing::internal::ExpectationBase" = type { ptr, ptr, i32, %"class.std::__cxx11::basic_string", %"class.std::__cxx11::basic_string", i8, %"class.testing::Cardinality", %"class.testing::ExpectationSet", i32, i8, %"class.std::vector", i8, i8, i8, i32, i8, %"class.testing::internal::Mutex" }
%"class.testing::ExpectationSet" = type { %"class.std::set" }
%"class.std::set" = type { %"class.std::_Rb_tree" }
%"class.std::_Rb_tree" = type { %"struct.std::_Rb_tree<testing::Expectation, testing::Expectation, std::_Identity<testing::Expectation>, testing::Expectation::Less>::_Rb_tree_impl" }
%"struct.std::_Rb_tree<testing::Expectation, testing::Expectation, std::_Identity<testing::Expectation>, testing::Expectation::Less>::_Rb_tree_impl" = type { %"struct.std::_Rb_tree_key_compare", %"struct.std::_Rb_tree_header" }
%"struct.std::_Rb_tree_key_compare" = type { %"class.testing::Expectation::Less" }
%"class.testing::Expectation::Less" = type { i8 }
%"struct.std::_Rb_tree_header" = type { %"struct.std::_Rb_tree_node_base", i64 }
%"struct.std::_Rb_tree_node_base" = type { i32, ptr, ptr, ptr }
%"class.testing::internal::Mutex" = type { %"class.testing::internal::MutexBase" }
%"class.testing::internal::TypedExpectation" = type { %"class.testing::internal::ExpectationBase", ptr, %"class.std::tuple.20", %"class.testing::Matcher", %"class.testing::Action" }
%"class.testing::Matcher" = type { %"class.testing::internal::MatcherBase" }
%"class.testing::internal::MatcherBase" = type { %"class.testing::MatcherDescriberInterface", ptr, %"union.testing::internal::MatcherBase<const std::tuple<> &>::Buffer" }
%"union.testing::internal::MatcherBase<const std::tuple<> &>::Buffer" = type { ptr }
%"class.testing::internal::ReturnAction<int>::Impl" = type { %"class.std::shared_ptr.84" }
%"class.std::shared_ptr.84" = type { %"class.std::__shared_ptr.85" }
%"class.std::__shared_ptr.85" = type { ptr, %"class.std::__shared_count" }
%"class.testing::Action.33" = type { %"class.std::function.34" }
%"struct.testing::internal::TypedExpectation<long (int)>::ActionAdaptor" = type { %"class.std::shared_ptr.98" }
%"class.std::shared_ptr.98" = type { %"class.std::__shared_ptr.99" }
%"class.std::__shared_ptr.99" = type { ptr, %"class.std::__shared_count" }
%"class.std::_Sp_counted_ptr_inplace" = type { %"class.std::_Sp_counted_base", %"class.std::_Sp_counted_ptr_inplace<testing::OnceAction<long (int)>, std::allocator<void>, __gnu_cxx::_S_atomic>::_Impl" }
%"class.std::_Sp_counted_ptr_inplace<testing::OnceAction<long (int)>, std::allocator<void>, __gnu_cxx::_S_atomic>::_Impl" = type { %"struct.__gnu_cxx::__aligned_buffer" }
%"struct.__gnu_cxx::__aligned_buffer" = type { %"union.std::aligned_storage<32, 8>::type" }
%"union.std::aligned_storage<32, 8>::type" = type { [32 x i8] }
%"class.testing::internal::ReturnAction<int>::Impl.107" = type { %"class.std::shared_ptr.108" }
%"class.std::shared_ptr.108" = type { %"class.std::__shared_ptr.109" }
%"class.std::__shared_ptr.109" = type { ptr, %"class.std::__shared_count" }
%"class.std::tuple.60" = type { %"struct.std::_Tuple_impl.61" }
%"struct.std::_Tuple_impl.61" = type { %"struct.std::_Head_base.62" }
%"struct.std::_Head_base.62" = type { i32 }
%"class.testing::internal::OnCallSpec" = type { %"class.testing::internal::UntypedOnCallSpecBase", %"class.std::tuple.20", %"class.testing::Matcher", %"class.testing::Action" }
%"class.testing::internal::UntypedOnCallSpecBase" = type { ptr, i32, i32 }
%"class.std::shared_ptr.56" = type { %"class.std::__shared_ptr.57" }
%"class.std::__shared_ptr.57" = type { ptr, %"class.std::__shared_count" }
%"class.testing::internal::DummyMatchResultListener" = type { %"class.testing::MatchResultListener" }
%"class.testing::MatchResultListener" = type { ptr, ptr }
%"class.testing::StringMatchResultListener" = type { %"class.testing::MatchResultListener", %"class.std::__cxx11::basic_stringstream" }
%"class.std::__cxx11::basic_stringstream" = type { %"class.std::basic_iostream.base", %"class.std::__cxx11::basic_stringbuf", %"class.std::basic_ios" }
%"class.std::basic_iostream.base" = type { %"class.std::basic_istream.base", %"class.std::basic_ostream.base" }
%"class.std::basic_istream.base" = type { ptr, i64 }
%"class.std::basic_ostream.base" = type { ptr }
%"class.std::__cxx11::basic_stringbuf" = type { %"class.std::basic_streambuf", i32, %"class.std::__cxx11::basic_string" }
%"class.std::basic_streambuf" = type { ptr, ptr, ptr, ptr, ptr, ptr, ptr, %"class.std::locale" }
%"struct.std::_Rb_tree_node" = type { %"struct.std::_Rb_tree_node_base", %"struct.__gnu_cxx::__aligned_membuf" }
%"struct.__gnu_cxx::__aligned_membuf" = type { [16 x i8] }
%"class.testing::internal::OnCallSpec.59" = type { %"class.testing::internal::UntypedOnCallSpecBase", %"class.std::tuple.25", %"class.testing::Matcher.31", %"class.testing::Action.33" }
%"class.testing::Matcher.31" = type { %"class.testing::internal::MatcherBase.32" }
%"class.testing::internal::MatcherBase.32" = type { %"class.testing::MatcherDescriberInterface", ptr, %"union.testing::internal::MatcherBase<const std::tuple<int> &>::Buffer" }
%"union.testing::internal::MatcherBase<const std::tuple<int> &>::Buffer" = type { ptr }
%"class.testing::internal::TypedExpectation.30" = type { %"class.testing::internal::ExpectationBase", ptr, %"class.std::tuple.25", %"class.testing::Matcher.31", %"class.testing::Action.33" }
%"struct.testing::internal::UntypedFunctionMockerBase::UninterestingCallCleanupHandler" = type { i32, ptr }
%"struct.testing::internal::UntypedFunctionMockerBase::FailureCleanupHandler" = type <{ ptr, ptr, ptr, ptr, i8, i8, [6 x i8] }>
%"class.testing::Expectation" = type { %"class.std::shared_ptr.56" }
%"class.std::_Sp_counted_ptr" = type { %"class.std::_Sp_counted_base", ptr }
%"class.testing::internal::ThreadLocal<testing::Sequence *>::ValueHolder" = type { %"class.testing::internal::ThreadLocalValueHolderBase", ptr }
%"class.testing::internal::ThreadLocalValueHolderBase" = type { ptr }
%"struct.testing::internal::ReturnAction<int>::Impl<int>::State" = type { i32, i32 }
%"class.std::_Sp_counted_ptr.87" = type { %"class.std::_Sp_counted_base", ptr }
%"class.std::_Sp_counted_ptr.97" = type { %"class.std::_Sp_counted_base", ptr }
%"class.std::type_info" = type { ptr, ptr }
%"struct.testing::internal::ReturnAction<int>::Impl<long>::State" = type { i32, i64 }
%"class.std::_Sp_counted_ptr.111" = type { %"class.std::_Sp_counted_base", ptr }
%"class.testing::OnceAction<long (int)>::StdFunctionAdaptor" = type { %"class.std::shared_ptr.112" }
%"class.std::shared_ptr.112" = type { %"class.std::__shared_ptr.113" }
%"class.std::__shared_ptr.113" = type { ptr, %"class.std::__shared_count" }
%"struct.testing::OnceAction<long (int)>::IgnoreIncomingArguments" = type { %"class.testing::internal::ReturnAction<int>::Impl.107" }
%"class.std::_Sp_counted_ptr_inplace.119" = type { %"class.std::_Sp_counted_base", %"class.std::_Sp_counted_ptr_inplace<testing::OnceAction<long (int)>::IgnoreIncomingArguments<testing::internal::ReturnAction<int>::Impl<long>>, std::allocator<void>, __gnu_cxx::_S_atomic>::_Impl" }
%"class.std::_Sp_counted_ptr_inplace<testing::OnceAction<long (int)>::IgnoreIncomingArguments<testing::internal::ReturnAction<int>::Impl<long>>, std::allocator<void>, __gnu_cxx::_S_atomic>::_Impl" = type { %"struct.__gnu_cxx::__aligned_buffer.120" }
%"struct.__gnu_cxx::__aligned_buffer.120" = type { %"union.std::aligned_storage<16, 8>::type" }
%"union.std::aligned_storage<16, 8>::type" = type { [16 x i8] }
%"class.testing::OnceAction.125" = type { %"class.std::function" }
%"struct.testing::internal::TypedExpectation<int ()>::ActionAdaptor" = type { %"class.std::shared_ptr.126" }
%"class.std::shared_ptr.126" = type { %"class.std::__shared_ptr.127" }
%"class.std::__shared_ptr.127" = type { ptr, %"class.std::__shared_count" }
%"class.std::_Sp_counted_ptr_inplace.133" = type { %"class.std::_Sp_counted_base", %"class.std::_Sp_counted_ptr_inplace<testing::OnceAction<int ()>, std::allocator<void>, __gnu_cxx::_S_atomic>::_Impl" }
%"class.std::_Sp_counted_ptr_inplace<testing::OnceAction<int ()>, std::allocator<void>, __gnu_cxx::_S_atomic>::_Impl" = type { %"struct.__gnu_cxx::__aligned_buffer.134" }
%"struct.__gnu_cxx::__aligned_buffer.134" = type { %"union.std::aligned_storage<32, 8>::type" }
%"class.testing::OnceAction<int ()>::StdFunctionAdaptor" = type { %"class.std::shared_ptr.137" }
%"class.std::shared_ptr.137" = type { %"class.std::__shared_ptr.138" }
%"class.std::__shared_ptr.138" = type { ptr, %"class.std::__shared_count" }
%"class.std::_Sp_counted_ptr_inplace.144" = type { %"class.std::_Sp_counted_base", %"class.std::_Sp_counted_ptr_inplace<testing::internal::ReturnAction<int>::Impl<int>, std::allocator<void>, __gnu_cxx::_S_atomic>::_Impl" }
%"class.std::_Sp_counted_ptr_inplace<testing::internal::ReturnAction<int>::Impl<int>, std::allocator<void>, __gnu_cxx::_S_atomic>::_Impl" = type { %"struct.__gnu_cxx::__aligned_buffer.145" }
%"struct.__gnu_cxx::__aligned_buffer.145" = type { %"union.std::aligned_storage<16, 8>::type" }
%"struct.testing::Action<long (int)>::IgnoreArgs" = type { %"class.testing::internal::ReturnAction<int>::Impl.107" }
%"class.testing::internal::PredicateFormatterFromMatcher" = type { %"class.testing::internal::EqMatcher" }
%"class.testing::internal::EqMatcher" = type { %"class.testing::internal::ComparisonBase" }
%"class.testing::internal::ComparisonBase" = type { i32 }
%"class.testing::Matcher.149" = type { %"class.testing::internal::MatcherBase.150" }
%"class.testing::internal::MatcherBase.150" = type { %"class.testing::MatcherDescriberInterface", ptr, %"union.testing::internal::MatcherBase<const int &>::Buffer" }
%"union.testing::internal::MatcherBase<const int &>::Buffer" = type { ptr }
%"class.std::unique_ptr.158" = type { %"struct.std::__uniq_ptr_data.159" }
%"struct.std::__uniq_ptr_data.159" = type { %"class.std::__uniq_ptr_impl.160" }
%"class.std::__uniq_ptr_impl.160" = type { %"class.std::tuple.161" }
%"class.std::tuple.161" = type { %"struct.std::_Tuple_impl.162" }
%"struct.std::_Tuple_impl.162" = type { %"struct.std::_Head_base.165" }
%"struct.std::_Head_base.165" = type { ptr }
%"class.std::thread" = type { %"class.std::thread::id" }
%"class.std::thread::id" = type { i64 }
%struct._Guard = type { ptr }
%"struct.testing::internal::CodeLocation" = type <{ %"class.std::__cxx11::basic_string", i32, [4 x i8] }>

$_ZN7testing8internal16SuiteApiResolverINS_4TestEE19GetSetUpCaseOrSuiteEPKci = comdat any

$_ZN7testing8internal16SuiteApiResolverINS_4TestEE22GetTearDownCaseOrSuiteEPKci = comdat any

$_ZN7testing4Test5SetupEv = comdat any

$_ZN7testing8internal8MockSpecIFivEE18InternalExpectedAtEPKciS5_S5_ = comdat any

$_ZN7testing8internal16TypedExpectationIFivEE5TimesEi = comdat any

$_ZN7testing8internal16TypedExpectationIFivEE14WillRepeatedlyERKNS_6ActionIS2_EE = comdat any

$_ZNK7testing8internal12ReturnActionIiEcvNS_6ActionIFT_DpT0_EEEIiJEvEEv = comdat any

$_ZN7testing8internal8MockSpecIFliEE18InternalExpectedAtEPKciS5_S5_ = comdat any

$_ZN7testing8internal16TypedExpectationIFliEE8WillOnceENS_10OnceActionIS2_EE = comdat any

$_ZNO7testing8internal12ReturnActionIiEcvNS_10OnceActionIFT_DpT0_EEEIlJiEvEEv = comdat any

$_ZN7testing8internal8MockSpecIFliEED2Ev = comdat any

$_ZN7testing7MatcherIiED2Ev = comdat any

$_ZN7testing15AssertionResultD2Ev = comdat any

$_ZN7testing8internal14FunctionMockerIFivEED2Ev = comdat any

$_ZN7testing8internal14FunctionMockerIFivEED0Ev = comdat any

$_ZN7testing8internal14FunctionMockerIFivEE25ClearDefaultActionsLockedEv = comdat any

$_ZNK7testing8internal14FunctionMockerIFivEE32UntypedDescribeUninterestingCallEPKvPSo = comdat any

$_ZN7testing8internal14FunctionMockerIFivEE30UntypedFindMatchingExpectationEPKvPS5_PbPSoS8_ = comdat any

$_ZNK7testing8internal14FunctionMockerIFivEE16UntypedPrintArgsEPKvPSo = comdat any

$_ZNK7testing8internal9MutexBase10AssertHeldEv = comdat any

$_ZN7testing8internal9MutexBase6UnlockEv = comdat any

$_ZN7testing8internal9MutexBase4LockEv = comdat any

$__clang_call_terminate = comdat any

$_ZN7testing7MatcherIRKSt5tupleIJEEED2Ev = comdat any

$_ZN7testing8internal11MatcherBaseIRKSt5tupleIJEEED2Ev = comdat any

$_ZN7testing8internal11MatcherBaseIRKSt5tupleIJEEED0Ev = comdat any

$_ZNK7testing8internal11MatcherBaseIRKSt5tupleIJEEE10DescribeToEPSo = comdat any

$_ZNK7testing8internal11MatcherBaseIRKSt5tupleIJEEE18DescribeNegationToEPSo = comdat any

$_ZNK7testing8internal14FunctionMockerIFivEE23DescribeDefaultActionToERKSt5tupleIJEEPSo = comdat any

$_ZNK7testing8internal14FunctionMockerIFivEE14FindOnCallSpecERKSt5tupleIJEE = comdat any

$_ZN7testing8internal24DummyMatchResultListenerD2Ev = comdat any

$_ZN7testing8internal24DummyMatchResultListenerD0Ev = comdat any

$_ZN7testing8internal16TypedExpectationIFivEE21GetActionForArgumentsEPKNS0_14FunctionMockerIS2_EERKSt5tupleIJEEPSoSC_ = comdat any

$_ZNK7testing8internal16TypedExpectationIFivEE7MatchesERKSt5tupleIJEE = comdat any

$_ZNK7testing8internal14FunctionMockerIFivEE28PrintTriedExpectationsLockedERKSt5tupleIJEEPSo = comdat any

$_ZNK7testing8internal16TypedExpectationIFivEE20ExplainMatchResultToERKSt5tupleIJEEPSo = comdat any

$_ZN7testing25StringMatchResultListenerD2Ev = comdat any

$_ZN7testing14ExpectationSetD2Ev = comdat any

$_ZN7testing25StringMatchResultListenerD0Ev = comdat any

$_ZNSt8_Rb_treeIN7testing11ExpectationES1_St9_IdentityIS1_ENS1_4LessESaIS1_EE8_M_eraseEPSt13_Rb_tree_nodeIS1_E = comdat any

$_ZNK7testing8internal16TypedExpectationIFivEE16GetCurrentActionEPKNS0_14FunctionMockerIS2_EERKSt5tupleIJEE = comdat any

$_ZN7testing8internal14FunctionMockerIFliEED2Ev = comdat any

$_ZN7testing8internal14FunctionMockerIFliEED0Ev = comdat any

$_ZN7testing8internal14FunctionMockerIFliEE25ClearDefaultActionsLockedEv = comdat any

$_ZNK7testing8internal14FunctionMockerIFliEE32UntypedDescribeUninterestingCallEPKvPSo = comdat any

$_ZN7testing8internal14FunctionMockerIFliEE30UntypedFindMatchingExpectationEPKvPS5_PbPSoS8_ = comdat any

$_ZNK7testing8internal14FunctionMockerIFliEE16UntypedPrintArgsEPKvPSo = comdat any

$_ZN7testing8internal10OnCallSpecIFliEED2Ev = comdat any

$_ZN7testing7MatcherIRKSt5tupleIJiEEED2Ev = comdat any

$_ZN7testing8internal11MatcherBaseIRKSt5tupleIJiEEED2Ev = comdat any

$_ZN7testing8internal11MatcherBaseIRKSt5tupleIJiEEED0Ev = comdat any

$_ZNK7testing8internal11MatcherBaseIRKSt5tupleIJiEEE10DescribeToEPSo = comdat any

$_ZNK7testing8internal11MatcherBaseIRKSt5tupleIJiEEE18DescribeNegationToEPSo = comdat any

$_ZNK7testing8internal14FunctionMockerIFliEE23DescribeDefaultActionToERKSt5tupleIJiEEPSo = comdat any

$_ZNK7testing8internal10OnCallSpecIFliEE7MatchesERKSt5tupleIJiEE = comdat any

$_ZN7testing8internal16TypedExpectationIFliEE21GetActionForArgumentsEPKNS0_14FunctionMockerIS2_EERKSt5tupleIJiEEPSoSC_ = comdat any

$_ZNK7testing8internal16TypedExpectationIFliEE7MatchesERKSt5tupleIJiEE = comdat any

$_ZNK7testing8internal14FunctionMockerIFliEE28PrintTriedExpectationsLockedERKSt5tupleIJiEEPSo = comdat any

$_ZNK7testing8internal16TypedExpectationIFliEE20ExplainMatchResultToERKSt5tupleIJiEEPSo = comdat any

$_ZN7testing8internal11TuplePrefixILm1EE22ExplainMatchFailuresToISt5tupleIJNS_7MatcherIiEEEES4_IJiEEEEvRKT_RKT0_PSo = comdat any

$_ZNK7testing8internal11MatcherBaseIiE10DescribeToEPSo = comdat any

$_ZN7testing7MatcherIiED0Ev = comdat any

$_ZNK7testing8internal11MatcherBaseIiE18DescribeNegationToEPSo = comdat any

$_ZN7testing8internal11MatcherBaseIiED2Ev = comdat any

$_ZN7testing8internal11MatcherBaseIiED0Ev = comdat any

$_ZNK7testing8internal16TypedExpectationIFliEE16GetCurrentActionEPKNS0_14FunctionMockerIS2_EERKSt5tupleIJiEE = comdat any

$_ZN7testing8internal14FunctionMockerIFliEE10InvokeWithEOSt5tupleIJiEE = comdat any

$_ZNK7testing8internal14FunctionMockerIFliEE20PerformDefaultActionEOSt5tupleIJiEERKNSt7__cxx1112basic_stringIcSt11char_traitsIcESaIcEEE = comdat any

$_ZN7testing8internal25UntypedFunctionMockerBase31UninterestingCallCleanupHandlerD2Ev = comdat any

$_ZNK7testing8internal14FunctionMockerIFliEE13PerformActionEPKvOSt5tupleIJiEERKNSt7__cxx1112basic_stringIcSt11char_traitsIcESaIcEEE = comdat any

$_ZN7testing8internal25UntypedFunctionMockerBase21FailureCleanupHandlerD2Ev = comdat any

$_ZNK7testing8internal10OnCallSpecIFliEE9GetActionEv = comdat any

$_ZN7testing8internal14FunctionMockerIFivEE10InvokeWithEOSt5tupleIJEE = comdat any

$_ZNK7testing8internal14FunctionMockerIFivEE20PerformDefaultActionEOSt5tupleIJEERKNSt7__cxx1112basic_stringIcSt11char_traitsIcESaIcEEE = comdat any

$_ZNK7testing8internal14FunctionMockerIFivEE13PerformActionEPKvOSt5tupleIJEERKNSt7__cxx1112basic_stringIcSt11char_traitsIcESaIcEEE = comdat any

$_ZNK7testing8internal10OnCallSpecIFivEE9GetActionEv = comdat any

$_ZN7testing8internal14FunctionMockerIFivEE17AddNewExpectationEPKciRKNSt7__cxx1112basic_stringIcSt11char_traitsIcESaIcEEERKSt5tupleIJEE = comdat any

$_ZNSt10shared_ptrIN7testing8internal15ExpectationBaseEED2Ev = comdat any

$_ZN7testing8internal16TypedExpectationIFivEED2Ev = comdat any

$_ZN7testing8internal16TypedExpectationIFivEED0Ev = comdat any

$_ZN7testing8internal16TypedExpectationIFivEE27MaybeDescribeExtraMatcherToEPSo = comdat any

$_ZN7testing8internal16TypedExpectationIFivEE9GetHandleEv = comdat any

$_ZN7testing7MatcherIRKSt5tupleIJEEED0Ev = comdat any

$_ZN7testing8internal11MatcherBaseIRKSt5tupleIJEEE19MatchAndExplainImplINS6_11ValuePolicyINS0_15AnythingMatcherELb1EEEEEDTcldtclsrT_3Getfp_E15MatchAndExplainfp0_clptfp1_6streamEEERKS6_S5_PNS_19MatchResultListenerE = comdat any

$_ZN7testing8internal11MatcherBaseIRKSt5tupleIJEEE12DescribeImplINS6_11ValuePolicyINS0_15AnythingMatcherELb1EEEEEvRKS6_PSob = comdat any

$_ZN7testing8internal11MatcherBaseIRKSt5tupleIJEEE16GetDescriberImplINS6_11ValuePolicyINS0_15AnythingMatcherELb1EEEEEPKNS_25MatcherDescriberInterfaceERKS6_ = comdat any

$_ZNSt15_Sp_counted_ptrIPN7testing8internal16TypedExpectationIFivEEELN9__gnu_cxx12_Lock_policyE2EED2Ev = comdat any

$_ZNSt15_Sp_counted_ptrIPN7testing8internal16TypedExpectationIFivEEELN9__gnu_cxx12_Lock_policyE2EED0Ev = comdat any

$_ZNSt15_Sp_counted_ptrIPN7testing8internal16TypedExpectationIFivEEELN9__gnu_cxx12_Lock_policyE2EE10_M_disposeEv = comdat any

$_ZNSt15_Sp_counted_ptrIPN7testing8internal16TypedExpectationIFivEEELN9__gnu_cxx12_Lock_policyE2EE10_M_destroyEv = comdat any

$_ZNSt15_Sp_counted_ptrIPN7testing8internal16TypedExpectationIFivEEELN9__gnu_cxx12_Lock_policyE2EE14_M_get_deleterERKSt9type_info = comdat any

$_ZNSt6vectorISt10shared_ptrIN7testing8internal15ExpectationBaseEESaIS4_EE17_M_realloc_insertIJRKS4_EEEvN9__gnu_cxx17__normal_iteratorIPS4_S6_EEDpOT_ = comdat any

$_ZNK7testing8internal11ThreadLocalIPNS_8SequenceEE16GetOrCreateValueEv = comdat any

$_ZN7testing11CardinalityD2Ev = comdat any

$_ZN7testing8internal12ReturnActionIiE4ImplIiEC2ERKi = comdat any

$_ZN7testing8internal12ReturnActionIiE4ImplIiED2Ev = comdat any

$_ZNSt15_Sp_counted_ptrIPN7testing8internal12ReturnActionIiE4ImplIiE5StateELN9__gnu_cxx12_Lock_policyE2EED2Ev = comdat any

$_ZNSt15_Sp_counted_ptrIPN7testing8internal12ReturnActionIiE4ImplIiE5StateELN9__gnu_cxx12_Lock_policyE2EED0Ev = comdat any

$_ZNSt15_Sp_counted_ptrIPN7testing8internal12ReturnActionIiE4ImplIiE5StateELN9__gnu_cxx12_Lock_policyE2EE10_M_disposeEv = comdat any

$_ZNSt15_Sp_counted_ptrIPN7testing8internal12ReturnActionIiE4ImplIiE5StateELN9__gnu_cxx12_Lock_policyE2EE10_M_destroyEv = comdat any

$_ZNSt15_Sp_counted_ptrIPN7testing8internal12ReturnActionIiE4ImplIiE5StateELN9__gnu_cxx12_Lock_policyE2EE14_M_get_deleterERKSt9type_info = comdat any

$_ZNSt17_Function_handlerIFivEN7testing8internal12ReturnActionIiE4ImplIiEEE9_M_invokeERKSt9_Any_data = comdat any

$_ZNSt17_Function_handlerIFivEN7testing8internal12ReturnActionIiE4ImplIiEEE10_M_managerERSt9_Any_dataRKS8_St18_Manager_operation = comdat any

$_ZNSt14_Function_base13_Base_managerIN7testing8internal12ReturnActionIiE4ImplIiEEE10_M_managerERSt9_Any_dataRKS8_St18_Manager_operation = comdat any

$_ZN7testing8internal11MatcherBaseIiE19MatchAndExplainImplINS2_11ValuePolicyINS0_9EqMatcherIiEELb1EEEEEDTcldtclsrT_3Getfp_E15MatchAndExplainfp0_clptfp1_6streamEEERKS2_RKiPNS_19MatchResultListenerE = comdat any

$_ZN7testing8internal11MatcherBaseIiE12DescribeImplINS2_11ValuePolicyINS0_9EqMatcherIiEELb1EEEEEvRKS2_PSob = comdat any

$_ZN7testing8internal11MatcherBaseIiE16GetDescriberImplINS2_11ValuePolicyINS0_9EqMatcherIiEELb1EEEEEPKNS_25MatcherDescriberInterfaceERKS2_ = comdat any

$_ZN7testing8internal14FunctionMockerIFliEE17AddNewExpectationEPKciRKNSt7__cxx1112basic_stringIcSt11char_traitsIcESaIcEEERKSt5tupleIJNS_7MatcherIiEEEE = comdat any

$_ZN7testing8internal16TypedExpectationIFliEED2Ev = comdat any

$_ZN7testing8internal16TypedExpectationIFliEED0Ev = comdat any

$_ZN7testing8internal16TypedExpectationIFliEE27MaybeDescribeExtraMatcherToEPSo = comdat any

$_ZN7testing8internal16TypedExpectationIFliEE9GetHandleEv = comdat any

$_ZN7testing7MatcherIRKSt5tupleIJiEEED0Ev = comdat any

$_ZN7testing8internal11MatcherBaseIRKSt5tupleIJiEEE19MatchAndExplainImplINS6_11ValuePolicyINS0_15AnythingMatcherELb1EEEEEDTcldtclsrT_3Getfp_E15MatchAndExplainfp0_clptfp1_6streamEEERKS6_S5_PNS_19MatchResultListenerE = comdat any

$_ZN7testing8internal11MatcherBaseIRKSt5tupleIJiEEE12DescribeImplINS6_11ValuePolicyINS0_15AnythingMatcherELb1EEEEEvRKS6_PSob = comdat any

$_ZN7testing8internal11MatcherBaseIRKSt5tupleIJiEEE16GetDescriberImplINS6_11ValuePolicyINS0_15AnythingMatcherELb1EEEEEPKNS_25MatcherDescriberInterfaceERKS6_ = comdat any

$_ZNSt15_Sp_counted_ptrIPN7testing8internal16TypedExpectationIFliEEELN9__gnu_cxx12_Lock_policyE2EED2Ev = comdat any

$_ZNSt15_Sp_counted_ptrIPN7testing8internal16TypedExpectationIFliEEELN9__gnu_cxx12_Lock_policyE2EED0Ev = comdat any

$_ZNSt15_Sp_counted_ptrIPN7testing8internal16TypedExpectationIFliEEELN9__gnu_cxx12_Lock_policyE2EE10_M_disposeEv = comdat any

$_ZNSt15_Sp_counted_ptrIPN7testing8internal16TypedExpectationIFliEEELN9__gnu_cxx12_Lock_policyE2EE10_M_destroyEv = comdat any

$_ZNSt15_Sp_counted_ptrIPN7testing8internal16TypedExpectationIFliEEELN9__gnu_cxx12_Lock_policyE2EE14_M_get_deleterERKSt9type_info = comdat any

$_ZN7testing8internal16TypedExpectationIFliEE8WillOnceITpTnRiJEvEERS3_NS_6ActionIS2_EE = comdat any

$_ZN7testing8internal16TypedExpectationIFliEE13ActionAdaptorD2Ev = comdat any

$_ZNSt23_Sp_counted_ptr_inplaceIN7testing10OnceActionIFliEEESaIvELN9__gnu_cxx12_Lock_policyE2EED2Ev = comdat any

$_ZNSt23_Sp_counted_ptr_inplaceIN7testing10OnceActionIFliEEESaIvELN9__gnu_cxx12_Lock_policyE2EED0Ev = comdat any

$_ZNSt23_Sp_counted_ptr_inplaceIN7testing10OnceActionIFliEEESaIvELN9__gnu_cxx12_Lock_policyE2EE10_M_disposeEv = comdat any

$_ZNSt23_Sp_counted_ptr_inplaceIN7testing10OnceActionIFliEEESaIvELN9__gnu_cxx12_Lock_policyE2EE10_M_destroyEv = comdat any

$_ZNSt23_Sp_counted_ptr_inplaceIN7testing10OnceActionIFliEEESaIvELN9__gnu_cxx12_Lock_policyE2EE14_M_get_deleterERKSt9type_info = comdat any

$_ZNSt17_Function_handlerIFliEN7testing8internal16TypedExpectationIS0_E13ActionAdaptorEE9_M_invokeERKSt9_Any_dataOi = comdat any

$_ZNSt17_Function_handlerIFliEN7testing8internal16TypedExpectationIS0_E13ActionAdaptorEE10_M_managerERSt9_Any_dataRKS7_St18_Manager_operation = comdat any

$_ZNSt14_Function_base13_Base_managerIN7testing8internal16TypedExpectationIFliEE13ActionAdaptorEE10_M_managerERSt9_Any_dataRKS8_St18_Manager_operation = comdat any

$_ZN7testing8internal12ReturnActionIiE4ImplIlEC2EOi = comdat any

$_ZN7testing10OnceActionIFliEEC2INS_8internal12ReturnActionIiE4ImplIlEETnNSt9enable_ifIXsr8internal11conjunctionINS4_8negationISt7is_sameIS2_NSt5decayIT_E4typeEEEENSA_INS4_11conjunctionIJSt16is_constructibleISF_JSD_EENS4_18is_callable_r_implIvlSF_JiEEEEEEEENSI_IJSK_NSL_IvlSF_JEEEEEEEE5valueEiE4typeELi0EEEOSD_ = comdat any

$_ZN7testing8internal12ReturnActionIiE4ImplIlED2Ev = comdat any

$_ZNSt15_Sp_counted_ptrIPN7testing8internal12ReturnActionIiE4ImplIlE5StateELN9__gnu_cxx12_Lock_policyE2EED2Ev = comdat any

$_ZNSt15_Sp_counted_ptrIPN7testing8internal12ReturnActionIiE4ImplIlE5StateELN9__gnu_cxx12_Lock_policyE2EED0Ev = comdat any

$_ZNSt15_Sp_counted_ptrIPN7testing8internal12ReturnActionIiE4ImplIlE5StateELN9__gnu_cxx12_Lock_policyE2EE10_M_disposeEv = comdat any

$_ZNSt15_Sp_counted_ptrIPN7testing8internal12ReturnActionIiE4ImplIlE5StateELN9__gnu_cxx12_Lock_policyE2EE10_M_destroyEv = comdat any

$_ZNSt15_Sp_counted_ptrIPN7testing8internal12ReturnActionIiE4ImplIlE5StateELN9__gnu_cxx12_Lock_policyE2EE14_M_get_deleterERKSt9type_info = comdat any

$_ZN7testing10OnceActionIFliEE23IgnoreIncomingArgumentsINS_8internal12ReturnActionIiE4ImplIlEEED2Ev = comdat any

$_ZN7testing10OnceActionIFliEE18StdFunctionAdaptorINS2_23IgnoreIncomingArgumentsINS_8internal12ReturnActionIiE4ImplIlEEEEED2Ev = comdat any

$_ZNSt23_Sp_counted_ptr_inplaceIN7testing10OnceActionIFliEE23IgnoreIncomingArgumentsINS0_8internal12ReturnActionIiE4ImplIlEEEESaIvELN9__gnu_cxx12_Lock_policyE2EED2Ev = comdat any

$_ZNSt23_Sp_counted_ptr_inplaceIN7testing10OnceActionIFliEE23IgnoreIncomingArgumentsINS0_8internal12ReturnActionIiE4ImplIlEEEESaIvELN9__gnu_cxx12_Lock_policyE2EED0Ev = comdat any

$_ZNSt23_Sp_counted_ptr_inplaceIN7testing10OnceActionIFliEE23IgnoreIncomingArgumentsINS0_8internal12ReturnActionIiE4ImplIlEEEESaIvELN9__gnu_cxx12_Lock_policyE2EE10_M_disposeEv = comdat any

$_ZNSt23_Sp_counted_ptr_inplaceIN7testing10OnceActionIFliEE23IgnoreIncomingArgumentsINS0_8internal12ReturnActionIiE4ImplIlEEEESaIvELN9__gnu_cxx12_Lock_policyE2EE10_M_destroyEv = comdat any

$_ZNSt23_Sp_counted_ptr_inplaceIN7testing10OnceActionIFliEE23IgnoreIncomingArgumentsINS0_8internal12ReturnActionIiE4ImplIlEEEESaIvELN9__gnu_cxx12_Lock_policyE2EE14_M_get_deleterERKSt9type_info = comdat any

$_ZNSt17_Function_handlerIFliEN7testing10OnceActionIS0_E18StdFunctionAdaptorINS3_23IgnoreIncomingArgumentsINS1_8internal12ReturnActionIiE4ImplIlEEEEEEE9_M_invokeERKSt9_Any_dataOi = comdat any

$_ZNSt17_Function_handlerIFliEN7testing10OnceActionIS0_E18StdFunctionAdaptorINS3_23IgnoreIncomingArgumentsINS1_8internal12ReturnActionIiE4ImplIlEEEEEEE10_M_managerERSt9_Any_dataRKSE_St18_Manager_operation = comdat any

$_ZNSt14_Function_base13_Base_managerIN7testing10OnceActionIFliEE18StdFunctionAdaptorINS4_23IgnoreIncomingArgumentsINS1_8internal12ReturnActionIiE4ImplIlEEEEEEE10_M_managerERSt9_Any_dataRKSF_St18_Manager_operation = comdat any

$_ZN7testing8internal16TypedExpectationIFivEE8WillOnceENS_10OnceActionIS2_EE = comdat any

$_ZNO7testing8internal12ReturnActionIiEcvNS_10OnceActionIFT_DpT0_EEEIiJEvEEv = comdat any

$_ZN7testing8internal16TypedExpectationIFivEE8WillOnceITpTnRiJEvEERS3_NS_6ActionIS2_EE = comdat any

$_ZN7testing8internal16TypedExpectationIFivEE13ActionAdaptorD2Ev = comdat any

$_ZNSt23_Sp_counted_ptr_inplaceIN7testing10OnceActionIFivEEESaIvELN9__gnu_cxx12_Lock_policyE2EED2Ev = comdat any

$_ZNSt23_Sp_counted_ptr_inplaceIN7testing10OnceActionIFivEEESaIvELN9__gnu_cxx12_Lock_policyE2EED0Ev = comdat any

$_ZNSt23_Sp_counted_ptr_inplaceIN7testing10OnceActionIFivEEESaIvELN9__gnu_cxx12_Lock_policyE2EE10_M_disposeEv = comdat any

$_ZNSt23_Sp_counted_ptr_inplaceIN7testing10OnceActionIFivEEESaIvELN9__gnu_cxx12_Lock_policyE2EE10_M_destroyEv = comdat any

$_ZNSt23_Sp_counted_ptr_inplaceIN7testing10OnceActionIFivEEESaIvELN9__gnu_cxx12_Lock_policyE2EE14_M_get_deleterERKSt9type_info = comdat any

$_ZNSt17_Function_handlerIFivEN7testing8internal16TypedExpectationIS0_E13ActionAdaptorEE9_M_invokeERKSt9_Any_data = comdat any

$_ZNSt17_Function_handlerIFivEN7testing8internal16TypedExpectationIS0_E13ActionAdaptorEE10_M_managerERSt9_Any_dataRKS7_St18_Manager_operation = comdat any

$_ZNSt14_Function_base13_Base_managerIN7testing8internal16TypedExpectationIFivEE13ActionAdaptorEE10_M_managerERSt9_Any_dataRKS8_St18_Manager_operation = comdat any

$_ZN7testing8internal12ReturnActionIiE4ImplIiEC2EOi = comdat any

$_ZN7testing10OnceActionIFivEE18StdFunctionAdaptorINS_8internal12ReturnActionIiE4ImplIiEEED2Ev = comdat any

$_ZNSt23_Sp_counted_ptr_inplaceIN7testing8internal12ReturnActionIiE4ImplIiEESaIvELN9__gnu_cxx12_Lock_policyE2EED2Ev = comdat any

$_ZNSt23_Sp_counted_ptr_inplaceIN7testing8internal12ReturnActionIiE4ImplIiEESaIvELN9__gnu_cxx12_Lock_policyE2EED0Ev = comdat any

$_ZNSt23_Sp_counted_ptr_inplaceIN7testing8internal12ReturnActionIiE4ImplIiEESaIvELN9__gnu_cxx12_Lock_policyE2EE10_M_disposeEv = comdat any

$_ZNSt23_Sp_counted_ptr_inplaceIN7testing8internal12ReturnActionIiE4ImplIiEESaIvELN9__gnu_cxx12_Lock_policyE2EE10_M_destroyEv = comdat any

$_ZNSt23_Sp_counted_ptr_inplaceIN7testing8internal12ReturnActionIiE4ImplIiEESaIvELN9__gnu_cxx12_Lock_policyE2EE14_M_get_deleterERKSt9type_info = comdat any

$_ZNSt17_Function_handlerIFivEN7testing10OnceActionIS0_E18StdFunctionAdaptorINS1_8internal12ReturnActionIiE4ImplIiEEEEE9_M_invokeERKSt9_Any_data = comdat any

$_ZNSt17_Function_handlerIFivEN7testing10OnceActionIS0_E18StdFunctionAdaptorINS1_8internal12ReturnActionIiE4ImplIiEEEEE10_M_managerERSt9_Any_dataRKSC_St18_Manager_operation = comdat any

$_ZNSt14_Function_base13_Base_managerIN7testing10OnceActionIFivEE18StdFunctionAdaptorINS1_8internal12ReturnActionIiE4ImplIiEEEEE10_M_managerERSt9_Any_dataRKSD_St18_Manager_operation = comdat any

$_ZN7testing8internal16TypedExpectationIFliEE5TimesEi = comdat any

$_ZN7testing8internal16TypedExpectationIFliEE14WillRepeatedlyERKNS_6ActionIS2_EE = comdat any

$_ZNK7testing8internal12ReturnActionIiEcvNS_6ActionIFT_DpT0_EEEIlJiEvEEv = comdat any

$_ZN7testing8internal12ReturnActionIiE4ImplIlEC2ERKi = comdat any

$_ZN7testing6ActionIFliEE4InitINS_8internal12ReturnActionIiE4ImplIlEEEEvOT_St17integral_constantIbLb0EE = comdat any

$_ZN7testing6ActionIFliEE10IgnoreArgsINS_8internal12ReturnActionIiE4ImplIlEEED2Ev = comdat any

$_ZNSt17_Function_handlerIFliEN7testing6ActionIS0_E10IgnoreArgsINS1_8internal12ReturnActionIiE4ImplIlEEEEE9_M_invokeERKSt9_Any_dataOi = comdat any

$_ZNSt17_Function_handlerIFliEN7testing6ActionIS0_E10IgnoreArgsINS1_8internal12ReturnActionIiE4ImplIlEEEEE10_M_managerERSt9_Any_dataRKSC_St18_Manager_operation = comdat any

$_ZNSt14_Function_base13_Base_managerIN7testing6ActionIFliEE10IgnoreArgsINS1_8internal12ReturnActionIiE4ImplIlEEEEE10_M_managerERSt9_Any_dataRKSD_St18_Manager_operation = comdat any

$_ZNK7testing8internal29PredicateFormatterFromMatcherINS0_9EqMatcherIiEEEclIiEENS_15AssertionResultEPKcRKT_ = comdat any

$_ZNK7testing8internal11MatcherBaseIRKiE10DescribeToEPSo = comdat any

$_ZN7testing8internal20MatchPrintAndExplainIKiRS2_EEbRT_RKNS_7MatcherIT0_EEPNS_19MatchResultListenerE = comdat any

$_ZN7testing7MatcherIRKiED2Ev = comdat any

$_ZN7testing7MatcherIRKiED0Ev = comdat any

$_ZNK7testing8internal11MatcherBaseIRKiE18DescribeNegationToEPSo = comdat any

$_ZN7testing8internal11MatcherBaseIRKiED2Ev = comdat any

$_ZN7testing8internal11MatcherBaseIRKiED0Ev = comdat any

$_ZN7testing8internal11MatcherBaseIRKiE19MatchAndExplainImplINS4_11ValuePolicyINS0_9EqMatcherIiEELb1EEEEEDTcldtclsrT_3Getfp_E15MatchAndExplainfp0_clptfp1_6streamEEERKS4_S3_PNS_19MatchResultListenerE = comdat any

$_ZN7testing8internal11MatcherBaseIRKiE12DescribeImplINS4_11ValuePolicyINS0_9EqMatcherIiEELb1EEEEEvRKS4_PSob = comdat any

$_ZN7testing8internal11MatcherBaseIRKiE16GetDescriberImplINS4_11ValuePolicyINS0_9EqMatcherIiEELb1EEEEEPKNS_25MatcherDescriberInterfaceERKS4_ = comdat any

$_ZN7testing8internal11GetTypeNameB5cxx11ERKSt9type_info = comdat any

$_ZN7testing8internal31CanonicalizeForStdLibVersioningENSt7__cxx1112basic_stringIcSt11char_traitsIcESaIcEEE = comdat any

$_ZN7testing15AssertionResult13AppendMessageERKNS_7MessageE = comdat any

$_ZNSt7__cxx1112basic_stringIcSt11char_traitsIcESaIcEE12_M_constructIPKcEEvT_S8_St20forward_iterator_tag = comdat any

$_ZZNSt7__cxx1112basic_stringIcSt11char_traitsIcESaIcEE12_M_constructIPKcEEvT_S8_St20forward_iterator_tagEN6_GuardD2Ev = comdat any

$_ZTSN7testing8internal15TestFactoryBaseE = comdat any

$_ZTIN7testing8internal15TestFactoryBaseE = comdat any

$_ZTVN7testing8internal14FunctionMockerIFivEEE = comdat any

$_ZTSN7testing8internal14FunctionMockerIFivEEE = comdat any

$_ZTIN7testing8internal14FunctionMockerIFivEEE = comdat any

$_ZTVN7testing8internal11MatcherBaseIRKSt5tupleIJEEEE = comdat any

$_ZTSN7testing8internal11MatcherBaseIRKSt5tupleIJEEEE = comdat any

$_ZTSN7testing25MatcherDescriberInterfaceE = comdat any

$_ZTIN7testing25MatcherDescriberInterfaceE = comdat any

$_ZTIN7testing8internal11MatcherBaseIRKSt5tupleIJEEEE = comdat any

$_ZTVN7testing8internal24DummyMatchResultListenerE = comdat any

$_ZTSN7testing8internal24DummyMatchResultListenerE = comdat any

$_ZTSN7testing19MatchResultListenerE = comdat any

$_ZTIN7testing19MatchResultListenerE = comdat any

$_ZTIN7testing8internal24DummyMatchResultListenerE = comdat any

$_ZTVN7testing25StringMatchResultListenerE = comdat any

$_ZTSN7testing25StringMatchResultListenerE = comdat any

$_ZTIN7testing25StringMatchResultListenerE = comdat any

$_ZTVN7testing8internal14FunctionMockerIFliEEE = comdat any

$_ZTSN7testing8internal14FunctionMockerIFliEEE = comdat any

$_ZTIN7testing8internal14FunctionMockerIFliEEE = comdat any

$_ZTVN7testing8internal11MatcherBaseIRKSt5tupleIJiEEEE = comdat any

$_ZTSN7testing8internal11MatcherBaseIRKSt5tupleIJiEEEE = comdat any

$_ZTIN7testing8internal11MatcherBaseIRKSt5tupleIJiEEEE = comdat any

$_ZTVN7testing7MatcherIiEE = comdat any

$_ZTSN7testing7MatcherIiEE = comdat any

$_ZTSN7testing8internal11MatcherBaseIiEE = comdat any

$_ZTIN7testing8internal11MatcherBaseIiEE = comdat any

$_ZTIN7testing7MatcherIiEE = comdat any

$_ZTVN7testing8internal11MatcherBaseIiEE = comdat any

$_ZN7testing12DefaultValueIlE9producer_E = comdat any

$_ZN7testing12DefaultValueIiE9producer_E = comdat any

$_ZTVN7testing8internal16TypedExpectationIFivEEE = comdat any

$_ZTSN7testing8internal16TypedExpectationIFivEEE = comdat any

$_ZTIN7testing8internal16TypedExpectationIFivEEE = comdat any

$_ZTVN7testing7MatcherIRKSt5tupleIJEEEE = comdat any

$_ZTSN7testing7MatcherIRKSt5tupleIJEEEE = comdat any

$_ZTIN7testing7MatcherIRKSt5tupleIJEEEE = comdat any

$_ZZN7testing8internal11MatcherBaseIRKSt5tupleIJEEE9GetVTableINS6_11ValuePolicyINS0_15AnythingMatcherELb1EEEEEPKNS6_6VTableEvE7kVTable = comdat any

$_ZTVSt15_Sp_counted_ptrIPN7testing8internal16TypedExpectationIFivEEELN9__gnu_cxx12_Lock_policyE2EE = comdat any

$_ZTSSt15_Sp_counted_ptrIPN7testing8internal16TypedExpectationIFivEEELN9__gnu_cxx12_Lock_policyE2EE = comdat any

$_ZTSSt16_Sp_counted_baseILN9__gnu_cxx12_Lock_policyE2EE = comdat any

$_ZTSSt11_Mutex_baseILN9__gnu_cxx12_Lock_policyE2EE = comdat any

$_ZTISt11_Mutex_baseILN9__gnu_cxx12_Lock_policyE2EE = comdat any

$_ZTISt16_Sp_counted_baseILN9__gnu_cxx12_Lock_policyE2EE = comdat any

$_ZTISt15_Sp_counted_ptrIPN7testing8internal16TypedExpectationIFivEEELN9__gnu_cxx12_Lock_policyE2EE = comdat any

$_ZTSN7testing8internal26ThreadLocalValueHolderBaseE = comdat any

$_ZTIN7testing8internal26ThreadLocalValueHolderBaseE = comdat any

$_ZTSN7testing8internal11ThreadLocalIPNS_8SequenceEE11ValueHolderE = comdat any

$_ZTIN7testing8internal11ThreadLocalIPNS_8SequenceEE11ValueHolderE = comdat any

$_ZTVSt15_Sp_counted_ptrIPN7testing8internal12ReturnActionIiE4ImplIiE5StateELN9__gnu_cxx12_Lock_policyE2EE = comdat any

$_ZTSSt15_Sp_counted_ptrIPN7testing8internal12ReturnActionIiE4ImplIiE5StateELN9__gnu_cxx12_Lock_policyE2EE = comdat any

$_ZTISt15_Sp_counted_ptrIPN7testing8internal12ReturnActionIiE4ImplIiE5StateELN9__gnu_cxx12_Lock_policyE2EE = comdat any

$_ZTSN7testing8internal12ReturnActionIiE4ImplIiEE = comdat any

$_ZTIN7testing8internal12ReturnActionIiE4ImplIiEE = comdat any

$_ZZN7testing8internal11MatcherBaseIiE9GetVTableINS2_11ValuePolicyINS0_9EqMatcherIiEELb1EEEEEPKNS2_6VTableEvE7kVTable = comdat any

$_ZTVN7testing8internal16TypedExpectationIFliEEE = comdat any

$_ZTSN7testing8internal16TypedExpectationIFliEEE = comdat any

$_ZTIN7testing8internal16TypedExpectationIFliEEE = comdat any

$_ZTVN7testing7MatcherIRKSt5tupleIJiEEEE = comdat any

$_ZTSN7testing7MatcherIRKSt5tupleIJiEEEE = comdat any

$_ZTIN7testing7MatcherIRKSt5tupleIJiEEEE = comdat any

$_ZZN7testing8internal11MatcherBaseIRKSt5tupleIJiEEE9GetVTableINS6_11ValuePolicyINS0_15AnythingMatcherELb1EEEEEPKNS6_6VTableEvE7kVTable = comdat any

$_ZTVSt15_Sp_counted_ptrIPN7testing8internal16TypedExpectationIFliEEELN9__gnu_cxx12_Lock_policyE2EE = comdat any

$_ZTSSt15_Sp_counted_ptrIPN7testing8internal16TypedExpectationIFliEEELN9__gnu_cxx12_Lock_policyE2EE = comdat any

$_ZTISt15_Sp_counted_ptrIPN7testing8internal16TypedExpectationIFliEEELN9__gnu_cxx12_Lock_policyE2EE = comdat any

$_ZTVSt23_Sp_counted_ptr_inplaceIN7testing10OnceActionIFliEEESaIvELN9__gnu_cxx12_Lock_policyE2EE = comdat any

$_ZTSSt23_Sp_counted_ptr_inplaceIN7testing10OnceActionIFliEEESaIvELN9__gnu_cxx12_Lock_policyE2EE = comdat any

$_ZTISt23_Sp_counted_ptr_inplaceIN7testing10OnceActionIFliEEESaIvELN9__gnu_cxx12_Lock_policyE2EE = comdat any

$_ZTSSt19_Sp_make_shared_tag = comdat any

$_ZZNSt19_Sp_make_shared_tag5_S_tiEvE5__tag = comdat any

$_ZTSN7testing8internal16TypedExpectationIFliEE13ActionAdaptorE = comdat any

$_ZTIN7testing8internal16TypedExpectationIFliEE13ActionAdaptorE = comdat any

$_ZTVSt15_Sp_counted_ptrIPN7testing8internal12ReturnActionIiE4ImplIlE5StateELN9__gnu_cxx12_Lock_policyE2EE = comdat any

$_ZTSSt15_Sp_counted_ptrIPN7testing8internal12ReturnActionIiE4ImplIlE5StateELN9__gnu_cxx12_Lock_policyE2EE = comdat any

$_ZTISt15_Sp_counted_ptrIPN7testing8internal12ReturnActionIiE4ImplIlE5StateELN9__gnu_cxx12_Lock_policyE2EE = comdat any

$_ZTVSt23_Sp_counted_ptr_inplaceIN7testing10OnceActionIFliEE23IgnoreIncomingArgumentsINS0_8internal12ReturnActionIiE4ImplIlEEEESaIvELN9__gnu_cxx12_Lock_policyE2EE = comdat any

$_ZTSSt23_Sp_counted_ptr_inplaceIN7testing10OnceActionIFliEE23IgnoreIncomingArgumentsINS0_8internal12ReturnActionIiE4ImplIlEEEESaIvELN9__gnu_cxx12_Lock_policyE2EE = comdat any

$_ZTISt23_Sp_counted_ptr_inplaceIN7testing10OnceActionIFliEE23IgnoreIncomingArgumentsINS0_8internal12ReturnActionIiE4ImplIlEEEESaIvELN9__gnu_cxx12_Lock_policyE2EE = comdat any

$_ZTSN7testing10OnceActionIFliEE18StdFunctionAdaptorINS2_23IgnoreIncomingArgumentsINS_8internal12ReturnActionIiE4ImplIlEEEEEE = comdat any

$_ZTIN7testing10OnceActionIFliEE18StdFunctionAdaptorINS2_23IgnoreIncomingArgumentsINS_8internal12ReturnActionIiE4ImplIlEEEEEE = comdat any

$_ZTVSt23_Sp_counted_ptr_inplaceIN7testing10OnceActionIFivEEESaIvELN9__gnu_cxx12_Lock_policyE2EE = comdat any

$_ZTSSt23_Sp_counted_ptr_inplaceIN7testing10OnceActionIFivEEESaIvELN9__gnu_cxx12_Lock_policyE2EE = comdat any

$_ZTISt23_Sp_counted_ptr_inplaceIN7testing10OnceActionIFivEEESaIvELN9__gnu_cxx12_Lock_policyE2EE = comdat any

$_ZTSN7testing8internal16TypedExpectationIFivEE13ActionAdaptorE = comdat any

$_ZTIN7testing8internal16TypedExpectationIFivEE13ActionAdaptorE = comdat any

$_ZTVSt23_Sp_counted_ptr_inplaceIN7testing8internal12ReturnActionIiE4ImplIiEESaIvELN9__gnu_cxx12_Lock_policyE2EE = comdat any

$_ZTSSt23_Sp_counted_ptr_inplaceIN7testing8internal12ReturnActionIiE4ImplIiEESaIvELN9__gnu_cxx12_Lock_policyE2EE = comdat any

$_ZTISt23_Sp_counted_ptr_inplaceIN7testing8internal12ReturnActionIiE4ImplIiEESaIvELN9__gnu_cxx12_Lock_policyE2EE = comdat any

$_ZTSN7testing10OnceActionIFivEE18StdFunctionAdaptorINS_8internal12ReturnActionIiE4ImplIiEEEE = comdat any

$_ZTIN7testing10OnceActionIFivEE18StdFunctionAdaptorINS_8internal12ReturnActionIiE4ImplIiEEEE = comdat any

$_ZTSN7testing6ActionIFliEE10IgnoreArgsINS_8internal12ReturnActionIiE4ImplIlEEEE = comdat any

$_ZTIN7testing6ActionIFliEE10IgnoreArgsINS_8internal12ReturnActionIiE4ImplIlEEEE = comdat any

$_ZTVN7testing7MatcherIRKiEE = comdat any

$_ZTSN7testing7MatcherIRKiEE = comdat any

$_ZTSN7testing8internal11MatcherBaseIRKiEE = comdat any

$_ZTIN7testing8internal11MatcherBaseIRKiEE = comdat any

$_ZTIN7testing7MatcherIRKiEE = comdat any

$_ZTVN7testing8internal11MatcherBaseIRKiEE = comdat any

$_ZZN7testing8internal11MatcherBaseIRKiE9GetVTableINS4_11ValuePolicyINS0_9EqMatcherIiEELb1EEEEEPKNS4_6VTableEvE7kVTable = comdat any

$_ZZN7testing8internal31CanonicalizeForStdLibVersioningENSt7__cxx1112basic_stringIcSt11char_traitsIcESaIcEEEE6prefix = comdat any

$_ZZN7testing8internal31CanonicalizeForStdLibVersioningENSt7__cxx1112basic_stringIcSt11char_traitsIcESaIcEEEE9to_search = comdat any

$_ZZN7testing8internal31CanonicalizeForStdLibVersioningENSt7__cxx1112basic_stringIcSt11char_traitsIcESaIcEEEE11replace_str = comdat any

@_ZStL8__ioinit = internal global %"class.std::ios_base::Init" zeroinitializer, align 1
@__dso_handle = external hidden global i8
@_ZN4absl18profiling_internal12_GLOBAL__N_135PeriodicSamplerBaseTest_Sample_Test10test_info_E = internal unnamed_addr global ptr null, align 8
@.str = private unnamed_addr constant [24 x i8] c"PeriodicSamplerBaseTest\00", align 1
@.str.2 = private unnamed_addr constant [7 x i8] c"Sample\00", align 1
@.str.3 = private unnamed_addr constant [148 x i8] c"generated/home/dtcxzyw/WorkSpace/Projects/compilers/llvm-opt-benchmark/bench/abseil-cpp/abseil-cpp/absl/profiling/internal/periodic_sampler_test.cc\00", align 1
@_ZN4absl18profiling_internal12_GLOBAL__N_146PeriodicSamplerBaseTest_ImmediatelySample_Test10test_info_E = internal unnamed_addr global ptr null, align 8
@.str.5 = private unnamed_addr constant [18 x i8] c"ImmediatelySample\00", align 1
@_ZN4absl18profiling_internal12_GLOBAL__N_137PeriodicSamplerBaseTest_Disabled_Test10test_info_E = internal unnamed_addr global ptr null, align 8
@.str.7 = private unnamed_addr constant [9 x i8] c"Disabled\00", align 1
@_ZN4absl18profiling_internal12_GLOBAL__N_137PeriodicSamplerBaseTest_AlwaysOn_Test10test_info_E = internal unnamed_addr global ptr null, align 8
@.str.9 = private unnamed_addr constant [9 x i8] c"AlwaysOn\00", align 1
@_ZN4absl18profiling_internal12_GLOBAL__N_136PeriodicSamplerBaseTest_Disable_Test10test_info_E = internal unnamed_addr global ptr null, align 8
@.str.11 = private unnamed_addr constant [8 x i8] c"Disable\00", align 1
@_ZN4absl18profiling_internal12_GLOBAL__N_135PeriodicSamplerBaseTest_Enable_Test10test_info_E = internal unnamed_addr global ptr null, align 8
@.str.13 = private unnamed_addr constant [7 x i8] c"Enable\00", align 1
@_ZN4absl18profiling_internal12_GLOBAL__N_143PeriodicSamplerTest_ConstructConstInit_Test10test_info_E = internal unnamed_addr global ptr null, align 8
@.str.15 = private unnamed_addr constant [20 x i8] c"PeriodicSamplerTest\00", align 1
@.str.16 = private unnamed_addr constant [19 x i8] c"ConstructConstInit\00", align 1
@_ZN4absl18profiling_internal12_GLOBAL__N_139PeriodicSamplerTest_DefaultPeriod0_Test10test_info_E = internal unnamed_addr global ptr null, align 8
@.str.18 = private unnamed_addr constant [15 x i8] c"DefaultPeriod0\00", align 1
@_ZN4absl18profiling_internal12_GLOBAL__N_138PeriodicSamplerTest_DefaultPeriod_Test10test_info_E = internal unnamed_addr global ptr null, align 8
@.str.20 = private unnamed_addr constant [14 x i8] c"DefaultPeriod\00", align 1
@_ZN4absl18profiling_internal12_GLOBAL__N_140PeriodicSamplerTest_SetGlobalPeriod_Test10test_info_E = internal unnamed_addr global ptr null, align 8
@.str.22 = private unnamed_addr constant [16 x i8] c"SetGlobalPeriod\00", align 1
@_ZTVN7testing8internal15TestFactoryImplIN4absl18profiling_internal12_GLOBAL__N_135PeriodicSamplerBaseTest_Sample_TestEEE = internal unnamed_addr constant { [5 x ptr] } { [5 x ptr] [ptr null, ptr @_ZTIN7testing8internal15TestFactoryImplIN4absl18profiling_internal12_GLOBAL__N_135PeriodicSamplerBaseTest_Sample_TestEEE, ptr @_ZN7testing8internal15TestFactoryImplIN4absl18profiling_internal12_GLOBAL__N_135PeriodicSamplerBaseTest_Sample_TestEED2Ev, ptr @_ZN7testing8internal15TestFactoryImplIN4absl18profiling_internal12_GLOBAL__N_135PeriodicSamplerBaseTest_Sample_TestEED0Ev, ptr @_ZN7testing8internal15TestFactoryImplIN4absl18profiling_internal12_GLOBAL__N_135PeriodicSamplerBaseTest_Sample_TestEE10CreateTestEv] }, align 8
@_ZTVN10__cxxabiv120__si_class_type_infoE = external global [0 x ptr]
@_ZTSN7testing8internal15TestFactoryImplIN4absl18profiling_internal12_GLOBAL__N_135PeriodicSamplerBaseTest_Sample_TestEEE = internal constant [117 x i8] c"N7testing8internal15TestFactoryImplIN4absl18profiling_internal12_GLOBAL__N_135PeriodicSamplerBaseTest_Sample_TestEEE\00", align 1
@_ZTVN10__cxxabiv117__class_type_infoE = external global [0 x ptr]
@_ZTSN7testing8internal15TestFactoryBaseE = linkonce_odr dso_local constant [37 x i8] c"N7testing8internal15TestFactoryBaseE\00", comdat, align 1
@_ZTIN7testing8internal15TestFactoryBaseE = linkonce_odr dso_local constant { ptr, ptr } { ptr getelementptr inbounds (ptr, ptr @_ZTVN10__cxxabiv117__class_type_infoE, i64 2), ptr @_ZTSN7testing8internal15TestFactoryBaseE }, comdat, align 8
@_ZTIN7testing8internal15TestFactoryImplIN4absl18profiling_internal12_GLOBAL__N_135PeriodicSamplerBaseTest_Sample_TestEEE = internal constant { ptr, ptr, ptr } { ptr getelementptr inbounds (ptr, ptr @_ZTVN10__cxxabiv120__si_class_type_infoE, i64 2), ptr @_ZTSN7testing8internal15TestFactoryImplIN4absl18profiling_internal12_GLOBAL__N_135PeriodicSamplerBaseTest_Sample_TestEEE, ptr @_ZTIN7testing8internal15TestFactoryBaseE }, align 8
@_ZTVN4absl18profiling_internal12_GLOBAL__N_135PeriodicSamplerBaseTest_Sample_TestE = internal unnamed_addr constant { [8 x ptr] } { [8 x ptr] [ptr null, ptr @_ZTIN4absl18profiling_internal12_GLOBAL__N_135PeriodicSamplerBaseTest_Sample_TestE, ptr @_ZN4absl18profiling_internal12_GLOBAL__N_135PeriodicSamplerBaseTest_Sample_TestD2Ev, ptr @_ZN4absl18profiling_internal12_GLOBAL__N_135PeriodicSamplerBaseTest_Sample_TestD0Ev, ptr @_ZN7testing4Test5SetUpEv, ptr @_ZN7testing4Test8TearDownEv, ptr @_ZN4absl18profiling_internal12_GLOBAL__N_135PeriodicSamplerBaseTest_Sample_Test8TestBodyEv, ptr @_ZN7testing4Test5SetupEv] }, align 8
@_ZTSN4absl18profiling_internal12_GLOBAL__N_135PeriodicSamplerBaseTest_Sample_TestE = internal constant [79 x i8] c"N4absl18profiling_internal12_GLOBAL__N_135PeriodicSamplerBaseTest_Sample_TestE\00", align 1
@_ZTIN7testing4TestE = external constant ptr
@_ZTIN4absl18profiling_internal12_GLOBAL__N_135PeriodicSamplerBaseTest_Sample_TestE = internal constant { ptr, ptr, ptr } { ptr getelementptr inbounds (ptr, ptr @_ZTVN10__cxxabiv120__si_class_type_infoE, i64 2), ptr @_ZTSN4absl18profiling_internal12_GLOBAL__N_135PeriodicSamplerBaseTest_Sample_TestE, ptr @_ZTIN7testing4TestE }, align 8
@.str.23 = private unnamed_addr constant [8 x i8] c"sampler\00", align 1
@.str.24 = private unnamed_addr constant [9 x i8] c"period()\00", align 1
@.str.25 = private unnamed_addr constant [25 x i8] c"GetExponentialBiased(16)\00", align 1
@.str.26 = private unnamed_addr constant [17 x i8] c"sampler.Sample()\00", align 1
@.str.27 = private unnamed_addr constant [5 x i8] c"true\00", align 1
@.str.28 = private unnamed_addr constant [6 x i8] c"false\00", align 1
@_ZTVN7testing10StrictMockIN4absl18profiling_internal12_GLOBAL__N_119MockPeriodicSamplerEEE = internal unnamed_addr constant { [6 x ptr] } { [6 x ptr] [ptr null, ptr @_ZTIN7testing10StrictMockIN4absl18profiling_internal12_GLOBAL__N_119MockPeriodicSamplerEEE, ptr @_ZN4absl18profiling_internal12_GLOBAL__N_119MockPeriodicSampler20GetExponentialBiasedEi, ptr @_ZNK4absl18profiling_internal12_GLOBAL__N_119MockPeriodicSampler6periodEv, ptr @_ZN7testing10StrictMockIN4absl18profiling_internal12_GLOBAL__N_119MockPeriodicSamplerEED2Ev, ptr @_ZN7testing10StrictMockIN4absl18profiling_internal12_GLOBAL__N_119MockPeriodicSamplerEED0Ev] }, align 8
@_ZTVN10__cxxabiv121__vmi_class_type_infoE = external global [0 x ptr]
@_ZTSN7testing10StrictMockIN4absl18profiling_internal12_GLOBAL__N_119MockPeriodicSamplerEEE = internal constant [87 x i8] c"N7testing10StrictMockIN4absl18profiling_internal12_GLOBAL__N_119MockPeriodicSamplerEEE\00", align 1
@_ZTSN7testing8internal14StrictMockImplIN4absl18profiling_internal12_GLOBAL__N_119MockPeriodicSamplerEEE = internal constant [100 x i8] c"N7testing8internal14StrictMockImplIN4absl18profiling_internal12_GLOBAL__N_119MockPeriodicSamplerEEE\00", align 1
@_ZTIN7testing8internal14StrictMockImplIN4absl18profiling_internal12_GLOBAL__N_119MockPeriodicSamplerEEE = internal constant { ptr, ptr } { ptr getelementptr inbounds (ptr, ptr @_ZTVN10__cxxabiv117__class_type_infoE, i64 2), ptr @_ZTSN7testing8internal14StrictMockImplIN4absl18profiling_internal12_GLOBAL__N_119MockPeriodicSamplerEEE }, align 8
@_ZTSN4absl18profiling_internal12_GLOBAL__N_119MockPeriodicSamplerE = internal constant [63 x i8] c"N4absl18profiling_internal12_GLOBAL__N_119MockPeriodicSamplerE\00", align 1
@_ZTIN4absl18profiling_internal19PeriodicSamplerBaseE = external constant ptr
@_ZTIN4absl18profiling_internal12_GLOBAL__N_119MockPeriodicSamplerE = internal constant { ptr, ptr, ptr } { ptr getelementptr inbounds (ptr, ptr @_ZTVN10__cxxabiv120__si_class_type_infoE, i64 2), ptr @_ZTSN4absl18profiling_internal12_GLOBAL__N_119MockPeriodicSamplerE, ptr @_ZTIN4absl18profiling_internal19PeriodicSamplerBaseE }, align 8
@_ZTIN7testing10StrictMockIN4absl18profiling_internal12_GLOBAL__N_119MockPeriodicSamplerEEE = internal constant { ptr, ptr, i32, i32, ptr, i64, ptr, i64 } { ptr getelementptr inbounds (ptr, ptr @_ZTVN10__cxxabiv121__vmi_class_type_infoE, i64 2), ptr @_ZTSN7testing10StrictMockIN4absl18profiling_internal12_GLOBAL__N_119MockPeriodicSamplerEEE, i32 0, i32 2, ptr @_ZTIN7testing8internal14StrictMockImplIN4absl18profiling_internal12_GLOBAL__N_119MockPeriodicSamplerEEE, i64 0, ptr @_ZTIN4absl18profiling_internal12_GLOBAL__N_119MockPeriodicSamplerE, i64 2 }, align 8
@_ZTVN4absl18profiling_internal12_GLOBAL__N_119MockPeriodicSamplerE = internal unnamed_addr constant { [6 x ptr] } { [6 x ptr] [ptr null, ptr @_ZTIN4absl18profiling_internal12_GLOBAL__N_119MockPeriodicSamplerE, ptr @_ZN4absl18profiling_internal12_GLOBAL__N_119MockPeriodicSampler20GetExponentialBiasedEi, ptr @_ZNK4absl18profiling_internal12_GLOBAL__N_119MockPeriodicSampler6periodEv, ptr @_ZN4absl18profiling_internal12_GLOBAL__N_119MockPeriodicSamplerD2Ev, ptr @_ZN4absl18profiling_internal12_GLOBAL__N_119MockPeriodicSamplerD0Ev] }, align 8
@_ZTVN7testing8internal14FunctionMockerIFivEEE = linkonce_odr dso_local unnamed_addr constant { [8 x ptr] } { [8 x ptr] [ptr null, ptr @_ZTIN7testing8internal14FunctionMockerIFivEEE, ptr @_ZN7testing8internal14FunctionMockerIFivEED2Ev, ptr @_ZN7testing8internal14FunctionMockerIFivEED0Ev, ptr @_ZN7testing8internal14FunctionMockerIFivEE25ClearDefaultActionsLockedEv, ptr @_ZNK7testing8internal14FunctionMockerIFivEE32UntypedDescribeUninterestingCallEPKvPSo, ptr @_ZN7testing8internal14FunctionMockerIFivEE30UntypedFindMatchingExpectationEPKvPS5_PbPSoS8_, ptr @_ZNK7testing8internal14FunctionMockerIFivEE16UntypedPrintArgsEPKvPSo] }, comdat, align 8
@_ZTSN7testing8internal14FunctionMockerIFivEEE = linkonce_odr dso_local constant [42 x i8] c"N7testing8internal14FunctionMockerIFivEEE\00", comdat, align 1
@_ZTIN7testing8internal25UntypedFunctionMockerBaseE = external constant ptr
@_ZTIN7testing8internal14FunctionMockerIFivEEE = linkonce_odr dso_local constant { ptr, ptr, ptr } { ptr getelementptr inbounds (ptr, ptr @_ZTVN10__cxxabiv120__si_class_type_infoE, i64 2), ptr @_ZTSN7testing8internal14FunctionMockerIFivEEE, ptr @_ZTIN7testing8internal25UntypedFunctionMockerBaseE }, comdat, align 8
@_ZN7testing8internal13g_gmock_mutexE = external global %"class.testing::internal::MutexBase", align 8
@.str.29 = private unnamed_addr constant [162 x i8] c"generated/home/dtcxzyw/WorkSpace/Projects/compilers/llvm-opt-benchmark/bench/abseil-cpp/bench_build/googletest-src/googletest/include/gtest/internal/gtest-port.h\00", align 1
@.str.30 = private unnamed_addr constant [71 x i8] c"Condition has_owner_ && pthread_equal(owner_, pthread_self()) failed. \00", align 1
@.str.31 = private unnamed_addr constant [46 x i8] c"The current thread is not holding the mutex @\00", align 1
@_ZSt4cerr = external global %"class.std::basic_ostream", align 8
@.str.32 = private unnamed_addr constant [30 x i8] c"pthread_mutex_unlock(&mutex_)\00", align 1
@.str.33 = private unnamed_addr constant [19 x i8] c"failed with error \00", align 1
@_ZTVN7testing8internal11MatcherBaseIRKSt5tupleIJEEEE = linkonce_odr dso_local unnamed_addr constant { [6 x ptr] } { [6 x ptr] [ptr null, ptr @_ZTIN7testing8internal11MatcherBaseIRKSt5tupleIJEEEE, ptr @_ZN7testing8internal11MatcherBaseIRKSt5tupleIJEEED2Ev, ptr @_ZN7testing8internal11MatcherBaseIRKSt5tupleIJEEED0Ev, ptr @_ZNK7testing8internal11MatcherBaseIRKSt5tupleIJEEE10DescribeToEPSo, ptr @_ZNK7testing8internal11MatcherBaseIRKSt5tupleIJEEE18DescribeNegationToEPSo] }, comdat, align 8
@_ZTSN7testing8internal11MatcherBaseIRKSt5tupleIJEEEE = linkonce_odr dso_local constant [49 x i8] c"N7testing8internal11MatcherBaseIRKSt5tupleIJEEEE\00", comdat, align 1
@_ZTSN7testing25MatcherDescriberInterfaceE = linkonce_odr dso_local constant [38 x i8] c"N7testing25MatcherDescriberInterfaceE\00", comdat, align 1
@_ZTIN7testing25MatcherDescriberInterfaceE = linkonce_odr dso_local constant { ptr, ptr } { ptr getelementptr inbounds (ptr, ptr @_ZTVN10__cxxabiv117__class_type_infoE, i64 2), ptr @_ZTSN7testing25MatcherDescriberInterfaceE }, comdat, align 8
@_ZTIN7testing8internal11MatcherBaseIRKSt5tupleIJEEEE = linkonce_odr dso_local constant { ptr, ptr, i32, i32, ptr, i64 } { ptr getelementptr inbounds (ptr, ptr @_ZTVN10__cxxabiv121__vmi_class_type_infoE, i64 2), ptr @_ZTSN7testing8internal11MatcherBaseIRKSt5tupleIJEEEE, i32 0, i32 1, ptr @_ZTIN7testing25MatcherDescriberInterfaceE, i64 0 }, comdat, align 8
@.str.34 = private unnamed_addr constant [157 x i8] c"generated/home/dtcxzyw/WorkSpace/Projects/compilers/llvm-opt-benchmark/bench/abseil-cpp/bench_build/googletest-src/googletest/include/gtest/gtest-matchers.h\00", align 1
@.str.35 = private unnamed_addr constant [38 x i8] c"Condition vtable_ != nullptr failed. \00", align 1
@.str.36 = private unnamed_addr constant [28 x i8] c"pthread_mutex_lock(&mutex_)\00", align 1
@.str.37 = private unnamed_addr constant [36 x i8] c"Uninteresting mock function call - \00", align 1
@.str.38 = private unnamed_addr constant [20 x i8] c"    Function call: \00", align 1
@.str.39 = private unnamed_addr constant [26 x i8] c"returning default value.\0A\00", align 1
@.str.40 = private unnamed_addr constant [37 x i8] c"taking default action specified at:\0A\00", align 1
@.str.41 = private unnamed_addr constant [2 x i8] c"\0A\00", align 1
@_ZTVN7testing8internal24DummyMatchResultListenerE = linkonce_odr dso_local unnamed_addr constant { [4 x ptr] } { [4 x ptr] [ptr null, ptr @_ZTIN7testing8internal24DummyMatchResultListenerE, ptr @_ZN7testing8internal24DummyMatchResultListenerD2Ev, ptr @_ZN7testing8internal24DummyMatchResultListenerD0Ev] }, comdat, align 8
@_ZTSN7testing8internal24DummyMatchResultListenerE = linkonce_odr dso_local constant [46 x i8] c"N7testing8internal24DummyMatchResultListenerE\00", comdat, align 1
@_ZTSN7testing19MatchResultListenerE = linkonce_odr dso_local constant [32 x i8] c"N7testing19MatchResultListenerE\00", comdat, align 1
@_ZTIN7testing19MatchResultListenerE = linkonce_odr dso_local constant { ptr, ptr } { ptr getelementptr inbounds (ptr, ptr @_ZTVN10__cxxabiv117__class_type_infoE, i64 2), ptr @_ZTSN7testing19MatchResultListenerE }, comdat, align 8
@_ZTIN7testing8internal24DummyMatchResultListenerE = linkonce_odr dso_local constant { ptr, ptr, ptr } { ptr getelementptr inbounds (ptr, ptr @_ZTVN10__cxxabiv120__si_class_type_infoE, i64 2), ptr @_ZTSN7testing8internal24DummyMatchResultListenerE, ptr @_ZTIN7testing19MatchResultListenerE }, comdat, align 8
@.str.42 = private unnamed_addr constant [2 x i8] c"(\00", align 1
@.str.43 = private unnamed_addr constant [2 x i8] c")\00", align 1
@.str.44 = private unnamed_addr constant [34 x i8] c"\0AUnexpected mock function call - \00", align 1
@.str.45 = private unnamed_addr constant [33 x i8] c"Google Mock tried the following \00", align 1
@.str.46 = private unnamed_addr constant [2 x i8] c" \00", align 1
@.str.47 = private unnamed_addr constant [33 x i8] c"expectation, but it didn't match\00", align 1
@.str.48 = private unnamed_addr constant [31 x i8] c"expectations, but none matched\00", align 1
@.str.49 = private unnamed_addr constant [3 x i8] c":\0A\00", align 1
@.str.50 = private unnamed_addr constant [20 x i8] c"tried expectation #\00", align 1
@.str.51 = private unnamed_addr constant [3 x i8] c": \00", align 1
@.str.52 = private unnamed_addr constant [5 x i8] c"...\0A\00", align 1
@.str.53 = private unnamed_addr constant [46 x i8] c"         Expected: the expectation is active\0A\00", align 1
@.str.54 = private unnamed_addr constant [34 x i8] c"           Actual: it is retired\0A\00", align 1
@.str.55 = private unnamed_addr constant [20 x i8] c"    Expected args: \00", align 1
@.str.56 = private unnamed_addr constant [32 x i8] c"\0A           Actual: don't match\00", align 1
@.str.57 = private unnamed_addr constant [53 x i8] c"         Expected: all pre-requisites are satisfied\0A\00", align 1
@.str.58 = private unnamed_addr constant [59 x i8] c"           Actual: the following immediate pre-requisites \00", align 1
@.str.59 = private unnamed_addr constant [20 x i8] c"are not satisfied:\0A\00", align 1
@.str.60 = private unnamed_addr constant [16 x i8] c"pre-requisite #\00", align 1
@.str.61 = private unnamed_addr constant [44 x i8] c"                   (end of pre-requisites)\0A\00", align 1
@.str.62 = private unnamed_addr constant [35 x i8] c"The call matches the expectation.\0A\00", align 1
@_ZTVN7testing25StringMatchResultListenerE = linkonce_odr dso_local unnamed_addr constant { [4 x ptr] } { [4 x ptr] [ptr null, ptr @_ZTIN7testing25StringMatchResultListenerE, ptr @_ZN7testing25StringMatchResultListenerD2Ev, ptr @_ZN7testing25StringMatchResultListenerD0Ev] }, comdat, align 8
@_ZTSN7testing25StringMatchResultListenerE = linkonce_odr dso_local constant [38 x i8] c"N7testing25StringMatchResultListenerE\00", comdat, align 1
@_ZTIN7testing25StringMatchResultListenerE = linkonce_odr dso_local constant { ptr, ptr, ptr } { ptr getelementptr inbounds (ptr, ptr @_ZTVN10__cxxabiv120__si_class_type_infoE, i64 2), ptr @_ZTSN7testing25StringMatchResultListenerE, ptr @_ZTIN7testing19MatchResultListenerE }, comdat, align 8
@.str.63 = private unnamed_addr constant [3 x i8] c", \00", align 1
@.str.64 = private unnamed_addr constant [15 x i8] c"Mock function \00", align 1
@.str.65 = private unnamed_addr constant [2 x i8] c"\22\00", align 1
@.str.66 = private unnamed_addr constant [3 x i8] c"\22 \00", align 1
@.str.67 = private unnamed_addr constant [35 x i8] c"called more times than expected - \00", align 1
@.str.68 = private unnamed_addr constant [14 x i8] c"call matches \00", align 1
@.str.69 = private unnamed_addr constant [162 x i8] c"generated/home/dtcxzyw/WorkSpace/Projects/compilers/llvm-opt-benchmark/bench/abseil-cpp/bench_build/googletest-src/googlemock/include/gmock/gmock-spec-builders.h\00", align 1
@.str.70 = private unnamed_addr constant [83 x i8] c"call_count() is <= 0 when GetCurrentAction() is called - this should never happen.\00", align 1
@.str.71 = private unnamed_addr constant [20 x i8] c"Actions ran out in \00", align 1
@.str.72 = private unnamed_addr constant [8 x i8] c"Called \00", align 1
@.str.73 = private unnamed_addr constant [18 x i8] c" times, but only \00", align 1
@.str.74 = private unnamed_addr constant [12 x i8] c" WillOnce()\00", align 1
@.str.75 = private unnamed_addr constant [4 x i8] c" is\00", align 1
@.str.76 = private unnamed_addr constant [6 x i8] c"s are\00", align 1
@.str.77 = private unnamed_addr constant [14 x i8] c" specified - \00", align 1
@_ZTVN7testing8internal14FunctionMockerIFliEEE = linkonce_odr dso_local unnamed_addr constant { [8 x ptr] } { [8 x ptr] [ptr null, ptr @_ZTIN7testing8internal14FunctionMockerIFliEEE, ptr @_ZN7testing8internal14FunctionMockerIFliEED2Ev, ptr @_ZN7testing8internal14FunctionMockerIFliEED0Ev, ptr @_ZN7testing8internal14FunctionMockerIFliEE25ClearDefaultActionsLockedEv, ptr @_ZNK7testing8internal14FunctionMockerIFliEE32UntypedDescribeUninterestingCallEPKvPSo, ptr @_ZN7testing8internal14FunctionMockerIFliEE30UntypedFindMatchingExpectationEPKvPS5_PbPSoS8_, ptr @_ZNK7testing8internal14FunctionMockerIFliEE16UntypedPrintArgsEPKvPSo] }, comdat, align 8
@_ZTSN7testing8internal14FunctionMockerIFliEEE = linkonce_odr dso_local constant [42 x i8] c"N7testing8internal14FunctionMockerIFliEEE\00", comdat, align 1
@_ZTIN7testing8internal14FunctionMockerIFliEEE = linkonce_odr dso_local constant { ptr, ptr, ptr } { ptr getelementptr inbounds (ptr, ptr @_ZTVN10__cxxabiv120__si_class_type_infoE, i64 2), ptr @_ZTSN7testing8internal14FunctionMockerIFliEEE, ptr @_ZTIN7testing8internal25UntypedFunctionMockerBaseE }, comdat, align 8
@_ZTVN7testing8internal11MatcherBaseIRKSt5tupleIJiEEEE = linkonce_odr dso_local unnamed_addr constant { [6 x ptr] } { [6 x ptr] [ptr null, ptr @_ZTIN7testing8internal11MatcherBaseIRKSt5tupleIJiEEEE, ptr @_ZN7testing8internal11MatcherBaseIRKSt5tupleIJiEEED2Ev, ptr @_ZN7testing8internal11MatcherBaseIRKSt5tupleIJiEEED0Ev, ptr @_ZNK7testing8internal11MatcherBaseIRKSt5tupleIJiEEE10DescribeToEPSo, ptr @_ZNK7testing8internal11MatcherBaseIRKSt5tupleIJiEEE18DescribeNegationToEPSo] }, comdat, align 8
@_ZTSN7testing8internal11MatcherBaseIRKSt5tupleIJiEEEE = linkonce_odr dso_local constant [50 x i8] c"N7testing8internal11MatcherBaseIRKSt5tupleIJiEEEE\00", comdat, align 1
@_ZTIN7testing8internal11MatcherBaseIRKSt5tupleIJiEEEE = linkonce_odr dso_local constant { ptr, ptr, i32, i32, ptr, i64 } { ptr getelementptr inbounds (ptr, ptr @_ZTVN10__cxxabiv121__vmi_class_type_infoE, i64 2), ptr @_ZTSN7testing8internal11MatcherBaseIRKSt5tupleIJiEEEE, i32 0, i32 1, ptr @_ZTIN7testing25MatcherDescriberInterfaceE, i64 0 }, comdat, align 8
@.str.78 = private unnamed_addr constant [17 x i8] c"  Expected arg #\00", align 1
@.str.79 = private unnamed_addr constant [21 x i8] c"\0A           Actual: \00", align 1
@_ZTVN7testing7MatcherIiEE = linkonce_odr dso_local unnamed_addr constant { [6 x ptr] } { [6 x ptr] [ptr null, ptr @_ZTIN7testing7MatcherIiEE, ptr @_ZN7testing7MatcherIiED2Ev, ptr @_ZN7testing7MatcherIiED0Ev, ptr @_ZNK7testing8internal11MatcherBaseIiE10DescribeToEPSo, ptr @_ZNK7testing8internal11MatcherBaseIiE18DescribeNegationToEPSo] }, comdat, align 8
@_ZTSN7testing7MatcherIiEE = linkonce_odr dso_local constant [22 x i8] c"N7testing7MatcherIiEE\00", comdat, align 1
@_ZTSN7testing8internal11MatcherBaseIiEE = linkonce_odr dso_local constant [36 x i8] c"N7testing8internal11MatcherBaseIiEE\00", comdat, align 1
@_ZTIN7testing8internal11MatcherBaseIiEE = linkonce_odr dso_local constant { ptr, ptr, i32, i32, ptr, i64 } { ptr getelementptr inbounds (ptr, ptr @_ZTVN10__cxxabiv121__vmi_class_type_infoE, i64 2), ptr @_ZTSN7testing8internal11MatcherBaseIiEE, i32 0, i32 1, ptr @_ZTIN7testing25MatcherDescriberInterfaceE, i64 0 }, comdat, align 8
@_ZTIN7testing7MatcherIiEE = linkonce_odr dso_local constant { ptr, ptr, ptr } { ptr getelementptr inbounds (ptr, ptr @_ZTVN10__cxxabiv120__si_class_type_infoE, i64 2), ptr @_ZTSN7testing7MatcherIiEE, ptr @_ZTIN7testing8internal11MatcherBaseIiEE }, comdat, align 8
@_ZTVN7testing8internal11MatcherBaseIiEE = linkonce_odr dso_local unnamed_addr constant { [6 x ptr] } { [6 x ptr] [ptr null, ptr @_ZTIN7testing8internal11MatcherBaseIiEE, ptr @_ZN7testing8internal11MatcherBaseIiED2Ev, ptr @_ZN7testing8internal11MatcherBaseIiED0Ev, ptr @_ZNK7testing8internal11MatcherBaseIiE10DescribeToEPSo, ptr @_ZNK7testing8internal11MatcherBaseIiE18DescribeNegationToEPSo] }, comdat, align 8
@.str.81 = private unnamed_addr constant [21 x i8] c"GetExponentialBiased\00", align 1
@.str.82 = private unnamed_addr constant [16 x i8] c"Function call: \00", align 1
@.str.83 = private unnamed_addr constant [1 x i8] zeroinitializer, align 1
@.str.84 = private unnamed_addr constant [96 x i8] c"\0A    The mock function has no default action set, and its return type has no default value set.\00", align 1
@.str.85 = private unnamed_addr constant [59 x i8] c".WillByDefault() must appear exactly once in an ON_CALL().\00", align 1
@.str.86 = private unnamed_addr constant [156 x i8] c"generated/home/dtcxzyw/WorkSpace/Projects/compilers/llvm-opt-benchmark/bench/abseil-cpp/bench_build/googletest-src/googlemock/include/gmock/gmock-actions.h\00", align 1
@_ZN7testing12DefaultValueIlE9producer_E = linkonce_odr dso_local local_unnamed_addr global ptr null, comdat, align 8
@.str.87 = private unnamed_addr constant [21 x i8] c"\0A          Returns: \00", align 1
@.str.88 = private unnamed_addr constant [7 x i8] c"period\00", align 1
@_ZN7testing12DefaultValueIiE9producer_E = linkonce_odr dso_local local_unnamed_addr global ptr null, comdat, align 8
@.str.89 = private unnamed_addr constant [13 x i8] c"EXPECT_CALL(\00", align 1
@.str.90 = private unnamed_addr constant [9 x i8] c" invoked\00", align 1
@_ZN7testing8internal25g_gmock_implicit_sequenceE = external global %"class.testing::internal::ThreadLocal", align 8
@_ZTVN7testing8internal16TypedExpectationIFivEEE = linkonce_odr dso_local unnamed_addr constant { [6 x ptr] } { [6 x ptr] [ptr null, ptr @_ZTIN7testing8internal16TypedExpectationIFivEEE, ptr @_ZN7testing8internal16TypedExpectationIFivEED2Ev, ptr @_ZN7testing8internal16TypedExpectationIFivEED0Ev, ptr @_ZN7testing8internal16TypedExpectationIFivEE27MaybeDescribeExtraMatcherToEPSo, ptr @_ZN7testing8internal16TypedExpectationIFivEE9GetHandleEv] }, comdat, align 8
@_ZTSN7testing8internal16TypedExpectationIFivEEE = linkonce_odr dso_local constant [44 x i8] c"N7testing8internal16TypedExpectationIFivEEE\00", comdat, align 1
@_ZTIN7testing8internal15ExpectationBaseE = external constant ptr
@_ZTIN7testing8internal16TypedExpectationIFivEEE = linkonce_odr dso_local constant { ptr, ptr, ptr } { ptr getelementptr inbounds (ptr, ptr @_ZTVN10__cxxabiv120__si_class_type_infoE, i64 2), ptr @_ZTSN7testing8internal16TypedExpectationIFivEEE, ptr @_ZTIN7testing8internal15ExpectationBaseE }, comdat, align 8
@_ZTVN7testing7MatcherIRKSt5tupleIJEEEE = linkonce_odr dso_local unnamed_addr constant { [6 x ptr] } { [6 x ptr] [ptr null, ptr @_ZTIN7testing7MatcherIRKSt5tupleIJEEEE, ptr @_ZN7testing7MatcherIRKSt5tupleIJEEED2Ev, ptr @_ZN7testing7MatcherIRKSt5tupleIJEEED0Ev, ptr @_ZNK7testing8internal11MatcherBaseIRKSt5tupleIJEEE10DescribeToEPSo, ptr @_ZNK7testing8internal11MatcherBaseIRKSt5tupleIJEEE18DescribeNegationToEPSo] }, comdat, align 8
@_ZTSN7testing7MatcherIRKSt5tupleIJEEEE = linkonce_odr dso_local constant [35 x i8] c"N7testing7MatcherIRKSt5tupleIJEEEE\00", comdat, align 1
@_ZTIN7testing7MatcherIRKSt5tupleIJEEEE = linkonce_odr dso_local constant { ptr, ptr, ptr } { ptr getelementptr inbounds (ptr, ptr @_ZTVN10__cxxabiv120__si_class_type_infoE, i64 2), ptr @_ZTSN7testing7MatcherIRKSt5tupleIJEEEE, ptr @_ZTIN7testing8internal11MatcherBaseIRKSt5tupleIJEEEE }, comdat, align 8
@_ZZN7testing8internal11MatcherBaseIRKSt5tupleIJEEE9GetVTableINS6_11ValuePolicyINS0_15AnythingMatcherELb1EEEEEPKNS6_6VTableEvE7kVTable = linkonce_odr dso_local constant %"struct.testing::internal::MatcherBase<const std::tuple<> &>::VTable" { ptr @_ZN7testing8internal11MatcherBaseIRKSt5tupleIJEEE19MatchAndExplainImplINS6_11ValuePolicyINS0_15AnythingMatcherELb1EEEEEDTcldtclsrT_3Getfp_E15MatchAndExplainfp0_clptfp1_6streamEEERKS6_S5_PNS_19MatchResultListenerE, ptr @_ZN7testing8internal11MatcherBaseIRKSt5tupleIJEEE12DescribeImplINS6_11ValuePolicyINS0_15AnythingMatcherELb1EEEEEvRKS6_PSob, ptr @_ZN7testing8internal11MatcherBaseIRKSt5tupleIJEEE16GetDescriberImplINS6_11ValuePolicyINS0_15AnythingMatcherELb1EEEEEPKNS_25MatcherDescriberInterfaceERKS6_, ptr null }, comdat, align 8
@.str.91 = private unnamed_addr constant [14 x i8] c"never matches\00", align 1
@.str.92 = private unnamed_addr constant [12 x i8] c"is anything\00", align 1
@_ZTVSt15_Sp_counted_ptrIPN7testing8internal16TypedExpectationIFivEEELN9__gnu_cxx12_Lock_policyE2EE = linkonce_odr dso_local unnamed_addr constant { [7 x ptr] } { [7 x ptr] [ptr null, ptr @_ZTISt15_Sp_counted_ptrIPN7testing8internal16TypedExpectationIFivEEELN9__gnu_cxx12_Lock_policyE2EE, ptr @_ZNSt15_Sp_counted_ptrIPN7testing8internal16TypedExpectationIFivEEELN9__gnu_cxx12_Lock_policyE2EED2Ev, ptr @_ZNSt15_Sp_counted_ptrIPN7testing8internal16TypedExpectationIFivEEELN9__gnu_cxx12_Lock_policyE2EED0Ev, ptr @_ZNSt15_Sp_counted_ptrIPN7testing8internal16TypedExpectationIFivEEELN9__gnu_cxx12_Lock_policyE2EE10_M_disposeEv, ptr @_ZNSt15_Sp_counted_ptrIPN7testing8internal16TypedExpectationIFivEEELN9__gnu_cxx12_Lock_policyE2EE10_M_destroyEv, ptr @_ZNSt15_Sp_counted_ptrIPN7testing8internal16TypedExpectationIFivEEELN9__gnu_cxx12_Lock_policyE2EE14_M_get_deleterERKSt9type_info] }, comdat, align 8
@_ZTSSt15_Sp_counted_ptrIPN7testing8internal16TypedExpectationIFivEEELN9__gnu_cxx12_Lock_policyE2EE = linkonce_odr dso_local constant [95 x i8] c"St15_Sp_counted_ptrIPN7testing8internal16TypedExpectationIFivEEELN9__gnu_cxx12_Lock_policyE2EE\00", comdat, align 1
@_ZTSSt16_Sp_counted_baseILN9__gnu_cxx12_Lock_policyE2EE = linkonce_odr dso_local constant [52 x i8] c"St16_Sp_counted_baseILN9__gnu_cxx12_Lock_policyE2EE\00", comdat, align 1
@_ZTSSt11_Mutex_baseILN9__gnu_cxx12_Lock_policyE2EE = linkonce_odr dso_local constant [47 x i8] c"St11_Mutex_baseILN9__gnu_cxx12_Lock_policyE2EE\00", comdat, align 1
@_ZTISt11_Mutex_baseILN9__gnu_cxx12_Lock_policyE2EE = linkonce_odr dso_local constant { ptr, ptr } { ptr getelementptr inbounds (ptr, ptr @_ZTVN10__cxxabiv117__class_type_infoE, i64 2), ptr @_ZTSSt11_Mutex_baseILN9__gnu_cxx12_Lock_policyE2EE }, comdat, align 8
@_ZTISt16_Sp_counted_baseILN9__gnu_cxx12_Lock_policyE2EE = linkonce_odr dso_local constant { ptr, ptr, ptr } { ptr getelementptr inbounds (ptr, ptr @_ZTVN10__cxxabiv120__si_class_type_infoE, i64 2), ptr @_ZTSSt16_Sp_counted_baseILN9__gnu_cxx12_Lock_policyE2EE, ptr @_ZTISt11_Mutex_baseILN9__gnu_cxx12_Lock_policyE2EE }, comdat, align 8
@_ZTISt15_Sp_counted_ptrIPN7testing8internal16TypedExpectationIFivEEELN9__gnu_cxx12_Lock_policyE2EE = linkonce_odr dso_local constant { ptr, ptr, ptr } { ptr getelementptr inbounds (ptr, ptr @_ZTVN10__cxxabiv120__si_class_type_infoE, i64 2), ptr @_ZTSSt15_Sp_counted_ptrIPN7testing8internal16TypedExpectationIFivEEELN9__gnu_cxx12_Lock_policyE2EE, ptr @_ZTISt16_Sp_counted_baseILN9__gnu_cxx12_Lock_policyE2EE }, comdat, align 8
@__libc_single_threaded = external local_unnamed_addr global i8, align 1
@.str.93 = private unnamed_addr constant [26 x i8] c"vector::_M_realloc_insert\00", align 1
@.str.94 = private unnamed_addr constant [39 x i8] c"pthread_setspecific(key_, holder_base)\00", align 1
@_ZTSN7testing8internal26ThreadLocalValueHolderBaseE = linkonce_odr dso_local constant [48 x i8] c"N7testing8internal26ThreadLocalValueHolderBaseE\00", comdat, align 1
@_ZTIN7testing8internal26ThreadLocalValueHolderBaseE = linkonce_odr dso_local constant { ptr, ptr } { ptr getelementptr inbounds (ptr, ptr @_ZTVN10__cxxabiv117__class_type_infoE, i64 2), ptr @_ZTSN7testing8internal26ThreadLocalValueHolderBaseE }, comdat, align 8
@_ZTSN7testing8internal11ThreadLocalIPNS_8SequenceEE11ValueHolderE = linkonce_odr dso_local constant [62 x i8] c"N7testing8internal11ThreadLocalIPNS_8SequenceEE11ValueHolderE\00", comdat, align 1
@_ZTIN7testing8internal11ThreadLocalIPNS_8SequenceEE11ValueHolderE = linkonce_odr dso_local constant { ptr, ptr, ptr } { ptr getelementptr inbounds (ptr, ptr @_ZTVN10__cxxabiv120__si_class_type_infoE, i64 2), ptr @_ZTSN7testing8internal11ThreadLocalIPNS_8SequenceEE11ValueHolderE, ptr @_ZTIN7testing8internal26ThreadLocalValueHolderBaseE }, comdat, align 8
@.str.95 = private unnamed_addr constant [78 x i8] c"Condition base == nullptr || dynamic_cast<Derived*>(base) != nullptr failed. \00", align 1
@.str.96 = private unnamed_addr constant [68 x i8] c".WillRepeatedly() cannot appear more than once in an EXPECT_CALL().\00", align 1
@.str.97 = private unnamed_addr constant [62 x i8] c".WillRepeatedly() cannot appear after .RetiresOnSaturation().\00", align 1
@_ZTVSt15_Sp_counted_ptrIPN7testing8internal12ReturnActionIiE4ImplIiE5StateELN9__gnu_cxx12_Lock_policyE2EE = linkonce_odr dso_local unnamed_addr constant { [7 x ptr] } { [7 x ptr] [ptr null, ptr @_ZTISt15_Sp_counted_ptrIPN7testing8internal12ReturnActionIiE4ImplIiE5StateELN9__gnu_cxx12_Lock_policyE2EE, ptr @_ZNSt15_Sp_counted_ptrIPN7testing8internal12ReturnActionIiE4ImplIiE5StateELN9__gnu_cxx12_Lock_policyE2EED2Ev, ptr @_ZNSt15_Sp_counted_ptrIPN7testing8internal12ReturnActionIiE4ImplIiE5StateELN9__gnu_cxx12_Lock_policyE2EED0Ev, ptr @_ZNSt15_Sp_counted_ptrIPN7testing8internal12ReturnActionIiE4ImplIiE5StateELN9__gnu_cxx12_Lock_policyE2EE10_M_disposeEv, ptr @_ZNSt15_Sp_counted_ptrIPN7testing8internal12ReturnActionIiE4ImplIiE5StateELN9__gnu_cxx12_Lock_policyE2EE10_M_destroyEv, ptr @_ZNSt15_Sp_counted_ptrIPN7testing8internal12ReturnActionIiE4ImplIiE5StateELN9__gnu_cxx12_Lock_policyE2EE14_M_get_deleterERKSt9type_info] }, comdat, align 8
@_ZTSSt15_Sp_counted_ptrIPN7testing8internal12ReturnActionIiE4ImplIiE5StateELN9__gnu_cxx12_Lock_policyE2EE = linkonce_odr dso_local constant [102 x i8] c"St15_Sp_counted_ptrIPN7testing8internal12ReturnActionIiE4ImplIiE5StateELN9__gnu_cxx12_Lock_policyE2EE\00", comdat, align 1
@_ZTISt15_Sp_counted_ptrIPN7testing8internal12ReturnActionIiE4ImplIiE5StateELN9__gnu_cxx12_Lock_policyE2EE = linkonce_odr dso_local constant { ptr, ptr, ptr } { ptr getelementptr inbounds (ptr, ptr @_ZTVN10__cxxabiv120__si_class_type_infoE, i64 2), ptr @_ZTSSt15_Sp_counted_ptrIPN7testing8internal12ReturnActionIiE4ImplIiE5StateELN9__gnu_cxx12_Lock_policyE2EE, ptr @_ZTISt16_Sp_counted_baseILN9__gnu_cxx12_Lock_policyE2EE }, comdat, align 8
@_ZTSN7testing8internal12ReturnActionIiE4ImplIiEE = linkonce_odr dso_local constant [45 x i8] c"N7testing8internal12ReturnActionIiE4ImplIiEE\00", comdat, align 1
@_ZTIN7testing8internal12ReturnActionIiE4ImplIiEE = linkonce_odr dso_local constant { ptr, ptr } { ptr getelementptr inbounds (ptr, ptr @_ZTVN10__cxxabiv117__class_type_infoE, i64 2), ptr @_ZTSN7testing8internal12ReturnActionIiE4ImplIiEE }, comdat, align 8
@_ZZN7testing8internal11MatcherBaseIiE9GetVTableINS2_11ValuePolicyINS0_9EqMatcherIiEELb1EEEEEPKNS2_6VTableEvE7kVTable = linkonce_odr dso_local constant %"struct.testing::internal::MatcherBase<int>::VTable" { ptr @_ZN7testing8internal11MatcherBaseIiE19MatchAndExplainImplINS2_11ValuePolicyINS0_9EqMatcherIiEELb1EEEEEDTcldtclsrT_3Getfp_E15MatchAndExplainfp0_clptfp1_6streamEEERKS2_RKiPNS_19MatchResultListenerE, ptr @_ZN7testing8internal11MatcherBaseIiE12DescribeImplINS2_11ValuePolicyINS0_9EqMatcherIiEELb1EEEEEvRKS2_PSob, ptr @_ZN7testing8internal11MatcherBaseIiE16GetDescriberImplINS2_11ValuePolicyINS0_9EqMatcherIiEELb1EEEEEPKNS_25MatcherDescriberInterfaceERKS2_, ptr null }, comdat, align 8
@.str.98 = private unnamed_addr constant [15 x i8] c"isn't equal to\00", align 1
@.str.99 = private unnamed_addr constant [12 x i8] c"is equal to\00", align 1
@_ZTVN7testing8internal16TypedExpectationIFliEEE = linkonce_odr dso_local unnamed_addr constant { [6 x ptr] } { [6 x ptr] [ptr null, ptr @_ZTIN7testing8internal16TypedExpectationIFliEEE, ptr @_ZN7testing8internal16TypedExpectationIFliEED2Ev, ptr @_ZN7testing8internal16TypedExpectationIFliEED0Ev, ptr @_ZN7testing8internal16TypedExpectationIFliEE27MaybeDescribeExtraMatcherToEPSo, ptr @_ZN7testing8internal16TypedExpectationIFliEE9GetHandleEv] }, comdat, align 8
@_ZTSN7testing8internal16TypedExpectationIFliEEE = linkonce_odr dso_local constant [44 x i8] c"N7testing8internal16TypedExpectationIFliEEE\00", comdat, align 1
@_ZTIN7testing8internal16TypedExpectationIFliEEE = linkonce_odr dso_local constant { ptr, ptr, ptr } { ptr getelementptr inbounds (ptr, ptr @_ZTVN10__cxxabiv120__si_class_type_infoE, i64 2), ptr @_ZTSN7testing8internal16TypedExpectationIFliEEE, ptr @_ZTIN7testing8internal15ExpectationBaseE }, comdat, align 8
@_ZTVN7testing7MatcherIRKSt5tupleIJiEEEE = linkonce_odr dso_local unnamed_addr constant { [6 x ptr] } { [6 x ptr] [ptr null, ptr @_ZTIN7testing7MatcherIRKSt5tupleIJiEEEE, ptr @_ZN7testing7MatcherIRKSt5tupleIJiEEED2Ev, ptr @_ZN7testing7MatcherIRKSt5tupleIJiEEED0Ev, ptr @_ZNK7testing8internal11MatcherBaseIRKSt5tupleIJiEEE10DescribeToEPSo, ptr @_ZNK7testing8internal11MatcherBaseIRKSt5tupleIJiEEE18DescribeNegationToEPSo] }, comdat, align 8
@_ZTSN7testing7MatcherIRKSt5tupleIJiEEEE = linkonce_odr dso_local constant [36 x i8] c"N7testing7MatcherIRKSt5tupleIJiEEEE\00", comdat, align 1
@_ZTIN7testing7MatcherIRKSt5tupleIJiEEEE = linkonce_odr dso_local constant { ptr, ptr, ptr } { ptr getelementptr inbounds (ptr, ptr @_ZTVN10__cxxabiv120__si_class_type_infoE, i64 2), ptr @_ZTSN7testing7MatcherIRKSt5tupleIJiEEEE, ptr @_ZTIN7testing8internal11MatcherBaseIRKSt5tupleIJiEEEE }, comdat, align 8
@_ZZN7testing8internal11MatcherBaseIRKSt5tupleIJiEEE9GetVTableINS6_11ValuePolicyINS0_15AnythingMatcherELb1EEEEEPKNS6_6VTableEvE7kVTable = linkonce_odr dso_local constant %"struct.testing::internal::MatcherBase<const std::tuple<int> &>::VTable" { ptr @_ZN7testing8internal11MatcherBaseIRKSt5tupleIJiEEE19MatchAndExplainImplINS6_11ValuePolicyINS0_15AnythingMatcherELb1EEEEEDTcldtclsrT_3Getfp_E15MatchAndExplainfp0_clptfp1_6streamEEERKS6_S5_PNS_19MatchResultListenerE, ptr @_ZN7testing8internal11MatcherBaseIRKSt5tupleIJiEEE12DescribeImplINS6_11ValuePolicyINS0_15AnythingMatcherELb1EEEEEvRKS6_PSob, ptr @_ZN7testing8internal11MatcherBaseIRKSt5tupleIJiEEE16GetDescriberImplINS6_11ValuePolicyINS0_15AnythingMatcherELb1EEEEEPKNS_25MatcherDescriberInterfaceERKS6_, ptr null }, comdat, align 8
@_ZTVSt15_Sp_counted_ptrIPN7testing8internal16TypedExpectationIFliEEELN9__gnu_cxx12_Lock_policyE2EE = linkonce_odr dso_local unnamed_addr constant { [7 x ptr] } { [7 x ptr] [ptr null, ptr @_ZTISt15_Sp_counted_ptrIPN7testing8internal16TypedExpectationIFliEEELN9__gnu_cxx12_Lock_policyE2EE, ptr @_ZNSt15_Sp_counted_ptrIPN7testing8internal16TypedExpectationIFliEEELN9__gnu_cxx12_Lock_policyE2EED2Ev, ptr @_ZNSt15_Sp_counted_ptrIPN7testing8internal16TypedExpectationIFliEEELN9__gnu_cxx12_Lock_policyE2EED0Ev, ptr @_ZNSt15_Sp_counted_ptrIPN7testing8internal16TypedExpectationIFliEEELN9__gnu_cxx12_Lock_policyE2EE10_M_disposeEv, ptr @_ZNSt15_Sp_counted_ptrIPN7testing8internal16TypedExpectationIFliEEELN9__gnu_cxx12_Lock_policyE2EE10_M_destroyEv, ptr @_ZNSt15_Sp_counted_ptrIPN7testing8internal16TypedExpectationIFliEEELN9__gnu_cxx12_Lock_policyE2EE14_M_get_deleterERKSt9type_info] }, comdat, align 8
@_ZTSSt15_Sp_counted_ptrIPN7testing8internal16TypedExpectationIFliEEELN9__gnu_cxx12_Lock_policyE2EE = linkonce_odr dso_local constant [95 x i8] c"St15_Sp_counted_ptrIPN7testing8internal16TypedExpectationIFliEEELN9__gnu_cxx12_Lock_policyE2EE\00", comdat, align 1
@_ZTISt15_Sp_counted_ptrIPN7testing8internal16TypedExpectationIFliEEELN9__gnu_cxx12_Lock_policyE2EE = linkonce_odr dso_local constant { ptr, ptr, ptr } { ptr getelementptr inbounds (ptr, ptr @_ZTVN10__cxxabiv120__si_class_type_infoE, i64 2), ptr @_ZTSSt15_Sp_counted_ptrIPN7testing8internal16TypedExpectationIFliEEELN9__gnu_cxx12_Lock_policyE2EE, ptr @_ZTISt16_Sp_counted_baseILN9__gnu_cxx12_Lock_policyE2EE }, comdat, align 8
@.str.100 = private unnamed_addr constant [77 x i8] c".WillOnce() cannot appear after .WillRepeatedly() or .RetiresOnSaturation().\00", align 1
@_ZTVSt23_Sp_counted_ptr_inplaceIN7testing10OnceActionIFliEEESaIvELN9__gnu_cxx12_Lock_policyE2EE = linkonce_odr dso_local unnamed_addr constant { [7 x ptr] } { [7 x ptr] [ptr null, ptr @_ZTISt23_Sp_counted_ptr_inplaceIN7testing10OnceActionIFliEEESaIvELN9__gnu_cxx12_Lock_policyE2EE, ptr @_ZNSt23_Sp_counted_ptr_inplaceIN7testing10OnceActionIFliEEESaIvELN9__gnu_cxx12_Lock_policyE2EED2Ev, ptr @_ZNSt23_Sp_counted_ptr_inplaceIN7testing10OnceActionIFliEEESaIvELN9__gnu_cxx12_Lock_policyE2EED0Ev, ptr @_ZNSt23_Sp_counted_ptr_inplaceIN7testing10OnceActionIFliEEESaIvELN9__gnu_cxx12_Lock_policyE2EE10_M_disposeEv, ptr @_ZNSt23_Sp_counted_ptr_inplaceIN7testing10OnceActionIFliEEESaIvELN9__gnu_cxx12_Lock_policyE2EE10_M_destroyEv, ptr @_ZNSt23_Sp_counted_ptr_inplaceIN7testing10OnceActionIFliEEESaIvELN9__gnu_cxx12_Lock_policyE2EE14_M_get_deleterERKSt9type_info] }, comdat, align 8
@_ZTSSt23_Sp_counted_ptr_inplaceIN7testing10OnceActionIFliEEESaIvELN9__gnu_cxx12_Lock_policyE2EE = linkonce_odr dso_local constant [92 x i8] c"St23_Sp_counted_ptr_inplaceIN7testing10OnceActionIFliEEESaIvELN9__gnu_cxx12_Lock_policyE2EE\00", comdat, align 1
@_ZTISt23_Sp_counted_ptr_inplaceIN7testing10OnceActionIFliEEESaIvELN9__gnu_cxx12_Lock_policyE2EE = linkonce_odr dso_local constant { ptr, ptr, ptr } { ptr getelementptr inbounds (ptr, ptr @_ZTVN10__cxxabiv120__si_class_type_infoE, i64 2), ptr @_ZTSSt23_Sp_counted_ptr_inplaceIN7testing10OnceActionIFliEEESaIvELN9__gnu_cxx12_Lock_policyE2EE, ptr @_ZTISt16_Sp_counted_baseILN9__gnu_cxx12_Lock_policyE2EE }, comdat, align 8
@_ZTSSt19_Sp_make_shared_tag = linkonce_odr dso_local constant [24 x i8] c"St19_Sp_make_shared_tag\00", comdat, align 1
@_ZZNSt19_Sp_make_shared_tag5_S_tiEvE5__tag = linkonce_odr dso_local constant [16 x i8] zeroinitializer, comdat, align 8
@_ZTSN7testing8internal16TypedExpectationIFliEE13ActionAdaptorE = linkonce_odr dso_local constant [59 x i8] c"N7testing8internal16TypedExpectationIFliEE13ActionAdaptorE\00", comdat, align 1
@_ZTIN7testing8internal16TypedExpectationIFliEE13ActionAdaptorE = linkonce_odr dso_local constant { ptr, ptr } { ptr getelementptr inbounds (ptr, ptr @_ZTVN10__cxxabiv117__class_type_infoE, i64 2), ptr @_ZTSN7testing8internal16TypedExpectationIFliEE13ActionAdaptorE }, comdat, align 8
@_ZTVSt15_Sp_counted_ptrIPN7testing8internal12ReturnActionIiE4ImplIlE5StateELN9__gnu_cxx12_Lock_policyE2EE = linkonce_odr dso_local unnamed_addr constant { [7 x ptr] } { [7 x ptr] [ptr null, ptr @_ZTISt15_Sp_counted_ptrIPN7testing8internal12ReturnActionIiE4ImplIlE5StateELN9__gnu_cxx12_Lock_policyE2EE, ptr @_ZNSt15_Sp_counted_ptrIPN7testing8internal12ReturnActionIiE4ImplIlE5StateELN9__gnu_cxx12_Lock_policyE2EED2Ev, ptr @_ZNSt15_Sp_counted_ptrIPN7testing8internal12ReturnActionIiE4ImplIlE5StateELN9__gnu_cxx12_Lock_policyE2EED0Ev, ptr @_ZNSt15_Sp_counted_ptrIPN7testing8internal12ReturnActionIiE4ImplIlE5StateELN9__gnu_cxx12_Lock_policyE2EE10_M_disposeEv, ptr @_ZNSt15_Sp_counted_ptrIPN7testing8internal12ReturnActionIiE4ImplIlE5StateELN9__gnu_cxx12_Lock_policyE2EE10_M_destroyEv, ptr @_ZNSt15_Sp_counted_ptrIPN7testing8internal12ReturnActionIiE4ImplIlE5StateELN9__gnu_cxx12_Lock_policyE2EE14_M_get_deleterERKSt9type_info] }, comdat, align 8
@_ZTSSt15_Sp_counted_ptrIPN7testing8internal12ReturnActionIiE4ImplIlE5StateELN9__gnu_cxx12_Lock_policyE2EE = linkonce_odr dso_local constant [102 x i8] c"St15_Sp_counted_ptrIPN7testing8internal12ReturnActionIiE4ImplIlE5StateELN9__gnu_cxx12_Lock_policyE2EE\00", comdat, align 1
@_ZTISt15_Sp_counted_ptrIPN7testing8internal12ReturnActionIiE4ImplIlE5StateELN9__gnu_cxx12_Lock_policyE2EE = linkonce_odr dso_local constant { ptr, ptr, ptr } { ptr getelementptr inbounds (ptr, ptr @_ZTVN10__cxxabiv120__si_class_type_infoE, i64 2), ptr @_ZTSSt15_Sp_counted_ptrIPN7testing8internal12ReturnActionIiE4ImplIlE5StateELN9__gnu_cxx12_Lock_policyE2EE, ptr @_ZTISt16_Sp_counted_baseILN9__gnu_cxx12_Lock_policyE2EE }, comdat, align 8
@_ZTVSt23_Sp_counted_ptr_inplaceIN7testing10OnceActionIFliEE23IgnoreIncomingArgumentsINS0_8internal12ReturnActionIiE4ImplIlEEEESaIvELN9__gnu_cxx12_Lock_policyE2EE = linkonce_odr dso_local unnamed_addr constant { [7 x ptr] } { [7 x ptr] [ptr null, ptr @_ZTISt23_Sp_counted_ptr_inplaceIN7testing10OnceActionIFliEE23IgnoreIncomingArgumentsINS0_8internal12ReturnActionIiE4ImplIlEEEESaIvELN9__gnu_cxx12_Lock_policyE2EE, ptr @_ZNSt23_Sp_counted_ptr_inplaceIN7testing10OnceActionIFliEE23IgnoreIncomingArgumentsINS0_8internal12ReturnActionIiE4ImplIlEEEESaIvELN9__gnu_cxx12_Lock_policyE2EED2Ev, ptr @_ZNSt23_Sp_counted_ptr_inplaceIN7testing10OnceActionIFliEE23IgnoreIncomingArgumentsINS0_8internal12ReturnActionIiE4ImplIlEEEESaIvELN9__gnu_cxx12_Lock_policyE2EED0Ev, ptr @_ZNSt23_Sp_counted_ptr_inplaceIN7testing10OnceActionIFliEE23IgnoreIncomingArgumentsINS0_8internal12ReturnActionIiE4ImplIlEEEESaIvELN9__gnu_cxx12_Lock_policyE2EE10_M_disposeEv, ptr @_ZNSt23_Sp_counted_ptr_inplaceIN7testing10OnceActionIFliEE23IgnoreIncomingArgumentsINS0_8internal12ReturnActionIiE4ImplIlEEEESaIvELN9__gnu_cxx12_Lock_policyE2EE10_M_destroyEv, ptr @_ZNSt23_Sp_counted_ptr_inplaceIN7testing10OnceActionIFliEE23IgnoreIncomingArgumentsINS0_8internal12ReturnActionIiE4ImplIlEEEESaIvELN9__gnu_cxx12_Lock_policyE2EE14_M_get_deleterERKSt9type_info] }, comdat, align 8
@_ZTSSt23_Sp_counted_ptr_inplaceIN7testing10OnceActionIFliEE23IgnoreIncomingArgumentsINS0_8internal12ReturnActionIiE4ImplIlEEEESaIvELN9__gnu_cxx12_Lock_policyE2EE = linkonce_odr dso_local constant [158 x i8] c"St23_Sp_counted_ptr_inplaceIN7testing10OnceActionIFliEE23IgnoreIncomingArgumentsINS0_8internal12ReturnActionIiE4ImplIlEEEESaIvELN9__gnu_cxx12_Lock_policyE2EE\00", comdat, align 1
@_ZTISt23_Sp_counted_ptr_inplaceIN7testing10OnceActionIFliEE23IgnoreIncomingArgumentsINS0_8internal12ReturnActionIiE4ImplIlEEEESaIvELN9__gnu_cxx12_Lock_policyE2EE = linkonce_odr dso_local constant { ptr, ptr, ptr } { ptr getelementptr inbounds (ptr, ptr @_ZTVN10__cxxabiv120__si_class_type_infoE, i64 2), ptr @_ZTSSt23_Sp_counted_ptr_inplaceIN7testing10OnceActionIFliEE23IgnoreIncomingArgumentsINS0_8internal12ReturnActionIiE4ImplIlEEEESaIvELN9__gnu_cxx12_Lock_policyE2EE, ptr @_ZTISt16_Sp_counted_baseILN9__gnu_cxx12_Lock_policyE2EE }, comdat, align 8
@_ZTSN7testing10OnceActionIFliEE18StdFunctionAdaptorINS2_23IgnoreIncomingArgumentsINS_8internal12ReturnActionIiE4ImplIlEEEEEE = linkonce_odr dso_local constant [121 x i8] c"N7testing10OnceActionIFliEE18StdFunctionAdaptorINS2_23IgnoreIncomingArgumentsINS_8internal12ReturnActionIiE4ImplIlEEEEEE\00", comdat, align 1
@_ZTIN7testing10OnceActionIFliEE18StdFunctionAdaptorINS2_23IgnoreIncomingArgumentsINS_8internal12ReturnActionIiE4ImplIlEEEEEE = linkonce_odr dso_local constant { ptr, ptr } { ptr getelementptr inbounds (ptr, ptr @_ZTVN10__cxxabiv117__class_type_infoE, i64 2), ptr @_ZTSN7testing10OnceActionIFliEE18StdFunctionAdaptorINS2_23IgnoreIncomingArgumentsINS_8internal12ReturnActionIiE4ImplIlEEEEEE }, comdat, align 8
@_ZTVN7testing8internal15TestFactoryImplIN4absl18profiling_internal12_GLOBAL__N_146PeriodicSamplerBaseTest_ImmediatelySample_TestEEE = internal unnamed_addr constant { [5 x ptr] } { [5 x ptr] [ptr null, ptr @_ZTIN7testing8internal15TestFactoryImplIN4absl18profiling_internal12_GLOBAL__N_146PeriodicSamplerBaseTest_ImmediatelySample_TestEEE, ptr @_ZN7testing8internal15TestFactoryImplIN4absl18profiling_internal12_GLOBAL__N_146PeriodicSamplerBaseTest_ImmediatelySample_TestEED2Ev, ptr @_ZN7testing8internal15TestFactoryImplIN4absl18profiling_internal12_GLOBAL__N_146PeriodicSamplerBaseTest_ImmediatelySample_TestEED0Ev, ptr @_ZN7testing8internal15TestFactoryImplIN4absl18profiling_internal12_GLOBAL__N_146PeriodicSamplerBaseTest_ImmediatelySample_TestEE10CreateTestEv] }, align 8
@_ZTSN7testing8internal15TestFactoryImplIN4absl18profiling_internal12_GLOBAL__N_146PeriodicSamplerBaseTest_ImmediatelySample_TestEEE = internal constant [128 x i8] c"N7testing8internal15TestFactoryImplIN4absl18profiling_internal12_GLOBAL__N_146PeriodicSamplerBaseTest_ImmediatelySample_TestEEE\00", align 1
@_ZTIN7testing8internal15TestFactoryImplIN4absl18profiling_internal12_GLOBAL__N_146PeriodicSamplerBaseTest_ImmediatelySample_TestEEE = internal constant { ptr, ptr, ptr } { ptr getelementptr inbounds (ptr, ptr @_ZTVN10__cxxabiv120__si_class_type_infoE, i64 2), ptr @_ZTSN7testing8internal15TestFactoryImplIN4absl18profiling_internal12_GLOBAL__N_146PeriodicSamplerBaseTest_ImmediatelySample_TestEEE, ptr @_ZTIN7testing8internal15TestFactoryBaseE }, align 8
@_ZTVN4absl18profiling_internal12_GLOBAL__N_146PeriodicSamplerBaseTest_ImmediatelySample_TestE = internal unnamed_addr constant { [8 x ptr] } { [8 x ptr] [ptr null, ptr @_ZTIN4absl18profiling_internal12_GLOBAL__N_146PeriodicSamplerBaseTest_ImmediatelySample_TestE, ptr @_ZN4absl18profiling_internal12_GLOBAL__N_146PeriodicSamplerBaseTest_ImmediatelySample_TestD2Ev, ptr @_ZN4absl18profiling_internal12_GLOBAL__N_146PeriodicSamplerBaseTest_ImmediatelySample_TestD0Ev, ptr @_ZN7testing4Test5SetUpEv, ptr @_ZN7testing4Test8TearDownEv, ptr @_ZN4absl18profiling_internal12_GLOBAL__N_146PeriodicSamplerBaseTest_ImmediatelySample_Test8TestBodyEv, ptr @_ZN7testing4Test5SetupEv] }, align 8
@_ZTSN4absl18profiling_internal12_GLOBAL__N_146PeriodicSamplerBaseTest_ImmediatelySample_TestE = internal constant [90 x i8] c"N4absl18profiling_internal12_GLOBAL__N_146PeriodicSamplerBaseTest_ImmediatelySample_TestE\00", align 1
@_ZTIN4absl18profiling_internal12_GLOBAL__N_146PeriodicSamplerBaseTest_ImmediatelySample_TestE = internal constant { ptr, ptr, ptr } { ptr getelementptr inbounds (ptr, ptr @_ZTVN10__cxxabiv120__si_class_type_infoE, i64 2), ptr @_ZTSN4absl18profiling_internal12_GLOBAL__N_146PeriodicSamplerBaseTest_ImmediatelySample_TestE, ptr @_ZTIN7testing4TestE }, align 8
@_ZTVN7testing8internal15TestFactoryImplIN4absl18profiling_internal12_GLOBAL__N_137PeriodicSamplerBaseTest_Disabled_TestEEE = internal unnamed_addr constant { [5 x ptr] } { [5 x ptr] [ptr null, ptr @_ZTIN7testing8internal15TestFactoryImplIN4absl18profiling_internal12_GLOBAL__N_137PeriodicSamplerBaseTest_Disabled_TestEEE, ptr @_ZN7testing8internal15TestFactoryImplIN4absl18profiling_internal12_GLOBAL__N_137PeriodicSamplerBaseTest_Disabled_TestEED2Ev, ptr @_ZN7testing8internal15TestFactoryImplIN4absl18profiling_internal12_GLOBAL__N_137PeriodicSamplerBaseTest_Disabled_TestEED0Ev, ptr @_ZN7testing8internal15TestFactoryImplIN4absl18profiling_internal12_GLOBAL__N_137PeriodicSamplerBaseTest_Disabled_TestEE10CreateTestEv] }, align 8
@_ZTSN7testing8internal15TestFactoryImplIN4absl18profiling_internal12_GLOBAL__N_137PeriodicSamplerBaseTest_Disabled_TestEEE = internal constant [119 x i8] c"N7testing8internal15TestFactoryImplIN4absl18profiling_internal12_GLOBAL__N_137PeriodicSamplerBaseTest_Disabled_TestEEE\00", align 1
@_ZTIN7testing8internal15TestFactoryImplIN4absl18profiling_internal12_GLOBAL__N_137PeriodicSamplerBaseTest_Disabled_TestEEE = internal constant { ptr, ptr, ptr } { ptr getelementptr inbounds (ptr, ptr @_ZTVN10__cxxabiv120__si_class_type_infoE, i64 2), ptr @_ZTSN7testing8internal15TestFactoryImplIN4absl18profiling_internal12_GLOBAL__N_137PeriodicSamplerBaseTest_Disabled_TestEEE, ptr @_ZTIN7testing8internal15TestFactoryBaseE }, align 8
@_ZTVN4absl18profiling_internal12_GLOBAL__N_137PeriodicSamplerBaseTest_Disabled_TestE = internal unnamed_addr constant { [8 x ptr] } { [8 x ptr] [ptr null, ptr @_ZTIN4absl18profiling_internal12_GLOBAL__N_137PeriodicSamplerBaseTest_Disabled_TestE, ptr @_ZN4absl18profiling_internal12_GLOBAL__N_137PeriodicSamplerBaseTest_Disabled_TestD2Ev, ptr @_ZN4absl18profiling_internal12_GLOBAL__N_137PeriodicSamplerBaseTest_Disabled_TestD0Ev, ptr @_ZN7testing4Test5SetUpEv, ptr @_ZN7testing4Test8TearDownEv, ptr @_ZN4absl18profiling_internal12_GLOBAL__N_137PeriodicSamplerBaseTest_Disabled_Test8TestBodyEv, ptr @_ZN7testing4Test5SetupEv] }, align 8
@_ZTSN4absl18profiling_internal12_GLOBAL__N_137PeriodicSamplerBaseTest_Disabled_TestE = internal constant [81 x i8] c"N4absl18profiling_internal12_GLOBAL__N_137PeriodicSamplerBaseTest_Disabled_TestE\00", align 1
@_ZTIN4absl18profiling_internal12_GLOBAL__N_137PeriodicSamplerBaseTest_Disabled_TestE = internal constant { ptr, ptr, ptr } { ptr getelementptr inbounds (ptr, ptr @_ZTVN10__cxxabiv120__si_class_type_infoE, i64 2), ptr @_ZTSN4absl18profiling_internal12_GLOBAL__N_137PeriodicSamplerBaseTest_Disabled_TestE, ptr @_ZTIN7testing4TestE }, align 8
@_ZTVN7testing8internal15TestFactoryImplIN4absl18profiling_internal12_GLOBAL__N_137PeriodicSamplerBaseTest_AlwaysOn_TestEEE = internal unnamed_addr constant { [5 x ptr] } { [5 x ptr] [ptr null, ptr @_ZTIN7testing8internal15TestFactoryImplIN4absl18profiling_internal12_GLOBAL__N_137PeriodicSamplerBaseTest_AlwaysOn_TestEEE, ptr @_ZN7testing8internal15TestFactoryImplIN4absl18profiling_internal12_GLOBAL__N_137PeriodicSamplerBaseTest_AlwaysOn_TestEED2Ev, ptr @_ZN7testing8internal15TestFactoryImplIN4absl18profiling_internal12_GLOBAL__N_137PeriodicSamplerBaseTest_AlwaysOn_TestEED0Ev, ptr @_ZN7testing8internal15TestFactoryImplIN4absl18profiling_internal12_GLOBAL__N_137PeriodicSamplerBaseTest_AlwaysOn_TestEE10CreateTestEv] }, align 8
@_ZTSN7testing8internal15TestFactoryImplIN4absl18profiling_internal12_GLOBAL__N_137PeriodicSamplerBaseTest_AlwaysOn_TestEEE = internal constant [119 x i8] c"N7testing8internal15TestFactoryImplIN4absl18profiling_internal12_GLOBAL__N_137PeriodicSamplerBaseTest_AlwaysOn_TestEEE\00", align 1
@_ZTIN7testing8internal15TestFactoryImplIN4absl18profiling_internal12_GLOBAL__N_137PeriodicSamplerBaseTest_AlwaysOn_TestEEE = internal constant { ptr, ptr, ptr } { ptr getelementptr inbounds (ptr, ptr @_ZTVN10__cxxabiv120__si_class_type_infoE, i64 2), ptr @_ZTSN7testing8internal15TestFactoryImplIN4absl18profiling_internal12_GLOBAL__N_137PeriodicSamplerBaseTest_AlwaysOn_TestEEE, ptr @_ZTIN7testing8internal15TestFactoryBaseE }, align 8
@_ZTVN4absl18profiling_internal12_GLOBAL__N_137PeriodicSamplerBaseTest_AlwaysOn_TestE = internal unnamed_addr constant { [8 x ptr] } { [8 x ptr] [ptr null, ptr @_ZTIN4absl18profiling_internal12_GLOBAL__N_137PeriodicSamplerBaseTest_AlwaysOn_TestE, ptr @_ZN4absl18profiling_internal12_GLOBAL__N_137PeriodicSamplerBaseTest_AlwaysOn_TestD2Ev, ptr @_ZN4absl18profiling_internal12_GLOBAL__N_137PeriodicSamplerBaseTest_AlwaysOn_TestD0Ev, ptr @_ZN7testing4Test5SetUpEv, ptr @_ZN7testing4Test8TearDownEv, ptr @_ZN4absl18profiling_internal12_GLOBAL__N_137PeriodicSamplerBaseTest_AlwaysOn_Test8TestBodyEv, ptr @_ZN7testing4Test5SetupEv] }, align 8
@_ZTSN4absl18profiling_internal12_GLOBAL__N_137PeriodicSamplerBaseTest_AlwaysOn_TestE = internal constant [81 x i8] c"N4absl18profiling_internal12_GLOBAL__N_137PeriodicSamplerBaseTest_AlwaysOn_TestE\00", align 1
@_ZTIN4absl18profiling_internal12_GLOBAL__N_137PeriodicSamplerBaseTest_AlwaysOn_TestE = internal constant { ptr, ptr, ptr } { ptr getelementptr inbounds (ptr, ptr @_ZTVN10__cxxabiv120__si_class_type_infoE, i64 2), ptr @_ZTSN4absl18profiling_internal12_GLOBAL__N_137PeriodicSamplerBaseTest_AlwaysOn_TestE, ptr @_ZTIN7testing4TestE }, align 8
@_ZTVN7testing8internal15TestFactoryImplIN4absl18profiling_internal12_GLOBAL__N_136PeriodicSamplerBaseTest_Disable_TestEEE = internal unnamed_addr constant { [5 x ptr] } { [5 x ptr] [ptr null, ptr @_ZTIN7testing8internal15TestFactoryImplIN4absl18profiling_internal12_GLOBAL__N_136PeriodicSamplerBaseTest_Disable_TestEEE, ptr @_ZN7testing8internal15TestFactoryImplIN4absl18profiling_internal12_GLOBAL__N_136PeriodicSamplerBaseTest_Disable_TestEED2Ev, ptr @_ZN7testing8internal15TestFactoryImplIN4absl18profiling_internal12_GLOBAL__N_136PeriodicSamplerBaseTest_Disable_TestEED0Ev, ptr @_ZN7testing8internal15TestFactoryImplIN4absl18profiling_internal12_GLOBAL__N_136PeriodicSamplerBaseTest_Disable_TestEE10CreateTestEv] }, align 8
@_ZTSN7testing8internal15TestFactoryImplIN4absl18profiling_internal12_GLOBAL__N_136PeriodicSamplerBaseTest_Disable_TestEEE = internal constant [118 x i8] c"N7testing8internal15TestFactoryImplIN4absl18profiling_internal12_GLOBAL__N_136PeriodicSamplerBaseTest_Disable_TestEEE\00", align 1
@_ZTIN7testing8internal15TestFactoryImplIN4absl18profiling_internal12_GLOBAL__N_136PeriodicSamplerBaseTest_Disable_TestEEE = internal constant { ptr, ptr, ptr } { ptr getelementptr inbounds (ptr, ptr @_ZTVN10__cxxabiv120__si_class_type_infoE, i64 2), ptr @_ZTSN7testing8internal15TestFactoryImplIN4absl18profiling_internal12_GLOBAL__N_136PeriodicSamplerBaseTest_Disable_TestEEE, ptr @_ZTIN7testing8internal15TestFactoryBaseE }, align 8
@_ZTVN4absl18profiling_internal12_GLOBAL__N_136PeriodicSamplerBaseTest_Disable_TestE = internal unnamed_addr constant { [8 x ptr] } { [8 x ptr] [ptr null, ptr @_ZTIN4absl18profiling_internal12_GLOBAL__N_136PeriodicSamplerBaseTest_Disable_TestE, ptr @_ZN4absl18profiling_internal12_GLOBAL__N_136PeriodicSamplerBaseTest_Disable_TestD2Ev, ptr @_ZN4absl18profiling_internal12_GLOBAL__N_136PeriodicSamplerBaseTest_Disable_TestD0Ev, ptr @_ZN7testing4Test5SetUpEv, ptr @_ZN7testing4Test8TearDownEv, ptr @_ZN4absl18profiling_internal12_GLOBAL__N_136PeriodicSamplerBaseTest_Disable_Test8TestBodyEv, ptr @_ZN7testing4Test5SetupEv] }, align 8
@_ZTSN4absl18profiling_internal12_GLOBAL__N_136PeriodicSamplerBaseTest_Disable_TestE = internal constant [80 x i8] c"N4absl18profiling_internal12_GLOBAL__N_136PeriodicSamplerBaseTest_Disable_TestE\00", align 1
@_ZTIN4absl18profiling_internal12_GLOBAL__N_136PeriodicSamplerBaseTest_Disable_TestE = internal constant { ptr, ptr, ptr } { ptr getelementptr inbounds (ptr, ptr @_ZTVN10__cxxabiv120__si_class_type_infoE, i64 2), ptr @_ZTSN4absl18profiling_internal12_GLOBAL__N_136PeriodicSamplerBaseTest_Disable_TestE, ptr @_ZTIN7testing4TestE }, align 8
@_ZTVSt23_Sp_counted_ptr_inplaceIN7testing10OnceActionIFivEEESaIvELN9__gnu_cxx12_Lock_policyE2EE = linkonce_odr dso_local unnamed_addr constant { [7 x ptr] } { [7 x ptr] [ptr null, ptr @_ZTISt23_Sp_counted_ptr_inplaceIN7testing10OnceActionIFivEEESaIvELN9__gnu_cxx12_Lock_policyE2EE, ptr @_ZNSt23_Sp_counted_ptr_inplaceIN7testing10OnceActionIFivEEESaIvELN9__gnu_cxx12_Lock_policyE2EED2Ev, ptr @_ZNSt23_Sp_counted_ptr_inplaceIN7testing10OnceActionIFivEEESaIvELN9__gnu_cxx12_Lock_policyE2EED0Ev, ptr @_ZNSt23_Sp_counted_ptr_inplaceIN7testing10OnceActionIFivEEESaIvELN9__gnu_cxx12_Lock_policyE2EE10_M_disposeEv, ptr @_ZNSt23_Sp_counted_ptr_inplaceIN7testing10OnceActionIFivEEESaIvELN9__gnu_cxx12_Lock_policyE2EE10_M_destroyEv, ptr @_ZNSt23_Sp_counted_ptr_inplaceIN7testing10OnceActionIFivEEESaIvELN9__gnu_cxx12_Lock_policyE2EE14_M_get_deleterERKSt9type_info] }, comdat, align 8
@_ZTSSt23_Sp_counted_ptr_inplaceIN7testing10OnceActionIFivEEESaIvELN9__gnu_cxx12_Lock_policyE2EE = linkonce_odr dso_local constant [92 x i8] c"St23_Sp_counted_ptr_inplaceIN7testing10OnceActionIFivEEESaIvELN9__gnu_cxx12_Lock_policyE2EE\00", comdat, align 1
@_ZTISt23_Sp_counted_ptr_inplaceIN7testing10OnceActionIFivEEESaIvELN9__gnu_cxx12_Lock_policyE2EE = linkonce_odr dso_local constant { ptr, ptr, ptr } { ptr getelementptr inbounds (ptr, ptr @_ZTVN10__cxxabiv120__si_class_type_infoE, i64 2), ptr @_ZTSSt23_Sp_counted_ptr_inplaceIN7testing10OnceActionIFivEEESaIvELN9__gnu_cxx12_Lock_policyE2EE, ptr @_ZTISt16_Sp_counted_baseILN9__gnu_cxx12_Lock_policyE2EE }, comdat, align 8
@_ZTSN7testing8internal16TypedExpectationIFivEE13ActionAdaptorE = linkonce_odr dso_local constant [59 x i8] c"N7testing8internal16TypedExpectationIFivEE13ActionAdaptorE\00", comdat, align 1
@_ZTIN7testing8internal16TypedExpectationIFivEE13ActionAdaptorE = linkonce_odr dso_local constant { ptr, ptr } { ptr getelementptr inbounds (ptr, ptr @_ZTVN10__cxxabiv117__class_type_infoE, i64 2), ptr @_ZTSN7testing8internal16TypedExpectationIFivEE13ActionAdaptorE }, comdat, align 8
@_ZTVSt23_Sp_counted_ptr_inplaceIN7testing8internal12ReturnActionIiE4ImplIiEESaIvELN9__gnu_cxx12_Lock_policyE2EE = linkonce_odr dso_local unnamed_addr constant { [7 x ptr] } { [7 x ptr] [ptr null, ptr @_ZTISt23_Sp_counted_ptr_inplaceIN7testing8internal12ReturnActionIiE4ImplIiEESaIvELN9__gnu_cxx12_Lock_policyE2EE, ptr @_ZNSt23_Sp_counted_ptr_inplaceIN7testing8internal12ReturnActionIiE4ImplIiEESaIvELN9__gnu_cxx12_Lock_policyE2EED2Ev, ptr @_ZNSt23_Sp_counted_ptr_inplaceIN7testing8internal12ReturnActionIiE4ImplIiEESaIvELN9__gnu_cxx12_Lock_policyE2EED0Ev, ptr @_ZNSt23_Sp_counted_ptr_inplaceIN7testing8internal12ReturnActionIiE4ImplIiEESaIvELN9__gnu_cxx12_Lock_policyE2EE10_M_disposeEv, ptr @_ZNSt23_Sp_counted_ptr_inplaceIN7testing8internal12ReturnActionIiE4ImplIiEESaIvELN9__gnu_cxx12_Lock_policyE2EE10_M_destroyEv, ptr @_ZNSt23_Sp_counted_ptr_inplaceIN7testing8internal12ReturnActionIiE4ImplIiEESaIvELN9__gnu_cxx12_Lock_policyE2EE14_M_get_deleterERKSt9type_info] }, comdat, align 8
@_ZTSSt23_Sp_counted_ptr_inplaceIN7testing8internal12ReturnActionIiE4ImplIiEESaIvELN9__gnu_cxx12_Lock_policyE2EE = linkonce_odr dso_local constant [108 x i8] c"St23_Sp_counted_ptr_inplaceIN7testing8internal12ReturnActionIiE4ImplIiEESaIvELN9__gnu_cxx12_Lock_policyE2EE\00", comdat, align 1
@_ZTISt23_Sp_counted_ptr_inplaceIN7testing8internal12ReturnActionIiE4ImplIiEESaIvELN9__gnu_cxx12_Lock_policyE2EE = linkonce_odr dso_local constant { ptr, ptr, ptr } { ptr getelementptr inbounds (ptr, ptr @_ZTVN10__cxxabiv120__si_class_type_infoE, i64 2), ptr @_ZTSSt23_Sp_counted_ptr_inplaceIN7testing8internal12ReturnActionIiE4ImplIiEESaIvELN9__gnu_cxx12_Lock_policyE2EE, ptr @_ZTISt16_Sp_counted_baseILN9__gnu_cxx12_Lock_policyE2EE }, comdat, align 8
@_ZTSN7testing10OnceActionIFivEE18StdFunctionAdaptorINS_8internal12ReturnActionIiE4ImplIiEEEE = linkonce_odr dso_local constant [89 x i8] c"N7testing10OnceActionIFivEE18StdFunctionAdaptorINS_8internal12ReturnActionIiE4ImplIiEEEE\00", comdat, align 1
@_ZTIN7testing10OnceActionIFivEE18StdFunctionAdaptorINS_8internal12ReturnActionIiE4ImplIiEEEE = linkonce_odr dso_local constant { ptr, ptr } { ptr getelementptr inbounds (ptr, ptr @_ZTVN10__cxxabiv117__class_type_infoE, i64 2), ptr @_ZTSN7testing10OnceActionIFivEE18StdFunctionAdaptorINS_8internal12ReturnActionIiE4ImplIiEEEE }, comdat, align 8
@_ZTVN7testing8internal15TestFactoryImplIN4absl18profiling_internal12_GLOBAL__N_135PeriodicSamplerBaseTest_Enable_TestEEE = internal unnamed_addr constant { [5 x ptr] } { [5 x ptr] [ptr null, ptr @_ZTIN7testing8internal15TestFactoryImplIN4absl18profiling_internal12_GLOBAL__N_135PeriodicSamplerBaseTest_Enable_TestEEE, ptr @_ZN7testing8internal15TestFactoryImplIN4absl18profiling_internal12_GLOBAL__N_135PeriodicSamplerBaseTest_Enable_TestEED2Ev, ptr @_ZN7testing8internal15TestFactoryImplIN4absl18profiling_internal12_GLOBAL__N_135PeriodicSamplerBaseTest_Enable_TestEED0Ev, ptr @_ZN7testing8internal15TestFactoryImplIN4absl18profiling_internal12_GLOBAL__N_135PeriodicSamplerBaseTest_Enable_TestEE10CreateTestEv] }, align 8
@_ZTSN7testing8internal15TestFactoryImplIN4absl18profiling_internal12_GLOBAL__N_135PeriodicSamplerBaseTest_Enable_TestEEE = internal constant [117 x i8] c"N7testing8internal15TestFactoryImplIN4absl18profiling_internal12_GLOBAL__N_135PeriodicSamplerBaseTest_Enable_TestEEE\00", align 1
@_ZTIN7testing8internal15TestFactoryImplIN4absl18profiling_internal12_GLOBAL__N_135PeriodicSamplerBaseTest_Enable_TestEEE = internal constant { ptr, ptr, ptr } { ptr getelementptr inbounds (ptr, ptr @_ZTVN10__cxxabiv120__si_class_type_infoE, i64 2), ptr @_ZTSN7testing8internal15TestFactoryImplIN4absl18profiling_internal12_GLOBAL__N_135PeriodicSamplerBaseTest_Enable_TestEEE, ptr @_ZTIN7testing8internal15TestFactoryBaseE }, align 8
@_ZTVN4absl18profiling_internal12_GLOBAL__N_135PeriodicSamplerBaseTest_Enable_TestE = internal unnamed_addr constant { [8 x ptr] } { [8 x ptr] [ptr null, ptr @_ZTIN4absl18profiling_internal12_GLOBAL__N_135PeriodicSamplerBaseTest_Enable_TestE, ptr @_ZN4absl18profiling_internal12_GLOBAL__N_135PeriodicSamplerBaseTest_Enable_TestD2Ev, ptr @_ZN4absl18profiling_internal12_GLOBAL__N_135PeriodicSamplerBaseTest_Enable_TestD0Ev, ptr @_ZN7testing4Test5SetUpEv, ptr @_ZN7testing4Test8TearDownEv, ptr @_ZN4absl18profiling_internal12_GLOBAL__N_135PeriodicSamplerBaseTest_Enable_Test8TestBodyEv, ptr @_ZN7testing4Test5SetupEv] }, align 8
@_ZTSN4absl18profiling_internal12_GLOBAL__N_135PeriodicSamplerBaseTest_Enable_TestE = internal constant [79 x i8] c"N4absl18profiling_internal12_GLOBAL__N_135PeriodicSamplerBaseTest_Enable_TestE\00", align 1
@_ZTIN4absl18profiling_internal12_GLOBAL__N_135PeriodicSamplerBaseTest_Enable_TestE = internal constant { ptr, ptr, ptr } { ptr getelementptr inbounds (ptr, ptr @_ZTVN10__cxxabiv120__si_class_type_infoE, i64 2), ptr @_ZTSN4absl18profiling_internal12_GLOBAL__N_135PeriodicSamplerBaseTest_Enable_TestE, ptr @_ZTIN7testing4TestE }, align 8
@_ZTSN7testing6ActionIFliEE10IgnoreArgsINS_8internal12ReturnActionIiE4ImplIlEEEE = linkonce_odr dso_local constant [76 x i8] c"N7testing6ActionIFliEE10IgnoreArgsINS_8internal12ReturnActionIiE4ImplIlEEEE\00", comdat, align 1
@_ZTIN7testing6ActionIFliEE10IgnoreArgsINS_8internal12ReturnActionIiE4ImplIlEEEE = linkonce_odr dso_local constant { ptr, ptr } { ptr getelementptr inbounds (ptr, ptr @_ZTVN10__cxxabiv117__class_type_infoE, i64 2), ptr @_ZTSN7testing6ActionIFliEE10IgnoreArgsINS_8internal12ReturnActionIiE4ImplIlEEEE }, comdat, align 8
@_ZTVN7testing8internal15TestFactoryImplIN4absl18profiling_internal12_GLOBAL__N_143PeriodicSamplerTest_ConstructConstInit_TestEEE = internal unnamed_addr constant { [5 x ptr] } { [5 x ptr] [ptr null, ptr @_ZTIN7testing8internal15TestFactoryImplIN4absl18profiling_internal12_GLOBAL__N_143PeriodicSamplerTest_ConstructConstInit_TestEEE, ptr @_ZN7testing8internal15TestFactoryImplIN4absl18profiling_internal12_GLOBAL__N_143PeriodicSamplerTest_ConstructConstInit_TestEED2Ev, ptr @_ZN7testing8internal15TestFactoryImplIN4absl18profiling_internal12_GLOBAL__N_143PeriodicSamplerTest_ConstructConstInit_TestEED0Ev, ptr @_ZN7testing8internal15TestFactoryImplIN4absl18profiling_internal12_GLOBAL__N_143PeriodicSamplerTest_ConstructConstInit_TestEE10CreateTestEv] }, align 8
@_ZTSN7testing8internal15TestFactoryImplIN4absl18profiling_internal12_GLOBAL__N_143PeriodicSamplerTest_ConstructConstInit_TestEEE = internal constant [125 x i8] c"N7testing8internal15TestFactoryImplIN4absl18profiling_internal12_GLOBAL__N_143PeriodicSamplerTest_ConstructConstInit_TestEEE\00", align 1
@_ZTIN7testing8internal15TestFactoryImplIN4absl18profiling_internal12_GLOBAL__N_143PeriodicSamplerTest_ConstructConstInit_TestEEE = internal constant { ptr, ptr, ptr } { ptr getelementptr inbounds (ptr, ptr @_ZTVN10__cxxabiv120__si_class_type_infoE, i64 2), ptr @_ZTSN7testing8internal15TestFactoryImplIN4absl18profiling_internal12_GLOBAL__N_143PeriodicSamplerTest_ConstructConstInit_TestEEE, ptr @_ZTIN7testing8internal15TestFactoryBaseE }, align 8
@_ZTVN4absl18profiling_internal12_GLOBAL__N_143PeriodicSamplerTest_ConstructConstInit_TestE = internal unnamed_addr constant { [8 x ptr] } { [8 x ptr] [ptr null, ptr @_ZTIN4absl18profiling_internal12_GLOBAL__N_143PeriodicSamplerTest_ConstructConstInit_TestE, ptr @_ZN4absl18profiling_internal12_GLOBAL__N_143PeriodicSamplerTest_ConstructConstInit_TestD2Ev, ptr @_ZN4absl18profiling_internal12_GLOBAL__N_143PeriodicSamplerTest_ConstructConstInit_TestD0Ev, ptr @_ZN7testing4Test5SetUpEv, ptr @_ZN7testing4Test8TearDownEv, ptr @_ZN4absl18profiling_internal12_GLOBAL__N_143PeriodicSamplerTest_ConstructConstInit_Test8TestBodyEv, ptr @_ZN7testing4Test5SetupEv] }, align 8
@_ZTSN4absl18profiling_internal12_GLOBAL__N_143PeriodicSamplerTest_ConstructConstInit_TestE = internal constant [87 x i8] c"N4absl18profiling_internal12_GLOBAL__N_143PeriodicSamplerTest_ConstructConstInit_TestE\00", align 1
@_ZTIN4absl18profiling_internal12_GLOBAL__N_143PeriodicSamplerTest_ConstructConstInit_TestE = internal constant { ptr, ptr, ptr } { ptr getelementptr inbounds (ptr, ptr @_ZTVN10__cxxabiv120__si_class_type_infoE, i64 2), ptr @_ZTSN4absl18profiling_internal12_GLOBAL__N_143PeriodicSamplerTest_ConstructConstInit_TestE, ptr @_ZTIN7testing4TestE }, align 8
@_ZTVN7testing8internal15TestFactoryImplIN4absl18profiling_internal12_GLOBAL__N_139PeriodicSamplerTest_DefaultPeriod0_TestEEE = internal unnamed_addr constant { [5 x ptr] } { [5 x ptr] [ptr null, ptr @_ZTIN7testing8internal15TestFactoryImplIN4absl18profiling_internal12_GLOBAL__N_139PeriodicSamplerTest_DefaultPeriod0_TestEEE, ptr @_ZN7testing8internal15TestFactoryImplIN4absl18profiling_internal12_GLOBAL__N_139PeriodicSamplerTest_DefaultPeriod0_TestEED2Ev, ptr @_ZN7testing8internal15TestFactoryImplIN4absl18profiling_internal12_GLOBAL__N_139PeriodicSamplerTest_DefaultPeriod0_TestEED0Ev, ptr @_ZN7testing8internal15TestFactoryImplIN4absl18profiling_internal12_GLOBAL__N_139PeriodicSamplerTest_DefaultPeriod0_TestEE10CreateTestEv] }, align 8
@_ZTSN7testing8internal15TestFactoryImplIN4absl18profiling_internal12_GLOBAL__N_139PeriodicSamplerTest_DefaultPeriod0_TestEEE = internal constant [121 x i8] c"N7testing8internal15TestFactoryImplIN4absl18profiling_internal12_GLOBAL__N_139PeriodicSamplerTest_DefaultPeriod0_TestEEE\00", align 1
@_ZTIN7testing8internal15TestFactoryImplIN4absl18profiling_internal12_GLOBAL__N_139PeriodicSamplerTest_DefaultPeriod0_TestEEE = internal constant { ptr, ptr, ptr } { ptr getelementptr inbounds (ptr, ptr @_ZTVN10__cxxabiv120__si_class_type_infoE, i64 2), ptr @_ZTSN7testing8internal15TestFactoryImplIN4absl18profiling_internal12_GLOBAL__N_139PeriodicSamplerTest_DefaultPeriod0_TestEEE, ptr @_ZTIN7testing8internal15TestFactoryBaseE }, align 8
@_ZTVN4absl18profiling_internal12_GLOBAL__N_139PeriodicSamplerTest_DefaultPeriod0_TestE = internal unnamed_addr constant { [8 x ptr] } { [8 x ptr] [ptr null, ptr @_ZTIN4absl18profiling_internal12_GLOBAL__N_139PeriodicSamplerTest_DefaultPeriod0_TestE, ptr @_ZN4absl18profiling_internal12_GLOBAL__N_139PeriodicSamplerTest_DefaultPeriod0_TestD2Ev, ptr @_ZN4absl18profiling_internal12_GLOBAL__N_139PeriodicSamplerTest_DefaultPeriod0_TestD0Ev, ptr @_ZN7testing4Test5SetUpEv, ptr @_ZN7testing4Test8TearDownEv, ptr @_ZN4absl18profiling_internal12_GLOBAL__N_139PeriodicSamplerTest_DefaultPeriod0_Test8TestBodyEv, ptr @_ZN7testing4Test5SetupEv] }, align 8
@_ZTSN4absl18profiling_internal12_GLOBAL__N_139PeriodicSamplerTest_DefaultPeriod0_TestE = internal constant [83 x i8] c"N4absl18profiling_internal12_GLOBAL__N_139PeriodicSamplerTest_DefaultPeriod0_TestE\00", align 1
@_ZTIN4absl18profiling_internal12_GLOBAL__N_139PeriodicSamplerTest_DefaultPeriod0_TestE = internal constant { ptr, ptr, ptr } { ptr getelementptr inbounds (ptr, ptr @_ZTVN10__cxxabiv120__si_class_type_infoE, i64 2), ptr @_ZTSN4absl18profiling_internal12_GLOBAL__N_139PeriodicSamplerTest_DefaultPeriod0_TestE, ptr @_ZTIN7testing4TestE }, align 8
@.str.102 = private unnamed_addr constant [17 x i8] c"sampler.period()\00", align 1
@.str.103 = private unnamed_addr constant [11 x i8] c"Value of: \00", align 1
@.str.104 = private unnamed_addr constant [11 x i8] c"Expected: \00", align 1
@.str.105 = private unnamed_addr constant [97 x i8] c"\0A  The matcher failed on the initial attempt; but passed when rerun to generate the explanation.\00", align 1
@.str.106 = private unnamed_addr constant [12 x i8] c"\0A  Actual: \00", align 1
@_ZTVN7testing7MatcherIRKiEE = linkonce_odr dso_local unnamed_addr constant { [6 x ptr] } { [6 x ptr] [ptr null, ptr @_ZTIN7testing7MatcherIRKiEE, ptr @_ZN7testing7MatcherIRKiED2Ev, ptr @_ZN7testing7MatcherIRKiED0Ev, ptr @_ZNK7testing8internal11MatcherBaseIRKiE10DescribeToEPSo, ptr @_ZNK7testing8internal11MatcherBaseIRKiE18DescribeNegationToEPSo] }, comdat, align 8
@_ZTSN7testing7MatcherIRKiEE = linkonce_odr dso_local constant [24 x i8] c"N7testing7MatcherIRKiEE\00", comdat, align 1
@_ZTSN7testing8internal11MatcherBaseIRKiEE = linkonce_odr dso_local constant [38 x i8] c"N7testing8internal11MatcherBaseIRKiEE\00", comdat, align 1
@_ZTIN7testing8internal11MatcherBaseIRKiEE = linkonce_odr dso_local constant { ptr, ptr, i32, i32, ptr, i64 } { ptr getelementptr inbounds (ptr, ptr @_ZTVN10__cxxabiv121__vmi_class_type_infoE, i64 2), ptr @_ZTSN7testing8internal11MatcherBaseIRKiEE, i32 0, i32 1, ptr @_ZTIN7testing25MatcherDescriberInterfaceE, i64 0 }, comdat, align 8
@_ZTIN7testing7MatcherIRKiEE = linkonce_odr dso_local constant { ptr, ptr, ptr } { ptr getelementptr inbounds (ptr, ptr @_ZTVN10__cxxabiv120__si_class_type_infoE, i64 2), ptr @_ZTSN7testing7MatcherIRKiEE, ptr @_ZTIN7testing8internal11MatcherBaseIRKiEE }, comdat, align 8
@_ZTVN7testing8internal11MatcherBaseIRKiEE = linkonce_odr dso_local unnamed_addr constant { [6 x ptr] } { [6 x ptr] [ptr null, ptr @_ZTIN7testing8internal11MatcherBaseIRKiEE, ptr @_ZN7testing8internal11MatcherBaseIRKiED2Ev, ptr @_ZN7testing8internal11MatcherBaseIRKiED0Ev, ptr @_ZNK7testing8internal11MatcherBaseIRKiE10DescribeToEPSo, ptr @_ZNK7testing8internal11MatcherBaseIRKiE18DescribeNegationToEPSo] }, comdat, align 8
@_ZZN7testing8internal11MatcherBaseIRKiE9GetVTableINS4_11ValuePolicyINS0_9EqMatcherIiEELb1EEEEEPKNS4_6VTableEvE7kVTable = linkonce_odr dso_local constant %"struct.testing::internal::MatcherBase<const int &>::VTable" { ptr @_ZN7testing8internal11MatcherBaseIRKiE19MatchAndExplainImplINS4_11ValuePolicyINS0_9EqMatcherIiEELb1EEEEEDTcldtclsrT_3Getfp_E15MatchAndExplainfp0_clptfp1_6streamEEERKS4_S3_PNS_19MatchResultListenerE, ptr @_ZN7testing8internal11MatcherBaseIRKiE12DescribeImplINS4_11ValuePolicyINS0_9EqMatcherIiEELb1EEEEEvRKS4_PSob, ptr @_ZN7testing8internal11MatcherBaseIRKiE16GetDescriberImplINS4_11ValuePolicyINS0_9EqMatcherIiEELb1EEEEEPKNS_25MatcherDescriberInterfaceERKS4_, ptr null }, comdat, align 8
@.str.107 = private unnamed_addr constant [11 x i8] c" (of type \00", align 1
@_ZTIi = external constant ptr
@_ZZN7testing8internal31CanonicalizeForStdLibVersioningENSt7__cxx1112basic_stringIcSt11char_traitsIcESaIcEEEE6prefix = linkonce_odr dso_local constant [8 x i8] c"std::__\00", comdat, align 1
@.str.108 = private unnamed_addr constant [3 x i8] c"::\00", align 1
@_ZZN7testing8internal31CanonicalizeForStdLibVersioningENSt7__cxx1112basic_stringIcSt11char_traitsIcESaIcEEEE9to_search = linkonce_odr dso_local constant [3 x i8] c", \00", comdat, align 1
@_ZZN7testing8internal31CanonicalizeForStdLibVersioningENSt7__cxx1112basic_stringIcSt11char_traitsIcESaIcEEEE11replace_str = linkonce_odr dso_local constant [2 x i8] c",\00", comdat, align 1
@.str.109 = private unnamed_addr constant [3 x i8] c"<(\00", align 1
@_ZTVN7testing8internal15TestFactoryImplIN4absl18profiling_internal12_GLOBAL__N_138PeriodicSamplerTest_DefaultPeriod_TestEEE = internal unnamed_addr constant { [5 x ptr] } { [5 x ptr] [ptr null, ptr @_ZTIN7testing8internal15TestFactoryImplIN4absl18profiling_internal12_GLOBAL__N_138PeriodicSamplerTest_DefaultPeriod_TestEEE, ptr @_ZN7testing8internal15TestFactoryImplIN4absl18profiling_internal12_GLOBAL__N_138PeriodicSamplerTest_DefaultPeriod_TestEED2Ev, ptr @_ZN7testing8internal15TestFactoryImplIN4absl18profiling_internal12_GLOBAL__N_138PeriodicSamplerTest_DefaultPeriod_TestEED0Ev, ptr @_ZN7testing8internal15TestFactoryImplIN4absl18profiling_internal12_GLOBAL__N_138PeriodicSamplerTest_DefaultPeriod_TestEE10CreateTestEv] }, align 8
@_ZTSN7testing8internal15TestFactoryImplIN4absl18profiling_internal12_GLOBAL__N_138PeriodicSamplerTest_DefaultPeriod_TestEEE = internal constant [120 x i8] c"N7testing8internal15TestFactoryImplIN4absl18profiling_internal12_GLOBAL__N_138PeriodicSamplerTest_DefaultPeriod_TestEEE\00", align 1
@_ZTIN7testing8internal15TestFactoryImplIN4absl18profiling_internal12_GLOBAL__N_138PeriodicSamplerTest_DefaultPeriod_TestEEE = internal constant { ptr, ptr, ptr } { ptr getelementptr inbounds (ptr, ptr @_ZTVN10__cxxabiv120__si_class_type_infoE, i64 2), ptr @_ZTSN7testing8internal15TestFactoryImplIN4absl18profiling_internal12_GLOBAL__N_138PeriodicSamplerTest_DefaultPeriod_TestEEE, ptr @_ZTIN7testing8internal15TestFactoryBaseE }, align 8
@_ZTVN4absl18profiling_internal12_GLOBAL__N_138PeriodicSamplerTest_DefaultPeriod_TestE = internal unnamed_addr constant { [8 x ptr] } { [8 x ptr] [ptr null, ptr @_ZTIN4absl18profiling_internal12_GLOBAL__N_138PeriodicSamplerTest_DefaultPeriod_TestE, ptr @_ZN4absl18profiling_internal12_GLOBAL__N_138PeriodicSamplerTest_DefaultPeriod_TestD2Ev, ptr @_ZN4absl18profiling_internal12_GLOBAL__N_138PeriodicSamplerTest_DefaultPeriod_TestD0Ev, ptr @_ZN7testing4Test5SetUpEv, ptr @_ZN7testing4Test8TearDownEv, ptr @_ZN4absl18profiling_internal12_GLOBAL__N_138PeriodicSamplerTest_DefaultPeriod_Test8TestBodyEv, ptr @_ZN7testing4Test5SetupEv] }, align 8
@_ZTSN4absl18profiling_internal12_GLOBAL__N_138PeriodicSamplerTest_DefaultPeriod_TestE = internal constant [82 x i8] c"N4absl18profiling_internal12_GLOBAL__N_138PeriodicSamplerTest_DefaultPeriod_TestE\00", align 1
@_ZTIN4absl18profiling_internal12_GLOBAL__N_138PeriodicSamplerTest_DefaultPeriod_TestE = internal constant { ptr, ptr, ptr } { ptr getelementptr inbounds (ptr, ptr @_ZTVN10__cxxabiv120__si_class_type_infoE, i64 2), ptr @_ZTSN4absl18profiling_internal12_GLOBAL__N_138PeriodicSamplerTest_DefaultPeriod_TestE, ptr @_ZTIN7testing4TestE }, align 8
@_ZTVN7testing8internal15TestFactoryImplIN4absl18profiling_internal12_GLOBAL__N_140PeriodicSamplerTest_SetGlobalPeriod_TestEEE = internal unnamed_addr constant { [5 x ptr] } { [5 x ptr] [ptr null, ptr @_ZTIN7testing8internal15TestFactoryImplIN4absl18profiling_internal12_GLOBAL__N_140PeriodicSamplerTest_SetGlobalPeriod_TestEEE, ptr @_ZN7testing8internal15TestFactoryImplIN4absl18profiling_internal12_GLOBAL__N_140PeriodicSamplerTest_SetGlobalPeriod_TestEED2Ev, ptr @_ZN7testing8internal15TestFactoryImplIN4absl18profiling_internal12_GLOBAL__N_140PeriodicSamplerTest_SetGlobalPeriod_TestEED0Ev, ptr @_ZN7testing8internal15TestFactoryImplIN4absl18profiling_internal12_GLOBAL__N_140PeriodicSamplerTest_SetGlobalPeriod_TestEE10CreateTestEv] }, align 8
@_ZTSN7testing8internal15TestFactoryImplIN4absl18profiling_internal12_GLOBAL__N_140PeriodicSamplerTest_SetGlobalPeriod_TestEEE = internal constant [122 x i8] c"N7testing8internal15TestFactoryImplIN4absl18profiling_internal12_GLOBAL__N_140PeriodicSamplerTest_SetGlobalPeriod_TestEEE\00", align 1
@_ZTIN7testing8internal15TestFactoryImplIN4absl18profiling_internal12_GLOBAL__N_140PeriodicSamplerTest_SetGlobalPeriod_TestEEE = internal constant { ptr, ptr, ptr } { ptr getelementptr inbounds (ptr, ptr @_ZTVN10__cxxabiv120__si_class_type_infoE, i64 2), ptr @_ZTSN7testing8internal15TestFactoryImplIN4absl18profiling_internal12_GLOBAL__N_140PeriodicSamplerTest_SetGlobalPeriod_TestEEE, ptr @_ZTIN7testing8internal15TestFactoryBaseE }, align 8
@_ZTVN4absl18profiling_internal12_GLOBAL__N_140PeriodicSamplerTest_SetGlobalPeriod_TestE = internal unnamed_addr constant { [8 x ptr] } { [8 x ptr] [ptr null, ptr @_ZTIN4absl18profiling_internal12_GLOBAL__N_140PeriodicSamplerTest_SetGlobalPeriod_TestE, ptr @_ZN4absl18profiling_internal12_GLOBAL__N_140PeriodicSamplerTest_SetGlobalPeriod_TestD2Ev, ptr @_ZN4absl18profiling_internal12_GLOBAL__N_140PeriodicSamplerTest_SetGlobalPeriod_TestD0Ev, ptr @_ZN7testing4Test5SetUpEv, ptr @_ZN7testing4Test8TearDownEv, ptr @_ZN4absl18profiling_internal12_GLOBAL__N_140PeriodicSamplerTest_SetGlobalPeriod_Test8TestBodyEv, ptr @_ZN7testing4Test5SetupEv] }, align 8
@_ZTSN4absl18profiling_internal12_GLOBAL__N_140PeriodicSamplerTest_SetGlobalPeriod_TestE = internal constant [84 x i8] c"N4absl18profiling_internal12_GLOBAL__N_140PeriodicSamplerTest_SetGlobalPeriod_TestE\00", align 1
@_ZTIN4absl18profiling_internal12_GLOBAL__N_140PeriodicSamplerTest_SetGlobalPeriod_TestE = internal constant { ptr, ptr, ptr } { ptr getelementptr inbounds (ptr, ptr @_ZTVN10__cxxabiv120__si_class_type_infoE, i64 2), ptr @_ZTSN4absl18profiling_internal12_GLOBAL__N_140PeriodicSamplerTest_SetGlobalPeriod_TestE, ptr @_ZTIN7testing4TestE }, align 8
@.str.112 = private unnamed_addr constant [18 x i8] c"sampler1.period()\00", align 1
@.str.113 = private unnamed_addr constant [18 x i8] c"sampler2.period()\00", align 1
@_ZN4absl18profiling_internal15PeriodicSamplerIZNS0_12_GLOBAL__N_140PeriodicSamplerTest_SetGlobalPeriod_Test8TestBodyEvE4Tag1Li25EE7period_E.0 = internal unnamed_addr global i32 25, align 4
@_ZN4absl18profiling_internal15PeriodicSamplerIZNS0_12_GLOBAL__N_140PeriodicSamplerTest_SetGlobalPeriod_Test8TestBodyEvE4Tag2Li50EE7period_E.0 = internal unnamed_addr global i32 50, align 4
@"_ZTVNSt6thread11_State_implINS_8_InvokerISt5tupleIJZN4absl18profiling_internal12_GLOBAL__N_140PeriodicSamplerTest_SetGlobalPeriod_Test8TestBodyEvE3$_0EEEEEE" = internal unnamed_addr constant { [5 x ptr] } { [5 x ptr] [ptr null, ptr @"_ZTINSt6thread11_State_implINS_8_InvokerISt5tupleIJZN4absl18profiling_internal12_GLOBAL__N_140PeriodicSamplerTest_SetGlobalPeriod_Test8TestBodyEvE3$_0EEEEEE", ptr @"_ZNSt6thread11_State_implINS_8_InvokerISt5tupleIJZN4absl18profiling_internal12_GLOBAL__N_140PeriodicSamplerTest_SetGlobalPeriod_Test8TestBodyEvE3$_0EEEEED2Ev", ptr @"_ZNSt6thread11_State_implINS_8_InvokerISt5tupleIJZN4absl18profiling_internal12_GLOBAL__N_140PeriodicSamplerTest_SetGlobalPeriod_Test8TestBodyEvE3$_0EEEEED0Ev", ptr @"_ZNSt6thread11_State_implINS_8_InvokerISt5tupleIJZN4absl18profiling_internal12_GLOBAL__N_140PeriodicSamplerTest_SetGlobalPeriod_Test8TestBodyEvE3$_0EEEEE6_M_runEv"] }, align 8
@"_ZTSNSt6thread11_State_implINS_8_InvokerISt5tupleIJZN4absl18profiling_internal12_GLOBAL__N_140PeriodicSamplerTest_SetGlobalPeriod_Test8TestBodyEvE3$_0EEEEEE" = internal constant [153 x i8] c"NSt6thread11_State_implINS_8_InvokerISt5tupleIJZN4absl18profiling_internal12_GLOBAL__N_140PeriodicSamplerTest_SetGlobalPeriod_Test8TestBodyEvE3$_0EEEEEE\00", align 1
@_ZTINSt6thread6_StateE = external constant ptr
@"_ZTINSt6thread11_State_implINS_8_InvokerISt5tupleIJZN4absl18profiling_internal12_GLOBAL__N_140PeriodicSamplerTest_SetGlobalPeriod_Test8TestBodyEvE3$_0EEEEEE" = internal constant { ptr, ptr, ptr } { ptr getelementptr inbounds (ptr, ptr @_ZTVN10__cxxabiv120__si_class_type_infoE, i64 2), ptr @"_ZTSNSt6thread11_State_implINS_8_InvokerISt5tupleIJZN4absl18profiling_internal12_GLOBAL__N_140PeriodicSamplerTest_SetGlobalPeriod_Test8TestBodyEvE3$_0EEEEEE", ptr @_ZTINSt6thread6_StateE }, align 8
@.str.116 = private unnamed_addr constant [50 x i8] c"basic_string: construction from null is not valid\00", align 1
@.str.117 = private unnamed_addr constant [166 x i8] c"generated/home/dtcxzyw/WorkSpace/Projects/compilers/llvm-opt-benchmark/bench/abseil-cpp/bench_build/googletest-src/googletest/include/gtest/internal/gtest-internal.h\00", align 1
@.str.118 = private unnamed_addr constant [51 x i8] c"Condition !test_case_fp || !test_suite_fp failed. \00", align 1
@.str.119 = private unnamed_addr constant [107 x i8] c"Test can not provide both SetUpTestSuite and SetUpTestCase, please make sure there is only one present at \00", align 1
@.str.120 = private unnamed_addr constant [2 x i8] c":\00", align 1
@.str.121 = private unnamed_addr constant [112 x i8] c"Test can not provide both TearDownTestSuite and TearDownTestCase, please make sure there is only one present at\00", align 1
@llvm.global_ctors = appending global [1 x { i32, ptr, ptr }] [{ i32, ptr, ptr } { i32 65535, ptr @_GLOBAL__sub_I_periodic_sampler_test.cc, ptr null }]

declare void @_ZNSt8ios_base4InitC1Ev(ptr noundef nonnull align 1 dereferenceable(1)) unnamed_addr #0

; Function Attrs: nounwind
declare void @_ZNSt8ios_base4InitD1Ev(ptr noundef nonnull align 1 dereferenceable(1)) unnamed_addr #1

; Function Attrs: nofree nounwind
declare i32 @__cxa_atexit(ptr, ptr, ptr) local_unnamed_addr #2

declare noundef ptr @_ZN7testing8internal23MakeAndRegisterTestInfoEPKcS2_S2_S2_NS0_12CodeLocationEPKvPFvvES7_PNS0_15TestFactoryBaseE(ptr noundef, ptr noundef, ptr noundef, ptr noundef, ptr noundef, ptr noundef, ptr noundef, ptr noundef, ptr noundef) local_unnamed_addr #0

; Function Attrs: nounwind
declare void @_ZNSaIcEC1Ev(ptr noundef nonnull align 1 dereferenceable(1)) unnamed_addr #1

declare i32 @__gxx_personality_v0(...)

declare noundef ptr @_ZN7testing8internal13GetTestTypeIdEv() local_unnamed_addr #0

; Function Attrs: mustprogress uwtable
define linkonce_odr dso_local noundef ptr @_ZN7testing8internal16SuiteApiResolverINS_4TestEE19GetSetUpCaseOrSuiteEPKci(ptr noundef %filename, i32 noundef %line_num) local_unnamed_addr #3 comdat align 2 personality ptr @__gxx_personality_v0 {
entry:
  %ref.tmp = alloca %"class.testing::internal::GTestLog", align 4
  %call3 = tail call noundef zeroext i1 @_ZN7testing8internal6IsTrueEb(i1 noundef zeroext true)
  br i1 %call3, label %if.end, label %if.else

if.else:                                          ; preds = %entry
  call void @_ZN7testing8internal8GTestLogC1ENS0_16GTestLogSeverityEPKci(ptr noundef nonnull align 4 dereferenceable(4) %ref.tmp, i32 noundef 3, ptr noundef nonnull @.str.117, i32 noundef 513)
  %call5 = invoke noundef nonnull align 8 dereferenceable(8) ptr @_ZStlsISt11char_traitsIcEERSt13basic_ostreamIcT_ES5_PKc(ptr noundef nonnull align 8 dereferenceable(8) @_ZSt4cerr, ptr noundef nonnull @.str.118)
          to label %invoke.cont unwind label %lpad

invoke.cont:                                      ; preds = %if.else
  %call7 = invoke noundef nonnull align 8 dereferenceable(8) ptr @_ZStlsISt11char_traitsIcEERSt13basic_ostreamIcT_ES5_PKc(ptr noundef nonnull align 8 dereferenceable(8) %call5, ptr noundef nonnull @.str.119)
          to label %invoke.cont6 unwind label %lpad

invoke.cont6:                                     ; preds = %invoke.cont
  %call9 = invoke noundef nonnull align 8 dereferenceable(8) ptr @_ZStlsISt11char_traitsIcEERSt13basic_ostreamIcT_ES5_PKc(ptr noundef nonnull align 8 dereferenceable(8) %call7, ptr noundef %filename)
          to label %invoke.cont8 unwind label %lpad

invoke.cont8:                                     ; preds = %invoke.cont6
  %call11 = invoke noundef nonnull align 8 dereferenceable(8) ptr @_ZStlsISt11char_traitsIcEERSt13basic_ostreamIcT_ES5_PKc(ptr noundef nonnull align 8 dereferenceable(8) %call9, ptr noundef nonnull @.str.120)
          to label %invoke.cont10 unwind label %lpad

invoke.cont10:                                    ; preds = %invoke.cont8
  %call13 = invoke noundef nonnull align 8 dereferenceable(8) ptr @_ZNSolsEi(ptr noundef nonnull align 8 dereferenceable(8) %call11, i32 noundef %line_num)
          to label %invoke.cont12 unwind label %lpad

invoke.cont12:                                    ; preds = %invoke.cont10
  call void @_ZN7testing8internal8GTestLogD1Ev(ptr noundef nonnull align 4 dereferenceable(4) %ref.tmp) #21
  br label %if.end

lpad:                                             ; preds = %invoke.cont10, %invoke.cont8, %invoke.cont6, %invoke.cont, %if.else
  %0 = landingpad { ptr, i32 }
          cleanup
  call void @_ZN7testing8internal8GTestLogD1Ev(ptr noundef nonnull align 4 dereferenceable(4) %ref.tmp) #21
  resume { ptr, i32 } %0

if.end:                                           ; preds = %entry, %invoke.cont12
  ret ptr null
}

; Function Attrs: mustprogress uwtable
define linkonce_odr dso_local noundef ptr @_ZN7testing8internal16SuiteApiResolverINS_4TestEE22GetTearDownCaseOrSuiteEPKci(ptr noundef %filename, i32 noundef %line_num) local_unnamed_addr #3 comdat align 2 personality ptr @__gxx_personality_v0 {
entry:
  %ref.tmp = alloca %"class.testing::internal::GTestLog", align 4
  %call3 = tail call noundef zeroext i1 @_ZN7testing8internal6IsTrueEb(i1 noundef zeroext true)
  br i1 %call3, label %if.end, label %if.else

if.else:                                          ; preds = %entry
  call void @_ZN7testing8internal8GTestLogC1ENS0_16GTestLogSeverityEPKci(ptr noundef nonnull align 4 dereferenceable(4) %ref.tmp, i32 noundef 3, ptr noundef nonnull @.str.117, i32 noundef 534)
  %call5 = invoke noundef nonnull align 8 dereferenceable(8) ptr @_ZStlsISt11char_traitsIcEERSt13basic_ostreamIcT_ES5_PKc(ptr noundef nonnull align 8 dereferenceable(8) @_ZSt4cerr, ptr noundef nonnull @.str.118)
          to label %invoke.cont unwind label %lpad

invoke.cont:                                      ; preds = %if.else
  %call7 = invoke noundef nonnull align 8 dereferenceable(8) ptr @_ZStlsISt11char_traitsIcEERSt13basic_ostreamIcT_ES5_PKc(ptr noundef nonnull align 8 dereferenceable(8) %call5, ptr noundef nonnull @.str.121)
          to label %invoke.cont6 unwind label %lpad

invoke.cont6:                                     ; preds = %invoke.cont
  %call9 = invoke noundef nonnull align 8 dereferenceable(8) ptr @_ZStlsISt11char_traitsIcEERSt13basic_ostreamIcT_ES5_PKc(ptr noundef nonnull align 8 dereferenceable(8) %call7, ptr noundef %filename)
          to label %invoke.cont8 unwind label %lpad

invoke.cont8:                                     ; preds = %invoke.cont6
  %call11 = invoke noundef nonnull align 8 dereferenceable(8) ptr @_ZStlsISt11char_traitsIcEERSt13basic_ostreamIcT_ES5_PKc(ptr noundef nonnull align 8 dereferenceable(8) %call9, ptr noundef nonnull @.str.120)
          to label %invoke.cont10 unwind label %lpad

invoke.cont10:                                    ; preds = %invoke.cont8
  %call13 = invoke noundef nonnull align 8 dereferenceable(8) ptr @_ZNSolsEi(ptr noundef nonnull align 8 dereferenceable(8) %call11, i32 noundef %line_num)
          to label %invoke.cont12 unwind label %lpad

invoke.cont12:                                    ; preds = %invoke.cont10
  call void @_ZN7testing8internal8GTestLogD1Ev(ptr noundef nonnull align 4 dereferenceable(4) %ref.tmp) #21
  br label %if.end

lpad:                                             ; preds = %invoke.cont10, %invoke.cont8, %invoke.cont6, %invoke.cont, %if.else
  %0 = landingpad { ptr, i32 }
          cleanup
  call void @_ZN7testing8internal8GTestLogD1Ev(ptr noundef nonnull align 4 dereferenceable(4) %ref.tmp) #21
  resume { ptr, i32 } %0

if.end:                                           ; preds = %entry, %invoke.cont12
  ret ptr null
}

; Function Attrs: nobuiltin allocsize(0)
declare noundef nonnull ptr @_Znwm(i64 noundef) local_unnamed_addr #4

; Function Attrs: nobuiltin nounwind
declare void @_ZdlPv(ptr noundef) local_unnamed_addr #5

; Function Attrs: nounwind
declare void @_ZNSt7__cxx1112basic_stringIcSt11char_traitsIcESaIcEED1Ev(ptr noundef nonnull align 8 dereferenceable(32)) unnamed_addr #1

; Function Attrs: nounwind
declare void @_ZNSaIcED1Ev(ptr noundef nonnull align 1 dereferenceable(1)) unnamed_addr #1

declare void @_ZNSt7__cxx1112basic_stringIcSt11char_traitsIcESaIcEEC1ERKS4_(ptr noundef nonnull align 8 dereferenceable(32), ptr noundef nonnull align 8 dereferenceable(32)) unnamed_addr #0

; Function Attrs: mustprogress nofree norecurse nosync nounwind willreturn memory(none) uwtable
define internal void @_ZN7testing8internal15TestFactoryImplIN4absl18profiling_internal12_GLOBAL__N_135PeriodicSamplerBaseTest_Sample_TestEED2Ev(ptr nocapture nonnull readnone align 8 %this) unnamed_addr #6 align 2 {
entry:
  ret void
}

; Function Attrs: mustprogress nounwind uwtable
define internal void @_ZN7testing8internal15TestFactoryImplIN4absl18profiling_internal12_GLOBAL__N_135PeriodicSamplerBaseTest_Sample_TestEED0Ev(ptr noundef nonnull align 8 dereferenceable(8) %this) unnamed_addr #7 align 2 {
entry:
  tail call void @_ZdlPv(ptr noundef nonnull %this) #22
  ret void
}

; Function Attrs: mustprogress uwtable
define internal noundef nonnull ptr @_ZN7testing8internal15TestFactoryImplIN4absl18profiling_internal12_GLOBAL__N_135PeriodicSamplerBaseTest_Sample_TestEE10CreateTestEv(ptr nocapture nonnull readnone align 8 %this) unnamed_addr #3 align 2 personality ptr @__gxx_personality_v0 {
entry:
  %call = tail call noalias noundef nonnull dereferenceable(16) ptr @_Znwm(i64 noundef 16) #23
  invoke void @_ZN7testing4TestC2Ev(ptr noundef nonnull align 8 dereferenceable(16) %call)
          to label %invoke.cont unwind label %lpad

invoke.cont:                                      ; preds = %entry
  store ptr getelementptr inbounds ({ [8 x ptr] }, ptr @_ZTVN4absl18profiling_internal12_GLOBAL__N_135PeriodicSamplerBaseTest_Sample_TestE, i64 0, inrange i32 0, i64 2), ptr %call, align 8
  ret ptr %call

lpad:                                             ; preds = %entry
  %0 = landingpad { ptr, i32 }
          cleanup
  tail call void @_ZdlPv(ptr noundef nonnull %call) #22
  resume { ptr, i32 } %0
}

declare void @_ZN7testing4TestC2Ev(ptr noundef nonnull align 8 dereferenceable(16)) unnamed_addr #0

; Function Attrs: mustprogress nounwind uwtable
define internal void @_ZN4absl18profiling_internal12_GLOBAL__N_135PeriodicSamplerBaseTest_Sample_TestD2Ev(ptr noundef nonnull align 8 dereferenceable(16) %this) unnamed_addr #7 align 2 {
entry:
  tail call void @_ZN7testing4TestD2Ev(ptr noundef nonnull align 8 dereferenceable(16) %this) #21
  ret void
}

; Function Attrs: mustprogress nounwind uwtable
define internal void @_ZN4absl18profiling_internal12_GLOBAL__N_135PeriodicSamplerBaseTest_Sample_TestD0Ev(ptr noundef nonnull align 8 dereferenceable(16) %this) unnamed_addr #7 align 2 {
entry:
  tail call void @_ZN7testing4TestD2Ev(ptr noundef nonnull align 8 dereferenceable(16) %this) #21
  tail call void @_ZdlPv(ptr noundef nonnull %this) #22
  ret void
}

declare void @_ZN7testing4Test5SetUpEv(ptr noundef nonnull align 8 dereferenceable(16)) unnamed_addr #0

declare void @_ZN7testing4Test8TearDownEv(ptr noundef nonnull align 8 dereferenceable(16)) unnamed_addr #0

; Function Attrs: mustprogress uwtable
define internal void @_ZN4absl18profiling_internal12_GLOBAL__N_135PeriodicSamplerBaseTest_Sample_Test8TestBodyEv(ptr nocapture nonnull readnone align 8 %this) unnamed_addr #3 align 2 personality ptr @__gxx_personality_v0 {
entry:
  %sampler = alloca %"class.testing::StrictMock", align 8
  %ref.tmp = alloca %"class.testing::internal::MockSpec", align 8
  %ref.tmp10 = alloca %"class.testing::Action", align 8
  %ref.tmp11 = alloca %"class.testing::internal::ReturnAction", align 4
  %ref.tmp19 = alloca %"class.testing::internal::MockSpec.24", align 8
  %ref.tmp20 = alloca %"class.testing::Matcher.28", align 8
  %agg.tmp = alloca %"class.testing::OnceAction", align 8
  %ref.tmp32 = alloca %"class.testing::internal::ReturnAction", align 4
  %agg.tmp40 = alloca %"class.testing::OnceAction", align 8
  %ref.tmp41 = alloca %"class.testing::internal::ReturnAction", align 4
  %agg.tmp49 = alloca %"class.testing::OnceAction", align 8
  %ref.tmp50 = alloca %"class.testing::internal::ReturnAction", align 4
  %gtest_ar_ = alloca %"class.testing::AssertionResult", align 8
  %ref.tmp67 = alloca %"class.testing::Message", align 8
  %ref.tmp69 = alloca %"class.testing::internal::AssertHelper", align 8
  %ref.tmp70 = alloca %"class.std::__cxx11::basic_string", align 8
  %gtest_ar_82 = alloca %"class.testing::AssertionResult", align 8
  %ref.tmp92 = alloca %"class.testing::Message", align 8
  %ref.tmp94 = alloca %"class.testing::internal::AssertHelper", align 8
  %ref.tmp95 = alloca %"class.std::__cxx11::basic_string", align 8
  %gtest_ar_108 = alloca %"class.testing::AssertionResult", align 8
  %ref.tmp119 = alloca %"class.testing::Message", align 8
  %ref.tmp121 = alloca %"class.testing::internal::AssertHelper", align 8
  %ref.tmp122 = alloca %"class.std::__cxx11::basic_string", align 8
  %gtest_ar_135 = alloca %"class.testing::AssertionResult", align 8
  %ref.tmp146 = alloca %"class.testing::Message", align 8
  %ref.tmp148 = alloca %"class.testing::internal::AssertHelper", align 8
  %ref.tmp149 = alloca %"class.std::__cxx11::basic_string", align 8
  %gtest_ar_162 = alloca %"class.testing::AssertionResult", align 8
  %ref.tmp172 = alloca %"class.testing::Message", align 8
  %ref.tmp174 = alloca %"class.testing::internal::AssertHelper", align 8
  %ref.tmp175 = alloca %"class.std::__cxx11::basic_string", align 8
  %gtest_ar_188 = alloca %"class.testing::AssertionResult", align 8
  %ref.tmp199 = alloca %"class.testing::Message", align 8
  %ref.tmp201 = alloca %"class.testing::internal::AssertHelper", align 8
  %ref.tmp202 = alloca %"class.std::__cxx11::basic_string", align 8
  %gtest_ar_215 = alloca %"class.testing::AssertionResult", align 8
  %ref.tmp226 = alloca %"class.testing::Message", align 8
  %ref.tmp228 = alloca %"class.testing::internal::AssertHelper", align 8
  %ref.tmp229 = alloca %"class.std::__cxx11::basic_string", align 8
  %gtest_ar_242 = alloca %"class.testing::AssertionResult", align 8
  %ref.tmp253 = alloca %"class.testing::Message", align 8
  %ref.tmp255 = alloca %"class.testing::internal::AssertHelper", align 8
  %ref.tmp256 = alloca %"class.std::__cxx11::basic_string", align 8
  %0 = ptrtoint ptr %sampler to i64
  call void @_ZN7testing4Mock22FailUninterestingCallsEm(i64 noundef %0)
  %1 = getelementptr inbounds i8, ptr %sampler, i64 8
  call void @llvm.memset.p0.i64(ptr noundef nonnull align 8 dereferenceable(176) %1, i8 0, i64 176, i1 false)
  store ptr getelementptr inbounds ({ [6 x ptr] }, ptr @_ZTVN4absl18profiling_internal12_GLOBAL__N_119MockPeriodicSamplerE, i64 0, inrange i32 0, i64 2), ptr %sampler, align 8
  %gmock10_period_37.i.i = getelementptr inbounds %"class.absl::profiling_internal::(anonymous namespace)::MockPeriodicSampler", ptr %sampler, i64 0, i32 1
  invoke void @_ZN7testing8internal25UntypedFunctionMockerBaseC2Ev(ptr noundef nonnull align 8 dereferenceable(72) %gmock10_period_37.i.i)
          to label %.noexc.i unwind label %lpad.i

.noexc.i:                                         ; preds = %entry
  store ptr getelementptr inbounds ({ [8 x ptr] }, ptr @_ZTVN7testing8internal14FunctionMockerIFivEEE, i64 0, inrange i32 0, i64 2), ptr %gmock10_period_37.i.i, align 8
  %gmock01_GetExponentialBiased_38.i.i = getelementptr inbounds %"class.absl::profiling_internal::(anonymous namespace)::MockPeriodicSampler", ptr %sampler, i64 0, i32 2
  invoke void @_ZN7testing8internal25UntypedFunctionMockerBaseC2Ev(ptr noundef nonnull align 8 dereferenceable(72) %gmock01_GetExponentialBiased_38.i.i)
          to label %_ZN7testing10StrictMockIN4absl18profiling_internal12_GLOBAL__N_119MockPeriodicSamplerEEC2Ev.exit unwind label %lpad.i.i

lpad.i.i:                                         ; preds = %.noexc.i
  %2 = landingpad { ptr, i32 }
          cleanup
  call void @_ZN7testing8internal14FunctionMockerIFivEED2Ev(ptr noundef nonnull align 8 dereferenceable(72) %gmock10_period_37.i.i) #21
  br label %lpad.body.i

lpad.i:                                           ; preds = %entry
  %3 = landingpad { ptr, i32 }
          cleanup
  br label %lpad.body.i

lpad.body.i:                                      ; preds = %lpad.i, %lpad.i.i
  %eh.lpad-body.i = phi { ptr, i32 } [ %3, %lpad.i ], [ %2, %lpad.i.i ]
  invoke void @_ZN7testing4Mock22UnregisterCallReactionEm(i64 noundef %0)
          to label %common.resume unwind label %terminate.lpad.i.i

terminate.lpad.i.i:                               ; preds = %lpad.body.i
  %4 = landingpad { ptr, i32 }
          catch ptr null
  %5 = extractvalue { ptr, i32 } %4, 0
  call void @__clang_call_terminate(ptr %5) #24
  unreachable

common.resume:                                    ; preds = %lpad.body.i, %ehcleanup269
  %common.resume.op = phi { ptr, i32 } [ %.pn33.pn.pn.pn, %ehcleanup269 ], [ %eh.lpad-body.i, %lpad.body.i ]
  resume { ptr, i32 } %common.resume.op

_ZN7testing10StrictMockIN4absl18profiling_internal12_GLOBAL__N_119MockPeriodicSamplerEEC2Ev.exit: ; preds = %.noexc.i
  store ptr getelementptr inbounds ({ [8 x ptr] }, ptr @_ZTVN7testing8internal14FunctionMockerIFliEEE, i64 0, inrange i32 0, i64 2), ptr %gmock01_GetExponentialBiased_38.i.i, align 8
  store ptr getelementptr inbounds ({ [6 x ptr] }, ptr @_ZTVN7testing10StrictMockIN4absl18profiling_internal12_GLOBAL__N_119MockPeriodicSamplerEEE, i64 0, inrange i32 0, i64 2), ptr %sampler, align 8
  invoke void @_ZN7testing8internal25UntypedFunctionMockerBase13RegisterOwnerEPKv(ptr noundef nonnull align 8 dereferenceable(72) %gmock10_period_37.i.i, ptr noundef nonnull %sampler)
          to label %invoke.cont unwind label %lpad

invoke.cont:                                      ; preds = %_ZN7testing10StrictMockIN4absl18profiling_internal12_GLOBAL__N_119MockPeriodicSamplerEEC2Ev.exit
  store ptr %gmock10_period_37.i.i, ptr %ref.tmp, align 8
  invoke void @_ZN7testing8internal18GetWithoutMatchersEv()
          to label %invoke.cont3 unwind label %lpad

invoke.cont3:                                     ; preds = %invoke.cont
  %call7 = invoke noundef nonnull align 8 dereferenceable(336) ptr @_ZN7testing8internal8MockSpecIFivEE18InternalExpectedAtEPKciS5_S5_(ptr noundef nonnull align 8 dereferenceable(9) %ref.tmp, ptr noundef nonnull @.str.3, i32 noundef 44, ptr noundef nonnull @.str.23, ptr noundef nonnull @.str.24)
          to label %invoke.cont6 unwind label %lpad

invoke.cont6:                                     ; preds = %invoke.cont3
  %call9 = invoke noundef nonnull align 8 dereferenceable(336) ptr @_ZN7testing8internal16TypedExpectationIFivEE5TimesEi(ptr noundef nonnull align 8 dereferenceable(336) %call7, i32 noundef 3)
          to label %invoke.cont12 unwind label %lpad

invoke.cont12:                                    ; preds = %invoke.cont6
  store i32 16, ptr %ref.tmp11, align 4
  invoke void @_ZNK7testing8internal12ReturnActionIiEcvNS_6ActionIFT_DpT0_EEEIiJEvEEv(ptr nonnull sret(%"class.testing::Action") align 8 %ref.tmp10, ptr noundef nonnull align 4 dereferenceable(4) %ref.tmp11)
          to label %invoke.cont15 unwind label %lpad

invoke.cont15:                                    ; preds = %invoke.cont12
  %call18 = invoke noundef nonnull align 8 dereferenceable(336) ptr @_ZN7testing8internal16TypedExpectationIFivEE14WillRepeatedlyERKNS_6ActionIS2_EE(ptr noundef nonnull align 8 dereferenceable(336) %call9, ptr noundef nonnull align 8 dereferenceable(32) %ref.tmp10)
          to label %invoke.cont17 unwind label %lpad16

invoke.cont17:                                    ; preds = %invoke.cont15
  %_M_manager.i.i.i = getelementptr inbounds %"class.std::_Function_base", ptr %ref.tmp10, i64 0, i32 1
  %6 = load ptr, ptr %_M_manager.i.i.i, align 8
  %tobool.not.i.i.i = icmp eq ptr %6, null
  br i1 %tobool.not.i.i.i, label %invoke.cont21, label %if.then.i.i.i

if.then.i.i.i:                                    ; preds = %invoke.cont17
  %call.i.i.i = invoke noundef zeroext i1 %6(ptr noundef nonnull align 8 dereferenceable(16) %ref.tmp10, ptr noundef nonnull align 8 dereferenceable(16) %ref.tmp10, i32 noundef 3)
          to label %invoke.cont21 unwind label %terminate.lpad.i.i.i

terminate.lpad.i.i.i:                             ; preds = %if.then.i.i.i
  %7 = landingpad { ptr, i32 }
          catch ptr null
  %8 = extractvalue { ptr, i32 } %7, 0
  call void @__clang_call_terminate(ptr %8) #24
  unreachable

invoke.cont21:                                    ; preds = %if.then.i.i.i, %invoke.cont17
  %vtable_.i.i = getelementptr inbounds %"class.testing::internal::MatcherBase.29", ptr %ref.tmp20, i64 0, i32 1
  store ptr getelementptr inbounds ({ [6 x ptr] }, ptr @_ZTVN7testing7MatcherIiEE, i64 0, inrange i32 0, i64 2), ptr %ref.tmp20, align 8
  store ptr @_ZZN7testing8internal11MatcherBaseIiE9GetVTableINS2_11ValuePolicyINS0_9EqMatcherIiEELb1EEEEEPKNS2_6VTableEvE7kVTable, ptr %vtable_.i.i, align 8
  %buffer_3.i.i.i = getelementptr inbounds %"class.testing::internal::MatcherBase.29", ptr %ref.tmp20, i64 0, i32 2
  store i64 16, ptr %buffer_3.i.i.i, align 8
  invoke void @_ZN7testing8internal25UntypedFunctionMockerBase13RegisterOwnerEPKv(ptr noundef nonnull align 8 dereferenceable(72) %gmock01_GetExponentialBiased_38.i.i, ptr noundef nonnull %sampler)
          to label %invoke.cont23 unwind label %lpad22

invoke.cont23:                                    ; preds = %invoke.cont21
  store ptr %gmock01_GetExponentialBiased_38.i.i, ptr %ref.tmp19, align 8, !alias.scope !5
  %vtable_.i.i.i.i.i.i1.i7.i261 = getelementptr inbounds %"class.testing::internal::MockSpec.24", ptr %ref.tmp19, i64 0, i32 1, i32 0, i32 0, i32 0, i32 0, i32 1
  store ptr @_ZZN7testing8internal11MatcherBaseIiE9GetVTableINS2_11ValuePolicyINS0_9EqMatcherIiEELb1EEEEEPKNS2_6VTableEvE7kVTable, ptr %vtable_.i.i.i.i.i.i1.i7.i261, align 8, !alias.scope !5
  %buffer_.i.i.i.i.i.i3.i8.i262 = getelementptr inbounds %"class.testing::internal::MockSpec.24", ptr %ref.tmp19, i64 0, i32 1, i32 0, i32 0, i32 0, i32 0, i32 2
  store i64 16, ptr %buffer_.i.i.i.i.i.i3.i8.i262, align 8, !alias.scope !5
  %matchers_.i.i6.i260 = getelementptr inbounds %"class.testing::internal::MockSpec.24", ptr %ref.tmp19, i64 0, i32 1
  store ptr getelementptr inbounds ({ [6 x ptr] }, ptr @_ZTVN7testing7MatcherIiEE, i64 0, inrange i32 0, i64 2), ptr %matchers_.i.i6.i260, align 8, !alias.scope !10
  invoke void @_ZN7testing8internal18GetWithoutMatchersEv()
          to label %invoke.cont26 unwind label %lpad25

invoke.cont26:                                    ; preds = %invoke.cont23
  %call31 = invoke noundef nonnull align 8 dereferenceable(352) ptr @_ZN7testing8internal8MockSpecIFliEE18InternalExpectedAtEPKciS5_S5_(ptr noundef nonnull align 8 dereferenceable(32) %ref.tmp19, ptr noundef nonnull @.str.3, i32 noundef 45, ptr noundef nonnull @.str.23, ptr noundef nonnull @.str.25)
          to label %invoke.cont33 unwind label %lpad25

invoke.cont33:                                    ; preds = %invoke.cont26
  store i32 2, ptr %ref.tmp32, align 4
  invoke void @_ZNO7testing8internal12ReturnActionIiEcvNS_10OnceActionIFT_DpT0_EEEIlJiEvEEv(ptr nonnull sret(%"class.testing::OnceAction") align 8 %agg.tmp, ptr noundef nonnull align 4 dereferenceable(4) %ref.tmp32)
          to label %invoke.cont36 unwind label %lpad25

invoke.cont36:                                    ; preds = %invoke.cont33
  %call39 = invoke noundef nonnull align 8 dereferenceable(352) ptr @_ZN7testing8internal16TypedExpectationIFliEE8WillOnceENS_10OnceActionIS2_EE(ptr noundef nonnull align 8 dereferenceable(352) %call31, ptr noundef nonnull %agg.tmp)
          to label %invoke.cont42 unwind label %lpad37

invoke.cont42:                                    ; preds = %invoke.cont36
  store i32 3, ptr %ref.tmp41, align 4
  invoke void @_ZNO7testing8internal12ReturnActionIiEcvNS_10OnceActionIFT_DpT0_EEEIlJiEvEEv(ptr nonnull sret(%"class.testing::OnceAction") align 8 %agg.tmp40, ptr noundef nonnull align 4 dereferenceable(4) %ref.tmp41)
          to label %invoke.cont45 unwind label %lpad37

invoke.cont45:                                    ; preds = %invoke.cont42
  %call48 = invoke noundef nonnull align 8 dereferenceable(352) ptr @_ZN7testing8internal16TypedExpectationIFliEE8WillOnceENS_10OnceActionIS2_EE(ptr noundef nonnull align 8 dereferenceable(352) %call39, ptr noundef nonnull %agg.tmp40)
          to label %invoke.cont51 unwind label %lpad46

invoke.cont51:                                    ; preds = %invoke.cont45
  store i32 4, ptr %ref.tmp50, align 4
  invoke void @_ZNO7testing8internal12ReturnActionIiEcvNS_10OnceActionIFT_DpT0_EEEIlJiEvEEv(ptr nonnull sret(%"class.testing::OnceAction") align 8 %agg.tmp49, ptr noundef nonnull align 4 dereferenceable(4) %ref.tmp50)
          to label %invoke.cont54 unwind label %lpad46

invoke.cont54:                                    ; preds = %invoke.cont51
  %call57 = invoke noundef nonnull align 8 dereferenceable(352) ptr @_ZN7testing8internal16TypedExpectationIFliEE8WillOnceENS_10OnceActionIS2_EE(ptr noundef nonnull align 8 dereferenceable(352) %call48, ptr noundef nonnull %agg.tmp49)
          to label %invoke.cont56 unwind label %lpad55

invoke.cont56:                                    ; preds = %invoke.cont54
  %_M_manager.i.i.i40 = getelementptr inbounds %"class.std::_Function_base", ptr %agg.tmp49, i64 0, i32 1
  %9 = load ptr, ptr %_M_manager.i.i.i40, align 8
  %tobool.not.i.i.i41 = icmp eq ptr %9, null
  br i1 %tobool.not.i.i.i41, label %_ZN7testing10OnceActionIFliEED2Ev.exit, label %if.then.i.i.i42

if.then.i.i.i42:                                  ; preds = %invoke.cont56
  %call.i.i.i43 = invoke noundef zeroext i1 %9(ptr noundef nonnull align 8 dereferenceable(16) %agg.tmp49, ptr noundef nonnull align 8 dereferenceable(16) %agg.tmp49, i32 noundef 3)
          to label %_ZN7testing10OnceActionIFliEED2Ev.exit unwind label %terminate.lpad.i.i.i44

terminate.lpad.i.i.i44:                           ; preds = %if.then.i.i.i42
  %10 = landingpad { ptr, i32 }
          catch ptr null
  %11 = extractvalue { ptr, i32 } %10, 0
  call void @__clang_call_terminate(ptr %11) #24
  unreachable

_ZN7testing10OnceActionIFliEED2Ev.exit:           ; preds = %invoke.cont56, %if.then.i.i.i42
  %_M_manager.i.i.i45 = getelementptr inbounds %"class.std::_Function_base", ptr %agg.tmp40, i64 0, i32 1
  %12 = load ptr, ptr %_M_manager.i.i.i45, align 8
  %tobool.not.i.i.i46 = icmp eq ptr %12, null
  br i1 %tobool.not.i.i.i46, label %_ZN7testing10OnceActionIFliEED2Ev.exit50, label %if.then.i.i.i47

if.then.i.i.i47:                                  ; preds = %_ZN7testing10OnceActionIFliEED2Ev.exit
  %call.i.i.i48 = invoke noundef zeroext i1 %12(ptr noundef nonnull align 8 dereferenceable(16) %agg.tmp40, ptr noundef nonnull align 8 dereferenceable(16) %agg.tmp40, i32 noundef 3)
          to label %_ZN7testing10OnceActionIFliEED2Ev.exit50 unwind label %terminate.lpad.i.i.i49

terminate.lpad.i.i.i49:                           ; preds = %if.then.i.i.i47
  %13 = landingpad { ptr, i32 }
          catch ptr null
  %14 = extractvalue { ptr, i32 } %13, 0
  call void @__clang_call_terminate(ptr %14) #24
  unreachable

_ZN7testing10OnceActionIFliEED2Ev.exit50:         ; preds = %_ZN7testing10OnceActionIFliEED2Ev.exit, %if.then.i.i.i47
  %_M_manager.i.i.i51 = getelementptr inbounds %"class.std::_Function_base", ptr %agg.tmp, i64 0, i32 1
  %15 = load ptr, ptr %_M_manager.i.i.i51, align 8
  %tobool.not.i.i.i52 = icmp eq ptr %15, null
  br i1 %tobool.not.i.i.i52, label %_ZN7testing10OnceActionIFliEED2Ev.exit56, label %if.then.i.i.i53

if.then.i.i.i53:                                  ; preds = %_ZN7testing10OnceActionIFliEED2Ev.exit50
  %call.i.i.i54 = invoke noundef zeroext i1 %15(ptr noundef nonnull align 8 dereferenceable(16) %agg.tmp, ptr noundef nonnull align 8 dereferenceable(16) %agg.tmp, i32 noundef 3)
          to label %_ZN7testing10OnceActionIFliEED2Ev.exit56 unwind label %terminate.lpad.i.i.i55

terminate.lpad.i.i.i55:                           ; preds = %if.then.i.i.i53
  %16 = landingpad { ptr, i32 }
          catch ptr null
  %17 = extractvalue { ptr, i32 } %16, 0
  call void @__clang_call_terminate(ptr %17) #24
  unreachable

_ZN7testing10OnceActionIFliEED2Ev.exit56:         ; preds = %_ZN7testing10OnceActionIFliEED2Ev.exit50, %if.then.i.i.i53
  %matchers_.i = getelementptr inbounds %"class.testing::internal::MockSpec.24", ptr %ref.tmp19, i64 0, i32 1
  store ptr getelementptr inbounds ({ [6 x ptr] }, ptr @_ZTVN7testing8internal11MatcherBaseIiEE, i64 0, inrange i32 0, i64 2), ptr %matchers_.i, align 8
  %vtable_.i.i.i.i.i.i.i.i = getelementptr inbounds %"class.testing::internal::MockSpec.24", ptr %ref.tmp19, i64 0, i32 1, i32 0, i32 0, i32 0, i32 0, i32 1
  %18 = load ptr, ptr %vtable_.i.i.i.i.i.i.i.i, align 8
  %cmp.not.i.i.i.i.i.i.i.i = icmp eq ptr %18, null
  br i1 %cmp.not.i.i.i.i.i.i.i.i, label %_ZN7testing8internal8MockSpecIFliEED2Ev.exit, label %_ZNK7testing8internal11MatcherBaseIiE8IsSharedEv.exit.i.i.i.i.i.i.i

_ZNK7testing8internal11MatcherBaseIiE8IsSharedEv.exit.i.i.i.i.i.i.i: ; preds = %_ZN7testing10OnceActionIFliEED2Ev.exit56
  %shared_destroy.i.i.i.i.i.i.i.i = getelementptr inbounds %"struct.testing::internal::MatcherBase<int>::VTable", ptr %18, i64 0, i32 3
  %19 = load ptr, ptr %shared_destroy.i.i.i.i.i.i.i.i, align 8
  %cmp3.i.not.i.i.i.i.i.i.i = icmp eq ptr %19, null
  br i1 %cmp3.i.not.i.i.i.i.i.i.i, label %_ZN7testing8internal8MockSpecIFliEED2Ev.exit, label %land.lhs.true.i.i.i.i.i.i.i

land.lhs.true.i.i.i.i.i.i.i:                      ; preds = %_ZNK7testing8internal11MatcherBaseIiE8IsSharedEv.exit.i.i.i.i.i.i.i
  %buffer_.i.i.i.i.i.i.i = getelementptr inbounds %"class.testing::internal::MockSpec.24", ptr %ref.tmp19, i64 0, i32 1, i32 0, i32 0, i32 0, i32 0, i32 2
  %20 = load ptr, ptr %buffer_.i.i.i.i.i.i.i, align 8
  %21 = atomicrmw sub ptr %20, i32 1 acq_rel, align 4
  %cmp.i.i.i.i.i.i.i.i = icmp eq i32 %21, 1
  br i1 %cmp.i.i.i.i.i.i.i.i, label %if.then.i.i.i.i.i.i.i, label %_ZN7testing8internal8MockSpecIFliEED2Ev.exit

if.then.i.i.i.i.i.i.i:                            ; preds = %land.lhs.true.i.i.i.i.i.i.i
  %22 = load ptr, ptr %vtable_.i.i.i.i.i.i.i.i, align 8
  %shared_destroy.i.i.i.i.i.i.i = getelementptr inbounds %"struct.testing::internal::MatcherBase<int>::VTable", ptr %22, i64 0, i32 3
  %23 = load ptr, ptr %shared_destroy.i.i.i.i.i.i.i, align 8
  %24 = load ptr, ptr %buffer_.i.i.i.i.i.i.i, align 8
  invoke void %23(ptr noundef %24)
          to label %_ZN7testing8internal8MockSpecIFliEED2Ev.exit unwind label %terminate.lpad.i.i.i.i.i.i

terminate.lpad.i.i.i.i.i.i:                       ; preds = %if.then.i.i.i.i.i.i.i
  %25 = landingpad { ptr, i32 }
          catch ptr null
  %26 = extractvalue { ptr, i32 } %25, 0
  call void @__clang_call_terminate(ptr %26) #24
  unreachable

_ZN7testing8internal8MockSpecIFliEED2Ev.exit:     ; preds = %_ZN7testing10OnceActionIFliEED2Ev.exit56, %_ZNK7testing8internal11MatcherBaseIiE8IsSharedEv.exit.i.i.i.i.i.i.i, %land.lhs.true.i.i.i.i.i.i.i, %if.then.i.i.i.i.i.i.i
  store ptr getelementptr inbounds ({ [6 x ptr] }, ptr @_ZTVN7testing8internal11MatcherBaseIiEE, i64 0, inrange i32 0, i64 2), ptr %ref.tmp20, align 8
  %27 = load ptr, ptr %vtable_.i.i, align 8
  %cmp.not.i.i.i.i57 = icmp eq ptr %27, null
  br i1 %cmp.not.i.i.i.i57, label %_ZN7testing7MatcherIiED2Ev.exit, label %_ZNK7testing8internal11MatcherBaseIiE8IsSharedEv.exit.i.i.i58

_ZNK7testing8internal11MatcherBaseIiE8IsSharedEv.exit.i.i.i58: ; preds = %_ZN7testing8internal8MockSpecIFliEED2Ev.exit
  %shared_destroy.i.i.i.i59 = getelementptr inbounds %"struct.testing::internal::MatcherBase<int>::VTable", ptr %27, i64 0, i32 3
  %28 = load ptr, ptr %shared_destroy.i.i.i.i59, align 8
  %cmp3.i.not.i.i.i60 = icmp eq ptr %28, null
  br i1 %cmp3.i.not.i.i.i60, label %_ZN7testing7MatcherIiED2Ev.exit, label %land.lhs.true.i.i.i

land.lhs.true.i.i.i:                              ; preds = %_ZNK7testing8internal11MatcherBaseIiE8IsSharedEv.exit.i.i.i58
  %29 = load ptr, ptr %buffer_3.i.i.i, align 8
  %30 = atomicrmw sub ptr %29, i32 1 acq_rel, align 4
  %cmp.i.i.i.i = icmp eq i32 %30, 1
  br i1 %cmp.i.i.i.i, label %if.then.i.i.i62, label %_ZN7testing7MatcherIiED2Ev.exit

if.then.i.i.i62:                                  ; preds = %land.lhs.true.i.i.i
  %31 = load ptr, ptr %vtable_.i.i, align 8
  %shared_destroy.i.i.i = getelementptr inbounds %"struct.testing::internal::MatcherBase<int>::VTable", ptr %31, i64 0, i32 3
  %32 = load ptr, ptr %shared_destroy.i.i.i, align 8
  %33 = load ptr, ptr %buffer_3.i.i.i, align 8
  invoke void %32(ptr noundef %33)
          to label %_ZN7testing7MatcherIiED2Ev.exit unwind label %terminate.lpad.i.i63

terminate.lpad.i.i63:                             ; preds = %if.then.i.i.i62
  %34 = landingpad { ptr, i32 }
          catch ptr null
  %35 = extractvalue { ptr, i32 } %34, 0
  call void @__clang_call_terminate(ptr %35) #24
  unreachable

_ZN7testing7MatcherIiED2Ev.exit:                  ; preds = %_ZN7testing8internal8MockSpecIFliEED2Ev.exit, %_ZNK7testing8internal11MatcherBaseIiE8IsSharedEv.exit.i.i.i58, %land.lhs.true.i.i.i, %if.then.i.i.i62
  %36 = load i64, ptr %1, align 8
  %inc.i.i = add i64 %36, 1
  store i64 %inc.i.i, ptr %1, align 8
  %cmp.i.i = icmp sgt i64 %inc.i.i, -1
  br i1 %cmp.i.i, label %_ZN4absl18profiling_internal19PeriodicSamplerBase6SampleEv.exit, label %_ZN4absl18profiling_internal19PeriodicSamplerBase6SampleEv.exit.thread

_ZN4absl18profiling_internal19PeriodicSamplerBase6SampleEv.exit.thread: ; preds = %_ZN7testing7MatcherIiED2Ev.exit
  store i8 1, ptr %gtest_ar_, align 8
  %message_.i267 = getelementptr inbounds %"class.testing::AssertionResult", ptr %gtest_ar_, i64 0, i32 1
  store ptr null, ptr %message_.i267, align 8
  br label %_ZN7testing15AssertionResultD2Ev.exit

_ZN4absl18profiling_internal19PeriodicSamplerBase6SampleEv.exit: ; preds = %_ZN7testing7MatcherIiED2Ev.exit
  %call2.i = call noundef zeroext i1 @_ZN4absl18profiling_internal19PeriodicSamplerBase19SubtleConfirmSampleEv(ptr noundef nonnull align 8 dereferenceable(40) %sampler) #21
  %lnot = xor i1 %call2.i, true
  %frombool = zext i1 %lnot to i8
  store i8 %frombool, ptr %gtest_ar_, align 8
  %message_.i = getelementptr inbounds %"class.testing::AssertionResult", ptr %gtest_ar_, i64 0, i32 1
  store ptr null, ptr %message_.i, align 8
  br i1 %call2.i, label %if.else, label %_ZN7testing15AssertionResultD2Ev.exit

lpad:                                             ; preds = %_ZN7testing10StrictMockIN4absl18profiling_internal12_GLOBAL__N_119MockPeriodicSamplerEEC2Ev.exit, %invoke.cont12, %invoke.cont6, %invoke.cont3, %invoke.cont
  %37 = landingpad { ptr, i32 }
          cleanup
  br label %ehcleanup269

lpad16:                                           ; preds = %invoke.cont15
  %38 = landingpad { ptr, i32 }
          cleanup
  %_M_manager.i.i.i64 = getelementptr inbounds %"class.std::_Function_base", ptr %ref.tmp10, i64 0, i32 1
  %39 = load ptr, ptr %_M_manager.i.i.i64, align 8
  %tobool.not.i.i.i65 = icmp eq ptr %39, null
  br i1 %tobool.not.i.i.i65, label %ehcleanup269, label %if.then.i.i.i66

if.then.i.i.i66:                                  ; preds = %lpad16
  %call.i.i.i67 = invoke noundef zeroext i1 %39(ptr noundef nonnull align 8 dereferenceable(16) %ref.tmp10, ptr noundef nonnull align 8 dereferenceable(16) %ref.tmp10, i32 noundef 3)
          to label %ehcleanup269 unwind label %terminate.lpad.i.i.i68

terminate.lpad.i.i.i68:                           ; preds = %if.then.i.i.i66
  %40 = landingpad { ptr, i32 }
          catch ptr null
  %41 = extractvalue { ptr, i32 } %40, 0
  call void @__clang_call_terminate(ptr %41) #24
  unreachable

lpad22:                                           ; preds = %invoke.cont21
  %42 = landingpad { ptr, i32 }
          cleanup
  br label %ehcleanup60

lpad25:                                           ; preds = %invoke.cont33, %invoke.cont26, %invoke.cont23
  %43 = landingpad { ptr, i32 }
          cleanup
  br label %ehcleanup59

lpad37:                                           ; preds = %invoke.cont42, %invoke.cont36
  %44 = landingpad { ptr, i32 }
          cleanup
  br label %ehcleanup58

lpad46:                                           ; preds = %invoke.cont51, %invoke.cont45
  %45 = landingpad { ptr, i32 }
          cleanup
  br label %ehcleanup

lpad55:                                           ; preds = %invoke.cont54
  %46 = landingpad { ptr, i32 }
          cleanup
  %_M_manager.i.i.i70 = getelementptr inbounds %"class.std::_Function_base", ptr %agg.tmp49, i64 0, i32 1
  %47 = load ptr, ptr %_M_manager.i.i.i70, align 8
  %tobool.not.i.i.i71 = icmp eq ptr %47, null
  br i1 %tobool.not.i.i.i71, label %ehcleanup, label %if.then.i.i.i72

if.then.i.i.i72:                                  ; preds = %lpad55
  %call.i.i.i73 = invoke noundef zeroext i1 %47(ptr noundef nonnull align 8 dereferenceable(16) %agg.tmp49, ptr noundef nonnull align 8 dereferenceable(16) %agg.tmp49, i32 noundef 3)
          to label %ehcleanup unwind label %terminate.lpad.i.i.i74

terminate.lpad.i.i.i74:                           ; preds = %if.then.i.i.i72
  %48 = landingpad { ptr, i32 }
          catch ptr null
  %49 = extractvalue { ptr, i32 } %48, 0
  call void @__clang_call_terminate(ptr %49) #24
  unreachable

ehcleanup:                                        ; preds = %if.then.i.i.i72, %lpad55, %lpad46
  %.pn = phi { ptr, i32 } [ %45, %lpad46 ], [ %46, %lpad55 ], [ %46, %if.then.i.i.i72 ]
  %_M_manager.i.i.i76 = getelementptr inbounds %"class.std::_Function_base", ptr %agg.tmp40, i64 0, i32 1
  %50 = load ptr, ptr %_M_manager.i.i.i76, align 8
  %tobool.not.i.i.i77 = icmp eq ptr %50, null
  br i1 %tobool.not.i.i.i77, label %ehcleanup58, label %if.then.i.i.i78

if.then.i.i.i78:                                  ; preds = %ehcleanup
  %call.i.i.i79 = invoke noundef zeroext i1 %50(ptr noundef nonnull align 8 dereferenceable(16) %agg.tmp40, ptr noundef nonnull align 8 dereferenceable(16) %agg.tmp40, i32 noundef 3)
          to label %ehcleanup58 unwind label %terminate.lpad.i.i.i80

terminate.lpad.i.i.i80:                           ; preds = %if.then.i.i.i78
  %51 = landingpad { ptr, i32 }
          catch ptr null
  %52 = extractvalue { ptr, i32 } %51, 0
  call void @__clang_call_terminate(ptr %52) #24
  unreachable

ehcleanup58:                                      ; preds = %if.then.i.i.i78, %ehcleanup, %lpad37
  %.pn.pn = phi { ptr, i32 } [ %44, %lpad37 ], [ %.pn, %ehcleanup ], [ %.pn, %if.then.i.i.i78 ]
  %_M_manager.i.i.i82 = getelementptr inbounds %"class.std::_Function_base", ptr %agg.tmp, i64 0, i32 1
  %53 = load ptr, ptr %_M_manager.i.i.i82, align 8
  %tobool.not.i.i.i83 = icmp eq ptr %53, null
  br i1 %tobool.not.i.i.i83, label %ehcleanup59, label %if.then.i.i.i84

if.then.i.i.i84:                                  ; preds = %ehcleanup58
  %call.i.i.i85 = invoke noundef zeroext i1 %53(ptr noundef nonnull align 8 dereferenceable(16) %agg.tmp, ptr noundef nonnull align 8 dereferenceable(16) %agg.tmp, i32 noundef 3)
          to label %ehcleanup59 unwind label %terminate.lpad.i.i.i86

terminate.lpad.i.i.i86:                           ; preds = %if.then.i.i.i84
  %54 = landingpad { ptr, i32 }
          catch ptr null
  %55 = extractvalue { ptr, i32 } %54, 0
  call void @__clang_call_terminate(ptr %55) #24
  unreachable

ehcleanup59:                                      ; preds = %if.then.i.i.i84, %ehcleanup58, %lpad25
  %.pn.pn.pn = phi { ptr, i32 } [ %43, %lpad25 ], [ %.pn.pn, %ehcleanup58 ], [ %.pn.pn, %if.then.i.i.i84 ]
  call void @_ZN7testing8internal8MockSpecIFliEED2Ev(ptr noundef nonnull align 8 dereferenceable(32) %ref.tmp19) #21
  br label %ehcleanup60

ehcleanup60:                                      ; preds = %ehcleanup59, %lpad22
  %.pn.pn.pn.pn = phi { ptr, i32 } [ %.pn.pn.pn, %ehcleanup59 ], [ %42, %lpad22 ]
  call void @_ZN7testing7MatcherIiED2Ev(ptr noundef nonnull align 8 dereferenceable(24) %ref.tmp20) #21
  br label %ehcleanup269

lpad64:                                           ; preds = %if.else
  %56 = landingpad { ptr, i32 }
          cleanup
  br label %ehcleanup81

if.else:                                          ; preds = %_ZN4absl18profiling_internal19PeriodicSamplerBase6SampleEv.exit
  invoke void @_ZN7testing7MessageC1Ev(ptr noundef nonnull align 8 dereferenceable(8) %ref.tmp67)
          to label %invoke.cont68 unwind label %lpad64

invoke.cont68:                                    ; preds = %if.else
  invoke void @_ZN7testing8internal30GetBoolAssertionFailureMessageB5cxx11ERKNS_15AssertionResultEPKcS5_S5_(ptr nonnull sret(%"class.std::__cxx11::basic_string") align 8 %ref.tmp70, ptr noundef nonnull align 8 dereferenceable(16) %gtest_ar_, ptr noundef nonnull @.str.26, ptr noundef nonnull @.str.27, ptr noundef nonnull @.str.28)
          to label %invoke.cont72 unwind label %lpad71

invoke.cont72:                                    ; preds = %invoke.cont68
  %call73 = call noundef ptr @_ZNKSt7__cxx1112basic_stringIcSt11char_traitsIcESaIcEE5c_strEv(ptr noundef nonnull align 8 dereferenceable(32) %ref.tmp70) #21
  invoke void @_ZN7testing8internal12AssertHelperC1ENS_14TestPartResult4TypeEPKciS5_(ptr noundef nonnull align 8 dereferenceable(8) %ref.tmp69, i32 noundef 1, ptr noundef nonnull @.str.3, i32 noundef 50, ptr noundef %call73)
          to label %invoke.cont75 unwind label %lpad74

invoke.cont75:                                    ; preds = %invoke.cont72
  invoke void @_ZNK7testing8internal12AssertHelperaSERKNS_7MessageE(ptr noundef nonnull align 8 dereferenceable(8) %ref.tmp69, ptr noundef nonnull align 8 dereferenceable(8) %ref.tmp67)
          to label %invoke.cont77 unwind label %lpad76

invoke.cont77:                                    ; preds = %invoke.cont75
  call void @_ZN7testing8internal12AssertHelperD1Ev(ptr noundef nonnull align 8 dereferenceable(8) %ref.tmp69) #21
  call void @_ZNSt7__cxx1112basic_stringIcSt11char_traitsIcESaIcEED1Ev(ptr noundef nonnull align 8 dereferenceable(32) %ref.tmp70) #21
  %57 = load ptr, ptr %ref.tmp67, align 8
  %cmp.not.i.i = icmp eq ptr %57, null
  br i1 %cmp.not.i.i, label %if.end, label %_ZNKSt14default_deleteINSt7__cxx1118basic_stringstreamIcSt11char_traitsIcESaIcEEEEclEPS5_.exit.i.i

_ZNKSt14default_deleteINSt7__cxx1118basic_stringstreamIcSt11char_traitsIcESaIcEEEEclEPS5_.exit.i.i: ; preds = %invoke.cont77
  %vtable.i.i.i = load ptr, ptr %57, align 8
  %vfn.i.i.i = getelementptr inbounds ptr, ptr %vtable.i.i.i, i64 1
  %58 = load ptr, ptr %vfn.i.i.i, align 8
  call void %58(ptr noundef nonnull align 8 dereferenceable(128) %57) #21
  br label %if.end

lpad71:                                           ; preds = %invoke.cont68
  %59 = landingpad { ptr, i32 }
          cleanup
  br label %ehcleanup80

lpad74:                                           ; preds = %invoke.cont72
  %60 = landingpad { ptr, i32 }
          cleanup
  br label %ehcleanup79

lpad76:                                           ; preds = %invoke.cont75
  %61 = landingpad { ptr, i32 }
          cleanup
  call void @_ZN7testing8internal12AssertHelperD1Ev(ptr noundef nonnull align 8 dereferenceable(8) %ref.tmp69) #21
  br label %ehcleanup79

ehcleanup79:                                      ; preds = %lpad76, %lpad74
  %.pn5 = phi { ptr, i32 } [ %61, %lpad76 ], [ %60, %lpad74 ]
  call void @_ZNSt7__cxx1112basic_stringIcSt11char_traitsIcESaIcEED1Ev(ptr noundef nonnull align 8 dereferenceable(32) %ref.tmp70) #21
  br label %ehcleanup80

ehcleanup80:                                      ; preds = %ehcleanup79, %lpad71
  %.pn5.pn = phi { ptr, i32 } [ %.pn5, %ehcleanup79 ], [ %59, %lpad71 ]
  %62 = load ptr, ptr %ref.tmp67, align 8
  %cmp.not.i.i88 = icmp eq ptr %62, null
  br i1 %cmp.not.i.i88, label %_ZN7testing7MessageD2Ev.exit92, label %_ZNKSt14default_deleteINSt7__cxx1118basic_stringstreamIcSt11char_traitsIcESaIcEEEEclEPS5_.exit.i.i89

_ZNKSt14default_deleteINSt7__cxx1118basic_stringstreamIcSt11char_traitsIcESaIcEEEEclEPS5_.exit.i.i89: ; preds = %ehcleanup80
  %vtable.i.i.i90 = load ptr, ptr %62, align 8
  %vfn.i.i.i91 = getelementptr inbounds ptr, ptr %vtable.i.i.i90, i64 1
  %63 = load ptr, ptr %vfn.i.i.i91, align 8
  call void %63(ptr noundef nonnull align 8 dereferenceable(128) %62) #21
  br label %_ZN7testing7MessageD2Ev.exit92

_ZN7testing7MessageD2Ev.exit92:                   ; preds = %ehcleanup80, %_ZNKSt14default_deleteINSt7__cxx1118basic_stringstreamIcSt11char_traitsIcESaIcEEEEclEPS5_.exit.i.i89
  store ptr null, ptr %ref.tmp67, align 8
  br label %ehcleanup81

if.end:                                           ; preds = %_ZNKSt14default_deleteINSt7__cxx1118basic_stringstreamIcSt11char_traitsIcESaIcEEEEclEPS5_.exit.i.i, %invoke.cont77
  store ptr null, ptr %ref.tmp67, align 8
  %.pr270 = load ptr, ptr %message_.i, align 8
  %cmp.not.i.i94 = icmp eq ptr %.pr270, null
  br i1 %cmp.not.i.i94, label %_ZN7testing15AssertionResultD2Ev.exit, label %_ZNKSt14default_deleteINSt7__cxx1112basic_stringIcSt11char_traitsIcESaIcEEEEclEPS5_.exit.i.i

_ZNKSt14default_deleteINSt7__cxx1112basic_stringIcSt11char_traitsIcESaIcEEEEclEPS5_.exit.i.i: ; preds = %if.end
  call void @_ZNSt7__cxx1112basic_stringIcSt11char_traitsIcESaIcEED1Ev(ptr noundef nonnull align 8 dereferenceable(32) %.pr270) #21
  call void @_ZdlPv(ptr noundef nonnull %.pr270) #22
  br label %_ZN7testing15AssertionResultD2Ev.exit

_ZN7testing15AssertionResultD2Ev.exit:            ; preds = %_ZN4absl18profiling_internal19PeriodicSamplerBase6SampleEv.exit, %_ZN4absl18profiling_internal19PeriodicSamplerBase6SampleEv.exit.thread, %if.end, %_ZNKSt14default_deleteINSt7__cxx1112basic_stringIcSt11char_traitsIcESaIcEEEEclEPS5_.exit.i.i
  %message_.i269273 = phi ptr [ %message_.i, %if.end ], [ %message_.i, %_ZNKSt14default_deleteINSt7__cxx1112basic_stringIcSt11char_traitsIcESaIcEEEEclEPS5_.exit.i.i ], [ %message_.i, %_ZN4absl18profiling_internal19PeriodicSamplerBase6SampleEv.exit ], [ %message_.i267, %_ZN4absl18profiling_internal19PeriodicSamplerBase6SampleEv.exit.thread ]
  store ptr null, ptr %message_.i269273, align 8
  %64 = load i64, ptr %1, align 8
  %inc.i.i96 = add i64 %64, 1
  store i64 %inc.i.i96, ptr %1, align 8
  %cmp.i.i97 = icmp sgt i64 %inc.i.i96, -1
  br i1 %cmp.i.i97, label %_ZN4absl18profiling_internal19PeriodicSamplerBase6SampleEv.exit101, label %_ZN4absl18profiling_internal19PeriodicSamplerBase6SampleEv.exit101.thread

_ZN4absl18profiling_internal19PeriodicSamplerBase6SampleEv.exit101.thread: ; preds = %_ZN7testing15AssertionResultD2Ev.exit
  store i8 0, ptr %gtest_ar_82, align 8
  %message_.i102276 = getelementptr inbounds %"class.testing::AssertionResult", ptr %gtest_ar_82, i64 0, i32 1
  store ptr null, ptr %message_.i102276, align 8
  br label %if.else91

_ZN4absl18profiling_internal19PeriodicSamplerBase6SampleEv.exit101: ; preds = %_ZN7testing15AssertionResultD2Ev.exit
  %call2.i100 = call noundef zeroext i1 @_ZN4absl18profiling_internal19PeriodicSamplerBase19SubtleConfirmSampleEv(ptr noundef nonnull align 8 dereferenceable(40) %sampler) #21
  %frombool85 = zext i1 %call2.i100 to i8
  store i8 %frombool85, ptr %gtest_ar_82, align 8
  %message_.i102 = getelementptr inbounds %"class.testing::AssertionResult", ptr %gtest_ar_82, i64 0, i32 1
  store ptr null, ptr %message_.i102, align 8
  br i1 %call2.i100, label %_ZN7testing15AssertionResultD2Ev.exit117, label %if.else91

ehcleanup81:                                      ; preds = %_ZN7testing7MessageD2Ev.exit92, %lpad64
  %.pn5.pn.pn = phi { ptr, i32 } [ %.pn5.pn, %_ZN7testing7MessageD2Ev.exit92 ], [ %56, %lpad64 ]
  call void @_ZN7testing15AssertionResultD2Ev(ptr noundef nonnull align 8 dereferenceable(16) %gtest_ar_) #21
  br label %ehcleanup269

lpad87:                                           ; preds = %if.else91
  %65 = landingpad { ptr, i32 }
          cleanup
  br label %ehcleanup107

if.else91:                                        ; preds = %_ZN4absl18profiling_internal19PeriodicSamplerBase6SampleEv.exit101.thread, %_ZN4absl18profiling_internal19PeriodicSamplerBase6SampleEv.exit101
  %message_.i102278 = phi ptr [ %message_.i102276, %_ZN4absl18profiling_internal19PeriodicSamplerBase6SampleEv.exit101.thread ], [ %message_.i102, %_ZN4absl18profiling_internal19PeriodicSamplerBase6SampleEv.exit101 ]
  invoke void @_ZN7testing7MessageC1Ev(ptr noundef nonnull align 8 dereferenceable(8) %ref.tmp92)
          to label %invoke.cont93 unwind label %lpad87

invoke.cont93:                                    ; preds = %if.else91
  invoke void @_ZN7testing8internal30GetBoolAssertionFailureMessageB5cxx11ERKNS_15AssertionResultEPKcS5_S5_(ptr nonnull sret(%"class.std::__cxx11::basic_string") align 8 %ref.tmp95, ptr noundef nonnull align 8 dereferenceable(16) %gtest_ar_82, ptr noundef nonnull @.str.26, ptr noundef nonnull @.str.28, ptr noundef nonnull @.str.27)
          to label %invoke.cont97 unwind label %lpad96

invoke.cont97:                                    ; preds = %invoke.cont93
  %call98 = call noundef ptr @_ZNKSt7__cxx1112basic_stringIcSt11char_traitsIcESaIcEE5c_strEv(ptr noundef nonnull align 8 dereferenceable(32) %ref.tmp95) #21
  invoke void @_ZN7testing8internal12AssertHelperC1ENS_14TestPartResult4TypeEPKciS5_(ptr noundef nonnull align 8 dereferenceable(8) %ref.tmp94, i32 noundef 1, ptr noundef nonnull @.str.3, i32 noundef 51, ptr noundef %call98)
          to label %invoke.cont100 unwind label %lpad99

invoke.cont100:                                   ; preds = %invoke.cont97
  invoke void @_ZNK7testing8internal12AssertHelperaSERKNS_7MessageE(ptr noundef nonnull align 8 dereferenceable(8) %ref.tmp94, ptr noundef nonnull align 8 dereferenceable(8) %ref.tmp92)
          to label %invoke.cont102 unwind label %lpad101

invoke.cont102:                                   ; preds = %invoke.cont100
  call void @_ZN7testing8internal12AssertHelperD1Ev(ptr noundef nonnull align 8 dereferenceable(8) %ref.tmp94) #21
  call void @_ZNSt7__cxx1112basic_stringIcSt11char_traitsIcESaIcEED1Ev(ptr noundef nonnull align 8 dereferenceable(32) %ref.tmp95) #21
  %66 = load ptr, ptr %ref.tmp92, align 8
  %cmp.not.i.i104 = icmp eq ptr %66, null
  br i1 %cmp.not.i.i104, label %if.end106, label %_ZNKSt14default_deleteINSt7__cxx1118basic_stringstreamIcSt11char_traitsIcESaIcEEEEclEPS5_.exit.i.i105

_ZNKSt14default_deleteINSt7__cxx1118basic_stringstreamIcSt11char_traitsIcESaIcEEEEclEPS5_.exit.i.i105: ; preds = %invoke.cont102
  %vtable.i.i.i106 = load ptr, ptr %66, align 8
  %vfn.i.i.i107 = getelementptr inbounds ptr, ptr %vtable.i.i.i106, i64 1
  %67 = load ptr, ptr %vfn.i.i.i107, align 8
  call void %67(ptr noundef nonnull align 8 dereferenceable(128) %66) #21
  br label %if.end106

lpad96:                                           ; preds = %invoke.cont93
  %68 = landingpad { ptr, i32 }
          cleanup
  br label %ehcleanup105

lpad99:                                           ; preds = %invoke.cont97
  %69 = landingpad { ptr, i32 }
          cleanup
  br label %ehcleanup104

lpad101:                                          ; preds = %invoke.cont100
  %70 = landingpad { ptr, i32 }
          cleanup
  call void @_ZN7testing8internal12AssertHelperD1Ev(ptr noundef nonnull align 8 dereferenceable(8) %ref.tmp94) #21
  br label %ehcleanup104

ehcleanup104:                                     ; preds = %lpad101, %lpad99
  %.pn9 = phi { ptr, i32 } [ %70, %lpad101 ], [ %69, %lpad99 ]
  call void @_ZNSt7__cxx1112basic_stringIcSt11char_traitsIcESaIcEED1Ev(ptr noundef nonnull align 8 dereferenceable(32) %ref.tmp95) #21
  br label %ehcleanup105

ehcleanup105:                                     ; preds = %ehcleanup104, %lpad96
  %.pn9.pn = phi { ptr, i32 } [ %.pn9, %ehcleanup104 ], [ %68, %lpad96 ]
  %71 = load ptr, ptr %ref.tmp92, align 8
  %cmp.not.i.i109 = icmp eq ptr %71, null
  br i1 %cmp.not.i.i109, label %_ZN7testing7MessageD2Ev.exit113, label %_ZNKSt14default_deleteINSt7__cxx1118basic_stringstreamIcSt11char_traitsIcESaIcEEEEclEPS5_.exit.i.i110

_ZNKSt14default_deleteINSt7__cxx1118basic_stringstreamIcSt11char_traitsIcESaIcEEEEclEPS5_.exit.i.i110: ; preds = %ehcleanup105
  %vtable.i.i.i111 = load ptr, ptr %71, align 8
  %vfn.i.i.i112 = getelementptr inbounds ptr, ptr %vtable.i.i.i111, i64 1
  %72 = load ptr, ptr %vfn.i.i.i112, align 8
  call void %72(ptr noundef nonnull align 8 dereferenceable(128) %71) #21
  br label %_ZN7testing7MessageD2Ev.exit113

_ZN7testing7MessageD2Ev.exit113:                  ; preds = %ehcleanup105, %_ZNKSt14default_deleteINSt7__cxx1118basic_stringstreamIcSt11char_traitsIcESaIcEEEEclEPS5_.exit.i.i110
  store ptr null, ptr %ref.tmp92, align 8
  br label %ehcleanup107

if.end106:                                        ; preds = %_ZNKSt14default_deleteINSt7__cxx1118basic_stringstreamIcSt11char_traitsIcESaIcEEEEclEPS5_.exit.i.i105, %invoke.cont102
  store ptr null, ptr %ref.tmp92, align 8
  %.pr280 = load ptr, ptr %message_.i102278, align 8
  %cmp.not.i.i115 = icmp eq ptr %.pr280, null
  br i1 %cmp.not.i.i115, label %_ZN7testing15AssertionResultD2Ev.exit117, label %_ZNKSt14default_deleteINSt7__cxx1112basic_stringIcSt11char_traitsIcESaIcEEEEclEPS5_.exit.i.i116

_ZNKSt14default_deleteINSt7__cxx1112basic_stringIcSt11char_traitsIcESaIcEEEEclEPS5_.exit.i.i116: ; preds = %if.end106
  call void @_ZNSt7__cxx1112basic_stringIcSt11char_traitsIcESaIcEED1Ev(ptr noundef nonnull align 8 dereferenceable(32) %.pr280) #21
  call void @_ZdlPv(ptr noundef nonnull %.pr280) #22
  br label %_ZN7testing15AssertionResultD2Ev.exit117

_ZN7testing15AssertionResultD2Ev.exit117:         ; preds = %_ZN4absl18profiling_internal19PeriodicSamplerBase6SampleEv.exit101, %if.end106, %_ZNKSt14default_deleteINSt7__cxx1112basic_stringIcSt11char_traitsIcESaIcEEEEclEPS5_.exit.i.i116
  %message_.i102279283 = phi ptr [ %message_.i102278, %if.end106 ], [ %message_.i102278, %_ZNKSt14default_deleteINSt7__cxx1112basic_stringIcSt11char_traitsIcESaIcEEEEclEPS5_.exit.i.i116 ], [ %message_.i102, %_ZN4absl18profiling_internal19PeriodicSamplerBase6SampleEv.exit101 ]
  store ptr null, ptr %message_.i102279283, align 8
  %73 = load i64, ptr %1, align 8
  %inc.i.i119 = add i64 %73, 1
  store i64 %inc.i.i119, ptr %1, align 8
  %cmp.i.i120 = icmp sgt i64 %inc.i.i119, -1
  br i1 %cmp.i.i120, label %_ZN4absl18profiling_internal19PeriodicSamplerBase6SampleEv.exit124, label %_ZN4absl18profiling_internal19PeriodicSamplerBase6SampleEv.exit124.thread

_ZN4absl18profiling_internal19PeriodicSamplerBase6SampleEv.exit124.thread: ; preds = %_ZN7testing15AssertionResultD2Ev.exit117
  store i8 1, ptr %gtest_ar_108, align 8
  %message_.i125287 = getelementptr inbounds %"class.testing::AssertionResult", ptr %gtest_ar_108, i64 0, i32 1
  store ptr null, ptr %message_.i125287, align 8
  br label %_ZN7testing15AssertionResultD2Ev.exit140

_ZN4absl18profiling_internal19PeriodicSamplerBase6SampleEv.exit124: ; preds = %_ZN7testing15AssertionResultD2Ev.exit117
  %call2.i123 = call noundef zeroext i1 @_ZN4absl18profiling_internal19PeriodicSamplerBase19SubtleConfirmSampleEv(ptr noundef nonnull align 8 dereferenceable(40) %sampler) #21
  %lnot111 = xor i1 %call2.i123, true
  %frombool112 = zext i1 %lnot111 to i8
  store i8 %frombool112, ptr %gtest_ar_108, align 8
  %message_.i125 = getelementptr inbounds %"class.testing::AssertionResult", ptr %gtest_ar_108, i64 0, i32 1
  store ptr null, ptr %message_.i125, align 8
  br i1 %call2.i123, label %if.else118, label %_ZN7testing15AssertionResultD2Ev.exit140

ehcleanup107:                                     ; preds = %_ZN7testing7MessageD2Ev.exit113, %lpad87
  %.pn9.pn.pn = phi { ptr, i32 } [ %.pn9.pn, %_ZN7testing7MessageD2Ev.exit113 ], [ %65, %lpad87 ]
  call void @_ZN7testing15AssertionResultD2Ev(ptr noundef nonnull align 8 dereferenceable(16) %gtest_ar_82) #21
  br label %ehcleanup269

lpad114:                                          ; preds = %if.else118
  %74 = landingpad { ptr, i32 }
          cleanup
  br label %ehcleanup134

if.else118:                                       ; preds = %_ZN4absl18profiling_internal19PeriodicSamplerBase6SampleEv.exit124
  invoke void @_ZN7testing7MessageC1Ev(ptr noundef nonnull align 8 dereferenceable(8) %ref.tmp119)
          to label %invoke.cont120 unwind label %lpad114

invoke.cont120:                                   ; preds = %if.else118
  invoke void @_ZN7testing8internal30GetBoolAssertionFailureMessageB5cxx11ERKNS_15AssertionResultEPKcS5_S5_(ptr nonnull sret(%"class.std::__cxx11::basic_string") align 8 %ref.tmp122, ptr noundef nonnull align 8 dereferenceable(16) %gtest_ar_108, ptr noundef nonnull @.str.26, ptr noundef nonnull @.str.27, ptr noundef nonnull @.str.28)
          to label %invoke.cont124 unwind label %lpad123

invoke.cont124:                                   ; preds = %invoke.cont120
  %call125 = call noundef ptr @_ZNKSt7__cxx1112basic_stringIcSt11char_traitsIcESaIcEE5c_strEv(ptr noundef nonnull align 8 dereferenceable(32) %ref.tmp122) #21
  invoke void @_ZN7testing8internal12AssertHelperC1ENS_14TestPartResult4TypeEPKciS5_(ptr noundef nonnull align 8 dereferenceable(8) %ref.tmp121, i32 noundef 1, ptr noundef nonnull @.str.3, i32 noundef 53, ptr noundef %call125)
          to label %invoke.cont127 unwind label %lpad126

invoke.cont127:                                   ; preds = %invoke.cont124
  invoke void @_ZNK7testing8internal12AssertHelperaSERKNS_7MessageE(ptr noundef nonnull align 8 dereferenceable(8) %ref.tmp121, ptr noundef nonnull align 8 dereferenceable(8) %ref.tmp119)
          to label %invoke.cont129 unwind label %lpad128

invoke.cont129:                                   ; preds = %invoke.cont127
  call void @_ZN7testing8internal12AssertHelperD1Ev(ptr noundef nonnull align 8 dereferenceable(8) %ref.tmp121) #21
  call void @_ZNSt7__cxx1112basic_stringIcSt11char_traitsIcESaIcEED1Ev(ptr noundef nonnull align 8 dereferenceable(32) %ref.tmp122) #21
  %75 = load ptr, ptr %ref.tmp119, align 8
  %cmp.not.i.i127 = icmp eq ptr %75, null
  br i1 %cmp.not.i.i127, label %if.end133, label %_ZNKSt14default_deleteINSt7__cxx1118basic_stringstreamIcSt11char_traitsIcESaIcEEEEclEPS5_.exit.i.i128

_ZNKSt14default_deleteINSt7__cxx1118basic_stringstreamIcSt11char_traitsIcESaIcEEEEclEPS5_.exit.i.i128: ; preds = %invoke.cont129
  %vtable.i.i.i129 = load ptr, ptr %75, align 8
  %vfn.i.i.i130 = getelementptr inbounds ptr, ptr %vtable.i.i.i129, i64 1
  %76 = load ptr, ptr %vfn.i.i.i130, align 8
  call void %76(ptr noundef nonnull align 8 dereferenceable(128) %75) #21
  br label %if.end133

lpad123:                                          ; preds = %invoke.cont120
  %77 = landingpad { ptr, i32 }
          cleanup
  br label %ehcleanup132

lpad126:                                          ; preds = %invoke.cont124
  %78 = landingpad { ptr, i32 }
          cleanup
  br label %ehcleanup131

lpad128:                                          ; preds = %invoke.cont127
  %79 = landingpad { ptr, i32 }
          cleanup
  call void @_ZN7testing8internal12AssertHelperD1Ev(ptr noundef nonnull align 8 dereferenceable(8) %ref.tmp121) #21
  br label %ehcleanup131

ehcleanup131:                                     ; preds = %lpad128, %lpad126
  %.pn13 = phi { ptr, i32 } [ %79, %lpad128 ], [ %78, %lpad126 ]
  call void @_ZNSt7__cxx1112basic_stringIcSt11char_traitsIcESaIcEED1Ev(ptr noundef nonnull align 8 dereferenceable(32) %ref.tmp122) #21
  br label %ehcleanup132

ehcleanup132:                                     ; preds = %ehcleanup131, %lpad123
  %.pn13.pn = phi { ptr, i32 } [ %.pn13, %ehcleanup131 ], [ %77, %lpad123 ]
  %80 = load ptr, ptr %ref.tmp119, align 8
  %cmp.not.i.i132 = icmp eq ptr %80, null
  br i1 %cmp.not.i.i132, label %_ZN7testing7MessageD2Ev.exit136, label %_ZNKSt14default_deleteINSt7__cxx1118basic_stringstreamIcSt11char_traitsIcESaIcEEEEclEPS5_.exit.i.i133

_ZNKSt14default_deleteINSt7__cxx1118basic_stringstreamIcSt11char_traitsIcESaIcEEEEclEPS5_.exit.i.i133: ; preds = %ehcleanup132
  %vtable.i.i.i134 = load ptr, ptr %80, align 8
  %vfn.i.i.i135 = getelementptr inbounds ptr, ptr %vtable.i.i.i134, i64 1
  %81 = load ptr, ptr %vfn.i.i.i135, align 8
  call void %81(ptr noundef nonnull align 8 dereferenceable(128) %80) #21
  br label %_ZN7testing7MessageD2Ev.exit136

_ZN7testing7MessageD2Ev.exit136:                  ; preds = %ehcleanup132, %_ZNKSt14default_deleteINSt7__cxx1118basic_stringstreamIcSt11char_traitsIcESaIcEEEEclEPS5_.exit.i.i133
  store ptr null, ptr %ref.tmp119, align 8
  br label %ehcleanup134

if.end133:                                        ; preds = %_ZNKSt14default_deleteINSt7__cxx1118basic_stringstreamIcSt11char_traitsIcESaIcEEEEclEPS5_.exit.i.i128, %invoke.cont129
  store ptr null, ptr %ref.tmp119, align 8
  %.pr290 = load ptr, ptr %message_.i125, align 8
  %cmp.not.i.i138 = icmp eq ptr %.pr290, null
  br i1 %cmp.not.i.i138, label %_ZN7testing15AssertionResultD2Ev.exit140, label %_ZNKSt14default_deleteINSt7__cxx1112basic_stringIcSt11char_traitsIcESaIcEEEEclEPS5_.exit.i.i139

_ZNKSt14default_deleteINSt7__cxx1112basic_stringIcSt11char_traitsIcESaIcEEEEclEPS5_.exit.i.i139: ; preds = %if.end133
  call void @_ZNSt7__cxx1112basic_stringIcSt11char_traitsIcESaIcEED1Ev(ptr noundef nonnull align 8 dereferenceable(32) %.pr290) #21
  call void @_ZdlPv(ptr noundef nonnull %.pr290) #22
  br label %_ZN7testing15AssertionResultD2Ev.exit140

_ZN7testing15AssertionResultD2Ev.exit140:         ; preds = %_ZN4absl18profiling_internal19PeriodicSamplerBase6SampleEv.exit124, %_ZN4absl18profiling_internal19PeriodicSamplerBase6SampleEv.exit124.thread, %if.end133, %_ZNKSt14default_deleteINSt7__cxx1112basic_stringIcSt11char_traitsIcESaIcEEEEclEPS5_.exit.i.i139
  %message_.i125289293 = phi ptr [ %message_.i125, %if.end133 ], [ %message_.i125, %_ZNKSt14default_deleteINSt7__cxx1112basic_stringIcSt11char_traitsIcESaIcEEEEclEPS5_.exit.i.i139 ], [ %message_.i125, %_ZN4absl18profiling_internal19PeriodicSamplerBase6SampleEv.exit124 ], [ %message_.i125287, %_ZN4absl18profiling_internal19PeriodicSamplerBase6SampleEv.exit124.thread ]
  store ptr null, ptr %message_.i125289293, align 8
  %82 = load i64, ptr %1, align 8
  %inc.i.i142 = add i64 %82, 1
  store i64 %inc.i.i142, ptr %1, align 8
  %cmp.i.i143 = icmp sgt i64 %inc.i.i142, -1
  br i1 %cmp.i.i143, label %_ZN4absl18profiling_internal19PeriodicSamplerBase6SampleEv.exit147, label %_ZN4absl18profiling_internal19PeriodicSamplerBase6SampleEv.exit147.thread

_ZN4absl18profiling_internal19PeriodicSamplerBase6SampleEv.exit147.thread: ; preds = %_ZN7testing15AssertionResultD2Ev.exit140
  store i8 1, ptr %gtest_ar_135, align 8
  %message_.i148297 = getelementptr inbounds %"class.testing::AssertionResult", ptr %gtest_ar_135, i64 0, i32 1
  store ptr null, ptr %message_.i148297, align 8
  br label %_ZN7testing15AssertionResultD2Ev.exit163

_ZN4absl18profiling_internal19PeriodicSamplerBase6SampleEv.exit147: ; preds = %_ZN7testing15AssertionResultD2Ev.exit140
  %call2.i146 = call noundef zeroext i1 @_ZN4absl18profiling_internal19PeriodicSamplerBase19SubtleConfirmSampleEv(ptr noundef nonnull align 8 dereferenceable(40) %sampler) #21
  %lnot138 = xor i1 %call2.i146, true
  %frombool139 = zext i1 %lnot138 to i8
  store i8 %frombool139, ptr %gtest_ar_135, align 8
  %message_.i148 = getelementptr inbounds %"class.testing::AssertionResult", ptr %gtest_ar_135, i64 0, i32 1
  store ptr null, ptr %message_.i148, align 8
  br i1 %call2.i146, label %if.else145, label %_ZN7testing15AssertionResultD2Ev.exit163

ehcleanup134:                                     ; preds = %_ZN7testing7MessageD2Ev.exit136, %lpad114
  %.pn13.pn.pn = phi { ptr, i32 } [ %.pn13.pn, %_ZN7testing7MessageD2Ev.exit136 ], [ %74, %lpad114 ]
  call void @_ZN7testing15AssertionResultD2Ev(ptr noundef nonnull align 8 dereferenceable(16) %gtest_ar_108) #21
  br label %ehcleanup269

lpad141:                                          ; preds = %if.else145
  %83 = landingpad { ptr, i32 }
          cleanup
  br label %ehcleanup161

if.else145:                                       ; preds = %_ZN4absl18profiling_internal19PeriodicSamplerBase6SampleEv.exit147
  invoke void @_ZN7testing7MessageC1Ev(ptr noundef nonnull align 8 dereferenceable(8) %ref.tmp146)
          to label %invoke.cont147 unwind label %lpad141

invoke.cont147:                                   ; preds = %if.else145
  invoke void @_ZN7testing8internal30GetBoolAssertionFailureMessageB5cxx11ERKNS_15AssertionResultEPKcS5_S5_(ptr nonnull sret(%"class.std::__cxx11::basic_string") align 8 %ref.tmp149, ptr noundef nonnull align 8 dereferenceable(16) %gtest_ar_135, ptr noundef nonnull @.str.26, ptr noundef nonnull @.str.27, ptr noundef nonnull @.str.28)
          to label %invoke.cont151 unwind label %lpad150

invoke.cont151:                                   ; preds = %invoke.cont147
  %call152 = call noundef ptr @_ZNKSt7__cxx1112basic_stringIcSt11char_traitsIcESaIcEE5c_strEv(ptr noundef nonnull align 8 dereferenceable(32) %ref.tmp149) #21
  invoke void @_ZN7testing8internal12AssertHelperC1ENS_14TestPartResult4TypeEPKciS5_(ptr noundef nonnull align 8 dereferenceable(8) %ref.tmp148, i32 noundef 1, ptr noundef nonnull @.str.3, i32 noundef 54, ptr noundef %call152)
          to label %invoke.cont154 unwind label %lpad153

invoke.cont154:                                   ; preds = %invoke.cont151
  invoke void @_ZNK7testing8internal12AssertHelperaSERKNS_7MessageE(ptr noundef nonnull align 8 dereferenceable(8) %ref.tmp148, ptr noundef nonnull align 8 dereferenceable(8) %ref.tmp146)
          to label %invoke.cont156 unwind label %lpad155

invoke.cont156:                                   ; preds = %invoke.cont154
  call void @_ZN7testing8internal12AssertHelperD1Ev(ptr noundef nonnull align 8 dereferenceable(8) %ref.tmp148) #21
  call void @_ZNSt7__cxx1112basic_stringIcSt11char_traitsIcESaIcEED1Ev(ptr noundef nonnull align 8 dereferenceable(32) %ref.tmp149) #21
  %84 = load ptr, ptr %ref.tmp146, align 8
  %cmp.not.i.i150 = icmp eq ptr %84, null
  br i1 %cmp.not.i.i150, label %if.end160, label %_ZNKSt14default_deleteINSt7__cxx1118basic_stringstreamIcSt11char_traitsIcESaIcEEEEclEPS5_.exit.i.i151

_ZNKSt14default_deleteINSt7__cxx1118basic_stringstreamIcSt11char_traitsIcESaIcEEEEclEPS5_.exit.i.i151: ; preds = %invoke.cont156
  %vtable.i.i.i152 = load ptr, ptr %84, align 8
  %vfn.i.i.i153 = getelementptr inbounds ptr, ptr %vtable.i.i.i152, i64 1
  %85 = load ptr, ptr %vfn.i.i.i153, align 8
  call void %85(ptr noundef nonnull align 8 dereferenceable(128) %84) #21
  br label %if.end160

lpad150:                                          ; preds = %invoke.cont147
  %86 = landingpad { ptr, i32 }
          cleanup
  br label %ehcleanup159

lpad153:                                          ; preds = %invoke.cont151
  %87 = landingpad { ptr, i32 }
          cleanup
  br label %ehcleanup158

lpad155:                                          ; preds = %invoke.cont154
  %88 = landingpad { ptr, i32 }
          cleanup
  call void @_ZN7testing8internal12AssertHelperD1Ev(ptr noundef nonnull align 8 dereferenceable(8) %ref.tmp148) #21
  br label %ehcleanup158

ehcleanup158:                                     ; preds = %lpad155, %lpad153
  %.pn17 = phi { ptr, i32 } [ %88, %lpad155 ], [ %87, %lpad153 ]
  call void @_ZNSt7__cxx1112basic_stringIcSt11char_traitsIcESaIcEED1Ev(ptr noundef nonnull align 8 dereferenceable(32) %ref.tmp149) #21
  br label %ehcleanup159

ehcleanup159:                                     ; preds = %ehcleanup158, %lpad150
  %.pn17.pn = phi { ptr, i32 } [ %.pn17, %ehcleanup158 ], [ %86, %lpad150 ]
  %89 = load ptr, ptr %ref.tmp146, align 8
  %cmp.not.i.i155 = icmp eq ptr %89, null
  br i1 %cmp.not.i.i155, label %_ZN7testing7MessageD2Ev.exit159, label %_ZNKSt14default_deleteINSt7__cxx1118basic_stringstreamIcSt11char_traitsIcESaIcEEEEclEPS5_.exit.i.i156

_ZNKSt14default_deleteINSt7__cxx1118basic_stringstreamIcSt11char_traitsIcESaIcEEEEclEPS5_.exit.i.i156: ; preds = %ehcleanup159
  %vtable.i.i.i157 = load ptr, ptr %89, align 8
  %vfn.i.i.i158 = getelementptr inbounds ptr, ptr %vtable.i.i.i157, i64 1
  %90 = load ptr, ptr %vfn.i.i.i158, align 8
  call void %90(ptr noundef nonnull align 8 dereferenceable(128) %89) #21
  br label %_ZN7testing7MessageD2Ev.exit159

_ZN7testing7MessageD2Ev.exit159:                  ; preds = %ehcleanup159, %_ZNKSt14default_deleteINSt7__cxx1118basic_stringstreamIcSt11char_traitsIcESaIcEEEEclEPS5_.exit.i.i156
  store ptr null, ptr %ref.tmp146, align 8
  br label %ehcleanup161

if.end160:                                        ; preds = %_ZNKSt14default_deleteINSt7__cxx1118basic_stringstreamIcSt11char_traitsIcESaIcEEEEclEPS5_.exit.i.i151, %invoke.cont156
  store ptr null, ptr %ref.tmp146, align 8
  %.pr300 = load ptr, ptr %message_.i148, align 8
  %cmp.not.i.i161 = icmp eq ptr %.pr300, null
  br i1 %cmp.not.i.i161, label %_ZN7testing15AssertionResultD2Ev.exit163, label %_ZNKSt14default_deleteINSt7__cxx1112basic_stringIcSt11char_traitsIcESaIcEEEEclEPS5_.exit.i.i162

_ZNKSt14default_deleteINSt7__cxx1112basic_stringIcSt11char_traitsIcESaIcEEEEclEPS5_.exit.i.i162: ; preds = %if.end160
  call void @_ZNSt7__cxx1112basic_stringIcSt11char_traitsIcESaIcEED1Ev(ptr noundef nonnull align 8 dereferenceable(32) %.pr300) #21
  call void @_ZdlPv(ptr noundef nonnull %.pr300) #22
  br label %_ZN7testing15AssertionResultD2Ev.exit163

_ZN7testing15AssertionResultD2Ev.exit163:         ; preds = %_ZN4absl18profiling_internal19PeriodicSamplerBase6SampleEv.exit147, %_ZN4absl18profiling_internal19PeriodicSamplerBase6SampleEv.exit147.thread, %if.end160, %_ZNKSt14default_deleteINSt7__cxx1112basic_stringIcSt11char_traitsIcESaIcEEEEclEPS5_.exit.i.i162
  %message_.i148299303 = phi ptr [ %message_.i148, %if.end160 ], [ %message_.i148, %_ZNKSt14default_deleteINSt7__cxx1112basic_stringIcSt11char_traitsIcESaIcEEEEclEPS5_.exit.i.i162 ], [ %message_.i148, %_ZN4absl18profiling_internal19PeriodicSamplerBase6SampleEv.exit147 ], [ %message_.i148297, %_ZN4absl18profiling_internal19PeriodicSamplerBase6SampleEv.exit147.thread ]
  store ptr null, ptr %message_.i148299303, align 8
  %91 = load i64, ptr %1, align 8
  %inc.i.i165 = add i64 %91, 1
  store i64 %inc.i.i165, ptr %1, align 8
  %cmp.i.i166 = icmp sgt i64 %inc.i.i165, -1
  br i1 %cmp.i.i166, label %_ZN4absl18profiling_internal19PeriodicSamplerBase6SampleEv.exit170, label %_ZN4absl18profiling_internal19PeriodicSamplerBase6SampleEv.exit170.thread

_ZN4absl18profiling_internal19PeriodicSamplerBase6SampleEv.exit170.thread: ; preds = %_ZN7testing15AssertionResultD2Ev.exit163
  store i8 0, ptr %gtest_ar_162, align 8
  %message_.i171306 = getelementptr inbounds %"class.testing::AssertionResult", ptr %gtest_ar_162, i64 0, i32 1
  store ptr null, ptr %message_.i171306, align 8
  br label %if.else171

_ZN4absl18profiling_internal19PeriodicSamplerBase6SampleEv.exit170: ; preds = %_ZN7testing15AssertionResultD2Ev.exit163
  %call2.i169 = call noundef zeroext i1 @_ZN4absl18profiling_internal19PeriodicSamplerBase19SubtleConfirmSampleEv(ptr noundef nonnull align 8 dereferenceable(40) %sampler) #21
  %frombool165 = zext i1 %call2.i169 to i8
  store i8 %frombool165, ptr %gtest_ar_162, align 8
  %message_.i171 = getelementptr inbounds %"class.testing::AssertionResult", ptr %gtest_ar_162, i64 0, i32 1
  store ptr null, ptr %message_.i171, align 8
  br i1 %call2.i169, label %_ZN7testing15AssertionResultD2Ev.exit186, label %if.else171

ehcleanup161:                                     ; preds = %_ZN7testing7MessageD2Ev.exit159, %lpad141
  %.pn17.pn.pn = phi { ptr, i32 } [ %.pn17.pn, %_ZN7testing7MessageD2Ev.exit159 ], [ %83, %lpad141 ]
  call void @_ZN7testing15AssertionResultD2Ev(ptr noundef nonnull align 8 dereferenceable(16) %gtest_ar_135) #21
  br label %ehcleanup269

lpad167:                                          ; preds = %if.else171
  %92 = landingpad { ptr, i32 }
          cleanup
  br label %ehcleanup187

if.else171:                                       ; preds = %_ZN4absl18profiling_internal19PeriodicSamplerBase6SampleEv.exit170.thread, %_ZN4absl18profiling_internal19PeriodicSamplerBase6SampleEv.exit170
  %message_.i171308 = phi ptr [ %message_.i171306, %_ZN4absl18profiling_internal19PeriodicSamplerBase6SampleEv.exit170.thread ], [ %message_.i171, %_ZN4absl18profiling_internal19PeriodicSamplerBase6SampleEv.exit170 ]
  invoke void @_ZN7testing7MessageC1Ev(ptr noundef nonnull align 8 dereferenceable(8) %ref.tmp172)
          to label %invoke.cont173 unwind label %lpad167

invoke.cont173:                                   ; preds = %if.else171
  invoke void @_ZN7testing8internal30GetBoolAssertionFailureMessageB5cxx11ERKNS_15AssertionResultEPKcS5_S5_(ptr nonnull sret(%"class.std::__cxx11::basic_string") align 8 %ref.tmp175, ptr noundef nonnull align 8 dereferenceable(16) %gtest_ar_162, ptr noundef nonnull @.str.26, ptr noundef nonnull @.str.28, ptr noundef nonnull @.str.27)
          to label %invoke.cont177 unwind label %lpad176

invoke.cont177:                                   ; preds = %invoke.cont173
  %call178 = call noundef ptr @_ZNKSt7__cxx1112basic_stringIcSt11char_traitsIcESaIcEE5c_strEv(ptr noundef nonnull align 8 dereferenceable(32) %ref.tmp175) #21
  invoke void @_ZN7testing8internal12AssertHelperC1ENS_14TestPartResult4TypeEPKciS5_(ptr noundef nonnull align 8 dereferenceable(8) %ref.tmp174, i32 noundef 1, ptr noundef nonnull @.str.3, i32 noundef 55, ptr noundef %call178)
          to label %invoke.cont180 unwind label %lpad179

invoke.cont180:                                   ; preds = %invoke.cont177
  invoke void @_ZNK7testing8internal12AssertHelperaSERKNS_7MessageE(ptr noundef nonnull align 8 dereferenceable(8) %ref.tmp174, ptr noundef nonnull align 8 dereferenceable(8) %ref.tmp172)
          to label %invoke.cont182 unwind label %lpad181

invoke.cont182:                                   ; preds = %invoke.cont180
  call void @_ZN7testing8internal12AssertHelperD1Ev(ptr noundef nonnull align 8 dereferenceable(8) %ref.tmp174) #21
  call void @_ZNSt7__cxx1112basic_stringIcSt11char_traitsIcESaIcEED1Ev(ptr noundef nonnull align 8 dereferenceable(32) %ref.tmp175) #21
  %93 = load ptr, ptr %ref.tmp172, align 8
  %cmp.not.i.i173 = icmp eq ptr %93, null
  br i1 %cmp.not.i.i173, label %if.end186, label %_ZNKSt14default_deleteINSt7__cxx1118basic_stringstreamIcSt11char_traitsIcESaIcEEEEclEPS5_.exit.i.i174

_ZNKSt14default_deleteINSt7__cxx1118basic_stringstreamIcSt11char_traitsIcESaIcEEEEclEPS5_.exit.i.i174: ; preds = %invoke.cont182
  %vtable.i.i.i175 = load ptr, ptr %93, align 8
  %vfn.i.i.i176 = getelementptr inbounds ptr, ptr %vtable.i.i.i175, i64 1
  %94 = load ptr, ptr %vfn.i.i.i176, align 8
  call void %94(ptr noundef nonnull align 8 dereferenceable(128) %93) #21
  br label %if.end186

lpad176:                                          ; preds = %invoke.cont173
  %95 = landingpad { ptr, i32 }
          cleanup
  br label %ehcleanup185

lpad179:                                          ; preds = %invoke.cont177
  %96 = landingpad { ptr, i32 }
          cleanup
  br label %ehcleanup184

lpad181:                                          ; preds = %invoke.cont180
  %97 = landingpad { ptr, i32 }
          cleanup
  call void @_ZN7testing8internal12AssertHelperD1Ev(ptr noundef nonnull align 8 dereferenceable(8) %ref.tmp174) #21
  br label %ehcleanup184

ehcleanup184:                                     ; preds = %lpad181, %lpad179
  %.pn21 = phi { ptr, i32 } [ %97, %lpad181 ], [ %96, %lpad179 ]
  call void @_ZNSt7__cxx1112basic_stringIcSt11char_traitsIcESaIcEED1Ev(ptr noundef nonnull align 8 dereferenceable(32) %ref.tmp175) #21
  br label %ehcleanup185

ehcleanup185:                                     ; preds = %ehcleanup184, %lpad176
  %.pn21.pn = phi { ptr, i32 } [ %.pn21, %ehcleanup184 ], [ %95, %lpad176 ]
  %98 = load ptr, ptr %ref.tmp172, align 8
  %cmp.not.i.i178 = icmp eq ptr %98, null
  br i1 %cmp.not.i.i178, label %_ZN7testing7MessageD2Ev.exit182, label %_ZNKSt14default_deleteINSt7__cxx1118basic_stringstreamIcSt11char_traitsIcESaIcEEEEclEPS5_.exit.i.i179

_ZNKSt14default_deleteINSt7__cxx1118basic_stringstreamIcSt11char_traitsIcESaIcEEEEclEPS5_.exit.i.i179: ; preds = %ehcleanup185
  %vtable.i.i.i180 = load ptr, ptr %98, align 8
  %vfn.i.i.i181 = getelementptr inbounds ptr, ptr %vtable.i.i.i180, i64 1
  %99 = load ptr, ptr %vfn.i.i.i181, align 8
  call void %99(ptr noundef nonnull align 8 dereferenceable(128) %98) #21
  br label %_ZN7testing7MessageD2Ev.exit182

_ZN7testing7MessageD2Ev.exit182:                  ; preds = %ehcleanup185, %_ZNKSt14default_deleteINSt7__cxx1118basic_stringstreamIcSt11char_traitsIcESaIcEEEEclEPS5_.exit.i.i179
  store ptr null, ptr %ref.tmp172, align 8
  br label %ehcleanup187

if.end186:                                        ; preds = %_ZNKSt14default_deleteINSt7__cxx1118basic_stringstreamIcSt11char_traitsIcESaIcEEEEclEPS5_.exit.i.i174, %invoke.cont182
  store ptr null, ptr %ref.tmp172, align 8
  %.pr310 = load ptr, ptr %message_.i171308, align 8
  %cmp.not.i.i184 = icmp eq ptr %.pr310, null
  br i1 %cmp.not.i.i184, label %_ZN7testing15AssertionResultD2Ev.exit186, label %_ZNKSt14default_deleteINSt7__cxx1112basic_stringIcSt11char_traitsIcESaIcEEEEclEPS5_.exit.i.i185

_ZNKSt14default_deleteINSt7__cxx1112basic_stringIcSt11char_traitsIcESaIcEEEEclEPS5_.exit.i.i185: ; preds = %if.end186
  call void @_ZNSt7__cxx1112basic_stringIcSt11char_traitsIcESaIcEED1Ev(ptr noundef nonnull align 8 dereferenceable(32) %.pr310) #21
  call void @_ZdlPv(ptr noundef nonnull %.pr310) #22
  br label %_ZN7testing15AssertionResultD2Ev.exit186

_ZN7testing15AssertionResultD2Ev.exit186:         ; preds = %_ZN4absl18profiling_internal19PeriodicSamplerBase6SampleEv.exit170, %if.end186, %_ZNKSt14default_deleteINSt7__cxx1112basic_stringIcSt11char_traitsIcESaIcEEEEclEPS5_.exit.i.i185
  %message_.i171309313 = phi ptr [ %message_.i171308, %if.end186 ], [ %message_.i171308, %_ZNKSt14default_deleteINSt7__cxx1112basic_stringIcSt11char_traitsIcESaIcEEEEclEPS5_.exit.i.i185 ], [ %message_.i171, %_ZN4absl18profiling_internal19PeriodicSamplerBase6SampleEv.exit170 ]
  store ptr null, ptr %message_.i171309313, align 8
  %100 = load i64, ptr %1, align 8
  %inc.i.i188 = add i64 %100, 1
  store i64 %inc.i.i188, ptr %1, align 8
  %cmp.i.i189 = icmp sgt i64 %inc.i.i188, -1
  br i1 %cmp.i.i189, label %_ZN4absl18profiling_internal19PeriodicSamplerBase6SampleEv.exit193, label %_ZN4absl18profiling_internal19PeriodicSamplerBase6SampleEv.exit193.thread

_ZN4absl18profiling_internal19PeriodicSamplerBase6SampleEv.exit193.thread: ; preds = %_ZN7testing15AssertionResultD2Ev.exit186
  store i8 1, ptr %gtest_ar_188, align 8
  %message_.i194317 = getelementptr inbounds %"class.testing::AssertionResult", ptr %gtest_ar_188, i64 0, i32 1
  store ptr null, ptr %message_.i194317, align 8
  br label %_ZN7testing15AssertionResultD2Ev.exit209

_ZN4absl18profiling_internal19PeriodicSamplerBase6SampleEv.exit193: ; preds = %_ZN7testing15AssertionResultD2Ev.exit186
  %call2.i192 = call noundef zeroext i1 @_ZN4absl18profiling_internal19PeriodicSamplerBase19SubtleConfirmSampleEv(ptr noundef nonnull align 8 dereferenceable(40) %sampler) #21
  %lnot191 = xor i1 %call2.i192, true
  %frombool192 = zext i1 %lnot191 to i8
  store i8 %frombool192, ptr %gtest_ar_188, align 8
  %message_.i194 = getelementptr inbounds %"class.testing::AssertionResult", ptr %gtest_ar_188, i64 0, i32 1
  store ptr null, ptr %message_.i194, align 8
  br i1 %call2.i192, label %if.else198, label %_ZN7testing15AssertionResultD2Ev.exit209

ehcleanup187:                                     ; preds = %_ZN7testing7MessageD2Ev.exit182, %lpad167
  %.pn21.pn.pn = phi { ptr, i32 } [ %.pn21.pn, %_ZN7testing7MessageD2Ev.exit182 ], [ %92, %lpad167 ]
  call void @_ZN7testing15AssertionResultD2Ev(ptr noundef nonnull align 8 dereferenceable(16) %gtest_ar_162) #21
  br label %ehcleanup269

lpad194:                                          ; preds = %if.else198
  %101 = landingpad { ptr, i32 }
          cleanup
  br label %ehcleanup214

if.else198:                                       ; preds = %_ZN4absl18profiling_internal19PeriodicSamplerBase6SampleEv.exit193
  invoke void @_ZN7testing7MessageC1Ev(ptr noundef nonnull align 8 dereferenceable(8) %ref.tmp199)
          to label %invoke.cont200 unwind label %lpad194

invoke.cont200:                                   ; preds = %if.else198
  invoke void @_ZN7testing8internal30GetBoolAssertionFailureMessageB5cxx11ERKNS_15AssertionResultEPKcS5_S5_(ptr nonnull sret(%"class.std::__cxx11::basic_string") align 8 %ref.tmp202, ptr noundef nonnull align 8 dereferenceable(16) %gtest_ar_188, ptr noundef nonnull @.str.26, ptr noundef nonnull @.str.27, ptr noundef nonnull @.str.28)
          to label %invoke.cont204 unwind label %lpad203

invoke.cont204:                                   ; preds = %invoke.cont200
  %call205 = call noundef ptr @_ZNKSt7__cxx1112basic_stringIcSt11char_traitsIcESaIcEE5c_strEv(ptr noundef nonnull align 8 dereferenceable(32) %ref.tmp202) #21
  invoke void @_ZN7testing8internal12AssertHelperC1ENS_14TestPartResult4TypeEPKciS5_(ptr noundef nonnull align 8 dereferenceable(8) %ref.tmp201, i32 noundef 1, ptr noundef nonnull @.str.3, i32 noundef 57, ptr noundef %call205)
          to label %invoke.cont207 unwind label %lpad206

invoke.cont207:                                   ; preds = %invoke.cont204
  invoke void @_ZNK7testing8internal12AssertHelperaSERKNS_7MessageE(ptr noundef nonnull align 8 dereferenceable(8) %ref.tmp201, ptr noundef nonnull align 8 dereferenceable(8) %ref.tmp199)
          to label %invoke.cont209 unwind label %lpad208

invoke.cont209:                                   ; preds = %invoke.cont207
  call void @_ZN7testing8internal12AssertHelperD1Ev(ptr noundef nonnull align 8 dereferenceable(8) %ref.tmp201) #21
  call void @_ZNSt7__cxx1112basic_stringIcSt11char_traitsIcESaIcEED1Ev(ptr noundef nonnull align 8 dereferenceable(32) %ref.tmp202) #21
  %102 = load ptr, ptr %ref.tmp199, align 8
  %cmp.not.i.i196 = icmp eq ptr %102, null
  br i1 %cmp.not.i.i196, label %if.end213, label %_ZNKSt14default_deleteINSt7__cxx1118basic_stringstreamIcSt11char_traitsIcESaIcEEEEclEPS5_.exit.i.i197

_ZNKSt14default_deleteINSt7__cxx1118basic_stringstreamIcSt11char_traitsIcESaIcEEEEclEPS5_.exit.i.i197: ; preds = %invoke.cont209
  %vtable.i.i.i198 = load ptr, ptr %102, align 8
  %vfn.i.i.i199 = getelementptr inbounds ptr, ptr %vtable.i.i.i198, i64 1
  %103 = load ptr, ptr %vfn.i.i.i199, align 8
  call void %103(ptr noundef nonnull align 8 dereferenceable(128) %102) #21
  br label %if.end213

lpad203:                                          ; preds = %invoke.cont200
  %104 = landingpad { ptr, i32 }
          cleanup
  br label %ehcleanup212

lpad206:                                          ; preds = %invoke.cont204
  %105 = landingpad { ptr, i32 }
          cleanup
  br label %ehcleanup211

lpad208:                                          ; preds = %invoke.cont207
  %106 = landingpad { ptr, i32 }
          cleanup
  call void @_ZN7testing8internal12AssertHelperD1Ev(ptr noundef nonnull align 8 dereferenceable(8) %ref.tmp201) #21
  br label %ehcleanup211

ehcleanup211:                                     ; preds = %lpad208, %lpad206
  %.pn25 = phi { ptr, i32 } [ %106, %lpad208 ], [ %105, %lpad206 ]
  call void @_ZNSt7__cxx1112basic_stringIcSt11char_traitsIcESaIcEED1Ev(ptr noundef nonnull align 8 dereferenceable(32) %ref.tmp202) #21
  br label %ehcleanup212

ehcleanup212:                                     ; preds = %ehcleanup211, %lpad203
  %.pn25.pn = phi { ptr, i32 } [ %.pn25, %ehcleanup211 ], [ %104, %lpad203 ]
  %107 = load ptr, ptr %ref.tmp199, align 8
  %cmp.not.i.i201 = icmp eq ptr %107, null
  br i1 %cmp.not.i.i201, label %_ZN7testing7MessageD2Ev.exit205, label %_ZNKSt14default_deleteINSt7__cxx1118basic_stringstreamIcSt11char_traitsIcESaIcEEEEclEPS5_.exit.i.i202

_ZNKSt14default_deleteINSt7__cxx1118basic_stringstreamIcSt11char_traitsIcESaIcEEEEclEPS5_.exit.i.i202: ; preds = %ehcleanup212
  %vtable.i.i.i203 = load ptr, ptr %107, align 8
  %vfn.i.i.i204 = getelementptr inbounds ptr, ptr %vtable.i.i.i203, i64 1
  %108 = load ptr, ptr %vfn.i.i.i204, align 8
  call void %108(ptr noundef nonnull align 8 dereferenceable(128) %107) #21
  br label %_ZN7testing7MessageD2Ev.exit205

_ZN7testing7MessageD2Ev.exit205:                  ; preds = %ehcleanup212, %_ZNKSt14default_deleteINSt7__cxx1118basic_stringstreamIcSt11char_traitsIcESaIcEEEEclEPS5_.exit.i.i202
  store ptr null, ptr %ref.tmp199, align 8
  br label %ehcleanup214

if.end213:                                        ; preds = %_ZNKSt14default_deleteINSt7__cxx1118basic_stringstreamIcSt11char_traitsIcESaIcEEEEclEPS5_.exit.i.i197, %invoke.cont209
  store ptr null, ptr %ref.tmp199, align 8
  %.pr320 = load ptr, ptr %message_.i194, align 8
  %cmp.not.i.i207 = icmp eq ptr %.pr320, null
  br i1 %cmp.not.i.i207, label %_ZN7testing15AssertionResultD2Ev.exit209, label %_ZNKSt14default_deleteINSt7__cxx1112basic_stringIcSt11char_traitsIcESaIcEEEEclEPS5_.exit.i.i208

_ZNKSt14default_deleteINSt7__cxx1112basic_stringIcSt11char_traitsIcESaIcEEEEclEPS5_.exit.i.i208: ; preds = %if.end213
  call void @_ZNSt7__cxx1112basic_stringIcSt11char_traitsIcESaIcEED1Ev(ptr noundef nonnull align 8 dereferenceable(32) %.pr320) #21
  call void @_ZdlPv(ptr noundef nonnull %.pr320) #22
  br label %_ZN7testing15AssertionResultD2Ev.exit209

_ZN7testing15AssertionResultD2Ev.exit209:         ; preds = %_ZN4absl18profiling_internal19PeriodicSamplerBase6SampleEv.exit193, %_ZN4absl18profiling_internal19PeriodicSamplerBase6SampleEv.exit193.thread, %if.end213, %_ZNKSt14default_deleteINSt7__cxx1112basic_stringIcSt11char_traitsIcESaIcEEEEclEPS5_.exit.i.i208
  %message_.i194319323 = phi ptr [ %message_.i194, %if.end213 ], [ %message_.i194, %_ZNKSt14default_deleteINSt7__cxx1112basic_stringIcSt11char_traitsIcESaIcEEEEclEPS5_.exit.i.i208 ], [ %message_.i194, %_ZN4absl18profiling_internal19PeriodicSamplerBase6SampleEv.exit193 ], [ %message_.i194317, %_ZN4absl18profiling_internal19PeriodicSamplerBase6SampleEv.exit193.thread ]
  store ptr null, ptr %message_.i194319323, align 8
  %109 = load i64, ptr %1, align 8
  %inc.i.i211 = add i64 %109, 1
  store i64 %inc.i.i211, ptr %1, align 8
  %cmp.i.i212 = icmp sgt i64 %inc.i.i211, -1
  br i1 %cmp.i.i212, label %_ZN4absl18profiling_internal19PeriodicSamplerBase6SampleEv.exit216, label %_ZN4absl18profiling_internal19PeriodicSamplerBase6SampleEv.exit216.thread

_ZN4absl18profiling_internal19PeriodicSamplerBase6SampleEv.exit216.thread: ; preds = %_ZN7testing15AssertionResultD2Ev.exit209
  store i8 1, ptr %gtest_ar_215, align 8
  %message_.i217327 = getelementptr inbounds %"class.testing::AssertionResult", ptr %gtest_ar_215, i64 0, i32 1
  store ptr null, ptr %message_.i217327, align 8
  br label %_ZN7testing15AssertionResultD2Ev.exit232

_ZN4absl18profiling_internal19PeriodicSamplerBase6SampleEv.exit216: ; preds = %_ZN7testing15AssertionResultD2Ev.exit209
  %call2.i215 = call noundef zeroext i1 @_ZN4absl18profiling_internal19PeriodicSamplerBase19SubtleConfirmSampleEv(ptr noundef nonnull align 8 dereferenceable(40) %sampler) #21
  %lnot218 = xor i1 %call2.i215, true
  %frombool219 = zext i1 %lnot218 to i8
  store i8 %frombool219, ptr %gtest_ar_215, align 8
  %message_.i217 = getelementptr inbounds %"class.testing::AssertionResult", ptr %gtest_ar_215, i64 0, i32 1
  store ptr null, ptr %message_.i217, align 8
  br i1 %call2.i215, label %if.else225, label %_ZN7testing15AssertionResultD2Ev.exit232

ehcleanup214:                                     ; preds = %_ZN7testing7MessageD2Ev.exit205, %lpad194
  %.pn25.pn.pn = phi { ptr, i32 } [ %.pn25.pn, %_ZN7testing7MessageD2Ev.exit205 ], [ %101, %lpad194 ]
  call void @_ZN7testing15AssertionResultD2Ev(ptr noundef nonnull align 8 dereferenceable(16) %gtest_ar_188) #21
  br label %ehcleanup269

lpad221:                                          ; preds = %if.else225
  %110 = landingpad { ptr, i32 }
          cleanup
  br label %ehcleanup241

if.else225:                                       ; preds = %_ZN4absl18profiling_internal19PeriodicSamplerBase6SampleEv.exit216
  invoke void @_ZN7testing7MessageC1Ev(ptr noundef nonnull align 8 dereferenceable(8) %ref.tmp226)
          to label %invoke.cont227 unwind label %lpad221

invoke.cont227:                                   ; preds = %if.else225
  invoke void @_ZN7testing8internal30GetBoolAssertionFailureMessageB5cxx11ERKNS_15AssertionResultEPKcS5_S5_(ptr nonnull sret(%"class.std::__cxx11::basic_string") align 8 %ref.tmp229, ptr noundef nonnull align 8 dereferenceable(16) %gtest_ar_215, ptr noundef nonnull @.str.26, ptr noundef nonnull @.str.27, ptr noundef nonnull @.str.28)
          to label %invoke.cont231 unwind label %lpad230

invoke.cont231:                                   ; preds = %invoke.cont227
  %call232 = call noundef ptr @_ZNKSt7__cxx1112basic_stringIcSt11char_traitsIcESaIcEE5c_strEv(ptr noundef nonnull align 8 dereferenceable(32) %ref.tmp229) #21
  invoke void @_ZN7testing8internal12AssertHelperC1ENS_14TestPartResult4TypeEPKciS5_(ptr noundef nonnull align 8 dereferenceable(8) %ref.tmp228, i32 noundef 1, ptr noundef nonnull @.str.3, i32 noundef 58, ptr noundef %call232)
          to label %invoke.cont234 unwind label %lpad233

invoke.cont234:                                   ; preds = %invoke.cont231
  invoke void @_ZNK7testing8internal12AssertHelperaSERKNS_7MessageE(ptr noundef nonnull align 8 dereferenceable(8) %ref.tmp228, ptr noundef nonnull align 8 dereferenceable(8) %ref.tmp226)
          to label %invoke.cont236 unwind label %lpad235

invoke.cont236:                                   ; preds = %invoke.cont234
  call void @_ZN7testing8internal12AssertHelperD1Ev(ptr noundef nonnull align 8 dereferenceable(8) %ref.tmp228) #21
  call void @_ZNSt7__cxx1112basic_stringIcSt11char_traitsIcESaIcEED1Ev(ptr noundef nonnull align 8 dereferenceable(32) %ref.tmp229) #21
  %111 = load ptr, ptr %ref.tmp226, align 8
  %cmp.not.i.i219 = icmp eq ptr %111, null
  br i1 %cmp.not.i.i219, label %if.end240, label %_ZNKSt14default_deleteINSt7__cxx1118basic_stringstreamIcSt11char_traitsIcESaIcEEEEclEPS5_.exit.i.i220

_ZNKSt14default_deleteINSt7__cxx1118basic_stringstreamIcSt11char_traitsIcESaIcEEEEclEPS5_.exit.i.i220: ; preds = %invoke.cont236
  %vtable.i.i.i221 = load ptr, ptr %111, align 8
  %vfn.i.i.i222 = getelementptr inbounds ptr, ptr %vtable.i.i.i221, i64 1
  %112 = load ptr, ptr %vfn.i.i.i222, align 8
  call void %112(ptr noundef nonnull align 8 dereferenceable(128) %111) #21
  br label %if.end240

lpad230:                                          ; preds = %invoke.cont227
  %113 = landingpad { ptr, i32 }
          cleanup
  br label %ehcleanup239

lpad233:                                          ; preds = %invoke.cont231
  %114 = landingpad { ptr, i32 }
          cleanup
  br label %ehcleanup238

lpad235:                                          ; preds = %invoke.cont234
  %115 = landingpad { ptr, i32 }
          cleanup
  call void @_ZN7testing8internal12AssertHelperD1Ev(ptr noundef nonnull align 8 dereferenceable(8) %ref.tmp228) #21
  br label %ehcleanup238

ehcleanup238:                                     ; preds = %lpad235, %lpad233
  %.pn29 = phi { ptr, i32 } [ %115, %lpad235 ], [ %114, %lpad233 ]
  call void @_ZNSt7__cxx1112basic_stringIcSt11char_traitsIcESaIcEED1Ev(ptr noundef nonnull align 8 dereferenceable(32) %ref.tmp229) #21
  br label %ehcleanup239

ehcleanup239:                                     ; preds = %ehcleanup238, %lpad230
  %.pn29.pn = phi { ptr, i32 } [ %.pn29, %ehcleanup238 ], [ %113, %lpad230 ]
  %116 = load ptr, ptr %ref.tmp226, align 8
  %cmp.not.i.i224 = icmp eq ptr %116, null
  br i1 %cmp.not.i.i224, label %_ZN7testing7MessageD2Ev.exit228, label %_ZNKSt14default_deleteINSt7__cxx1118basic_stringstreamIcSt11char_traitsIcESaIcEEEEclEPS5_.exit.i.i225

_ZNKSt14default_deleteINSt7__cxx1118basic_stringstreamIcSt11char_traitsIcESaIcEEEEclEPS5_.exit.i.i225: ; preds = %ehcleanup239
  %vtable.i.i.i226 = load ptr, ptr %116, align 8
  %vfn.i.i.i227 = getelementptr inbounds ptr, ptr %vtable.i.i.i226, i64 1
  %117 = load ptr, ptr %vfn.i.i.i227, align 8
  call void %117(ptr noundef nonnull align 8 dereferenceable(128) %116) #21
  br label %_ZN7testing7MessageD2Ev.exit228

_ZN7testing7MessageD2Ev.exit228:                  ; preds = %ehcleanup239, %_ZNKSt14default_deleteINSt7__cxx1118basic_stringstreamIcSt11char_traitsIcESaIcEEEEclEPS5_.exit.i.i225
  store ptr null, ptr %ref.tmp226, align 8
  br label %ehcleanup241

if.end240:                                        ; preds = %_ZNKSt14default_deleteINSt7__cxx1118basic_stringstreamIcSt11char_traitsIcESaIcEEEEclEPS5_.exit.i.i220, %invoke.cont236
  store ptr null, ptr %ref.tmp226, align 8
  %.pr330 = load ptr, ptr %message_.i217, align 8
  %cmp.not.i.i230 = icmp eq ptr %.pr330, null
  br i1 %cmp.not.i.i230, label %_ZN7testing15AssertionResultD2Ev.exit232, label %_ZNKSt14default_deleteINSt7__cxx1112basic_stringIcSt11char_traitsIcESaIcEEEEclEPS5_.exit.i.i231

_ZNKSt14default_deleteINSt7__cxx1112basic_stringIcSt11char_traitsIcESaIcEEEEclEPS5_.exit.i.i231: ; preds = %if.end240
  call void @_ZNSt7__cxx1112basic_stringIcSt11char_traitsIcESaIcEED1Ev(ptr noundef nonnull align 8 dereferenceable(32) %.pr330) #21
  call void @_ZdlPv(ptr noundef nonnull %.pr330) #22
  br label %_ZN7testing15AssertionResultD2Ev.exit232

_ZN7testing15AssertionResultD2Ev.exit232:         ; preds = %_ZN4absl18profiling_internal19PeriodicSamplerBase6SampleEv.exit216, %_ZN4absl18profiling_internal19PeriodicSamplerBase6SampleEv.exit216.thread, %if.end240, %_ZNKSt14default_deleteINSt7__cxx1112basic_stringIcSt11char_traitsIcESaIcEEEEclEPS5_.exit.i.i231
  %message_.i217329333 = phi ptr [ %message_.i217, %if.end240 ], [ %message_.i217, %_ZNKSt14default_deleteINSt7__cxx1112basic_stringIcSt11char_traitsIcESaIcEEEEclEPS5_.exit.i.i231 ], [ %message_.i217, %_ZN4absl18profiling_internal19PeriodicSamplerBase6SampleEv.exit216 ], [ %message_.i217327, %_ZN4absl18profiling_internal19PeriodicSamplerBase6SampleEv.exit216.thread ]
  store ptr null, ptr %message_.i217329333, align 8
  %118 = load i64, ptr %1, align 8
  %inc.i.i234 = add i64 %118, 1
  store i64 %inc.i.i234, ptr %1, align 8
  %cmp.i.i235 = icmp sgt i64 %inc.i.i234, -1
  br i1 %cmp.i.i235, label %_ZN4absl18profiling_internal19PeriodicSamplerBase6SampleEv.exit239, label %_ZN4absl18profiling_internal19PeriodicSamplerBase6SampleEv.exit239.thread

_ZN4absl18profiling_internal19PeriodicSamplerBase6SampleEv.exit239.thread: ; preds = %_ZN7testing15AssertionResultD2Ev.exit232
  store i8 1, ptr %gtest_ar_242, align 8
  %message_.i240337 = getelementptr inbounds %"class.testing::AssertionResult", ptr %gtest_ar_242, i64 0, i32 1
  store ptr null, ptr %message_.i240337, align 8
  br label %_ZN7testing15AssertionResultD2Ev.exit255

_ZN4absl18profiling_internal19PeriodicSamplerBase6SampleEv.exit239: ; preds = %_ZN7testing15AssertionResultD2Ev.exit232
  %call2.i238 = call noundef zeroext i1 @_ZN4absl18profiling_internal19PeriodicSamplerBase19SubtleConfirmSampleEv(ptr noundef nonnull align 8 dereferenceable(40) %sampler) #21
  %lnot245 = xor i1 %call2.i238, true
  %frombool246 = zext i1 %lnot245 to i8
  store i8 %frombool246, ptr %gtest_ar_242, align 8
  %message_.i240 = getelementptr inbounds %"class.testing::AssertionResult", ptr %gtest_ar_242, i64 0, i32 1
  store ptr null, ptr %message_.i240, align 8
  br i1 %call2.i238, label %if.else252, label %_ZN7testing15AssertionResultD2Ev.exit255

ehcleanup241:                                     ; preds = %_ZN7testing7MessageD2Ev.exit228, %lpad221
  %.pn29.pn.pn = phi { ptr, i32 } [ %.pn29.pn, %_ZN7testing7MessageD2Ev.exit228 ], [ %110, %lpad221 ]
  call void @_ZN7testing15AssertionResultD2Ev(ptr noundef nonnull align 8 dereferenceable(16) %gtest_ar_215) #21
  br label %ehcleanup269

lpad248:                                          ; preds = %if.else252
  %119 = landingpad { ptr, i32 }
          cleanup
  br label %ehcleanup268

if.else252:                                       ; preds = %_ZN4absl18profiling_internal19PeriodicSamplerBase6SampleEv.exit239
  invoke void @_ZN7testing7MessageC1Ev(ptr noundef nonnull align 8 dereferenceable(8) %ref.tmp253)
          to label %invoke.cont254 unwind label %lpad248

invoke.cont254:                                   ; preds = %if.else252
  invoke void @_ZN7testing8internal30GetBoolAssertionFailureMessageB5cxx11ERKNS_15AssertionResultEPKcS5_S5_(ptr nonnull sret(%"class.std::__cxx11::basic_string") align 8 %ref.tmp256, ptr noundef nonnull align 8 dereferenceable(16) %gtest_ar_242, ptr noundef nonnull @.str.26, ptr noundef nonnull @.str.27, ptr noundef nonnull @.str.28)
          to label %invoke.cont258 unwind label %lpad257

invoke.cont258:                                   ; preds = %invoke.cont254
  %call259 = call noundef ptr @_ZNKSt7__cxx1112basic_stringIcSt11char_traitsIcESaIcEE5c_strEv(ptr noundef nonnull align 8 dereferenceable(32) %ref.tmp256) #21
  invoke void @_ZN7testing8internal12AssertHelperC1ENS_14TestPartResult4TypeEPKciS5_(ptr noundef nonnull align 8 dereferenceable(8) %ref.tmp255, i32 noundef 1, ptr noundef nonnull @.str.3, i32 noundef 59, ptr noundef %call259)
          to label %invoke.cont261 unwind label %lpad260

invoke.cont261:                                   ; preds = %invoke.cont258
  invoke void @_ZNK7testing8internal12AssertHelperaSERKNS_7MessageE(ptr noundef nonnull align 8 dereferenceable(8) %ref.tmp255, ptr noundef nonnull align 8 dereferenceable(8) %ref.tmp253)
          to label %invoke.cont263 unwind label %lpad262

invoke.cont263:                                   ; preds = %invoke.cont261
  call void @_ZN7testing8internal12AssertHelperD1Ev(ptr noundef nonnull align 8 dereferenceable(8) %ref.tmp255) #21
  call void @_ZNSt7__cxx1112basic_stringIcSt11char_traitsIcESaIcEED1Ev(ptr noundef nonnull align 8 dereferenceable(32) %ref.tmp256) #21
  %120 = load ptr, ptr %ref.tmp253, align 8
  %cmp.not.i.i242 = icmp eq ptr %120, null
  br i1 %cmp.not.i.i242, label %if.end267, label %_ZNKSt14default_deleteINSt7__cxx1118basic_stringstreamIcSt11char_traitsIcESaIcEEEEclEPS5_.exit.i.i243

_ZNKSt14default_deleteINSt7__cxx1118basic_stringstreamIcSt11char_traitsIcESaIcEEEEclEPS5_.exit.i.i243: ; preds = %invoke.cont263
  %vtable.i.i.i244 = load ptr, ptr %120, align 8
  %vfn.i.i.i245 = getelementptr inbounds ptr, ptr %vtable.i.i.i244, i64 1
  %121 = load ptr, ptr %vfn.i.i.i245, align 8
  call void %121(ptr noundef nonnull align 8 dereferenceable(128) %120) #21
  br label %if.end267

lpad257:                                          ; preds = %invoke.cont254
  %122 = landingpad { ptr, i32 }
          cleanup
  br label %ehcleanup266

lpad260:                                          ; preds = %invoke.cont258
  %123 = landingpad { ptr, i32 }
          cleanup
  br label %ehcleanup265

lpad262:                                          ; preds = %invoke.cont261
  %124 = landingpad { ptr, i32 }
          cleanup
  call void @_ZN7testing8internal12AssertHelperD1Ev(ptr noundef nonnull align 8 dereferenceable(8) %ref.tmp255) #21
  br label %ehcleanup265

ehcleanup265:                                     ; preds = %lpad262, %lpad260
  %.pn33 = phi { ptr, i32 } [ %124, %lpad262 ], [ %123, %lpad260 ]
  call void @_ZNSt7__cxx1112basic_stringIcSt11char_traitsIcESaIcEED1Ev(ptr noundef nonnull align 8 dereferenceable(32) %ref.tmp256) #21
  br label %ehcleanup266

ehcleanup266:                                     ; preds = %ehcleanup265, %lpad257
  %.pn33.pn = phi { ptr, i32 } [ %.pn33, %ehcleanup265 ], [ %122, %lpad257 ]
  %125 = load ptr, ptr %ref.tmp253, align 8
  %cmp.not.i.i247 = icmp eq ptr %125, null
  br i1 %cmp.not.i.i247, label %_ZN7testing7MessageD2Ev.exit251, label %_ZNKSt14default_deleteINSt7__cxx1118basic_stringstreamIcSt11char_traitsIcESaIcEEEEclEPS5_.exit.i.i248

_ZNKSt14default_deleteINSt7__cxx1118basic_stringstreamIcSt11char_traitsIcESaIcEEEEclEPS5_.exit.i.i248: ; preds = %ehcleanup266
  %vtable.i.i.i249 = load ptr, ptr %125, align 8
  %vfn.i.i.i250 = getelementptr inbounds ptr, ptr %vtable.i.i.i249, i64 1
  %126 = load ptr, ptr %vfn.i.i.i250, align 8
  call void %126(ptr noundef nonnull align 8 dereferenceable(128) %125) #21
  br label %_ZN7testing7MessageD2Ev.exit251

_ZN7testing7MessageD2Ev.exit251:                  ; preds = %ehcleanup266, %_ZNKSt14default_deleteINSt7__cxx1118basic_stringstreamIcSt11char_traitsIcESaIcEEEEclEPS5_.exit.i.i248
  store ptr null, ptr %ref.tmp253, align 8
  br label %ehcleanup268

if.end267:                                        ; preds = %_ZNKSt14default_deleteINSt7__cxx1118basic_stringstreamIcSt11char_traitsIcESaIcEEEEclEPS5_.exit.i.i243, %invoke.cont263
  store ptr null, ptr %ref.tmp253, align 8
  %.pr340 = load ptr, ptr %message_.i240, align 8
  %cmp.not.i.i253 = icmp eq ptr %.pr340, null
  br i1 %cmp.not.i.i253, label %_ZN7testing15AssertionResultD2Ev.exit255, label %_ZNKSt14default_deleteINSt7__cxx1112basic_stringIcSt11char_traitsIcESaIcEEEEclEPS5_.exit.i.i254

_ZNKSt14default_deleteINSt7__cxx1112basic_stringIcSt11char_traitsIcESaIcEEEEclEPS5_.exit.i.i254: ; preds = %if.end267
  call void @_ZNSt7__cxx1112basic_stringIcSt11char_traitsIcESaIcEED1Ev(ptr noundef nonnull align 8 dereferenceable(32) %.pr340) #21
  call void @_ZdlPv(ptr noundef nonnull %.pr340) #22
  br label %_ZN7testing15AssertionResultD2Ev.exit255

_ZN7testing15AssertionResultD2Ev.exit255:         ; preds = %_ZN4absl18profiling_internal19PeriodicSamplerBase6SampleEv.exit239, %_ZN4absl18profiling_internal19PeriodicSamplerBase6SampleEv.exit239.thread, %if.end267, %_ZNKSt14default_deleteINSt7__cxx1112basic_stringIcSt11char_traitsIcESaIcEEEEclEPS5_.exit.i.i254
  %message_.i240339343 = phi ptr [ %message_.i240, %if.end267 ], [ %message_.i240, %_ZNKSt14default_deleteINSt7__cxx1112basic_stringIcSt11char_traitsIcESaIcEEEEclEPS5_.exit.i.i254 ], [ %message_.i240, %_ZN4absl18profiling_internal19PeriodicSamplerBase6SampleEv.exit239 ], [ %message_.i240337, %_ZN4absl18profiling_internal19PeriodicSamplerBase6SampleEv.exit239.thread ]
  store ptr null, ptr %message_.i240339343, align 8
  store ptr getelementptr inbounds ({ [6 x ptr] }, ptr @_ZTVN4absl18profiling_internal12_GLOBAL__N_119MockPeriodicSamplerE, i64 0, inrange i32 0, i64 2), ptr %sampler, align 8
  call void @_ZN7testing8internal14FunctionMockerIFliEED2Ev(ptr noundef nonnull align 8 dereferenceable(72) %gmock01_GetExponentialBiased_38.i.i) #21
  call void @_ZN7testing8internal14FunctionMockerIFivEED2Ev(ptr noundef nonnull align 8 dereferenceable(72) %gmock10_period_37.i.i) #21
  invoke void @_ZN7testing4Mock22UnregisterCallReactionEm(i64 noundef %0)
          to label %_ZN7testing10StrictMockIN4absl18profiling_internal12_GLOBAL__N_119MockPeriodicSamplerEED2Ev.exit unwind label %terminate.lpad.i.i258

terminate.lpad.i.i258:                            ; preds = %_ZN7testing15AssertionResultD2Ev.exit255
  %127 = landingpad { ptr, i32 }
          catch ptr null
  %128 = extractvalue { ptr, i32 } %127, 0
  call void @__clang_call_terminate(ptr %128) #24
  unreachable

_ZN7testing10StrictMockIN4absl18profiling_internal12_GLOBAL__N_119MockPeriodicSamplerEED2Ev.exit: ; preds = %_ZN7testing15AssertionResultD2Ev.exit255
  ret void

ehcleanup268:                                     ; preds = %_ZN7testing7MessageD2Ev.exit251, %lpad248
  %.pn33.pn.pn = phi { ptr, i32 } [ %.pn33.pn, %_ZN7testing7MessageD2Ev.exit251 ], [ %119, %lpad248 ]
  call void @_ZN7testing15AssertionResultD2Ev(ptr noundef nonnull align 8 dereferenceable(16) %gtest_ar_242) #21
  br label %ehcleanup269

ehcleanup269:                                     ; preds = %if.then.i.i.i66, %lpad16, %ehcleanup268, %ehcleanup241, %ehcleanup214, %ehcleanup187, %ehcleanup161, %ehcleanup134, %ehcleanup107, %ehcleanup81, %ehcleanup60, %lpad
  %.pn33.pn.pn.pn = phi { ptr, i32 } [ %.pn33.pn.pn, %ehcleanup268 ], [ %.pn29.pn.pn, %ehcleanup241 ], [ %.pn25.pn.pn, %ehcleanup214 ], [ %.pn21.pn.pn, %ehcleanup187 ], [ %.pn17.pn.pn, %ehcleanup161 ], [ %.pn13.pn.pn, %ehcleanup134 ], [ %.pn9.pn.pn, %ehcleanup107 ], [ %.pn5.pn.pn, %ehcleanup81 ], [ %.pn.pn.pn.pn, %ehcleanup60 ], [ %37, %lpad ], [ %38, %lpad16 ], [ %38, %if.then.i.i.i66 ]
  call void @_ZN7testing10StrictMockIN4absl18profiling_internal12_GLOBAL__N_119MockPeriodicSamplerEED2Ev(ptr noundef nonnull align 8 dereferenceable(184) %sampler) #21
  br label %common.resume
}

; Function Attrs: mustprogress nounwind uwtable
define linkonce_odr dso_local noundef ptr @_ZN7testing4Test5SetupEv(ptr noundef nonnull align 8 dereferenceable(16) %this) unnamed_addr #7 comdat align 2 {
entry:
  ret ptr null
}

; Function Attrs: nounwind
declare void @_ZN7testing4TestD2Ev(ptr noundef nonnull align 8 dereferenceable(16)) unnamed_addr #1

declare void @_ZN7testing8internal18GetWithoutMatchersEv() local_unnamed_addr #0

; Function Attrs: mustprogress uwtable
define linkonce_odr dso_local noundef nonnull align 8 dereferenceable(336) ptr @_ZN7testing8internal8MockSpecIFivEE18InternalExpectedAtEPKciS5_S5_(ptr noundef nonnull align 8 dereferenceable(9) %this, ptr noundef %file, i32 noundef %line, ptr noundef %obj, ptr noundef %call) local_unnamed_addr #3 comdat align 2 personality ptr @__gxx_personality_v0 {
entry:
  %source_text = alloca %"class.std::__cxx11::basic_string", align 8
  %ref.tmp = alloca %"class.std::__cxx11::basic_string", align 8
  %ref.tmp2 = alloca %"class.std::__cxx11::basic_string", align 8
  %ref.tmp3 = alloca %"class.std::__cxx11::basic_string", align 8
  %ref.tmp4 = alloca %"class.std::__cxx11::basic_string", align 8
  %ref.tmp5 = alloca %"class.std::allocator", align 1
  %ref.tmp17 = alloca %"class.std::__cxx11::basic_string", align 8
  call void @_ZNSaIcEC1Ev(ptr noundef nonnull align 1 dereferenceable(1) %ref.tmp5) #21
  %call.i10 = invoke noundef ptr @_ZNSt7__cxx1112basic_stringIcSt11char_traitsIcESaIcEE13_M_local_dataEv(ptr noundef nonnull align 8 dereferenceable(32) %ref.tmp4)
          to label %call.i.noexc unwind label %lpad

call.i.noexc:                                     ; preds = %entry
  invoke void @_ZNSt7__cxx1112basic_stringIcSt11char_traitsIcESaIcEE12_Alloc_hiderC1EPcRKS3_(ptr noundef nonnull align 8 dereferenceable(8) %ref.tmp4, ptr noundef %call.i10, ptr noundef nonnull align 1 dereferenceable(1) %ref.tmp5)
          to label %.noexc unwind label %lpad

.noexc:                                           ; preds = %call.i.noexc
  invoke void @_ZNSt7__cxx1112basic_stringIcSt11char_traitsIcESaIcEE12_M_constructIPKcEEvT_S8_St20forward_iterator_tag(ptr noundef nonnull align 8 dereferenceable(32) %ref.tmp4, ptr noundef nonnull @.str.89, ptr noundef nonnull getelementptr inbounds ([13 x i8], ptr @.str.89, i64 0, i64 12))
          to label %invoke.cont unwind label %lpad.i

lpad.i:                                           ; preds = %.noexc
  %0 = landingpad { ptr, i32 }
          cleanup
  call void @_ZNSaIcED2Ev(ptr noundef nonnull align 1 dereferenceable(1) %ref.tmp4) #21
  br label %ehcleanup16

invoke.cont:                                      ; preds = %.noexc
  %call.i12 = invoke noundef nonnull align 8 dereferenceable(32) ptr @_ZNSt7__cxx1112basic_stringIcSt11char_traitsIcESaIcEE6appendEPKc(ptr noundef nonnull align 8 dereferenceable(32) %ref.tmp4, ptr noundef %obj)
          to label %invoke.cont7 unwind label %lpad6

invoke.cont7:                                     ; preds = %invoke.cont
  call void @_ZNSt7__cxx1112basic_stringIcSt11char_traitsIcESaIcEEC1EOS4_(ptr noundef nonnull align 8 dereferenceable(32) %ref.tmp3, ptr noundef nonnull align 8 dereferenceable(32) %call.i12) #21
  %call.i14 = invoke noundef nonnull align 8 dereferenceable(32) ptr @_ZNSt7__cxx1112basic_stringIcSt11char_traitsIcESaIcEE6appendEPKc(ptr noundef nonnull align 8 dereferenceable(32) %ref.tmp3, ptr noundef nonnull @.str.63)
          to label %invoke.cont9 unwind label %lpad8

invoke.cont9:                                     ; preds = %invoke.cont7
  call void @_ZNSt7__cxx1112basic_stringIcSt11char_traitsIcESaIcEEC1EOS4_(ptr noundef nonnull align 8 dereferenceable(32) %ref.tmp2, ptr noundef nonnull align 8 dereferenceable(32) %call.i14) #21
  %call.i17 = invoke noundef nonnull align 8 dereferenceable(32) ptr @_ZNSt7__cxx1112basic_stringIcSt11char_traitsIcESaIcEE6appendEPKc(ptr noundef nonnull align 8 dereferenceable(32) %ref.tmp2, ptr noundef %call)
          to label %invoke.cont11 unwind label %lpad10

invoke.cont11:                                    ; preds = %invoke.cont9
  call void @_ZNSt7__cxx1112basic_stringIcSt11char_traitsIcESaIcEEC1EOS4_(ptr noundef nonnull align 8 dereferenceable(32) %ref.tmp, ptr noundef nonnull align 8 dereferenceable(32) %call.i17) #21
  %call.i20 = invoke noundef nonnull align 8 dereferenceable(32) ptr @_ZNSt7__cxx1112basic_stringIcSt11char_traitsIcESaIcEE6appendEPKc(ptr noundef nonnull align 8 dereferenceable(32) %ref.tmp, ptr noundef nonnull @.str.43)
          to label %invoke.cont13 unwind label %lpad12

invoke.cont13:                                    ; preds = %invoke.cont11
  call void @_ZNSt7__cxx1112basic_stringIcSt11char_traitsIcESaIcEEC1EOS4_(ptr noundef nonnull align 8 dereferenceable(32) %source_text, ptr noundef nonnull align 8 dereferenceable(32) %call.i20) #21
  call void @_ZNSt7__cxx1112basic_stringIcSt11char_traitsIcESaIcEED1Ev(ptr noundef nonnull align 8 dereferenceable(32) %ref.tmp) #21
  call void @_ZNSt7__cxx1112basic_stringIcSt11char_traitsIcESaIcEED1Ev(ptr noundef nonnull align 8 dereferenceable(32) %ref.tmp2) #21
  call void @_ZNSt7__cxx1112basic_stringIcSt11char_traitsIcESaIcEED1Ev(ptr noundef nonnull align 8 dereferenceable(32) %ref.tmp3) #21
  call void @_ZNSt7__cxx1112basic_stringIcSt11char_traitsIcESaIcEED1Ev(ptr noundef nonnull align 8 dereferenceable(32) %ref.tmp4) #21
  call void @_ZNSaIcED1Ev(ptr noundef nonnull align 1 dereferenceable(1) %ref.tmp5) #21
  invoke void @_ZNSt7__cxx1112basic_stringIcSt11char_traitsIcESaIcEEC1ERKS4_(ptr noundef nonnull align 8 dereferenceable(32) %ref.tmp17, ptr noundef nonnull align 8 dereferenceable(32) %source_text)
          to label %.noexc23 unwind label %lpad18

.noexc23:                                         ; preds = %invoke.cont13
  %call.i = invoke noundef nonnull align 8 dereferenceable(32) ptr @_ZNSt7__cxx1112basic_stringIcSt11char_traitsIcESaIcEE6appendEPKc(ptr noundef nonnull align 8 dereferenceable(32) %ref.tmp17, ptr noundef nonnull @.str.90)
          to label %invoke.cont19 unwind label %lpad.i22

lpad.i22:                                         ; preds = %.noexc23
  %1 = landingpad { ptr, i32 }
          cleanup
  call void @_ZNSt7__cxx1112basic_stringIcSt11char_traitsIcESaIcEED1Ev(ptr noundef nonnull align 8 dereferenceable(32) %ref.tmp17) #21
  br label %ehcleanup25

invoke.cont19:                                    ; preds = %.noexc23
  invoke void @_ZN7testing8internal15LogWithLocationENS0_11LogSeverityEPKciRKNSt7__cxx1112basic_stringIcSt11char_traitsIcESaIcEEE(i32 noundef 0, ptr noundef %file, i32 noundef %line, ptr noundef nonnull align 8 dereferenceable(32) %ref.tmp17)
          to label %invoke.cont21 unwind label %lpad20

invoke.cont21:                                    ; preds = %invoke.cont19
  call void @_ZNSt7__cxx1112basic_stringIcSt11char_traitsIcESaIcEED1Ev(ptr noundef nonnull align 8 dereferenceable(32) %ref.tmp17) #21
  %2 = load ptr, ptr %this, align 8
  %matchers_ = getelementptr inbounds %"class.testing::internal::MockSpec", ptr %this, i64 0, i32 1
  %call24 = invoke noundef nonnull align 8 dereferenceable(336) ptr @_ZN7testing8internal14FunctionMockerIFivEE17AddNewExpectationEPKciRKNSt7__cxx1112basic_stringIcSt11char_traitsIcESaIcEEERKSt5tupleIJEE(ptr noundef nonnull align 8 dereferenceable(72) %2, ptr noundef %file, i32 noundef %line, ptr noundef nonnull align 8 dereferenceable(32) %source_text, ptr noundef nonnull align 1 dereferenceable(1) %matchers_)
          to label %invoke.cont23 unwind label %lpad18

invoke.cont23:                                    ; preds = %invoke.cont21
  call void @_ZNSt7__cxx1112basic_stringIcSt11char_traitsIcESaIcEED1Ev(ptr noundef nonnull align 8 dereferenceable(32) %source_text) #21
  ret ptr %call24

lpad:                                             ; preds = %call.i.noexc, %entry
  %3 = landingpad { ptr, i32 }
          cleanup
  br label %ehcleanup16

lpad6:                                            ; preds = %invoke.cont
  %4 = landingpad { ptr, i32 }
          cleanup
  br label %ehcleanup15

lpad8:                                            ; preds = %invoke.cont7
  %5 = landingpad { ptr, i32 }
          cleanup
  br label %ehcleanup14

lpad10:                                           ; preds = %invoke.cont9
  %6 = landingpad { ptr, i32 }
          cleanup
  br label %ehcleanup

lpad12:                                           ; preds = %invoke.cont11
  %7 = landingpad { ptr, i32 }
          cleanup
  call void @_ZNSt7__cxx1112basic_stringIcSt11char_traitsIcESaIcEED1Ev(ptr noundef nonnull align 8 dereferenceable(32) %ref.tmp) #21
  br label %ehcleanup

ehcleanup:                                        ; preds = %lpad12, %lpad10
  %.pn = phi { ptr, i32 } [ %7, %lpad12 ], [ %6, %lpad10 ]
  call void @_ZNSt7__cxx1112basic_stringIcSt11char_traitsIcESaIcEED1Ev(ptr noundef nonnull align 8 dereferenceable(32) %ref.tmp2) #21
  br label %ehcleanup14

ehcleanup14:                                      ; preds = %ehcleanup, %lpad8
  %.pn.pn = phi { ptr, i32 } [ %.pn, %ehcleanup ], [ %5, %lpad8 ]
  call void @_ZNSt7__cxx1112basic_stringIcSt11char_traitsIcESaIcEED1Ev(ptr noundef nonnull align 8 dereferenceable(32) %ref.tmp3) #21
  br label %ehcleanup15

ehcleanup15:                                      ; preds = %ehcleanup14, %lpad6
  %.pn.pn.pn = phi { ptr, i32 } [ %.pn.pn, %ehcleanup14 ], [ %4, %lpad6 ]
  call void @_ZNSt7__cxx1112basic_stringIcSt11char_traitsIcESaIcEED1Ev(ptr noundef nonnull align 8 dereferenceable(32) %ref.tmp4) #21
  br label %ehcleanup16

ehcleanup16:                                      ; preds = %lpad, %lpad.i, %ehcleanup15
  %.pn.pn.pn.pn = phi { ptr, i32 } [ %.pn.pn.pn, %ehcleanup15 ], [ %3, %lpad ], [ %0, %lpad.i ]
  call void @_ZNSaIcED1Ev(ptr noundef nonnull align 1 dereferenceable(1) %ref.tmp5) #21
  br label %eh.resume

lpad18:                                           ; preds = %invoke.cont13, %invoke.cont21
  %8 = landingpad { ptr, i32 }
          cleanup
  br label %ehcleanup25

lpad20:                                           ; preds = %invoke.cont19
  %9 = landingpad { ptr, i32 }
          cleanup
  call void @_ZNSt7__cxx1112basic_stringIcSt11char_traitsIcESaIcEED1Ev(ptr noundef nonnull align 8 dereferenceable(32) %ref.tmp17) #21
  br label %ehcleanup25

ehcleanup25:                                      ; preds = %lpad18, %lpad.i22, %lpad20
  %.pn7 = phi { ptr, i32 } [ %9, %lpad20 ], [ %8, %lpad18 ], [ %1, %lpad.i22 ]
  call void @_ZNSt7__cxx1112basic_stringIcSt11char_traitsIcESaIcEED1Ev(ptr noundef nonnull align 8 dereferenceable(32) %source_text) #21
  br label %eh.resume

eh.resume:                                        ; preds = %ehcleanup25, %ehcleanup16
  %.pn7.pn = phi { ptr, i32 } [ %.pn7, %ehcleanup25 ], [ %.pn.pn.pn.pn, %ehcleanup16 ]
  resume { ptr, i32 } %.pn7.pn
}

; Function Attrs: mustprogress uwtable
define linkonce_odr dso_local noundef nonnull align 8 dereferenceable(336) ptr @_ZN7testing8internal16TypedExpectationIFivEE5TimesEi(ptr noundef nonnull align 8 dereferenceable(336) %this, i32 noundef %n) local_unnamed_addr #3 comdat align 2 personality ptr @__gxx_personality_v0 {
entry:
  %ref.tmp = alloca %"class.testing::Cardinality", align 8
  call void @_ZN7testing7ExactlyEi(ptr nonnull sret(%"class.testing::Cardinality") align 8 %ref.tmp, i32 noundef %n)
  invoke void @_ZN7testing8internal15ExpectationBase12UntypedTimesERKNS_11CardinalityE(ptr noundef nonnull align 8 dereferenceable(264) %this, ptr noundef nonnull align 8 dereferenceable(16) %ref.tmp)
          to label %invoke.cont unwind label %lpad

invoke.cont:                                      ; preds = %entry
  %_M_refcount.i.i.i = getelementptr inbounds %"class.std::__shared_ptr", ptr %ref.tmp, i64 0, i32 1
  %0 = load ptr, ptr %_M_refcount.i.i.i, align 8
  %cmp.not.i.i.i.i = icmp eq ptr %0, null
  br i1 %cmp.not.i.i.i.i, label %_ZN7testing11CardinalityD2Ev.exit, label %if.then.i.i.i.i

if.then.i.i.i.i:                                  ; preds = %invoke.cont
  %_M_use_count.i.i.i.i.i = getelementptr inbounds %"class.std::_Sp_counted_base", ptr %0, i64 0, i32 1
  %1 = load atomic i64, ptr %_M_use_count.i.i.i.i.i acquire, align 8
  %cmp.i.i.i.i.i = icmp eq i64 %1, 4294967297
  %2 = trunc i64 %1 to i32
  br i1 %cmp.i.i.i.i.i, label %if.then.i.i.i.i.i, label %if.end.i.i.i.i.i

if.then.i.i.i.i.i:                                ; preds = %if.then.i.i.i.i
  store i32 0, ptr %_M_use_count.i.i.i.i.i, align 8
  %_M_weak_count.i.i.i.i.i = getelementptr inbounds %"class.std::_Sp_counted_base", ptr %0, i64 0, i32 2
  store i32 0, ptr %_M_weak_count.i.i.i.i.i, align 4
  %vtable.i.i.i.i.i = load ptr, ptr %0, align 8
  %vfn.i.i.i.i.i = getelementptr inbounds ptr, ptr %vtable.i.i.i.i.i, i64 2
  %3 = load ptr, ptr %vfn.i.i.i.i.i, align 8
  call void %3(ptr noundef nonnull align 8 dereferenceable(16) %0) #21
  br label %if.end8.sink.split.i.i.i.i.i

if.end.i.i.i.i.i:                                 ; preds = %if.then.i.i.i.i
  %4 = load i8, ptr @__libc_single_threaded, align 1
  %tobool.i.i.not.i.i.i.i.i = icmp eq i8 %4, 0
  br i1 %tobool.i.i.not.i.i.i.i.i, label %if.else.i.i.i.i.i.i, label %if.then.i.i.i.i.i.i

if.then.i.i.i.i.i.i:                              ; preds = %if.end.i.i.i.i.i
  %add.i.i.i.i.i.i = add nsw i32 %2, -1
  store i32 %add.i.i.i.i.i.i, ptr %_M_use_count.i.i.i.i.i, align 4
  br label %_ZN9__gnu_cxx27__exchange_and_add_dispatchEPii.exit.i.i.i.i.i

if.else.i.i.i.i.i.i:                              ; preds = %if.end.i.i.i.i.i
  %5 = atomicrmw volatile add ptr %_M_use_count.i.i.i.i.i, i32 -1 acq_rel, align 4
  br label %_ZN9__gnu_cxx27__exchange_and_add_dispatchEPii.exit.i.i.i.i.i

_ZN9__gnu_cxx27__exchange_and_add_dispatchEPii.exit.i.i.i.i.i: ; preds = %if.else.i.i.i.i.i.i, %if.then.i.i.i.i.i.i
  %retval.i.0.i.i.i.i.i = phi i32 [ %2, %if.then.i.i.i.i.i.i ], [ %5, %if.else.i.i.i.i.i.i ]
  %cmp6.i.i.i.i.i = icmp eq i32 %retval.i.0.i.i.i.i.i, 1
  br i1 %cmp6.i.i.i.i.i, label %if.then7.i.i.i.i.i, label %_ZN7testing11CardinalityD2Ev.exit

if.then7.i.i.i.i.i:                               ; preds = %_ZN9__gnu_cxx27__exchange_and_add_dispatchEPii.exit.i.i.i.i.i
  %vtable.i.i.i.i.i.i.i = load ptr, ptr %0, align 8
  %vfn.i.i.i.i.i.i.i = getelementptr inbounds ptr, ptr %vtable.i.i.i.i.i.i.i, i64 2
  %6 = load ptr, ptr %vfn.i.i.i.i.i.i.i, align 8
  call void %6(ptr noundef nonnull align 8 dereferenceable(16) %0) #21
  %_M_weak_count.i.i.i.i.i.i.i = getelementptr inbounds %"class.std::_Sp_counted_base", ptr %0, i64 0, i32 2
  %7 = load i8, ptr @__libc_single_threaded, align 1
  %tobool.i.i.not.i.i.i.i.i.i.i = icmp eq i8 %7, 0
  br i1 %tobool.i.i.not.i.i.i.i.i.i.i, label %if.else.i.i.i.i.i.i.i.i, label %if.then.i.i.i.i.i.i.i.i

if.then.i.i.i.i.i.i.i.i:                          ; preds = %if.then7.i.i.i.i.i
  %8 = load i32, ptr %_M_weak_count.i.i.i.i.i.i.i, align 4
  %add.i.i.i.i.i.i.i.i = add nsw i32 %8, -1
  store i32 %add.i.i.i.i.i.i.i.i, ptr %_M_weak_count.i.i.i.i.i.i.i, align 4
  br label %_ZN9__gnu_cxx27__exchange_and_add_dispatchEPii.exit.i.i.i.i.i.i.i

if.else.i.i.i.i.i.i.i.i:                          ; preds = %if.then7.i.i.i.i.i
  %9 = atomicrmw volatile add ptr %_M_weak_count.i.i.i.i.i.i.i, i32 -1 acq_rel, align 4
  br label %_ZN9__gnu_cxx27__exchange_and_add_dispatchEPii.exit.i.i.i.i.i.i.i

_ZN9__gnu_cxx27__exchange_and_add_dispatchEPii.exit.i.i.i.i.i.i.i: ; preds = %if.else.i.i.i.i.i.i.i.i, %if.then.i.i.i.i.i.i.i.i
  %retval.i.0.i.i.i.i.i.i.i = phi i32 [ %8, %if.then.i.i.i.i.i.i.i.i ], [ %9, %if.else.i.i.i.i.i.i.i.i ]
  %cmp.i.i.i.i.i.i.i = icmp eq i32 %retval.i.0.i.i.i.i.i.i.i, 1
  br i1 %cmp.i.i.i.i.i.i.i, label %if.end8.sink.split.i.i.i.i.i, label %_ZN7testing11CardinalityD2Ev.exit

if.end8.sink.split.i.i.i.i.i:                     ; preds = %_ZN9__gnu_cxx27__exchange_and_add_dispatchEPii.exit.i.i.i.i.i.i.i, %if.then.i.i.i.i.i
  %vtable2.i.i.i.i.i.i.i = load ptr, ptr %0, align 8
  %vfn3.i.i.i.i.i.i.i = getelementptr inbounds ptr, ptr %vtable2.i.i.i.i.i.i.i, i64 3
  %10 = load ptr, ptr %vfn3.i.i.i.i.i.i.i, align 8
  call void %10(ptr noundef nonnull align 8 dereferenceable(16) %0) #21
  br label %_ZN7testing11CardinalityD2Ev.exit

_ZN7testing11CardinalityD2Ev.exit:                ; preds = %invoke.cont, %_ZN9__gnu_cxx27__exchange_and_add_dispatchEPii.exit.i.i.i.i.i, %_ZN9__gnu_cxx27__exchange_and_add_dispatchEPii.exit.i.i.i.i.i.i.i, %if.end8.sink.split.i.i.i.i.i
  ret ptr %this

lpad:                                             ; preds = %entry
  %11 = landingpad { ptr, i32 }
          cleanup
  call void @_ZN7testing11CardinalityD2Ev(ptr noundef nonnull align 8 dereferenceable(16) %ref.tmp) #21
  resume { ptr, i32 } %11
}

; Function Attrs: mustprogress uwtable
define linkonce_odr dso_local noundef nonnull align 8 dereferenceable(336) ptr @_ZN7testing8internal16TypedExpectationIFivEE14WillRepeatedlyERKNS_6ActionIS2_EE(ptr noundef nonnull align 8 dereferenceable(336) %this, ptr noundef nonnull align 8 dereferenceable(32) %action) local_unnamed_addr #3 comdat align 2 personality ptr @__gxx_personality_v0 {
entry:
  %__tmp.sroa.0.i.i.i.i = alloca { i64, i64 }, align 8
  %ref.tmp.i.i = alloca %"class.std::function", align 8
  %ref.tmp = alloca %"class.std::__cxx11::basic_string", align 8
  %ref.tmp2 = alloca %"class.std::allocator", align 1
  %ref.tmp7 = alloca %"class.std::__cxx11::basic_string", align 8
  %ref.tmp8 = alloca %"class.std::allocator", align 1
  %ref.tmp18 = alloca %"class.testing::Cardinality", align 8
  %last_clause_ = getelementptr inbounds %"class.testing::internal::ExpectationBase", ptr %this, i64 0, i32 14
  %0 = load i32, ptr %last_clause_, align 4
  %cmp = icmp eq i32 %0, 6
  br i1 %cmp, label %if.then, label %if.else

if.then:                                          ; preds = %entry
  call void @_ZNSaIcEC1Ev(ptr noundef nonnull align 1 dereferenceable(1) %ref.tmp2) #21
  %call.i5 = invoke noundef ptr @_ZNSt7__cxx1112basic_stringIcSt11char_traitsIcESaIcEE13_M_local_dataEv(ptr noundef nonnull align 8 dereferenceable(32) %ref.tmp)
          to label %call.i.noexc unwind label %lpad

call.i.noexc:                                     ; preds = %if.then
  invoke void @_ZNSt7__cxx1112basic_stringIcSt11char_traitsIcESaIcEE12_Alloc_hiderC1EPcRKS3_(ptr noundef nonnull align 8 dereferenceable(8) %ref.tmp, ptr noundef %call.i5, ptr noundef nonnull align 1 dereferenceable(1) %ref.tmp2)
          to label %.noexc unwind label %lpad

.noexc:                                           ; preds = %call.i.noexc
  invoke void @_ZNSt7__cxx1112basic_stringIcSt11char_traitsIcESaIcEE12_M_constructIPKcEEvT_S8_St20forward_iterator_tag(ptr noundef nonnull align 8 dereferenceable(32) %ref.tmp, ptr noundef nonnull @.str.96, ptr noundef nonnull getelementptr inbounds ([68 x i8], ptr @.str.96, i64 0, i64 67))
          to label %invoke.cont unwind label %lpad.i

lpad.i:                                           ; preds = %.noexc
  %1 = landingpad { ptr, i32 }
          cleanup
  call void @_ZNSaIcED2Ev(ptr noundef nonnull align 1 dereferenceable(1) %ref.tmp) #21
  br label %common.resume.sink.split

invoke.cont:                                      ; preds = %.noexc
  %line_.i = getelementptr inbounds %"class.testing::internal::ExpectationBase", ptr %this, i64 0, i32 2
  %2 = load i32, ptr %line_.i, align 8
  %file_.i = getelementptr inbounds %"class.testing::internal::ExpectationBase", ptr %this, i64 0, i32 1
  %3 = load ptr, ptr %file_.i, align 8
  %call.i.i67 = invoke noundef ptr @_ZN7testing8internal18GetFailureReporterEv()
          to label %call.i.i6.noexc unwind label %lpad3

call.i.i6.noexc:                                  ; preds = %invoke.cont
  %vtable.i.i = load ptr, ptr %call.i.i67, align 8
  %vfn.i.i = getelementptr inbounds ptr, ptr %vtable.i.i, i64 2
  %4 = load ptr, ptr %vfn.i.i, align 8
  invoke void %4(ptr noundef nonnull align 8 dereferenceable(8) %call.i.i67, i32 noundef 0, ptr noundef %3, i32 noundef %2, ptr noundef nonnull align 8 dereferenceable(32) %ref.tmp)
          to label %if.end unwind label %lpad3

lpad:                                             ; preds = %call.i.noexc, %if.then
  %5 = landingpad { ptr, i32 }
          cleanup
  br label %common.resume.sink.split

lpad3:                                            ; preds = %call.i.i6.noexc, %invoke.cont
  %6 = landingpad { ptr, i32 }
          cleanup
  call void @_ZNSt7__cxx1112basic_stringIcSt11char_traitsIcESaIcEED1Ev(ptr noundef nonnull align 8 dereferenceable(32) %ref.tmp) #21
  br label %common.resume.sink.split

if.else:                                          ; preds = %entry
  call void @_ZNSaIcEC1Ev(ptr noundef nonnull align 1 dereferenceable(1) %ref.tmp8) #21
  %call.i13 = invoke noundef ptr @_ZNSt7__cxx1112basic_stringIcSt11char_traitsIcESaIcEE13_M_local_dataEv(ptr noundef nonnull align 8 dereferenceable(32) %ref.tmp7)
          to label %call.i.noexc12 unwind label %lpad9

call.i.noexc12:                                   ; preds = %if.else
  invoke void @_ZNSt7__cxx1112basic_stringIcSt11char_traitsIcESaIcEE12_Alloc_hiderC1EPcRKS3_(ptr noundef nonnull align 8 dereferenceable(8) %ref.tmp7, ptr noundef %call.i13, ptr noundef nonnull align 1 dereferenceable(1) %ref.tmp8)
          to label %.noexc14 unwind label %lpad9

.noexc14:                                         ; preds = %call.i.noexc12
  invoke void @_ZNSt7__cxx1112basic_stringIcSt11char_traitsIcESaIcEE12_M_constructIPKcEEvT_S8_St20forward_iterator_tag(ptr noundef nonnull align 8 dereferenceable(32) %ref.tmp7, ptr noundef nonnull @.str.97, ptr noundef nonnull getelementptr inbounds ([62 x i8], ptr @.str.97, i64 0, i64 61))
          to label %invoke.cont10 unwind label %lpad.i11

lpad.i11:                                         ; preds = %.noexc14
  %7 = landingpad { ptr, i32 }
          cleanup
  call void @_ZNSaIcED2Ev(ptr noundef nonnull align 1 dereferenceable(1) %ref.tmp7) #21
  br label %common.resume.sink.split

invoke.cont10:                                    ; preds = %.noexc14
  %cmp6 = icmp slt i32 %0, 6
  br i1 %cmp6, label %if.end, label %if.then.i.i

if.then.i.i:                                      ; preds = %invoke.cont10
  %line_.i17 = getelementptr inbounds %"class.testing::internal::ExpectationBase", ptr %this, i64 0, i32 2
  %8 = load i32, ptr %line_.i17, align 8
  %file_.i18 = getelementptr inbounds %"class.testing::internal::ExpectationBase", ptr %this, i64 0, i32 1
  %9 = load ptr, ptr %file_.i18, align 8
  %call.i.i1922 = invoke noundef ptr @_ZN7testing8internal18GetFailureReporterEv()
          to label %call.i.i19.noexc unwind label %lpad11

call.i.i19.noexc:                                 ; preds = %if.then.i.i
  %vtable.i.i20 = load ptr, ptr %call.i.i1922, align 8
  %vfn.i.i21 = getelementptr inbounds ptr, ptr %vtable.i.i20, i64 2
  %10 = load ptr, ptr %vfn.i.i21, align 8
  invoke void %10(ptr noundef nonnull align 8 dereferenceable(8) %call.i.i1922, i32 noundef 0, ptr noundef %9, i32 noundef %8, ptr noundef nonnull align 8 dereferenceable(32) %ref.tmp7)
          to label %if.end unwind label %lpad11

lpad9:                                            ; preds = %call.i.noexc12, %if.else
  %11 = landingpad { ptr, i32 }
          cleanup
  br label %common.resume.sink.split

lpad11:                                           ; preds = %call.i.i19.noexc, %if.then.i.i
  %12 = landingpad { ptr, i32 }
          cleanup
  call void @_ZNSt7__cxx1112basic_stringIcSt11char_traitsIcESaIcEED1Ev(ptr noundef nonnull align 8 dereferenceable(32) %ref.tmp7) #21
  br label %common.resume.sink.split

if.end:                                           ; preds = %call.i.i19.noexc, %invoke.cont10, %call.i.i6.noexc
  %ref.tmp7.sink = phi ptr [ %ref.tmp, %call.i.i6.noexc ], [ %ref.tmp7, %invoke.cont10 ], [ %ref.tmp7, %call.i.i19.noexc ]
  %ref.tmp8.sink = phi ptr [ %ref.tmp2, %call.i.i6.noexc ], [ %ref.tmp8, %invoke.cont10 ], [ %ref.tmp8, %call.i.i19.noexc ]
  call void @_ZNSt7__cxx1112basic_stringIcSt11char_traitsIcESaIcEED1Ev(ptr noundef nonnull align 8 dereferenceable(32) %ref.tmp7.sink) #21
  call void @_ZNSaIcED1Ev(ptr noundef nonnull align 1 dereferenceable(1) %ref.tmp8.sink) #21
  store i32 6, ptr %last_clause_, align 4
  %repeated_action_specified_ = getelementptr inbounds %"class.testing::internal::ExpectationBase", ptr %this, i64 0, i32 12
  store i8 1, ptr %repeated_action_specified_, align 1
  %repeated_action_ = getelementptr inbounds %"class.testing::internal::TypedExpectation", ptr %this, i64 0, i32 4
  call void @llvm.lifetime.start.p0(i64 32, ptr nonnull %ref.tmp.i.i)
  %_M_manager.i.i.i.i = getelementptr inbounds %"class.std::_Function_base", ptr %ref.tmp.i.i, i64 0, i32 1
  %_M_invoker.i.i.i = getelementptr inbounds %"class.std::function", ptr %ref.tmp.i.i, i64 0, i32 1
  %_M_manager.i.i.i.i.i = getelementptr inbounds %"class.std::_Function_base", ptr %action, i64 0, i32 1
  call void @llvm.memset.p0.i64(ptr noundef nonnull align 8 dereferenceable(32) %ref.tmp.i.i, i8 0, i64 32, i1 false)
  %13 = load ptr, ptr %_M_manager.i.i.i.i.i, align 8
  %tobool.not.i.i.not.i.i.i = icmp eq ptr %13, null
  br i1 %tobool.not.i.i.not.i.i.i, label %_ZNSt8functionIFivEEC2ERKS1_.exit.i.i, label %if.then.i.i.i

if.then.i.i.i:                                    ; preds = %if.end
  %call3.i.i.i = invoke noundef zeroext i1 %13(ptr noundef nonnull align 8 dereferenceable(16) %ref.tmp.i.i, ptr noundef nonnull align 8 dereferenceable(16) %action, i32 noundef 2)
          to label %invoke.cont.i.i.i unwind label %lpad.i.i.i

invoke.cont.i.i.i:                                ; preds = %if.then.i.i.i
  %14 = load <2 x ptr>, ptr %_M_manager.i.i.i.i.i, align 8
  br label %_ZNSt8functionIFivEEC2ERKS1_.exit.i.i

lpad.i.i.i:                                       ; preds = %if.then.i.i.i
  %15 = landingpad { ptr, i32 }
          cleanup
  %16 = load ptr, ptr %_M_manager.i.i.i.i, align 8
  %tobool.not.i.i.i.i = icmp eq ptr %16, null
  br i1 %tobool.not.i.i.i.i, label %common.resume, label %if.then.i.i.i.i

if.then.i.i.i.i:                                  ; preds = %lpad.i.i.i
  %call.i.i.i.i = invoke noundef zeroext i1 %16(ptr noundef nonnull align 8 dereferenceable(16) %ref.tmp.i.i, ptr noundef nonnull align 8 dereferenceable(16) %ref.tmp.i.i, i32 noundef 3)
          to label %common.resume unwind label %terminate.lpad.i.i.i.i

terminate.lpad.i.i.i.i:                           ; preds = %if.then.i.i.i.i
  %17 = landingpad { ptr, i32 }
          catch ptr null
  %18 = extractvalue { ptr, i32 } %17, 0
  call void @__clang_call_terminate(ptr %18) #24
  unreachable

common.resume.sink.split:                         ; preds = %lpad11, %lpad.i11, %lpad9, %lpad3, %lpad.i, %lpad
  %ref.tmp2.sink = phi ptr [ %ref.tmp2, %lpad ], [ %ref.tmp2, %lpad.i ], [ %ref.tmp2, %lpad3 ], [ %ref.tmp8, %lpad9 ], [ %ref.tmp8, %lpad.i11 ], [ %ref.tmp8, %lpad11 ]
  %common.resume.op.ph = phi { ptr, i32 } [ %5, %lpad ], [ %1, %lpad.i ], [ %6, %lpad3 ], [ %11, %lpad9 ], [ %7, %lpad.i11 ], [ %12, %lpad11 ]
  call void @_ZNSaIcED1Ev(ptr noundef nonnull align 1 dereferenceable(1) %ref.tmp2.sink) #21
  br label %common.resume

common.resume:                                    ; preds = %common.resume.sink.split, %lpad.i.i.i, %if.then.i.i.i.i
  %common.resume.op = phi { ptr, i32 } [ %15, %if.then.i.i.i.i ], [ %15, %lpad.i.i.i ], [ %common.resume.op.ph, %common.resume.sink.split ]
  resume { ptr, i32 } %common.resume.op

_ZNSt8functionIFivEEC2ERKS1_.exit.i.i:            ; preds = %invoke.cont.i.i.i, %if.end
  %19 = phi <2 x ptr> [ zeroinitializer, %if.end ], [ %14, %invoke.cont.i.i.i ]
  call void @llvm.lifetime.start.p0(i64 16, ptr nonnull %__tmp.sroa.0.i.i.i.i)
  call void @llvm.memcpy.p0.p0.i64(ptr noundef nonnull align 8 dereferenceable(16) %__tmp.sroa.0.i.i.i.i, ptr noundef nonnull align 8 dereferenceable(16) %ref.tmp.i.i, i64 16, i1 false)
  call void @llvm.memcpy.p0.p0.i64(ptr noundef nonnull align 8 dereferenceable(16) %ref.tmp.i.i, ptr noundef nonnull align 8 dereferenceable(16) %repeated_action_, i64 16, i1 false)
  call void @llvm.memcpy.p0.p0.i64(ptr noundef nonnull align 8 dereferenceable(16) %repeated_action_, ptr noundef nonnull align 8 dereferenceable(16) %__tmp.sroa.0.i.i.i.i, i64 16, i1 false)
  call void @llvm.lifetime.end.p0(i64 16, ptr nonnull %__tmp.sroa.0.i.i.i.i)
  %_M_manager3.i.i.i = getelementptr inbounds %"class.testing::internal::TypedExpectation", ptr %this, i64 0, i32 4, i32 0, i32 0, i32 1
  %20 = load ptr, ptr %_M_manager3.i.i.i, align 8
  store ptr %20, ptr %_M_manager.i.i.i.i, align 8
  %_M_invoker4.i2.i.i = getelementptr inbounds %"class.testing::internal::TypedExpectation", ptr %this, i64 0, i32 4, i32 0, i32 1
  %21 = load ptr, ptr %_M_invoker4.i2.i.i, align 8
  store ptr %21, ptr %_M_invoker.i.i.i, align 8
  store <2 x ptr> %19, ptr %_M_manager3.i.i.i, align 8
  %tobool.not.i.i4.i.i = icmp eq ptr %20, null
  br i1 %tobool.not.i.i4.i.i, label %_ZN7testing6ActionIFivEEaSERKS2_.exit, label %if.then.i.i5.i.i

if.then.i.i5.i.i:                                 ; preds = %_ZNSt8functionIFivEEC2ERKS1_.exit.i.i
  %call.i.i6.i.i = invoke noundef zeroext i1 %20(ptr noundef nonnull align 8 dereferenceable(16) %ref.tmp.i.i, ptr noundef nonnull align 8 dereferenceable(16) %ref.tmp.i.i, i32 noundef 3)
          to label %_ZN7testing6ActionIFivEEaSERKS2_.exit unwind label %terminate.lpad.i.i7.i.i

terminate.lpad.i.i7.i.i:                          ; preds = %if.then.i.i5.i.i
  %22 = landingpad { ptr, i32 }
          catch ptr null
  %23 = extractvalue { ptr, i32 } %22, 0
  call void @__clang_call_terminate(ptr %23) #24
  unreachable

_ZN7testing6ActionIFivEEaSERKS2_.exit:            ; preds = %_ZNSt8functionIFivEEC2ERKS1_.exit.i.i, %if.then.i.i5.i.i
  call void @llvm.lifetime.end.p0(i64 32, ptr nonnull %ref.tmp.i.i)
  %cardinality_specified_.i = getelementptr inbounds %"class.testing::internal::ExpectationBase", ptr %this, i64 0, i32 5
  %24 = load i8, ptr %cardinality_specified_.i, align 8
  %25 = and i8 %24, 1
  %tobool.i.not = icmp eq i8 %25, 0
  br i1 %tobool.i.not, label %if.then17, label %if.end23

if.then17:                                        ; preds = %_ZN7testing6ActionIFivEEaSERKS2_.exit
  %untyped_actions_ = getelementptr inbounds %"class.testing::internal::ExpectationBase", ptr %this, i64 0, i32 10
  %_M_finish.i = getelementptr inbounds %"class.testing::internal::ExpectationBase", ptr %this, i64 0, i32 10, i32 0, i32 0, i32 0, i32 1
  %26 = load ptr, ptr %_M_finish.i, align 8
  %27 = load ptr, ptr %untyped_actions_, align 8
  %sub.ptr.lhs.cast.i = ptrtoint ptr %26 to i64
  %sub.ptr.rhs.cast.i = ptrtoint ptr %27 to i64
  %sub.ptr.sub.i = sub i64 %sub.ptr.lhs.cast.i, %sub.ptr.rhs.cast.i
  %sub.ptr.div.i = lshr exact i64 %sub.ptr.sub.i, 3
  %conv = trunc i64 %sub.ptr.div.i to i32
  call void @_ZN7testing7AtLeastEi(ptr nonnull sret(%"class.testing::Cardinality") align 8 %ref.tmp18, i32 noundef %conv)
  %cardinality_.i = getelementptr inbounds %"class.testing::internal::ExpectationBase", ptr %this, i64 0, i32 6
  %28 = load ptr, ptr %ref.tmp18, align 8
  store ptr %28, ptr %cardinality_.i, align 8
  %_M_refcount.i.i.i.i = getelementptr inbounds %"class.testing::internal::ExpectationBase", ptr %this, i64 0, i32 6, i32 0, i32 0, i32 1
  %_M_refcount3.i.i.i.i = getelementptr inbounds %"class.std::__shared_ptr", ptr %ref.tmp18, i64 0, i32 1
  %29 = load ptr, ptr %_M_refcount3.i.i.i.i, align 8
  %30 = load ptr, ptr %_M_refcount.i.i.i.i, align 8
  %cmp.not.i.i.i.i.i = icmp eq ptr %29, %30
  br i1 %cmp.not.i.i.i.i.i, label %_ZN7testing8internal15ExpectationBase15set_cardinalityERKNS_11CardinalityE.exit, label %if.then.i.i.i.i.i

if.then.i.i.i.i.i:                                ; preds = %if.then17
  %cmp3.not.i.i.i.i.i = icmp eq ptr %29, null
  br i1 %cmp3.not.i.i.i.i.i, label %if.end.i.i.i.i.i, label %if.then4.i.i.i.i.i

if.then4.i.i.i.i.i:                               ; preds = %if.then.i.i.i.i.i
  %_M_use_count.i.i.i.i.i.i = getelementptr inbounds %"class.std::_Sp_counted_base", ptr %29, i64 0, i32 1
  %31 = load i8, ptr @__libc_single_threaded, align 1
  %tobool.i.not.i.i.i.i.i.i = icmp eq i8 %31, 0
  br i1 %tobool.i.not.i.i.i.i.i.i, label %if.else.i.i.i.i.i.i.i, label %if.then.i.i.i.i.i.i.i

if.then.i.i.i.i.i.i.i:                            ; preds = %if.then4.i.i.i.i.i
  %32 = load i32, ptr %_M_use_count.i.i.i.i.i.i, align 4
  %add.i.i.i.i.i.i.i = add nsw i32 %32, 1
  store i32 %add.i.i.i.i.i.i.i, ptr %_M_use_count.i.i.i.i.i.i, align 4
  br label %if.endthread-pre-split.i.i.i.i.i

if.else.i.i.i.i.i.i.i:                            ; preds = %if.then4.i.i.i.i.i
  %33 = atomicrmw volatile add ptr %_M_use_count.i.i.i.i.i.i, i32 1 acq_rel, align 4
  br label %if.endthread-pre-split.i.i.i.i.i

if.endthread-pre-split.i.i.i.i.i:                 ; preds = %if.else.i.i.i.i.i.i.i, %if.then.i.i.i.i.i.i.i
  %.pr.i.i.i.i.i = load ptr, ptr %_M_refcount.i.i.i.i, align 8
  br label %if.end.i.i.i.i.i

if.end.i.i.i.i.i:                                 ; preds = %if.endthread-pre-split.i.i.i.i.i, %if.then.i.i.i.i.i
  %34 = phi ptr [ %.pr.i.i.i.i.i, %if.endthread-pre-split.i.i.i.i.i ], [ %30, %if.then.i.i.i.i.i ]
  %cmp6.not.i.i.i.i.i = icmp eq ptr %34, null
  br i1 %cmp6.not.i.i.i.i.i, label %if.end9.i.i.i.i.i, label %if.then7.i.i.i.i.i

if.then7.i.i.i.i.i:                               ; preds = %if.end.i.i.i.i.i
  %_M_use_count.i5.i.i.i.i.i = getelementptr inbounds %"class.std::_Sp_counted_base", ptr %34, i64 0, i32 1
  %35 = load atomic i64, ptr %_M_use_count.i5.i.i.i.i.i acquire, align 8
  %cmp.i.i.i.i.i.i = icmp eq i64 %35, 4294967297
  %36 = trunc i64 %35 to i32
  br i1 %cmp.i.i.i.i.i.i, label %if.then.i.i.i.i.i.i, label %if.end.i.i.i.i.i.i

if.then.i.i.i.i.i.i:                              ; preds = %if.then7.i.i.i.i.i
  store i32 0, ptr %_M_use_count.i5.i.i.i.i.i, align 8
  %_M_weak_count.i.i.i.i.i.i = getelementptr inbounds %"class.std::_Sp_counted_base", ptr %34, i64 0, i32 2
  store i32 0, ptr %_M_weak_count.i.i.i.i.i.i, align 4
  %vtable.i.i.i.i.i.i = load ptr, ptr %34, align 8
  %vfn.i.i.i.i.i.i = getelementptr inbounds ptr, ptr %vtable.i.i.i.i.i.i, i64 2
  %37 = load ptr, ptr %vfn.i.i.i.i.i.i, align 8
  call void %37(ptr noundef nonnull align 8 dereferenceable(16) %34) #21
  br label %if.end8.sink.split.i.i.i.i.i.i

if.end.i.i.i.i.i.i:                               ; preds = %if.then7.i.i.i.i.i
  %38 = load i8, ptr @__libc_single_threaded, align 1
  %tobool.i.i.not.i.i.i.i.i.i = icmp eq i8 %38, 0
  br i1 %tobool.i.i.not.i.i.i.i.i.i, label %if.else.i.i8.i.i.i.i.i, label %if.then.i.i6.i.i.i.i.i

if.then.i.i6.i.i.i.i.i:                           ; preds = %if.end.i.i.i.i.i.i
  %add.i.i7.i.i.i.i.i = add nsw i32 %36, -1
  store i32 %add.i.i7.i.i.i.i.i, ptr %_M_use_count.i5.i.i.i.i.i, align 4
  br label %_ZN9__gnu_cxx27__exchange_and_add_dispatchEPii.exit.i.i.i.i.i.i

if.else.i.i8.i.i.i.i.i:                           ; preds = %if.end.i.i.i.i.i.i
  %39 = atomicrmw volatile add ptr %_M_use_count.i5.i.i.i.i.i, i32 -1 acq_rel, align 4
  br label %_ZN9__gnu_cxx27__exchange_and_add_dispatchEPii.exit.i.i.i.i.i.i

_ZN9__gnu_cxx27__exchange_and_add_dispatchEPii.exit.i.i.i.i.i.i: ; preds = %if.else.i.i8.i.i.i.i.i, %if.then.i.i6.i.i.i.i.i
  %retval.i.0.i.i.i.i.i.i = phi i32 [ %36, %if.then.i.i6.i.i.i.i.i ], [ %39, %if.else.i.i8.i.i.i.i.i ]
  %cmp6.i.i.i.i.i.i = icmp eq i32 %retval.i.0.i.i.i.i.i.i, 1
  br i1 %cmp6.i.i.i.i.i.i, label %if.then7.i.i.i.i.i.i, label %if.end9.i.i.i.i.i

if.then7.i.i.i.i.i.i:                             ; preds = %_ZN9__gnu_cxx27__exchange_and_add_dispatchEPii.exit.i.i.i.i.i.i
  %vtable.i.i.i.i.i.i.i.i = load ptr, ptr %34, align 8
  %vfn.i.i.i.i.i.i.i.i = getelementptr inbounds ptr, ptr %vtable.i.i.i.i.i.i.i.i, i64 2
  %40 = load ptr, ptr %vfn.i.i.i.i.i.i.i.i, align 8
  call void %40(ptr noundef nonnull align 8 dereferenceable(16) %34) #21
  %_M_weak_count.i.i.i.i.i.i.i.i = getelementptr inbounds %"class.std::_Sp_counted_base", ptr %34, i64 0, i32 2
  %41 = load i8, ptr @__libc_single_threaded, align 1
  %tobool.i.i.not.i.i.i.i.i.i.i.i = icmp eq i8 %41, 0
  br i1 %tobool.i.i.not.i.i.i.i.i.i.i.i, label %if.else.i.i.i.i.i.i.i.i.i, label %if.then.i.i.i.i.i.i.i.i.i

if.then.i.i.i.i.i.i.i.i.i:                        ; preds = %if.then7.i.i.i.i.i.i
  %42 = load i32, ptr %_M_weak_count.i.i.i.i.i.i.i.i, align 4
  %add.i.i.i.i.i.i.i.i.i = add nsw i32 %42, -1
  store i32 %add.i.i.i.i.i.i.i.i.i, ptr %_M_weak_count.i.i.i.i.i.i.i.i, align 4
  br label %_ZN9__gnu_cxx27__exchange_and_add_dispatchEPii.exit.i.i.i.i.i.i.i.i

if.else.i.i.i.i.i.i.i.i.i:                        ; preds = %if.then7.i.i.i.i.i.i
  %43 = atomicrmw volatile add ptr %_M_weak_count.i.i.i.i.i.i.i.i, i32 -1 acq_rel, align 4
  br label %_ZN9__gnu_cxx27__exchange_and_add_dispatchEPii.exit.i.i.i.i.i.i.i.i

_ZN9__gnu_cxx27__exchange_and_add_dispatchEPii.exit.i.i.i.i.i.i.i.i: ; preds = %if.else.i.i.i.i.i.i.i.i.i, %if.then.i.i.i.i.i.i.i.i.i
  %retval.i.0.i.i.i.i.i.i.i.i = phi i32 [ %42, %if.then.i.i.i.i.i.i.i.i.i ], [ %43, %if.else.i.i.i.i.i.i.i.i.i ]
  %cmp.i.i.i.i.i.i.i.i = icmp eq i32 %retval.i.0.i.i.i.i.i.i.i.i, 1
  br i1 %cmp.i.i.i.i.i.i.i.i, label %if.end8.sink.split.i.i.i.i.i.i, label %if.end9.i.i.i.i.i

if.end8.sink.split.i.i.i.i.i.i:                   ; preds = %_ZN9__gnu_cxx27__exchange_and_add_dispatchEPii.exit.i.i.i.i.i.i.i.i, %if.then.i.i.i.i.i.i
  %vtable2.i.i.i.i.i.i.i.i = load ptr, ptr %34, align 8
  %vfn3.i.i.i.i.i.i.i.i = getelementptr inbounds ptr, ptr %vtable2.i.i.i.i.i.i.i.i, i64 3
  %44 = load ptr, ptr %vfn3.i.i.i.i.i.i.i.i, align 8
  call void %44(ptr noundef nonnull align 8 dereferenceable(16) %34) #21
  br label %if.end9.i.i.i.i.i

if.end9.i.i.i.i.i:                                ; preds = %if.end8.sink.split.i.i.i.i.i.i, %_ZN9__gnu_cxx27__exchange_and_add_dispatchEPii.exit.i.i.i.i.i.i.i.i, %_ZN9__gnu_cxx27__exchange_and_add_dispatchEPii.exit.i.i.i.i.i.i, %if.end.i.i.i.i.i
  store ptr %29, ptr %_M_refcount.i.i.i.i, align 8
  %.pr = load ptr, ptr %_M_refcount3.i.i.i.i, align 8
  br label %_ZN7testing8internal15ExpectationBase15set_cardinalityERKNS_11CardinalityE.exit

_ZN7testing8internal15ExpectationBase15set_cardinalityERKNS_11CardinalityE.exit: ; preds = %if.then17, %if.end9.i.i.i.i.i
  %45 = phi ptr [ %29, %if.then17 ], [ %.pr, %if.end9.i.i.i.i.i ]
  %cmp.not.i.i.i.i = icmp eq ptr %45, null
  br i1 %cmp.not.i.i.i.i, label %if.end23, label %if.then.i.i.i.i25

if.then.i.i.i.i25:                                ; preds = %_ZN7testing8internal15ExpectationBase15set_cardinalityERKNS_11CardinalityE.exit
  %_M_use_count.i.i.i.i.i = getelementptr inbounds %"class.std::_Sp_counted_base", ptr %45, i64 0, i32 1
  %46 = load atomic i64, ptr %_M_use_count.i.i.i.i.i acquire, align 8
  %cmp.i.i.i.i.i = icmp eq i64 %46, 4294967297
  %47 = trunc i64 %46 to i32
  br i1 %cmp.i.i.i.i.i, label %if.then.i.i.i.i.i29, label %if.end.i.i.i.i.i26

if.then.i.i.i.i.i29:                              ; preds = %if.then.i.i.i.i25
  store i32 0, ptr %_M_use_count.i.i.i.i.i, align 8
  %_M_weak_count.i.i.i.i.i = getelementptr inbounds %"class.std::_Sp_counted_base", ptr %45, i64 0, i32 2
  store i32 0, ptr %_M_weak_count.i.i.i.i.i, align 4
  %vtable.i.i.i.i.i = load ptr, ptr %45, align 8
  %vfn.i.i.i.i.i = getelementptr inbounds ptr, ptr %vtable.i.i.i.i.i, i64 2
  %48 = load ptr, ptr %vfn.i.i.i.i.i, align 8
  call void %48(ptr noundef nonnull align 8 dereferenceable(16) %45) #21
  br label %if.end8.sink.split.i.i.i.i.i

if.end.i.i.i.i.i26:                               ; preds = %if.then.i.i.i.i25
  %49 = load i8, ptr @__libc_single_threaded, align 1
  %tobool.i.i.not.i.i.i.i.i = icmp eq i8 %49, 0
  br i1 %tobool.i.i.not.i.i.i.i.i, label %if.else.i.i.i.i.i.i, label %if.then.i.i.i.i.i.i27

if.then.i.i.i.i.i.i27:                            ; preds = %if.end.i.i.i.i.i26
  %add.i.i.i.i.i.i = add nsw i32 %47, -1
  store i32 %add.i.i.i.i.i.i, ptr %_M_use_count.i.i.i.i.i, align 4
  br label %_ZN9__gnu_cxx27__exchange_and_add_dispatchEPii.exit.i.i.i.i.i

if.else.i.i.i.i.i.i:                              ; preds = %if.end.i.i.i.i.i26
  %50 = atomicrmw volatile add ptr %_M_use_count.i.i.i.i.i, i32 -1 acq_rel, align 4
  br label %_ZN9__gnu_cxx27__exchange_and_add_dispatchEPii.exit.i.i.i.i.i

_ZN9__gnu_cxx27__exchange_and_add_dispatchEPii.exit.i.i.i.i.i: ; preds = %if.else.i.i.i.i.i.i, %if.then.i.i.i.i.i.i27
  %retval.i.0.i.i.i.i.i = phi i32 [ %47, %if.then.i.i.i.i.i.i27 ], [ %50, %if.else.i.i.i.i.i.i ]
  %cmp6.i.i.i.i.i = icmp eq i32 %retval.i.0.i.i.i.i.i, 1
  br i1 %cmp6.i.i.i.i.i, label %if.then7.i.i.i.i.i28, label %if.end23

if.then7.i.i.i.i.i28:                             ; preds = %_ZN9__gnu_cxx27__exchange_and_add_dispatchEPii.exit.i.i.i.i.i
  %vtable.i.i.i.i.i.i.i = load ptr, ptr %45, align 8
  %vfn.i.i.i.i.i.i.i = getelementptr inbounds ptr, ptr %vtable.i.i.i.i.i.i.i, i64 2
  %51 = load ptr, ptr %vfn.i.i.i.i.i.i.i, align 8
  call void %51(ptr noundef nonnull align 8 dereferenceable(16) %45) #21
  %_M_weak_count.i.i.i.i.i.i.i = getelementptr inbounds %"class.std::_Sp_counted_base", ptr %45, i64 0, i32 2
  %52 = load i8, ptr @__libc_single_threaded, align 1
  %tobool.i.i.not.i.i.i.i.i.i.i = icmp eq i8 %52, 0
  br i1 %tobool.i.i.not.i.i.i.i.i.i.i, label %if.else.i.i.i.i.i.i.i.i, label %if.then.i.i.i.i.i.i.i.i

if.then.i.i.i.i.i.i.i.i:                          ; preds = %if.then7.i.i.i.i.i28
  %53 = load i32, ptr %_M_weak_count.i.i.i.i.i.i.i, align 4
  %add.i.i.i.i.i.i.i.i = add nsw i32 %53, -1
  store i32 %add.i.i.i.i.i.i.i.i, ptr %_M_weak_count.i.i.i.i.i.i.i, align 4
  br label %_ZN9__gnu_cxx27__exchange_and_add_dispatchEPii.exit.i.i.i.i.i.i.i

if.else.i.i.i.i.i.i.i.i:                          ; preds = %if.then7.i.i.i.i.i28
  %54 = atomicrmw volatile add ptr %_M_weak_count.i.i.i.i.i.i.i, i32 -1 acq_rel, align 4
  br label %_ZN9__gnu_cxx27__exchange_and_add_dispatchEPii.exit.i.i.i.i.i.i.i

_ZN9__gnu_cxx27__exchange_and_add_dispatchEPii.exit.i.i.i.i.i.i.i: ; preds = %if.else.i.i.i.i.i.i.i.i, %if.then.i.i.i.i.i.i.i.i
  %retval.i.0.i.i.i.i.i.i.i = phi i32 [ %53, %if.then.i.i.i.i.i.i.i.i ], [ %54, %if.else.i.i.i.i.i.i.i.i ]
  %cmp.i.i.i.i.i.i.i = icmp eq i32 %retval.i.0.i.i.i.i.i.i.i, 1
  br i1 %cmp.i.i.i.i.i.i.i, label %if.end8.sink.split.i.i.i.i.i, label %if.end23

if.end8.sink.split.i.i.i.i.i:                     ; preds = %_ZN9__gnu_cxx27__exchange_and_add_dispatchEPii.exit.i.i.i.i.i.i.i, %if.then.i.i.i.i.i29
  %vtable2.i.i.i.i.i.i.i = load ptr, ptr %45, align 8
  %vfn3.i.i.i.i.i.i.i = getelementptr inbounds ptr, ptr %vtable2.i.i.i.i.i.i.i, i64 3
  %55 = load ptr, ptr %vfn3.i.i.i.i.i.i.i, align 8
  call void %55(ptr noundef nonnull align 8 dereferenceable(16) %45) #21
  br label %if.end23

if.end23:                                         ; preds = %if.end8.sink.split.i.i.i.i.i, %_ZN9__gnu_cxx27__exchange_and_add_dispatchEPii.exit.i.i.i.i.i.i.i, %_ZN9__gnu_cxx27__exchange_and_add_dispatchEPii.exit.i.i.i.i.i, %_ZN7testing8internal15ExpectationBase15set_cardinalityERKNS_11CardinalityE.exit, %_ZN7testing6ActionIFivEEaSERKS2_.exit
  call void @_ZNK7testing8internal15ExpectationBase25CheckActionCountIfNotDoneEv(ptr noundef nonnull align 8 dereferenceable(264) %this)
  ret ptr %this
}

; Function Attrs: mustprogress uwtable
define linkonce_odr dso_local void @_ZNK7testing8internal12ReturnActionIiEcvNS_6ActionIFT_DpT0_EEEIiJEvEEv(ptr noalias sret(%"class.testing::Action") align 8 %agg.result, ptr noundef nonnull align 4 dereferenceable(4) %this) local_unnamed_addr #3 comdat align 2 personality ptr @__gxx_personality_v0 {
entry:
  %__tmp.sroa.0.i.i.i.i.i = alloca { i64, i64 }, align 8
  %ref.tmp.i.i.i = alloca %"class.std::function", align 8
  %ref.tmp = alloca %"class.testing::internal::ReturnAction<int>::Impl", align 8
  call void @_ZN7testing8internal12ReturnActionIiE4ImplIiEC2ERKi(ptr noundef nonnull align 8 dereferenceable(16) %ref.tmp, ptr noundef nonnull align 4 dereferenceable(4) %this)
  call void @llvm.memset.p0.i64(ptr noundef nonnull align 8 dereferenceable(32) %agg.result, i8 0, i64 32, i1 false)
  call void @llvm.lifetime.start.p0(i64 32, ptr nonnull %ref.tmp.i.i.i)
  call void @llvm.memset.p0.i64(ptr noundef nonnull align 8 dereferenceable(32) %ref.tmp.i.i.i, i8 0, i64 32, i1 false)
  %call.i.i2.i.i.i1.i1 = invoke noalias noundef nonnull dereferenceable(16) ptr @_Znwm(i64 noundef 16) #23
          to label %call.i.i2.i.i.i1.i.noexc unwind label %lpad

call.i.i2.i.i.i1.i.noexc:                         ; preds = %entry
  %0 = load ptr, ptr %ref.tmp, align 8
  store ptr %0, ptr %call.i.i2.i.i.i1.i1, align 8
  %_M_refcount.i.i.i.i.i.i.i.i.i = getelementptr inbounds %"class.std::__shared_ptr.85", ptr %call.i.i2.i.i.i1.i1, i64 0, i32 1
  %_M_refcount3.i.i.i.i.i.i.i.i.i = getelementptr inbounds %"class.std::__shared_ptr.85", ptr %ref.tmp, i64 0, i32 1
  %1 = load ptr, ptr %_M_refcount3.i.i.i.i.i.i.i.i.i, align 8
  store ptr %1, ptr %_M_refcount.i.i.i.i.i.i.i.i.i, align 8
  %cmp.not.i.i.i.i.i.i.i.i.i.i = icmp eq ptr %1, null
  br i1 %cmp.not.i.i.i.i.i.i.i.i.i.i, label %_ZNSt8functionIFivEEC2IN7testing8internal12ReturnActionIiE4ImplIiEEvEEOT_.exit.i.i.i, label %if.then.i.i.i.i.i.i.i.i.i.i

if.then.i.i.i.i.i.i.i.i.i.i:                      ; preds = %call.i.i2.i.i.i1.i.noexc
  %_M_use_count.i.i.i.i.i.i.i.i.i.i.i = getelementptr inbounds %"class.std::_Sp_counted_base", ptr %1, i64 0, i32 1
  %2 = load i8, ptr @__libc_single_threaded, align 1
  %tobool.i.not.i.i.i.i.i.i.i.i.i.i.i = icmp eq i8 %2, 0
  br i1 %tobool.i.not.i.i.i.i.i.i.i.i.i.i.i, label %if.else.i.i.i.i.i.i.i.i.i.i.i.i, label %if.then.i.i.i.i.i.i.i.i.i.i.i.i

if.then.i.i.i.i.i.i.i.i.i.i.i.i:                  ; preds = %if.then.i.i.i.i.i.i.i.i.i.i
  %3 = load i32, ptr %_M_use_count.i.i.i.i.i.i.i.i.i.i.i, align 4
  %add.i.i.i.i.i.i.i.i.i.i.i.i = add nsw i32 %3, 1
  store i32 %add.i.i.i.i.i.i.i.i.i.i.i.i, ptr %_M_use_count.i.i.i.i.i.i.i.i.i.i.i, align 4
  br label %_ZNSt8functionIFivEEC2IN7testing8internal12ReturnActionIiE4ImplIiEEvEEOT_.exit.i.i.i

if.else.i.i.i.i.i.i.i.i.i.i.i.i:                  ; preds = %if.then.i.i.i.i.i.i.i.i.i.i
  %4 = atomicrmw volatile add ptr %_M_use_count.i.i.i.i.i.i.i.i.i.i.i, i32 1 acq_rel, align 4
  %_M_manager3.i.i.i.i.phi.trans.insert = getelementptr inbounds %"class.std::_Function_base", ptr %agg.result, i64 0, i32 1
  %.pre = load ptr, ptr %_M_manager3.i.i.i.i.phi.trans.insert, align 8
  %_M_invoker4.i.i.i.i.phi.trans.insert = getelementptr inbounds %"class.std::function", ptr %agg.result, i64 0, i32 1
  %.pre3 = load ptr, ptr %_M_invoker4.i.i.i.i.phi.trans.insert, align 8
  br label %_ZNSt8functionIFivEEC2IN7testing8internal12ReturnActionIiE4ImplIiEEvEEOT_.exit.i.i.i

_ZNSt8functionIFivEEC2IN7testing8internal12ReturnActionIiE4ImplIiEEvEEOT_.exit.i.i.i: ; preds = %if.else.i.i.i.i.i.i.i.i.i.i.i.i, %if.then.i.i.i.i.i.i.i.i.i.i.i.i, %call.i.i2.i.i.i1.i.noexc
  %5 = phi ptr [ %.pre3, %if.else.i.i.i.i.i.i.i.i.i.i.i.i ], [ null, %if.then.i.i.i.i.i.i.i.i.i.i.i.i ], [ null, %call.i.i2.i.i.i1.i.noexc ]
  %6 = phi ptr [ %.pre, %if.else.i.i.i.i.i.i.i.i.i.i.i.i ], [ null, %if.then.i.i.i.i.i.i.i.i.i.i.i.i ], [ null, %call.i.i2.i.i.i1.i.noexc ]
  %_M_invoker.i.i.i.i = getelementptr inbounds %"class.std::function", ptr %ref.tmp.i.i.i, i64 0, i32 1
  %_M_manager.i.i.i.i.i = getelementptr inbounds %"class.std::_Function_base", ptr %ref.tmp.i.i.i, i64 0, i32 1
  store ptr %call.i.i2.i.i.i1.i1, ptr %ref.tmp.i.i.i, align 8
  call void @llvm.lifetime.start.p0(i64 16, ptr nonnull %__tmp.sroa.0.i.i.i.i.i)
  call void @llvm.memcpy.p0.p0.i64(ptr noundef nonnull align 8 dereferenceable(16) %__tmp.sroa.0.i.i.i.i.i, ptr noundef nonnull align 8 dereferenceable(16) %ref.tmp.i.i.i, i64 16, i1 false)
  call void @llvm.memcpy.p0.p0.i64(ptr noundef nonnull align 8 dereferenceable(16) %ref.tmp.i.i.i, ptr noundef nonnull align 8 dereferenceable(16) %agg.result, i64 16, i1 false)
  call void @llvm.memcpy.p0.p0.i64(ptr noundef nonnull align 8 dereferenceable(16) %agg.result, ptr noundef nonnull align 8 dereferenceable(16) %__tmp.sroa.0.i.i.i.i.i, i64 16, i1 false)
  call void @llvm.lifetime.end.p0(i64 16, ptr nonnull %__tmp.sroa.0.i.i.i.i.i)
  %_M_manager3.i.i.i.i = getelementptr inbounds %"class.std::_Function_base", ptr %agg.result, i64 0, i32 1
  store ptr %6, ptr %_M_manager.i.i.i.i.i, align 8
  store ptr @_ZNSt17_Function_handlerIFivEN7testing8internal12ReturnActionIiE4ImplIiEEE10_M_managerERSt9_Any_dataRKS8_St18_Manager_operation, ptr %_M_manager3.i.i.i.i, align 8
  %_M_invoker4.i.i.i.i = getelementptr inbounds %"class.std::function", ptr %agg.result, i64 0, i32 1
  store ptr %5, ptr %_M_invoker.i.i.i.i, align 8
  store ptr @_ZNSt17_Function_handlerIFivEN7testing8internal12ReturnActionIiE4ImplIiEEE9_M_invokeERKSt9_Any_data, ptr %_M_invoker4.i.i.i.i, align 8
  %tobool.not.i.i.i.i.i = icmp eq ptr %6, null
  br i1 %tobool.not.i.i.i.i.i, label %invoke.cont, label %if.then.i.i.i.i.i

if.then.i.i.i.i.i:                                ; preds = %_ZNSt8functionIFivEEC2IN7testing8internal12ReturnActionIiE4ImplIiEEvEEOT_.exit.i.i.i
  %call.i.i.i.i.i = invoke noundef zeroext i1 %6(ptr noundef nonnull align 8 dereferenceable(16) %ref.tmp.i.i.i, ptr noundef nonnull align 8 dereferenceable(16) %ref.tmp.i.i.i, i32 noundef 3)
          to label %invoke.cont unwind label %terminate.lpad.i.i.i.i.i

terminate.lpad.i.i.i.i.i:                         ; preds = %if.then.i.i.i.i.i
  %7 = landingpad { ptr, i32 }
          catch ptr null
  %8 = extractvalue { ptr, i32 } %7, 0
  call void @__clang_call_terminate(ptr %8) #24
  unreachable

invoke.cont:                                      ; preds = %if.then.i.i.i.i.i, %_ZNSt8functionIFivEEC2IN7testing8internal12ReturnActionIiE4ImplIiEEvEEOT_.exit.i.i.i
  call void @llvm.lifetime.end.p0(i64 32, ptr nonnull %ref.tmp.i.i.i)
  %9 = load ptr, ptr %_M_refcount3.i.i.i.i.i.i.i.i.i, align 8
  %cmp.not.i.i.i.i = icmp eq ptr %9, null
  br i1 %cmp.not.i.i.i.i, label %_ZN7testing8internal12ReturnActionIiE4ImplIiED2Ev.exit, label %if.then.i.i.i.i

if.then.i.i.i.i:                                  ; preds = %invoke.cont
  %_M_use_count.i.i.i.i.i = getelementptr inbounds %"class.std::_Sp_counted_base", ptr %9, i64 0, i32 1
  %10 = load atomic i64, ptr %_M_use_count.i.i.i.i.i acquire, align 8
  %cmp.i.i.i.i.i = icmp eq i64 %10, 4294967297
  %11 = trunc i64 %10 to i32
  br i1 %cmp.i.i.i.i.i, label %if.then.i.i.i.i.i2, label %if.end.i.i.i.i.i

if.then.i.i.i.i.i2:                               ; preds = %if.then.i.i.i.i
  store i32 0, ptr %_M_use_count.i.i.i.i.i, align 8
  %_M_weak_count.i.i.i.i.i = getelementptr inbounds %"class.std::_Sp_counted_base", ptr %9, i64 0, i32 2
  store i32 0, ptr %_M_weak_count.i.i.i.i.i, align 4
  %vtable.i.i.i.i.i = load ptr, ptr %9, align 8
  %vfn.i.i.i.i.i = getelementptr inbounds ptr, ptr %vtable.i.i.i.i.i, i64 2
  %12 = load ptr, ptr %vfn.i.i.i.i.i, align 8
  call void %12(ptr noundef nonnull align 8 dereferenceable(16) %9) #21
  br label %if.end8.sink.split.i.i.i.i.i

if.end.i.i.i.i.i:                                 ; preds = %if.then.i.i.i.i
  %13 = load i8, ptr @__libc_single_threaded, align 1
  %tobool.i.i.not.i.i.i.i.i = icmp eq i8 %13, 0
  br i1 %tobool.i.i.not.i.i.i.i.i, label %if.else.i.i.i.i.i.i, label %if.then.i.i.i.i.i.i

if.then.i.i.i.i.i.i:                              ; preds = %if.end.i.i.i.i.i
  %add.i.i.i.i.i.i = add nsw i32 %11, -1
  store i32 %add.i.i.i.i.i.i, ptr %_M_use_count.i.i.i.i.i, align 4
  br label %_ZN9__gnu_cxx27__exchange_and_add_dispatchEPii.exit.i.i.i.i.i

if.else.i.i.i.i.i.i:                              ; preds = %if.end.i.i.i.i.i
  %14 = atomicrmw volatile add ptr %_M_use_count.i.i.i.i.i, i32 -1 acq_rel, align 4
  br label %_ZN9__gnu_cxx27__exchange_and_add_dispatchEPii.exit.i.i.i.i.i

_ZN9__gnu_cxx27__exchange_and_add_dispatchEPii.exit.i.i.i.i.i: ; preds = %if.else.i.i.i.i.i.i, %if.then.i.i.i.i.i.i
  %retval.i.0.i.i.i.i.i = phi i32 [ %11, %if.then.i.i.i.i.i.i ], [ %14, %if.else.i.i.i.i.i.i ]
  %cmp6.i.i.i.i.i = icmp eq i32 %retval.i.0.i.i.i.i.i, 1
  br i1 %cmp6.i.i.i.i.i, label %if.then7.i.i.i.i.i, label %_ZN7testing8internal12ReturnActionIiE4ImplIiED2Ev.exit

if.then7.i.i.i.i.i:                               ; preds = %_ZN9__gnu_cxx27__exchange_and_add_dispatchEPii.exit.i.i.i.i.i
  %vtable.i.i.i.i.i.i.i = load ptr, ptr %9, align 8
  %vfn.i.i.i.i.i.i.i = getelementptr inbounds ptr, ptr %vtable.i.i.i.i.i.i.i, i64 2
  %15 = load ptr, ptr %vfn.i.i.i.i.i.i.i, align 8
  call void %15(ptr noundef nonnull align 8 dereferenceable(16) %9) #21
  %_M_weak_count.i.i.i.i.i.i.i = getelementptr inbounds %"class.std::_Sp_counted_base", ptr %9, i64 0, i32 2
  %16 = load i8, ptr @__libc_single_threaded, align 1
  %tobool.i.i.not.i.i.i.i.i.i.i = icmp eq i8 %16, 0
  br i1 %tobool.i.i.not.i.i.i.i.i.i.i, label %if.else.i.i.i.i.i.i.i.i, label %if.then.i.i.i.i.i.i.i.i

if.then.i.i.i.i.i.i.i.i:                          ; preds = %if.then7.i.i.i.i.i
  %17 = load i32, ptr %_M_weak_count.i.i.i.i.i.i.i, align 4
  %add.i.i.i.i.i.i.i.i = add nsw i32 %17, -1
  store i32 %add.i.i.i.i.i.i.i.i, ptr %_M_weak_count.i.i.i.i.i.i.i, align 4
  br label %_ZN9__gnu_cxx27__exchange_and_add_dispatchEPii.exit.i.i.i.i.i.i.i

if.else.i.i.i.i.i.i.i.i:                          ; preds = %if.then7.i.i.i.i.i
  %18 = atomicrmw volatile add ptr %_M_weak_count.i.i.i.i.i.i.i, i32 -1 acq_rel, align 4
  br label %_ZN9__gnu_cxx27__exchange_and_add_dispatchEPii.exit.i.i.i.i.i.i.i

_ZN9__gnu_cxx27__exchange_and_add_dispatchEPii.exit.i.i.i.i.i.i.i: ; preds = %if.else.i.i.i.i.i.i.i.i, %if.then.i.i.i.i.i.i.i.i
  %retval.i.0.i.i.i.i.i.i.i = phi i32 [ %17, %if.then.i.i.i.i.i.i.i.i ], [ %18, %if.else.i.i.i.i.i.i.i.i ]
  %cmp.i.i.i.i.i.i.i = icmp eq i32 %retval.i.0.i.i.i.i.i.i.i, 1
  br i1 %cmp.i.i.i.i.i.i.i, label %if.end8.sink.split.i.i.i.i.i, label %_ZN7testing8internal12ReturnActionIiE4ImplIiED2Ev.exit

if.end8.sink.split.i.i.i.i.i:                     ; preds = %_ZN9__gnu_cxx27__exchange_and_add_dispatchEPii.exit.i.i.i.i.i.i.i, %if.then.i.i.i.i.i2
  %vtable2.i.i.i.i.i.i.i = load ptr, ptr %9, align 8
  %vfn3.i.i.i.i.i.i.i = getelementptr inbounds ptr, ptr %vtable2.i.i.i.i.i.i.i, i64 3
  %19 = load ptr, ptr %vfn3.i.i.i.i.i.i.i, align 8
  call void %19(ptr noundef nonnull align 8 dereferenceable(16) %9) #21
  br label %_ZN7testing8internal12ReturnActionIiE4ImplIiED2Ev.exit

_ZN7testing8internal12ReturnActionIiE4ImplIiED2Ev.exit: ; preds = %invoke.cont, %_ZN9__gnu_cxx27__exchange_and_add_dispatchEPii.exit.i.i.i.i.i, %_ZN9__gnu_cxx27__exchange_and_add_dispatchEPii.exit.i.i.i.i.i.i.i, %if.end8.sink.split.i.i.i.i.i
  ret void

lpad:                                             ; preds = %entry
  %20 = landingpad { ptr, i32 }
          cleanup
  call void @_ZN7testing8internal12ReturnActionIiE4ImplIiED2Ev(ptr noundef nonnull align 8 dereferenceable(16) %ref.tmp) #21
  resume { ptr, i32 } %20
}

; Function Attrs: mustprogress uwtable
define linkonce_odr dso_local noundef nonnull align 8 dereferenceable(352) ptr @_ZN7testing8internal8MockSpecIFliEE18InternalExpectedAtEPKciS5_S5_(ptr noundef nonnull align 8 dereferenceable(32) %this, ptr noundef %file, i32 noundef %line, ptr noundef %obj, ptr noundef %call) local_unnamed_addr #3 comdat align 2 personality ptr @__gxx_personality_v0 {
entry:
  %source_text = alloca %"class.std::__cxx11::basic_string", align 8
  %ref.tmp = alloca %"class.std::__cxx11::basic_string", align 8
  %ref.tmp2 = alloca %"class.std::__cxx11::basic_string", align 8
  %ref.tmp3 = alloca %"class.std::__cxx11::basic_string", align 8
  %ref.tmp4 = alloca %"class.std::__cxx11::basic_string", align 8
  %ref.tmp5 = alloca %"class.std::allocator", align 1
  %ref.tmp17 = alloca %"class.std::__cxx11::basic_string", align 8
  call void @_ZNSaIcEC1Ev(ptr noundef nonnull align 1 dereferenceable(1) %ref.tmp5) #21
  %call.i10 = invoke noundef ptr @_ZNSt7__cxx1112basic_stringIcSt11char_traitsIcESaIcEE13_M_local_dataEv(ptr noundef nonnull align 8 dereferenceable(32) %ref.tmp4)
          to label %call.i.noexc unwind label %lpad

call.i.noexc:                                     ; preds = %entry
  invoke void @_ZNSt7__cxx1112basic_stringIcSt11char_traitsIcESaIcEE12_Alloc_hiderC1EPcRKS3_(ptr noundef nonnull align 8 dereferenceable(8) %ref.tmp4, ptr noundef %call.i10, ptr noundef nonnull align 1 dereferenceable(1) %ref.tmp5)
          to label %.noexc unwind label %lpad

.noexc:                                           ; preds = %call.i.noexc
  invoke void @_ZNSt7__cxx1112basic_stringIcSt11char_traitsIcESaIcEE12_M_constructIPKcEEvT_S8_St20forward_iterator_tag(ptr noundef nonnull align 8 dereferenceable(32) %ref.tmp4, ptr noundef nonnull @.str.89, ptr noundef nonnull getelementptr inbounds ([13 x i8], ptr @.str.89, i64 0, i64 12))
          to label %invoke.cont unwind label %lpad.i

lpad.i:                                           ; preds = %.noexc
  %0 = landingpad { ptr, i32 }
          cleanup
  call void @_ZNSaIcED2Ev(ptr noundef nonnull align 1 dereferenceable(1) %ref.tmp4) #21
  br label %ehcleanup16

invoke.cont:                                      ; preds = %.noexc
  %call.i12 = invoke noundef nonnull align 8 dereferenceable(32) ptr @_ZNSt7__cxx1112basic_stringIcSt11char_traitsIcESaIcEE6appendEPKc(ptr noundef nonnull align 8 dereferenceable(32) %ref.tmp4, ptr noundef %obj)
          to label %invoke.cont7 unwind label %lpad6

invoke.cont7:                                     ; preds = %invoke.cont
  call void @_ZNSt7__cxx1112basic_stringIcSt11char_traitsIcESaIcEEC1EOS4_(ptr noundef nonnull align 8 dereferenceable(32) %ref.tmp3, ptr noundef nonnull align 8 dereferenceable(32) %call.i12) #21
  %call.i14 = invoke noundef nonnull align 8 dereferenceable(32) ptr @_ZNSt7__cxx1112basic_stringIcSt11char_traitsIcESaIcEE6appendEPKc(ptr noundef nonnull align 8 dereferenceable(32) %ref.tmp3, ptr noundef nonnull @.str.63)
          to label %invoke.cont9 unwind label %lpad8

invoke.cont9:                                     ; preds = %invoke.cont7
  call void @_ZNSt7__cxx1112basic_stringIcSt11char_traitsIcESaIcEEC1EOS4_(ptr noundef nonnull align 8 dereferenceable(32) %ref.tmp2, ptr noundef nonnull align 8 dereferenceable(32) %call.i14) #21
  %call.i17 = invoke noundef nonnull align 8 dereferenceable(32) ptr @_ZNSt7__cxx1112basic_stringIcSt11char_traitsIcESaIcEE6appendEPKc(ptr noundef nonnull align 8 dereferenceable(32) %ref.tmp2, ptr noundef %call)
          to label %invoke.cont11 unwind label %lpad10

invoke.cont11:                                    ; preds = %invoke.cont9
  call void @_ZNSt7__cxx1112basic_stringIcSt11char_traitsIcESaIcEEC1EOS4_(ptr noundef nonnull align 8 dereferenceable(32) %ref.tmp, ptr noundef nonnull align 8 dereferenceable(32) %call.i17) #21
  %call.i20 = invoke noundef nonnull align 8 dereferenceable(32) ptr @_ZNSt7__cxx1112basic_stringIcSt11char_traitsIcESaIcEE6appendEPKc(ptr noundef nonnull align 8 dereferenceable(32) %ref.tmp, ptr noundef nonnull @.str.43)
          to label %invoke.cont13 unwind label %lpad12

invoke.cont13:                                    ; preds = %invoke.cont11
  call void @_ZNSt7__cxx1112basic_stringIcSt11char_traitsIcESaIcEEC1EOS4_(ptr noundef nonnull align 8 dereferenceable(32) %source_text, ptr noundef nonnull align 8 dereferenceable(32) %call.i20) #21
  call void @_ZNSt7__cxx1112basic_stringIcSt11char_traitsIcESaIcEED1Ev(ptr noundef nonnull align 8 dereferenceable(32) %ref.tmp) #21
  call void @_ZNSt7__cxx1112basic_stringIcSt11char_traitsIcESaIcEED1Ev(ptr noundef nonnull align 8 dereferenceable(32) %ref.tmp2) #21
  call void @_ZNSt7__cxx1112basic_stringIcSt11char_traitsIcESaIcEED1Ev(ptr noundef nonnull align 8 dereferenceable(32) %ref.tmp3) #21
  call void @_ZNSt7__cxx1112basic_stringIcSt11char_traitsIcESaIcEED1Ev(ptr noundef nonnull align 8 dereferenceable(32) %ref.tmp4) #21
  call void @_ZNSaIcED1Ev(ptr noundef nonnull align 1 dereferenceable(1) %ref.tmp5) #21
  invoke void @_ZNSt7__cxx1112basic_stringIcSt11char_traitsIcESaIcEEC1ERKS4_(ptr noundef nonnull align 8 dereferenceable(32) %ref.tmp17, ptr noundef nonnull align 8 dereferenceable(32) %source_text)
          to label %.noexc23 unwind label %lpad18

.noexc23:                                         ; preds = %invoke.cont13
  %call.i = invoke noundef nonnull align 8 dereferenceable(32) ptr @_ZNSt7__cxx1112basic_stringIcSt11char_traitsIcESaIcEE6appendEPKc(ptr noundef nonnull align 8 dereferenceable(32) %ref.tmp17, ptr noundef nonnull @.str.90)
          to label %invoke.cont19 unwind label %lpad.i22

lpad.i22:                                         ; preds = %.noexc23
  %1 = landingpad { ptr, i32 }
          cleanup
  call void @_ZNSt7__cxx1112basic_stringIcSt11char_traitsIcESaIcEED1Ev(ptr noundef nonnull align 8 dereferenceable(32) %ref.tmp17) #21
  br label %ehcleanup25

invoke.cont19:                                    ; preds = %.noexc23
  invoke void @_ZN7testing8internal15LogWithLocationENS0_11LogSeverityEPKciRKNSt7__cxx1112basic_stringIcSt11char_traitsIcESaIcEEE(i32 noundef 0, ptr noundef %file, i32 noundef %line, ptr noundef nonnull align 8 dereferenceable(32) %ref.tmp17)
          to label %invoke.cont21 unwind label %lpad20

invoke.cont21:                                    ; preds = %invoke.cont19
  call void @_ZNSt7__cxx1112basic_stringIcSt11char_traitsIcESaIcEED1Ev(ptr noundef nonnull align 8 dereferenceable(32) %ref.tmp17) #21
  %2 = load ptr, ptr %this, align 8
  %matchers_ = getelementptr inbounds %"class.testing::internal::MockSpec.24", ptr %this, i64 0, i32 1
  %call24 = invoke noundef nonnull align 8 dereferenceable(352) ptr @_ZN7testing8internal14FunctionMockerIFliEE17AddNewExpectationEPKciRKNSt7__cxx1112basic_stringIcSt11char_traitsIcESaIcEEERKSt5tupleIJNS_7MatcherIiEEEE(ptr noundef nonnull align 8 dereferenceable(72) %2, ptr noundef %file, i32 noundef %line, ptr noundef nonnull align 8 dereferenceable(32) %source_text, ptr noundef nonnull align 8 dereferenceable(24) %matchers_)
          to label %invoke.cont23 unwind label %lpad18

invoke.cont23:                                    ; preds = %invoke.cont21
  call void @_ZNSt7__cxx1112basic_stringIcSt11char_traitsIcESaIcEED1Ev(ptr noundef nonnull align 8 dereferenceable(32) %source_text) #21
  ret ptr %call24

lpad:                                             ; preds = %call.i.noexc, %entry
  %3 = landingpad { ptr, i32 }
          cleanup
  br label %ehcleanup16

lpad6:                                            ; preds = %invoke.cont
  %4 = landingpad { ptr, i32 }
          cleanup
  br label %ehcleanup15

lpad8:                                            ; preds = %invoke.cont7
  %5 = landingpad { ptr, i32 }
          cleanup
  br label %ehcleanup14

lpad10:                                           ; preds = %invoke.cont9
  %6 = landingpad { ptr, i32 }
          cleanup
  br label %ehcleanup

lpad12:                                           ; preds = %invoke.cont11
  %7 = landingpad { ptr, i32 }
          cleanup
  call void @_ZNSt7__cxx1112basic_stringIcSt11char_traitsIcESaIcEED1Ev(ptr noundef nonnull align 8 dereferenceable(32) %ref.tmp) #21
  br label %ehcleanup

ehcleanup:                                        ; preds = %lpad12, %lpad10
  %.pn = phi { ptr, i32 } [ %7, %lpad12 ], [ %6, %lpad10 ]
  call void @_ZNSt7__cxx1112basic_stringIcSt11char_traitsIcESaIcEED1Ev(ptr noundef nonnull align 8 dereferenceable(32) %ref.tmp2) #21
  br label %ehcleanup14

ehcleanup14:                                      ; preds = %ehcleanup, %lpad8
  %.pn.pn = phi { ptr, i32 } [ %.pn, %ehcleanup ], [ %5, %lpad8 ]
  call void @_ZNSt7__cxx1112basic_stringIcSt11char_traitsIcESaIcEED1Ev(ptr noundef nonnull align 8 dereferenceable(32) %ref.tmp3) #21
  br label %ehcleanup15

ehcleanup15:                                      ; preds = %ehcleanup14, %lpad6
  %.pn.pn.pn = phi { ptr, i32 } [ %.pn.pn, %ehcleanup14 ], [ %4, %lpad6 ]
  call void @_ZNSt7__cxx1112basic_stringIcSt11char_traitsIcESaIcEED1Ev(ptr noundef nonnull align 8 dereferenceable(32) %ref.tmp4) #21
  br label %ehcleanup16

ehcleanup16:                                      ; preds = %lpad, %lpad.i, %ehcleanup15
  %.pn.pn.pn.pn = phi { ptr, i32 } [ %.pn.pn.pn, %ehcleanup15 ], [ %3, %lpad ], [ %0, %lpad.i ]
  call void @_ZNSaIcED1Ev(ptr noundef nonnull align 1 dereferenceable(1) %ref.tmp5) #21
  br label %eh.resume

lpad18:                                           ; preds = %invoke.cont13, %invoke.cont21
  %8 = landingpad { ptr, i32 }
          cleanup
  br label %ehcleanup25

lpad20:                                           ; preds = %invoke.cont19
  %9 = landingpad { ptr, i32 }
          cleanup
  call void @_ZNSt7__cxx1112basic_stringIcSt11char_traitsIcESaIcEED1Ev(ptr noundef nonnull align 8 dereferenceable(32) %ref.tmp17) #21
  br label %ehcleanup25

ehcleanup25:                                      ; preds = %lpad18, %lpad.i22, %lpad20
  %.pn7 = phi { ptr, i32 } [ %9, %lpad20 ], [ %8, %lpad18 ], [ %1, %lpad.i22 ]
  call void @_ZNSt7__cxx1112basic_stringIcSt11char_traitsIcESaIcEED1Ev(ptr noundef nonnull align 8 dereferenceable(32) %source_text) #21
  br label %eh.resume

eh.resume:                                        ; preds = %ehcleanup25, %ehcleanup16
  %.pn7.pn = phi { ptr, i32 } [ %.pn7, %ehcleanup25 ], [ %.pn.pn.pn.pn, %ehcleanup16 ]
  resume { ptr, i32 } %.pn7.pn
}

; Function Attrs: mustprogress uwtable
define linkonce_odr dso_local noundef nonnull align 8 dereferenceable(352) ptr @_ZN7testing8internal16TypedExpectationIFliEE8WillOnceENS_10OnceActionIS2_EE(ptr noundef nonnull align 8 dereferenceable(352) %this, ptr noundef %once_action) local_unnamed_addr #3 comdat align 2 personality ptr @__gxx_personality_v0 {
entry:
  %agg.tmp = alloca %"class.testing::Action.33", align 8
  %ref.tmp = alloca %"struct.testing::internal::TypedExpectation<long (int)>::ActionAdaptor", align 8
  tail call void @llvm.experimental.noalias.scope.decl(metadata !12)
  %call5.i.i.i2.i.i.i.i = tail call noalias noundef nonnull dereferenceable(48) ptr @_Znwm(i64 noundef 48) #23, !noalias !12
  %_M_use_count.i.i.i.i.i.i = getelementptr inbounds %"class.std::_Sp_counted_base", ptr %call5.i.i.i2.i.i.i.i, i64 0, i32 1
  store i32 1, ptr %_M_use_count.i.i.i.i.i.i, align 8, !noalias !12
  %_M_weak_count.i.i.i.i.i.i = getelementptr inbounds %"class.std::_Sp_counted_base", ptr %call5.i.i.i2.i.i.i.i, i64 0, i32 2
  store i32 1, ptr %_M_weak_count.i.i.i.i.i.i, align 4, !noalias !12
  store ptr getelementptr inbounds ({ [7 x ptr] }, ptr @_ZTVSt23_Sp_counted_ptr_inplaceIN7testing10OnceActionIFliEEESaIvELN9__gnu_cxx12_Lock_policyE2EE, i64 0, inrange i32 0, i64 2), ptr %call5.i.i.i2.i.i.i.i, align 8, !noalias !12
  %_M_impl.i.i.i.i.i.i = getelementptr inbounds %"class.std::_Sp_counted_ptr_inplace", ptr %call5.i.i.i2.i.i.i.i, i64 0, i32 1
  %_M_invoker.i.i.i.i.i.i.i.i.i = getelementptr inbounds %"class.std::_Sp_counted_ptr_inplace", ptr %call5.i.i.i2.i.i.i.i, i64 0, i32 1, i32 0, i32 0, i32 0, i64 24
  %_M_invoker2.i.i.i.i.i.i.i.i.i = getelementptr inbounds %"class.std::function.34", ptr %once_action, i64 0, i32 1
  tail call void @llvm.memset.p0.i64(ptr noundef nonnull align 8 dereferenceable(24) %_M_impl.i.i.i.i.i.i, i8 0, i64 24, i1 false), !noalias !12
  %0 = load ptr, ptr %_M_invoker2.i.i.i.i.i.i.i.i.i, align 8, !noalias !12
  store ptr %0, ptr %_M_invoker.i.i.i.i.i.i.i.i.i, align 8, !noalias !12
  %_M_manager.i.i.i.i.i.i.i.i.i.i.i = getelementptr inbounds %"class.std::_Function_base", ptr %once_action, i64 0, i32 1
  %1 = load ptr, ptr %_M_manager.i.i.i.i.i.i.i.i.i.i.i, align 8, !noalias !12
  %tobool.not.i.i.not.i.i.i.i.i.i.i.i.i = icmp eq ptr %1, null
  br i1 %tobool.not.i.i.not.i.i.i.i.i.i.i.i.i, label %_ZSt11make_sharedIN7testing10OnceActionIFliEEEJS3_EESt10shared_ptrINSt9enable_ifIXntsr8is_arrayIT_EE5valueES6_E4typeEEDpOT0_.exit, label %if.then.i.i.i.i.i.i.i.i.i

if.then.i.i.i.i.i.i.i.i.i:                        ; preds = %entry
  %_M_manager.i.i.i.i.i.i.i.i.i.i = getelementptr inbounds %"class.std::_Sp_counted_ptr_inplace", ptr %call5.i.i.i2.i.i.i.i, i64 0, i32 1, i32 0, i32 0, i32 0, i64 16
  tail call void @llvm.memcpy.p0.p0.i64(ptr noundef nonnull align 8 dereferenceable(16) %_M_impl.i.i.i.i.i.i, ptr noundef nonnull align 8 dereferenceable(16) %once_action, i64 16, i1 false), !noalias !12
  store ptr %1, ptr %_M_manager.i.i.i.i.i.i.i.i.i.i, align 8, !noalias !12
  tail call void @llvm.memset.p0.i64(ptr noundef nonnull align 8 dereferenceable(16) %_M_manager.i.i.i.i.i.i.i.i.i.i.i, i8 0, i64 16, i1 false), !noalias !12
  br label %_ZSt11make_sharedIN7testing10OnceActionIFliEEEJS3_EESt10shared_ptrINSt9enable_ifIXntsr8is_arrayIT_EE5valueES6_E4typeEEDpOT0_.exit

_ZSt11make_sharedIN7testing10OnceActionIFliEEEJS3_EESt10shared_ptrINSt9enable_ifIXntsr8is_arrayIT_EE5valueES6_E4typeEEDpOT0_.exit: ; preds = %entry, %if.then.i.i.i.i.i.i.i.i.i
  %_M_refcount.i.i.i = getelementptr inbounds %"class.std::__shared_ptr.99", ptr %ref.tmp, i64 0, i32 1
  store ptr %call5.i.i.i2.i.i.i.i, ptr %_M_refcount.i.i.i, align 8, !alias.scope !12
  store ptr %_M_impl.i.i.i.i.i.i, ptr %ref.tmp, align 8, !alias.scope !12
  call void @llvm.memset.p0.i64(ptr noundef nonnull align 8 dereferenceable(32) %agg.tmp, i8 0, i64 32, i1 false)
  %call.i.i2.i.i.i1.i2 = invoke noalias noundef nonnull dereferenceable(16) ptr @_Znwm(i64 noundef 16) #23
          to label %invoke.cont unwind label %lpad

invoke.cont:                                      ; preds = %_ZSt11make_sharedIN7testing10OnceActionIFliEEEJS3_EESt10shared_ptrINSt9enable_ifIXntsr8is_arrayIT_EE5valueES6_E4typeEEDpOT0_.exit
  store ptr %_M_impl.i.i.i.i.i.i, ptr %call.i.i2.i.i.i1.i2, align 8
  %_M_refcount.i.i.i.i.i.i.i.i.i = getelementptr inbounds %"class.std::__shared_ptr.99", ptr %call.i.i2.i.i.i1.i2, i64 0, i32 1
  store ptr null, ptr %_M_refcount.i.i.i, align 8
  store ptr %call5.i.i.i2.i.i.i.i, ptr %_M_refcount.i.i.i.i.i.i.i.i.i, align 8
  store ptr null, ptr %ref.tmp, align 8
  store ptr %call.i.i2.i.i.i1.i2, ptr %agg.tmp, align 8
  %ref.tmp.i.i.i.sroa.4.0.agg.tmp.sroa_idx = getelementptr inbounds i8, ptr %agg.tmp, i64 8
  store i64 0, ptr %ref.tmp.i.i.i.sroa.4.0.agg.tmp.sroa_idx, align 8
  %_M_manager3.i.i.i.i = getelementptr inbounds %"class.std::_Function_base", ptr %agg.tmp, i64 0, i32 1
  store ptr @_ZNSt17_Function_handlerIFliEN7testing8internal16TypedExpectationIS0_E13ActionAdaptorEE10_M_managerERSt9_Any_dataRKS7_St18_Manager_operation, ptr %_M_manager3.i.i.i.i, align 8
  %_M_invoker4.i.i.i.i = getelementptr inbounds %"class.std::function.34", ptr %agg.tmp, i64 0, i32 1
  store ptr @_ZNSt17_Function_handlerIFliEN7testing8internal16TypedExpectationIS0_E13ActionAdaptorEE9_M_invokeERKSt9_Any_dataOi, ptr %_M_invoker4.i.i.i.i, align 8
  %call = invoke noundef nonnull align 8 dereferenceable(352) ptr @_ZN7testing8internal16TypedExpectationIFliEE8WillOnceITpTnRiJEvEERS3_NS_6ActionIS2_EE(ptr noundef nonnull align 8 dereferenceable(352) %this, ptr noundef nonnull %agg.tmp)
          to label %invoke.cont4 unwind label %lpad3

invoke.cont4:                                     ; preds = %invoke.cont
  %2 = load ptr, ptr %_M_manager3.i.i.i.i, align 8
  %tobool.not.i.i.i = icmp eq ptr %2, null
  br i1 %tobool.not.i.i.i, label %_ZN7testing8internal16TypedExpectationIFliEE13ActionAdaptorD2Ev.exit, label %if.then.i.i.i

if.then.i.i.i:                                    ; preds = %invoke.cont4
  %call.i.i.i = invoke noundef zeroext i1 %2(ptr noundef nonnull align 8 dereferenceable(16) %agg.tmp, ptr noundef nonnull align 8 dereferenceable(16) %agg.tmp, i32 noundef 3)
          to label %_ZN7testing8internal16TypedExpectationIFliEE13ActionAdaptorD2Ev.exit unwind label %terminate.lpad.i.i.i

terminate.lpad.i.i.i:                             ; preds = %if.then.i.i.i
  %3 = landingpad { ptr, i32 }
          catch ptr null
  %4 = extractvalue { ptr, i32 } %3, 0
  call void @__clang_call_terminate(ptr %4) #24
  unreachable

_ZN7testing8internal16TypedExpectationIFliEE13ActionAdaptorD2Ev.exit: ; preds = %if.then.i.i.i, %invoke.cont4
  ret ptr %call

lpad:                                             ; preds = %_ZSt11make_sharedIN7testing10OnceActionIFliEEEJS3_EESt10shared_ptrINSt9enable_ifIXntsr8is_arrayIT_EE5valueES6_E4typeEEDpOT0_.exit
  %5 = landingpad { ptr, i32 }
          cleanup
  br label %ehcleanup

lpad3:                                            ; preds = %invoke.cont
  %6 = landingpad { ptr, i32 }
          cleanup
  %7 = load ptr, ptr %_M_manager3.i.i.i.i, align 8
  %tobool.not.i.i.i6 = icmp eq ptr %7, null
  br i1 %tobool.not.i.i.i6, label %ehcleanup, label %if.then.i.i.i7

if.then.i.i.i7:                                   ; preds = %lpad3
  %call.i.i.i8 = invoke noundef zeroext i1 %7(ptr noundef nonnull align 8 dereferenceable(16) %agg.tmp, ptr noundef nonnull align 8 dereferenceable(16) %agg.tmp, i32 noundef 3)
          to label %ehcleanup unwind label %terminate.lpad.i.i.i9

terminate.lpad.i.i.i9:                            ; preds = %if.then.i.i.i7
  %8 = landingpad { ptr, i32 }
          catch ptr null
  %9 = extractvalue { ptr, i32 } %8, 0
  call void @__clang_call_terminate(ptr %9) #24
  unreachable

ehcleanup:                                        ; preds = %if.then.i.i.i7, %lpad3, %lpad
  %.pn = phi { ptr, i32 } [ %5, %lpad ], [ %6, %lpad3 ], [ %6, %if.then.i.i.i7 ]
  call void @_ZN7testing8internal16TypedExpectationIFliEE13ActionAdaptorD2Ev(ptr noundef nonnull align 8 dereferenceable(16) %ref.tmp) #21
  resume { ptr, i32 } %.pn
}

; Function Attrs: mustprogress uwtable
define linkonce_odr dso_local void @_ZNO7testing8internal12ReturnActionIiEcvNS_10OnceActionIFT_DpT0_EEEIlJiEvEEv(ptr noalias sret(%"class.testing::OnceAction") align 8 %agg.result, ptr noundef nonnull align 4 dereferenceable(4) %this) local_unnamed_addr #3 comdat align 2 personality ptr @__gxx_personality_v0 {
entry:
  %ref.tmp = alloca %"class.testing::internal::ReturnAction<int>::Impl.107", align 8
  call void @_ZN7testing8internal12ReturnActionIiE4ImplIlEC2EOi(ptr noundef nonnull align 8 dereferenceable(16) %ref.tmp, ptr noundef nonnull align 4 dereferenceable(4) %this)
  invoke void @_ZN7testing10OnceActionIFliEEC2INS_8internal12ReturnActionIiE4ImplIlEETnNSt9enable_ifIXsr8internal11conjunctionINS4_8negationISt7is_sameIS2_NSt5decayIT_E4typeEEEENSA_INS4_11conjunctionIJSt16is_constructibleISF_JSD_EENS4_18is_callable_r_implIvlSF_JiEEEEEEEENSI_IJSK_NSL_IvlSF_JEEEEEEEE5valueEiE4typeELi0EEEOSD_(ptr noundef nonnull align 8 dereferenceable(32) %agg.result, ptr noundef nonnull align 8 dereferenceable(16) %ref.tmp)
          to label %invoke.cont unwind label %lpad

invoke.cont:                                      ; preds = %entry
  %_M_refcount.i.i.i = getelementptr inbounds %"class.std::__shared_ptr.109", ptr %ref.tmp, i64 0, i32 1
  %0 = load ptr, ptr %_M_refcount.i.i.i, align 8
  %cmp.not.i.i.i.i = icmp eq ptr %0, null
  br i1 %cmp.not.i.i.i.i, label %_ZN7testing8internal12ReturnActionIiE4ImplIlED2Ev.exit, label %if.then.i.i.i.i

if.then.i.i.i.i:                                  ; preds = %invoke.cont
  %_M_use_count.i.i.i.i.i = getelementptr inbounds %"class.std::_Sp_counted_base", ptr %0, i64 0, i32 1
  %1 = load atomic i64, ptr %_M_use_count.i.i.i.i.i acquire, align 8
  %cmp.i.i.i.i.i = icmp eq i64 %1, 4294967297
  %2 = trunc i64 %1 to i32
  br i1 %cmp.i.i.i.i.i, label %if.then.i.i.i.i.i, label %if.end.i.i.i.i.i

if.then.i.i.i.i.i:                                ; preds = %if.then.i.i.i.i
  store i32 0, ptr %_M_use_count.i.i.i.i.i, align 8
  %_M_weak_count.i.i.i.i.i = getelementptr inbounds %"class.std::_Sp_counted_base", ptr %0, i64 0, i32 2
  store i32 0, ptr %_M_weak_count.i.i.i.i.i, align 4
  %vtable.i.i.i.i.i = load ptr, ptr %0, align 8
  %vfn.i.i.i.i.i = getelementptr inbounds ptr, ptr %vtable.i.i.i.i.i, i64 2
  %3 = load ptr, ptr %vfn.i.i.i.i.i, align 8
  call void %3(ptr noundef nonnull align 8 dereferenceable(16) %0) #21
  br label %if.end8.sink.split.i.i.i.i.i

if.end.i.i.i.i.i:                                 ; preds = %if.then.i.i.i.i
  %4 = load i8, ptr @__libc_single_threaded, align 1
  %tobool.i.i.not.i.i.i.i.i = icmp eq i8 %4, 0
  br i1 %tobool.i.i.not.i.i.i.i.i, label %if.else.i.i.i.i.i.i, label %if.then.i.i.i.i.i.i

if.then.i.i.i.i.i.i:                              ; preds = %if.end.i.i.i.i.i
  %add.i.i.i.i.i.i = add nsw i32 %2, -1
  store i32 %add.i.i.i.i.i.i, ptr %_M_use_count.i.i.i.i.i, align 4
  br label %_ZN9__gnu_cxx27__exchange_and_add_dispatchEPii.exit.i.i.i.i.i

if.else.i.i.i.i.i.i:                              ; preds = %if.end.i.i.i.i.i
  %5 = atomicrmw volatile add ptr %_M_use_count.i.i.i.i.i, i32 -1 acq_rel, align 4
  br label %_ZN9__gnu_cxx27__exchange_and_add_dispatchEPii.exit.i.i.i.i.i

_ZN9__gnu_cxx27__exchange_and_add_dispatchEPii.exit.i.i.i.i.i: ; preds = %if.else.i.i.i.i.i.i, %if.then.i.i.i.i.i.i
  %retval.i.0.i.i.i.i.i = phi i32 [ %2, %if.then.i.i.i.i.i.i ], [ %5, %if.else.i.i.i.i.i.i ]
  %cmp6.i.i.i.i.i = icmp eq i32 %retval.i.0.i.i.i.i.i, 1
  br i1 %cmp6.i.i.i.i.i, label %if.then7.i.i.i.i.i, label %_ZN7testing8internal12ReturnActionIiE4ImplIlED2Ev.exit

if.then7.i.i.i.i.i:                               ; preds = %_ZN9__gnu_cxx27__exchange_and_add_dispatchEPii.exit.i.i.i.i.i
  %vtable.i.i.i.i.i.i.i = load ptr, ptr %0, align 8
  %vfn.i.i.i.i.i.i.i = getelementptr inbounds ptr, ptr %vtable.i.i.i.i.i.i.i, i64 2
  %6 = load ptr, ptr %vfn.i.i.i.i.i.i.i, align 8
  call void %6(ptr noundef nonnull align 8 dereferenceable(16) %0) #21
  %_M_weak_count.i.i.i.i.i.i.i = getelementptr inbounds %"class.std::_Sp_counted_base", ptr %0, i64 0, i32 2
  %7 = load i8, ptr @__libc_single_threaded, align 1
  %tobool.i.i.not.i.i.i.i.i.i.i = icmp eq i8 %7, 0
  br i1 %tobool.i.i.not.i.i.i.i.i.i.i, label %if.else.i.i.i.i.i.i.i.i, label %if.then.i.i.i.i.i.i.i.i

if.then.i.i.i.i.i.i.i.i:                          ; preds = %if.then7.i.i.i.i.i
  %8 = load i32, ptr %_M_weak_count.i.i.i.i.i.i.i, align 4
  %add.i.i.i.i.i.i.i.i = add nsw i32 %8, -1
  store i32 %add.i.i.i.i.i.i.i.i, ptr %_M_weak_count.i.i.i.i.i.i.i, align 4
  br label %_ZN9__gnu_cxx27__exchange_and_add_dispatchEPii.exit.i.i.i.i.i.i.i

if.else.i.i.i.i.i.i.i.i:                          ; preds = %if.then7.i.i.i.i.i
  %9 = atomicrmw volatile add ptr %_M_weak_count.i.i.i.i.i.i.i, i32 -1 acq_rel, align 4
  br label %_ZN9__gnu_cxx27__exchange_and_add_dispatchEPii.exit.i.i.i.i.i.i.i

_ZN9__gnu_cxx27__exchange_and_add_dispatchEPii.exit.i.i.i.i.i.i.i: ; preds = %if.else.i.i.i.i.i.i.i.i, %if.then.i.i.i.i.i.i.i.i
  %retval.i.0.i.i.i.i.i.i.i = phi i32 [ %8, %if.then.i.i.i.i.i.i.i.i ], [ %9, %if.else.i.i.i.i.i.i.i.i ]
  %cmp.i.i.i.i.i.i.i = icmp eq i32 %retval.i.0.i.i.i.i.i.i.i, 1
  br i1 %cmp.i.i.i.i.i.i.i, label %if.end8.sink.split.i.i.i.i.i, label %_ZN7testing8internal12ReturnActionIiE4ImplIlED2Ev.exit

if.end8.sink.split.i.i.i.i.i:                     ; preds = %_ZN9__gnu_cxx27__exchange_and_add_dispatchEPii.exit.i.i.i.i.i.i.i, %if.then.i.i.i.i.i
  %vtable2.i.i.i.i.i.i.i = load ptr, ptr %0, align 8
  %vfn3.i.i.i.i.i.i.i = getelementptr inbounds ptr, ptr %vtable2.i.i.i.i.i.i.i, i64 3
  %10 = load ptr, ptr %vfn3.i.i.i.i.i.i.i, align 8
  call void %10(ptr noundef nonnull align 8 dereferenceable(16) %0) #21
  br label %_ZN7testing8internal12ReturnActionIiE4ImplIlED2Ev.exit

_ZN7testing8internal12ReturnActionIiE4ImplIlED2Ev.exit: ; preds = %invoke.cont, %_ZN9__gnu_cxx27__exchange_and_add_dispatchEPii.exit.i.i.i.i.i, %_ZN9__gnu_cxx27__exchange_and_add_dispatchEPii.exit.i.i.i.i.i.i.i, %if.end8.sink.split.i.i.i.i.i
  ret void

lpad:                                             ; preds = %entry
  %11 = landingpad { ptr, i32 }
          cleanup
  call void @_ZN7testing8internal12ReturnActionIiE4ImplIlED2Ev(ptr noundef nonnull align 8 dereferenceable(16) %ref.tmp) #21
  resume { ptr, i32 } %11
}

; Function Attrs: mustprogress nounwind uwtable
define linkonce_odr dso_local void @_ZN7testing8internal8MockSpecIFliEED2Ev(ptr noundef nonnull align 8 dereferenceable(32) %this) unnamed_addr #7 comdat align 2 personality ptr @__gxx_personality_v0 {
entry:
  %matchers_ = getelementptr inbounds %"class.testing::internal::MockSpec.24", ptr %this, i64 0, i32 1
  store ptr getelementptr inbounds ({ [6 x ptr] }, ptr @_ZTVN7testing8internal11MatcherBaseIiEE, i64 0, inrange i32 0, i64 2), ptr %matchers_, align 8
  %vtable_.i.i.i.i.i.i.i = getelementptr inbounds %"class.testing::internal::MockSpec.24", ptr %this, i64 0, i32 1, i32 0, i32 0, i32 0, i32 0, i32 1
  %0 = load ptr, ptr %vtable_.i.i.i.i.i.i.i, align 8
  %cmp.not.i.i.i.i.i.i.i = icmp eq ptr %0, null
  br i1 %cmp.not.i.i.i.i.i.i.i, label %_ZNSt5tupleIJN7testing7MatcherIiEEEED2Ev.exit, label %_ZNK7testing8internal11MatcherBaseIiE8IsSharedEv.exit.i.i.i.i.i.i

_ZNK7testing8internal11MatcherBaseIiE8IsSharedEv.exit.i.i.i.i.i.i: ; preds = %entry
  %shared_destroy.i.i.i.i.i.i.i = getelementptr inbounds %"struct.testing::internal::MatcherBase<int>::VTable", ptr %0, i64 0, i32 3
  %1 = load ptr, ptr %shared_destroy.i.i.i.i.i.i.i, align 8
  %cmp3.i.not.i.i.i.i.i.i = icmp eq ptr %1, null
  br i1 %cmp3.i.not.i.i.i.i.i.i, label %_ZNSt5tupleIJN7testing7MatcherIiEEEED2Ev.exit, label %land.lhs.true.i.i.i.i.i.i

land.lhs.true.i.i.i.i.i.i:                        ; preds = %_ZNK7testing8internal11MatcherBaseIiE8IsSharedEv.exit.i.i.i.i.i.i
  %buffer_.i.i.i.i.i.i = getelementptr inbounds %"class.testing::internal::MockSpec.24", ptr %this, i64 0, i32 1, i32 0, i32 0, i32 0, i32 0, i32 2
  %2 = load ptr, ptr %buffer_.i.i.i.i.i.i, align 8
  %3 = atomicrmw sub ptr %2, i32 1 acq_rel, align 4
  %cmp.i.i.i.i.i.i.i = icmp eq i32 %3, 1
  br i1 %cmp.i.i.i.i.i.i.i, label %if.then.i.i.i.i.i.i, label %_ZNSt5tupleIJN7testing7MatcherIiEEEED2Ev.exit

if.then.i.i.i.i.i.i:                              ; preds = %land.lhs.true.i.i.i.i.i.i
  %4 = load ptr, ptr %vtable_.i.i.i.i.i.i.i, align 8
  %shared_destroy.i.i.i.i.i.i = getelementptr inbounds %"struct.testing::internal::MatcherBase<int>::VTable", ptr %4, i64 0, i32 3
  %5 = load ptr, ptr %shared_destroy.i.i.i.i.i.i, align 8
  %6 = load ptr, ptr %buffer_.i.i.i.i.i.i, align 8
  invoke void %5(ptr noundef %6)
          to label %_ZNSt5tupleIJN7testing7MatcherIiEEEED2Ev.exit unwind label %terminate.lpad.i.i.i.i.i

terminate.lpad.i.i.i.i.i:                         ; preds = %if.then.i.i.i.i.i.i
  %7 = landingpad { ptr, i32 }
          catch ptr null
  %8 = extractvalue { ptr, i32 } %7, 0
  tail call void @__clang_call_terminate(ptr %8) #24
  unreachable

_ZNSt5tupleIJN7testing7MatcherIiEEEED2Ev.exit:    ; preds = %entry, %_ZNK7testing8internal11MatcherBaseIiE8IsSharedEv.exit.i.i.i.i.i.i, %land.lhs.true.i.i.i.i.i.i, %if.then.i.i.i.i.i.i
  ret void
}

; Function Attrs: mustprogress nounwind uwtable
define linkonce_odr dso_local void @_ZN7testing7MatcherIiED2Ev(ptr noundef nonnull align 8 dereferenceable(24) %this) unnamed_addr #7 comdat align 2 personality ptr @__gxx_personality_v0 {
entry:
  store ptr getelementptr inbounds ({ [6 x ptr] }, ptr @_ZTVN7testing8internal11MatcherBaseIiEE, i64 0, inrange i32 0, i64 2), ptr %this, align 8
  %vtable_.i.i.i = getelementptr inbounds %"class.testing::internal::MatcherBase.29", ptr %this, i64 0, i32 1
  %0 = load ptr, ptr %vtable_.i.i.i, align 8
  %cmp.not.i.i.i = icmp eq ptr %0, null
  br i1 %cmp.not.i.i.i, label %_ZN7testing8internal11MatcherBaseIiED2Ev.exit, label %_ZNK7testing8internal11MatcherBaseIiE8IsSharedEv.exit.i.i

_ZNK7testing8internal11MatcherBaseIiE8IsSharedEv.exit.i.i: ; preds = %entry
  %shared_destroy.i.i.i = getelementptr inbounds %"struct.testing::internal::MatcherBase<int>::VTable", ptr %0, i64 0, i32 3
  %1 = load ptr, ptr %shared_destroy.i.i.i, align 8
  %cmp3.i.not.i.i = icmp eq ptr %1, null
  br i1 %cmp3.i.not.i.i, label %_ZN7testing8internal11MatcherBaseIiED2Ev.exit, label %land.lhs.true.i.i

land.lhs.true.i.i:                                ; preds = %_ZNK7testing8internal11MatcherBaseIiE8IsSharedEv.exit.i.i
  %buffer_.i.i = getelementptr inbounds %"class.testing::internal::MatcherBase.29", ptr %this, i64 0, i32 2
  %2 = load ptr, ptr %buffer_.i.i, align 8
  %3 = atomicrmw sub ptr %2, i32 1 acq_rel, align 4
  %cmp.i.i.i = icmp eq i32 %3, 1
  br i1 %cmp.i.i.i, label %if.then.i.i, label %_ZN7testing8internal11MatcherBaseIiED2Ev.exit

if.then.i.i:                                      ; preds = %land.lhs.true.i.i
  %4 = load ptr, ptr %vtable_.i.i.i, align 8
  %shared_destroy.i.i = getelementptr inbounds %"struct.testing::internal::MatcherBase<int>::VTable", ptr %4, i64 0, i32 3
  %5 = load ptr, ptr %shared_destroy.i.i, align 8
  %6 = load ptr, ptr %buffer_.i.i, align 8
  invoke void %5(ptr noundef %6)
          to label %_ZN7testing8internal11MatcherBaseIiED2Ev.exit unwind label %terminate.lpad.i

terminate.lpad.i:                                 ; preds = %if.then.i.i
  %7 = landingpad { ptr, i32 }
          catch ptr null
  %8 = extractvalue { ptr, i32 } %7, 0
  tail call void @__clang_call_terminate(ptr %8) #24
  unreachable

_ZN7testing8internal11MatcherBaseIiED2Ev.exit:    ; preds = %entry, %_ZNK7testing8internal11MatcherBaseIiE8IsSharedEv.exit.i.i, %land.lhs.true.i.i, %if.then.i.i
  ret void
}

declare void @_ZN7testing7MessageC1Ev(ptr noundef nonnull align 8 dereferenceable(8)) unnamed_addr #0

declare void @_ZN7testing8internal30GetBoolAssertionFailureMessageB5cxx11ERKNS_15AssertionResultEPKcS5_S5_(ptr sret(%"class.std::__cxx11::basic_string") align 8, ptr noundef nonnull align 8 dereferenceable(16), ptr noundef, ptr noundef, ptr noundef) local_unnamed_addr #0

; Function Attrs: nounwind
declare noundef ptr @_ZNKSt7__cxx1112basic_stringIcSt11char_traitsIcESaIcEE5c_strEv(ptr noundef nonnull align 8 dereferenceable(32)) local_unnamed_addr #1

declare void @_ZN7testing8internal12AssertHelperC1ENS_14TestPartResult4TypeEPKciS5_(ptr noundef nonnull align 8 dereferenceable(8), i32 noundef, ptr noundef, i32 noundef, ptr noundef) unnamed_addr #0

declare void @_ZNK7testing8internal12AssertHelperaSERKNS_7MessageE(ptr noundef nonnull align 8 dereferenceable(8), ptr noundef nonnull align 8 dereferenceable(8)) local_unnamed_addr #0

; Function Attrs: nounwind
declare void @_ZN7testing8internal12AssertHelperD1Ev(ptr noundef nonnull align 8 dereferenceable(8)) unnamed_addr #1

; Function Attrs: mustprogress nounwind uwtable
define linkonce_odr dso_local void @_ZN7testing15AssertionResultD2Ev(ptr noundef nonnull align 8 dereferenceable(16) %this) unnamed_addr #7 comdat align 2 personality ptr @__gxx_personality_v0 {
entry:
  %message_ = getelementptr inbounds %"class.testing::AssertionResult", ptr %this, i64 0, i32 1
  %0 = load ptr, ptr %message_, align 8
  %cmp.not.i = icmp eq ptr %0, null
  br i1 %cmp.not.i, label %_ZNSt10unique_ptrINSt7__cxx1112basic_stringIcSt11char_traitsIcESaIcEEESt14default_deleteIS5_EED2Ev.exit, label %_ZNKSt14default_deleteINSt7__cxx1112basic_stringIcSt11char_traitsIcESaIcEEEEclEPS5_.exit.i

_ZNKSt14default_deleteINSt7__cxx1112basic_stringIcSt11char_traitsIcESaIcEEEEclEPS5_.exit.i: ; preds = %entry
  tail call void @_ZNSt7__cxx1112basic_stringIcSt11char_traitsIcESaIcEED1Ev(ptr noundef nonnull align 8 dereferenceable(32) %0) #21
  tail call void @_ZdlPv(ptr noundef nonnull %0) #22
  br label %_ZNSt10unique_ptrINSt7__cxx1112basic_stringIcSt11char_traitsIcESaIcEEESt14default_deleteIS5_EED2Ev.exit

_ZNSt10unique_ptrINSt7__cxx1112basic_stringIcSt11char_traitsIcESaIcEEESt14default_deleteIS5_EED2Ev.exit: ; preds = %entry, %_ZNKSt14default_deleteINSt7__cxx1112basic_stringIcSt11char_traitsIcESaIcEEEEclEPS5_.exit.i
  store ptr null, ptr %message_, align 8
  ret void
}

; Function Attrs: mustprogress nounwind uwtable
define internal void @_ZN7testing10StrictMockIN4absl18profiling_internal12_GLOBAL__N_119MockPeriodicSamplerEED2Ev(ptr noundef nonnull align 8 dereferenceable(184) %this) unnamed_addr #7 align 2 personality ptr @__gxx_personality_v0 {
entry:
  store ptr getelementptr inbounds ({ [6 x ptr] }, ptr @_ZTVN4absl18profiling_internal12_GLOBAL__N_119MockPeriodicSamplerE, i64 0, inrange i32 0, i64 2), ptr %this, align 8
  %gmock01_GetExponentialBiased_38.i = getelementptr inbounds %"class.absl::profiling_internal::(anonymous namespace)::MockPeriodicSampler", ptr %this, i64 0, i32 2
  tail call void @_ZN7testing8internal14FunctionMockerIFliEED2Ev(ptr noundef nonnull align 8 dereferenceable(72) %gmock01_GetExponentialBiased_38.i) #21
  %gmock10_period_37.i = getelementptr inbounds %"class.absl::profiling_internal::(anonymous namespace)::MockPeriodicSampler", ptr %this, i64 0, i32 1
  tail call void @_ZN7testing8internal14FunctionMockerIFivEED2Ev(ptr noundef nonnull align 8 dereferenceable(72) %gmock10_period_37.i) #21
  %0 = ptrtoint ptr %this to i64
  invoke void @_ZN7testing4Mock22UnregisterCallReactionEm(i64 noundef %0)
          to label %_ZN7testing8internal14StrictMockImplIN4absl18profiling_internal12_GLOBAL__N_119MockPeriodicSamplerEED2Ev.exit unwind label %terminate.lpad.i

terminate.lpad.i:                                 ; preds = %entry
  %1 = landingpad { ptr, i32 }
          catch ptr null
  %2 = extractvalue { ptr, i32 } %1, 0
  tail call void @__clang_call_terminate(ptr %2) #24
  unreachable

_ZN7testing8internal14StrictMockImplIN4absl18profiling_internal12_GLOBAL__N_119MockPeriodicSamplerEED2Ev.exit: ; preds = %entry
  ret void
}

; Function Attrs: mustprogress nocallback nofree nounwind willreturn memory(argmem: write)
declare void @llvm.memset.p0.i64(ptr nocapture writeonly, i8, i64, i1 immarg) #8

; Function Attrs: mustprogress nounwind uwtable
define internal noundef i64 @_ZN4absl18profiling_internal12_GLOBAL__N_119MockPeriodicSampler20GetExponentialBiasedEi(ptr noundef nonnull align 8 dereferenceable(184) %this, i32 noundef %gmock_a0) unnamed_addr #7 align 2 personality ptr @__gxx_personality_v0 {
entry:
  %ref.tmp.i = alloca %"class.std::tuple.60", align 4
  %gmock01_GetExponentialBiased_38 = getelementptr inbounds %"class.absl::profiling_internal::(anonymous namespace)::MockPeriodicSampler", ptr %this, i64 0, i32 2
  invoke void @_ZN7testing8internal25UntypedFunctionMockerBase15SetOwnerAndNameEPKvPKc(ptr noundef nonnull align 8 dereferenceable(72) %gmock01_GetExponentialBiased_38, ptr noundef nonnull %this, ptr noundef nonnull @.str.81)
          to label %invoke.cont unwind label %terminate.lpad

invoke.cont:                                      ; preds = %entry
  call void @llvm.lifetime.start.p0(i64 4, ptr nonnull %ref.tmp.i)
  store i32 %gmock_a0, ptr %ref.tmp.i, align 4
  %call.i1 = invoke noundef i64 @_ZN7testing8internal14FunctionMockerIFliEE10InvokeWithEOSt5tupleIJiEE(ptr noundef nonnull align 8 dereferenceable(72) %gmock01_GetExponentialBiased_38, ptr noundef nonnull align 4 dereferenceable(4) %ref.tmp.i)
          to label %invoke.cont3 unwind label %terminate.lpad

invoke.cont3:                                     ; preds = %invoke.cont
  call void @llvm.lifetime.end.p0(i64 4, ptr nonnull %ref.tmp.i)
  ret i64 %call.i1

terminate.lpad:                                   ; preds = %invoke.cont, %entry
  %0 = landingpad { ptr, i32 }
          catch ptr null
  %1 = extractvalue { ptr, i32 } %0, 0
  call void @__clang_call_terminate(ptr %1) #24
  unreachable
}

; Function Attrs: mustprogress nounwind uwtable
define internal noundef i32 @_ZNK4absl18profiling_internal12_GLOBAL__N_119MockPeriodicSampler6periodEv(ptr noundef nonnull align 8 dereferenceable(184) %this) unnamed_addr #7 align 2 personality ptr @__gxx_personality_v0 {
entry:
  %ref.tmp.i = alloca %"class.std::tuple.20", align 1
  %gmock10_period_37 = getelementptr inbounds %"class.absl::profiling_internal::(anonymous namespace)::MockPeriodicSampler", ptr %this, i64 0, i32 1
  invoke void @_ZN7testing8internal25UntypedFunctionMockerBase15SetOwnerAndNameEPKvPKc(ptr noundef nonnull align 8 dereferenceable(72) %gmock10_period_37, ptr noundef nonnull %this, ptr noundef nonnull @.str.88)
          to label %invoke.cont unwind label %terminate.lpad

invoke.cont:                                      ; preds = %entry
  call void @llvm.lifetime.start.p0(i64 1, ptr nonnull %ref.tmp.i)
  %call.i1 = invoke noundef i32 @_ZN7testing8internal14FunctionMockerIFivEE10InvokeWithEOSt5tupleIJEE(ptr noundef nonnull align 8 dereferenceable(72) %gmock10_period_37, ptr noundef nonnull align 1 dereferenceable(1) %ref.tmp.i)
          to label %invoke.cont3 unwind label %terminate.lpad

invoke.cont3:                                     ; preds = %invoke.cont
  call void @llvm.lifetime.end.p0(i64 1, ptr nonnull %ref.tmp.i)
  ret i32 %call.i1

terminate.lpad:                                   ; preds = %invoke.cont, %entry
  %0 = landingpad { ptr, i32 }
          catch ptr null
  %1 = extractvalue { ptr, i32 } %0, 0
  call void @__clang_call_terminate(ptr %1) #24
  unreachable
}

; Function Attrs: mustprogress nounwind uwtable
define internal void @_ZN7testing10StrictMockIN4absl18profiling_internal12_GLOBAL__N_119MockPeriodicSamplerEED0Ev(ptr noundef nonnull align 8 dereferenceable(184) %this) unnamed_addr #7 align 2 personality ptr @__gxx_personality_v0 {
entry:
  store ptr getelementptr inbounds ({ [6 x ptr] }, ptr @_ZTVN4absl18profiling_internal12_GLOBAL__N_119MockPeriodicSamplerE, i64 0, inrange i32 0, i64 2), ptr %this, align 8
  %gmock01_GetExponentialBiased_38.i.i = getelementptr inbounds %"class.absl::profiling_internal::(anonymous namespace)::MockPeriodicSampler", ptr %this, i64 0, i32 2
  tail call void @_ZN7testing8internal14FunctionMockerIFliEED2Ev(ptr noundef nonnull align 8 dereferenceable(72) %gmock01_GetExponentialBiased_38.i.i) #21
  %gmock10_period_37.i.i = getelementptr inbounds %"class.absl::profiling_internal::(anonymous namespace)::MockPeriodicSampler", ptr %this, i64 0, i32 1
  tail call void @_ZN7testing8internal14FunctionMockerIFivEED2Ev(ptr noundef nonnull align 8 dereferenceable(72) %gmock10_period_37.i.i) #21
  %0 = ptrtoint ptr %this to i64
  invoke void @_ZN7testing4Mock22UnregisterCallReactionEm(i64 noundef %0)
          to label %_ZN7testing10StrictMockIN4absl18profiling_internal12_GLOBAL__N_119MockPeriodicSamplerEED2Ev.exit unwind label %terminate.lpad.i.i

terminate.lpad.i.i:                               ; preds = %entry
  %1 = landingpad { ptr, i32 }
          catch ptr null
  %2 = extractvalue { ptr, i32 } %1, 0
  tail call void @__clang_call_terminate(ptr %2) #24
  unreachable

_ZN7testing10StrictMockIN4absl18profiling_internal12_GLOBAL__N_119MockPeriodicSamplerEED2Ev.exit: ; preds = %entry
  tail call void @_ZdlPv(ptr noundef nonnull %this) #22
  ret void
}

declare void @_ZN7testing4Mock22FailUninterestingCallsEm(i64 noundef) local_unnamed_addr #0

; Function Attrs: mustprogress nounwind uwtable
define linkonce_odr dso_local void @_ZN7testing8internal14FunctionMockerIFivEED2Ev(ptr noundef nonnull align 8 dereferenceable(72) %this) unnamed_addr #7 comdat align 2 personality ptr @__gxx_personality_v0 {
entry:
  invoke void @_ZN7testing8internal9MutexBase4LockEv(ptr noundef nonnull align 8 dereferenceable(56) @_ZN7testing8internal13g_gmock_mutexE)
          to label %invoke.cont unwind label %terminate.lpad

invoke.cont:                                      ; preds = %entry
  %call = invoke noundef zeroext i1 @_ZN7testing8internal25UntypedFunctionMockerBase32VerifyAndClearExpectationsLockedEv(ptr noundef nonnull align 8 dereferenceable(72) %this)
          to label %invoke.cont2 unwind label %terminate.lpad

invoke.cont2:                                     ; preds = %invoke.cont
  invoke void @_ZN7testing4Mock16UnregisterLockedEPNS_8internal25UntypedFunctionMockerBaseE(ptr noundef nonnull %this)
          to label %invoke.cont3 unwind label %terminate.lpad

invoke.cont3:                                     ; preds = %invoke.cont2
  invoke void @_ZN7testing8internal14FunctionMockerIFivEE25ClearDefaultActionsLockedEv(ptr noundef nonnull align 8 dereferenceable(72) %this)
          to label %invoke.cont4 unwind label %terminate.lpad

invoke.cont4:                                     ; preds = %invoke.cont3
  invoke void @_ZN7testing8internal9MutexBase6UnlockEv(ptr noundef nonnull align 8 dereferenceable(56) @_ZN7testing8internal13g_gmock_mutexE)
          to label %_ZN7testing8internal14GTestMutexLockD2Ev.exit unwind label %terminate.lpad.i

terminate.lpad.i:                                 ; preds = %invoke.cont4
  %0 = landingpad { ptr, i32 }
          catch ptr null
  %1 = extractvalue { ptr, i32 } %0, 0
  tail call void @__clang_call_terminate(ptr %1) #24
  unreachable

_ZN7testing8internal14GTestMutexLockD2Ev.exit:    ; preds = %invoke.cont4
  tail call void @_ZN7testing8internal25UntypedFunctionMockerBaseD2Ev(ptr noundef nonnull align 8 dereferenceable(72) %this) #21
  ret void

terminate.lpad:                                   ; preds = %entry, %invoke.cont3, %invoke.cont2, %invoke.cont
  %2 = landingpad { ptr, i32 }
          catch ptr null
  %3 = extractvalue { ptr, i32 } %2, 0
  tail call void @__clang_call_terminate(ptr %3) #24
  unreachable
}

; Function Attrs: mustprogress nounwind uwtable
define internal void @_ZN4absl18profiling_internal12_GLOBAL__N_119MockPeriodicSamplerD2Ev(ptr noundef nonnull align 8 dereferenceable(184) %this) unnamed_addr #7 align 2 {
entry:
  store ptr getelementptr inbounds ({ [6 x ptr] }, ptr @_ZTVN4absl18profiling_internal12_GLOBAL__N_119MockPeriodicSamplerE, i64 0, inrange i32 0, i64 2), ptr %this, align 8
  %gmock01_GetExponentialBiased_38 = getelementptr inbounds %"class.absl::profiling_internal::(anonymous namespace)::MockPeriodicSampler", ptr %this, i64 0, i32 2
  tail call void @_ZN7testing8internal14FunctionMockerIFliEED2Ev(ptr noundef nonnull align 8 dereferenceable(72) %gmock01_GetExponentialBiased_38) #21
  %gmock10_period_37 = getelementptr inbounds %"class.absl::profiling_internal::(anonymous namespace)::MockPeriodicSampler", ptr %this, i64 0, i32 1
  tail call void @_ZN7testing8internal14FunctionMockerIFivEED2Ev(ptr noundef nonnull align 8 dereferenceable(72) %gmock10_period_37) #21
  ret void
}

; Function Attrs: mustprogress nounwind uwtable
define internal void @_ZN4absl18profiling_internal12_GLOBAL__N_119MockPeriodicSamplerD0Ev(ptr noundef nonnull align 8 dereferenceable(184) %this) unnamed_addr #7 align 2 {
entry:
  store ptr getelementptr inbounds ({ [6 x ptr] }, ptr @_ZTVN4absl18profiling_internal12_GLOBAL__N_119MockPeriodicSamplerE, i64 0, inrange i32 0, i64 2), ptr %this, align 8
  %gmock01_GetExponentialBiased_38.i = getelementptr inbounds %"class.absl::profiling_internal::(anonymous namespace)::MockPeriodicSampler", ptr %this, i64 0, i32 2
  tail call void @_ZN7testing8internal14FunctionMockerIFliEED2Ev(ptr noundef nonnull align 8 dereferenceable(72) %gmock01_GetExponentialBiased_38.i) #21
  %gmock10_period_37.i = getelementptr inbounds %"class.absl::profiling_internal::(anonymous namespace)::MockPeriodicSampler", ptr %this, i64 0, i32 1
  tail call void @_ZN7testing8internal14FunctionMockerIFivEED2Ev(ptr noundef nonnull align 8 dereferenceable(72) %gmock10_period_37.i) #21
  tail call void @_ZdlPv(ptr noundef nonnull %this) #22
  ret void
}

declare void @_ZN7testing8internal25UntypedFunctionMockerBaseC2Ev(ptr noundef nonnull align 8 dereferenceable(72)) unnamed_addr #0

; Function Attrs: mustprogress nounwind uwtable
define linkonce_odr dso_local void @_ZN7testing8internal14FunctionMockerIFivEED0Ev(ptr noundef nonnull align 8 dereferenceable(72) %this) unnamed_addr #7 comdat align 2 {
entry:
  tail call void @_ZN7testing8internal14FunctionMockerIFivEED2Ev(ptr noundef nonnull align 8 dereferenceable(72) %this) #21
  tail call void @_ZdlPv(ptr noundef nonnull %this) #22
  ret void
}

; Function Attrs: mustprogress uwtable
define linkonce_odr dso_local void @_ZN7testing8internal14FunctionMockerIFivEE25ClearDefaultActionsLockedEv(ptr noundef nonnull align 8 dereferenceable(72) %this) unnamed_addr #3 comdat align 2 personality ptr @__gxx_personality_v0 {
entry:
  tail call void @_ZNK7testing8internal9MutexBase10AssertHeldEv(ptr noundef nonnull align 8 dereferenceable(56) @_ZN7testing8internal13g_gmock_mutexE)
  %untyped_on_call_specs_ = getelementptr inbounds %"class.testing::internal::UntypedFunctionMockerBase", ptr %this, i64 0, i32 3
  %0 = load ptr, ptr %untyped_on_call_specs_, align 8
  %_M_finish.i.i.i = getelementptr inbounds %"class.testing::internal::UntypedFunctionMockerBase", ptr %this, i64 0, i32 3, i32 0, i32 0, i32 0, i32 1
  %1 = load ptr, ptr %_M_finish.i.i.i, align 8
  tail call void @llvm.memset.p0.i64(ptr noundef nonnull align 8 dereferenceable(24) %untyped_on_call_specs_, i8 0, i64 24, i1 false)
  invoke void @_ZN7testing8internal9MutexBase6UnlockEv(ptr noundef nonnull align 8 dereferenceable(56) @_ZN7testing8internal13g_gmock_mutexE)
          to label %for.cond.preheader unwind label %lpad

for.cond.preheader:                               ; preds = %entry
  %cmp.i.not10 = icmp eq ptr %0, %1
  br i1 %cmp.i.not10, label %for.end, label %for.body

for.body:                                         ; preds = %for.cond.preheader, %for.inc
  %it.sroa.0.011 = phi ptr [ %incdec.ptr.i, %for.inc ], [ %0, %for.cond.preheader ]
  %2 = load ptr, ptr %it.sroa.0.011, align 8
  %isnull = icmp eq ptr %2, null
  br i1 %isnull, label %for.inc, label %delete.notnull

delete.notnull:                                   ; preds = %for.body
  %_M_manager.i.i.i.i = getelementptr inbounds %"class.testing::internal::OnCallSpec", ptr %2, i64 0, i32 3, i32 0, i32 0, i32 1
  %3 = load ptr, ptr %_M_manager.i.i.i.i, align 8
  %tobool.not.i.i.i.i = icmp eq ptr %3, null
  br i1 %tobool.not.i.i.i.i, label %_ZN7testing6ActionIFivEED2Ev.exit.i, label %if.then.i.i.i.i

if.then.i.i.i.i:                                  ; preds = %delete.notnull
  %action_.i = getelementptr inbounds %"class.testing::internal::OnCallSpec", ptr %2, i64 0, i32 3
  %call.i.i.i.i = invoke noundef zeroext i1 %3(ptr noundef nonnull align 8 dereferenceable(16) %action_.i, ptr noundef nonnull align 8 dereferenceable(16) %action_.i, i32 noundef 3)
          to label %_ZN7testing6ActionIFivEED2Ev.exit.i unwind label %terminate.lpad.i.i.i.i

terminate.lpad.i.i.i.i:                           ; preds = %if.then.i.i.i.i
  %4 = landingpad { ptr, i32 }
          catch ptr null
  %5 = extractvalue { ptr, i32 } %4, 0
  tail call void @__clang_call_terminate(ptr %5) #24
  unreachable

_ZN7testing6ActionIFivEED2Ev.exit.i:              ; preds = %if.then.i.i.i.i, %delete.notnull
  %extra_matcher_.i = getelementptr inbounds %"class.testing::internal::OnCallSpec", ptr %2, i64 0, i32 2
  store ptr getelementptr inbounds ({ [6 x ptr] }, ptr @_ZTVN7testing8internal11MatcherBaseIRKSt5tupleIJEEEE, i64 0, inrange i32 0, i64 2), ptr %extra_matcher_.i, align 8
  %vtable_.i.i.i.i.i = getelementptr inbounds %"class.testing::internal::OnCallSpec", ptr %2, i64 0, i32 2, i32 0, i32 1
  %6 = load ptr, ptr %vtable_.i.i.i.i.i, align 8
  %cmp.not.i.i.i.i.i = icmp eq ptr %6, null
  br i1 %cmp.not.i.i.i.i.i, label %_ZN7testing8internal10OnCallSpecIFivEED2Ev.exit, label %_ZNK7testing8internal11MatcherBaseIRKSt5tupleIJEEE8IsSharedEv.exit.i.i.i.i

_ZNK7testing8internal11MatcherBaseIRKSt5tupleIJEEE8IsSharedEv.exit.i.i.i.i: ; preds = %_ZN7testing6ActionIFivEED2Ev.exit.i
  %shared_destroy.i.i.i.i.i = getelementptr inbounds %"struct.testing::internal::MatcherBase<const std::tuple<> &>::VTable", ptr %6, i64 0, i32 3
  %7 = load ptr, ptr %shared_destroy.i.i.i.i.i, align 8
  %cmp3.i.not.i.i.i.i = icmp eq ptr %7, null
  br i1 %cmp3.i.not.i.i.i.i, label %_ZN7testing8internal10OnCallSpecIFivEED2Ev.exit, label %land.lhs.true.i.i.i.i

land.lhs.true.i.i.i.i:                            ; preds = %_ZNK7testing8internal11MatcherBaseIRKSt5tupleIJEEE8IsSharedEv.exit.i.i.i.i
  %buffer_.i.i.i.i = getelementptr inbounds %"class.testing::internal::OnCallSpec", ptr %2, i64 0, i32 2, i32 0, i32 2
  %8 = load ptr, ptr %buffer_.i.i.i.i, align 8
  %9 = atomicrmw sub ptr %8, i32 1 acq_rel, align 4
  %cmp.i.i.i.i.i = icmp eq i32 %9, 1
  br i1 %cmp.i.i.i.i.i, label %if.then.i.i.i1.i, label %_ZN7testing8internal10OnCallSpecIFivEED2Ev.exit

if.then.i.i.i1.i:                                 ; preds = %land.lhs.true.i.i.i.i
  %10 = load ptr, ptr %vtable_.i.i.i.i.i, align 8
  %shared_destroy.i.i.i.i = getelementptr inbounds %"struct.testing::internal::MatcherBase<const std::tuple<> &>::VTable", ptr %10, i64 0, i32 3
  %11 = load ptr, ptr %shared_destroy.i.i.i.i, align 8
  %12 = load ptr, ptr %buffer_.i.i.i.i, align 8
  invoke void %11(ptr noundef %12)
          to label %_ZN7testing8internal10OnCallSpecIFivEED2Ev.exit unwind label %terminate.lpad.i.i.i

terminate.lpad.i.i.i:                             ; preds = %if.then.i.i.i1.i
  %13 = landingpad { ptr, i32 }
          catch ptr null
  %14 = extractvalue { ptr, i32 } %13, 0
  tail call void @__clang_call_terminate(ptr %14) #24
  unreachable

_ZN7testing8internal10OnCallSpecIFivEED2Ev.exit:  ; preds = %_ZN7testing6ActionIFivEED2Ev.exit.i, %_ZNK7testing8internal11MatcherBaseIRKSt5tupleIJEEE8IsSharedEv.exit.i.i.i.i, %land.lhs.true.i.i.i.i, %if.then.i.i.i1.i
  tail call void @_ZdlPv(ptr noundef nonnull %2) #22
  br label %for.inc

for.inc:                                          ; preds = %for.body, %_ZN7testing8internal10OnCallSpecIFivEED2Ev.exit
  %incdec.ptr.i = getelementptr inbounds ptr, ptr %it.sroa.0.011, i64 1
  %cmp.i.not = icmp eq ptr %incdec.ptr.i, %1
  br i1 %cmp.i.not, label %for.end, label %for.body, !llvm.loop !15

lpad:                                             ; preds = %for.end, %entry
  %15 = landingpad { ptr, i32 }
          cleanup
  %tobool.not.i.i.i = icmp eq ptr %0, null
  br i1 %tobool.not.i.i.i, label %_ZNSt6vectorIPKvSaIS1_EED2Ev.exit, label %if.then.i.i.i

if.then.i.i.i:                                    ; preds = %lpad
  tail call void @_ZdlPv(ptr noundef nonnull %0) #22
  br label %_ZNSt6vectorIPKvSaIS1_EED2Ev.exit

_ZNSt6vectorIPKvSaIS1_EED2Ev.exit:                ; preds = %lpad, %if.then.i.i.i
  resume { ptr, i32 } %15

for.end:                                          ; preds = %for.inc, %for.cond.preheader
  invoke void @_ZN7testing8internal9MutexBase4LockEv(ptr noundef nonnull align 8 dereferenceable(56) @_ZN7testing8internal13g_gmock_mutexE)
          to label %invoke.cont8 unwind label %lpad

invoke.cont8:                                     ; preds = %for.end
  %tobool.not.i.i.i1 = icmp eq ptr %0, null
  br i1 %tobool.not.i.i.i1, label %_ZNSt6vectorIPKvSaIS1_EED2Ev.exit3, label %if.then.i.i.i2

if.then.i.i.i2:                                   ; preds = %invoke.cont8
  tail call void @_ZdlPv(ptr noundef nonnull %0) #22
  br label %_ZNSt6vectorIPKvSaIS1_EED2Ev.exit3

_ZNSt6vectorIPKvSaIS1_EED2Ev.exit3:               ; preds = %invoke.cont8, %if.then.i.i.i2
  ret void
}

; Function Attrs: mustprogress uwtable
define linkonce_odr dso_local void @_ZNK7testing8internal14FunctionMockerIFivEE32UntypedDescribeUninterestingCallEPKvPSo(ptr noundef nonnull align 8 dereferenceable(72) %this, ptr noundef %untyped_args, ptr noundef %os) unnamed_addr #3 comdat align 2 {
entry:
  %call = tail call noundef nonnull align 8 dereferenceable(8) ptr @_ZStlsISt11char_traitsIcEERSt13basic_ostreamIcT_ES5_PKc(ptr noundef nonnull align 8 dereferenceable(8) %os, ptr noundef nonnull @.str.37)
  tail call void @_ZNK7testing8internal14FunctionMockerIFivEE23DescribeDefaultActionToERKSt5tupleIJEEPSo(ptr noundef nonnull align 8 dereferenceable(72) %this, ptr noundef nonnull align 1 dereferenceable(1) %untyped_args, ptr noundef nonnull %os)
  %call2 = tail call noundef nonnull align 8 dereferenceable(8) ptr @_ZStlsISt11char_traitsIcEERSt13basic_ostreamIcT_ES5_PKc(ptr noundef nonnull align 8 dereferenceable(8) %os, ptr noundef nonnull @.str.38)
  %call3 = tail call noundef ptr @_ZNK7testing8internal25UntypedFunctionMockerBase4NameEv(ptr noundef nonnull align 8 dereferenceable(72) %this)
  %call4 = tail call noundef nonnull align 8 dereferenceable(8) ptr @_ZStlsISt11char_traitsIcEERSt13basic_ostreamIcT_ES5_PKc(ptr noundef nonnull align 8 dereferenceable(8) %call2, ptr noundef %call3)
  %call.i.i.i = tail call noundef nonnull align 8 dereferenceable(8) ptr @_ZStlsISt11char_traitsIcEERSt13basic_ostreamIcT_ES5_PKc(ptr noundef nonnull align 8 dereferenceable(8) %os, ptr noundef nonnull @.str.42)
  %call1.i.i.i = tail call noundef nonnull align 8 dereferenceable(8) ptr @_ZStlsISt11char_traitsIcEERSt13basic_ostreamIcT_ES5_PKc(ptr noundef nonnull align 8 dereferenceable(8) %os, ptr noundef nonnull @.str.43)
  ret void
}

; Function Attrs: mustprogress uwtable
define linkonce_odr dso_local noundef ptr @_ZN7testing8internal14FunctionMockerIFivEE30UntypedFindMatchingExpectationEPKvPS5_PbPSoS8_(ptr noundef nonnull align 8 dereferenceable(72) %this, ptr noundef %untyped_args, ptr noundef %untyped_action, ptr noundef %is_excessive, ptr noundef %what, ptr noundef %why) unnamed_addr #3 comdat align 2 personality ptr @__gxx_personality_v0 {
entry:
  tail call void @_ZN7testing8internal9MutexBase4LockEv(ptr noundef nonnull align 8 dereferenceable(56) @_ZN7testing8internal13g_gmock_mutexE)
  invoke void @_ZNK7testing8internal9MutexBase10AssertHeldEv(ptr noundef nonnull align 8 dereferenceable(56) @_ZN7testing8internal13g_gmock_mutexE)
          to label %.noexc unwind label %lpad.loopexit.split-lp

.noexc:                                           ; preds = %entry
  %untyped_expectations_.i = getelementptr inbounds %"class.testing::internal::UntypedFunctionMockerBase", ptr %this, i64 0, i32 4
  %_M_finish.i.i.i = getelementptr inbounds %"class.testing::internal::UntypedFunctionMockerBase", ptr %this, i64 0, i32 4, i32 0, i32 0, i32 0, i32 1
  %0 = load ptr, ptr %_M_finish.i.i.i, align 8, !noalias !17
  %1 = load ptr, ptr %untyped_expectations_.i, align 8, !noalias !20
  %cmp.i.i.i.not3.i = icmp eq ptr %0, %1
  br i1 %cmp.i.i.i.not3.i, label %if.then, label %for.body.i

for.body.i:                                       ; preds = %.noexc, %for.inc.i
  %it.sroa.0.04.i = phi ptr [ %incdec.ptr.i.i.i, %for.inc.i ], [ %0, %.noexc ]
  %incdec.ptr.i.i.i = getelementptr inbounds %"class.std::shared_ptr.56", ptr %it.sroa.0.04.i, i64 -1
  %2 = load ptr, ptr %incdec.ptr.i.i.i, align 8
  invoke void @_ZNK7testing8internal9MutexBase10AssertHeldEv(ptr noundef nonnull align 8 dereferenceable(56) @_ZN7testing8internal13g_gmock_mutexE)
          to label %.noexc10 unwind label %lpad.loopexit

.noexc10:                                         ; preds = %for.body.i
  invoke void @_ZNK7testing8internal15ExpectationBase25CheckActionCountIfNotDoneEv(ptr noundef nonnull align 8 dereferenceable(264) %2)
          to label %.noexc11 unwind label %lpad.loopexit

.noexc11:                                         ; preds = %.noexc10
  invoke void @_ZNK7testing8internal9MutexBase10AssertHeldEv(ptr noundef nonnull align 8 dereferenceable(56) @_ZN7testing8internal13g_gmock_mutexE)
          to label %.noexc12 unwind label %lpad.loopexit

.noexc12:                                         ; preds = %.noexc11
  %retired_.i.i.i = getelementptr inbounds %"class.testing::internal::ExpectationBase", ptr %2, i64 0, i32 9
  %3 = load i8, ptr %retired_.i.i.i, align 4
  %4 = and i8 %3, 1
  %tobool.i.not.i.i = icmp eq i8 %4, 0
  br i1 %tobool.i.not.i.i, label %land.lhs.true.i.i, label %for.inc.i

land.lhs.true.i.i:                                ; preds = %.noexc12
  %call2.i.i13 = invoke noundef zeroext i1 @_ZNK7testing8internal15ExpectationBase28AllPrerequisitesAreSatisfiedEv(ptr noundef nonnull align 8 dereferenceable(264) %2)
          to label %call2.i.i.noexc unwind label %lpad.loopexit

call2.i.i.noexc:                                  ; preds = %land.lhs.true.i.i
  br i1 %call2.i.i13, label %_ZNK7testing8internal16TypedExpectationIFivEE21ShouldHandleArgumentsERKSt5tupleIJEE.exit.i, label %for.inc.i

_ZNK7testing8internal16TypedExpectationIFivEE21ShouldHandleArgumentsERKSt5tupleIJEE.exit.i: ; preds = %call2.i.i.noexc
  %call3.i.i14 = invoke noundef zeroext i1 @_ZNK7testing8internal16TypedExpectationIFivEE7MatchesERKSt5tupleIJEE(ptr noundef nonnull align 8 dereferenceable(336) %2, ptr noundef nonnull align 1 dereferenceable(1) %untyped_args)
          to label %call3.i.i.noexc unwind label %lpad.loopexit

call3.i.i.noexc:                                  ; preds = %_ZNK7testing8internal16TypedExpectationIFivEE21ShouldHandleArgumentsERKSt5tupleIJEE.exit.i
  br i1 %call3.i.i14, label %if.end, label %for.inc.i

for.inc.i:                                        ; preds = %call3.i.i.noexc, %call2.i.i.noexc, %.noexc12
  %5 = load ptr, ptr %untyped_expectations_.i, align 8, !noalias !20
  %cmp.i.i.i.not.i = icmp eq ptr %incdec.ptr.i.i.i, %5
  br i1 %cmp.i.i.i.not.i, label %if.then, label %for.body.i, !llvm.loop !23

if.then:                                          ; preds = %for.inc.i, %.noexc
  invoke void @_ZNK7testing8internal9MutexBase10AssertHeldEv(ptr noundef nonnull align 8 dereferenceable(56) @_ZN7testing8internal13g_gmock_mutexE)
          to label %.noexc15 unwind label %lpad.loopexit.split-lp

.noexc15:                                         ; preds = %if.then
  %call.i16 = invoke noundef nonnull align 8 dereferenceable(8) ptr @_ZStlsISt11char_traitsIcEERSt13basic_ostreamIcT_ES5_PKc(ptr noundef nonnull align 8 dereferenceable(8) %what, ptr noundef nonnull @.str.44)
          to label %call.i.noexc unwind label %lpad.loopexit.split-lp

call.i.noexc:                                     ; preds = %.noexc15
  invoke void @_ZNK7testing8internal14FunctionMockerIFivEE23DescribeDefaultActionToERKSt5tupleIJEEPSo(ptr noundef nonnull align 8 dereferenceable(72) %this, ptr noundef nonnull align 1 dereferenceable(1) %untyped_args, ptr noundef nonnull %what)
          to label %.noexc17 unwind label %lpad.loopexit.split-lp

.noexc17:                                         ; preds = %call.i.noexc
  invoke void @_ZNK7testing8internal14FunctionMockerIFivEE28PrintTriedExpectationsLockedERKSt5tupleIJEEPSo(ptr noundef nonnull align 8 dereferenceable(72) %this, ptr noundef nonnull align 1 dereferenceable(1) %untyped_args, ptr noundef %why)
          to label %cleanup unwind label %lpad.loopexit.split-lp

lpad.loopexit:                                    ; preds = %for.body.i, %.noexc10, %.noexc11, %land.lhs.true.i.i, %_ZNK7testing8internal16TypedExpectationIFivEE21ShouldHandleArgumentsERKSt5tupleIJEE.exit.i
  %lpad.loopexit27 = landingpad { ptr, i32 }
          cleanup
  br label %lpad

lpad.loopexit.split-lp:                           ; preds = %invoke.cont3, %entry, %if.then, %.noexc15, %call.i.noexc, %.noexc17, %if.end, %.noexc19
  %lpad.loopexit.split-lp28 = landingpad { ptr, i32 }
          cleanup
  br label %lpad

lpad:                                             ; preds = %lpad.loopexit.split-lp, %lpad.loopexit
  %lpad.phi = phi { ptr, i32 } [ %lpad.loopexit27, %lpad.loopexit ], [ %lpad.loopexit.split-lp28, %lpad.loopexit.split-lp ]
  invoke void @_ZN7testing8internal9MutexBase6UnlockEv(ptr noundef nonnull align 8 dereferenceable(56) @_ZN7testing8internal13g_gmock_mutexE)
          to label %_ZN7testing8internal14GTestMutexLockD2Ev.exit unwind label %terminate.lpad.i

terminate.lpad.i:                                 ; preds = %lpad
  %6 = landingpad { ptr, i32 }
          catch ptr null
  %7 = extractvalue { ptr, i32 } %6, 0
  tail call void @__clang_call_terminate(ptr %7) #24
  unreachable

_ZN7testing8internal14GTestMutexLockD2Ev.exit:    ; preds = %lpad
  resume { ptr, i32 } %lpad.phi

if.end:                                           ; preds = %call3.i.i.noexc
  invoke void @_ZNK7testing8internal9MutexBase10AssertHeldEv(ptr noundef nonnull align 8 dereferenceable(56) @_ZN7testing8internal13g_gmock_mutexE)
          to label %.noexc19 unwind label %lpad.loopexit.split-lp

.noexc19:                                         ; preds = %if.end
  %cardinality_.i.i = getelementptr inbounds %"class.testing::internal::ExpectationBase", ptr %2, i64 0, i32 6
  %call_count_.i = getelementptr inbounds %"class.testing::internal::ExpectationBase", ptr %2, i64 0, i32 8
  %8 = load i32, ptr %call_count_.i, align 8
  %9 = load ptr, ptr %cardinality_.i.i, align 8
  %vtable.i.i = load ptr, ptr %9, align 8
  %vfn.i.i = getelementptr inbounds ptr, ptr %vtable.i.i, i64 5
  %10 = load ptr, ptr %vfn.i.i, align 8
  %call2.i.i21 = invoke noundef zeroext i1 %10(ptr noundef nonnull align 8 dereferenceable(8) %9, i32 noundef %8)
          to label %invoke.cont3 unwind label %lpad.loopexit.split-lp

invoke.cont3:                                     ; preds = %.noexc19
  %frombool = zext i1 %call2.i.i21 to i8
  store i8 %frombool, ptr %is_excessive, align 1
  %call6 = invoke noundef ptr @_ZN7testing8internal16TypedExpectationIFivEE21GetActionForArgumentsEPKNS0_14FunctionMockerIS2_EERKSt5tupleIJEEPSoSC_(ptr noundef nonnull align 8 dereferenceable(336) %2, ptr noundef nonnull %this, ptr noundef nonnull align 1 dereferenceable(1) %untyped_args, ptr noundef %what, ptr noundef %why)
          to label %invoke.cont5 unwind label %lpad.loopexit.split-lp

invoke.cont5:                                     ; preds = %invoke.cont3
  %cmp7.not = icmp eq ptr %call6, null
  br i1 %cmp7.not, label %if.end11, label %land.lhs.true

land.lhs.true:                                    ; preds = %invoke.cont5
  %_M_manager.i.i.i.i = getelementptr inbounds %"class.std::_Function_base", ptr %call6, i64 0, i32 1
  %11 = load ptr, ptr %_M_manager.i.i.i.i, align 8
  %tobool.not.i.i.not.i.i = icmp eq ptr %11, null
  %spec.select = select i1 %tobool.not.i.i.not.i.i, ptr null, ptr %call6
  br label %if.end11

if.end11:                                         ; preds = %land.lhs.true, %invoke.cont5
  %action.0 = phi ptr [ null, %invoke.cont5 ], [ %spec.select, %land.lhs.true ]
  store ptr %action.0, ptr %untyped_action, align 8
  br label %cleanup

cleanup:                                          ; preds = %.noexc17, %if.end11
  %retval.0 = phi ptr [ %2, %if.end11 ], [ null, %.noexc17 ]
  invoke void @_ZN7testing8internal9MutexBase6UnlockEv(ptr noundef nonnull align 8 dereferenceable(56) @_ZN7testing8internal13g_gmock_mutexE)
          to label %_ZN7testing8internal14GTestMutexLockD2Ev.exit23 unwind label %terminate.lpad.i22

terminate.lpad.i22:                               ; preds = %cleanup
  %12 = landingpad { ptr, i32 }
          catch ptr null
  %13 = extractvalue { ptr, i32 } %12, 0
  tail call void @__clang_call_terminate(ptr %13) #24
  unreachable

_ZN7testing8internal14GTestMutexLockD2Ev.exit23:  ; preds = %cleanup
  ret ptr %retval.0
}

; Function Attrs: mustprogress uwtable
define linkonce_odr dso_local void @_ZNK7testing8internal14FunctionMockerIFivEE16UntypedPrintArgsEPKvPSo(ptr noundef nonnull align 8 dereferenceable(72) %this, ptr noundef %untyped_args, ptr noundef %os) unnamed_addr #3 comdat align 2 {
entry:
  %call.i.i.i = tail call noundef nonnull align 8 dereferenceable(8) ptr @_ZStlsISt11char_traitsIcEERSt13basic_ostreamIcT_ES5_PKc(ptr noundef nonnull align 8 dereferenceable(8) %os, ptr noundef nonnull @.str.42)
  %call1.i.i.i = tail call noundef nonnull align 8 dereferenceable(8) ptr @_ZStlsISt11char_traitsIcEERSt13basic_ostreamIcT_ES5_PKc(ptr noundef nonnull align 8 dereferenceable(8) %os, ptr noundef nonnull @.str.43)
  ret void
}

; Function Attrs: mustprogress uwtable
define linkonce_odr dso_local void @_ZNK7testing8internal9MutexBase10AssertHeldEv(ptr noundef nonnull align 8 dereferenceable(56) %this) local_unnamed_addr #3 comdat align 2 personality ptr @__gxx_personality_v0 {
entry:
  %ref.tmp = alloca %"class.testing::internal::GTestLog", align 4
  %has_owner_ = getelementptr inbounds %"class.testing::internal::MutexBase", ptr %this, i64 0, i32 1
  %0 = load i8, ptr %has_owner_, align 8
  %1 = and i8 %0, 1
  %tobool.not = icmp eq i8 %1, 0
  br i1 %tobool.not, label %land.end, label %land.rhs

land.rhs:                                         ; preds = %entry
  %owner_ = getelementptr inbounds %"class.testing::internal::MutexBase", ptr %this, i64 0, i32 2
  %2 = load i64, ptr %owner_, align 8
  %call = tail call i64 @pthread_self() #25
  %call2 = tail call i32 @pthread_equal(i64 noundef %2, i64 noundef %call) #25
  %tobool3 = icmp ne i32 %call2, 0
  br label %land.end

land.end:                                         ; preds = %land.rhs, %entry
  %3 = phi i1 [ false, %entry ], [ %tobool3, %land.rhs ]
  %call4 = tail call noundef zeroext i1 @_ZN7testing8internal6IsTrueEb(i1 noundef zeroext %3)
  br i1 %call4, label %if.end, label %if.else

if.else:                                          ; preds = %land.end
  call void @_ZN7testing8internal8GTestLogC1ENS0_16GTestLogSeverityEPKci(ptr noundef nonnull align 4 dereferenceable(4) %ref.tmp, i32 noundef 3, ptr noundef nonnull @.str.29, i32 noundef 1686)
  %call7 = invoke noundef nonnull align 8 dereferenceable(8) ptr @_ZStlsISt11char_traitsIcEERSt13basic_ostreamIcT_ES5_PKc(ptr noundef nonnull align 8 dereferenceable(8) @_ZSt4cerr, ptr noundef nonnull @.str.30)
          to label %invoke.cont6 unwind label %lpad

invoke.cont6:                                     ; preds = %if.else
  %call9 = invoke noundef nonnull align 8 dereferenceable(8) ptr @_ZStlsISt11char_traitsIcEERSt13basic_ostreamIcT_ES5_PKc(ptr noundef nonnull align 8 dereferenceable(8) %call7, ptr noundef nonnull @.str.31)
          to label %invoke.cont8 unwind label %lpad

invoke.cont8:                                     ; preds = %invoke.cont6
  %call11 = invoke noundef nonnull align 8 dereferenceable(8) ptr @_ZNSolsEPKv(ptr noundef nonnull align 8 dereferenceable(8) %call9, ptr noundef nonnull %this)
          to label %invoke.cont10 unwind label %lpad

invoke.cont10:                                    ; preds = %invoke.cont8
  call void @_ZN7testing8internal8GTestLogD1Ev(ptr noundef nonnull align 4 dereferenceable(4) %ref.tmp) #21
  br label %if.end

lpad:                                             ; preds = %invoke.cont8, %invoke.cont6, %if.else
  %4 = landingpad { ptr, i32 }
          cleanup
  call void @_ZN7testing8internal8GTestLogD1Ev(ptr noundef nonnull align 4 dereferenceable(4) %ref.tmp) #21
  resume { ptr, i32 } %4

if.end:                                           ; preds = %land.end, %invoke.cont10
  ret void
}

; Function Attrs: mustprogress uwtable
define linkonce_odr dso_local void @_ZN7testing8internal9MutexBase6UnlockEv(ptr noundef nonnull align 8 dereferenceable(56) %this) local_unnamed_addr #3 comdat align 2 personality ptr @__gxx_personality_v0 {
entry:
  %ref.tmp = alloca %"class.testing::internal::GTestLog", align 4
  %has_owner_ = getelementptr inbounds %"class.testing::internal::MutexBase", ptr %this, i64 0, i32 1
  store i8 0, ptr %has_owner_, align 8
  %call = tail call i32 @pthread_mutex_unlock(ptr noundef nonnull %this) #21
  %tobool.not = icmp eq i32 %call, 0
  br i1 %tobool.not, label %if.end, label %if.then

if.then:                                          ; preds = %entry
  call void @_ZN7testing8internal8GTestLogC1ENS0_16GTestLogSeverityEPKci(ptr noundef nonnull align 4 dereferenceable(4) %ref.tmp, i32 noundef 3, ptr noundef nonnull @.str.29, i32 noundef 1680)
  %call3 = invoke noundef nonnull align 8 dereferenceable(8) ptr @_ZStlsISt11char_traitsIcEERSt13basic_ostreamIcT_ES5_PKc(ptr noundef nonnull align 8 dereferenceable(8) @_ZSt4cerr, ptr noundef nonnull @.str.32)
          to label %invoke.cont unwind label %lpad

invoke.cont:                                      ; preds = %if.then
  %call5 = invoke noundef nonnull align 8 dereferenceable(8) ptr @_ZStlsISt11char_traitsIcEERSt13basic_ostreamIcT_ES5_PKc(ptr noundef nonnull align 8 dereferenceable(8) %call3, ptr noundef nonnull @.str.33)
          to label %invoke.cont4 unwind label %lpad

invoke.cont4:                                     ; preds = %invoke.cont
  %call7 = invoke noundef nonnull align 8 dereferenceable(8) ptr @_ZNSolsEi(ptr noundef nonnull align 8 dereferenceable(8) %call5, i32 noundef %call)
          to label %invoke.cont6 unwind label %lpad

invoke.cont6:                                     ; preds = %invoke.cont4
  call void @_ZN7testing8internal8GTestLogD1Ev(ptr noundef nonnull align 4 dereferenceable(4) %ref.tmp) #21
  br label %if.end

lpad:                                             ; preds = %invoke.cont4, %invoke.cont, %if.then
  %0 = landingpad { ptr, i32 }
          cleanup
  call void @_ZN7testing8internal8GTestLogD1Ev(ptr noundef nonnull align 4 dereferenceable(4) %ref.tmp) #21
  resume { ptr, i32 } %0

if.end:                                           ; preds = %invoke.cont6, %entry
  ret void
}

; Function Attrs: mustprogress uwtable
define linkonce_odr dso_local void @_ZN7testing8internal9MutexBase4LockEv(ptr noundef nonnull align 8 dereferenceable(56) %this) local_unnamed_addr #3 comdat align 2 personality ptr @__gxx_personality_v0 {
entry:
  %ref.tmp = alloca %"class.testing::internal::GTestLog", align 4
  %call = tail call i32 @pthread_mutex_lock(ptr noundef nonnull %this) #21
  %tobool.not = icmp eq i32 %call, 0
  br i1 %tobool.not, label %if.end, label %if.then

if.then:                                          ; preds = %entry
  call void @_ZN7testing8internal8GTestLogC1ENS0_16GTestLogSeverityEPKci(ptr noundef nonnull align 4 dereferenceable(4) %ref.tmp, i32 noundef 3, ptr noundef nonnull @.str.29, i32 noundef 1668)
  %call3 = invoke noundef nonnull align 8 dereferenceable(8) ptr @_ZStlsISt11char_traitsIcEERSt13basic_ostreamIcT_ES5_PKc(ptr noundef nonnull align 8 dereferenceable(8) @_ZSt4cerr, ptr noundef nonnull @.str.36)
          to label %invoke.cont unwind label %lpad

invoke.cont:                                      ; preds = %if.then
  %call5 = invoke noundef nonnull align 8 dereferenceable(8) ptr @_ZStlsISt11char_traitsIcEERSt13basic_ostreamIcT_ES5_PKc(ptr noundef nonnull align 8 dereferenceable(8) %call3, ptr noundef nonnull @.str.33)
          to label %invoke.cont4 unwind label %lpad

invoke.cont4:                                     ; preds = %invoke.cont
  %call7 = invoke noundef nonnull align 8 dereferenceable(8) ptr @_ZNSolsEi(ptr noundef nonnull align 8 dereferenceable(8) %call5, i32 noundef %call)
          to label %invoke.cont6 unwind label %lpad

invoke.cont6:                                     ; preds = %invoke.cont4
  call void @_ZN7testing8internal8GTestLogD1Ev(ptr noundef nonnull align 4 dereferenceable(4) %ref.tmp) #21
  br label %if.end

lpad:                                             ; preds = %invoke.cont4, %invoke.cont, %if.then
  %0 = landingpad { ptr, i32 }
          cleanup
  call void @_ZN7testing8internal8GTestLogD1Ev(ptr noundef nonnull align 4 dereferenceable(4) %ref.tmp) #21
  resume { ptr, i32 } %0

if.end:                                           ; preds = %invoke.cont6, %entry
  %call8 = tail call i64 @pthread_self() #25
  %owner_ = getelementptr inbounds %"class.testing::internal::MutexBase", ptr %this, i64 0, i32 2
  store i64 %call8, ptr %owner_, align 8
  %has_owner_ = getelementptr inbounds %"class.testing::internal::MutexBase", ptr %this, i64 0, i32 1
  store i8 1, ptr %has_owner_, align 8
  ret void
}

declare noundef zeroext i1 @_ZN7testing8internal6IsTrueEb(i1 noundef zeroext) local_unnamed_addr #0

; Function Attrs: mustprogress nofree nosync nounwind willreturn memory(none)
declare i32 @pthread_equal(i64 noundef, i64 noundef) local_unnamed_addr #9

; Function Attrs: mustprogress nofree nosync nounwind willreturn memory(none)
declare i64 @pthread_self() local_unnamed_addr #9

declare noundef nonnull align 8 dereferenceable(8) ptr @_ZStlsISt11char_traitsIcEERSt13basic_ostreamIcT_ES5_PKc(ptr noundef nonnull align 8 dereferenceable(8), ptr noundef) local_unnamed_addr #0

declare void @_ZN7testing8internal8GTestLogC1ENS0_16GTestLogSeverityEPKci(ptr noundef nonnull align 4 dereferenceable(4), i32 noundef, ptr noundef, i32 noundef) unnamed_addr #0

declare noundef nonnull align 8 dereferenceable(8) ptr @_ZNSolsEPKv(ptr noundef nonnull align 8 dereferenceable(8), ptr noundef) local_unnamed_addr #0

; Function Attrs: nounwind
declare void @_ZN7testing8internal8GTestLogD1Ev(ptr noundef nonnull align 4 dereferenceable(4)) unnamed_addr #1

; Function Attrs: noreturn nounwind uwtable
define linkonce_odr hidden void @__clang_call_terminate(ptr noundef %0) local_unnamed_addr #10 comdat {
  %2 = tail call ptr @__cxa_begin_catch(ptr %0) #21
  tail call void @_ZSt9terminatev() #24
  unreachable
}

declare ptr @__cxa_begin_catch(ptr) local_unnamed_addr

declare void @_ZSt9terminatev() local_unnamed_addr

; Function Attrs: nounwind
declare i32 @pthread_mutex_unlock(ptr noundef) local_unnamed_addr #1

declare noundef nonnull align 8 dereferenceable(8) ptr @_ZNSolsEi(ptr noundef nonnull align 8 dereferenceable(8), i32 noundef) local_unnamed_addr #0

; Function Attrs: mustprogress nounwind uwtable
define linkonce_odr dso_local void @_ZN7testing7MatcherIRKSt5tupleIJEEED2Ev(ptr noundef nonnull align 8 dereferenceable(24) %this) unnamed_addr #7 comdat align 2 personality ptr @__gxx_personality_v0 {
entry:
  store ptr getelementptr inbounds ({ [6 x ptr] }, ptr @_ZTVN7testing8internal11MatcherBaseIRKSt5tupleIJEEEE, i64 0, inrange i32 0, i64 2), ptr %this, align 8
  %vtable_.i.i.i = getelementptr inbounds %"class.testing::internal::MatcherBase", ptr %this, i64 0, i32 1
  %0 = load ptr, ptr %vtable_.i.i.i, align 8
  %cmp.not.i.i.i = icmp eq ptr %0, null
  br i1 %cmp.not.i.i.i, label %_ZN7testing8internal11MatcherBaseIRKSt5tupleIJEEED2Ev.exit, label %_ZNK7testing8internal11MatcherBaseIRKSt5tupleIJEEE8IsSharedEv.exit.i.i

_ZNK7testing8internal11MatcherBaseIRKSt5tupleIJEEE8IsSharedEv.exit.i.i: ; preds = %entry
  %shared_destroy.i.i.i = getelementptr inbounds %"struct.testing::internal::MatcherBase<const std::tuple<> &>::VTable", ptr %0, i64 0, i32 3
  %1 = load ptr, ptr %shared_destroy.i.i.i, align 8
  %cmp3.i.not.i.i = icmp eq ptr %1, null
  br i1 %cmp3.i.not.i.i, label %_ZN7testing8internal11MatcherBaseIRKSt5tupleIJEEED2Ev.exit, label %land.lhs.true.i.i

land.lhs.true.i.i:                                ; preds = %_ZNK7testing8internal11MatcherBaseIRKSt5tupleIJEEE8IsSharedEv.exit.i.i
  %buffer_.i.i = getelementptr inbounds %"class.testing::internal::MatcherBase", ptr %this, i64 0, i32 2
  %2 = load ptr, ptr %buffer_.i.i, align 8
  %3 = atomicrmw sub ptr %2, i32 1 acq_rel, align 4
  %cmp.i.i.i = icmp eq i32 %3, 1
  br i1 %cmp.i.i.i, label %if.then.i.i, label %_ZN7testing8internal11MatcherBaseIRKSt5tupleIJEEED2Ev.exit

if.then.i.i:                                      ; preds = %land.lhs.true.i.i
  %4 = load ptr, ptr %vtable_.i.i.i, align 8
  %shared_destroy.i.i = getelementptr inbounds %"struct.testing::internal::MatcherBase<const std::tuple<> &>::VTable", ptr %4, i64 0, i32 3
  %5 = load ptr, ptr %shared_destroy.i.i, align 8
  %6 = load ptr, ptr %buffer_.i.i, align 8
  invoke void %5(ptr noundef %6)
          to label %_ZN7testing8internal11MatcherBaseIRKSt5tupleIJEEED2Ev.exit unwind label %terminate.lpad.i

terminate.lpad.i:                                 ; preds = %if.then.i.i
  %7 = landingpad { ptr, i32 }
          catch ptr null
  %8 = extractvalue { ptr, i32 } %7, 0
  tail call void @__clang_call_terminate(ptr %8) #24
  unreachable

_ZN7testing8internal11MatcherBaseIRKSt5tupleIJEEED2Ev.exit: ; preds = %entry, %_ZNK7testing8internal11MatcherBaseIRKSt5tupleIJEEE8IsSharedEv.exit.i.i, %land.lhs.true.i.i, %if.then.i.i
  ret void
}

; Function Attrs: mustprogress nounwind uwtable
define linkonce_odr dso_local void @_ZN7testing8internal11MatcherBaseIRKSt5tupleIJEEED2Ev(ptr noundef nonnull align 8 dereferenceable(24) %this) unnamed_addr #7 comdat align 2 personality ptr @__gxx_personality_v0 {
entry:
  store ptr getelementptr inbounds ({ [6 x ptr] }, ptr @_ZTVN7testing8internal11MatcherBaseIRKSt5tupleIJEEEE, i64 0, inrange i32 0, i64 2), ptr %this, align 8
  %vtable_.i.i = getelementptr inbounds %"class.testing::internal::MatcherBase", ptr %this, i64 0, i32 1
  %0 = load ptr, ptr %vtable_.i.i, align 8
  %cmp.not.i.i = icmp eq ptr %0, null
  br i1 %cmp.not.i.i, label %invoke.cont, label %_ZNK7testing8internal11MatcherBaseIRKSt5tupleIJEEE8IsSharedEv.exit.i

_ZNK7testing8internal11MatcherBaseIRKSt5tupleIJEEE8IsSharedEv.exit.i: ; preds = %entry
  %shared_destroy.i.i = getelementptr inbounds %"struct.testing::internal::MatcherBase<const std::tuple<> &>::VTable", ptr %0, i64 0, i32 3
  %1 = load ptr, ptr %shared_destroy.i.i, align 8
  %cmp3.i.not.i = icmp eq ptr %1, null
  br i1 %cmp3.i.not.i, label %invoke.cont, label %land.lhs.true.i

land.lhs.true.i:                                  ; preds = %_ZNK7testing8internal11MatcherBaseIRKSt5tupleIJEEE8IsSharedEv.exit.i
  %buffer_.i = getelementptr inbounds %"class.testing::internal::MatcherBase", ptr %this, i64 0, i32 2
  %2 = load ptr, ptr %buffer_.i, align 8
  %3 = atomicrmw sub ptr %2, i32 1 acq_rel, align 4
  %cmp.i.i = icmp eq i32 %3, 1
  br i1 %cmp.i.i, label %if.then.i, label %invoke.cont

if.then.i:                                        ; preds = %land.lhs.true.i
  %4 = load ptr, ptr %vtable_.i.i, align 8
  %shared_destroy.i = getelementptr inbounds %"struct.testing::internal::MatcherBase<const std::tuple<> &>::VTable", ptr %4, i64 0, i32 3
  %5 = load ptr, ptr %shared_destroy.i, align 8
  %6 = load ptr, ptr %buffer_.i, align 8
  invoke void %5(ptr noundef %6)
          to label %invoke.cont unwind label %terminate.lpad

invoke.cont:                                      ; preds = %land.lhs.true.i, %_ZNK7testing8internal11MatcherBaseIRKSt5tupleIJEEE8IsSharedEv.exit.i, %entry, %if.then.i
  ret void

terminate.lpad:                                   ; preds = %if.then.i
  %7 = landingpad { ptr, i32 }
          catch ptr null
  %8 = extractvalue { ptr, i32 } %7, 0
  tail call void @__clang_call_terminate(ptr %8) #24
  unreachable
}

; Function Attrs: mustprogress nounwind uwtable
define linkonce_odr dso_local void @_ZN7testing8internal11MatcherBaseIRKSt5tupleIJEEED0Ev(ptr noundef nonnull align 8 dereferenceable(24) %this) unnamed_addr #7 comdat align 2 personality ptr @__gxx_personality_v0 {
entry:
  store ptr getelementptr inbounds ({ [6 x ptr] }, ptr @_ZTVN7testing8internal11MatcherBaseIRKSt5tupleIJEEEE, i64 0, inrange i32 0, i64 2), ptr %this, align 8
  %vtable_.i.i.i = getelementptr inbounds %"class.testing::internal::MatcherBase", ptr %this, i64 0, i32 1
  %0 = load ptr, ptr %vtable_.i.i.i, align 8
  %cmp.not.i.i.i = icmp eq ptr %0, null
  br i1 %cmp.not.i.i.i, label %_ZN7testing8internal11MatcherBaseIRKSt5tupleIJEEED2Ev.exit, label %_ZNK7testing8internal11MatcherBaseIRKSt5tupleIJEEE8IsSharedEv.exit.i.i

_ZNK7testing8internal11MatcherBaseIRKSt5tupleIJEEE8IsSharedEv.exit.i.i: ; preds = %entry
  %shared_destroy.i.i.i = getelementptr inbounds %"struct.testing::internal::MatcherBase<const std::tuple<> &>::VTable", ptr %0, i64 0, i32 3
  %1 = load ptr, ptr %shared_destroy.i.i.i, align 8
  %cmp3.i.not.i.i = icmp eq ptr %1, null
  br i1 %cmp3.i.not.i.i, label %_ZN7testing8internal11MatcherBaseIRKSt5tupleIJEEED2Ev.exit, label %land.lhs.true.i.i

land.lhs.true.i.i:                                ; preds = %_ZNK7testing8internal11MatcherBaseIRKSt5tupleIJEEE8IsSharedEv.exit.i.i
  %buffer_.i.i = getelementptr inbounds %"class.testing::internal::MatcherBase", ptr %this, i64 0, i32 2
  %2 = load ptr, ptr %buffer_.i.i, align 8
  %3 = atomicrmw sub ptr %2, i32 1 acq_rel, align 4
  %cmp.i.i.i = icmp eq i32 %3, 1
  br i1 %cmp.i.i.i, label %if.then.i.i, label %_ZN7testing8internal11MatcherBaseIRKSt5tupleIJEEED2Ev.exit

if.then.i.i:                                      ; preds = %land.lhs.true.i.i
  %4 = load ptr, ptr %vtable_.i.i.i, align 8
  %shared_destroy.i.i = getelementptr inbounds %"struct.testing::internal::MatcherBase<const std::tuple<> &>::VTable", ptr %4, i64 0, i32 3
  %5 = load ptr, ptr %shared_destroy.i.i, align 8
  %6 = load ptr, ptr %buffer_.i.i, align 8
  invoke void %5(ptr noundef %6)
          to label %_ZN7testing8internal11MatcherBaseIRKSt5tupleIJEEED2Ev.exit unwind label %terminate.lpad.i

terminate.lpad.i:                                 ; preds = %if.then.i.i
  %7 = landingpad { ptr, i32 }
          catch ptr null
  %8 = extractvalue { ptr, i32 } %7, 0
  tail call void @__clang_call_terminate(ptr %8) #24
  unreachable

_ZN7testing8internal11MatcherBaseIRKSt5tupleIJEEED2Ev.exit: ; preds = %entry, %_ZNK7testing8internal11MatcherBaseIRKSt5tupleIJEEE8IsSharedEv.exit.i.i, %land.lhs.true.i.i, %if.then.i.i
  tail call void @_ZdlPv(ptr noundef nonnull %this) #22
  ret void
}

; Function Attrs: mustprogress uwtable
define linkonce_odr dso_local void @_ZNK7testing8internal11MatcherBaseIRKSt5tupleIJEEE10DescribeToEPSo(ptr noundef nonnull align 8 dereferenceable(24) %this, ptr noundef %os) unnamed_addr #3 comdat align 2 personality ptr @__gxx_personality_v0 {
entry:
  %ref.tmp = alloca %"class.testing::internal::GTestLog", align 4
  %vtable_ = getelementptr inbounds %"class.testing::internal::MatcherBase", ptr %this, i64 0, i32 1
  %0 = load ptr, ptr %vtable_, align 8
  %cmp = icmp ne ptr %0, null
  %call = tail call noundef zeroext i1 @_ZN7testing8internal6IsTrueEb(i1 noundef zeroext %cmp)
  br i1 %call, label %if.end, label %if.else

if.else:                                          ; preds = %entry
  call void @_ZN7testing8internal8GTestLogC1ENS0_16GTestLogSeverityEPKci(ptr noundef nonnull align 4 dereferenceable(4) %ref.tmp, i32 noundef 3, ptr noundef nonnull @.str.34, i32 noundef 245)
  %call3 = invoke noundef nonnull align 8 dereferenceable(8) ptr @_ZStlsISt11char_traitsIcEERSt13basic_ostreamIcT_ES5_PKc(ptr noundef nonnull align 8 dereferenceable(8) @_ZSt4cerr, ptr noundef nonnull @.str.35)
          to label %invoke.cont unwind label %lpad

invoke.cont:                                      ; preds = %if.else
  call void @_ZN7testing8internal8GTestLogD1Ev(ptr noundef nonnull align 4 dereferenceable(4) %ref.tmp) #21
  br label %if.end

lpad:                                             ; preds = %if.else
  %1 = landingpad { ptr, i32 }
          cleanup
  call void @_ZN7testing8internal8GTestLogD1Ev(ptr noundef nonnull align 4 dereferenceable(4) %ref.tmp) #21
  resume { ptr, i32 } %1

if.end:                                           ; preds = %entry, %invoke.cont
  %2 = load ptr, ptr %vtable_, align 8
  %describe = getelementptr inbounds %"struct.testing::internal::MatcherBase<const std::tuple<> &>::VTable", ptr %2, i64 0, i32 1
  %3 = load ptr, ptr %describe, align 8
  call void %3(ptr noundef nonnull align 8 dereferenceable(24) %this, ptr noundef %os, i1 noundef zeroext false)
  ret void
}

; Function Attrs: mustprogress uwtable
define linkonce_odr dso_local void @_ZNK7testing8internal11MatcherBaseIRKSt5tupleIJEEE18DescribeNegationToEPSo(ptr noundef nonnull align 8 dereferenceable(24) %this, ptr noundef %os) unnamed_addr #3 comdat align 2 personality ptr @__gxx_personality_v0 {
entry:
  %ref.tmp = alloca %"class.testing::internal::GTestLog", align 4
  %vtable_ = getelementptr inbounds %"class.testing::internal::MatcherBase", ptr %this, i64 0, i32 1
  %0 = load ptr, ptr %vtable_, align 8
  %cmp = icmp ne ptr %0, null
  %call = tail call noundef zeroext i1 @_ZN7testing8internal6IsTrueEb(i1 noundef zeroext %cmp)
  br i1 %call, label %if.end, label %if.else

if.else:                                          ; preds = %entry
  call void @_ZN7testing8internal8GTestLogC1ENS0_16GTestLogSeverityEPKci(ptr noundef nonnull align 4 dereferenceable(4) %ref.tmp, i32 noundef 3, ptr noundef nonnull @.str.34, i32 noundef 251)
  %call3 = invoke noundef nonnull align 8 dereferenceable(8) ptr @_ZStlsISt11char_traitsIcEERSt13basic_ostreamIcT_ES5_PKc(ptr noundef nonnull align 8 dereferenceable(8) @_ZSt4cerr, ptr noundef nonnull @.str.35)
          to label %invoke.cont unwind label %lpad

invoke.cont:                                      ; preds = %if.else
  call void @_ZN7testing8internal8GTestLogD1Ev(ptr noundef nonnull align 4 dereferenceable(4) %ref.tmp) #21
  br label %if.end

lpad:                                             ; preds = %if.else
  %1 = landingpad { ptr, i32 }
          cleanup
  call void @_ZN7testing8internal8GTestLogD1Ev(ptr noundef nonnull align 4 dereferenceable(4) %ref.tmp) #21
  resume { ptr, i32 } %1

if.end:                                           ; preds = %entry, %invoke.cont
  %2 = load ptr, ptr %vtable_, align 8
  %describe = getelementptr inbounds %"struct.testing::internal::MatcherBase<const std::tuple<> &>::VTable", ptr %2, i64 0, i32 1
  %3 = load ptr, ptr %describe, align 8
  call void %3(ptr noundef nonnull align 8 dereferenceable(24) %this, ptr noundef %os, i1 noundef zeroext true)
  ret void
}

; Function Attrs: nounwind
declare i32 @pthread_mutex_lock(ptr noundef) local_unnamed_addr #1

; Function Attrs: mustprogress uwtable
define linkonce_odr dso_local void @_ZNK7testing8internal14FunctionMockerIFivEE23DescribeDefaultActionToERKSt5tupleIJEEPSo(ptr noundef nonnull align 8 dereferenceable(72) %this, ptr noundef nonnull align 1 dereferenceable(1) %args, ptr noundef %os) local_unnamed_addr #3 comdat align 2 personality ptr @__gxx_personality_v0 {
entry:
  %ref.tmp = alloca %"class.std::__cxx11::basic_string", align 8
  %call = tail call noundef ptr @_ZNK7testing8internal14FunctionMockerIFivEE14FindOnCallSpecERKSt5tupleIJEE(ptr noundef nonnull align 8 dereferenceable(72) %this, ptr noundef nonnull align 1 dereferenceable(1) %args)
  %cmp = icmp eq ptr %call, null
  br i1 %cmp, label %if.then, label %if.else

if.then:                                          ; preds = %entry
  %call2 = tail call noundef nonnull align 8 dereferenceable(8) ptr @_ZStlsISt11char_traitsIcEERSt13basic_ostreamIcT_ES5_PKc(ptr noundef nonnull align 8 dereferenceable(8) %os, ptr noundef nonnull @.str.39)
  br label %if.end

if.else:                                          ; preds = %entry
  %call3 = tail call noundef nonnull align 8 dereferenceable(8) ptr @_ZStlsISt11char_traitsIcEERSt13basic_ostreamIcT_ES5_PKc(ptr noundef nonnull align 8 dereferenceable(8) %os, ptr noundef nonnull @.str.40)
  %0 = load ptr, ptr %call, align 8
  %line_.i = getelementptr inbounds %"class.testing::internal::UntypedOnCallSpecBase", ptr %call, i64 0, i32 1
  %1 = load i32, ptr %line_.i, align 8
  call void @_ZN7testing8internal18FormatFileLocationB5cxx11EPKci(ptr nonnull sret(%"class.std::__cxx11::basic_string") align 8 %ref.tmp, ptr noundef %0, i32 noundef %1)
  %call6 = invoke noundef nonnull align 8 dereferenceable(8) ptr @_ZStlsIcSt11char_traitsIcESaIcEERSt13basic_ostreamIT_T0_ES7_RKNSt7__cxx1112basic_stringIS4_S5_T1_EE(ptr noundef nonnull align 8 dereferenceable(8) %call3, ptr noundef nonnull align 8 dereferenceable(32) %ref.tmp)
          to label %invoke.cont unwind label %lpad

invoke.cont:                                      ; preds = %if.else
  %call8 = invoke noundef nonnull align 8 dereferenceable(8) ptr @_ZStlsISt11char_traitsIcEERSt13basic_ostreamIcT_ES5_PKc(ptr noundef nonnull align 8 dereferenceable(8) %call6, ptr noundef nonnull @.str.41)
          to label %invoke.cont7 unwind label %lpad

invoke.cont7:                                     ; preds = %invoke.cont
  call void @_ZNSt7__cxx1112basic_stringIcSt11char_traitsIcESaIcEED1Ev(ptr noundef nonnull align 8 dereferenceable(32) %ref.tmp) #21
  br label %if.end

lpad:                                             ; preds = %invoke.cont, %if.else
  %2 = landingpad { ptr, i32 }
          cleanup
  call void @_ZNSt7__cxx1112basic_stringIcSt11char_traitsIcESaIcEED1Ev(ptr noundef nonnull align 8 dereferenceable(32) %ref.tmp) #21
  resume { ptr, i32 } %2

if.end:                                           ; preds = %invoke.cont7, %if.then
  ret void
}

declare noundef ptr @_ZNK7testing8internal25UntypedFunctionMockerBase4NameEv(ptr noundef nonnull align 8 dereferenceable(72)) local_unnamed_addr #0

; Function Attrs: mustprogress uwtable
define linkonce_odr dso_local noundef ptr @_ZNK7testing8internal14FunctionMockerIFivEE14FindOnCallSpecERKSt5tupleIJEE(ptr noundef nonnull align 8 dereferenceable(72) %this, ptr noundef nonnull align 1 dereferenceable(1) %args) local_unnamed_addr #3 comdat align 2 personality ptr @__gxx_personality_v0 {
entry:
  %ref.tmp.i.i.i = alloca %"class.testing::internal::GTestLog", align 4
  %dummy.i.i = alloca %"class.testing::internal::DummyMatchResultListener", align 8
  %untyped_on_call_specs_ = getelementptr inbounds %"class.testing::internal::UntypedFunctionMockerBase", ptr %this, i64 0, i32 3
  %_M_finish.i.i = getelementptr inbounds %"class.testing::internal::UntypedFunctionMockerBase", ptr %this, i64 0, i32 3, i32 0, i32 0, i32 0, i32 1
  %0 = load ptr, ptr %_M_finish.i.i, align 8, !noalias !24
  %stream_.i.i.i.i = getelementptr inbounds %"class.testing::MatchResultListener", ptr %dummy.i.i, i64 0, i32 1
  br label %for.cond

for.cond:                                         ; preds = %_ZNK7testing8internal10OnCallSpecIFivEE7MatchesERKSt5tupleIJEE.exit, %entry
  %it.sroa.0.0 = phi ptr [ %0, %entry ], [ %incdec.ptr.i.i, %_ZNK7testing8internal10OnCallSpecIFivEE7MatchesERKSt5tupleIJEE.exit ]
  %1 = load ptr, ptr %untyped_on_call_specs_, align 8, !noalias !27
  %cmp.i.i.i.not = icmp eq ptr %it.sroa.0.0, %1
  br i1 %cmp.i.i.i.not, label %return, label %for.body

for.body:                                         ; preds = %for.cond
  %incdec.ptr.i.i = getelementptr inbounds ptr, ptr %it.sroa.0.0, i64 -1
  %2 = load ptr, ptr %incdec.ptr.i.i, align 8
  call void @llvm.lifetime.start.p0(i64 16, ptr nonnull %dummy.i.i)
  store ptr null, ptr %stream_.i.i.i.i, align 8
  store ptr getelementptr inbounds ({ [4 x ptr] }, ptr @_ZTVN7testing8internal24DummyMatchResultListenerE, i64 0, inrange i32 0, i64 2), ptr %dummy.i.i, align 8
  call void @llvm.lifetime.start.p0(i64 4, ptr nonnull %ref.tmp.i.i.i)
  %vtable_.i.i.i = getelementptr inbounds %"class.testing::internal::OnCallSpec", ptr %2, i64 0, i32 2, i32 0, i32 1
  %3 = load ptr, ptr %vtable_.i.i.i, align 8
  %cmp.i.i.i2 = icmp ne ptr %3, null
  %call.i1.i.i = call noundef zeroext i1 @_ZN7testing8internal6IsTrueEb(i1 noundef zeroext %cmp.i.i.i2)
  br i1 %call.i1.i.i, label %_ZNK7testing8internal10OnCallSpecIFivEE7MatchesERKSt5tupleIJEE.exit, label %if.else.i.i.i

if.else.i.i.i:                                    ; preds = %for.body
  call void @_ZN7testing8internal8GTestLogC1ENS0_16GTestLogSeverityEPKci(ptr noundef nonnull align 4 dereferenceable(4) %ref.tmp.i.i.i, i32 noundef 3, ptr noundef nonnull @.str.34, i32 noundef 233)
  %call3.i.i.i = invoke noundef nonnull align 8 dereferenceable(8) ptr @_ZStlsISt11char_traitsIcEERSt13basic_ostreamIcT_ES5_PKc(ptr noundef nonnull align 8 dereferenceable(8) @_ZSt4cerr, ptr noundef nonnull @.str.35)
          to label %invoke.cont.i.i.i unwind label %lpad.i.i.i

invoke.cont.i.i.i:                                ; preds = %if.else.i.i.i
  call void @_ZN7testing8internal8GTestLogD1Ev(ptr noundef nonnull align 4 dereferenceable(4) %ref.tmp.i.i.i) #21
  br label %_ZNK7testing8internal10OnCallSpecIFivEE7MatchesERKSt5tupleIJEE.exit

lpad.i.i.i:                                       ; preds = %if.else.i.i.i
  %4 = landingpad { ptr, i32 }
          cleanup
  call void @_ZN7testing8internal8GTestLogD1Ev(ptr noundef nonnull align 4 dereferenceable(4) %ref.tmp.i.i.i) #21
  resume { ptr, i32 } %4

_ZNK7testing8internal10OnCallSpecIFivEE7MatchesERKSt5tupleIJEE.exit: ; preds = %for.body, %invoke.cont.i.i.i
  %extra_matcher_.i = getelementptr inbounds %"class.testing::internal::OnCallSpec", ptr %2, i64 0, i32 2
  %5 = load ptr, ptr %vtable_.i.i.i, align 8
  %6 = load ptr, ptr %5, align 8
  %call5.i2.i.i = call noundef zeroext i1 %6(ptr noundef nonnull align 8 dereferenceable(24) %extra_matcher_.i, ptr noundef nonnull align 1 dereferenceable(1) %args, ptr noundef nonnull %dummy.i.i)
  call void @llvm.lifetime.end.p0(i64 4, ptr nonnull %ref.tmp.i.i.i)
  call void @llvm.lifetime.end.p0(i64 16, ptr nonnull %dummy.i.i)
  br i1 %call5.i2.i.i, label %return, label %for.cond, !llvm.loop !30

return:                                           ; preds = %for.cond, %_ZNK7testing8internal10OnCallSpecIFivEE7MatchesERKSt5tupleIJEE.exit
  %retval.0 = phi ptr [ %2, %_ZNK7testing8internal10OnCallSpecIFivEE7MatchesERKSt5tupleIJEE.exit ], [ null, %for.cond ]
  ret ptr %retval.0
}

declare noundef nonnull align 8 dereferenceable(8) ptr @_ZStlsIcSt11char_traitsIcESaIcEERSt13basic_ostreamIT_T0_ES7_RKNSt7__cxx1112basic_stringIS4_S5_T1_EE(ptr noundef nonnull align 8 dereferenceable(8), ptr noundef nonnull align 8 dereferenceable(32)) local_unnamed_addr #0

declare void @_ZN7testing8internal18FormatFileLocationB5cxx11EPKci(ptr sret(%"class.std::__cxx11::basic_string") align 8, ptr noundef, i32 noundef) local_unnamed_addr #0

; Function Attrs: mustprogress nocallback nofree nounwind willreturn memory(argmem: readwrite)
declare void @llvm.memcpy.p0.p0.i64(ptr noalias nocapture writeonly, ptr noalias nocapture readonly, i64, i1 immarg) #11

; Function Attrs: mustprogress nounwind uwtable
define linkonce_odr dso_local void @_ZN7testing8internal24DummyMatchResultListenerD2Ev(ptr noundef nonnull align 8 dereferenceable(16) %this) unnamed_addr #7 comdat align 2 {
entry:
  ret void
}

; Function Attrs: mustprogress nounwind uwtable
define linkonce_odr dso_local void @_ZN7testing8internal24DummyMatchResultListenerD0Ev(ptr noundef nonnull align 8 dereferenceable(16) %this) unnamed_addr #7 comdat align 2 {
entry:
  tail call void @_ZdlPv(ptr noundef nonnull %this) #22
  ret void
}

; Function Attrs: mustprogress uwtable
define linkonce_odr dso_local noundef ptr @_ZN7testing8internal16TypedExpectationIFivEE21GetActionForArgumentsEPKNS0_14FunctionMockerIS2_EERKSt5tupleIJEEPSoSC_(ptr noundef nonnull align 8 dereferenceable(336) %this, ptr noundef %mocker, ptr noundef nonnull align 1 dereferenceable(1) %args, ptr noundef %what, ptr noundef %why) local_unnamed_addr #3 comdat align 2 {
entry:
  tail call void @_ZNK7testing8internal9MutexBase10AssertHeldEv(ptr noundef nonnull align 8 dereferenceable(56) @_ZN7testing8internal13g_gmock_mutexE)
  %description_.i = getelementptr inbounds %"class.testing::internal::ExpectationBase", ptr %this, i64 0, i32 4
  tail call void @_ZNK7testing8internal9MutexBase10AssertHeldEv(ptr noundef nonnull align 8 dereferenceable(56) @_ZN7testing8internal13g_gmock_mutexE)
  %cardinality_.i.i = getelementptr inbounds %"class.testing::internal::ExpectationBase", ptr %this, i64 0, i32 6
  %call_count_.i = getelementptr inbounds %"class.testing::internal::ExpectationBase", ptr %this, i64 0, i32 8
  %0 = load i32, ptr %call_count_.i, align 8
  %1 = load ptr, ptr %cardinality_.i.i, align 8
  %vtable.i.i = load ptr, ptr %1, align 8
  %vfn.i.i = getelementptr inbounds ptr, ptr %vtable.i.i, i64 5
  %2 = load ptr, ptr %vfn.i.i, align 8
  %call2.i.i = tail call noundef zeroext i1 %2(ptr noundef nonnull align 8 dereferenceable(8) %1, i32 noundef %0)
  tail call void @_ZNK7testing8internal9MutexBase10AssertHeldEv(ptr noundef nonnull align 8 dereferenceable(56) @_ZN7testing8internal13g_gmock_mutexE)
  %3 = load i32, ptr %call_count_.i, align 8
  %inc.i = add nsw i32 %3, 1
  store i32 %inc.i, ptr %call_count_.i, align 8
  br i1 %call2.i.i, label %if.then, label %if.end10

if.then:                                          ; preds = %entry
  %call3 = tail call noundef nonnull align 8 dereferenceable(8) ptr @_ZStlsISt11char_traitsIcEERSt13basic_ostreamIcT_ES5_PKc(ptr noundef nonnull align 8 dereferenceable(8) %what, ptr noundef nonnull @.str.64)
  %call4 = tail call noundef zeroext i1 @_ZNKSt7__cxx1112basic_stringIcSt11char_traitsIcESaIcEE5emptyEv(ptr noundef nonnull align 8 dereferenceable(32) %description_.i) #21
  br i1 %call4, label %if.end, label %if.then5

if.then5:                                         ; preds = %if.then
  %call6 = tail call noundef nonnull align 8 dereferenceable(8) ptr @_ZStlsISt11char_traitsIcEERSt13basic_ostreamIcT_ES5_PKc(ptr noundef nonnull align 8 dereferenceable(8) %what, ptr noundef nonnull @.str.65)
  %call7 = tail call noundef nonnull align 8 dereferenceable(8) ptr @_ZStlsIcSt11char_traitsIcESaIcEERSt13basic_ostreamIT_T0_ES7_RKNSt7__cxx1112basic_stringIS4_S5_T1_EE(ptr noundef nonnull align 8 dereferenceable(8) %call6, ptr noundef nonnull align 8 dereferenceable(32) %description_.i)
  %call8 = tail call noundef nonnull align 8 dereferenceable(8) ptr @_ZStlsISt11char_traitsIcEERSt13basic_ostreamIcT_ES5_PKc(ptr noundef nonnull align 8 dereferenceable(8) %call7, ptr noundef nonnull @.str.66)
  br label %if.end

if.end:                                           ; preds = %if.then5, %if.then
  %call9 = tail call noundef nonnull align 8 dereferenceable(8) ptr @_ZStlsISt11char_traitsIcEERSt13basic_ostreamIcT_ES5_PKc(ptr noundef nonnull align 8 dereferenceable(8) %what, ptr noundef nonnull @.str.67)
  tail call void @_ZNK7testing8internal14FunctionMockerIFivEE23DescribeDefaultActionToERKSt5tupleIJEEPSo(ptr noundef nonnull align 8 dereferenceable(72) %mocker, ptr noundef nonnull align 1 dereferenceable(1) %args, ptr noundef nonnull %what)
  tail call void @_ZNK7testing8internal15ExpectationBase19DescribeCallCountToEPSo(ptr noundef nonnull align 8 dereferenceable(264) %this, ptr noundef %why)
  br label %return

if.end10:                                         ; preds = %entry
  tail call void @_ZN7testing8internal15ExpectationBase22RetireAllPreRequisitesEv(ptr noundef nonnull align 8 dereferenceable(264) %this)
  %retires_on_saturation_ = getelementptr inbounds %"class.testing::internal::ExpectationBase", ptr %this, i64 0, i32 13
  %4 = load i8, ptr %retires_on_saturation_, align 2
  %5 = and i8 %4, 1
  %tobool.not = icmp eq i8 %5, 0
  br i1 %tobool.not, label %if.end13, label %land.lhs.true

land.lhs.true:                                    ; preds = %if.end10
  tail call void @_ZNK7testing8internal9MutexBase10AssertHeldEv(ptr noundef nonnull align 8 dereferenceable(56) @_ZN7testing8internal13g_gmock_mutexE)
  %6 = load i32, ptr %call_count_.i, align 8
  %7 = load ptr, ptr %cardinality_.i.i, align 8
  %vtable.i.i17 = load ptr, ptr %7, align 8
  %vfn.i.i18 = getelementptr inbounds ptr, ptr %vtable.i.i17, i64 5
  %8 = load ptr, ptr %vfn.i.i18, align 8
  %call2.i.i19 = tail call noundef zeroext i1 %8(ptr noundef nonnull align 8 dereferenceable(8) %7, i32 noundef %6)
  br i1 %call2.i.i19, label %if.then12, label %if.end13

if.then12:                                        ; preds = %land.lhs.true
  tail call void @_ZNK7testing8internal9MutexBase10AssertHeldEv(ptr noundef nonnull align 8 dereferenceable(56) @_ZN7testing8internal13g_gmock_mutexE)
  %retired_.i = getelementptr inbounds %"class.testing::internal::ExpectationBase", ptr %this, i64 0, i32 9
  store i8 1, ptr %retired_.i, align 4
  br label %if.end13

if.end13:                                         ; preds = %if.then12, %land.lhs.true, %if.end10
  %call14 = tail call noundef nonnull align 8 dereferenceable(8) ptr @_ZStlsISt11char_traitsIcEERSt13basic_ostreamIcT_ES5_PKc(ptr noundef nonnull align 8 dereferenceable(8) %what, ptr noundef nonnull @.str.64)
  %call15 = tail call noundef zeroext i1 @_ZNKSt7__cxx1112basic_stringIcSt11char_traitsIcESaIcEE5emptyEv(ptr noundef nonnull align 8 dereferenceable(32) %description_.i) #21
  br i1 %call15, label %if.end20, label %if.then16

if.then16:                                        ; preds = %if.end13
  %call17 = tail call noundef nonnull align 8 dereferenceable(8) ptr @_ZStlsISt11char_traitsIcEERSt13basic_ostreamIcT_ES5_PKc(ptr noundef nonnull align 8 dereferenceable(8) %what, ptr noundef nonnull @.str.65)
  %call18 = tail call noundef nonnull align 8 dereferenceable(8) ptr @_ZStlsIcSt11char_traitsIcESaIcEERSt13basic_ostreamIT_T0_ES7_RKNSt7__cxx1112basic_stringIS4_S5_T1_EE(ptr noundef nonnull align 8 dereferenceable(8) %call17, ptr noundef nonnull align 8 dereferenceable(32) %description_.i)
  %call19 = tail call noundef nonnull align 8 dereferenceable(8) ptr @_ZStlsISt11char_traitsIcEERSt13basic_ostreamIcT_ES5_PKc(ptr noundef nonnull align 8 dereferenceable(8) %call18, ptr noundef nonnull @.str.66)
  br label %if.end20

if.end20:                                         ; preds = %if.then16, %if.end13
  %call21 = tail call noundef nonnull align 8 dereferenceable(8) ptr @_ZStlsISt11char_traitsIcEERSt13basic_ostreamIcT_ES5_PKc(ptr noundef nonnull align 8 dereferenceable(8) %what, ptr noundef nonnull @.str.68)
  %source_text_.i = getelementptr inbounds %"class.testing::internal::ExpectationBase", ptr %this, i64 0, i32 3
  %call.i = tail call noundef ptr @_ZNKSt7__cxx1112basic_stringIcSt11char_traitsIcESaIcEE5c_strEv(ptr noundef nonnull align 8 dereferenceable(32) %source_text_.i) #21
  %call23 = tail call noundef nonnull align 8 dereferenceable(8) ptr @_ZStlsISt11char_traitsIcEERSt13basic_ostreamIcT_ES5_PKc(ptr noundef nonnull align 8 dereferenceable(8) %call21, ptr noundef %call.i)
  %call24 = tail call noundef nonnull align 8 dereferenceable(8) ptr @_ZStlsISt11char_traitsIcEERSt13basic_ostreamIcT_ES5_PKc(ptr noundef nonnull align 8 dereferenceable(8) %call23, ptr noundef nonnull @.str.52)
  %call25 = tail call noundef nonnull align 8 dereferenceable(32) ptr @_ZNK7testing8internal16TypedExpectationIFivEE16GetCurrentActionEPKNS0_14FunctionMockerIS2_EERKSt5tupleIJEE(ptr noundef nonnull align 8 dereferenceable(336) %this, ptr noundef %mocker, ptr noundef nonnull align 1 dereferenceable(1) %args)
  br label %return

return:                                           ; preds = %if.end20, %if.end
  %retval.0 = phi ptr [ null, %if.end ], [ %call25, %if.end20 ]
  ret ptr %retval.0
}

declare void @_ZNK7testing8internal15ExpectationBase25CheckActionCountIfNotDoneEv(ptr noundef nonnull align 8 dereferenceable(264)) local_unnamed_addr #0

declare noundef zeroext i1 @_ZNK7testing8internal15ExpectationBase28AllPrerequisitesAreSatisfiedEv(ptr noundef nonnull align 8 dereferenceable(264)) local_unnamed_addr #0

; Function Attrs: mustprogress uwtable
define linkonce_odr dso_local noundef zeroext i1 @_ZNK7testing8internal16TypedExpectationIFivEE7MatchesERKSt5tupleIJEE(ptr noundef nonnull align 8 dereferenceable(336) %this, ptr noundef nonnull align 1 dereferenceable(1) %args) local_unnamed_addr #3 comdat align 2 personality ptr @__gxx_personality_v0 {
land.rhs:
  %ref.tmp.i.i = alloca %"class.testing::internal::GTestLog", align 4
  %dummy.i = alloca %"class.testing::internal::DummyMatchResultListener", align 8
  tail call void @_ZNK7testing8internal9MutexBase10AssertHeldEv(ptr noundef nonnull align 8 dereferenceable(56) @_ZN7testing8internal13g_gmock_mutexE)
  call void @llvm.lifetime.start.p0(i64 16, ptr nonnull %dummy.i)
  %stream_.i.i.i = getelementptr inbounds %"class.testing::MatchResultListener", ptr %dummy.i, i64 0, i32 1
  store ptr null, ptr %stream_.i.i.i, align 8
  store ptr getelementptr inbounds ({ [4 x ptr] }, ptr @_ZTVN7testing8internal24DummyMatchResultListenerE, i64 0, inrange i32 0, i64 2), ptr %dummy.i, align 8
  call void @llvm.lifetime.start.p0(i64 4, ptr nonnull %ref.tmp.i.i)
  %vtable_.i.i = getelementptr inbounds %"class.testing::internal::TypedExpectation", ptr %this, i64 0, i32 3, i32 0, i32 1
  %0 = load ptr, ptr %vtable_.i.i, align 8
  %cmp.i.i = icmp ne ptr %0, null
  %call.i1.i = tail call noundef zeroext i1 @_ZN7testing8internal6IsTrueEb(i1 noundef zeroext %cmp.i.i)
  br i1 %call.i1.i, label %land.end, label %if.else.i.i

if.else.i.i:                                      ; preds = %land.rhs
  call void @_ZN7testing8internal8GTestLogC1ENS0_16GTestLogSeverityEPKci(ptr noundef nonnull align 4 dereferenceable(4) %ref.tmp.i.i, i32 noundef 3, ptr noundef nonnull @.str.34, i32 noundef 233)
  %call3.i.i = invoke noundef nonnull align 8 dereferenceable(8) ptr @_ZStlsISt11char_traitsIcEERSt13basic_ostreamIcT_ES5_PKc(ptr noundef nonnull align 8 dereferenceable(8) @_ZSt4cerr, ptr noundef nonnull @.str.35)
          to label %invoke.cont.i.i unwind label %lpad.i.i

invoke.cont.i.i:                                  ; preds = %if.else.i.i
  call void @_ZN7testing8internal8GTestLogD1Ev(ptr noundef nonnull align 4 dereferenceable(4) %ref.tmp.i.i) #21
  br label %land.end

lpad.i.i:                                         ; preds = %if.else.i.i
  %1 = landingpad { ptr, i32 }
          cleanup
  call void @_ZN7testing8internal8GTestLogD1Ev(ptr noundef nonnull align 4 dereferenceable(4) %ref.tmp.i.i) #21
  resume { ptr, i32 } %1

land.end:                                         ; preds = %invoke.cont.i.i, %land.rhs
  %extra_matcher_ = getelementptr inbounds %"class.testing::internal::TypedExpectation", ptr %this, i64 0, i32 3
  %2 = load ptr, ptr %vtable_.i.i, align 8
  %3 = load ptr, ptr %2, align 8
  %call5.i2.i = call noundef zeroext i1 %3(ptr noundef nonnull align 8 dereferenceable(24) %extra_matcher_, ptr noundef nonnull align 1 dereferenceable(1) %args, ptr noundef nonnull %dummy.i)
  call void @llvm.lifetime.end.p0(i64 4, ptr nonnull %ref.tmp.i.i)
  call void @llvm.lifetime.end.p0(i64 16, ptr nonnull %dummy.i)
  ret i1 %call5.i2.i
}

; Function Attrs: mustprogress uwtable
define linkonce_odr dso_local void @_ZNK7testing8internal14FunctionMockerIFivEE28PrintTriedExpectationsLockedERKSt5tupleIJEEPSo(ptr noundef nonnull align 8 dereferenceable(72) %this, ptr noundef nonnull align 1 dereferenceable(1) %args, ptr noundef %why) local_unnamed_addr #3 comdat align 2 personality ptr @__gxx_personality_v0 {
entry:
  %ref.tmp.i = alloca %"class.std::__cxx11::basic_string", align 8
  tail call void @_ZNK7testing8internal9MutexBase10AssertHeldEv(ptr noundef nonnull align 8 dereferenceable(56) @_ZN7testing8internal13g_gmock_mutexE)
  %untyped_expectations_ = getelementptr inbounds %"class.testing::internal::UntypedFunctionMockerBase", ptr %this, i64 0, i32 4
  %_M_finish.i = getelementptr inbounds %"class.testing::internal::UntypedFunctionMockerBase", ptr %this, i64 0, i32 4, i32 0, i32 0, i32 0, i32 1
  %0 = load ptr, ptr %_M_finish.i, align 8
  %1 = load ptr, ptr %untyped_expectations_, align 8
  %sub.ptr.lhs.cast.i = ptrtoint ptr %0 to i64
  %sub.ptr.rhs.cast.i = ptrtoint ptr %1 to i64
  %sub.ptr.sub.i = sub i64 %sub.ptr.lhs.cast.i, %sub.ptr.rhs.cast.i
  %sub.ptr.sub.i.fr = freeze i64 %sub.ptr.sub.i
  %sub.ptr.div.i = ashr i64 %sub.ptr.sub.i.fr, 4
  %call2 = tail call noundef nonnull align 8 dereferenceable(8) ptr @_ZStlsISt11char_traitsIcEERSt13basic_ostreamIcT_ES5_PKc(ptr noundef nonnull align 8 dereferenceable(8) %why, ptr noundef nonnull @.str.45)
  %call3 = tail call noundef nonnull align 8 dereferenceable(8) ptr @_ZNSolsEm(ptr noundef nonnull align 8 dereferenceable(8) %call2, i64 noundef %sub.ptr.div.i)
  %call4 = tail call noundef nonnull align 8 dereferenceable(8) ptr @_ZStlsISt11char_traitsIcEERSt13basic_ostreamIcT_ES5_PKc(ptr noundef nonnull align 8 dereferenceable(8) %call3, ptr noundef nonnull @.str.46)
  %cmp = icmp eq i64 %sub.ptr.sub.i.fr, 16
  %cond = select i1 %cmp, ptr @.str.47, ptr @.str.48
  %call5 = tail call noundef nonnull align 8 dereferenceable(8) ptr @_ZStlsISt11char_traitsIcEERSt13basic_ostreamIcT_ES5_PKc(ptr noundef nonnull align 8 dereferenceable(8) %call4, ptr noundef nonnull %cond)
  %call6 = tail call noundef nonnull align 8 dereferenceable(8) ptr @_ZStlsISt11char_traitsIcEERSt13basic_ostreamIcT_ES5_PKc(ptr noundef nonnull align 8 dereferenceable(8) %call5, ptr noundef nonnull @.str.49)
  %cmp716.not = icmp eq ptr %0, %1
  br i1 %cmp716.not, label %for.end, label %for.body.lr.ph

for.body.lr.ph:                                   ; preds = %entry
  %cmp12 = icmp ugt i64 %sub.ptr.div.i, 1
  br i1 %cmp12, label %for.body.us, label %for.body

for.body.us:                                      ; preds = %for.body.lr.ph, %_ZNK7testing8internal15ExpectationBase18DescribeLocationToEPSo.exit.us
  %i.017.us = phi i64 [ %inc.us, %_ZNK7testing8internal15ExpectationBase18DescribeLocationToEPSo.exit.us ], [ 0, %for.body.lr.ph ]
  %2 = load ptr, ptr %untyped_expectations_, align 8
  %add.ptr.i.us = getelementptr inbounds %"class.std::shared_ptr.56", ptr %2, i64 %i.017.us
  %3 = load ptr, ptr %add.ptr.i.us, align 8
  %call11.us = call noundef nonnull align 8 dereferenceable(8) ptr @_ZStlsISt11char_traitsIcEERSt13basic_ostreamIcT_ES5_PKc(ptr noundef nonnull align 8 dereferenceable(8) %why, ptr noundef nonnull @.str.41)
  call void @llvm.lifetime.start.p0(i64 32, ptr nonnull %ref.tmp.i)
  %file_.i.i.us = getelementptr inbounds %"class.testing::internal::ExpectationBase", ptr %3, i64 0, i32 1
  %4 = load ptr, ptr %file_.i.i.us, align 8
  %line_.i.i.us = getelementptr inbounds %"class.testing::internal::ExpectationBase", ptr %3, i64 0, i32 2
  %5 = load i32, ptr %line_.i.i.us, align 8
  call void @_ZN7testing8internal18FormatFileLocationB5cxx11EPKci(ptr nonnull sret(%"class.std::__cxx11::basic_string") align 8 %ref.tmp.i, ptr noundef %4, i32 noundef %5)
  %call3.i.us = invoke noundef nonnull align 8 dereferenceable(8) ptr @_ZStlsIcSt11char_traitsIcESaIcEERSt13basic_ostreamIT_T0_ES7_RKNSt7__cxx1112basic_stringIS4_S5_T1_EE(ptr noundef nonnull align 8 dereferenceable(8) %why, ptr noundef nonnull align 8 dereferenceable(32) %ref.tmp.i)
          to label %invoke.cont.i.us unwind label %lpad.i.split.us

invoke.cont.i.us:                                 ; preds = %for.body.us
  %call5.i.us = invoke noundef nonnull align 8 dereferenceable(8) ptr @_ZStlsISt11char_traitsIcEERSt13basic_ostreamIcT_ES5_PKc(ptr noundef nonnull align 8 dereferenceable(8) %call3.i.us, ptr noundef nonnull @.str.46)
          to label %_ZNK7testing8internal15ExpectationBase18DescribeLocationToEPSo.exit.us unwind label %lpad.i.split.us

_ZNK7testing8internal15ExpectationBase18DescribeLocationToEPSo.exit.us: ; preds = %invoke.cont.i.us
  call void @_ZNSt7__cxx1112basic_stringIcSt11char_traitsIcESaIcEED1Ev(ptr noundef nonnull align 8 dereferenceable(32) %ref.tmp.i) #21
  call void @llvm.lifetime.end.p0(i64 32, ptr nonnull %ref.tmp.i)
  %call13.us = call noundef nonnull align 8 dereferenceable(8) ptr @_ZStlsISt11char_traitsIcEERSt13basic_ostreamIcT_ES5_PKc(ptr noundef nonnull align 8 dereferenceable(8) %why, ptr noundef nonnull @.str.50)
  %call14.us = call noundef nonnull align 8 dereferenceable(8) ptr @_ZNSolsEm(ptr noundef nonnull align 8 dereferenceable(8) %call13.us, i64 noundef %i.017.us)
  %call15.us = call noundef nonnull align 8 dereferenceable(8) ptr @_ZStlsISt11char_traitsIcEERSt13basic_ostreamIcT_ES5_PKc(ptr noundef nonnull align 8 dereferenceable(8) %call14.us, ptr noundef nonnull @.str.51)
  %source_text_.i.us = getelementptr inbounds %"class.testing::internal::ExpectationBase", ptr %3, i64 0, i32 3
  %call.i.us = call noundef ptr @_ZNKSt7__cxx1112basic_stringIcSt11char_traitsIcESaIcEE5c_strEv(ptr noundef nonnull align 8 dereferenceable(32) %source_text_.i.us) #21
  %call17.us = call noundef nonnull align 8 dereferenceable(8) ptr @_ZStlsISt11char_traitsIcEERSt13basic_ostreamIcT_ES5_PKc(ptr noundef nonnull align 8 dereferenceable(8) %why, ptr noundef %call.i.us)
  %call18.us = call noundef nonnull align 8 dereferenceable(8) ptr @_ZStlsISt11char_traitsIcEERSt13basic_ostreamIcT_ES5_PKc(ptr noundef nonnull align 8 dereferenceable(8) %call17.us, ptr noundef nonnull @.str.52)
  call void @_ZNK7testing8internal16TypedExpectationIFivEE20ExplainMatchResultToERKSt5tupleIJEEPSo(ptr noundef nonnull align 8 dereferenceable(336) %3, ptr noundef nonnull align 1 dereferenceable(1) %args, ptr noundef nonnull %why)
  call void @_ZNK7testing8internal15ExpectationBase19DescribeCallCountToEPSo(ptr noundef nonnull align 8 dereferenceable(264) %3, ptr noundef nonnull %why)
  %inc.us = add nuw i64 %i.017.us, 1
  %exitcond19.not = icmp eq i64 %inc.us, %sub.ptr.div.i
  br i1 %exitcond19.not, label %for.end, label %for.body.us, !llvm.loop !31

lpad.i.split.us:                                  ; preds = %invoke.cont.i.us, %for.body.us
  %6 = landingpad { ptr, i32 }
          cleanup
  br label %lpad.i

for.body:                                         ; preds = %for.body.lr.ph
  %7 = load ptr, ptr %untyped_expectations_, align 8
  %8 = load ptr, ptr %7, align 8
  %call11 = tail call noundef nonnull align 8 dereferenceable(8) ptr @_ZStlsISt11char_traitsIcEERSt13basic_ostreamIcT_ES5_PKc(ptr noundef nonnull align 8 dereferenceable(8) %why, ptr noundef nonnull @.str.41)
  call void @llvm.lifetime.start.p0(i64 32, ptr nonnull %ref.tmp.i)
  %file_.i.i = getelementptr inbounds %"class.testing::internal::ExpectationBase", ptr %8, i64 0, i32 1
  %9 = load ptr, ptr %file_.i.i, align 8
  %line_.i.i = getelementptr inbounds %"class.testing::internal::ExpectationBase", ptr %8, i64 0, i32 2
  %10 = load i32, ptr %line_.i.i, align 8
  call void @_ZN7testing8internal18FormatFileLocationB5cxx11EPKci(ptr nonnull sret(%"class.std::__cxx11::basic_string") align 8 %ref.tmp.i, ptr noundef %9, i32 noundef %10)
  %call3.i = invoke noundef nonnull align 8 dereferenceable(8) ptr @_ZStlsIcSt11char_traitsIcESaIcEERSt13basic_ostreamIT_T0_ES7_RKNSt7__cxx1112basic_stringIS4_S5_T1_EE(ptr noundef nonnull align 8 dereferenceable(8) %why, ptr noundef nonnull align 8 dereferenceable(32) %ref.tmp.i)
          to label %invoke.cont.i unwind label %lpad.i.split

invoke.cont.i:                                    ; preds = %for.body
  %call5.i = invoke noundef nonnull align 8 dereferenceable(8) ptr @_ZStlsISt11char_traitsIcEERSt13basic_ostreamIcT_ES5_PKc(ptr noundef nonnull align 8 dereferenceable(8) %call3.i, ptr noundef nonnull @.str.46)
          to label %for.end.loopexit18 unwind label %lpad.i.split

lpad.i.split:                                     ; preds = %invoke.cont.i, %for.body
  %11 = landingpad { ptr, i32 }
          cleanup
  br label %lpad.i

lpad.i:                                           ; preds = %lpad.i.split.us, %lpad.i.split
  %.us-phi = phi { ptr, i32 } [ %11, %lpad.i.split ], [ %6, %lpad.i.split.us ]
  call void @_ZNSt7__cxx1112basic_stringIcSt11char_traitsIcESaIcEED1Ev(ptr noundef nonnull align 8 dereferenceable(32) %ref.tmp.i) #21
  resume { ptr, i32 } %.us-phi

for.end.loopexit18:                               ; preds = %invoke.cont.i
  call void @_ZNSt7__cxx1112basic_stringIcSt11char_traitsIcESaIcEED1Ev(ptr noundef nonnull align 8 dereferenceable(32) %ref.tmp.i) #21
  call void @llvm.lifetime.end.p0(i64 32, ptr nonnull %ref.tmp.i)
  %source_text_.i = getelementptr inbounds %"class.testing::internal::ExpectationBase", ptr %8, i64 0, i32 3
  %call.i = call noundef ptr @_ZNKSt7__cxx1112basic_stringIcSt11char_traitsIcESaIcEE5c_strEv(ptr noundef nonnull align 8 dereferenceable(32) %source_text_.i) #21
  %call17 = call noundef nonnull align 8 dereferenceable(8) ptr @_ZStlsISt11char_traitsIcEERSt13basic_ostreamIcT_ES5_PKc(ptr noundef nonnull align 8 dereferenceable(8) %why, ptr noundef %call.i)
  %call18 = call noundef nonnull align 8 dereferenceable(8) ptr @_ZStlsISt11char_traitsIcEERSt13basic_ostreamIcT_ES5_PKc(ptr noundef nonnull align 8 dereferenceable(8) %call17, ptr noundef nonnull @.str.52)
  call void @_ZNK7testing8internal16TypedExpectationIFivEE20ExplainMatchResultToERKSt5tupleIJEEPSo(ptr noundef nonnull align 8 dereferenceable(336) %8, ptr noundef nonnull align 1 dereferenceable(1) %args, ptr noundef nonnull %why)
  call void @_ZNK7testing8internal15ExpectationBase19DescribeCallCountToEPSo(ptr noundef nonnull align 8 dereferenceable(264) %8, ptr noundef nonnull %why)
  br label %for.end

for.end:                                          ; preds = %_ZNK7testing8internal15ExpectationBase18DescribeLocationToEPSo.exit.us, %for.end.loopexit18, %entry
  ret void
}

declare noundef nonnull align 8 dereferenceable(8) ptr @_ZNSolsEm(ptr noundef nonnull align 8 dereferenceable(8), i64 noundef) local_unnamed_addr #0

; Function Attrs: mustprogress uwtable
define linkonce_odr dso_local void @_ZNK7testing8internal16TypedExpectationIFivEE20ExplainMatchResultToERKSt5tupleIJEEPSo(ptr noundef nonnull align 8 dereferenceable(336) %this, ptr noundef nonnull align 1 dereferenceable(1) %args, ptr noundef %os) local_unnamed_addr #3 comdat align 2 personality ptr @__gxx_personality_v0 {
entry:
  %ref.tmp.i43 = alloca %"class.std::__cxx11::basic_string", align 8
  %ref.tmp.i20 = alloca %"class.testing::internal::GTestLog", align 4
  %ref.tmp.i = alloca %"class.testing::internal::GTestLog", align 4
  %listener = alloca %"class.testing::StringMatchResultListener", align 8
  %ref.tmp = alloca %"class.std::__cxx11::basic_string", align 8
  %unsatisfied_prereqs = alloca %"class.testing::ExpectationSet", align 8
  tail call void @_ZNK7testing8internal9MutexBase10AssertHeldEv(ptr noundef nonnull align 8 dereferenceable(56) @_ZN7testing8internal13g_gmock_mutexE)
  tail call void @_ZNK7testing8internal9MutexBase10AssertHeldEv(ptr noundef nonnull align 8 dereferenceable(56) @_ZN7testing8internal13g_gmock_mutexE)
  %retired_.i = getelementptr inbounds %"class.testing::internal::ExpectationBase", ptr %this, i64 0, i32 9
  %0 = load i8, ptr %retired_.i, align 4
  %1 = and i8 %0, 1
  %tobool.i.not = icmp eq i8 %1, 0
  br i1 %tobool.i.not, label %if.else, label %if.then

if.then:                                          ; preds = %entry
  %call2 = tail call noundef nonnull align 8 dereferenceable(8) ptr @_ZStlsISt11char_traitsIcEERSt13basic_ostreamIcT_ES5_PKc(ptr noundef nonnull align 8 dereferenceable(8) %os, ptr noundef nonnull @.str.53)
  %call3 = tail call noundef nonnull align 8 dereferenceable(8) ptr @_ZStlsISt11char_traitsIcEERSt13basic_ostreamIcT_ES5_PKc(ptr noundef nonnull align 8 dereferenceable(8) %call2, ptr noundef nonnull @.str.54)
  br label %if.end57

if.else:                                          ; preds = %entry
  %call4 = tail call noundef zeroext i1 @_ZNK7testing8internal16TypedExpectationIFivEE7MatchesERKSt5tupleIJEE(ptr noundef nonnull align 8 dereferenceable(336) %this, ptr noundef nonnull align 1 dereferenceable(1) %args)
  br i1 %call4, label %if.else23, label %if.end

if.end:                                           ; preds = %if.else
  %ss_.i = getelementptr inbounds %"class.testing::StringMatchResultListener", ptr %listener, i64 0, i32 1
  %add.ptr.i = getelementptr inbounds %"class.testing::StringMatchResultListener", ptr %listener, i64 0, i32 1, i32 0, i32 1
  %stream_.i.i = getelementptr inbounds %"class.testing::MatchResultListener", ptr %listener, i64 0, i32 1
  store ptr %add.ptr.i, ptr %stream_.i.i, align 8
  store ptr getelementptr inbounds ({ [4 x ptr] }, ptr @_ZTVN7testing25StringMatchResultListenerE, i64 0, inrange i32 0, i64 2), ptr %listener, align 8
  call void @_ZNSt7__cxx1118basic_stringstreamIcSt11char_traitsIcESaIcEEC1Ev(ptr noundef nonnull align 8 dereferenceable(128) %ss_.i)
  %extra_matcher_ = getelementptr inbounds %"class.testing::internal::TypedExpectation", ptr %this, i64 0, i32 3
  call void @llvm.lifetime.start.p0(i64 4, ptr nonnull %ref.tmp.i)
  %vtable_.i = getelementptr inbounds %"class.testing::internal::TypedExpectation", ptr %this, i64 0, i32 3, i32 0, i32 1
  %2 = load ptr, ptr %vtable_.i, align 8
  %cmp.i = icmp ne ptr %2, null
  %call.i18 = invoke noundef zeroext i1 @_ZN7testing8internal6IsTrueEb(i1 noundef zeroext %cmp.i)
          to label %call.i.noexc unwind label %lpad

call.i.noexc:                                     ; preds = %if.end
  br i1 %call.i18, label %if.end.i, label %if.else.i

if.else.i:                                        ; preds = %call.i.noexc
  invoke void @_ZN7testing8internal8GTestLogC1ENS0_16GTestLogSeverityEPKci(ptr noundef nonnull align 4 dereferenceable(4) %ref.tmp.i, i32 noundef 3, ptr noundef nonnull @.str.34, i32 noundef 233)
          to label %.noexc unwind label %lpad

.noexc:                                           ; preds = %if.else.i
  %call3.i = invoke noundef nonnull align 8 dereferenceable(8) ptr @_ZStlsISt11char_traitsIcEERSt13basic_ostreamIcT_ES5_PKc(ptr noundef nonnull align 8 dereferenceable(8) @_ZSt4cerr, ptr noundef nonnull @.str.35)
          to label %invoke.cont.i unwind label %lpad.i

invoke.cont.i:                                    ; preds = %.noexc
  call void @_ZN7testing8internal8GTestLogD1Ev(ptr noundef nonnull align 4 dereferenceable(4) %ref.tmp.i) #21
  br label %if.end.i

lpad.i:                                           ; preds = %.noexc
  %3 = landingpad { ptr, i32 }
          cleanup
  call void @_ZN7testing8internal8GTestLogD1Ev(ptr noundef nonnull align 4 dereferenceable(4) %ref.tmp.i) #21
  br label %ehcleanup

if.end.i:                                         ; preds = %invoke.cont.i, %call.i.noexc
  %4 = load ptr, ptr %vtable_.i, align 8
  %5 = load ptr, ptr %4, align 8
  %call5.i19 = invoke noundef zeroext i1 %5(ptr noundef nonnull align 8 dereferenceable(24) %extra_matcher_, ptr noundef nonnull align 1 dereferenceable(1) %args, ptr noundef nonnull %listener)
          to label %invoke.cont unwind label %lpad

invoke.cont:                                      ; preds = %if.end.i
  call void @llvm.lifetime.end.p0(i64 4, ptr nonnull %ref.tmp.i)
  br i1 %call5.i19, label %if.end22, label %if.then10

if.then10:                                        ; preds = %invoke.cont
  %call12 = invoke noundef nonnull align 8 dereferenceable(8) ptr @_ZStlsISt11char_traitsIcEERSt13basic_ostreamIcT_ES5_PKc(ptr noundef nonnull align 8 dereferenceable(8) %os, ptr noundef nonnull @.str.55)
          to label %invoke.cont11 unwind label %lpad

invoke.cont11:                                    ; preds = %if.then10
  call void @llvm.lifetime.start.p0(i64 4, ptr nonnull %ref.tmp.i20)
  %6 = load ptr, ptr %vtable_.i, align 8
  %cmp.i22 = icmp ne ptr %6, null
  %call.i29 = invoke noundef zeroext i1 @_ZN7testing8internal6IsTrueEb(i1 noundef zeroext %cmp.i22)
          to label %call.i.noexc28 unwind label %lpad

call.i.noexc28:                                   ; preds = %invoke.cont11
  br i1 %call.i29, label %if.end.i27, label %if.else.i23

if.else.i23:                                      ; preds = %call.i.noexc28
  invoke void @_ZN7testing8internal8GTestLogC1ENS0_16GTestLogSeverityEPKci(ptr noundef nonnull align 4 dereferenceable(4) %ref.tmp.i20, i32 noundef 3, ptr noundef nonnull @.str.34, i32 noundef 245)
          to label %.noexc30 unwind label %lpad

.noexc30:                                         ; preds = %if.else.i23
  %call3.i24 = invoke noundef nonnull align 8 dereferenceable(8) ptr @_ZStlsISt11char_traitsIcEERSt13basic_ostreamIcT_ES5_PKc(ptr noundef nonnull align 8 dereferenceable(8) @_ZSt4cerr, ptr noundef nonnull @.str.35)
          to label %invoke.cont.i26 unwind label %lpad.i25

invoke.cont.i26:                                  ; preds = %.noexc30
  call void @_ZN7testing8internal8GTestLogD1Ev(ptr noundef nonnull align 4 dereferenceable(4) %ref.tmp.i20) #21
  br label %if.end.i27

lpad.i25:                                         ; preds = %.noexc30
  %7 = landingpad { ptr, i32 }
          cleanup
  call void @_ZN7testing8internal8GTestLogD1Ev(ptr noundef nonnull align 4 dereferenceable(4) %ref.tmp.i20) #21
  br label %ehcleanup

if.end.i27:                                       ; preds = %invoke.cont.i26, %call.i.noexc28
  %8 = load ptr, ptr %vtable_.i, align 8
  %describe.i = getelementptr inbounds %"struct.testing::internal::MatcherBase<const std::tuple<> &>::VTable", ptr %8, i64 0, i32 1
  %9 = load ptr, ptr %describe.i, align 8
  invoke void %9(ptr noundef nonnull align 8 dereferenceable(24) %extra_matcher_, ptr noundef nonnull %os, i1 noundef zeroext false)
          to label %invoke.cont14 unwind label %lpad

invoke.cont14:                                    ; preds = %if.end.i27
  call void @llvm.lifetime.end.p0(i64 4, ptr nonnull %ref.tmp.i20)
  %call16 = invoke noundef nonnull align 8 dereferenceable(8) ptr @_ZStlsISt11char_traitsIcEERSt13basic_ostreamIcT_ES5_PKc(ptr noundef nonnull align 8 dereferenceable(8) %os, ptr noundef nonnull @.str.56)
          to label %invoke.cont15 unwind label %lpad

invoke.cont15:                                    ; preds = %invoke.cont14
  invoke void @_ZNKSt7__cxx1118basic_stringstreamIcSt11char_traitsIcESaIcEE3strEv(ptr nonnull sret(%"class.std::__cxx11::basic_string") align 8 %ref.tmp, ptr noundef nonnull align 8 dereferenceable(128) %ss_.i)
          to label %invoke.cont17 unwind label %lpad

invoke.cont17:                                    ; preds = %invoke.cont15
  %call.i = call noundef zeroext i1 @_ZNKSt7__cxx1112basic_stringIcSt11char_traitsIcESaIcEE5emptyEv(ptr noundef nonnull align 8 dereferenceable(32) %ref.tmp) #21
  br i1 %call.i, label %invoke.cont19, label %if.then.i

if.then.i:                                        ; preds = %invoke.cont17
  %call1.i38 = invoke noundef nonnull align 8 dereferenceable(8) ptr @_ZStlsISt11char_traitsIcEERSt13basic_ostreamIcT_ES5_PKc(ptr noundef nonnull align 8 dereferenceable(8) %os, ptr noundef nonnull @.str.63)
          to label %call1.i.noexc unwind label %lpad18

call1.i.noexc:                                    ; preds = %if.then.i
  %call2.i39 = invoke noundef nonnull align 8 dereferenceable(8) ptr @_ZStlsIcSt11char_traitsIcESaIcEERSt13basic_ostreamIT_T0_ES7_RKNSt7__cxx1112basic_stringIS4_S5_T1_EE(ptr noundef nonnull align 8 dereferenceable(8) %call1.i38, ptr noundef nonnull align 8 dereferenceable(32) %ref.tmp)
          to label %invoke.cont19 unwind label %lpad18

invoke.cont19:                                    ; preds = %invoke.cont17, %call1.i.noexc
  call void @_ZNSt7__cxx1112basic_stringIcSt11char_traitsIcESaIcEED1Ev(ptr noundef nonnull align 8 dereferenceable(32) %ref.tmp) #21
  %call21 = invoke noundef nonnull align 8 dereferenceable(8) ptr @_ZStlsISt11char_traitsIcEERSt13basic_ostreamIcT_ES5_PKc(ptr noundef nonnull align 8 dereferenceable(8) %os, ptr noundef nonnull @.str.41)
          to label %if.end22 unwind label %lpad

lpad:                                             ; preds = %invoke.cont15, %if.end.i27, %if.else.i23, %invoke.cont11, %if.end.i, %if.else.i, %if.end, %invoke.cont19, %invoke.cont14, %if.then10
  %10 = landingpad { ptr, i32 }
          cleanup
  br label %ehcleanup

lpad18:                                           ; preds = %call1.i.noexc, %if.then.i
  %11 = landingpad { ptr, i32 }
          cleanup
  call void @_ZNSt7__cxx1112basic_stringIcSt11char_traitsIcESaIcEED1Ev(ptr noundef nonnull align 8 dereferenceable(32) %ref.tmp) #21
  br label %ehcleanup

if.end22:                                         ; preds = %invoke.cont19, %invoke.cont
  store ptr getelementptr inbounds ({ [4 x ptr] }, ptr @_ZTVN7testing25StringMatchResultListenerE, i64 0, inrange i32 0, i64 2), ptr %listener, align 8
  call void @_ZNSt7__cxx1118basic_stringstreamIcSt11char_traitsIcESaIcEED1Ev(ptr noundef nonnull align 8 dereferenceable(128) %ss_.i) #21
  br label %if.end57

ehcleanup:                                        ; preds = %lpad.i, %lpad.i25, %lpad, %lpad18
  %.pn = phi { ptr, i32 } [ %11, %lpad18 ], [ %3, %lpad.i ], [ %10, %lpad ], [ %7, %lpad.i25 ]
  store ptr getelementptr inbounds ({ [4 x ptr] }, ptr @_ZTVN7testing25StringMatchResultListenerE, i64 0, inrange i32 0, i64 2), ptr %listener, align 8
  call void @_ZNSt7__cxx1118basic_stringstreamIcSt11char_traitsIcESaIcEED1Ev(ptr noundef nonnull align 8 dereferenceable(128) %ss_.i) #21
  br label %eh.resume

if.else23:                                        ; preds = %if.else
  %call24 = tail call noundef zeroext i1 @_ZNK7testing8internal15ExpectationBase28AllPrerequisitesAreSatisfiedEv(ptr noundef nonnull align 8 dereferenceable(264) %this)
  br i1 %call24, label %if.else53, label %if.then25

if.then25:                                        ; preds = %if.else23
  %call26 = tail call noundef nonnull align 8 dereferenceable(8) ptr @_ZStlsISt11char_traitsIcEERSt13basic_ostreamIcT_ES5_PKc(ptr noundef nonnull align 8 dereferenceable(8) %os, ptr noundef nonnull @.str.57)
  %call27 = tail call noundef nonnull align 8 dereferenceable(8) ptr @_ZStlsISt11char_traitsIcEERSt13basic_ostreamIcT_ES5_PKc(ptr noundef nonnull align 8 dereferenceable(8) %call26, ptr noundef nonnull @.str.58)
  %call28 = tail call noundef nonnull align 8 dereferenceable(8) ptr @_ZStlsISt11char_traitsIcEERSt13basic_ostreamIcT_ES5_PKc(ptr noundef nonnull align 8 dereferenceable(8) %call27, ptr noundef nonnull @.str.59)
  %12 = getelementptr inbounds i8, ptr %unsatisfied_prereqs, i64 8
  store i32 0, ptr %12, align 8
  %_M_parent.i.i.i.i.i.i = getelementptr inbounds i8, ptr %unsatisfied_prereqs, i64 16
  store ptr null, ptr %_M_parent.i.i.i.i.i.i, align 8
  %_M_left.i.i.i.i.i.i = getelementptr inbounds i8, ptr %unsatisfied_prereqs, i64 24
  store ptr %12, ptr %_M_left.i.i.i.i.i.i, align 8
  %_M_right.i.i.i.i.i.i = getelementptr inbounds i8, ptr %unsatisfied_prereqs, i64 32
  store ptr %12, ptr %_M_right.i.i.i.i.i.i, align 8
  %_M_node_count.i.i.i.i.i.i = getelementptr inbounds i8, ptr %unsatisfied_prereqs, i64 40
  store i64 0, ptr %_M_node_count.i.i.i.i.i.i, align 8
  invoke void @_ZNK7testing8internal15ExpectationBase28FindUnsatisfiedPrerequisitesEPNS_14ExpectationSetE(ptr noundef nonnull align 8 dereferenceable(264) %this, ptr noundef nonnull %unsatisfied_prereqs)
          to label %invoke.cont30 unwind label %lpad29.loopexit.split-lp

invoke.cont30:                                    ; preds = %if.then25
  %13 = load ptr, ptr %_M_left.i.i.i.i.i.i, align 8
  %cmp.i42.not52 = icmp eq ptr %13, %12
  br i1 %cmp.i42.not52, label %for.end, label %for.body

for.body:                                         ; preds = %invoke.cont30, %for.inc
  %i.054 = phi i32 [ %inc, %for.inc ], [ 0, %invoke.cont30 ]
  %it.sroa.0.053 = phi ptr [ %call.i49, %for.inc ], [ %13, %invoke.cont30 ]
  %_M_storage.i.i = getelementptr inbounds %"struct.std::_Rb_tree_node", ptr %it.sroa.0.053, i64 0, i32 1
  %14 = load ptr, ptr %_M_storage.i.i, align 8
  call void @llvm.lifetime.start.p0(i64 32, ptr nonnull %ref.tmp.i43)
  %file_.i.i = getelementptr inbounds %"class.testing::internal::ExpectationBase", ptr %14, i64 0, i32 1
  %15 = load ptr, ptr %file_.i.i, align 8
  %line_.i.i = getelementptr inbounds %"class.testing::internal::ExpectationBase", ptr %14, i64 0, i32 2
  %16 = load i32, ptr %line_.i.i, align 8
  invoke void @_ZN7testing8internal18FormatFileLocationB5cxx11EPKci(ptr nonnull sret(%"class.std::__cxx11::basic_string") align 8 %ref.tmp.i43, ptr noundef %15, i32 noundef %16)
          to label %.noexc47 unwind label %lpad29.loopexit

.noexc47:                                         ; preds = %for.body
  %call3.i44 = invoke noundef nonnull align 8 dereferenceable(8) ptr @_ZStlsIcSt11char_traitsIcESaIcEERSt13basic_ostreamIT_T0_ES7_RKNSt7__cxx1112basic_stringIS4_S5_T1_EE(ptr noundef nonnull align 8 dereferenceable(8) %os, ptr noundef nonnull align 8 dereferenceable(32) %ref.tmp.i43)
          to label %invoke.cont.i46 unwind label %lpad.i45

invoke.cont.i46:                                  ; preds = %.noexc47
  %call5.i = invoke noundef nonnull align 8 dereferenceable(8) ptr @_ZStlsISt11char_traitsIcEERSt13basic_ostreamIcT_ES5_PKc(ptr noundef nonnull align 8 dereferenceable(8) %call3.i44, ptr noundef nonnull @.str.46)
          to label %invoke.cont42 unwind label %lpad.i45

lpad.i45:                                         ; preds = %invoke.cont.i46, %.noexc47
  %17 = landingpad { ptr, i32 }
          cleanup
  call void @_ZNSt7__cxx1112basic_stringIcSt11char_traitsIcESaIcEED1Ev(ptr noundef nonnull align 8 dereferenceable(32) %ref.tmp.i43) #21
  br label %lpad29.body

invoke.cont42:                                    ; preds = %invoke.cont.i46
  call void @_ZNSt7__cxx1112basic_stringIcSt11char_traitsIcESaIcEED1Ev(ptr noundef nonnull align 8 dereferenceable(32) %ref.tmp.i43) #21
  call void @llvm.lifetime.end.p0(i64 32, ptr nonnull %ref.tmp.i43)
  %call44 = invoke noundef nonnull align 8 dereferenceable(8) ptr @_ZStlsISt11char_traitsIcEERSt13basic_ostreamIcT_ES5_PKc(ptr noundef nonnull align 8 dereferenceable(8) %os, ptr noundef nonnull @.str.60)
          to label %invoke.cont43 unwind label %lpad29.loopexit

invoke.cont43:                                    ; preds = %invoke.cont42
  %inc = add nuw nsw i32 %i.054, 1
  %call46 = invoke noundef nonnull align 8 dereferenceable(8) ptr @_ZNSolsEi(ptr noundef nonnull align 8 dereferenceable(8) %call44, i32 noundef %i.054)
          to label %invoke.cont45 unwind label %lpad29.loopexit

invoke.cont45:                                    ; preds = %invoke.cont43
  %call48 = invoke noundef nonnull align 8 dereferenceable(8) ptr @_ZStlsISt11char_traitsIcEERSt13basic_ostreamIcT_ES5_PKc(ptr noundef nonnull align 8 dereferenceable(8) %call46, ptr noundef nonnull @.str.41)
          to label %for.inc unwind label %lpad29.loopexit

for.inc:                                          ; preds = %invoke.cont45
  %call.i49 = call noundef ptr @_ZSt18_Rb_tree_incrementPKSt18_Rb_tree_node_base(ptr noundef nonnull %it.sroa.0.053) #26
  %cmp.i42.not = icmp eq ptr %call.i49, %12
  br i1 %cmp.i42.not, label %for.end, label %for.body, !llvm.loop !32

lpad29.loopexit:                                  ; preds = %invoke.cont42, %invoke.cont43, %invoke.cont45, %for.body
  %lpad.loopexit = landingpad { ptr, i32 }
          cleanup
  br label %lpad29.body

lpad29.loopexit.split-lp:                         ; preds = %if.then25, %for.end
  %lpad.loopexit.split-lp = landingpad { ptr, i32 }
          cleanup
  br label %lpad29.body

lpad29.body:                                      ; preds = %lpad29.loopexit, %lpad29.loopexit.split-lp, %lpad.i45
  %eh.lpad-body48 = phi { ptr, i32 } [ %17, %lpad.i45 ], [ %lpad.loopexit, %lpad29.loopexit ], [ %lpad.loopexit.split-lp, %lpad29.loopexit.split-lp ]
  call void @_ZN7testing14ExpectationSetD2Ev(ptr noundef nonnull align 8 dereferenceable(48) %unsatisfied_prereqs) #21
  br label %eh.resume

for.end:                                          ; preds = %for.inc, %invoke.cont30
  %call51 = invoke noundef nonnull align 8 dereferenceable(8) ptr @_ZStlsISt11char_traitsIcEERSt13basic_ostreamIcT_ES5_PKc(ptr noundef nonnull align 8 dereferenceable(8) %os, ptr noundef nonnull @.str.61)
          to label %invoke.cont50 unwind label %lpad29.loopexit.split-lp

invoke.cont50:                                    ; preds = %for.end
  %18 = load ptr, ptr %_M_parent.i.i.i.i.i.i, align 8
  invoke void @_ZNSt8_Rb_treeIN7testing11ExpectationES1_St9_IdentityIS1_ENS1_4LessESaIS1_EE8_M_eraseEPSt13_Rb_tree_nodeIS1_E(ptr noundef nonnull align 8 dereferenceable(48) %unsatisfied_prereqs, ptr noundef %18)
          to label %if.end57 unwind label %terminate.lpad.i.i.i

terminate.lpad.i.i.i:                             ; preds = %invoke.cont50
  %19 = landingpad { ptr, i32 }
          catch ptr null
  %20 = extractvalue { ptr, i32 } %19, 0
  call void @__clang_call_terminate(ptr %20) #24
  unreachable

if.else53:                                        ; preds = %if.else23
  %call54 = tail call noundef nonnull align 8 dereferenceable(8) ptr @_ZStlsISt11char_traitsIcEERSt13basic_ostreamIcT_ES5_PKc(ptr noundef nonnull align 8 dereferenceable(8) %os, ptr noundef nonnull @.str.62)
  br label %if.end57

if.end57:                                         ; preds = %invoke.cont50, %if.end22, %if.else53, %if.then
  ret void

eh.resume:                                        ; preds = %lpad29.body, %ehcleanup
  %.pn16 = phi { ptr, i32 } [ %eh.lpad-body48, %lpad29.body ], [ %.pn, %ehcleanup ]
  resume { ptr, i32 } %.pn16
}

declare void @_ZNK7testing8internal15ExpectationBase19DescribeCallCountToEPSo(ptr noundef nonnull align 8 dereferenceable(264), ptr noundef) local_unnamed_addr #0

; Function Attrs: mustprogress nounwind uwtable
define linkonce_odr dso_local void @_ZN7testing25StringMatchResultListenerD2Ev(ptr noundef nonnull align 8 dereferenceable(408) %this) unnamed_addr #7 comdat align 2 {
entry:
  store ptr getelementptr inbounds ({ [4 x ptr] }, ptr @_ZTVN7testing25StringMatchResultListenerE, i64 0, inrange i32 0, i64 2), ptr %this, align 8
  %ss_ = getelementptr inbounds %"class.testing::StringMatchResultListener", ptr %this, i64 0, i32 1
  tail call void @_ZNSt7__cxx1118basic_stringstreamIcSt11char_traitsIcESaIcEED1Ev(ptr noundef nonnull align 8 dereferenceable(128) %ss_) #21
  ret void
}

declare void @_ZNK7testing8internal15ExpectationBase28FindUnsatisfiedPrerequisitesEPNS_14ExpectationSetE(ptr noundef nonnull align 8 dereferenceable(264), ptr noundef) local_unnamed_addr #0

; Function Attrs: mustprogress nounwind uwtable
define linkonce_odr dso_local void @_ZN7testing14ExpectationSetD2Ev(ptr noundef nonnull align 8 dereferenceable(48) %this) unnamed_addr #7 comdat align 2 personality ptr @__gxx_personality_v0 {
entry:
  %_M_parent.i.i.i.i = getelementptr inbounds i8, ptr %this, i64 16
  %0 = load ptr, ptr %_M_parent.i.i.i.i, align 8
  invoke void @_ZNSt8_Rb_treeIN7testing11ExpectationES1_St9_IdentityIS1_ENS1_4LessESaIS1_EE8_M_eraseEPSt13_Rb_tree_nodeIS1_E(ptr noundef nonnull align 8 dereferenceable(48) %this, ptr noundef %0)
          to label %_ZNSt3setIN7testing11ExpectationENS1_4LessESaIS1_EED2Ev.exit unwind label %terminate.lpad.i.i

terminate.lpad.i.i:                               ; preds = %entry
  %1 = landingpad { ptr, i32 }
          catch ptr null
  %2 = extractvalue { ptr, i32 } %1, 0
  tail call void @__clang_call_terminate(ptr %2) #24
  unreachable

_ZNSt3setIN7testing11ExpectationENS1_4LessESaIS1_EED2Ev.exit: ; preds = %entry
  ret void
}

declare void @_ZNSt7__cxx1118basic_stringstreamIcSt11char_traitsIcESaIcEEC1Ev(ptr noundef nonnull align 8 dereferenceable(128)) unnamed_addr #0

; Function Attrs: mustprogress nounwind uwtable
define linkonce_odr dso_local void @_ZN7testing25StringMatchResultListenerD0Ev(ptr noundef nonnull align 8 dereferenceable(408) %this) unnamed_addr #7 comdat align 2 {
entry:
  store ptr getelementptr inbounds ({ [4 x ptr] }, ptr @_ZTVN7testing25StringMatchResultListenerE, i64 0, inrange i32 0, i64 2), ptr %this, align 8
  %ss_.i = getelementptr inbounds %"class.testing::StringMatchResultListener", ptr %this, i64 0, i32 1
  tail call void @_ZNSt7__cxx1118basic_stringstreamIcSt11char_traitsIcESaIcEED1Ev(ptr noundef nonnull align 8 dereferenceable(128) %ss_.i) #21
  tail call void @_ZdlPv(ptr noundef nonnull %this) #22
  ret void
}

; Function Attrs: nounwind
declare noundef zeroext i1 @_ZNKSt7__cxx1112basic_stringIcSt11char_traitsIcESaIcEE5emptyEv(ptr noundef nonnull align 8 dereferenceable(32)) local_unnamed_addr #1

declare void @_ZNKSt7__cxx1118basic_stringstreamIcSt11char_traitsIcESaIcEE3strEv(ptr sret(%"class.std::__cxx11::basic_string") align 8, ptr noundef nonnull align 8 dereferenceable(128)) local_unnamed_addr #0

; Function Attrs: nounwind
declare void @_ZNSt7__cxx1118basic_stringstreamIcSt11char_traitsIcESaIcEED1Ev(ptr noundef nonnull align 8 dereferenceable(128)) unnamed_addr #1

; Function Attrs: mustprogress nofree nounwind willreturn memory(read)
declare noundef ptr @_ZSt18_Rb_tree_incrementPKSt18_Rb_tree_node_base(ptr noundef) local_unnamed_addr #12

; Function Attrs: mustprogress uwtable
define linkonce_odr dso_local void @_ZNSt8_Rb_treeIN7testing11ExpectationES1_St9_IdentityIS1_ENS1_4LessESaIS1_EE8_M_eraseEPSt13_Rb_tree_nodeIS1_E(ptr noundef nonnull align 8 dereferenceable(48) %this, ptr noundef %__x) local_unnamed_addr #3 comdat align 2 personality ptr @__gxx_personality_v0 {
entry:
  %cmp.not4 = icmp eq ptr %__x, null
  br i1 %cmp.not4, label %while.end, label %while.body

while.body:                                       ; preds = %entry, %while.body
  %__x.addr.05 = phi ptr [ %1, %while.body ], [ %__x, %entry ]
  %_M_right.i = getelementptr inbounds %"struct.std::_Rb_tree_node_base", ptr %__x.addr.05, i64 0, i32 3
  %0 = load ptr, ptr %_M_right.i, align 8
  tail call void @_ZNSt8_Rb_treeIN7testing11ExpectationES1_St9_IdentityIS1_ENS1_4LessESaIS1_EE8_M_eraseEPSt13_Rb_tree_nodeIS1_E(ptr noundef nonnull align 8 dereferenceable(48) %this, ptr noundef %0)
  %_M_left.i = getelementptr inbounds %"struct.std::_Rb_tree_node_base", ptr %__x.addr.05, i64 0, i32 2
  %1 = load ptr, ptr %_M_left.i, align 8
  %_M_storage.i.i.i = getelementptr inbounds %"struct.std::_Rb_tree_node", ptr %__x.addr.05, i64 0, i32 1
  tail call void @_ZN7testing11ExpectationD1Ev(ptr noundef nonnull align 8 dereferenceable(16) %_M_storage.i.i.i) #21
  tail call void @_ZdlPv(ptr noundef nonnull %__x.addr.05) #22
  %cmp.not = icmp eq ptr %1, null
  br i1 %cmp.not, label %while.end, label %while.body, !llvm.loop !33

while.end:                                        ; preds = %while.body, %entry
  ret void
}

; Function Attrs: nounwind
declare void @_ZN7testing11ExpectationD1Ev(ptr noundef nonnull align 8 dereferenceable(16)) unnamed_addr #1

declare void @_ZN7testing8internal15ExpectationBase22RetireAllPreRequisitesEv(ptr noundef nonnull align 8 dereferenceable(264)) local_unnamed_addr #0

; Function Attrs: mustprogress uwtable
define linkonce_odr dso_local noundef nonnull align 8 dereferenceable(32) ptr @_ZNK7testing8internal16TypedExpectationIFivEE16GetCurrentActionEPKNS0_14FunctionMockerIS2_EERKSt5tupleIJEE(ptr noundef nonnull align 8 dereferenceable(336) %this, ptr noundef %mocker, ptr noundef nonnull align 1 dereferenceable(1) %args) local_unnamed_addr #3 comdat align 2 personality ptr @__gxx_personality_v0 {
entry:
  %ref.tmp.i = alloca %"class.std::__cxx11::basic_string", align 8
  %ref.tmp = alloca %"class.std::__cxx11::basic_string", align 8
  %ref.tmp2 = alloca %"class.std::allocator", align 1
  %ss = alloca %"class.std::__cxx11::basic_stringstream", align 8
  %ref.tmp39 = alloca %"class.std::__cxx11::basic_string", align 8
  tail call void @_ZNK7testing8internal9MutexBase10AssertHeldEv(ptr noundef nonnull align 8 dereferenceable(56) @_ZN7testing8internal13g_gmock_mutexE)
  tail call void @_ZNK7testing8internal9MutexBase10AssertHeldEv(ptr noundef nonnull align 8 dereferenceable(56) @_ZN7testing8internal13g_gmock_mutexE)
  %call_count_.i = getelementptr inbounds %"class.testing::internal::ExpectationBase", ptr %this, i64 0, i32 8
  %0 = load i32, ptr %call_count_.i, align 8
  call void @_ZNSaIcEC1Ev(ptr noundef nonnull align 1 dereferenceable(1) %ref.tmp2) #21
  %call.i14 = invoke noundef ptr @_ZNSt7__cxx1112basic_stringIcSt11char_traitsIcESaIcEE13_M_local_dataEv(ptr noundef nonnull align 8 dereferenceable(32) %ref.tmp)
          to label %call.i.noexc unwind label %lpad

call.i.noexc:                                     ; preds = %entry
  invoke void @_ZNSt7__cxx1112basic_stringIcSt11char_traitsIcESaIcEE12_Alloc_hiderC1EPcRKS3_(ptr noundef nonnull align 8 dereferenceable(8) %ref.tmp, ptr noundef %call.i14, ptr noundef nonnull align 1 dereferenceable(1) %ref.tmp2)
          to label %.noexc unwind label %lpad

.noexc:                                           ; preds = %call.i.noexc
  invoke void @_ZNSt7__cxx1112basic_stringIcSt11char_traitsIcESaIcEE12_M_constructIPKcEEvT_S8_St20forward_iterator_tag(ptr noundef nonnull align 8 dereferenceable(32) %ref.tmp, ptr noundef nonnull @.str.70, ptr noundef nonnull getelementptr inbounds ([83 x i8], ptr @.str.70, i64 0, i64 82))
          to label %invoke.cont unwind label %lpad.i

lpad.i:                                           ; preds = %.noexc
  %1 = landingpad { ptr, i32 }
          cleanup
  call void @_ZNSaIcED2Ev(ptr noundef nonnull align 1 dereferenceable(1) %ref.tmp) #21
  br label %ehcleanup

invoke.cont:                                      ; preds = %.noexc
  %cmp = icmp sgt i32 %0, 0
  br i1 %cmp, label %invoke.cont4, label %if.then.i

if.then.i:                                        ; preds = %invoke.cont
  %call.i16 = invoke noundef ptr @_ZN7testing8internal18GetFailureReporterEv()
          to label %call.i.noexc15 unwind label %lpad3

call.i.noexc15:                                   ; preds = %if.then.i
  %vtable.i = load ptr, ptr %call.i16, align 8
  %vfn.i = getelementptr inbounds ptr, ptr %vtable.i, i64 2
  %2 = load ptr, ptr %vfn.i, align 8
  invoke void %2(ptr noundef nonnull align 8 dereferenceable(8) %call.i16, i32 noundef 1, ptr noundef nonnull @.str.69, i32 noundef 1186, ptr noundef nonnull align 8 dereferenceable(32) %ref.tmp)
          to label %invoke.cont4 unwind label %lpad3

invoke.cont4:                                     ; preds = %invoke.cont, %call.i.noexc15
  call void @_ZNSt7__cxx1112basic_stringIcSt11char_traitsIcESaIcEED1Ev(ptr noundef nonnull align 8 dereferenceable(32) %ref.tmp) #21
  call void @_ZNSaIcED1Ev(ptr noundef nonnull align 1 dereferenceable(1) %ref.tmp2) #21
  %untyped_actions_ = getelementptr inbounds %"class.testing::internal::ExpectationBase", ptr %this, i64 0, i32 10
  %_M_finish.i = getelementptr inbounds %"class.testing::internal::ExpectationBase", ptr %this, i64 0, i32 10, i32 0, i32 0, i32 0, i32 1
  %3 = load ptr, ptr %_M_finish.i, align 8
  %4 = load ptr, ptr %untyped_actions_, align 8
  %sub.ptr.lhs.cast.i = ptrtoint ptr %3 to i64
  %sub.ptr.rhs.cast.i = ptrtoint ptr %4 to i64
  %sub.ptr.sub.i = sub i64 %sub.ptr.lhs.cast.i, %sub.ptr.rhs.cast.i
  %sub.ptr.div.i = lshr exact i64 %sub.ptr.sub.i, 3
  %conv = trunc i64 %sub.ptr.div.i to i32
  %cmp6 = icmp sgt i32 %conv, 0
  br i1 %cmp6, label %land.lhs.true, label %if.end

land.lhs.true:                                    ; preds = %invoke.cont4
  %repeated_action_specified_ = getelementptr inbounds %"class.testing::internal::ExpectationBase", ptr %this, i64 0, i32 12
  %5 = load i8, ptr %repeated_action_specified_, align 1
  %6 = and i8 %5, 1
  %tobool.not = icmp eq i8 %6, 0
  %cmp8 = icmp sgt i32 %0, %conv
  %or.cond = and i1 %cmp8, %tobool.not
  br i1 %or.cond, label %if.then, label %if.end

if.then:                                          ; preds = %land.lhs.true
  call void @_ZNSt7__cxx1118basic_stringstreamIcSt11char_traitsIcESaIcEEC1Ev(ptr noundef nonnull align 8 dereferenceable(128) %ss)
  %add.ptr = getelementptr inbounds i8, ptr %ss, i64 16
  call void @llvm.lifetime.start.p0(i64 32, ptr nonnull %ref.tmp.i)
  %file_.i.i = getelementptr inbounds %"class.testing::internal::ExpectationBase", ptr %this, i64 0, i32 1
  %7 = load ptr, ptr %file_.i.i, align 8
  %line_.i.i = getelementptr inbounds %"class.testing::internal::ExpectationBase", ptr %this, i64 0, i32 2
  %8 = load i32, ptr %line_.i.i, align 8
  invoke void @_ZN7testing8internal18FormatFileLocationB5cxx11EPKci(ptr nonnull sret(%"class.std::__cxx11::basic_string") align 8 %ref.tmp.i, ptr noundef %7, i32 noundef %8)
          to label %.noexc19 unwind label %lpad9

.noexc19:                                         ; preds = %if.then
  %call3.i = invoke noundef nonnull align 8 dereferenceable(8) ptr @_ZStlsIcSt11char_traitsIcESaIcEERSt13basic_ostreamIT_T0_ES7_RKNSt7__cxx1112basic_stringIS4_S5_T1_EE(ptr noundef nonnull align 8 dereferenceable(8) %add.ptr, ptr noundef nonnull align 8 dereferenceable(32) %ref.tmp.i)
          to label %invoke.cont.i unwind label %lpad.i18

invoke.cont.i:                                    ; preds = %.noexc19
  %call5.i = invoke noundef nonnull align 8 dereferenceable(8) ptr @_ZStlsISt11char_traitsIcEERSt13basic_ostreamIcT_ES5_PKc(ptr noundef nonnull align 8 dereferenceable(8) %call3.i, ptr noundef nonnull @.str.46)
          to label %invoke.cont10 unwind label %lpad.i18

lpad.i18:                                         ; preds = %invoke.cont.i, %.noexc19
  %9 = landingpad { ptr, i32 }
          cleanup
  call void @_ZNSt7__cxx1112basic_stringIcSt11char_traitsIcESaIcEED1Ev(ptr noundef nonnull align 8 dereferenceable(32) %ref.tmp.i) #21
  br label %ehcleanup44

invoke.cont10:                                    ; preds = %invoke.cont.i
  call void @_ZNSt7__cxx1112basic_stringIcSt11char_traitsIcESaIcEED1Ev(ptr noundef nonnull align 8 dereferenceable(32) %ref.tmp.i) #21
  call void @llvm.lifetime.end.p0(i64 32, ptr nonnull %ref.tmp.i)
  %call13 = invoke noundef nonnull align 8 dereferenceable(8) ptr @_ZStlsISt11char_traitsIcEERSt13basic_ostreamIcT_ES5_PKc(ptr noundef nonnull align 8 dereferenceable(8) %add.ptr, ptr noundef nonnull @.str.71)
          to label %invoke.cont12 unwind label %lpad9

invoke.cont12:                                    ; preds = %invoke.cont10
  %source_text_.i = getelementptr inbounds %"class.testing::internal::ExpectationBase", ptr %this, i64 0, i32 3
  %call.i = call noundef ptr @_ZNKSt7__cxx1112basic_stringIcSt11char_traitsIcESaIcEE5c_strEv(ptr noundef nonnull align 8 dereferenceable(32) %source_text_.i) #21
  %call16 = invoke noundef nonnull align 8 dereferenceable(8) ptr @_ZStlsISt11char_traitsIcEERSt13basic_ostreamIcT_ES5_PKc(ptr noundef nonnull align 8 dereferenceable(8) %call13, ptr noundef %call.i)
          to label %invoke.cont15 unwind label %lpad9

invoke.cont15:                                    ; preds = %invoke.cont12
  %call18 = invoke noundef nonnull align 8 dereferenceable(8) ptr @_ZStlsISt11char_traitsIcEERSt13basic_ostreamIcT_ES5_PKc(ptr noundef nonnull align 8 dereferenceable(8) %call16, ptr noundef nonnull @.str.52)
          to label %invoke.cont17 unwind label %lpad9

invoke.cont17:                                    ; preds = %invoke.cont15
  %call20 = invoke noundef nonnull align 8 dereferenceable(8) ptr @_ZStlsISt11char_traitsIcEERSt13basic_ostreamIcT_ES5_PKc(ptr noundef nonnull align 8 dereferenceable(8) %call18, ptr noundef nonnull @.str.72)
          to label %invoke.cont19 unwind label %lpad9

invoke.cont19:                                    ; preds = %invoke.cont17
  %call22 = invoke noundef nonnull align 8 dereferenceable(8) ptr @_ZNSolsEi(ptr noundef nonnull align 8 dereferenceable(8) %call20, i32 noundef %0)
          to label %invoke.cont21 unwind label %lpad9

invoke.cont21:                                    ; preds = %invoke.cont19
  %call24 = invoke noundef nonnull align 8 dereferenceable(8) ptr @_ZStlsISt11char_traitsIcEERSt13basic_ostreamIcT_ES5_PKc(ptr noundef nonnull align 8 dereferenceable(8) %call22, ptr noundef nonnull @.str.73)
          to label %invoke.cont23 unwind label %lpad9

invoke.cont23:                                    ; preds = %invoke.cont21
  %call26 = invoke noundef nonnull align 8 dereferenceable(8) ptr @_ZNSolsEi(ptr noundef nonnull align 8 dereferenceable(8) %call24, i32 noundef %conv)
          to label %invoke.cont25 unwind label %lpad9

invoke.cont25:                                    ; preds = %invoke.cont23
  %call28 = invoke noundef nonnull align 8 dereferenceable(8) ptr @_ZStlsISt11char_traitsIcEERSt13basic_ostreamIcT_ES5_PKc(ptr noundef nonnull align 8 dereferenceable(8) %call26, ptr noundef nonnull @.str.74)
          to label %invoke.cont27 unwind label %lpad9

invoke.cont27:                                    ; preds = %invoke.cont25
  %cmp29 = icmp eq i32 %conv, 1
  %cond = select i1 %cmp29, ptr @.str.75, ptr @.str.76
  %call31 = invoke noundef nonnull align 8 dereferenceable(8) ptr @_ZStlsISt11char_traitsIcEERSt13basic_ostreamIcT_ES5_PKc(ptr noundef nonnull align 8 dereferenceable(8) %call28, ptr noundef nonnull %cond)
          to label %invoke.cont30 unwind label %lpad9

invoke.cont30:                                    ; preds = %invoke.cont27
  %call33 = invoke noundef nonnull align 8 dereferenceable(8) ptr @_ZStlsISt11char_traitsIcEERSt13basic_ostreamIcT_ES5_PKc(ptr noundef nonnull align 8 dereferenceable(8) %call31, ptr noundef nonnull @.str.77)
          to label %invoke.cont32 unwind label %lpad9

invoke.cont32:                                    ; preds = %invoke.cont30
  invoke void @_ZNK7testing8internal14FunctionMockerIFivEE23DescribeDefaultActionToERKSt5tupleIJEEPSo(ptr noundef nonnull align 8 dereferenceable(72) %mocker, ptr noundef nonnull align 1 dereferenceable(1) %args, ptr noundef nonnull %add.ptr)
          to label %invoke.cont38 unwind label %lpad9

invoke.cont38:                                    ; preds = %invoke.cont32
  invoke void @_ZNKSt7__cxx1118basic_stringstreamIcSt11char_traitsIcESaIcEE3strEv(ptr nonnull sret(%"class.std::__cxx11::basic_string") align 8 %ref.tmp39, ptr noundef nonnull align 8 dereferenceable(128) %ss)
          to label %invoke.cont40 unwind label %lpad9

invoke.cont40:                                    ; preds = %invoke.cont38
  invoke void @_ZN7testing8internal3LogENS0_11LogSeverityERKNSt7__cxx1112basic_stringIcSt11char_traitsIcESaIcEEEi(i32 noundef 1, ptr noundef nonnull align 8 dereferenceable(32) %ref.tmp39, i32 noundef 1)
          to label %invoke.cont42 unwind label %lpad41

invoke.cont42:                                    ; preds = %invoke.cont40
  call void @_ZNSt7__cxx1112basic_stringIcSt11char_traitsIcESaIcEED1Ev(ptr noundef nonnull align 8 dereferenceable(32) %ref.tmp39) #21
  call void @_ZNSt7__cxx1118basic_stringstreamIcSt11char_traitsIcESaIcEED1Ev(ptr noundef nonnull align 8 dereferenceable(128) %ss) #21
  br label %if.end

lpad:                                             ; preds = %call.i.noexc, %entry
  %10 = landingpad { ptr, i32 }
          cleanup
  br label %ehcleanup

lpad3:                                            ; preds = %call.i.noexc15, %if.then.i
  %11 = landingpad { ptr, i32 }
          cleanup
  call void @_ZNSt7__cxx1112basic_stringIcSt11char_traitsIcESaIcEED1Ev(ptr noundef nonnull align 8 dereferenceable(32) %ref.tmp) #21
  br label %ehcleanup

ehcleanup:                                        ; preds = %lpad, %lpad.i, %lpad3
  %.pn = phi { ptr, i32 } [ %11, %lpad3 ], [ %10, %lpad ], [ %1, %lpad.i ]
  call void @_ZNSaIcED1Ev(ptr noundef nonnull align 1 dereferenceable(1) %ref.tmp2) #21
  br label %eh.resume

lpad9:                                            ; preds = %if.then, %invoke.cont38, %invoke.cont32, %invoke.cont30, %invoke.cont27, %invoke.cont25, %invoke.cont23, %invoke.cont21, %invoke.cont19, %invoke.cont17, %invoke.cont15, %invoke.cont12, %invoke.cont10
  %12 = landingpad { ptr, i32 }
          cleanup
  br label %ehcleanup44

lpad41:                                           ; preds = %invoke.cont40
  %13 = landingpad { ptr, i32 }
          cleanup
  call void @_ZNSt7__cxx1112basic_stringIcSt11char_traitsIcESaIcEED1Ev(ptr noundef nonnull align 8 dereferenceable(32) %ref.tmp39) #21
  br label %ehcleanup44

ehcleanup44:                                      ; preds = %lpad9, %lpad.i18, %lpad41
  %.pn11 = phi { ptr, i32 } [ %13, %lpad41 ], [ %12, %lpad9 ], [ %9, %lpad.i18 ]
  call void @_ZNSt7__cxx1118basic_stringstreamIcSt11char_traitsIcESaIcEED1Ev(ptr noundef nonnull align 8 dereferenceable(128) %ss) #21
  br label %eh.resume

if.end:                                           ; preds = %invoke.cont42, %land.lhs.true, %invoke.cont4
  %cmp45.not = icmp sgt i32 %0, %conv
  br i1 %cmp45.not, label %cond.false, label %cond.true

cond.true:                                        ; preds = %if.end
  %14 = load ptr, ptr %untyped_actions_, align 8
  %15 = sext i32 %0 to i64
  %16 = getelementptr ptr, ptr %14, i64 %15
  %add.ptr.i21 = getelementptr ptr, ptr %16, i64 -1
  %17 = load ptr, ptr %add.ptr.i21, align 8
  br label %cond.end

cond.false:                                       ; preds = %if.end
  %repeated_action_.i = getelementptr inbounds %"class.testing::internal::TypedExpectation", ptr %this, i64 0, i32 4
  br label %cond.end

cond.end:                                         ; preds = %cond.false, %cond.true
  %cond-lvalue = phi ptr [ %17, %cond.true ], [ %repeated_action_.i, %cond.false ]
  ret ptr %cond-lvalue

eh.resume:                                        ; preds = %ehcleanup44, %ehcleanup
  %.pn11.pn = phi { ptr, i32 } [ %.pn11, %ehcleanup44 ], [ %.pn, %ehcleanup ]
  resume { ptr, i32 } %.pn11.pn
}

declare void @_ZN7testing8internal3LogENS0_11LogSeverityERKNSt7__cxx1112basic_stringIcSt11char_traitsIcESaIcEEEi(i32 noundef, ptr noundef nonnull align 8 dereferenceable(32), i32 noundef) local_unnamed_addr #0

declare noundef ptr @_ZN7testing8internal18GetFailureReporterEv() local_unnamed_addr #0

; Function Attrs: mustprogress nounwind uwtable
define linkonce_odr dso_local void @_ZN7testing8internal14FunctionMockerIFliEED2Ev(ptr noundef nonnull align 8 dereferenceable(72) %this) unnamed_addr #7 comdat align 2 personality ptr @__gxx_personality_v0 {
entry:
  invoke void @_ZN7testing8internal9MutexBase4LockEv(ptr noundef nonnull align 8 dereferenceable(56) @_ZN7testing8internal13g_gmock_mutexE)
          to label %invoke.cont unwind label %terminate.lpad

invoke.cont:                                      ; preds = %entry
  %call = invoke noundef zeroext i1 @_ZN7testing8internal25UntypedFunctionMockerBase32VerifyAndClearExpectationsLockedEv(ptr noundef nonnull align 8 dereferenceable(72) %this)
          to label %invoke.cont2 unwind label %terminate.lpad

invoke.cont2:                                     ; preds = %invoke.cont
  invoke void @_ZN7testing4Mock16UnregisterLockedEPNS_8internal25UntypedFunctionMockerBaseE(ptr noundef nonnull %this)
          to label %invoke.cont3 unwind label %terminate.lpad

invoke.cont3:                                     ; preds = %invoke.cont2
  invoke void @_ZN7testing8internal14FunctionMockerIFliEE25ClearDefaultActionsLockedEv(ptr noundef nonnull align 8 dereferenceable(72) %this)
          to label %invoke.cont4 unwind label %terminate.lpad

invoke.cont4:                                     ; preds = %invoke.cont3
  invoke void @_ZN7testing8internal9MutexBase6UnlockEv(ptr noundef nonnull align 8 dereferenceable(56) @_ZN7testing8internal13g_gmock_mutexE)
          to label %_ZN7testing8internal14GTestMutexLockD2Ev.exit unwind label %terminate.lpad.i

terminate.lpad.i:                                 ; preds = %invoke.cont4
  %0 = landingpad { ptr, i32 }
          catch ptr null
  %1 = extractvalue { ptr, i32 } %0, 0
  tail call void @__clang_call_terminate(ptr %1) #24
  unreachable

_ZN7testing8internal14GTestMutexLockD2Ev.exit:    ; preds = %invoke.cont4
  tail call void @_ZN7testing8internal25UntypedFunctionMockerBaseD2Ev(ptr noundef nonnull align 8 dereferenceable(72) %this) #21
  ret void

terminate.lpad:                                   ; preds = %entry, %invoke.cont3, %invoke.cont2, %invoke.cont
  %2 = landingpad { ptr, i32 }
          catch ptr null
  %3 = extractvalue { ptr, i32 } %2, 0
  tail call void @__clang_call_terminate(ptr %3) #24
  unreachable
}

; Function Attrs: mustprogress nounwind uwtable
define linkonce_odr dso_local void @_ZN7testing8internal14FunctionMockerIFliEED0Ev(ptr noundef nonnull align 8 dereferenceable(72) %this) unnamed_addr #7 comdat align 2 {
entry:
  tail call void @_ZN7testing8internal14FunctionMockerIFliEED2Ev(ptr noundef nonnull align 8 dereferenceable(72) %this) #21
  tail call void @_ZdlPv(ptr noundef nonnull %this) #22
  ret void
}

; Function Attrs: mustprogress uwtable
define linkonce_odr dso_local void @_ZN7testing8internal14FunctionMockerIFliEE25ClearDefaultActionsLockedEv(ptr noundef nonnull align 8 dereferenceable(72) %this) unnamed_addr #3 comdat align 2 personality ptr @__gxx_personality_v0 {
entry:
  tail call void @_ZNK7testing8internal9MutexBase10AssertHeldEv(ptr noundef nonnull align 8 dereferenceable(56) @_ZN7testing8internal13g_gmock_mutexE)
  %untyped_on_call_specs_ = getelementptr inbounds %"class.testing::internal::UntypedFunctionMockerBase", ptr %this, i64 0, i32 3
  %0 = load ptr, ptr %untyped_on_call_specs_, align 8
  %_M_finish.i.i.i = getelementptr inbounds %"class.testing::internal::UntypedFunctionMockerBase", ptr %this, i64 0, i32 3, i32 0, i32 0, i32 0, i32 1
  %1 = load ptr, ptr %_M_finish.i.i.i, align 8
  tail call void @llvm.memset.p0.i64(ptr noundef nonnull align 8 dereferenceable(24) %untyped_on_call_specs_, i8 0, i64 24, i1 false)
  invoke void @_ZN7testing8internal9MutexBase6UnlockEv(ptr noundef nonnull align 8 dereferenceable(56) @_ZN7testing8internal13g_gmock_mutexE)
          to label %for.cond.preheader unwind label %lpad

for.cond.preheader:                               ; preds = %entry
  %cmp.i.not10 = icmp eq ptr %0, %1
  br i1 %cmp.i.not10, label %for.end, label %for.body

for.body:                                         ; preds = %for.cond.preheader, %for.inc
  %it.sroa.0.011 = phi ptr [ %incdec.ptr.i, %for.inc ], [ %0, %for.cond.preheader ]
  %2 = load ptr, ptr %it.sroa.0.011, align 8
  %isnull = icmp eq ptr %2, null
  br i1 %isnull, label %for.inc, label %delete.notnull

delete.notnull:                                   ; preds = %for.body
  tail call void @_ZN7testing8internal10OnCallSpecIFliEED2Ev(ptr noundef nonnull align 8 dereferenceable(96) %2) #21
  tail call void @_ZdlPv(ptr noundef nonnull %2) #22
  br label %for.inc

for.inc:                                          ; preds = %for.body, %delete.notnull
  %incdec.ptr.i = getelementptr inbounds ptr, ptr %it.sroa.0.011, i64 1
  %cmp.i.not = icmp eq ptr %incdec.ptr.i, %1
  br i1 %cmp.i.not, label %for.end, label %for.body, !llvm.loop !34

lpad:                                             ; preds = %for.end, %entry
  %3 = landingpad { ptr, i32 }
          cleanup
  %tobool.not.i.i.i = icmp eq ptr %0, null
  br i1 %tobool.not.i.i.i, label %_ZNSt6vectorIPKvSaIS1_EED2Ev.exit, label %if.then.i.i.i

if.then.i.i.i:                                    ; preds = %lpad
  tail call void @_ZdlPv(ptr noundef nonnull %0) #22
  br label %_ZNSt6vectorIPKvSaIS1_EED2Ev.exit

_ZNSt6vectorIPKvSaIS1_EED2Ev.exit:                ; preds = %lpad, %if.then.i.i.i
  resume { ptr, i32 } %3

for.end:                                          ; preds = %for.inc, %for.cond.preheader
  invoke void @_ZN7testing8internal9MutexBase4LockEv(ptr noundef nonnull align 8 dereferenceable(56) @_ZN7testing8internal13g_gmock_mutexE)
          to label %invoke.cont8 unwind label %lpad

invoke.cont8:                                     ; preds = %for.end
  %tobool.not.i.i.i1 = icmp eq ptr %0, null
  br i1 %tobool.not.i.i.i1, label %_ZNSt6vectorIPKvSaIS1_EED2Ev.exit3, label %if.then.i.i.i2

if.then.i.i.i2:                                   ; preds = %invoke.cont8
  tail call void @_ZdlPv(ptr noundef nonnull %0) #22
  br label %_ZNSt6vectorIPKvSaIS1_EED2Ev.exit3

_ZNSt6vectorIPKvSaIS1_EED2Ev.exit3:               ; preds = %invoke.cont8, %if.then.i.i.i2
  ret void
}

; Function Attrs: mustprogress uwtable
define linkonce_odr dso_local void @_ZNK7testing8internal14FunctionMockerIFliEE32UntypedDescribeUninterestingCallEPKvPSo(ptr noundef nonnull align 8 dereferenceable(72) %this, ptr noundef %untyped_args, ptr noundef %os) unnamed_addr #3 comdat align 2 {
entry:
  %call = tail call noundef nonnull align 8 dereferenceable(8) ptr @_ZStlsISt11char_traitsIcEERSt13basic_ostreamIcT_ES5_PKc(ptr noundef nonnull align 8 dereferenceable(8) %os, ptr noundef nonnull @.str.37)
  tail call void @_ZNK7testing8internal14FunctionMockerIFliEE23DescribeDefaultActionToERKSt5tupleIJiEEPSo(ptr noundef nonnull align 8 dereferenceable(72) %this, ptr noundef nonnull align 4 dereferenceable(4) %untyped_args, ptr noundef nonnull %os)
  %call2 = tail call noundef nonnull align 8 dereferenceable(8) ptr @_ZStlsISt11char_traitsIcEERSt13basic_ostreamIcT_ES5_PKc(ptr noundef nonnull align 8 dereferenceable(8) %os, ptr noundef nonnull @.str.38)
  %call3 = tail call noundef ptr @_ZNK7testing8internal25UntypedFunctionMockerBase4NameEv(ptr noundef nonnull align 8 dereferenceable(72) %this)
  %call4 = tail call noundef nonnull align 8 dereferenceable(8) ptr @_ZStlsISt11char_traitsIcEERSt13basic_ostreamIcT_ES5_PKc(ptr noundef nonnull align 8 dereferenceable(8) %call2, ptr noundef %call3)
  %call.i.i.i = tail call noundef nonnull align 8 dereferenceable(8) ptr @_ZStlsISt11char_traitsIcEERSt13basic_ostreamIcT_ES5_PKc(ptr noundef nonnull align 8 dereferenceable(8) %os, ptr noundef nonnull @.str.42)
  %0 = load i32, ptr %untyped_args, align 4
  %call.i.i.i.i.i.i.i.i = tail call noundef nonnull align 8 dereferenceable(8) ptr @_ZNSolsEi(ptr noundef nonnull align 8 dereferenceable(8) %os, i32 noundef %0)
  %call1.i.i.i = tail call noundef nonnull align 8 dereferenceable(8) ptr @_ZStlsISt11char_traitsIcEERSt13basic_ostreamIcT_ES5_PKc(ptr noundef nonnull align 8 dereferenceable(8) %os, ptr noundef nonnull @.str.43)
  ret void
}

; Function Attrs: mustprogress uwtable
define linkonce_odr dso_local noundef ptr @_ZN7testing8internal14FunctionMockerIFliEE30UntypedFindMatchingExpectationEPKvPS5_PbPSoS8_(ptr noundef nonnull align 8 dereferenceable(72) %this, ptr noundef %untyped_args, ptr noundef %untyped_action, ptr noundef %is_excessive, ptr noundef %what, ptr noundef %why) unnamed_addr #3 comdat align 2 personality ptr @__gxx_personality_v0 {
entry:
  tail call void @_ZN7testing8internal9MutexBase4LockEv(ptr noundef nonnull align 8 dereferenceable(56) @_ZN7testing8internal13g_gmock_mutexE)
  invoke void @_ZNK7testing8internal9MutexBase10AssertHeldEv(ptr noundef nonnull align 8 dereferenceable(56) @_ZN7testing8internal13g_gmock_mutexE)
          to label %.noexc unwind label %lpad.loopexit.split-lp

.noexc:                                           ; preds = %entry
  %untyped_expectations_.i = getelementptr inbounds %"class.testing::internal::UntypedFunctionMockerBase", ptr %this, i64 0, i32 4
  %_M_finish.i.i.i = getelementptr inbounds %"class.testing::internal::UntypedFunctionMockerBase", ptr %this, i64 0, i32 4, i32 0, i32 0, i32 0, i32 1
  %0 = load ptr, ptr %_M_finish.i.i.i, align 8, !noalias !35
  %1 = load ptr, ptr %untyped_expectations_.i, align 8, !noalias !38
  %cmp.i.i.i.not3.i = icmp eq ptr %0, %1
  br i1 %cmp.i.i.i.not3.i, label %if.then, label %for.body.i

for.body.i:                                       ; preds = %.noexc, %for.inc.i
  %it.sroa.0.04.i = phi ptr [ %incdec.ptr.i.i.i, %for.inc.i ], [ %0, %.noexc ]
  %incdec.ptr.i.i.i = getelementptr inbounds %"class.std::shared_ptr.56", ptr %it.sroa.0.04.i, i64 -1
  %2 = load ptr, ptr %incdec.ptr.i.i.i, align 8
  invoke void @_ZNK7testing8internal9MutexBase10AssertHeldEv(ptr noundef nonnull align 8 dereferenceable(56) @_ZN7testing8internal13g_gmock_mutexE)
          to label %.noexc10 unwind label %lpad.loopexit

.noexc10:                                         ; preds = %for.body.i
  invoke void @_ZNK7testing8internal15ExpectationBase25CheckActionCountIfNotDoneEv(ptr noundef nonnull align 8 dereferenceable(264) %2)
          to label %.noexc11 unwind label %lpad.loopexit

.noexc11:                                         ; preds = %.noexc10
  invoke void @_ZNK7testing8internal9MutexBase10AssertHeldEv(ptr noundef nonnull align 8 dereferenceable(56) @_ZN7testing8internal13g_gmock_mutexE)
          to label %.noexc12 unwind label %lpad.loopexit

.noexc12:                                         ; preds = %.noexc11
  %retired_.i.i.i = getelementptr inbounds %"class.testing::internal::ExpectationBase", ptr %2, i64 0, i32 9
  %3 = load i8, ptr %retired_.i.i.i, align 4
  %4 = and i8 %3, 1
  %tobool.i.not.i.i = icmp eq i8 %4, 0
  br i1 %tobool.i.not.i.i, label %land.lhs.true.i.i, label %for.inc.i

land.lhs.true.i.i:                                ; preds = %.noexc12
  %call2.i.i13 = invoke noundef zeroext i1 @_ZNK7testing8internal15ExpectationBase28AllPrerequisitesAreSatisfiedEv(ptr noundef nonnull align 8 dereferenceable(264) %2)
          to label %call2.i.i.noexc unwind label %lpad.loopexit

call2.i.i.noexc:                                  ; preds = %land.lhs.true.i.i
  br i1 %call2.i.i13, label %_ZNK7testing8internal16TypedExpectationIFliEE21ShouldHandleArgumentsERKSt5tupleIJiEE.exit.i, label %for.inc.i

_ZNK7testing8internal16TypedExpectationIFliEE21ShouldHandleArgumentsERKSt5tupleIJiEE.exit.i: ; preds = %call2.i.i.noexc
  %call3.i.i14 = invoke noundef zeroext i1 @_ZNK7testing8internal16TypedExpectationIFliEE7MatchesERKSt5tupleIJiEE(ptr noundef nonnull align 8 dereferenceable(352) %2, ptr noundef nonnull align 4 dereferenceable(4) %untyped_args)
          to label %call3.i.i.noexc unwind label %lpad.loopexit

call3.i.i.noexc:                                  ; preds = %_ZNK7testing8internal16TypedExpectationIFliEE21ShouldHandleArgumentsERKSt5tupleIJiEE.exit.i
  br i1 %call3.i.i14, label %if.end, label %for.inc.i

for.inc.i:                                        ; preds = %call3.i.i.noexc, %call2.i.i.noexc, %.noexc12
  %5 = load ptr, ptr %untyped_expectations_.i, align 8, !noalias !38
  %cmp.i.i.i.not.i = icmp eq ptr %incdec.ptr.i.i.i, %5
  br i1 %cmp.i.i.i.not.i, label %if.then, label %for.body.i, !llvm.loop !41

if.then:                                          ; preds = %for.inc.i, %.noexc
  invoke void @_ZNK7testing8internal9MutexBase10AssertHeldEv(ptr noundef nonnull align 8 dereferenceable(56) @_ZN7testing8internal13g_gmock_mutexE)
          to label %.noexc15 unwind label %lpad.loopexit.split-lp

.noexc15:                                         ; preds = %if.then
  %call.i16 = invoke noundef nonnull align 8 dereferenceable(8) ptr @_ZStlsISt11char_traitsIcEERSt13basic_ostreamIcT_ES5_PKc(ptr noundef nonnull align 8 dereferenceable(8) %what, ptr noundef nonnull @.str.44)
          to label %call.i.noexc unwind label %lpad.loopexit.split-lp

call.i.noexc:                                     ; preds = %.noexc15
  invoke void @_ZNK7testing8internal14FunctionMockerIFliEE23DescribeDefaultActionToERKSt5tupleIJiEEPSo(ptr noundef nonnull align 8 dereferenceable(72) %this, ptr noundef nonnull align 4 dereferenceable(4) %untyped_args, ptr noundef nonnull %what)
          to label %.noexc17 unwind label %lpad.loopexit.split-lp

.noexc17:                                         ; preds = %call.i.noexc
  invoke void @_ZNK7testing8internal14FunctionMockerIFliEE28PrintTriedExpectationsLockedERKSt5tupleIJiEEPSo(ptr noundef nonnull align 8 dereferenceable(72) %this, ptr noundef nonnull align 4 dereferenceable(4) %untyped_args, ptr noundef %why)
          to label %cleanup unwind label %lpad.loopexit.split-lp

lpad.loopexit:                                    ; preds = %for.body.i, %.noexc10, %.noexc11, %land.lhs.true.i.i, %_ZNK7testing8internal16TypedExpectationIFliEE21ShouldHandleArgumentsERKSt5tupleIJiEE.exit.i
  %lpad.loopexit27 = landingpad { ptr, i32 }
          cleanup
  br label %lpad

lpad.loopexit.split-lp:                           ; preds = %invoke.cont3, %entry, %if.then, %.noexc15, %call.i.noexc, %.noexc17, %if.end, %.noexc19
  %lpad.loopexit.split-lp28 = landingpad { ptr, i32 }
          cleanup
  br label %lpad

lpad:                                             ; preds = %lpad.loopexit.split-lp, %lpad.loopexit
  %lpad.phi = phi { ptr, i32 } [ %lpad.loopexit27, %lpad.loopexit ], [ %lpad.loopexit.split-lp28, %lpad.loopexit.split-lp ]
  invoke void @_ZN7testing8internal9MutexBase6UnlockEv(ptr noundef nonnull align 8 dereferenceable(56) @_ZN7testing8internal13g_gmock_mutexE)
          to label %_ZN7testing8internal14GTestMutexLockD2Ev.exit unwind label %terminate.lpad.i

terminate.lpad.i:                                 ; preds = %lpad
  %6 = landingpad { ptr, i32 }
          catch ptr null
  %7 = extractvalue { ptr, i32 } %6, 0
  tail call void @__clang_call_terminate(ptr %7) #24
  unreachable

_ZN7testing8internal14GTestMutexLockD2Ev.exit:    ; preds = %lpad
  resume { ptr, i32 } %lpad.phi

if.end:                                           ; preds = %call3.i.i.noexc
  invoke void @_ZNK7testing8internal9MutexBase10AssertHeldEv(ptr noundef nonnull align 8 dereferenceable(56) @_ZN7testing8internal13g_gmock_mutexE)
          to label %.noexc19 unwind label %lpad.loopexit.split-lp

.noexc19:                                         ; preds = %if.end
  %cardinality_.i.i = getelementptr inbounds %"class.testing::internal::ExpectationBase", ptr %2, i64 0, i32 6
  %call_count_.i = getelementptr inbounds %"class.testing::internal::ExpectationBase", ptr %2, i64 0, i32 8
  %8 = load i32, ptr %call_count_.i, align 8
  %9 = load ptr, ptr %cardinality_.i.i, align 8
  %vtable.i.i = load ptr, ptr %9, align 8
  %vfn.i.i = getelementptr inbounds ptr, ptr %vtable.i.i, i64 5
  %10 = load ptr, ptr %vfn.i.i, align 8
  %call2.i.i21 = invoke noundef zeroext i1 %10(ptr noundef nonnull align 8 dereferenceable(8) %9, i32 noundef %8)
          to label %invoke.cont3 unwind label %lpad.loopexit.split-lp

invoke.cont3:                                     ; preds = %.noexc19
  %frombool = zext i1 %call2.i.i21 to i8
  store i8 %frombool, ptr %is_excessive, align 1
  %call6 = invoke noundef ptr @_ZN7testing8internal16TypedExpectationIFliEE21GetActionForArgumentsEPKNS0_14FunctionMockerIS2_EERKSt5tupleIJiEEPSoSC_(ptr noundef nonnull align 8 dereferenceable(352) %2, ptr noundef nonnull %this, ptr noundef nonnull align 4 dereferenceable(4) %untyped_args, ptr noundef %what, ptr noundef %why)
          to label %invoke.cont5 unwind label %lpad.loopexit.split-lp

invoke.cont5:                                     ; preds = %invoke.cont3
  %cmp7.not = icmp eq ptr %call6, null
  br i1 %cmp7.not, label %if.end11, label %land.lhs.true

land.lhs.true:                                    ; preds = %invoke.cont5
  %_M_manager.i.i.i.i = getelementptr inbounds %"class.std::_Function_base", ptr %call6, i64 0, i32 1
  %11 = load ptr, ptr %_M_manager.i.i.i.i, align 8
  %tobool.not.i.i.not.i.i = icmp eq ptr %11, null
  %spec.select = select i1 %tobool.not.i.i.not.i.i, ptr null, ptr %call6
  br label %if.end11

if.end11:                                         ; preds = %land.lhs.true, %invoke.cont5
  %action.0 = phi ptr [ null, %invoke.cont5 ], [ %spec.select, %land.lhs.true ]
  store ptr %action.0, ptr %untyped_action, align 8
  br label %cleanup

cleanup:                                          ; preds = %.noexc17, %if.end11
  %retval.0 = phi ptr [ %2, %if.end11 ], [ null, %.noexc17 ]
  invoke void @_ZN7testing8internal9MutexBase6UnlockEv(ptr noundef nonnull align 8 dereferenceable(56) @_ZN7testing8internal13g_gmock_mutexE)
          to label %_ZN7testing8internal14GTestMutexLockD2Ev.exit23 unwind label %terminate.lpad.i22

terminate.lpad.i22:                               ; preds = %cleanup
  %12 = landingpad { ptr, i32 }
          catch ptr null
  %13 = extractvalue { ptr, i32 } %12, 0
  tail call void @__clang_call_terminate(ptr %13) #24
  unreachable

_ZN7testing8internal14GTestMutexLockD2Ev.exit23:  ; preds = %cleanup
  ret ptr %retval.0
}

; Function Attrs: mustprogress uwtable
define linkonce_odr dso_local void @_ZNK7testing8internal14FunctionMockerIFliEE16UntypedPrintArgsEPKvPSo(ptr noundef nonnull align 8 dereferenceable(72) %this, ptr noundef %untyped_args, ptr noundef %os) unnamed_addr #3 comdat align 2 {
entry:
  %call.i.i.i = tail call noundef nonnull align 8 dereferenceable(8) ptr @_ZStlsISt11char_traitsIcEERSt13basic_ostreamIcT_ES5_PKc(ptr noundef nonnull align 8 dereferenceable(8) %os, ptr noundef nonnull @.str.42)
  %0 = load i32, ptr %untyped_args, align 4
  %call.i.i.i.i.i.i.i.i = tail call noundef nonnull align 8 dereferenceable(8) ptr @_ZNSolsEi(ptr noundef nonnull align 8 dereferenceable(8) %os, i32 noundef %0)
  %call1.i.i.i = tail call noundef nonnull align 8 dereferenceable(8) ptr @_ZStlsISt11char_traitsIcEERSt13basic_ostreamIcT_ES5_PKc(ptr noundef nonnull align 8 dereferenceable(8) %os, ptr noundef nonnull @.str.43)
  ret void
}

declare noundef zeroext i1 @_ZN7testing8internal25UntypedFunctionMockerBase32VerifyAndClearExpectationsLockedEv(ptr noundef nonnull align 8 dereferenceable(72)) local_unnamed_addr #0

declare void @_ZN7testing4Mock16UnregisterLockedEPNS_8internal25UntypedFunctionMockerBaseE(ptr noundef) local_unnamed_addr #0

; Function Attrs: nounwind
declare void @_ZN7testing8internal25UntypedFunctionMockerBaseD2Ev(ptr noundef nonnull align 8 dereferenceable(72)) unnamed_addr #1

; Function Attrs: mustprogress nounwind uwtable
define linkonce_odr dso_local void @_ZN7testing8internal10OnCallSpecIFliEED2Ev(ptr noundef nonnull align 8 dereferenceable(96) %this) unnamed_addr #7 comdat align 2 personality ptr @__gxx_personality_v0 {
entry:
  %_M_manager.i.i.i = getelementptr inbounds %"class.testing::internal::OnCallSpec.59", ptr %this, i64 0, i32 3, i32 0, i32 0, i32 1
  %0 = load ptr, ptr %_M_manager.i.i.i, align 8
  %tobool.not.i.i.i = icmp eq ptr %0, null
  br i1 %tobool.not.i.i.i, label %_ZN7testing6ActionIFliEED2Ev.exit, label %if.then.i.i.i

if.then.i.i.i:                                    ; preds = %entry
  %action_ = getelementptr inbounds %"class.testing::internal::OnCallSpec.59", ptr %this, i64 0, i32 3
  %call.i.i.i = invoke noundef zeroext i1 %0(ptr noundef nonnull align 8 dereferenceable(16) %action_, ptr noundef nonnull align 8 dereferenceable(16) %action_, i32 noundef 3)
          to label %_ZN7testing6ActionIFliEED2Ev.exit unwind label %terminate.lpad.i.i.i

terminate.lpad.i.i.i:                             ; preds = %if.then.i.i.i
  %1 = landingpad { ptr, i32 }
          catch ptr null
  %2 = extractvalue { ptr, i32 } %1, 0
  tail call void @__clang_call_terminate(ptr %2) #24
  unreachable

_ZN7testing6ActionIFliEED2Ev.exit:                ; preds = %entry, %if.then.i.i.i
  %extra_matcher_ = getelementptr inbounds %"class.testing::internal::OnCallSpec.59", ptr %this, i64 0, i32 2
  store ptr getelementptr inbounds ({ [6 x ptr] }, ptr @_ZTVN7testing8internal11MatcherBaseIRKSt5tupleIJiEEEE, i64 0, inrange i32 0, i64 2), ptr %extra_matcher_, align 8
  %vtable_.i.i.i.i = getelementptr inbounds %"class.testing::internal::OnCallSpec.59", ptr %this, i64 0, i32 2, i32 0, i32 1
  %3 = load ptr, ptr %vtable_.i.i.i.i, align 8
  %cmp.not.i.i.i.i = icmp eq ptr %3, null
  br i1 %cmp.not.i.i.i.i, label %_ZN7testing7MatcherIRKSt5tupleIJiEEED2Ev.exit, label %_ZNK7testing8internal11MatcherBaseIRKSt5tupleIJiEEE8IsSharedEv.exit.i.i.i

_ZNK7testing8internal11MatcherBaseIRKSt5tupleIJiEEE8IsSharedEv.exit.i.i.i: ; preds = %_ZN7testing6ActionIFliEED2Ev.exit
  %shared_destroy.i.i.i.i = getelementptr inbounds %"struct.testing::internal::MatcherBase<const std::tuple<int> &>::VTable", ptr %3, i64 0, i32 3
  %4 = load ptr, ptr %shared_destroy.i.i.i.i, align 8
  %cmp3.i.not.i.i.i = icmp eq ptr %4, null
  br i1 %cmp3.i.not.i.i.i, label %_ZN7testing7MatcherIRKSt5tupleIJiEEED2Ev.exit, label %land.lhs.true.i.i.i

land.lhs.true.i.i.i:                              ; preds = %_ZNK7testing8internal11MatcherBaseIRKSt5tupleIJiEEE8IsSharedEv.exit.i.i.i
  %buffer_.i.i.i = getelementptr inbounds %"class.testing::internal::OnCallSpec.59", ptr %this, i64 0, i32 2, i32 0, i32 2
  %5 = load ptr, ptr %buffer_.i.i.i, align 8
  %6 = atomicrmw sub ptr %5, i32 1 acq_rel, align 4
  %cmp.i.i.i.i = icmp eq i32 %6, 1
  br i1 %cmp.i.i.i.i, label %if.then.i.i.i1, label %_ZN7testing7MatcherIRKSt5tupleIJiEEED2Ev.exit

if.then.i.i.i1:                                   ; preds = %land.lhs.true.i.i.i
  %7 = load ptr, ptr %vtable_.i.i.i.i, align 8
  %shared_destroy.i.i.i = getelementptr inbounds %"struct.testing::internal::MatcherBase<const std::tuple<int> &>::VTable", ptr %7, i64 0, i32 3
  %8 = load ptr, ptr %shared_destroy.i.i.i, align 8
  %9 = load ptr, ptr %buffer_.i.i.i, align 8
  invoke void %8(ptr noundef %9)
          to label %_ZN7testing7MatcherIRKSt5tupleIJiEEED2Ev.exit unwind label %terminate.lpad.i.i

terminate.lpad.i.i:                               ; preds = %if.then.i.i.i1
  %10 = landingpad { ptr, i32 }
          catch ptr null
  %11 = extractvalue { ptr, i32 } %10, 0
  tail call void @__clang_call_terminate(ptr %11) #24
  unreachable

_ZN7testing7MatcherIRKSt5tupleIJiEEED2Ev.exit:    ; preds = %_ZN7testing6ActionIFliEED2Ev.exit, %_ZNK7testing8internal11MatcherBaseIRKSt5tupleIJiEEE8IsSharedEv.exit.i.i.i, %land.lhs.true.i.i.i, %if.then.i.i.i1
  %matchers_ = getelementptr inbounds %"class.testing::internal::OnCallSpec.59", ptr %this, i64 0, i32 1
  store ptr getelementptr inbounds ({ [6 x ptr] }, ptr @_ZTVN7testing8internal11MatcherBaseIiEE, i64 0, inrange i32 0, i64 2), ptr %matchers_, align 8
  %vtable_.i.i.i.i.i.i.i = getelementptr inbounds %"class.testing::internal::OnCallSpec.59", ptr %this, i64 0, i32 1, i32 0, i32 0, i32 0, i32 0, i32 1
  %12 = load ptr, ptr %vtable_.i.i.i.i.i.i.i, align 8
  %cmp.not.i.i.i.i.i.i.i = icmp eq ptr %12, null
  br i1 %cmp.not.i.i.i.i.i.i.i, label %_ZNSt5tupleIJN7testing7MatcherIiEEEED2Ev.exit, label %_ZNK7testing8internal11MatcherBaseIiE8IsSharedEv.exit.i.i.i.i.i.i

_ZNK7testing8internal11MatcherBaseIiE8IsSharedEv.exit.i.i.i.i.i.i: ; preds = %_ZN7testing7MatcherIRKSt5tupleIJiEEED2Ev.exit
  %shared_destroy.i.i.i.i.i.i.i = getelementptr inbounds %"struct.testing::internal::MatcherBase<int>::VTable", ptr %12, i64 0, i32 3
  %13 = load ptr, ptr %shared_destroy.i.i.i.i.i.i.i, align 8
  %cmp3.i.not.i.i.i.i.i.i = icmp eq ptr %13, null
  br i1 %cmp3.i.not.i.i.i.i.i.i, label %_ZNSt5tupleIJN7testing7MatcherIiEEEED2Ev.exit, label %land.lhs.true.i.i.i.i.i.i

land.lhs.true.i.i.i.i.i.i:                        ; preds = %_ZNK7testing8internal11MatcherBaseIiE8IsSharedEv.exit.i.i.i.i.i.i
  %buffer_.i.i.i.i.i.i = getelementptr inbounds %"class.testing::internal::OnCallSpec.59", ptr %this, i64 0, i32 1, i32 0, i32 0, i32 0, i32 0, i32 2
  %14 = load ptr, ptr %buffer_.i.i.i.i.i.i, align 8
  %15 = atomicrmw sub ptr %14, i32 1 acq_rel, align 4
  %cmp.i.i.i.i.i.i.i = icmp eq i32 %15, 1
  br i1 %cmp.i.i.i.i.i.i.i, label %if.then.i.i.i.i.i.i, label %_ZNSt5tupleIJN7testing7MatcherIiEEEED2Ev.exit

if.then.i.i.i.i.i.i:                              ; preds = %land.lhs.true.i.i.i.i.i.i
  %16 = load ptr, ptr %vtable_.i.i.i.i.i.i.i, align 8
  %shared_destroy.i.i.i.i.i.i = getelementptr inbounds %"struct.testing::internal::MatcherBase<int>::VTable", ptr %16, i64 0, i32 3
  %17 = load ptr, ptr %shared_destroy.i.i.i.i.i.i, align 8
  %18 = load ptr, ptr %buffer_.i.i.i.i.i.i, align 8
  invoke void %17(ptr noundef %18)
          to label %_ZNSt5tupleIJN7testing7MatcherIiEEEED2Ev.exit unwind label %terminate.lpad.i.i.i.i.i

terminate.lpad.i.i.i.i.i:                         ; preds = %if.then.i.i.i.i.i.i
  %19 = landingpad { ptr, i32 }
          catch ptr null
  %20 = extractvalue { ptr, i32 } %19, 0
  tail call void @__clang_call_terminate(ptr %20) #24
  unreachable

_ZNSt5tupleIJN7testing7MatcherIiEEEED2Ev.exit:    ; preds = %_ZN7testing7MatcherIRKSt5tupleIJiEEED2Ev.exit, %_ZNK7testing8internal11MatcherBaseIiE8IsSharedEv.exit.i.i.i.i.i.i, %land.lhs.true.i.i.i.i.i.i, %if.then.i.i.i.i.i.i
  ret void
}

; Function Attrs: mustprogress nounwind uwtable
define linkonce_odr dso_local void @_ZN7testing7MatcherIRKSt5tupleIJiEEED2Ev(ptr noundef nonnull align 8 dereferenceable(24) %this) unnamed_addr #7 comdat align 2 personality ptr @__gxx_personality_v0 {
entry:
  store ptr getelementptr inbounds ({ [6 x ptr] }, ptr @_ZTVN7testing8internal11MatcherBaseIRKSt5tupleIJiEEEE, i64 0, inrange i32 0, i64 2), ptr %this, align 8
  %vtable_.i.i.i = getelementptr inbounds %"class.testing::internal::MatcherBase.32", ptr %this, i64 0, i32 1
  %0 = load ptr, ptr %vtable_.i.i.i, align 8
  %cmp.not.i.i.i = icmp eq ptr %0, null
  br i1 %cmp.not.i.i.i, label %_ZN7testing8internal11MatcherBaseIRKSt5tupleIJiEEED2Ev.exit, label %_ZNK7testing8internal11MatcherBaseIRKSt5tupleIJiEEE8IsSharedEv.exit.i.i

_ZNK7testing8internal11MatcherBaseIRKSt5tupleIJiEEE8IsSharedEv.exit.i.i: ; preds = %entry
  %shared_destroy.i.i.i = getelementptr inbounds %"struct.testing::internal::MatcherBase<const std::tuple<int> &>::VTable", ptr %0, i64 0, i32 3
  %1 = load ptr, ptr %shared_destroy.i.i.i, align 8
  %cmp3.i.not.i.i = icmp eq ptr %1, null
  br i1 %cmp3.i.not.i.i, label %_ZN7testing8internal11MatcherBaseIRKSt5tupleIJiEEED2Ev.exit, label %land.lhs.true.i.i

land.lhs.true.i.i:                                ; preds = %_ZNK7testing8internal11MatcherBaseIRKSt5tupleIJiEEE8IsSharedEv.exit.i.i
  %buffer_.i.i = getelementptr inbounds %"class.testing::internal::MatcherBase.32", ptr %this, i64 0, i32 2
  %2 = load ptr, ptr %buffer_.i.i, align 8
  %3 = atomicrmw sub ptr %2, i32 1 acq_rel, align 4
  %cmp.i.i.i = icmp eq i32 %3, 1
  br i1 %cmp.i.i.i, label %if.then.i.i, label %_ZN7testing8internal11MatcherBaseIRKSt5tupleIJiEEED2Ev.exit

if.then.i.i:                                      ; preds = %land.lhs.true.i.i
  %4 = load ptr, ptr %vtable_.i.i.i, align 8
  %shared_destroy.i.i = getelementptr inbounds %"struct.testing::internal::MatcherBase<const std::tuple<int> &>::VTable", ptr %4, i64 0, i32 3
  %5 = load ptr, ptr %shared_destroy.i.i, align 8
  %6 = load ptr, ptr %buffer_.i.i, align 8
  invoke void %5(ptr noundef %6)
          to label %_ZN7testing8internal11MatcherBaseIRKSt5tupleIJiEEED2Ev.exit unwind label %terminate.lpad.i

terminate.lpad.i:                                 ; preds = %if.then.i.i
  %7 = landingpad { ptr, i32 }
          catch ptr null
  %8 = extractvalue { ptr, i32 } %7, 0
  tail call void @__clang_call_terminate(ptr %8) #24
  unreachable

_ZN7testing8internal11MatcherBaseIRKSt5tupleIJiEEED2Ev.exit: ; preds = %entry, %_ZNK7testing8internal11MatcherBaseIRKSt5tupleIJiEEE8IsSharedEv.exit.i.i, %land.lhs.true.i.i, %if.then.i.i
  ret void
}

; Function Attrs: mustprogress nounwind uwtable
define linkonce_odr dso_local void @_ZN7testing8internal11MatcherBaseIRKSt5tupleIJiEEED2Ev(ptr noundef nonnull align 8 dereferenceable(24) %this) unnamed_addr #7 comdat align 2 personality ptr @__gxx_personality_v0 {
entry:
  store ptr getelementptr inbounds ({ [6 x ptr] }, ptr @_ZTVN7testing8internal11MatcherBaseIRKSt5tupleIJiEEEE, i64 0, inrange i32 0, i64 2), ptr %this, align 8
  %vtable_.i.i = getelementptr inbounds %"class.testing::internal::MatcherBase.32", ptr %this, i64 0, i32 1
  %0 = load ptr, ptr %vtable_.i.i, align 8
  %cmp.not.i.i = icmp eq ptr %0, null
  br i1 %cmp.not.i.i, label %invoke.cont, label %_ZNK7testing8internal11MatcherBaseIRKSt5tupleIJiEEE8IsSharedEv.exit.i

_ZNK7testing8internal11MatcherBaseIRKSt5tupleIJiEEE8IsSharedEv.exit.i: ; preds = %entry
  %shared_destroy.i.i = getelementptr inbounds %"struct.testing::internal::MatcherBase<const std::tuple<int> &>::VTable", ptr %0, i64 0, i32 3
  %1 = load ptr, ptr %shared_destroy.i.i, align 8
  %cmp3.i.not.i = icmp eq ptr %1, null
  br i1 %cmp3.i.not.i, label %invoke.cont, label %land.lhs.true.i

land.lhs.true.i:                                  ; preds = %_ZNK7testing8internal11MatcherBaseIRKSt5tupleIJiEEE8IsSharedEv.exit.i
  %buffer_.i = getelementptr inbounds %"class.testing::internal::MatcherBase.32", ptr %this, i64 0, i32 2
  %2 = load ptr, ptr %buffer_.i, align 8
  %3 = atomicrmw sub ptr %2, i32 1 acq_rel, align 4
  %cmp.i.i = icmp eq i32 %3, 1
  br i1 %cmp.i.i, label %if.then.i, label %invoke.cont

if.then.i:                                        ; preds = %land.lhs.true.i
  %4 = load ptr, ptr %vtable_.i.i, align 8
  %shared_destroy.i = getelementptr inbounds %"struct.testing::internal::MatcherBase<const std::tuple<int> &>::VTable", ptr %4, i64 0, i32 3
  %5 = load ptr, ptr %shared_destroy.i, align 8
  %6 = load ptr, ptr %buffer_.i, align 8
  invoke void %5(ptr noundef %6)
          to label %invoke.cont unwind label %terminate.lpad

invoke.cont:                                      ; preds = %land.lhs.true.i, %_ZNK7testing8internal11MatcherBaseIRKSt5tupleIJiEEE8IsSharedEv.exit.i, %entry, %if.then.i
  ret void

terminate.lpad:                                   ; preds = %if.then.i
  %7 = landingpad { ptr, i32 }
          catch ptr null
  %8 = extractvalue { ptr, i32 } %7, 0
  tail call void @__clang_call_terminate(ptr %8) #24
  unreachable
}

; Function Attrs: mustprogress nounwind uwtable
define linkonce_odr dso_local void @_ZN7testing8internal11MatcherBaseIRKSt5tupleIJiEEED0Ev(ptr noundef nonnull align 8 dereferenceable(24) %this) unnamed_addr #7 comdat align 2 personality ptr @__gxx_personality_v0 {
entry:
  store ptr getelementptr inbounds ({ [6 x ptr] }, ptr @_ZTVN7testing8internal11MatcherBaseIRKSt5tupleIJiEEEE, i64 0, inrange i32 0, i64 2), ptr %this, align 8
  %vtable_.i.i.i = getelementptr inbounds %"class.testing::internal::MatcherBase.32", ptr %this, i64 0, i32 1
  %0 = load ptr, ptr %vtable_.i.i.i, align 8
  %cmp.not.i.i.i = icmp eq ptr %0, null
  br i1 %cmp.not.i.i.i, label %_ZN7testing8internal11MatcherBaseIRKSt5tupleIJiEEED2Ev.exit, label %_ZNK7testing8internal11MatcherBaseIRKSt5tupleIJiEEE8IsSharedEv.exit.i.i

_ZNK7testing8internal11MatcherBaseIRKSt5tupleIJiEEE8IsSharedEv.exit.i.i: ; preds = %entry
  %shared_destroy.i.i.i = getelementptr inbounds %"struct.testing::internal::MatcherBase<const std::tuple<int> &>::VTable", ptr %0, i64 0, i32 3
  %1 = load ptr, ptr %shared_destroy.i.i.i, align 8
  %cmp3.i.not.i.i = icmp eq ptr %1, null
  br i1 %cmp3.i.not.i.i, label %_ZN7testing8internal11MatcherBaseIRKSt5tupleIJiEEED2Ev.exit, label %land.lhs.true.i.i

land.lhs.true.i.i:                                ; preds = %_ZNK7testing8internal11MatcherBaseIRKSt5tupleIJiEEE8IsSharedEv.exit.i.i
  %buffer_.i.i = getelementptr inbounds %"class.testing::internal::MatcherBase.32", ptr %this, i64 0, i32 2
  %2 = load ptr, ptr %buffer_.i.i, align 8
  %3 = atomicrmw sub ptr %2, i32 1 acq_rel, align 4
  %cmp.i.i.i = icmp eq i32 %3, 1
  br i1 %cmp.i.i.i, label %if.then.i.i, label %_ZN7testing8internal11MatcherBaseIRKSt5tupleIJiEEED2Ev.exit

if.then.i.i:                                      ; preds = %land.lhs.true.i.i
  %4 = load ptr, ptr %vtable_.i.i.i, align 8
  %shared_destroy.i.i = getelementptr inbounds %"struct.testing::internal::MatcherBase<const std::tuple<int> &>::VTable", ptr %4, i64 0, i32 3
  %5 = load ptr, ptr %shared_destroy.i.i, align 8
  %6 = load ptr, ptr %buffer_.i.i, align 8
  invoke void %5(ptr noundef %6)
          to label %_ZN7testing8internal11MatcherBaseIRKSt5tupleIJiEEED2Ev.exit unwind label %terminate.lpad.i

terminate.lpad.i:                                 ; preds = %if.then.i.i
  %7 = landingpad { ptr, i32 }
          catch ptr null
  %8 = extractvalue { ptr, i32 } %7, 0
  tail call void @__clang_call_terminate(ptr %8) #24
  unreachable

_ZN7testing8internal11MatcherBaseIRKSt5tupleIJiEEED2Ev.exit: ; preds = %entry, %_ZNK7testing8internal11MatcherBaseIRKSt5tupleIJiEEE8IsSharedEv.exit.i.i, %land.lhs.true.i.i, %if.then.i.i
  tail call void @_ZdlPv(ptr noundef nonnull %this) #22
  ret void
}

; Function Attrs: mustprogress uwtable
define linkonce_odr dso_local void @_ZNK7testing8internal11MatcherBaseIRKSt5tupleIJiEEE10DescribeToEPSo(ptr noundef nonnull align 8 dereferenceable(24) %this, ptr noundef %os) unnamed_addr #3 comdat align 2 personality ptr @__gxx_personality_v0 {
entry:
  %ref.tmp = alloca %"class.testing::internal::GTestLog", align 4
  %vtable_ = getelementptr inbounds %"class.testing::internal::MatcherBase.32", ptr %this, i64 0, i32 1
  %0 = load ptr, ptr %vtable_, align 8
  %cmp = icmp ne ptr %0, null
  %call = tail call noundef zeroext i1 @_ZN7testing8internal6IsTrueEb(i1 noundef zeroext %cmp)
  br i1 %call, label %if.end, label %if.else

if.else:                                          ; preds = %entry
  call void @_ZN7testing8internal8GTestLogC1ENS0_16GTestLogSeverityEPKci(ptr noundef nonnull align 4 dereferenceable(4) %ref.tmp, i32 noundef 3, ptr noundef nonnull @.str.34, i32 noundef 245)
  %call3 = invoke noundef nonnull align 8 dereferenceable(8) ptr @_ZStlsISt11char_traitsIcEERSt13basic_ostreamIcT_ES5_PKc(ptr noundef nonnull align 8 dereferenceable(8) @_ZSt4cerr, ptr noundef nonnull @.str.35)
          to label %invoke.cont unwind label %lpad

invoke.cont:                                      ; preds = %if.else
  call void @_ZN7testing8internal8GTestLogD1Ev(ptr noundef nonnull align 4 dereferenceable(4) %ref.tmp) #21
  br label %if.end

lpad:                                             ; preds = %if.else
  %1 = landingpad { ptr, i32 }
          cleanup
  call void @_ZN7testing8internal8GTestLogD1Ev(ptr noundef nonnull align 4 dereferenceable(4) %ref.tmp) #21
  resume { ptr, i32 } %1

if.end:                                           ; preds = %entry, %invoke.cont
  %2 = load ptr, ptr %vtable_, align 8
  %describe = getelementptr inbounds %"struct.testing::internal::MatcherBase<const std::tuple<int> &>::VTable", ptr %2, i64 0, i32 1
  %3 = load ptr, ptr %describe, align 8
  call void %3(ptr noundef nonnull align 8 dereferenceable(24) %this, ptr noundef %os, i1 noundef zeroext false)
  ret void
}

; Function Attrs: mustprogress uwtable
define linkonce_odr dso_local void @_ZNK7testing8internal11MatcherBaseIRKSt5tupleIJiEEE18DescribeNegationToEPSo(ptr noundef nonnull align 8 dereferenceable(24) %this, ptr noundef %os) unnamed_addr #3 comdat align 2 personality ptr @__gxx_personality_v0 {
entry:
  %ref.tmp = alloca %"class.testing::internal::GTestLog", align 4
  %vtable_ = getelementptr inbounds %"class.testing::internal::MatcherBase.32", ptr %this, i64 0, i32 1
  %0 = load ptr, ptr %vtable_, align 8
  %cmp = icmp ne ptr %0, null
  %call = tail call noundef zeroext i1 @_ZN7testing8internal6IsTrueEb(i1 noundef zeroext %cmp)
  br i1 %call, label %if.end, label %if.else

if.else:                                          ; preds = %entry
  call void @_ZN7testing8internal8GTestLogC1ENS0_16GTestLogSeverityEPKci(ptr noundef nonnull align 4 dereferenceable(4) %ref.tmp, i32 noundef 3, ptr noundef nonnull @.str.34, i32 noundef 251)
  %call3 = invoke noundef nonnull align 8 dereferenceable(8) ptr @_ZStlsISt11char_traitsIcEERSt13basic_ostreamIcT_ES5_PKc(ptr noundef nonnull align 8 dereferenceable(8) @_ZSt4cerr, ptr noundef nonnull @.str.35)
          to label %invoke.cont unwind label %lpad

invoke.cont:                                      ; preds = %if.else
  call void @_ZN7testing8internal8GTestLogD1Ev(ptr noundef nonnull align 4 dereferenceable(4) %ref.tmp) #21
  br label %if.end

lpad:                                             ; preds = %if.else
  %1 = landingpad { ptr, i32 }
          cleanup
  call void @_ZN7testing8internal8GTestLogD1Ev(ptr noundef nonnull align 4 dereferenceable(4) %ref.tmp) #21
  resume { ptr, i32 } %1

if.end:                                           ; preds = %entry, %invoke.cont
  %2 = load ptr, ptr %vtable_, align 8
  %describe = getelementptr inbounds %"struct.testing::internal::MatcherBase<const std::tuple<int> &>::VTable", ptr %2, i64 0, i32 1
  %3 = load ptr, ptr %describe, align 8
  call void %3(ptr noundef nonnull align 8 dereferenceable(24) %this, ptr noundef %os, i1 noundef zeroext true)
  ret void
}

; Function Attrs: mustprogress uwtable
define linkonce_odr dso_local void @_ZNK7testing8internal14FunctionMockerIFliEE23DescribeDefaultActionToERKSt5tupleIJiEEPSo(ptr noundef nonnull align 8 dereferenceable(72) %this, ptr noundef nonnull align 4 dereferenceable(4) %args, ptr noundef %os) local_unnamed_addr #3 comdat align 2 personality ptr @__gxx_personality_v0 {
entry:
  %ref.tmp = alloca %"class.std::__cxx11::basic_string", align 8
  %untyped_on_call_specs_.i = getelementptr inbounds %"class.testing::internal::UntypedFunctionMockerBase", ptr %this, i64 0, i32 3
  %_M_finish.i.i.i = getelementptr inbounds %"class.testing::internal::UntypedFunctionMockerBase", ptr %this, i64 0, i32 3, i32 0, i32 0, i32 0, i32 1
  %0 = load ptr, ptr %_M_finish.i.i.i, align 8, !noalias !42
  br label %for.cond.i

for.cond.i:                                       ; preds = %for.body.i, %entry
  %it.sroa.0.0.i = phi ptr [ %0, %entry ], [ %incdec.ptr.i.i.i, %for.body.i ]
  %1 = load ptr, ptr %untyped_on_call_specs_.i, align 8, !noalias !45
  %cmp.i.i.i.not.i = icmp eq ptr %it.sroa.0.0.i, %1
  br i1 %cmp.i.i.i.not.i, label %if.then, label %for.body.i

for.body.i:                                       ; preds = %for.cond.i
  %incdec.ptr.i.i.i = getelementptr inbounds ptr, ptr %it.sroa.0.0.i, i64 -1
  %2 = load ptr, ptr %incdec.ptr.i.i.i, align 8
  %call4.i = tail call noundef zeroext i1 @_ZNK7testing8internal10OnCallSpecIFliEE7MatchesERKSt5tupleIJiEE(ptr noundef nonnull align 8 dereferenceable(96) %2, ptr noundef nonnull align 4 dereferenceable(4) %args)
  br i1 %call4.i, label %if.else, label %for.cond.i, !llvm.loop !48

if.then:                                          ; preds = %for.cond.i
  %call2 = tail call noundef nonnull align 8 dereferenceable(8) ptr @_ZStlsISt11char_traitsIcEERSt13basic_ostreamIcT_ES5_PKc(ptr noundef nonnull align 8 dereferenceable(8) %os, ptr noundef nonnull @.str.39)
  br label %if.end

if.else:                                          ; preds = %for.body.i
  %call3 = tail call noundef nonnull align 8 dereferenceable(8) ptr @_ZStlsISt11char_traitsIcEERSt13basic_ostreamIcT_ES5_PKc(ptr noundef nonnull align 8 dereferenceable(8) %os, ptr noundef nonnull @.str.40)
  %3 = load ptr, ptr %2, align 8
  %line_.i = getelementptr inbounds %"class.testing::internal::UntypedOnCallSpecBase", ptr %2, i64 0, i32 1
  %4 = load i32, ptr %line_.i, align 8
  call void @_ZN7testing8internal18FormatFileLocationB5cxx11EPKci(ptr nonnull sret(%"class.std::__cxx11::basic_string") align 8 %ref.tmp, ptr noundef %3, i32 noundef %4)
  %call6 = invoke noundef nonnull align 8 dereferenceable(8) ptr @_ZStlsIcSt11char_traitsIcESaIcEERSt13basic_ostreamIT_T0_ES7_RKNSt7__cxx1112basic_stringIS4_S5_T1_EE(ptr noundef nonnull align 8 dereferenceable(8) %call3, ptr noundef nonnull align 8 dereferenceable(32) %ref.tmp)
          to label %invoke.cont unwind label %lpad

invoke.cont:                                      ; preds = %if.else
  %call8 = invoke noundef nonnull align 8 dereferenceable(8) ptr @_ZStlsISt11char_traitsIcEERSt13basic_ostreamIcT_ES5_PKc(ptr noundef nonnull align 8 dereferenceable(8) %call6, ptr noundef nonnull @.str.41)
          to label %invoke.cont7 unwind label %lpad

invoke.cont7:                                     ; preds = %invoke.cont
  call void @_ZNSt7__cxx1112basic_stringIcSt11char_traitsIcESaIcEED1Ev(ptr noundef nonnull align 8 dereferenceable(32) %ref.tmp) #21
  br label %if.end

lpad:                                             ; preds = %invoke.cont, %if.else
  %5 = landingpad { ptr, i32 }
          cleanup
  call void @_ZNSt7__cxx1112basic_stringIcSt11char_traitsIcESaIcEED1Ev(ptr noundef nonnull align 8 dereferenceable(32) %ref.tmp) #21
  resume { ptr, i32 } %5

if.end:                                           ; preds = %invoke.cont7, %if.then
  ret void
}

; Function Attrs: mustprogress uwtable
define linkonce_odr dso_local noundef zeroext i1 @_ZNK7testing8internal10OnCallSpecIFliEE7MatchesERKSt5tupleIJiEE(ptr noundef nonnull align 8 dereferenceable(96) %this, ptr noundef nonnull align 4 dereferenceable(4) %args) local_unnamed_addr #3 comdat align 2 personality ptr @__gxx_personality_v0 {
entry:
  %ref.tmp.i.i = alloca %"class.testing::internal::GTestLog", align 4
  %dummy.i = alloca %"class.testing::internal::DummyMatchResultListener", align 8
  %ref.tmp.i.i.i.i = alloca %"class.testing::internal::GTestLog", align 4
  %dummy.i.i.i = alloca %"class.testing::internal::DummyMatchResultListener", align 8
  %matchers_ = getelementptr inbounds %"class.testing::internal::OnCallSpec.59", ptr %this, i64 0, i32 1
  call void @llvm.lifetime.start.p0(i64 16, ptr nonnull %dummy.i.i.i)
  %stream_.i.i.i.i.i = getelementptr inbounds %"class.testing::MatchResultListener", ptr %dummy.i.i.i, i64 0, i32 1
  store ptr null, ptr %stream_.i.i.i.i.i, align 8
  store ptr getelementptr inbounds ({ [4 x ptr] }, ptr @_ZTVN7testing8internal24DummyMatchResultListenerE, i64 0, inrange i32 0, i64 2), ptr %dummy.i.i.i, align 8
  call void @llvm.lifetime.start.p0(i64 4, ptr nonnull %ref.tmp.i.i.i.i)
  %vtable_.i.i.i.i = getelementptr inbounds %"class.testing::internal::OnCallSpec.59", ptr %this, i64 0, i32 1, i32 0, i32 0, i32 0, i32 0, i32 1
  %0 = load ptr, ptr %vtable_.i.i.i.i, align 8
  %cmp.i.i.i.i = icmp ne ptr %0, null
  %call.i1.i.i.i = tail call noundef zeroext i1 @_ZN7testing8internal6IsTrueEb(i1 noundef zeroext %cmp.i.i.i.i)
  br i1 %call.i1.i.i.i, label %_ZN7testing8internal12TupleMatchesISt5tupleIJNS_7MatcherIiEEEES2_IJiEEEEbRKT_RKT0_.exit, label %if.else.i.i.i.i

if.else.i.i.i.i:                                  ; preds = %entry
  call void @_ZN7testing8internal8GTestLogC1ENS0_16GTestLogSeverityEPKci(ptr noundef nonnull align 4 dereferenceable(4) %ref.tmp.i.i.i.i, i32 noundef 3, ptr noundef nonnull @.str.34, i32 noundef 233)
  %call3.i.i.i.i = invoke noundef nonnull align 8 dereferenceable(8) ptr @_ZStlsISt11char_traitsIcEERSt13basic_ostreamIcT_ES5_PKc(ptr noundef nonnull align 8 dereferenceable(8) @_ZSt4cerr, ptr noundef nonnull @.str.35)
          to label %invoke.cont.i.i.i.i unwind label %lpad.i.i.i.i

invoke.cont.i.i.i.i:                              ; preds = %if.else.i.i.i.i
  call void @_ZN7testing8internal8GTestLogD1Ev(ptr noundef nonnull align 4 dereferenceable(4) %ref.tmp.i.i.i.i) #21
  br label %_ZN7testing8internal12TupleMatchesISt5tupleIJNS_7MatcherIiEEEES2_IJiEEEEbRKT_RKT0_.exit

common.resume:                                    ; preds = %lpad.i.i, %lpad.i.i.i.i
  %ref.tmp.i.i.sink = phi ptr [ %ref.tmp.i.i, %lpad.i.i ], [ %ref.tmp.i.i.i.i, %lpad.i.i.i.i ]
  %common.resume.op = phi { ptr, i32 } [ %5, %lpad.i.i ], [ %1, %lpad.i.i.i.i ]
  call void @_ZN7testing8internal8GTestLogD1Ev(ptr noundef nonnull align 4 dereferenceable(4) %ref.tmp.i.i.sink) #21
  resume { ptr, i32 } %common.resume.op

lpad.i.i.i.i:                                     ; preds = %if.else.i.i.i.i
  %1 = landingpad { ptr, i32 }
          cleanup
  br label %common.resume

_ZN7testing8internal12TupleMatchesISt5tupleIJNS_7MatcherIiEEEES2_IJiEEEEbRKT_RKT0_.exit: ; preds = %entry, %invoke.cont.i.i.i.i
  %2 = load ptr, ptr %vtable_.i.i.i.i, align 8
  %3 = load ptr, ptr %2, align 8
  %call5.i2.i.i.i = call noundef zeroext i1 %3(ptr noundef nonnull align 8 dereferenceable(24) %matchers_, ptr noundef nonnull align 4 dereferenceable(4) %args, ptr noundef nonnull %dummy.i.i.i)
  call void @llvm.lifetime.end.p0(i64 4, ptr nonnull %ref.tmp.i.i.i.i)
  call void @llvm.lifetime.end.p0(i64 16, ptr nonnull %dummy.i.i.i)
  br i1 %call5.i2.i.i.i, label %land.rhs, label %land.end

land.rhs:                                         ; preds = %_ZN7testing8internal12TupleMatchesISt5tupleIJNS_7MatcherIiEEEES2_IJiEEEEbRKT_RKT0_.exit
  %extra_matcher_ = getelementptr inbounds %"class.testing::internal::OnCallSpec.59", ptr %this, i64 0, i32 2
  call void @llvm.lifetime.start.p0(i64 16, ptr nonnull %dummy.i)
  %stream_.i.i.i = getelementptr inbounds %"class.testing::MatchResultListener", ptr %dummy.i, i64 0, i32 1
  store ptr null, ptr %stream_.i.i.i, align 8
  store ptr getelementptr inbounds ({ [4 x ptr] }, ptr @_ZTVN7testing8internal24DummyMatchResultListenerE, i64 0, inrange i32 0, i64 2), ptr %dummy.i, align 8
  call void @llvm.lifetime.start.p0(i64 4, ptr nonnull %ref.tmp.i.i)
  %vtable_.i.i = getelementptr inbounds %"class.testing::internal::OnCallSpec.59", ptr %this, i64 0, i32 2, i32 0, i32 1
  %4 = load ptr, ptr %vtable_.i.i, align 8
  %cmp.i.i = icmp ne ptr %4, null
  %call.i1.i = call noundef zeroext i1 @_ZN7testing8internal6IsTrueEb(i1 noundef zeroext %cmp.i.i)
  br i1 %call.i1.i, label %_ZNK7testing8internal11MatcherBaseIRKSt5tupleIJiEEE7MatchesES5_.exit, label %if.else.i.i

if.else.i.i:                                      ; preds = %land.rhs
  call void @_ZN7testing8internal8GTestLogC1ENS0_16GTestLogSeverityEPKci(ptr noundef nonnull align 4 dereferenceable(4) %ref.tmp.i.i, i32 noundef 3, ptr noundef nonnull @.str.34, i32 noundef 233)
  %call3.i.i = invoke noundef nonnull align 8 dereferenceable(8) ptr @_ZStlsISt11char_traitsIcEERSt13basic_ostreamIcT_ES5_PKc(ptr noundef nonnull align 8 dereferenceable(8) @_ZSt4cerr, ptr noundef nonnull @.str.35)
          to label %invoke.cont.i.i unwind label %lpad.i.i

invoke.cont.i.i:                                  ; preds = %if.else.i.i
  call void @_ZN7testing8internal8GTestLogD1Ev(ptr noundef nonnull align 4 dereferenceable(4) %ref.tmp.i.i) #21
  br label %_ZNK7testing8internal11MatcherBaseIRKSt5tupleIJiEEE7MatchesES5_.exit

lpad.i.i:                                         ; preds = %if.else.i.i
  %5 = landingpad { ptr, i32 }
          cleanup
  br label %common.resume

_ZNK7testing8internal11MatcherBaseIRKSt5tupleIJiEEE7MatchesES5_.exit: ; preds = %land.rhs, %invoke.cont.i.i
  %6 = load ptr, ptr %vtable_.i.i, align 8
  %7 = load ptr, ptr %6, align 8
  %call5.i2.i = call noundef zeroext i1 %7(ptr noundef nonnull align 8 dereferenceable(24) %extra_matcher_, ptr noundef nonnull align 4 dereferenceable(4) %args, ptr noundef nonnull %dummy.i)
  call void @llvm.lifetime.end.p0(i64 4, ptr nonnull %ref.tmp.i.i)
  call void @llvm.lifetime.end.p0(i64 16, ptr nonnull %dummy.i)
  br label %land.end

land.end:                                         ; preds = %_ZNK7testing8internal11MatcherBaseIRKSt5tupleIJiEEE7MatchesES5_.exit, %_ZN7testing8internal12TupleMatchesISt5tupleIJNS_7MatcherIiEEEES2_IJiEEEEbRKT_RKT0_.exit
  %8 = phi i1 [ false, %_ZN7testing8internal12TupleMatchesISt5tupleIJNS_7MatcherIiEEEES2_IJiEEEEbRKT_RKT0_.exit ], [ %call5.i2.i, %_ZNK7testing8internal11MatcherBaseIRKSt5tupleIJiEEE7MatchesES5_.exit ]
  ret i1 %8
}

; Function Attrs: mustprogress uwtable
define linkonce_odr dso_local noundef ptr @_ZN7testing8internal16TypedExpectationIFliEE21GetActionForArgumentsEPKNS0_14FunctionMockerIS2_EERKSt5tupleIJiEEPSoSC_(ptr noundef nonnull align 8 dereferenceable(352) %this, ptr noundef %mocker, ptr noundef nonnull align 4 dereferenceable(4) %args, ptr noundef %what, ptr noundef %why) local_unnamed_addr #3 comdat align 2 {
entry:
  tail call void @_ZNK7testing8internal9MutexBase10AssertHeldEv(ptr noundef nonnull align 8 dereferenceable(56) @_ZN7testing8internal13g_gmock_mutexE)
  %description_.i = getelementptr inbounds %"class.testing::internal::ExpectationBase", ptr %this, i64 0, i32 4
  tail call void @_ZNK7testing8internal9MutexBase10AssertHeldEv(ptr noundef nonnull align 8 dereferenceable(56) @_ZN7testing8internal13g_gmock_mutexE)
  %cardinality_.i.i = getelementptr inbounds %"class.testing::internal::ExpectationBase", ptr %this, i64 0, i32 6
  %call_count_.i = getelementptr inbounds %"class.testing::internal::ExpectationBase", ptr %this, i64 0, i32 8
  %0 = load i32, ptr %call_count_.i, align 8
  %1 = load ptr, ptr %cardinality_.i.i, align 8
  %vtable.i.i = load ptr, ptr %1, align 8
  %vfn.i.i = getelementptr inbounds ptr, ptr %vtable.i.i, i64 5
  %2 = load ptr, ptr %vfn.i.i, align 8
  %call2.i.i = tail call noundef zeroext i1 %2(ptr noundef nonnull align 8 dereferenceable(8) %1, i32 noundef %0)
  tail call void @_ZNK7testing8internal9MutexBase10AssertHeldEv(ptr noundef nonnull align 8 dereferenceable(56) @_ZN7testing8internal13g_gmock_mutexE)
  %3 = load i32, ptr %call_count_.i, align 8
  %inc.i = add nsw i32 %3, 1
  store i32 %inc.i, ptr %call_count_.i, align 8
  br i1 %call2.i.i, label %if.then, label %if.end10

if.then:                                          ; preds = %entry
  %call3 = tail call noundef nonnull align 8 dereferenceable(8) ptr @_ZStlsISt11char_traitsIcEERSt13basic_ostreamIcT_ES5_PKc(ptr noundef nonnull align 8 dereferenceable(8) %what, ptr noundef nonnull @.str.64)
  %call4 = tail call noundef zeroext i1 @_ZNKSt7__cxx1112basic_stringIcSt11char_traitsIcESaIcEE5emptyEv(ptr noundef nonnull align 8 dereferenceable(32) %description_.i) #21
  br i1 %call4, label %if.end, label %if.then5

if.then5:                                         ; preds = %if.then
  %call6 = tail call noundef nonnull align 8 dereferenceable(8) ptr @_ZStlsISt11char_traitsIcEERSt13basic_ostreamIcT_ES5_PKc(ptr noundef nonnull align 8 dereferenceable(8) %what, ptr noundef nonnull @.str.65)
  %call7 = tail call noundef nonnull align 8 dereferenceable(8) ptr @_ZStlsIcSt11char_traitsIcESaIcEERSt13basic_ostreamIT_T0_ES7_RKNSt7__cxx1112basic_stringIS4_S5_T1_EE(ptr noundef nonnull align 8 dereferenceable(8) %call6, ptr noundef nonnull align 8 dereferenceable(32) %description_.i)
  %call8 = tail call noundef nonnull align 8 dereferenceable(8) ptr @_ZStlsISt11char_traitsIcEERSt13basic_ostreamIcT_ES5_PKc(ptr noundef nonnull align 8 dereferenceable(8) %call7, ptr noundef nonnull @.str.66)
  br label %if.end

if.end:                                           ; preds = %if.then5, %if.then
  %call9 = tail call noundef nonnull align 8 dereferenceable(8) ptr @_ZStlsISt11char_traitsIcEERSt13basic_ostreamIcT_ES5_PKc(ptr noundef nonnull align 8 dereferenceable(8) %what, ptr noundef nonnull @.str.67)
  tail call void @_ZNK7testing8internal14FunctionMockerIFliEE23DescribeDefaultActionToERKSt5tupleIJiEEPSo(ptr noundef nonnull align 8 dereferenceable(72) %mocker, ptr noundef nonnull align 4 dereferenceable(4) %args, ptr noundef nonnull %what)
  tail call void @_ZNK7testing8internal15ExpectationBase19DescribeCallCountToEPSo(ptr noundef nonnull align 8 dereferenceable(264) %this, ptr noundef %why)
  br label %return

if.end10:                                         ; preds = %entry
  tail call void @_ZN7testing8internal15ExpectationBase22RetireAllPreRequisitesEv(ptr noundef nonnull align 8 dereferenceable(264) %this)
  %retires_on_saturation_ = getelementptr inbounds %"class.testing::internal::ExpectationBase", ptr %this, i64 0, i32 13
  %4 = load i8, ptr %retires_on_saturation_, align 2
  %5 = and i8 %4, 1
  %tobool.not = icmp eq i8 %5, 0
  br i1 %tobool.not, label %if.end13, label %land.lhs.true

land.lhs.true:                                    ; preds = %if.end10
  tail call void @_ZNK7testing8internal9MutexBase10AssertHeldEv(ptr noundef nonnull align 8 dereferenceable(56) @_ZN7testing8internal13g_gmock_mutexE)
  %6 = load i32, ptr %call_count_.i, align 8
  %7 = load ptr, ptr %cardinality_.i.i, align 8
  %vtable.i.i17 = load ptr, ptr %7, align 8
  %vfn.i.i18 = getelementptr inbounds ptr, ptr %vtable.i.i17, i64 5
  %8 = load ptr, ptr %vfn.i.i18, align 8
  %call2.i.i19 = tail call noundef zeroext i1 %8(ptr noundef nonnull align 8 dereferenceable(8) %7, i32 noundef %6)
  br i1 %call2.i.i19, label %if.then12, label %if.end13

if.then12:                                        ; preds = %land.lhs.true
  tail call void @_ZNK7testing8internal9MutexBase10AssertHeldEv(ptr noundef nonnull align 8 dereferenceable(56) @_ZN7testing8internal13g_gmock_mutexE)
  %retired_.i = getelementptr inbounds %"class.testing::internal::ExpectationBase", ptr %this, i64 0, i32 9
  store i8 1, ptr %retired_.i, align 4
  br label %if.end13

if.end13:                                         ; preds = %if.then12, %land.lhs.true, %if.end10
  %call14 = tail call noundef nonnull align 8 dereferenceable(8) ptr @_ZStlsISt11char_traitsIcEERSt13basic_ostreamIcT_ES5_PKc(ptr noundef nonnull align 8 dereferenceable(8) %what, ptr noundef nonnull @.str.64)
  %call15 = tail call noundef zeroext i1 @_ZNKSt7__cxx1112basic_stringIcSt11char_traitsIcESaIcEE5emptyEv(ptr noundef nonnull align 8 dereferenceable(32) %description_.i) #21
  br i1 %call15, label %if.end20, label %if.then16

if.then16:                                        ; preds = %if.end13
  %call17 = tail call noundef nonnull align 8 dereferenceable(8) ptr @_ZStlsISt11char_traitsIcEERSt13basic_ostreamIcT_ES5_PKc(ptr noundef nonnull align 8 dereferenceable(8) %what, ptr noundef nonnull @.str.65)
  %call18 = tail call noundef nonnull align 8 dereferenceable(8) ptr @_ZStlsIcSt11char_traitsIcESaIcEERSt13basic_ostreamIT_T0_ES7_RKNSt7__cxx1112basic_stringIS4_S5_T1_EE(ptr noundef nonnull align 8 dereferenceable(8) %call17, ptr noundef nonnull align 8 dereferenceable(32) %description_.i)
  %call19 = tail call noundef nonnull align 8 dereferenceable(8) ptr @_ZStlsISt11char_traitsIcEERSt13basic_ostreamIcT_ES5_PKc(ptr noundef nonnull align 8 dereferenceable(8) %call18, ptr noundef nonnull @.str.66)
  br label %if.end20

if.end20:                                         ; preds = %if.then16, %if.end13
  %call21 = tail call noundef nonnull align 8 dereferenceable(8) ptr @_ZStlsISt11char_traitsIcEERSt13basic_ostreamIcT_ES5_PKc(ptr noundef nonnull align 8 dereferenceable(8) %what, ptr noundef nonnull @.str.68)
  %source_text_.i = getelementptr inbounds %"class.testing::internal::ExpectationBase", ptr %this, i64 0, i32 3
  %call.i = tail call noundef ptr @_ZNKSt7__cxx1112basic_stringIcSt11char_traitsIcESaIcEE5c_strEv(ptr noundef nonnull align 8 dereferenceable(32) %source_text_.i) #21
