; ModuleID = 'bench/abseil-cpp/original/zipf_distribution_test.cc.ll'
source_filename = "bench/abseil-cpp/original/zipf_distribution_test.cc.ll"
target datalayout = "e-m:e-p270:32:32-p271:32:32-p272:64:64-i64:64-i128:128-f80:128-n8:16:32:64-S128"
target triple = "x86_64-unknown-linux-gnu"

%"class.std::ios_base::Init" = type { i8 }
%"class.std::basic_ostream" = type { ptr, %"class.std::basic_ios" }
%"class.std::basic_ios" = type { %"class.std::ios_base", ptr, i8, i8, ptr, ptr, ptr, ptr }
%"class.std::ios_base" = type { ptr, i64, i64, i32, i32, i32, ptr, %"struct.std::ios_base::_Words", [8 x %"struct.std::ios_base::_Words"], i32, ptr, %"class.std::locale" }
%"struct.std::ios_base::_Words" = type { ptr, i64 }
%"class.std::locale" = type { ptr }
%"struct.testing::internal::MatcherBase<const int &>::VTable" = type { ptr, ptr, ptr, ptr }
%"struct.testing::internal::MatcherBase<const std::vector<int> &>::VTable" = type { ptr, ptr, ptr, ptr }
%"struct.std::_Vector_base<std::__cxx11::basic_string<char>, std::allocator<std::__cxx11::basic_string<char>>>::_Vector_impl_data" = type { ptr, ptr, ptr }
%"class.std::__cxx11::basic_string" = type { %"struct.std::__cxx11::basic_string<char>::_Alloc_hider", i64, %union.anon }
%"struct.std::__cxx11::basic_string<char>::_Alloc_hider" = type { ptr }
%union.anon = type { i64, [8 x i8] }
%struct._Guard = type { ptr }
%"class.std::allocator" = type { i8 }
%"class.testing::internal::GTestLog" = type { i32 }
%"struct.testing::internal::CodeLocation" = type <{ %"class.std::__cxx11::basic_string", i32, [4 x i8] }>
%"struct.std::_Vector_base<testing::internal::ParameterizedTestSuiteInfoBase *, std::allocator<testing::internal::ParameterizedTestSuiteInfoBase *>>::_Vector_impl_data" = type { ptr, ptr, ptr }
%"class.testing::internal::ParameterizedTestSuiteInfo" = type { %"class.testing::internal::ParameterizedTestSuiteInfoBase", %"class.std::__cxx11::basic_string", %"struct.testing::internal::CodeLocation", %"class.std::vector.3", %"class.std::vector.8" }
%"class.testing::internal::ParameterizedTestSuiteInfoBase" = type { ptr }
%"class.std::vector.3" = type { %"struct.std::_Vector_base.4" }
%"struct.std::_Vector_base.4" = type { %"struct.std::_Vector_base<std::shared_ptr<testing::internal::ParameterizedTestSuiteInfo<(anonymous namespace)::ZipfTest>::TestInfo>, std::allocator<std::shared_ptr<testing::internal::ParameterizedTestSuiteInfo<(anonymous namespace)::ZipfTest>::TestInfo>>>::_Vector_impl" }
%"struct.std::_Vector_base<std::shared_ptr<testing::internal::ParameterizedTestSuiteInfo<(anonymous namespace)::ZipfTest>::TestInfo>, std::allocator<std::shared_ptr<testing::internal::ParameterizedTestSuiteInfo<(anonymous namespace)::ZipfTest>::TestInfo>>>::_Vector_impl" = type { %"struct.std::_Vector_base<std::shared_ptr<testing::internal::ParameterizedTestSuiteInfo<(anonymous namespace)::ZipfTest>::TestInfo>, std::allocator<std::shared_ptr<testing::internal::ParameterizedTestSuiteInfo<(anonymous namespace)::ZipfTest>::TestInfo>>>::_Vector_impl_data" }
%"struct.std::_Vector_base<std::shared_ptr<testing::internal::ParameterizedTestSuiteInfo<(anonymous namespace)::ZipfTest>::TestInfo>, std::allocator<std::shared_ptr<testing::internal::ParameterizedTestSuiteInfo<(anonymous namespace)::ZipfTest>::TestInfo>>>::_Vector_impl_data" = type { ptr, ptr, ptr }
%"class.std::vector.8" = type { %"struct.std::_Vector_base.9" }
%"struct.std::_Vector_base.9" = type { %"struct.std::_Vector_base<testing::internal::ParameterizedTestSuiteInfo<(anonymous namespace)::ZipfTest>::InstantiationInfo, std::allocator<testing::internal::ParameterizedTestSuiteInfo<(anonymous namespace)::ZipfTest>::InstantiationInfo>>::_Vector_impl" }
%"struct.std::_Vector_base<testing::internal::ParameterizedTestSuiteInfo<(anonymous namespace)::ZipfTest>::InstantiationInfo, std::allocator<testing::internal::ParameterizedTestSuiteInfo<(anonymous namespace)::ZipfTest>::InstantiationInfo>>::_Vector_impl" = type { %"struct.std::_Vector_base<testing::internal::ParameterizedTestSuiteInfo<(anonymous namespace)::ZipfTest>::InstantiationInfo, std::allocator<testing::internal::ParameterizedTestSuiteInfo<(anonymous namespace)::ZipfTest>::InstantiationInfo>>::_Vector_impl_data" }
%"struct.std::_Vector_base<testing::internal::ParameterizedTestSuiteInfo<(anonymous namespace)::ZipfTest>::InstantiationInfo, std::allocator<testing::internal::ParameterizedTestSuiteInfo<(anonymous namespace)::ZipfTest>::InstantiationInfo>>::_Vector_impl_data" = type { ptr, ptr, ptr }
%"class.testing::internal::ParamGenerator" = type { %"class.std::shared_ptr" }
%"class.std::shared_ptr" = type { %"class.std::__shared_ptr" }
%"class.std::__shared_ptr" = type { ptr, %"class.std::__shared_count" }
%"class.std::__shared_count" = type { ptr }
%"class.std::vector.80" = type { %"struct.std::_Vector_base.81" }
%"struct.std::_Vector_base.81" = type { %"struct.std::_Vector_base<absl::zipf_distribution<unsigned long>::param_type, std::allocator<absl::zipf_distribution<unsigned long>::param_type>>::_Vector_impl" }
%"struct.std::_Vector_base<absl::zipf_distribution<unsigned long>::param_type, std::allocator<absl::zipf_distribution<unsigned long>::param_type>>::_Vector_impl" = type { %"struct.std::_Vector_base<absl::zipf_distribution<unsigned long>::param_type, std::allocator<absl::zipf_distribution<unsigned long>::param_type>>::_Vector_impl_data" }
%"struct.std::_Vector_base<absl::zipf_distribution<unsigned long>::param_type, std::allocator<absl::zipf_distribution<unsigned long>::param_type>>::_Vector_impl_data" = type { ptr, ptr, ptr }
%"class.std::_Sp_counted_base" = type { ptr, i32, i32 }
%"struct.testing::internal::ParameterizedTestSuiteInfo<(anonymous namespace)::ZipfTest>::TestInfo" = type { %"class.std::__cxx11::basic_string", %"class.std::__cxx11::basic_string", %"class.std::unique_ptr", %"struct.testing::internal::CodeLocation" }
%"class.std::unique_ptr" = type { %"struct.std::__uniq_ptr_data" }
%"struct.std::__uniq_ptr_data" = type { %"class.std::__uniq_ptr_impl" }
%"class.std::__uniq_ptr_impl" = type { %"class.std::tuple" }
%"class.std::tuple" = type { %"struct.std::_Tuple_impl" }
%"struct.std::_Tuple_impl" = type { %"struct.std::_Head_base.23" }
%"struct.std::_Head_base.23" = type { ptr }
%"class.std::_Sp_counted_ptr" = type { %"class.std::_Sp_counted_base", ptr }
%"class.absl::zipf_distribution<unsigned long>::param_type" = type { i64, double, double, double, double, double, double, double }
%"class.testing::internal::ParameterizedTestFactory" = type { %"class.testing::internal::TestFactoryBase", %"class.absl::zipf_distribution<unsigned long>::param_type" }
%"class.testing::internal::TestFactoryBase" = type { ptr }
%"class.(anonymous namespace)::ZipfTest" = type { %"class.testing::TestWithParam", %"class.(anonymous namespace)::ZipfModel", [8 x i8], %"class.absl::random_internal::pcg_engine" }
%"class.testing::TestWithParam" = type { %"class.testing::Test", %"class.testing::WithParamInterface" }
%"class.testing::Test" = type { ptr, %"class.std::unique_ptr.24" }
%"class.std::unique_ptr.24" = type { %"struct.std::__uniq_ptr_data.25" }
%"struct.std::__uniq_ptr_data.25" = type { %"class.std::__uniq_ptr_impl.26" }
%"class.std::__uniq_ptr_impl.26" = type { %"class.std::tuple.27" }
%"class.std::tuple.27" = type { %"struct.std::_Tuple_impl.28" }
%"struct.std::_Tuple_impl.28" = type { %"struct.std::_Head_base.31" }
%"struct.std::_Head_base.31" = type { ptr }
%"class.testing::WithParamInterface" = type { ptr }
%"class.(anonymous namespace)::ZipfModel" = type { i64, double, double, double, %"class.std::vector.32", double }
%"class.std::vector.32" = type { %"struct.std::_Vector_base.33" }
%"struct.std::_Vector_base.33" = type { %"struct.std::_Vector_base<double, std::allocator<double>>::_Vector_impl" }
%"struct.std::_Vector_base<double, std::allocator<double>>::_Vector_impl" = type { %"struct.std::_Vector_base<double, std::allocator<double>>::_Vector_impl_data" }
%"struct.std::_Vector_base<double, std::allocator<double>>::_Vector_impl_data" = type { ptr, ptr, ptr }
%"class.absl::random_internal::pcg_engine" = type { %"class.absl::uint128" }
%"class.absl::uint128" = type { i64, i64 }
%"class.testing::AssertionResult" = type { i8, %"class.std::unique_ptr.42" }
%"class.std::unique_ptr.42" = type { %"struct.std::__uniq_ptr_data.43" }
%"struct.std::__uniq_ptr_data.43" = type { %"class.std::__uniq_ptr_impl.44" }
%"class.std::__uniq_ptr_impl.44" = type { %"class.std::tuple.45" }
%"class.std::tuple.45" = type { %"struct.std::_Tuple_impl.46" }
%"struct.std::_Tuple_impl.46" = type { %"struct.std::_Head_base.49" }
%"struct.std::_Head_base.49" = type { ptr }
%"class.testing::Message" = type { %"class.std::unique_ptr.50" }
%"class.std::unique_ptr.50" = type { %"struct.std::__uniq_ptr_data.51" }
%"struct.std::__uniq_ptr_data.51" = type { %"class.std::__uniq_ptr_impl.52" }
%"class.std::__uniq_ptr_impl.52" = type { %"class.std::tuple.53" }
%"class.std::tuple.53" = type { %"struct.std::_Tuple_impl.54" }
%"struct.std::_Tuple_impl.54" = type { %"struct.std::_Head_base.57" }
%"struct.std::_Head_base.57" = type { ptr }
%"class.testing::internal::AssertHelper" = type { ptr }
%"class.absl::zipf_distribution" = type { %"class.absl::zipf_distribution<unsigned long>::param_type" }
%"class.absl::log_internal::LogMessage" = type { %"class.absl::base_internal::ErrnoSaver", %"class.std::unique_ptr.66" }
%"class.absl::base_internal::ErrnoSaver" = type { i32 }
%"class.std::unique_ptr.66" = type { %"struct.std::__uniq_ptr_data.67" }
%"struct.std::__uniq_ptr_data.67" = type { %"class.std::__uniq_ptr_impl.68" }
%"class.std::__uniq_ptr_impl.68" = type { %"class.std::tuple.69" }
%"class.std::tuple.69" = type { %"struct.std::_Tuple_impl.70" }
%"struct.std::_Tuple_impl.70" = type { %"struct.std::_Head_base.73" }
%"struct.std::_Head_base.73" = type { ptr }
%"class.std::__cxx11::basic_stringstream" = type { %"class.std::basic_iostream.base", %"class.std::__cxx11::basic_stringbuf", %"class.std::basic_ios" }
%"class.std::basic_iostream.base" = type { %"class.std::basic_istream.base", %"class.std::basic_ostream.base" }
%"class.std::basic_istream.base" = type { ptr, i64 }
%"class.std::basic_ostream.base" = type { ptr }
%"class.std::__cxx11::basic_stringbuf" = type { %"class.std::basic_streambuf", i32, %"class.std::__cxx11::basic_string" }
%"class.std::basic_streambuf" = type { ptr, ptr, ptr, ptr, ptr, ptr, ptr, %"class.std::locale" }
%"class.testing::internal::ValuesInIteratorRangeGenerator" = type { %"class.testing::internal::ParamGeneratorInterface", %"class.std::vector.80" }
%"class.testing::internal::ParamGeneratorInterface" = type { ptr }
%"class.std::_Sp_counted_ptr.96" = type { %"class.std::_Sp_counted_base", ptr }
%"class.testing::internal::ValuesInIteratorRangeGenerator<absl::zipf_distribution<unsigned long>::param_type>::Iterator" = type { %"class.testing::internal::ParamIteratorInterface", ptr, %"class.__gnu_cxx::__normal_iterator.85", %"class.std::unique_ptr.86" }
%"class.testing::internal::ParamIteratorInterface" = type { ptr }
%"class.__gnu_cxx::__normal_iterator.85" = type { ptr }
%"class.std::unique_ptr.86" = type { %"struct.std::__uniq_ptr_data.87" }
%"struct.std::__uniq_ptr_data.87" = type { %"class.std::__uniq_ptr_impl.88" }
%"class.std::__uniq_ptr_impl.88" = type { %"class.std::tuple.89" }
%"class.std::tuple.89" = type { %"struct.std::_Tuple_impl.90" }
%"struct.std::_Tuple_impl.90" = type { %"struct.std::_Head_base.93" }
%"struct.std::_Head_base.93" = type { ptr }
%"class.std::basic_string_view" = type { i64, ptr }
%"class.absl::AlphaNum" = type { %"class.std::basic_string_view", [32 x i8] }
%"struct.absl::strings_internal::AlphaNumBuffer" = type { %"struct.std::array", i64 }
%"struct.std::array" = type { [16 x i8] }
%"struct.std::pair.103" = type { %"class.std::basic_string_view", %"class.std::basic_string_view" }
%"class.absl::random_internal::sequence_urbg" = type { i64, %"class.std::vector.37" }
%"class.std::vector.37" = type { %"struct.std::_Vector_base.38" }
%"struct.std::_Vector_base.38" = type { %"struct.std::_Vector_base<unsigned long, std::allocator<unsigned long>>::_Vector_impl" }
%"struct.std::_Vector_base<unsigned long, std::allocator<unsigned long>>::_Vector_impl" = type { %"struct.std::_Vector_base<unsigned long, std::allocator<unsigned long>>::_Vector_impl_data" }
%"struct.std::_Vector_base<unsigned long, std::allocator<unsigned long>>::_Vector_impl_data" = type { ptr, ptr, ptr }
%"class.std::vector.107" = type { %"struct.std::_Vector_base.108" }
%"struct.std::_Vector_base.108" = type { %"struct.std::_Vector_base<int, std::allocator<int>>::_Vector_impl" }
%"struct.std::_Vector_base<int, std::allocator<int>>::_Vector_impl" = type { %"struct.std::_Vector_base<int, std::allocator<int>>::_Vector_impl_data" }
%"struct.std::_Vector_base<int, std::allocator<int>>::_Vector_impl_data" = type { ptr, ptr, ptr }
%"class.absl::zipf_distribution.112" = type { %"class.absl::zipf_distribution<>::param_type" }
%"class.absl::zipf_distribution<>::param_type" = type { i32, double, double, double, double, double, double, double }
%"class.testing::internal::PredicateFormatterFromMatcher" = type { %"class.testing::internal::ElementsAreMatcher" }
%"class.testing::internal::ElementsAreMatcher" = type { %"class.std::tuple.114" }
%"class.std::tuple.114" = type { %"struct.std::_Tuple_impl.115" }
%"struct.std::_Tuple_impl.115" = type { %"struct.std::_Tuple_impl.116", %"struct.std::_Head_base.134" }
%"struct.std::_Tuple_impl.116" = type { %"struct.std::_Tuple_impl.117", %"struct.std::_Head_base.133" }
%"struct.std::_Tuple_impl.117" = type { %"struct.std::_Tuple_impl.118", %"struct.std::_Head_base.132" }
%"struct.std::_Tuple_impl.118" = type { %"struct.std::_Tuple_impl.119", %"struct.std::_Head_base.131" }
%"struct.std::_Tuple_impl.119" = type { %"struct.std::_Tuple_impl.120", %"struct.std::_Head_base.130" }
%"struct.std::_Tuple_impl.120" = type { %"struct.std::_Tuple_impl.121", %"struct.std::_Head_base.129" }
%"struct.std::_Tuple_impl.121" = type { %"struct.std::_Tuple_impl.122", %"struct.std::_Head_base.128" }
%"struct.std::_Tuple_impl.122" = type { %"struct.std::_Tuple_impl.123", %"struct.std::_Head_base.127" }
%"struct.std::_Tuple_impl.123" = type { %"struct.std::_Tuple_impl.124", %"struct.std::_Head_base.126" }
%"struct.std::_Tuple_impl.124" = type { %"struct.std::_Head_base.125" }
%"struct.std::_Head_base.125" = type { i32 }
%"struct.std::_Head_base.126" = type { i32 }
%"struct.std::_Head_base.127" = type { i32 }
%"struct.std::_Head_base.128" = type { i32 }
%"struct.std::_Head_base.129" = type { i32 }
%"struct.std::_Head_base.130" = type { i32 }
%"struct.std::_Head_base.131" = type { i32 }
%"struct.std::_Head_base.132" = type { i32 }
%"struct.std::_Head_base.133" = type { i32 }
%"struct.std::_Head_base.134" = type { i32 }
%"class.testing::internal::DummyMatchResultListener" = type { %"class.testing::MatchResultListener" }
%"class.testing::MatchResultListener" = type { ptr, ptr }
%"class.testing::Matcher" = type { %"class.testing::internal::MatcherBase" }
%"class.testing::internal::MatcherBase" = type { %"class.testing::MatcherDescriberInterface", ptr, %"union.testing::internal::MatcherBase<const std::vector<int> &>::Buffer" }
%"class.testing::MatcherDescriberInterface" = type { ptr }
%"union.testing::internal::MatcherBase<const std::vector<int> &>::Buffer" = type { ptr }
%"class.testing::StringMatchResultListener" = type { %"class.testing::MatchResultListener", %"class.std::__cxx11::basic_stringstream" }
%"struct.testing::internal::TransformTupleValuesHelper<std::tuple<int, int, int, int, int, int, int, int, int, int>, testing::internal::CastAndAppendTransform<const int &>, std::back_insert_iterator<std::vector<testing::Matcher<const int &>>>>::IterateOverTuple" = type { i8 }
%"class.std::vector.138" = type { %"struct.std::_Vector_base.139" }
%"struct.std::_Vector_base.139" = type { %"struct.std::_Vector_base<testing::Matcher<const int &>, std::allocator<testing::Matcher<const int &>>>::_Vector_impl" }
%"struct.std::_Vector_base<testing::Matcher<const int &>, std::allocator<testing::Matcher<const int &>>>::_Vector_impl" = type { %"struct.std::_Vector_base<testing::Matcher<const int &>, std::allocator<testing::Matcher<const int &>>>::_Vector_impl_data" }
%"struct.std::_Vector_base<testing::Matcher<const int &>, std::allocator<testing::Matcher<const int &>>>::_Vector_impl_data" = type { ptr, ptr, ptr }
%"class.testing::Matcher.144" = type { %"class.testing::internal::MatcherBase.145" }
%"class.testing::internal::MatcherBase.145" = type { %"class.testing::MatcherDescriberInterface", ptr, %"union.testing::internal::MatcherBase<const int &>::Buffer" }
%"union.testing::internal::MatcherBase<const int &>::Buffer" = type { ptr }
%"struct.testing::internal::SharedPayload" = type { %"struct.testing::internal::SharedPayloadBase", %"class.std::unique_ptr.164" }
%"struct.testing::internal::SharedPayloadBase" = type { %"struct.std::atomic" }
%"struct.std::atomic" = type { %"struct.std::__atomic_base" }
%"struct.std::__atomic_base" = type { i32 }
%"class.std::unique_ptr.164" = type { %"struct.std::__uniq_ptr_data.165" }
%"struct.std::__uniq_ptr_data.165" = type { %"class.std::__uniq_ptr_impl.166" }
%"class.std::__uniq_ptr_impl.166" = type { %"class.std::tuple.167" }
%"class.std::tuple.167" = type { %"struct.std::_Tuple_impl.168" }
%"struct.std::_Tuple_impl.168" = type { %"struct.std::_Head_base.171" }
%"struct.std::_Head_base.171" = type { ptr }
%"class.testing::internal::ElementsAreMatcherImpl" = type { %"class.testing::MatcherInterface", %"class.std::vector.138" }
%"class.testing::MatcherInterface" = type { %"class.testing::MatcherDescriberInterface" }
%"struct.testing::internal::TransformTupleValuesHelper<std::tuple<int, int, int, int, int, int, int, int, int, int>, testing::internal::CastAndAppendTransform<const int &>, std::back_insert_iterator<std::vector<testing::Matcher<const int &>>>>::IterateOverTuple.146" = type { i8 }
%"struct.testing::internal::TransformTupleValuesHelper<std::tuple<int, int, int, int, int, int, int, int, int, int>, testing::internal::CastAndAppendTransform<const int &>, std::back_insert_iterator<std::vector<testing::Matcher<const int &>>>>::IterateOverTuple.154" = type { i8 }
%"struct.testing::internal::TransformTupleValuesHelper<std::tuple<int, int, int, int, int, int, int, int, int, int>, testing::internal::CastAndAppendTransform<const int &>, std::back_insert_iterator<std::vector<testing::Matcher<const int &>>>>::IterateOverTuple.155" = type { i8 }
%"struct.testing::internal::TransformTupleValuesHelper<std::tuple<int, int, int, int, int, int, int, int, int, int>, testing::internal::CastAndAppendTransform<const int &>, std::back_insert_iterator<std::vector<testing::Matcher<const int &>>>>::IterateOverTuple.156" = type { i8 }
%"struct.testing::internal::TransformTupleValuesHelper<std::tuple<int, int, int, int, int, int, int, int, int, int>, testing::internal::CastAndAppendTransform<const int &>, std::back_insert_iterator<std::vector<testing::Matcher<const int &>>>>::IterateOverTuple.157" = type { i8 }
%"struct.testing::internal::TransformTupleValuesHelper<std::tuple<int, int, int, int, int, int, int, int, int, int>, testing::internal::CastAndAppendTransform<const int &>, std::back_insert_iterator<std::vector<testing::Matcher<const int &>>>>::IterateOverTuple.158" = type { i8 }
%"struct.testing::internal::TransformTupleValuesHelper<std::tuple<int, int, int, int, int, int, int, int, int, int>, testing::internal::CastAndAppendTransform<const int &>, std::back_insert_iterator<std::vector<testing::Matcher<const int &>>>>::IterateOverTuple.159" = type { i8 }
%"struct.testing::internal::TransformTupleValuesHelper<std::tuple<int, int, int, int, int, int, int, int, int, int>, testing::internal::CastAndAppendTransform<const int &>, std::back_insert_iterator<std::vector<testing::Matcher<const int &>>>>::IterateOverTuple.160" = type { i8 }
%"class.std::vector" = type { %"struct.std::_Vector_base" }
%"struct.std::_Vector_base" = type { %"struct.std::_Vector_base<std::__cxx11::basic_string<char>, std::allocator<std::__cxx11::basic_string<char>>>::_Vector_impl" }
%"struct.std::_Vector_base<std::__cxx11::basic_string<char>, std::allocator<std::__cxx11::basic_string<char>>>::_Vector_impl" = type { %"struct.std::_Vector_base<std::__cxx11::basic_string<char>, std::allocator<std::__cxx11::basic_string<char>>>::_Vector_impl_data" }
%"class.std::type_info" = type { ptr, ptr }
%"struct.std::pair.179" = type <{ i64, i32, [4 x i8] }>
%"class.absl::random_internal::ostream_state_saver" = type { ptr, i32, i8, i64 }
%"class.absl::zipf_distribution<signed char>::param_type" = type { i8, double, double, double, double, double, double, double }
%"class.absl::zipf_distribution.189" = type { %"class.absl::zipf_distribution<signed char>::param_type" }
%"class.absl::zipf_distribution<short>::param_type" = type { i16, double, double, double, double, double, double, double }
%"class.absl::zipf_distribution.194" = type { %"class.absl::zipf_distribution<short>::param_type" }
%"class.absl::zipf_distribution<long>::param_type" = type { i64, double, double, double, double, double, double, double }
%"class.absl::zipf_distribution.199" = type { %"class.absl::zipf_distribution<long>::param_type" }
%"class.absl::zipf_distribution<unsigned char>::param_type" = type { i8, double, double, double, double, double, double, double }
%"class.absl::zipf_distribution.204" = type { %"class.absl::zipf_distribution<unsigned char>::param_type" }
%"class.absl::zipf_distribution<unsigned short>::param_type" = type { i16, double, double, double, double, double, double, double }
%"class.absl::zipf_distribution.209" = type { %"class.absl::zipf_distribution<unsigned short>::param_type" }
%"class.absl::zipf_distribution<unsigned int>::param_type" = type { i32, double, double, double, double, double, double, double }
%"class.absl::zipf_distribution.214" = type { %"class.absl::zipf_distribution<unsigned int>::param_type" }
%"struct.testing::internal::ParameterizedTestSuiteInfo<(anonymous namespace)::ZipfTest>::InstantiationInfo" = type <{ %"class.std::__cxx11::basic_string", ptr, ptr, ptr, i32, [4 x i8] }>
%"class.std::shared_ptr.19" = type { %"class.std::__shared_ptr.20" }
%"class.std::__shared_ptr.20" = type { ptr, %"class.std::__shared_count" }
%"class.std::set" = type { %"class.std::_Rb_tree" }
%"class.std::_Rb_tree" = type { %"struct.std::_Rb_tree<std::__cxx11::basic_string<char>, std::__cxx11::basic_string<char>, std::_Identity<std::__cxx11::basic_string<char>>, std::less<std::__cxx11::basic_string<char>>>::_Rb_tree_impl" }
%"struct.std::_Rb_tree<std::__cxx11::basic_string<char>, std::__cxx11::basic_string<char>, std::_Identity<std::__cxx11::basic_string<char>>, std::less<std::__cxx11::basic_string<char>>>::_Rb_tree_impl" = type { %"struct.std::_Rb_tree_key_compare", %"struct.std::_Rb_tree_header" }
%"struct.std::_Rb_tree_key_compare" = type { %"struct.std::less" }
%"struct.std::less" = type { i8 }
%"struct.std::_Rb_tree_header" = type { %"struct.std::_Rb_tree_node_base", i64 }
%"struct.std::_Rb_tree_node_base" = type { i32, ptr, ptr, ptr }
%"struct.testing::TestParamInfo" = type { %"class.absl::zipf_distribution<unsigned long>::param_type", i64 }
%"struct.std::_Rb_tree_node" = type { %"struct.std::_Rb_tree_node_base", %"struct.__gnu_cxx::__aligned_membuf" }
%"struct.__gnu_cxx::__aligned_membuf" = type { [32 x i8] }

$_ZNSt6vectorINSt7__cxx1112basic_stringIcSt11char_traitsIcESaIcEEESaIS5_EED2Ev = comdat any

$_ZN7testing8internal12CodeLocationD2Ev = comdat any

$_ZN7testing8internal16SuiteApiResolverINS_4TestEE19GetSetUpCaseOrSuiteEPKci = comdat any

$_ZN7testing8internal16SuiteApiResolverINS_4TestEE22GetTearDownCaseOrSuiteEPKci = comdat any

$__clang_call_terminate = comdat any

$_ZN7testing4Test5SetupEv = comdat any

$_ZN7testing18WithParamInterfaceIN4absl17zipf_distributionImE10param_typeEE8GetParamEv = comdat any

$_ZN7testing13TestWithParamIN4absl17zipf_distributionImE10param_typeEED2Ev = comdat any

$_ZN7testing13TestWithParamIN4absl17zipf_distributionImE10param_typeEED0Ev = comdat any

$_ZThn16_N7testing13TestWithParamIN4absl17zipf_distributionImE10param_typeEED1Ev = comdat any

$_ZThn16_N7testing13TestWithParamIN4absl17zipf_distributionImE10param_typeEED0Ev = comdat any

$_ZN7testing15AssertionResultD2Ev = comdat any

$_ZN7testing8internal18CmpHelperOpFailureImiEENS_15AssertionResultEPKcS4_RKT_RKT0_S4_ = comdat any

$_ZN7testing15AssertionResult13AppendMessageERKNS_7MessageE = comdat any

$_ZN4absl17zipf_distributionImEclINS_15random_internal10pcg_engineINS3_13pcg128_paramsILm2549297995355413924ELm4865540595714422341ELm6364136223846793005ELm1442695040888963407EEENS3_17pcg_xsl_rr_128_64EEEEEmRT_RKNS1_10param_typeE = comdat any

$_ZN7testing8internal18CmpHelperOpFailureImmEENS_15AssertionResultEPKcS4_RKT_RKT0_S4_ = comdat any

$_ZN7testing8ValuesInIN9__gnu_cxx17__normal_iteratorIPKN4absl17zipf_distributionImE10param_typeESt6vectorIS6_SaIS6_EEEEEENS_8internal14ParamGeneratorINSt15iterator_traitsIT_E10value_typeEEESG_SG_ = comdat any

$_ZN7testing8internal30ValuesInIteratorRangeGeneratorIN4absl17zipf_distributionImE10param_typeEED2Ev = comdat any

$_ZN7testing8internal30ValuesInIteratorRangeGeneratorIN4absl17zipf_distributionImE10param_typeEED0Ev = comdat any

$_ZNK7testing8internal30ValuesInIteratorRangeGeneratorIN4absl17zipf_distributionImE10param_typeEE5BeginEv = comdat any

$_ZNK7testing8internal30ValuesInIteratorRangeGeneratorIN4absl17zipf_distributionImE10param_typeEE3EndEv = comdat any

$_ZN7testing8internal30ValuesInIteratorRangeGeneratorIN4absl17zipf_distributionImE10param_typeEE8IteratorD2Ev = comdat any

$_ZN7testing8internal30ValuesInIteratorRangeGeneratorIN4absl17zipf_distributionImE10param_typeEE8IteratorD0Ev = comdat any

$_ZNK7testing8internal30ValuesInIteratorRangeGeneratorIN4absl17zipf_distributionImE10param_typeEE8Iterator13BaseGeneratorEv = comdat any

$_ZN7testing8internal30ValuesInIteratorRangeGeneratorIN4absl17zipf_distributionImE10param_typeEE8Iterator7AdvanceEv = comdat any

$_ZNK7testing8internal30ValuesInIteratorRangeGeneratorIN4absl17zipf_distributionImE10param_typeEE8Iterator5CloneEv = comdat any

$_ZNK7testing8internal30ValuesInIteratorRangeGeneratorIN4absl17zipf_distributionImE10param_typeEE8Iterator7CurrentEv = comdat any

$_ZNK7testing8internal30ValuesInIteratorRangeGeneratorIN4absl17zipf_distributionImE10param_typeEE8Iterator6EqualsERKNS0_22ParamIteratorInterfaceIS5_EE = comdat any

$_ZNSt15_Sp_counted_ptrIPN7testing8internal23ParamGeneratorInterfaceIN4absl17zipf_distributionImE10param_typeEEELN9__gnu_cxx12_Lock_policyE2EED2Ev = comdat any

$_ZNSt15_Sp_counted_ptrIPN7testing8internal23ParamGeneratorInterfaceIN4absl17zipf_distributionImE10param_typeEEELN9__gnu_cxx12_Lock_policyE2EED0Ev = comdat any

$_ZNSt15_Sp_counted_ptrIPN7testing8internal23ParamGeneratorInterfaceIN4absl17zipf_distributionImE10param_typeEEELN9__gnu_cxx12_Lock_policyE2EE10_M_disposeEv = comdat any

$_ZNSt15_Sp_counted_ptrIPN7testing8internal23ParamGeneratorInterfaceIN4absl17zipf_distributionImE10param_typeEEELN9__gnu_cxx12_Lock_policyE2EE10_M_destroyEv = comdat any

$_ZNSt15_Sp_counted_ptrIPN7testing8internal23ParamGeneratorInterfaceIN4absl17zipf_distributionImE10param_typeEEELN9__gnu_cxx12_Lock_policyE2EE14_M_get_deleterERKSt9type_info = comdat any

$_ZN4absl17zipf_distributionImE10param_typeC2Emdd = comdat any

$_ZNK4absl17zipf_distributionImE10param_type9compute_sEv = comdat any

$_ZNK7testing8internal29PredicateFormatterFromMatcherINS0_18ElementsAreMatcherISt5tupleIJiiiiiiiiiiEEEEEclISt6vectorIiSaIiEEEENS_15AssertionResultEPKcRKT_ = comdat any

$_ZN4absl17zipf_distributionIiE10param_typeC2Eidd = comdat any

$_ZNK4absl17zipf_distributionIiE10param_type9compute_sEv = comdat any

$_ZN4absl17zipf_distributionIiEclINS_15random_internal13sequence_urbgEEEiRT_RKNS1_10param_typeE = comdat any

$_ZNK7testing8internal11MatcherBaseIRKSt6vectorIiSaIiEEE10DescribeToEPSo = comdat any

$_ZN7testing8internal20MatchPrintAndExplainIKSt6vectorIiSaIiEERS5_EEbRT_RKNS_7MatcherIT0_EEPNS_19MatchResultListenerE = comdat any

$_ZN7testing25StringMatchResultListenerD2Ev = comdat any

$_ZN7testing7MatcherIRKSt6vectorIiSaIiEEED2Ev = comdat any

$_ZNK7testing8internal18ElementsAreMatcherISt5tupleIJiiiiiiiiiiEEEcvNS_7MatcherIT_EEIRKSt6vectorIiSaIiEEEEv = comdat any

$_ZN7testing8internal22ElementsAreMatcherImplIRKSt6vectorIiSaIiEEEC2IN9__gnu_cxx17__normal_iteratorIPNS_7MatcherIRKiEES2_ISE_SaISE_EEEEEET_SJ_ = comdat any

$_ZNSt6vectorIN7testing7MatcherIRKiEESaIS4_EED2Ev = comdat any

$_ZN7testing7MatcherIRKiED2Ev = comdat any

$_ZN7testing7MatcherIRKiED0Ev = comdat any

$_ZNK7testing8internal11MatcherBaseIRKiE10DescribeToEPSo = comdat any

$_ZNK7testing8internal11MatcherBaseIRKiE18DescribeNegationToEPSo = comdat any

$_ZN7testing8internal11MatcherBaseIRKiED2Ev = comdat any

$_ZN7testing8internal11MatcherBaseIRKiED0Ev = comdat any

$_ZNK7testing8internal26TransformTupleValuesHelperISt5tupleIJiiiiiiiiiiEENS0_22CastAndAppendTransformIRKiEESt20back_insert_iteratorISt6vectorINS_7MatcherIS6_EESaISB_EEEE16IterateOverTupleIS3_Lm10EEclES7_RKS3_SE_ = comdat any

$_ZNK7testing8internal26TransformTupleValuesHelperISt5tupleIJiiiiiiiiiiEENS0_22CastAndAppendTransformIRKiEESt20back_insert_iteratorISt6vectorINS_7MatcherIS6_EESaISB_EEEE16IterateOverTupleIS3_Lm9EEclES7_RKS3_SE_ = comdat any

$_ZN7testing8internal11MatcherBaseIRKiE19MatchAndExplainImplINS4_11ValuePolicyINS0_9EqMatcherIiEELb1EEEEEDTcldtclsrT_3Getfp_E15MatchAndExplainfp0_clptfp1_6streamEEERKS4_S3_PNS_19MatchResultListenerE = comdat any

$_ZN7testing8internal11MatcherBaseIRKiE12DescribeImplINS4_11ValuePolicyINS0_9EqMatcherIiEELb1EEEEEvRKS4_PSob = comdat any

$_ZN7testing8internal11MatcherBaseIRKiE16GetDescriberImplINS4_11ValuePolicyINS0_9EqMatcherIiEELb1EEEEEPKNS_25MatcherDescriberInterfaceERKS4_ = comdat any

$_ZNSt6vectorIN7testing7MatcherIRKiEESaIS4_EE17_M_realloc_insertIJS4_EEEvN9__gnu_cxx17__normal_iteratorIPS4_S6_EEDpOT_ = comdat any

$_ZNK7testing8internal26TransformTupleValuesHelperISt5tupleIJiiiiiiiiiiEENS0_22CastAndAppendTransformIRKiEESt20back_insert_iteratorISt6vectorINS_7MatcherIS6_EESaISB_EEEE16IterateOverTupleIS3_Lm8EEclES7_RKS3_SE_ = comdat any

$_ZNK7testing8internal26TransformTupleValuesHelperISt5tupleIJiiiiiiiiiiEENS0_22CastAndAppendTransformIRKiEESt20back_insert_iteratorISt6vectorINS_7MatcherIS6_EESaISB_EEEE16IterateOverTupleIS3_Lm7EEclES7_RKS3_SE_ = comdat any

$_ZNK7testing8internal26TransformTupleValuesHelperISt5tupleIJiiiiiiiiiiEENS0_22CastAndAppendTransformIRKiEESt20back_insert_iteratorISt6vectorINS_7MatcherIS6_EESaISB_EEEE16IterateOverTupleIS3_Lm6EEclES7_RKS3_SE_ = comdat any

$_ZNK7testing8internal26TransformTupleValuesHelperISt5tupleIJiiiiiiiiiiEENS0_22CastAndAppendTransformIRKiEESt20back_insert_iteratorISt6vectorINS_7MatcherIS6_EESaISB_EEEE16IterateOverTupleIS3_Lm5EEclES7_RKS3_SE_ = comdat any

$_ZNK7testing8internal26TransformTupleValuesHelperISt5tupleIJiiiiiiiiiiEENS0_22CastAndAppendTransformIRKiEESt20back_insert_iteratorISt6vectorINS_7MatcherIS6_EESaISB_EEEE16IterateOverTupleIS3_Lm4EEclES7_RKS3_SE_ = comdat any

$_ZNK7testing8internal26TransformTupleValuesHelperISt5tupleIJiiiiiiiiiiEENS0_22CastAndAppendTransformIRKiEESt20back_insert_iteratorISt6vectorINS_7MatcherIS6_EESaISB_EEEE16IterateOverTupleIS3_Lm3EEclES7_RKS3_SE_ = comdat any

$_ZNK7testing8internal26TransformTupleValuesHelperISt5tupleIJiiiiiiiiiiEENS0_22CastAndAppendTransformIRKiEESt20back_insert_iteratorISt6vectorINS_7MatcherIS6_EESaISB_EEEE16IterateOverTupleIS3_Lm2EEclES7_RKS3_SE_ = comdat any

$_ZN7testing8internal22ElementsAreMatcherImplIRKSt6vectorIiSaIiEEED2Ev = comdat any

$_ZN7testing8internal22ElementsAreMatcherImplIRKSt6vectorIiSaIiEEED0Ev = comdat any

$_ZNK7testing8internal22ElementsAreMatcherImplIRKSt6vectorIiSaIiEEE10DescribeToEPSo = comdat any

$_ZNK7testing8internal22ElementsAreMatcherImplIRKSt6vectorIiSaIiEEE18DescribeNegationToEPSo = comdat any

$_ZNK7testing8internal22ElementsAreMatcherImplIRKSt6vectorIiSaIiEEE15MatchAndExplainES6_PNS_19MatchResultListenerE = comdat any

$_ZN7testing7MessageC2ERKS0_ = comdat any

$_ZN7testing8internal24DummyMatchResultListenerD2Ev = comdat any

$_ZN7testing8internal24DummyMatchResultListenerD0Ev = comdat any

$_ZN7testing7MatcherIRKSt6vectorIiSaIiEEED0Ev = comdat any

$_ZNK7testing8internal11MatcherBaseIRKSt6vectorIiSaIiEEE18DescribeNegationToEPSo = comdat any

$_ZN7testing8internal11MatcherBaseIRKSt6vectorIiSaIiEEED2Ev = comdat any

$_ZN7testing8internal11MatcherBaseIRKSt6vectorIiSaIiEEED0Ev = comdat any

$_ZN7testing8internal11MatcherBaseIRKSt6vectorIiSaIiEEE19MatchAndExplainImplINS7_11ValuePolicyIPKNS_16MatcherInterfaceIS6_EELb1EEEEEDTcldtclsrT_3Getfp_E15MatchAndExplainfp0_fp1_EERKS7_S6_PNS_19MatchResultListenerE = comdat any

$_ZN7testing8internal11MatcherBaseIRKSt6vectorIiSaIiEEE12DescribeImplINS7_11ValuePolicyIPKNS_16MatcherInterfaceIS6_EELb1EEEEEvRKS7_PSob = comdat any

$_ZN7testing8internal11MatcherBaseIRKSt6vectorIiSaIiEEE16GetDescriberImplINS7_11ValuePolicyIPKNS_16MatcherInterfaceIS6_EELb1EEEEEPKNS_25MatcherDescriberInterfaceERKS7_ = comdat any

$_ZN7testing8internal13SharedPayloadISt10unique_ptrIKNS_16MatcherInterfaceIRKSt6vectorIiSaIiEEEESt14default_deleteISA_EEE7DestroyEPNS0_17SharedPayloadBaseE = comdat any

$_ZN7testing25StringMatchResultListenerD0Ev = comdat any

$_ZN7testing8internal16ContainerPrinter10PrintValueISt6vectorIiSaIiEEvEEvRKT_PSo = comdat any

$_ZN7testing8internal11GetTypeNameB5cxx11ERKSt9type_info = comdat any

$_ZN7testing8internal31CanonicalizeForStdLibVersioningENSt7__cxx1112basic_stringIcSt11char_traitsIcESaIcEEE = comdat any

$_ZN7testing8internal18CmpHelperEQFailureIiiEENS_15AssertionResultEPKcS4_RKT_RKT0_ = comdat any

$_ZNSt7__cxx1112basic_stringIcSt11char_traitsIcESaIcEE12_M_constructIPKcEEvT_S8_St20forward_iterator_tag = comdat any

$_ZZNSt7__cxx1112basic_stringIcSt11char_traitsIcESaIcEE12_M_constructIPKcEEvT_S8_St20forward_iterator_tagEN6_GuardD2Ev = comdat any

$_ZN7testing8internal19GetPrefixUntilCommaB5cxx11EPKc = comdat any

$_ZN4absllsIcSt11char_traitsIcEiEERSt13basic_ostreamIT_T0_ES7_RKNS_17zipf_distributionIT1_EE = comdat any

$_ZN4abslrsIcSt11char_traitsIcEiEERSt13basic_istreamIT_T0_ES7_RNS_17zipf_distributionIT1_EE = comdat any

$_ZN7testing8internal18CmpHelperEQFailureIddEENS_15AssertionResultEPKcS4_RKT_RKT0_ = comdat any

$_ZN7testing8internal7PrintToEdPSo = comdat any

$_ZN7testing8internal18CmpHelperEQFailureIN4absl17zipf_distributionIiEES4_EENS_15AssertionResultEPKcS7_RKT_RKT0_ = comdat any

$_ZN4absl15random_internal19ostream_state_saverISoED2Ev = comdat any

$_ZN7testing8internal18CmpHelperOpFailureIiiEENS_15AssertionResultEPKcS4_RKT_RKT0_S4_ = comdat any

$_ZN7testing8internal18CmpHelperOpFailureIddEENS_15AssertionResultEPKcS4_RKT_RKT0_S4_ = comdat any

$_ZN7testing8internal18CmpHelperOpFailureIN4absl17zipf_distributionIiE10param_typeES5_EENS_15AssertionResultEPKcS8_RKT_RKT0_S8_ = comdat any

$_ZN7testing8internal18CmpHelperOpFailureIN4absl17zipf_distributionIiEES4_EENS_15AssertionResultEPKcS7_RKT_RKT0_S7_ = comdat any

$_ZN7testing8internal18CmpHelperEQFailureIN4absl17zipf_distributionIiE10param_typeES5_EENS_15AssertionResultEPKcS8_RKT_RKT0_ = comdat any

$_ZN4absl17zipf_distributionIaE10param_typeC2Eadd = comdat any

$_ZN4absllsIcSt11char_traitsIcEaEERSt13basic_ostreamIT_T0_ES7_RKNS_17zipf_distributionIT1_EE = comdat any

$_ZN4abslrsIcSt11char_traitsIcEaEERSt13basic_istreamIT_T0_ES7_RNS_17zipf_distributionIT1_EE = comdat any

$_ZNK4absl17zipf_distributionIaE10param_type9compute_sEv = comdat any

$_ZN7testing8internal18CmpHelperEQFailureIaaEENS_15AssertionResultEPKcS4_RKT_RKT0_ = comdat any

$_ZN7testing8internal18CmpHelperEQFailureIN4absl17zipf_distributionIaEES4_EENS_15AssertionResultEPKcS7_RKT_RKT0_ = comdat any

$_ZN7testing8internal18CmpHelperOpFailureIaaEENS_15AssertionResultEPKcS4_RKT_RKT0_S4_ = comdat any

$_ZN7testing8internal18CmpHelperOpFailureIN4absl17zipf_distributionIaE10param_typeES5_EENS_15AssertionResultEPKcS8_RKT_RKT0_S8_ = comdat any

$_ZN7testing8internal18CmpHelperOpFailureIN4absl17zipf_distributionIaEES4_EENS_15AssertionResultEPKcS7_RKT_RKT0_S7_ = comdat any

$_ZN7testing8internal18CmpHelperEQFailureIN4absl17zipf_distributionIaE10param_typeES5_EENS_15AssertionResultEPKcS8_RKT_RKT0_ = comdat any

$_ZN4absl17zipf_distributionIsE10param_typeC2Esdd = comdat any

$_ZN4absllsIcSt11char_traitsIcEsEERSt13basic_ostreamIT_T0_ES7_RKNS_17zipf_distributionIT1_EE = comdat any

$_ZN4abslrsIcSt11char_traitsIcEsEERSt13basic_istreamIT_T0_ES7_RNS_17zipf_distributionIT1_EE = comdat any

$_ZNK4absl17zipf_distributionIsE10param_type9compute_sEv = comdat any

$_ZN7testing8internal18CmpHelperEQFailureIssEENS_15AssertionResultEPKcS4_RKT_RKT0_ = comdat any

$_ZN7testing8internal18CmpHelperEQFailureIN4absl17zipf_distributionIsEES4_EENS_15AssertionResultEPKcS7_RKT_RKT0_ = comdat any

$_ZN7testing8internal18CmpHelperOpFailureIssEENS_15AssertionResultEPKcS4_RKT_RKT0_S4_ = comdat any

$_ZN7testing8internal18CmpHelperOpFailureIN4absl17zipf_distributionIsE10param_typeES5_EENS_15AssertionResultEPKcS8_RKT_RKT0_S8_ = comdat any

$_ZN7testing8internal18CmpHelperOpFailureIN4absl17zipf_distributionIsEES4_EENS_15AssertionResultEPKcS7_RKT_RKT0_S7_ = comdat any

$_ZN7testing8internal18CmpHelperEQFailureIN4absl17zipf_distributionIsE10param_typeES5_EENS_15AssertionResultEPKcS8_RKT_RKT0_ = comdat any

$_ZN4absl17zipf_distributionIlE10param_typeC2Eldd = comdat any

$_ZN4absllsIcSt11char_traitsIcElEERSt13basic_ostreamIT_T0_ES7_RKNS_17zipf_distributionIT1_EE = comdat any

$_ZN4abslrsIcSt11char_traitsIcElEERSt13basic_istreamIT_T0_ES7_RNS_17zipf_distributionIT1_EE = comdat any

$_ZNK4absl17zipf_distributionIlE10param_type9compute_sEv = comdat any

$_ZN7testing8internal18CmpHelperEQFailureIllEENS_15AssertionResultEPKcS4_RKT_RKT0_ = comdat any

$_ZN7testing8internal18CmpHelperEQFailureIN4absl17zipf_distributionIlEES4_EENS_15AssertionResultEPKcS7_RKT_RKT0_ = comdat any

$_ZN7testing8internal18CmpHelperOpFailureIllEENS_15AssertionResultEPKcS4_RKT_RKT0_S4_ = comdat any

$_ZN7testing8internal18CmpHelperOpFailureIN4absl17zipf_distributionIlE10param_typeES5_EENS_15AssertionResultEPKcS8_RKT_RKT0_S8_ = comdat any

$_ZN7testing8internal18CmpHelperOpFailureIN4absl17zipf_distributionIlEES4_EENS_15AssertionResultEPKcS7_RKT_RKT0_S7_ = comdat any

$_ZN7testing8internal18CmpHelperEQFailureIN4absl17zipf_distributionIlE10param_typeES5_EENS_15AssertionResultEPKcS8_RKT_RKT0_ = comdat any

$_ZN4absl17zipf_distributionIhE10param_typeC2Ehdd = comdat any

$_ZN4absllsIcSt11char_traitsIcEhEERSt13basic_ostreamIT_T0_ES7_RKNS_17zipf_distributionIT1_EE = comdat any

$_ZN4abslrsIcSt11char_traitsIcEhEERSt13basic_istreamIT_T0_ES7_RNS_17zipf_distributionIT1_EE = comdat any

$_ZNK4absl17zipf_distributionIhE10param_type9compute_sEv = comdat any

$_ZN7testing8internal18CmpHelperEQFailureIhhEENS_15AssertionResultEPKcS4_RKT_RKT0_ = comdat any

$_ZN7testing8internal18CmpHelperEQFailureIN4absl17zipf_distributionIhEES4_EENS_15AssertionResultEPKcS7_RKT_RKT0_ = comdat any

$_ZN7testing8internal18CmpHelperOpFailureIhhEENS_15AssertionResultEPKcS4_RKT_RKT0_S4_ = comdat any

$_ZN7testing8internal18CmpHelperOpFailureIN4absl17zipf_distributionIhE10param_typeES5_EENS_15AssertionResultEPKcS8_RKT_RKT0_S8_ = comdat any

$_ZN7testing8internal18CmpHelperOpFailureIN4absl17zipf_distributionIhEES4_EENS_15AssertionResultEPKcS7_RKT_RKT0_S7_ = comdat any

$_ZN7testing8internal18CmpHelperEQFailureIN4absl17zipf_distributionIhE10param_typeES5_EENS_15AssertionResultEPKcS8_RKT_RKT0_ = comdat any

$_ZN4absl17zipf_distributionItE10param_typeC2Etdd = comdat any

$_ZN4absllsIcSt11char_traitsIcEtEERSt13basic_ostreamIT_T0_ES7_RKNS_17zipf_distributionIT1_EE = comdat any

$_ZN4abslrsIcSt11char_traitsIcEtEERSt13basic_istreamIT_T0_ES7_RNS_17zipf_distributionIT1_EE = comdat any

$_ZNK4absl17zipf_distributionItE10param_type9compute_sEv = comdat any

$_ZN7testing8internal18CmpHelperEQFailureIttEENS_15AssertionResultEPKcS4_RKT_RKT0_ = comdat any

$_ZN7testing8internal18CmpHelperEQFailureIN4absl17zipf_distributionItEES4_EENS_15AssertionResultEPKcS7_RKT_RKT0_ = comdat any

$_ZN7testing8internal18CmpHelperOpFailureIttEENS_15AssertionResultEPKcS4_RKT_RKT0_S4_ = comdat any

$_ZN7testing8internal18CmpHelperOpFailureIN4absl17zipf_distributionItE10param_typeES5_EENS_15AssertionResultEPKcS8_RKT_RKT0_S8_ = comdat any

$_ZN7testing8internal18CmpHelperOpFailureIN4absl17zipf_distributionItEES4_EENS_15AssertionResultEPKcS7_RKT_RKT0_S7_ = comdat any

$_ZN7testing8internal18CmpHelperEQFailureIN4absl17zipf_distributionItE10param_typeES5_EENS_15AssertionResultEPKcS8_RKT_RKT0_ = comdat any

$_ZN4absl17zipf_distributionIjE10param_typeC2Ejdd = comdat any

$_ZN4absllsIcSt11char_traitsIcEjEERSt13basic_ostreamIT_T0_ES7_RKNS_17zipf_distributionIT1_EE = comdat any

$_ZN4abslrsIcSt11char_traitsIcEjEERSt13basic_istreamIT_T0_ES7_RNS_17zipf_distributionIT1_EE = comdat any

$_ZNK4absl17zipf_distributionIjE10param_type9compute_sEv = comdat any

$_ZN7testing8internal18CmpHelperEQFailureIjjEENS_15AssertionResultEPKcS4_RKT_RKT0_ = comdat any

$_ZN7testing8internal18CmpHelperEQFailureIN4absl17zipf_distributionIjEES4_EENS_15AssertionResultEPKcS7_RKT_RKT0_ = comdat any

$_ZN7testing8internal18CmpHelperOpFailureIjjEENS_15AssertionResultEPKcS4_RKT_RKT0_S4_ = comdat any

$_ZN7testing8internal18CmpHelperOpFailureIN4absl17zipf_distributionIjE10param_typeES5_EENS_15AssertionResultEPKcS8_RKT_RKT0_S8_ = comdat any

$_ZN7testing8internal18CmpHelperOpFailureIN4absl17zipf_distributionIjEES4_EENS_15AssertionResultEPKcS7_RKT_RKT0_S7_ = comdat any

$_ZN7testing8internal18CmpHelperEQFailureIN4absl17zipf_distributionIjE10param_typeES5_EENS_15AssertionResultEPKcS8_RKT_RKT0_ = comdat any

$_ZN4absllsIcSt11char_traitsIcEmEERSt13basic_ostreamIT_T0_ES7_RKNS_17zipf_distributionIT1_EE = comdat any

$_ZN4abslrsIcSt11char_traitsIcEmEERSt13basic_istreamIT_T0_ES7_RNS_17zipf_distributionIT1_EE = comdat any

$_ZN7testing8internal18CmpHelperEQFailureImmEENS_15AssertionResultEPKcS4_RKT_RKT0_ = comdat any

$_ZN7testing8internal18CmpHelperEQFailureIN4absl17zipf_distributionImEES4_EENS_15AssertionResultEPKcS7_RKT_RKT0_ = comdat any

$_ZN7testing8internal18CmpHelperOpFailureIN4absl17zipf_distributionImE10param_typeES5_EENS_15AssertionResultEPKcS8_RKT_RKT0_S8_ = comdat any

$_ZN7testing8internal18CmpHelperOpFailureIN4absl17zipf_distributionImEES4_EENS_15AssertionResultEPKcS7_RKT_RKT0_S7_ = comdat any

$_ZN7testing8internal18CmpHelperEQFailureIN4absl17zipf_distributionImE10param_typeES5_EENS_15AssertionResultEPKcS8_RKT_RKT0_ = comdat any

$_ZN7testing8internal24GenerateNamesRecursivelyINS0_20DefaultNameGeneratorENS0_5TypesIiJasilhtjmEEEEEvT0_PSt6vectorINSt7__cxx1112basic_stringIcSt11char_traitsIcESaIcEEESaISC_EEi = comdat any

$_ZN7testing8internal24GenerateNamesRecursivelyINS0_20DefaultNameGeneratorENS0_5TypesIaJsilhtjmEEEEEvT0_PSt6vectorINSt7__cxx1112basic_stringIcSt11char_traitsIcESaIcEEESaISC_EEi = comdat any

$_ZNSt6vectorINSt7__cxx1112basic_stringIcSt11char_traitsIcESaIcEEESaIS5_EE17_M_realloc_insertIJS5_EEEvN9__gnu_cxx17__normal_iteratorIPS5_S7_EEDpOT_ = comdat any

$_ZN7testing8internal24GenerateNamesRecursivelyINS0_20DefaultNameGeneratorENS0_5TypesIsJilhtjmEEEEEvT0_PSt6vectorINSt7__cxx1112basic_stringIcSt11char_traitsIcESaIcEEESaISC_EEi = comdat any

$_ZN7testing8internal24GenerateNamesRecursivelyINS0_20DefaultNameGeneratorENS0_5TypesIiJlhtjmEEEEEvT0_PSt6vectorINSt7__cxx1112basic_stringIcSt11char_traitsIcESaIcEEESaISC_EEi = comdat any

$_ZN7testing8internal24GenerateNamesRecursivelyINS0_20DefaultNameGeneratorENS0_5TypesIlJhtjmEEEEEvT0_PSt6vectorINSt7__cxx1112basic_stringIcSt11char_traitsIcESaIcEEESaISC_EEi = comdat any

$_ZN7testing8internal24GenerateNamesRecursivelyINS0_20DefaultNameGeneratorENS0_5TypesIhJtjmEEEEEvT0_PSt6vectorINSt7__cxx1112basic_stringIcSt11char_traitsIcESaIcEEESaISC_EEi = comdat any

$_ZN7testing8internal24GenerateNamesRecursivelyINS0_20DefaultNameGeneratorENS0_5TypesItJjmEEEEEvT0_PSt6vectorINSt7__cxx1112basic_stringIcSt11char_traitsIcESaIcEEESaISC_EEi = comdat any

$_ZN7testing8internal24GenerateNamesRecursivelyINS0_20DefaultNameGeneratorENS0_5TypesIjJmEEEEEvT0_PSt6vectorINSt7__cxx1112basic_stringIcSt11char_traitsIcESaIcEEESaISC_EEi = comdat any

$_ZN7testing8internal24GenerateNamesRecursivelyINS0_20DefaultNameGeneratorENS0_5TypesImJEEEEEvT0_PSt6vectorINSt7__cxx1112basic_stringIcSt11char_traitsIcESaIcEEESaISC_EEi = comdat any

$_ZN7testing8internal5posix5AbortEv = comdat any

$_ZNSt8_Rb_treeINSt7__cxx1112basic_stringIcSt11char_traitsIcESaIcEEES5_St9_IdentityIS5_ESt4lessIS5_ESaIS5_EE8_M_eraseEPSt13_Rb_tree_nodeIS5_E = comdat any

$_ZTSSt16_Sp_counted_baseILN9__gnu_cxx12_Lock_policyE2EE = comdat any

$_ZTSSt11_Mutex_baseILN9__gnu_cxx12_Lock_policyE2EE = comdat any

$_ZTISt11_Mutex_baseILN9__gnu_cxx12_Lock_policyE2EE = comdat any

$_ZTISt16_Sp_counted_baseILN9__gnu_cxx12_Lock_policyE2EE = comdat any

$_ZTSN7testing8internal19TestMetaFactoryBaseIN4absl17zipf_distributionImE10param_typeEEE = comdat any

$_ZTIN7testing8internal19TestMetaFactoryBaseIN4absl17zipf_distributionImE10param_typeEEE = comdat any

$_ZTSN7testing8internal15TestFactoryBaseE = comdat any

$_ZTIN7testing8internal15TestFactoryBaseE = comdat any

$_ZN7testing18WithParamInterfaceIN4absl17zipf_distributionImE10param_typeEE10parameter_E = comdat any

$_ZTSN7testing13TestWithParamIN4absl17zipf_distributionImE10param_typeEEE = comdat any

$_ZTSN7testing18WithParamInterfaceIN4absl17zipf_distributionImE10param_typeEEE = comdat any

$_ZTIN7testing18WithParamInterfaceIN4absl17zipf_distributionImE10param_typeEEE = comdat any

$_ZTIN7testing13TestWithParamIN4absl17zipf_distributionImE10param_typeEEE = comdat any

$_ZTSN7testing8internal16GTestNonCopyableE = comdat any

$_ZTIN7testing8internal16GTestNonCopyableE = comdat any

$_ZTVN7testing13TestWithParamIN4absl17zipf_distributionImE10param_typeEEE = comdat any

$_ZTVN7testing8internal30ValuesInIteratorRangeGeneratorIN4absl17zipf_distributionImE10param_typeEEE = comdat any

$_ZTSN7testing8internal30ValuesInIteratorRangeGeneratorIN4absl17zipf_distributionImE10param_typeEEE = comdat any

$_ZTSN7testing8internal23ParamGeneratorInterfaceIN4absl17zipf_distributionImE10param_typeEEE = comdat any

$_ZTIN7testing8internal23ParamGeneratorInterfaceIN4absl17zipf_distributionImE10param_typeEEE = comdat any

$_ZTIN7testing8internal30ValuesInIteratorRangeGeneratorIN4absl17zipf_distributionImE10param_typeEEE = comdat any

$_ZTVN7testing8internal30ValuesInIteratorRangeGeneratorIN4absl17zipf_distributionImE10param_typeEE8IteratorE = comdat any

$_ZTSN7testing8internal30ValuesInIteratorRangeGeneratorIN4absl17zipf_distributionImE10param_typeEE8IteratorE = comdat any

$_ZTSN7testing8internal22ParamIteratorInterfaceIN4absl17zipf_distributionImE10param_typeEEE = comdat any

$_ZTIN7testing8internal22ParamIteratorInterfaceIN4absl17zipf_distributionImE10param_typeEEE = comdat any

$_ZTIN7testing8internal30ValuesInIteratorRangeGeneratorIN4absl17zipf_distributionImE10param_typeEE8IteratorE = comdat any

$_ZTVSt15_Sp_counted_ptrIPN7testing8internal23ParamGeneratorInterfaceIN4absl17zipf_distributionImE10param_typeEEELN9__gnu_cxx12_Lock_policyE2EE = comdat any

$_ZTSSt15_Sp_counted_ptrIPN7testing8internal23ParamGeneratorInterfaceIN4absl17zipf_distributionImE10param_typeEEELN9__gnu_cxx12_Lock_policyE2EE = comdat any

$_ZTISt15_Sp_counted_ptrIPN7testing8internal23ParamGeneratorInterfaceIN4absl17zipf_distributionImE10param_typeEEELN9__gnu_cxx12_Lock_policyE2EE = comdat any

$_ZTVN7testing7MatcherIRKiEE = comdat any

$_ZTSN7testing7MatcherIRKiEE = comdat any

$_ZTSN7testing8internal11MatcherBaseIRKiEE = comdat any

$_ZTSN7testing25MatcherDescriberInterfaceE = comdat any

$_ZTIN7testing25MatcherDescriberInterfaceE = comdat any

$_ZTIN7testing8internal11MatcherBaseIRKiEE = comdat any

$_ZTIN7testing7MatcherIRKiEE = comdat any

$_ZTVN7testing8internal11MatcherBaseIRKiEE = comdat any

$_ZZN7testing8internal11MatcherBaseIRKiE9GetVTableINS4_11ValuePolicyINS0_9EqMatcherIiEELb1EEEEEPKNS4_6VTableEvE7kVTable = comdat any

$_ZTVN7testing8internal22ElementsAreMatcherImplIRKSt6vectorIiSaIiEEEE = comdat any

$_ZTSN7testing8internal22ElementsAreMatcherImplIRKSt6vectorIiSaIiEEEE = comdat any

$_ZTSN7testing16MatcherInterfaceIRKSt6vectorIiSaIiEEEE = comdat any

$_ZTIN7testing16MatcherInterfaceIRKSt6vectorIiSaIiEEEE = comdat any

$_ZTIN7testing8internal22ElementsAreMatcherImplIRKSt6vectorIiSaIiEEEE = comdat any

$_ZTVN7testing8internal24DummyMatchResultListenerE = comdat any

$_ZTSN7testing8internal24DummyMatchResultListenerE = comdat any

$_ZTSN7testing19MatchResultListenerE = comdat any

$_ZTIN7testing19MatchResultListenerE = comdat any

$_ZTIN7testing8internal24DummyMatchResultListenerE = comdat any

$_ZTVN7testing7MatcherIRKSt6vectorIiSaIiEEEE = comdat any

$_ZTSN7testing7MatcherIRKSt6vectorIiSaIiEEEE = comdat any

$_ZTSN7testing8internal11MatcherBaseIRKSt6vectorIiSaIiEEEE = comdat any

$_ZTIN7testing8internal11MatcherBaseIRKSt6vectorIiSaIiEEEE = comdat any

$_ZTIN7testing7MatcherIRKSt6vectorIiSaIiEEEE = comdat any

$_ZTVN7testing8internal11MatcherBaseIRKSt6vectorIiSaIiEEEE = comdat any

$_ZZN7testing8internal11MatcherBaseIRKSt6vectorIiSaIiEEE9GetVTableINS7_11ValuePolicyIPKNS_16MatcherInterfaceIS6_EELb1EEEEEPKNS7_6VTableEvE7kVTable = comdat any

$_ZTVN7testing25StringMatchResultListenerE = comdat any

$_ZTSN7testing25StringMatchResultListenerE = comdat any

$_ZTIN7testing25StringMatchResultListenerE = comdat any

$_ZTSSt6vectorIiSaIiEE = comdat any

$_ZTSSt12_Vector_baseIiSaIiEE = comdat any

$_ZTISt12_Vector_baseIiSaIiEE = comdat any

$_ZTISt6vectorIiSaIiEE = comdat any

$_ZZN7testing8internal31CanonicalizeForStdLibVersioningENSt7__cxx1112basic_stringIcSt11char_traitsIcESaIcEEEE6prefix = comdat any

$_ZZN7testing8internal31CanonicalizeForStdLibVersioningENSt7__cxx1112basic_stringIcSt11char_traitsIcESaIcEEEE9to_search = comdat any

$_ZZN7testing8internal31CanonicalizeForStdLibVersioningENSt7__cxx1112basic_stringIcSt11char_traitsIcESaIcEEEE11replace_str = comdat any

$_ZTSN7testing8internal30ParameterizedTestSuiteInfoBaseE = comdat any

$_ZTIN7testing8internal30ParameterizedTestSuiteInfoBaseE = comdat any

@_ZStL8__ioinit = internal global %"class.std::ios_base::Init" zeroinitializer, align 1
@__dso_handle = external hidden global i8
@.str = private unnamed_addr constant [1 x i8] zeroinitializer, align 1
@.str.2 = private unnamed_addr constant [137 x i8] c"generated/home/dtcxzyw/WorkSpace/Projects/compilers/llvm-opt-benchmark/bench/abseil-cpp/abseil-cpp/absl/random/zipf_distribution_test.cc\00", align 1
@.str.3 = private unnamed_addr constant [26 x i8] c"ZipfDistributionTypedTest\00", align 1
@.str.4 = private unnamed_addr constant [14 x i8] c"SerializeTest\00", align 1
@.str.7 = private unnamed_addr constant [9 x i8] c"ZipfTest\00", align 1
@.str.8 = private unnamed_addr constant [4 x i8] c"All\00", align 1
@_ZN12_GLOBAL__N_139ZipfDistributionTest_StabilityTest_Test10test_info_E = internal unnamed_addr global ptr null, align 8
@.str.10 = private unnamed_addr constant [21 x i8] c"ZipfDistributionTest\00", align 1
@.str.11 = private unnamed_addr constant [14 x i8] c"StabilityTest\00", align 1
@_ZN12_GLOBAL__N_141ZipfDistributionTest_AlgorithmBounds_Test10test_info_E = internal unnamed_addr global ptr null, align 8
@.str.13 = private unnamed_addr constant [16 x i8] c"AlgorithmBounds\00", align 1
@.str.14 = private unnamed_addr constant [15 x i8] c"ChiSquaredTest\00", align 1
@.str.15 = private unnamed_addr constant [26 x i8] c"vector::_M_realloc_insert\00", align 1
@_ZTVSt15_Sp_counted_ptrIPN7testing8internal26ParameterizedTestSuiteInfoIN12_GLOBAL__N_18ZipfTestEE8TestInfoELN9__gnu_cxx12_Lock_policyE2EE = internal unnamed_addr constant { [7 x ptr] } { [7 x ptr] [ptr null, ptr @_ZTISt15_Sp_counted_ptrIPN7testing8internal26ParameterizedTestSuiteInfoIN12_GLOBAL__N_18ZipfTestEE8TestInfoELN9__gnu_cxx12_Lock_policyE2EE, ptr @_ZNSt15_Sp_counted_ptrIPN7testing8internal26ParameterizedTestSuiteInfoIN12_GLOBAL__N_18ZipfTestEE8TestInfoELN9__gnu_cxx12_Lock_policyE2EED2Ev, ptr @_ZNSt15_Sp_counted_ptrIPN7testing8internal26ParameterizedTestSuiteInfoIN12_GLOBAL__N_18ZipfTestEE8TestInfoELN9__gnu_cxx12_Lock_policyE2EED0Ev, ptr @_ZNSt15_Sp_counted_ptrIPN7testing8internal26ParameterizedTestSuiteInfoIN12_GLOBAL__N_18ZipfTestEE8TestInfoELN9__gnu_cxx12_Lock_policyE2EE10_M_disposeEv, ptr @_ZNSt15_Sp_counted_ptrIPN7testing8internal26ParameterizedTestSuiteInfoIN12_GLOBAL__N_18ZipfTestEE8TestInfoELN9__gnu_cxx12_Lock_policyE2EE10_M_destroyEv, ptr @_ZNSt15_Sp_counted_ptrIPN7testing8internal26ParameterizedTestSuiteInfoIN12_GLOBAL__N_18ZipfTestEE8TestInfoELN9__gnu_cxx12_Lock_policyE2EE14_M_get_deleterERKSt9type_info] }, align 8
@_ZTVN10__cxxabiv120__si_class_type_infoE = external global [0 x ptr]
@_ZTSSt15_Sp_counted_ptrIPN7testing8internal26ParameterizedTestSuiteInfoIN12_GLOBAL__N_18ZipfTestEE8TestInfoELN9__gnu_cxx12_Lock_policyE2EE = internal constant [135 x i8] c"St15_Sp_counted_ptrIPN7testing8internal26ParameterizedTestSuiteInfoIN12_GLOBAL__N_18ZipfTestEE8TestInfoELN9__gnu_cxx12_Lock_policyE2EE\00", align 1
@_ZTSSt16_Sp_counted_baseILN9__gnu_cxx12_Lock_policyE2EE = linkonce_odr dso_local constant [52 x i8] c"St16_Sp_counted_baseILN9__gnu_cxx12_Lock_policyE2EE\00", comdat, align 1
@_ZTVN10__cxxabiv117__class_type_infoE = external global [0 x ptr]
@_ZTSSt11_Mutex_baseILN9__gnu_cxx12_Lock_policyE2EE = linkonce_odr dso_local constant [47 x i8] c"St11_Mutex_baseILN9__gnu_cxx12_Lock_policyE2EE\00", comdat, align 1
@_ZTISt11_Mutex_baseILN9__gnu_cxx12_Lock_policyE2EE = linkonce_odr dso_local constant { ptr, ptr } { ptr getelementptr inbounds (ptr, ptr @_ZTVN10__cxxabiv117__class_type_infoE, i64 2), ptr @_ZTSSt11_Mutex_baseILN9__gnu_cxx12_Lock_policyE2EE }, comdat, align 8
@_ZTISt16_Sp_counted_baseILN9__gnu_cxx12_Lock_policyE2EE = linkonce_odr dso_local constant { ptr, ptr, ptr } { ptr getelementptr inbounds (ptr, ptr @_ZTVN10__cxxabiv120__si_class_type_infoE, i64 2), ptr @_ZTSSt16_Sp_counted_baseILN9__gnu_cxx12_Lock_policyE2EE, ptr @_ZTISt11_Mutex_baseILN9__gnu_cxx12_Lock_policyE2EE }, comdat, align 8
@_ZTISt15_Sp_counted_ptrIPN7testing8internal26ParameterizedTestSuiteInfoIN12_GLOBAL__N_18ZipfTestEE8TestInfoELN9__gnu_cxx12_Lock_policyE2EE = internal constant { ptr, ptr, ptr } { ptr getelementptr inbounds (ptr, ptr @_ZTVN10__cxxabiv120__si_class_type_infoE, i64 2), ptr @_ZTSSt15_Sp_counted_ptrIPN7testing8internal26ParameterizedTestSuiteInfoIN12_GLOBAL__N_18ZipfTestEE8TestInfoELN9__gnu_cxx12_Lock_policyE2EE, ptr @_ZTISt16_Sp_counted_baseILN9__gnu_cxx12_Lock_policyE2EE }, align 8
@__libc_single_threaded = external local_unnamed_addr global i8, align 1
@_ZTVN7testing8internal15TestMetaFactoryIN12_GLOBAL__N_128ZipfTest_ChiSquaredTest_TestEEE = internal unnamed_addr constant { [5 x ptr] } { [5 x ptr] [ptr null, ptr @_ZTIN7testing8internal15TestMetaFactoryIN12_GLOBAL__N_128ZipfTest_ChiSquaredTest_TestEEE, ptr @_ZN7testing8internal15TestMetaFactoryIN12_GLOBAL__N_128ZipfTest_ChiSquaredTest_TestEED2Ev, ptr @_ZN7testing8internal15TestMetaFactoryIN12_GLOBAL__N_128ZipfTest_ChiSquaredTest_TestEED0Ev, ptr @_ZN7testing8internal15TestMetaFactoryIN12_GLOBAL__N_128ZipfTest_ChiSquaredTest_TestEE17CreateTestFactoryEN4absl17zipf_distributionImE10param_typeE] }, align 8
@_ZTSN7testing8internal15TestMetaFactoryIN12_GLOBAL__N_128ZipfTest_ChiSquaredTest_TestEEE = internal constant [85 x i8] c"N7testing8internal15TestMetaFactoryIN12_GLOBAL__N_128ZipfTest_ChiSquaredTest_TestEEE\00", align 1
@_ZTSN7testing8internal19TestMetaFactoryBaseIN4absl17zipf_distributionImE10param_typeEEE = linkonce_odr dso_local constant [84 x i8] c"N7testing8internal19TestMetaFactoryBaseIN4absl17zipf_distributionImE10param_typeEEE\00", comdat, align 1
@_ZTIN7testing8internal19TestMetaFactoryBaseIN4absl17zipf_distributionImE10param_typeEEE = linkonce_odr dso_local constant { ptr, ptr } { ptr getelementptr inbounds (ptr, ptr @_ZTVN10__cxxabiv117__class_type_infoE, i64 2), ptr @_ZTSN7testing8internal19TestMetaFactoryBaseIN4absl17zipf_distributionImE10param_typeEEE }, comdat, align 8
@_ZTIN7testing8internal15TestMetaFactoryIN12_GLOBAL__N_128ZipfTest_ChiSquaredTest_TestEEE = internal constant { ptr, ptr, ptr } { ptr getelementptr inbounds (ptr, ptr @_ZTVN10__cxxabiv120__si_class_type_infoE, i64 2), ptr @_ZTSN7testing8internal15TestMetaFactoryIN12_GLOBAL__N_128ZipfTest_ChiSquaredTest_TestEEE, ptr @_ZTIN7testing8internal19TestMetaFactoryBaseIN4absl17zipf_distributionImE10param_typeEEE }, align 8
@_ZTVN7testing8internal24ParameterizedTestFactoryIN12_GLOBAL__N_128ZipfTest_ChiSquaredTest_TestEEE = internal unnamed_addr constant { [5 x ptr] } { [5 x ptr] [ptr null, ptr @_ZTIN7testing8internal24ParameterizedTestFactoryIN12_GLOBAL__N_128ZipfTest_ChiSquaredTest_TestEEE, ptr @_ZN7testing8internal24ParameterizedTestFactoryIN12_GLOBAL__N_128ZipfTest_ChiSquaredTest_TestEED2Ev, ptr @_ZN7testing8internal24ParameterizedTestFactoryIN12_GLOBAL__N_128ZipfTest_ChiSquaredTest_TestEED0Ev, ptr @_ZN7testing8internal24ParameterizedTestFactoryIN12_GLOBAL__N_128ZipfTest_ChiSquaredTest_TestEE10CreateTestEv] }, align 8
@_ZTSN7testing8internal24ParameterizedTestFactoryIN12_GLOBAL__N_128ZipfTest_ChiSquaredTest_TestEEE = internal constant [94 x i8] c"N7testing8internal24ParameterizedTestFactoryIN12_GLOBAL__N_128ZipfTest_ChiSquaredTest_TestEEE\00", align 1
@_ZTSN7testing8internal15TestFactoryBaseE = linkonce_odr dso_local constant [37 x i8] c"N7testing8internal15TestFactoryBaseE\00", comdat, align 1
@_ZTIN7testing8internal15TestFactoryBaseE = linkonce_odr dso_local constant { ptr, ptr } { ptr getelementptr inbounds (ptr, ptr @_ZTVN10__cxxabiv117__class_type_infoE, i64 2), ptr @_ZTSN7testing8internal15TestFactoryBaseE }, comdat, align 8
@_ZTIN7testing8internal24ParameterizedTestFactoryIN12_GLOBAL__N_128ZipfTest_ChiSquaredTest_TestEEE = internal constant { ptr, ptr, ptr } { ptr getelementptr inbounds (ptr, ptr @_ZTVN10__cxxabiv120__si_class_type_infoE, i64 2), ptr @_ZTSN7testing8internal24ParameterizedTestFactoryIN12_GLOBAL__N_128ZipfTest_ChiSquaredTest_TestEEE, ptr @_ZTIN7testing8internal15TestFactoryBaseE }, align 8
@_ZN7testing18WithParamInterfaceIN4absl17zipf_distributionImE10param_typeEE10parameter_E = linkonce_odr dso_local local_unnamed_addr global ptr null, comdat, align 8
@_ZTVN12_GLOBAL__N_128ZipfTest_ChiSquaredTest_TestE = internal unnamed_addr constant { [8 x ptr], [4 x ptr] } { [8 x ptr] [ptr null, ptr @_ZTIN12_GLOBAL__N_128ZipfTest_ChiSquaredTest_TestE, ptr @_ZN12_GLOBAL__N_128ZipfTest_ChiSquaredTest_TestD2Ev, ptr @_ZN12_GLOBAL__N_128ZipfTest_ChiSquaredTest_TestD0Ev, ptr @_ZN7testing4Test5SetUpEv, ptr @_ZN7testing4Test8TearDownEv, ptr @_ZN12_GLOBAL__N_128ZipfTest_ChiSquaredTest_Test8TestBodyEv, ptr @_ZN7testing4Test5SetupEv], [4 x ptr] [ptr inttoptr (i64 -16 to ptr), ptr @_ZTIN12_GLOBAL__N_128ZipfTest_ChiSquaredTest_TestE, ptr @_ZThn16_N12_GLOBAL__N_128ZipfTest_ChiSquaredTest_TestD1Ev, ptr @_ZThn16_N12_GLOBAL__N_128ZipfTest_ChiSquaredTest_TestD0Ev] }, align 8
@_ZTVN10__cxxabiv121__vmi_class_type_infoE = external global [0 x ptr]
@_ZTSN12_GLOBAL__N_128ZipfTest_ChiSquaredTest_TestE = internal constant [47 x i8] c"N12_GLOBAL__N_128ZipfTest_ChiSquaredTest_TestE\00", align 1
@_ZTSN12_GLOBAL__N_18ZipfTestE = internal constant [26 x i8] c"N12_GLOBAL__N_18ZipfTestE\00", align 1
@_ZTSN7testing13TestWithParamIN4absl17zipf_distributionImE10param_typeEEE = linkonce_odr dso_local constant [69 x i8] c"N7testing13TestWithParamIN4absl17zipf_distributionImE10param_typeEEE\00", comdat, align 1
@_ZTIN7testing4TestE = external constant ptr
@_ZTSN7testing18WithParamInterfaceIN4absl17zipf_distributionImE10param_typeEEE = linkonce_odr dso_local constant [74 x i8] c"N7testing18WithParamInterfaceIN4absl17zipf_distributionImE10param_typeEEE\00", comdat, align 1
@_ZTIN7testing18WithParamInterfaceIN4absl17zipf_distributionImE10param_typeEEE = linkonce_odr dso_local constant { ptr, ptr } { ptr getelementptr inbounds (ptr, ptr @_ZTVN10__cxxabiv117__class_type_infoE, i64 2), ptr @_ZTSN7testing18WithParamInterfaceIN4absl17zipf_distributionImE10param_typeEEE }, comdat, align 8
@_ZTIN7testing13TestWithParamIN4absl17zipf_distributionImE10param_typeEEE = linkonce_odr dso_local constant { ptr, ptr, i32, i32, ptr, i64, ptr, i64 } { ptr getelementptr inbounds (ptr, ptr @_ZTVN10__cxxabiv121__vmi_class_type_infoE, i64 2), ptr @_ZTSN7testing13TestWithParamIN4absl17zipf_distributionImE10param_typeEEE, i32 0, i32 2, ptr @_ZTIN7testing4TestE, i64 2, ptr @_ZTIN7testing18WithParamInterfaceIN4absl17zipf_distributionImE10param_typeEEE, i64 4098 }, comdat, align 8
@_ZTSN12_GLOBAL__N_19ZipfModelE = internal constant [27 x i8] c"N12_GLOBAL__N_19ZipfModelE\00", align 1
@_ZTIN12_GLOBAL__N_19ZipfModelE = internal constant { ptr, ptr } { ptr getelementptr inbounds (ptr, ptr @_ZTVN10__cxxabiv117__class_type_infoE, i64 2), ptr @_ZTSN12_GLOBAL__N_19ZipfModelE }, align 8
@_ZTIN12_GLOBAL__N_18ZipfTestE = internal constant { ptr, ptr, i32, i32, ptr, i64, ptr, i64 } { ptr getelementptr inbounds (ptr, ptr @_ZTVN10__cxxabiv121__vmi_class_type_infoE, i64 2), ptr @_ZTSN12_GLOBAL__N_18ZipfTestE, i32 0, i32 2, ptr @_ZTIN7testing13TestWithParamIN4absl17zipf_distributionImE10param_typeEEE, i64 2, ptr @_ZTIN12_GLOBAL__N_19ZipfModelE, i64 6146 }, align 8
@_ZTSN7testing8internal16GTestNonCopyableE = linkonce_odr dso_local constant [38 x i8] c"N7testing8internal16GTestNonCopyableE\00", comdat, align 1
@_ZTIN7testing8internal16GTestNonCopyableE = linkonce_odr dso_local constant { ptr, ptr } { ptr getelementptr inbounds (ptr, ptr @_ZTVN10__cxxabiv117__class_type_infoE, i64 2), ptr @_ZTSN7testing8internal16GTestNonCopyableE }, comdat, align 8
@_ZTIN12_GLOBAL__N_128ZipfTest_ChiSquaredTest_TestE = internal constant { ptr, ptr, i32, i32, ptr, i64, ptr, i64 } { ptr getelementptr inbounds (ptr, ptr @_ZTVN10__cxxabiv121__vmi_class_type_infoE, i64 2), ptr @_ZTSN12_GLOBAL__N_128ZipfTest_ChiSquaredTest_TestE, i32 0, i32 2, ptr @_ZTIN12_GLOBAL__N_18ZipfTestE, i64 2, ptr @_ZTIN7testing8internal16GTestNonCopyableE, i64 0 }, align 8
@_ZTVN7testing13TestWithParamIN4absl17zipf_distributionImE10param_typeEEE = linkonce_odr dso_local unnamed_addr constant { [8 x ptr], [4 x ptr] } { [8 x ptr] [ptr null, ptr @_ZTIN7testing13TestWithParamIN4absl17zipf_distributionImE10param_typeEEE, ptr @_ZN7testing13TestWithParamIN4absl17zipf_distributionImE10param_typeEED2Ev, ptr @_ZN7testing13TestWithParamIN4absl17zipf_distributionImE10param_typeEED0Ev, ptr @_ZN7testing4Test5SetUpEv, ptr @_ZN7testing4Test8TearDownEv, ptr @__cxa_pure_virtual, ptr @_ZN7testing4Test5SetupEv], [4 x ptr] [ptr inttoptr (i64 -16 to ptr), ptr @_ZTIN7testing13TestWithParamIN4absl17zipf_distributionImE10param_typeEEE, ptr @_ZThn16_N7testing13TestWithParamIN4absl17zipf_distributionImE10param_typeEED1Ev, ptr @_ZThn16_N7testing13TestWithParamIN4absl17zipf_distributionImE10param_typeEED0Ev] }, comdat, align 8
@.str.16 = private unnamed_addr constant [148 x i8] c"generated/home/dtcxzyw/WorkSpace/Projects/compilers/llvm-opt-benchmark/bench/abseil-cpp/bench_build/googletest-src/googletest/include/gtest/gtest.h\00", align 1
@.str.17 = private unnamed_addr constant [41 x i8] c"Condition parameter_ != nullptr failed. \00", align 1
@.str.18 = private unnamed_addr constant [65 x i8] c"GetParam() can only be called inside a value-parameterized test \00", align 1
@.str.19 = private unnamed_addr constant [53 x i8] c"-- did you intend to write TEST_P instead of TEST_F?\00", align 1
@_ZSt4cerr = external global %"class.std::basic_ostream", align 8
@.str.20 = private unnamed_addr constant [14 x i8] c"points.size()\00", align 1
@.str.21 = private unnamed_addr constant [2 x i8] c"0\00", align 1
@.str.22 = private unnamed_addr constant [2 x i8] c"x\00", align 1
@.str.23 = private unnamed_addr constant [10 x i8] c"dis.max()\00", align 1
@.str.25 = private unnamed_addr constant [7 x i8] c"values\00", align 1
@.str.26 = private unnamed_addr constant [3 x i8] c": \00", align 1
@.str.27 = private unnamed_addr constant [8 x i8] c" vs. E=\00", align 1
@.str.28 = private unnamed_addr constant [8 x i8] c"trials \00", align 1
@.str.29 = private unnamed_addr constant [6 x i8] c"mean \00", align 1
@.str.30 = private unnamed_addr constant [15 x i8] c" vs. expected \00", align 1
@_ZN4absl15random_internalL11kChiSquaredE = internal constant [12 x i8] c"chi-squared\00", align 1
@.str.31 = private unnamed_addr constant [8 x i8] c"(data, \00", align 1
@.str.32 = private unnamed_addr constant [5 x i8] c") = \00", align 1
@.str.33 = private unnamed_addr constant [3 x i8] c" (\00", align 1
@.str.34 = private unnamed_addr constant [2 x i8] c")\00", align 1
@.str.35 = private unnamed_addr constant [13 x i8] c" @ 0.9995 = \00", align 1
@.str.36 = private unnamed_addr constant [11 x i8] c" value of \00", align 1
@.str.37 = private unnamed_addr constant [25 x i8] c" is above the threshold.\00", align 1
@.str.38 = private unnamed_addr constant [7 x i8] c"Failed\00", align 1
@.str.40 = private unnamed_addr constant [2 x i8] c">\00", align 1
@.str.41 = private unnamed_addr constant [12 x i8] c"Expected: (\00", align 1
@.str.42 = private unnamed_addr constant [3 x i8] c") \00", align 1
@.str.43 = private unnamed_addr constant [12 x i8] c"), actual: \00", align 1
@.str.44 = private unnamed_addr constant [5 x i8] c" vs \00", align 1
@.str.45 = private unnamed_addr constant [7 x i8] c"(null)\00", align 1
@.str.46 = private unnamed_addr constant [49 x i8] c"cannot create std::vector larger than max_size()\00", align 1
@.str.47 = private unnamed_addr constant [3 x i8] c"<=\00", align 1
@.str.48 = private unnamed_addr constant [3 x i8] c">=\00", align 1
@_ZTVN7testing8internal30ValuesInIteratorRangeGeneratorIN4absl17zipf_distributionImE10param_typeEEE = linkonce_odr dso_local unnamed_addr constant { [6 x ptr] } { [6 x ptr] [ptr null, ptr @_ZTIN7testing8internal30ValuesInIteratorRangeGeneratorIN4absl17zipf_distributionImE10param_typeEEE, ptr @_ZN7testing8internal30ValuesInIteratorRangeGeneratorIN4absl17zipf_distributionImE10param_typeEED2Ev, ptr @_ZN7testing8internal30ValuesInIteratorRangeGeneratorIN4absl17zipf_distributionImE10param_typeEED0Ev, ptr @_ZNK7testing8internal30ValuesInIteratorRangeGeneratorIN4absl17zipf_distributionImE10param_typeEE5BeginEv, ptr @_ZNK7testing8internal30ValuesInIteratorRangeGeneratorIN4absl17zipf_distributionImE10param_typeEE3EndEv] }, comdat, align 8
@_ZTSN7testing8internal30ValuesInIteratorRangeGeneratorIN4absl17zipf_distributionImE10param_typeEEE = linkonce_odr dso_local constant [95 x i8] c"N7testing8internal30ValuesInIteratorRangeGeneratorIN4absl17zipf_distributionImE10param_typeEEE\00", comdat, align 1
@_ZTSN7testing8internal23ParamGeneratorInterfaceIN4absl17zipf_distributionImE10param_typeEEE = linkonce_odr dso_local constant [88 x i8] c"N7testing8internal23ParamGeneratorInterfaceIN4absl17zipf_distributionImE10param_typeEEE\00", comdat, align 1
@_ZTIN7testing8internal23ParamGeneratorInterfaceIN4absl17zipf_distributionImE10param_typeEEE = linkonce_odr dso_local constant { ptr, ptr } { ptr getelementptr inbounds (ptr, ptr @_ZTVN10__cxxabiv117__class_type_infoE, i64 2), ptr @_ZTSN7testing8internal23ParamGeneratorInterfaceIN4absl17zipf_distributionImE10param_typeEEE }, comdat, align 8
@_ZTIN7testing8internal30ValuesInIteratorRangeGeneratorIN4absl17zipf_distributionImE10param_typeEEE = linkonce_odr dso_local constant { ptr, ptr, ptr } { ptr getelementptr inbounds (ptr, ptr @_ZTVN10__cxxabiv120__si_class_type_infoE, i64 2), ptr @_ZTSN7testing8internal30ValuesInIteratorRangeGeneratorIN4absl17zipf_distributionImE10param_typeEEE, ptr @_ZTIN7testing8internal23ParamGeneratorInterfaceIN4absl17zipf_distributionImE10param_typeEEE }, comdat, align 8
@_ZTVN7testing8internal30ValuesInIteratorRangeGeneratorIN4absl17zipf_distributionImE10param_typeEE8IteratorE = linkonce_odr dso_local unnamed_addr constant { [9 x ptr] } { [9 x ptr] [ptr null, ptr @_ZTIN7testing8internal30ValuesInIteratorRangeGeneratorIN4absl17zipf_distributionImE10param_typeEE8IteratorE, ptr @_ZN7testing8internal30ValuesInIteratorRangeGeneratorIN4absl17zipf_distributionImE10param_typeEE8IteratorD2Ev, ptr @_ZN7testing8internal30ValuesInIteratorRangeGeneratorIN4absl17zipf_distributionImE10param_typeEE8IteratorD0Ev, ptr @_ZNK7testing8internal30ValuesInIteratorRangeGeneratorIN4absl17zipf_distributionImE10param_typeEE8Iterator13BaseGeneratorEv, ptr @_ZN7testing8internal30ValuesInIteratorRangeGeneratorIN4absl17zipf_distributionImE10param_typeEE8Iterator7AdvanceEv, ptr @_ZNK7testing8internal30ValuesInIteratorRangeGeneratorIN4absl17zipf_distributionImE10param_typeEE8Iterator5CloneEv, ptr @_ZNK7testing8internal30ValuesInIteratorRangeGeneratorIN4absl17zipf_distributionImE10param_typeEE8Iterator7CurrentEv, ptr @_ZNK7testing8internal30ValuesInIteratorRangeGeneratorIN4absl17zipf_distributionImE10param_typeEE8Iterator6EqualsERKNS0_22ParamIteratorInterfaceIS5_EE] }, comdat, align 8
@_ZTSN7testing8internal30ValuesInIteratorRangeGeneratorIN4absl17zipf_distributionImE10param_typeEE8IteratorE = linkonce_odr dso_local constant [104 x i8] c"N7testing8internal30ValuesInIteratorRangeGeneratorIN4absl17zipf_distributionImE10param_typeEE8IteratorE\00", comdat, align 1
@_ZTSN7testing8internal22ParamIteratorInterfaceIN4absl17zipf_distributionImE10param_typeEEE = linkonce_odr dso_local constant [87 x i8] c"N7testing8internal22ParamIteratorInterfaceIN4absl17zipf_distributionImE10param_typeEEE\00", comdat, align 1
@_ZTIN7testing8internal22ParamIteratorInterfaceIN4absl17zipf_distributionImE10param_typeEEE = linkonce_odr dso_local constant { ptr, ptr } { ptr getelementptr inbounds (ptr, ptr @_ZTVN10__cxxabiv117__class_type_infoE, i64 2), ptr @_ZTSN7testing8internal22ParamIteratorInterfaceIN4absl17zipf_distributionImE10param_typeEEE }, comdat, align 8
@_ZTIN7testing8internal30ValuesInIteratorRangeGeneratorIN4absl17zipf_distributionImE10param_typeEE8IteratorE = linkonce_odr dso_local constant { ptr, ptr, ptr } { ptr getelementptr inbounds (ptr, ptr @_ZTVN10__cxxabiv120__si_class_type_infoE, i64 2), ptr @_ZTSN7testing8internal30ValuesInIteratorRangeGeneratorIN4absl17zipf_distributionImE10param_typeEE8IteratorE, ptr @_ZTIN7testing8internal22ParamIteratorInterfaceIN4absl17zipf_distributionImE10param_typeEEE }, comdat, align 8
@.str.49 = private unnamed_addr constant [168 x i8] c"generated/home/dtcxzyw/WorkSpace/Projects/compilers/llvm-opt-benchmark/bench/abseil-cpp/bench_build/googletest-src/googletest/include/gtest/internal/gtest-param-util.h\00", align 1
@.str.50 = private unnamed_addr constant [60 x i8] c"Condition BaseGenerator() == other.BaseGenerator() failed. \00", align 1
@.str.51 = private unnamed_addr constant [44 x i8] c"The program attempted to compare iterators \00", align 1
@.str.52 = private unnamed_addr constant [27 x i8] c"from different generators.\00", align 1
@.str.53 = private unnamed_addr constant [162 x i8] c"generated/home/dtcxzyw/WorkSpace/Projects/compilers/llvm-opt-benchmark/bench/abseil-cpp/bench_build/googletest-src/googletest/include/gtest/internal/gtest-port.h\00", align 1
@.str.54 = private unnamed_addr constant [78 x i8] c"Condition base == nullptr || dynamic_cast<Derived*>(base) != nullptr failed. \00", align 1
@_ZTVSt15_Sp_counted_ptrIPN7testing8internal23ParamGeneratorInterfaceIN4absl17zipf_distributionImE10param_typeEEELN9__gnu_cxx12_Lock_policyE2EE = linkonce_odr dso_local unnamed_addr constant { [7 x ptr] } { [7 x ptr] [ptr null, ptr @_ZTISt15_Sp_counted_ptrIPN7testing8internal23ParamGeneratorInterfaceIN4absl17zipf_distributionImE10param_typeEEELN9__gnu_cxx12_Lock_policyE2EE, ptr @_ZNSt15_Sp_counted_ptrIPN7testing8internal23ParamGeneratorInterfaceIN4absl17zipf_distributionImE10param_typeEEELN9__gnu_cxx12_Lock_policyE2EED2Ev, ptr @_ZNSt15_Sp_counted_ptrIPN7testing8internal23ParamGeneratorInterfaceIN4absl17zipf_distributionImE10param_typeEEELN9__gnu_cxx12_Lock_policyE2EED0Ev, ptr @_ZNSt15_Sp_counted_ptrIPN7testing8internal23ParamGeneratorInterfaceIN4absl17zipf_distributionImE10param_typeEEELN9__gnu_cxx12_Lock_policyE2EE10_M_disposeEv, ptr @_ZNSt15_Sp_counted_ptrIPN7testing8internal23ParamGeneratorInterfaceIN4absl17zipf_distributionImE10param_typeEEELN9__gnu_cxx12_Lock_policyE2EE10_M_destroyEv, ptr @_ZNSt15_Sp_counted_ptrIPN7testing8internal23ParamGeneratorInterfaceIN4absl17zipf_distributionImE10param_typeEEELN9__gnu_cxx12_Lock_policyE2EE14_M_get_deleterERKSt9type_info] }, comdat, align 8
@_ZTSSt15_Sp_counted_ptrIPN7testing8internal23ParamGeneratorInterfaceIN4absl17zipf_distributionImE10param_typeEEELN9__gnu_cxx12_Lock_policyE2EE = linkonce_odr dso_local constant [139 x i8] c"St15_Sp_counted_ptrIPN7testing8internal23ParamGeneratorInterfaceIN4absl17zipf_distributionImE10param_typeEEELN9__gnu_cxx12_Lock_policyE2EE\00", comdat, align 1
@_ZTISt15_Sp_counted_ptrIPN7testing8internal23ParamGeneratorInterfaceIN4absl17zipf_distributionImE10param_typeEEELN9__gnu_cxx12_Lock_policyE2EE = linkonce_odr dso_local constant { ptr, ptr, ptr } { ptr getelementptr inbounds (ptr, ptr @_ZTVN10__cxxabiv120__si_class_type_infoE, i64 2), ptr @_ZTSSt15_Sp_counted_ptrIPN7testing8internal23ParamGeneratorInterfaceIN4absl17zipf_distributionImE10param_typeEEELN9__gnu_cxx12_Lock_policyE2EE, ptr @_ZTISt16_Sp_counted_baseILN9__gnu_cxx12_Lock_policyE2EE }, comdat, align 8
@.str.55 = private unnamed_addr constant [3 x i8] c"k_\00", align 1
@.str.56 = private unnamed_addr constant [5 x i8] c"__q_\00", align 1
@.str.57 = private unnamed_addr constant [5 x i8] c"__v_\00", align 1
@.str.58 = private unnamed_addr constant [2 x i8] c"+\00", align 1
@.str.59 = private unnamed_addr constant [2 x i8] c"_\00", align 1
@.str.60 = private unnamed_addr constant [2 x i8] c"-\00", align 1
@.str.61 = private unnamed_addr constant [2 x i8] c".\00", align 1
@_ZTVN7testing8internal15TestFactoryImplIN12_GLOBAL__N_139ZipfDistributionTest_StabilityTest_TestEEE = internal unnamed_addr constant { [5 x ptr] } { [5 x ptr] [ptr null, ptr @_ZTIN7testing8internal15TestFactoryImplIN12_GLOBAL__N_139ZipfDistributionTest_StabilityTest_TestEEE, ptr @_ZN7testing8internal15TestFactoryImplIN12_GLOBAL__N_139ZipfDistributionTest_StabilityTest_TestEED2Ev, ptr @_ZN7testing8internal15TestFactoryImplIN12_GLOBAL__N_139ZipfDistributionTest_StabilityTest_TestEED0Ev, ptr @_ZN7testing8internal15TestFactoryImplIN12_GLOBAL__N_139ZipfDistributionTest_StabilityTest_TestEE10CreateTestEv] }, align 8
@_ZTSN7testing8internal15TestFactoryImplIN12_GLOBAL__N_139ZipfDistributionTest_StabilityTest_TestEEE = internal constant [96 x i8] c"N7testing8internal15TestFactoryImplIN12_GLOBAL__N_139ZipfDistributionTest_StabilityTest_TestEEE\00", align 1
@_ZTIN7testing8internal15TestFactoryImplIN12_GLOBAL__N_139ZipfDistributionTest_StabilityTest_TestEEE = internal constant { ptr, ptr, ptr } { ptr getelementptr inbounds (ptr, ptr @_ZTVN10__cxxabiv120__si_class_type_infoE, i64 2), ptr @_ZTSN7testing8internal15TestFactoryImplIN12_GLOBAL__N_139ZipfDistributionTest_StabilityTest_TestEEE, ptr @_ZTIN7testing8internal15TestFactoryBaseE }, align 8
@_ZTVN12_GLOBAL__N_139ZipfDistributionTest_StabilityTest_TestE = internal unnamed_addr constant { [8 x ptr] } { [8 x ptr] [ptr null, ptr @_ZTIN12_GLOBAL__N_139ZipfDistributionTest_StabilityTest_TestE, ptr @_ZN12_GLOBAL__N_139ZipfDistributionTest_StabilityTest_TestD2Ev, ptr @_ZN12_GLOBAL__N_139ZipfDistributionTest_StabilityTest_TestD0Ev, ptr @_ZN7testing4Test5SetUpEv, ptr @_ZN7testing4Test8TearDownEv, ptr @_ZN12_GLOBAL__N_139ZipfDistributionTest_StabilityTest_Test8TestBodyEv, ptr @_ZN7testing4Test5SetupEv] }, align 8
@_ZTSN12_GLOBAL__N_139ZipfDistributionTest_StabilityTest_TestE = internal constant [58 x i8] c"N12_GLOBAL__N_139ZipfDistributionTest_StabilityTest_TestE\00", align 1
@_ZTIN12_GLOBAL__N_139ZipfDistributionTest_StabilityTest_TestE = internal constant { ptr, ptr, ptr } { ptr getelementptr inbounds (ptr, ptr @_ZTVN10__cxxabiv120__si_class_type_infoE, i64 2), ptr @_ZTSN12_GLOBAL__N_139ZipfDistributionTest_StabilityTest_TestE, ptr @_ZTIN7testing4TestE }, align 8
@constinit = private unnamed_addr constant [12 x i64] [i64 1103321112246101, i64 -13892261315111621, i64 -4381195465716376923, i64 7302623652651702018, i64 3093829652543582084, i64 1522698432631234928, i64 -1378867341430942448, i64 1426700110030552470, i64 231088888557560783, i64 -5371848155695373767, i64 -3053829723811815916, i64 -1239467653804708697], align 8
@.str.62 = private unnamed_addr constant [7 x i8] c"output\00", align 1
@.str.63 = private unnamed_addr constant [11 x i8] c"Value of: \00", align 1
@.str.64 = private unnamed_addr constant [2 x i8] c"\0A\00", align 1
@.str.65 = private unnamed_addr constant [11 x i8] c"Expected: \00", align 1
@.str.66 = private unnamed_addr constant [97 x i8] c"\0A  The matcher failed on the initial attempt; but passed when rerun to generate the explanation.\00", align 1
@.str.67 = private unnamed_addr constant [12 x i8] c"\0A  Actual: \00", align 1
@_ZTVN7testing7MatcherIRKiEE = linkonce_odr dso_local unnamed_addr constant { [6 x ptr] } { [6 x ptr] [ptr null, ptr @_ZTIN7testing7MatcherIRKiEE, ptr @_ZN7testing7MatcherIRKiED2Ev, ptr @_ZN7testing7MatcherIRKiED0Ev, ptr @_ZNK7testing8internal11MatcherBaseIRKiE10DescribeToEPSo, ptr @_ZNK7testing8internal11MatcherBaseIRKiE18DescribeNegationToEPSo] }, comdat, align 8
@_ZTSN7testing7MatcherIRKiEE = linkonce_odr dso_local constant [24 x i8] c"N7testing7MatcherIRKiEE\00", comdat, align 1
@_ZTSN7testing8internal11MatcherBaseIRKiEE = linkonce_odr dso_local constant [38 x i8] c"N7testing8internal11MatcherBaseIRKiEE\00", comdat, align 1
@_ZTSN7testing25MatcherDescriberInterfaceE = linkonce_odr dso_local constant [38 x i8] c"N7testing25MatcherDescriberInterfaceE\00", comdat, align 1
@_ZTIN7testing25MatcherDescriberInterfaceE = linkonce_odr dso_local constant { ptr, ptr } { ptr getelementptr inbounds (ptr, ptr @_ZTVN10__cxxabiv117__class_type_infoE, i64 2), ptr @_ZTSN7testing25MatcherDescriberInterfaceE }, comdat, align 8
@_ZTIN7testing8internal11MatcherBaseIRKiEE = linkonce_odr dso_local constant { ptr, ptr, i32, i32, ptr, i64 } { ptr getelementptr inbounds (ptr, ptr @_ZTVN10__cxxabiv121__vmi_class_type_infoE, i64 2), ptr @_ZTSN7testing8internal11MatcherBaseIRKiEE, i32 0, i32 1, ptr @_ZTIN7testing25MatcherDescriberInterfaceE, i64 0 }, comdat, align 8
@_ZTIN7testing7MatcherIRKiEE = linkonce_odr dso_local constant { ptr, ptr, ptr } { ptr getelementptr inbounds (ptr, ptr @_ZTVN10__cxxabiv120__si_class_type_infoE, i64 2), ptr @_ZTSN7testing7MatcherIRKiEE, ptr @_ZTIN7testing8internal11MatcherBaseIRKiEE }, comdat, align 8
@_ZTVN7testing8internal11MatcherBaseIRKiEE = linkonce_odr dso_local unnamed_addr constant { [6 x ptr] } { [6 x ptr] [ptr null, ptr @_ZTIN7testing8internal11MatcherBaseIRKiEE, ptr @_ZN7testing8internal11MatcherBaseIRKiED2Ev, ptr @_ZN7testing8internal11MatcherBaseIRKiED0Ev, ptr @_ZNK7testing8internal11MatcherBaseIRKiE10DescribeToEPSo, ptr @_ZNK7testing8internal11MatcherBaseIRKiE18DescribeNegationToEPSo] }, comdat, align 8
@.str.69 = private unnamed_addr constant [157 x i8] c"generated/home/dtcxzyw/WorkSpace/Projects/compilers/llvm-opt-benchmark/bench/abseil-cpp/bench_build/googletest-src/googletest/include/gtest/gtest-matchers.h\00", align 1
@.str.70 = private unnamed_addr constant [38 x i8] c"Condition vtable_ != nullptr failed. \00", align 1
@_ZZN7testing8internal11MatcherBaseIRKiE9GetVTableINS4_11ValuePolicyINS0_9EqMatcherIiEELb1EEEEEPKNS4_6VTableEvE7kVTable = linkonce_odr dso_local constant %"struct.testing::internal::MatcherBase<const int &>::VTable" { ptr @_ZN7testing8internal11MatcherBaseIRKiE19MatchAndExplainImplINS4_11ValuePolicyINS0_9EqMatcherIiEELb1EEEEEDTcldtclsrT_3Getfp_E15MatchAndExplainfp0_clptfp1_6streamEEERKS4_S3_PNS_19MatchResultListenerE, ptr @_ZN7testing8internal11MatcherBaseIRKiE12DescribeImplINS4_11ValuePolicyINS0_9EqMatcherIiEELb1EEEEEvRKS4_PSob, ptr @_ZN7testing8internal11MatcherBaseIRKiE16GetDescriberImplINS4_11ValuePolicyINS0_9EqMatcherIiEELb1EEEEEPKNS_25MatcherDescriberInterfaceERKS4_, ptr null }, comdat, align 8
@.str.71 = private unnamed_addr constant [2 x i8] c" \00", align 1
@.str.72 = private unnamed_addr constant [15 x i8] c"isn't equal to\00", align 1
@.str.73 = private unnamed_addr constant [12 x i8] c"is equal to\00", align 1
@_ZTVN7testing8internal22ElementsAreMatcherImplIRKSt6vectorIiSaIiEEEE = linkonce_odr dso_local unnamed_addr constant { [7 x ptr] } { [7 x ptr] [ptr null, ptr @_ZTIN7testing8internal22ElementsAreMatcherImplIRKSt6vectorIiSaIiEEEE, ptr @_ZN7testing8internal22ElementsAreMatcherImplIRKSt6vectorIiSaIiEEED2Ev, ptr @_ZN7testing8internal22ElementsAreMatcherImplIRKSt6vectorIiSaIiEEED0Ev, ptr @_ZNK7testing8internal22ElementsAreMatcherImplIRKSt6vectorIiSaIiEEE10DescribeToEPSo, ptr @_ZNK7testing8internal22ElementsAreMatcherImplIRKSt6vectorIiSaIiEEE18DescribeNegationToEPSo, ptr @_ZNK7testing8internal22ElementsAreMatcherImplIRKSt6vectorIiSaIiEEE15MatchAndExplainES6_PNS_19MatchResultListenerE] }, comdat, align 8
@_ZTSN7testing8internal22ElementsAreMatcherImplIRKSt6vectorIiSaIiEEEE = linkonce_odr dso_local constant [65 x i8] c"N7testing8internal22ElementsAreMatcherImplIRKSt6vectorIiSaIiEEEE\00", comdat, align 1
@_ZTSN7testing16MatcherInterfaceIRKSt6vectorIiSaIiEEEE = linkonce_odr dso_local constant [50 x i8] c"N7testing16MatcherInterfaceIRKSt6vectorIiSaIiEEEE\00", comdat, align 1
@_ZTIN7testing16MatcherInterfaceIRKSt6vectorIiSaIiEEEE = linkonce_odr dso_local constant { ptr, ptr, ptr } { ptr getelementptr inbounds (ptr, ptr @_ZTVN10__cxxabiv120__si_class_type_infoE, i64 2), ptr @_ZTSN7testing16MatcherInterfaceIRKSt6vectorIiSaIiEEEE, ptr @_ZTIN7testing25MatcherDescriberInterfaceE }, comdat, align 8
@_ZTIN7testing8internal22ElementsAreMatcherImplIRKSt6vectorIiSaIiEEEE = linkonce_odr dso_local constant { ptr, ptr, ptr } { ptr getelementptr inbounds (ptr, ptr @_ZTVN10__cxxabiv120__si_class_type_infoE, i64 2), ptr @_ZTSN7testing8internal22ElementsAreMatcherImplIRKSt6vectorIiSaIiEEEE, ptr @_ZTIN7testing16MatcherInterfaceIRKSt6vectorIiSaIiEEEE }, comdat, align 8
@.str.74 = private unnamed_addr constant [9 x i8] c"is empty\00", align 1
@.str.75 = private unnamed_addr constant [20 x i8] c"has 1 element that \00", align 1
@.str.76 = private unnamed_addr constant [5 x i8] c"has \00", align 1
@.str.77 = private unnamed_addr constant [8 x i8] c" where\0A\00", align 1
@.str.78 = private unnamed_addr constant [10 x i8] c"element #\00", align 1
@.str.79 = private unnamed_addr constant [3 x i8] c",\0A\00", align 1
@.str.80 = private unnamed_addr constant [9 x i8] c" element\00", align 1
@.str.81 = private unnamed_addr constant [10 x i8] c" elements\00", align 1
@.str.82 = private unnamed_addr constant [12 x i8] c"isn't empty\00", align 1
@.str.83 = private unnamed_addr constant [14 x i8] c"doesn't have \00", align 1
@.str.84 = private unnamed_addr constant [6 x i8] c", or\0A\00", align 1
@.str.85 = private unnamed_addr constant [11 x i8] c"which has \00", align 1
@.str.86 = private unnamed_addr constant [16 x i8] c"whose element #\00", align 1
@.str.87 = private unnamed_addr constant [15 x i8] c" doesn't match\00", align 1
@.str.88 = private unnamed_addr constant [7 x i8] c",\0Aand \00", align 1
@.str.89 = private unnamed_addr constant [11 x i8] c" matches, \00", align 1
@_ZTVN7testing8internal24DummyMatchResultListenerE = linkonce_odr dso_local unnamed_addr constant { [4 x ptr] } { [4 x ptr] [ptr null, ptr @_ZTIN7testing8internal24DummyMatchResultListenerE, ptr @_ZN7testing8internal24DummyMatchResultListenerD2Ev, ptr @_ZN7testing8internal24DummyMatchResultListenerD0Ev] }, comdat, align 8
@_ZTSN7testing8internal24DummyMatchResultListenerE = linkonce_odr dso_local constant [46 x i8] c"N7testing8internal24DummyMatchResultListenerE\00", comdat, align 1
@_ZTSN7testing19MatchResultListenerE = linkonce_odr dso_local constant [32 x i8] c"N7testing19MatchResultListenerE\00", comdat, align 1
@_ZTIN7testing19MatchResultListenerE = linkonce_odr dso_local constant { ptr, ptr } { ptr getelementptr inbounds (ptr, ptr @_ZTVN10__cxxabiv117__class_type_infoE, i64 2), ptr @_ZTSN7testing19MatchResultListenerE }, comdat, align 8
@_ZTIN7testing8internal24DummyMatchResultListenerE = linkonce_odr dso_local constant { ptr, ptr, ptr } { ptr getelementptr inbounds (ptr, ptr @_ZTVN10__cxxabiv120__si_class_type_infoE, i64 2), ptr @_ZTSN7testing8internal24DummyMatchResultListenerE, ptr @_ZTIN7testing19MatchResultListenerE }, comdat, align 8
@.str.90 = private unnamed_addr constant [3 x i8] c", \00", align 1
@_ZTVN7testing7MatcherIRKSt6vectorIiSaIiEEEE = linkonce_odr dso_local unnamed_addr constant { [6 x ptr] } { [6 x ptr] [ptr null, ptr @_ZTIN7testing7MatcherIRKSt6vectorIiSaIiEEEE, ptr @_ZN7testing7MatcherIRKSt6vectorIiSaIiEEED2Ev, ptr @_ZN7testing7MatcherIRKSt6vectorIiSaIiEEED0Ev, ptr @_ZNK7testing8internal11MatcherBaseIRKSt6vectorIiSaIiEEE10DescribeToEPSo, ptr @_ZNK7testing8internal11MatcherBaseIRKSt6vectorIiSaIiEEE18DescribeNegationToEPSo] }, comdat, align 8
@_ZTSN7testing7MatcherIRKSt6vectorIiSaIiEEEE = linkonce_odr dso_local constant [40 x i8] c"N7testing7MatcherIRKSt6vectorIiSaIiEEEE\00", comdat, align 1
@_ZTSN7testing8internal11MatcherBaseIRKSt6vectorIiSaIiEEEE = linkonce_odr dso_local constant [54 x i8] c"N7testing8internal11MatcherBaseIRKSt6vectorIiSaIiEEEE\00", comdat, align 1
@_ZTIN7testing8internal11MatcherBaseIRKSt6vectorIiSaIiEEEE = linkonce_odr dso_local constant { ptr, ptr, i32, i32, ptr, i64 } { ptr getelementptr inbounds (ptr, ptr @_ZTVN10__cxxabiv121__vmi_class_type_infoE, i64 2), ptr @_ZTSN7testing8internal11MatcherBaseIRKSt6vectorIiSaIiEEEE, i32 0, i32 1, ptr @_ZTIN7testing25MatcherDescriberInterfaceE, i64 0 }, comdat, align 8
@_ZTIN7testing7MatcherIRKSt6vectorIiSaIiEEEE = linkonce_odr dso_local constant { ptr, ptr, ptr } { ptr getelementptr inbounds (ptr, ptr @_ZTVN10__cxxabiv120__si_class_type_infoE, i64 2), ptr @_ZTSN7testing7MatcherIRKSt6vectorIiSaIiEEEE, ptr @_ZTIN7testing8internal11MatcherBaseIRKSt6vectorIiSaIiEEEE }, comdat, align 8
@_ZTVN7testing8internal11MatcherBaseIRKSt6vectorIiSaIiEEEE = linkonce_odr dso_local unnamed_addr constant { [6 x ptr] } { [6 x ptr] [ptr null, ptr @_ZTIN7testing8internal11MatcherBaseIRKSt6vectorIiSaIiEEEE, ptr @_ZN7testing8internal11MatcherBaseIRKSt6vectorIiSaIiEEED2Ev, ptr @_ZN7testing8internal11MatcherBaseIRKSt6vectorIiSaIiEEED0Ev, ptr @_ZNK7testing8internal11MatcherBaseIRKSt6vectorIiSaIiEEE10DescribeToEPSo, ptr @_ZNK7testing8internal11MatcherBaseIRKSt6vectorIiSaIiEEE18DescribeNegationToEPSo] }, comdat, align 8
@_ZZN7testing8internal11MatcherBaseIRKSt6vectorIiSaIiEEE9GetVTableINS7_11ValuePolicyIPKNS_16MatcherInterfaceIS6_EELb1EEEEEPKNS7_6VTableEvE7kVTable = linkonce_odr dso_local constant %"struct.testing::internal::MatcherBase<const std::vector<int> &>::VTable" { ptr @_ZN7testing8internal11MatcherBaseIRKSt6vectorIiSaIiEEE19MatchAndExplainImplINS7_11ValuePolicyIPKNS_16MatcherInterfaceIS6_EELb1EEEEEDTcldtclsrT_3Getfp_E15MatchAndExplainfp0_fp1_EERKS7_S6_PNS_19MatchResultListenerE, ptr @_ZN7testing8internal11MatcherBaseIRKSt6vectorIiSaIiEEE12DescribeImplINS7_11ValuePolicyIPKNS_16MatcherInterfaceIS6_EELb1EEEEEvRKS7_PSob, ptr @_ZN7testing8internal11MatcherBaseIRKSt6vectorIiSaIiEEE16GetDescriberImplINS7_11ValuePolicyIPKNS_16MatcherInterfaceIS6_EELb1EEEEEPKNS_25MatcherDescriberInterfaceERKS7_, ptr @_ZN7testing8internal13SharedPayloadISt10unique_ptrIKNS_16MatcherInterfaceIRKSt6vectorIiSaIiEEEESt14default_deleteISA_EEE7DestroyEPNS0_17SharedPayloadBaseE }, comdat, align 8
@_ZTVN7testing25StringMatchResultListenerE = linkonce_odr dso_local unnamed_addr constant { [4 x ptr] } { [4 x ptr] [ptr null, ptr @_ZTIN7testing25StringMatchResultListenerE, ptr @_ZN7testing25StringMatchResultListenerD2Ev, ptr @_ZN7testing25StringMatchResultListenerD0Ev] }, comdat, align 8
@_ZTSN7testing25StringMatchResultListenerE = linkonce_odr dso_local constant [38 x i8] c"N7testing25StringMatchResultListenerE\00", comdat, align 1
@_ZTIN7testing25StringMatchResultListenerE = linkonce_odr dso_local constant { ptr, ptr, ptr } { ptr getelementptr inbounds (ptr, ptr @_ZTVN10__cxxabiv120__si_class_type_infoE, i64 2), ptr @_ZTSN7testing25StringMatchResultListenerE, ptr @_ZTIN7testing19MatchResultListenerE }, comdat, align 8
@.str.91 = private unnamed_addr constant [11 x i8] c" (of type \00", align 1
@.str.92 = private unnamed_addr constant [5 x i8] c" ...\00", align 1
@_ZTSSt6vectorIiSaIiEE = linkonce_odr dso_local constant [18 x i8] c"St6vectorIiSaIiEE\00", comdat, align 1
@_ZTSSt12_Vector_baseIiSaIiEE = linkonce_odr dso_local constant [25 x i8] c"St12_Vector_baseIiSaIiEE\00", comdat, align 1
@_ZTISt12_Vector_baseIiSaIiEE = linkonce_odr dso_local constant { ptr, ptr } { ptr getelementptr inbounds (ptr, ptr @_ZTVN10__cxxabiv117__class_type_infoE, i64 2), ptr @_ZTSSt12_Vector_baseIiSaIiEE }, comdat, align 8
@_ZTISt6vectorIiSaIiEE = linkonce_odr dso_local constant { ptr, ptr, i32, i32, ptr, i64 } { ptr getelementptr inbounds (ptr, ptr @_ZTVN10__cxxabiv121__vmi_class_type_infoE, i64 2), ptr @_ZTSSt6vectorIiSaIiEE, i32 0, i32 1, ptr @_ZTISt12_Vector_baseIiSaIiEE, i64 0 }, comdat, align 8
@_ZZN7testing8internal31CanonicalizeForStdLibVersioningENSt7__cxx1112basic_stringIcSt11char_traitsIcESaIcEEEE6prefix = linkonce_odr dso_local constant [8 x i8] c"std::__\00", comdat, align 1
@.str.93 = private unnamed_addr constant [3 x i8] c"::\00", align 1
@_ZZN7testing8internal31CanonicalizeForStdLibVersioningENSt7__cxx1112basic_stringIcSt11char_traitsIcESaIcEEEE9to_search = linkonce_odr dso_local constant [3 x i8] c", \00", comdat, align 1
@_ZZN7testing8internal31CanonicalizeForStdLibVersioningENSt7__cxx1112basic_stringIcSt11char_traitsIcESaIcEEEE11replace_str = linkonce_odr dso_local constant [2 x i8] c",\00", comdat, align 1
@.str.94 = private unnamed_addr constant [3 x i8] c"<(\00", align 1
@_ZTVN7testing8internal15TestFactoryImplIN12_GLOBAL__N_141ZipfDistributionTest_AlgorithmBounds_TestEEE = internal unnamed_addr constant { [5 x ptr] } { [5 x ptr] [ptr null, ptr @_ZTIN7testing8internal15TestFactoryImplIN12_GLOBAL__N_141ZipfDistributionTest_AlgorithmBounds_TestEEE, ptr @_ZN7testing8internal15TestFactoryImplIN12_GLOBAL__N_141ZipfDistributionTest_AlgorithmBounds_TestEED2Ev, ptr @_ZN7testing8internal15TestFactoryImplIN12_GLOBAL__N_141ZipfDistributionTest_AlgorithmBounds_TestEED0Ev, ptr @_ZN7testing8internal15TestFactoryImplIN12_GLOBAL__N_141ZipfDistributionTest_AlgorithmBounds_TestEE10CreateTestEv] }, align 8
@_ZTSN7testing8internal15TestFactoryImplIN12_GLOBAL__N_141ZipfDistributionTest_AlgorithmBounds_TestEEE = internal constant [98 x i8] c"N7testing8internal15TestFactoryImplIN12_GLOBAL__N_141ZipfDistributionTest_AlgorithmBounds_TestEEE\00", align 1
@_ZTIN7testing8internal15TestFactoryImplIN12_GLOBAL__N_141ZipfDistributionTest_AlgorithmBounds_TestEEE = internal constant { ptr, ptr, ptr } { ptr getelementptr inbounds (ptr, ptr @_ZTVN10__cxxabiv120__si_class_type_infoE, i64 2), ptr @_ZTSN7testing8internal15TestFactoryImplIN12_GLOBAL__N_141ZipfDistributionTest_AlgorithmBounds_TestEEE, ptr @_ZTIN7testing8internal15TestFactoryBaseE }, align 8
@_ZTVN12_GLOBAL__N_141ZipfDistributionTest_AlgorithmBounds_TestE = internal unnamed_addr constant { [8 x ptr] } { [8 x ptr] [ptr null, ptr @_ZTIN12_GLOBAL__N_141ZipfDistributionTest_AlgorithmBounds_TestE, ptr @_ZN12_GLOBAL__N_141ZipfDistributionTest_AlgorithmBounds_TestD2Ev, ptr @_ZN12_GLOBAL__N_141ZipfDistributionTest_AlgorithmBounds_TestD0Ev, ptr @_ZN7testing4Test5SetUpEv, ptr @_ZN7testing4Test8TearDownEv, ptr @_ZN12_GLOBAL__N_141ZipfDistributionTest_AlgorithmBounds_Test8TestBodyEv, ptr @_ZN7testing4Test5SetupEv] }, align 8
@_ZTSN12_GLOBAL__N_141ZipfDistributionTest_AlgorithmBounds_TestE = internal constant [60 x i8] c"N12_GLOBAL__N_141ZipfDistributionTest_AlgorithmBounds_TestE\00", align 1
@_ZTIN12_GLOBAL__N_141ZipfDistributionTest_AlgorithmBounds_TestE = internal constant { ptr, ptr, ptr } { ptr getelementptr inbounds (ptr, ptr @_ZTVN10__cxxabiv120__si_class_type_infoE, i64 2), ptr @_ZTSN12_GLOBAL__N_141ZipfDistributionTest_AlgorithmBounds_TestE, ptr @_ZTIN7testing4TestE }, align 8
@.str.95 = private unnamed_addr constant [16 x i8] c"instance.second\00", align 1
@.str.96 = private unnamed_addr constant [11 x i8] c"dist(urbg)\00", align 1
@.str.97 = private unnamed_addr constant [50 x i8] c"basic_string: construction from null is not valid\00", align 1
@.str.98 = private unnamed_addr constant [2 x i8] c"/\00", align 1
@_ZTIi = external constant ptr
@_ZN7testing8internal12TypeIdHelperIN12_GLOBAL__N_125ZipfDistributionTypedTestIiEEE6dummy_E = internal global i8 0, align 1
@.str.99 = private unnamed_addr constant [166 x i8] c"generated/home/dtcxzyw/WorkSpace/Projects/compilers/llvm-opt-benchmark/bench/abseil-cpp/bench_build/googletest-src/googletest/include/gtest/internal/gtest-internal.h\00", align 1
@.str.100 = private unnamed_addr constant [51 x i8] c"Condition !test_case_fp || !test_suite_fp failed. \00", align 1
@.str.101 = private unnamed_addr constant [107 x i8] c"Test can not provide both SetUpTestSuite and SetUpTestCase, please make sure there is only one present at \00", align 1
@.str.102 = private unnamed_addr constant [2 x i8] c":\00", align 1
@.str.103 = private unnamed_addr constant [112 x i8] c"Test can not provide both TearDownTestSuite and TearDownTestCase, please make sure there is only one present at\00", align 1
@_ZTVN7testing8internal15TestFactoryImplIN12_GLOBAL__N_144ZipfDistributionTypedTest_SerializeTest_TestIiEEEE = internal unnamed_addr constant { [5 x ptr] } { [5 x ptr] [ptr null, ptr @_ZTIN7testing8internal15TestFactoryImplIN12_GLOBAL__N_144ZipfDistributionTypedTest_SerializeTest_TestIiEEEE, ptr @_ZN7testing8internal15TestFactoryImplIN12_GLOBAL__N_144ZipfDistributionTypedTest_SerializeTest_TestIiEEED2Ev, ptr @_ZN7testing8internal15TestFactoryImplIN12_GLOBAL__N_144ZipfDistributionTypedTest_SerializeTest_TestIiEEED0Ev, ptr @_ZN7testing8internal15TestFactoryImplIN12_GLOBAL__N_144ZipfDistributionTypedTest_SerializeTest_TestIiEEE10CreateTestEv] }, align 8
@_ZTSN7testing8internal15TestFactoryImplIN12_GLOBAL__N_144ZipfDistributionTypedTest_SerializeTest_TestIiEEEE = internal constant [104 x i8] c"N7testing8internal15TestFactoryImplIN12_GLOBAL__N_144ZipfDistributionTypedTest_SerializeTest_TestIiEEEE\00", align 1
@_ZTIN7testing8internal15TestFactoryImplIN12_GLOBAL__N_144ZipfDistributionTypedTest_SerializeTest_TestIiEEEE = internal constant { ptr, ptr, ptr } { ptr getelementptr inbounds (ptr, ptr @_ZTVN10__cxxabiv120__si_class_type_infoE, i64 2), ptr @_ZTSN7testing8internal15TestFactoryImplIN12_GLOBAL__N_144ZipfDistributionTypedTest_SerializeTest_TestIiEEEE, ptr @_ZTIN7testing8internal15TestFactoryBaseE }, align 8
@_ZTVN12_GLOBAL__N_144ZipfDistributionTypedTest_SerializeTest_TestIiEE = internal unnamed_addr constant { [8 x ptr] } { [8 x ptr] [ptr null, ptr @_ZTIN12_GLOBAL__N_144ZipfDistributionTypedTest_SerializeTest_TestIiEE, ptr @_ZN12_GLOBAL__N_144ZipfDistributionTypedTest_SerializeTest_TestIiED2Ev, ptr @_ZN12_GLOBAL__N_144ZipfDistributionTypedTest_SerializeTest_TestIiED0Ev, ptr @_ZN7testing4Test5SetUpEv, ptr @_ZN7testing4Test8TearDownEv, ptr @_ZN12_GLOBAL__N_144ZipfDistributionTypedTest_SerializeTest_TestIiE8TestBodyEv, ptr @_ZN7testing4Test5SetupEv] }, align 8
@_ZTSN12_GLOBAL__N_144ZipfDistributionTypedTest_SerializeTest_TestIiEE = internal constant [66 x i8] c"N12_GLOBAL__N_144ZipfDistributionTypedTest_SerializeTest_TestIiEE\00", align 1
@_ZTSN12_GLOBAL__N_125ZipfDistributionTypedTestIiEE = internal constant [47 x i8] c"N12_GLOBAL__N_125ZipfDistributionTypedTestIiEE\00", align 1
@_ZTIN12_GLOBAL__N_125ZipfDistributionTypedTestIiEE = internal constant { ptr, ptr, ptr } { ptr getelementptr inbounds (ptr, ptr @_ZTVN10__cxxabiv120__si_class_type_infoE, i64 2), ptr @_ZTSN12_GLOBAL__N_125ZipfDistributionTypedTestIiEE, ptr @_ZTIN7testing4TestE }, align 8
@_ZTIN12_GLOBAL__N_144ZipfDistributionTypedTest_SerializeTest_TestIiEE = internal constant { ptr, ptr, ptr } { ptr getelementptr inbounds (ptr, ptr @_ZTVN10__cxxabiv120__si_class_type_infoE, i64 2), ptr @_ZTSN12_GLOBAL__N_144ZipfDistributionTypedTest_SerializeTest_TestIiEE, ptr @_ZTIN12_GLOBAL__N_125ZipfDistributionTypedTestIiEE }, align 8
@.str.104 = private unnamed_addr constant [11 x i8] c"before.k()\00", align 1
@.str.105 = private unnamed_addr constant [10 x i8] c"param.k()\00", align 1
@.str.106 = private unnamed_addr constant [11 x i8] c"before.q()\00", align 1
@.str.107 = private unnamed_addr constant [10 x i8] c"param.q()\00", align 1
@.str.108 = private unnamed_addr constant [11 x i8] c"before.v()\00", align 1
@.str.109 = private unnamed_addr constant [10 x i8] c"param.v()\00", align 1
@.str.110 = private unnamed_addr constant [10 x i8] c"via_param\00", align 1
@.str.111 = private unnamed_addr constant [7 x i8] c"before\00", align 1
@.str.112 = private unnamed_addr constant [10 x i8] c"after.k()\00", align 1
@.str.113 = private unnamed_addr constant [10 x i8] c"after.q()\00", align 1
@.str.114 = private unnamed_addr constant [10 x i8] c"after.v()\00", align 1
@.str.115 = private unnamed_addr constant [15 x i8] c"before.param()\00", align 1
@.str.116 = private unnamed_addr constant [14 x i8] c"after.param()\00", align 1
@.str.117 = private unnamed_addr constant [6 x i8] c"after\00", align 1
@.str.118 = private unnamed_addr constant [7 x i8] c"sample\00", align 1
@.str.119 = private unnamed_addr constant [12 x i8] c"after.min()\00", align 1
@.str.120 = private unnamed_addr constant [12 x i8] c"after.max()\00", align 1
@.str.121 = private unnamed_addr constant [8 x i8] c"Range: \00", align 1
@.str.122 = private unnamed_addr constant [3 x i8] c"!=\00", align 1
@_ZTIa = external constant ptr
@_ZN7testing8internal12TypeIdHelperIN12_GLOBAL__N_125ZipfDistributionTypedTestIaEEE6dummy_E = internal global i8 0, align 1
@_ZTVN7testing8internal15TestFactoryImplIN12_GLOBAL__N_144ZipfDistributionTypedTest_SerializeTest_TestIaEEEE = internal unnamed_addr constant { [5 x ptr] } { [5 x ptr] [ptr null, ptr @_ZTIN7testing8internal15TestFactoryImplIN12_GLOBAL__N_144ZipfDistributionTypedTest_SerializeTest_TestIaEEEE, ptr @_ZN7testing8internal15TestFactoryImplIN12_GLOBAL__N_144ZipfDistributionTypedTest_SerializeTest_TestIaEEED2Ev, ptr @_ZN7testing8internal15TestFactoryImplIN12_GLOBAL__N_144ZipfDistributionTypedTest_SerializeTest_TestIaEEED0Ev, ptr @_ZN7testing8internal15TestFactoryImplIN12_GLOBAL__N_144ZipfDistributionTypedTest_SerializeTest_TestIaEEE10CreateTestEv] }, align 8
@_ZTSN7testing8internal15TestFactoryImplIN12_GLOBAL__N_144ZipfDistributionTypedTest_SerializeTest_TestIaEEEE = internal constant [104 x i8] c"N7testing8internal15TestFactoryImplIN12_GLOBAL__N_144ZipfDistributionTypedTest_SerializeTest_TestIaEEEE\00", align 1
@_ZTIN7testing8internal15TestFactoryImplIN12_GLOBAL__N_144ZipfDistributionTypedTest_SerializeTest_TestIaEEEE = internal constant { ptr, ptr, ptr } { ptr getelementptr inbounds (ptr, ptr @_ZTVN10__cxxabiv120__si_class_type_infoE, i64 2), ptr @_ZTSN7testing8internal15TestFactoryImplIN12_GLOBAL__N_144ZipfDistributionTypedTest_SerializeTest_TestIaEEEE, ptr @_ZTIN7testing8internal15TestFactoryBaseE }, align 8
@_ZTVN12_GLOBAL__N_144ZipfDistributionTypedTest_SerializeTest_TestIaEE = internal unnamed_addr constant { [8 x ptr] } { [8 x ptr] [ptr null, ptr @_ZTIN12_GLOBAL__N_144ZipfDistributionTypedTest_SerializeTest_TestIaEE, ptr @_ZN12_GLOBAL__N_144ZipfDistributionTypedTest_SerializeTest_TestIaED2Ev, ptr @_ZN12_GLOBAL__N_144ZipfDistributionTypedTest_SerializeTest_TestIaED0Ev, ptr @_ZN7testing4Test5SetUpEv, ptr @_ZN7testing4Test8TearDownEv, ptr @_ZN12_GLOBAL__N_144ZipfDistributionTypedTest_SerializeTest_TestIaE8TestBodyEv, ptr @_ZN7testing4Test5SetupEv] }, align 8
@_ZTSN12_GLOBAL__N_144ZipfDistributionTypedTest_SerializeTest_TestIaEE = internal constant [66 x i8] c"N12_GLOBAL__N_144ZipfDistributionTypedTest_SerializeTest_TestIaEE\00", align 1
@_ZTSN12_GLOBAL__N_125ZipfDistributionTypedTestIaEE = internal constant [47 x i8] c"N12_GLOBAL__N_125ZipfDistributionTypedTestIaEE\00", align 1
@_ZTIN12_GLOBAL__N_125ZipfDistributionTypedTestIaEE = internal constant { ptr, ptr, ptr } { ptr getelementptr inbounds (ptr, ptr @_ZTVN10__cxxabiv120__si_class_type_infoE, i64 2), ptr @_ZTSN12_GLOBAL__N_125ZipfDistributionTypedTestIaEE, ptr @_ZTIN7testing4TestE }, align 8
@_ZTIN12_GLOBAL__N_144ZipfDistributionTypedTest_SerializeTest_TestIaEE = internal constant { ptr, ptr, ptr } { ptr getelementptr inbounds (ptr, ptr @_ZTVN10__cxxabiv120__si_class_type_infoE, i64 2), ptr @_ZTSN12_GLOBAL__N_144ZipfDistributionTypedTest_SerializeTest_TestIaEE, ptr @_ZTIN12_GLOBAL__N_125ZipfDistributionTypedTestIaEE }, align 8
@_ZTIs = external constant ptr
@_ZN7testing8internal12TypeIdHelperIN12_GLOBAL__N_125ZipfDistributionTypedTestIsEEE6dummy_E = internal global i8 0, align 1
@_ZTVN7testing8internal15TestFactoryImplIN12_GLOBAL__N_144ZipfDistributionTypedTest_SerializeTest_TestIsEEEE = internal unnamed_addr constant { [5 x ptr] } { [5 x ptr] [ptr null, ptr @_ZTIN7testing8internal15TestFactoryImplIN12_GLOBAL__N_144ZipfDistributionTypedTest_SerializeTest_TestIsEEEE, ptr @_ZN7testing8internal15TestFactoryImplIN12_GLOBAL__N_144ZipfDistributionTypedTest_SerializeTest_TestIsEEED2Ev, ptr @_ZN7testing8internal15TestFactoryImplIN12_GLOBAL__N_144ZipfDistributionTypedTest_SerializeTest_TestIsEEED0Ev, ptr @_ZN7testing8internal15TestFactoryImplIN12_GLOBAL__N_144ZipfDistributionTypedTest_SerializeTest_TestIsEEE10CreateTestEv] }, align 8
@_ZTSN7testing8internal15TestFactoryImplIN12_GLOBAL__N_144ZipfDistributionTypedTest_SerializeTest_TestIsEEEE = internal constant [104 x i8] c"N7testing8internal15TestFactoryImplIN12_GLOBAL__N_144ZipfDistributionTypedTest_SerializeTest_TestIsEEEE\00", align 1
@_ZTIN7testing8internal15TestFactoryImplIN12_GLOBAL__N_144ZipfDistributionTypedTest_SerializeTest_TestIsEEEE = internal constant { ptr, ptr, ptr } { ptr getelementptr inbounds (ptr, ptr @_ZTVN10__cxxabiv120__si_class_type_infoE, i64 2), ptr @_ZTSN7testing8internal15TestFactoryImplIN12_GLOBAL__N_144ZipfDistributionTypedTest_SerializeTest_TestIsEEEE, ptr @_ZTIN7testing8internal15TestFactoryBaseE }, align 8
@_ZTVN12_GLOBAL__N_144ZipfDistributionTypedTest_SerializeTest_TestIsEE = internal unnamed_addr constant { [8 x ptr] } { [8 x ptr] [ptr null, ptr @_ZTIN12_GLOBAL__N_144ZipfDistributionTypedTest_SerializeTest_TestIsEE, ptr @_ZN12_GLOBAL__N_144ZipfDistributionTypedTest_SerializeTest_TestIsED2Ev, ptr @_ZN12_GLOBAL__N_144ZipfDistributionTypedTest_SerializeTest_TestIsED0Ev, ptr @_ZN7testing4Test5SetUpEv, ptr @_ZN7testing4Test8TearDownEv, ptr @_ZN12_GLOBAL__N_144ZipfDistributionTypedTest_SerializeTest_TestIsE8TestBodyEv, ptr @_ZN7testing4Test5SetupEv] }, align 8
@_ZTSN12_GLOBAL__N_144ZipfDistributionTypedTest_SerializeTest_TestIsEE = internal constant [66 x i8] c"N12_GLOBAL__N_144ZipfDistributionTypedTest_SerializeTest_TestIsEE\00", align 1
@_ZTSN12_GLOBAL__N_125ZipfDistributionTypedTestIsEE = internal constant [47 x i8] c"N12_GLOBAL__N_125ZipfDistributionTypedTestIsEE\00", align 1
@_ZTIN12_GLOBAL__N_125ZipfDistributionTypedTestIsEE = internal constant { ptr, ptr, ptr } { ptr getelementptr inbounds (ptr, ptr @_ZTVN10__cxxabiv120__si_class_type_infoE, i64 2), ptr @_ZTSN12_GLOBAL__N_125ZipfDistributionTypedTestIsEE, ptr @_ZTIN7testing4TestE }, align 8
@_ZTIN12_GLOBAL__N_144ZipfDistributionTypedTest_SerializeTest_TestIsEE = internal constant { ptr, ptr, ptr } { ptr getelementptr inbounds (ptr, ptr @_ZTVN10__cxxabiv120__si_class_type_infoE, i64 2), ptr @_ZTSN12_GLOBAL__N_144ZipfDistributionTypedTest_SerializeTest_TestIsEE, ptr @_ZTIN12_GLOBAL__N_125ZipfDistributionTypedTestIsEE }, align 8
@_ZTIl = external constant ptr
@_ZN7testing8internal12TypeIdHelperIN12_GLOBAL__N_125ZipfDistributionTypedTestIlEEE6dummy_E = internal global i8 0, align 1
@_ZTVN7testing8internal15TestFactoryImplIN12_GLOBAL__N_144ZipfDistributionTypedTest_SerializeTest_TestIlEEEE = internal unnamed_addr constant { [5 x ptr] } { [5 x ptr] [ptr null, ptr @_ZTIN7testing8internal15TestFactoryImplIN12_GLOBAL__N_144ZipfDistributionTypedTest_SerializeTest_TestIlEEEE, ptr @_ZN7testing8internal15TestFactoryImplIN12_GLOBAL__N_144ZipfDistributionTypedTest_SerializeTest_TestIlEEED2Ev, ptr @_ZN7testing8internal15TestFactoryImplIN12_GLOBAL__N_144ZipfDistributionTypedTest_SerializeTest_TestIlEEED0Ev, ptr @_ZN7testing8internal15TestFactoryImplIN12_GLOBAL__N_144ZipfDistributionTypedTest_SerializeTest_TestIlEEE10CreateTestEv] }, align 8
@_ZTSN7testing8internal15TestFactoryImplIN12_GLOBAL__N_144ZipfDistributionTypedTest_SerializeTest_TestIlEEEE = internal constant [104 x i8] c"N7testing8internal15TestFactoryImplIN12_GLOBAL__N_144ZipfDistributionTypedTest_SerializeTest_TestIlEEEE\00", align 1
@_ZTIN7testing8internal15TestFactoryImplIN12_GLOBAL__N_144ZipfDistributionTypedTest_SerializeTest_TestIlEEEE = internal constant { ptr, ptr, ptr } { ptr getelementptr inbounds (ptr, ptr @_ZTVN10__cxxabiv120__si_class_type_infoE, i64 2), ptr @_ZTSN7testing8internal15TestFactoryImplIN12_GLOBAL__N_144ZipfDistributionTypedTest_SerializeTest_TestIlEEEE, ptr @_ZTIN7testing8internal15TestFactoryBaseE }, align 8
@_ZTVN12_GLOBAL__N_144ZipfDistributionTypedTest_SerializeTest_TestIlEE = internal unnamed_addr constant { [8 x ptr] } { [8 x ptr] [ptr null, ptr @_ZTIN12_GLOBAL__N_144ZipfDistributionTypedTest_SerializeTest_TestIlEE, ptr @_ZN12_GLOBAL__N_144ZipfDistributionTypedTest_SerializeTest_TestIlED2Ev, ptr @_ZN12_GLOBAL__N_144ZipfDistributionTypedTest_SerializeTest_TestIlED0Ev, ptr @_ZN7testing4Test5SetUpEv, ptr @_ZN7testing4Test8TearDownEv, ptr @_ZN12_GLOBAL__N_144ZipfDistributionTypedTest_SerializeTest_TestIlE8TestBodyEv, ptr @_ZN7testing4Test5SetupEv] }, align 8
@_ZTSN12_GLOBAL__N_144ZipfDistributionTypedTest_SerializeTest_TestIlEE = internal constant [66 x i8] c"N12_GLOBAL__N_144ZipfDistributionTypedTest_SerializeTest_TestIlEE\00", align 1
@_ZTSN12_GLOBAL__N_125ZipfDistributionTypedTestIlEE = internal constant [47 x i8] c"N12_GLOBAL__N_125ZipfDistributionTypedTestIlEE\00", align 1
@_ZTIN12_GLOBAL__N_125ZipfDistributionTypedTestIlEE = internal constant { ptr, ptr, ptr } { ptr getelementptr inbounds (ptr, ptr @_ZTVN10__cxxabiv120__si_class_type_infoE, i64 2), ptr @_ZTSN12_GLOBAL__N_125ZipfDistributionTypedTestIlEE, ptr @_ZTIN7testing4TestE }, align 8
@_ZTIN12_GLOBAL__N_144ZipfDistributionTypedTest_SerializeTest_TestIlEE = internal constant { ptr, ptr, ptr } { ptr getelementptr inbounds (ptr, ptr @_ZTVN10__cxxabiv120__si_class_type_infoE, i64 2), ptr @_ZTSN12_GLOBAL__N_144ZipfDistributionTypedTest_SerializeTest_TestIlEE, ptr @_ZTIN12_GLOBAL__N_125ZipfDistributionTypedTestIlEE }, align 8
@_ZTIh = external constant ptr
@_ZN7testing8internal12TypeIdHelperIN12_GLOBAL__N_125ZipfDistributionTypedTestIhEEE6dummy_E = internal global i8 0, align 1
@_ZTVN7testing8internal15TestFactoryImplIN12_GLOBAL__N_144ZipfDistributionTypedTest_SerializeTest_TestIhEEEE = internal unnamed_addr constant { [5 x ptr] } { [5 x ptr] [ptr null, ptr @_ZTIN7testing8internal15TestFactoryImplIN12_GLOBAL__N_144ZipfDistributionTypedTest_SerializeTest_TestIhEEEE, ptr @_ZN7testing8internal15TestFactoryImplIN12_GLOBAL__N_144ZipfDistributionTypedTest_SerializeTest_TestIhEEED2Ev, ptr @_ZN7testing8internal15TestFactoryImplIN12_GLOBAL__N_144ZipfDistributionTypedTest_SerializeTest_TestIhEEED0Ev, ptr @_ZN7testing8internal15TestFactoryImplIN12_GLOBAL__N_144ZipfDistributionTypedTest_SerializeTest_TestIhEEE10CreateTestEv] }, align 8
@_ZTSN7testing8internal15TestFactoryImplIN12_GLOBAL__N_144ZipfDistributionTypedTest_SerializeTest_TestIhEEEE = internal constant [104 x i8] c"N7testing8internal15TestFactoryImplIN12_GLOBAL__N_144ZipfDistributionTypedTest_SerializeTest_TestIhEEEE\00", align 1
@_ZTIN7testing8internal15TestFactoryImplIN12_GLOBAL__N_144ZipfDistributionTypedTest_SerializeTest_TestIhEEEE = internal constant { ptr, ptr, ptr } { ptr getelementptr inbounds (ptr, ptr @_ZTVN10__cxxabiv120__si_class_type_infoE, i64 2), ptr @_ZTSN7testing8internal15TestFactoryImplIN12_GLOBAL__N_144ZipfDistributionTypedTest_SerializeTest_TestIhEEEE, ptr @_ZTIN7testing8internal15TestFactoryBaseE }, align 8
@_ZTVN12_GLOBAL__N_144ZipfDistributionTypedTest_SerializeTest_TestIhEE = internal unnamed_addr constant { [8 x ptr] } { [8 x ptr] [ptr null, ptr @_ZTIN12_GLOBAL__N_144ZipfDistributionTypedTest_SerializeTest_TestIhEE, ptr @_ZN12_GLOBAL__N_144ZipfDistributionTypedTest_SerializeTest_TestIhED2Ev, ptr @_ZN12_GLOBAL__N_144ZipfDistributionTypedTest_SerializeTest_TestIhED0Ev, ptr @_ZN7testing4Test5SetUpEv, ptr @_ZN7testing4Test8TearDownEv, ptr @_ZN12_GLOBAL__N_144ZipfDistributionTypedTest_SerializeTest_TestIhE8TestBodyEv, ptr @_ZN7testing4Test5SetupEv] }, align 8
@_ZTSN12_GLOBAL__N_144ZipfDistributionTypedTest_SerializeTest_TestIhEE = internal constant [66 x i8] c"N12_GLOBAL__N_144ZipfDistributionTypedTest_SerializeTest_TestIhEE\00", align 1
@_ZTSN12_GLOBAL__N_125ZipfDistributionTypedTestIhEE = internal constant [47 x i8] c"N12_GLOBAL__N_125ZipfDistributionTypedTestIhEE\00", align 1
@_ZTIN12_GLOBAL__N_125ZipfDistributionTypedTestIhEE = internal constant { ptr, ptr, ptr } { ptr getelementptr inbounds (ptr, ptr @_ZTVN10__cxxabiv120__si_class_type_infoE, i64 2), ptr @_ZTSN12_GLOBAL__N_125ZipfDistributionTypedTestIhEE, ptr @_ZTIN7testing4TestE }, align 8
@_ZTIN12_GLOBAL__N_144ZipfDistributionTypedTest_SerializeTest_TestIhEE = internal constant { ptr, ptr, ptr } { ptr getelementptr inbounds (ptr, ptr @_ZTVN10__cxxabiv120__si_class_type_infoE, i64 2), ptr @_ZTSN12_GLOBAL__N_144ZipfDistributionTypedTest_SerializeTest_TestIhEE, ptr @_ZTIN12_GLOBAL__N_125ZipfDistributionTypedTestIhEE }, align 8
@_ZTIt = external constant ptr
@_ZN7testing8internal12TypeIdHelperIN12_GLOBAL__N_125ZipfDistributionTypedTestItEEE6dummy_E = internal global i8 0, align 1
@_ZTVN7testing8internal15TestFactoryImplIN12_GLOBAL__N_144ZipfDistributionTypedTest_SerializeTest_TestItEEEE = internal unnamed_addr constant { [5 x ptr] } { [5 x ptr] [ptr null, ptr @_ZTIN7testing8internal15TestFactoryImplIN12_GLOBAL__N_144ZipfDistributionTypedTest_SerializeTest_TestItEEEE, ptr @_ZN7testing8internal15TestFactoryImplIN12_GLOBAL__N_144ZipfDistributionTypedTest_SerializeTest_TestItEEED2Ev, ptr @_ZN7testing8internal15TestFactoryImplIN12_GLOBAL__N_144ZipfDistributionTypedTest_SerializeTest_TestItEEED0Ev, ptr @_ZN7testing8internal15TestFactoryImplIN12_GLOBAL__N_144ZipfDistributionTypedTest_SerializeTest_TestItEEE10CreateTestEv] }, align 8
@_ZTSN7testing8internal15TestFactoryImplIN12_GLOBAL__N_144ZipfDistributionTypedTest_SerializeTest_TestItEEEE = internal constant [104 x i8] c"N7testing8internal15TestFactoryImplIN12_GLOBAL__N_144ZipfDistributionTypedTest_SerializeTest_TestItEEEE\00", align 1
@_ZTIN7testing8internal15TestFactoryImplIN12_GLOBAL__N_144ZipfDistributionTypedTest_SerializeTest_TestItEEEE = internal constant { ptr, ptr, ptr } { ptr getelementptr inbounds (ptr, ptr @_ZTVN10__cxxabiv120__si_class_type_infoE, i64 2), ptr @_ZTSN7testing8internal15TestFactoryImplIN12_GLOBAL__N_144ZipfDistributionTypedTest_SerializeTest_TestItEEEE, ptr @_ZTIN7testing8internal15TestFactoryBaseE }, align 8
@_ZTVN12_GLOBAL__N_144ZipfDistributionTypedTest_SerializeTest_TestItEE = internal unnamed_addr constant { [8 x ptr] } { [8 x ptr] [ptr null, ptr @_ZTIN12_GLOBAL__N_144ZipfDistributionTypedTest_SerializeTest_TestItEE, ptr @_ZN12_GLOBAL__N_144ZipfDistributionTypedTest_SerializeTest_TestItED2Ev, ptr @_ZN12_GLOBAL__N_144ZipfDistributionTypedTest_SerializeTest_TestItED0Ev, ptr @_ZN7testing4Test5SetUpEv, ptr @_ZN7testing4Test8TearDownEv, ptr @_ZN12_GLOBAL__N_144ZipfDistributionTypedTest_SerializeTest_TestItE8TestBodyEv, ptr @_ZN7testing4Test5SetupEv] }, align 8
@_ZTSN12_GLOBAL__N_144ZipfDistributionTypedTest_SerializeTest_TestItEE = internal constant [66 x i8] c"N12_GLOBAL__N_144ZipfDistributionTypedTest_SerializeTest_TestItEE\00", align 1
@_ZTSN12_GLOBAL__N_125ZipfDistributionTypedTestItEE = internal constant [47 x i8] c"N12_GLOBAL__N_125ZipfDistributionTypedTestItEE\00", align 1
@_ZTIN12_GLOBAL__N_125ZipfDistributionTypedTestItEE = internal constant { ptr, ptr, ptr } { ptr getelementptr inbounds (ptr, ptr @_ZTVN10__cxxabiv120__si_class_type_infoE, i64 2), ptr @_ZTSN12_GLOBAL__N_125ZipfDistributionTypedTestItEE, ptr @_ZTIN7testing4TestE }, align 8
@_ZTIN12_GLOBAL__N_144ZipfDistributionTypedTest_SerializeTest_TestItEE = internal constant { ptr, ptr, ptr } { ptr getelementptr inbounds (ptr, ptr @_ZTVN10__cxxabiv120__si_class_type_infoE, i64 2), ptr @_ZTSN12_GLOBAL__N_144ZipfDistributionTypedTest_SerializeTest_TestItEE, ptr @_ZTIN12_GLOBAL__N_125ZipfDistributionTypedTestItEE }, align 8
@_ZTIj = external constant ptr
@_ZN7testing8internal12TypeIdHelperIN12_GLOBAL__N_125ZipfDistributionTypedTestIjEEE6dummy_E = internal global i8 0, align 1
@_ZTVN7testing8internal15TestFactoryImplIN12_GLOBAL__N_144ZipfDistributionTypedTest_SerializeTest_TestIjEEEE = internal unnamed_addr constant { [5 x ptr] } { [5 x ptr] [ptr null, ptr @_ZTIN7testing8internal15TestFactoryImplIN12_GLOBAL__N_144ZipfDistributionTypedTest_SerializeTest_TestIjEEEE, ptr @_ZN7testing8internal15TestFactoryImplIN12_GLOBAL__N_144ZipfDistributionTypedTest_SerializeTest_TestIjEEED2Ev, ptr @_ZN7testing8internal15TestFactoryImplIN12_GLOBAL__N_144ZipfDistributionTypedTest_SerializeTest_TestIjEEED0Ev, ptr @_ZN7testing8internal15TestFactoryImplIN12_GLOBAL__N_144ZipfDistributionTypedTest_SerializeTest_TestIjEEE10CreateTestEv] }, align 8
@_ZTSN7testing8internal15TestFactoryImplIN12_GLOBAL__N_144ZipfDistributionTypedTest_SerializeTest_TestIjEEEE = internal constant [104 x i8] c"N7testing8internal15TestFactoryImplIN12_GLOBAL__N_144ZipfDistributionTypedTest_SerializeTest_TestIjEEEE\00", align 1
@_ZTIN7testing8internal15TestFactoryImplIN12_GLOBAL__N_144ZipfDistributionTypedTest_SerializeTest_TestIjEEEE = internal constant { ptr, ptr, ptr } { ptr getelementptr inbounds (ptr, ptr @_ZTVN10__cxxabiv120__si_class_type_infoE, i64 2), ptr @_ZTSN7testing8internal15TestFactoryImplIN12_GLOBAL__N_144ZipfDistributionTypedTest_SerializeTest_TestIjEEEE, ptr @_ZTIN7testing8internal15TestFactoryBaseE }, align 8
@_ZTVN12_GLOBAL__N_144ZipfDistributionTypedTest_SerializeTest_TestIjEE = internal unnamed_addr constant { [8 x ptr] } { [8 x ptr] [ptr null, ptr @_ZTIN12_GLOBAL__N_144ZipfDistributionTypedTest_SerializeTest_TestIjEE, ptr @_ZN12_GLOBAL__N_144ZipfDistributionTypedTest_SerializeTest_TestIjED2Ev, ptr @_ZN12_GLOBAL__N_144ZipfDistributionTypedTest_SerializeTest_TestIjED0Ev, ptr @_ZN7testing4Test5SetUpEv, ptr @_ZN7testing4Test8TearDownEv, ptr @_ZN12_GLOBAL__N_144ZipfDistributionTypedTest_SerializeTest_TestIjE8TestBodyEv, ptr @_ZN7testing4Test5SetupEv] }, align 8
@_ZTSN12_GLOBAL__N_144ZipfDistributionTypedTest_SerializeTest_TestIjEE = internal constant [66 x i8] c"N12_GLOBAL__N_144ZipfDistributionTypedTest_SerializeTest_TestIjEE\00", align 1
@_ZTSN12_GLOBAL__N_125ZipfDistributionTypedTestIjEE = internal constant [47 x i8] c"N12_GLOBAL__N_125ZipfDistributionTypedTestIjEE\00", align 1
@_ZTIN12_GLOBAL__N_125ZipfDistributionTypedTestIjEE = internal constant { ptr, ptr, ptr } { ptr getelementptr inbounds (ptr, ptr @_ZTVN10__cxxabiv120__si_class_type_infoE, i64 2), ptr @_ZTSN12_GLOBAL__N_125ZipfDistributionTypedTestIjEE, ptr @_ZTIN7testing4TestE }, align 8
@_ZTIN12_GLOBAL__N_144ZipfDistributionTypedTest_SerializeTest_TestIjEE = internal constant { ptr, ptr, ptr } { ptr getelementptr inbounds (ptr, ptr @_ZTVN10__cxxabiv120__si_class_type_infoE, i64 2), ptr @_ZTSN12_GLOBAL__N_144ZipfDistributionTypedTest_SerializeTest_TestIjEE, ptr @_ZTIN12_GLOBAL__N_125ZipfDistributionTypedTestIjEE }, align 8
@_ZTIm = external constant ptr
@_ZN7testing8internal12TypeIdHelperIN12_GLOBAL__N_125ZipfDistributionTypedTestImEEE6dummy_E = internal global i8 0, align 1
@_ZTVN7testing8internal15TestFactoryImplIN12_GLOBAL__N_144ZipfDistributionTypedTest_SerializeTest_TestImEEEE = internal unnamed_addr constant { [5 x ptr] } { [5 x ptr] [ptr null, ptr @_ZTIN7testing8internal15TestFactoryImplIN12_GLOBAL__N_144ZipfDistributionTypedTest_SerializeTest_TestImEEEE, ptr @_ZN7testing8internal15TestFactoryImplIN12_GLOBAL__N_144ZipfDistributionTypedTest_SerializeTest_TestImEEED2Ev, ptr @_ZN7testing8internal15TestFactoryImplIN12_GLOBAL__N_144ZipfDistributionTypedTest_SerializeTest_TestImEEED0Ev, ptr @_ZN7testing8internal15TestFactoryImplIN12_GLOBAL__N_144ZipfDistributionTypedTest_SerializeTest_TestImEEE10CreateTestEv] }, align 8
@_ZTSN7testing8internal15TestFactoryImplIN12_GLOBAL__N_144ZipfDistributionTypedTest_SerializeTest_TestImEEEE = internal constant [104 x i8] c"N7testing8internal15TestFactoryImplIN12_GLOBAL__N_144ZipfDistributionTypedTest_SerializeTest_TestImEEEE\00", align 1
@_ZTIN7testing8internal15TestFactoryImplIN12_GLOBAL__N_144ZipfDistributionTypedTest_SerializeTest_TestImEEEE = internal constant { ptr, ptr, ptr } { ptr getelementptr inbounds (ptr, ptr @_ZTVN10__cxxabiv120__si_class_type_infoE, i64 2), ptr @_ZTSN7testing8internal15TestFactoryImplIN12_GLOBAL__N_144ZipfDistributionTypedTest_SerializeTest_TestImEEEE, ptr @_ZTIN7testing8internal15TestFactoryBaseE }, align 8
@_ZTVN12_GLOBAL__N_144ZipfDistributionTypedTest_SerializeTest_TestImEE = internal unnamed_addr constant { [8 x ptr] } { [8 x ptr] [ptr null, ptr @_ZTIN12_GLOBAL__N_144ZipfDistributionTypedTest_SerializeTest_TestImEE, ptr @_ZN12_GLOBAL__N_144ZipfDistributionTypedTest_SerializeTest_TestImED2Ev, ptr @_ZN12_GLOBAL__N_144ZipfDistributionTypedTest_SerializeTest_TestImED0Ev, ptr @_ZN7testing4Test5SetUpEv, ptr @_ZN7testing4Test8TearDownEv, ptr @_ZN12_GLOBAL__N_144ZipfDistributionTypedTest_SerializeTest_TestImE8TestBodyEv, ptr @_ZN7testing4Test5SetupEv] }, align 8
@_ZTSN12_GLOBAL__N_144ZipfDistributionTypedTest_SerializeTest_TestImEE = internal constant [66 x i8] c"N12_GLOBAL__N_144ZipfDistributionTypedTest_SerializeTest_TestImEE\00", align 1
@_ZTSN12_GLOBAL__N_125ZipfDistributionTypedTestImEE = internal constant [47 x i8] c"N12_GLOBAL__N_125ZipfDistributionTypedTestImEE\00", align 1
@_ZTIN12_GLOBAL__N_125ZipfDistributionTypedTestImEE = internal constant { ptr, ptr, ptr } { ptr getelementptr inbounds (ptr, ptr @_ZTVN10__cxxabiv120__si_class_type_infoE, i64 2), ptr @_ZTSN12_GLOBAL__N_125ZipfDistributionTypedTestImEE, ptr @_ZTIN7testing4TestE }, align 8
@_ZTIN12_GLOBAL__N_144ZipfDistributionTypedTest_SerializeTest_TestImEE = internal constant { ptr, ptr, ptr } { ptr getelementptr inbounds (ptr, ptr @_ZTVN10__cxxabiv120__si_class_type_infoE, i64 2), ptr @_ZTSN12_GLOBAL__N_144ZipfDistributionTypedTest_SerializeTest_TestImEE, ptr @_ZTIN12_GLOBAL__N_125ZipfDistributionTypedTestImEE }, align 8
@_ZN7testing8internal12TypeIdHelperIN12_GLOBAL__N_18ZipfTestEE6dummy_E = internal global i8 0, align 1
@_ZTSN7testing8internal30ParameterizedTestSuiteInfoBaseE = linkonce_odr dso_local constant [52 x i8] c"N7testing8internal30ParameterizedTestSuiteInfoBaseE\00", comdat, align 1
@_ZTIN7testing8internal30ParameterizedTestSuiteInfoBaseE = linkonce_odr dso_local constant { ptr, ptr } { ptr getelementptr inbounds (ptr, ptr @_ZTVN10__cxxabiv117__class_type_infoE, i64 2), ptr @_ZTSN7testing8internal30ParameterizedTestSuiteInfoBaseE }, comdat, align 8
@_ZTSN7testing8internal26ParameterizedTestSuiteInfoIN12_GLOBAL__N_18ZipfTestEEE = internal constant [75 x i8] c"N7testing8internal26ParameterizedTestSuiteInfoIN12_GLOBAL__N_18ZipfTestEEE\00", align 1
@_ZTIN7testing8internal26ParameterizedTestSuiteInfoIN12_GLOBAL__N_18ZipfTestEEE = internal constant { ptr, ptr, ptr } { ptr getelementptr inbounds (ptr, ptr @_ZTVN10__cxxabiv120__si_class_type_infoE, i64 2), ptr @_ZTSN7testing8internal26ParameterizedTestSuiteInfoIN12_GLOBAL__N_18ZipfTestEEE, ptr @_ZTIN7testing8internal30ParameterizedTestSuiteInfoBaseE }, align 8
@_ZTVN7testing8internal26ParameterizedTestSuiteInfoIN12_GLOBAL__N_18ZipfTestEEE = internal unnamed_addr constant { [7 x ptr] } { [7 x ptr] [ptr null, ptr @_ZTIN7testing8internal26ParameterizedTestSuiteInfoIN12_GLOBAL__N_18ZipfTestEEE, ptr @_ZN7testing8internal26ParameterizedTestSuiteInfoIN12_GLOBAL__N_18ZipfTestEED2Ev, ptr @_ZN7testing8internal26ParameterizedTestSuiteInfoIN12_GLOBAL__N_18ZipfTestEED0Ev, ptr @_ZNK7testing8internal26ParameterizedTestSuiteInfoIN12_GLOBAL__N_18ZipfTestEE16GetTestSuiteNameB5cxx11Ev, ptr @_ZNK7testing8internal26ParameterizedTestSuiteInfoIN12_GLOBAL__N_18ZipfTestEE18GetTestSuiteTypeIdEv, ptr @_ZN7testing8internal26ParameterizedTestSuiteInfoIN12_GLOBAL__N_18ZipfTestEE13RegisterTestsEv] }, align 8
@.str.123 = private unnamed_addr constant [48 x i8] c"Condition IsValidParamName(param_name) failed. \00", align 1
@.str.124 = private unnamed_addr constant [26 x i8] c"Parameterized test name '\00", align 1
@.str.125 = private unnamed_addr constant [103 x i8] c"' is invalid (contains spaces, dashes, or any non-alphanumeric characters other than underscores), in \00", align 1
@.str.126 = private unnamed_addr constant [7 x i8] c" line \00", align 1
@.str.127 = private unnamed_addr constant [59 x i8] c"Condition test_param_names.count(param_name) == 0 failed. \00", align 1
@.str.128 = private unnamed_addr constant [36 x i8] c"Duplicate parameterized test name '\00", align 1
@.str.129 = private unnamed_addr constant [7 x i8] c"', in \00", align 1
@llvm.global_ctors = appending global [1 x { i32, ptr, ptr }] [{ i32, ptr, ptr } { i32 65535, ptr @_GLOBAL__sub_I_zipf_distribution_test.cc, ptr null }]

declare void @_ZNSt8ios_base4InitC1Ev(ptr noundef nonnull align 1 dereferenceable(1)) unnamed_addr #0

; Function Attrs: nounwind
declare void @_ZNSt8ios_base4InitD1Ev(ptr noundef nonnull align 1 dereferenceable(1)) unnamed_addr #1

; Function Attrs: nofree nounwind
declare i32 @__cxa_atexit(ptr, ptr, ptr) local_unnamed_addr #2

; Function Attrs: nounwind
declare void @_ZNSaIcEC1Ev(ptr noundef nonnull align 1 dereferenceable(1)) unnamed_addr #1

declare i32 @__gxx_personality_v0(...)

; Function Attrs: mustprogress nounwind uwtable
define linkonce_odr dso_local void @_ZNSt6vectorINSt7__cxx1112basic_stringIcSt11char_traitsIcESaIcEEESaIS5_EED2Ev(ptr noundef nonnull align 8 dereferenceable(24) %this) unnamed_addr #3 comdat align 2 personality ptr @__gxx_personality_v0 {
entry:
  %0 = load ptr, ptr %this, align 8
  %_M_finish = getelementptr inbounds %"struct.std::_Vector_base<std::__cxx11::basic_string<char>, std::allocator<std::__cxx11::basic_string<char>>>::_Vector_impl_data", ptr %this, i64 0, i32 1
  %1 = load ptr, ptr %_M_finish, align 8
  %cmp.not3.i.i.i = icmp eq ptr %0, %1
  br i1 %cmp.not3.i.i.i, label %invoke.cont, label %for.body.i.i.i

for.body.i.i.i:                                   ; preds = %entry, %for.body.i.i.i
  %__first.addr.04.i.i.i = phi ptr [ %incdec.ptr.i.i.i, %for.body.i.i.i ], [ %0, %entry ]
  tail call void @_ZNSt7__cxx1112basic_stringIcSt11char_traitsIcESaIcEED1Ev(ptr noundef nonnull align 8 dereferenceable(32) %__first.addr.04.i.i.i) #28
  %incdec.ptr.i.i.i = getelementptr inbounds %"class.std::__cxx11::basic_string", ptr %__first.addr.04.i.i.i, i64 1
  %cmp.not.i.i.i = icmp eq ptr %incdec.ptr.i.i.i, %1
  br i1 %cmp.not.i.i.i, label %invoke.contthread-pre-split, label %for.body.i.i.i, !llvm.loop !5

invoke.contthread-pre-split:                      ; preds = %for.body.i.i.i
  %.pr = load ptr, ptr %this, align 8
  br label %invoke.cont

invoke.cont:                                      ; preds = %invoke.contthread-pre-split, %entry
  %2 = phi ptr [ %.pr, %invoke.contthread-pre-split ], [ %0, %entry ]
  %tobool.not.i.i = icmp eq ptr %2, null
  br i1 %tobool.not.i.i, label %_ZNSt12_Vector_baseINSt7__cxx1112basic_stringIcSt11char_traitsIcESaIcEEESaIS5_EED2Ev.exit, label %if.then.i.i

if.then.i.i:                                      ; preds = %invoke.cont
  tail call void @_ZdlPv(ptr noundef nonnull %2) #29
  br label %_ZNSt12_Vector_baseINSt7__cxx1112basic_stringIcSt11char_traitsIcESaIcEEESaIS5_EED2Ev.exit

_ZNSt12_Vector_baseINSt7__cxx1112basic_stringIcSt11char_traitsIcESaIcEEESaIS5_EED2Ev.exit: ; preds = %invoke.cont, %if.then.i.i
  ret void
}

; Function Attrs: mustprogress nounwind uwtable
define linkonce_odr dso_local void @_ZN7testing8internal12CodeLocationD2Ev(ptr noundef nonnull align 8 dereferenceable(36) %this) unnamed_addr #3 comdat align 2 {
entry:
  tail call void @_ZNSt7__cxx1112basic_stringIcSt11char_traitsIcESaIcEED1Ev(ptr noundef nonnull align 8 dereferenceable(32) %this) #28
  ret void
}

; Function Attrs: nounwind
declare void @_ZNSt7__cxx1112basic_stringIcSt11char_traitsIcESaIcEED1Ev(ptr noundef nonnull align 8 dereferenceable(32)) unnamed_addr #1

; Function Attrs: nounwind
declare void @_ZNSaIcED1Ev(ptr noundef nonnull align 1 dereferenceable(1)) unnamed_addr #1

declare noundef ptr @_ZN7testing8UnitTest11GetInstanceEv() local_unnamed_addr #0

declare noundef nonnull align 8 dereferenceable(24) ptr @_ZN7testing8UnitTest27parameterized_test_registryEv(ptr noundef nonnull align 8 dereferenceable(72)) local_unnamed_addr #0

; Function Attrs: mustprogress uwtable
define internal fastcc noundef ptr @_ZN7testing8internal30ParameterizedTestSuiteRegistry25GetTestSuitePatternHolderIN12_GLOBAL__N_18ZipfTestEEEPNS0_26ParameterizedTestSuiteInfoIT_EEPKcNS0_12CodeLocationE(ptr nocapture noundef nonnull align 8 dereferenceable(24) %this, ptr noundef %code_location) unnamed_addr #4 align 2 personality ptr @__gxx_personality_v0 {
entry:
  %__guard.i = alloca %struct._Guard, align 8
  %ref.tmp.i16 = alloca %"class.std::allocator", align 1
  %ref.tmp.i = alloca %"class.testing::internal::GTestLog", align 4
  %agg.tmp = alloca %"struct.testing::internal::CodeLocation", align 8
  %agg.tmp19 = alloca %"struct.testing::internal::CodeLocation", align 8
  %0 = load ptr, ptr %this, align 8
  %_M_finish.i = getelementptr inbounds %"struct.std::_Vector_base<testing::internal::ParameterizedTestSuiteInfoBase *, std::allocator<testing::internal::ParameterizedTestSuiteInfoBase *>>::_Vector_impl_data", ptr %this, i64 0, i32 1
  %1 = load ptr, ptr %_M_finish.i, align 8
  %cmp.i.not7 = icmp eq ptr %0, %1
  br i1 %cmp.i.not7, label %if.then17, label %for.body

for.body:                                         ; preds = %entry, %for.inc
  %__begin3.sroa.0.08 = phi ptr [ %incdec.ptr.i, %for.inc ], [ %0, %entry ]
  %2 = load ptr, ptr %__begin3.sroa.0.08, align 8
  %vtable = load ptr, ptr %2, align 8
  %vfn = getelementptr inbounds ptr, ptr %vtable, i64 2
  %3 = load ptr, ptr %vfn, align 8
  %call6 = tail call noundef nonnull align 8 dereferenceable(32) ptr %3(ptr noundef nonnull align 8 dereferenceable(8) %2)
  %call.i = tail call noundef i32 @_ZNKSt7__cxx1112basic_stringIcSt11char_traitsIcESaIcEE7compareEPKc(ptr noundef nonnull align 8 dereferenceable(32) %call6, ptr noundef nonnull @.str.7) #28
  %cmp.i11 = icmp eq i32 %call.i, 0
  br i1 %cmp.i11, label %if.then, label %for.inc

if.then:                                          ; preds = %for.body
  %4 = load ptr, ptr %__begin3.sroa.0.08, align 8
  %vtable8 = load ptr, ptr %4, align 8
  %vfn9 = getelementptr inbounds ptr, ptr %vtable8, i64 3
  %5 = load ptr, ptr %vfn9, align 8
  %call10 = tail call noundef ptr %5(ptr noundef nonnull align 8 dereferenceable(8) %4)
  %cmp.not = icmp eq ptr %call10, @_ZN7testing8internal12TypeIdHelperIN12_GLOBAL__N_18ZipfTestEE6dummy_E
  br i1 %cmp.not, label %if.else, label %if.then12

if.then12:                                        ; preds = %if.then
  call void @_ZNSt7__cxx1112basic_stringIcSt11char_traitsIcESaIcEEC1ERKS4_(ptr noundef nonnull align 8 dereferenceable(32) %agg.tmp, ptr noundef nonnull align 8 dereferenceable(32) %code_location)
  %line.i = getelementptr inbounds %"struct.testing::internal::CodeLocation", ptr %agg.tmp, i64 0, i32 1
  %line3.i = getelementptr inbounds %"struct.testing::internal::CodeLocation", ptr %code_location, i64 0, i32 1
  %6 = load i32, ptr %line3.i, align 8
  store i32 %6, ptr %line.i, align 8
  invoke void @_ZN7testing8internal26ReportInvalidTestSuiteTypeEPKcNS0_12CodeLocationE(ptr noundef nonnull @.str.7, ptr noundef nonnull %agg.tmp)
          to label %invoke.cont unwind label %lpad

invoke.cont:                                      ; preds = %if.then12
  call void @_ZN7testing8internal12CodeLocationD2Ev(ptr noundef nonnull align 8 dereferenceable(36) %agg.tmp) #28
  call void @_ZN7testing8internal5posix5AbortEv() #30
  unreachable

lpad:                                             ; preds = %if.then12
  %7 = landingpad { ptr, i32 }
          cleanup
  call void @_ZNSt7__cxx1112basic_stringIcSt11char_traitsIcESaIcEED1Ev(ptr noundef nonnull align 8 dereferenceable(32) %agg.tmp) #28
  br label %common.resume

if.else:                                          ; preds = %if.then
  %8 = load ptr, ptr %__begin3.sroa.0.08, align 8
  call void @llvm.lifetime.start.p0(i64 4, ptr nonnull %ref.tmp.i)
  %cmp.i12 = icmp eq ptr %8, null
  br i1 %cmp.i12, label %lor.end.i, label %dynamic_cast.notnull.i

dynamic_cast.notnull.i:                           ; preds = %if.else
  %9 = tail call ptr @__dynamic_cast(ptr nonnull %8, ptr nonnull @_ZTIN7testing8internal30ParameterizedTestSuiteInfoBaseE, ptr nonnull @_ZTIN7testing8internal26ParameterizedTestSuiteInfoIN12_GLOBAL__N_18ZipfTestEEE, i64 0) #28
  %cmp1.i = icmp ne ptr %9, null
  br label %lor.end.i

lor.end.i:                                        ; preds = %dynamic_cast.notnull.i, %if.else
  %10 = phi i1 [ true, %if.else ], [ %cmp1.i, %dynamic_cast.notnull.i ]
  %call.i13 = tail call noundef zeroext i1 @_ZN7testing8internal6IsTrueEb(i1 noundef zeroext %10)
  br i1 %call.i13, label %for.end, label %if.else.i

if.else.i:                                        ; preds = %lor.end.i
  call void @_ZN7testing8internal8GTestLogC1ENS0_16GTestLogSeverityEPKci(ptr noundef nonnull align 4 dereferenceable(4) %ref.tmp.i, i32 noundef 3, ptr noundef nonnull @.str.53, i32 noundef 1172)
  %call3.i = invoke noundef nonnull align 8 dereferenceable(8) ptr @_ZStlsISt11char_traitsIcEERSt13basic_ostreamIcT_ES5_PKc(ptr noundef nonnull align 8 dereferenceable(8) @_ZSt4cerr, ptr noundef nonnull @.str.54)
          to label %invoke.cont.i unwind label %lpad.i

invoke.cont.i:                                    ; preds = %if.else.i
  call void @_ZN7testing8internal8GTestLogD1Ev(ptr noundef nonnull align 4 dereferenceable(4) %ref.tmp.i) #28
  br label %for.end

common.resume:                                    ; preds = %lpad, %cleanup.action, %lpad.i
  %common.resume.op = phi { ptr, i32 } [ %11, %lpad.i ], [ %7, %lpad ], [ %.pn, %cleanup.action ]
  resume { ptr, i32 } %common.resume.op

lpad.i:                                           ; preds = %if.else.i
  %11 = landingpad { ptr, i32 }
          cleanup
  call void @_ZN7testing8internal8GTestLogD1Ev(ptr noundef nonnull align 4 dereferenceable(4) %ref.tmp.i) #28
  br label %common.resume

for.inc:                                          ; preds = %for.body
  %incdec.ptr.i = getelementptr inbounds ptr, ptr %__begin3.sroa.0.08, i64 1
  %cmp.i.not = icmp eq ptr %incdec.ptr.i, %1
  br i1 %cmp.i.not, label %if.then17, label %for.body

for.end:                                          ; preds = %invoke.cont.i, %lor.end.i
  call void @llvm.lifetime.end.p0(i64 4, ptr nonnull %ref.tmp.i)
  br i1 %cmp.i12, label %if.then17, label %if.end25

if.then17:                                        ; preds = %for.inc, %entry, %for.end
  %call18 = call noalias noundef nonnull dereferenceable(128) ptr @_Znwm(i64 noundef 128) #31
  invoke void @_ZNSt7__cxx1112basic_stringIcSt11char_traitsIcESaIcEEC1ERKS4_(ptr noundef nonnull align 8 dereferenceable(32) %agg.tmp19, ptr noundef nonnull align 8 dereferenceable(32) %code_location)
          to label %invoke.cont21 unwind label %lpad20

invoke.cont21:                                    ; preds = %if.then17
  %line.i14 = getelementptr inbounds %"struct.testing::internal::CodeLocation", ptr %agg.tmp19, i64 0, i32 1
  %line3.i15 = getelementptr inbounds %"struct.testing::internal::CodeLocation", ptr %code_location, i64 0, i32 1
  %12 = load i32, ptr %line3.i15, align 8
  store i32 %12, ptr %line.i14, align 8
  call void @llvm.lifetime.start.p0(i64 1, ptr nonnull %ref.tmp.i16)
  store ptr getelementptr inbounds ({ [7 x ptr] }, ptr @_ZTVN7testing8internal26ParameterizedTestSuiteInfoIN12_GLOBAL__N_18ZipfTestEEE, i64 0, inrange i32 0, i64 2), ptr %call18, align 8
  %test_suite_name_.i = getelementptr inbounds %"class.testing::internal::ParameterizedTestSuiteInfo", ptr %call18, i64 0, i32 1
  call void @_ZNSaIcEC1Ev(ptr noundef nonnull align 1 dereferenceable(1) %ref.tmp.i16) #28
  %call.i2.i = invoke noundef ptr @_ZNSt7__cxx1112basic_stringIcSt11char_traitsIcESaIcEE13_M_local_dataEv(ptr noundef nonnull align 8 dereferenceable(32) %test_suite_name_.i)
          to label %call.i.noexc.i unwind label %lpad.i17

call.i.noexc.i:                                   ; preds = %invoke.cont21
  invoke void @_ZNSt7__cxx1112basic_stringIcSt11char_traitsIcESaIcEE12_Alloc_hiderC1EPcRKS3_(ptr noundef nonnull align 8 dereferenceable(8) %test_suite_name_.i, ptr noundef %call.i2.i, ptr noundef nonnull align 1 dereferenceable(1) %ref.tmp.i16)
          to label %.noexc.i unwind label %lpad.i17

.noexc.i:                                         ; preds = %call.i.noexc.i
  call void @llvm.lifetime.start.p0(i64 8, ptr nonnull %__guard.i)
  %call.i.i = invoke noundef ptr @_ZNSt7__cxx1112basic_stringIcSt11char_traitsIcESaIcEE13_M_local_dataEv(ptr noundef nonnull align 8 dereferenceable(32) %test_suite_name_.i)
          to label %if.end.i unwind label %terminate.lpad.i.i

terminate.lpad.i.i:                               ; preds = %.noexc.i
  %13 = landingpad { ptr, i32 }
          catch ptr null
  %14 = extractvalue { ptr, i32 } %13, 0
  call void @__clang_call_terminate(ptr %14) #32
  unreachable

if.end.i:                                         ; preds = %.noexc.i
  store ptr %test_suite_name_.i, ptr %__guard.i, align 8
  %call4.i = invoke noundef ptr @_ZNKSt7__cxx1112basic_stringIcSt11char_traitsIcESaIcEE7_M_dataEv(ptr noundef nonnull align 8 dereferenceable(32) %test_suite_name_.i)
          to label %invoke.cont.i21 unwind label %lpad.i20

invoke.cont.i21:                                  ; preds = %if.end.i
  call void @_ZNSt7__cxx1112basic_stringIcSt11char_traitsIcESaIcEE13_S_copy_charsEPcPKcS7_(ptr noundef %call4.i, ptr noundef nonnull @.str.7, ptr noundef nonnull getelementptr inbounds ([9 x i8], ptr @.str.7, i64 0, i64 8)) #28
  store ptr null, ptr %__guard.i, align 8
  invoke void @_ZNSt7__cxx1112basic_stringIcSt11char_traitsIcESaIcEE13_M_set_lengthEm(ptr noundef nonnull align 8 dereferenceable(32) %test_suite_name_.i, i64 noundef 8)
          to label %invoke.cont.i18 unwind label %lpad.i20

lpad.i20:                                         ; preds = %invoke.cont.i21, %if.end.i
  %15 = landingpad { ptr, i32 }
          cleanup
  call void @_ZZNSt7__cxx1112basic_stringIcSt11char_traitsIcESaIcEE12_M_constructIPKcEEvT_S8_St20forward_iterator_tagEN6_GuardD2Ev(ptr noundef nonnull align 8 dereferenceable(8) %__guard.i) #28
  call void @_ZNSaIcED2Ev(ptr noundef nonnull align 1 dereferenceable(1) %test_suite_name_.i) #28
  br label %lpad.body.i

invoke.cont.i18:                                  ; preds = %invoke.cont.i21
  call void @llvm.lifetime.end.p0(i64 8, ptr nonnull %__guard.i)
  call void @_ZNSaIcED1Ev(ptr noundef nonnull align 1 dereferenceable(1) %ref.tmp.i16) #28
  %code_location_.i = getelementptr inbounds %"class.testing::internal::ParameterizedTestSuiteInfo", ptr %call18, i64 0, i32 2
  invoke void @_ZNSt7__cxx1112basic_stringIcSt11char_traitsIcESaIcEEC1ERKS4_(ptr noundef nonnull align 8 dereferenceable(32) %code_location_.i, ptr noundef nonnull align 8 dereferenceable(32) %agg.tmp19)
          to label %invoke.cont23 unwind label %lpad2.i

lpad.i17:                                         ; preds = %call.i.noexc.i, %invoke.cont21
  %16 = landingpad { ptr, i32 }
          cleanup
  br label %lpad.body.i

lpad.body.i:                                      ; preds = %lpad.i17, %lpad.i20
  %eh.lpad-body.i = phi { ptr, i32 } [ %16, %lpad.i17 ], [ %15, %lpad.i20 ]
  call void @_ZNSaIcED1Ev(ptr noundef nonnull align 1 dereferenceable(1) %ref.tmp.i16) #28
  br label %lpad22.body

lpad2.i:                                          ; preds = %invoke.cont.i18
  %17 = landingpad { ptr, i32 }
          cleanup
  call void @_ZNSt7__cxx1112basic_stringIcSt11char_traitsIcESaIcEED1Ev(ptr noundef nonnull align 8 dereferenceable(32) %test_suite_name_.i) #28
  br label %lpad22.body

invoke.cont23:                                    ; preds = %invoke.cont.i18
  %line.i.i = getelementptr inbounds %"class.testing::internal::ParameterizedTestSuiteInfo", ptr %call18, i64 0, i32 2, i32 1
  %18 = load i32, ptr %line.i14, align 8
  store i32 %18, ptr %line.i.i, align 8
  %tests_.i = getelementptr inbounds %"class.testing::internal::ParameterizedTestSuiteInfo", ptr %call18, i64 0, i32 3
  call void @llvm.memset.p0.i64(ptr noundef nonnull align 8 dereferenceable(48) %tests_.i, i8 0, i64 48, i1 false)
  call void @llvm.lifetime.end.p0(i64 1, ptr nonnull %ref.tmp.i16)
  call void @_ZNSt7__cxx1112basic_stringIcSt11char_traitsIcESaIcEED1Ev(ptr noundef nonnull align 8 dereferenceable(32) %agg.tmp19) #28
  %19 = load ptr, ptr %_M_finish.i, align 8
  %_M_end_of_storage.i.i = getelementptr inbounds %"struct.std::_Vector_base<testing::internal::ParameterizedTestSuiteInfoBase *, std::allocator<testing::internal::ParameterizedTestSuiteInfoBase *>>::_Vector_impl_data", ptr %this, i64 0, i32 2
  %20 = load ptr, ptr %_M_end_of_storage.i.i, align 8
  %cmp.not.i.i = icmp eq ptr %19, %20
  br i1 %cmp.not.i.i, label %if.else.i.i, label %if.then.i.i

if.then.i.i:                                      ; preds = %invoke.cont23
  store ptr %call18, ptr %19, align 8
  %21 = load ptr, ptr %_M_finish.i, align 8
  %incdec.ptr.i.i = getelementptr inbounds ptr, ptr %21, i64 1
  store ptr %incdec.ptr.i.i, ptr %_M_finish.i, align 8
  br label %if.end25

if.else.i.i:                                      ; preds = %invoke.cont23
  %22 = load ptr, ptr %this, align 8
  %sub.ptr.lhs.cast.i.i.i.i.i = ptrtoint ptr %19 to i64
  %sub.ptr.rhs.cast.i.i.i.i.i = ptrtoint ptr %22 to i64
  %sub.ptr.sub.i.i.i.i.i = sub i64 %sub.ptr.lhs.cast.i.i.i.i.i, %sub.ptr.rhs.cast.i.i.i.i.i
  %cmp.i.i.i.i = icmp eq i64 %sub.ptr.sub.i.i.i.i.i, 9223372036854775800
  br i1 %cmp.i.i.i.i, label %if.then.i.i.i.i, label %_ZNKSt6vectorIPN7testing8internal30ParameterizedTestSuiteInfoBaseESaIS3_EE12_M_check_lenEmPKc.exit.i.i.i

if.then.i.i.i.i:                                  ; preds = %if.else.i.i
  call void @_ZSt20__throw_length_errorPKc(ptr noundef nonnull @.str.15) #30
  unreachable

_ZNKSt6vectorIPN7testing8internal30ParameterizedTestSuiteInfoBaseESaIS3_EE12_M_check_lenEmPKc.exit.i.i.i: ; preds = %if.else.i.i
  %sub.ptr.div.i.i.i.i.i = ashr exact i64 %sub.ptr.sub.i.i.i.i.i, 3
  %.sroa.speculated.i.i.i.i = call i64 @llvm.umax.i64(i64 %sub.ptr.div.i.i.i.i.i, i64 1)
  %add.i.i.i.i = add i64 %.sroa.speculated.i.i.i.i, %sub.ptr.div.i.i.i.i.i
  %cmp7.i.i.i.i = icmp ult i64 %add.i.i.i.i, %sub.ptr.div.i.i.i.i.i
  %cmp9.i.i.i.i = icmp ugt i64 %add.i.i.i.i, 1152921504606846975
  %or.cond.i.i.i.i = or i1 %cmp7.i.i.i.i, %cmp9.i.i.i.i
  %cond.i.i.i.i = select i1 %or.cond.i.i.i.i, i64 1152921504606846975, i64 %add.i.i.i.i
  %cmp.not.i.i.i.i = icmp eq i64 %cond.i.i.i.i, 0
  br i1 %cmp.not.i.i.i.i, label %_ZNSt12_Vector_baseIPN7testing8internal30ParameterizedTestSuiteInfoBaseESaIS3_EE11_M_allocateEm.exit.i.i.i, label %_ZNSt16allocator_traitsISaIPN7testing8internal30ParameterizedTestSuiteInfoBaseEEE8allocateERS4_m.exit.i.i.i.i

_ZNSt16allocator_traitsISaIPN7testing8internal30ParameterizedTestSuiteInfoBaseEEE8allocateERS4_m.exit.i.i.i.i: ; preds = %_ZNKSt6vectorIPN7testing8internal30ParameterizedTestSuiteInfoBaseESaIS3_EE12_M_check_lenEmPKc.exit.i.i.i
  %mul.i.i.i.i.i.i = shl nuw nsw i64 %cond.i.i.i.i, 3
  %call5.i.i.i.i.i.i = call noalias noundef nonnull ptr @_Znwm(i64 noundef %mul.i.i.i.i.i.i) #31
  br label %_ZNSt12_Vector_baseIPN7testing8internal30ParameterizedTestSuiteInfoBaseESaIS3_EE11_M_allocateEm.exit.i.i.i

_ZNSt12_Vector_baseIPN7testing8internal30ParameterizedTestSuiteInfoBaseESaIS3_EE11_M_allocateEm.exit.i.i.i: ; preds = %_ZNSt16allocator_traitsISaIPN7testing8internal30ParameterizedTestSuiteInfoBaseEEE8allocateERS4_m.exit.i.i.i.i, %_ZNKSt6vectorIPN7testing8internal30ParameterizedTestSuiteInfoBaseESaIS3_EE12_M_check_lenEmPKc.exit.i.i.i
  %cond.i10.i.i.i = phi ptr [ %call5.i.i.i.i.i.i, %_ZNSt16allocator_traitsISaIPN7testing8internal30ParameterizedTestSuiteInfoBaseEEE8allocateERS4_m.exit.i.i.i.i ], [ null, %_ZNKSt6vectorIPN7testing8internal30ParameterizedTestSuiteInfoBaseESaIS3_EE12_M_check_lenEmPKc.exit.i.i.i ]
  %add.ptr.i.i.i = getelementptr inbounds ptr, ptr %cond.i10.i.i.i, i64 %sub.ptr.div.i.i.i.i.i
  store ptr %call18, ptr %add.ptr.i.i.i, align 8
  %cmp.i.i.i11.i.i.i = icmp sgt i64 %sub.ptr.div.i.i.i.i.i, 0
  br i1 %cmp.i.i.i11.i.i.i, label %if.then.i.i.i12.i.i.i, label %_ZNSt6vectorIPN7testing8internal30ParameterizedTestSuiteInfoBaseESaIS3_EE11_S_relocateEPS3_S6_S6_RS4_.exit20.i.i.i

if.then.i.i.i12.i.i.i:                            ; preds = %_ZNSt12_Vector_baseIPN7testing8internal30ParameterizedTestSuiteInfoBaseESaIS3_EE11_M_allocateEm.exit.i.i.i
  call void @llvm.memmove.p0.p0.i64(ptr nonnull align 8 %cond.i10.i.i.i, ptr align 8 %22, i64 %sub.ptr.sub.i.i.i.i.i, i1 false)
  br label %_ZNSt6vectorIPN7testing8internal30ParameterizedTestSuiteInfoBaseESaIS3_EE11_S_relocateEPS3_S6_S6_RS4_.exit20.i.i.i

_ZNSt6vectorIPN7testing8internal30ParameterizedTestSuiteInfoBaseESaIS3_EE11_S_relocateEPS3_S6_S6_RS4_.exit20.i.i.i: ; preds = %if.then.i.i.i12.i.i.i, %_ZNSt12_Vector_baseIPN7testing8internal30ParameterizedTestSuiteInfoBaseESaIS3_EE11_M_allocateEm.exit.i.i.i
  %incdec.ptr.i.i.i = getelementptr inbounds ptr, ptr %add.ptr.i.i.i, i64 1
  %tobool.not.i.i.i.i = icmp eq ptr %22, null
  br i1 %tobool.not.i.i.i.i, label %_ZNSt6vectorIPN7testing8internal30ParameterizedTestSuiteInfoBaseESaIS3_EE17_M_realloc_insertIJS3_EEEvN9__gnu_cxx17__normal_iteratorIPS3_S5_EEDpOT_.exit.i.i, label %if.then.i21.i.i.i

if.then.i21.i.i.i:                                ; preds = %_ZNSt6vectorIPN7testing8internal30ParameterizedTestSuiteInfoBaseESaIS3_EE11_S_relocateEPS3_S6_S6_RS4_.exit20.i.i.i
  call void @_ZdlPv(ptr noundef nonnull %22) #29
  br label %_ZNSt6vectorIPN7testing8internal30ParameterizedTestSuiteInfoBaseESaIS3_EE17_M_realloc_insertIJS3_EEEvN9__gnu_cxx17__normal_iteratorIPS3_S5_EEDpOT_.exit.i.i

_ZNSt6vectorIPN7testing8internal30ParameterizedTestSuiteInfoBaseESaIS3_EE17_M_realloc_insertIJS3_EEEvN9__gnu_cxx17__normal_iteratorIPS3_S5_EEDpOT_.exit.i.i: ; preds = %if.then.i21.i.i.i, %_ZNSt6vectorIPN7testing8internal30ParameterizedTestSuiteInfoBaseESaIS3_EE11_S_relocateEPS3_S6_S6_RS4_.exit20.i.i.i
  store ptr %cond.i10.i.i.i, ptr %this, align 8
  store ptr %incdec.ptr.i.i.i, ptr %_M_finish.i, align 8
  %add.ptr19.i.i.i = getelementptr inbounds ptr, ptr %cond.i10.i.i.i, i64 %cond.i.i.i.i
  store ptr %add.ptr19.i.i.i, ptr %_M_end_of_storage.i.i, align 8
  br label %if.end25

lpad20:                                           ; preds = %if.then17
  %23 = landingpad { ptr, i32 }
          cleanup
  br label %cleanup.action

lpad22.body:                                      ; preds = %lpad.body.i, %lpad2.i
  %eh.lpad-body = phi { ptr, i32 } [ %17, %lpad2.i ], [ %eh.lpad-body.i, %lpad.body.i ]
  call void @_ZNSt7__cxx1112basic_stringIcSt11char_traitsIcESaIcEED1Ev(ptr noundef nonnull align 8 dereferenceable(32) %agg.tmp19) #28
  br label %cleanup.action

cleanup.action:                                   ; preds = %lpad20, %lpad22.body
  %.pn = phi { ptr, i32 } [ %eh.lpad-body, %lpad22.body ], [ %23, %lpad20 ]
  call void @_ZdlPv(ptr noundef nonnull %call18) #29
  br label %common.resume

if.end25:                                         ; preds = %_ZNSt6vectorIPN7testing8internal30ParameterizedTestSuiteInfoBaseESaIS3_EE17_M_realloc_insertIJS3_EEEvN9__gnu_cxx17__normal_iteratorIPS3_S5_EEDpOT_.exit.i.i, %if.then.i.i, %for.end
  %typed_test_info.1 = phi ptr [ %8, %for.end ], [ %call18, %if.then.i.i ], [ %call18, %_ZNSt6vectorIPN7testing8internal30ParameterizedTestSuiteInfoBaseESaIS3_EE17_M_realloc_insertIJS3_EEEvN9__gnu_cxx17__normal_iteratorIPS3_S5_EEDpOT_.exit.i.i ]
  ret ptr %typed_test_info.1
}

; Function Attrs: mustprogress uwtable
define internal void @_ZN12_GLOBAL__N_132gtest_AllZipfTest_EvalGenerator_Ev(ptr noalias sret(%"class.testing::internal::ParamGenerator") align 8 %agg.result) #4 personality ptr @__gxx_personality_v0 {
entry:
  %ref.tmp = alloca %"class.std::vector.80", align 8
  call fastcc void @_ZN12_GLOBAL__N_19GenParamsEv(ptr noalias nonnull align 8 %ref.tmp)
  %0 = load ptr, ptr %ref.tmp, align 8
  %_M_finish.i.i = getelementptr inbounds %"struct.std::_Vector_base<absl::zipf_distribution<unsigned long>::param_type, std::allocator<absl::zipf_distribution<unsigned long>::param_type>>::_Vector_impl_data", ptr %ref.tmp, i64 0, i32 1
  %1 = load ptr, ptr %_M_finish.i.i, align 8, !noalias !7
  invoke void @_ZN7testing8ValuesInIN9__gnu_cxx17__normal_iteratorIPKN4absl17zipf_distributionImE10param_typeESt6vectorIS6_SaIS6_EEEEEENS_8internal14ParamGeneratorINSt15iterator_traitsIT_E10value_typeEEESG_SG_(ptr sret(%"class.testing::internal::ParamGenerator") align 8 %agg.result, ptr %0, ptr %1)
          to label %invoke.cont unwind label %lpad

invoke.cont:                                      ; preds = %entry
  %tobool.not.i.i.i = icmp eq ptr %0, null
  br i1 %tobool.not.i.i.i, label %_ZNSt6vectorIN4absl17zipf_distributionImE10param_typeESaIS3_EED2Ev.exit, label %if.then.i.i.i

if.then.i.i.i:                                    ; preds = %invoke.cont
  tail call void @_ZdlPv(ptr noundef nonnull %0) #29
  br label %_ZNSt6vectorIN4absl17zipf_distributionImE10param_typeESaIS3_EED2Ev.exit

_ZNSt6vectorIN4absl17zipf_distributionImE10param_typeESaIS3_EED2Ev.exit: ; preds = %invoke.cont, %if.then.i.i.i
  ret void

lpad:                                             ; preds = %entry
  %2 = landingpad { ptr, i32 }
          cleanup
  %tobool.not.i.i.i1 = icmp eq ptr %0, null
  br i1 %tobool.not.i.i.i1, label %_ZNSt6vectorIN4absl17zipf_distributionImE10param_typeESaIS3_EED2Ev.exit3, label %if.then.i.i.i2

if.then.i.i.i2:                                   ; preds = %lpad
  tail call void @_ZdlPv(ptr noundef nonnull %0) #29
  br label %_ZNSt6vectorIN4absl17zipf_distributionImE10param_typeESaIS3_EED2Ev.exit3

_ZNSt6vectorIN4absl17zipf_distributionImE10param_typeESaIS3_EED2Ev.exit3: ; preds = %lpad, %if.then.i.i.i2
  resume { ptr, i32 } %2
}

; Function Attrs: mustprogress uwtable
define internal void @_ZN12_GLOBAL__N_135gtest_AllZipfTest_EvalGenerateName_B5cxx11ERKN7testing13TestParamInfoIN4absl17zipf_distributionImE10param_typeEEE(ptr noalias sret(%"class.std::__cxx11::basic_string") align 8 %agg.result, ptr nocapture noundef nonnull readonly align 8 dereferenceable(72) %info) #4 personality ptr @__gxx_personality_v0 {
entry:
  %ref.tmp = alloca %"class.testing::internal::ParamGenerator", align 8
  %ref.tmp1 = alloca %"class.std::vector.80", align 8
  %call.i = tail call noundef zeroext i1 @_ZN7testing8internal10AlwaysTrueEv()
  br i1 %call.i, label %if.end, label %if.then

if.then:                                          ; preds = %entry
  call fastcc void @_ZN12_GLOBAL__N_19GenParamsEv(ptr noalias nonnull align 8 %ref.tmp1)
  %0 = load ptr, ptr %ref.tmp1, align 8
  %_M_finish.i.i = getelementptr inbounds %"struct.std::_Vector_base<absl::zipf_distribution<unsigned long>::param_type, std::allocator<absl::zipf_distribution<unsigned long>::param_type>>::_Vector_impl_data", ptr %ref.tmp1, i64 0, i32 1
  %1 = load ptr, ptr %_M_finish.i.i, align 8, !noalias !10
  invoke void @_ZN7testing8ValuesInIN9__gnu_cxx17__normal_iteratorIPKN4absl17zipf_distributionImE10param_typeESt6vectorIS6_SaIS6_EEEEEENS_8internal14ParamGeneratorINSt15iterator_traitsIT_E10value_typeEEESG_SG_(ptr nonnull sret(%"class.testing::internal::ParamGenerator") align 8 %ref.tmp, ptr %0, ptr %1)
          to label %invoke.cont unwind label %lpad

invoke.cont:                                      ; preds = %if.then
  %_M_refcount3.i.i.i.i.i.i.i = getelementptr inbounds %"class.std::__shared_ptr", ptr %ref.tmp, i64 0, i32 1
  %2 = load ptr, ptr %_M_refcount3.i.i.i.i.i.i.i, align 8
  %cmp.not.i.i.i.i.i.i.i.i = icmp eq ptr %2, null
  br i1 %cmp.not.i.i.i.i.i.i.i.i, label %_ZN7testing8internal14ParamGeneratorIN4absl17zipf_distributionImE10param_typeEED2Ev.exit, label %if.then.i.i.i.i.i.i.i.i

if.then.i.i.i.i.i.i.i.i:                          ; preds = %invoke.cont
  %_M_use_count.i.i.i.i.i.i.i.i.i = getelementptr inbounds %"class.std::_Sp_counted_base", ptr %2, i64 0, i32 1
  %3 = load i8, ptr @__libc_single_threaded, align 1, !noalias !13
  %tobool.i.i.not.i.i.i.i.i.i.i.i.i = icmp eq i8 %3, 0
  br i1 %tobool.i.i.not.i.i.i.i.i.i.i.i.i, label %if.else.i.i.i.i.i.i.i.i.i.i, label %if.then.i.i.i.i.i.i.i.i.i.i

if.then.i.i.i.i.i.i.i.i.i.i:                      ; preds = %if.then.i.i.i.i.i.i.i.i
  %4 = load i32, ptr %_M_use_count.i.i.i.i.i.i.i.i.i, align 4, !noalias !13
  %add.i.i.i.i.i.i.i.i.i.i = add nsw i32 %4, 1
  store i32 %add.i.i.i.i.i.i.i.i.i.i, ptr %_M_use_count.i.i.i.i.i.i.i.i.i, align 4, !noalias !13
  br label %invoke.cont3

if.else.i.i.i.i.i.i.i.i.i.i:                      ; preds = %if.then.i.i.i.i.i.i.i.i
  %5 = atomicrmw volatile add ptr %_M_use_count.i.i.i.i.i.i.i.i.i, i32 1 acq_rel, align 4, !noalias !13
  br label %invoke.cont3

invoke.cont3:                                     ; preds = %if.else.i.i.i.i.i.i.i.i.i.i, %if.then.i.i.i.i.i.i.i.i.i.i
  %.pr = load ptr, ptr %_M_refcount3.i.i.i.i.i.i.i, align 8
  %cmp.not.i.i.i.i = icmp eq ptr %.pr, null
  br i1 %cmp.not.i.i.i.i, label %_ZN7testing8internal14ParamGeneratorIN4absl17zipf_distributionImE10param_typeEED2Ev.exit, label %if.then.i.i.i.i

if.then.i.i.i.i:                                  ; preds = %invoke.cont3
  %_M_use_count.i.i.i.i.i = getelementptr inbounds %"class.std::_Sp_counted_base", ptr %.pr, i64 0, i32 1
  %6 = load atomic i64, ptr %_M_use_count.i.i.i.i.i acquire, align 8
  %cmp.i.i.i.i.i = icmp eq i64 %6, 4294967297
  %7 = trunc i64 %6 to i32
  br i1 %cmp.i.i.i.i.i, label %if.then.i.i.i.i.i, label %if.end.i.i.i.i.i

if.then.i.i.i.i.i:                                ; preds = %if.then.i.i.i.i
  store i32 0, ptr %_M_use_count.i.i.i.i.i, align 8
  %_M_weak_count.i.i.i.i.i = getelementptr inbounds %"class.std::_Sp_counted_base", ptr %.pr, i64 0, i32 2
  store i32 0, ptr %_M_weak_count.i.i.i.i.i, align 4
  %vtable.i.i.i.i.i = load ptr, ptr %.pr, align 8
  %vfn.i.i.i.i.i = getelementptr inbounds ptr, ptr %vtable.i.i.i.i.i, i64 2
  %8 = load ptr, ptr %vfn.i.i.i.i.i, align 8
  call void %8(ptr noundef nonnull align 8 dereferenceable(16) %.pr) #28
  br label %if.end8.sink.split.i.i.i.i.i

if.end.i.i.i.i.i:                                 ; preds = %if.then.i.i.i.i
  %9 = load i8, ptr @__libc_single_threaded, align 1
  %tobool.i.not.i.i.i.i.i = icmp eq i8 %9, 0
  br i1 %tobool.i.not.i.i.i.i.i, label %if.else.i.i.i.i.i.i, label %if.then.i.i.i.i.i.i

if.then.i.i.i.i.i.i:                              ; preds = %if.end.i.i.i.i.i
  %add.i.i.i.i.i.i = add nsw i32 %7, -1
  store i32 %add.i.i.i.i.i.i, ptr %_M_use_count.i.i.i.i.i, align 4
  br label %_ZN9__gnu_cxx27__exchange_and_add_dispatchEPii.exit.i.i.i.i.i

if.else.i.i.i.i.i.i:                              ; preds = %if.end.i.i.i.i.i
  %10 = atomicrmw volatile add ptr %_M_use_count.i.i.i.i.i, i32 -1 acq_rel, align 4
  br label %_ZN9__gnu_cxx27__exchange_and_add_dispatchEPii.exit.i.i.i.i.i

_ZN9__gnu_cxx27__exchange_and_add_dispatchEPii.exit.i.i.i.i.i: ; preds = %if.else.i.i.i.i.i.i, %if.then.i.i.i.i.i.i
  %retval.i.0.i.i.i.i.i = phi i32 [ %7, %if.then.i.i.i.i.i.i ], [ %10, %if.else.i.i.i.i.i.i ]
  %cmp6.i.i.i.i.i = icmp eq i32 %retval.i.0.i.i.i.i.i, 1
  br i1 %cmp6.i.i.i.i.i, label %if.then7.i.i.i.i.i, label %_ZN7testing8internal14ParamGeneratorIN4absl17zipf_distributionImE10param_typeEED2Ev.exit

if.then7.i.i.i.i.i:                               ; preds = %_ZN9__gnu_cxx27__exchange_and_add_dispatchEPii.exit.i.i.i.i.i
  %vtable.i.i.i.i.i.i.i = load ptr, ptr %.pr, align 8
  %vfn.i.i.i.i.i.i.i = getelementptr inbounds ptr, ptr %vtable.i.i.i.i.i.i.i, i64 2
  %11 = load ptr, ptr %vfn.i.i.i.i.i.i.i, align 8
  call void %11(ptr noundef nonnull align 8 dereferenceable(16) %.pr) #28
  %_M_weak_count.i.i.i.i.i.i.i = getelementptr inbounds %"class.std::_Sp_counted_base", ptr %.pr, i64 0, i32 2
  %12 = load i8, ptr @__libc_single_threaded, align 1
  %tobool.i.not.i.i.i.i.i.i.i = icmp eq i8 %12, 0
  br i1 %tobool.i.not.i.i.i.i.i.i.i, label %if.else.i.i.i.i.i.i.i.i, label %if.then.i.i.i.i.i.i.i.i2

if.then.i.i.i.i.i.i.i.i2:                         ; preds = %if.then7.i.i.i.i.i
  %13 = load i32, ptr %_M_weak_count.i.i.i.i.i.i.i, align 4
  %add.i.i.i.i.i.i.i.i = add nsw i32 %13, -1
  store i32 %add.i.i.i.i.i.i.i.i, ptr %_M_weak_count.i.i.i.i.i.i.i, align 4
  br label %_ZN9__gnu_cxx27__exchange_and_add_dispatchEPii.exit.i.i.i.i.i.i.i

if.else.i.i.i.i.i.i.i.i:                          ; preds = %if.then7.i.i.i.i.i
  %14 = atomicrmw volatile add ptr %_M_weak_count.i.i.i.i.i.i.i, i32 -1 acq_rel, align 4
  br label %_ZN9__gnu_cxx27__exchange_and_add_dispatchEPii.exit.i.i.i.i.i.i.i

_ZN9__gnu_cxx27__exchange_and_add_dispatchEPii.exit.i.i.i.i.i.i.i: ; preds = %if.else.i.i.i.i.i.i.i.i, %if.then.i.i.i.i.i.i.i.i2
  %retval.i.0.i.i.i.i.i.i.i = phi i32 [ %13, %if.then.i.i.i.i.i.i.i.i2 ], [ %14, %if.else.i.i.i.i.i.i.i.i ]
  %cmp.i.i.i.i.i.i.i = icmp eq i32 %retval.i.0.i.i.i.i.i.i.i, 1
  br i1 %cmp.i.i.i.i.i.i.i, label %if.end8.sink.split.i.i.i.i.i, label %_ZN7testing8internal14ParamGeneratorIN4absl17zipf_distributionImE10param_typeEED2Ev.exit

if.end8.sink.split.i.i.i.i.i:                     ; preds = %_ZN9__gnu_cxx27__exchange_and_add_dispatchEPii.exit.i.i.i.i.i.i.i, %if.then.i.i.i.i.i
  %vtable2.i.i.i.i.i.i.i = load ptr, ptr %.pr, align 8
  %vfn3.i.i.i.i.i.i.i = getelementptr inbounds ptr, ptr %vtable2.i.i.i.i.i.i.i, i64 3
  %15 = load ptr, ptr %vfn3.i.i.i.i.i.i.i, align 8
  call void %15(ptr noundef nonnull align 8 dereferenceable(16) %.pr) #28
  br label %_ZN7testing8internal14ParamGeneratorIN4absl17zipf_distributionImE10param_typeEED2Ev.exit

_ZN7testing8internal14ParamGeneratorIN4absl17zipf_distributionImE10param_typeEED2Ev.exit: ; preds = %invoke.cont, %invoke.cont3, %_ZN9__gnu_cxx27__exchange_and_add_dispatchEPii.exit.i.i.i.i.i, %_ZN9__gnu_cxx27__exchange_and_add_dispatchEPii.exit.i.i.i.i.i.i.i, %if.end8.sink.split.i.i.i.i.i
  %16 = load ptr, ptr %ref.tmp1, align 8
  %tobool.not.i.i.i = icmp eq ptr %16, null
  br i1 %tobool.not.i.i.i, label %_ZNSt6vectorIN4absl17zipf_distributionImE10param_typeESaIS3_EED2Ev.exit, label %if.then.i.i.i

if.then.i.i.i:                                    ; preds = %_ZN7testing8internal14ParamGeneratorIN4absl17zipf_distributionImE10param_typeEED2Ev.exit
  call void @_ZdlPv(ptr noundef nonnull %16) #29
  br label %_ZNSt6vectorIN4absl17zipf_distributionImE10param_typeESaIS3_EED2Ev.exit

_ZNSt6vectorIN4absl17zipf_distributionImE10param_typeESaIS3_EED2Ev.exit: ; preds = %_ZN7testing8internal14ParamGeneratorIN4absl17zipf_distributionImE10param_typeEED2Ev.exit, %if.then.i.i.i
  br i1 %cmp.not.i.i.i.i.i.i.i.i, label %if.end, label %if.then.i.i.i.i.i.i.i

if.then.i.i.i.i.i.i.i:                            ; preds = %_ZNSt6vectorIN4absl17zipf_distributionImE10param_typeESaIS3_EED2Ev.exit
  %_M_use_count.i.i.i.i.i.i.i.i = getelementptr inbounds %"class.std::_Sp_counted_base", ptr %2, i64 0, i32 1
  %17 = load atomic i64, ptr %_M_use_count.i.i.i.i.i.i.i.i acquire, align 8
  %cmp.i.i.i.i.i.i.i.i = icmp eq i64 %17, 4294967297
  %18 = trunc i64 %17 to i32
  br i1 %cmp.i.i.i.i.i.i.i.i, label %if.then.i.i.i.i.i.i.i.i3, label %if.end.i.i.i.i.i.i.i.i

if.then.i.i.i.i.i.i.i.i3:                         ; preds = %if.then.i.i.i.i.i.i.i
  store i32 0, ptr %_M_use_count.i.i.i.i.i.i.i.i, align 8
  %_M_weak_count.i.i.i.i.i.i.i.i = getelementptr inbounds %"class.std::_Sp_counted_base", ptr %2, i64 0, i32 2
  store i32 0, ptr %_M_weak_count.i.i.i.i.i.i.i.i, align 4
  %vtable.i.i.i.i.i.i.i.i = load ptr, ptr %2, align 8
  %vfn.i.i.i.i.i.i.i.i = getelementptr inbounds ptr, ptr %vtable.i.i.i.i.i.i.i.i, i64 2
  %19 = load ptr, ptr %vfn.i.i.i.i.i.i.i.i, align 8
  call void %19(ptr noundef nonnull align 8 dereferenceable(16) %2) #28
  br label %if.end8.sink.split.i.i.i.i.i.i.i.i

if.end.i.i.i.i.i.i.i.i:                           ; preds = %if.then.i.i.i.i.i.i.i
  %20 = load i8, ptr @__libc_single_threaded, align 1
  %tobool.i.not.i.i.i.i.i.i.i.i = icmp eq i8 %20, 0
  br i1 %tobool.i.not.i.i.i.i.i.i.i.i, label %if.else.i.i.i.i.i.i.i.i.i, label %if.then.i.i.i.i.i.i.i.i.i

if.then.i.i.i.i.i.i.i.i.i:                        ; preds = %if.end.i.i.i.i.i.i.i.i
  %add.i.i.i.i.i.i.i.i.i = add nsw i32 %18, -1
  store i32 %add.i.i.i.i.i.i.i.i.i, ptr %_M_use_count.i.i.i.i.i.i.i.i, align 4
  br label %_ZN9__gnu_cxx27__exchange_and_add_dispatchEPii.exit.i.i.i.i.i.i.i.i

if.else.i.i.i.i.i.i.i.i.i:                        ; preds = %if.end.i.i.i.i.i.i.i.i
  %21 = atomicrmw volatile add ptr %_M_use_count.i.i.i.i.i.i.i.i, i32 -1 acq_rel, align 4
  br label %_ZN9__gnu_cxx27__exchange_and_add_dispatchEPii.exit.i.i.i.i.i.i.i.i

_ZN9__gnu_cxx27__exchange_and_add_dispatchEPii.exit.i.i.i.i.i.i.i.i: ; preds = %if.else.i.i.i.i.i.i.i.i.i, %if.then.i.i.i.i.i.i.i.i.i
  %retval.i.0.i.i.i.i.i.i.i.i = phi i32 [ %18, %if.then.i.i.i.i.i.i.i.i.i ], [ %21, %if.else.i.i.i.i.i.i.i.i.i ]
  %cmp6.i.i.i.i.i.i.i.i = icmp eq i32 %retval.i.0.i.i.i.i.i.i.i.i, 1
  br i1 %cmp6.i.i.i.i.i.i.i.i, label %if.then7.i.i.i.i.i.i.i.i, label %if.end

if.then7.i.i.i.i.i.i.i.i:                         ; preds = %_ZN9__gnu_cxx27__exchange_and_add_dispatchEPii.exit.i.i.i.i.i.i.i.i
  %vtable.i.i.i.i.i.i.i.i.i.i = load ptr, ptr %2, align 8
  %vfn.i.i.i.i.i.i.i.i.i.i = getelementptr inbounds ptr, ptr %vtable.i.i.i.i.i.i.i.i.i.i, i64 2
  %22 = load ptr, ptr %vfn.i.i.i.i.i.i.i.i.i.i, align 8
  call void %22(ptr noundef nonnull align 8 dereferenceable(16) %2) #28
  %_M_weak_count.i.i.i.i.i.i.i.i.i.i = getelementptr inbounds %"class.std::_Sp_counted_base", ptr %2, i64 0, i32 2
  %23 = load i8, ptr @__libc_single_threaded, align 1
  %tobool.i.not.i.i.i.i.i.i.i.i.i.i = icmp eq i8 %23, 0
  br i1 %tobool.i.not.i.i.i.i.i.i.i.i.i.i, label %if.else.i.i.i.i.i.i.i.i.i.i.i, label %if.then.i.i.i.i.i.i.i.i.i.i.i

if.then.i.i.i.i.i.i.i.i.i.i.i:                    ; preds = %if.then7.i.i.i.i.i.i.i.i
  %24 = load i32, ptr %_M_weak_count.i.i.i.i.i.i.i.i.i.i, align 4
  %add.i.i.i.i.i.i.i.i.i.i.i = add nsw i32 %24, -1
  store i32 %add.i.i.i.i.i.i.i.i.i.i.i, ptr %_M_weak_count.i.i.i.i.i.i.i.i.i.i, align 4
  br label %_ZN9__gnu_cxx27__exchange_and_add_dispatchEPii.exit.i.i.i.i.i.i.i.i.i.i

if.else.i.i.i.i.i.i.i.i.i.i.i:                    ; preds = %if.then7.i.i.i.i.i.i.i.i
  %25 = atomicrmw volatile add ptr %_M_weak_count.i.i.i.i.i.i.i.i.i.i, i32 -1 acq_rel, align 4
  br label %_ZN9__gnu_cxx27__exchange_and_add_dispatchEPii.exit.i.i.i.i.i.i.i.i.i.i

_ZN9__gnu_cxx27__exchange_and_add_dispatchEPii.exit.i.i.i.i.i.i.i.i.i.i: ; preds = %if.else.i.i.i.i.i.i.i.i.i.i.i, %if.then.i.i.i.i.i.i.i.i.i.i.i
  %retval.i.0.i.i.i.i.i.i.i.i.i.i = phi i32 [ %24, %if.then.i.i.i.i.i.i.i.i.i.i.i ], [ %25, %if.else.i.i.i.i.i.i.i.i.i.i.i ]
  %cmp.i.i.i.i.i.i.i.i.i.i = icmp eq i32 %retval.i.0.i.i.i.i.i.i.i.i.i.i, 1
  br i1 %cmp.i.i.i.i.i.i.i.i.i.i, label %if.end8.sink.split.i.i.i.i.i.i.i.i, label %if.end

if.end8.sink.split.i.i.i.i.i.i.i.i:               ; preds = %_ZN9__gnu_cxx27__exchange_and_add_dispatchEPii.exit.i.i.i.i.i.i.i.i.i.i, %if.then.i.i.i.i.i.i.i.i3
  %vtable2.i.i.i.i.i.i.i.i.i.i = load ptr, ptr %2, align 8
  %vfn3.i.i.i.i.i.i.i.i.i.i = getelementptr inbounds ptr, ptr %vtable2.i.i.i.i.i.i.i.i.i.i, i64 3
  %26 = load ptr, ptr %vfn3.i.i.i.i.i.i.i.i.i.i, align 8
  call void %26(ptr noundef nonnull align 8 dereferenceable(16) %2) #28
  br label %if.end

lpad:                                             ; preds = %if.then
  %27 = landingpad { ptr, i32 }
          cleanup
  %tobool.not.i.i.i4 = icmp eq ptr %0, null
  br i1 %tobool.not.i.i.i4, label %_ZNSt6vectorIN4absl17zipf_distributionImE10param_typeESaIS3_EED2Ev.exit6, label %if.then.i.i.i5

if.then.i.i.i5:                                   ; preds = %lpad
  call void @_ZdlPv(ptr noundef nonnull %0) #29
  br label %_ZNSt6vectorIN4absl17zipf_distributionImE10param_typeESaIS3_EED2Ev.exit6

_ZNSt6vectorIN4absl17zipf_distributionImE10param_typeESaIS3_EED2Ev.exit6: ; preds = %lpad, %if.then.i.i.i5
  resume { ptr, i32 } %27

if.end:                                           ; preds = %if.end8.sink.split.i.i.i.i.i.i.i.i, %_ZN9__gnu_cxx27__exchange_and_add_dispatchEPii.exit.i.i.i.i.i.i.i.i.i.i, %_ZN9__gnu_cxx27__exchange_and_add_dispatchEPii.exit.i.i.i.i.i.i.i.i, %_ZNSt6vectorIN4absl17zipf_distributionImE10param_typeESaIS3_EED2Ev.exit, %entry
  call fastcc void @_ZN12_GLOBAL__N_19ParamNameB5cxx11ERKN7testing13TestParamInfoIN4absl17zipf_distributionImE10param_typeEEE(ptr sret(%"class.std::__cxx11::basic_string") align 8 %agg.result, ptr noundef nonnull align 8 dereferenceable(72) %info)
  ret void
}

declare noundef ptr @_ZN7testing8internal23MakeAndRegisterTestInfoEPKcS2_S2_S2_NS0_12CodeLocationEPKvPFvvES7_PNS0_15TestFactoryBaseE(ptr noundef, ptr noundef, ptr noundef, ptr noundef, ptr noundef, ptr noundef, ptr noundef, ptr noundef, ptr noundef) local_unnamed_addr #0

declare noundef ptr @_ZN7testing8internal13GetTestTypeIdEv() local_unnamed_addr #0

; Function Attrs: mustprogress uwtable
define linkonce_odr dso_local noundef ptr @_ZN7testing8internal16SuiteApiResolverINS_4TestEE19GetSetUpCaseOrSuiteEPKci(ptr noundef %filename, i32 noundef %line_num) local_unnamed_addr #4 comdat align 2 personality ptr @__gxx_personality_v0 {
entry:
  %ref.tmp = alloca %"class.testing::internal::GTestLog", align 4
  %call3 = tail call noundef zeroext i1 @_ZN7testing8internal6IsTrueEb(i1 noundef zeroext true)
  br i1 %call3, label %if.end, label %if.else

if.else:                                          ; preds = %entry
  call void @_ZN7testing8internal8GTestLogC1ENS0_16GTestLogSeverityEPKci(ptr noundef nonnull align 4 dereferenceable(4) %ref.tmp, i32 noundef 3, ptr noundef nonnull @.str.99, i32 noundef 513)
  %call5 = invoke noundef nonnull align 8 dereferenceable(8) ptr @_ZStlsISt11char_traitsIcEERSt13basic_ostreamIcT_ES5_PKc(ptr noundef nonnull align 8 dereferenceable(8) @_ZSt4cerr, ptr noundef nonnull @.str.100)
          to label %invoke.cont unwind label %lpad

invoke.cont:                                      ; preds = %if.else
  %call7 = invoke noundef nonnull align 8 dereferenceable(8) ptr @_ZStlsISt11char_traitsIcEERSt13basic_ostreamIcT_ES5_PKc(ptr noundef nonnull align 8 dereferenceable(8) %call5, ptr noundef nonnull @.str.101)
          to label %invoke.cont6 unwind label %lpad

invoke.cont6:                                     ; preds = %invoke.cont
  %call9 = invoke noundef nonnull align 8 dereferenceable(8) ptr @_ZStlsISt11char_traitsIcEERSt13basic_ostreamIcT_ES5_PKc(ptr noundef nonnull align 8 dereferenceable(8) %call7, ptr noundef %filename)
          to label %invoke.cont8 unwind label %lpad

invoke.cont8:                                     ; preds = %invoke.cont6
  %call11 = invoke noundef nonnull align 8 dereferenceable(8) ptr @_ZStlsISt11char_traitsIcEERSt13basic_ostreamIcT_ES5_PKc(ptr noundef nonnull align 8 dereferenceable(8) %call9, ptr noundef nonnull @.str.102)
          to label %invoke.cont10 unwind label %lpad

invoke.cont10:                                    ; preds = %invoke.cont8
  %call13 = invoke noundef nonnull align 8 dereferenceable(8) ptr @_ZNSolsEi(ptr noundef nonnull align 8 dereferenceable(8) %call11, i32 noundef %line_num)
          to label %invoke.cont12 unwind label %lpad

invoke.cont12:                                    ; preds = %invoke.cont10
  call void @_ZN7testing8internal8GTestLogD1Ev(ptr noundef nonnull align 4 dereferenceable(4) %ref.tmp) #28
  br label %if.end

lpad:                                             ; preds = %invoke.cont10, %invoke.cont8, %invoke.cont6, %invoke.cont, %if.else
  %0 = landingpad { ptr, i32 }
          cleanup
  call void @_ZN7testing8internal8GTestLogD1Ev(ptr noundef nonnull align 4 dereferenceable(4) %ref.tmp) #28
  resume { ptr, i32 } %0

if.end:                                           ; preds = %entry, %invoke.cont12
  ret ptr null
}

; Function Attrs: mustprogress uwtable
define linkonce_odr dso_local noundef ptr @_ZN7testing8internal16SuiteApiResolverINS_4TestEE22GetTearDownCaseOrSuiteEPKci(ptr noundef %filename, i32 noundef %line_num) local_unnamed_addr #4 comdat align 2 personality ptr @__gxx_personality_v0 {
entry:
  %ref.tmp = alloca %"class.testing::internal::GTestLog", align 4
  %call3 = tail call noundef zeroext i1 @_ZN7testing8internal6IsTrueEb(i1 noundef zeroext true)
  br i1 %call3, label %if.end, label %if.else

if.else:                                          ; preds = %entry
  call void @_ZN7testing8internal8GTestLogC1ENS0_16GTestLogSeverityEPKci(ptr noundef nonnull align 4 dereferenceable(4) %ref.tmp, i32 noundef 3, ptr noundef nonnull @.str.99, i32 noundef 534)
  %call5 = invoke noundef nonnull align 8 dereferenceable(8) ptr @_ZStlsISt11char_traitsIcEERSt13basic_ostreamIcT_ES5_PKc(ptr noundef nonnull align 8 dereferenceable(8) @_ZSt4cerr, ptr noundef nonnull @.str.100)
          to label %invoke.cont unwind label %lpad

invoke.cont:                                      ; preds = %if.else
  %call7 = invoke noundef nonnull align 8 dereferenceable(8) ptr @_ZStlsISt11char_traitsIcEERSt13basic_ostreamIcT_ES5_PKc(ptr noundef nonnull align 8 dereferenceable(8) %call5, ptr noundef nonnull @.str.103)
          to label %invoke.cont6 unwind label %lpad

invoke.cont6:                                     ; preds = %invoke.cont
  %call9 = invoke noundef nonnull align 8 dereferenceable(8) ptr @_ZStlsISt11char_traitsIcEERSt13basic_ostreamIcT_ES5_PKc(ptr noundef nonnull align 8 dereferenceable(8) %call7, ptr noundef %filename)
          to label %invoke.cont8 unwind label %lpad

invoke.cont8:                                     ; preds = %invoke.cont6
  %call11 = invoke noundef nonnull align 8 dereferenceable(8) ptr @_ZStlsISt11char_traitsIcEERSt13basic_ostreamIcT_ES5_PKc(ptr noundef nonnull align 8 dereferenceable(8) %call9, ptr noundef nonnull @.str.102)
          to label %invoke.cont10 unwind label %lpad

invoke.cont10:                                    ; preds = %invoke.cont8
  %call13 = invoke noundef nonnull align 8 dereferenceable(8) ptr @_ZNSolsEi(ptr noundef nonnull align 8 dereferenceable(8) %call11, i32 noundef %line_num)
          to label %invoke.cont12 unwind label %lpad

invoke.cont12:                                    ; preds = %invoke.cont10
  call void @_ZN7testing8internal8GTestLogD1Ev(ptr noundef nonnull align 4 dereferenceable(4) %ref.tmp) #28
  br label %if.end

lpad:                                             ; preds = %invoke.cont10, %invoke.cont8, %invoke.cont6, %invoke.cont, %if.else
  %0 = landingpad { ptr, i32 }
          cleanup
  call void @_ZN7testing8internal8GTestLogD1Ev(ptr noundef nonnull align 4 dereferenceable(4) %ref.tmp) #28
  resume { ptr, i32 } %0

if.end:                                           ; preds = %entry, %invoke.cont12
  ret ptr null
}

; Function Attrs: nobuiltin allocsize(0)
declare noundef nonnull ptr @_Znwm(i64 noundef) local_unnamed_addr #5

; Function Attrs: nobuiltin nounwind
declare void @_ZdlPv(ptr noundef) local_unnamed_addr #6

declare void @_ZNSt7__cxx1112basic_stringIcSt11char_traitsIcESaIcEEC1ERKS4_(ptr noundef nonnull align 8 dereferenceable(32), ptr noundef nonnull align 8 dereferenceable(32)) unnamed_addr #0

; Function Attrs: mustprogress nocallback nofree nounwind willreturn memory(argmem: write)
declare void @llvm.memset.p0.i64(ptr nocapture writeonly, i8, i64, i1 immarg) #7

; Function Attrs: mustprogress nounwind uwtable
define internal fastcc void @_ZNSt10shared_ptrIN7testing8internal26ParameterizedTestSuiteInfoIN12_GLOBAL__N_18ZipfTestEE8TestInfoEED2Ev(ptr %this.8.val) unnamed_addr #3 align 2 personality ptr @__gxx_personality_v0 {
entry:
  %cmp.not.i.i = icmp eq ptr %this.8.val, null
  br i1 %cmp.not.i.i, label %_ZNSt12__shared_ptrIN7testing8internal26ParameterizedTestSuiteInfoIN12_GLOBAL__N_18ZipfTestEE8TestInfoELN9__gnu_cxx12_Lock_policyE2EED2Ev.exit, label %if.then.i.i

if.then.i.i:                                      ; preds = %entry
  %_M_use_count.i.i.i = getelementptr inbounds %"class.std::_Sp_counted_base", ptr %this.8.val, i64 0, i32 1
  %0 = load atomic i64, ptr %_M_use_count.i.i.i acquire, align 8
  %cmp.i.i.i = icmp eq i64 %0, 4294967297
  %1 = trunc i64 %0 to i32
  br i1 %cmp.i.i.i, label %if.then.i.i.i, label %if.end.i.i.i

if.then.i.i.i:                                    ; preds = %if.then.i.i
  store i32 0, ptr %_M_use_count.i.i.i, align 8
  %_M_weak_count.i.i.i = getelementptr inbounds %"class.std::_Sp_counted_base", ptr %this.8.val, i64 0, i32 2
  store i32 0, ptr %_M_weak_count.i.i.i, align 4
  %vtable.i.i.i = load ptr, ptr %this.8.val, align 8
  %vfn.i.i.i = getelementptr inbounds ptr, ptr %vtable.i.i.i, i64 2
  %2 = load ptr, ptr %vfn.i.i.i, align 8
  tail call void %2(ptr noundef nonnull align 8 dereferenceable(16) %this.8.val) #28
  br label %if.end8.sink.split.i.i.i

if.end.i.i.i:                                     ; preds = %if.then.i.i
  %3 = load i8, ptr @__libc_single_threaded, align 1
  %tobool.i.not.i.i.i = icmp eq i8 %3, 0
  br i1 %tobool.i.not.i.i.i, label %if.else.i.i.i.i, label %if.then.i.i.i.i

if.then.i.i.i.i:                                  ; preds = %if.end.i.i.i
  %add.i.i.i.i = add nsw i32 %1, -1
  store i32 %add.i.i.i.i, ptr %_M_use_count.i.i.i, align 4
  br label %_ZN9__gnu_cxx27__exchange_and_add_dispatchEPii.exit.i.i.i

if.else.i.i.i.i:                                  ; preds = %if.end.i.i.i
  %4 = atomicrmw volatile add ptr %_M_use_count.i.i.i, i32 -1 acq_rel, align 4
  br label %_ZN9__gnu_cxx27__exchange_and_add_dispatchEPii.exit.i.i.i

_ZN9__gnu_cxx27__exchange_and_add_dispatchEPii.exit.i.i.i: ; preds = %if.else.i.i.i.i, %if.then.i.i.i.i
  %retval.i.0.i.i.i = phi i32 [ %1, %if.then.i.i.i.i ], [ %4, %if.else.i.i.i.i ]
  %cmp6.i.i.i = icmp eq i32 %retval.i.0.i.i.i, 1
  br i1 %cmp6.i.i.i, label %if.then7.i.i.i, label %_ZNSt12__shared_ptrIN7testing8internal26ParameterizedTestSuiteInfoIN12_GLOBAL__N_18ZipfTestEE8TestInfoELN9__gnu_cxx12_Lock_policyE2EED2Ev.exit

if.then7.i.i.i:                                   ; preds = %_ZN9__gnu_cxx27__exchange_and_add_dispatchEPii.exit.i.i.i
  %vtable.i.i.i.i.i = load ptr, ptr %this.8.val, align 8
  %vfn.i.i.i.i.i = getelementptr inbounds ptr, ptr %vtable.i.i.i.i.i, i64 2
  %5 = load ptr, ptr %vfn.i.i.i.i.i, align 8
  tail call void %5(ptr noundef nonnull align 8 dereferenceable(16) %this.8.val) #28
  %_M_weak_count.i.i.i.i.i = getelementptr inbounds %"class.std::_Sp_counted_base", ptr %this.8.val, i64 0, i32 2
  %6 = load i8, ptr @__libc_single_threaded, align 1
  %tobool.i.not.i.i.i.i.i = icmp eq i8 %6, 0
  br i1 %tobool.i.not.i.i.i.i.i, label %if.else.i.i.i.i.i.i, label %if.then.i.i.i.i.i.i

if.then.i.i.i.i.i.i:                              ; preds = %if.then7.i.i.i
  %7 = load i32, ptr %_M_weak_count.i.i.i.i.i, align 4
  %add.i.i.i.i.i.i = add nsw i32 %7, -1
  store i32 %add.i.i.i.i.i.i, ptr %_M_weak_count.i.i.i.i.i, align 4
  br label %_ZN9__gnu_cxx27__exchange_and_add_dispatchEPii.exit.i.i.i.i.i

if.else.i.i.i.i.i.i:                              ; preds = %if.then7.i.i.i
  %8 = atomicrmw volatile add ptr %_M_weak_count.i.i.i.i.i, i32 -1 acq_rel, align 4
  br label %_ZN9__gnu_cxx27__exchange_and_add_dispatchEPii.exit.i.i.i.i.i

_ZN9__gnu_cxx27__exchange_and_add_dispatchEPii.exit.i.i.i.i.i: ; preds = %if.else.i.i.i.i.i.i, %if.then.i.i.i.i.i.i
  %retval.i.0.i.i.i.i.i = phi i32 [ %7, %if.then.i.i.i.i.i.i ], [ %8, %if.else.i.i.i.i.i.i ]
  %cmp.i.i.i.i.i = icmp eq i32 %retval.i.0.i.i.i.i.i, 1
  br i1 %cmp.i.i.i.i.i, label %if.end8.sink.split.i.i.i, label %_ZNSt12__shared_ptrIN7testing8internal26ParameterizedTestSuiteInfoIN12_GLOBAL__N_18ZipfTestEE8TestInfoELN9__gnu_cxx12_Lock_policyE2EED2Ev.exit

if.end8.sink.split.i.i.i:                         ; preds = %_ZN9__gnu_cxx27__exchange_and_add_dispatchEPii.exit.i.i.i.i.i, %if.then.i.i.i
  %vtable2.i.i.i.i.i = load ptr, ptr %this.8.val, align 8
  %vfn3.i.i.i.i.i = getelementptr inbounds ptr, ptr %vtable2.i.i.i.i.i, i64 3
  %9 = load ptr, ptr %vfn3.i.i.i.i.i, align 8
  tail call void %9(ptr noundef nonnull align 8 dereferenceable(16) %this.8.val) #28
  br label %_ZNSt12__shared_ptrIN7testing8internal26ParameterizedTestSuiteInfoIN12_GLOBAL__N_18ZipfTestEE8TestInfoELN9__gnu_cxx12_Lock_policyE2EED2Ev.exit

_ZNSt12__shared_ptrIN7testing8internal26ParameterizedTestSuiteInfoIN12_GLOBAL__N_18ZipfTestEE8TestInfoELN9__gnu_cxx12_Lock_policyE2EED2Ev.exit: ; preds = %entry, %_ZN9__gnu_cxx27__exchange_and_add_dispatchEPii.exit.i.i.i, %_ZN9__gnu_cxx27__exchange_and_add_dispatchEPii.exit.i.i.i.i.i, %if.end8.sink.split.i.i.i
  ret void
}

; Function Attrs: noreturn
declare void @_ZSt20__throw_length_errorPKc(ptr noundef) local_unnamed_addr #8

; Function Attrs: noreturn nounwind uwtable
define linkonce_odr hidden void @__clang_call_terminate(ptr noundef %0) local_unnamed_addr #9 comdat {
  %2 = tail call ptr @__cxa_begin_catch(ptr %0) #28
  tail call void @_ZSt9terminatev() #32
  unreachable
}

declare ptr @__cxa_begin_catch(ptr) local_unnamed_addr

declare void @_ZSt9terminatev() local_unnamed_addr

; Function Attrs: mustprogress nounwind uwtable
define internal fastcc void @_ZN7testing8internal26ParameterizedTestSuiteInfoIN12_GLOBAL__N_18ZipfTestEE8TestInfoD2Ev(ptr noundef nonnull align 8 dereferenceable(112) %this) unnamed_addr #3 align 2 personality ptr @__gxx_personality_v0 {
entry:
  %code_location = getelementptr inbounds %"struct.testing::internal::ParameterizedTestSuiteInfo<(anonymous namespace)::ZipfTest>::TestInfo", ptr %this, i64 0, i32 3
  tail call void @_ZNSt7__cxx1112basic_stringIcSt11char_traitsIcESaIcEED1Ev(ptr noundef nonnull align 8 dereferenceable(32) %code_location) #28
  %test_meta_factory = getelementptr inbounds %"struct.testing::internal::ParameterizedTestSuiteInfo<(anonymous namespace)::ZipfTest>::TestInfo", ptr %this, i64 0, i32 2
  %0 = load ptr, ptr %test_meta_factory, align 8
  %cmp.not.i = icmp eq ptr %0, null
  br i1 %cmp.not.i, label %_ZNSt10unique_ptrIN7testing8internal19TestMetaFactoryBaseIN4absl17zipf_distributionImE10param_typeEEESt14default_deleteIS7_EED2Ev.exit, label %_ZNKSt14default_deleteIN7testing8internal19TestMetaFactoryBaseIN4absl17zipf_distributionImE10param_typeEEEEclEPS7_.exit.i

_ZNKSt14default_deleteIN7testing8internal19TestMetaFactoryBaseIN4absl17zipf_distributionImE10param_typeEEEEclEPS7_.exit.i: ; preds = %entry
  %vtable.i.i = load ptr, ptr %0, align 8
  %vfn.i.i = getelementptr inbounds ptr, ptr %vtable.i.i, i64 1
  %1 = load ptr, ptr %vfn.i.i, align 8
  tail call void %1(ptr noundef nonnull align 8 dereferenceable(8) %0) #28
  br label %_ZNSt10unique_ptrIN7testing8internal19TestMetaFactoryBaseIN4absl17zipf_distributionImE10param_typeEEESt14default_deleteIS7_EED2Ev.exit

_ZNSt10unique_ptrIN7testing8internal19TestMetaFactoryBaseIN4absl17zipf_distributionImE10param_typeEEESt14default_deleteIS7_EED2Ev.exit: ; preds = %entry, %_ZNKSt14default_deleteIN7testing8internal19TestMetaFactoryBaseIN4absl17zipf_distributionImE10param_typeEEEEclEPS7_.exit.i
  store ptr null, ptr %test_meta_factory, align 8
  %test_base_name = getelementptr inbounds %"struct.testing::internal::ParameterizedTestSuiteInfo<(anonymous namespace)::ZipfTest>::TestInfo", ptr %this, i64 0, i32 1
  tail call void @_ZNSt7__cxx1112basic_stringIcSt11char_traitsIcESaIcEED1Ev(ptr noundef nonnull align 8 dereferenceable(32) %test_base_name) #28
  tail call void @_ZNSt7__cxx1112basic_stringIcSt11char_traitsIcESaIcEED1Ev(ptr noundef nonnull align 8 dereferenceable(32) %this) #28
  ret void
}

declare void @__cxa_rethrow() local_unnamed_addr

declare void @__cxa_end_catch() local_unnamed_addr

; Function Attrs: mustprogress nofree norecurse nosync nounwind willreturn memory(none) uwtable
define internal void @_ZNSt15_Sp_counted_ptrIPN7testing8internal26ParameterizedTestSuiteInfoIN12_GLOBAL__N_18ZipfTestEE8TestInfoELN9__gnu_cxx12_Lock_policyE2EED2Ev(ptr nocapture nonnull readnone align 8 %this) unnamed_addr #10 align 2 {
entry:
  ret void
}

; Function Attrs: mustprogress nounwind uwtable
define internal void @_ZNSt15_Sp_counted_ptrIPN7testing8internal26ParameterizedTestSuiteInfoIN12_GLOBAL__N_18ZipfTestEE8TestInfoELN9__gnu_cxx12_Lock_policyE2EED0Ev(ptr noundef nonnull align 8 dereferenceable(24) %this) unnamed_addr #3 align 2 {
entry:
  tail call void @_ZdlPv(ptr noundef nonnull %this) #29
  ret void
}

; Function Attrs: mustprogress nounwind uwtable
define internal void @_ZNSt15_Sp_counted_ptrIPN7testing8internal26ParameterizedTestSuiteInfoIN12_GLOBAL__N_18ZipfTestEE8TestInfoELN9__gnu_cxx12_Lock_policyE2EE10_M_disposeEv(ptr nocapture noundef nonnull readonly align 8 dereferenceable(24) %this) unnamed_addr #3 align 2 personality ptr @__gxx_personality_v0 {
entry:
  %_M_ptr = getelementptr inbounds %"class.std::_Sp_counted_ptr", ptr %this, i64 0, i32 1
  %0 = load ptr, ptr %_M_ptr, align 8
  %isnull = icmp eq ptr %0, null
  br i1 %isnull, label %delete.end, label %delete.notnull

delete.notnull:                                   ; preds = %entry
  %code_location.i = getelementptr inbounds %"struct.testing::internal::ParameterizedTestSuiteInfo<(anonymous namespace)::ZipfTest>::TestInfo", ptr %0, i64 0, i32 3
  tail call void @_ZNSt7__cxx1112basic_stringIcSt11char_traitsIcESaIcEED1Ev(ptr noundef nonnull align 8 dereferenceable(32) %code_location.i) #28
  %test_meta_factory.i = getelementptr inbounds %"struct.testing::internal::ParameterizedTestSuiteInfo<(anonymous namespace)::ZipfTest>::TestInfo", ptr %0, i64 0, i32 2
  %1 = load ptr, ptr %test_meta_factory.i, align 8
  %cmp.not.i.i = icmp eq ptr %1, null
  br i1 %cmp.not.i.i, label %_ZN7testing8internal26ParameterizedTestSuiteInfoIN12_GLOBAL__N_18ZipfTestEE8TestInfoD2Ev.exit, label %_ZNKSt14default_deleteIN7testing8internal19TestMetaFactoryBaseIN4absl17zipf_distributionImE10param_typeEEEEclEPS7_.exit.i.i

_ZNKSt14default_deleteIN7testing8internal19TestMetaFactoryBaseIN4absl17zipf_distributionImE10param_typeEEEEclEPS7_.exit.i.i: ; preds = %delete.notnull
  %vtable.i.i.i = load ptr, ptr %1, align 8
  %vfn.i.i.i = getelementptr inbounds ptr, ptr %vtable.i.i.i, i64 1
  %2 = load ptr, ptr %vfn.i.i.i, align 8
  tail call void %2(ptr noundef nonnull align 8 dereferenceable(8) %1) #28
  br label %_ZN7testing8internal26ParameterizedTestSuiteInfoIN12_GLOBAL__N_18ZipfTestEE8TestInfoD2Ev.exit

_ZN7testing8internal26ParameterizedTestSuiteInfoIN12_GLOBAL__N_18ZipfTestEE8TestInfoD2Ev.exit: ; preds = %delete.notnull, %_ZNKSt14default_deleteIN7testing8internal19TestMetaFactoryBaseIN4absl17zipf_distributionImE10param_typeEEEEclEPS7_.exit.i.i
  store ptr null, ptr %test_meta_factory.i, align 8
  %test_base_name.i = getelementptr inbounds %"struct.testing::internal::ParameterizedTestSuiteInfo<(anonymous namespace)::ZipfTest>::TestInfo", ptr %0, i64 0, i32 1
  tail call void @_ZNSt7__cxx1112basic_stringIcSt11char_traitsIcESaIcEED1Ev(ptr noundef nonnull align 8 dereferenceable(32) %test_base_name.i) #28
  tail call void @_ZNSt7__cxx1112basic_stringIcSt11char_traitsIcESaIcEED1Ev(ptr noundef nonnull align 8 dereferenceable(32) %0) #28
  tail call void @_ZdlPv(ptr noundef nonnull %0) #29
  br label %delete.end

delete.end:                                       ; preds = %_ZN7testing8internal26ParameterizedTestSuiteInfoIN12_GLOBAL__N_18ZipfTestEE8TestInfoD2Ev.exit, %entry
  ret void
}

; Function Attrs: mustprogress nounwind uwtable
define internal void @_ZNSt15_Sp_counted_ptrIPN7testing8internal26ParameterizedTestSuiteInfoIN12_GLOBAL__N_18ZipfTestEE8TestInfoELN9__gnu_cxx12_Lock_policyE2EE10_M_destroyEv(ptr noundef nonnull align 8 dereferenceable(24) %this) unnamed_addr #3 align 2 {
entry:
  tail call void @_ZdlPv(ptr noundef nonnull %this) #29
  ret void
}

; Function Attrs: mustprogress nofree norecurse nosync nounwind willreturn memory(none) uwtable
define internal noalias noundef ptr @_ZNSt15_Sp_counted_ptrIPN7testing8internal26ParameterizedTestSuiteInfoIN12_GLOBAL__N_18ZipfTestEE8TestInfoELN9__gnu_cxx12_Lock_policyE2EE14_M_get_deleterERKSt9type_info(ptr nocapture nonnull readnone align 8 %this, ptr nocapture nonnull readnone align 8 %0) unnamed_addr #10 align 2 {
entry:
  ret ptr null
}

declare void @__cxa_pure_virtual() unnamed_addr

; Function Attrs: cold noreturn nounwind memory(inaccessiblemem: write)
declare void @llvm.trap() #11

; Function Attrs: mustprogress nofree norecurse nosync nounwind willreturn memory(none) uwtable
define internal void @_ZN7testing8internal15TestMetaFactoryIN12_GLOBAL__N_128ZipfTest_ChiSquaredTest_TestEED2Ev(ptr nocapture nonnull readnone align 8 %this) unnamed_addr #10 align 2 {
entry:
  ret void
}

; Function Attrs: mustprogress nounwind uwtable
define internal void @_ZN7testing8internal15TestMetaFactoryIN12_GLOBAL__N_128ZipfTest_ChiSquaredTest_TestEED0Ev(ptr noundef nonnull align 8 dereferenceable(8) %this) unnamed_addr #3 align 2 {
entry:
  tail call void @_ZdlPv(ptr noundef nonnull %this) #29
  ret void
}

; Function Attrs: mustprogress uwtable
define internal noalias noundef nonnull ptr @_ZN7testing8internal15TestMetaFactoryIN12_GLOBAL__N_128ZipfTest_ChiSquaredTest_TestEE17CreateTestFactoryEN4absl17zipf_distributionImE10param_typeE(ptr nocapture nonnull readnone align 8 %this, ptr nocapture noundef readonly byval(%"class.absl::zipf_distribution<unsigned long>::param_type") align 8 %parameter) unnamed_addr #4 align 2 personality ptr @__gxx_personality_v0 {
invoke.cont:
  %call = tail call noalias noundef nonnull dereferenceable(72) ptr @_Znwm(i64 noundef 72) #31
  %parameter_.i = getelementptr inbounds %"class.testing::internal::ParameterizedTestFactory", ptr %call, i64 0, i32 1
  call void @llvm.memcpy.p0.p0.i64(ptr noundef nonnull align 8 dereferenceable(64) %parameter_.i, ptr noundef nonnull align 8 dereferenceable(64) %parameter, i64 64, i1 false)
  store ptr getelementptr inbounds ({ [5 x ptr] }, ptr @_ZTVN7testing8internal24ParameterizedTestFactoryIN12_GLOBAL__N_128ZipfTest_ChiSquaredTest_TestEEE, i64 0, inrange i32 0, i64 2), ptr %call, align 8
  ret ptr %call
}

; Function Attrs: mustprogress nocallback nofree nounwind willreturn memory(argmem: readwrite)
declare void @llvm.memcpy.p0.p0.i64(ptr noalias nocapture writeonly, ptr noalias nocapture readonly, i64, i1 immarg) #12

; Function Attrs: mustprogress nofree norecurse nosync nounwind willreturn memory(none) uwtable
define internal void @_ZN7testing8internal24ParameterizedTestFactoryIN12_GLOBAL__N_128ZipfTest_ChiSquaredTest_TestEED2Ev(ptr nocapture nonnull readnone align 8 %this) unnamed_addr #10 align 2 {
entry:
  ret void
}

; Function Attrs: mustprogress nounwind uwtable
define internal void @_ZN7testing8internal24ParameterizedTestFactoryIN12_GLOBAL__N_128ZipfTest_ChiSquaredTest_TestEED0Ev(ptr noundef nonnull align 8 dereferenceable(72) %this) unnamed_addr #3 align 2 {
entry:
  tail call void @_ZdlPv(ptr noundef nonnull %this) #29
  ret void
}

; Function Attrs: mustprogress uwtable
define internal noundef nonnull ptr @_ZN7testing8internal24ParameterizedTestFactoryIN12_GLOBAL__N_128ZipfTest_ChiSquaredTest_TestEE10CreateTestEv(ptr noundef nonnull align 8 dereferenceable(72) %this) unnamed_addr #4 align 2 personality ptr @__gxx_personality_v0 {
entry:
  %parameter_ = getelementptr inbounds %"class.testing::internal::ParameterizedTestFactory", ptr %this, i64 0, i32 1
  store ptr %parameter_, ptr @_ZN7testing18WithParamInterfaceIN4absl17zipf_distributionImE10param_typeEE10parameter_E, align 8
  %call = tail call noalias noundef nonnull dereferenceable(112) ptr @_Znwm(i64 noundef 112) #31
  invoke void @_ZN7testing4TestC2Ev(ptr noundef nonnull align 8 dereferenceable(16) %call)
          to label %.noexc unwind label %lpad

.noexc:                                           ; preds = %entry
  %0 = getelementptr inbounds i8, ptr %call, i64 16
  store ptr getelementptr inbounds ({ [8 x ptr], [4 x ptr] }, ptr @_ZTVN7testing13TestWithParamIN4absl17zipf_distributionImE10param_typeEEE, i64 0, inrange i32 0, i64 2), ptr %call, align 8
  store ptr getelementptr inbounds ({ [8 x ptr], [4 x ptr] }, ptr @_ZTVN7testing13TestWithParamIN4absl17zipf_distributionImE10param_typeEEE, i64 0, inrange i32 1, i64 2), ptr %0, align 8
  %call.i.i = invoke noundef nonnull align 8 dereferenceable(64) ptr @_ZN7testing18WithParamInterfaceIN4absl17zipf_distributionImE10param_typeEE8GetParamEv()
          to label %invoke.cont.i.i unwind label %lpad.i.i

invoke.cont.i.i:                                  ; preds = %.noexc
  %1 = load i64, ptr %call.i.i, align 8
  %call5.i.i = invoke noundef nonnull align 8 dereferenceable(64) ptr @_ZN7testing18WithParamInterfaceIN4absl17zipf_distributionImE10param_typeEE8GetParamEv()
          to label %invoke.cont4.i.i unwind label %lpad.i.i

invoke.cont4.i.i:                                 ; preds = %invoke.cont.i.i
  %q_.i.i.i = getelementptr inbounds %"class.absl::zipf_distribution<unsigned long>::param_type", ptr %call5.i.i, i64 0, i32 1
  %2 = load double, ptr %q_.i.i.i, align 8
  %call9.i.i = invoke noundef nonnull align 8 dereferenceable(64) ptr @_ZN7testing18WithParamInterfaceIN4absl17zipf_distributionImE10param_typeEE8GetParamEv()
          to label %invoke.cont unwind label %lpad.i.i

lpad.i.i:                                         ; preds = %invoke.cont4.i.i, %invoke.cont.i.i, %.noexc
  %3 = landingpad { ptr, i32 }
          cleanup
  tail call void @_ZN7testing4TestD2Ev(ptr noundef nonnull align 8 dereferenceable(16) %call) #28
  br label %lpad.body

invoke.cont:                                      ; preds = %invoke.cont4.i.i
  %4 = getelementptr inbounds i8, ptr %call, i64 24
  %v_.i.i.i = getelementptr inbounds %"class.absl::zipf_distribution<unsigned long>::param_type", ptr %call9.i.i, i64 0, i32 2
  %5 = load double, ptr %v_.i.i.i, align 8
  store i64 %1, ptr %4, align 8
  %q_.i2.i.i = getelementptr inbounds i8, ptr %call, i64 32
  store double %2, ptr %q_.i2.i.i, align 8
  %v_.i3.i.i = getelementptr inbounds i8, ptr %call, i64 40
  store double %5, ptr %v_.i3.i.i, align 8
  %hnq_.i.i.i = getelementptr inbounds i8, ptr %call, i64 56
  tail call void @llvm.memset.p0.i64(ptr noundef nonnull align 8 dereferenceable(24) %hnq_.i.i.i, i8 0, i64 24, i1 false)
  %rng_.i.i = getelementptr inbounds %"class.(anonymous namespace)::ZipfTest", ptr %call, i64 0, i32 3
  store i64 3337843704530833496, ptr %rng_.i.i, align 16
  %ref.tmp.sroa.2.0.state_.sroa_idx.i.i.i.i = getelementptr inbounds %"class.(anonymous namespace)::ZipfTest", ptr %call, i64 0, i32 3, i32 0, i32 1
  store i64 5843272855002366918, ptr %ref.tmp.sroa.2.0.state_.sroa_idx.i.i.i.i, align 8
  store ptr getelementptr inbounds ({ [8 x ptr], [4 x ptr] }, ptr @_ZTVN12_GLOBAL__N_128ZipfTest_ChiSquaredTest_TestE, i64 0, inrange i32 0, i64 2), ptr %call, align 16
  store ptr getelementptr inbounds ({ [8 x ptr], [4 x ptr] }, ptr @_ZTVN12_GLOBAL__N_128ZipfTest_ChiSquaredTest_TestE, i64 0, inrange i32 1, i64 2), ptr %0, align 16
  ret ptr %call

lpad:                                             ; preds = %entry
  %6 = landingpad { ptr, i32 }
          cleanup
  br label %lpad.body

lpad.body:                                        ; preds = %lpad.i.i, %lpad
  %eh.lpad-body = phi { ptr, i32 } [ %6, %lpad ], [ %3, %lpad.i.i ]
  tail call void @_ZdlPv(ptr noundef nonnull %call) #29
  resume { ptr, i32 } %eh.lpad-body
}

; Function Attrs: mustprogress nounwind uwtable
define internal void @_ZN12_GLOBAL__N_128ZipfTest_ChiSquaredTest_TestD2Ev(ptr noundef nonnull align 16 dereferenceable(112) %this) unnamed_addr #3 align 2 personality ptr @__gxx_personality_v0 {
entry:
  %0 = getelementptr inbounds i8, ptr %this, i64 56
  %.val.i = load ptr, ptr %0, align 8
  %tobool.not.i.i.i.i.i = icmp eq ptr %.val.i, null
  br i1 %tobool.not.i.i.i.i.i, label %_ZN12_GLOBAL__N_18ZipfTestD2Ev.exit, label %if.then.i.i.i.i.i

if.then.i.i.i.i.i:                                ; preds = %entry
  tail call void @_ZdlPv(ptr noundef nonnull %.val.i) #29
  br label %_ZN12_GLOBAL__N_18ZipfTestD2Ev.exit

_ZN12_GLOBAL__N_18ZipfTestD2Ev.exit:              ; preds = %entry, %if.then.i.i.i.i.i
  tail call void @_ZN7testing4TestD2Ev(ptr noundef nonnull align 8 dereferenceable(16) %this) #28
  ret void
}

; Function Attrs: mustprogress nounwind uwtable
define internal void @_ZN12_GLOBAL__N_128ZipfTest_ChiSquaredTest_TestD0Ev(ptr noundef nonnull align 16 dereferenceable(112) %this) unnamed_addr #3 align 2 personality ptr @__gxx_personality_v0 {
entry:
  %0 = getelementptr inbounds i8, ptr %this, i64 56
  %.val.i.i = load ptr, ptr %0, align 8
  %tobool.not.i.i.i.i.i.i = icmp eq ptr %.val.i.i, null
  br i1 %tobool.not.i.i.i.i.i.i, label %_ZN12_GLOBAL__N_128ZipfTest_ChiSquaredTest_TestD2Ev.exit, label %if.then.i.i.i.i.i.i

if.then.i.i.i.i.i.i:                              ; preds = %entry
  tail call void @_ZdlPv(ptr noundef nonnull %.val.i.i) #29
  br label %_ZN12_GLOBAL__N_128ZipfTest_ChiSquaredTest_TestD2Ev.exit

_ZN12_GLOBAL__N_128ZipfTest_ChiSquaredTest_TestD2Ev.exit: ; preds = %entry, %if.then.i.i.i.i.i.i
  tail call void @_ZN7testing4TestD2Ev(ptr noundef nonnull align 8 dereferenceable(16) %this) #28
  tail call void @_ZdlPv(ptr noundef nonnull %this) #29
  ret void
}

declare void @_ZN7testing4Test5SetUpEv(ptr noundef nonnull align 8 dereferenceable(16)) unnamed_addr #0

declare void @_ZN7testing4Test8TearDownEv(ptr noundef nonnull align 8 dereferenceable(16)) unnamed_addr #0

; Function Attrs: mustprogress uwtable
define internal void @_ZN12_GLOBAL__N_128ZipfTest_ChiSquaredTest_Test8TestBodyEv(ptr noundef nonnull align 16 dereferenceable(112) %this) unnamed_addr #4 align 2 personality ptr @__gxx_personality_v0 {
entry:
  %v.addr.i351 = alloca double, align 8
  %v.addr.i341 = alloca double, align 8
  %v.addr.i335 = alloca double, align 8
  %v.addr.i331 = alloca i32, align 4
  %v.addr.i323 = alloca double, align 8
  %v.addr.i318 = alloca double, align 8
  %v.addr.i313 = alloca i64, align 8
  %v.addr.i308 = alloca double, align 8
  %v.addr.i303 = alloca i64, align 8
  %v.addr.i = alloca i64, align 8
  %gtest_ar = alloca %"class.testing::AssertionResult", align 8
  %ref.tmp34 = alloca i64, align 8
  %ref.tmp36 = alloca i32, align 4
  %ref.tmp43 = alloca %"class.testing::Message", align 8
  %ref.tmp45 = alloca %"class.testing::internal::AssertHelper", align 8
  %dis = alloca %"class.absl::zipf_distribution", align 8
  %x65 = alloca i64, align 8
  %gtest_ar68 = alloca %"class.testing::AssertionResult", align 8
  %ref.tmp69 = alloca i64, align 8
  %ref.tmp78 = alloca %"class.testing::Message", align 8
  %ref.tmp80 = alloca %"class.testing::internal::AssertHelper", align 8
  %gtest_ar94 = alloca %"class.testing::AssertionResult", align 8
  %ref.tmp104 = alloca %"class.testing::Message", align 8
  %ref.tmp106 = alloca %"class.testing::internal::AssertHelper", align 8
  %ref.tmp193 = alloca %"class.absl::log_internal::LogMessage", align 8
  %ref.tmp209 = alloca %"class.absl::log_internal::LogMessage", align 8
  %ref.tmp234 = alloca %"class.absl::log_internal::LogMessage", align 8
  %ref.tmp247 = alloca %"class.absl::log_internal::LogMessage", align 8
  %ref.tmp267 = alloca %"class.absl::log_internal::LogMessage", align 8
  %ref.tmp292 = alloca %"class.absl::log_internal::LogMessage", align 8
  %ref.tmp306 = alloca %"class.testing::Message", align 8
  %ref.tmp317 = alloca %"class.testing::internal::AssertHelper", align 8
  %call = tail call noundef nonnull align 8 dereferenceable(64) ptr @_ZN7testing18WithParamInterfaceIN4absl17zipf_distributionImE10param_typeEE8GetParamEv()
  %add.ptr = getelementptr inbounds i8, ptr %this, i64 24
  %hnq_.i = getelementptr inbounds i8, ptr %this, i64 56
  %0 = load ptr, ptr %hnq_.i, align 8
  %_M_finish.i.i.i = getelementptr inbounds i8, ptr %this, i64 64
  %1 = load ptr, ptr %_M_finish.i.i.i, align 16
  %cmp.i.i.i = icmp eq ptr %0, %1
  br i1 %cmp.i.i.i, label %if.end.i.i, label %_ZN12_GLOBAL__N_19ZipfModel4InitEv.exit

if.end.i.i:                                       ; preds = %entry
  %2 = load i64, ptr %add.ptr, align 8
  %.sroa.speculated.i = tail call i64 @llvm.umin.i64(i64 %2, i64 1000)
  %_M_end_of_storage.i.i.i = getelementptr inbounds i8, ptr %this, i64 72
  %3 = load ptr, ptr %_M_end_of_storage.i.i.i, align 8
  %sub.ptr.lhs.cast.i.i.i = ptrtoint ptr %3 to i64
  %sub.ptr.rhs.cast.i.i.i = ptrtoint ptr %0 to i64
  %sub.ptr.sub.i.i.i = sub i64 %sub.ptr.lhs.cast.i.i.i, %sub.ptr.rhs.cast.i.i.i
  %sub.ptr.div.i.i.i = ashr exact i64 %sub.ptr.sub.i.i.i, 3
  %cmp3.i.i = icmp ult i64 %sub.ptr.div.i.i.i, %.sroa.speculated.i
  br i1 %cmp3.i.i, label %_ZNSt6vectorIdSaIdEE11_S_relocateEPdS2_S2_RS0_.exit.i.i, label %_ZNSt6vectorIdSaIdEE7reserveEm.exit.i

_ZNSt6vectorIdSaIdEE11_S_relocateEPdS2_S2_RS0_.exit.i.i: ; preds = %if.end.i.i
  %mul.i.i.i.i.i = shl nuw nsw i64 %.sroa.speculated.i, 3
  %call5.i.i.i.i.i = tail call noalias noundef nonnull ptr @_Znwm(i64 noundef %mul.i.i.i.i.i) #31
  %tobool.not.i.i18.i = icmp eq ptr %0, null
  br i1 %tobool.not.i.i18.i, label %_ZNSt12_Vector_baseIdSaIdEE13_M_deallocateEPdm.exit.i.i, label %if.then.i.i.i

if.then.i.i.i:                                    ; preds = %_ZNSt6vectorIdSaIdEE11_S_relocateEPdS2_S2_RS0_.exit.i.i
  tail call void @_ZdlPv(ptr noundef nonnull %0) #29
  %.pre.pre.i = load i64, ptr %add.ptr, align 8
  br label %_ZNSt12_Vector_baseIdSaIdEE13_M_deallocateEPdm.exit.i.i

_ZNSt12_Vector_baseIdSaIdEE13_M_deallocateEPdm.exit.i.i: ; preds = %if.then.i.i.i, %_ZNSt6vectorIdSaIdEE11_S_relocateEPdS2_S2_RS0_.exit.i.i
  %.pre.i = phi i64 [ %.pre.pre.i, %if.then.i.i.i ], [ %2, %_ZNSt6vectorIdSaIdEE11_S_relocateEPdS2_S2_RS0_.exit.i.i ]
  store ptr %call5.i.i.i.i.i, ptr %hnq_.i, align 8
  store ptr %call5.i.i.i.i.i, ptr %_M_finish.i.i.i, align 16
  %add.ptr21.i.i = getelementptr inbounds double, ptr %call5.i.i.i.i.i, i64 %.sroa.speculated.i
  store ptr %add.ptr21.i.i, ptr %_M_end_of_storage.i.i.i, align 8
  br label %_ZNSt6vectorIdSaIdEE7reserveEm.exit.i

_ZNSt6vectorIdSaIdEE7reserveEm.exit.i:            ; preds = %_ZNSt12_Vector_baseIdSaIdEE13_M_deallocateEPdm.exit.i.i, %if.end.i.i
  %4 = phi i64 [ %2, %if.end.i.i ], [ %.pre.i, %_ZNSt12_Vector_baseIdSaIdEE13_M_deallocateEPdm.exit.i.i ]
  %sum_hnq_.i = getelementptr inbounds i8, ptr %this, i64 80
  store double 0.000000e+00, ptr %sum_hnq_.i, align 16
  %q_.i = getelementptr inbounds i8, ptr %this, i64 32
  %cmp25.not.i = icmp eq i64 %4, 0
  br i1 %cmp25.not.i, label %for.end.i, label %for.body.lr.ph.i

for.body.lr.ph.i:                                 ; preds = %_ZNSt6vectorIdSaIdEE7reserveEm.exit.i
  %5 = load double, ptr %q_.i, align 16
  %sub.i = fadd double %5, -1.000000e+00
  %v_.i = getelementptr inbounds i8, ptr %this, i64 40
  %fneg.i = fneg double %sub.i
  br label %for.body.i

for.cond.i:                                       ; preds = %_ZNSt6vectorIdSaIdEE9push_backERKd.exit.i
  %inc.i = add nuw i64 %i.026.i, 1
  %6 = load i64, ptr %add.ptr, align 8
  %cmp.i = icmp ult i64 %inc.i, %6
  br i1 %cmp.i, label %for.bodythread-pre-split.i, label %for.end.loopexit.i, !llvm.loop !16

for.bodythread-pre-split.i:                       ; preds = %for.cond.i
  %.pr33.i = load double, ptr %q_.i, align 16
  br label %for.body.i

for.body.i:                                       ; preds = %for.bodythread-pre-split.i, %for.body.lr.ph.i
  %7 = phi double [ %.pr33.i, %for.bodythread-pre-split.i ], [ %5, %for.body.lr.ph.i ]
  %sum_hnq_m1.027.i = phi double [ %add1637.i, %for.bodythread-pre-split.i ], [ 0.000000e+00, %for.body.lr.ph.i ]
  %i.026.i = phi i64 [ %inc.i, %for.bodythread-pre-split.i ], [ 0, %for.body.lr.ph.i ]
  %8 = load double, ptr %v_.i, align 8
  %conv.i = uitofp i64 %i.026.i to double
  %add.i = fadd double %8, %conv.i
  %cmp7.i = fcmp oeq double %7, 2.000000e+00
  br i1 %cmp7.i, label %cond.end14.thread.i, label %cond.false.i

cond.end14.thread.i:                              ; preds = %for.body.i
  %div.i = fdiv double 1.000000e+00, %add.i
  %add1635.i = fadd double %sum_hnq_m1.027.i, %div.i
  br label %cond.true19.i

cond.false.i:                                     ; preds = %for.body.i
  %cmp9.i = fcmp oeq double %7, 3.000000e+00
  br i1 %cmp9.i, label %cond.false22.thread.i, label %cond.end14.i

cond.false22.thread.i:                            ; preds = %cond.false.i
  %mul.i = fmul double %add.i, %add.i
  %div11.i = fdiv double 1.000000e+00, %mul.i
  %add1641.i = fadd double %sum_hnq_m1.027.i, %div11.i
  br label %cond.true25.i

cond.end14.i:                                     ; preds = %cond.false.i
  %call13.i = tail call double @pow(double noundef %add.i, double noundef %fneg.i) #28
  %.pr.pre.i = load double, ptr %q_.i, align 16
  %add16.i = fadd double %sum_hnq_m1.027.i, %call13.i
  %cmp18.i = fcmp oeq double %.pr.pre.i, 2.000000e+00
  br i1 %cmp18.i, label %cond.true19.i, label %cond.false22.i

cond.true19.i:                                    ; preds = %cond.end14.i, %cond.end14.thread.i
  %add1638.i = phi double [ %add1635.i, %cond.end14.thread.i ], [ %add16.i, %cond.end14.i ]
  %mul20.i = fmul double %add.i, %add.i
  %div21.i = fdiv double 1.000000e+00, %mul20.i
  br label %cond.end35.i

cond.false22.i:                                   ; preds = %cond.end14.i
  %cmp24.i = fcmp oeq double %.pr.pre.i, 3.000000e+00
  br i1 %cmp24.i, label %cond.false22.i.cond.true25.i_crit_edge, label %cond.false29.i

cond.false22.i.cond.true25.i_crit_edge:           ; preds = %cond.false22.i
  %.pre504 = fmul double %add.i, %add.i
  br label %cond.true25.i

cond.true25.i:                                    ; preds = %cond.false22.i.cond.true25.i_crit_edge, %cond.false22.thread.i
  %mul26.i.pre-phi = phi double [ %.pre504, %cond.false22.i.cond.true25.i_crit_edge ], [ %mul.i, %cond.false22.thread.i ]
  %add164346.i = phi double [ %add16.i, %cond.false22.i.cond.true25.i_crit_edge ], [ %add1641.i, %cond.false22.thread.i ]
  %mul27.i = fmul double %add.i, %mul26.i.pre-phi
  %div28.i = fdiv double 1.000000e+00, %mul27.i
  br label %cond.end35.i

cond.false29.i:                                   ; preds = %cond.false22.i
  %fneg31.i = fneg double %.pr.pre.i
  %call32.i = tail call double @pow(double noundef %add.i, double noundef %fneg31.i) #28
  br label %cond.end35.i

cond.end35.i:                                     ; preds = %cond.false29.i, %cond.true25.i, %cond.true19.i
  %add1637.i = phi double [ %add1638.i, %cond.true19.i ], [ %add164346.i, %cond.true25.i ], [ %add16.i, %cond.false29.i ]
  %cond36.i = phi double [ %div21.i, %cond.true19.i ], [ %div28.i, %cond.true25.i ], [ %call32.i, %cond.false29.i ]
  %9 = load double, ptr %sum_hnq_.i, align 16
  %add38.i = fadd double %cond36.i, %9
  store double %add38.i, ptr %sum_hnq_.i, align 16
  %10 = load ptr, ptr %_M_finish.i.i.i, align 16
  %11 = load ptr, ptr %_M_end_of_storage.i.i.i, align 8
  %cmp.not.i.i = icmp eq ptr %10, %11
  br i1 %cmp.not.i.i, label %if.else.i.i, label %if.then.i19.i

if.then.i19.i:                                    ; preds = %cond.end35.i
  store double %cond36.i, ptr %10, align 8
  %12 = load ptr, ptr %_M_finish.i.i.i, align 16
  %incdec.ptr.i.i = getelementptr inbounds double, ptr %12, i64 1
  store ptr %incdec.ptr.i.i, ptr %_M_finish.i.i.i, align 16
  br label %_ZNSt6vectorIdSaIdEE9push_backERKd.exit.i

if.else.i.i:                                      ; preds = %cond.end35.i
  %13 = load ptr, ptr %hnq_.i, align 8
  %sub.ptr.lhs.cast.i.i.i.i.i = ptrtoint ptr %10 to i64
  %sub.ptr.rhs.cast.i.i.i.i.i = ptrtoint ptr %13 to i64
  %sub.ptr.sub.i.i.i.i.i = sub i64 %sub.ptr.lhs.cast.i.i.i.i.i, %sub.ptr.rhs.cast.i.i.i.i.i
  %cmp.i.i.i.i = icmp eq i64 %sub.ptr.sub.i.i.i.i.i, 9223372036854775800
  br i1 %cmp.i.i.i.i, label %if.then.i.i.i.i, label %_ZNKSt6vectorIdSaIdEE12_M_check_lenEmPKc.exit.i.i.i

if.then.i.i.i.i:                                  ; preds = %if.else.i.i
  tail call void @_ZSt20__throw_length_errorPKc(ptr noundef nonnull @.str.15) #30
  unreachable

_ZNKSt6vectorIdSaIdEE12_M_check_lenEmPKc.exit.i.i.i: ; preds = %if.else.i.i
  %sub.ptr.div.i.i.i.i.i = ashr exact i64 %sub.ptr.sub.i.i.i.i.i, 3
  %.sroa.speculated.i.i.i.i = tail call i64 @llvm.umax.i64(i64 %sub.ptr.div.i.i.i.i.i, i64 1)
  %add.i.i.i.i = add i64 %.sroa.speculated.i.i.i.i, %sub.ptr.div.i.i.i.i.i
  %cmp7.i.i.i.i = icmp ult i64 %add.i.i.i.i, %sub.ptr.div.i.i.i.i.i
  %cmp9.i.i.i.i = icmp ugt i64 %add.i.i.i.i, 1152921504606846975
  %or.cond.i.i.i.i = or i1 %cmp7.i.i.i.i, %cmp9.i.i.i.i
  %cond.i.i.i.i = select i1 %or.cond.i.i.i.i, i64 1152921504606846975, i64 %add.i.i.i.i
  %cmp.not.i.i.i.i = icmp eq i64 %cond.i.i.i.i, 0
  br i1 %cmp.not.i.i.i.i, label %_ZNSt12_Vector_baseIdSaIdEE11_M_allocateEm.exit.i.i.i, label %_ZNSt16allocator_traitsISaIdEE8allocateERS0_m.exit.i.i.i.i

_ZNSt16allocator_traitsISaIdEE8allocateERS0_m.exit.i.i.i.i: ; preds = %_ZNKSt6vectorIdSaIdEE12_M_check_lenEmPKc.exit.i.i.i
  %mul.i.i.i.i.i.i = shl nuw nsw i64 %cond.i.i.i.i, 3
  %call5.i.i.i.i.i.i = tail call noalias noundef nonnull ptr @_Znwm(i64 noundef %mul.i.i.i.i.i.i) #31
  br label %_ZNSt12_Vector_baseIdSaIdEE11_M_allocateEm.exit.i.i.i

_ZNSt12_Vector_baseIdSaIdEE11_M_allocateEm.exit.i.i.i: ; preds = %_ZNSt16allocator_traitsISaIdEE8allocateERS0_m.exit.i.i.i.i, %_ZNKSt6vectorIdSaIdEE12_M_check_lenEmPKc.exit.i.i.i
  %cond.i10.i.i.i = phi ptr [ %call5.i.i.i.i.i.i, %_ZNSt16allocator_traitsISaIdEE8allocateERS0_m.exit.i.i.i.i ], [ null, %_ZNKSt6vectorIdSaIdEE12_M_check_lenEmPKc.exit.i.i.i ]
  %add.ptr.i.i.i = getelementptr inbounds double, ptr %cond.i10.i.i.i, i64 %sub.ptr.div.i.i.i.i.i
  store double %cond36.i, ptr %add.ptr.i.i.i, align 8
  %cmp.i.i.i11.i.i.i = icmp sgt i64 %sub.ptr.div.i.i.i.i.i, 0
  br i1 %cmp.i.i.i11.i.i.i, label %if.then.i.i.i12.i.i.i, label %_ZNSt6vectorIdSaIdEE11_S_relocateEPdS2_S2_RS0_.exit20.i.i.i

if.then.i.i.i12.i.i.i:                            ; preds = %_ZNSt12_Vector_baseIdSaIdEE11_M_allocateEm.exit.i.i.i
  tail call void @llvm.memmove.p0.p0.i64(ptr nonnull align 8 %cond.i10.i.i.i, ptr align 8 %13, i64 %sub.ptr.sub.i.i.i.i.i, i1 false)
  br label %_ZNSt6vectorIdSaIdEE11_S_relocateEPdS2_S2_RS0_.exit20.i.i.i

_ZNSt6vectorIdSaIdEE11_S_relocateEPdS2_S2_RS0_.exit20.i.i.i: ; preds = %if.then.i.i.i12.i.i.i, %_ZNSt12_Vector_baseIdSaIdEE11_M_allocateEm.exit.i.i.i
  %incdec.ptr.i.i.i = getelementptr inbounds double, ptr %add.ptr.i.i.i, i64 1
  %tobool.not.i.i.i.i = icmp eq ptr %13, null
  br i1 %tobool.not.i.i.i.i, label %_ZNSt6vectorIdSaIdEE17_M_realloc_insertIJRKdEEEvN9__gnu_cxx17__normal_iteratorIPdS1_EEDpOT_.exit.i.i, label %if.then.i21.i.i.i

if.then.i21.i.i.i:                                ; preds = %_ZNSt6vectorIdSaIdEE11_S_relocateEPdS2_S2_RS0_.exit20.i.i.i
  tail call void @_ZdlPv(ptr noundef nonnull %13) #29
  br label %_ZNSt6vectorIdSaIdEE17_M_realloc_insertIJRKdEEEvN9__gnu_cxx17__normal_iteratorIPdS1_EEDpOT_.exit.i.i

_ZNSt6vectorIdSaIdEE17_M_realloc_insertIJRKdEEEvN9__gnu_cxx17__normal_iteratorIPdS1_EEDpOT_.exit.i.i: ; preds = %if.then.i21.i.i.i, %_ZNSt6vectorIdSaIdEE11_S_relocateEPdS2_S2_RS0_.exit20.i.i.i
  store ptr %cond.i10.i.i.i, ptr %hnq_.i, align 8
  store ptr %incdec.ptr.i.i.i, ptr %_M_finish.i.i.i, align 16
  %add.ptr19.i.i.i = getelementptr inbounds double, ptr %cond.i10.i.i.i, i64 %cond.i.i.i.i
  store ptr %add.ptr19.i.i.i, ptr %_M_end_of_storage.i.i.i, align 8
  br label %_ZNSt6vectorIdSaIdEE9push_backERKd.exit.i

_ZNSt6vectorIdSaIdEE9push_backERKd.exit.i:        ; preds = %_ZNSt6vectorIdSaIdEE17_M_realloc_insertIJRKdEEEvN9__gnu_cxx17__normal_iteratorIPdS1_EEDpOT_.exit.i.i, %if.then.i19.i
  %cmp40.i = icmp ugt i64 %i.026.i, 1000
  %cmp41.i = fcmp ole double %cond36.i, 1.000000e-10
  %or.cond.i = select i1 %cmp40.i, i1 %cmp41.i, i1 false
  br i1 %or.cond.i, label %for.end.loopexit.i, label %for.cond.i

for.end.loopexit.i:                               ; preds = %_ZNSt6vectorIdSaIdEE9push_backERKd.exit.i, %for.cond.i
  %.pre31.i = load double, ptr %sum_hnq_.i, align 16
  %14 = fdiv double %add1637.i, %.pre31.i
  br label %for.end.i

for.end.i:                                        ; preds = %for.end.loopexit.i, %_ZNSt6vectorIdSaIdEE7reserveEm.exit.i
  %div45.i = phi double [ 0x7FF8000000000000, %_ZNSt6vectorIdSaIdEE7reserveEm.exit.i ], [ %14, %for.end.loopexit.i ]
  %mean_.i = getelementptr inbounds i8, ptr %this, i64 48
  store double %div45.i, ptr %mean_.i, align 16
  br label %_ZN12_GLOBAL__N_19ZipfModel4InitEv.exit

_ZN12_GLOBAL__N_19ZipfModel4InitEv.exit:          ; preds = %entry, %for.end.i
  %sum_hnq_.i.i = getelementptr inbounds i8, ptr %this, i64 80
  br label %for.body

for.body:                                         ; preds = %_ZN12_GLOBAL__N_19ZipfModel4InitEv.exit, %for.inc
  %last_cdf.0486 = phi double [ 0.000000e+00, %_ZN12_GLOBAL__N_19ZipfModel4InitEv.exit ], [ %last_cdf.1, %for.inc ]
  %min_p.0485 = phi double [ 1.000000e+00, %_ZN12_GLOBAL__N_19ZipfModel4InitEv.exit ], [ %min_p.1, %for.inc ]
  %p.0484 = phi double [ 1.000000e-02, %_ZN12_GLOBAL__N_19ZipfModel4InitEv.exit ], [ %add, %for.inc ]
  %points.sroa.0.0483 = phi ptr [ null, %_ZN12_GLOBAL__N_19ZipfModel4InitEv.exit ], [ %points.sroa.0.3, %for.inc ]
  %points.sroa.13.0482 = phi ptr [ null, %_ZN12_GLOBAL__N_19ZipfModel4InitEv.exit ], [ %points.sroa.13.2, %for.inc ]
  %points.sroa.27.0481 = phi ptr [ null, %_ZN12_GLOBAL__N_19ZipfModel4InitEv.exit ], [ %points.sroa.27.2, %for.inc ]
  %expected.sroa.0.0480 = phi ptr [ null, %_ZN12_GLOBAL__N_19ZipfModel4InitEv.exit ], [ %expected.sroa.0.3, %for.inc ]
  %expected.sroa.12.0479 = phi ptr [ null, %_ZN12_GLOBAL__N_19ZipfModel4InitEv.exit ], [ %expected.sroa.12.2, %for.inc ]
  %expected.sroa.25.0478 = phi ptr [ null, %_ZN12_GLOBAL__N_19ZipfModel4InitEv.exit ], [ %expected.sroa.25.2, %for.inc ]
  %15 = load ptr, ptr %_M_finish.i.i.i, align 16
  %16 = load ptr, ptr %hnq_.i, align 8
  %sub.ptr.lhs.cast.i.i = ptrtoint ptr %15 to i64
  %sub.ptr.rhs.cast.i.i = ptrtoint ptr %16 to i64
  %sub.ptr.sub.i.i = sub i64 %sub.ptr.lhs.cast.i.i, %sub.ptr.rhs.cast.i.i
  %sub.ptr.div.i.i = ashr exact i64 %sub.ptr.sub.i.i, 3
  %cmp5.i = icmp ugt i64 %sub.ptr.div.i.i, 1
  br i1 %cmp5.i, label %while.body.lr.ph.i, label %invoke.cont

while.body.lr.ph.i:                               ; preds = %for.body
  %17 = load double, ptr %sum_hnq_.i.i, align 16
  %div.i.i = fdiv double 0.000000e+00, %17
  br label %while.body.i

while.body.i:                                     ; preds = %while.body.i, %while.body.lr.ph.i
  %max.07.i = phi i64 [ %sub.ptr.div.i.i, %while.body.lr.ph.i ], [ %max.1.i, %while.body.i ]
  %min.06.i = phi i64 [ 0, %while.body.lr.ph.i ], [ %min.1.i, %while.body.i ]
  %add2.i = add i64 %min.06.i, %max.07.i
  %shr.i = lshr i64 %add2.i, 1
  %cmp.not.i.i43 = icmp ugt i64 %sub.ptr.div.i.i, %shr.i
  %retval.0.i.i = select i1 %cmp.not.i.i43, double %div.i.i, double 1.000000e+00
  %cmp4.i = fcmp ogt double %retval.0.i.i, %p.0484
  %min.1.i = select i1 %cmp4.i, i64 %min.06.i, i64 %shr.i
  %max.1.i = select i1 %cmp4.i, i64 %shr.i, i64 %max.07.i
  %add.i44 = add nuw i64 %min.1.i, 1
  %cmp.i45 = icmp ugt i64 %max.1.i, %add.i44
  br i1 %cmp.i45, label %while.body.i, label %invoke.cont, !llvm.loop !17

invoke.cont:                                      ; preds = %while.body.i, %for.body
  %max.0.lcssa.i = phi i64 [ %sub.ptr.div.i.i, %for.body ], [ %max.1.i, %while.body.i ]
  %cmp.i.i = icmp eq ptr %points.sroa.0.0483, %points.sroa.13.0482
  br i1 %cmp.i.i, label %invoke.cont10, label %lor.lhs.false

lor.lhs.false:                                    ; preds = %invoke.cont
  %add.ptr.i.i = getelementptr inbounds i64, ptr %points.sroa.13.0482, i64 -1
  %18 = load i64, ptr %add.ptr.i.i, align 8
  %cmp6 = icmp ult i64 %18, %max.0.lcssa.i
  br i1 %cmp6, label %invoke.cont10, label %for.inc

invoke.cont10:                                    ; preds = %invoke.cont, %lor.lhs.false
  %cmp.not.i = icmp ugt i64 %sub.ptr.div.i.i, %max.0.lcssa.i
  %19 = load double, ptr %sum_hnq_.i.i, align 16
  %div.i55 = fdiv double 0.000000e+00, %19
  %retval.0.i = select i1 %cmp.not.i, double %div.i55, double 1.000000e+00
  %cmp.not.i56 = icmp eq ptr %points.sroa.13.0482, %points.sroa.27.0481
  br i1 %cmp.not.i56, label %if.else.i, label %if.then.i

if.then.i:                                        ; preds = %invoke.cont10
  store i64 %max.0.lcssa.i, ptr %points.sroa.13.0482, align 8
  br label %invoke.cont13

if.else.i:                                        ; preds = %invoke.cont10
  %sub.ptr.lhs.cast.i.i.i.i = ptrtoint ptr %points.sroa.13.0482 to i64
  %sub.ptr.rhs.cast.i.i.i.i = ptrtoint ptr %points.sroa.0.0483 to i64
  %sub.ptr.sub.i.i.i.i = sub i64 %sub.ptr.lhs.cast.i.i.i.i, %sub.ptr.rhs.cast.i.i.i.i
  %cmp.i.i.i57 = icmp eq i64 %sub.ptr.sub.i.i.i.i, 9223372036854775800
  br i1 %cmp.i.i.i57, label %if.then.i.i.i62, label %_ZNKSt6vectorImSaImEE12_M_check_lenEmPKc.exit.i.i

if.then.i.i.i62:                                  ; preds = %if.else.i
  invoke void @_ZSt20__throw_length_errorPKc(ptr noundef nonnull @.str.15) #30
          to label %.noexc unwind label %lpad.loopexit.split-lp

.noexc:                                           ; preds = %if.then.i.i.i62
  unreachable

_ZNKSt6vectorImSaImEE12_M_check_lenEmPKc.exit.i.i: ; preds = %if.else.i
  %sub.ptr.div.i.i.i.i = ashr exact i64 %sub.ptr.sub.i.i.i.i, 3
  %.sroa.speculated.i.i.i = tail call i64 @llvm.umax.i64(i64 %sub.ptr.div.i.i.i.i, i64 1)
  %add.i.i.i = add i64 %.sroa.speculated.i.i.i, %sub.ptr.div.i.i.i.i
  %cmp7.i.i.i = icmp ult i64 %add.i.i.i, %sub.ptr.div.i.i.i.i
  %cmp9.i.i.i = icmp ugt i64 %add.i.i.i, 1152921504606846975
  %or.cond.i.i.i = or i1 %cmp7.i.i.i, %cmp9.i.i.i
  %cond.i.i.i = select i1 %or.cond.i.i.i, i64 1152921504606846975, i64 %add.i.i.i
  %cmp.not.i.i.i = icmp eq i64 %cond.i.i.i, 0
  br i1 %cmp.not.i.i.i, label %_ZNSt12_Vector_baseImSaImEE11_M_allocateEm.exit.i.i, label %_ZNSt16allocator_traitsISaImEE8allocateERS0_m.exit.i.i.i

_ZNSt16allocator_traitsISaImEE8allocateERS0_m.exit.i.i.i: ; preds = %_ZNKSt6vectorImSaImEE12_M_check_lenEmPKc.exit.i.i
  %mul.i.i.i.i.i58 = shl nuw nsw i64 %cond.i.i.i, 3
  %call5.i.i.i.i.i5963 = invoke noalias noundef nonnull ptr @_Znwm(i64 noundef %mul.i.i.i.i.i58) #31
          to label %_ZNSt12_Vector_baseImSaImEE11_M_allocateEm.exit.i.i unwind label %lpad.loopexit445

_ZNSt12_Vector_baseImSaImEE11_M_allocateEm.exit.i.i: ; preds = %_ZNSt16allocator_traitsISaImEE8allocateERS0_m.exit.i.i.i, %_ZNKSt6vectorImSaImEE12_M_check_lenEmPKc.exit.i.i
  %cond.i10.i.i = phi ptr [ null, %_ZNKSt6vectorImSaImEE12_M_check_lenEmPKc.exit.i.i ], [ %call5.i.i.i.i.i5963, %_ZNSt16allocator_traitsISaImEE8allocateERS0_m.exit.i.i.i ]
  %add.ptr.i.i60 = getelementptr inbounds i64, ptr %cond.i10.i.i, i64 %sub.ptr.div.i.i.i.i
  store i64 %max.0.lcssa.i, ptr %add.ptr.i.i60, align 8
  %cmp.i.i.i11.i.i = icmp sgt i64 %sub.ptr.div.i.i.i.i, 0
  br i1 %cmp.i.i.i11.i.i, label %if.then.i.i.i12.i.i, label %_ZNSt6vectorImSaImEE11_S_relocateEPmS2_S2_RS0_.exit20.i.i

if.then.i.i.i12.i.i:                              ; preds = %_ZNSt12_Vector_baseImSaImEE11_M_allocateEm.exit.i.i
  tail call void @llvm.memmove.p0.p0.i64(ptr nonnull align 8 %cond.i10.i.i, ptr align 8 %points.sroa.0.0483, i64 %sub.ptr.sub.i.i.i.i, i1 false)
  br label %_ZNSt6vectorImSaImEE11_S_relocateEPmS2_S2_RS0_.exit20.i.i

_ZNSt6vectorImSaImEE11_S_relocateEPmS2_S2_RS0_.exit20.i.i: ; preds = %if.then.i.i.i12.i.i, %_ZNSt12_Vector_baseImSaImEE11_M_allocateEm.exit.i.i
  %tobool.not.i.i.i = icmp eq ptr %points.sroa.0.0483, null
  br i1 %tobool.not.i.i.i, label %_ZNSt6vectorImSaImEE17_M_realloc_insertIJRKmEEEvN9__gnu_cxx17__normal_iteratorIPmS1_EEDpOT_.exit.i, label %if.then.i21.i.i

if.then.i21.i.i:                                  ; preds = %_ZNSt6vectorImSaImEE11_S_relocateEPmS2_S2_RS0_.exit20.i.i
  tail call void @_ZdlPv(ptr noundef nonnull %points.sroa.0.0483) #29
  br label %_ZNSt6vectorImSaImEE17_M_realloc_insertIJRKmEEEvN9__gnu_cxx17__normal_iteratorIPmS1_EEDpOT_.exit.i

_ZNSt6vectorImSaImEE17_M_realloc_insertIJRKmEEEvN9__gnu_cxx17__normal_iteratorIPmS1_EEDpOT_.exit.i: ; preds = %if.then.i21.i.i, %_ZNSt6vectorImSaImEE11_S_relocateEPmS2_S2_RS0_.exit20.i.i
  %add.ptr19.i.i = getelementptr inbounds i64, ptr %cond.i10.i.i, i64 %cond.i.i.i
  br label %invoke.cont13

invoke.cont13:                                    ; preds = %_ZNSt6vectorImSaImEE17_M_realloc_insertIJRKmEEEvN9__gnu_cxx17__normal_iteratorIPmS1_EEDpOT_.exit.i, %if.then.i
  %points.sroa.27.1 = phi ptr [ %add.ptr19.i.i, %_ZNSt6vectorImSaImEE17_M_realloc_insertIJRKmEEEvN9__gnu_cxx17__normal_iteratorIPmS1_EEDpOT_.exit.i ], [ %points.sroa.27.0481, %if.then.i ]
  %add.ptr.i.i60.pn = phi ptr [ %add.ptr.i.i60, %_ZNSt6vectorImSaImEE17_M_realloc_insertIJRKmEEEvN9__gnu_cxx17__normal_iteratorIPmS1_EEDpOT_.exit.i ], [ %points.sroa.13.0482, %if.then.i ]
  %points.sroa.0.1 = phi ptr [ %cond.i10.i.i, %_ZNSt6vectorImSaImEE17_M_realloc_insertIJRKmEEEvN9__gnu_cxx17__normal_iteratorIPmS1_EEDpOT_.exit.i ], [ %points.sroa.0.0483, %if.then.i ]
  %points.sroa.13.1 = getelementptr inbounds i64, ptr %add.ptr.i.i60.pn, i64 1
  %sub = fsub double %retval.0.i, %last_cdf.0486
  %cmp.not.i66 = icmp eq ptr %expected.sroa.12.0479, %expected.sroa.25.0478
  br i1 %cmp.not.i66, label %if.else.i69, label %if.then.i67

if.then.i67:                                      ; preds = %invoke.cont13
  store double %sub, ptr %expected.sroa.12.0479, align 8
  br label %invoke.cont14

if.else.i69:                                      ; preds = %invoke.cont13
  %sub.ptr.lhs.cast.i.i.i.i70 = ptrtoint ptr %expected.sroa.12.0479 to i64
  %sub.ptr.rhs.cast.i.i.i.i71 = ptrtoint ptr %expected.sroa.0.0480 to i64
  %sub.ptr.sub.i.i.i.i72 = sub i64 %sub.ptr.lhs.cast.i.i.i.i70, %sub.ptr.rhs.cast.i.i.i.i71
  %cmp.i.i.i73 = icmp eq i64 %sub.ptr.sub.i.i.i.i72, 9223372036854775800
  br i1 %cmp.i.i.i73, label %if.then.i.i.i92, label %_ZNKSt6vectorIdSaIdEE12_M_check_lenEmPKc.exit.i.i

if.then.i.i.i92:                                  ; preds = %if.else.i69
  invoke void @_ZSt20__throw_length_errorPKc(ptr noundef nonnull @.str.15) #30
          to label %.noexc93 unwind label %lpad.loopexit.split-lp

.noexc93:                                         ; preds = %if.then.i.i.i92
  unreachable

_ZNKSt6vectorIdSaIdEE12_M_check_lenEmPKc.exit.i.i: ; preds = %if.else.i69
  %sub.ptr.div.i.i.i.i74 = ashr exact i64 %sub.ptr.sub.i.i.i.i72, 3
  %.sroa.speculated.i.i.i75 = tail call i64 @llvm.umax.i64(i64 %sub.ptr.div.i.i.i.i74, i64 1)
  %add.i.i.i76 = add i64 %.sroa.speculated.i.i.i75, %sub.ptr.div.i.i.i.i74
  %cmp7.i.i.i77 = icmp ult i64 %add.i.i.i76, %sub.ptr.div.i.i.i.i74
  %cmp9.i.i.i78 = icmp ugt i64 %add.i.i.i76, 1152921504606846975
  %or.cond.i.i.i79 = or i1 %cmp7.i.i.i77, %cmp9.i.i.i78
  %cond.i.i.i80 = select i1 %or.cond.i.i.i79, i64 1152921504606846975, i64 %add.i.i.i76
  %cmp.not.i.i.i81 = icmp eq i64 %cond.i.i.i80, 0
  br i1 %cmp.not.i.i.i81, label %_ZNSt12_Vector_baseIdSaIdEE11_M_allocateEm.exit.i.i, label %_ZNSt16allocator_traitsISaIdEE8allocateERS0_m.exit.i.i.i

_ZNSt16allocator_traitsISaIdEE8allocateERS0_m.exit.i.i.i: ; preds = %_ZNKSt6vectorIdSaIdEE12_M_check_lenEmPKc.exit.i.i
  %mul.i.i.i.i.i82 = shl nuw nsw i64 %cond.i.i.i80, 3
  %call5.i.i.i.i.i8394 = invoke noalias noundef nonnull ptr @_Znwm(i64 noundef %mul.i.i.i.i.i82) #31
          to label %_ZNSt12_Vector_baseIdSaIdEE11_M_allocateEm.exit.i.i unwind label %lpad.loopexit445

_ZNSt12_Vector_baseIdSaIdEE11_M_allocateEm.exit.i.i: ; preds = %_ZNSt16allocator_traitsISaIdEE8allocateERS0_m.exit.i.i.i, %_ZNKSt6vectorIdSaIdEE12_M_check_lenEmPKc.exit.i.i
  %cond.i10.i.i84 = phi ptr [ null, %_ZNKSt6vectorIdSaIdEE12_M_check_lenEmPKc.exit.i.i ], [ %call5.i.i.i.i.i8394, %_ZNSt16allocator_traitsISaIdEE8allocateERS0_m.exit.i.i.i ]
  %add.ptr.i.i85 = getelementptr inbounds double, ptr %cond.i10.i.i84, i64 %sub.ptr.div.i.i.i.i74
  store double %sub, ptr %add.ptr.i.i85, align 8
  %cmp.i.i.i11.i.i86 = icmp sgt i64 %sub.ptr.div.i.i.i.i74, 0
  br i1 %cmp.i.i.i11.i.i86, label %if.then.i.i.i12.i.i91, label %_ZNSt6vectorIdSaIdEE11_S_relocateEPdS2_S2_RS0_.exit20.i.i

if.then.i.i.i12.i.i91:                            ; preds = %_ZNSt12_Vector_baseIdSaIdEE11_M_allocateEm.exit.i.i
  tail call void @llvm.memmove.p0.p0.i64(ptr nonnull align 8 %cond.i10.i.i84, ptr align 8 %expected.sroa.0.0480, i64 %sub.ptr.sub.i.i.i.i72, i1 false)
  br label %_ZNSt6vectorIdSaIdEE11_S_relocateEPdS2_S2_RS0_.exit20.i.i

_ZNSt6vectorIdSaIdEE11_S_relocateEPdS2_S2_RS0_.exit20.i.i: ; preds = %if.then.i.i.i12.i.i91, %_ZNSt12_Vector_baseIdSaIdEE11_M_allocateEm.exit.i.i
  %tobool.not.i.i.i88 = icmp eq ptr %expected.sroa.0.0480, null
  br i1 %tobool.not.i.i.i88, label %_ZNSt6vectorIdSaIdEE17_M_realloc_insertIJRKdEEEvN9__gnu_cxx17__normal_iteratorIPdS1_EEDpOT_.exit.i, label %if.then.i21.i.i89

if.then.i21.i.i89:                                ; preds = %_ZNSt6vectorIdSaIdEE11_S_relocateEPdS2_S2_RS0_.exit20.i.i
  tail call void @_ZdlPv(ptr noundef nonnull %expected.sroa.0.0480) #29
  br label %_ZNSt6vectorIdSaIdEE17_M_realloc_insertIJRKdEEEvN9__gnu_cxx17__normal_iteratorIPdS1_EEDpOT_.exit.i

_ZNSt6vectorIdSaIdEE17_M_realloc_insertIJRKdEEEvN9__gnu_cxx17__normal_iteratorIPdS1_EEDpOT_.exit.i: ; preds = %if.then.i21.i.i89, %_ZNSt6vectorIdSaIdEE11_S_relocateEPdS2_S2_RS0_.exit20.i.i
  %add.ptr19.i.i90 = getelementptr inbounds double, ptr %cond.i10.i.i84, i64 %cond.i.i.i80
  br label %invoke.cont14

invoke.cont14:                                    ; preds = %_ZNSt6vectorIdSaIdEE17_M_realloc_insertIJRKdEEEvN9__gnu_cxx17__normal_iteratorIPdS1_EEDpOT_.exit.i, %if.then.i67
  %expected.sroa.25.1 = phi ptr [ %add.ptr19.i.i90, %_ZNSt6vectorIdSaIdEE17_M_realloc_insertIJRKdEEEvN9__gnu_cxx17__normal_iteratorIPdS1_EEDpOT_.exit.i ], [ %expected.sroa.25.0478, %if.then.i67 ]
  %add.ptr.i.i85.pn = phi ptr [ %add.ptr.i.i85, %_ZNSt6vectorIdSaIdEE17_M_realloc_insertIJRKdEEEvN9__gnu_cxx17__normal_iteratorIPdS1_EEDpOT_.exit.i ], [ %expected.sroa.12.0479, %if.then.i67 ]
  %expected.sroa.0.1 = phi ptr [ %cond.i10.i.i84, %_ZNSt6vectorIdSaIdEE17_M_realloc_insertIJRKdEEEvN9__gnu_cxx17__normal_iteratorIPdS1_EEDpOT_.exit.i ], [ %expected.sroa.0.0480, %if.then.i67 ]
  %expected.sroa.12.1 = getelementptr inbounds double, ptr %add.ptr.i.i85.pn, i64 1
  %cmp15 = fcmp olt double %sub, %min_p.0485
  br i1 %cmp15, label %if.then16, label %for.inc

if.then16:                                        ; preds = %invoke.cont14
  br label %for.inc

lpad.loopexit445:                                 ; preds = %_ZNSt16allocator_traitsISaImEE8allocateERS0_m.exit.i.i.i, %_ZNSt16allocator_traitsISaIdEE8allocateERS0_m.exit.i.i.i
  %points.sroa.0.2.ph = phi ptr [ %points.sroa.0.0483, %_ZNSt16allocator_traitsISaImEE8allocateERS0_m.exit.i.i.i ], [ %points.sroa.0.1, %_ZNSt16allocator_traitsISaIdEE8allocateERS0_m.exit.i.i.i ]
  %lpad.loopexit447 = landingpad { ptr, i32 }
          cleanup
  br label %ehcleanup327

lpad.loopexit.split-lp:                           ; preds = %if.then.i.i.i62, %if.then.i.i.i92, %if.then.i.i.i.i121, %_ZNSt16allocator_traitsISaImEE8allocateERS0_m.exit.i.i.i.i, %if.then.i.i.i157, %_ZNSt16allocator_traitsISaIdEE8allocateERS0_m.exit.i.i.i143, %if.then.i169, %if.else.i168
  %expected.sroa.0.2.ph = phi ptr [ %expected.sroa.0.3, %_ZNSt16allocator_traitsISaImEE8allocateERS0_m.exit.i.i.i.i ], [ %expected.sroa.0.3, %_ZNSt16allocator_traitsISaIdEE8allocateERS0_m.exit.i.i.i143 ], [ %expected.sroa.0.5, %if.else.i168 ], [ %expected.sroa.0.5, %if.then.i169 ], [ %expected.sroa.0.3, %if.then.i.i.i157 ], [ %expected.sroa.0.3, %if.then.i.i.i.i121 ], [ %expected.sroa.0.0480, %if.then.i.i.i92 ], [ %expected.sroa.0.0480, %if.then.i.i.i62 ]
  %points.sroa.0.2.ph446 = phi ptr [ %points.sroa.0.3, %_ZNSt16allocator_traitsISaImEE8allocateERS0_m.exit.i.i.i.i ], [ %points.sroa.0.4, %_ZNSt16allocator_traitsISaIdEE8allocateERS0_m.exit.i.i.i143 ], [ %points.sroa.13.4, %if.else.i168 ], [ %points.sroa.0.5, %if.then.i169 ], [ %points.sroa.0.4, %if.then.i.i.i157 ], [ %points.sroa.0.3, %if.then.i.i.i.i121 ], [ %points.sroa.0.1, %if.then.i.i.i92 ], [ %points.sroa.0.0483, %if.then.i.i.i62 ]
  %lpad.loopexit.split-lp448 = landingpad { ptr, i32 }
          cleanup
  br label %ehcleanup327

for.inc:                                          ; preds = %lor.lhs.false, %if.then16, %invoke.cont14
  %expected.sroa.25.2 = phi ptr [ %expected.sroa.25.1, %if.then16 ], [ %expected.sroa.25.1, %invoke.cont14 ], [ %expected.sroa.25.0478, %lor.lhs.false ]
  %expected.sroa.12.2 = phi ptr [ %expected.sroa.12.1, %if.then16 ], [ %expected.sroa.12.1, %invoke.cont14 ], [ %expected.sroa.12.0479, %lor.lhs.false ]
  %expected.sroa.0.3 = phi ptr [ %expected.sroa.0.1, %if.then16 ], [ %expected.sroa.0.1, %invoke.cont14 ], [ %expected.sroa.0.0480, %lor.lhs.false ]
  %points.sroa.27.2 = phi ptr [ %points.sroa.27.1, %if.then16 ], [ %points.sroa.27.1, %invoke.cont14 ], [ %points.sroa.27.0481, %lor.lhs.false ]
  %points.sroa.13.2 = phi ptr [ %points.sroa.13.1, %if.then16 ], [ %points.sroa.13.1, %invoke.cont14 ], [ %points.sroa.13.0482, %lor.lhs.false ]
  %points.sroa.0.3 = phi ptr [ %points.sroa.0.1, %if.then16 ], [ %points.sroa.0.1, %invoke.cont14 ], [ %points.sroa.0.0483, %lor.lhs.false ]
  %min_p.1 = phi double [ %sub, %if.then16 ], [ %min_p.0485, %invoke.cont14 ], [ %min_p.0485, %lor.lhs.false ]
  %last_cdf.1 = phi double [ %retval.0.i, %if.then16 ], [ %retval.0.i, %invoke.cont14 ], [ %last_cdf.0486, %lor.lhs.false ]
  %add = fadd double %p.0484, 1.000000e-02
  %cmp = fcmp olt double %add, 1.000000e+00
  br i1 %cmp, label %for.body, label %for.end, !llvm.loop !18

for.end:                                          ; preds = %for.inc
  %cmp18 = fcmp olt double %last_cdf.1, 0x3FEFF7CED916872B
  br i1 %cmp18, label %if.then19, label %if.else

if.then19:                                        ; preds = %for.end
  %cmp.not.i.i96 = icmp eq ptr %points.sroa.13.2, %points.sroa.27.2
  br i1 %cmp.not.i.i96, label %if.else.i.i98, label %if.then.i.i

if.then.i.i:                                      ; preds = %if.then19
  store i64 -1, ptr %points.sroa.13.2, align 8
  %incdec.ptr.i.i97 = getelementptr inbounds i64, ptr %points.sroa.13.2, i64 1
  br label %invoke.cont21

if.else.i.i98:                                    ; preds = %if.then19
  %sub.ptr.lhs.cast.i.i.i.i.i99 = ptrtoint ptr %points.sroa.27.2 to i64
  %sub.ptr.rhs.cast.i.i.i.i.i100 = ptrtoint ptr %points.sroa.0.3 to i64
  %sub.ptr.sub.i.i.i.i.i101 = sub i64 %sub.ptr.lhs.cast.i.i.i.i.i99, %sub.ptr.rhs.cast.i.i.i.i.i100
  %cmp.i.i.i.i102 = icmp eq i64 %sub.ptr.sub.i.i.i.i.i101, 9223372036854775800
  br i1 %cmp.i.i.i.i102, label %if.then.i.i.i.i121, label %_ZNKSt6vectorImSaImEE12_M_check_lenEmPKc.exit.i.i.i

if.then.i.i.i.i121:                               ; preds = %if.else.i.i98
  invoke void @_ZSt20__throw_length_errorPKc(ptr noundef nonnull @.str.15) #30
          to label %.noexc122 unwind label %lpad.loopexit.split-lp

.noexc122:                                        ; preds = %if.then.i.i.i.i121
  unreachable

_ZNKSt6vectorImSaImEE12_M_check_lenEmPKc.exit.i.i.i: ; preds = %if.else.i.i98
  %sub.ptr.div.i.i.i.i.i103 = ashr exact i64 %sub.ptr.sub.i.i.i.i.i101, 3
  %.sroa.speculated.i.i.i.i104 = tail call i64 @llvm.umax.i64(i64 %sub.ptr.div.i.i.i.i.i103, i64 1)
  %add.i.i.i.i105 = add i64 %.sroa.speculated.i.i.i.i104, %sub.ptr.div.i.i.i.i.i103
  %cmp7.i.i.i.i106 = icmp ult i64 %add.i.i.i.i105, %sub.ptr.div.i.i.i.i.i103
  %cmp9.i.i.i.i107 = icmp ugt i64 %add.i.i.i.i105, 1152921504606846975
  %or.cond.i.i.i.i108 = or i1 %cmp7.i.i.i.i106, %cmp9.i.i.i.i107
  %cond.i.i.i.i109 = select i1 %or.cond.i.i.i.i108, i64 1152921504606846975, i64 %add.i.i.i.i105
  %cmp.not.i.i.i.i110 = icmp eq i64 %cond.i.i.i.i109, 0
  br i1 %cmp.not.i.i.i.i110, label %_ZNSt12_Vector_baseImSaImEE11_M_allocateEm.exit.i.i.i, label %_ZNSt16allocator_traitsISaImEE8allocateERS0_m.exit.i.i.i.i

_ZNSt16allocator_traitsISaImEE8allocateERS0_m.exit.i.i.i.i: ; preds = %_ZNKSt6vectorImSaImEE12_M_check_lenEmPKc.exit.i.i.i
  %mul.i.i.i.i.i.i111 = shl nuw nsw i64 %cond.i.i.i.i109, 3
  %call5.i.i.i.i.i.i112123 = invoke noalias noundef nonnull ptr @_Znwm(i64 noundef %mul.i.i.i.i.i.i111) #31
          to label %_ZNSt12_Vector_baseImSaImEE11_M_allocateEm.exit.i.i.i unwind label %lpad.loopexit.split-lp

_ZNSt12_Vector_baseImSaImEE11_M_allocateEm.exit.i.i.i: ; preds = %_ZNSt16allocator_traitsISaImEE8allocateERS0_m.exit.i.i.i.i, %_ZNKSt6vectorImSaImEE12_M_check_lenEmPKc.exit.i.i.i
  %cond.i10.i.i.i113 = phi ptr [ null, %_ZNKSt6vectorImSaImEE12_M_check_lenEmPKc.exit.i.i.i ], [ %call5.i.i.i.i.i.i112123, %_ZNSt16allocator_traitsISaImEE8allocateERS0_m.exit.i.i.i.i ]
  %add.ptr.i.i.i114 = getelementptr inbounds i64, ptr %cond.i10.i.i.i113, i64 %sub.ptr.div.i.i.i.i.i103
  store i64 -1, ptr %add.ptr.i.i.i114, align 8
  %cmp.i.i.i11.i.i.i115 = icmp sgt i64 %sub.ptr.div.i.i.i.i.i103, 0
  br i1 %cmp.i.i.i11.i.i.i115, label %if.then.i.i.i12.i.i.i120, label %_ZNSt6vectorImSaImEE11_S_relocateEPmS2_S2_RS0_.exit20.i.i.i

if.then.i.i.i12.i.i.i120:                         ; preds = %_ZNSt12_Vector_baseImSaImEE11_M_allocateEm.exit.i.i.i
  tail call void @llvm.memmove.p0.p0.i64(ptr nonnull align 8 %cond.i10.i.i.i113, ptr align 8 %points.sroa.0.3, i64 %sub.ptr.sub.i.i.i.i.i101, i1 false)
  br label %_ZNSt6vectorImSaImEE11_S_relocateEPmS2_S2_RS0_.exit20.i.i.i

_ZNSt6vectorImSaImEE11_S_relocateEPmS2_S2_RS0_.exit20.i.i.i: ; preds = %if.then.i.i.i12.i.i.i120, %_ZNSt12_Vector_baseImSaImEE11_M_allocateEm.exit.i.i.i
  %incdec.ptr.i.i.i116 = getelementptr inbounds i64, ptr %add.ptr.i.i.i114, i64 1
  %tobool.not.i.i.i.i117 = icmp eq ptr %points.sroa.0.3, null
  br i1 %tobool.not.i.i.i.i117, label %invoke.cont21, label %if.then.i21.i.i.i118

if.then.i21.i.i.i118:                             ; preds = %_ZNSt6vectorImSaImEE11_S_relocateEPmS2_S2_RS0_.exit20.i.i.i
  tail call void @_ZdlPv(ptr noundef nonnull %points.sroa.0.3) #29
  br label %invoke.cont21

invoke.cont21:                                    ; preds = %if.then.i.i, %if.then.i21.i.i.i118, %_ZNSt6vectorImSaImEE11_S_relocateEPmS2_S2_RS0_.exit20.i.i.i
  %points.sroa.13.3 = phi ptr [ %incdec.ptr.i.i97, %if.then.i.i ], [ %incdec.ptr.i.i.i116, %if.then.i21.i.i.i118 ], [ %incdec.ptr.i.i.i116, %_ZNSt6vectorImSaImEE11_S_relocateEPmS2_S2_RS0_.exit20.i.i.i ]
  %points.sroa.0.4 = phi ptr [ %points.sroa.0.3, %if.then.i.i ], [ %cond.i10.i.i.i113, %if.then.i21.i.i.i118 ], [ %cond.i10.i.i.i113, %_ZNSt6vectorImSaImEE11_S_relocateEPmS2_S2_RS0_.exit20.i.i.i ]
  %sub23 = fsub double 1.000000e+00, %last_cdf.1
  %cmp.not.i126 = icmp eq ptr %expected.sroa.12.2, %expected.sroa.25.2
  br i1 %cmp.not.i126, label %if.else.i129, label %if.then.i127

if.then.i127:                                     ; preds = %invoke.cont21
  store double %sub23, ptr %expected.sroa.12.2, align 8
  %incdec.ptr.i128 = getelementptr inbounds double, ptr %expected.sroa.12.2, i64 1
  br label %invoke.cont24

if.else.i129:                                     ; preds = %invoke.cont21
  %sub.ptr.lhs.cast.i.i.i.i130 = ptrtoint ptr %expected.sroa.25.2 to i64
  %sub.ptr.rhs.cast.i.i.i.i131 = ptrtoint ptr %expected.sroa.0.3 to i64
  %sub.ptr.sub.i.i.i.i132 = sub i64 %sub.ptr.lhs.cast.i.i.i.i130, %sub.ptr.rhs.cast.i.i.i.i131
  %cmp.i.i.i133 = icmp eq i64 %sub.ptr.sub.i.i.i.i132, 9223372036854775800
  br i1 %cmp.i.i.i133, label %if.then.i.i.i157, label %_ZNKSt6vectorIdSaIdEE12_M_check_lenEmPKc.exit.i.i134

if.then.i.i.i157:                                 ; preds = %if.else.i129
  invoke void @_ZSt20__throw_length_errorPKc(ptr noundef nonnull @.str.15) #30
          to label %.noexc158 unwind label %lpad.loopexit.split-lp

.noexc158:                                        ; preds = %if.then.i.i.i157
  unreachable

_ZNKSt6vectorIdSaIdEE12_M_check_lenEmPKc.exit.i.i134: ; preds = %if.else.i129
  %sub.ptr.div.i.i.i.i135 = ashr exact i64 %sub.ptr.sub.i.i.i.i132, 3
  %.sroa.speculated.i.i.i136 = tail call i64 @llvm.umax.i64(i64 %sub.ptr.div.i.i.i.i135, i64 1)
  %add.i.i.i137 = add i64 %.sroa.speculated.i.i.i136, %sub.ptr.div.i.i.i.i135
  %cmp7.i.i.i138 = icmp ult i64 %add.i.i.i137, %sub.ptr.div.i.i.i.i135
  %cmp9.i.i.i139 = icmp ugt i64 %add.i.i.i137, 1152921504606846975
  %or.cond.i.i.i140 = or i1 %cmp7.i.i.i138, %cmp9.i.i.i139
  %cond.i.i.i141 = select i1 %or.cond.i.i.i140, i64 1152921504606846975, i64 %add.i.i.i137
  %cmp.not.i.i.i142 = icmp eq i64 %cond.i.i.i141, 0
  br i1 %cmp.not.i.i.i142, label %_ZNSt12_Vector_baseIdSaIdEE11_M_allocateEm.exit.i.i146, label %_ZNSt16allocator_traitsISaIdEE8allocateERS0_m.exit.i.i.i143

_ZNSt16allocator_traitsISaIdEE8allocateERS0_m.exit.i.i.i143: ; preds = %_ZNKSt6vectorIdSaIdEE12_M_check_lenEmPKc.exit.i.i134
  %mul.i.i.i.i.i144 = shl nuw nsw i64 %cond.i.i.i141, 3
  %call5.i.i.i.i.i145159 = invoke noalias noundef nonnull ptr @_Znwm(i64 noundef %mul.i.i.i.i.i144) #31
          to label %_ZNSt12_Vector_baseIdSaIdEE11_M_allocateEm.exit.i.i146 unwind label %lpad.loopexit.split-lp

_ZNSt12_Vector_baseIdSaIdEE11_M_allocateEm.exit.i.i146: ; preds = %_ZNSt16allocator_traitsISaIdEE8allocateERS0_m.exit.i.i.i143, %_ZNKSt6vectorIdSaIdEE12_M_check_lenEmPKc.exit.i.i134
  %cond.i10.i.i147 = phi ptr [ null, %_ZNKSt6vectorIdSaIdEE12_M_check_lenEmPKc.exit.i.i134 ], [ %call5.i.i.i.i.i145159, %_ZNSt16allocator_traitsISaIdEE8allocateERS0_m.exit.i.i.i143 ]
  %add.ptr.i.i148 = getelementptr inbounds double, ptr %cond.i10.i.i147, i64 %sub.ptr.div.i.i.i.i135
  store double %sub23, ptr %add.ptr.i.i148, align 8
  %cmp.i.i.i11.i.i149 = icmp sgt i64 %sub.ptr.div.i.i.i.i135, 0
  br i1 %cmp.i.i.i11.i.i149, label %if.then.i.i.i12.i.i156, label %_ZNSt6vectorIdSaIdEE11_S_relocateEPdS2_S2_RS0_.exit20.i.i150

if.then.i.i.i12.i.i156:                           ; preds = %_ZNSt12_Vector_baseIdSaIdEE11_M_allocateEm.exit.i.i146
  tail call void @llvm.memmove.p0.p0.i64(ptr nonnull align 8 %cond.i10.i.i147, ptr align 8 %expected.sroa.0.3, i64 %sub.ptr.sub.i.i.i.i132, i1 false)
  br label %_ZNSt6vectorIdSaIdEE11_S_relocateEPdS2_S2_RS0_.exit20.i.i150

_ZNSt6vectorIdSaIdEE11_S_relocateEPdS2_S2_RS0_.exit20.i.i150: ; preds = %if.then.i.i.i12.i.i156, %_ZNSt12_Vector_baseIdSaIdEE11_M_allocateEm.exit.i.i146
  %incdec.ptr.i.i151 = getelementptr inbounds double, ptr %add.ptr.i.i148, i64 1
  %tobool.not.i.i.i152 = icmp eq ptr %expected.sroa.0.3, null
  br i1 %tobool.not.i.i.i152, label %invoke.cont24, label %if.then.i21.i.i153

if.then.i21.i.i153:                               ; preds = %_ZNSt6vectorIdSaIdEE11_S_relocateEPdS2_S2_RS0_.exit20.i.i150
  tail call void @_ZdlPv(ptr noundef nonnull %expected.sroa.0.3) #29
  br label %invoke.cont24

invoke.cont24:                                    ; preds = %if.then.i127, %if.then.i21.i.i153, %_ZNSt6vectorIdSaIdEE11_S_relocateEPdS2_S2_RS0_.exit20.i.i150
  %expected.sroa.12.3 = phi ptr [ %incdec.ptr.i128, %if.then.i127 ], [ %incdec.ptr.i.i151, %if.then.i21.i.i153 ], [ %incdec.ptr.i.i151, %_ZNSt6vectorIdSaIdEE11_S_relocateEPdS2_S2_RS0_.exit20.i.i150 ]
  %expected.sroa.0.4 = phi ptr [ %expected.sroa.0.3, %if.then.i127 ], [ %cond.i10.i.i147, %if.then.i21.i.i153 ], [ %cond.i10.i.i147, %_ZNSt6vectorIdSaIdEE11_S_relocateEPdS2_S2_RS0_.exit20.i.i150 ]
  %cmp25 = fcmp olt double %sub23, %min_p.1
  br i1 %cmp25, label %if.then26, label %if.end33

if.then26:                                        ; preds = %invoke.cont24
  br label %if.end33

if.else:                                          ; preds = %for.end
  %add.ptr.i.i162 = getelementptr inbounds i64, ptr %points.sroa.13.2, i64 -1
  store i64 -1, ptr %add.ptr.i.i162, align 8
  %sub30 = fsub double 1.000000e+00, %last_cdf.1
  %add.ptr.i.i164 = getelementptr inbounds double, ptr %expected.sroa.12.2, i64 -1
  %20 = load double, ptr %add.ptr.i.i164, align 8
  %add32 = fadd double %sub30, %20
  store double %add32, ptr %add.ptr.i.i164, align 8
  br label %if.end33

if.end33:                                         ; preds = %invoke.cont24, %if.then26, %if.else
  %expected.sroa.12.4 = phi ptr [ %expected.sroa.12.3, %if.then26 ], [ %expected.sroa.12.3, %invoke.cont24 ], [ %expected.sroa.12.2, %if.else ]
  %expected.sroa.0.5 = phi ptr [ %expected.sroa.0.4, %if.then26 ], [ %expected.sroa.0.4, %invoke.cont24 ], [ %expected.sroa.0.3, %if.else ]
  %points.sroa.13.4 = phi ptr [ %points.sroa.13.3, %if.then26 ], [ %points.sroa.13.3, %invoke.cont24 ], [ %points.sroa.13.2, %if.else ]
  %points.sroa.0.5 = phi ptr [ %points.sroa.0.4, %if.then26 ], [ %points.sroa.0.4, %invoke.cont24 ], [ %points.sroa.0.3, %if.else ]
  %min_p.2 = phi double [ %sub23, %if.then26 ], [ %min_p.1, %invoke.cont24 ], [ %min_p.1, %if.else ]
  %div = fdiv double 8.000000e+00, %min_p.2
  %conv = fptoui double %div to i64
  %sub.ptr.lhs.cast.i = ptrtoint ptr %points.sroa.13.4 to i64
  %sub.ptr.rhs.cast.i = ptrtoint ptr %points.sroa.0.5 to i64
  %sub.ptr.sub.i = sub i64 %sub.ptr.lhs.cast.i, %sub.ptr.rhs.cast.i
  %sub.ptr.div.i = ashr exact i64 %sub.ptr.sub.i, 3
  store i64 %sub.ptr.div.i, ptr %ref.tmp34, align 8
  store i32 0, ptr %ref.tmp36, align 4
  %cmp.i167.not = icmp eq ptr %points.sroa.13.4, %points.sroa.0.5
  br i1 %cmp.i167.not, label %if.else.i168, label %if.then.i169

if.then.i169:                                     ; preds = %if.end33
  invoke void @_ZN7testing16AssertionSuccessEv(ptr nonnull sret(%"class.testing::AssertionResult") align 8 %gtest_ar)
          to label %invoke.cont37 unwind label %lpad.loopexit.split-lp

if.else.i168:                                     ; preds = %if.end33
  invoke void @_ZN7testing8internal18CmpHelperOpFailureImiEENS_15AssertionResultEPKcS4_RKT_RKT0_S4_(ptr nonnull sret(%"class.testing::AssertionResult") align 8 %gtest_ar, ptr noundef nonnull @.str.20, ptr noundef nonnull @.str.21, ptr noundef nonnull align 8 dereferenceable(8) %ref.tmp34, ptr noundef nonnull align 4 dereferenceable(4) %ref.tmp36, ptr noundef nonnull @.str.40)
          to label %invoke.cont37 unwind label %lpad.loopexit.split-lp

invoke.cont37:                                    ; preds = %if.then.i169, %if.else.i168
  %21 = load i8, ptr %gtest_ar, align 8
  %22 = and i8 %21, 1
  %tobool.i.not = icmp eq i8 %22, 0
  br i1 %tobool.i.not, label %if.else42, label %cleanup.cont.critedge

lpad38:                                           ; preds = %if.else42
  %23 = landingpad { ptr, i32 }
          cleanup
  br label %ehcleanup53

if.else42:                                        ; preds = %invoke.cont37
  invoke void @_ZN7testing7MessageC1Ev(ptr noundef nonnull align 8 dereferenceable(8) %ref.tmp43)
          to label %invoke.cont44 unwind label %lpad38

invoke.cont44:                                    ; preds = %if.else42
  %message_.i.i = getelementptr inbounds %"class.testing::AssertionResult", ptr %gtest_ar, i64 0, i32 1
  %24 = load ptr, ptr %message_.i.i, align 8
  %cmp.i.i.not.i.i = icmp eq ptr %24, null
  br i1 %cmp.i.i.not.i.i, label %invoke.cont47, label %cond.true.i.i

cond.true.i.i:                                    ; preds = %invoke.cont44
  %call4.i.i = call noundef ptr @_ZNKSt7__cxx1112basic_stringIcSt11char_traitsIcESaIcEE5c_strEv(ptr noundef nonnull align 8 dereferenceable(32) %24) #28
  br label %invoke.cont47

invoke.cont47:                                    ; preds = %cond.true.i.i, %invoke.cont44
  %cond.i.i = phi ptr [ %call4.i.i, %cond.true.i.i ], [ @.str, %invoke.cont44 ]
  invoke void @_ZN7testing8internal12AssertHelperC1ENS_14TestPartResult4TypeEPKciS5_(ptr noundef nonnull align 8 dereferenceable(8) %ref.tmp45, i32 noundef 2, ptr noundef nonnull @.str.2, i32 noundef 262, ptr noundef %cond.i.i)
          to label %invoke.cont49 unwind label %lpad46

invoke.cont49:                                    ; preds = %invoke.cont47
  invoke void @_ZNK7testing8internal12AssertHelperaSERKNS_7MessageE(ptr noundef nonnull align 8 dereferenceable(8) %ref.tmp45, ptr noundef nonnull align 8 dereferenceable(8) %ref.tmp43)
          to label %invoke.cont51 unwind label %lpad50

invoke.cont51:                                    ; preds = %invoke.cont49
  call void @_ZN7testing8internal12AssertHelperD1Ev(ptr noundef nonnull align 8 dereferenceable(8) %ref.tmp45) #28
  %25 = load ptr, ptr %ref.tmp43, align 8
  %cmp.not.i.i172 = icmp eq ptr %25, null
  br i1 %cmp.not.i.i172, label %_ZN7testing7MessageD2Ev.exit, label %_ZNKSt14default_deleteINSt7__cxx1118basic_stringstreamIcSt11char_traitsIcESaIcEEEEclEPS5_.exit.i.i

_ZNKSt14default_deleteINSt7__cxx1118basic_stringstreamIcSt11char_traitsIcESaIcEEEEclEPS5_.exit.i.i: ; preds = %invoke.cont51
  %vtable.i.i.i = load ptr, ptr %25, align 8
  %vfn.i.i.i = getelementptr inbounds ptr, ptr %vtable.i.i.i, i64 1
  %26 = load ptr, ptr %vfn.i.i.i, align 8
  call void %26(ptr noundef nonnull align 8 dereferenceable(128) %25) #28
  br label %_ZN7testing7MessageD2Ev.exit

_ZN7testing7MessageD2Ev.exit:                     ; preds = %invoke.cont51, %_ZNKSt14default_deleteINSt7__cxx1118basic_stringstreamIcSt11char_traitsIcESaIcEEEEclEPS5_.exit.i.i
  store ptr null, ptr %ref.tmp43, align 8
  %27 = load ptr, ptr %message_.i.i, align 8
  %cmp.not.i.i173 = icmp eq ptr %27, null
  br i1 %cmp.not.i.i173, label %_ZN7testing15AssertionResultD2Ev.exit, label %_ZNKSt14default_deleteINSt7__cxx1112basic_stringIcSt11char_traitsIcESaIcEEEEclEPS5_.exit.i.i

_ZNKSt14default_deleteINSt7__cxx1112basic_stringIcSt11char_traitsIcESaIcEEEEclEPS5_.exit.i.i: ; preds = %_ZN7testing7MessageD2Ev.exit
  call void @_ZNSt7__cxx1112basic_stringIcSt11char_traitsIcESaIcEED1Ev(ptr noundef nonnull align 8 dereferenceable(32) %27) #28
  call void @_ZdlPv(ptr noundef nonnull %27) #29
  br label %_ZN7testing15AssertionResultD2Ev.exit

_ZN7testing15AssertionResultD2Ev.exit:            ; preds = %_ZN7testing7MessageD2Ev.exit, %_ZNKSt14default_deleteINSt7__cxx1112basic_stringIcSt11char_traitsIcESaIcEEEEclEPS5_.exit.i.i
  store ptr null, ptr %message_.i.i, align 8
  br label %cleanup326

lpad46:                                           ; preds = %invoke.cont47
  %28 = landingpad { ptr, i32 }
          cleanup
  br label %ehcleanup

lpad50:                                           ; preds = %invoke.cont49
  %29 = landingpad { ptr, i32 }
          cleanup
  call void @_ZN7testing8internal12AssertHelperD1Ev(ptr noundef nonnull align 8 dereferenceable(8) %ref.tmp45) #28
  br label %ehcleanup

ehcleanup:                                        ; preds = %lpad50, %lpad46
  %.pn = phi { ptr, i32 } [ %29, %lpad50 ], [ %28, %lpad46 ]
  %30 = load ptr, ptr %ref.tmp43, align 8
  %cmp.not.i.i174 = icmp eq ptr %30, null
  br i1 %cmp.not.i.i174, label %_ZN7testing7MessageD2Ev.exit178, label %_ZNKSt14default_deleteINSt7__cxx1118basic_stringstreamIcSt11char_traitsIcESaIcEEEEclEPS5_.exit.i.i175

_ZNKSt14default_deleteINSt7__cxx1118basic_stringstreamIcSt11char_traitsIcESaIcEEEEclEPS5_.exit.i.i175: ; preds = %ehcleanup
  %vtable.i.i.i176 = load ptr, ptr %30, align 8
  %vfn.i.i.i177 = getelementptr inbounds ptr, ptr %vtable.i.i.i176, i64 1
  %31 = load ptr, ptr %vfn.i.i.i177, align 8
  call void %31(ptr noundef nonnull align 8 dereferenceable(128) %30) #28
  br label %_ZN7testing7MessageD2Ev.exit178

_ZN7testing7MessageD2Ev.exit178:                  ; preds = %ehcleanup, %_ZNKSt14default_deleteINSt7__cxx1118basic_stringstreamIcSt11char_traitsIcESaIcEEEEclEPS5_.exit.i.i175
  store ptr null, ptr %ref.tmp43, align 8
  br label %ehcleanup53

cleanup.cont.critedge:                            ; preds = %invoke.cont37
  %message_.i179 = getelementptr inbounds %"class.testing::AssertionResult", ptr %gtest_ar, i64 0, i32 1
  %32 = load ptr, ptr %message_.i179, align 8
  %cmp.not.i.i180 = icmp eq ptr %32, null
  br i1 %cmp.not.i.i180, label %cleanup.cont, label %_ZNKSt14default_deleteINSt7__cxx1112basic_stringIcSt11char_traitsIcESaIcEEEEclEPS5_.exit.i.i181

_ZNKSt14default_deleteINSt7__cxx1112basic_stringIcSt11char_traitsIcESaIcEEEEclEPS5_.exit.i.i181: ; preds = %cleanup.cont.critedge
  call void @_ZNSt7__cxx1112basic_stringIcSt11char_traitsIcESaIcEED1Ev(ptr noundef nonnull align 8 dereferenceable(32) %32) #28
  call void @_ZdlPv(ptr noundef nonnull %32) #29
  br label %cleanup.cont

cleanup.cont:                                     ; preds = %_ZNKSt14default_deleteINSt7__cxx1112basic_stringIcSt11char_traitsIcESaIcEEEEclEPS5_.exit.i.i181, %cleanup.cont.critedge
  store ptr null, ptr %message_.i179, align 8
  %cmp.i.i188 = icmp ugt i64 %sub.ptr.div.i, 1152921504606846975
  br i1 %cmp.i.i188, label %if.then.i.i193, label %_ZNSt6vectorIlSaIlEE17_S_check_init_lenEmRKS0_.exit.i

if.then.i.i193:                                   ; preds = %cleanup.cont
  invoke void @_ZSt20__throw_length_errorPKc(ptr noundef nonnull @.str.46) #30
          to label %.noexc194 unwind label %lpad57

.noexc194:                                        ; preds = %if.then.i.i193
  unreachable

_ZNSt6vectorIlSaIlEE17_S_check_init_lenEmRKS0_.exit.i: ; preds = %cleanup.cont
  br i1 %cmp.i167.not, label %invoke.cont58, label %if.end.i.i.i.i.i.i.i

if.end.i.i.i.i.i.i.i:                             ; preds = %_ZNSt6vectorIlSaIlEE17_S_check_init_lenEmRKS0_.exit.i
  %call5.i.i.i.i2.i.i195 = invoke noalias noundef nonnull ptr @_Znwm(i64 noundef %sub.ptr.sub.i) #31
          to label %call5.i.i.i.i2.i.i.noexc unwind label %lpad57

call5.i.i.i.i2.i.i.noexc:                         ; preds = %if.end.i.i.i.i.i.i.i
  %33 = and i64 %sub.ptr.sub.i, -8
  call void @llvm.memset.p0.i64(ptr nonnull align 8 %call5.i.i.i.i2.i.i195, i8 0, i64 %33, i1 false)
  %add.ptr.i.i.i191 = getelementptr inbounds i64, ptr %call5.i.i.i.i2.i.i195, i64 %sub.ptr.div.i
  br label %invoke.cont58

invoke.cont58:                                    ; preds = %call5.i.i.i.i2.i.i.noexc, %_ZNSt6vectorIlSaIlEE17_S_check_init_lenEmRKS0_.exit.i
  %buckets.sroa.0.0 = phi ptr [ null, %_ZNSt6vectorIlSaIlEE17_S_check_init_lenEmRKS0_.exit.i ], [ %call5.i.i.i.i2.i.i195, %call5.i.i.i.i2.i.i.noexc ]
  %retval.0.i.i.i.i.i.i.i = phi ptr [ null, %_ZNSt6vectorIlSaIlEE17_S_check_init_lenEmRKS0_.exit.i ], [ %add.ptr.i.i.i191, %call5.i.i.i.i2.i.i.noexc ]
  call void @llvm.memcpy.p0.p0.i64(ptr noundef nonnull align 8 dereferenceable(64) %dis, ptr noundef nonnull align 8 dereferenceable(64) %call, i64 64, i1 false)
  %cmp63487.not = icmp eq i64 %conv, 0
  br i1 %cmp63487.not, label %for.end146, label %for.body64.lr.ph

for.body64.lr.ph:                                 ; preds = %invoke.cont58
  %rng_ = getelementptr inbounds %"class.(anonymous namespace)::ZipfTest", ptr %this, i64 0, i32 3
  %message_.i223 = getelementptr inbounds %"class.testing::AssertionResult", ptr %gtest_ar68, i64 0, i32 1
  %message_.i253 = getelementptr inbounds %"class.testing::AssertionResult", ptr %gtest_ar94, i64 0, i32 1
  br label %for.body64

for.body64:                                       ; preds = %for.body64.lr.ph, %invoke.cont141
  %avg.0489 = phi double [ 0.000000e+00, %for.body64.lr.ph ], [ %add121, %invoke.cont141 ]
  %i.0488 = phi i64 [ 0, %for.body64.lr.ph ], [ %inc145, %invoke.cont141 ]
  %call.i196 = invoke noundef i64 @_ZN4absl17zipf_distributionImEclINS_15random_internal10pcg_engineINS3_13pcg128_paramsILm2549297995355413924ELm4865540595714422341ELm6364136223846793005ELm1442695040888963407EEENS3_17pcg_xsl_rr_128_64EEEEEmRT_RKNS1_10param_typeE(ptr noundef nonnull align 8 dereferenceable(64) %dis, ptr noundef nonnull align 16 dereferenceable(16) %rng_, ptr noundef nonnull align 8 dereferenceable(64) %dis)
          to label %invoke.cont70 unwind label %lpad60.loopexit.split-lp.loopexit

invoke.cont70:                                    ; preds = %for.body64
  store i64 %call.i196, ptr %x65, align 8
  %34 = load i64, ptr %dis, align 8
  store i64 %34, ptr %ref.tmp69, align 8
  %cmp.not.i197 = icmp ugt i64 %call.i196, %34
  br i1 %cmp.not.i197, label %if.else.i199, label %if.then.i198

if.then.i198:                                     ; preds = %invoke.cont70
  invoke void @_ZN7testing16AssertionSuccessEv(ptr nonnull sret(%"class.testing::AssertionResult") align 8 %gtest_ar68)
          to label %invoke.cont72 unwind label %lpad60.loopexit.split-lp.loopexit

if.else.i199:                                     ; preds = %invoke.cont70
  invoke void @_ZN7testing8internal18CmpHelperOpFailureImmEENS_15AssertionResultEPKcS4_RKT_RKT0_S4_(ptr nonnull sret(%"class.testing::AssertionResult") align 8 %gtest_ar68, ptr noundef nonnull @.str.22, ptr noundef nonnull @.str.23, ptr noundef nonnull align 8 dereferenceable(8) %x65, ptr noundef nonnull align 8 dereferenceable(8) %ref.tmp69, ptr noundef nonnull @.str.47)
          to label %invoke.cont72 unwind label %lpad60.loopexit.split-lp.loopexit

invoke.cont72:                                    ; preds = %if.then.i198, %if.else.i199
  %35 = load i8, ptr %gtest_ar68, align 8
  %36 = and i8 %35, 1
  %tobool.i202.not = icmp eq i8 %36, 0
  br i1 %tobool.i202.not, label %if.else77, label %cleanup.cont92.critedge

ehcleanup53:                                      ; preds = %_ZN7testing7MessageD2Ev.exit178, %lpad38
  %.pn.pn = phi { ptr, i32 } [ %.pn, %_ZN7testing7MessageD2Ev.exit178 ], [ %23, %lpad38 ]
  call void @_ZN7testing15AssertionResultD2Ev(ptr noundef nonnull align 8 dereferenceable(16) %gtest_ar) #28
  br label %ehcleanup327

lpad57:                                           ; preds = %if.end.i.i.i.i.i.i.i, %if.then.i.i193
  %37 = landingpad { ptr, i32 }
          cleanup
  br label %ehcleanup327

lpad60.loopexit:                                  ; preds = %for.body207
  %lpad.loopexit = landingpad { ptr, i32 }
          cleanup
  br label %ehcleanup325

lpad60.loopexit.split-lp.loopexit:                ; preds = %if.then.i228, %if.else.i199, %if.then.i198, %for.body64
  %lpad.loopexit442 = landingpad { ptr, i32 }
          cleanup
  br label %ehcleanup325

lpad60.loopexit.split-lp.loopexit.split-lp:       ; preds = %invoke.cont302, %invoke.cont287, %invoke.cont262, %invoke.cont242, %for.end232, %if.then191, %_ZN4absl15random_internal9ChiSquareIN9__gnu_cxx17__normal_iteratorIPlSt6vectorIlSaIlEEEENS3_IPdS5_IdSaIdEEEEEEdT_SD_T0_SE_.exit, %for.end160
  %lpad.loopexit.split-lp443 = landingpad { ptr, i32 }
          cleanup
  br label %ehcleanup325

lpad73:                                           ; preds = %if.else77
  %38 = landingpad { ptr, i32 }
          cleanup
  br label %ehcleanup93

if.else77:                                        ; preds = %invoke.cont72
  invoke void @_ZN7testing7MessageC1Ev(ptr noundef nonnull align 8 dereferenceable(8) %ref.tmp78)
          to label %invoke.cont79 unwind label %lpad73

invoke.cont79:                                    ; preds = %if.else77
  %39 = load ptr, ptr %message_.i223, align 8
  %cmp.i.i.not.i.i204 = icmp eq ptr %39, null
  br i1 %cmp.i.i.not.i.i204, label %invoke.cont82, label %cond.true.i.i205

cond.true.i.i205:                                 ; preds = %invoke.cont79
  %call4.i.i206 = call noundef ptr @_ZNKSt7__cxx1112basic_stringIcSt11char_traitsIcESaIcEE5c_strEv(ptr noundef nonnull align 8 dereferenceable(32) %39) #28
  br label %invoke.cont82

invoke.cont82:                                    ; preds = %cond.true.i.i205, %invoke.cont79
  %cond.i.i207 = phi ptr [ %call4.i.i206, %cond.true.i.i205 ], [ @.str, %invoke.cont79 ]
  invoke void @_ZN7testing8internal12AssertHelperC1ENS_14TestPartResult4TypeEPKciS5_(ptr noundef nonnull align 8 dereferenceable(8) %ref.tmp80, i32 noundef 2, ptr noundef nonnull @.str.2, i32 noundef 272, ptr noundef %cond.i.i207)
          to label %invoke.cont84 unwind label %lpad81

invoke.cont84:                                    ; preds = %invoke.cont82
  invoke void @_ZNK7testing8internal12AssertHelperaSERKNS_7MessageE(ptr noundef nonnull align 8 dereferenceable(8) %ref.tmp80, ptr noundef nonnull align 8 dereferenceable(8) %ref.tmp78)
          to label %invoke.cont86 unwind label %lpad85

invoke.cont86:                                    ; preds = %invoke.cont84
  call void @_ZN7testing8internal12AssertHelperD1Ev(ptr noundef nonnull align 8 dereferenceable(8) %ref.tmp80) #28
  %40 = load ptr, ptr %ref.tmp78, align 8
  %cmp.not.i.i209 = icmp eq ptr %40, null
  br i1 %cmp.not.i.i209, label %_ZN7testing7MessageD2Ev.exit213, label %_ZNKSt14default_deleteINSt7__cxx1118basic_stringstreamIcSt11char_traitsIcESaIcEEEEclEPS5_.exit.i.i210

_ZNKSt14default_deleteINSt7__cxx1118basic_stringstreamIcSt11char_traitsIcESaIcEEEEclEPS5_.exit.i.i210: ; preds = %invoke.cont86
  %vtable.i.i.i211 = load ptr, ptr %40, align 8
  %vfn.i.i.i212 = getelementptr inbounds ptr, ptr %vtable.i.i.i211, i64 1
  %41 = load ptr, ptr %vfn.i.i.i212, align 8
  call void %41(ptr noundef nonnull align 8 dereferenceable(128) %40) #28
  br label %_ZN7testing7MessageD2Ev.exit213

_ZN7testing7MessageD2Ev.exit213:                  ; preds = %invoke.cont86, %_ZNKSt14default_deleteINSt7__cxx1118basic_stringstreamIcSt11char_traitsIcESaIcEEEEclEPS5_.exit.i.i210
  store ptr null, ptr %ref.tmp78, align 8
  %42 = load ptr, ptr %message_.i223, align 8
  %cmp.not.i.i215 = icmp eq ptr %42, null
  br i1 %cmp.not.i.i215, label %_ZN7testing15AssertionResultD2Ev.exit217, label %_ZNKSt14default_deleteINSt7__cxx1112basic_stringIcSt11char_traitsIcESaIcEEEEclEPS5_.exit.i.i216

_ZNKSt14default_deleteINSt7__cxx1112basic_stringIcSt11char_traitsIcESaIcEEEEclEPS5_.exit.i.i216: ; preds = %_ZN7testing7MessageD2Ev.exit213
  call void @_ZNSt7__cxx1112basic_stringIcSt11char_traitsIcESaIcEED1Ev(ptr noundef nonnull align 8 dereferenceable(32) %42) #28
  call void @_ZdlPv(ptr noundef nonnull %42) #29
  br label %_ZN7testing15AssertionResultD2Ev.exit217

_ZN7testing15AssertionResultD2Ev.exit217:         ; preds = %_ZN7testing7MessageD2Ev.exit213, %_ZNKSt14default_deleteINSt7__cxx1112basic_stringIcSt11char_traitsIcESaIcEEEEclEPS5_.exit.i.i216
  store ptr null, ptr %message_.i223, align 8
  br label %cleanup324

lpad81:                                           ; preds = %invoke.cont82
  %43 = landingpad { ptr, i32 }
          cleanup
  br label %ehcleanup88

lpad85:                                           ; preds = %invoke.cont84
  %44 = landingpad { ptr, i32 }
          cleanup
  call void @_ZN7testing8internal12AssertHelperD1Ev(ptr noundef nonnull align 8 dereferenceable(8) %ref.tmp80) #28
  br label %ehcleanup88

ehcleanup88:                                      ; preds = %lpad85, %lpad81
  %.pn32 = phi { ptr, i32 } [ %44, %lpad85 ], [ %43, %lpad81 ]
  %45 = load ptr, ptr %ref.tmp78, align 8
  %cmp.not.i.i218 = icmp eq ptr %45, null
  br i1 %cmp.not.i.i218, label %_ZN7testing7MessageD2Ev.exit222, label %_ZNKSt14default_deleteINSt7__cxx1118basic_stringstreamIcSt11char_traitsIcESaIcEEEEclEPS5_.exit.i.i219

_ZNKSt14default_deleteINSt7__cxx1118basic_stringstreamIcSt11char_traitsIcESaIcEEEEclEPS5_.exit.i.i219: ; preds = %ehcleanup88
  %vtable.i.i.i220 = load ptr, ptr %45, align 8
  %vfn.i.i.i221 = getelementptr inbounds ptr, ptr %vtable.i.i.i220, i64 1
  %46 = load ptr, ptr %vfn.i.i.i221, align 8
  call void %46(ptr noundef nonnull align 8 dereferenceable(128) %45) #28
  br label %_ZN7testing7MessageD2Ev.exit222

_ZN7testing7MessageD2Ev.exit222:                  ; preds = %ehcleanup88, %_ZNKSt14default_deleteINSt7__cxx1118basic_stringstreamIcSt11char_traitsIcESaIcEEEEclEPS5_.exit.i.i219
  store ptr null, ptr %ref.tmp78, align 8
  br label %ehcleanup93

cleanup.cont92.critedge:                          ; preds = %invoke.cont72
  %47 = load ptr, ptr %message_.i223, align 8
  %cmp.not.i.i224 = icmp eq ptr %47, null
  br i1 %cmp.not.i.i224, label %if.then.i228, label %_ZNKSt14default_deleteINSt7__cxx1112basic_stringIcSt11char_traitsIcESaIcEEEEclEPS5_.exit.i.i225

_ZNKSt14default_deleteINSt7__cxx1112basic_stringIcSt11char_traitsIcESaIcEEEEclEPS5_.exit.i.i225: ; preds = %cleanup.cont92.critedge
  call void @_ZNSt7__cxx1112basic_stringIcSt11char_traitsIcESaIcEED1Ev(ptr noundef nonnull align 8 dereferenceable(32) %47) #28
  call void @_ZdlPv(ptr noundef nonnull %47) #29
  br label %if.then.i228

if.then.i228:                                     ; preds = %cleanup.cont92.critedge, %_ZNKSt14default_deleteINSt7__cxx1112basic_stringIcSt11char_traitsIcESaIcEEEEclEPS5_.exit.i.i225
  store ptr null, ptr %message_.i223, align 8
  invoke void @_ZN7testing16AssertionSuccessEv(ptr nonnull sret(%"class.testing::AssertionResult") align 8 %gtest_ar94)
          to label %invoke.cont98 unwind label %lpad60.loopexit.split-lp.loopexit

invoke.cont98:                                    ; preds = %if.then.i228
  %48 = load i8, ptr %gtest_ar94, align 8
  %49 = and i8 %48, 1
  %tobool.i232.not = icmp eq i8 %49, 0
  br i1 %tobool.i232.not, label %if.else103, label %cleanup.cont118.critedge

ehcleanup93:                                      ; preds = %_ZN7testing7MessageD2Ev.exit222, %lpad73
  %.pn32.pn = phi { ptr, i32 } [ %.pn32, %_ZN7testing7MessageD2Ev.exit222 ], [ %38, %lpad73 ]
  call void @_ZN7testing15AssertionResultD2Ev(ptr noundef nonnull align 8 dereferenceable(16) %gtest_ar68) #28
  br label %ehcleanup325

lpad99:                                           ; preds = %if.else103
  %50 = landingpad { ptr, i32 }
          cleanup
  br label %ehcleanup119

if.else103:                                       ; preds = %invoke.cont98
  invoke void @_ZN7testing7MessageC1Ev(ptr noundef nonnull align 8 dereferenceable(8) %ref.tmp104)
          to label %invoke.cont105 unwind label %lpad99

invoke.cont105:                                   ; preds = %if.else103
  %51 = load ptr, ptr %message_.i253, align 8
  %cmp.i.i.not.i.i234 = icmp eq ptr %51, null
  br i1 %cmp.i.i.not.i.i234, label %invoke.cont108, label %cond.true.i.i235

cond.true.i.i235:                                 ; preds = %invoke.cont105
  %call4.i.i236 = call noundef ptr @_ZNKSt7__cxx1112basic_stringIcSt11char_traitsIcESaIcEE5c_strEv(ptr noundef nonnull align 8 dereferenceable(32) %51) #28
  br label %invoke.cont108

invoke.cont108:                                   ; preds = %cond.true.i.i235, %invoke.cont105
  %cond.i.i237 = phi ptr [ %call4.i.i236, %cond.true.i.i235 ], [ @.str, %invoke.cont105 ]
  invoke void @_ZN7testing8internal12AssertHelperC1ENS_14TestPartResult4TypeEPKciS5_(ptr noundef nonnull align 8 dereferenceable(8) %ref.tmp106, i32 noundef 2, ptr noundef nonnull @.str.2, i32 noundef 273, ptr noundef %cond.i.i237)
          to label %invoke.cont110 unwind label %lpad107

invoke.cont110:                                   ; preds = %invoke.cont108
  invoke void @_ZNK7testing8internal12AssertHelperaSERKNS_7MessageE(ptr noundef nonnull align 8 dereferenceable(8) %ref.tmp106, ptr noundef nonnull align 8 dereferenceable(8) %ref.tmp104)
          to label %invoke.cont112 unwind label %lpad111

invoke.cont112:                                   ; preds = %invoke.cont110
  call void @_ZN7testing8internal12AssertHelperD1Ev(ptr noundef nonnull align 8 dereferenceable(8) %ref.tmp106) #28
  %52 = load ptr, ptr %ref.tmp104, align 8
  %cmp.not.i.i239 = icmp eq ptr %52, null
  br i1 %cmp.not.i.i239, label %_ZN7testing7MessageD2Ev.exit243, label %_ZNKSt14default_deleteINSt7__cxx1118basic_stringstreamIcSt11char_traitsIcESaIcEEEEclEPS5_.exit.i.i240

_ZNKSt14default_deleteINSt7__cxx1118basic_stringstreamIcSt11char_traitsIcESaIcEEEEclEPS5_.exit.i.i240: ; preds = %invoke.cont112
  %vtable.i.i.i241 = load ptr, ptr %52, align 8
  %vfn.i.i.i242 = getelementptr inbounds ptr, ptr %vtable.i.i.i241, i64 1
  %53 = load ptr, ptr %vfn.i.i.i242, align 8
  call void %53(ptr noundef nonnull align 8 dereferenceable(128) %52) #28
  br label %_ZN7testing7MessageD2Ev.exit243

_ZN7testing7MessageD2Ev.exit243:                  ; preds = %invoke.cont112, %_ZNKSt14default_deleteINSt7__cxx1118basic_stringstreamIcSt11char_traitsIcESaIcEEEEclEPS5_.exit.i.i240
  store ptr null, ptr %ref.tmp104, align 8
  %54 = load ptr, ptr %message_.i253, align 8
  %cmp.not.i.i245 = icmp eq ptr %54, null
  br i1 %cmp.not.i.i245, label %_ZN7testing15AssertionResultD2Ev.exit247, label %_ZNKSt14default_deleteINSt7__cxx1112basic_stringIcSt11char_traitsIcESaIcEEEEclEPS5_.exit.i.i246

_ZNKSt14default_deleteINSt7__cxx1112basic_stringIcSt11char_traitsIcESaIcEEEEclEPS5_.exit.i.i246: ; preds = %_ZN7testing7MessageD2Ev.exit243
  call void @_ZNSt7__cxx1112basic_stringIcSt11char_traitsIcESaIcEED1Ev(ptr noundef nonnull align 8 dereferenceable(32) %54) #28
  call void @_ZdlPv(ptr noundef nonnull %54) #29
  br label %_ZN7testing15AssertionResultD2Ev.exit247

_ZN7testing15AssertionResultD2Ev.exit247:         ; preds = %_ZN7testing7MessageD2Ev.exit243, %_ZNKSt14default_deleteINSt7__cxx1112basic_stringIcSt11char_traitsIcESaIcEEEEclEPS5_.exit.i.i246
  store ptr null, ptr %message_.i253, align 8
  br label %cleanup324

lpad107:                                          ; preds = %invoke.cont108
  %55 = landingpad { ptr, i32 }
          cleanup
  br label %ehcleanup114

lpad111:                                          ; preds = %invoke.cont110
  %56 = landingpad { ptr, i32 }
          cleanup
  call void @_ZN7testing8internal12AssertHelperD1Ev(ptr noundef nonnull align 8 dereferenceable(8) %ref.tmp106) #28
  br label %ehcleanup114

ehcleanup114:                                     ; preds = %lpad111, %lpad107
  %.pn35 = phi { ptr, i32 } [ %56, %lpad111 ], [ %55, %lpad107 ]
  %57 = load ptr, ptr %ref.tmp104, align 8
  %cmp.not.i.i248 = icmp eq ptr %57, null
  br i1 %cmp.not.i.i248, label %_ZN7testing7MessageD2Ev.exit252, label %_ZNKSt14default_deleteINSt7__cxx1118basic_stringstreamIcSt11char_traitsIcESaIcEEEEclEPS5_.exit.i.i249

_ZNKSt14default_deleteINSt7__cxx1118basic_stringstreamIcSt11char_traitsIcESaIcEEEEclEPS5_.exit.i.i249: ; preds = %ehcleanup114
  %vtable.i.i.i250 = load ptr, ptr %57, align 8
  %vfn.i.i.i251 = getelementptr inbounds ptr, ptr %vtable.i.i.i250, i64 1
  %58 = load ptr, ptr %vfn.i.i.i251, align 8
  call void %58(ptr noundef nonnull align 8 dereferenceable(128) %57) #28
  br label %_ZN7testing7MessageD2Ev.exit252

_ZN7testing7MessageD2Ev.exit252:                  ; preds = %ehcleanup114, %_ZNKSt14default_deleteINSt7__cxx1118basic_stringstreamIcSt11char_traitsIcESaIcEEEEclEPS5_.exit.i.i249
  store ptr null, ptr %ref.tmp104, align 8
  br label %ehcleanup119

cleanup.cont118.critedge:                         ; preds = %invoke.cont98
  %59 = load ptr, ptr %message_.i253, align 8
  %cmp.not.i.i254 = icmp eq ptr %59, null
  br i1 %cmp.not.i.i254, label %cleanup.cont118, label %_ZNKSt14default_deleteINSt7__cxx1112basic_stringIcSt11char_traitsIcESaIcEEEEclEPS5_.exit.i.i255

_ZNKSt14default_deleteINSt7__cxx1112basic_stringIcSt11char_traitsIcESaIcEEEEclEPS5_.exit.i.i255: ; preds = %cleanup.cont118.critedge
  call void @_ZNSt7__cxx1112basic_stringIcSt11char_traitsIcESaIcEED1Ev(ptr noundef nonnull align 8 dereferenceable(32) %59) #28
  call void @_ZdlPv(ptr noundef nonnull %59) #29
  br label %cleanup.cont118

cleanup.cont118:                                  ; preds = %_ZNKSt14default_deleteINSt7__cxx1112basic_stringIcSt11char_traitsIcESaIcEEEEclEPS5_.exit.i.i255, %cleanup.cont118.critedge
  store ptr null, ptr %message_.i253, align 8
  %60 = load i64, ptr %x65, align 8
  %conv120 = uitofp i64 %60 to double
  %add121 = fadd double %avg.0489, %conv120
  br i1 %cmp.i167.not, label %invoke.cont141, label %while.body.i.i

while.body.i.i:                                   ; preds = %cleanup.cont118, %while.body.i.i
  %__len.08.i.i = phi i64 [ %__len.1.i.i, %while.body.i.i ], [ %sub.ptr.div.i, %cleanup.cont118 ]
  %__first.sroa.0.07.i.i = phi ptr [ %__first.sroa.0.1.i.i, %while.body.i.i ], [ %points.sroa.0.5, %cleanup.cont118 ]
  %shr.i.i = lshr i64 %__len.08.i.i, 1
  %incdec.ptr.i8.sink.i.i.i.i = getelementptr inbounds i64, ptr %__first.sroa.0.07.i.i, i64 %shr.i.i
  %61 = load i64, ptr %incdec.ptr.i8.sink.i.i.i.i, align 8
  %cmp.i.i.i264 = icmp ult i64 %60, %61
  %incdec.ptr.i.i.i265 = getelementptr inbounds i64, ptr %incdec.ptr.i8.sink.i.i.i.i, i64 1
  %62 = xor i64 %shr.i.i, -1
  %sub9.i.i = add nsw i64 %__len.08.i.i, %62
  %__first.sroa.0.1.i.i = select i1 %cmp.i.i.i264, ptr %__first.sroa.0.07.i.i, ptr %incdec.ptr.i.i.i265
  %__len.1.i.i = select i1 %cmp.i.i.i264, i64 %shr.i.i, i64 %sub9.i.i
  %cmp.i.i266 = icmp sgt i64 %__len.1.i.i, 0
  br i1 %cmp.i.i266, label %while.body.i.i, label %invoke.cont141.loopexit, !llvm.loop !19

invoke.cont141.loopexit:                          ; preds = %while.body.i.i
  %.pre = ptrtoint ptr %__first.sroa.0.1.i.i to i64
  %.pre502 = sub i64 %.pre, %sub.ptr.rhs.cast.i
  %.pre503 = ashr exact i64 %.pre502, 3
  br label %invoke.cont141

invoke.cont141:                                   ; preds = %invoke.cont141.loopexit, %cleanup.cont118
  %sub.ptr.div.i.i.i270.pre-phi = phi i64 [ %.pre503, %invoke.cont141.loopexit ], [ %sub.ptr.div.i, %cleanup.cont118 ]
  %add.ptr.i = getelementptr inbounds i64, ptr %buckets.sroa.0.0, i64 %sub.ptr.div.i.i.i270.pre-phi
  %63 = load i64, ptr %add.ptr.i, align 8
  %inc = add nsw i64 %63, 1
  store i64 %inc, ptr %add.ptr.i, align 8
  %inc145 = add nuw i64 %i.0488, 1
  %exitcond.not = icmp eq i64 %inc145, %conv
  br i1 %exitcond.not, label %for.end146, label %for.body64, !llvm.loop !20

ehcleanup119:                                     ; preds = %_ZN7testing7MessageD2Ev.exit252, %lpad99
  %.pn35.pn = phi { ptr, i32 } [ %.pn35, %_ZN7testing7MessageD2Ev.exit252 ], [ %50, %lpad99 ]
  call void @_ZN7testing15AssertionResultD2Ev(ptr noundef nonnull align 8 dereferenceable(16) %gtest_ar94) #28
  br label %ehcleanup325

for.end146:                                       ; preds = %invoke.cont141, %invoke.cont58
  %avg.0.lcssa = phi double [ 0.000000e+00, %invoke.cont58 ], [ %add121, %invoke.cont141 ]
  %conv147 = uitofp i64 %conv to double
  %div148 = fdiv double %avg.0.lcssa, %conv147
  %cmp.i272.not490 = icmp eq ptr %expected.sroa.0.5, %expected.sroa.12.4
  br i1 %cmp.i272.not490, label %for.end160, label %for.body155

for.body155:                                      ; preds = %for.end146, %for.body155
  %__begin1.sroa.0.0491 = phi ptr [ %incdec.ptr.i273, %for.body155 ], [ %expected.sroa.0.5, %for.end146 ]
  %64 = load double, ptr %__begin1.sroa.0.0491, align 8
  %mul = fmul double %64, %conv147
  store double %mul, ptr %__begin1.sroa.0.0491, align 8
  %incdec.ptr.i273 = getelementptr inbounds double, ptr %__begin1.sroa.0.0491, i64 1
  %cmp.i272.not = icmp eq ptr %incdec.ptr.i273, %expected.sroa.12.4
  br i1 %cmp.i272.not, label %for.end160, label %for.body155

for.end160:                                       ; preds = %for.body155, %for.end146
  %sub.ptr.lhs.cast.i275 = ptrtoint ptr %expected.sroa.12.4 to i64
  %sub.ptr.rhs.cast.i276 = ptrtoint ptr %expected.sroa.0.5 to i64
  %sub.ptr.sub.i277 = sub i64 %sub.ptr.lhs.cast.i275, %sub.ptr.rhs.cast.i276
  %sub.ptr.div.i278 = ashr exact i64 %sub.ptr.sub.i277, 3
  %conv162 = trunc i64 %sub.ptr.div.i278 to i32
  %sub163 = add nsw i32 %conv162, -1
  %call165 = invoke noundef double @_ZN4absl15random_internal14ChiSquareValueEid(i32 noundef %sub163, double noundef 9.999000e-01)
          to label %invoke.cont164 unwind label %lpad60.loopexit.split-lp.loopexit.split-lp

invoke.cont164:                                   ; preds = %for.end160
  %cmp.i12.i = icmp ne ptr %buckets.sroa.0.0, %retval.0.i.i.i.i.i.i.i
  %cmp.i413.i = icmp ne ptr %expected.sroa.0.5, %expected.sroa.12.4
  %or.cond14.i = select i1 %cmp.i12.i, i1 %cmp.i413.i, i1 false
  br i1 %or.cond14.i, label %for.body.i282, label %_ZN4absl15random_internal9ChiSquareIN9__gnu_cxx17__normal_iteratorIPlSt6vectorIlSaIlEEEENS3_IPdS5_IdSaIdEEEEEEdT_SD_T0_SE_.exit

for.body.i282:                                    ; preds = %invoke.cont164, %for.body.i282
  %chi_square.017.i = phi double [ %chi_square.1.i, %for.body.i282 ], [ 0.000000e+00, %invoke.cont164 ]
  %it.sroa.0.016.i = phi ptr [ %incdec.ptr.i.i289, %for.body.i282 ], [ %buckets.sroa.0.0, %invoke.cont164 ]
  %eit.sroa.0.015.i = phi ptr [ %incdec.ptr.i5.i, %for.body.i282 ], [ %expected.sroa.0.5, %invoke.cont164 ]
  %65 = load double, ptr %eit.sroa.0.015.i, align 8
  %66 = load i64, ptr %it.sroa.0.016.i, align 8
  %conv.i283 = sitofp i64 %66 to double
  %sub.i284 = fsub double %conv.i283, %65
  %cmp9.i285 = fcmp une double %sub.i284, 0.000000e+00
  %mul.i286 = fmul double %sub.i284, %sub.i284
  %div.i287 = fdiv double %mul.i286, %65
  %add.i288 = select i1 %cmp9.i285, double %div.i287, double -0.000000e+00
  %chi_square.1.i = fadd double %chi_square.017.i, %add.i288
  %incdec.ptr.i.i289 = getelementptr inbounds i64, ptr %it.sroa.0.016.i, i64 1
  %incdec.ptr.i5.i = getelementptr inbounds double, ptr %eit.sroa.0.015.i, i64 1
  %cmp.i.i290 = icmp ne ptr %incdec.ptr.i.i289, %retval.0.i.i.i.i.i.i.i
  %cmp.i4.i = icmp ne ptr %incdec.ptr.i5.i, %expected.sroa.12.4
  %or.cond.i291 = select i1 %cmp.i.i290, i1 %cmp.i4.i, i1 false
  br i1 %or.cond.i291, label %for.body.i282, label %_ZN4absl15random_internal9ChiSquareIN9__gnu_cxx17__normal_iteratorIPlSt6vectorIlSaIlEEEENS3_IPdS5_IdSaIdEEEEEEdT_SD_T0_SE_.exit, !llvm.loop !21

_ZN4absl15random_internal9ChiSquareIN9__gnu_cxx17__normal_iteratorIPlSt6vectorIlSaIlEEEENS3_IPdS5_IdSaIdEEEEEEdT_SD_T0_SE_.exit: ; preds = %for.body.i282, %invoke.cont164
  %chi_square.0.lcssa.i = phi double [ 0.000000e+00, %invoke.cont164 ], [ %chi_square.1.i, %for.body.i282 ]
  %call189 = invoke noundef double @_ZN4absl15random_internal15ChiSquarePValueEdi(double noundef %chi_square.0.lcssa.i, i32 noundef %sub163)
          to label %invoke.cont188 unwind label %lpad60.loopexit.split-lp.loopexit.split-lp

invoke.cont188:                                   ; preds = %_ZN4absl15random_internal9ChiSquareIN9__gnu_cxx17__normal_iteratorIPlSt6vectorIlSaIlEEEENS3_IPdS5_IdSaIdEEEEEEdT_SD_T0_SE_.exit
  %cmp190 = fcmp ogt double %chi_square.0.lcssa.i, %call165
  br i1 %cmp190, label %if.then191, label %cleanup324

if.then191:                                       ; preds = %invoke.cont188
  invoke void @_ZN4absl12log_internal10LogMessageC1EPKciNS1_7InfoTagE(ptr noundef nonnull align 8 dereferenceable(16) %ref.tmp193, ptr noundef nonnull @.str.2, i32 noundef 305) #33
          to label %invoke.cont195 unwind label %lpad60.loopexit.split-lp.loopexit.split-lp

invoke.cont195:                                   ; preds = %if.then191
  invoke void @_ZN4absl12log_internal10LogMessage19CopyToEncodedBufferILNS1_10StringTypeE0EEEvSt17basic_string_viewIcSt11char_traitsIcEE(ptr noundef nonnull align 8 dereferenceable(16) %ref.tmp193, i64 6, ptr nonnull @.str.25)
          to label %invoke.cont199 unwind label %lpad196

invoke.cont199:                                   ; preds = %invoke.cont195
  call void @_ZN4absl12log_internal10LogMessageD1Ev(ptr noundef nonnull align 8 dereferenceable(16) %ref.tmp193) #34
  br i1 %cmp.i272.not490, label %for.end232, label %for.body207.preheader

for.body207.preheader:                            ; preds = %invoke.cont199
  %umax = call i64 @llvm.umax.i64(i64 %sub.ptr.div.i278, i64 1)
  br label %for.body207

for.body207:                                      ; preds = %for.body207.preheader, %invoke.cont226
  %i203.0493 = phi i64 [ %inc231, %invoke.cont226 ], [ 0, %for.body207.preheader ]
  invoke void @_ZN4absl12log_internal10LogMessageC1EPKciNS1_7InfoTagE(ptr noundef nonnull align 8 dereferenceable(16) %ref.tmp209, ptr noundef nonnull @.str.2, i32 noundef 307) #33
          to label %invoke.cont211 unwind label %lpad60.loopexit

invoke.cont211:                                   ; preds = %for.body207
  %add.ptr.i298 = getelementptr inbounds i64, ptr %points.sroa.0.5, i64 %i203.0493
  %67 = load i64, ptr %add.ptr.i298, align 8
  call void @llvm.lifetime.start.p0(i64 8, ptr nonnull %v.addr.i)
  store i64 %67, ptr %v.addr.i, align 8
  %call.i299 = invoke noundef nonnull align 8 dereferenceable(16) ptr @_ZN4absl12log_internal10LogMessagelsImTnNSt9enable_ifIXntsr4absl16HasAbslStringifyIT_EE5valueEiE4typeELi0EEERS1_RKS4_(ptr noundef nonnull align 8 dereferenceable(16) %ref.tmp209, ptr noundef nonnull align 8 dereferenceable(8) %v.addr.i)
          to label %invoke.cont216 unwind label %lpad212

invoke.cont216:                                   ; preds = %invoke.cont211
  call void @llvm.lifetime.end.p0(i64 8, ptr nonnull %v.addr.i)
  invoke void @_ZN4absl12log_internal10LogMessage19CopyToEncodedBufferILNS1_10StringTypeE0EEEvSt17basic_string_viewIcSt11char_traitsIcEE(ptr noundef nonnull align 8 dereferenceable(16) %call.i299, i64 2, ptr nonnull @.str.26)
          to label %invoke.cont218 unwind label %lpad212

invoke.cont218:                                   ; preds = %invoke.cont216
  %add.ptr.i302 = getelementptr inbounds i64, ptr %buckets.sroa.0.0, i64 %i203.0493
  %68 = load i64, ptr %add.ptr.i302, align 8
  call void @llvm.lifetime.start.p0(i64 8, ptr nonnull %v.addr.i303)
  store i64 %68, ptr %v.addr.i303, align 8
  %call.i304 = invoke noundef nonnull align 8 dereferenceable(16) ptr @_ZN4absl12log_internal10LogMessagelsIlTnNSt9enable_ifIXntsr4absl16HasAbslStringifyIT_EE5valueEiE4typeELi0EEERS1_RKS4_(ptr noundef nonnull align 8 dereferenceable(16) %call.i299, ptr noundef nonnull align 8 dereferenceable(8) %v.addr.i303)
          to label %invoke.cont221 unwind label %lpad212

invoke.cont221:                                   ; preds = %invoke.cont218
  call void @llvm.lifetime.end.p0(i64 8, ptr nonnull %v.addr.i303)
  invoke void @_ZN4absl12log_internal10LogMessage19CopyToEncodedBufferILNS1_10StringTypeE0EEEvSt17basic_string_viewIcSt11char_traitsIcEE(ptr noundef nonnull align 8 dereferenceable(16) %call.i304, i64 7, ptr nonnull @.str.27)
          to label %invoke.cont223 unwind label %lpad212

invoke.cont223:                                   ; preds = %invoke.cont221
  %add.ptr.i307 = getelementptr inbounds double, ptr %expected.sroa.0.5, i64 %i203.0493
  %69 = load double, ptr %add.ptr.i307, align 8
  call void @llvm.lifetime.start.p0(i64 8, ptr nonnull %v.addr.i308)
  store double %69, ptr %v.addr.i308, align 8
  %call.i309 = invoke noundef nonnull align 8 dereferenceable(16) ptr @_ZN4absl12log_internal10LogMessagelsIdTnNSt9enable_ifIXntsr4absl16HasAbslStringifyIT_EE5valueEiE4typeELi0EEERS1_RKS4_(ptr noundef nonnull align 8 dereferenceable(16) %call.i304, ptr noundef nonnull align 8 dereferenceable(8) %v.addr.i308)
          to label %invoke.cont226 unwind label %lpad212

invoke.cont226:                                   ; preds = %invoke.cont223
  call void @llvm.lifetime.end.p0(i64 8, ptr nonnull %v.addr.i308)
  call void @_ZN4absl12log_internal10LogMessageD1Ev(ptr noundef nonnull align 8 dereferenceable(16) %ref.tmp209) #34
  %inc231 = add nuw i64 %i203.0493, 1
  %exitcond501.not = icmp eq i64 %inc231, %umax
  br i1 %exitcond501.not, label %for.end232, label %for.body207, !llvm.loop !22

lpad196:                                          ; preds = %invoke.cont195
  %70 = landingpad { ptr, i32 }
          cleanup
  call void @_ZN4absl12log_internal10LogMessageD1Ev(ptr noundef nonnull align 8 dereferenceable(16) %ref.tmp193) #34
  br label %ehcleanup325

lpad212:                                          ; preds = %invoke.cont223, %invoke.cont221, %invoke.cont218, %invoke.cont216, %invoke.cont211
  %71 = landingpad { ptr, i32 }
          cleanup
  call void @_ZN4absl12log_internal10LogMessageD1Ev(ptr noundef nonnull align 8 dereferenceable(16) %ref.tmp209) #34
  br label %ehcleanup325

for.end232:                                       ; preds = %invoke.cont226, %invoke.cont199
  invoke void @_ZN4absl12log_internal10LogMessageC1EPKciNS1_7InfoTagE(ptr noundef nonnull align 8 dereferenceable(16) %ref.tmp234, ptr noundef nonnull @.str.2, i32 noundef 309) #33
          to label %invoke.cont236 unwind label %lpad60.loopexit.split-lp.loopexit.split-lp

invoke.cont236:                                   ; preds = %for.end232
  invoke void @_ZN4absl12log_internal10LogMessage19CopyToEncodedBufferILNS1_10StringTypeE0EEEvSt17basic_string_viewIcSt11char_traitsIcEE(ptr noundef nonnull align 8 dereferenceable(16) %ref.tmp234, i64 7, ptr nonnull @.str.28)
          to label %invoke.cont240 unwind label %lpad237

invoke.cont240:                                   ; preds = %invoke.cont236
  call void @llvm.lifetime.start.p0(i64 8, ptr nonnull %v.addr.i313)
  store i64 %conv, ptr %v.addr.i313, align 8
  %call.i314 = invoke noundef nonnull align 8 dereferenceable(16) ptr @_ZN4absl12log_internal10LogMessagelsImTnNSt9enable_ifIXntsr4absl16HasAbslStringifyIT_EE5valueEiE4typeELi0EEERS1_RKS4_(ptr noundef nonnull align 8 dereferenceable(16) %ref.tmp234, ptr noundef nonnull align 8 dereferenceable(8) %v.addr.i313)
          to label %invoke.cont242 unwind label %lpad237

invoke.cont242:                                   ; preds = %invoke.cont240
  call void @llvm.lifetime.end.p0(i64 8, ptr nonnull %v.addr.i313)
  call void @_ZN4absl12log_internal10LogMessageD1Ev(ptr noundef nonnull align 8 dereferenceable(16) %ref.tmp234) #34
  invoke void @_ZN4absl12log_internal10LogMessageC1EPKciNS1_7InfoTagE(ptr noundef nonnull align 8 dereferenceable(16) %ref.tmp247, ptr noundef nonnull @.str.2, i32 noundef 310) #33
          to label %invoke.cont249 unwind label %lpad60.loopexit.split-lp.loopexit.split-lp

invoke.cont249:                                   ; preds = %invoke.cont242
  invoke void @_ZN4absl12log_internal10LogMessage19CopyToEncodedBufferILNS1_10StringTypeE0EEEvSt17basic_string_viewIcSt11char_traitsIcEE(ptr noundef nonnull align 8 dereferenceable(16) %ref.tmp247, i64 5, ptr nonnull @.str.29)
          to label %invoke.cont253 unwind label %lpad250

invoke.cont253:                                   ; preds = %invoke.cont249
  call void @llvm.lifetime.start.p0(i64 8, ptr nonnull %v.addr.i318)
  store double %div148, ptr %v.addr.i318, align 8
  %call.i319 = invoke noundef nonnull align 8 dereferenceable(16) ptr @_ZN4absl12log_internal10LogMessagelsIdTnNSt9enable_ifIXntsr4absl16HasAbslStringifyIT_EE5valueEiE4typeELi0EEERS1_RKS4_(ptr noundef nonnull align 8 dereferenceable(16) %ref.tmp247, ptr noundef nonnull align 8 dereferenceable(8) %v.addr.i318)
          to label %invoke.cont255 unwind label %lpad250

invoke.cont255:                                   ; preds = %invoke.cont253
  call void @llvm.lifetime.end.p0(i64 8, ptr nonnull %v.addr.i318)
  invoke void @_ZN4absl12log_internal10LogMessage19CopyToEncodedBufferILNS1_10StringTypeE0EEEvSt17basic_string_viewIcSt11char_traitsIcEE(ptr noundef nonnull align 8 dereferenceable(16) %call.i319, i64 14, ptr nonnull @.str.30)
          to label %invoke.cont257 unwind label %lpad250

invoke.cont257:                                   ; preds = %invoke.cont255
  %72 = getelementptr inbounds i8, ptr %this, i64 48
  %add.ptr.val = load double, ptr %72, align 16
  call void @llvm.lifetime.start.p0(i64 8, ptr nonnull %v.addr.i323)
  store double %add.ptr.val, ptr %v.addr.i323, align 8
  %call.i324 = invoke noundef nonnull align 8 dereferenceable(16) ptr @_ZN4absl12log_internal10LogMessagelsIdTnNSt9enable_ifIXntsr4absl16HasAbslStringifyIT_EE5valueEiE4typeELi0EEERS1_RKS4_(ptr noundef nonnull align 8 dereferenceable(16) %call.i319, ptr noundef nonnull align 8 dereferenceable(8) %v.addr.i323)
          to label %invoke.cont262 unwind label %lpad250

invoke.cont262:                                   ; preds = %invoke.cont257
  call void @llvm.lifetime.end.p0(i64 8, ptr nonnull %v.addr.i323)
  call void @_ZN4absl12log_internal10LogMessageD1Ev(ptr noundef nonnull align 8 dereferenceable(16) %ref.tmp247) #34
  invoke void @_ZN4absl12log_internal10LogMessageC1EPKciNS1_7InfoTagE(ptr noundef nonnull align 8 dereferenceable(16) %ref.tmp267, ptr noundef nonnull @.str.2, i32 noundef 311) #33
          to label %invoke.cont269 unwind label %lpad60.loopexit.split-lp.loopexit.split-lp

invoke.cont269:                                   ; preds = %invoke.cont262
  invoke void @_ZN4absl12log_internal10LogMessage19CopyToEncodedBufferILNS1_10StringTypeE0EEEvSt17basic_string_viewIcSt11char_traitsIcEE(ptr noundef nonnull align 8 dereferenceable(16) %ref.tmp267, i64 11, ptr nonnull @_ZN4absl15random_internalL11kChiSquaredE)
          to label %invoke.cont273 unwind label %lpad270

invoke.cont273:                                   ; preds = %invoke.cont269
  invoke void @_ZN4absl12log_internal10LogMessage19CopyToEncodedBufferILNS1_10StringTypeE0EEEvSt17basic_string_viewIcSt11char_traitsIcEE(ptr noundef nonnull align 8 dereferenceable(16) %ref.tmp267, i64 7, ptr nonnull @.str.31)
          to label %invoke.cont275 unwind label %lpad270

invoke.cont275:                                   ; preds = %invoke.cont273
  call void @llvm.lifetime.start.p0(i64 4, ptr nonnull %v.addr.i331)
  store i32 %sub163, ptr %v.addr.i331, align 4
  %call.i332 = invoke noundef nonnull align 8 dereferenceable(16) ptr @_ZN4absl12log_internal10LogMessagelsIiTnNSt9enable_ifIXntsr4absl16HasAbslStringifyIT_EE5valueEiE4typeELi0EEERS1_RKS4_(ptr noundef nonnull align 8 dereferenceable(16) %ref.tmp267, ptr noundef nonnull align 4 dereferenceable(4) %v.addr.i331)
          to label %invoke.cont277 unwind label %lpad270

invoke.cont277:                                   ; preds = %invoke.cont275
  call void @llvm.lifetime.end.p0(i64 4, ptr nonnull %v.addr.i331)
  invoke void @_ZN4absl12log_internal10LogMessage19CopyToEncodedBufferILNS1_10StringTypeE0EEEvSt17basic_string_viewIcSt11char_traitsIcEE(ptr noundef nonnull align 8 dereferenceable(16) %call.i332, i64 4, ptr nonnull @.str.32)
          to label %invoke.cont279 unwind label %lpad270

invoke.cont279:                                   ; preds = %invoke.cont277
  call void @llvm.lifetime.start.p0(i64 8, ptr nonnull %v.addr.i335)
  store double %chi_square.0.lcssa.i, ptr %v.addr.i335, align 8
  %call.i336 = invoke noundef nonnull align 8 dereferenceable(16) ptr @_ZN4absl12log_internal10LogMessagelsIdTnNSt9enable_ifIXntsr4absl16HasAbslStringifyIT_EE5valueEiE4typeELi0EEERS1_RKS4_(ptr noundef nonnull align 8 dereferenceable(16) %call.i332, ptr noundef nonnull align 8 dereferenceable(8) %v.addr.i335)
          to label %invoke.cont281 unwind label %lpad270

invoke.cont281:                                   ; preds = %invoke.cont279
  call void @llvm.lifetime.end.p0(i64 8, ptr nonnull %v.addr.i335)
  invoke void @_ZN4absl12log_internal10LogMessage19CopyToEncodedBufferILNS1_10StringTypeE0EEEvSt17basic_string_viewIcSt11char_traitsIcEE(ptr noundef nonnull align 8 dereferenceable(16) %call.i336, i64 2, ptr nonnull @.str.33)
          to label %invoke.cont283 unwind label %lpad270

invoke.cont283:                                   ; preds = %invoke.cont281
  call void @llvm.lifetime.start.p0(i64 8, ptr nonnull %v.addr.i341)
  store double %call189, ptr %v.addr.i341, align 8
  %call.i342 = invoke noundef nonnull align 8 dereferenceable(16) ptr @_ZN4absl12log_internal10LogMessagelsIdTnNSt9enable_ifIXntsr4absl16HasAbslStringifyIT_EE5valueEiE4typeELi0EEERS1_RKS4_(ptr noundef nonnull align 8 dereferenceable(16) %call.i336, ptr noundef nonnull align 8 dereferenceable(8) %v.addr.i341)
          to label %invoke.cont285 unwind label %lpad270

invoke.cont285:                                   ; preds = %invoke.cont283
  call void @llvm.lifetime.end.p0(i64 8, ptr nonnull %v.addr.i341)
  invoke void @_ZN4absl12log_internal10LogMessage19CopyToEncodedBufferILNS1_10StringTypeE0EEEvSt17basic_string_viewIcSt11char_traitsIcEE(ptr noundef nonnull align 8 dereferenceable(16) %call.i342, i64 1, ptr nonnull @.str.34)
          to label %invoke.cont287 unwind label %lpad270

invoke.cont287:                                   ; preds = %invoke.cont285
  call void @_ZN4absl12log_internal10LogMessageD1Ev(ptr noundef nonnull align 8 dereferenceable(16) %ref.tmp267) #34
  invoke void @_ZN4absl12log_internal10LogMessageC1EPKciNS1_7InfoTagE(ptr noundef nonnull align 8 dereferenceable(16) %ref.tmp292, ptr noundef nonnull @.str.2, i32 noundef 313) #33
          to label %invoke.cont294 unwind label %lpad60.loopexit.split-lp.loopexit.split-lp

invoke.cont294:                                   ; preds = %invoke.cont287
  invoke void @_ZN4absl12log_internal10LogMessage19CopyToEncodedBufferILNS1_10StringTypeE0EEEvSt17basic_string_viewIcSt11char_traitsIcEE(ptr noundef nonnull align 8 dereferenceable(16) %ref.tmp292, i64 11, ptr nonnull @_ZN4absl15random_internalL11kChiSquaredE)
          to label %invoke.cont298 unwind label %lpad295

invoke.cont298:                                   ; preds = %invoke.cont294
  invoke void @_ZN4absl12log_internal10LogMessage19CopyToEncodedBufferILNS1_10StringTypeE0EEEvSt17basic_string_viewIcSt11char_traitsIcEE(ptr noundef nonnull align 8 dereferenceable(16) %ref.tmp292, i64 12, ptr nonnull @.str.35)
          to label %invoke.cont300 unwind label %lpad295

invoke.cont300:                                   ; preds = %invoke.cont298
  call void @llvm.lifetime.start.p0(i64 8, ptr nonnull %v.addr.i351)
  store double %call165, ptr %v.addr.i351, align 8
  %call.i352 = invoke noundef nonnull align 8 dereferenceable(16) ptr @_ZN4absl12log_internal10LogMessagelsIdTnNSt9enable_ifIXntsr4absl16HasAbslStringifyIT_EE5valueEiE4typeELi0EEERS1_RKS4_(ptr noundef nonnull align 8 dereferenceable(16) %ref.tmp292, ptr noundef nonnull align 8 dereferenceable(8) %v.addr.i351)
          to label %invoke.cont302 unwind label %lpad295

invoke.cont302:                                   ; preds = %invoke.cont300
  call void @llvm.lifetime.end.p0(i64 8, ptr nonnull %v.addr.i351)
  call void @_ZN4absl12log_internal10LogMessageD1Ev(ptr noundef nonnull align 8 dereferenceable(16) %ref.tmp292) #34
  invoke void @_ZN7testing7MessageC1Ev(ptr noundef nonnull align 8 dereferenceable(8) %ref.tmp306)
          to label %invoke.cont307 unwind label %lpad60.loopexit.split-lp.loopexit.split-lp

invoke.cont307:                                   ; preds = %invoke.cont302
  %73 = load ptr, ptr %ref.tmp306, align 8
  %add.ptr.i354 = getelementptr inbounds i8, ptr %73, i64 16
  %call2.i355 = invoke noundef nonnull align 8 dereferenceable(8) ptr @_ZStlsISt11char_traitsIcEERSt13basic_ostreamIcT_ES5_PKc(ptr noundef nonnull align 8 dereferenceable(8) %add.ptr.i354, ptr noundef nonnull @_ZN4absl15random_internalL11kChiSquaredE)
          to label %invoke.cont309 unwind label %lpad308

invoke.cont309:                                   ; preds = %invoke.cont307
  %74 = load ptr, ptr %ref.tmp306, align 8
  %add.ptr.i356 = getelementptr inbounds i8, ptr %74, i64 16
  %call2.i357 = invoke noundef nonnull align 8 dereferenceable(8) ptr @_ZStlsISt11char_traitsIcEERSt13basic_ostreamIcT_ES5_PKc(ptr noundef nonnull align 8 dereferenceable(8) %add.ptr.i356, ptr noundef nonnull @.str.36)
          to label %invoke.cont311 unwind label %lpad308

invoke.cont311:                                   ; preds = %invoke.cont309
  %75 = load ptr, ptr %ref.tmp306, align 8
  %add.ptr.i358 = getelementptr inbounds i8, ptr %75, i64 16
  %call2.i359 = invoke noundef nonnull align 8 dereferenceable(8) ptr @_ZNSolsEd(ptr noundef nonnull align 8 dereferenceable(8) %add.ptr.i358, double noundef %chi_square.0.lcssa.i)
          to label %invoke.cont313 unwind label %lpad308

invoke.cont313:                                   ; preds = %invoke.cont311
  %76 = load ptr, ptr %ref.tmp306, align 8
  %add.ptr.i360 = getelementptr inbounds i8, ptr %76, i64 16
  %call2.i361 = invoke noundef nonnull align 8 dereferenceable(8) ptr @_ZStlsISt11char_traitsIcEERSt13basic_ostreamIcT_ES5_PKc(ptr noundef nonnull align 8 dereferenceable(8) %add.ptr.i360, ptr noundef nonnull @.str.37)
          to label %invoke.cont315 unwind label %lpad308

invoke.cont315:                                   ; preds = %invoke.cont313
  invoke void @_ZN7testing8internal12AssertHelperC1ENS_14TestPartResult4TypeEPKciS5_(ptr noundef nonnull align 8 dereferenceable(8) %ref.tmp317, i32 noundef 2, ptr noundef nonnull @.str.2, i32 noundef 314, ptr noundef nonnull @.str.38)
          to label %invoke.cont318 unwind label %lpad308

invoke.cont318:                                   ; preds = %invoke.cont315
  invoke void @_ZNK7testing8internal12AssertHelperaSERKNS_7MessageE(ptr noundef nonnull align 8 dereferenceable(8) %ref.tmp317, ptr noundef nonnull align 8 dereferenceable(8) %ref.tmp306)
          to label %invoke.cont320 unwind label %lpad319

invoke.cont320:                                   ; preds = %invoke.cont318
  call void @_ZN7testing8internal12AssertHelperD1Ev(ptr noundef nonnull align 8 dereferenceable(8) %ref.tmp317) #28
  %77 = load ptr, ptr %ref.tmp306, align 8
  %cmp.not.i.i362 = icmp eq ptr %77, null
  br i1 %cmp.not.i.i362, label %_ZN7testing7MessageD2Ev.exit366, label %_ZNKSt14default_deleteINSt7__cxx1118basic_stringstreamIcSt11char_traitsIcESaIcEEEEclEPS5_.exit.i.i363

_ZNKSt14default_deleteINSt7__cxx1118basic_stringstreamIcSt11char_traitsIcESaIcEEEEclEPS5_.exit.i.i363: ; preds = %invoke.cont320
  %vtable.i.i.i364 = load ptr, ptr %77, align 8
  %vfn.i.i.i365 = getelementptr inbounds ptr, ptr %vtable.i.i.i364, i64 1
  %78 = load ptr, ptr %vfn.i.i.i365, align 8
  call void %78(ptr noundef nonnull align 8 dereferenceable(128) %77) #28
  br label %_ZN7testing7MessageD2Ev.exit366

_ZN7testing7MessageD2Ev.exit366:                  ; preds = %invoke.cont320, %_ZNKSt14default_deleteINSt7__cxx1118basic_stringstreamIcSt11char_traitsIcESaIcEEEEclEPS5_.exit.i.i363
  store ptr null, ptr %ref.tmp306, align 8
  br label %cleanup324

lpad237:                                          ; preds = %invoke.cont240, %invoke.cont236
  %79 = landingpad { ptr, i32 }
          cleanup
  call void @_ZN4absl12log_internal10LogMessageD1Ev(ptr noundef nonnull align 8 dereferenceable(16) %ref.tmp234) #34
  br label %ehcleanup325

lpad250:                                          ; preds = %invoke.cont257, %invoke.cont255, %invoke.cont253, %invoke.cont249
  %80 = landingpad { ptr, i32 }
          cleanup
  call void @_ZN4absl12log_internal10LogMessageD1Ev(ptr noundef nonnull align 8 dereferenceable(16) %ref.tmp247) #34
  br label %ehcleanup325

lpad270:                                          ; preds = %invoke.cont285, %invoke.cont283, %invoke.cont281, %invoke.cont279, %invoke.cont277, %invoke.cont275, %invoke.cont273, %invoke.cont269
  %81 = landingpad { ptr, i32 }
          cleanup
  call void @_ZN4absl12log_internal10LogMessageD1Ev(ptr noundef nonnull align 8 dereferenceable(16) %ref.tmp267) #34
  br label %ehcleanup325

lpad295:                                          ; preds = %invoke.cont300, %invoke.cont298, %invoke.cont294
  %82 = landingpad { ptr, i32 }
          cleanup
  call void @_ZN4absl12log_internal10LogMessageD1Ev(ptr noundef nonnull align 8 dereferenceable(16) %ref.tmp292) #34
  br label %ehcleanup325

lpad308:                                          ; preds = %invoke.cont313, %invoke.cont311, %invoke.cont309, %invoke.cont307, %invoke.cont315
  %83 = landingpad { ptr, i32 }
          cleanup
  br label %ehcleanup322

lpad319:                                          ; preds = %invoke.cont318
  %84 = landingpad { ptr, i32 }
          cleanup
  call void @_ZN7testing8internal12AssertHelperD1Ev(ptr noundef nonnull align 8 dereferenceable(8) %ref.tmp317) #28
  br label %ehcleanup322

ehcleanup322:                                     ; preds = %lpad319, %lpad308
  %.pn30 = phi { ptr, i32 } [ %84, %lpad319 ], [ %83, %lpad308 ]
  %85 = load ptr, ptr %ref.tmp306, align 8
  %cmp.not.i.i367 = icmp eq ptr %85, null
  br i1 %cmp.not.i.i367, label %_ZN7testing7MessageD2Ev.exit371, label %_ZNKSt14default_deleteINSt7__cxx1118basic_stringstreamIcSt11char_traitsIcESaIcEEEEclEPS5_.exit.i.i368

_ZNKSt14default_deleteINSt7__cxx1118basic_stringstreamIcSt11char_traitsIcESaIcEEEEclEPS5_.exit.i.i368: ; preds = %ehcleanup322
  %vtable.i.i.i369 = load ptr, ptr %85, align 8
  %vfn.i.i.i370 = getelementptr inbounds ptr, ptr %vtable.i.i.i369, i64 1
  %86 = load ptr, ptr %vfn.i.i.i370, align 8
  call void %86(ptr noundef nonnull align 8 dereferenceable(128) %85) #28
  br label %_ZN7testing7MessageD2Ev.exit371

_ZN7testing7MessageD2Ev.exit371:                  ; preds = %ehcleanup322, %_ZNKSt14default_deleteINSt7__cxx1118basic_stringstreamIcSt11char_traitsIcESaIcEEEEclEPS5_.exit.i.i368
  store ptr null, ptr %ref.tmp306, align 8
  br label %ehcleanup325

cleanup324:                                       ; preds = %_ZN7testing15AssertionResultD2Ev.exit247, %_ZN7testing15AssertionResultD2Ev.exit217, %invoke.cont188, %_ZN7testing7MessageD2Ev.exit366
  %tobool.not.i.i.i372 = icmp eq ptr %buckets.sroa.0.0, null
  br i1 %tobool.not.i.i.i372, label %cleanup326, label %if.then.i.i.i373

if.then.i.i.i373:                                 ; preds = %cleanup324
  call void @_ZdlPv(ptr noundef nonnull %buckets.sroa.0.0) #29
  br label %cleanup326

cleanup326:                                       ; preds = %if.then.i.i.i373, %cleanup324, %_ZN7testing15AssertionResultD2Ev.exit
  %tobool.not.i.i.i374 = icmp eq ptr %expected.sroa.0.5, null
  br i1 %tobool.not.i.i.i374, label %_ZNSt6vectorIdSaIdEED2Ev.exit, label %if.then.i.i.i375

if.then.i.i.i375:                                 ; preds = %cleanup326
  call void @_ZdlPv(ptr noundef nonnull %expected.sroa.0.5) #29
  br label %_ZNSt6vectorIdSaIdEED2Ev.exit

_ZNSt6vectorIdSaIdEED2Ev.exit:                    ; preds = %cleanup326, %if.then.i.i.i375
  %tobool.not.i.i.i376 = icmp eq ptr %points.sroa.0.5, null
  br i1 %tobool.not.i.i.i376, label %_ZNSt6vectorImSaImEED2Ev.exit, label %if.then.i.i.i377

if.then.i.i.i377:                                 ; preds = %_ZNSt6vectorIdSaIdEED2Ev.exit
  call void @_ZdlPv(ptr noundef nonnull %points.sroa.0.5) #29
  br label %_ZNSt6vectorImSaImEED2Ev.exit

_ZNSt6vectorImSaImEED2Ev.exit:                    ; preds = %_ZNSt6vectorIdSaIdEED2Ev.exit, %if.then.i.i.i377
  ret void

ehcleanup325:                                     ; preds = %lpad60.loopexit, %lpad60.loopexit.split-lp.loopexit.split-lp, %lpad60.loopexit.split-lp.loopexit, %_ZN7testing7MessageD2Ev.exit371, %lpad295, %lpad270, %lpad250, %lpad237, %lpad212, %lpad196, %ehcleanup119, %ehcleanup93
  %.pn38 = phi { ptr, i32 } [ %.pn35.pn, %ehcleanup119 ], [ %.pn32.pn, %ehcleanup93 ], [ %71, %lpad212 ], [ %.pn30, %_ZN7testing7MessageD2Ev.exit371 ], [ %82, %lpad295 ], [ %81, %lpad270 ], [ %80, %lpad250 ], [ %79, %lpad237 ], [ %70, %lpad196 ], [ %lpad.loopexit, %lpad60.loopexit ], [ %lpad.loopexit442, %lpad60.loopexit.split-lp.loopexit ], [ %lpad.loopexit.split-lp443, %lpad60.loopexit.split-lp.loopexit.split-lp ]
  %tobool.not.i.i.i378 = icmp eq ptr %buckets.sroa.0.0, null
  br i1 %tobool.not.i.i.i378, label %ehcleanup327, label %if.then.i.i.i379

if.then.i.i.i379:                                 ; preds = %ehcleanup325
  call void @_ZdlPv(ptr noundef nonnull %buckets.sroa.0.0) #29
  br label %ehcleanup327

ehcleanup327:                                     ; preds = %lpad.loopexit445, %lpad.loopexit.split-lp, %if.then.i.i.i379, %ehcleanup325, %lpad57, %ehcleanup53
  %expected.sroa.0.6 = phi ptr [ %expected.sroa.0.5, %lpad57 ], [ %expected.sroa.0.5, %ehcleanup53 ], [ %expected.sroa.0.5, %ehcleanup325 ], [ %expected.sroa.0.5, %if.then.i.i.i379 ], [ %expected.sroa.0.0480, %lpad.loopexit445 ], [ %expected.sroa.0.2.ph, %lpad.loopexit.split-lp ]
  %points.sroa.0.6 = phi ptr [ %points.sroa.0.5, %lpad57 ], [ %points.sroa.0.5, %ehcleanup53 ], [ %points.sroa.0.5, %ehcleanup325 ], [ %points.sroa.0.5, %if.then.i.i.i379 ], [ %points.sroa.0.2.ph, %lpad.loopexit445 ], [ %points.sroa.0.2.ph446, %lpad.loopexit.split-lp ]
  %.pn40 = phi { ptr, i32 } [ %37, %lpad57 ], [ %.pn.pn, %ehcleanup53 ], [ %.pn38, %ehcleanup325 ], [ %.pn38, %if.then.i.i.i379 ], [ %lpad.loopexit447, %lpad.loopexit445 ], [ %lpad.loopexit.split-lp448, %lpad.loopexit.split-lp ]
  %tobool.not.i.i.i381 = icmp eq ptr %expected.sroa.0.6, null
  br i1 %tobool.not.i.i.i381, label %_ZNSt6vectorIdSaIdEED2Ev.exit383, label %if.then.i.i.i382

if.then.i.i.i382:                                 ; preds = %ehcleanup327
  call void @_ZdlPv(ptr noundef nonnull %expected.sroa.0.6) #29
  br label %_ZNSt6vectorIdSaIdEED2Ev.exit383

_ZNSt6vectorIdSaIdEED2Ev.exit383:                 ; preds = %ehcleanup327, %if.then.i.i.i382
  %tobool.not.i.i.i384 = icmp eq ptr %points.sroa.0.6, null
  br i1 %tobool.not.i.i.i384, label %_ZNSt6vectorImSaImEED2Ev.exit386, label %if.then.i.i.i385

if.then.i.i.i385:                                 ; preds = %_ZNSt6vectorIdSaIdEED2Ev.exit383
  call void @_ZdlPv(ptr noundef nonnull %points.sroa.0.6) #29
  br label %_ZNSt6vectorImSaImEED2Ev.exit386

_ZNSt6vectorImSaImEED2Ev.exit386:                 ; preds = %_ZNSt6vectorIdSaIdEED2Ev.exit383, %if.then.i.i.i385
  resume { ptr, i32 } %.pn40
}

; Function Attrs: mustprogress nounwind uwtable
define linkonce_odr dso_local noundef ptr @_ZN7testing4Test5SetupEv(ptr noundef nonnull align 8 dereferenceable(16) %this) unnamed_addr #3 comdat align 2 {
entry:
  ret ptr null
}

; Function Attrs: nounwind uwtable
define internal void @_ZThn16_N12_GLOBAL__N_128ZipfTest_ChiSquaredTest_TestD1Ev(ptr noundef %this) unnamed_addr #13 align 2 personality ptr @__gxx_personality_v0 {
entry:
  %0 = getelementptr inbounds i8, ptr %this, i64 40
  %.val.i.i = load ptr, ptr %0, align 8
  %tobool.not.i.i.i.i.i.i = icmp eq ptr %.val.i.i, null
  br i1 %tobool.not.i.i.i.i.i.i, label %_ZN12_GLOBAL__N_128ZipfTest_ChiSquaredTest_TestD2Ev.exit, label %if.then.i.i.i.i.i.i

if.then.i.i.i.i.i.i:                              ; preds = %entry
  tail call void @_ZdlPv(ptr noundef nonnull %.val.i.i) #29
  br label %_ZN12_GLOBAL__N_128ZipfTest_ChiSquaredTest_TestD2Ev.exit

_ZN12_GLOBAL__N_128ZipfTest_ChiSquaredTest_TestD2Ev.exit: ; preds = %entry, %if.then.i.i.i.i.i.i
  %1 = getelementptr inbounds i8, ptr %this, i64 -16
  tail call void @_ZN7testing4TestD2Ev(ptr noundef nonnull align 8 dereferenceable(16) %1) #28
  ret void
}

; Function Attrs: nounwind uwtable
define internal void @_ZThn16_N12_GLOBAL__N_128ZipfTest_ChiSquaredTest_TestD0Ev(ptr noundef %this) unnamed_addr #13 align 2 personality ptr @__gxx_personality_v0 {
entry:
  %0 = getelementptr inbounds i8, ptr %this, i64 40
  %.val.i.i.i = load ptr, ptr %0, align 8
  %tobool.not.i.i.i.i.i.i.i = icmp eq ptr %.val.i.i.i, null
  br i1 %tobool.not.i.i.i.i.i.i.i, label %_ZN12_GLOBAL__N_128ZipfTest_ChiSquaredTest_TestD0Ev.exit, label %if.then.i.i.i.i.i.i.i

if.then.i.i.i.i.i.i.i:                            ; preds = %entry
  tail call void @_ZdlPv(ptr noundef nonnull %.val.i.i.i) #29
  br label %_ZN12_GLOBAL__N_128ZipfTest_ChiSquaredTest_TestD0Ev.exit

_ZN12_GLOBAL__N_128ZipfTest_ChiSquaredTest_TestD0Ev.exit: ; preds = %entry, %if.then.i.i.i.i.i.i.i
  %1 = getelementptr inbounds i8, ptr %this, i64 -16
  tail call void @_ZN7testing4TestD2Ev(ptr noundef nonnull align 8 dereferenceable(16) %1) #28
  tail call void @_ZdlPv(ptr noundef nonnull %1) #29
  ret void
}

; Function Attrs: mustprogress uwtable
define linkonce_odr dso_local noundef nonnull align 8 dereferenceable(64) ptr @_ZN7testing18WithParamInterfaceIN4absl17zipf_distributionImE10param_typeEE8GetParamEv() local_unnamed_addr #4 comdat align 2 personality ptr @__gxx_personality_v0 {
entry:
  %ref.tmp = alloca %"class.testing::internal::GTestLog", align 4
  %0 = load ptr, ptr @_ZN7testing18WithParamInterfaceIN4absl17zipf_distributionImE10param_typeEE10parameter_E, align 8
  %cmp = icmp ne ptr %0, null
  %call = tail call noundef zeroext i1 @_ZN7testing8internal6IsTrueEb(i1 noundef zeroext %cmp)
  br i1 %call, label %if.end, label %if.else

if.else:                                          ; preds = %entry
  call void @_ZN7testing8internal8GTestLogC1ENS0_16GTestLogSeverityEPKci(ptr noundef nonnull align 4 dereferenceable(4) %ref.tmp, i32 noundef 3, ptr noundef nonnull @.str.16, i32 noundef 1681)
  %call3 = invoke noundef nonnull align 8 dereferenceable(8) ptr @_ZStlsISt11char_traitsIcEERSt13basic_ostreamIcT_ES5_PKc(ptr noundef nonnull align 8 dereferenceable(8) @_ZSt4cerr, ptr noundef nonnull @.str.17)
          to label %invoke.cont2 unwind label %lpad

invoke.cont2:                                     ; preds = %if.else
  %call5 = invoke noundef nonnull align 8 dereferenceable(8) ptr @_ZStlsISt11char_traitsIcEERSt13basic_ostreamIcT_ES5_PKc(ptr noundef nonnull align 8 dereferenceable(8) %call3, ptr noundef nonnull @.str.18)
          to label %invoke.cont4 unwind label %lpad

invoke.cont4:                                     ; preds = %invoke.cont2
  %call7 = invoke noundef nonnull align 8 dereferenceable(8) ptr @_ZStlsISt11char_traitsIcEERSt13basic_ostreamIcT_ES5_PKc(ptr noundef nonnull align 8 dereferenceable(8) %call5, ptr noundef nonnull @.str.19)
          to label %invoke.cont6 unwind label %lpad

invoke.cont6:                                     ; preds = %invoke.cont4
  call void @_ZN7testing8internal8GTestLogD1Ev(ptr noundef nonnull align 4 dereferenceable(4) %ref.tmp) #28
  br label %if.end

lpad:                                             ; preds = %invoke.cont4, %invoke.cont2, %if.else
  %1 = landingpad { ptr, i32 }
          cleanup
  call void @_ZN7testing8internal8GTestLogD1Ev(ptr noundef nonnull align 4 dereferenceable(4) %ref.tmp) #28
  resume { ptr, i32 } %1

if.end:                                           ; preds = %entry, %invoke.cont6
  %2 = load ptr, ptr @_ZN7testing18WithParamInterfaceIN4absl17zipf_distributionImE10param_typeEE10parameter_E, align 8
  ret ptr %2
}

declare void @_ZN7testing4TestC2Ev(ptr noundef nonnull align 8 dereferenceable(16)) unnamed_addr #0

; Function Attrs: mustprogress nounwind uwtable
define linkonce_odr dso_local void @_ZN7testing13TestWithParamIN4absl17zipf_distributionImE10param_typeEED2Ev(ptr noundef nonnull align 8 dereferenceable(24) %this) unnamed_addr #3 comdat align 2 {
entry:
  tail call void @_ZN7testing4TestD2Ev(ptr noundef nonnull align 8 dereferenceable(16) %this) #28
  ret void
}

; Function Attrs: mustprogress nounwind uwtable
define linkonce_odr dso_local void @_ZN7testing13TestWithParamIN4absl17zipf_distributionImE10param_typeEED0Ev(ptr noundef nonnull align 8 dereferenceable(24) %this) unnamed_addr #3 comdat align 2 {
entry:
  tail call void @llvm.trap() #32
  unreachable
}

; Function Attrs: nounwind uwtable
define linkonce_odr dso_local void @_ZThn16_N7testing13TestWithParamIN4absl17zipf_distributionImE10param_typeEED1Ev(ptr noundef %this) unnamed_addr #13 comdat align 2 {
entry:
  %0 = getelementptr inbounds i8, ptr %this, i64 -16
  tail call void @_ZN7testing4TestD2Ev(ptr noundef nonnull align 8 dereferenceable(16) %0) #28
  ret void
}

; Function Attrs: nounwind uwtable
define linkonce_odr dso_local void @_ZThn16_N7testing13TestWithParamIN4absl17zipf_distributionImE10param_typeEED0Ev(ptr noundef %this) unnamed_addr #13 comdat align 2 {
entry:
  tail call void @llvm.trap() #32
  unreachable
}

declare noundef zeroext i1 @_ZN7testing8internal6IsTrueEb(i1 noundef zeroext) local_unnamed_addr #0

declare noundef nonnull align 8 dereferenceable(8) ptr @_ZStlsISt11char_traitsIcEERSt13basic_ostreamIcT_ES5_PKc(ptr noundef nonnull align 8 dereferenceable(8), ptr noundef) local_unnamed_addr #0

declare void @_ZN7testing8internal8GTestLogC1ENS0_16GTestLogSeverityEPKci(ptr noundef nonnull align 4 dereferenceable(4), i32 noundef, ptr noundef, i32 noundef) unnamed_addr #0

; Function Attrs: nounwind
declare void @_ZN7testing8internal8GTestLogD1Ev(ptr noundef nonnull align 4 dereferenceable(4)) unnamed_addr #1

; Function Attrs: nounwind
declare void @_ZN7testing4TestD2Ev(ptr noundef nonnull align 8 dereferenceable(16)) unnamed_addr #1

declare void @_ZN7testing7MessageC1Ev(ptr noundef nonnull align 8 dereferenceable(8)) unnamed_addr #0

declare void @_ZN7testing8internal12AssertHelperC1ENS_14TestPartResult4TypeEPKciS5_(ptr noundef nonnull align 8 dereferenceable(8), i32 noundef, ptr noundef, i32 noundef, ptr noundef) unnamed_addr #0

declare void @_ZNK7testing8internal12AssertHelperaSERKNS_7MessageE(ptr noundef nonnull align 8 dereferenceable(8), ptr noundef nonnull align 8 dereferenceable(8)) local_unnamed_addr #0

; Function Attrs: nounwind
declare void @_ZN7testing8internal12AssertHelperD1Ev(ptr noundef nonnull align 8 dereferenceable(8)) unnamed_addr #1

; Function Attrs: mustprogress nounwind uwtable
define linkonce_odr dso_local void @_ZN7testing15AssertionResultD2Ev(ptr noundef nonnull align 8 dereferenceable(16) %this) unnamed_addr #3 comdat align 2 {
entry:
  %message_ = getelementptr inbounds %"class.testing::AssertionResult", ptr %this, i64 0, i32 1
  %0 = load ptr, ptr %message_, align 8
  %cmp.not.i = icmp eq ptr %0, null
  br i1 %cmp.not.i, label %_ZNSt10unique_ptrINSt7__cxx1112basic_stringIcSt11char_traitsIcESaIcEEESt14default_deleteIS5_EED2Ev.exit, label %_ZNKSt14default_deleteINSt7__cxx1112basic_stringIcSt11char_traitsIcESaIcEEEEclEPS5_.exit.i

_ZNKSt14default_deleteINSt7__cxx1112basic_stringIcSt11char_traitsIcESaIcEEEEclEPS5_.exit.i: ; preds = %entry
  tail call void @_ZNSt7__cxx1112basic_stringIcSt11char_traitsIcESaIcEED1Ev(ptr noundef nonnull align 8 dereferenceable(32) %0) #28
  tail call void @_ZdlPv(ptr noundef nonnull %0) #29
  br label %_ZNSt10unique_ptrINSt7__cxx1112basic_stringIcSt11char_traitsIcESaIcEEESt14default_deleteIS5_EED2Ev.exit

_ZNSt10unique_ptrINSt7__cxx1112basic_stringIcSt11char_traitsIcESaIcEEESt14default_deleteIS5_EED2Ev.exit: ; preds = %entry, %_ZNKSt14default_deleteINSt7__cxx1112basic_stringIcSt11char_traitsIcESaIcEEEEclEPS5_.exit.i
  store ptr null, ptr %message_, align 8
  ret void
}

declare noundef double @_ZN4absl15random_internal14ChiSquareValueEid(i32 noundef, double noundef) local_unnamed_addr #0

declare noundef double @_ZN4absl15random_internal15ChiSquarePValueEdi(double noundef, i32 noundef) local_unnamed_addr #0

; Function Attrs: cold
declare void @_ZN4absl12log_internal10LogMessageC1EPKciNS1_7InfoTagE(ptr noundef nonnull align 8 dereferenceable(16), ptr noundef, i32 noundef) unnamed_addr #14

; Function Attrs: cold nounwind
declare void @_ZN4absl12log_internal10LogMessageD1Ev(ptr noundef nonnull align 8 dereferenceable(16)) unnamed_addr #15

; Function Attrs: mustprogress nofree nounwind willreturn memory(write)
declare double @pow(double noundef, double noundef) local_unnamed_addr #16

; Function Attrs: mustprogress nocallback nofree nounwind willreturn memory(argmem: readwrite)
declare void @llvm.memmove.p0.p0.i64(ptr nocapture writeonly, ptr nocapture readonly, i64, i1 immarg) #12

declare void @_ZN7testing16AssertionSuccessEv(ptr sret(%"class.testing::AssertionResult") align 8) local_unnamed_addr #0

; Function Attrs: mustprogress uwtable
define linkonce_odr dso_local void @_ZN7testing8internal18CmpHelperOpFailureImiEENS_15AssertionResultEPKcS4_RKT_RKT0_S4_(ptr noalias sret(%"class.testing::AssertionResult") align 8 %agg.result, ptr noundef %expr1, ptr noundef %expr2, ptr noundef nonnull align 8 dereferenceable(8) %val1, ptr noundef nonnull align 4 dereferenceable(4) %val2, ptr noundef %op) local_unnamed_addr #4 comdat personality ptr @__gxx_personality_v0 {
entry:
  %ref.tmp.i166 = alloca %"class.testing::Message", align 8
  %ss.i.i.i158 = alloca %"class.std::__cxx11::basic_stringstream", align 8
  %ref.tmp.i140 = alloca %"class.testing::Message", align 8
  %ref.tmp.i123 = alloca %"class.testing::Message", align 8
  %ss.i.i.i = alloca %"class.std::__cxx11::basic_stringstream", align 8
  %ref.tmp.i101 = alloca %"class.testing::Message", align 8
  %ref.tmp.i80 = alloca %"class.testing::Message", align 8
  %ref.tmp.i61 = alloca %"class.testing::Message", align 8
  %ref.tmp.i40 = alloca %"class.testing::Message", align 8
  %ref.tmp.i22 = alloca %"class.testing::Message", align 8
  %ref.tmp.i5 = alloca %"class.testing::Message", align 8
  %ref.tmp.i = alloca %"class.testing::Message", align 8
  %ref.tmp = alloca %"class.testing::AssertionResult", align 8
  %ref.tmp13 = alloca %"class.std::__cxx11::basic_string", align 8
  %ref.tmp20 = alloca %"class.std::__cxx11::basic_string", align 8
  call void @_ZN7testing16AssertionFailureEv(ptr nonnull sret(%"class.testing::AssertionResult") align 8 %ref.tmp)
  call void @llvm.lifetime.start.p0(i64 8, ptr nonnull %ref.tmp.i)
  invoke void @_ZN7testing7MessageC1Ev(ptr noundef nonnull align 8 dereferenceable(8) %ref.tmp.i)
          to label %.noexc unwind label %lpad

.noexc:                                           ; preds = %entry
  %0 = load ptr, ptr %ref.tmp.i, align 8
  %add.ptr.i.i = getelementptr inbounds i8, ptr %0, i64 16
  %call2.i1.i = invoke noundef nonnull align 8 dereferenceable(8) ptr @_ZStlsISt11char_traitsIcEERSt13basic_ostreamIcT_ES5_PKc(ptr noundef nonnull align 8 dereferenceable(8) %add.ptr.i.i, ptr noundef nonnull @.str.41)
          to label %invoke.cont.i unwind label %lpad.i

invoke.cont.i:                                    ; preds = %.noexc
  invoke void @_ZN7testing15AssertionResult13AppendMessageERKNS_7MessageE(ptr noundef nonnull align 8 dereferenceable(16) %ref.tmp, ptr noundef nonnull align 8 dereferenceable(8) %ref.tmp.i)
          to label %invoke.cont2.i unwind label %lpad.i

invoke.cont2.i:                                   ; preds = %invoke.cont.i
  %1 = load ptr, ptr %ref.tmp.i, align 8
  %cmp.not.i.i.i = icmp eq ptr %1, null
  br i1 %cmp.not.i.i.i, label %invoke.cont, label %_ZNKSt14default_deleteINSt7__cxx1118basic_stringstreamIcSt11char_traitsIcESaIcEEEEclEPS5_.exit.i.i.i

_ZNKSt14default_deleteINSt7__cxx1118basic_stringstreamIcSt11char_traitsIcESaIcEEEEclEPS5_.exit.i.i.i: ; preds = %invoke.cont2.i
  %vtable.i.i.i.i = load ptr, ptr %1, align 8
  %vfn.i.i.i.i = getelementptr inbounds ptr, ptr %vtable.i.i.i.i, i64 1
  %2 = load ptr, ptr %vfn.i.i.i.i, align 8
  call void %2(ptr noundef nonnull align 8 dereferenceable(128) %1) #28
  br label %invoke.cont

lpad.i:                                           ; preds = %invoke.cont.i, %.noexc
  %3 = landingpad { ptr, i32 }
          cleanup
  %4 = load ptr, ptr %ref.tmp.i, align 8
  %cmp.not.i.i2.i = icmp eq ptr %4, null
  br i1 %cmp.not.i.i2.i, label %ehcleanup26, label %_ZNKSt14default_deleteINSt7__cxx1118basic_stringstreamIcSt11char_traitsIcESaIcEEEEclEPS5_.exit.i.i3.i

_ZNKSt14default_deleteINSt7__cxx1118basic_stringstreamIcSt11char_traitsIcESaIcEEEEclEPS5_.exit.i.i3.i: ; preds = %lpad.i
  %vtable.i.i.i4.i = load ptr, ptr %4, align 8
  %vfn.i.i.i5.i = getelementptr inbounds ptr, ptr %vtable.i.i.i4.i, i64 1
  %5 = load ptr, ptr %vfn.i.i.i5.i, align 8
  call void %5(ptr noundef nonnull align 8 dereferenceable(128) %4) #28
  br label %ehcleanup26

invoke.cont:                                      ; preds = %_ZNKSt14default_deleteINSt7__cxx1118basic_stringstreamIcSt11char_traitsIcESaIcEEEEclEPS5_.exit.i.i.i, %invoke.cont2.i
  call void @llvm.lifetime.end.p0(i64 8, ptr nonnull %ref.tmp.i)
  call void @llvm.lifetime.start.p0(i64 8, ptr nonnull %ref.tmp.i5)
  invoke void @_ZN7testing7MessageC1Ev(ptr noundef nonnull align 8 dereferenceable(8) %ref.tmp.i5)
          to label %.noexc19 unwind label %lpad

.noexc19:                                         ; preds = %invoke.cont
  %cmp.i.i = icmp eq ptr %expr1, null
  %6 = load ptr, ptr %ref.tmp.i5, align 8
  %add.ptr.i.i6 = getelementptr inbounds i8, ptr %6, i64 16
  %.str.45..i.i = select i1 %cmp.i.i, ptr @.str.45, ptr %expr1
  %call6.i1.i = invoke noundef nonnull align 8 dereferenceable(8) ptr @_ZStlsISt11char_traitsIcEERSt13basic_ostreamIcT_ES5_PKc(ptr noundef nonnull align 8 dereferenceable(8) %add.ptr.i.i6, ptr noundef nonnull %.str.45..i.i)
          to label %invoke.cont.i13 unwind label %lpad.i7

invoke.cont.i13:                                  ; preds = %.noexc19
  invoke void @_ZN7testing15AssertionResult13AppendMessageERKNS_7MessageE(ptr noundef nonnull align 8 dereferenceable(16) %ref.tmp, ptr noundef nonnull align 8 dereferenceable(8) %ref.tmp.i5)
          to label %invoke.cont2.i14 unwind label %lpad.i7

invoke.cont2.i14:                                 ; preds = %invoke.cont.i13
  %7 = load ptr, ptr %ref.tmp.i5, align 8
  %cmp.not.i.i.i15 = icmp eq ptr %7, null
  br i1 %cmp.not.i.i.i15, label %invoke.cont1, label %_ZNKSt14default_deleteINSt7__cxx1118basic_stringstreamIcSt11char_traitsIcESaIcEEEEclEPS5_.exit.i.i.i16

_ZNKSt14default_deleteINSt7__cxx1118basic_stringstreamIcSt11char_traitsIcESaIcEEEEclEPS5_.exit.i.i.i16: ; preds = %invoke.cont2.i14
  %vtable.i.i.i.i17 = load ptr, ptr %7, align 8
  %vfn.i.i.i.i18 = getelementptr inbounds ptr, ptr %vtable.i.i.i.i17, i64 1
  %8 = load ptr, ptr %vfn.i.i.i.i18, align 8
  call void %8(ptr noundef nonnull align 8 dereferenceable(128) %7) #28
  br label %invoke.cont1

lpad.i7:                                          ; preds = %invoke.cont.i13, %.noexc19
  %9 = landingpad { ptr, i32 }
          cleanup
  %10 = load ptr, ptr %ref.tmp.i5, align 8
  %cmp.not.i.i2.i8 = icmp eq ptr %10, null
  br i1 %cmp.not.i.i2.i8, label %ehcleanup26, label %_ZNKSt14default_deleteINSt7__cxx1118basic_stringstreamIcSt11char_traitsIcESaIcEEEEclEPS5_.exit.i.i3.i9

_ZNKSt14default_deleteINSt7__cxx1118basic_stringstreamIcSt11char_traitsIcESaIcEEEEclEPS5_.exit.i.i3.i9: ; preds = %lpad.i7
  %vtable.i.i.i4.i10 = load ptr, ptr %10, align 8
  %vfn.i.i.i5.i11 = getelementptr inbounds ptr, ptr %vtable.i.i.i4.i10, i64 1
  %11 = load ptr, ptr %vfn.i.i.i5.i11, align 8
  call void %11(ptr noundef nonnull align 8 dereferenceable(128) %10) #28
  br label %ehcleanup26

invoke.cont1:                                     ; preds = %_ZNKSt14default_deleteINSt7__cxx1118basic_stringstreamIcSt11char_traitsIcESaIcEEEEclEPS5_.exit.i.i.i16, %invoke.cont2.i14
  call void @llvm.lifetime.end.p0(i64 8, ptr nonnull %ref.tmp.i5)
  call void @llvm.lifetime.start.p0(i64 8, ptr nonnull %ref.tmp.i22)
  invoke void @_ZN7testing7MessageC1Ev(ptr noundef nonnull align 8 dereferenceable(8) %ref.tmp.i22)
          to label %.noexc37 unwind label %lpad

.noexc37:                                         ; preds = %invoke.cont1
  %12 = load ptr, ptr %ref.tmp.i22, align 8
  %add.ptr.i.i23 = getelementptr inbounds i8, ptr %12, i64 16
  %call2.i1.i24 = invoke noundef nonnull align 8 dereferenceable(8) ptr @_ZStlsISt11char_traitsIcEERSt13basic_ostreamIcT_ES5_PKc(ptr noundef nonnull align 8 dereferenceable(8) %add.ptr.i.i23, ptr noundef nonnull @.str.42)
          to label %invoke.cont.i31 unwind label %lpad.i25

invoke.cont.i31:                                  ; preds = %.noexc37
  invoke void @_ZN7testing15AssertionResult13AppendMessageERKNS_7MessageE(ptr noundef nonnull align 8 dereferenceable(16) %ref.tmp, ptr noundef nonnull align 8 dereferenceable(8) %ref.tmp.i22)
          to label %invoke.cont2.i32 unwind label %lpad.i25

invoke.cont2.i32:                                 ; preds = %invoke.cont.i31
  %13 = load ptr, ptr %ref.tmp.i22, align 8
  %cmp.not.i.i.i33 = icmp eq ptr %13, null
  br i1 %cmp.not.i.i.i33, label %invoke.cont3, label %_ZNKSt14default_deleteINSt7__cxx1118basic_stringstreamIcSt11char_traitsIcESaIcEEEEclEPS5_.exit.i.i.i34

_ZNKSt14default_deleteINSt7__cxx1118basic_stringstreamIcSt11char_traitsIcESaIcEEEEclEPS5_.exit.i.i.i34: ; preds = %invoke.cont2.i32
  %vtable.i.i.i.i35 = load ptr, ptr %13, align 8
  %vfn.i.i.i.i36 = getelementptr inbounds ptr, ptr %vtable.i.i.i.i35, i64 1
  %14 = load ptr, ptr %vfn.i.i.i.i36, align 8
  call void %14(ptr noundef nonnull align 8 dereferenceable(128) %13) #28
  br label %invoke.cont3

lpad.i25:                                         ; preds = %invoke.cont.i31, %.noexc37
  %15 = landingpad { ptr, i32 }
          cleanup
  %16 = load ptr, ptr %ref.tmp.i22, align 8
  %cmp.not.i.i2.i26 = icmp eq ptr %16, null
  br i1 %cmp.not.i.i2.i26, label %ehcleanup26, label %_ZNKSt14default_deleteINSt7__cxx1118basic_stringstreamIcSt11char_traitsIcESaIcEEEEclEPS5_.exit.i.i3.i27

_ZNKSt14default_deleteINSt7__cxx1118basic_stringstreamIcSt11char_traitsIcESaIcEEEEclEPS5_.exit.i.i3.i27: ; preds = %lpad.i25
  %vtable.i.i.i4.i28 = load ptr, ptr %16, align 8
  %vfn.i.i.i5.i29 = getelementptr inbounds ptr, ptr %vtable.i.i.i4.i28, i64 1
  %17 = load ptr, ptr %vfn.i.i.i5.i29, align 8
  call void %17(ptr noundef nonnull align 8 dereferenceable(128) %16) #28
  br label %ehcleanup26

invoke.cont3:                                     ; preds = %_ZNKSt14default_deleteINSt7__cxx1118basic_stringstreamIcSt11char_traitsIcESaIcEEEEclEPS5_.exit.i.i.i34, %invoke.cont2.i32
  call void @llvm.lifetime.end.p0(i64 8, ptr nonnull %ref.tmp.i22)
  call void @llvm.lifetime.start.p0(i64 8, ptr nonnull %ref.tmp.i40)
  invoke void @_ZN7testing7MessageC1Ev(ptr noundef nonnull align 8 dereferenceable(8) %ref.tmp.i40)
          to label %.noexc57 unwind label %lpad

.noexc57:                                         ; preds = %invoke.cont3
  %cmp.i.i41 = icmp eq ptr %op, null
  %18 = load ptr, ptr %ref.tmp.i40, align 8
  %add.ptr.i.i42 = getelementptr inbounds i8, ptr %18, i64 16
  %.str.45..i.i43 = select i1 %cmp.i.i41, ptr @.str.45, ptr %op
  %call6.i1.i44 = invoke noundef nonnull align 8 dereferenceable(8) ptr @_ZStlsISt11char_traitsIcEERSt13basic_ostreamIcT_ES5_PKc(ptr noundef nonnull align 8 dereferenceable(8) %add.ptr.i.i42, ptr noundef nonnull %.str.45..i.i43)
          to label %invoke.cont.i51 unwind label %lpad.i45

invoke.cont.i51:                                  ; preds = %.noexc57
  invoke void @_ZN7testing15AssertionResult13AppendMessageERKNS_7MessageE(ptr noundef nonnull align 8 dereferenceable(16) %ref.tmp, ptr noundef nonnull align 8 dereferenceable(8) %ref.tmp.i40)
          to label %invoke.cont2.i52 unwind label %lpad.i45

invoke.cont2.i52:                                 ; preds = %invoke.cont.i51
  %19 = load ptr, ptr %ref.tmp.i40, align 8
  %cmp.not.i.i.i53 = icmp eq ptr %19, null
  br i1 %cmp.not.i.i.i53, label %invoke.cont5, label %_ZNKSt14default_deleteINSt7__cxx1118basic_stringstreamIcSt11char_traitsIcESaIcEEEEclEPS5_.exit.i.i.i54

_ZNKSt14default_deleteINSt7__cxx1118basic_stringstreamIcSt11char_traitsIcESaIcEEEEclEPS5_.exit.i.i.i54: ; preds = %invoke.cont2.i52
  %vtable.i.i.i.i55 = load ptr, ptr %19, align 8
  %vfn.i.i.i.i56 = getelementptr inbounds ptr, ptr %vtable.i.i.i.i55, i64 1
  %20 = load ptr, ptr %vfn.i.i.i.i56, align 8
  call void %20(ptr noundef nonnull align 8 dereferenceable(128) %19) #28
  br label %invoke.cont5

lpad.i45:                                         ; preds = %invoke.cont.i51, %.noexc57
  %21 = landingpad { ptr, i32 }
          cleanup
  %22 = load ptr, ptr %ref.tmp.i40, align 8
  %cmp.not.i.i2.i46 = icmp eq ptr %22, null
  br i1 %cmp.not.i.i2.i46, label %ehcleanup26, label %_ZNKSt14default_deleteINSt7__cxx1118basic_stringstreamIcSt11char_traitsIcESaIcEEEEclEPS5_.exit.i.i3.i47

_ZNKSt14default_deleteINSt7__cxx1118basic_stringstreamIcSt11char_traitsIcESaIcEEEEclEPS5_.exit.i.i3.i47: ; preds = %lpad.i45
  %vtable.i.i.i4.i48 = load ptr, ptr %22, align 8
  %vfn.i.i.i5.i49 = getelementptr inbounds ptr, ptr %vtable.i.i.i4.i48, i64 1
  %23 = load ptr, ptr %vfn.i.i.i5.i49, align 8
  call void %23(ptr noundef nonnull align 8 dereferenceable(128) %22) #28
  br label %ehcleanup26

invoke.cont5:                                     ; preds = %_ZNKSt14default_deleteINSt7__cxx1118basic_stringstreamIcSt11char_traitsIcESaIcEEEEclEPS5_.exit.i.i.i54, %invoke.cont2.i52
  call void @llvm.lifetime.end.p0(i64 8, ptr nonnull %ref.tmp.i40)
  call void @llvm.lifetime.start.p0(i64 8, ptr nonnull %ref.tmp.i61)
  invoke void @_ZN7testing7MessageC1Ev(ptr noundef nonnull align 8 dereferenceable(8) %ref.tmp.i61)
          to label %.noexc76 unwind label %lpad

.noexc76:                                         ; preds = %invoke.cont5
  %24 = load ptr, ptr %ref.tmp.i61, align 8
  %add.ptr.i.i62 = getelementptr inbounds i8, ptr %24, i64 16
  %call2.i1.i63 = invoke noundef nonnull align 8 dereferenceable(8) ptr @_ZStlsISt11char_traitsIcEERSt13basic_ostreamIcT_ES5_PKc(ptr noundef nonnull align 8 dereferenceable(8) %add.ptr.i.i62, ptr noundef nonnull @.str.33)
          to label %invoke.cont.i70 unwind label %lpad.i64

invoke.cont.i70:                                  ; preds = %.noexc76
  invoke void @_ZN7testing15AssertionResult13AppendMessageERKNS_7MessageE(ptr noundef nonnull align 8 dereferenceable(16) %ref.tmp, ptr noundef nonnull align 8 dereferenceable(8) %ref.tmp.i61)
          to label %invoke.cont2.i71 unwind label %lpad.i64

invoke.cont2.i71:                                 ; preds = %invoke.cont.i70
  %25 = load ptr, ptr %ref.tmp.i61, align 8
  %cmp.not.i.i.i72 = icmp eq ptr %25, null
  br i1 %cmp.not.i.i.i72, label %invoke.cont7, label %_ZNKSt14default_deleteINSt7__cxx1118basic_stringstreamIcSt11char_traitsIcESaIcEEEEclEPS5_.exit.i.i.i73

_ZNKSt14default_deleteINSt7__cxx1118basic_stringstreamIcSt11char_traitsIcESaIcEEEEclEPS5_.exit.i.i.i73: ; preds = %invoke.cont2.i71
  %vtable.i.i.i.i74 = load ptr, ptr %25, align 8
  %vfn.i.i.i.i75 = getelementptr inbounds ptr, ptr %vtable.i.i.i.i74, i64 1
  %26 = load ptr, ptr %vfn.i.i.i.i75, align 8
  call void %26(ptr noundef nonnull align 8 dereferenceable(128) %25) #28
  br label %invoke.cont7

lpad.i64:                                         ; preds = %invoke.cont.i70, %.noexc76
  %27 = landingpad { ptr, i32 }
          cleanup
  %28 = load ptr, ptr %ref.tmp.i61, align 8
  %cmp.not.i.i2.i65 = icmp eq ptr %28, null
  br i1 %cmp.not.i.i2.i65, label %ehcleanup26, label %_ZNKSt14default_deleteINSt7__cxx1118basic_stringstreamIcSt11char_traitsIcESaIcEEEEclEPS5_.exit.i.i3.i66

_ZNKSt14default_deleteINSt7__cxx1118basic_stringstreamIcSt11char_traitsIcESaIcEEEEclEPS5_.exit.i.i3.i66: ; preds = %lpad.i64
  %vtable.i.i.i4.i67 = load ptr, ptr %28, align 8
  %vfn.i.i.i5.i68 = getelementptr inbounds ptr, ptr %vtable.i.i.i4.i67, i64 1
  %29 = load ptr, ptr %vfn.i.i.i5.i68, align 8
  call void %29(ptr noundef nonnull align 8 dereferenceable(128) %28) #28
  br label %ehcleanup26

invoke.cont7:                                     ; preds = %_ZNKSt14default_deleteINSt7__cxx1118basic_stringstreamIcSt11char_traitsIcESaIcEEEEclEPS5_.exit.i.i.i73, %invoke.cont2.i71
  call void @llvm.lifetime.end.p0(i64 8, ptr nonnull %ref.tmp.i61)
  call void @llvm.lifetime.start.p0(i64 8, ptr nonnull %ref.tmp.i80)
  invoke void @_ZN7testing7MessageC1Ev(ptr noundef nonnull align 8 dereferenceable(8) %ref.tmp.i80)
          to label %.noexc97 unwind label %lpad

.noexc97:                                         ; preds = %invoke.cont7
  %cmp.i.i81 = icmp eq ptr %expr2, null
  %30 = load ptr, ptr %ref.tmp.i80, align 8
  %add.ptr.i.i82 = getelementptr inbounds i8, ptr %30, i64 16
  %.str.45..i.i83 = select i1 %cmp.i.i81, ptr @.str.45, ptr %expr2
  %call6.i1.i84 = invoke noundef nonnull align 8 dereferenceable(8) ptr @_ZStlsISt11char_traitsIcEERSt13basic_ostreamIcT_ES5_PKc(ptr noundef nonnull align 8 dereferenceable(8) %add.ptr.i.i82, ptr noundef nonnull %.str.45..i.i83)
          to label %invoke.cont.i91 unwind label %lpad.i85

invoke.cont.i91:                                  ; preds = %.noexc97
  invoke void @_ZN7testing15AssertionResult13AppendMessageERKNS_7MessageE(ptr noundef nonnull align 8 dereferenceable(16) %ref.tmp, ptr noundef nonnull align 8 dereferenceable(8) %ref.tmp.i80)
          to label %invoke.cont2.i92 unwind label %lpad.i85

invoke.cont2.i92:                                 ; preds = %invoke.cont.i91
  %31 = load ptr, ptr %ref.tmp.i80, align 8
  %cmp.not.i.i.i93 = icmp eq ptr %31, null
  br i1 %cmp.not.i.i.i93, label %invoke.cont9, label %_ZNKSt14default_deleteINSt7__cxx1118basic_stringstreamIcSt11char_traitsIcESaIcEEEEclEPS5_.exit.i.i.i94

_ZNKSt14default_deleteINSt7__cxx1118basic_stringstreamIcSt11char_traitsIcESaIcEEEEclEPS5_.exit.i.i.i94: ; preds = %invoke.cont2.i92
  %vtable.i.i.i.i95 = load ptr, ptr %31, align 8
  %vfn.i.i.i.i96 = getelementptr inbounds ptr, ptr %vtable.i.i.i.i95, i64 1
  %32 = load ptr, ptr %vfn.i.i.i.i96, align 8
  call void %32(ptr noundef nonnull align 8 dereferenceable(128) %31) #28
  br label %invoke.cont9

lpad.i85:                                         ; preds = %invoke.cont.i91, %.noexc97
  %33 = landingpad { ptr, i32 }
          cleanup
  %34 = load ptr, ptr %ref.tmp.i80, align 8
  %cmp.not.i.i2.i86 = icmp eq ptr %34, null
  br i1 %cmp.not.i.i2.i86, label %ehcleanup26, label %_ZNKSt14default_deleteINSt7__cxx1118basic_stringstreamIcSt11char_traitsIcESaIcEEEEclEPS5_.exit.i.i3.i87

_ZNKSt14default_deleteINSt7__cxx1118basic_stringstreamIcSt11char_traitsIcESaIcEEEEclEPS5_.exit.i.i3.i87: ; preds = %lpad.i85
  %vtable.i.i.i4.i88 = load ptr, ptr %34, align 8
  %vfn.i.i.i5.i89 = getelementptr inbounds ptr, ptr %vtable.i.i.i4.i88, i64 1
  %35 = load ptr, ptr %vfn.i.i.i5.i89, align 8
  call void %35(ptr noundef nonnull align 8 dereferenceable(128) %34) #28
  br label %ehcleanup26

invoke.cont9:                                     ; preds = %_ZNKSt14default_deleteINSt7__cxx1118basic_stringstreamIcSt11char_traitsIcESaIcEEEEclEPS5_.exit.i.i.i94, %invoke.cont2.i92
  call void @llvm.lifetime.end.p0(i64 8, ptr nonnull %ref.tmp.i80)
  call void @llvm.lifetime.start.p0(i64 8, ptr nonnull %ref.tmp.i101)
  invoke void @_ZN7testing7MessageC1Ev(ptr noundef nonnull align 8 dereferenceable(8) %ref.tmp.i101)
          to label %.noexc116 unwind label %lpad

.noexc116:                                        ; preds = %invoke.cont9
  %36 = load ptr, ptr %ref.tmp.i101, align 8
  %add.ptr.i.i102 = getelementptr inbounds i8, ptr %36, i64 16
  %call2.i1.i103 = invoke noundef nonnull align 8 dereferenceable(8) ptr @_ZStlsISt11char_traitsIcEERSt13basic_ostreamIcT_ES5_PKc(ptr noundef nonnull align 8 dereferenceable(8) %add.ptr.i.i102, ptr noundef nonnull @.str.43)
          to label %invoke.cont.i110 unwind label %lpad.i104

invoke.cont.i110:                                 ; preds = %.noexc116
  invoke void @_ZN7testing15AssertionResult13AppendMessageERKNS_7MessageE(ptr noundef nonnull align 8 dereferenceable(16) %ref.tmp, ptr noundef nonnull align 8 dereferenceable(8) %ref.tmp.i101)
          to label %invoke.cont2.i111 unwind label %lpad.i104

invoke.cont2.i111:                                ; preds = %invoke.cont.i110
  %37 = load ptr, ptr %ref.tmp.i101, align 8
  %cmp.not.i.i.i112 = icmp eq ptr %37, null
  br i1 %cmp.not.i.i.i112, label %invoke.cont11, label %_ZNKSt14default_deleteINSt7__cxx1118basic_stringstreamIcSt11char_traitsIcESaIcEEEEclEPS5_.exit.i.i.i113

_ZNKSt14default_deleteINSt7__cxx1118basic_stringstreamIcSt11char_traitsIcESaIcEEEEclEPS5_.exit.i.i.i113: ; preds = %invoke.cont2.i111
  %vtable.i.i.i.i114 = load ptr, ptr %37, align 8
  %vfn.i.i.i.i115 = getelementptr inbounds ptr, ptr %vtable.i.i.i.i114, i64 1
  %38 = load ptr, ptr %vfn.i.i.i.i115, align 8
  call void %38(ptr noundef nonnull align 8 dereferenceable(128) %37) #28
  br label %invoke.cont11

lpad.i104:                                        ; preds = %invoke.cont.i110, %.noexc116
  %39 = landingpad { ptr, i32 }
          cleanup
  %40 = load ptr, ptr %ref.tmp.i101, align 8
  %cmp.not.i.i2.i105 = icmp eq ptr %40, null
  br i1 %cmp.not.i.i2.i105, label %ehcleanup26, label %_ZNKSt14default_deleteINSt7__cxx1118basic_stringstreamIcSt11char_traitsIcESaIcEEEEclEPS5_.exit.i.i3.i106

_ZNKSt14default_deleteINSt7__cxx1118basic_stringstreamIcSt11char_traitsIcESaIcEEEEclEPS5_.exit.i.i3.i106: ; preds = %lpad.i104
  %vtable.i.i.i4.i107 = load ptr, ptr %40, align 8
  %vfn.i.i.i5.i108 = getelementptr inbounds ptr, ptr %vtable.i.i.i4.i107, i64 1
  %41 = load ptr, ptr %vfn.i.i.i5.i108, align 8
  call void %41(ptr noundef nonnull align 8 dereferenceable(128) %40) #28
  br label %ehcleanup26

invoke.cont11:                                    ; preds = %_ZNKSt14default_deleteINSt7__cxx1118basic_stringstreamIcSt11char_traitsIcESaIcEEEEclEPS5_.exit.i.i.i113, %invoke.cont2.i111
  call void @llvm.lifetime.end.p0(i64 8, ptr nonnull %ref.tmp.i101)
  call void @llvm.lifetime.start.p0(i64 392, ptr nonnull %ss.i.i.i), !noalias !23
  invoke void @_ZNSt7__cxx1118basic_stringstreamIcSt11char_traitsIcESaIcEEC1Ev(ptr noundef nonnull align 8 dereferenceable(128) %ss.i.i.i)
          to label %.noexc120 unwind label %lpad

.noexc120:                                        ; preds = %invoke.cont11
  %add.ptr.i.i.i = getelementptr inbounds i8, ptr %ss.i.i.i, i64 16
  %42 = load i64, ptr %val1, align 8, !noalias !28
  %call.i.i.i.i.i.i1.i.i.i = invoke noundef nonnull align 8 dereferenceable(8) ptr @_ZNSolsEm(ptr noundef nonnull align 8 dereferenceable(8) %add.ptr.i.i.i, i64 noundef %42)
          to label %invoke.cont.i.i.i unwind label %lpad.i.i.i, !noalias !28

invoke.cont.i.i.i:                                ; preds = %.noexc120
  invoke void @_ZNKSt7__cxx1118basic_stringstreamIcSt11char_traitsIcESaIcEE3strEv(ptr nonnull sret(%"class.std::__cxx11::basic_string") align 8 %ref.tmp13, ptr noundef nonnull align 8 dereferenceable(128) %ss.i.i.i)
          to label %invoke.cont14 unwind label %lpad.i.i.i

lpad.i.i.i:                                       ; preds = %invoke.cont.i.i.i, %.noexc120
  %43 = landingpad { ptr, i32 }
          cleanup
  call void @_ZNSt7__cxx1118basic_stringstreamIcSt11char_traitsIcESaIcEED1Ev(ptr noundef nonnull align 8 dereferenceable(128) %ss.i.i.i) #28
  br label %ehcleanup26

invoke.cont14:                                    ; preds = %invoke.cont.i.i.i
  call void @_ZNSt7__cxx1118basic_stringstreamIcSt11char_traitsIcESaIcEED1Ev(ptr noundef nonnull align 8 dereferenceable(128) %ss.i.i.i) #28
  call void @llvm.lifetime.end.p0(i64 392, ptr nonnull %ss.i.i.i), !noalias !23
  call void @llvm.lifetime.start.p0(i64 8, ptr nonnull %ref.tmp.i123)
  invoke void @_ZN7testing7MessageC1Ev(ptr noundef nonnull align 8 dereferenceable(8) %ref.tmp.i123)
          to label %.noexc138 unwind label %lpad15

.noexc138:                                        ; preds = %invoke.cont14
  %44 = load ptr, ptr %ref.tmp.i123, align 8
  %add.ptr.i.i124 = getelementptr inbounds i8, ptr %44, i64 16
  %call2.i1.i125 = invoke noundef nonnull align 8 dereferenceable(8) ptr @_ZStlsIcSt11char_traitsIcESaIcEERSt13basic_ostreamIT_T0_ES7_RKNSt7__cxx1112basic_stringIS4_S5_T1_EE(ptr noundef nonnull align 8 dereferenceable(8) %add.ptr.i.i124, ptr noundef nonnull align 8 dereferenceable(32) %ref.tmp13)
          to label %invoke.cont.i132 unwind label %lpad.i126

invoke.cont.i132:                                 ; preds = %.noexc138
  invoke void @_ZN7testing15AssertionResult13AppendMessageERKNS_7MessageE(ptr noundef nonnull align 8 dereferenceable(16) %ref.tmp, ptr noundef nonnull align 8 dereferenceable(8) %ref.tmp.i123)
          to label %invoke.cont2.i133 unwind label %lpad.i126

invoke.cont2.i133:                                ; preds = %invoke.cont.i132
  %45 = load ptr, ptr %ref.tmp.i123, align 8
  %cmp.not.i.i.i134 = icmp eq ptr %45, null
  br i1 %cmp.not.i.i.i134, label %invoke.cont16, label %_ZNKSt14default_deleteINSt7__cxx1118basic_stringstreamIcSt11char_traitsIcESaIcEEEEclEPS5_.exit.i.i.i135

_ZNKSt14default_deleteINSt7__cxx1118basic_stringstreamIcSt11char_traitsIcESaIcEEEEclEPS5_.exit.i.i.i135: ; preds = %invoke.cont2.i133
  %vtable.i.i.i.i136 = load ptr, ptr %45, align 8
  %vfn.i.i.i.i137 = getelementptr inbounds ptr, ptr %vtable.i.i.i.i136, i64 1
  %46 = load ptr, ptr %vfn.i.i.i.i137, align 8
  call void %46(ptr noundef nonnull align 8 dereferenceable(128) %45) #28
  br label %invoke.cont16

lpad.i126:                                        ; preds = %invoke.cont.i132, %.noexc138
  %47 = landingpad { ptr, i32 }
          cleanup
  %48 = load ptr, ptr %ref.tmp.i123, align 8
  %cmp.not.i.i2.i127 = icmp eq ptr %48, null
  br i1 %cmp.not.i.i2.i127, label %ehcleanup, label %_ZNKSt14default_deleteINSt7__cxx1118basic_stringstreamIcSt11char_traitsIcESaIcEEEEclEPS5_.exit.i.i3.i128

_ZNKSt14default_deleteINSt7__cxx1118basic_stringstreamIcSt11char_traitsIcESaIcEEEEclEPS5_.exit.i.i3.i128: ; preds = %lpad.i126
  %vtable.i.i.i4.i129 = load ptr, ptr %48, align 8
  %vfn.i.i.i5.i130 = getelementptr inbounds ptr, ptr %vtable.i.i.i4.i129, i64 1
  %49 = load ptr, ptr %vfn.i.i.i5.i130, align 8
  call void %49(ptr noundef nonnull align 8 dereferenceable(128) %48) #28
  br label %ehcleanup

invoke.cont16:                                    ; preds = %_ZNKSt14default_deleteINSt7__cxx1118basic_stringstreamIcSt11char_traitsIcESaIcEEEEclEPS5_.exit.i.i.i135, %invoke.cont2.i133
  call void @llvm.lifetime.end.p0(i64 8, ptr nonnull %ref.tmp.i123)
  call void @llvm.lifetime.start.p0(i64 8, ptr nonnull %ref.tmp.i140)
  invoke void @_ZN7testing7MessageC1Ev(ptr noundef nonnull align 8 dereferenceable(8) %ref.tmp.i140)
          to label %.noexc155 unwind label %lpad15

.noexc155:                                        ; preds = %invoke.cont16
  %50 = load ptr, ptr %ref.tmp.i140, align 8
  %add.ptr.i.i141 = getelementptr inbounds i8, ptr %50, i64 16
  %call2.i1.i142 = invoke noundef nonnull align 8 dereferenceable(8) ptr @_ZStlsISt11char_traitsIcEERSt13basic_ostreamIcT_ES5_PKc(ptr noundef nonnull align 8 dereferenceable(8) %add.ptr.i.i141, ptr noundef nonnull @.str.44)
          to label %invoke.cont.i149 unwind label %lpad.i143

invoke.cont.i149:                                 ; preds = %.noexc155
  invoke void @_ZN7testing15AssertionResult13AppendMessageERKNS_7MessageE(ptr noundef nonnull align 8 dereferenceable(16) %ref.tmp, ptr noundef nonnull align 8 dereferenceable(8) %ref.tmp.i140)
          to label %invoke.cont2.i150 unwind label %lpad.i143

invoke.cont2.i150:                                ; preds = %invoke.cont.i149
  %51 = load ptr, ptr %ref.tmp.i140, align 8
  %cmp.not.i.i.i151 = icmp eq ptr %51, null
  br i1 %cmp.not.i.i.i151, label %invoke.cont18, label %_ZNKSt14default_deleteINSt7__cxx1118basic_stringstreamIcSt11char_traitsIcESaIcEEEEclEPS5_.exit.i.i.i152

_ZNKSt14default_deleteINSt7__cxx1118basic_stringstreamIcSt11char_traitsIcESaIcEEEEclEPS5_.exit.i.i.i152: ; preds = %invoke.cont2.i150
  %vtable.i.i.i.i153 = load ptr, ptr %51, align 8
  %vfn.i.i.i.i154 = getelementptr inbounds ptr, ptr %vtable.i.i.i.i153, i64 1
  %52 = load ptr, ptr %vfn.i.i.i.i154, align 8
  call void %52(ptr noundef nonnull align 8 dereferenceable(128) %51) #28
  br label %invoke.cont18

lpad.i143:                                        ; preds = %invoke.cont.i149, %.noexc155
  %53 = landingpad { ptr, i32 }
          cleanup
  %54 = load ptr, ptr %ref.tmp.i140, align 8
  %cmp.not.i.i2.i144 = icmp eq ptr %54, null
  br i1 %cmp.not.i.i2.i144, label %ehcleanup, label %_ZNKSt14default_deleteINSt7__cxx1118basic_stringstreamIcSt11char_traitsIcESaIcEEEEclEPS5_.exit.i.i3.i145

_ZNKSt14default_deleteINSt7__cxx1118basic_stringstreamIcSt11char_traitsIcESaIcEEEEclEPS5_.exit.i.i3.i145: ; preds = %lpad.i143
  %vtable.i.i.i4.i146 = load ptr, ptr %54, align 8
  %vfn.i.i.i5.i147 = getelementptr inbounds ptr, ptr %vtable.i.i.i4.i146, i64 1
  %55 = load ptr, ptr %vfn.i.i.i5.i147, align 8
  call void %55(ptr noundef nonnull align 8 dereferenceable(128) %54) #28
  br label %ehcleanup

invoke.cont18:                                    ; preds = %_ZNKSt14default_deleteINSt7__cxx1118basic_stringstreamIcSt11char_traitsIcESaIcEEEEclEPS5_.exit.i.i.i152, %invoke.cont2.i150
  call void @llvm.lifetime.end.p0(i64 8, ptr nonnull %ref.tmp.i140)
  call void @llvm.lifetime.start.p0(i64 392, ptr nonnull %ss.i.i.i158), !noalias !31
  invoke void @_ZNSt7__cxx1118basic_stringstreamIcSt11char_traitsIcESaIcEEC1Ev(ptr noundef nonnull align 8 dereferenceable(128) %ss.i.i.i158)
          to label %.noexc163 unwind label %lpad15

.noexc163:                                        ; preds = %invoke.cont18
  %add.ptr.i.i.i159 = getelementptr inbounds i8, ptr %ss.i.i.i158, i64 16
  %56 = load i32, ptr %val2, align 4, !noalias !36
  %call.i.i.i.i.i.i1.i.i.i160 = invoke noundef nonnull align 8 dereferenceable(8) ptr @_ZNSolsEi(ptr noundef nonnull align 8 dereferenceable(8) %add.ptr.i.i.i159, i32 noundef %56)
          to label %invoke.cont.i.i.i162 unwind label %lpad.i.i.i161, !noalias !36

invoke.cont.i.i.i162:                             ; preds = %.noexc163
  invoke void @_ZNKSt7__cxx1118basic_stringstreamIcSt11char_traitsIcESaIcEE3strEv(ptr nonnull sret(%"class.std::__cxx11::basic_string") align 8 %ref.tmp20, ptr noundef nonnull align 8 dereferenceable(128) %ss.i.i.i158)
          to label %invoke.cont21 unwind label %lpad.i.i.i161

lpad.i.i.i161:                                    ; preds = %invoke.cont.i.i.i162, %.noexc163
  %57 = landingpad { ptr, i32 }
          cleanup
  call void @_ZNSt7__cxx1118basic_stringstreamIcSt11char_traitsIcESaIcEED1Ev(ptr noundef nonnull align 8 dereferenceable(128) %ss.i.i.i158) #28
  br label %ehcleanup

invoke.cont21:                                    ; preds = %invoke.cont.i.i.i162
  call void @_ZNSt7__cxx1118basic_stringstreamIcSt11char_traitsIcESaIcEED1Ev(ptr noundef nonnull align 8 dereferenceable(128) %ss.i.i.i158) #28
  call void @llvm.lifetime.end.p0(i64 392, ptr nonnull %ss.i.i.i158), !noalias !31
  call void @llvm.lifetime.start.p0(i64 8, ptr nonnull %ref.tmp.i166)
  invoke void @_ZN7testing7MessageC1Ev(ptr noundef nonnull align 8 dereferenceable(8) %ref.tmp.i166)
          to label %.noexc181 unwind label %lpad22

.noexc181:                                        ; preds = %invoke.cont21
  %58 = load ptr, ptr %ref.tmp.i166, align 8
  %add.ptr.i.i167 = getelementptr inbounds i8, ptr %58, i64 16
  %call2.i1.i168 = invoke noundef nonnull align 8 dereferenceable(8) ptr @_ZStlsIcSt11char_traitsIcESaIcEERSt13basic_ostreamIT_T0_ES7_RKNSt7__cxx1112basic_stringIS4_S5_T1_EE(ptr noundef nonnull align 8 dereferenceable(8) %add.ptr.i.i167, ptr noundef nonnull align 8 dereferenceable(32) %ref.tmp20)
          to label %invoke.cont.i175 unwind label %lpad.i169

invoke.cont.i175:                                 ; preds = %.noexc181
  invoke void @_ZN7testing15AssertionResult13AppendMessageERKNS_7MessageE(ptr noundef nonnull align 8 dereferenceable(16) %ref.tmp, ptr noundef nonnull align 8 dereferenceable(8) %ref.tmp.i166)
          to label %invoke.cont2.i176 unwind label %lpad.i169

invoke.cont2.i176:                                ; preds = %invoke.cont.i175
  %59 = load ptr, ptr %ref.tmp.i166, align 8
  %cmp.not.i.i.i177 = icmp eq ptr %59, null
  br i1 %cmp.not.i.i.i177, label %invoke.cont23, label %_ZNKSt14default_deleteINSt7__cxx1118basic_stringstreamIcSt11char_traitsIcESaIcEEEEclEPS5_.exit.i.i.i178

_ZNKSt14default_deleteINSt7__cxx1118basic_stringstreamIcSt11char_traitsIcESaIcEEEEclEPS5_.exit.i.i.i178: ; preds = %invoke.cont2.i176
  %vtable.i.i.i.i179 = load ptr, ptr %59, align 8
  %vfn.i.i.i.i180 = getelementptr inbounds ptr, ptr %vtable.i.i.i.i179, i64 1
  %60 = load ptr, ptr %vfn.i.i.i.i180, align 8
  call void %60(ptr noundef nonnull align 8 dereferenceable(128) %59) #28
  br label %invoke.cont23

lpad.i169:                                        ; preds = %invoke.cont.i175, %.noexc181
  %61 = landingpad { ptr, i32 }
          cleanup
  %62 = load ptr, ptr %ref.tmp.i166, align 8
  %cmp.not.i.i2.i170 = icmp eq ptr %62, null
  br i1 %cmp.not.i.i2.i170, label %lpad22.body, label %_ZNKSt14default_deleteINSt7__cxx1118basic_stringstreamIcSt11char_traitsIcESaIcEEEEclEPS5_.exit.i.i3.i171

_ZNKSt14default_deleteINSt7__cxx1118basic_stringstreamIcSt11char_traitsIcESaIcEEEEclEPS5_.exit.i.i3.i171: ; preds = %lpad.i169
  %vtable.i.i.i4.i172 = load ptr, ptr %62, align 8
  %vfn.i.i.i5.i173 = getelementptr inbounds ptr, ptr %vtable.i.i.i4.i172, i64 1
  %63 = load ptr, ptr %vfn.i.i.i5.i173, align 8
  call void %63(ptr noundef nonnull align 8 dereferenceable(128) %62) #28
  br label %lpad22.body

invoke.cont23:                                    ; preds = %_ZNKSt14default_deleteINSt7__cxx1118basic_stringstreamIcSt11char_traitsIcESaIcEEEEclEPS5_.exit.i.i.i178, %invoke.cont2.i176
  call void @llvm.lifetime.end.p0(i64 8, ptr nonnull %ref.tmp.i166)
  invoke void @_ZN7testing15AssertionResultC1ERKS0_(ptr noundef nonnull align 8 dereferenceable(16) %agg.result, ptr noundef nonnull align 8 dereferenceable(16) %ref.tmp)
          to label %invoke.cont25 unwind label %lpad22

invoke.cont25:                                    ; preds = %invoke.cont23
  call void @_ZNSt7__cxx1112basic_stringIcSt11char_traitsIcESaIcEED1Ev(ptr noundef nonnull align 8 dereferenceable(32) %ref.tmp20) #28
  call void @_ZNSt7__cxx1112basic_stringIcSt11char_traitsIcESaIcEED1Ev(ptr noundef nonnull align 8 dereferenceable(32) %ref.tmp13) #28
  %message_.i = getelementptr inbounds %"class.testing::AssertionResult", ptr %ref.tmp, i64 0, i32 1
  %64 = load ptr, ptr %message_.i, align 8
  %cmp.not.i.i = icmp eq ptr %64, null
  br i1 %cmp.not.i.i, label %_ZN7testing15AssertionResultD2Ev.exit, label %_ZNKSt14default_deleteINSt7__cxx1112basic_stringIcSt11char_traitsIcESaIcEEEEclEPS5_.exit.i.i

_ZNKSt14default_deleteINSt7__cxx1112basic_stringIcSt11char_traitsIcESaIcEEEEclEPS5_.exit.i.i: ; preds = %invoke.cont25
  call void @_ZNSt7__cxx1112basic_stringIcSt11char_traitsIcESaIcEED1Ev(ptr noundef nonnull align 8 dereferenceable(32) %64) #28
  call void @_ZdlPv(ptr noundef nonnull %64) #29
  br label %_ZN7testing15AssertionResultD2Ev.exit

_ZN7testing15AssertionResultD2Ev.exit:            ; preds = %invoke.cont25, %_ZNKSt14default_deleteINSt7__cxx1112basic_stringIcSt11char_traitsIcESaIcEEEEclEPS5_.exit.i.i
  ret void

lpad:                                             ; preds = %invoke.cont11, %invoke.cont9, %invoke.cont7, %invoke.cont5, %invoke.cont3, %invoke.cont1, %invoke.cont, %entry
  %65 = landingpad { ptr, i32 }
          cleanup
  br label %ehcleanup26

lpad15:                                           ; preds = %invoke.cont18, %invoke.cont16, %invoke.cont14
  %66 = landingpad { ptr, i32 }
          cleanup
  br label %ehcleanup

lpad22:                                           ; preds = %invoke.cont21, %invoke.cont23
  %67 = landingpad { ptr, i32 }
          cleanup
  br label %lpad22.body

lpad22.body:                                      ; preds = %lpad.i169, %_ZNKSt14default_deleteINSt7__cxx1118basic_stringstreamIcSt11char_traitsIcESaIcEEEEclEPS5_.exit.i.i3.i171, %lpad22
  %eh.lpad-body182 = phi { ptr, i32 } [ %67, %lpad22 ], [ %61, %_ZNKSt14default_deleteINSt7__cxx1118basic_stringstreamIcSt11char_traitsIcESaIcEEEEclEPS5_.exit.i.i3.i171 ], [ %61, %lpad.i169 ]
  call void @_ZNSt7__cxx1112basic_stringIcSt11char_traitsIcESaIcEED1Ev(ptr noundef nonnull align 8 dereferenceable(32) %ref.tmp20) #28
  br label %ehcleanup

ehcleanup:                                        ; preds = %_ZNKSt14default_deleteINSt7__cxx1118basic_stringstreamIcSt11char_traitsIcESaIcEEEEclEPS5_.exit.i.i3.i128, %lpad.i126, %lpad15, %lpad.i.i.i161, %lpad.i143, %_ZNKSt14default_deleteINSt7__cxx1118basic_stringstreamIcSt11char_traitsIcESaIcEEEEclEPS5_.exit.i.i3.i145, %lpad22.body
  %.pn = phi { ptr, i32 } [ %eh.lpad-body182, %lpad22.body ], [ %47, %_ZNKSt14default_deleteINSt7__cxx1118basic_stringstreamIcSt11char_traitsIcESaIcEEEEclEPS5_.exit.i.i3.i128 ], [ %47, %lpad.i126 ], [ %53, %_ZNKSt14default_deleteINSt7__cxx1118basic_stringstreamIcSt11char_traitsIcESaIcEEEEclEPS5_.exit.i.i3.i145 ], [ %53, %lpad.i143 ], [ %66, %lpad15 ], [ %57, %lpad.i.i.i161 ]
  call void @_ZNSt7__cxx1112basic_stringIcSt11char_traitsIcESaIcEED1Ev(ptr noundef nonnull align 8 dereferenceable(32) %ref.tmp13) #28
  br label %ehcleanup26

ehcleanup26:                                      ; preds = %_ZNKSt14default_deleteINSt7__cxx1118basic_stringstreamIcSt11char_traitsIcESaIcEEEEclEPS5_.exit.i.i3.i, %lpad.i, %_ZNKSt14default_deleteINSt7__cxx1118basic_stringstreamIcSt11char_traitsIcESaIcEEEEclEPS5_.exit.i.i3.i27, %lpad.i25, %_ZNKSt14default_deleteINSt7__cxx1118basic_stringstreamIcSt11char_traitsIcESaIcEEEEclEPS5_.exit.i.i3.i66, %lpad.i64, %_ZNKSt14default_deleteINSt7__cxx1118basic_stringstreamIcSt11char_traitsIcESaIcEEEEclEPS5_.exit.i.i3.i106, %lpad.i104, %lpad.i.i.i, %lpad, %lpad.i85, %_ZNKSt14default_deleteINSt7__cxx1118basic_stringstreamIcSt11char_traitsIcESaIcEEEEclEPS5_.exit.i.i3.i87, %lpad.i45, %_ZNKSt14default_deleteINSt7__cxx1118basic_stringstreamIcSt11char_traitsIcESaIcEEEEclEPS5_.exit.i.i3.i47, %lpad.i7, %_ZNKSt14default_deleteINSt7__cxx1118basic_stringstreamIcSt11char_traitsIcESaIcEEEEclEPS5_.exit.i.i3.i9, %ehcleanup
  %.pn.pn = phi { ptr, i32 } [ %.pn, %ehcleanup ], [ %3, %_ZNKSt14default_deleteINSt7__cxx1118basic_stringstreamIcSt11char_traitsIcESaIcEEEEclEPS5_.exit.i.i3.i ], [ %3, %lpad.i ], [ %9, %_ZNKSt14default_deleteINSt7__cxx1118basic_stringstreamIcSt11char_traitsIcESaIcEEEEclEPS5_.exit.i.i3.i9 ], [ %9, %lpad.i7 ], [ %15, %_ZNKSt14default_deleteINSt7__cxx1118basic_stringstreamIcSt11char_traitsIcESaIcEEEEclEPS5_.exit.i.i3.i27 ], [ %15, %lpad.i25 ], [ %21, %_ZNKSt14default_deleteINSt7__cxx1118basic_stringstreamIcSt11char_traitsIcESaIcEEEEclEPS5_.exit.i.i3.i47 ], [ %21, %lpad.i45 ], [ %27, %_ZNKSt14default_deleteINSt7__cxx1118basic_stringstreamIcSt11char_traitsIcESaIcEEEEclEPS5_.exit.i.i3.i66 ], [ %27, %lpad.i64 ], [ %33, %_ZNKSt14default_deleteINSt7__cxx1118basic_stringstreamIcSt11char_traitsIcESaIcEEEEclEPS5_.exit.i.i3.i87 ], [ %33, %lpad.i85 ], [ %39, %_ZNKSt14default_deleteINSt7__cxx1118basic_stringstreamIcSt11char_traitsIcESaIcEEEEclEPS5_.exit.i.i3.i106 ], [ %39, %lpad.i104 ], [ %65, %lpad ], [ %43, %lpad.i.i.i ]
  call void @_ZN7testing15AssertionResultD2Ev(ptr noundef nonnull align 8 dereferenceable(16) %ref.tmp) #28
  resume { ptr, i32 } %.pn.pn
}

declare void @_ZN7testing16AssertionFailureEv(ptr sret(%"class.testing::AssertionResult") align 8) local_unnamed_addr #0

declare void @_ZN7testing15AssertionResultC1ERKS0_(ptr noundef nonnull align 8 dereferenceable(16), ptr noundef nonnull align 8 dereferenceable(16)) unnamed_addr #0

; Function Attrs: mustprogress uwtable
define linkonce_odr dso_local void @_ZN7testing15AssertionResult13AppendMessageERKNS_7MessageE(ptr noundef nonnull align 8 dereferenceable(16) %this, ptr noundef nonnull align 8 dereferenceable(8) %a_message) local_unnamed_addr #4 comdat align 2 personality ptr @__gxx_personality_v0 {
entry:
  %ref.tmp6 = alloca %"class.std::__cxx11::basic_string", align 8
  %message_ = getelementptr inbounds %"class.testing::AssertionResult", ptr %this, i64 0, i32 1
  %0 = load ptr, ptr %message_, align 8
  %cmp.i.not.i = icmp eq ptr %0, null
  br i1 %cmp.i.not.i, label %if.then, label %if.end

if.then:                                          ; preds = %entry
  %call.i = tail call noalias noundef nonnull dereferenceable(32) ptr @_Znwm(i64 noundef 32) #31, !noalias !39
  tail call void @_ZNSt7__cxx1112basic_stringIcSt11char_traitsIcESaIcEEC1Ev(ptr noundef nonnull align 8 dereferenceable(32) %call.i) #28, !noalias !39
  %1 = load ptr, ptr %message_, align 8
  store ptr %call.i, ptr %message_, align 8
  %tobool.not.i.i.i.i = icmp eq ptr %1, null
  br i1 %tobool.not.i.i.i.i, label %if.end, label %_ZNKSt14default_deleteINSt7__cxx1112basic_stringIcSt11char_traitsIcESaIcEEEEclEPS5_.exit.i.i.i.i

_ZNKSt14default_deleteINSt7__cxx1112basic_stringIcSt11char_traitsIcESaIcEEEEclEPS5_.exit.i.i.i.i: ; preds = %if.then
  tail call void @_ZNSt7__cxx1112basic_stringIcSt11char_traitsIcESaIcEED1Ev(ptr noundef nonnull align 8 dereferenceable(32) %1) #28
  tail call void @_ZdlPv(ptr noundef nonnull %1) #29
  %.pre = load ptr, ptr %message_, align 8
  br label %if.end

if.end:                                           ; preds = %if.then, %_ZNKSt14default_deleteINSt7__cxx1112basic_stringIcSt11char_traitsIcESaIcEEEEclEPS5_.exit.i.i.i.i, %entry
  %2 = phi ptr [ %call.i, %if.then ], [ %.pre, %_ZNKSt14default_deleteINSt7__cxx1112basic_stringIcSt11char_traitsIcESaIcEEEEclEPS5_.exit.i.i.i.i ], [ %0, %entry ]
  call void @_ZNK7testing7Message9GetStringB5cxx11Ev(ptr nonnull sret(%"class.std::__cxx11::basic_string") align 8 %ref.tmp6, ptr noundef nonnull align 8 dereferenceable(8) %a_message)
  %call7 = call noundef ptr @_ZNKSt7__cxx1112basic_stringIcSt11char_traitsIcESaIcEE5c_strEv(ptr noundef nonnull align 8 dereferenceable(32) %ref.tmp6) #28
  %call8 = invoke noundef nonnull align 8 dereferenceable(32) ptr @_ZNSt7__cxx1112basic_stringIcSt11char_traitsIcESaIcEE6appendEPKc(ptr noundef nonnull align 8 dereferenceable(32) %2, ptr noundef %call7)
          to label %invoke.cont unwind label %lpad

invoke.cont:                                      ; preds = %if.end
  call void @_ZNSt7__cxx1112basic_stringIcSt11char_traitsIcESaIcEED1Ev(ptr noundef nonnull align 8 dereferenceable(32) %ref.tmp6) #28
  ret void

lpad:                                             ; preds = %if.end
  %3 = landingpad { ptr, i32 }
          cleanup
  call void @_ZNSt7__cxx1112basic_stringIcSt11char_traitsIcESaIcEED1Ev(ptr noundef nonnull align 8 dereferenceable(32) %ref.tmp6) #28
  resume { ptr, i32 } %3
}

declare noundef nonnull align 8 dereferenceable(32) ptr @_ZNSt7__cxx1112basic_stringIcSt11char_traitsIcESaIcEE6appendEPKc(ptr noundef nonnull align 8 dereferenceable(32), ptr noundef) local_unnamed_addr #0

declare void @_ZNK7testing7Message9GetStringB5cxx11Ev(ptr sret(%"class.std::__cxx11::basic_string") align 8, ptr noundef nonnull align 8 dereferenceable(8)) local_unnamed_addr #0

; Function Attrs: nounwind
declare noundef ptr @_ZNKSt7__cxx1112basic_stringIcSt11char_traitsIcESaIcEE5c_strEv(ptr noundef nonnull align 8 dereferenceable(32)) local_unnamed_addr #1

; Function Attrs: nounwind
declare void @_ZNSt7__cxx1112basic_stringIcSt11char_traitsIcESaIcEEC1Ev(ptr noundef nonnull align 8 dereferenceable(32)) unnamed_addr #1

declare noundef nonnull align 8 dereferenceable(8) ptr @_ZStlsIcSt11char_traitsIcESaIcEERSt13basic_ostreamIT_T0_ES7_RKNSt7__cxx1112basic_stringIS4_S5_T1_EE(ptr noundef nonnull align 8 dereferenceable(8), ptr noundef nonnull align 8 dereferenceable(32)) local_unnamed_addr #0

declare void @_ZNSt7__cxx1118basic_stringstreamIcSt11char_traitsIcESaIcEEC1Ev(ptr noundef nonnull align 8 dereferenceable(128)) unnamed_addr #0

declare void @_ZNKSt7__cxx1118basic_stringstreamIcSt11char_traitsIcESaIcEE3strEv(ptr sret(%"class.std::__cxx11::basic_string") align 8, ptr noundef nonnull align 8 dereferenceable(128)) local_unnamed_addr #0

; Function Attrs: nounwind
declare void @_ZNSt7__cxx1118basic_stringstreamIcSt11char_traitsIcESaIcEED1Ev(ptr noundef nonnull align 8 dereferenceable(128)) unnamed_addr #1

declare noundef nonnull align 8 dereferenceable(8) ptr @_ZNSolsEm(ptr noundef nonnull align 8 dereferenceable(8), i64 noundef) local_unnamed_addr #0

declare noundef nonnull align 8 dereferenceable(8) ptr @_ZNSolsEi(ptr noundef nonnull align 8 dereferenceable(8), i32 noundef) local_unnamed_addr #0

; Function Attrs: mustprogress uwtable
define linkonce_odr dso_local noundef i64 @_ZN4absl17zipf_distributionImEclINS_15random_internal10pcg_engineINS3_13pcg128_paramsILm2549297995355413924ELm4865540595714422341ELm6364136223846793005ELm1442695040888963407EEENS3_17pcg_xsl_rr_128_64EEEEEmRT_RKNS1_10param_typeE(ptr noundef nonnull align 8 dereferenceable(64) %this, ptr noundef nonnull align 16 dereferenceable(16) %g, ptr noundef nonnull align 8 dereferenceable(64) %p) local_unnamed_addr #4 comdat align 2 personality ptr @__gxx_personality_v0 {
entry:
  %agg.tmp.sroa.2.0.state_.sroa_idx.i.i.i.i.i = getelementptr inbounds i8, ptr %g, i64 8
  %hxm_ = getelementptr inbounds %"class.absl::zipf_distribution<unsigned long>::param_type", ptr %p, i64 0, i32 6
  %hx0_minus_hxm_ = getelementptr inbounds %"class.absl::zipf_distribution<unsigned long>::param_type", ptr %p, i64 0, i32 7
  %v_.i = getelementptr inbounds %"class.absl::zipf_distribution<unsigned long>::param_type", ptr %p, i64 0, i32 2
  %one_minus_q_.i = getelementptr inbounds %"class.absl::zipf_distribution<unsigned long>::param_type", ptr %p, i64 0, i32 3
  %one_minus_q_inv_.i = getelementptr inbounds %"class.absl::zipf_distribution<unsigned long>::param_type", ptr %p, i64 0, i32 5
  %s_ = getelementptr inbounds %"class.absl::zipf_distribution<unsigned long>::param_type", ptr %p, i64 0, i32 4
  %q_.i = getelementptr inbounds %"class.absl::zipf_distribution<unsigned long>::param_type", ptr %p, i64 0, i32 1
  br label %for.cond

for.cond:                                         ; preds = %for.cond.backedge, %entry
  %agg.tmp.sroa.0.0.copyload.i.i.i.pre.i.i = load i64, ptr %g, align 16
  %agg.tmp.sroa.2.0.copyload.i.i.i.pre.i.i = load i64, ptr %agg.tmp.sroa.2.0.state_.sroa_idx.i.i.i.i.i, align 8
  br label %while.body.i.i

while.body.i.i:                                   ; preds = %_ZN4absl15random_internal20GenerateRealFromBitsIdNS0_19GeneratePositiveTagELb1EEET_mi.exit.i.i, %for.cond
  %agg.tmp.sroa.2.0.copyload.i.i.i.i.i = phi i64 [ %.narrow.i.i.i.i.i.i.i, %_ZN4absl15random_internal20GenerateRealFromBitsIdNS0_19GeneratePositiveTagELb1EEET_mi.exit.i.i ], [ %agg.tmp.sroa.2.0.copyload.i.i.i.pre.i.i, %for.cond ]
  %agg.tmp.sroa.0.0.copyload.i.i.i.i.i = phi i64 [ %coerce3.sroa.0.0.extract.trunc.i7.i.i.i.i.i.i, %_ZN4absl15random_internal20GenerateRealFromBitsIdNS0_19GeneratePositiveTagELb1EEET_mi.exit.i.i ], [ %agg.tmp.sroa.0.0.copyload.i.i.i.pre.i.i, %for.cond ]
  %coerce.sroa.2.0.insert.ext.i.i.i.i.i.i.i = zext i64 %agg.tmp.sroa.2.0.copyload.i.i.i.i.i to i128
  %coerce.sroa.2.0.insert.shift.i.i.i.i.i.i.i = shl nuw i128 %coerce.sroa.2.0.insert.ext.i.i.i.i.i.i.i, 64
  %coerce.sroa.0.0.insert.ext.i.i.i.i.i.i.i = zext i64 %agg.tmp.sroa.0.0.copyload.i.i.i.i.i to i128
  %coerce.sroa.0.0.insert.insert.i.i.i.i.i.i.i = or disjoint i128 %coerce.sroa.2.0.insert.shift.i.i.i.i.i.i.i, %coerce.sroa.0.0.insert.ext.i.i.i.i.i.i.i
  %mul.i.i.i.i.i.i.i = mul i128 %coerce.sroa.0.0.insert.insert.i.i.i.i.i.i.i, 47026247687942121848144207491837523525
  %coerce.sroa.0.0.insert.insert.i6.i.i.i.i.i.i = add i128 %mul.i.i.i.i.i.i.i, 1442695040888963407
  %coerce3.sroa.0.0.extract.trunc.i7.i.i.i.i.i.i = trunc i128 %coerce.sroa.0.0.insert.insert.i6.i.i.i.i.i.i to i64
  %0 = lshr i128 %coerce.sroa.0.0.insert.insert.i6.i.i.i.i.i.i, 64
  %.tr.i.i.i.i.i.i.i = trunc i128 %0 to i64
  %.narrow.i.i.i.i.i.i.i = add i64 %.tr.i.i.i.i.i.i.i, 6364136223846793005
  %xor.i.i12.i.i.i.i.i.i = xor i64 %.narrow.i.i.i.i.i.i.i, %coerce3.sroa.0.0.extract.trunc.i7.i.i.i.i.i.i
  %cmp.i.i.i = icmp eq i64 %xor.i.i12.i.i.i.i.i.i, 0
  br i1 %cmp.i.i.i, label %_ZN4absl15random_internal20GenerateRealFromBitsIdNS0_19GeneratePositiveTagELb1EEET_mi.exit.i.i, label %if.end.i.i.i

if.end.i.i.i:                                     ; preds = %while.body.i.i
  %shr.i.i.i.i.i.i.i = lshr i64 %.narrow.i.i.i.i.i.i.i, 58
  %or.i.i.i.i.i.i.i.i = tail call noundef i64 @llvm.fshr.i64(i64 %xor.i.i12.i.i.i.i.i.i, i64 %xor.i.i12.i.i.i.i.i.i, i64 %shr.i.i.i.i.i.i.i)
  %1 = tail call i64 @llvm.ctlz.i64(i64 %or.i.i.i.i.i.i.i.i, i1 true), !range !42
  %shl.i.i.i = shl i64 %or.i.i.i.i.i.i.i.i, %1
  %shr.i.i.i = lshr i64 %shl.i.i.i, 11
  %and.i.i.i = and i64 %shr.i.i.i, 4503599627370495
  %2 = shl nuw nsw i64 %1, 52
  %reass.sub = sub nsw i64 %and.i.i.i, %2
  %or2.i.i.i = add nsw i64 %reass.sub, 4602678819172646912
  %3 = bitcast i64 %or2.i.i.i to double
  br label %_ZN4absl15random_internal20GenerateRealFromBitsIdNS0_19GeneratePositiveTagELb1EEET_mi.exit.i.i

_ZN4absl15random_internal20GenerateRealFromBitsIdNS0_19GeneratePositiveTagELb1EEET_mi.exit.i.i: ; preds = %if.end.i.i.i, %while.body.i.i
  %retval.0.i.i.i = phi double [ %3, %if.end.i.i.i ], [ 0.000000e+00, %while.body.i.i ]
  %4 = fadd double %retval.0.i.i.i, 0.000000e+00
  %cmp.i.i = fcmp uge double %4, 1.000000e+00
  br i1 %cmp.i.i, label %while.body.i.i, label %_ZN4absl25uniform_real_distributionIdEclINS_15random_internal10pcg_engineINS3_13pcg128_paramsILm2549297995355413924ELm4865540595714422341ELm6364136223846793005ELm1442695040888963407EEENS3_17pcg_xsl_rr_128_64EEEEEdRT_.exit, !llvm.loop !43

_ZN4absl25uniform_real_distributionIdEclINS_15random_internal10pcg_engineINS3_13pcg128_paramsILm2549297995355413924ELm4865540595714422341ELm6364136223846793005ELm1442695040888963407EEENS3_17pcg_xsl_rr_128_64EEEEEdRT_.exit: ; preds = %_ZN4absl15random_internal20GenerateRealFromBitsIdNS0_19GeneratePositiveTagELb1EEET_mi.exit.i.i
  store i64 %coerce3.sroa.0.0.extract.trunc.i7.i.i.i.i.i.i, ptr %g, align 16
  store i64 %.narrow.i.i.i.i.i.i.i, ptr %agg.tmp.sroa.2.0.state_.sroa_idx.i.i.i.i.i, align 8
  %5 = load double, ptr %hxm_, align 8
  %6 = load double, ptr %hx0_minus_hxm_, align 8
  %7 = tail call double @llvm.fmuladd.f64(double %4, double %6, double %5)
  %8 = load double, ptr %v_.i, align 8
  %9 = load double, ptr %one_minus_q_.i, align 8
  %cmp.i = fcmp oeq double %9, -1.000000e+00
  br i1 %cmp.i, label %cond.true.i, label %cond.false.i

cond.true.i:                                      ; preds = %_ZN4absl25uniform_real_distributionIdEclINS_15random_internal10pcg_engineINS3_13pcg128_paramsILm2549297995355413924ELm4865540595714422341ELm6364136223846793005ELm1442695040888963407EEENS3_17pcg_xsl_rr_128_64EEEEEdRT_.exit
  %div.i = fdiv double -1.000000e+00, %7
  br label %_ZNK4absl17zipf_distributionImE10param_type4hinvEd.exit

cond.false.i:                                     ; preds = %_ZN4absl25uniform_real_distributionIdEclINS_15random_internal10pcg_engineINS3_13pcg128_paramsILm2549297995355413924ELm4865540595714422341ELm6364136223846793005ELm1442695040888963407EEENS3_17pcg_xsl_rr_128_64EEEEEdRT_.exit
  %10 = load double, ptr %one_minus_q_inv_.i, align 8
  %mul.i = fmul double %7, %9
  %call.i = tail call double @log(double noundef %mul.i) #28
  %mul3.i = fmul double %10, %call.i
  %call4.i = tail call double @exp(double noundef %mul3.i) #28
  br label %_ZNK4absl17zipf_distributionImE10param_type4hinvEd.exit

_ZNK4absl17zipf_distributionImE10param_type4hinvEd.exit: ; preds = %cond.true.i, %cond.false.i
  %cond.i = phi double [ %div.i, %cond.true.i ], [ %call4.i, %cond.false.i ]
  %add.i = fsub double %cond.i, %8
  %11 = tail call double @llvm.rint.f64(double %add.i)
  %12 = load i64, ptr %p, align 8
  %conv = uitofp i64 %12 to double
  %cmp = fcmp ogt double %11, %conv
  br i1 %cmp, label %for.cond.backedge, label %if.end

for.cond.backedge:                                ; preds = %_ZNK4absl17zipf_distributionImE10param_type4hinvEd.exit, %_ZNK4absl17zipf_distributionImE10param_type14pow_negative_qEd.exit
  br label %for.cond, !llvm.loop !44

if.end:                                           ; preds = %_ZNK4absl17zipf_distributionImE10param_type4hinvEd.exit
  %sub = fsub double %11, %add.i
  %13 = load double, ptr %s_, align 8
  %cmp4 = fcmp ugt double %sub, %13
  br i1 %cmp4, label %if.end6, label %for.end

if.end6:                                          ; preds = %if.end
  %add = fadd double %11, 5.000000e-01
  %14 = load double, ptr %v_.i, align 8
  %add.i16 = fadd double %add, %14
  %15 = load double, ptr %one_minus_q_.i, align 8
  %cmp.i18 = fcmp oeq double %15, -1.000000e+00
  br i1 %cmp.i18, label %cond.true.i24, label %cond.false.i19

cond.true.i24:                                    ; preds = %if.end6
  %div.i25 = fdiv double -1.000000e+00, %add.i16
  br label %_ZNK4absl17zipf_distributionImE10param_type1hEd.exit

cond.false.i19:                                   ; preds = %if.end6
  %call.i20 = tail call double @log(double noundef %add.i16) #28
  %16 = load double, ptr %one_minus_q_.i, align 8
  %mul.i21 = fmul double %call.i20, %16
  %call3.i = tail call double @exp(double noundef %mul.i21) #28
  %17 = load double, ptr %one_minus_q_inv_.i, align 8
  %mul4.i = fmul double %call3.i, %17
  %.pre = load double, ptr %v_.i, align 8
  br label %_ZNK4absl17zipf_distributionImE10param_type1hEd.exit

_ZNK4absl17zipf_distributionImE10param_type1hEd.exit: ; preds = %cond.true.i24, %cond.false.i19
  %18 = phi double [ %14, %cond.true.i24 ], [ %.pre, %cond.false.i19 ]
  %cond.i23 = phi double [ %div.i25, %cond.true.i24 ], [ %mul4.i, %cond.false.i19 ]
  %add8 = fadd double %11, %18
  %19 = load double, ptr %q_.i, align 8
  %cmp.i26 = fcmp oeq double %19, 2.000000e+00
  br i1 %cmp.i26, label %cond.true.i32, label %cond.false.i27

cond.true.i32:                                    ; preds = %_ZNK4absl17zipf_distributionImE10param_type1hEd.exit
  %mul.i33 = fmul double %add8, %add8
  %div.i34 = fdiv double 1.000000e+00, %mul.i33
  br label %_ZNK4absl17zipf_distributionImE10param_type14pow_negative_qEd.exit

cond.false.i27:                                   ; preds = %_ZNK4absl17zipf_distributionImE10param_type1hEd.exit
  %call.i28 = tail call double @log(double noundef %add8) #28
  %20 = load double, ptr %q_.i, align 8
  %fneg.i = fneg double %20
  %mul3.i29 = fmul double %call.i28, %fneg.i
  %call4.i30 = tail call double @exp(double noundef %mul3.i29) #28
  br label %_ZNK4absl17zipf_distributionImE10param_type14pow_negative_qEd.exit

_ZNK4absl17zipf_distributionImE10param_type14pow_negative_qEd.exit: ; preds = %cond.true.i32, %cond.false.i27
  %cond.i31 = phi double [ %div.i34, %cond.true.i32 ], [ %call4.i30, %cond.false.i27 ]
  %sub10 = fsub double %cond.i23, %cond.i31
  %cmp11 = fcmp ult double %7, %sub10
  br i1 %cmp11, label %for.cond.backedge, label %for.end

for.end:                                          ; preds = %_ZNK4absl17zipf_distributionImE10param_type14pow_negative_qEd.exit, %if.end
  %conv14 = fptoui double %11 to i64
  ret i64 %conv14
}

; Function Attrs: mustprogress nocallback nofree nosync nounwind speculatable willreturn memory(none)
declare double @llvm.fmuladd.f64(double, double, double) #17

; Function Attrs: mustprogress nocallback nofree nosync nounwind speculatable willreturn memory(none)
declare double @llvm.rint.f64(double) #17

; Function Attrs: mustprogress nocallback nofree nosync nounwind speculatable willreturn memory(none)
declare i64 @llvm.ctlz.i64(i64, i1 immarg) #17

; Function Attrs: mustprogress nofree nounwind willreturn memory(write)
declare double @exp(double noundef) local_unnamed_addr #16

; Function Attrs: mustprogress nofree nounwind willreturn memory(write)
declare double @log(double noundef) local_unnamed_addr #16

; Function Attrs: mustprogress uwtable
define linkonce_odr dso_local void @_ZN7testing8internal18CmpHelperOpFailureImmEENS_15AssertionResultEPKcS4_RKT_RKT0_S4_(ptr noalias sret(%"class.testing::AssertionResult") align 8 %agg.result, ptr noundef %expr1, ptr noundef %expr2, ptr noundef nonnull align 8 dereferenceable(8) %val1, ptr noundef nonnull align 8 dereferenceable(8) %val2, ptr noundef %op) local_unnamed_addr #4 comdat personality ptr @__gxx_personality_v0 {
entry:
  %ref.tmp.i167 = alloca %"class.testing::Message", align 8
  %ss.i.i.i158 = alloca %"class.std::__cxx11::basic_stringstream", align 8
  %ref.tmp.i140 = alloca %"class.testing::Message", align 8
  %ref.tmp.i123 = alloca %"class.testing::Message", align 8
  %ss.i.i.i = alloca %"class.std::__cxx11::basic_stringstream", align 8
  %ref.tmp.i101 = alloca %"class.testing::Message", align 8
  %ref.tmp.i80 = alloca %"class.testing::Message", align 8
  %ref.tmp.i61 = alloca %"class.testing::Message", align 8
  %ref.tmp.i40 = alloca %"class.testing::Message", align 8
  %ref.tmp.i22 = alloca %"class.testing::Message", align 8
  %ref.tmp.i5 = alloca %"class.testing::Message", align 8
  %ref.tmp.i = alloca %"class.testing::Message", align 8
  %ref.tmp = alloca %"class.testing::AssertionResult", align 8
  %ref.tmp13 = alloca %"class.std::__cxx11::basic_string", align 8
  %ref.tmp20 = alloca %"class.std::__cxx11::basic_string", align 8
  call void @_ZN7testing16AssertionFailureEv(ptr nonnull sret(%"class.testing::AssertionResult") align 8 %ref.tmp)
  call void @llvm.lifetime.start.p0(i64 8, ptr nonnull %ref.tmp.i)
  invoke void @_ZN7testing7MessageC1Ev(ptr noundef nonnull align 8 dereferenceable(8) %ref.tmp.i)
          to label %.noexc unwind label %lpad

.noexc:                                           ; preds = %entry
  %0 = load ptr, ptr %ref.tmp.i, align 8
  %add.ptr.i.i = getelementptr inbounds i8, ptr %0, i64 16
  %call2.i1.i = invoke noundef nonnull align 8 dereferenceable(8) ptr @_ZStlsISt11char_traitsIcEERSt13basic_ostreamIcT_ES5_PKc(ptr noundef nonnull align 8 dereferenceable(8) %add.ptr.i.i, ptr noundef nonnull @.str.41)
          to label %invoke.cont.i unwind label %lpad.i

invoke.cont.i:                                    ; preds = %.noexc
  invoke void @_ZN7testing15AssertionResult13AppendMessageERKNS_7MessageE(ptr noundef nonnull align 8 dereferenceable(16) %ref.tmp, ptr noundef nonnull align 8 dereferenceable(8) %ref.tmp.i)
          to label %invoke.cont2.i unwind label %lpad.i

invoke.cont2.i:                                   ; preds = %invoke.cont.i
  %1 = load ptr, ptr %ref.tmp.i, align 8
  %cmp.not.i.i.i = icmp eq ptr %1, null
  br i1 %cmp.not.i.i.i, label %invoke.cont, label %_ZNKSt14default_deleteINSt7__cxx1118basic_stringstreamIcSt11char_traitsIcESaIcEEEEclEPS5_.exit.i.i.i

_ZNKSt14default_deleteINSt7__cxx1118basic_stringstreamIcSt11char_traitsIcESaIcEEEEclEPS5_.exit.i.i.i: ; preds = %invoke.cont2.i
  %vtable.i.i.i.i = load ptr, ptr %1, align 8
  %vfn.i.i.i.i = getelementptr inbounds ptr, ptr %vtable.i.i.i.i, i64 1
  %2 = load ptr, ptr %vfn.i.i.i.i, align 8
  call void %2(ptr noundef nonnull align 8 dereferenceable(128) %1) #28
  br label %invoke.cont

lpad.i:                                           ; preds = %invoke.cont.i, %.noexc
  %3 = landingpad { ptr, i32 }
          cleanup
  %4 = load ptr, ptr %ref.tmp.i, align 8
  %cmp.not.i.i2.i = icmp eq ptr %4, null
  br i1 %cmp.not.i.i2.i, label %ehcleanup26, label %_ZNKSt14default_deleteINSt7__cxx1118basic_stringstreamIcSt11char_traitsIcESaIcEEEEclEPS5_.exit.i.i3.i

_ZNKSt14default_deleteINSt7__cxx1118basic_stringstreamIcSt11char_traitsIcESaIcEEEEclEPS5_.exit.i.i3.i: ; preds = %lpad.i
  %vtable.i.i.i4.i = load ptr, ptr %4, align 8
  %vfn.i.i.i5.i = getelementptr inbounds ptr, ptr %vtable.i.i.i4.i, i64 1
  %5 = load ptr, ptr %vfn.i.i.i5.i, align 8
  call void %5(ptr noundef nonnull align 8 dereferenceable(128) %4) #28
  br label %ehcleanup26

invoke.cont:                                      ; preds = %_ZNKSt14default_deleteINSt7__cxx1118basic_stringstreamIcSt11char_traitsIcESaIcEEEEclEPS5_.exit.i.i.i, %invoke.cont2.i
  call void @llvm.lifetime.end.p0(i64 8, ptr nonnull %ref.tmp.i)
  call void @llvm.lifetime.start.p0(i64 8, ptr nonnull %ref.tmp.i5)
  invoke void @_ZN7testing7MessageC1Ev(ptr noundef nonnull align 8 dereferenceable(8) %ref.tmp.i5)
          to label %.noexc19 unwind label %lpad

.noexc19:                                         ; preds = %invoke.cont
  %cmp.i.i = icmp eq ptr %expr1, null
  %6 = load ptr, ptr %ref.tmp.i5, align 8
  %add.ptr.i.i6 = getelementptr inbounds i8, ptr %6, i64 16
  %.str.45..i.i = select i1 %cmp.i.i, ptr @.str.45, ptr %expr1
  %call6.i1.i = invoke noundef nonnull align 8 dereferenceable(8) ptr @_ZStlsISt11char_traitsIcEERSt13basic_ostreamIcT_ES5_PKc(ptr noundef nonnull align 8 dereferenceable(8) %add.ptr.i.i6, ptr noundef nonnull %.str.45..i.i)
          to label %invoke.cont.i13 unwind label %lpad.i7

invoke.cont.i13:                                  ; preds = %.noexc19
  invoke void @_ZN7testing15AssertionResult13AppendMessageERKNS_7MessageE(ptr noundef nonnull align 8 dereferenceable(16) %ref.tmp, ptr noundef nonnull align 8 dereferenceable(8) %ref.tmp.i5)
          to label %invoke.cont2.i14 unwind label %lpad.i7

invoke.cont2.i14:                                 ; preds = %invoke.cont.i13
  %7 = load ptr, ptr %ref.tmp.i5, align 8
  %cmp.not.i.i.i15 = icmp eq ptr %7, null
  br i1 %cmp.not.i.i.i15, label %invoke.cont1, label %_ZNKSt14default_deleteINSt7__cxx1118basic_stringstreamIcSt11char_traitsIcESaIcEEEEclEPS5_.exit.i.i.i16

_ZNKSt14default_deleteINSt7__cxx1118basic_stringstreamIcSt11char_traitsIcESaIcEEEEclEPS5_.exit.i.i.i16: ; preds = %invoke.cont2.i14
  %vtable.i.i.i.i17 = load ptr, ptr %7, align 8
  %vfn.i.i.i.i18 = getelementptr inbounds ptr, ptr %vtable.i.i.i.i17, i64 1
  %8 = load ptr, ptr %vfn.i.i.i.i18, align 8
  call void %8(ptr noundef nonnull align 8 dereferenceable(128) %7) #28
  br label %invoke.cont1

lpad.i7:                                          ; preds = %invoke.cont.i13, %.noexc19
  %9 = landingpad { ptr, i32 }
          cleanup
  %10 = load ptr, ptr %ref.tmp.i5, align 8
  %cmp.not.i.i2.i8 = icmp eq ptr %10, null
  br i1 %cmp.not.i.i2.i8, label %ehcleanup26, label %_ZNKSt14default_deleteINSt7__cxx1118basic_stringstreamIcSt11char_traitsIcESaIcEEEEclEPS5_.exit.i.i3.i9

_ZNKSt14default_deleteINSt7__cxx1118basic_stringstreamIcSt11char_traitsIcESaIcEEEEclEPS5_.exit.i.i3.i9: ; preds = %lpad.i7
  %vtable.i.i.i4.i10 = load ptr, ptr %10, align 8
  %vfn.i.i.i5.i11 = getelementptr inbounds ptr, ptr %vtable.i.i.i4.i10, i64 1
  %11 = load ptr, ptr %vfn.i.i.i5.i11, align 8
  call void %11(ptr noundef nonnull align 8 dereferenceable(128) %10) #28
  br label %ehcleanup26

invoke.cont1:                                     ; preds = %_ZNKSt14default_deleteINSt7__cxx1118basic_stringstreamIcSt11char_traitsIcESaIcEEEEclEPS5_.exit.i.i.i16, %invoke.cont2.i14
  call void @llvm.lifetime.end.p0(i64 8, ptr nonnull %ref.tmp.i5)
  call void @llvm.lifetime.start.p0(i64 8, ptr nonnull %ref.tmp.i22)
  invoke void @_ZN7testing7MessageC1Ev(ptr noundef nonnull align 8 dereferenceable(8) %ref.tmp.i22)
          to label %.noexc37 unwind label %lpad

.noexc37:                                         ; preds = %invoke.cont1
  %12 = load ptr, ptr %ref.tmp.i22, align 8
  %add.ptr.i.i23 = getelementptr inbounds i8, ptr %12, i64 16
  %call2.i1.i24 = invoke noundef nonnull align 8 dereferenceable(8) ptr @_ZStlsISt11char_traitsIcEERSt13basic_ostreamIcT_ES5_PKc(ptr noundef nonnull align 8 dereferenceable(8) %add.ptr.i.i23, ptr noundef nonnull @.str.42)
          to label %invoke.cont.i31 unwind label %lpad.i25

invoke.cont.i31:                                  ; preds = %.noexc37
  invoke void @_ZN7testing15AssertionResult13AppendMessageERKNS_7MessageE(ptr noundef nonnull align 8 dereferenceable(16) %ref.tmp, ptr noundef nonnull align 8 dereferenceable(8) %ref.tmp.i22)
          to label %invoke.cont2.i32 unwind label %lpad.i25

invoke.cont2.i32:                                 ; preds = %invoke.cont.i31
  %13 = load ptr, ptr %ref.tmp.i22, align 8
  %cmp.not.i.i.i33 = icmp eq ptr %13, null
  br i1 %cmp.not.i.i.i33, label %invoke.cont3, label %_ZNKSt14default_deleteINSt7__cxx1118basic_stringstreamIcSt11char_traitsIcESaIcEEEEclEPS5_.exit.i.i.i34

_ZNKSt14default_deleteINSt7__cxx1118basic_stringstreamIcSt11char_traitsIcESaIcEEEEclEPS5_.exit.i.i.i34: ; preds = %invoke.cont2.i32
  %vtable.i.i.i.i35 = load ptr, ptr %13, align 8
  %vfn.i.i.i.i36 = getelementptr inbounds ptr, ptr %vtable.i.i.i.i35, i64 1
  %14 = load ptr, ptr %vfn.i.i.i.i36, align 8
  call void %14(ptr noundef nonnull align 8 dereferenceable(128) %13) #28
  br label %invoke.cont3

lpad.i25:                                         ; preds = %invoke.cont.i31, %.noexc37
  %15 = landingpad { ptr, i32 }
          cleanup
  %16 = load ptr, ptr %ref.tmp.i22, align 8
  %cmp.not.i.i2.i26 = icmp eq ptr %16, null
  br i1 %cmp.not.i.i2.i26, label %ehcleanup26, label %_ZNKSt14default_deleteINSt7__cxx1118basic_stringstreamIcSt11char_traitsIcESaIcEEEEclEPS5_.exit.i.i3.i27

_ZNKSt14default_deleteINSt7__cxx1118basic_stringstreamIcSt11char_traitsIcESaIcEEEEclEPS5_.exit.i.i3.i27: ; preds = %lpad.i25
  %vtable.i.i.i4.i28 = load ptr, ptr %16, align 8
  %vfn.i.i.i5.i29 = getelementptr inbounds ptr, ptr %vtable.i.i.i4.i28, i64 1
  %17 = load ptr, ptr %vfn.i.i.i5.i29, align 8
  call void %17(ptr noundef nonnull align 8 dereferenceable(128) %16) #28
  br label %ehcleanup26

invoke.cont3:                                     ; preds = %_ZNKSt14default_deleteINSt7__cxx1118basic_stringstreamIcSt11char_traitsIcESaIcEEEEclEPS5_.exit.i.i.i34, %invoke.cont2.i32
  call void @llvm.lifetime.end.p0(i64 8, ptr nonnull %ref.tmp.i22)
  call void @llvm.lifetime.start.p0(i64 8, ptr nonnull %ref.tmp.i40)
  invoke void @_ZN7testing7MessageC1Ev(ptr noundef nonnull align 8 dereferenceable(8) %ref.tmp.i40)
          to label %.noexc57 unwind label %lpad

.noexc57:                                         ; preds = %invoke.cont3
  %cmp.i.i41 = icmp eq ptr %op, null
  %18 = load ptr, ptr %ref.tmp.i40, align 8
  %add.ptr.i.i42 = getelementptr inbounds i8, ptr %18, i64 16
  %.str.45..i.i43 = select i1 %cmp.i.i41, ptr @.str.45, ptr %op
  %call6.i1.i44 = invoke noundef nonnull align 8 dereferenceable(8) ptr @_ZStlsISt11char_traitsIcEERSt13basic_ostreamIcT_ES5_PKc(ptr noundef nonnull align 8 dereferenceable(8) %add.ptr.i.i42, ptr noundef nonnull %.str.45..i.i43)
          to label %invoke.cont.i51 unwind label %lpad.i45

invoke.cont.i51:                                  ; preds = %.noexc57
  invoke void @_ZN7testing15AssertionResult13AppendMessageERKNS_7MessageE(ptr noundef nonnull align 8 dereferenceable(16) %ref.tmp, ptr noundef nonnull align 8 dereferenceable(8) %ref.tmp.i40)
          to label %invoke.cont2.i52 unwind label %lpad.i45

invoke.cont2.i52:                                 ; preds = %invoke.cont.i51
  %19 = load ptr, ptr %ref.tmp.i40, align 8
  %cmp.not.i.i.i53 = icmp eq ptr %19, null
  br i1 %cmp.not.i.i.i53, label %invoke.cont5, label %_ZNKSt14default_deleteINSt7__cxx1118basic_stringstreamIcSt11char_traitsIcESaIcEEEEclEPS5_.exit.i.i.i54

_ZNKSt14default_deleteINSt7__cxx1118basic_stringstreamIcSt11char_traitsIcESaIcEEEEclEPS5_.exit.i.i.i54: ; preds = %invoke.cont2.i52
  %vtable.i.i.i.i55 = load ptr, ptr %19, align 8
  %vfn.i.i.i.i56 = getelementptr inbounds ptr, ptr %vtable.i.i.i.i55, i64 1
  %20 = load ptr, ptr %vfn.i.i.i.i56, align 8
  call void %20(ptr noundef nonnull align 8 dereferenceable(128) %19) #28
  br label %invoke.cont5

lpad.i45:                                         ; preds = %invoke.cont.i51, %.noexc57
  %21 = landingpad { ptr, i32 }
          cleanup
  %22 = load ptr, ptr %ref.tmp.i40, align 8
  %cmp.not.i.i2.i46 = icmp eq ptr %22, null
  br i1 %cmp.not.i.i2.i46, label %ehcleanup26, label %_ZNKSt14default_deleteINSt7__cxx1118basic_stringstreamIcSt11char_traitsIcESaIcEEEEclEPS5_.exit.i.i3.i47

_ZNKSt14default_deleteINSt7__cxx1118basic_stringstreamIcSt11char_traitsIcESaIcEEEEclEPS5_.exit.i.i3.i47: ; preds = %lpad.i45
  %vtable.i.i.i4.i48 = load ptr, ptr %22, align 8
  %vfn.i.i.i5.i49 = getelementptr inbounds ptr, ptr %vtable.i.i.i4.i48, i64 1
  %23 = load ptr, ptr %vfn.i.i.i5.i49, align 8
  call void %23(ptr noundef nonnull align 8 dereferenceable(128) %22) #28
  br label %ehcleanup26

invoke.cont5:                                     ; preds = %_ZNKSt14default_deleteINSt7__cxx1118basic_stringstreamIcSt11char_traitsIcESaIcEEEEclEPS5_.exit.i.i.i54, %invoke.cont2.i52
  call void @llvm.lifetime.end.p0(i64 8, ptr nonnull %ref.tmp.i40)
  call void @llvm.lifetime.start.p0(i64 8, ptr nonnull %ref.tmp.i61)
  invoke void @_ZN7testing7MessageC1Ev(ptr noundef nonnull align 8 dereferenceable(8) %ref.tmp.i61)
          to label %.noexc76 unwind label %lpad

.noexc76:                                         ; preds = %invoke.cont5
  %24 = load ptr, ptr %ref.tmp.i61, align 8
  %add.ptr.i.i62 = getelementptr inbounds i8, ptr %24, i64 16
  %call2.i1.i63 = invoke noundef nonnull align 8 dereferenceable(8) ptr @_ZStlsISt11char_traitsIcEERSt13basic_ostreamIcT_ES5_PKc(ptr noundef nonnull align 8 dereferenceable(8) %add.ptr.i.i62, ptr noundef nonnull @.str.33)
          to label %invoke.cont.i70 unwind label %lpad.i64

invoke.cont.i70:                                  ; preds = %.noexc76
  invoke void @_ZN7testing15AssertionResult13AppendMessageERKNS_7MessageE(ptr noundef nonnull align 8 dereferenceable(16) %ref.tmp, ptr noundef nonnull align 8 dereferenceable(8) %ref.tmp.i61)
          to label %invoke.cont2.i71 unwind label %lpad.i64

invoke.cont2.i71:                                 ; preds = %invoke.cont.i70
  %25 = load ptr, ptr %ref.tmp.i61, align 8
  %cmp.not.i.i.i72 = icmp eq ptr %25, null
  br i1 %cmp.not.i.i.i72, label %invoke.cont7, label %_ZNKSt14default_deleteINSt7__cxx1118basic_stringstreamIcSt11char_traitsIcESaIcEEEEclEPS5_.exit.i.i.i73

_ZNKSt14default_deleteINSt7__cxx1118basic_stringstreamIcSt11char_traitsIcESaIcEEEEclEPS5_.exit.i.i.i73: ; preds = %invoke.cont2.i71
  %vtable.i.i.i.i74 = load ptr, ptr %25, align 8
  %vfn.i.i.i.i75 = getelementptr inbounds ptr, ptr %vtable.i.i.i.i74, i64 1
  %26 = load ptr, ptr %vfn.i.i.i.i75, align 8
  call void %26(ptr noundef nonnull align 8 dereferenceable(128) %25) #28
  br label %invoke.cont7

lpad.i64:                                         ; preds = %invoke.cont.i70, %.noexc76
  %27 = landingpad { ptr, i32 }
          cleanup
  %28 = load ptr, ptr %ref.tmp.i61, align 8
  %cmp.not.i.i2.i65 = icmp eq ptr %28, null
  br i1 %cmp.not.i.i2.i65, label %ehcleanup26, label %_ZNKSt14default_deleteINSt7__cxx1118basic_stringstreamIcSt11char_traitsIcESaIcEEEEclEPS5_.exit.i.i3.i66

_ZNKSt14default_deleteINSt7__cxx1118basic_stringstreamIcSt11char_traitsIcESaIcEEEEclEPS5_.exit.i.i3.i66: ; preds = %lpad.i64
  %vtable.i.i.i4.i67 = load ptr, ptr %28, align 8
  %vfn.i.i.i5.i68 = getelementptr inbounds ptr, ptr %vtable.i.i.i4.i67, i64 1
  %29 = load ptr, ptr %vfn.i.i.i5.i68, align 8
  call void %29(ptr noundef nonnull align 8 dereferenceable(128) %28) #28
  br label %ehcleanup26

invoke.cont7:                                     ; preds = %_ZNKSt14default_deleteINSt7__cxx1118basic_stringstreamIcSt11char_traitsIcESaIcEEEEclEPS5_.exit.i.i.i73, %invoke.cont2.i71
  call void @llvm.lifetime.end.p0(i64 8, ptr nonnull %ref.tmp.i61)
  call void @llvm.lifetime.start.p0(i64 8, ptr nonnull %ref.tmp.i80)
  invoke void @_ZN7testing7MessageC1Ev(ptr noundef nonnull align 8 dereferenceable(8) %ref.tmp.i80)
          to label %.noexc97 unwind label %lpad

.noexc97:                                         ; preds = %invoke.cont7
  %cmp.i.i81 = icmp eq ptr %expr2, null
  %30 = load ptr, ptr %ref.tmp.i80, align 8
  %add.ptr.i.i82 = getelementptr inbounds i8, ptr %30, i64 16
  %.str.45..i.i83 = select i1 %cmp.i.i81, ptr @.str.45, ptr %expr2
  %call6.i1.i84 = invoke noundef nonnull align 8 dereferenceable(8) ptr @_ZStlsISt11char_traitsIcEERSt13basic_ostreamIcT_ES5_PKc(ptr noundef nonnull align 8 dereferenceable(8) %add.ptr.i.i82, ptr noundef nonnull %.str.45..i.i83)
          to label %invoke.cont.i91 unwind label %lpad.i85

invoke.cont.i91:                                  ; preds = %.noexc97
  invoke void @_ZN7testing15AssertionResult13AppendMessageERKNS_7MessageE(ptr noundef nonnull align 8 dereferenceable(16) %ref.tmp, ptr noundef nonnull align 8 dereferenceable(8) %ref.tmp.i80)
          to label %invoke.cont2.i92 unwind label %lpad.i85

invoke.cont2.i92:                                 ; preds = %invoke.cont.i91
  %31 = load ptr, ptr %ref.tmp.i80, align 8
  %cmp.not.i.i.i93 = icmp eq ptr %31, null
  br i1 %cmp.not.i.i.i93, label %invoke.cont9, label %_ZNKSt14default_deleteINSt7__cxx1118basic_stringstreamIcSt11char_traitsIcESaIcEEEEclEPS5_.exit.i.i.i94

_ZNKSt14default_deleteINSt7__cxx1118basic_stringstreamIcSt11char_traitsIcESaIcEEEEclEPS5_.exit.i.i.i94: ; preds = %invoke.cont2.i92
  %vtable.i.i.i.i95 = load ptr, ptr %31, align 8
  %vfn.i.i.i.i96 = getelementptr inbounds ptr, ptr %vtable.i.i.i.i95, i64 1
  %32 = load ptr, ptr %vfn.i.i.i.i96, align 8
  call void %32(ptr noundef nonnull align 8 dereferenceable(128) %31) #28
  br label %invoke.cont9

lpad.i85:                                         ; preds = %invoke.cont.i91, %.noexc97
  %33 = landingpad { ptr, i32 }
          cleanup
  %34 = load ptr, ptr %ref.tmp.i80, align 8
  %cmp.not.i.i2.i86 = icmp eq ptr %34, null
  br i1 %cmp.not.i.i2.i86, label %ehcleanup26, label %_ZNKSt14default_deleteINSt7__cxx1118basic_stringstreamIcSt11char_traitsIcESaIcEEEEclEPS5_.exit.i.i3.i87

_ZNKSt14default_deleteINSt7__cxx1118basic_stringstreamIcSt11char_traitsIcESaIcEEEEclEPS5_.exit.i.i3.i87: ; preds = %lpad.i85
  %vtable.i.i.i4.i88 = load ptr, ptr %34, align 8
  %vfn.i.i.i5.i89 = getelementptr inbounds ptr, ptr %vtable.i.i.i4.i88, i64 1
  %35 = load ptr, ptr %vfn.i.i.i5.i89, align 8
  call void %35(ptr noundef nonnull align 8 dereferenceable(128) %34) #28
  br label %ehcleanup26

invoke.cont9:                                     ; preds = %_ZNKSt14default_deleteINSt7__cxx1118basic_stringstreamIcSt11char_traitsIcESaIcEEEEclEPS5_.exit.i.i.i94, %invoke.cont2.i92
  call void @llvm.lifetime.end.p0(i64 8, ptr nonnull %ref.tmp.i80)
  call void @llvm.lifetime.start.p0(i64 8, ptr nonnull %ref.tmp.i101)
  invoke void @_ZN7testing7MessageC1Ev(ptr noundef nonnull align 8 dereferenceable(8) %ref.tmp.i101)
          to label %.noexc116 unwind label %lpad

.noexc116:                                        ; preds = %invoke.cont9
  %36 = load ptr, ptr %ref.tmp.i101, align 8
  %add.ptr.i.i102 = getelementptr inbounds i8, ptr %36, i64 16
  %call2.i1.i103 = invoke noundef nonnull align 8 dereferenceable(8) ptr @_ZStlsISt11char_traitsIcEERSt13basic_ostreamIcT_ES5_PKc(ptr noundef nonnull align 8 dereferenceable(8) %add.ptr.i.i102, ptr noundef nonnull @.str.43)
          to label %invoke.cont.i110 unwind label %lpad.i104

invoke.cont.i110:                                 ; preds = %.noexc116
  invoke void @_ZN7testing15AssertionResult13AppendMessageERKNS_7MessageE(ptr noundef nonnull align 8 dereferenceable(16) %ref.tmp, ptr noundef nonnull align 8 dereferenceable(8) %ref.tmp.i101)
          to label %invoke.cont2.i111 unwind label %lpad.i104

invoke.cont2.i111:                                ; preds = %invoke.cont.i110
  %37 = load ptr, ptr %ref.tmp.i101, align 8
  %cmp.not.i.i.i112 = icmp eq ptr %37, null
  br i1 %cmp.not.i.i.i112, label %invoke.cont11, label %_ZNKSt14default_deleteINSt7__cxx1118basic_stringstreamIcSt11char_traitsIcESaIcEEEEclEPS5_.exit.i.i.i113

_ZNKSt14default_deleteINSt7__cxx1118basic_stringstreamIcSt11char_traitsIcESaIcEEEEclEPS5_.exit.i.i.i113: ; preds = %invoke.cont2.i111
  %vtable.i.i.i.i114 = load ptr, ptr %37, align 8
  %vfn.i.i.i.i115 = getelementptr inbounds ptr, ptr %vtable.i.i.i.i114, i64 1
  %38 = load ptr, ptr %vfn.i.i.i.i115, align 8
  call void %38(ptr noundef nonnull align 8 dereferenceable(128) %37) #28
  br label %invoke.cont11

lpad.i104:                                        ; preds = %invoke.cont.i110, %.noexc116
  %39 = landingpad { ptr, i32 }
          cleanup
  %40 = load ptr, ptr %ref.tmp.i101, align 8
  %cmp.not.i.i2.i105 = icmp eq ptr %40, null
  br i1 %cmp.not.i.i2.i105, label %ehcleanup26, label %_ZNKSt14default_deleteINSt7__cxx1118basic_stringstreamIcSt11char_traitsIcESaIcEEEEclEPS5_.exit.i.i3.i106

_ZNKSt14default_deleteINSt7__cxx1118basic_stringstreamIcSt11char_traitsIcESaIcEEEEclEPS5_.exit.i.i3.i106: ; preds = %lpad.i104
  %vtable.i.i.i4.i107 = load ptr, ptr %40, align 8
  %vfn.i.i.i5.i108 = getelementptr inbounds ptr, ptr %vtable.i.i.i4.i107, i64 1
  %41 = load ptr, ptr %vfn.i.i.i5.i108, align 8
  call void %41(ptr noundef nonnull align 8 dereferenceable(128) %40) #28
  br label %ehcleanup26

invoke.cont11:                                    ; preds = %_ZNKSt14default_deleteINSt7__cxx1118basic_stringstreamIcSt11char_traitsIcESaIcEEEEclEPS5_.exit.i.i.i113, %invoke.cont2.i111
  call void @llvm.lifetime.end.p0(i64 8, ptr nonnull %ref.tmp.i101)
  call void @llvm.lifetime.start.p0(i64 392, ptr nonnull %ss.i.i.i), !noalias !45
  invoke void @_ZNSt7__cxx1118basic_stringstreamIcSt11char_traitsIcESaIcEEC1Ev(ptr noundef nonnull align 8 dereferenceable(128) %ss.i.i.i)
          to label %.noexc120 unwind label %lpad

.noexc120:                                        ; preds = %invoke.cont11
  %add.ptr.i.i.i = getelementptr inbounds i8, ptr %ss.i.i.i, i64 16
  %42 = load i64, ptr %val1, align 8, !noalias !50
  %call.i.i.i.i.i.i1.i.i.i = invoke noundef nonnull align 8 dereferenceable(8) ptr @_ZNSolsEm(ptr noundef nonnull align 8 dereferenceable(8) %add.ptr.i.i.i, i64 noundef %42)
          to label %invoke.cont.i.i.i unwind label %lpad.i.i.i, !noalias !50

invoke.cont.i.i.i:                                ; preds = %.noexc120
  invoke void @_ZNKSt7__cxx1118basic_stringstreamIcSt11char_traitsIcESaIcEE3strEv(ptr nonnull sret(%"class.std::__cxx11::basic_string") align 8 %ref.tmp13, ptr noundef nonnull align 8 dereferenceable(128) %ss.i.i.i)
          to label %invoke.cont14 unwind label %lpad.i.i.i

lpad.i.i.i:                                       ; preds = %invoke.cont.i.i.i, %.noexc120
  %43 = landingpad { ptr, i32 }
          cleanup
  call void @_ZNSt7__cxx1118basic_stringstreamIcSt11char_traitsIcESaIcEED1Ev(ptr noundef nonnull align 8 dereferenceable(128) %ss.i.i.i) #28
  br label %ehcleanup26

invoke.cont14:                                    ; preds = %invoke.cont.i.i.i
  call void @_ZNSt7__cxx1118basic_stringstreamIcSt11char_traitsIcESaIcEED1Ev(ptr noundef nonnull align 8 dereferenceable(128) %ss.i.i.i) #28
  call void @llvm.lifetime.end.p0(i64 392, ptr nonnull %ss.i.i.i), !noalias !45
  call void @llvm.lifetime.start.p0(i64 8, ptr nonnull %ref.tmp.i123)
  invoke void @_ZN7testing7MessageC1Ev(ptr noundef nonnull align 8 dereferenceable(8) %ref.tmp.i123)
          to label %.noexc138 unwind label %lpad15

.noexc138:                                        ; preds = %invoke.cont14
  %44 = load ptr, ptr %ref.tmp.i123, align 8
  %add.ptr.i.i124 = getelementptr inbounds i8, ptr %44, i64 16
  %call2.i1.i125 = invoke noundef nonnull align 8 dereferenceable(8) ptr @_ZStlsIcSt11char_traitsIcESaIcEERSt13basic_ostreamIT_T0_ES7_RKNSt7__cxx1112basic_stringIS4_S5_T1_EE(ptr noundef nonnull align 8 dereferenceable(8) %add.ptr.i.i124, ptr noundef nonnull align 8 dereferenceable(32) %ref.tmp13)
          to label %invoke.cont.i132 unwind label %lpad.i126

invoke.cont.i132:                                 ; preds = %.noexc138
  invoke void @_ZN7testing15AssertionResult13AppendMessageERKNS_7MessageE(ptr noundef nonnull align 8 dereferenceable(16) %ref.tmp, ptr noundef nonnull align 8 dereferenceable(8) %ref.tmp.i123)
          to label %invoke.cont2.i133 unwind label %lpad.i126

invoke.cont2.i133:                                ; preds = %invoke.cont.i132
  %45 = load ptr, ptr %ref.tmp.i123, align 8
  %cmp.not.i.i.i134 = icmp eq ptr %45, null
  br i1 %cmp.not.i.i.i134, label %invoke.cont16, label %_ZNKSt14default_deleteINSt7__cxx1118basic_stringstreamIcSt11char_traitsIcESaIcEEEEclEPS5_.exit.i.i.i135

_ZNKSt14default_deleteINSt7__cxx1118basic_stringstreamIcSt11char_traitsIcESaIcEEEEclEPS5_.exit.i.i.i135: ; preds = %invoke.cont2.i133
  %vtable.i.i.i.i136 = load ptr, ptr %45, align 8
  %vfn.i.i.i.i137 = getelementptr inbounds ptr, ptr %vtable.i.i.i.i136, i64 1
  %46 = load ptr, ptr %vfn.i.i.i.i137, align 8
  call void %46(ptr noundef nonnull align 8 dereferenceable(128) %45) #28
  br label %invoke.cont16

lpad.i126:                                        ; preds = %invoke.cont.i132, %.noexc138
  %47 = landingpad { ptr, i32 }
          cleanup
  %48 = load ptr, ptr %ref.tmp.i123, align 8
  %cmp.not.i.i2.i127 = icmp eq ptr %48, null
  br i1 %cmp.not.i.i2.i127, label %ehcleanup, label %_ZNKSt14default_deleteINSt7__cxx1118basic_stringstreamIcSt11char_traitsIcESaIcEEEEclEPS5_.exit.i.i3.i128

_ZNKSt14default_deleteINSt7__cxx1118basic_stringstreamIcSt11char_traitsIcESaIcEEEEclEPS5_.exit.i.i3.i128: ; preds = %lpad.i126
  %vtable.i.i.i4.i129 = load ptr, ptr %48, align 8
  %vfn.i.i.i5.i130 = getelementptr inbounds ptr, ptr %vtable.i.i.i4.i129, i64 1
  %49 = load ptr, ptr %vfn.i.i.i5.i130, align 8
  call void %49(ptr noundef nonnull align 8 dereferenceable(128) %48) #28
  br label %ehcleanup

invoke.cont16:                                    ; preds = %_ZNKSt14default_deleteINSt7__cxx1118basic_stringstreamIcSt11char_traitsIcESaIcEEEEclEPS5_.exit.i.i.i135, %invoke.cont2.i133
  call void @llvm.lifetime.end.p0(i64 8, ptr nonnull %ref.tmp.i123)
  call void @llvm.lifetime.start.p0(i64 8, ptr nonnull %ref.tmp.i140)
  invoke void @_ZN7testing7MessageC1Ev(ptr noundef nonnull align 8 dereferenceable(8) %ref.tmp.i140)
          to label %.noexc155 unwind label %lpad15

.noexc155:                                        ; preds = %invoke.cont16
  %50 = load ptr, ptr %ref.tmp.i140, align 8
  %add.ptr.i.i141 = getelementptr inbounds i8, ptr %50, i64 16
  %call2.i1.i142 = invoke noundef nonnull align 8 dereferenceable(8) ptr @_ZStlsISt11char_traitsIcEERSt13basic_ostreamIcT_ES5_PKc(ptr noundef nonnull align 8 dereferenceable(8) %add.ptr.i.i141, ptr noundef nonnull @.str.44)
          to label %invoke.cont.i149 unwind label %lpad.i143

invoke.cont.i149:                                 ; preds = %.noexc155
  invoke void @_ZN7testing15AssertionResult13AppendMessageERKNS_7MessageE(ptr noundef nonnull align 8 dereferenceable(16) %ref.tmp, ptr noundef nonnull align 8 dereferenceable(8) %ref.tmp.i140)
          to label %invoke.cont2.i150 unwind label %lpad.i143

invoke.cont2.i150:                                ; preds = %invoke.cont.i149
  %51 = load ptr, ptr %ref.tmp.i140, align 8
  %cmp.not.i.i.i151 = icmp eq ptr %51, null
  br i1 %cmp.not.i.i.i151, label %invoke.cont18, label %_ZNKSt14default_deleteINSt7__cxx1118basic_stringstreamIcSt11char_traitsIcESaIcEEEEclEPS5_.exit.i.i.i152

_ZNKSt14default_deleteINSt7__cxx1118basic_stringstreamIcSt11char_traitsIcESaIcEEEEclEPS5_.exit.i.i.i152: ; preds = %invoke.cont2.i150
  %vtable.i.i.i.i153 = load ptr, ptr %51, align 8
  %vfn.i.i.i.i154 = getelementptr inbounds ptr, ptr %vtable.i.i.i.i153, i64 1
  %52 = load ptr, ptr %vfn.i.i.i.i154, align 8
  call void %52(ptr noundef nonnull align 8 dereferenceable(128) %51) #28
  br label %invoke.cont18

lpad.i143:                                        ; preds = %invoke.cont.i149, %.noexc155
  %53 = landingpad { ptr, i32 }
          cleanup
  %54 = load ptr, ptr %ref.tmp.i140, align 8
  %cmp.not.i.i2.i144 = icmp eq ptr %54, null
  br i1 %cmp.not.i.i2.i144, label %ehcleanup, label %_ZNKSt14default_deleteINSt7__cxx1118basic_stringstreamIcSt11char_traitsIcESaIcEEEEclEPS5_.exit.i.i3.i145

_ZNKSt14default_deleteINSt7__cxx1118basic_stringstreamIcSt11char_traitsIcESaIcEEEEclEPS5_.exit.i.i3.i145: ; preds = %lpad.i143
  %vtable.i.i.i4.i146 = load ptr, ptr %54, align 8
  %vfn.i.i.i5.i147 = getelementptr inbounds ptr, ptr %vtable.i.i.i4.i146, i64 1
  %55 = load ptr, ptr %vfn.i.i.i5.i147, align 8
  call void %55(ptr noundef nonnull align 8 dereferenceable(128) %54) #28
  br label %ehcleanup

invoke.cont18:                                    ; preds = %_ZNKSt14default_deleteINSt7__cxx1118basic_stringstreamIcSt11char_traitsIcESaIcEEEEclEPS5_.exit.i.i.i152, %invoke.cont2.i150
  call void @llvm.lifetime.end.p0(i64 8, ptr nonnull %ref.tmp.i140)
  call void @llvm.lifetime.start.p0(i64 392, ptr nonnull %ss.i.i.i158), !noalias !53
  invoke void @_ZNSt7__cxx1118basic_stringstreamIcSt11char_traitsIcESaIcEEC1Ev(ptr noundef nonnull align 8 dereferenceable(128) %ss.i.i.i158)
          to label %.noexc163 unwind label %lpad15

.noexc163:                                        ; preds = %invoke.cont18
  %add.ptr.i.i.i159 = getelementptr inbounds i8, ptr %ss.i.i.i158, i64 16
  %56 = load i64, ptr %val2, align 8, !noalias !58
  %call.i.i.i.i.i.i1.i.i.i160 = invoke noundef nonnull align 8 dereferenceable(8) ptr @_ZNSolsEm(ptr noundef nonnull align 8 dereferenceable(8) %add.ptr.i.i.i159, i64 noundef %56)
          to label %invoke.cont.i.i.i162 unwind label %lpad.i.i.i161, !noalias !58

invoke.cont.i.i.i162:                             ; preds = %.noexc163
  invoke void @_ZNKSt7__cxx1118basic_stringstreamIcSt11char_traitsIcESaIcEE3strEv(ptr nonnull sret(%"class.std::__cxx11::basic_string") align 8 %ref.tmp20, ptr noundef nonnull align 8 dereferenceable(128) %ss.i.i.i158)
          to label %invoke.cont21 unwind label %lpad.i.i.i161

lpad.i.i.i161:                                    ; preds = %invoke.cont.i.i.i162, %.noexc163
  %57 = landingpad { ptr, i32 }
          cleanup
  call void @_ZNSt7__cxx1118basic_stringstreamIcSt11char_traitsIcESaIcEED1Ev(ptr noundef nonnull align 8 dereferenceable(128) %ss.i.i.i158) #28
  br label %ehcleanup

invoke.cont21:                                    ; preds = %invoke.cont.i.i.i162
  call void @_ZNSt7__cxx1118basic_stringstreamIcSt11char_traitsIcESaIcEED1Ev(ptr noundef nonnull align 8 dereferenceable(128) %ss.i.i.i158) #28
  call void @llvm.lifetime.end.p0(i64 392, ptr nonnull %ss.i.i.i158), !noalias !53
  call void @llvm.lifetime.start.p0(i64 8, ptr nonnull %ref.tmp.i167)
  invoke void @_ZN7testing7MessageC1Ev(ptr noundef nonnull align 8 dereferenceable(8) %ref.tmp.i167)
          to label %.noexc182 unwind label %lpad22

.noexc182:                                        ; preds = %invoke.cont21
  %58 = load ptr, ptr %ref.tmp.i167, align 8
  %add.ptr.i.i168 = getelementptr inbounds i8, ptr %58, i64 16
  %call2.i1.i169 = invoke noundef nonnull align 8 dereferenceable(8) ptr @_ZStlsIcSt11char_traitsIcESaIcEERSt13basic_ostreamIT_T0_ES7_RKNSt7__cxx1112basic_stringIS4_S5_T1_EE(ptr noundef nonnull align 8 dereferenceable(8) %add.ptr.i.i168, ptr noundef nonnull align 8 dereferenceable(32) %ref.tmp20)
          to label %invoke.cont.i176 unwind label %lpad.i170

invoke.cont.i176:                                 ; preds = %.noexc182
  invoke void @_ZN7testing15AssertionResult13AppendMessageERKNS_7MessageE(ptr noundef nonnull align 8 dereferenceable(16) %ref.tmp, ptr noundef nonnull align 8 dereferenceable(8) %ref.tmp.i167)
          to label %invoke.cont2.i177 unwind label %lpad.i170

invoke.cont2.i177:                                ; preds = %invoke.cont.i176
  %59 = load ptr, ptr %ref.tmp.i167, align 8
  %cmp.not.i.i.i178 = icmp eq ptr %59, null
  br i1 %cmp.not.i.i.i178, label %invoke.cont23, label %_ZNKSt14default_deleteINSt7__cxx1118basic_stringstreamIcSt11char_traitsIcESaIcEEEEclEPS5_.exit.i.i.i179

_ZNKSt14default_deleteINSt7__cxx1118basic_stringstreamIcSt11char_traitsIcESaIcEEEEclEPS5_.exit.i.i.i179: ; preds = %invoke.cont2.i177
  %vtable.i.i.i.i180 = load ptr, ptr %59, align 8
  %vfn.i.i.i.i181 = getelementptr inbounds ptr, ptr %vtable.i.i.i.i180, i64 1
  %60 = load ptr, ptr %vfn.i.i.i.i181, align 8
  call void %60(ptr noundef nonnull align 8 dereferenceable(128) %59) #28
  br label %invoke.cont23

lpad.i170:                                        ; preds = %invoke.cont.i176, %.noexc182
  %61 = landingpad { ptr, i32 }
          cleanup
  %62 = load ptr, ptr %ref.tmp.i167, align 8
  %cmp.not.i.i2.i171 = icmp eq ptr %62, null
  br i1 %cmp.not.i.i2.i171, label %lpad22.body, label %_ZNKSt14default_deleteINSt7__cxx1118basic_stringstreamIcSt11char_traitsIcESaIcEEEEclEPS5_.exit.i.i3.i172

_ZNKSt14default_deleteINSt7__cxx1118basic_stringstreamIcSt11char_traitsIcESaIcEEEEclEPS5_.exit.i.i3.i172: ; preds = %lpad.i170
  %vtable.i.i.i4.i173 = load ptr, ptr %62, align 8
  %vfn.i.i.i5.i174 = getelementptr inbounds ptr, ptr %vtable.i.i.i4.i173, i64 1
  %63 = load ptr, ptr %vfn.i.i.i5.i174, align 8
  call void %63(ptr noundef nonnull align 8 dereferenceable(128) %62) #28
  br label %lpad22.body

invoke.cont23:                                    ; preds = %_ZNKSt14default_deleteINSt7__cxx1118basic_stringstreamIcSt11char_traitsIcESaIcEEEEclEPS5_.exit.i.i.i179, %invoke.cont2.i177
  call void @llvm.lifetime.end.p0(i64 8, ptr nonnull %ref.tmp.i167)
  invoke void @_ZN7testing15AssertionResultC1ERKS0_(ptr noundef nonnull align 8 dereferenceable(16) %agg.result, ptr noundef nonnull align 8 dereferenceable(16) %ref.tmp)
          to label %invoke.cont25 unwind label %lpad22

invoke.cont25:                                    ; preds = %invoke.cont23
  call void @_ZNSt7__cxx1112basic_stringIcSt11char_traitsIcESaIcEED1Ev(ptr noundef nonnull align 8 dereferenceable(32) %ref.tmp20) #28
  call void @_ZNSt7__cxx1112basic_stringIcSt11char_traitsIcESaIcEED1Ev(ptr noundef nonnull align 8 dereferenceable(32) %ref.tmp13) #28
  %message_.i = getelementptr inbounds %"class.testing::AssertionResult", ptr %ref.tmp, i64 0, i32 1
  %64 = load ptr, ptr %message_.i, align 8
  %cmp.not.i.i = icmp eq ptr %64, null
  br i1 %cmp.not.i.i, label %_ZN7testing15AssertionResultD2Ev.exit, label %_ZNKSt14default_deleteINSt7__cxx1112basic_stringIcSt11char_traitsIcESaIcEEEEclEPS5_.exit.i.i

_ZNKSt14default_deleteINSt7__cxx1112basic_stringIcSt11char_traitsIcESaIcEEEEclEPS5_.exit.i.i: ; preds = %invoke.cont25
  call void @_ZNSt7__cxx1112basic_stringIcSt11char_traitsIcESaIcEED1Ev(ptr noundef nonnull align 8 dereferenceable(32) %64) #28
  call void @_ZdlPv(ptr noundef nonnull %64) #29
  br label %_ZN7testing15AssertionResultD2Ev.exit

_ZN7testing15AssertionResultD2Ev.exit:            ; preds = %invoke.cont25, %_ZNKSt14default_deleteINSt7__cxx1112basic_stringIcSt11char_traitsIcESaIcEEEEclEPS5_.exit.i.i
  ret void

lpad:                                             ; preds = %invoke.cont11, %invoke.cont9, %invoke.cont7, %invoke.cont5, %invoke.cont3, %invoke.cont1, %invoke.cont, %entry
  %65 = landingpad { ptr, i32 }
          cleanup
  br label %ehcleanup26

lpad15:                                           ; preds = %invoke.cont18, %invoke.cont16, %invoke.cont14
  %66 = landingpad { ptr, i32 }
          cleanup
  br label %ehcleanup

lpad22:                                           ; preds = %invoke.cont21, %invoke.cont23
  %67 = landingpad { ptr, i32 }
          cleanup
  br label %lpad22.body

lpad22.body:                                      ; preds = %lpad.i170, %_ZNKSt14default_deleteINSt7__cxx1118basic_stringstreamIcSt11char_traitsIcESaIcEEEEclEPS5_.exit.i.i3.i172, %lpad22
  %eh.lpad-body183 = phi { ptr, i32 } [ %67, %lpad22 ], [ %61, %_ZNKSt14default_deleteINSt7__cxx1118basic_stringstreamIcSt11char_traitsIcESaIcEEEEclEPS5_.exit.i.i3.i172 ], [ %61, %lpad.i170 ]
  call void @_ZNSt7__cxx1112basic_stringIcSt11char_traitsIcESaIcEED1Ev(ptr noundef nonnull align 8 dereferenceable(32) %ref.tmp20) #28
  br label %ehcleanup

ehcleanup:                                        ; preds = %_ZNKSt14default_deleteINSt7__cxx1118basic_stringstreamIcSt11char_traitsIcESaIcEEEEclEPS5_.exit.i.i3.i128, %lpad.i126, %lpad15, %lpad.i.i.i161, %lpad.i143, %_ZNKSt14default_deleteINSt7__cxx1118basic_stringstreamIcSt11char_traitsIcESaIcEEEEclEPS5_.exit.i.i3.i145, %lpad22.body
  %.pn = phi { ptr, i32 } [ %eh.lpad-body183, %lpad22.body ], [ %47, %_ZNKSt14default_deleteINSt7__cxx1118basic_stringstreamIcSt11char_traitsIcESaIcEEEEclEPS5_.exit.i.i3.i128 ], [ %47, %lpad.i126 ], [ %53, %_ZNKSt14default_deleteINSt7__cxx1118basic_stringstreamIcSt11char_traitsIcESaIcEEEEclEPS5_.exit.i.i3.i145 ], [ %53, %lpad.i143 ], [ %66, %lpad15 ], [ %57, %lpad.i.i.i161 ]
  call void @_ZNSt7__cxx1112basic_stringIcSt11char_traitsIcESaIcEED1Ev(ptr noundef nonnull align 8 dereferenceable(32) %ref.tmp13) #28
  br label %ehcleanup26

ehcleanup26:                                      ; preds = %_ZNKSt14default_deleteINSt7__cxx1118basic_stringstreamIcSt11char_traitsIcESaIcEEEEclEPS5_.exit.i.i3.i, %lpad.i, %_ZNKSt14default_deleteINSt7__cxx1118basic_stringstreamIcSt11char_traitsIcESaIcEEEEclEPS5_.exit.i.i3.i27, %lpad.i25, %_ZNKSt14default_deleteINSt7__cxx1118basic_stringstreamIcSt11char_traitsIcESaIcEEEEclEPS5_.exit.i.i3.i66, %lpad.i64, %_ZNKSt14default_deleteINSt7__cxx1118basic_stringstreamIcSt11char_traitsIcESaIcEEEEclEPS5_.exit.i.i3.i106, %lpad.i104, %lpad.i.i.i, %lpad, %lpad.i85, %_ZNKSt14default_deleteINSt7__cxx1118basic_stringstreamIcSt11char_traitsIcESaIcEEEEclEPS5_.exit.i.i3.i87, %lpad.i45, %_ZNKSt14default_deleteINSt7__cxx1118basic_stringstreamIcSt11char_traitsIcESaIcEEEEclEPS5_.exit.i.i3.i47, %lpad.i7, %_ZNKSt14default_deleteINSt7__cxx1118basic_stringstreamIcSt11char_traitsIcESaIcEEEEclEPS5_.exit.i.i3.i9, %ehcleanup
  %.pn.pn = phi { ptr, i32 } [ %.pn, %ehcleanup ], [ %3, %_ZNKSt14default_deleteINSt7__cxx1118basic_stringstreamIcSt11char_traitsIcESaIcEEEEclEPS5_.exit.i.i3.i ], [ %3, %lpad.i ], [ %9, %_ZNKSt14default_deleteINSt7__cxx1118basic_stringstreamIcSt11char_traitsIcESaIcEEEEclEPS5_.exit.i.i3.i9 ], [ %9, %lpad.i7 ], [ %15, %_ZNKSt14default_deleteINSt7__cxx1118basic_stringstreamIcSt11char_traitsIcESaIcEEEEclEPS5_.exit.i.i3.i27 ], [ %15, %lpad.i25 ], [ %21, %_ZNKSt14default_deleteINSt7__cxx1118basic_stringstreamIcSt11char_traitsIcESaIcEEEEclEPS5_.exit.i.i3.i47 ], [ %21, %lpad.i45 ], [ %27, %_ZNKSt14default_deleteINSt7__cxx1118basic_stringstreamIcSt11char_traitsIcESaIcEEEEclEPS5_.exit.i.i3.i66 ], [ %27, %lpad.i64 ], [ %33, %_ZNKSt14default_deleteINSt7__cxx1118basic_stringstreamIcSt11char_traitsIcESaIcEEEEclEPS5_.exit.i.i3.i87 ], [ %33, %lpad.i85 ], [ %39, %_ZNKSt14default_deleteINSt7__cxx1118basic_stringstreamIcSt11char_traitsIcESaIcEEEEclEPS5_.exit.i.i3.i106 ], [ %39, %lpad.i104 ], [ %65, %lpad ], [ %43, %lpad.i.i.i ]
  call void @_ZN7testing15AssertionResultD2Ev(ptr noundef nonnull align 8 dereferenceable(16) %ref.tmp) #28
  resume { ptr, i32 } %.pn.pn
}

declare void @_ZN4absl12log_internal10LogMessage19CopyToEncodedBufferILNS1_10StringTypeE0EEEvSt17basic_string_viewIcSt11char_traitsIcEE(ptr noundef nonnull align 8 dereferenceable(16), i64, ptr) local_unnamed_addr #0

; Function Attrs: mustprogress nofree nounwind willreturn memory(argmem: read)
declare i64 @strlen(ptr nocapture noundef) local_unnamed_addr #18

declare noundef nonnull align 8 dereferenceable(16) ptr @_ZN4absl12log_internal10LogMessagelsImTnNSt9enable_ifIXntsr4absl16HasAbslStringifyIT_EE5valueEiE4typeELi0EEERS1_RKS4_(ptr noundef nonnull align 8 dereferenceable(16), ptr noundef nonnull align 8 dereferenceable(8)) local_unnamed_addr #0

declare noundef nonnull align 8 dereferenceable(16) ptr @_ZN4absl12log_internal10LogMessagelsIlTnNSt9enable_ifIXntsr4absl16HasAbslStringifyIT_EE5valueEiE4typeELi0EEERS1_RKS4_(ptr noundef nonnull align 8 dereferenceable(16), ptr noundef nonnull align 8 dereferenceable(8)) local_unnamed_addr #0

declare noundef nonnull align 8 dereferenceable(16) ptr @_ZN4absl12log_internal10LogMessagelsIdTnNSt9enable_ifIXntsr4absl16HasAbslStringifyIT_EE5valueEiE4typeELi0EEERS1_RKS4_(ptr noundef nonnull align 8 dereferenceable(16), ptr noundef nonnull align 8 dereferenceable(8)) local_unnamed_addr #0

declare noundef nonnull align 8 dereferenceable(16) ptr @_ZN4absl12log_internal10LogMessagelsIiTnNSt9enable_ifIXntsr4absl16HasAbslStringifyIT_EE5valueEiE4typeELi0EEERS1_RKS4_(ptr noundef nonnull align 8 dereferenceable(16), ptr noundef nonnull align 4 dereferenceable(4)) local_unnamed_addr #0

declare noundef nonnull align 8 dereferenceable(8) ptr @_ZNSolsEd(ptr noundef nonnull align 8 dereferenceable(8), double noundef) local_unnamed_addr #0

; Function Attrs: mustprogress uwtable
define internal fastcc void @_ZN12_GLOBAL__N_19GenParamsEv(ptr noalias nocapture writeonly align 8 %agg.result) unnamed_addr #4 personality ptr @__gxx_personality_v0 {
entry:
  %ref.tmp8 = alloca [15 x %"class.absl::zipf_distribution<unsigned long>::param_type"], align 8
  call void @_ZN4absl17zipf_distributionImE10param_typeC2Emdd(ptr noundef nonnull align 8 dereferenceable(64) %ref.tmp8, i64 noundef -1, double noundef 2.000000e+00, double noundef 1.000000e+00)
  %arrayinit.element = getelementptr inbounds %"class.absl::zipf_distribution<unsigned long>::param_type", ptr %ref.tmp8, i64 1
  call void @_ZN4absl17zipf_distributionImE10param_typeC2Emdd(ptr noundef nonnull align 8 dereferenceable(64) %arrayinit.element, i64 noundef 4, double noundef 2.000000e+00, double noundef 1.000000e+00)
  %arrayinit.element9 = getelementptr inbounds %"class.absl::zipf_distribution<unsigned long>::param_type", ptr %ref.tmp8, i64 2
  call void @_ZN4absl17zipf_distributionImE10param_typeC2Emdd(ptr noundef nonnull align 8 dereferenceable(64) %arrayinit.element9, i64 noundef 16, double noundef 2.000000e+00, double noundef 1.000000e+00)
  %arrayinit.element10 = getelementptr inbounds %"class.absl::zipf_distribution<unsigned long>::param_type", ptr %ref.tmp8, i64 3
  call void @_ZN4absl17zipf_distributionImE10param_typeC2Emdd(ptr noundef nonnull align 8 dereferenceable(64) %arrayinit.element10, i64 noundef 1024, double noundef 2.000000e+00, double noundef 1.000000e+00)
  %arrayinit.element11 = getelementptr inbounds %"class.absl::zipf_distribution<unsigned long>::param_type", ptr %ref.tmp8, i64 4
  call void @_ZN4absl17zipf_distributionImE10param_typeC2Emdd(ptr noundef nonnull align 8 dereferenceable(64) %arrayinit.element11, i64 noundef 1024, double noundef 2.000000e+00, double noundef 5.000000e-01)
  %arrayinit.element12 = getelementptr inbounds %"class.absl::zipf_distribution<unsigned long>::param_type", ptr %ref.tmp8, i64 5
  call void @_ZN4absl17zipf_distributionImE10param_typeC2Emdd(ptr noundef nonnull align 8 dereferenceable(64) %arrayinit.element12, i64 noundef 1024, double noundef 2.000000e+00, double noundef 1.500000e+00)
  %arrayinit.element13 = getelementptr inbounds %"class.absl::zipf_distribution<unsigned long>::param_type", ptr %ref.tmp8, i64 6
  call void @_ZN4absl17zipf_distributionImE10param_typeC2Emdd(ptr noundef nonnull align 8 dereferenceable(64) %arrayinit.element13, i64 noundef 1024, double noundef 2.000000e+00, double noundef 2.500000e+00)
  %arrayinit.element14 = getelementptr inbounds %"class.absl::zipf_distribution<unsigned long>::param_type", ptr %ref.tmp8, i64 7
  call void @_ZN4absl17zipf_distributionImE10param_typeC2Emdd(ptr noundef nonnull align 8 dereferenceable(64) %arrayinit.element14, i64 noundef 1024, double noundef 2.000000e+00, double noundef 1.000000e+01)
  %arrayinit.element15 = getelementptr inbounds %"class.absl::zipf_distribution<unsigned long>::param_type", ptr %ref.tmp8, i64 8
  call void @_ZN4absl17zipf_distributionImE10param_typeC2Emdd(ptr noundef nonnull align 8 dereferenceable(64) %arrayinit.element15, i64 noundef 1024, double noundef 1.500000e+00, double noundef 1.000000e+00)
  %arrayinit.element16 = getelementptr inbounds %"class.absl::zipf_distribution<unsigned long>::param_type", ptr %ref.tmp8, i64 9
  call void @_ZN4absl17zipf_distributionImE10param_typeC2Emdd(ptr noundef nonnull align 8 dereferenceable(64) %arrayinit.element16, i64 noundef 1024, double noundef 3.000000e+00, double noundef 1.000000e+00)
  %arrayinit.element17 = getelementptr inbounds %"class.absl::zipf_distribution<unsigned long>::param_type", ptr %ref.tmp8, i64 10
  call void @_ZN4absl17zipf_distributionImE10param_typeC2Emdd(ptr noundef nonnull align 8 dereferenceable(64) %arrayinit.element17, i64 noundef 1024, double noundef 5.000000e+00, double noundef 1.000000e+00)
  %arrayinit.element18 = getelementptr inbounds %"class.absl::zipf_distribution<unsigned long>::param_type", ptr %ref.tmp8, i64 11
  call void @_ZN4absl17zipf_distributionImE10param_typeC2Emdd(ptr noundef nonnull align 8 dereferenceable(64) %arrayinit.element18, i64 noundef 1024, double noundef 1.000000e+01, double noundef 1.000000e+00)
  %arrayinit.element19 = getelementptr inbounds %"class.absl::zipf_distribution<unsigned long>::param_type", ptr %ref.tmp8, i64 12
  call void @_ZN4absl17zipf_distributionImE10param_typeC2Emdd(ptr noundef nonnull align 8 dereferenceable(64) %arrayinit.element19, i64 noundef 1024, double noundef 1.500000e+00, double noundef 5.000000e-01)
  %arrayinit.element20 = getelementptr inbounds %"class.absl::zipf_distribution<unsigned long>::param_type", ptr %ref.tmp8, i64 13
  call void @_ZN4absl17zipf_distributionImE10param_typeC2Emdd(ptr noundef nonnull align 8 dereferenceable(64) %arrayinit.element20, i64 noundef 1024, double noundef 3.000000e+00, double noundef 1.500000e+00)
  %arrayinit.element21 = getelementptr inbounds %"class.absl::zipf_distribution<unsigned long>::param_type", ptr %ref.tmp8, i64 14
  call void @_ZN4absl17zipf_distributionImE10param_typeC2Emdd(ptr noundef nonnull align 8 dereferenceable(64) %arrayinit.element21, i64 noundef -1, double noundef 1.000000e+01, double noundef 1.000000e+01)
  call void @llvm.memset.p0.i64(ptr noundef nonnull align 8 dereferenceable(24) %agg.result, i8 0, i64 24, i1 false)
  %call5.i.i.i.i2.i = call noalias noundef nonnull dereferenceable(960) ptr @_Znwm(i64 noundef 960) #31
  store ptr %call5.i.i.i.i2.i, ptr %agg.result, align 8
  %add.ptr.i1.i = getelementptr inbounds %"class.absl::zipf_distribution<unsigned long>::param_type", ptr %call5.i.i.i.i2.i, i64 15
  %_M_end_of_storage.i.i = getelementptr inbounds %"struct.std::_Vector_base<absl::zipf_distribution<unsigned long>::param_type, std::allocator<absl::zipf_distribution<unsigned long>::param_type>>::_Vector_impl_data", ptr %agg.result, i64 0, i32 2
  store ptr %add.ptr.i1.i, ptr %_M_end_of_storage.i.i, align 8
  call void @llvm.memcpy.p0.p0.i64(ptr noundef nonnull align 8 dereferenceable(960) %call5.i.i.i.i2.i, ptr noundef nonnull align 8 dereferenceable(960) %ref.tmp8, i64 960, i1 false)
  %_M_finish.i.i = getelementptr inbounds %"struct.std::_Vector_base<absl::zipf_distribution<unsigned long>::param_type, std::allocator<absl::zipf_distribution<unsigned long>::param_type>>::_Vector_impl_data", ptr %agg.result, i64 0, i32 1
  store ptr %add.ptr.i1.i, ptr %_M_finish.i.i, align 8
  ret void
}

; Function Attrs: mustprogress uwtable
define linkonce_odr dso_local void @_ZN7testing8ValuesInIN9__gnu_cxx17__normal_iteratorIPKN4absl17zipf_distributionImE10param_typeESt6vectorIS6_SaIS6_EEEEEENS_8internal14ParamGeneratorINSt15iterator_traitsIT_E10value_typeEEESG_SG_(ptr noalias sret(%"class.testing::internal::ParamGenerator") align 8 %agg.result, ptr %begin.coerce, ptr %end.coerce) local_unnamed_addr #4 comdat personality ptr @__gxx_personality_v0 {
entry:
  %call = tail call noalias noundef nonnull dereferenceable(32) ptr @_Znwm(i64 noundef 32) #31
  store ptr getelementptr inbounds ({ [6 x ptr] }, ptr @_ZTVN7testing8internal30ValuesInIteratorRangeGeneratorIN4absl17zipf_distributionImE10param_typeEEE, i64 0, inrange i32 0, i64 2), ptr %call, align 8
  %container_.i = getelementptr inbounds %"class.testing::internal::ValuesInIteratorRangeGenerator", ptr %call, i64 0, i32 1
  tail call void @llvm.memset.p0.i64(ptr noundef nonnull align 8 dereferenceable(24) %container_.i, i8 0, i64 24, i1 false)
  %__first.coerce4.i.i.i = ptrtoint ptr %begin.coerce to i64
  %__last.coerce3.i.i.i = ptrtoint ptr %end.coerce to i64
  %sub.ptr.sub.i.i.i.i.i.i = sub i64 %__last.coerce3.i.i.i, %__first.coerce4.i.i.i
  %sub.ptr.div.i.i.i.i.i.i = ashr exact i64 %sub.ptr.sub.i.i.i.i.i.i, 6
  %cmp.i.i.i.i = icmp ugt i64 %sub.ptr.div.i.i.i.i.i.i, 144115188075855871
  br i1 %cmp.i.i.i.i, label %if.then.i.i.i.i, label %_ZNSt6vectorIN4absl17zipf_distributionImE10param_typeESaIS3_EE17_S_check_init_lenEmRKS4_.exit.i.i.i

if.then.i.i.i.i:                                  ; preds = %entry
  invoke void @_ZSt20__throw_length_errorPKc(ptr noundef nonnull @.str.46) #30
          to label %.noexc.i.i unwind label %lpad.i.i

.noexc.i.i:                                       ; preds = %if.then.i.i.i.i
  unreachable

_ZNSt6vectorIN4absl17zipf_distributionImE10param_typeESaIS3_EE17_S_check_init_lenEmRKS4_.exit.i.i.i: ; preds = %entry
  %cmp.not.i.i.i.i = icmp eq ptr %end.coerce, %begin.coerce
  br i1 %cmp.not.i.i.i.i, label %_ZNSt12_Vector_baseIN4absl17zipf_distributionImE10param_typeESaIS3_EE11_M_allocateEm.exit.thread.i.i.i, label %for.body.i.i.i.i.preheader.i.i.i

_ZNSt12_Vector_baseIN4absl17zipf_distributionImE10param_typeESaIS3_EE11_M_allocateEm.exit.thread.i.i.i: ; preds = %_ZNSt6vectorIN4absl17zipf_distributionImE10param_typeESaIS3_EE17_S_check_init_lenEmRKS4_.exit.i.i.i
  %add.ptr6.i.i.i = getelementptr inbounds %"class.absl::zipf_distribution<unsigned long>::param_type", ptr null, i64 %sub.ptr.div.i.i.i.i.i.i
  %_M_end_of_storage7.i.i.i = getelementptr inbounds %"class.testing::internal::ValuesInIteratorRangeGenerator", ptr %call, i64 0, i32 1, i32 0, i32 0, i32 0, i32 2
  store ptr %add.ptr6.i.i.i, ptr %_M_end_of_storage7.i.i.i, align 8
  br label %invoke.cont

for.body.i.i.i.i.preheader.i.i.i:                 ; preds = %_ZNSt6vectorIN4absl17zipf_distributionImE10param_typeESaIS3_EE17_S_check_init_lenEmRKS4_.exit.i.i.i
  %call5.i.i.i.i1.i.i = invoke noalias noundef nonnull ptr @_Znwm(i64 noundef %sub.ptr.sub.i.i.i.i.i.i) #31
          to label %call5.i.i.i.i.noexc.i.i unwind label %lpad.i.i

call5.i.i.i.i.noexc.i.i:                          ; preds = %for.body.i.i.i.i.preheader.i.i.i
  store ptr %call5.i.i.i.i1.i.i, ptr %container_.i, align 8
  %add.ptr.i.i.i = getelementptr inbounds %"class.absl::zipf_distribution<unsigned long>::param_type", ptr %call5.i.i.i.i1.i.i, i64 %sub.ptr.div.i.i.i.i.i.i
  %_M_end_of_storage.i.i.i = getelementptr inbounds %"class.testing::internal::ValuesInIteratorRangeGenerator", ptr %call, i64 0, i32 1, i32 0, i32 0, i32 0, i32 2
  store ptr %add.ptr.i.i.i, ptr %_M_end_of_storage.i.i.i, align 8
  %0 = and i64 %sub.ptr.sub.i.i.i.i.i.i, -64
  tail call void @llvm.memcpy.p0.p0.i64(ptr nonnull align 8 %call5.i.i.i.i1.i.i, ptr align 8 %begin.coerce, i64 %0, i1 false)
  %scevgep.i.i.i = getelementptr i8, ptr %call5.i.i.i.i1.i.i, i64 %0
  br label %invoke.cont

lpad.i.i:                                         ; preds = %for.body.i.i.i.i.preheader.i.i.i, %if.then.i.i.i.i
  %1 = landingpad { ptr, i32 }
          cleanup
  %2 = load ptr, ptr %container_.i, align 8
  %tobool.not.i.i.i.i = icmp eq ptr %2, null
  br i1 %tobool.not.i.i.i.i, label %lpad.body, label %if.then.i.i2.i.i

if.then.i.i2.i.i:                                 ; preds = %lpad.i.i
  tail call void @_ZdlPv(ptr noundef nonnull %2) #29
  br label %lpad.body

invoke.cont:                                      ; preds = %call5.i.i.i.i.noexc.i.i, %_ZNSt12_Vector_baseIN4absl17zipf_distributionImE10param_typeESaIS3_EE11_M_allocateEm.exit.thread.i.i.i
  %__cur.0.lcssa.i.i.i.i.i.i.i = phi ptr [ %scevgep.i.i.i, %call5.i.i.i.i.noexc.i.i ], [ null, %_ZNSt12_Vector_baseIN4absl17zipf_distributionImE10param_typeESaIS3_EE11_M_allocateEm.exit.thread.i.i.i ]
  %_M_finish.i.i.i = getelementptr inbounds %"class.testing::internal::ValuesInIteratorRangeGenerator", ptr %call, i64 0, i32 1, i32 0, i32 0, i32 0, i32 1
  store ptr %__cur.0.lcssa.i.i.i.i.i.i.i, ptr %_M_finish.i.i.i, align 8
  store ptr %call, ptr %agg.result, align 8
  %_M_refcount.i.i.i = getelementptr inbounds %"class.std::__shared_ptr", ptr %agg.result, i64 0, i32 1
  store ptr null, ptr %_M_refcount.i.i.i, align 8
  %call.i.i.i.i.i = invoke noalias noundef nonnull dereferenceable(24) ptr @_Znwm(i64 noundef 24) #31
          to label %_ZN7testing8internal14ParamGeneratorIN4absl17zipf_distributionImE10param_typeEEC2EPNS0_23ParamGeneratorInterfaceIS5_EE.exit unwind label %lpad.i.i.i.i.i

lpad.i.i.i.i.i:                                   ; preds = %invoke.cont
  %3 = landingpad { ptr, i32 }
          catch ptr null
  %4 = extractvalue { ptr, i32 } %3, 0
  %5 = tail call ptr @__cxa_begin_catch(ptr %4) #28
  %vtable.i.i.i.i.i = load ptr, ptr %call, align 8
  %vfn.i.i.i.i.i = getelementptr inbounds ptr, ptr %vtable.i.i.i.i.i, i64 1
  %6 = load ptr, ptr %vfn.i.i.i.i.i, align 8
  tail call void %6(ptr noundef nonnull align 8 dereferenceable(8) %call) #28
  invoke void @__cxa_rethrow() #30
          to label %unreachable.i.i.i.i.i unwind label %lpad3.i.i.i.i.i

lpad3.i.i.i.i.i:                                  ; preds = %lpad.i.i.i.i.i
  %7 = landingpad { ptr, i32 }
          cleanup
  invoke void @__cxa_end_catch()
          to label %common.resume unwind label %terminate.lpad.i.i.i.i.i

common.resume:                                    ; preds = %lpad3.i.i.i.i.i, %lpad.body
  %common.resume.op = phi { ptr, i32 } [ %1, %lpad.body ], [ %7, %lpad3.i.i.i.i.i ]
  resume { ptr, i32 } %common.resume.op

terminate.lpad.i.i.i.i.i:                         ; preds = %lpad3.i.i.i.i.i
  %8 = landingpad { ptr, i32 }
          catch ptr null
  %9 = extractvalue { ptr, i32 } %8, 0
  tail call void @__clang_call_terminate(ptr %9) #32
  unreachable

unreachable.i.i.i.i.i:                            ; preds = %lpad.i.i.i.i.i
  unreachable

_ZN7testing8internal14ParamGeneratorIN4absl17zipf_distributionImE10param_typeEEC2EPNS0_23ParamGeneratorInterfaceIS5_EE.exit: ; preds = %invoke.cont
  %_M_use_count.i.i.i.i.i.i.i = getelementptr inbounds %"class.std::_Sp_counted_base", ptr %call.i.i.i.i.i, i64 0, i32 1
  store i32 1, ptr %_M_use_count.i.i.i.i.i.i.i, align 8
  %_M_weak_count.i.i.i.i.i.i.i = getelementptr inbounds %"class.std::_Sp_counted_base", ptr %call.i.i.i.i.i, i64 0, i32 2
  store i32 1, ptr %_M_weak_count.i.i.i.i.i.i.i, align 4
  store ptr getelementptr inbounds ({ [7 x ptr] }, ptr @_ZTVSt15_Sp_counted_ptrIPN7testing8internal23ParamGeneratorInterfaceIN4absl17zipf_distributionImE10param_typeEEELN9__gnu_cxx12_Lock_policyE2EE, i64 0, inrange i32 0, i64 2), ptr %call.i.i.i.i.i, align 8
  %_M_ptr.i.i.i.i.i.i = getelementptr inbounds %"class.std::_Sp_counted_ptr.96", ptr %call.i.i.i.i.i, i64 0, i32 1
  store ptr %call, ptr %_M_ptr.i.i.i.i.i.i, align 8
  store ptr %call.i.i.i.i.i, ptr %_M_refcount.i.i.i, align 8
  ret void

lpad.body:                                        ; preds = %lpad.i.i, %if.then.i.i2.i.i
  tail call void @_ZdlPv(ptr noundef nonnull %call) #29
  br label %common.resume
}

; Function Attrs: mustprogress nounwind uwtable
define linkonce_odr dso_local void @_ZN7testing8internal30ValuesInIteratorRangeGeneratorIN4absl17zipf_distributionImE10param_typeEED2Ev(ptr noundef nonnull align 8 dereferenceable(32) %this) unnamed_addr #3 comdat align 2 personality ptr @__gxx_personality_v0 {
entry:
  store ptr getelementptr inbounds ({ [6 x ptr] }, ptr @_ZTVN7testing8internal30ValuesInIteratorRangeGeneratorIN4absl17zipf_distributionImE10param_typeEEE, i64 0, inrange i32 0, i64 2), ptr %this, align 8
  %container_ = getelementptr inbounds %"class.testing::internal::ValuesInIteratorRangeGenerator", ptr %this, i64 0, i32 1
  %0 = load ptr, ptr %container_, align 8
  %tobool.not.i.i.i = icmp eq ptr %0, null
  br i1 %tobool.not.i.i.i, label %_ZNSt6vectorIN4absl17zipf_distributionImE10param_typeESaIS3_EED2Ev.exit, label %if.then.i.i.i

if.then.i.i.i:                                    ; preds = %entry
  tail call void @_ZdlPv(ptr noundef nonnull %0) #29
  br label %_ZNSt6vectorIN4absl17zipf_distributionImE10param_typeESaIS3_EED2Ev.exit

_ZNSt6vectorIN4absl17zipf_distributionImE10param_typeESaIS3_EED2Ev.exit: ; preds = %entry, %if.then.i.i.i
  ret void
}

; Function Attrs: mustprogress nounwind uwtable
define linkonce_odr dso_local void @_ZN7testing8internal30ValuesInIteratorRangeGeneratorIN4absl17zipf_distributionImE10param_typeEED0Ev(ptr noundef nonnull align 8 dereferenceable(32) %this) unnamed_addr #3 comdat align 2 personality ptr @__gxx_personality_v0 {
entry:
  store ptr getelementptr inbounds ({ [6 x ptr] }, ptr @_ZTVN7testing8internal30ValuesInIteratorRangeGeneratorIN4absl17zipf_distributionImE10param_typeEEE, i64 0, inrange i32 0, i64 2), ptr %this, align 8
  %container_.i = getelementptr inbounds %"class.testing::internal::ValuesInIteratorRangeGenerator", ptr %this, i64 0, i32 1
  %0 = load ptr, ptr %container_.i, align 8
  %tobool.not.i.i.i.i = icmp eq ptr %0, null
  br i1 %tobool.not.i.i.i.i, label %_ZN7testing8internal30ValuesInIteratorRangeGeneratorIN4absl17zipf_distributionImE10param_typeEED2Ev.exit, label %if.then.i.i.i.i

if.then.i.i.i.i:                                  ; preds = %entry
  tail call void @_ZdlPv(ptr noundef nonnull %0) #29
  br label %_ZN7testing8internal30ValuesInIteratorRangeGeneratorIN4absl17zipf_distributionImE10param_typeEED2Ev.exit

_ZN7testing8internal30ValuesInIteratorRangeGeneratorIN4absl17zipf_distributionImE10param_typeEED2Ev.exit: ; preds = %entry, %if.then.i.i.i.i
  tail call void @_ZdlPv(ptr noundef nonnull %this) #29
  ret void
}

; Function Attrs: mustprogress uwtable
define linkonce_odr dso_local noundef ptr @_ZNK7testing8internal30ValuesInIteratorRangeGeneratorIN4absl17zipf_distributionImE10param_typeEE5BeginEv(ptr noundef nonnull align 8 dereferenceable(32) %this) unnamed_addr #4 comdat align 2 personality ptr @__gxx_personality_v0 {
entry:
  %call = tail call noalias noundef nonnull dereferenceable(32) ptr @_Znwm(i64 noundef 32) #31
  %container_ = getelementptr inbounds %"class.testing::internal::ValuesInIteratorRangeGenerator", ptr %this, i64 0, i32 1
  %0 = load ptr, ptr %container_, align 8
  store ptr getelementptr inbounds ({ [9 x ptr] }, ptr @_ZTVN7testing8internal30ValuesInIteratorRangeGeneratorIN4absl17zipf_distributionImE10param_typeEE8IteratorE, i64 0, inrange i32 0, i64 2), ptr %call, align 8
  %base_.i = getelementptr inbounds %"class.testing::internal::ValuesInIteratorRangeGenerator<absl::zipf_distribution<unsigned long>::param_type>::Iterator", ptr %call, i64 0, i32 1
  store ptr %this, ptr %base_.i, align 8
  %iterator_.i = getelementptr inbounds %"class.testing::internal::ValuesInIteratorRangeGenerator<absl::zipf_distribution<unsigned long>::param_type>::Iterator", ptr %call, i64 0, i32 2
  store ptr %0, ptr %iterator_.i, align 8
  %value_.i = getelementptr inbounds %"class.testing::internal::ValuesInIteratorRangeGenerator<absl::zipf_distribution<unsigned long>::param_type>::Iterator", ptr %call, i64 0, i32 3
  store ptr null, ptr %value_.i, align 8
  ret ptr %call
}

; Function Attrs: mustprogress uwtable
define linkonce_odr dso_local noundef ptr @_ZNK7testing8internal30ValuesInIteratorRangeGeneratorIN4absl17zipf_distributionImE10param_typeEE3EndEv(ptr noundef nonnull align 8 dereferenceable(32) %this) unnamed_addr #4 comdat align 2 personality ptr @__gxx_personality_v0 {
entry:
  %call = tail call noalias noundef nonnull dereferenceable(32) ptr @_Znwm(i64 noundef 32) #31
  %_M_finish.i = getelementptr inbounds %"class.testing::internal::ValuesInIteratorRangeGenerator", ptr %this, i64 0, i32 1, i32 0, i32 0, i32 0, i32 1
  %0 = load ptr, ptr %_M_finish.i, align 8
  store ptr getelementptr inbounds ({ [9 x ptr] }, ptr @_ZTVN7testing8internal30ValuesInIteratorRangeGeneratorIN4absl17zipf_distributionImE10param_typeEE8IteratorE, i64 0, inrange i32 0, i64 2), ptr %call, align 8
  %base_.i = getelementptr inbounds %"class.testing::internal::ValuesInIteratorRangeGenerator<absl::zipf_distribution<unsigned long>::param_type>::Iterator", ptr %call, i64 0, i32 1
  store ptr %this, ptr %base_.i, align 8
  %iterator_.i = getelementptr inbounds %"class.testing::internal::ValuesInIteratorRangeGenerator<absl::zipf_distribution<unsigned long>::param_type>::Iterator", ptr %call, i64 0, i32 2
  store ptr %0, ptr %iterator_.i, align 8
  %value_.i = getelementptr inbounds %"class.testing::internal::ValuesInIteratorRangeGenerator<absl::zipf_distribution<unsigned long>::param_type>::Iterator", ptr %call, i64 0, i32 3
  store ptr null, ptr %value_.i, align 8
  ret ptr %call
}

; Function Attrs: mustprogress nounwind uwtable
define linkonce_odr dso_local void @_ZN7testing8internal30ValuesInIteratorRangeGeneratorIN4absl17zipf_distributionImE10param_typeEE8IteratorD2Ev(ptr noundef nonnull align 8 dereferenceable(32) %this) unnamed_addr #3 comdat align 2 personality ptr @__gxx_personality_v0 {
entry:
  store ptr getelementptr inbounds ({ [9 x ptr] }, ptr @_ZTVN7testing8internal30ValuesInIteratorRangeGeneratorIN4absl17zipf_distributionImE10param_typeEE8IteratorE, i64 0, inrange i32 0, i64 2), ptr %this, align 8
  %value_ = getelementptr inbounds %"class.testing::internal::ValuesInIteratorRangeGenerator<absl::zipf_distribution<unsigned long>::param_type>::Iterator", ptr %this, i64 0, i32 3
  %0 = load ptr, ptr %value_, align 8
  %cmp.not.i = icmp eq ptr %0, null
  br i1 %cmp.not.i, label %_ZNSt10unique_ptrIKN4absl17zipf_distributionImE10param_typeESt14default_deleteIS4_EED2Ev.exit, label %_ZNKSt14default_deleteIKN4absl17zipf_distributionImE10param_typeEEclEPS4_.exit.i

_ZNKSt14default_deleteIKN4absl17zipf_distributionImE10param_typeEEclEPS4_.exit.i: ; preds = %entry
  tail call void @_ZdlPv(ptr noundef nonnull %0) #29
  br label %_ZNSt10unique_ptrIKN4absl17zipf_distributionImE10param_typeESt14default_deleteIS4_EED2Ev.exit

_ZNSt10unique_ptrIKN4absl17zipf_distributionImE10param_typeESt14default_deleteIS4_EED2Ev.exit: ; preds = %entry, %_ZNKSt14default_deleteIKN4absl17zipf_distributionImE10param_typeEEclEPS4_.exit.i
  store ptr null, ptr %value_, align 8
  ret void
}

; Function Attrs: mustprogress nounwind uwtable
define linkonce_odr dso_local void @_ZN7testing8internal30ValuesInIteratorRangeGeneratorIN4absl17zipf_distributionImE10param_typeEE8IteratorD0Ev(ptr noundef nonnull align 8 dereferenceable(32) %this) unnamed_addr #3 comdat align 2 personality ptr @__gxx_personality_v0 {
entry:
  store ptr getelementptr inbounds ({ [9 x ptr] }, ptr @_ZTVN7testing8internal30ValuesInIteratorRangeGeneratorIN4absl17zipf_distributionImE10param_typeEE8IteratorE, i64 0, inrange i32 0, i64 2), ptr %this, align 8
  %value_.i = getelementptr inbounds %"class.testing::internal::ValuesInIteratorRangeGenerator<absl::zipf_distribution<unsigned long>::param_type>::Iterator", ptr %this, i64 0, i32 3
  %0 = load ptr, ptr %value_.i, align 8
  %cmp.not.i.i = icmp eq ptr %0, null
  br i1 %cmp.not.i.i, label %_ZN7testing8internal30ValuesInIteratorRangeGeneratorIN4absl17zipf_distributionImE10param_typeEE8IteratorD2Ev.exit, label %_ZNKSt14default_deleteIKN4absl17zipf_distributionImE10param_typeEEclEPS4_.exit.i.i

_ZNKSt14default_deleteIKN4absl17zipf_distributionImE10param_typeEEclEPS4_.exit.i.i: ; preds = %entry
  tail call void @_ZdlPv(ptr noundef nonnull %0) #29
  br label %_ZN7testing8internal30ValuesInIteratorRangeGeneratorIN4absl17zipf_distributionImE10param_typeEE8IteratorD2Ev.exit

_ZN7testing8internal30ValuesInIteratorRangeGeneratorIN4absl17zipf_distributionImE10param_typeEE8IteratorD2Ev.exit: ; preds = %entry, %_ZNKSt14default_deleteIKN4absl17zipf_distributionImE10param_typeEEclEPS4_.exit.i.i
  tail call void @_ZdlPv(ptr noundef nonnull %this) #29
  ret void
}

; Function Attrs: mustprogress nounwind uwtable
define linkonce_odr dso_local noundef ptr @_ZNK7testing8internal30ValuesInIteratorRangeGeneratorIN4absl17zipf_distributionImE10param_typeEE8Iterator13BaseGeneratorEv(ptr noundef nonnull align 8 dereferenceable(32) %this) unnamed_addr #3 comdat align 2 {
entry:
  %base_ = getelementptr inbounds %"class.testing::internal::ValuesInIteratorRangeGenerator<absl::zipf_distribution<unsigned long>::param_type>::Iterator", ptr %this, i64 0, i32 1
  %0 = load ptr, ptr %base_, align 8
  ret ptr %0
}

; Function Attrs: mustprogress nounwind uwtable
define linkonce_odr dso_local void @_ZN7testing8internal30ValuesInIteratorRangeGeneratorIN4absl17zipf_distributionImE10param_typeEE8Iterator7AdvanceEv(ptr noundef nonnull align 8 dereferenceable(32) %this) unnamed_addr #3 comdat align 2 {
entry:
  %iterator_ = getelementptr inbounds %"class.testing::internal::ValuesInIteratorRangeGenerator<absl::zipf_distribution<unsigned long>::param_type>::Iterator", ptr %this, i64 0, i32 2
  %0 = load ptr, ptr %iterator_, align 8
  %incdec.ptr.i = getelementptr inbounds %"class.absl::zipf_distribution<unsigned long>::param_type", ptr %0, i64 1
  store ptr %incdec.ptr.i, ptr %iterator_, align 8
  %value_ = getelementptr inbounds %"class.testing::internal::ValuesInIteratorRangeGenerator<absl::zipf_distribution<unsigned long>::param_type>::Iterator", ptr %this, i64 0, i32 3
  %1 = load ptr, ptr %value_, align 8
  store ptr null, ptr %value_, align 8
  %tobool.not.i.i = icmp eq ptr %1, null
  br i1 %tobool.not.i.i, label %_ZNSt10unique_ptrIKN4absl17zipf_distributionImE10param_typeESt14default_deleteIS4_EE5resetEPS4_.exit, label %_ZNKSt14default_deleteIKN4absl17zipf_distributionImE10param_typeEEclEPS4_.exit.i.i

_ZNKSt14default_deleteIKN4absl17zipf_distributionImE10param_typeEEclEPS4_.exit.i.i: ; preds = %entry
  tail call void @_ZdlPv(ptr noundef nonnull %1) #29
  br label %_ZNSt10unique_ptrIKN4absl17zipf_distributionImE10param_typeESt14default_deleteIS4_EE5resetEPS4_.exit

_ZNSt10unique_ptrIKN4absl17zipf_distributionImE10param_typeESt14default_deleteIS4_EE5resetEPS4_.exit: ; preds = %entry, %_ZNKSt14default_deleteIKN4absl17zipf_distributionImE10param_typeEEclEPS4_.exit.i.i
  ret void
}

; Function Attrs: mustprogress uwtable
define linkonce_odr dso_local noundef ptr @_ZNK7testing8internal30ValuesInIteratorRangeGeneratorIN4absl17zipf_distributionImE10param_typeEE8Iterator5CloneEv(ptr noundef nonnull align 8 dereferenceable(32) %this) unnamed_addr #4 comdat align 2 personality ptr @__gxx_personality_v0 {
entry:
  %call = tail call noalias noundef nonnull dereferenceable(32) ptr @_Znwm(i64 noundef 32) #31
  store ptr getelementptr inbounds ({ [9 x ptr] }, ptr @_ZTVN7testing8internal30ValuesInIteratorRangeGeneratorIN4absl17zipf_distributionImE10param_typeEE8IteratorE, i64 0, inrange i32 0, i64 2), ptr %call, align 8
  %base_.i = getelementptr inbounds %"class.testing::internal::ValuesInIteratorRangeGenerator<absl::zipf_distribution<unsigned long>::param_type>::Iterator", ptr %call, i64 0, i32 1
  %base_2.i = getelementptr inbounds %"class.testing::internal::ValuesInIteratorRangeGenerator<absl::zipf_distribution<unsigned long>::param_type>::Iterator", ptr %this, i64 0, i32 1
  %0 = load ptr, ptr %base_2.i, align 8
  store ptr %0, ptr %base_.i, align 8
  %iterator_.i = getelementptr inbounds %"class.testing::internal::ValuesInIteratorRangeGenerator<absl::zipf_distribution<unsigned long>::param_type>::Iterator", ptr %call, i64 0, i32 2
  %iterator_3.i = getelementptr inbounds %"class.testing::internal::ValuesInIteratorRangeGenerator<absl::zipf_distribution<unsigned long>::param_type>::Iterator", ptr %this, i64 0, i32 2
  %1 = load i64, ptr %iterator_3.i, align 8
  store i64 %1, ptr %iterator_.i, align 8
  %value_.i = getelementptr inbounds %"class.testing::internal::ValuesInIteratorRangeGenerator<absl::zipf_distribution<unsigned long>::param_type>::Iterator", ptr %call, i64 0, i32 3
  store ptr null, ptr %value_.i, align 8
  ret ptr %call
}

; Function Attrs: mustprogress uwtable
define linkonce_odr dso_local noundef ptr @_ZNK7testing8internal30ValuesInIteratorRangeGeneratorIN4absl17zipf_distributionImE10param_typeEE8Iterator7CurrentEv(ptr noundef nonnull align 8 dereferenceable(32) %this) unnamed_addr #4 comdat align 2 {
entry:
  %value_ = getelementptr inbounds %"class.testing::internal::ValuesInIteratorRangeGenerator<absl::zipf_distribution<unsigned long>::param_type>::Iterator", ptr %this, i64 0, i32 3
  %0 = load ptr, ptr %value_, align 8
  %cmp = icmp eq ptr %0, null
  br i1 %cmp, label %_ZNSt10unique_ptrIKN4absl17zipf_distributionImE10param_typeESt14default_deleteIS4_EE5resetEPS4_.exit, label %if.end

_ZNSt10unique_ptrIKN4absl17zipf_distributionImE10param_typeESt14default_deleteIS4_EE5resetEPS4_.exit: ; preds = %entry
  %call3 = tail call noalias noundef nonnull dereferenceable(64) ptr @_Znwm(i64 noundef 64) #31
  %iterator_ = getelementptr inbounds %"class.testing::internal::ValuesInIteratorRangeGenerator<absl::zipf_distribution<unsigned long>::param_type>::Iterator", ptr %this, i64 0, i32 2
  %1 = load ptr, ptr %iterator_, align 8
  tail call void @llvm.memcpy.p0.p0.i64(ptr noundef nonnull align 16 dereferenceable(64) %call3, ptr noundef nonnull align 8 dereferenceable(64) %1, i64 64, i1 false)
  store ptr %call3, ptr %value_, align 8
  br label %if.end

if.end:                                           ; preds = %_ZNSt10unique_ptrIKN4absl17zipf_distributionImE10param_typeESt14default_deleteIS4_EE5resetEPS4_.exit, %entry
  %2 = phi ptr [ %call3, %_ZNSt10unique_ptrIKN4absl17zipf_distributionImE10param_typeESt14default_deleteIS4_EE5resetEPS4_.exit ], [ %0, %entry ]
  ret ptr %2
}

; Function Attrs: mustprogress uwtable
define linkonce_odr dso_local noundef zeroext i1 @_ZNK7testing8internal30ValuesInIteratorRangeGeneratorIN4absl17zipf_distributionImE10param_typeEE8Iterator6EqualsERKNS0_22ParamIteratorInterfaceIS5_EE(ptr noundef nonnull align 8 dereferenceable(32) %this, ptr noundef nonnull align 8 dereferenceable(8) %other) unnamed_addr #4 comdat align 2 personality ptr @__gxx_personality_v0 {
entry:
  %ref.tmp.i = alloca %"class.testing::internal::GTestLog", align 4
  %ref.tmp = alloca %"class.testing::internal::GTestLog", align 4
  %vtable = load ptr, ptr %this, align 8
  %vfn = getelementptr inbounds ptr, ptr %vtable, i64 2
  %0 = load ptr, ptr %vfn, align 8
  %call = tail call noundef ptr %0(ptr noundef nonnull align 8 dereferenceable(32) %this)
  %vtable2 = load ptr, ptr %other, align 8
  %vfn3 = getelementptr inbounds ptr, ptr %vtable2, i64 2
  %1 = load ptr, ptr %vfn3, align 8
  %call4 = tail call noundef ptr %1(ptr noundef nonnull align 8 dereferenceable(8) %other)
  %cmp = icmp eq ptr %call, %call4
  %call5 = tail call noundef zeroext i1 @_ZN7testing8internal6IsTrueEb(i1 noundef zeroext %cmp)
  br i1 %call5, label %if.end, label %if.else

if.else:                                          ; preds = %entry
  call void @_ZN7testing8internal8GTestLogC1ENS0_16GTestLogSeverityEPKci(ptr noundef nonnull align 4 dereferenceable(4) %ref.tmp, i32 noundef 3, ptr noundef nonnull @.str.49, i32 noundef 345)
  %call7 = invoke noundef nonnull align 8 dereferenceable(8) ptr @_ZStlsISt11char_traitsIcEERSt13basic_ostreamIcT_ES5_PKc(ptr noundef nonnull align 8 dereferenceable(8) @_ZSt4cerr, ptr noundef nonnull @.str.50)
          to label %invoke.cont unwind label %lpad

invoke.cont:                                      ; preds = %if.else
  %call9 = invoke noundef nonnull align 8 dereferenceable(8) ptr @_ZStlsISt11char_traitsIcEERSt13basic_ostreamIcT_ES5_PKc(ptr noundef nonnull align 8 dereferenceable(8) %call7, ptr noundef nonnull @.str.51)
          to label %invoke.cont8 unwind label %lpad

invoke.cont8:                                     ; preds = %invoke.cont
  %call11 = invoke noundef nonnull align 8 dereferenceable(8) ptr @_ZStlsISt11char_traitsIcEERSt13basic_ostreamIcT_ES5_PKc(ptr noundef nonnull align 8 dereferenceable(8) %call9, ptr noundef nonnull @.str.52)
          to label %invoke.cont10 unwind label %lpad

invoke.cont10:                                    ; preds = %invoke.cont8
  %call13 = invoke noundef nonnull align 8 dereferenceable(8) ptr @_ZNSolsEPFRSoS_E(ptr noundef nonnull align 8 dereferenceable(8) %call11, ptr noundef nonnull @_ZSt4endlIcSt11char_traitsIcEERSt13basic_ostreamIT_T0_ES6_)
          to label %invoke.cont12 unwind label %lpad

invoke.cont12:                                    ; preds = %invoke.cont10
  call void @_ZN7testing8internal8GTestLogD1Ev(ptr noundef nonnull align 4 dereferenceable(4) %ref.tmp) #28
  br label %if.end

common.resume:                                    ; preds = %lpad.i, %lpad
  %ref.tmp.i.sink = phi ptr [ %ref.tmp.i, %lpad.i ], [ %ref.tmp, %lpad ]
  %common.resume.op = phi { ptr, i32 } [ %4, %lpad.i ], [ %2, %lpad ]
  call void @_ZN7testing8internal8GTestLogD1Ev(ptr noundef nonnull align 4 dereferenceable(4) %ref.tmp.i.sink) #28
  resume { ptr, i32 } %common.resume.op

lpad:                                             ; preds = %invoke.cont10, %invoke.cont8, %invoke.cont, %if.else
  %2 = landingpad { ptr, i32 }
          cleanup
  br label %common.resume

if.end:                                           ; preds = %entry, %invoke.cont12
  call void @llvm.lifetime.start.p0(i64 4, ptr nonnull %ref.tmp.i)
  %3 = call ptr @__dynamic_cast(ptr nonnull %other, ptr nonnull @_ZTIN7testing8internal22ParamIteratorInterfaceIN4absl17zipf_distributionImE10param_typeEEE, ptr nonnull @_ZTIN7testing8internal30ValuesInIteratorRangeGeneratorIN4absl17zipf_distributionImE10param_typeEE8IteratorE, i64 0) #28
  %cmp1.i = icmp ne ptr %3, null
  %call.i = call noundef zeroext i1 @_ZN7testing8internal6IsTrueEb(i1 noundef zeroext %cmp1.i)
  br i1 %call.i, label %_ZN7testing8internal27CheckedDowncastToActualTypeIKNS0_30ValuesInIteratorRangeGeneratorIN4absl17zipf_distributionImE10param_typeEE8IteratorEKNS0_22ParamIteratorInterfaceIS6_EEEEPT_PT0_.exit, label %if.else.i

if.else.i:                                        ; preds = %if.end
  call void @_ZN7testing8internal8GTestLogC1ENS0_16GTestLogSeverityEPKci(ptr noundef nonnull align 4 dereferenceable(4) %ref.tmp.i, i32 noundef 3, ptr noundef nonnull @.str.53, i32 noundef 1172)
  %call3.i = invoke noundef nonnull align 8 dereferenceable(8) ptr @_ZStlsISt11char_traitsIcEERSt13basic_ostreamIcT_ES5_PKc(ptr noundef nonnull align 8 dereferenceable(8) @_ZSt4cerr, ptr noundef nonnull @.str.54)
          to label %invoke.cont.i unwind label %lpad.i

invoke.cont.i:                                    ; preds = %if.else.i
  call void @_ZN7testing8internal8GTestLogD1Ev(ptr noundef nonnull align 4 dereferenceable(4) %ref.tmp.i) #28
  br label %_ZN7testing8internal27CheckedDowncastToActualTypeIKNS0_30ValuesInIteratorRangeGeneratorIN4absl17zipf_distributionImE10param_typeEE8IteratorEKNS0_22ParamIteratorInterfaceIS6_EEEEPT_PT0_.exit

lpad.i:                                           ; preds = %if.else.i
  %4 = landingpad { ptr, i32 }
          cleanup
  br label %common.resume

_ZN7testing8internal27CheckedDowncastToActualTypeIKNS0_30ValuesInIteratorRangeGeneratorIN4absl17zipf_distributionImE10param_typeEE8IteratorEKNS0_22ParamIteratorInterfaceIS6_EEEEPT_PT0_.exit: ; preds = %if.end, %invoke.cont.i
  %iterator_ = getelementptr inbounds %"class.testing::internal::ValuesInIteratorRangeGenerator<absl::zipf_distribution<unsigned long>::param_type>::Iterator", ptr %this, i64 0, i32 2
  call void @llvm.lifetime.end.p0(i64 4, ptr nonnull %ref.tmp.i)
  %iterator_15 = getelementptr inbounds %"class.testing::internal::ValuesInIteratorRangeGenerator<absl::zipf_distribution<unsigned long>::param_type>::Iterator", ptr %other, i64 0, i32 2
  %5 = load ptr, ptr %iterator_, align 8
  %6 = load ptr, ptr %iterator_15, align 8
  %cmp.i = icmp eq ptr %5, %6
  ret i1 %cmp.i
}

declare noundef nonnull align 8 dereferenceable(8) ptr @_ZNSolsEPFRSoS_E(ptr noundef nonnull align 8 dereferenceable(8), ptr noundef) local_unnamed_addr #0

declare noundef nonnull align 8 dereferenceable(8) ptr @_ZSt4endlIcSt11char_traitsIcEERSt13basic_ostreamIT_T0_ES6_(ptr noundef nonnull align 8 dereferenceable(8)) #0

; Function Attrs: nofree nounwind memory(read)
declare ptr @__dynamic_cast(ptr, ptr, ptr, i64) local_unnamed_addr #19

; Function Attrs: mustprogress nounwind uwtable
define linkonce_odr dso_local void @_ZNSt15_Sp_counted_ptrIPN7testing8internal23ParamGeneratorInterfaceIN4absl17zipf_distributionImE10param_typeEEELN9__gnu_cxx12_Lock_policyE2EED2Ev(ptr noundef nonnull align 8 dereferenceable(24) %this) unnamed_addr #3 comdat align 2 {
entry:
  ret void
}

; Function Attrs: mustprogress nounwind uwtable
define linkonce_odr dso_local void @_ZNSt15_Sp_counted_ptrIPN7testing8internal23ParamGeneratorInterfaceIN4absl17zipf_distributionImE10param_typeEEELN9__gnu_cxx12_Lock_policyE2EED0Ev(ptr noundef nonnull align 8 dereferenceable(24) %this) unnamed_addr #3 comdat align 2 {
entry:
  tail call void @_ZdlPv(ptr noundef nonnull %this) #29
  ret void
}

; Function Attrs: mustprogress nounwind uwtable
define linkonce_odr dso_local void @_ZNSt15_Sp_counted_ptrIPN7testing8internal23ParamGeneratorInterfaceIN4absl17zipf_distributionImE10param_typeEEELN9__gnu_cxx12_Lock_policyE2EE10_M_disposeEv(ptr noundef nonnull align 8 dereferenceable(24) %this) unnamed_addr #3 comdat align 2 {
entry:
  %_M_ptr = getelementptr inbounds %"class.std::_Sp_counted_ptr.96", ptr %this, i64 0, i32 1
  %0 = load ptr, ptr %_M_ptr, align 8
  %isnull = icmp eq ptr %0, null
  br i1 %isnull, label %delete.end, label %delete.notnull

delete.notnull:                                   ; preds = %entry
  %vtable = load ptr, ptr %0, align 8
  %vfn = getelementptr inbounds ptr, ptr %vtable, i64 1
  %1 = load ptr, ptr %vfn, align 8
  tail call void %1(ptr noundef nonnull align 8 dereferenceable(8) %0) #28
  br label %delete.end

delete.end:                                       ; preds = %delete.notnull, %entry
  ret void
}

; Function Attrs: mustprogress nounwind uwtable
define linkonce_odr dso_local void @_ZNSt15_Sp_counted_ptrIPN7testing8internal23ParamGeneratorInterfaceIN4absl17zipf_distributionImE10param_typeEEELN9__gnu_cxx12_Lock_policyE2EE10_M_destroyEv(ptr noundef nonnull align 8 dereferenceable(24) %this) unnamed_addr #3 comdat align 2 {
entry:
  tail call void @_ZdlPv(ptr noundef nonnull %this) #29
  ret void
}

; Function Attrs: mustprogress nounwind uwtable
define linkonce_odr dso_local noundef ptr @_ZNSt15_Sp_counted_ptrIPN7testing8internal23ParamGeneratorInterfaceIN4absl17zipf_distributionImE10param_typeEEELN9__gnu_cxx12_Lock_policyE2EE14_M_get_deleterERKSt9type_info(ptr noundef nonnull align 8 dereferenceable(24) %this, ptr noundef nonnull align 8 dereferenceable(16) %0) unnamed_addr #3 comdat align 2 {
entry:
  ret ptr null
}

; Function Attrs: mustprogress uwtable
define linkonce_odr dso_local void @_ZN4absl17zipf_distributionImE10param_typeC2Emdd(ptr noundef nonnull align 8 dereferenceable(64) %this, i64 noundef %k, double noundef %q, double noundef %v) unnamed_addr #4 comdat align 2 {
entry:
  store i64 %k, ptr %this, align 8
  %q_ = getelementptr inbounds %"class.absl::zipf_distribution<unsigned long>::param_type", ptr %this, i64 0, i32 1
  store double %q, ptr %q_, align 8
  %v_ = getelementptr inbounds %"class.absl::zipf_distribution<unsigned long>::param_type", ptr %this, i64 0, i32 2
  store double %v, ptr %v_, align 8
  %one_minus_q_ = getelementptr inbounds %"class.absl::zipf_distribution<unsigned long>::param_type", ptr %this, i64 0, i32 3
  %sub = fsub double 1.000000e+00, %q
  store double %sub, ptr %one_minus_q_, align 8
  %div = fdiv double 1.000000e+00, %sub
  %one_minus_q_inv_ = getelementptr inbounds %"class.absl::zipf_distribution<unsigned long>::param_type", ptr %this, i64 0, i32 5
  store double %div, ptr %one_minus_q_inv_, align 8
  %conv = uitofp i64 %k to double
  %cmp = fcmp ogt double %conv, 0x43EFFFFFFFFFFFFF
  %kd.0 = select i1 %cmp, double 0x43EFFFFFFFFFFFFF, double %conv
  %add = fadd double %kd.0, 5.000000e-01
  %add.i = fadd double %add, %v
  %cmp.i = fcmp oeq double %sub, -1.000000e+00
  br i1 %cmp.i, label %cond.true.i, label %cond.false.i

cond.true.i:                                      ; preds = %entry
  %div.i = fdiv double -1.000000e+00, %add.i
  br label %_ZNK4absl17zipf_distributionImE10param_type1hEd.exit

cond.false.i:                                     ; preds = %entry
  %call.i = tail call double @log(double noundef %add.i) #28
  %0 = load double, ptr %one_minus_q_, align 8
  %mul.i = fmul double %call.i, %0
  %call3.i = tail call double @exp(double noundef %mul.i) #28
  %1 = load double, ptr %one_minus_q_inv_, align 8
  %mul4.i = fmul double %call3.i, %1
  %.pre28.pre = load double, ptr %v_, align 8
  br label %_ZNK4absl17zipf_distributionImE10param_type1hEd.exit

_ZNK4absl17zipf_distributionImE10param_type1hEd.exit: ; preds = %cond.true.i, %cond.false.i
  %.pre28 = phi double [ %v, %cond.true.i ], [ %.pre28.pre, %cond.false.i ]
  %cond.i = phi double [ %div.i, %cond.true.i ], [ %mul4.i, %cond.false.i ]
  %hxm_ = getelementptr inbounds %"class.absl::zipf_distribution<unsigned long>::param_type", ptr %this, i64 0, i32 6
  store double %cond.i, ptr %hxm_, align 8
  %cmp3 = fcmp oeq double %v, 1.000000e+00
  %cmp4 = fcmp oeq double %q, 2.000000e+00
  %2 = and i1 %cmp4, %cmp3
  br i1 %2, label %cond.end, label %cond.false

cond.false:                                       ; preds = %_ZNK4absl17zipf_distributionImE10param_type1hEd.exit
  %add.i8 = fadd double %.pre28, 5.000000e-01
  %3 = load double, ptr %one_minus_q_, align 8
  %cmp.i10 = fcmp oeq double %3, -1.000000e+00
  br i1 %cmp.i10, label %cond.true.i18, label %cond.false.i11

cond.true.i18:                                    ; preds = %cond.false
  %div.i19 = fdiv double -1.000000e+00, %add.i8
  br label %cond.end

cond.false.i11:                                   ; preds = %cond.false
  %call.i12 = tail call double @log(double noundef %add.i8) #28
  %4 = load double, ptr %one_minus_q_, align 8
  %mul.i13 = fmul double %call.i12, %4
  %call3.i14 = tail call double @exp(double noundef %mul.i13) #28
  %5 = load double, ptr %one_minus_q_inv_, align 8
  %mul4.i16 = fmul double %call3.i14, %5
  %.pre = load double, ptr %v_, align 8
  br label %cond.end

cond.end:                                         ; preds = %cond.false.i11, %cond.true.i18, %_ZNK4absl17zipf_distributionImE10param_type1hEd.exit
  %6 = phi double [ %.pre28, %_ZNK4absl17zipf_distributionImE10param_type1hEd.exit ], [ %.pre28, %cond.true.i18 ], [ %.pre, %cond.false.i11 ]
  %cond = phi double [ 0xBFE5555555555555, %_ZNK4absl17zipf_distributionImE10param_type1hEd.exit ], [ %div.i19, %cond.true.i18 ], [ %mul4.i16, %cond.false.i11 ]
  %cmp7 = fcmp oeq double %6, 1.000000e+00
  br i1 %cmp7, label %cond.end12, label %cond.false9

cond.false9:                                      ; preds = %cond.end
  %7 = load double, ptr %q_, align 8
  %cmp.i21 = fcmp oeq double %7, 2.000000e+00
  br i1 %cmp.i21, label %cond.true.i25, label %cond.false.i22

cond.true.i25:                                    ; preds = %cond.false9
  %mul.i26 = fmul double %6, %6
  %div.i27 = fdiv double 1.000000e+00, %mul.i26
  br label %cond.end12

cond.false.i22:                                   ; preds = %cond.false9
  %call.i23 = tail call double @log(double noundef %6) #28
  %8 = load double, ptr %q_, align 8
  %fneg.i = fneg double %8
  %mul3.i = fmul double %call.i23, %fneg.i
  %call4.i = tail call double @exp(double noundef %mul3.i) #28
  br label %cond.end12

cond.end12:                                       ; preds = %cond.false.i22, %cond.true.i25, %cond.end
  %cond13 = phi double [ 1.000000e+00, %cond.end ], [ %div.i27, %cond.true.i25 ], [ %call4.i, %cond.false.i22 ]
  %sub14 = fsub double %cond, %cond13
  %9 = load double, ptr %hxm_, align 8
  %sub16 = fsub double %sub14, %9
  %hx0_minus_hxm_ = getelementptr inbounds %"class.absl::zipf_distribution<unsigned long>::param_type", ptr %this, i64 0, i32 7
  store double %sub16, ptr %hx0_minus_hxm_, align 8
  br i1 %2, label %cond.end21, label %cond.false19

cond.false19:                                     ; preds = %cond.end12
  %call20 = tail call noundef double @_ZNK4absl17zipf_distributionImE10param_type9compute_sEv(ptr noundef nonnull align 8 dereferenceable(64) %this)
  br label %cond.end21

cond.end21:                                       ; preds = %cond.end12, %cond.false19
  %cond22 = phi double [ %call20, %cond.false19 ], [ 0x3FDD89D89D89D898, %cond.end12 ]
  %s_ = getelementptr inbounds %"class.absl::zipf_distribution<unsigned long>::param_type", ptr %this, i64 0, i32 4
  store double %cond22, ptr %s_, align 8
  ret void
}

; Function Attrs: mustprogress nounwind uwtable
define linkonce_odr dso_local noundef double @_ZNK4absl17zipf_distributionImE10param_type9compute_sEv(ptr noundef nonnull align 8 dereferenceable(64) %this) local_unnamed_addr #3 comdat align 2 {
entry:
  %v_.i = getelementptr inbounds %"class.absl::zipf_distribution<unsigned long>::param_type", ptr %this, i64 0, i32 2
  %0 = load double, ptr %v_.i, align 8
  %add.i = fadd double %0, 1.500000e+00
  %one_minus_q_.i = getelementptr inbounds %"class.absl::zipf_distribution<unsigned long>::param_type", ptr %this, i64 0, i32 3
  %1 = load double, ptr %one_minus_q_.i, align 8
  %cmp.i = fcmp oeq double %1, -1.000000e+00
  br i1 %cmp.i, label %cond.true.i, label %cond.false.i

cond.true.i:                                      ; preds = %entry
  %div.i = fdiv double -1.000000e+00, %add.i
  br label %_ZNK4absl17zipf_distributionImE10param_type1hEd.exit

cond.false.i:                                     ; preds = %entry
  %call.i = tail call double @log(double noundef %add.i) #28
  %2 = load double, ptr %one_minus_q_.i, align 8
  %mul.i = fmul double %call.i, %2
  %call3.i = tail call double @exp(double noundef %mul.i) #28
  %one_minus_q_inv_.i = getelementptr inbounds %"class.absl::zipf_distribution<unsigned long>::param_type", ptr %this, i64 0, i32 5
  %3 = load double, ptr %one_minus_q_inv_.i, align 8
  %mul4.i = fmul double %call3.i, %3
  %.pre = load double, ptr %v_.i, align 8
  br label %_ZNK4absl17zipf_distributionImE10param_type1hEd.exit

_ZNK4absl17zipf_distributionImE10param_type1hEd.exit: ; preds = %cond.true.i, %cond.false.i
  %4 = phi double [ %0, %cond.true.i ], [ %.pre, %cond.false.i ]
  %cond.i = phi double [ %div.i, %cond.true.i ], [ %mul4.i, %cond.false.i ]
  %add = fadd double %4, 1.000000e+00
  %q_.i = getelementptr inbounds %"class.absl::zipf_distribution<unsigned long>::param_type", ptr %this, i64 0, i32 1
  %5 = load double, ptr %q_.i, align 8
  %cmp.i1 = fcmp oeq double %5, 2.000000e+00
  br i1 %cmp.i1, label %cond.true.i5, label %cond.false.i2

cond.true.i5:                                     ; preds = %_ZNK4absl17zipf_distributionImE10param_type1hEd.exit
  %mul.i6 = fmul double %add, %add
  %div.i7 = fdiv double 1.000000e+00, %mul.i6
  br label %_ZNK4absl17zipf_distributionImE10param_type14pow_negative_qEd.exit

cond.false.i2:                                    ; preds = %_ZNK4absl17zipf_distributionImE10param_type1hEd.exit
  %call.i3 = tail call double @log(double noundef %add) #28
  %6 = load double, ptr %q_.i, align 8
  %fneg.i = fneg double %6
  %mul3.i = fmul double %call.i3, %fneg.i
  %call4.i = tail call double @exp(double noundef %mul3.i) #28
  %.pre21 = load double, ptr %v_.i, align 8
  br label %_ZNK4absl17zipf_distributionImE10param_type14pow_negative_qEd.exit

_ZNK4absl17zipf_distributionImE10param_type14pow_negative_qEd.exit: ; preds = %cond.true.i5, %cond.false.i2
  %7 = phi double [ %4, %cond.true.i5 ], [ %.pre21, %cond.false.i2 ]
  %cond.i4 = phi double [ %div.i7, %cond.true.i5 ], [ %call4.i, %cond.false.i2 ]
  %sub = fsub double %cond.i, %cond.i4
  %8 = load double, ptr %one_minus_q_.i, align 8
  %cmp.i10 = fcmp oeq double %8, -1.000000e+00
  br i1 %cmp.i10, label %cond.true.i19, label %cond.false.i11

cond.true.i19:                                    ; preds = %_ZNK4absl17zipf_distributionImE10param_type14pow_negative_qEd.exit
  %div.i20 = fdiv double -1.000000e+00, %sub
  br label %_ZNK4absl17zipf_distributionImE10param_type4hinvEd.exit

cond.false.i11:                                   ; preds = %_ZNK4absl17zipf_distributionImE10param_type14pow_negative_qEd.exit
  %one_minus_q_inv_.i12 = getelementptr inbounds %"class.absl::zipf_distribution<unsigned long>::param_type", ptr %this, i64 0, i32 5
  %9 = load double, ptr %one_minus_q_inv_.i12, align 8
  %mul.i13 = fmul double %sub, %8
  %call.i14 = tail call double @log(double noundef %mul.i13) #28
  %mul3.i15 = fmul double %9, %call.i14
  %call4.i16 = tail call double @exp(double noundef %mul3.i15) #28
  br label %_ZNK4absl17zipf_distributionImE10param_type4hinvEd.exit

_ZNK4absl17zipf_distributionImE10param_type4hinvEd.exit: ; preds = %cond.true.i19, %cond.false.i11
  %cond.i17 = phi double [ %div.i20, %cond.true.i19 ], [ %call4.i16, %cond.false.i11 ]
  %10 = fsub double %7, %cond.i17
  %sub4 = fadd double %10, 1.000000e+00
  ret double %sub4
}

; Function Attrs: mustprogress uwtable
define internal fastcc void @_ZN12_GLOBAL__N_19ParamNameB5cxx11ERKN7testing13TestParamInfoIN4absl17zipf_distributionImE10param_typeEEE(ptr noalias sret(%"class.std::__cxx11::basic_string") align 8 %agg.result, ptr nocapture noundef nonnull readonly align 8 dereferenceable(72) %info) unnamed_addr #4 personality ptr @__gxx_personality_v0 {
entry:
  %ref.tmp.i = alloca [6 x %"class.std::basic_string_view"], align 8
  %name = alloca %"class.std::__cxx11::basic_string", align 8
  %ref.tmp1 = alloca %"class.absl::AlphaNum", align 8
  %ref.tmp4 = alloca %"struct.absl::strings_internal::AlphaNumBuffer", align 8
  %ref.tmp7 = alloca %"struct.absl::strings_internal::AlphaNumBuffer", align 8
  %ref.tmp11 = alloca [3 x %"struct.std::pair.103"], align 8
  %0 = load i64, ptr %info, align 8
  %digits_.i = getelementptr inbounds %"class.absl::AlphaNum", ptr %ref.tmp1, i64 0, i32 1
  %call.i = call noundef ptr @_ZN4absl16numbers_internal15FastIntToBufferEmPc(i64 noundef %0, ptr noundef nonnull %digits_.i)
  %sub.ptr.lhs.cast.i = ptrtoint ptr %call.i to i64
  %sub.ptr.rhs.cast.i = ptrtoint ptr %digits_.i to i64
  %sub.ptr.sub.i = sub i64 %sub.ptr.lhs.cast.i, %sub.ptr.rhs.cast.i
  store i64 %sub.ptr.sub.i, ptr %ref.tmp1, align 8
  %_M_str.i.i = getelementptr inbounds %"class.std::basic_string_view", ptr %ref.tmp1, i64 0, i32 1
  store ptr %digits_.i, ptr %_M_str.i.i, align 8
  %q_.i = getelementptr inbounds %"class.absl::zipf_distribution<unsigned long>::param_type", ptr %info, i64 0, i32 1
  %1 = load double, ptr %q_.i, align 8
  %call1.i = call noundef i64 @_ZN4absl16numbers_internal17SixDigitsToBufferEdPc(double noundef %1, ptr noundef nonnull %ref.tmp4)
  %size.i = getelementptr inbounds %"struct.absl::strings_internal::AlphaNumBuffer", ptr %ref.tmp4, i64 0, i32 1
  store i64 %call1.i, ptr %size.i, align 8, !alias.scope !61
  %v_.i = getelementptr inbounds %"class.absl::zipf_distribution<unsigned long>::param_type", ptr %info, i64 0, i32 2
  %2 = load double, ptr %v_.i, align 8
  %call1.i7 = call noundef i64 @_ZN4absl16numbers_internal17SixDigitsToBufferEdPc(double noundef %2, ptr noundef nonnull %ref.tmp7)
  %size.i8 = getelementptr inbounds %"struct.absl::strings_internal::AlphaNumBuffer", ptr %ref.tmp7, i64 0, i32 1
  store i64 %call1.i7, ptr %size.i8, align 8, !alias.scope !64
  call void @llvm.lifetime.start.p0(i64 96, ptr nonnull %ref.tmp.i)
  store i64 2, ptr %ref.tmp.i, align 8, !noalias !67
  %3 = getelementptr inbounds { i64, ptr }, ptr %ref.tmp.i, i64 0, i32 1
  store ptr @.str.55, ptr %3, align 8, !noalias !67
  %arrayinit.element.i = getelementptr inbounds %"class.std::basic_string_view", ptr %ref.tmp.i, i64 1
  %retval.sroa.0.0.copyload.i1.i = load i64, ptr %ref.tmp1, align 8, !noalias !67
  %retval.sroa.2.0.copyload.i3.i = load ptr, ptr %_M_str.i.i, align 8, !noalias !67
  store i64 %retval.sroa.0.0.copyload.i1.i, ptr %arrayinit.element.i, align 8, !noalias !67
  %4 = getelementptr inbounds %"class.std::basic_string_view", ptr %ref.tmp.i, i64 1, i32 1
  store ptr %retval.sroa.2.0.copyload.i3.i, ptr %4, align 8, !noalias !67
  %arrayinit.element2.i = getelementptr inbounds %"class.std::basic_string_view", ptr %ref.tmp.i, i64 2
  store i64 4, ptr %arrayinit.element2.i, align 8, !noalias !67
  %5 = getelementptr inbounds %"class.std::basic_string_view", ptr %ref.tmp.i, i64 2, i32 1
  store ptr @.str.56, ptr %5, align 8, !noalias !67
  %arrayinit.element4.i = getelementptr inbounds %"class.std::basic_string_view", ptr %ref.tmp.i, i64 3
  store i64 %call1.i, ptr %arrayinit.element4.i, align 8, !noalias !67
  %6 = getelementptr inbounds %"class.std::basic_string_view", ptr %ref.tmp.i, i64 3, i32 1
  store ptr %ref.tmp4, ptr %6, align 8, !noalias !67
  %arrayinit.element6.i = getelementptr inbounds %"class.std::basic_string_view", ptr %ref.tmp.i, i64 4
  store i64 4, ptr %arrayinit.element6.i, align 8, !noalias !67
  %7 = getelementptr inbounds %"class.std::basic_string_view", ptr %ref.tmp.i, i64 4, i32 1
  store ptr @.str.57, ptr %7, align 8, !noalias !67
  %arrayinit.element8.i = getelementptr inbounds %"class.std::basic_string_view", ptr %ref.tmp.i, i64 5
  store i64 %call1.i7, ptr %arrayinit.element8.i, align 8, !noalias !67
  %8 = getelementptr inbounds %"class.std::basic_string_view", ptr %ref.tmp.i, i64 5, i32 1
  store ptr %ref.tmp7, ptr %8, align 8, !noalias !67
  call void @_ZN4absl16strings_internal9CatPiecesB5cxx11ESt16initializer_listISt17basic_string_viewIcSt11char_traitsIcEEE(ptr nonnull sret(%"class.std::__cxx11::basic_string") align 8 %name, ptr nonnull %ref.tmp.i, i64 6)
  call void @llvm.lifetime.end.p0(i64 96, ptr nonnull %ref.tmp.i)
  %call9 = call { i64, ptr } @_ZNKSt7__cxx1112basic_stringIcSt11char_traitsIcESaIcEEcvSt17basic_string_viewIcS2_EEv(ptr noundef nonnull align 8 dereferenceable(32) %name) #28
  %9 = extractvalue { i64, ptr } %call9, 0
  %10 = extractvalue { i64, ptr } %call9, 1
  store i64 1, ptr %ref.tmp11, align 8
  %_M_str.i.i9 = getelementptr inbounds %"class.std::basic_string_view", ptr %ref.tmp11, i64 0, i32 1
  store ptr @.str.58, ptr %_M_str.i.i9, align 8
  %second.i = getelementptr inbounds %"struct.std::pair.103", ptr %ref.tmp11, i64 0, i32 1
  store i64 1, ptr %second.i, align 8
  %_M_str.i2.i = getelementptr inbounds %"struct.std::pair.103", ptr %ref.tmp11, i64 0, i32 1, i32 1
  store ptr @.str.59, ptr %_M_str.i2.i, align 8
  %arrayinit.element = getelementptr inbounds %"struct.std::pair.103", ptr %ref.tmp11, i64 1
  store i64 1, ptr %arrayinit.element, align 8
  %_M_str.i.i11 = getelementptr inbounds %"struct.std::pair.103", ptr %ref.tmp11, i64 1, i32 0, i32 1
  store ptr @.str.60, ptr %_M_str.i.i11, align 8
  %second.i12 = getelementptr inbounds %"struct.std::pair.103", ptr %ref.tmp11, i64 1, i32 1
  store i64 1, ptr %second.i12, align 8
  %_M_str.i2.i14 = getelementptr inbounds %"struct.std::pair.103", ptr %ref.tmp11, i64 1, i32 1, i32 1
  store ptr @.str.59, ptr %_M_str.i2.i14, align 8
  %arrayinit.element13 = getelementptr inbounds %"struct.std::pair.103", ptr %ref.tmp11, i64 2
  store i64 1, ptr %arrayinit.element13, align 8
  %_M_str.i.i16 = getelementptr inbounds %"struct.std::pair.103", ptr %ref.tmp11, i64 2, i32 0, i32 1
  store ptr @.str.61, ptr %_M_str.i.i16, align 8
  %second.i17 = getelementptr inbounds %"struct.std::pair.103", ptr %ref.tmp11, i64 2, i32 1
  store i64 1, ptr %second.i17, align 8
  %_M_str.i2.i19 = getelementptr inbounds %"struct.std::pair.103", ptr %ref.tmp11, i64 2, i32 1, i32 1
  store ptr @.str.59, ptr %_M_str.i2.i19, align 8
  invoke void @_ZN4absl13StrReplaceAllB5cxx11ESt17basic_string_viewIcSt11char_traitsIcEESt16initializer_listISt4pairIS3_S3_EE(ptr sret(%"class.std::__cxx11::basic_string") align 8 %agg.result, i64 %9, ptr %10, ptr nonnull %ref.tmp11, i64 3)
          to label %invoke.cont15 unwind label %lpad

invoke.cont15:                                    ; preds = %entry
  call void @_ZNSt7__cxx1112basic_stringIcSt11char_traitsIcESaIcEED1Ev(ptr noundef nonnull align 8 dereferenceable(32) %name) #28
  ret void

lpad:                                             ; preds = %entry
  %11 = landingpad { ptr, i32 }
          cleanup
  call void @_ZNSt7__cxx1112basic_stringIcSt11char_traitsIcESaIcEED1Ev(ptr noundef nonnull align 8 dereferenceable(32) %name) #28
  resume { ptr, i32 } %11
}

declare noundef zeroext i1 @_ZN7testing8internal10AlwaysTrueEv() local_unnamed_addr #0

declare void @_ZN4absl13StrReplaceAllB5cxx11ESt17basic_string_viewIcSt11char_traitsIcEESt16initializer_listISt4pairIS3_S3_EE(ptr sret(%"class.std::__cxx11::basic_string") align 8, i64, ptr, ptr, i64) local_unnamed_addr #0

; Function Attrs: nounwind
declare { i64, ptr } @_ZNKSt7__cxx1112basic_stringIcSt11char_traitsIcESaIcEEcvSt17basic_string_viewIcS2_EEv(ptr noundef nonnull align 8 dereferenceable(32)) local_unnamed_addr #1

declare void @_ZN4absl16strings_internal9CatPiecesB5cxx11ESt16initializer_listISt17basic_string_viewIcSt11char_traitsIcEEE(ptr sret(%"class.std::__cxx11::basic_string") align 8, ptr, i64) local_unnamed_addr #0

declare noundef ptr @_ZN4absl16numbers_internal15FastIntToBufferEmPc(i64 noundef, ptr noundef) local_unnamed_addr #0

declare noundef i64 @_ZN4absl16numbers_internal17SixDigitsToBufferEdPc(double noundef, ptr noundef) local_unnamed_addr #0

; Function Attrs: mustprogress nofree norecurse nosync nounwind willreturn memory(none) uwtable
define internal void @_ZN7testing8internal15TestFactoryImplIN12_GLOBAL__N_139ZipfDistributionTest_StabilityTest_TestEED2Ev(ptr nocapture nonnull readnone align 8 %this) unnamed_addr #10 align 2 {
entry:
  ret void
}

; Function Attrs: mustprogress nounwind uwtable
define internal void @_ZN7testing8internal15TestFactoryImplIN12_GLOBAL__N_139ZipfDistributionTest_StabilityTest_TestEED0Ev(ptr noundef nonnull align 8 dereferenceable(8) %this) unnamed_addr #3 align 2 {
entry:
  tail call void @_ZdlPv(ptr noundef nonnull %this) #29
  ret void
}

; Function Attrs: mustprogress uwtable
define internal noundef nonnull ptr @_ZN7testing8internal15TestFactoryImplIN12_GLOBAL__N_139ZipfDistributionTest_StabilityTest_TestEE10CreateTestEv(ptr nocapture nonnull readnone align 8 %this) unnamed_addr #4 align 2 personality ptr @__gxx_personality_v0 {
entry:
  %call = tail call noalias noundef nonnull dereferenceable(16) ptr @_Znwm(i64 noundef 16) #31
  invoke void @_ZN7testing4TestC2Ev(ptr noundef nonnull align 8 dereferenceable(16) %call)
          to label %invoke.cont unwind label %lpad

invoke.cont:                                      ; preds = %entry
  store ptr getelementptr inbounds ({ [8 x ptr] }, ptr @_ZTVN12_GLOBAL__N_139ZipfDistributionTest_StabilityTest_TestE, i64 0, inrange i32 0, i64 2), ptr %call, align 8
  ret ptr %call

lpad:                                             ; preds = %entry
  %0 = landingpad { ptr, i32 }
          cleanup
  tail call void @_ZdlPv(ptr noundef nonnull %call) #29
  resume { ptr, i32 } %0
}

; Function Attrs: mustprogress nounwind uwtable
define internal void @_ZN12_GLOBAL__N_139ZipfDistributionTest_StabilityTest_TestD2Ev(ptr noundef nonnull align 8 dereferenceable(16) %this) unnamed_addr #3 align 2 {
entry:
  tail call void @_ZN7testing4TestD2Ev(ptr noundef nonnull align 8 dereferenceable(16) %this) #28
  ret void
}

; Function Attrs: mustprogress nounwind uwtable
define internal void @_ZN12_GLOBAL__N_139ZipfDistributionTest_StabilityTest_TestD0Ev(ptr noundef nonnull align 8 dereferenceable(16) %this) unnamed_addr #3 align 2 {
entry:
  tail call void @_ZN7testing4TestD2Ev(ptr noundef nonnull align 8 dereferenceable(16) %this) #28
  tail call void @_ZdlPv(ptr noundef nonnull %this) #29
  ret void
}

; Function Attrs: mustprogress uwtable
define internal void @_ZN12_GLOBAL__N_139ZipfDistributionTest_StabilityTest_Test8TestBodyEv(ptr nocapture nonnull readnone align 8 %this) unnamed_addr #4 align 2 personality ptr @__gxx_personality_v0 {
entry:
  %urbg = alloca %"class.absl::random_internal::sequence_urbg", align 8
  %output = alloca %"class.std::vector.107", align 8
  %dist = alloca %"class.absl::zipf_distribution.112", align 8
  %gtest_ar = alloca %"class.testing::AssertionResult", align 8
  %ref.tmp15 = alloca %"class.testing::internal::PredicateFormatterFromMatcher", align 16
  %ref.tmp31 = alloca %"class.testing::Message", align 8
  %ref.tmp34 = alloca %"class.testing::internal::AssertHelper", align 8
  %dist43 = alloca %"class.absl::zipf_distribution.112", align 8
  %gtest_ar58 = alloca %"class.testing::AssertionResult", align 8
  %ref.tmp59 = alloca %"class.testing::internal::PredicateFormatterFromMatcher", align 16
  %ref.tmp77 = alloca %"class.testing::Message", align 8
  %ref.tmp80 = alloca %"class.testing::internal::AssertHelper", align 8
  %data_.i = getelementptr inbounds %"class.absl::random_internal::sequence_urbg", ptr %urbg, i64 0, i32 1
  store i64 0, ptr %urbg, align 8
  %call5.i.i.i.i2.i.i = tail call noalias noundef nonnull dereferenceable(96) ptr @_Znwm(i64 noundef 96) #31
  store ptr %call5.i.i.i.i2.i.i, ptr %data_.i, align 8
  %add.ptr.i1.i.i = getelementptr inbounds i64, ptr %call5.i.i.i.i2.i.i, i64 12
  %_M_end_of_storage.i.i.i = getelementptr inbounds %"class.absl::random_internal::sequence_urbg", ptr %urbg, i64 0, i32 1, i32 0, i32 0, i32 0, i32 2
  store ptr %add.ptr.i1.i.i, ptr %_M_end_of_storage.i.i.i, align 8
  tail call void @llvm.memcpy.p0.p0.i64(ptr noundef nonnull align 8 dereferenceable(96) %call5.i.i.i.i2.i.i, ptr noundef nonnull align 8 dereferenceable(96) @constinit, i64 96, i1 false)
  %_M_finish.i.i.i = getelementptr inbounds %"class.absl::random_internal::sequence_urbg", ptr %urbg, i64 0, i32 1, i32 0, i32 0, i32 0, i32 1
  store ptr %add.ptr.i1.i.i, ptr %_M_finish.i.i.i, align 8
  call void @llvm.memset.p0.i64(ptr noundef nonnull align 8 dereferenceable(24) %output, i8 0, i64 24, i1 false)
  %call5.i.i.i.i2.i.i810 = invoke noalias noundef nonnull dereferenceable(40) ptr @_Znwm(i64 noundef 40) #31
          to label %invoke.cont4 unwind label %lpad

common.resume:                                    ; preds = %if.then.i.i.i.i65, %ehcleanup92
  resume { ptr, i32 } %.pn3.pn.pn.pn

invoke.cont4:                                     ; preds = %entry
  store ptr %call5.i.i.i.i2.i.i810, ptr %output, align 8
  %add.ptr.i.i.i = getelementptr inbounds i32, ptr %call5.i.i.i.i2.i.i810, i64 10
  %_M_end_of_storage.i.i.i9 = getelementptr inbounds %"struct.std::_Vector_base<int, std::allocator<int>>::_Vector_impl_data", ptr %output, i64 0, i32 2
  store ptr %add.ptr.i.i.i, ptr %_M_end_of_storage.i.i.i9, align 8
  %_M_finish.i.i7.i = getelementptr inbounds %"struct.std::_Vector_base<int, std::allocator<int>>::_Vector_impl_data", ptr %output, i64 0, i32 1
  tail call void @llvm.memset.p0.i64(ptr noundef nonnull align 4 dereferenceable(40) %call5.i.i.i.i2.i.i810, i8 0, i64 40, i1 false)
  store ptr %add.ptr.i.i.i, ptr %_M_finish.i.i7.i, align 8
  store i32 2147483647, ptr %dist, align 8
  %q_.i.i = getelementptr inbounds %"class.absl::zipf_distribution<>::param_type", ptr %dist, i64 0, i32 1
  store <2 x double> <double 2.000000e+00, double 1.000000e+00>, ptr %q_.i.i, align 8
  %one_minus_q_.i.i = getelementptr inbounds %"class.absl::zipf_distribution<>::param_type", ptr %dist, i64 0, i32 3
  %one_minus_q_inv_.i.i = getelementptr inbounds %"class.absl::zipf_distribution<>::param_type", ptr %dist, i64 0, i32 5
  store <2 x double> <double -1.000000e+00, double 0xBDFFFFFFFFE00000>, ptr %one_minus_q_inv_.i.i, align 8
  %hx0_minus_hxm_.i.i = getelementptr inbounds %"class.absl::zipf_distribution<>::param_type", ptr %dist, i64 0, i32 7
  store double 0xBFFAAAAAAA8AAAAA, ptr %hx0_minus_hxm_.i.i, align 8
  store <2 x double> <double -1.000000e+00, double 0x3FDD89D89D89D898>, ptr %one_minus_q_.i.i, align 8
  br label %for.body.i

for.body.i:                                       ; preds = %invoke.cont4, %call.i.i.i.noexc
  %__first.sroa.0.05.i.idx = phi i64 [ %__first.sroa.0.05.i.add, %call.i.i.i.noexc ], [ 0, %invoke.cont4 ]
  %call.i.i.i11 = invoke noundef i32 @_ZN4absl17zipf_distributionIiEclINS_15random_internal13sequence_urbgEEEiRT_RKNS1_10param_typeE(ptr noundef nonnull align 8 dereferenceable(64) %dist, ptr noundef nonnull align 8 dereferenceable(32) %urbg, ptr noundef nonnull align 8 dereferenceable(64) %dist)
          to label %call.i.i.i.noexc unwind label %lpad3.loopexit.split-lp.loopexit

call.i.i.i.noexc:                                 ; preds = %for.body.i
  %__first.sroa.0.05.i.ptr = getelementptr inbounds i8, ptr %call5.i.i.i.i2.i.i810, i64 %__first.sroa.0.05.i.idx
  store i32 %call.i.i.i11, ptr %__first.sroa.0.05.i.ptr, align 4
  %__first.sroa.0.05.i.add = add nuw nsw i64 %__first.sroa.0.05.i.idx, 4
  %cmp.i.not.i = icmp eq i64 %__first.sroa.0.05.i.add, 40
  br i1 %cmp.i.not.i, label %invoke.cont28, label %for.body.i, !llvm.loop !70

invoke.cont28:                                    ; preds = %call.i.i.i.noexc
  store <4 x i32> <i32 0, i32 0, i32 47, i32 7>, ptr %ref.tmp15, align 16
  %agg.tmp1612.sroa.7.0.ref.tmp15.sroa_idx = getelementptr inbounds i8, ptr %ref.tmp15, i64 16
  store <4 x i32> <i32 0, i32 6, i32 3, i32 0>, ptr %agg.tmp1612.sroa.7.0.ref.tmp15.sroa_idx, align 16
  %agg.tmp1612.sroa.11.0.ref.tmp15.sroa_idx = getelementptr inbounds i8, ptr %ref.tmp15, i64 32
  store i32 0, ptr %agg.tmp1612.sroa.11.0.ref.tmp15.sroa_idx, align 16
  %agg.tmp1612.sroa.12.0.ref.tmp15.sroa_idx = getelementptr inbounds i8, ptr %ref.tmp15, i64 36
  store i32 10031, ptr %agg.tmp1612.sroa.12.0.ref.tmp15.sroa_idx, align 4
  invoke void @_ZNK7testing8internal29PredicateFormatterFromMatcherINS0_18ElementsAreMatcherISt5tupleIJiiiiiiiiiiEEEEEclISt6vectorIiSaIiEEEENS_15AssertionResultEPKcRKT_(ptr nonnull sret(%"class.testing::AssertionResult") align 8 %gtest_ar, ptr noundef nonnull align 4 dereferenceable(40) %ref.tmp15, ptr noundef nonnull @.str.62, ptr noundef nonnull align 8 dereferenceable(24) %output)
          to label %invoke.cont29 unwind label %lpad3.loopexit.split-lp.loopexit.split-lp

invoke.cont29:                                    ; preds = %invoke.cont28
  %0 = load i8, ptr %gtest_ar, align 8
  %1 = and i8 %0, 1
  %tobool.i.not = icmp eq i8 %1, 0
  br i1 %tobool.i.not, label %if.else, label %if.end

lpad:                                             ; preds = %entry
  %2 = landingpad { ptr, i32 }
          cleanup
  br label %ehcleanup92

lpad3.loopexit:                                   ; preds = %for.body.i21
  %lpad.loopexit = landingpad { ptr, i32 }
          cleanup
  br label %ehcleanup91

lpad3.loopexit.split-lp.loopexit:                 ; preds = %for.body.i
  %lpad.loopexit67 = landingpad { ptr, i32 }
          cleanup
  br label %ehcleanup91

lpad3.loopexit.split-lp.loopexit.split-lp:        ; preds = %_ZN7testing15AssertionResultD2Ev.exit, %invoke.cont72, %invoke.cont28
  %lpad.loopexit.split-lp68 = landingpad { ptr, i32 }
          cleanup
  br label %ehcleanup91

if.else:                                          ; preds = %invoke.cont29
  invoke void @_ZN7testing7MessageC1Ev(ptr noundef nonnull align 8 dereferenceable(8) %ref.tmp31)
          to label %invoke.cont33 unwind label %lpad32

invoke.cont33:                                    ; preds = %if.else
  %message_.i.i = getelementptr inbounds %"class.testing::AssertionResult", ptr %gtest_ar, i64 0, i32 1
  %3 = load ptr, ptr %message_.i.i, align 8
  %cmp.i.i.not.i.i = icmp eq ptr %3, null
  br i1 %cmp.i.i.not.i.i, label %invoke.cont36, label %cond.true.i.i

cond.true.i.i:                                    ; preds = %invoke.cont33
  %call4.i.i = call noundef ptr @_ZNKSt7__cxx1112basic_stringIcSt11char_traitsIcESaIcEE5c_strEv(ptr noundef nonnull align 8 dereferenceable(32) %3) #28
  br label %invoke.cont36

invoke.cont36:                                    ; preds = %cond.true.i.i, %invoke.cont33
  %cond.i.i = phi ptr [ %call4.i.i, %cond.true.i.i ], [ @.str, %invoke.cont33 ]
  invoke void @_ZN7testing8internal12AssertHelperC1ENS_14TestPartResult4TypeEPKciS5_(ptr noundef nonnull align 8 dereferenceable(8) %ref.tmp34, i32 noundef 1, ptr noundef nonnull @.str.2, i32 noundef 365, ptr noundef %cond.i.i)
          to label %invoke.cont38 unwind label %lpad35

invoke.cont38:                                    ; preds = %invoke.cont36
  invoke void @_ZNK7testing8internal12AssertHelperaSERKNS_7MessageE(ptr noundef nonnull align 8 dereferenceable(8) %ref.tmp34, ptr noundef nonnull align 8 dereferenceable(8) %ref.tmp31)
          to label %invoke.cont40 unwind label %lpad39

invoke.cont40:                                    ; preds = %invoke.cont38
  call void @_ZN7testing8internal12AssertHelperD1Ev(ptr noundef nonnull align 8 dereferenceable(8) %ref.tmp34) #28
  %4 = load ptr, ptr %ref.tmp31, align 8
  %cmp.not.i.i = icmp eq ptr %4, null
  br i1 %cmp.not.i.i, label %_ZN7testing7MessageD2Ev.exit, label %_ZNKSt14default_deleteINSt7__cxx1118basic_stringstreamIcSt11char_traitsIcESaIcEEEEclEPS5_.exit.i.i

_ZNKSt14default_deleteINSt7__cxx1118basic_stringstreamIcSt11char_traitsIcESaIcEEEEclEPS5_.exit.i.i: ; preds = %invoke.cont40
  %vtable.i.i.i = load ptr, ptr %4, align 8
  %vfn.i.i.i = getelementptr inbounds ptr, ptr %vtable.i.i.i, i64 1
  %5 = load ptr, ptr %vfn.i.i.i, align 8
  call void %5(ptr noundef nonnull align 8 dereferenceable(128) %4) #28
  br label %_ZN7testing7MessageD2Ev.exit

_ZN7testing7MessageD2Ev.exit:                     ; preds = %invoke.cont40, %_ZNKSt14default_deleteINSt7__cxx1118basic_stringstreamIcSt11char_traitsIcESaIcEEEEclEPS5_.exit.i.i
  store ptr null, ptr %ref.tmp31, align 8
  br label %if.end

lpad32:                                           ; preds = %if.else
  %6 = landingpad { ptr, i32 }
          cleanup
  br label %ehcleanup41

lpad35:                                           ; preds = %invoke.cont36
  %7 = landingpad { ptr, i32 }
          cleanup
  br label %ehcleanup

lpad39:                                           ; preds = %invoke.cont38
  %8 = landingpad { ptr, i32 }
          cleanup
  call void @_ZN7testing8internal12AssertHelperD1Ev(ptr noundef nonnull align 8 dereferenceable(8) %ref.tmp34) #28
  br label %ehcleanup

ehcleanup:                                        ; preds = %lpad39, %lpad35
  %.pn = phi { ptr, i32 } [ %8, %lpad39 ], [ %7, %lpad35 ]
  %9 = load ptr, ptr %ref.tmp31, align 8
  %cmp.not.i.i13 = icmp eq ptr %9, null
  br i1 %cmp.not.i.i13, label %_ZN7testing7MessageD2Ev.exit17, label %_ZNKSt14default_deleteINSt7__cxx1118basic_stringstreamIcSt11char_traitsIcESaIcEEEEclEPS5_.exit.i.i14

_ZNKSt14default_deleteINSt7__cxx1118basic_stringstreamIcSt11char_traitsIcESaIcEEEEclEPS5_.exit.i.i14: ; preds = %ehcleanup
  %vtable.i.i.i15 = load ptr, ptr %9, align 8
  %vfn.i.i.i16 = getelementptr inbounds ptr, ptr %vtable.i.i.i15, i64 1
  %10 = load ptr, ptr %vfn.i.i.i16, align 8
  call void %10(ptr noundef nonnull align 8 dereferenceable(128) %9) #28
  br label %_ZN7testing7MessageD2Ev.exit17

_ZN7testing7MessageD2Ev.exit17:                   ; preds = %ehcleanup, %_ZNKSt14default_deleteINSt7__cxx1118basic_stringstreamIcSt11char_traitsIcESaIcEEEEclEPS5_.exit.i.i14
  store ptr null, ptr %ref.tmp31, align 8
  br label %ehcleanup41

if.end:                                           ; preds = %invoke.cont29, %_ZN7testing7MessageD2Ev.exit
  %message_.i = getelementptr inbounds %"class.testing::AssertionResult", ptr %gtest_ar, i64 0, i32 1
  %11 = load ptr, ptr %message_.i, align 8
  %cmp.not.i.i18 = icmp eq ptr %11, null
  br i1 %cmp.not.i.i18, label %_ZN7testing15AssertionResultD2Ev.exit, label %_ZNKSt14default_deleteINSt7__cxx1112basic_stringIcSt11char_traitsIcESaIcEEEEclEPS5_.exit.i.i

_ZNKSt14default_deleteINSt7__cxx1112basic_stringIcSt11char_traitsIcESaIcEEEEclEPS5_.exit.i.i: ; preds = %if.end
  call void @_ZNSt7__cxx1112basic_stringIcSt11char_traitsIcESaIcEED1Ev(ptr noundef nonnull align 8 dereferenceable(32) %11) #28
  call void @_ZdlPv(ptr noundef nonnull %11) #29
  br label %_ZN7testing15AssertionResultD2Ev.exit

_ZN7testing15AssertionResultD2Ev.exit:            ; preds = %if.end, %_ZNKSt14default_deleteINSt7__cxx1112basic_stringIcSt11char_traitsIcESaIcEEEEclEPS5_.exit.i.i
  store ptr null, ptr %message_.i, align 8
  store i64 0, ptr %urbg, align 8
  invoke void @_ZN4absl17zipf_distributionIiE10param_typeC2Eidd(ptr noundef nonnull align 8 dereferenceable(64) %dist43, i32 noundef 2147483647, double noundef 3.300000e+00, double noundef 1.000000e+00)
          to label %invoke.cont45 unwind label %lpad3.loopexit.split-lp.loopexit.split-lp

invoke.cont45:                                    ; preds = %_ZN7testing15AssertionResultD2Ev.exit
  %12 = load ptr, ptr %output, align 8
  %13 = load ptr, ptr %_M_finish.i.i7.i, align 8
  %cmp.i.not4.i20 = icmp eq ptr %12, %13
  br i1 %cmp.i.not4.i20, label %invoke.cont72, label %for.body.i21

for.body.i21:                                     ; preds = %invoke.cont45, %call.i.i.i.noexc25
  %__first.sroa.0.05.i22 = phi ptr [ %incdec.ptr.i.i23, %call.i.i.i.noexc25 ], [ %12, %invoke.cont45 ]
  %call.i.i.i26 = invoke noundef i32 @_ZN4absl17zipf_distributionIiEclINS_15random_internal13sequence_urbgEEEiRT_RKNS1_10param_typeE(ptr noundef nonnull align 8 dereferenceable(64) %dist43, ptr noundef nonnull align 8 dereferenceable(32) %urbg, ptr noundef nonnull align 8 dereferenceable(64) %dist43)
          to label %call.i.i.i.noexc25 unwind label %lpad3.loopexit

call.i.i.i.noexc25:                               ; preds = %for.body.i21
  store i32 %call.i.i.i26, ptr %__first.sroa.0.05.i22, align 4
  %incdec.ptr.i.i23 = getelementptr inbounds i32, ptr %__first.sroa.0.05.i22, i64 1
  %cmp.i.not.i24 = icmp eq ptr %incdec.ptr.i.i23, %13
  br i1 %cmp.i.not.i24, label %invoke.cont72, label %for.body.i21, !llvm.loop !71

invoke.cont72:                                    ; preds = %call.i.i.i.noexc25, %invoke.cont45
  store <4 x i32> <i32 0, i32 3, i32 1, i32 0>, ptr %ref.tmp59, align 16
  %agg.tmp6036.sroa.7.0.ref.tmp59.sroa_idx = getelementptr inbounds i8, ptr %ref.tmp59, i64 16
  store i32 1, ptr %agg.tmp6036.sroa.7.0.ref.tmp59.sroa_idx, align 16
  %agg.tmp6036.sroa.8.0.ref.tmp59.sroa_idx = getelementptr inbounds i8, ptr %ref.tmp59, i64 20
  %agg.tmp6036.sroa.12.0.ref.tmp59.sroa_idx = getelementptr inbounds i8, ptr %ref.tmp59, i64 36
  call void @llvm.memset.p0.i64(ptr noundef nonnull align 4 dereferenceable(16) %agg.tmp6036.sroa.8.0.ref.tmp59.sroa_idx, i8 0, i64 16, i1 false)
  store i32 44, ptr %agg.tmp6036.sroa.12.0.ref.tmp59.sroa_idx, align 4
  invoke void @_ZNK7testing8internal29PredicateFormatterFromMatcherINS0_18ElementsAreMatcherISt5tupleIJiiiiiiiiiiEEEEEclISt6vectorIiSaIiEEEENS_15AssertionResultEPKcRKT_(ptr nonnull sret(%"class.testing::AssertionResult") align 8 %gtest_ar58, ptr noundef nonnull align 4 dereferenceable(40) %ref.tmp59, ptr noundef nonnull @.str.62, ptr noundef nonnull align 8 dereferenceable(24) %output)
          to label %invoke.cont73 unwind label %lpad3.loopexit.split-lp.loopexit.split-lp

invoke.cont73:                                    ; preds = %invoke.cont72
  %14 = load i8, ptr %gtest_ar58, align 8
  %15 = and i8 %14, 1
  %tobool.i37.not = icmp eq i8 %15, 0
  br i1 %tobool.i37.not, label %if.else76, label %if.end89

ehcleanup41:                                      ; preds = %_ZN7testing7MessageD2Ev.exit17, %lpad32
  %.pn.pn = phi { ptr, i32 } [ %.pn, %_ZN7testing7MessageD2Ev.exit17 ], [ %6, %lpad32 ]
  call void @_ZN7testing15AssertionResultD2Ev(ptr noundef nonnull align 8 dereferenceable(16) %gtest_ar) #28
  br label %ehcleanup91

if.else76:                                        ; preds = %invoke.cont73
  invoke void @_ZN7testing7MessageC1Ev(ptr noundef nonnull align 8 dereferenceable(8) %ref.tmp77)
          to label %invoke.cont79 unwind label %lpad78

invoke.cont79:                                    ; preds = %if.else76
  %message_.i.i38 = getelementptr inbounds %"class.testing::AssertionResult", ptr %gtest_ar58, i64 0, i32 1
  %16 = load ptr, ptr %message_.i.i38, align 8
  %cmp.i.i.not.i.i39 = icmp eq ptr %16, null
  br i1 %cmp.i.i.not.i.i39, label %invoke.cont82, label %cond.true.i.i40

cond.true.i.i40:                                  ; preds = %invoke.cont79
  %call4.i.i41 = call noundef ptr @_ZNKSt7__cxx1112basic_stringIcSt11char_traitsIcESaIcEE5c_strEv(ptr noundef nonnull align 8 dereferenceable(32) %16) #28
  br label %invoke.cont82

invoke.cont82:                                    ; preds = %cond.true.i.i40, %invoke.cont79
  %cond.i.i42 = phi ptr [ %call4.i.i41, %cond.true.i.i40 ], [ @.str, %invoke.cont79 ]
  invoke void @_ZN7testing8internal12AssertHelperC1ENS_14TestPartResult4TypeEPKciS5_(ptr noundef nonnull align 8 dereferenceable(8) %ref.tmp80, i32 noundef 1, ptr noundef nonnull @.str.2, i32 noundef 373, ptr noundef %cond.i.i42)
          to label %invoke.cont84 unwind label %lpad81

invoke.cont84:                                    ; preds = %invoke.cont82
  invoke void @_ZNK7testing8internal12AssertHelperaSERKNS_7MessageE(ptr noundef nonnull align 8 dereferenceable(8) %ref.tmp80, ptr noundef nonnull align 8 dereferenceable(8) %ref.tmp77)
          to label %invoke.cont86 unwind label %lpad85

invoke.cont86:                                    ; preds = %invoke.cont84
  call void @_ZN7testing8internal12AssertHelperD1Ev(ptr noundef nonnull align 8 dereferenceable(8) %ref.tmp80) #28
  %17 = load ptr, ptr %ref.tmp77, align 8
  %cmp.not.i.i44 = icmp eq ptr %17, null
  br i1 %cmp.not.i.i44, label %_ZN7testing7MessageD2Ev.exit48, label %_ZNKSt14default_deleteINSt7__cxx1118basic_stringstreamIcSt11char_traitsIcESaIcEEEEclEPS5_.exit.i.i45

_ZNKSt14default_deleteINSt7__cxx1118basic_stringstreamIcSt11char_traitsIcESaIcEEEEclEPS5_.exit.i.i45: ; preds = %invoke.cont86
  %vtable.i.i.i46 = load ptr, ptr %17, align 8
  %vfn.i.i.i47 = getelementptr inbounds ptr, ptr %vtable.i.i.i46, i64 1
  %18 = load ptr, ptr %vfn.i.i.i47, align 8
  call void %18(ptr noundef nonnull align 8 dereferenceable(128) %17) #28
  br label %_ZN7testing7MessageD2Ev.exit48

_ZN7testing7MessageD2Ev.exit48:                   ; preds = %invoke.cont86, %_ZNKSt14default_deleteINSt7__cxx1118basic_stringstreamIcSt11char_traitsIcESaIcEEEEclEPS5_.exit.i.i45
  store ptr null, ptr %ref.tmp77, align 8
  br label %if.end89

lpad78:                                           ; preds = %if.else76
  %19 = landingpad { ptr, i32 }
          cleanup
  br label %ehcleanup90

lpad81:                                           ; preds = %invoke.cont82
  %20 = landingpad { ptr, i32 }
          cleanup
  br label %ehcleanup88

lpad85:                                           ; preds = %invoke.cont84
  %21 = landingpad { ptr, i32 }
          cleanup
  call void @_ZN7testing8internal12AssertHelperD1Ev(ptr noundef nonnull align 8 dereferenceable(8) %ref.tmp80) #28
  br label %ehcleanup88

ehcleanup88:                                      ; preds = %lpad85, %lpad81
  %.pn3 = phi { ptr, i32 } [ %21, %lpad85 ], [ %20, %lpad81 ]
  %22 = load ptr, ptr %ref.tmp77, align 8
  %cmp.not.i.i49 = icmp eq ptr %22, null
  br i1 %cmp.not.i.i49, label %_ZN7testing7MessageD2Ev.exit53, label %_ZNKSt14default_deleteINSt7__cxx1118basic_stringstreamIcSt11char_traitsIcESaIcEEEEclEPS5_.exit.i.i50

_ZNKSt14default_deleteINSt7__cxx1118basic_stringstreamIcSt11char_traitsIcESaIcEEEEclEPS5_.exit.i.i50: ; preds = %ehcleanup88
  %vtable.i.i.i51 = load ptr, ptr %22, align 8
  %vfn.i.i.i52 = getelementptr inbounds ptr, ptr %vtable.i.i.i51, i64 1
  %23 = load ptr, ptr %vfn.i.i.i52, align 8
  call void %23(ptr noundef nonnull align 8 dereferenceable(128) %22) #28
  br label %_ZN7testing7MessageD2Ev.exit53

_ZN7testing7MessageD2Ev.exit53:                   ; preds = %ehcleanup88, %_ZNKSt14default_deleteINSt7__cxx1118basic_stringstreamIcSt11char_traitsIcESaIcEEEEclEPS5_.exit.i.i50
  store ptr null, ptr %ref.tmp77, align 8
  br label %ehcleanup90

if.end89:                                         ; preds = %invoke.cont73, %_ZN7testing7MessageD2Ev.exit48
  %message_.i54 = getelementptr inbounds %"class.testing::AssertionResult", ptr %gtest_ar58, i64 0, i32 1
  %24 = load ptr, ptr %message_.i54, align 8
  %cmp.not.i.i55 = icmp eq ptr %24, null
  br i1 %cmp.not.i.i55, label %_ZN7testing15AssertionResultD2Ev.exit57, label %_ZNKSt14default_deleteINSt7__cxx1112basic_stringIcSt11char_traitsIcESaIcEEEEclEPS5_.exit.i.i56

_ZNKSt14default_deleteINSt7__cxx1112basic_stringIcSt11char_traitsIcESaIcEEEEclEPS5_.exit.i.i56: ; preds = %if.end89
  call void @_ZNSt7__cxx1112basic_stringIcSt11char_traitsIcESaIcEED1Ev(ptr noundef nonnull align 8 dereferenceable(32) %24) #28
  call void @_ZdlPv(ptr noundef nonnull %24) #29
  br label %_ZN7testing15AssertionResultD2Ev.exit57

_ZN7testing15AssertionResultD2Ev.exit57:          ; preds = %if.end89, %_ZNKSt14default_deleteINSt7__cxx1112basic_stringIcSt11char_traitsIcESaIcEEEEclEPS5_.exit.i.i56
  store ptr null, ptr %message_.i54, align 8
  %25 = load ptr, ptr %output, align 8
  %tobool.not.i.i.i = icmp eq ptr %25, null
  br i1 %tobool.not.i.i.i, label %_ZNSt6vectorIiSaIiEED2Ev.exit, label %if.then.i.i.i

if.then.i.i.i:                                    ; preds = %_ZN7testing15AssertionResultD2Ev.exit57
  call void @_ZdlPv(ptr noundef nonnull %25) #29
  br label %_ZNSt6vectorIiSaIiEED2Ev.exit

_ZNSt6vectorIiSaIiEED2Ev.exit:                    ; preds = %_ZN7testing15AssertionResultD2Ev.exit57, %if.then.i.i.i
  %26 = load ptr, ptr %data_.i, align 8
  %tobool.not.i.i.i.i59 = icmp eq ptr %26, null
  br i1 %tobool.not.i.i.i.i59, label %_ZN4absl15random_internal13sequence_urbgD2Ev.exit, label %if.then.i.i.i.i

if.then.i.i.i.i:                                  ; preds = %_ZNSt6vectorIiSaIiEED2Ev.exit
  call void @_ZdlPv(ptr noundef nonnull %26) #29
  br label %_ZN4absl15random_internal13sequence_urbgD2Ev.exit

_ZN4absl15random_internal13sequence_urbgD2Ev.exit: ; preds = %_ZNSt6vectorIiSaIiEED2Ev.exit, %if.then.i.i.i.i
  ret void

ehcleanup90:                                      ; preds = %_ZN7testing7MessageD2Ev.exit53, %lpad78
  %.pn3.pn = phi { ptr, i32 } [ %.pn3, %_ZN7testing7MessageD2Ev.exit53 ], [ %19, %lpad78 ]
  call void @_ZN7testing15AssertionResultD2Ev(ptr noundef nonnull align 8 dereferenceable(16) %gtest_ar58) #28
  br label %ehcleanup91

ehcleanup91:                                      ; preds = %lpad3.loopexit, %lpad3.loopexit.split-lp.loopexit.split-lp, %lpad3.loopexit.split-lp.loopexit, %ehcleanup90, %ehcleanup41
  %.pn3.pn.pn = phi { ptr, i32 } [ %.pn3.pn, %ehcleanup90 ], [ %.pn.pn, %ehcleanup41 ], [ %lpad.loopexit, %lpad3.loopexit ], [ %lpad.loopexit67, %lpad3.loopexit.split-lp.loopexit ], [ %lpad.loopexit.split-lp68, %lpad3.loopexit.split-lp.loopexit.split-lp ]
  %27 = load ptr, ptr %output, align 8
  %tobool.not.i.i.i60 = icmp eq ptr %27, null
  br i1 %tobool.not.i.i.i60, label %ehcleanup92, label %if.then.i.i.i61

if.then.i.i.i61:                                  ; preds = %ehcleanup91
  call void @_ZdlPv(ptr noundef nonnull %27) #29
  br label %ehcleanup92

ehcleanup92:                                      ; preds = %if.then.i.i.i61, %ehcleanup91, %lpad
  %.pn3.pn.pn.pn = phi { ptr, i32 } [ %2, %lpad ], [ %.pn3.pn.pn, %ehcleanup91 ], [ %.pn3.pn.pn, %if.then.i.i.i61 ]
  %28 = load ptr, ptr %data_.i, align 8
  %tobool.not.i.i.i.i64 = icmp eq ptr %28, null
  br i1 %tobool.not.i.i.i.i64, label %common.resume, label %if.then.i.i.i.i65

if.then.i.i.i.i65:                                ; preds = %ehcleanup92
  call void @_ZdlPv(ptr noundef nonnull %28) #29
  br label %common.resume
}

; Function Attrs: mustprogress uwtable
define linkonce_odr dso_local void @_ZNK7testing8internal29PredicateFormatterFromMatcherINS0_18ElementsAreMatcherISt5tupleIJiiiiiiiiiiEEEEEclISt6vectorIiSaIiEEEENS_15AssertionResultEPKcRKT_(ptr noalias sret(%"class.testing::AssertionResult") align 8 %agg.result, ptr noundef nonnull align 4 dereferenceable(40) %this, ptr noundef %value_text, ptr noundef nonnull align 8 dereferenceable(24) %x) local_unnamed_addr #4 comdat align 2 personality ptr @__gxx_personality_v0 {
entry:
  %ref.tmp.i16 = alloca %"class.testing::Message", align 8
  %ref.tmp.i = alloca %"class.testing::internal::GTestLog", align 4
  %ref.tmp.i.i = alloca %"class.testing::internal::GTestLog", align 4
  %dummy.i = alloca %"class.testing::internal::DummyMatchResultListener", align 8
  %matcher = alloca %"class.testing::Matcher", align 8
  %ss = alloca %"class.std::__cxx11::basic_stringstream", align 8
  %listener = alloca %"class.testing::StringMatchResultListener", align 8
  %ref.tmp = alloca %"class.std::__cxx11::basic_string", align 8
  %ref.tmp31 = alloca %"class.testing::AssertionResult", align 8
  %ref.tmp33 = alloca %"class.std::__cxx11::basic_string", align 8
  call void @_ZNK7testing8internal18ElementsAreMatcherISt5tupleIJiiiiiiiiiiEEEcvNS_7MatcherIT_EEIRKSt6vectorIiSaIiEEEEv(ptr nonnull sret(%"class.testing::Matcher") align 8 %matcher, ptr noundef nonnull align 4 dereferenceable(40) %this)
  call void @llvm.lifetime.start.p0(i64 16, ptr nonnull %dummy.i)
  %stream_.i.i.i = getelementptr inbounds %"class.testing::MatchResultListener", ptr %dummy.i, i64 0, i32 1
  store ptr null, ptr %stream_.i.i.i, align 8
  store ptr getelementptr inbounds ({ [4 x ptr] }, ptr @_ZTVN7testing8internal24DummyMatchResultListenerE, i64 0, inrange i32 0, i64 2), ptr %dummy.i, align 8
  call void @llvm.lifetime.start.p0(i64 4, ptr nonnull %ref.tmp.i.i)
  %vtable_.i.i = getelementptr inbounds %"class.testing::internal::MatcherBase", ptr %matcher, i64 0, i32 1
  %0 = load ptr, ptr %vtable_.i.i, align 8
  %cmp.i.i = icmp ne ptr %0, null
  %call.i1.i7 = invoke noundef zeroext i1 @_ZN7testing8internal6IsTrueEb(i1 noundef zeroext %cmp.i.i)
          to label %call.i1.i.noexc unwind label %lpad

call.i1.i.noexc:                                  ; preds = %entry
  br i1 %call.i1.i7, label %if.end.i.i, label %if.else.i.i

if.else.i.i:                                      ; preds = %call.i1.i.noexc
  invoke void @_ZN7testing8internal8GTestLogC1ENS0_16GTestLogSeverityEPKci(ptr noundef nonnull align 4 dereferenceable(4) %ref.tmp.i.i, i32 noundef 3, ptr noundef nonnull @.str.69, i32 noundef 233)
          to label %.noexc unwind label %lpad

.noexc:                                           ; preds = %if.else.i.i
  %call3.i.i = invoke noundef nonnull align 8 dereferenceable(8) ptr @_ZStlsISt11char_traitsIcEERSt13basic_ostreamIcT_ES5_PKc(ptr noundef nonnull align 8 dereferenceable(8) @_ZSt4cerr, ptr noundef nonnull @.str.70)
          to label %invoke.cont.i.i unwind label %lpad.i.i

invoke.cont.i.i:                                  ; preds = %.noexc
  call void @_ZN7testing8internal8GTestLogD1Ev(ptr noundef nonnull align 4 dereferenceable(4) %ref.tmp.i.i) #28
  br label %if.end.i.i

lpad.i.i:                                         ; preds = %.noexc
  %1 = landingpad { ptr, i32 }
          cleanup
  call void @_ZN7testing8internal8GTestLogD1Ev(ptr noundef nonnull align 4 dereferenceable(4) %ref.tmp.i.i) #28
  br label %ehcleanup42

if.end.i.i:                                       ; preds = %invoke.cont.i.i, %call.i1.i.noexc
  %2 = load ptr, ptr %vtable_.i.i, align 8
  %3 = load ptr, ptr %2, align 8
  %call5.i2.i8 = invoke noundef zeroext i1 %3(ptr noundef nonnull align 8 dereferenceable(24) %matcher, ptr noundef nonnull align 8 dereferenceable(24) %x, ptr noundef nonnull %dummy.i)
          to label %invoke.cont unwind label %lpad

invoke.cont:                                      ; preds = %if.end.i.i
  call void @llvm.lifetime.end.p0(i64 4, ptr nonnull %ref.tmp.i.i)
  call void @llvm.lifetime.end.p0(i64 16, ptr nonnull %dummy.i)
  br i1 %call5.i2.i8, label %if.then, label %if.end

if.then:                                          ; preds = %invoke.cont
  invoke void @_ZN7testing16AssertionSuccessEv(ptr sret(%"class.testing::AssertionResult") align 8 %agg.result)
          to label %cleanup unwind label %lpad

lpad:                                             ; preds = %if.end.i.i, %if.else.i.i, %entry, %if.end, %if.then
  %4 = landingpad { ptr, i32 }
          cleanup
  br label %ehcleanup42

if.end:                                           ; preds = %invoke.cont
  invoke void @_ZNSt7__cxx1118basic_stringstreamIcSt11char_traitsIcESaIcEEC1Ev(ptr noundef nonnull align 8 dereferenceable(128) %ss)
          to label %invoke.cont3 unwind label %lpad

invoke.cont3:                                     ; preds = %if.end
  %add.ptr = getelementptr inbounds i8, ptr %ss, i64 16
  %call6 = invoke noundef nonnull align 8 dereferenceable(8) ptr @_ZStlsISt11char_traitsIcEERSt13basic_ostreamIcT_ES5_PKc(ptr noundef nonnull align 8 dereferenceable(8) %add.ptr, ptr noundef nonnull @.str.63)
          to label %invoke.cont5 unwind label %lpad4

invoke.cont5:                                     ; preds = %invoke.cont3
  %call8 = invoke noundef nonnull align 8 dereferenceable(8) ptr @_ZStlsISt11char_traitsIcEERSt13basic_ostreamIcT_ES5_PKc(ptr noundef nonnull align 8 dereferenceable(8) %call6, ptr noundef %value_text)
          to label %invoke.cont7 unwind label %lpad4

invoke.cont7:                                     ; preds = %invoke.cont5
  %call10 = invoke noundef nonnull align 8 dereferenceable(8) ptr @_ZStlsISt11char_traitsIcEERSt13basic_ostreamIcT_ES5_PKc(ptr noundef nonnull align 8 dereferenceable(8) %call8, ptr noundef nonnull @.str.64)
          to label %invoke.cont9 unwind label %lpad4

invoke.cont9:                                     ; preds = %invoke.cont7
  %call12 = invoke noundef nonnull align 8 dereferenceable(8) ptr @_ZStlsISt11char_traitsIcEERSt13basic_ostreamIcT_ES5_PKc(ptr noundef nonnull align 8 dereferenceable(8) %call10, ptr noundef nonnull @.str.65)
          to label %invoke.cont11 unwind label %lpad4

invoke.cont11:                                    ; preds = %invoke.cont9
  call void @llvm.lifetime.start.p0(i64 4, ptr nonnull %ref.tmp.i)
  %5 = load ptr, ptr %vtable_.i.i, align 8
  %cmp.i = icmp ne ptr %5, null
  %call.i9 = invoke noundef zeroext i1 @_ZN7testing8internal6IsTrueEb(i1 noundef zeroext %cmp.i)
          to label %call.i.noexc unwind label %lpad4

call.i.noexc:                                     ; preds = %invoke.cont11
  br i1 %call.i9, label %if.end.i, label %if.else.i

if.else.i:                                        ; preds = %call.i.noexc
  invoke void @_ZN7testing8internal8GTestLogC1ENS0_16GTestLogSeverityEPKci(ptr noundef nonnull align 4 dereferenceable(4) %ref.tmp.i, i32 noundef 3, ptr noundef nonnull @.str.69, i32 noundef 245)
          to label %.noexc10 unwind label %lpad4

.noexc10:                                         ; preds = %if.else.i
  %call3.i = invoke noundef nonnull align 8 dereferenceable(8) ptr @_ZStlsISt11char_traitsIcEERSt13basic_ostreamIcT_ES5_PKc(ptr noundef nonnull align 8 dereferenceable(8) @_ZSt4cerr, ptr noundef nonnull @.str.70)
          to label %invoke.cont.i unwind label %lpad.i

invoke.cont.i:                                    ; preds = %.noexc10
  call void @_ZN7testing8internal8GTestLogD1Ev(ptr noundef nonnull align 4 dereferenceable(4) %ref.tmp.i) #28
  br label %if.end.i

lpad.i:                                           ; preds = %.noexc10
  %6 = landingpad { ptr, i32 }
          cleanup
  call void @_ZN7testing8internal8GTestLogD1Ev(ptr noundef nonnull align 4 dereferenceable(4) %ref.tmp.i) #28
  br label %ehcleanup41

if.end.i:                                         ; preds = %invoke.cont.i, %call.i.noexc
  %7 = load ptr, ptr %vtable_.i.i, align 8
  %describe.i = getelementptr inbounds %"struct.testing::internal::MatcherBase<const std::vector<int> &>::VTable", ptr %7, i64 0, i32 1
  %8 = load ptr, ptr %describe.i, align 8
  invoke void %8(ptr noundef nonnull align 8 dereferenceable(24) %matcher, ptr noundef nonnull %add.ptr, i1 noundef zeroext false)
          to label %invoke.cont14 unwind label %lpad4

invoke.cont14:                                    ; preds = %if.end.i
  call void @llvm.lifetime.end.p0(i64 4, ptr nonnull %ref.tmp.i)
  %ss_.i = getelementptr inbounds %"class.testing::StringMatchResultListener", ptr %listener, i64 0, i32 1
  %add.ptr.i = getelementptr inbounds %"class.testing::StringMatchResultListener", ptr %listener, i64 0, i32 1, i32 0, i32 1
  %stream_.i.i = getelementptr inbounds %"class.testing::MatchResultListener", ptr %listener, i64 0, i32 1
  store ptr %add.ptr.i, ptr %stream_.i.i, align 8
  store ptr getelementptr inbounds ({ [4 x ptr] }, ptr @_ZTVN7testing25StringMatchResultListenerE, i64 0, inrange i32 0, i64 2), ptr %listener, align 8
  invoke void @_ZNSt7__cxx1118basic_stringstreamIcSt11char_traitsIcESaIcEEC1Ev(ptr noundef nonnull align 8 dereferenceable(128) %ss_.i)
          to label %invoke.cont15 unwind label %lpad4

invoke.cont15:                                    ; preds = %invoke.cont14
  %call18 = invoke noundef zeroext i1 @_ZN7testing8internal20MatchPrintAndExplainIKSt6vectorIiSaIiEERS5_EEbRT_RKNS_7MatcherIT0_EEPNS_19MatchResultListenerE(ptr noundef nonnull align 8 dereferenceable(24) %x, ptr noundef nonnull align 8 dereferenceable(24) %matcher, ptr noundef nonnull %listener)
          to label %invoke.cont17 unwind label %lpad16

invoke.cont17:                                    ; preds = %invoke.cont15
  br i1 %call18, label %if.then19, label %if.end23

if.then19:                                        ; preds = %invoke.cont17
  %call22 = invoke noundef nonnull align 8 dereferenceable(8) ptr @_ZStlsISt11char_traitsIcEERSt13basic_ostreamIcT_ES5_PKc(ptr noundef nonnull align 8 dereferenceable(8) %add.ptr, ptr noundef nonnull @.str.66)
          to label %if.end23 unwind label %lpad16

lpad4:                                            ; preds = %invoke.cont14, %if.end.i, %if.else.i, %invoke.cont11, %invoke.cont9, %invoke.cont7, %invoke.cont5, %invoke.cont3
  %9 = landingpad { ptr, i32 }
          cleanup
  br label %ehcleanup41

lpad16:                                           ; preds = %invoke.cont25, %invoke.cont29, %if.end23, %if.then19, %invoke.cont15
  %10 = landingpad { ptr, i32 }
          cleanup
  br label %ehcleanup40

if.end23:                                         ; preds = %if.then19, %invoke.cont17
  %call26 = invoke noundef nonnull align 8 dereferenceable(8) ptr @_ZStlsISt11char_traitsIcEERSt13basic_ostreamIcT_ES5_PKc(ptr noundef nonnull align 8 dereferenceable(8) %add.ptr, ptr noundef nonnull @.str.67)
          to label %invoke.cont25 unwind label %lpad16

invoke.cont25:                                    ; preds = %if.end23
  invoke void @_ZNKSt7__cxx1118basic_stringstreamIcSt11char_traitsIcESaIcEE3strEv(ptr nonnull sret(%"class.std::__cxx11::basic_string") align 8 %ref.tmp, ptr noundef nonnull align 8 dereferenceable(128) %ss_.i)
          to label %invoke.cont27 unwind label %lpad16

invoke.cont27:                                    ; preds = %invoke.cont25
  %call30 = invoke noundef nonnull align 8 dereferenceable(8) ptr @_ZStlsIcSt11char_traitsIcESaIcEERSt13basic_ostreamIT_T0_ES7_RKNSt7__cxx1112basic_stringIS4_S5_T1_EE(ptr noundef nonnull align 8 dereferenceable(8) %call26, ptr noundef nonnull align 8 dereferenceable(32) %ref.tmp)
          to label %invoke.cont29 unwind label %lpad28

invoke.cont29:                                    ; preds = %invoke.cont27
  call void @_ZNSt7__cxx1112basic_stringIcSt11char_traitsIcESaIcEED1Ev(ptr noundef nonnull align 8 dereferenceable(32) %ref.tmp) #28
  invoke void @_ZN7testing16AssertionFailureEv(ptr nonnull sret(%"class.testing::AssertionResult") align 8 %ref.tmp31)
          to label %invoke.cont32 unwind label %lpad16

invoke.cont32:                                    ; preds = %invoke.cont29
  invoke void @_ZNKSt7__cxx1118basic_stringstreamIcSt11char_traitsIcESaIcEE3strEv(ptr nonnull sret(%"class.std::__cxx11::basic_string") align 8 %ref.tmp33, ptr noundef nonnull align 8 dereferenceable(128) %ss)
          to label %invoke.cont35 unwind label %lpad34

invoke.cont35:                                    ; preds = %invoke.cont32
  call void @llvm.lifetime.start.p0(i64 8, ptr nonnull %ref.tmp.i16)
  invoke void @_ZN7testing7MessageC1Ev(ptr noundef nonnull align 8 dereferenceable(8) %ref.tmp.i16)
          to label %.noexc19 unwind label %lpad36

.noexc19:                                         ; preds = %invoke.cont35
  %11 = load ptr, ptr %ref.tmp.i16, align 8
  %add.ptr.i.i = getelementptr inbounds i8, ptr %11, i64 16
  %call2.i1.i = invoke noundef nonnull align 8 dereferenceable(8) ptr @_ZStlsIcSt11char_traitsIcESaIcEERSt13basic_ostreamIT_T0_ES7_RKNSt7__cxx1112basic_stringIS4_S5_T1_EE(ptr noundef nonnull align 8 dereferenceable(8) %add.ptr.i.i, ptr noundef nonnull align 8 dereferenceable(32) %ref.tmp33)
          to label %invoke.cont.i18 unwind label %lpad.i17

invoke.cont.i18:                                  ; preds = %.noexc19
  invoke void @_ZN7testing15AssertionResult13AppendMessageERKNS_7MessageE(ptr noundef nonnull align 8 dereferenceable(16) %ref.tmp31, ptr noundef nonnull align 8 dereferenceable(8) %ref.tmp.i16)
          to label %invoke.cont2.i unwind label %lpad.i17

invoke.cont2.i:                                   ; preds = %invoke.cont.i18
  %12 = load ptr, ptr %ref.tmp.i16, align 8
  %cmp.not.i.i.i = icmp eq ptr %12, null
  br i1 %cmp.not.i.i.i, label %invoke.cont37, label %_ZNKSt14default_deleteINSt7__cxx1118basic_stringstreamIcSt11char_traitsIcESaIcEEEEclEPS5_.exit.i.i.i

_ZNKSt14default_deleteINSt7__cxx1118basic_stringstreamIcSt11char_traitsIcESaIcEEEEclEPS5_.exit.i.i.i: ; preds = %invoke.cont2.i
  %vtable.i.i.i.i = load ptr, ptr %12, align 8
  %vfn.i.i.i.i = getelementptr inbounds ptr, ptr %vtable.i.i.i.i, i64 1
  %13 = load ptr, ptr %vfn.i.i.i.i, align 8
  call void %13(ptr noundef nonnull align 8 dereferenceable(128) %12) #28
  br label %invoke.cont37

lpad.i17:                                         ; preds = %invoke.cont.i18, %.noexc19
  %14 = landingpad { ptr, i32 }
          cleanup
  %15 = load ptr, ptr %ref.tmp.i16, align 8
  %cmp.not.i.i2.i = icmp eq ptr %15, null
  br i1 %cmp.not.i.i2.i, label %lpad36.body, label %_ZNKSt14default_deleteINSt7__cxx1118basic_stringstreamIcSt11char_traitsIcESaIcEEEEclEPS5_.exit.i.i3.i

_ZNKSt14default_deleteINSt7__cxx1118basic_stringstreamIcSt11char_traitsIcESaIcEEEEclEPS5_.exit.i.i3.i: ; preds = %lpad.i17
  %vtable.i.i.i4.i = load ptr, ptr %15, align 8
  %vfn.i.i.i5.i = getelementptr inbounds ptr, ptr %vtable.i.i.i4.i, i64 1
  %16 = load ptr, ptr %vfn.i.i.i5.i, align 8
  call void %16(ptr noundef nonnull align 8 dereferenceable(128) %15) #28
  br label %lpad36.body

invoke.cont37:                                    ; preds = %_ZNKSt14default_deleteINSt7__cxx1118basic_stringstreamIcSt11char_traitsIcESaIcEEEEclEPS5_.exit.i.i.i, %invoke.cont2.i
  call void @llvm.lifetime.end.p0(i64 8, ptr nonnull %ref.tmp.i16)
  invoke void @_ZN7testing15AssertionResultC1ERKS0_(ptr noundef nonnull align 8 dereferenceable(16) %agg.result, ptr noundef nonnull align 8 dereferenceable(16) %ref.tmp31)
          to label %invoke.cont39 unwind label %lpad36

invoke.cont39:                                    ; preds = %invoke.cont37
  call void @_ZNSt7__cxx1112basic_stringIcSt11char_traitsIcESaIcEED1Ev(ptr noundef nonnull align 8 dereferenceable(32) %ref.tmp33) #28
  %message_.i = getelementptr inbounds %"class.testing::AssertionResult", ptr %ref.tmp31, i64 0, i32 1
  %17 = load ptr, ptr %message_.i, align 8
  %cmp.not.i.i = icmp eq ptr %17, null
  br i1 %cmp.not.i.i, label %_ZN7testing15AssertionResultD2Ev.exit, label %_ZNKSt14default_deleteINSt7__cxx1112basic_stringIcSt11char_traitsIcESaIcEEEEclEPS5_.exit.i.i

_ZNKSt14default_deleteINSt7__cxx1112basic_stringIcSt11char_traitsIcESaIcEEEEclEPS5_.exit.i.i: ; preds = %invoke.cont39
  call void @_ZNSt7__cxx1112basic_stringIcSt11char_traitsIcESaIcEED1Ev(ptr noundef nonnull align 8 dereferenceable(32) %17) #28
  call void @_ZdlPv(ptr noundef nonnull %17) #29
  br label %_ZN7testing15AssertionResultD2Ev.exit

_ZN7testing15AssertionResultD2Ev.exit:            ; preds = %invoke.cont39, %_ZNKSt14default_deleteINSt7__cxx1112basic_stringIcSt11char_traitsIcESaIcEEEEclEPS5_.exit.i.i
  store ptr null, ptr %message_.i, align 8
  store ptr getelementptr inbounds ({ [4 x ptr] }, ptr @_ZTVN7testing25StringMatchResultListenerE, i64 0, inrange i32 0, i64 2), ptr %listener, align 8
  call void @_ZNSt7__cxx1118basic_stringstreamIcSt11char_traitsIcESaIcEED1Ev(ptr noundef nonnull align 8 dereferenceable(128) %ss_.i) #28
  call void @_ZNSt7__cxx1118basic_stringstreamIcSt11char_traitsIcESaIcEED1Ev(ptr noundef nonnull align 8 dereferenceable(128) %ss) #28
  br label %cleanup

lpad28:                                           ; preds = %invoke.cont27
  %18 = landingpad { ptr, i32 }
          cleanup
  call void @_ZNSt7__cxx1112basic_stringIcSt11char_traitsIcESaIcEED1Ev(ptr noundef nonnull align 8 dereferenceable(32) %ref.tmp) #28
  br label %ehcleanup40

lpad34:                                           ; preds = %invoke.cont32
  %19 = landingpad { ptr, i32 }
          cleanup
  br label %ehcleanup

lpad36:                                           ; preds = %invoke.cont35, %invoke.cont37
  %20 = landingpad { ptr, i32 }
          cleanup
  br label %lpad36.body

lpad36.body:                                      ; preds = %lpad.i17, %_ZNKSt14default_deleteINSt7__cxx1118basic_stringstreamIcSt11char_traitsIcESaIcEEEEclEPS5_.exit.i.i3.i, %lpad36
  %eh.lpad-body20 = phi { ptr, i32 } [ %20, %lpad36 ], [ %14, %_ZNKSt14default_deleteINSt7__cxx1118basic_stringstreamIcSt11char_traitsIcESaIcEEEEclEPS5_.exit.i.i3.i ], [ %14, %lpad.i17 ]
  call void @_ZNSt7__cxx1112basic_stringIcSt11char_traitsIcESaIcEED1Ev(ptr noundef nonnull align 8 dereferenceable(32) %ref.tmp33) #28
  br label %ehcleanup

ehcleanup:                                        ; preds = %lpad36.body, %lpad34
  %.pn = phi { ptr, i32 } [ %eh.lpad-body20, %lpad36.body ], [ %19, %lpad34 ]
  call void @_ZN7testing15AssertionResultD2Ev(ptr noundef nonnull align 8 dereferenceable(16) %ref.tmp31) #28
  br label %ehcleanup40

ehcleanup40:                                      ; preds = %ehcleanup, %lpad28, %lpad16
  %.pn.pn = phi { ptr, i32 } [ %.pn, %ehcleanup ], [ %10, %lpad16 ], [ %18, %lpad28 ]
  store ptr getelementptr inbounds ({ [4 x ptr] }, ptr @_ZTVN7testing25StringMatchResultListenerE, i64 0, inrange i32 0, i64 2), ptr %listener, align 8
  call void @_ZNSt7__cxx1118basic_stringstreamIcSt11char_traitsIcESaIcEED1Ev(ptr noundef nonnull align 8 dereferenceable(128) %ss_.i) #28
  br label %ehcleanup41

ehcleanup41:                                      ; preds = %lpad4, %lpad.i, %ehcleanup40
  %.pn.pn.pn = phi { ptr, i32 } [ %.pn.pn, %ehcleanup40 ], [ %9, %lpad4 ], [ %6, %lpad.i ]
  call void @_ZNSt7__cxx1118basic_stringstreamIcSt11char_traitsIcESaIcEED1Ev(ptr noundef nonnull align 8 dereferenceable(128) %ss) #28
  br label %ehcleanup42

cleanup:                                          ; preds = %if.then, %_ZN7testing15AssertionResultD2Ev.exit
  store ptr getelementptr inbounds ({ [6 x ptr] }, ptr @_ZTVN7testing8internal11MatcherBaseIRKSt6vectorIiSaIiEEEE, i64 0, inrange i32 0, i64 2), ptr %matcher, align 8
  %21 = load ptr, ptr %vtable_.i.i, align 8
  %cmp.not.i.i.i.i = icmp eq ptr %21, null
  br i1 %cmp.not.i.i.i.i, label %_ZN7testing7MatcherIRKSt6vectorIiSaIiEEED2Ev.exit, label %_ZNK7testing8internal11MatcherBaseIRKSt6vectorIiSaIiEEE8IsSharedEv.exit.i.i.i

_ZNK7testing8internal11MatcherBaseIRKSt6vectorIiSaIiEEE8IsSharedEv.exit.i.i.i: ; preds = %cleanup
