; ModuleID = 'bench/llama.cpp/original/train.cpp.ll'
source_filename = "bench/llama.cpp/original/train.cpp.ll"
target datalayout = "e-m:e-p270:32:32-p271:32:32-p272:64:64-i64:64-i128:128-f80:128-n8:16:32:64-S128"
target triple = "x86_64-unknown-linux-gnu"

%"class.std::ios_base::Init" = type { i8 }
%struct.ggml_opt_params = type { i32, i64, i32, i32, float, i32, i8, i8, i32, %struct.anon, %struct.anon.0 }
%struct.anon = type { i32, float, float, i32, float, float, float, float, float, float, float }
%struct.anon.0 = type { i32, i32, i32, float, float, float, float, float, i32 }
%"class.std::mersenne_twister_engine" = type { [624 x i64], i64 }
%"class.std::__cxx11::basic_stringstream" = type { %"class.std::basic_iostream.base", %"class.std::__cxx11::basic_stringbuf", %"class.std::basic_ios" }
%"class.std::basic_iostream.base" = type { %"class.std::basic_istream.base", %"class.std::basic_ostream.base" }
%"class.std::basic_istream.base" = type { ptr, i64 }
%"class.std::basic_ostream.base" = type { ptr }
%"class.std::__cxx11::basic_stringbuf" = type { %"class.std::basic_streambuf", i32, %"class.std::__cxx11::basic_string" }
%"class.std::basic_streambuf" = type { ptr, ptr, ptr, ptr, ptr, ptr, ptr, %"class.std::locale" }
%"class.std::locale" = type { ptr }
%"class.std::__cxx11::basic_string" = type { %"struct.std::__cxx11::basic_string<char>::_Alloc_hider", i64, %union.anon }
%"struct.std::__cxx11::basic_string<char>::_Alloc_hider" = type { ptr }
%union.anon = type { i64, [8 x i8] }
%"class.std::basic_ios" = type { %"class.std::ios_base", ptr, i8, i8, ptr, ptr, ptr, ptr }
%"class.std::ios_base" = type { ptr, i64, i64, i32, i32, i32, ptr, %"struct.std::ios_base::_Words", [8 x %"struct.std::ios_base::_Words"], i32, ptr, %"class.std::locale" }
%"struct.std::ios_base::_Words" = type { ptr, i64 }
%"class.std::vector" = type { %"struct.std::_Vector_base" }
%"struct.std::_Vector_base" = type { %"struct.std::_Vector_base<unsigned long, std::allocator<unsigned long>>::_Vector_impl" }
%"struct.std::_Vector_base<unsigned long, std::allocator<unsigned long>>::_Vector_impl" = type { %"struct.std::_Vector_base<unsigned long, std::allocator<unsigned long>>::_Vector_impl_data" }
%"struct.std::_Vector_base<unsigned long, std::allocator<unsigned long>>::_Vector_impl_data" = type { ptr, ptr, ptr }
%"class.std::vector.6" = type { %"struct.std::_Vector_base.7" }
%"struct.std::_Vector_base.7" = type { %"struct.std::_Vector_base<unsigned int, std::allocator<unsigned int>>::_Vector_impl" }
%"struct.std::_Vector_base<unsigned int, std::allocator<unsigned int>>::_Vector_impl" = type { %"struct.std::_Vector_base<unsigned int, std::allocator<unsigned int>>::_Vector_impl_data" }
%"struct.std::_Vector_base<unsigned int, std::allocator<unsigned int>>::_Vector_impl_data" = type { ptr, ptr, ptr }
%"class.std::allocator" = type { i8 }
%struct.llama_file = type { ptr, i64 }
%"class.std::vector.18" = type { %"struct.std::_Vector_base.19" }
%"struct.std::_Vector_base.19" = type { %"struct.std::_Vector_base<char, std::allocator<char>>::_Vector_impl" }
%"struct.std::_Vector_base<char, std::allocator<char>>::_Vector_impl" = type { %"struct.std::_Vector_base<char, std::allocator<char>>::_Vector_impl_data" }
%"struct.std::_Vector_base<char, std::allocator<char>>::_Vector_impl_data" = type { ptr, ptr, ptr }
%"class.std::vector.13" = type { %"struct.std::_Vector_base.14" }
%"struct.std::_Vector_base.14" = type { %"struct.std::_Vector_base<int, std::allocator<int>>::_Vector_impl" }
%"struct.std::_Vector_base<int, std::allocator<int>>::_Vector_impl" = type { %"struct.std::_Vector_base<int, std::allocator<int>>::_Vector_impl_data" }
%"struct.std::_Vector_base<int, std::allocator<int>>::_Vector_impl_data" = type { ptr, ptr, ptr }
%struct.train_params_common = type <{ ptr, ptr, ptr, ptr, ptr, i8, [3 x i8], i32, i32, i32, i32, i32, i32, i32, i32, i8, i8, i8, i8, %"class.std::__cxx11::basic_string", i8, i8, i8, i8, i8, i8, i8, i8, i32, i32, float, float, i8, [3 x i8], i32, float, i32, i32, float, float, float, i32, float, float, float, float, [4 x i8] }>

$_ZStlsImLm32ELm624ELm397ELm31ETnT_Lm2567483615ELm11ETnS0_Lm4294967295ELm7ETnS0_Lm2636928640ELm15ETnS0_Lm4022730752ELm18ETnS0_Lm1812433253EcSt11char_traitsIcEERSt13basic_ostreamIT13_T14_ES7_RKSt23mersenne_twister_engineIS0_XT0_EXT1_EXT2_EXT3_EXT4_EXT5_EXT6_EXT7_EXT8_EXT9_EXT10_EXT11_EXT12_EE = comdat any

$_ZNSt23mersenne_twister_engineImLm32ELm624ELm397ELm31ELm2567483615ELm11ELm4294967295ELm7ELm2636928640ELm15ELm4022730752ELm18ELm1812433253EEclEv = comdat any

$_ZN10llama_fileC2EPKcS1_ = comdat any

$_ZN10llama_file8read_rawEPvm = comdat any

$_ZNSt6vectorIcSaIcEED2Ev = comdat any

$_ZNSt7__cxx119to_stringEl = comdat any

$_ZNSt7__cxx114stoiERKNS_12basic_stringIcSt11char_traitsIcESaIcEEEPmi = comdat any

$_ZNSt7__cxx114stofERKNS_12basic_stringIcSt11char_traitsIcESaIcEEEPm = comdat any

$__clang_call_terminate = comdat any

$_ZNSt19normal_distributionIfEclISt23mersenne_twister_engineImLm32ELm624ELm397ELm31ELm2567483615ELm11ELm4294967295ELm7ELm2636928640ELm15ELm4022730752ELm18ELm1812433253EEEEfRT_RKNS0_10param_typeE = comdat any

$_ZNSt6vectorImSaImEE17_M_default_appendEm = comdat any

$_ZNSt6vectorIjSaIjEE17_M_default_appendEm = comdat any

$_ZNSt6vectorIiSaIiEE17_M_default_appendEm = comdat any

$_ZNSt6vectorImSaImEE14_M_fill_insertEN9__gnu_cxx17__normal_iteratorIPmS1_EEmRKm = comdat any

$_ZNSt6vectorIiSaIiEE15_M_range_insertIN9__gnu_cxx17__normal_iteratorIPiS1_EEEEvS6_T_S7_St20forward_iterator_tag = comdat any

$_ZZNSt8__detail18__to_chars_10_implImEEvPcjT_E8__digits = comdat any

@_ZStL8__ioinit = internal global %"class.std::ios_base::Init" zeroinitializer, align 1
@__dso_handle = external hidden global i8
@.str = private unnamed_addr constant [1 x i8] zeroinitializer, align 1
@.str.1 = private unnamed_addr constant [35 x i8] c"error: Unsupported tensor->n_dims\0A\00", align 1
@stderr = external local_unnamed_addr global ptr, align 8
@stdout = external local_unnamed_addr global ptr, align 8
@.str.2 = private unnamed_addr constant [24 x i8] c"GGML_ASSERT: %s:%d: %s\0A\00", align 1
@.str.3 = private unnamed_addr constant [114 x i8] c"generated/home/dtcxzyw/WorkSpace/Projects/compilers/llvm-opt-benchmark/bench/llama.cpp/llama.cpp/common/train.cpp\00", align 1
@.str.4 = private unnamed_addr constant [21 x i8] c"tensor->ne[0] == ne0\00", align 1
@.str.5 = private unnamed_addr constant [19 x i8] c"tensor->ne[1] == 1\00", align 1
@.str.6 = private unnamed_addr constant [19 x i8] c"tensor->ne[2] == 1\00", align 1
@.str.7 = private unnamed_addr constant [19 x i8] c"tensor->ne[3] == 1\00", align 1
@.str.8 = private unnamed_addr constant [21 x i8] c"tensor->ne[1] == ne1\00", align 1
@.str.9 = private unnamed_addr constant [21 x i8] c"tensor->ne[2] == ne2\00", align 1
@.str.10 = private unnamed_addr constant [21 x i8] c"tensor->ne[3] == ne3\00", align 1
@.str.11 = private unnamed_addr constant [18 x i8] c"samples_count > 0\00", align 1
@.str.12 = private unnamed_addr constant [29 x i8] c"ggml_is_matrix(tokens_input)\00", align 1
@.str.13 = private unnamed_addr constant [25 x i8] c"ggml_is_3d(target_probs)\00", align 1
@.str.15 = private unnamed_addr constant [32 x i8] c"n_tokens == target_probs->ne[1]\00", align 1
@.str.16 = private unnamed_addr constant [31 x i8] c"n_batch == target_probs->ne[2]\00", align 1
@.str.17 = private unnamed_addr constant [42 x i8] c"sample_begin+sample_size-1 < n_train_data\00", align 1
@.str.18 = private unnamed_addr constant [7 x i8] c"%.1fms\00", align 1
@.str.19 = private unnamed_addr constant [7 x i8] c"%lldd \00", align 1
@.str.20 = private unnamed_addr constant [21 x i8] c"%02lld:%02lld:%02lld\00", align 1
@.str.22 = private unnamed_addr constant [34 x i8] c"error: key %s has wrong type: %s\0A\00", align 1
@.str.23 = private unnamed_addr constant [35 x i8] c"error: key not found in model: %s\0A\00", align 1
@.str.24 = private unnamed_addr constant [18 x i8] c"file_version == 0\00", align 1
@.str.25 = private unnamed_addr constant [32 x i8] c"error: unknown optimizer type\0A\0A\00", align 1
@.str.26 = private unnamed_addr constant [18 x i8] c"file_version <= 1\00", align 1
@.str.27 = private unnamed_addr constant [3 x i8] c"rb\00", align 1
@.str.28 = private unnamed_addr constant [60 x i8] c"%s: warning: empty or not existing training data file '%s'\0A\00", align 1
@__func__._Z13tokenize_fileP13llama_contextPKcRKNSt7__cxx1112basic_stringIcSt11char_traitsIcESaIcEEEbbjRSt6vectorIiSaIiEERSB_ImSaImEESH_ = private unnamed_addr constant [14 x i8] c"tokenize_file\00", align 1
@.str.29 = private unnamed_addr constant [89 x i8] c"%s: warning: sample start pattern '%s' not found. inserting single sample at data begin\0A\00", align 1
@.str.30 = private unnamed_addr constant [14 x i8] c"n_tokens >= 0\00", align 1
@.str.31 = private unnamed_addr constant [36 x i8] c"n_tokens <= (int) tok_sample.size()\00", align 1
@.str.32 = private unnamed_addr constant [108 x i8] c"%s: warning: found %zu samples (max length %zu) that exceed context length of %u. samples will be cut off.\0A\00", align 1
@.str.33 = private unnamed_addr constant [93 x i8] c"%s: warning: found %zu samples (min length %zu) that are shorter than context length of %u.\0A\00", align 1
@.str.34 = private unnamed_addr constant [39 x i8] c"%s: warning: found %zu empty samples.\0A\00", align 1
@.str.35 = private unnamed_addr constant [34 x i8] c"%s: total number of samples: %zu\0A\00", align 1
@.str.36 = private unnamed_addr constant [52 x i8] c"out_samples_begin.size() == out_samples_size.size()\00", align 1
@.str.37 = private unnamed_addr constant [16 x i8] c"shakespeare.txt\00", align 1
@.str.38 = private unnamed_addr constant [16 x i8] c"checkpoint.gguf\00", align 1
@.str.39 = private unnamed_addr constant [26 x i8] c"checkpoint-ITERATION.gguf\00", align 1
@.str.40 = private unnamed_addr constant [10 x i8] c"ITERATION\00", align 1
@.str.41 = private unnamed_addr constant [7 x i8] c"LATEST\00", align 1
@.str.42 = private unnamed_addr constant [83 x i8] c"  --train-data FNAME         path from which to load training data (default '%s')\0A\00", align 1
@.str.43 = private unnamed_addr constant [89 x i8] c"  --checkpoint-in FNAME      path from which to load training checkpoint (default '%s')\0A\00", align 1
@.str.44 = private unnamed_addr constant [78 x i8] c"  --checkpoint-out FNAME     path to save training checkpoint (default '%s')\0A\00", align 1
@.str.45 = private unnamed_addr constant [108 x i8] c"  --pattern-fn-it STR        pattern in output filenames to be replaced by iteration number (default '%s')\0A\00", align 1
@.str.46 = private unnamed_addr constant [112 x i8] c"  --fn-latest STR            string to use instead of iteration number for saving latest output (default '%s')\0A\00", align 1
@.str.47 = private unnamed_addr constant [112 x i8] c"  --save-every N             save checkpoint and lora every N iterations. Disabled when N <= 0. (default '%d')\0A\00", align 1
@.str.48 = private unnamed_addr constant [77 x i8] c"  -s SEED, --seed SEED       RNG seed (default: -1, use random seed for -1)\0A\00", align 1
@.str.49 = private unnamed_addr constant [77 x i8] c"  -c N, --ctx N              Context size used during training (default %d)\0A\00", align 1
@.str.50 = private unnamed_addr constant [61 x i8] c"  -t N, --threads N          Number of threads (default %d)\0A\00", align 1
@.str.51 = private unnamed_addr constant [63 x i8] c"  -b N, --batch N            Parallel batch size (default %d)\0A\00", align 1
@.str.52 = private unnamed_addr constant [128 x i8] c"  --grad-acc N               Number of gradient accumulation steps (simulates larger batch size of batch*gradacc) (default %d)\0A\00", align 1
@.str.53 = private unnamed_addr constant [161 x i8] c"  --sample-start STR         Sets the starting point for samples after the specified pattern. If empty use every token position as sample start. (default '%s')\0A\00", align 1
@.str.54 = private unnamed_addr constant [85 x i8] c"  --include-sample-start     Include the sample start in the samples. (default off)\0A\00", align 1
@.str.55 = private unnamed_addr constant [94 x i8] c"  --escape                   process sample start escapes sequences (\\n, \\r, \\t, \\', \\\22, \\\\)\0A\00", align 1
@.str.56 = private unnamed_addr constant [175 x i8] c"  --overlapping-samples      Samples my overlap, will include sample-start of second and following samples. When off, samples will end at begin of next sample. (default off)\0A\00", align 1
@.str.57 = private unnamed_addr constant [129 x i8] c"  --fill-with-next-samples   Samples shorter than context length will be followed by the next (shuffled) samples. (default off)\0A\00", align 1
@.str.58 = private unnamed_addr constant [107 x i8] c"  --separate-with-eos        When fill-with-next-samples, insert end-of-sequence token between samples.%s\0A\00", align 1
@.str.59 = private unnamed_addr constant [11 x i8] c" (default)\00", align 1
@.str.60 = private unnamed_addr constant [109 x i8] c"  --separate-with-bos        When fill-with-next-samples, insert begin-of-sequence token between samples.%s\0A\00", align 1
@.str.61 = private unnamed_addr constant [113 x i8] c"  --no-separate-with-eos     When fill-with-next-samples, don't insert end-of-sequence token between samples.%s\0A\00", align 1
@.str.62 = private unnamed_addr constant [115 x i8] c"  --no-separate-with-bos     When fill-with-next-samples, don't insert begin-of-sequence token between samples.%s\0A\00", align 1
@.str.63 = private unnamed_addr constant [162 x i8] c"  --sample-random-offsets    Use samples beginning at random offsets. Together with fill-with-next-samples this may help for training endless text generation.%s\0A\00", align 1
@.str.64 = private unnamed_addr constant [133 x i8] c"  --force-reshuffle          Force a reshuffling of data at program start, otherwise the shuffling of loaded checkpoint is resumed.\0A\00", align 1
@.str.65 = private unnamed_addr constant [57 x i8] c"  --no-flash                 Don't use flash attention \0A\00", align 1
@.str.66 = private unnamed_addr constant [60 x i8] c"  --use-flash                Use flash attention (default)\0A\00", align 1
@.str.67 = private unnamed_addr constant [63 x i8] c"  --no-checkpointing         Don't use gradient checkpointing\0A\00", align 1
@.str.68 = private unnamed_addr constant [67 x i8] c"  --use-checkpointing        Use gradient checkpointing (default)\0A\00", align 1
@.str.69 = private unnamed_addr constant [91 x i8] c"  --warmup N                 Only for Adam optimizer. Number of warmup steps (default %d)\0A\00", align 1
@.str.70 = private unnamed_addr constant [97 x i8] c"  --cos-decay-steps N        Only for Adam optimizer. Number of cosine decay steps (default %d)\0A\00", align 1
@.str.71 = private unnamed_addr constant [113 x i8] c"  --cos-decay-restart N      Only for Adam optimizer. Increase of cosine decay steps after restart (default %f)\0A\00", align 1
@.str.72 = private unnamed_addr constant [89 x i8] c"  --cos-decay-min N          Only for Adam optimizer. Cosine decay minimum (default %f)\0A\00", align 1
@.str.73 = private unnamed_addr constant [87 x i8] c"  --enable-restart N         Only for Adam optimizer. Enable restarts of cos-decay %s\0A\00", align 1
@.str.74 = private unnamed_addr constant [10 x i8] c"(default)\00", align 1
@.str.75 = private unnamed_addr constant [88 x i8] c"  --disable-restart N        Only for Adam optimizer. Disable restarts of cos-decay %s\0A\00", align 1
@.str.76 = private unnamed_addr constant [134 x i8] c"  --opt-past N               Number of optimization iterations to track for delta convergence test. Disabled when zero. (default %d)\0A\00", align 1
@.str.77 = private unnamed_addr constant [108 x i8] c"  --opt-delta N              Maximum delta for delta convergence test. Disabled when <= zero. (default %f)\0A\00", align 1
@.str.78 = private unnamed_addr constant [129 x i8] c"  --opt-max-no-improvement N Maximum number of optimization iterations with no improvement. Disabled when <= zero. (default %d)\0A\00", align 1
@.str.79 = private unnamed_addr constant [77 x i8] c"  --epochs N                 Maximum number epochs to process. (default %d)\0A\00", align 1
@.str.80 = private unnamed_addr constant [105 x i8] c"  --adam-iter N              Maximum number of Adam optimization iterations for each batch (default %d)\0A\00", align 1
@.str.81 = private unnamed_addr constant [68 x i8] c"  --adam-alpha N             Adam learning rate alpha (default %f)\0A\00", align 1
@.str.82 = private unnamed_addr constant [101 x i8] c"  --adam-min-alpha N         Adam minimum learning rate alpha - including warmup phase (default %f)\0A\00", align 1
@.str.83 = private unnamed_addr constant [121 x i8] c"  --adam-decay N             AdamW weight decay. Values greater zero enable AdamW instead of regular Adam. (default %f)\0A\00", align 1
@.str.84 = private unnamed_addr constant [165 x i8] c"  --adam-decay-min-ndim N    Minimum number of tensor dimensions to apply AdamW weight decay. Weight decay is not applied to tensors with less n_dims. (default %d)\0A\00", align 1
@.str.85 = private unnamed_addr constant [124 x i8] c"  --adam-beta1 N             AdamW beta1 in interval [0,1). How much to smooth the first moment of gradients. (default %f)\0A\00", align 1
@.str.86 = private unnamed_addr constant [125 x i8] c"  --adam-beta2 N             AdamW beta2 in interval [0,1). How much to smooth the second moment of gradients. (default %f)\0A\00", align 1
@.str.87 = private unnamed_addr constant [88 x i8] c"  --adam-gclip N             AdamW gradient clipping. Disabled when zero. (default %f)\0A\00", align 1
@.str.88 = private unnamed_addr constant [102 x i8] c"  --adam-epsf N              AdamW epsilon for convergence test. Disabled when <= zero. (default %f)\0A\00", align 1
@.str.89 = private unnamed_addr constant [83 x i8] c"  -ngl N, --n-gpu-layers N   Number of model layers to offload to GPU (default %d)\00", align 1
@.str.91 = private unnamed_addr constant [3 x i8] c"--\00", align 1
@.str.92 = private unnamed_addr constant [13 x i8] c"--train-data\00", align 1
@.str.93 = private unnamed_addr constant [16 x i8] c"--checkpoint-in\00", align 1
@.str.94 = private unnamed_addr constant [17 x i8] c"--checkpoint-out\00", align 1
@.str.95 = private unnamed_addr constant [16 x i8] c"--pattern-fn-it\00", align 1
@.str.96 = private unnamed_addr constant [12 x i8] c"--fn-latest\00", align 1
@.str.97 = private unnamed_addr constant [13 x i8] c"--save-every\00", align 1
@.str.98 = private unnamed_addr constant [3 x i8] c"-s\00", align 1
@.str.99 = private unnamed_addr constant [7 x i8] c"--seed\00", align 1
@.str.100 = private unnamed_addr constant [3 x i8] c"-c\00", align 1
@.str.101 = private unnamed_addr constant [6 x i8] c"--ctx\00", align 1
@.str.102 = private unnamed_addr constant [3 x i8] c"-t\00", align 1
@.str.103 = private unnamed_addr constant [10 x i8] c"--threads\00", align 1
@.str.104 = private unnamed_addr constant [3 x i8] c"-b\00", align 1
@.str.105 = private unnamed_addr constant [8 x i8] c"--batch\00", align 1
@.str.106 = private unnamed_addr constant [11 x i8] c"--grad-acc\00", align 1
@.str.107 = private unnamed_addr constant [15 x i8] c"--sample-start\00", align 1
@.str.108 = private unnamed_addr constant [9 x i8] c"--escape\00", align 1
@.str.109 = private unnamed_addr constant [23 x i8] c"--include-sample-start\00", align 1
@.str.110 = private unnamed_addr constant [22 x i8] c"--overlapping-samples\00", align 1
@.str.111 = private unnamed_addr constant [25 x i8] c"--fill-with-next-samples\00", align 1
@.str.112 = private unnamed_addr constant [20 x i8] c"--separate-with-eos\00", align 1
@.str.113 = private unnamed_addr constant [20 x i8] c"--separate-with-bos\00", align 1
@.str.114 = private unnamed_addr constant [23 x i8] c"--no-separate-with-eos\00", align 1
@.str.115 = private unnamed_addr constant [23 x i8] c"--no-separate-with-bos\00", align 1
@.str.116 = private unnamed_addr constant [24 x i8] c"--sample-random-offsets\00", align 1
@.str.117 = private unnamed_addr constant [18 x i8] c"--force-reshuffle\00", align 1
@.str.118 = private unnamed_addr constant [11 x i8] c"--no-flash\00", align 1
@.str.119 = private unnamed_addr constant [12 x i8] c"--use-flash\00", align 1
@.str.120 = private unnamed_addr constant [19 x i8] c"--no-checkpointing\00", align 1
@.str.121 = private unnamed_addr constant [20 x i8] c"--use-checkpointing\00", align 1
@.str.122 = private unnamed_addr constant [9 x i8] c"--warmup\00", align 1
@.str.123 = private unnamed_addr constant [18 x i8] c"--cos-decay-steps\00", align 1
@.str.124 = private unnamed_addr constant [20 x i8] c"--cos-decay-restart\00", align 1
@.str.125 = private unnamed_addr constant [16 x i8] c"--cos-decay-min\00", align 1
@.str.126 = private unnamed_addr constant [17 x i8] c"--enable-restart\00", align 1
@.str.127 = private unnamed_addr constant [18 x i8] c"--disable-restart\00", align 1
@.str.128 = private unnamed_addr constant [11 x i8] c"--opt-past\00", align 1
@.str.129 = private unnamed_addr constant [12 x i8] c"--opt-delta\00", align 1
@.str.130 = private unnamed_addr constant [25 x i8] c"--opt-max-no-improvement\00", align 1
@.str.131 = private unnamed_addr constant [12 x i8] c"--adam-epsf\00", align 1
@.str.132 = private unnamed_addr constant [9 x i8] c"--epochs\00", align 1
@.str.133 = private unnamed_addr constant [12 x i8] c"--adam-iter\00", align 1
@.str.134 = private unnamed_addr constant [13 x i8] c"--adam-alpha\00", align 1
@.str.135 = private unnamed_addr constant [17 x i8] c"--adam-min-alpha\00", align 1
@.str.136 = private unnamed_addr constant [13 x i8] c"--adam-decay\00", align 1
@.str.137 = private unnamed_addr constant [22 x i8] c"--adam-decay-min-ndim\00", align 1
@.str.138 = private unnamed_addr constant [13 x i8] c"--adam-beta1\00", align 1
@.str.139 = private unnamed_addr constant [13 x i8] c"--adam-beta2\00", align 1
@.str.140 = private unnamed_addr constant [13 x i8] c"--adam-gclip\00", align 1
@.str.141 = private unnamed_addr constant [5 x i8] c"-ngl\00", align 1
@.str.142 = private unnamed_addr constant [15 x i8] c"--n-gpu-layers\00", align 1
@.str.143 = private unnamed_addr constant [87 x i8] c"warning: not compiled with GPU offload support, --n-gpu-layers option will be ignored\0A\00", align 1
@.str.144 = private unnamed_addr constant [74 x i8] c"warning: see main README.md for information on enabling GPU BLAS support\0A\00", align 1
@.str.145 = private unnamed_addr constant [3 x i8] c"-h\00", align 1
@.str.146 = private unnamed_addr constant [7 x i8] c"--help\00", align 1
@.str.147 = private unnamed_addr constant [45 x i8] c"%s: iter=%6d sample=%zu/%zu sched=%f loss=%f\00", align 1
@__func__._Z18train_opt_callbackPviPfPb = private unnamed_addr constant [19 x i8] c"train_opt_callback\00", align 1
@.str.148 = private unnamed_addr constant [5 x i8] c" dt=\00", align 1
@.str.149 = private unnamed_addr constant [6 x i8] c" eta=\00", align 1
@.str.150 = private unnamed_addr constant [3 x i8] c" |\00", align 1
@.str.153 = private unnamed_addr constant [47 x i8] c"%s: reshuffle samples. completed epochs: %llu\0A\00", align 1
@.str.155 = private unnamed_addr constant [10 x i8] c"b != NULL\00", align 1
@.str.156 = private unnamed_addr constant [19 x i8] c"a->type == b->type\00", align 1
@.str.157 = private unnamed_addr constant [26 x i8] c"ggml_are_same_shape(a, b)\00", align 1
@.str.158 = private unnamed_addr constant [47 x i8] c"ggml_is_contiguous(a) && ggml_is_contiguous(b)\00", align 1
@.str.159 = private unnamed_addr constant [23 x i8] c"optimizer.file_version\00", align 1
@.str.160 = private unnamed_addr constant [33 x i8] c"optimizer.convergence_past_count\00", align 1
@.str.161 = private unnamed_addr constant [26 x i8] c"optimizer.iteration_count\00", align 1
@.str.162 = private unnamed_addr constant [27 x i8] c"optimizer.just_initialized\00", align 1
@.str.163 = private unnamed_addr constant [26 x i8] c"optimizer.parameter_count\00", align 1
@.str.164 = private unnamed_addr constant [15 x i8] c"optimizer.type\00", align 1
@.str.165 = private unnamed_addr constant [5 x i8] c"adam\00", align 1
@.str.166 = private unnamed_addr constant [25 x i8] c"optimizer.adam.best_loss\00", align 1
@.str.167 = private unnamed_addr constant [29 x i8] c"optimizer.adam.previous_loss\00", align 1
@.str.168 = private unnamed_addr constant [36 x i8] c"optimizer.adam.no_improvement_count\00", align 1
@.str.169 = private unnamed_addr constant [29 x i8] c"optimizer.adam.first_moments\00", align 1
@.str.170 = private unnamed_addr constant [30 x i8] c"optimizer.adam.second_moments\00", align 1
@.str.171 = private unnamed_addr constant [32 x i8] c"optimizer.adam.past_loss_values\00", align 1
@.str.172 = private unnamed_addr constant [6 x i8] c"lbfgs\00", align 1
@.str.173 = private unnamed_addr constant [37 x i8] c"optimizer.lbfgs.approx_hessian_count\00", align 1
@.str.174 = private unnamed_addr constant [26 x i8] c"optimizer.lbfgs.best_loss\00", align 1
@.str.175 = private unnamed_addr constant [33 x i8] c"optimizer.lbfgs.line_search_step\00", align 1
@.str.176 = private unnamed_addr constant [30 x i8] c"optimizer.lbfgs.line_search_j\00", align 1
@.str.177 = private unnamed_addr constant [30 x i8] c"optimizer.lbfgs.line_search_k\00", align 1
@.str.178 = private unnamed_addr constant [32 x i8] c"optimizer.lbfgs.line_search_end\00", align 1
@.str.179 = private unnamed_addr constant [37 x i8] c"optimizer.lbfgs.no_improvement_count\00", align 1
@.str.180 = private unnamed_addr constant [35 x i8] c"optimizer.lbfgs.current_parameters\00", align 1
@.str.181 = private unnamed_addr constant [36 x i8] c"optimizer.lbfgs.previous_parameters\00", align 1
@.str.182 = private unnamed_addr constant [34 x i8] c"optimizer.lbfgs.current_gradients\00", align 1
@.str.183 = private unnamed_addr constant [35 x i8] c"optimizer.lbfgs.previous_gradients\00", align 1
@.str.184 = private unnamed_addr constant [33 x i8] c"optimizer.lbfgs.search_direction\00", align 1
@.str.185 = private unnamed_addr constant [33 x i8] c"optimizer.lbfgs.past_loss_values\00", align 1
@.str.186 = private unnamed_addr constant [29 x i8] c"optimizer.lbfgs.memory_alpha\00", align 1
@.str.187 = private unnamed_addr constant [26 x i8] c"optimizer.lbfgs.memory_ys\00", align 1
@.str.188 = private unnamed_addr constant [25 x i8] c"optimizer.lbfgs.memory_s\00", align 1
@.str.189 = private unnamed_addr constant [25 x i8] c"optimizer.lbfgs.memory_y\00", align 1
@.str.190 = private unnamed_addr constant [22 x i8] c"training.file_version\00", align 1
@.str.191 = private unnamed_addr constant [25 x i8] c"training.iteration_count\00", align 1
@.str.192 = private unnamed_addr constant [22 x i8] c"training.sample_count\00", align 1
@.str.193 = private unnamed_addr constant [21 x i8] c"training.token_count\00", align 1
@.str.194 = private unnamed_addr constant [21 x i8] c"training.epoch_count\00", align 1
@.str.195 = private unnamed_addr constant [30 x i8] c"training.shuffle.samples_hash\00", align 1
@.str.196 = private unnamed_addr constant [27 x i8] c"training.shuffle.rng_state\00", align 1
@.str.197 = private unnamed_addr constant [30 x i8] c"training.shuffle.sample_count\00", align 1
@.str.198 = private unnamed_addr constant [29 x i8] c"training.shuffle.next_sample\00", align 1
@.str.199 = private unnamed_addr constant [9 x i8] c"ret == 0\00", align 1
@.str.200 = private unnamed_addr constant [10 x i8] c"ret != -1\00", align 1
@.str.201 = private unnamed_addr constant [23 x i8] c"error: read error: %s\0A\00", align 1
@.str.202 = private unnamed_addr constant [41 x i8] c"error: unexpectedly reached end of file\0A\00", align 1
@__const._ZL8utf8_lenc.lookup = private unnamed_addr constant [16 x i64] [i64 1, i64 1, i64 1, i64 1, i64 1, i64 1, i64 1, i64 1, i64 1, i64 1, i64 1, i64 1, i64 2, i64 2, i64 3, i64 4], align 16
@_ZZNSt8__detail18__to_chars_10_implImEEvPcjT_E8__digits = linkonce_odr local_unnamed_addr constant [201 x i8] c"00010203040506070809101112131415161718192021222324252627282930313233343536373839404142434445464748495051525354555657585960616263646566676869707172737475767778798081828384858687888990919293949596979899\00", comdat, align 16
@.str.203 = private unnamed_addr constant [5 x i8] c"stoi\00", align 1
@.str.204 = private unnamed_addr constant [5 x i8] c"stof\00", align 1
@.str.205 = private unnamed_addr constant [26 x i8] c"vector::_M_default_append\00", align 1
@.str.206 = private unnamed_addr constant [26 x i8] c"vector::_M_realloc_insert\00", align 1
@.str.207 = private unnamed_addr constant [23 x i8] c"vector::_M_fill_insert\00", align 1
@.str.208 = private unnamed_addr constant [24 x i8] c"vector::_M_range_insert\00", align 1
@llvm.global_ctors = appending global [1 x { i32, ptr, ptr }] [{ i32, ptr, ptr } { i32 65535, ptr @_GLOBAL__sub_I_train.cpp, ptr null }]

declare void @_ZNSt8ios_base4InitC1Ev(ptr noundef nonnull align 1 dereferenceable(1)) unnamed_addr #0

; Function Attrs: nounwind
declare void @_ZNSt8ios_base4InitD1Ev(ptr noundef nonnull align 1 dereferenceable(1)) unnamed_addr #1

; Function Attrs: nofree nounwind
declare i32 @__cxa_atexit(ptr, ptr, ptr) local_unnamed_addr #2

; Function Attrs: mustprogress uwtable
define noundef nonnull ptr @_Z16init_train_statev() local_unnamed_addr #3 {
entry:
  %ref.tmp = alloca %struct.ggml_opt_params, align 8
  %call = tail call noalias noundef nonnull dereferenceable(128) ptr @_Znwm(i64 noundef 128) #33
  %shuffle_rng_state_current.i = getelementptr inbounds i8, ptr %call, i64 48
  tail call void @_ZNSt7__cxx1112basic_stringIcSt11char_traitsIcESaIcEEC1Ev(ptr noundef nonnull align 8 dereferenceable(32) %shuffle_rng_state_current.i) #34
  %shuffle_rng_state_next.i = getelementptr inbounds i8, ptr %call, i64 80
  tail call void @_ZNSt7__cxx1112basic_stringIcSt11char_traitsIcESaIcEEC1Ev(ptr noundef nonnull align 8 dereferenceable(32) %shuffle_rng_state_next.i) #34
  %train_its = getelementptr inbounds i8, ptr %call, i64 8
  %shuffle_sample_count = getelementptr inbounds i8, ptr %call, i64 112
  tail call void @llvm.memset.p0.i64(ptr noundef nonnull align 8 dereferenceable(40) %train_its, i8 0, i64 40, i1 false)
  tail call void @llvm.memset.p0.i64(ptr noundef nonnull align 8 dereferenceable(16) %shuffle_sample_count, i8 0, i64 16, i1 false)
  %call1 = tail call noundef nonnull align 8 dereferenceable(32) ptr @_ZNSt7__cxx1112basic_stringIcSt11char_traitsIcESaIcEEaSEPKc(ptr noundef nonnull align 8 dereferenceable(32) %shuffle_rng_state_current.i, ptr noundef nonnull @.str)
  %call2 = tail call noundef nonnull align 8 dereferenceable(32) ptr @_ZNSt7__cxx1112basic_stringIcSt11char_traitsIcESaIcEEaSEPKc(ptr noundef nonnull align 8 dereferenceable(32) %shuffle_rng_state_next.i, ptr noundef nonnull @.str)
  %call3 = tail call noalias noundef nonnull dereferenceable(312) ptr @_Znwm(i64 noundef 312) #33
  store ptr %call3, ptr %call, align 8
  store ptr null, ptr %call3, align 8
  call void @ggml_opt_default_params(ptr nonnull sret(%struct.ggml_opt_params) align 8 %ref.tmp, i32 noundef 0)
  %0 = load ptr, ptr %call, align 8
  %params = getelementptr inbounds i8, ptr %0, i64 8
  call void @llvm.memcpy.p0.p0.i64(ptr noundef nonnull align 8 dereferenceable(120) %params, ptr noundef nonnull align 8 dereferenceable(120) %ref.tmp, i64 120, i1 false)
  %1 = load ptr, ptr %call, align 8
  %graph_size = getelementptr inbounds i8, ptr %1, i64 16
  store i64 16384, ptr %graph_size, align 8
  %2 = load ptr, ptr %call, align 8
  %loss_after = getelementptr inbounds i8, ptr %2, i64 152
  store float 0.000000e+00, ptr %loss_after, align 8
  ret ptr %call
}

; Function Attrs: nobuiltin allocsize(0)
declare noundef nonnull ptr @_Znwm(i64 noundef) local_unnamed_addr #4

declare noundef nonnull align 8 dereferenceable(32) ptr @_ZNSt7__cxx1112basic_stringIcSt11char_traitsIcESaIcEEaSEPKc(ptr noundef nonnull align 8 dereferenceable(32), ptr noundef) local_unnamed_addr #0

declare void @ggml_opt_default_params(ptr sret(%struct.ggml_opt_params) align 8, i32 noundef) local_unnamed_addr #0

; Function Attrs: mustprogress nocallback nofree nounwind willreturn memory(argmem: readwrite)
declare void @llvm.memcpy.p0.p0.i64(ptr noalias nocapture writeonly, ptr noalias nocapture readonly, i64, i1 immarg) #5

; Function Attrs: mustprogress nounwind uwtable
define void @_Z16free_train_stateP11train_state(ptr noundef %state) local_unnamed_addr #6 {
entry:
  %0 = load ptr, ptr %state, align 8
  %isnull = icmp eq ptr %0, null
  br i1 %isnull, label %delete.notnull2, label %delete.notnull

delete.notnull:                                   ; preds = %entry
  tail call void @_ZdlPv(ptr noundef nonnull %0) #35
  br label %delete.notnull2

delete.notnull2:                                  ; preds = %entry, %delete.notnull
  %shuffle_rng_state_next.i = getelementptr inbounds i8, ptr %state, i64 80
  tail call void @_ZNSt7__cxx1112basic_stringIcSt11char_traitsIcESaIcEED1Ev(ptr noundef nonnull align 8 dereferenceable(32) %shuffle_rng_state_next.i) #34
  %shuffle_rng_state_current.i = getelementptr inbounds i8, ptr %state, i64 48
  tail call void @_ZNSt7__cxx1112basic_stringIcSt11char_traitsIcESaIcEED1Ev(ptr noundef nonnull align 8 dereferenceable(32) %shuffle_rng_state_current.i) #34
  tail call void @_ZdlPv(ptr noundef nonnull %state) #35
  ret void
}

; Function Attrs: nobuiltin nounwind
declare void @_ZdlPv(ptr noundef) local_unnamed_addr #7

; Function Attrs: mustprogress nofree nounwind memory(readwrite, argmem: none) uwtable
define noalias noundef ptr @_Z31init_random_normal_distributioniffff(i32 noundef %seed, float noundef %mean, float noundef %std, float noundef %min, float noundef %max) local_unnamed_addr #8 {
entry:
  %ref.tmp = alloca %"class.std::mersenne_twister_engine", align 8
  %call = tail call noalias dereferenceable_or_null(5024) ptr @malloc(i64 noundef 5024) #36
  %conv = zext i32 %seed to i64
  store i64 %conv, ptr %ref.tmp, align 8
  br label %for.body.i.i

for.body.i.i:                                     ; preds = %for.body.i.i, %entry
  %0 = phi i64 [ %conv, %entry ], [ %rem.i.i10.i.i, %for.body.i.i ]
  %__i.011.i.i = phi i64 [ 1, %entry ], [ %inc.i.i, %for.body.i.i ]
  %shr.i.i = lshr i64 %0, 30
  %xor.i.i = xor i64 %shr.i.i, %0
  %mul.i.i = mul nuw nsw i64 %xor.i.i, 1812433253
  %add.i.i = add nuw i64 %mul.i.i, %__i.011.i.i
  %rem.i.i10.i.i = and i64 %add.i.i, 4294967295
  %arrayidx7.i.i = getelementptr inbounds [624 x i64], ptr %ref.tmp, i64 0, i64 %__i.011.i.i
  store i64 %rem.i.i10.i.i, ptr %arrayidx7.i.i, align 8
  %inc.i.i = add nuw nsw i64 %__i.011.i.i, 1
  %exitcond.not.i.i = icmp eq i64 %inc.i.i, 624
  br i1 %exitcond.not.i.i, label %_ZNSt23mersenne_twister_engineImLm32ELm624ELm397ELm31ELm2567483615ELm11ELm4294967295ELm7ELm2636928640ELm15ELm4022730752ELm18ELm1812433253EEC2Em.exit, label %for.body.i.i, !llvm.loop !4

_ZNSt23mersenne_twister_engineImLm32ELm624ELm397ELm31ELm2567483615ELm11ELm4294967295ELm7ELm2636928640ELm15ELm4022730752ELm18ELm1812433253EEC2Em.exit: ; preds = %for.body.i.i
  %_M_p.i.i = getelementptr inbounds i8, ptr %ref.tmp, i64 4992
  store i64 624, ptr %_M_p.i.i, align 8
  call void @llvm.memcpy.p0.p0.i64(ptr noundef nonnull align 8 dereferenceable(5000) %call, ptr noundef nonnull align 8 dereferenceable(5000) %ref.tmp, i64 5000, i1 false)
  %rd = getelementptr inbounds i8, ptr %call, i64 5000
  store float %mean, ptr %rd, align 8
  %ref.tmp1.sroa.2.0.rd.sroa_idx = getelementptr inbounds i8, ptr %call, i64 5004
  store float %std, ptr %ref.tmp1.sroa.2.0.rd.sroa_idx, align 4
  %ref.tmp1.sroa.3.0.rd.sroa_idx = getelementptr inbounds i8, ptr %call, i64 5008
  store float 0.000000e+00, ptr %ref.tmp1.sroa.3.0.rd.sroa_idx, align 8
  %ref.tmp1.sroa.4.0.rd.sroa_idx = getelementptr inbounds i8, ptr %call, i64 5012
  store i8 0, ptr %ref.tmp1.sroa.4.0.rd.sroa_idx, align 4
  %min2 = getelementptr inbounds i8, ptr %call, i64 5016
  store float %min, ptr %min2, align 8
  %max3 = getelementptr inbounds i8, ptr %call, i64 5020
  store float %max, ptr %max3, align 4
  ret ptr %call
}

; Function Attrs: mustprogress nofree nounwind willreturn allockind("alloc,uninitialized") allocsize(0) memory(inaccessiblemem: readwrite)
declare noalias noundef ptr @malloc(i64 noundef) local_unnamed_addr #9

; Function Attrs: mustprogress nofree nounwind memory(readwrite, argmem: none) uwtable
define noalias noundef ptr @_Z32init_random_uniform_distributioniff(i32 noundef %seed, float noundef %min, float noundef %max) local_unnamed_addr #8 {
entry:
  %ref.tmp = alloca %"class.std::mersenne_twister_engine", align 8
  %call = tail call noalias dereferenceable_or_null(5008) ptr @malloc(i64 noundef 5008) #36
  %conv = zext i32 %seed to i64
  store i64 %conv, ptr %ref.tmp, align 8
  br label %for.body.i.i

for.body.i.i:                                     ; preds = %for.body.i.i, %entry
  %0 = phi i64 [ %conv, %entry ], [ %rem.i.i10.i.i, %for.body.i.i ]
  %__i.011.i.i = phi i64 [ 1, %entry ], [ %inc.i.i, %for.body.i.i ]
  %shr.i.i = lshr i64 %0, 30
  %xor.i.i = xor i64 %shr.i.i, %0
  %mul.i.i = mul nuw nsw i64 %xor.i.i, 1812433253
  %add.i.i = add nuw i64 %mul.i.i, %__i.011.i.i
  %rem.i.i10.i.i = and i64 %add.i.i, 4294967295
  %arrayidx7.i.i = getelementptr inbounds [624 x i64], ptr %ref.tmp, i64 0, i64 %__i.011.i.i
  store i64 %rem.i.i10.i.i, ptr %arrayidx7.i.i, align 8
  %inc.i.i = add nuw nsw i64 %__i.011.i.i, 1
  %exitcond.not.i.i = icmp eq i64 %inc.i.i, 624
  br i1 %exitcond.not.i.i, label %_ZNSt23mersenne_twister_engineImLm32ELm624ELm397ELm31ELm2567483615ELm11ELm4294967295ELm7ELm2636928640ELm15ELm4022730752ELm18ELm1812433253EEC2Em.exit, label %for.body.i.i, !llvm.loop !4

_ZNSt23mersenne_twister_engineImLm32ELm624ELm397ELm31ELm2567483615ELm11ELm4294967295ELm7ELm2636928640ELm15ELm4022730752ELm18ELm1812433253EEC2Em.exit: ; preds = %for.body.i.i
  %_M_p.i.i = getelementptr inbounds i8, ptr %ref.tmp, i64 4992
  store i64 624, ptr %_M_p.i.i, align 8
  call void @llvm.memcpy.p0.p0.i64(ptr noundef nonnull align 8 dereferenceable(5000) %call, ptr noundef nonnull align 8 dereferenceable(5000) %ref.tmp, i64 5000, i1 false)
  %rd = getelementptr inbounds i8, ptr %call, i64 5000
  store float %min, ptr %rd, align 8
  %rd.sroa_idx = getelementptr inbounds i8, ptr %call, i64 5004
  store float %max, ptr %rd.sroa_idx, align 4
  ret ptr %call
}

; Function Attrs: mustprogress nounwind willreturn memory(argmem: readwrite, inaccessiblemem: readwrite) uwtable
define void @_Z31free_random_normal_distributionP26random_normal_distribution(ptr nocapture noundef %rnd) local_unnamed_addr #10 {
entry:
  tail call void @free(ptr noundef %rnd) #34
  ret void
}

; Function Attrs: mustprogress nounwind willreturn allockind("free") memory(argmem: readwrite, inaccessiblemem: readwrite)
declare void @free(ptr allocptr nocapture noundef) local_unnamed_addr #11

; Function Attrs: mustprogress nounwind willreturn memory(argmem: readwrite, inaccessiblemem: readwrite) uwtable
define void @_Z32free_random_uniform_distributionP27random_uniform_distribution(ptr nocapture noundef %rnd) local_unnamed_addr #10 {
entry:
  tail call void @free(ptr noundef %rnd) #34
  ret void
}

; Function Attrs: mustprogress uwtable
define noundef ptr @_Z23randomize_tensor_normalP11ggml_tensorP26random_normal_distribution(ptr noundef returned %tensor, ptr noundef %rnd) local_unnamed_addr #3 {
entry:
  %call = tail call i32 @ggml_n_dims(ptr noundef %tensor)
  switch i32 %call, label %do.body [
    i32 1, label %sw.bb
    i32 2, label %sw.bb9
    i32 3, label %sw.bb51
    i32 4, label %sw.bb109
  ]

sw.bb:                                            ; preds = %entry
  %ne = getelementptr inbounds i8, ptr %tensor, i64 16
  %0 = load i64, ptr %ne, align 8
  %conv = sitofp i64 %0 to float
  %call1 = tail call float @sqrtf(float noundef %conv) #34
  %div = fdiv float 1.000000e+00, %call1
  %1 = load i64, ptr %ne, align 8
  %cmp117 = icmp sgt i64 %1, 0
  br i1 %cmp117, label %for.body.lr.ph, label %sw.epilog

for.body.lr.ph:                                   ; preds = %sw.bb
  %data = getelementptr inbounds i8, ptr %tensor, i64 280
  %nb = getelementptr inbounds i8, ptr %tensor, i64 48
  %rd.i = getelementptr inbounds i8, ptr %rnd, i64 5000
  %min.i = getelementptr inbounds i8, ptr %rnd, i64 5016
  %max.i = getelementptr inbounds i8, ptr %rnd, i64 5020
  br label %for.body

for.body:                                         ; preds = %for.body.lr.ph, %for.body
  %indvars.iv166 = phi i64 [ 0, %for.body.lr.ph ], [ %indvars.iv.next167, %for.body ]
  %2 = load ptr, ptr %data, align 8
  %3 = load i64, ptr %nb, align 8
  %mul = mul i64 %3, %indvars.iv166
  %add.ptr = getelementptr inbounds i8, ptr %2, i64 %mul
  %call.i.i = tail call noundef float @_ZNSt19normal_distributionIfEclISt23mersenne_twister_engineImLm32ELm624ELm397ELm31ELm2567483615ELm11ELm4294967295ELm7ELm2636928640ELm15ELm4022730752ELm18ELm1812433253EEEEfRT_RKNS0_10param_typeE(ptr noundef nonnull align 4 dereferenceable(13) %rd.i, ptr noundef nonnull align 8 dereferenceable(5000) %rnd, ptr noundef nonnull align 4 dereferenceable(8) %rd.i)
  %4 = load float, ptr %min.i, align 8
  %5 = load float, ptr %max.i, align 4
  %cmp.i.i = fcmp olt float %call.i.i, %4
  %cmp1.i.i = fcmp ogt float %call.i.i, %5
  %cond.i.i = select i1 %cmp1.i.i, float %5, float %call.i.i
  %cond5.i.i = select i1 %cmp.i.i, float %4, float %cond.i.i
  %mul8 = fmul float %div, %cond5.i.i
  store float %mul8, ptr %add.ptr, align 4
  %indvars.iv.next167 = add nuw nsw i64 %indvars.iv166, 1
  %6 = load i64, ptr %ne, align 8
  %cmp = icmp sgt i64 %6, %indvars.iv.next167
  br i1 %cmp, label %for.body, label %sw.epilog, !llvm.loop !6

sw.bb9:                                           ; preds = %entry
  %ne10 = getelementptr inbounds i8, ptr %tensor, i64 16
  %7 = load i64, ptr %ne10, align 8
  %conv12 = sitofp i64 %7 to float
  %arrayidx14 = getelementptr inbounds i8, ptr %tensor, i64 24
  %8 = load i64, ptr %arrayidx14, align 8
  %conv15 = sitofp i64 %8 to float
  %add = fadd float %conv12, %conv15
  %call16 = tail call float @sqrtf(float noundef %add) #34
  %div17 = fdiv float 1.000000e+00, %call16
  %9 = load i64, ptr %arrayidx14, align 8
  %cmp22114 = icmp sgt i64 %9, 0
  br i1 %cmp22114, label %for.cond25.preheader.lr.ph, label %sw.epilog

for.cond25.preheader.lr.ph:                       ; preds = %sw.bb9
  %data32 = getelementptr inbounds i8, ptr %tensor, i64 280
  %nb34 = getelementptr inbounds i8, ptr %tensor, i64 48
  %arrayidx40 = getelementptr inbounds i8, ptr %tensor, i64 56
  %rd.i63 = getelementptr inbounds i8, ptr %rnd, i64 5000
  %min.i65 = getelementptr inbounds i8, ptr %rnd, i64 5016
  %max.i66 = getelementptr inbounds i8, ptr %rnd, i64 5020
  %10 = load i64, ptr %ne10, align 8
  %11 = icmp sgt i64 %10, 0
  br i1 %11, label %for.cond25.preheader, label %sw.epilog

for.cond25.preheader:                             ; preds = %for.cond25.preheader.lr.ph, %for.inc48
  %12 = phi i64 [ %20, %for.inc48 ], [ %9, %for.cond25.preheader.lr.ph ]
  %13 = phi i64 [ %21, %for.inc48 ], [ %10, %for.cond25.preheader.lr.ph ]
  %indvars.iv163 = phi i64 [ %indvars.iv.next164, %for.inc48 ], [ 0, %for.cond25.preheader.lr.ph ]
  %cmp29111 = icmp sgt i64 %13, 0
  br i1 %cmp29111, label %for.body30, label %for.inc48

for.body30:                                       ; preds = %for.cond25.preheader, %for.body30
  %indvars.iv160 = phi i64 [ %indvars.iv.next161, %for.body30 ], [ 0, %for.cond25.preheader ]
  %14 = load ptr, ptr %data32, align 8
  %15 = load i64, ptr %nb34, align 8
  %mul36 = mul i64 %15, %indvars.iv160
  %add.ptr37 = getelementptr inbounds i8, ptr %14, i64 %mul36
  %16 = load i64, ptr %arrayidx40, align 8
  %mul41 = mul i64 %16, %indvars.iv163
  %add.ptr42 = getelementptr inbounds i8, ptr %add.ptr37, i64 %mul41
  %call.i.i64 = tail call noundef float @_ZNSt19normal_distributionIfEclISt23mersenne_twister_engineImLm32ELm624ELm397ELm31ELm2567483615ELm11ELm4294967295ELm7ELm2636928640ELm15ELm4022730752ELm18ELm1812433253EEEEfRT_RKNS0_10param_typeE(ptr noundef nonnull align 4 dereferenceable(13) %rd.i63, ptr noundef nonnull align 8 dereferenceable(5000) %rnd, ptr noundef nonnull align 4 dereferenceable(8) %rd.i63)
  %17 = load float, ptr %min.i65, align 8
  %18 = load float, ptr %max.i66, align 4
  %cmp.i.i67 = fcmp olt float %call.i.i64, %17
  %cmp1.i.i68 = fcmp ogt float %call.i.i64, %18
  %cond.i.i69 = select i1 %cmp1.i.i68, float %18, float %call.i.i64
  %cond5.i.i70 = select i1 %cmp.i.i67, float %17, float %cond.i.i69
  %mul44 = fmul float %div17, %cond5.i.i70
  store float %mul44, ptr %add.ptr42, align 4
  %indvars.iv.next161 = add nuw nsw i64 %indvars.iv160, 1
  %19 = load i64, ptr %ne10, align 8
  %cmp29 = icmp sgt i64 %19, %indvars.iv.next161
  br i1 %cmp29, label %for.body30, label %for.inc48.loopexit, !llvm.loop !7

for.inc48.loopexit:                               ; preds = %for.body30
  %.pre173 = load i64, ptr %arrayidx14, align 8
  br label %for.inc48

for.inc48:                                        ; preds = %for.inc48.loopexit, %for.cond25.preheader
  %20 = phi i64 [ %.pre173, %for.inc48.loopexit ], [ %12, %for.cond25.preheader ]
  %21 = phi i64 [ %19, %for.inc48.loopexit ], [ %13, %for.cond25.preheader ]
  %indvars.iv.next164 = add nuw nsw i64 %indvars.iv163, 1
  %cmp22 = icmp sgt i64 %20, %indvars.iv.next164
  br i1 %cmp22, label %for.cond25.preheader, label %sw.epilog, !llvm.loop !8

sw.bb51:                                          ; preds = %entry
  %ne52 = getelementptr inbounds i8, ptr %tensor, i64 16
  %22 = load i64, ptr %ne52, align 8
  %conv54 = sitofp i64 %22 to float
  %arrayidx56 = getelementptr inbounds i8, ptr %tensor, i64 24
  %23 = load i64, ptr %arrayidx56, align 8
  %conv57 = sitofp i64 %23 to float
  %add58 = fadd float %conv54, %conv57
  %call59 = tail call float @sqrtf(float noundef %add58) #34
  %div60 = fdiv float 1.000000e+00, %call59
  %arrayidx64 = getelementptr inbounds i8, ptr %tensor, i64 32
  %24 = load i64, ptr %arrayidx64, align 8
  %cmp65108 = icmp sgt i64 %24, 0
  br i1 %cmp65108, label %for.cond68.preheader.lr.ph, label %sw.epilog

for.cond68.preheader.lr.ph:                       ; preds = %sw.bb51
  %data82 = getelementptr inbounds i8, ptr %tensor, i64 280
  %nb84 = getelementptr inbounds i8, ptr %tensor, i64 48
  %arrayidx90 = getelementptr inbounds i8, ptr %tensor, i64 56
  %arrayidx95 = getelementptr inbounds i8, ptr %tensor, i64 64
  %rd.i71 = getelementptr inbounds i8, ptr %rnd, i64 5000
  %min.i73 = getelementptr inbounds i8, ptr %rnd, i64 5016
  %max.i74 = getelementptr inbounds i8, ptr %rnd, i64 5020
  %25 = load i64, ptr %arrayidx56, align 8
  %26 = icmp sgt i64 %25, 0
  br i1 %26, label %for.cond68.preheader, label %sw.epilog

for.cond68.preheader:                             ; preds = %for.cond68.preheader.lr.ph, %for.inc106
  %27 = phi i64 [ %43, %for.inc106 ], [ %24, %for.cond68.preheader.lr.ph ]
  %28 = phi i64 [ %44, %for.inc106 ], [ %25, %for.cond68.preheader.lr.ph ]
  %29 = phi i64 [ %45, %for.inc106 ], [ %25, %for.cond68.preheader.lr.ph ]
  %indvars.iv154 = phi i64 [ %indvars.iv.next155, %for.inc106 ], [ 0, %for.cond68.preheader.lr.ph ]
  %cmp72105 = icmp sgt i64 %29, 0
  br i1 %cmp72105, label %for.cond75.preheader.lr.ph, label %for.inc106

for.cond75.preheader.lr.ph:                       ; preds = %for.cond68.preheader
  %30 = load i64, ptr %ne52, align 8
  %31 = icmp sgt i64 %30, 0
  br i1 %31, label %for.cond75.preheader, label %for.inc106

for.cond75.preheader:                             ; preds = %for.cond75.preheader.lr.ph, %for.inc103
  %32 = phi i64 [ %41, %for.inc103 ], [ %28, %for.cond75.preheader.lr.ph ]
  %33 = phi i64 [ %42, %for.inc103 ], [ %30, %for.cond75.preheader.lr.ph ]
  %indvars.iv151 = phi i64 [ %indvars.iv.next152, %for.inc103 ], [ 0, %for.cond75.preheader.lr.ph ]
  %cmp79102 = icmp sgt i64 %33, 0
  br i1 %cmp79102, label %for.body80, label %for.inc103

for.body80:                                       ; preds = %for.cond75.preheader, %for.body80
  %indvars.iv148 = phi i64 [ %indvars.iv.next149, %for.body80 ], [ 0, %for.cond75.preheader ]
  %34 = load ptr, ptr %data82, align 8
  %35 = load i64, ptr %nb84, align 8
  %mul86 = mul i64 %35, %indvars.iv148
  %add.ptr87 = getelementptr inbounds i8, ptr %34, i64 %mul86
  %36 = load i64, ptr %arrayidx90, align 8
  %mul91 = mul i64 %36, %indvars.iv151
  %add.ptr92 = getelementptr inbounds i8, ptr %add.ptr87, i64 %mul91
  %37 = load i64, ptr %arrayidx95, align 8
  %mul96 = mul i64 %37, %indvars.iv154
  %add.ptr97 = getelementptr inbounds i8, ptr %add.ptr92, i64 %mul96
  %call.i.i72 = tail call noundef float @_ZNSt19normal_distributionIfEclISt23mersenne_twister_engineImLm32ELm624ELm397ELm31ELm2567483615ELm11ELm4294967295ELm7ELm2636928640ELm15ELm4022730752ELm18ELm1812433253EEEEfRT_RKNS0_10param_typeE(ptr noundef nonnull align 4 dereferenceable(13) %rd.i71, ptr noundef nonnull align 8 dereferenceable(5000) %rnd, ptr noundef nonnull align 4 dereferenceable(8) %rd.i71)
  %38 = load float, ptr %min.i73, align 8
  %39 = load float, ptr %max.i74, align 4
  %cmp.i.i75 = fcmp olt float %call.i.i72, %38
  %cmp1.i.i76 = fcmp ogt float %call.i.i72, %39
  %cond.i.i77 = select i1 %cmp1.i.i76, float %39, float %call.i.i72
  %cond5.i.i78 = select i1 %cmp.i.i75, float %38, float %cond.i.i77
  %mul99 = fmul float %div60, %cond5.i.i78
  store float %mul99, ptr %add.ptr97, align 4
  %indvars.iv.next149 = add nuw nsw i64 %indvars.iv148, 1
  %40 = load i64, ptr %ne52, align 8
  %cmp79 = icmp sgt i64 %40, %indvars.iv.next149
  br i1 %cmp79, label %for.body80, label %for.inc103.loopexit, !llvm.loop !10

for.inc103.loopexit:                              ; preds = %for.body80
  %.pre171 = load i64, ptr %arrayidx56, align 8
  br label %for.inc103

for.inc103:                                       ; preds = %for.inc103.loopexit, %for.cond75.preheader
  %41 = phi i64 [ %.pre171, %for.inc103.loopexit ], [ %32, %for.cond75.preheader ]
  %42 = phi i64 [ %40, %for.inc103.loopexit ], [ %33, %for.cond75.preheader ]
  %indvars.iv.next152 = add nuw nsw i64 %indvars.iv151, 1
  %cmp72 = icmp sgt i64 %41, %indvars.iv.next152
  br i1 %cmp72, label %for.cond75.preheader, label %for.inc106.loopexit, !llvm.loop !11

for.inc106.loopexit:                              ; preds = %for.inc103
  %.pre172 = load i64, ptr %arrayidx64, align 8
  br label %for.inc106

for.inc106:                                       ; preds = %for.cond75.preheader.lr.ph, %for.inc106.loopexit, %for.cond68.preheader
  %43 = phi i64 [ %.pre172, %for.inc106.loopexit ], [ %27, %for.cond68.preheader ], [ %27, %for.cond75.preheader.lr.ph ]
  %44 = phi i64 [ %41, %for.inc106.loopexit ], [ %28, %for.cond68.preheader ], [ %28, %for.cond75.preheader.lr.ph ]
  %45 = phi i64 [ %41, %for.inc106.loopexit ], [ %29, %for.cond68.preheader ], [ %29, %for.cond75.preheader.lr.ph ]
  %indvars.iv.next155 = add nuw nsw i64 %indvars.iv154, 1
  %cmp65 = icmp sgt i64 %43, %indvars.iv.next155
  br i1 %cmp65, label %for.cond68.preheader, label %sw.epilog, !llvm.loop !12

sw.bb109:                                         ; preds = %entry
  %ne110 = getelementptr inbounds i8, ptr %tensor, i64 16
  %46 = load i64, ptr %ne110, align 8
  %conv112 = sitofp i64 %46 to float
  %arrayidx114 = getelementptr inbounds i8, ptr %tensor, i64 24
  %47 = load i64, ptr %arrayidx114, align 8
  %conv115 = sitofp i64 %47 to float
  %add116 = fadd float %conv112, %conv115
  %call117 = tail call float @sqrtf(float noundef %add116) #34
  %div118 = fdiv float 1.000000e+00, %call117
  %arrayidx122 = getelementptr inbounds i8, ptr %tensor, i64 40
  %48 = load i64, ptr %arrayidx122, align 8
  %cmp12399 = icmp sgt i64 %48, 0
  br i1 %cmp12399, label %for.cond126.preheader.lr.ph, label %sw.epilog

for.cond126.preheader.lr.ph:                      ; preds = %sw.bb109
  %arrayidx129 = getelementptr inbounds i8, ptr %tensor, i64 32
  %data147 = getelementptr inbounds i8, ptr %tensor, i64 280
  %nb149 = getelementptr inbounds i8, ptr %tensor, i64 48
  %arrayidx155 = getelementptr inbounds i8, ptr %tensor, i64 56
  %arrayidx160 = getelementptr inbounds i8, ptr %tensor, i64 64
  %arrayidx165 = getelementptr inbounds i8, ptr %tensor, i64 72
  %rd.i79 = getelementptr inbounds i8, ptr %rnd, i64 5000
  %min.i81 = getelementptr inbounds i8, ptr %rnd, i64 5016
  %max.i82 = getelementptr inbounds i8, ptr %rnd, i64 5020
  %49 = load i64, ptr %arrayidx129, align 8
  %50 = icmp sgt i64 %49, 0
  br i1 %50, label %for.cond126.preheader, label %sw.epilog

for.cond126.preheader:                            ; preds = %for.cond126.preheader.lr.ph, %for.inc179
  %51 = phi i64 [ %76, %for.inc179 ], [ %48, %for.cond126.preheader.lr.ph ]
  %52 = phi i64 [ %77, %for.inc179 ], [ %49, %for.cond126.preheader.lr.ph ]
  %53 = phi i64 [ %78, %for.inc179 ], [ %49, %for.cond126.preheader.lr.ph ]
  %indvars.iv139 = phi i64 [ %indvars.iv.next140, %for.inc179 ], [ 0, %for.cond126.preheader.lr.ph ]
  %cmp13096 = icmp sgt i64 %53, 0
  br i1 %cmp13096, label %for.cond133.preheader.lr.ph, label %for.inc179

for.cond133.preheader.lr.ph:                      ; preds = %for.cond126.preheader
  %54 = load i64, ptr %arrayidx114, align 8
  %55 = icmp sgt i64 %54, 0
  br i1 %55, label %for.cond133.preheader, label %for.inc179

for.cond133.preheader:                            ; preds = %for.cond133.preheader.lr.ph, %for.inc176
  %56 = phi i64 [ %73, %for.inc176 ], [ %52, %for.cond133.preheader.lr.ph ]
  %57 = phi i64 [ %74, %for.inc176 ], [ %54, %for.cond133.preheader.lr.ph ]
  %58 = phi i64 [ %75, %for.inc176 ], [ %54, %for.cond133.preheader.lr.ph ]
  %indvars.iv136 = phi i64 [ %indvars.iv.next137, %for.inc176 ], [ 0, %for.cond133.preheader.lr.ph ]
  %cmp13793 = icmp sgt i64 %58, 0
  br i1 %cmp13793, label %for.cond140.preheader.lr.ph, label %for.inc176

for.cond140.preheader.lr.ph:                      ; preds = %for.cond133.preheader
  %59 = load i64, ptr %ne110, align 8
  %60 = icmp sgt i64 %59, 0
  br i1 %60, label %for.cond140.preheader, label %for.inc176

for.cond140.preheader:                            ; preds = %for.cond140.preheader.lr.ph, %for.inc173
  %61 = phi i64 [ %71, %for.inc173 ], [ %57, %for.cond140.preheader.lr.ph ]
  %62 = phi i64 [ %72, %for.inc173 ], [ %59, %for.cond140.preheader.lr.ph ]
  %indvars.iv133 = phi i64 [ %indvars.iv.next134, %for.inc173 ], [ 0, %for.cond140.preheader.lr.ph ]
  %cmp14490 = icmp sgt i64 %62, 0
  br i1 %cmp14490, label %for.body145, label %for.inc173

for.body145:                                      ; preds = %for.cond140.preheader, %for.body145
  %indvars.iv = phi i64 [ %indvars.iv.next, %for.body145 ], [ 0, %for.cond140.preheader ]
  %63 = load ptr, ptr %data147, align 8
  %64 = load i64, ptr %nb149, align 8
  %mul151 = mul i64 %64, %indvars.iv
  %add.ptr152 = getelementptr inbounds i8, ptr %63, i64 %mul151
  %65 = load i64, ptr %arrayidx155, align 8
  %mul156 = mul i64 %65, %indvars.iv133
  %add.ptr157 = getelementptr inbounds i8, ptr %add.ptr152, i64 %mul156
  %66 = load i64, ptr %arrayidx160, align 8
  %mul161 = mul i64 %66, %indvars.iv136
  %add.ptr162 = getelementptr inbounds i8, ptr %add.ptr157, i64 %mul161
  %67 = load i64, ptr %arrayidx165, align 8
  %mul166 = mul i64 %67, %indvars.iv139
  %add.ptr167 = getelementptr inbounds i8, ptr %add.ptr162, i64 %mul166
  %call.i.i80 = tail call noundef float @_ZNSt19normal_distributionIfEclISt23mersenne_twister_engineImLm32ELm624ELm397ELm31ELm2567483615ELm11ELm4294967295ELm7ELm2636928640ELm15ELm4022730752ELm18ELm1812433253EEEEfRT_RKNS0_10param_typeE(ptr noundef nonnull align 4 dereferenceable(13) %rd.i79, ptr noundef nonnull align 8 dereferenceable(5000) %rnd, ptr noundef nonnull align 4 dereferenceable(8) %rd.i79)
  %68 = load float, ptr %min.i81, align 8
  %69 = load float, ptr %max.i82, align 4
  %cmp.i.i83 = fcmp olt float %call.i.i80, %68
  %cmp1.i.i84 = fcmp ogt float %call.i.i80, %69
  %cond.i.i85 = select i1 %cmp1.i.i84, float %69, float %call.i.i80
  %cond5.i.i86 = select i1 %cmp.i.i83, float %68, float %cond.i.i85
  %mul169 = fmul float %div118, %cond5.i.i86
  store float %mul169, ptr %add.ptr167, align 4
  %indvars.iv.next = add nuw nsw i64 %indvars.iv, 1
  %70 = load i64, ptr %ne110, align 8
  %cmp144 = icmp sgt i64 %70, %indvars.iv.next
  br i1 %cmp144, label %for.body145, label %for.inc173.loopexit, !llvm.loop !13

for.inc173.loopexit:                              ; preds = %for.body145
  %.pre = load i64, ptr %arrayidx114, align 8
  br label %for.inc173

for.inc173:                                       ; preds = %for.inc173.loopexit, %for.cond140.preheader
  %71 = phi i64 [ %.pre, %for.inc173.loopexit ], [ %61, %for.cond140.preheader ]
  %72 = phi i64 [ %70, %for.inc173.loopexit ], [ %62, %for.cond140.preheader ]
  %indvars.iv.next134 = add nuw nsw i64 %indvars.iv133, 1
  %cmp137 = icmp sgt i64 %71, %indvars.iv.next134
  br i1 %cmp137, label %for.cond140.preheader, label %for.inc176.loopexit, !llvm.loop !14

for.inc176.loopexit:                              ; preds = %for.inc173
  %.pre169 = load i64, ptr %arrayidx129, align 8
  br label %for.inc176

for.inc176:                                       ; preds = %for.cond140.preheader.lr.ph, %for.inc176.loopexit, %for.cond133.preheader
  %73 = phi i64 [ %.pre169, %for.inc176.loopexit ], [ %56, %for.cond133.preheader ], [ %56, %for.cond140.preheader.lr.ph ]
  %74 = phi i64 [ %71, %for.inc176.loopexit ], [ %57, %for.cond133.preheader ], [ %57, %for.cond140.preheader.lr.ph ]
  %75 = phi i64 [ %71, %for.inc176.loopexit ], [ %58, %for.cond133.preheader ], [ %58, %for.cond140.preheader.lr.ph ]
  %indvars.iv.next137 = add nuw nsw i64 %indvars.iv136, 1
  %cmp130 = icmp sgt i64 %73, %indvars.iv.next137
  br i1 %cmp130, label %for.cond133.preheader, label %for.inc179.loopexit, !llvm.loop !15

for.inc179.loopexit:                              ; preds = %for.inc176
  %.pre170 = load i64, ptr %arrayidx122, align 8
  br label %for.inc179

for.inc179:                                       ; preds = %for.cond133.preheader.lr.ph, %for.inc179.loopexit, %for.cond126.preheader
  %76 = phi i64 [ %.pre170, %for.inc179.loopexit ], [ %51, %for.cond126.preheader ], [ %51, %for.cond133.preheader.lr.ph ]
  %77 = phi i64 [ %73, %for.inc179.loopexit ], [ %52, %for.cond126.preheader ], [ %52, %for.cond133.preheader.lr.ph ]
  %78 = phi i64 [ %73, %for.inc179.loopexit ], [ %53, %for.cond126.preheader ], [ %53, %for.cond133.preheader.lr.ph ]
  %indvars.iv.next140 = add nuw nsw i64 %indvars.iv139, 1
  %cmp123 = icmp sgt i64 %76, %indvars.iv.next140
  br i1 %cmp123, label %for.cond126.preheader, label %sw.epilog, !llvm.loop !16

do.body:                                          ; preds = %entry
  %79 = load ptr, ptr @stderr, align 8
  %80 = tail call i64 @fwrite(ptr nonnull @.str.1, i64 34, i64 1, ptr %79) #37
  tail call void @exit(i32 noundef 1) #38
  unreachable

sw.epilog:                                        ; preds = %for.inc179, %for.inc106, %for.inc48, %for.body, %for.cond126.preheader.lr.ph, %for.cond68.preheader.lr.ph, %for.cond25.preheader.lr.ph, %sw.bb109, %sw.bb51, %sw.bb9, %sw.bb
  ret ptr %tensor
}

declare i32 @ggml_n_dims(ptr noundef) local_unnamed_addr #0

; Function Attrs: mustprogress nofree nounwind willreturn memory(write)
declare float @sqrtf(float noundef) local_unnamed_addr #12

; Function Attrs: mustprogress uwtable
define noundef float @_Z12frand_normalP26random_normal_distribution(ptr noundef nonnull %rnd) local_unnamed_addr #3 {
entry:
  %rd = getelementptr inbounds i8, ptr %rnd, i64 5000
  %call.i = tail call noundef float @_ZNSt19normal_distributionIfEclISt23mersenne_twister_engineImLm32ELm624ELm397ELm31ELm2567483615ELm11ELm4294967295ELm7ELm2636928640ELm15ELm4022730752ELm18ELm1812433253EEEEfRT_RKNS0_10param_typeE(ptr noundef nonnull align 4 dereferenceable(13) %rd, ptr noundef nonnull align 8 dereferenceable(5000) %rnd, ptr noundef nonnull align 4 dereferenceable(8) %rd)
  %min = getelementptr inbounds i8, ptr %rnd, i64 5016
  %0 = load float, ptr %min, align 8
  %max = getelementptr inbounds i8, ptr %rnd, i64 5020
  %1 = load float, ptr %max, align 4
  %cmp.i = fcmp olt float %call.i, %0
  %cmp1.i = fcmp ogt float %call.i, %1
  %cond.i = select i1 %cmp1.i, float %1, float %call.i
  %cond5.i = select i1 %cmp.i, float %0, float %cond.i
  ret float %cond5.i
}

; Function Attrs: noreturn nounwind
declare void @exit(i32 noundef) local_unnamed_addr #13

; Function Attrs: mustprogress uwtable
define noundef ptr @_Z24randomize_tensor_uniformP11ggml_tensorP27random_uniform_distribution(ptr noundef returned %tensor, ptr noundef %rnd) local_unnamed_addr #3 {
entry:
  %call = tail call i32 @ggml_n_dims(ptr noundef %tensor)
  switch i32 %call, label %do.body [
    i32 1, label %for.cond.preheader
    i32 2, label %for.cond5.preheader
    i32 3, label %for.cond38.preheader
    i32 4, label %for.cond86.preheader
  ]

for.cond86.preheader:                             ; preds = %entry
  %ne88 = getelementptr inbounds i8, ptr %tensor, i64 16
  %arrayidx89 = getelementptr inbounds i8, ptr %tensor, i64 40
  %0 = load i64, ptr %arrayidx89, align 8
  %cmp90343 = icmp sgt i64 %0, 0
  br i1 %cmp90343, label %for.cond93.preheader.lr.ph, label %sw.epilog

for.cond93.preheader.lr.ph:                       ; preds = %for.cond86.preheader
  %arrayidx96 = getelementptr inbounds i8, ptr %tensor, i64 32
  %arrayidx103 = getelementptr inbounds i8, ptr %tensor, i64 24
  %data114 = getelementptr inbounds i8, ptr %tensor, i64 280
  %nb116 = getelementptr inbounds i8, ptr %tensor, i64 48
  %arrayidx122 = getelementptr inbounds i8, ptr %tensor, i64 56
  %arrayidx127 = getelementptr inbounds i8, ptr %tensor, i64 64
  %arrayidx132 = getelementptr inbounds i8, ptr %tensor, i64 72
  %_M_p.i261 = getelementptr inbounds i8, ptr %rnd, i64 4992
  %arrayidx18.phi.trans.insert.i.i296 = getelementptr inbounds i8, ptr %rnd, i64 1816
  %arrayidx41.i.i316 = getelementptr inbounds i8, ptr %rnd, i64 4984
  %arrayidx48.i.i320 = getelementptr inbounds i8, ptr %rnd, i64 3168
  %rd.i123 = getelementptr inbounds i8, ptr %rnd, i64 5000
  %_M_b.i.i.i.i124 = getelementptr inbounds i8, ptr %rnd, i64 5004
  %1 = load i64, ptr %arrayidx96, align 8
  %2 = icmp sgt i64 %1, 0
  br i1 %2, label %for.cond93.preheader, label %sw.epilog

for.cond38.preheader:                             ; preds = %entry
  %ne40 = getelementptr inbounds i8, ptr %tensor, i64 16
  %arrayidx41 = getelementptr inbounds i8, ptr %tensor, i64 32
  %3 = load i64, ptr %arrayidx41, align 8
  %cmp42352 = icmp sgt i64 %3, 0
  br i1 %cmp42352, label %for.cond45.preheader.lr.ph, label %sw.epilog

for.cond45.preheader.lr.ph:                       ; preds = %for.cond38.preheader
  %arrayidx48 = getelementptr inbounds i8, ptr %tensor, i64 24
  %data59 = getelementptr inbounds i8, ptr %tensor, i64 280
  %nb61 = getelementptr inbounds i8, ptr %tensor, i64 48
  %arrayidx67 = getelementptr inbounds i8, ptr %tensor, i64 56
  %arrayidx72 = getelementptr inbounds i8, ptr %tensor, i64 64
  %_M_p.i194 = getelementptr inbounds i8, ptr %rnd, i64 4992
  %arrayidx18.phi.trans.insert.i.i229 = getelementptr inbounds i8, ptr %rnd, i64 1816
  %arrayidx41.i.i249 = getelementptr inbounds i8, ptr %rnd, i64 4984
  %arrayidx48.i.i253 = getelementptr inbounds i8, ptr %rnd, i64 3168
  %rd.i97 = getelementptr inbounds i8, ptr %rnd, i64 5000
  %_M_b.i.i.i.i98 = getelementptr inbounds i8, ptr %rnd, i64 5004
  %4 = load i64, ptr %arrayidx48, align 8
  %5 = icmp sgt i64 %4, 0
  br i1 %5, label %for.cond45.preheader, label %sw.epilog

for.cond5.preheader:                              ; preds = %entry
  %ne7 = getelementptr inbounds i8, ptr %tensor, i64 16
  %arrayidx8 = getelementptr inbounds i8, ptr %tensor, i64 24
  %6 = load i64, ptr %arrayidx8, align 8
  %cmp9358 = icmp sgt i64 %6, 0
  br i1 %cmp9358, label %for.cond12.preheader.lr.ph, label %sw.epilog

for.cond12.preheader.lr.ph:                       ; preds = %for.cond5.preheader
  %data19 = getelementptr inbounds i8, ptr %tensor, i64 280
  %nb21 = getelementptr inbounds i8, ptr %tensor, i64 48
  %arrayidx27 = getelementptr inbounds i8, ptr %tensor, i64 56
  %_M_p.i127 = getelementptr inbounds i8, ptr %rnd, i64 4992
  %arrayidx18.phi.trans.insert.i.i162 = getelementptr inbounds i8, ptr %rnd, i64 1816
  %arrayidx41.i.i182 = getelementptr inbounds i8, ptr %rnd, i64 4984
  %arrayidx48.i.i186 = getelementptr inbounds i8, ptr %rnd, i64 3168
  %rd.i71 = getelementptr inbounds i8, ptr %rnd, i64 5000
  %_M_b.i.i.i.i72 = getelementptr inbounds i8, ptr %rnd, i64 5004
  %7 = load i64, ptr %ne7, align 8
  %8 = icmp sgt i64 %7, 0
  br i1 %8, label %for.cond12.preheader, label %sw.epilog

for.cond.preheader:                               ; preds = %entry
  %ne = getelementptr inbounds i8, ptr %tensor, i64 16
  %9 = load i64, ptr %ne, align 8
  %cmp361 = icmp sgt i64 %9, 0
  br i1 %cmp361, label %for.body.lr.ph, label %sw.epilog

for.body.lr.ph:                                   ; preds = %for.cond.preheader
  %data = getelementptr inbounds i8, ptr %tensor, i64 280
  %nb = getelementptr inbounds i8, ptr %tensor, i64 48
  %_M_p.i = getelementptr inbounds i8, ptr %rnd, i64 4992
  %arrayidx18.phi.trans.insert.i.i = getelementptr inbounds i8, ptr %rnd, i64 1816
  %arrayidx41.i.i = getelementptr inbounds i8, ptr %rnd, i64 4984
  %arrayidx48.i.i = getelementptr inbounds i8, ptr %rnd, i64 3168
  %rd.i = getelementptr inbounds i8, ptr %rnd, i64 5000
  %_M_b.i.i.i.i = getelementptr inbounds i8, ptr %rnd, i64 5004
  br label %for.body

for.body:                                         ; preds = %for.body.lr.ph, %_Z13frand_uniformP27random_uniform_distribution.exit
  %indvars.iv413 = phi i64 [ 0, %for.body.lr.ph ], [ %indvars.iv.next414, %_Z13frand_uniformP27random_uniform_distribution.exit ]
  %10 = load ptr, ptr %data, align 8
  %11 = load i64, ptr %nb, align 8
  %mul = mul i64 %11, %indvars.iv413
  %call.i.i.i.i.i.i = tail call noundef x86_fp80 @logl(x86_fp80 noundef 0xK401F8000000000000000) #34
  %call.i8.i.i.i.i.i = tail call noundef x86_fp80 @logl(x86_fp80 noundef 0xK40008000000000000000) #34
  %div.i.i.i.i.i = fdiv x86_fp80 %call.i.i.i.i.i.i, %call.i8.i.i.i.i.i
  %conv7.i.i.i.i.i = fptoui x86_fp80 %div.i.i.i.i.i to i64
  %sub11.i.i.i.i.i = add i64 %conv7.i.i.i.i.i, 23
  %div12.i.i.i.i.i = udiv i64 %sub11.i.i.i.i.i, %conv7.i.i.i.i.i
  %spec.select.i.i.i.i.i = tail call i64 @llvm.umax.i64(i64 %div12.i.i.i.i.i, i64 1)
  %.pre424 = load i64, ptr %_M_p.i, align 8
  br label %for.body.i.i.i.i.i

for.body.i.i.i.i.i:                               ; preds = %_ZNSt23mersenne_twister_engineImLm32ELm624ELm397ELm31ELm2567483615ELm11ELm4294967295ELm7ELm2636928640ELm15ELm4022730752ELm18ELm1812433253EEclEv.exit, %for.body
  %12 = phi i64 [ %.pre424, %for.body ], [ %inc.i, %_ZNSt23mersenne_twister_engineImLm32ELm624ELm397ELm31ELm2567483615ELm11ELm4294967295ELm7ELm2636928640ELm15ELm4022730752ELm18ELm1812433253EEclEv.exit ]
  %__k.019.i.i.i.i.i = phi i64 [ %spec.select.i.i.i.i.i, %for.body ], [ %dec.i.i.i.i.i, %_ZNSt23mersenne_twister_engineImLm32ELm624ELm397ELm31ELm2567483615ELm11ELm4294967295ELm7ELm2636928640ELm15ELm4022730752ELm18ELm1812433253EEclEv.exit ]
  %__tmp.018.i.i.i.i.i = phi float [ 1.000000e+00, %for.body ], [ %conv19.i.i.i.i.i, %_ZNSt23mersenne_twister_engineImLm32ELm624ELm397ELm31ELm2567483615ELm11ELm4294967295ELm7ELm2636928640ELm15ELm4022730752ELm18ELm1812433253EEclEv.exit ]
  %__sum.017.i.i.i.i.i = phi float [ 0.000000e+00, %for.body ], [ %24, %_ZNSt23mersenne_twister_engineImLm32ELm624ELm397ELm31ELm2567483615ELm11ELm4294967295ELm7ELm2636928640ELm15ELm4022730752ELm18ELm1812433253EEclEv.exit ]
  %cmp.i = icmp ugt i64 %12, 623
  br i1 %cmp.i, label %if.then.i, label %_ZNSt23mersenne_twister_engineImLm32ELm624ELm397ELm31ELm2567483615ELm11ELm4294967295ELm7ELm2636928640ELm15ELm4022730752ELm18ELm1812433253EEclEv.exit

if.then.i:                                        ; preds = %for.body.i.i.i.i.i
  %.pre.i.i = load i64, ptr %rnd, align 8
  br label %for.body.i.i

for.body.i.i:                                     ; preds = %for.body.i.i, %if.then.i
  %13 = phi i64 [ %.pre.i.i, %if.then.i ], [ %14, %for.body.i.i ]
  %__k.014.i.i = phi i64 [ 0, %if.then.i ], [ %add.i.i, %for.body.i.i ]
  %arrayidx.i.i = getelementptr inbounds [624 x i64], ptr %rnd, i64 0, i64 %__k.014.i.i
  %and.i.i = and i64 %13, -2147483648
  %add.i.i = add nuw nsw i64 %__k.014.i.i, 1
  %arrayidx3.i.i = getelementptr inbounds [624 x i64], ptr %rnd, i64 0, i64 %add.i.i
  %14 = load i64, ptr %arrayidx3.i.i, align 8
  %and4.i.i = and i64 %14, 2147483646
  %or.i.i = or disjoint i64 %and4.i.i, %and.i.i
  %add6.i.i = add nuw nsw i64 %__k.014.i.i, 397
  %arrayidx7.i.i = getelementptr inbounds [624 x i64], ptr %rnd, i64 0, i64 %add6.i.i
  %15 = load i64, ptr %arrayidx7.i.i, align 8
  %shr.i.i = lshr exact i64 %or.i.i, 1
  %xor.i.i = xor i64 %shr.i.i, %15
  %and8.i.i = and i64 %14, 1
  %tobool.not.i.i = icmp eq i64 %and8.i.i, 0
  %cond.i.i = select i1 %tobool.not.i.i, i64 0, i64 2567483615
  %xor9.i.i = xor i64 %xor.i.i, %cond.i.i
  store i64 %xor9.i.i, ptr %arrayidx.i.i, align 8
  %exitcond.not.i.i = icmp eq i64 %add.i.i, 227
  br i1 %exitcond.not.i.i, label %for.body15.preheader.i.i, label %for.body.i.i, !llvm.loop !17

for.body15.preheader.i.i:                         ; preds = %for.body.i.i
  %.pre17.i.i = load i64, ptr %arrayidx18.phi.trans.insert.i.i, align 8
  br label %for.body15.i.i

for.body15.i.i:                                   ; preds = %for.body15.i.i, %for.body15.preheader.i.i
  %16 = phi i64 [ %17, %for.body15.i.i ], [ %.pre17.i.i, %for.body15.preheader.i.i ]
  %__k12.015.i.i = phi i64 [ %add21.i.i, %for.body15.i.i ], [ 227, %for.body15.preheader.i.i ]
  %arrayidx18.i.i = getelementptr inbounds [624 x i64], ptr %rnd, i64 0, i64 %__k12.015.i.i
  %and19.i.i = and i64 %16, -2147483648
  %add21.i.i = add nuw nsw i64 %__k12.015.i.i, 1
  %arrayidx22.i.i = getelementptr inbounds [624 x i64], ptr %rnd, i64 0, i64 %add21.i.i
  %17 = load i64, ptr %arrayidx22.i.i, align 8
  %and23.i.i = and i64 %17, 2147483646
  %or24.i.i = or disjoint i64 %and23.i.i, %and19.i.i
  %add26.i.i = add nsw i64 %__k12.015.i.i, -227
  %arrayidx27.i.i = getelementptr inbounds [624 x i64], ptr %rnd, i64 0, i64 %add26.i.i
  %18 = load i64, ptr %arrayidx27.i.i, align 8
  %shr28.i.i = lshr exact i64 %or24.i.i, 1
  %xor29.i.i = xor i64 %shr28.i.i, %18
  %and30.i.i = and i64 %17, 1
  %tobool31.not.i.i = icmp eq i64 %and30.i.i, 0
  %cond32.i.i = select i1 %tobool31.not.i.i, i64 0, i64 2567483615
  %xor33.i.i = xor i64 %xor29.i.i, %cond32.i.i
  store i64 %xor33.i.i, ptr %arrayidx18.i.i, align 8
  %exitcond16.not.i.i = icmp eq i64 %add21.i.i, 623
  br i1 %exitcond16.not.i.i, label %_ZNSt23mersenne_twister_engineImLm32ELm624ELm397ELm31ELm2567483615ELm11ELm4294967295ELm7ELm2636928640ELm15ELm4022730752ELm18ELm1812433253EE11_M_gen_randEv.exit.i, label %for.body15.i.i, !llvm.loop !18

_ZNSt23mersenne_twister_engineImLm32ELm624ELm397ELm31ELm2567483615ELm11ELm4294967295ELm7ELm2636928640ELm15ELm4022730752ELm18ELm1812433253EE11_M_gen_randEv.exit.i: ; preds = %for.body15.i.i
  %19 = load i64, ptr %arrayidx41.i.i, align 8
  %and42.i.i = and i64 %19, -2147483648
  %20 = load i64, ptr %rnd, align 8
  %and45.i.i = and i64 %20, 2147483646
  %or46.i.i = or disjoint i64 %and45.i.i, %and42.i.i
  %21 = load i64, ptr %arrayidx48.i.i, align 8
  %shr49.i.i = lshr exact i64 %or46.i.i, 1
  %xor50.i.i = xor i64 %shr49.i.i, %21
  %and51.i.i = and i64 %20, 1
  %tobool52.not.i.i = icmp eq i64 %and51.i.i, 0
  %cond53.i.i = select i1 %tobool52.not.i.i, i64 0, i64 2567483615
  %xor54.i.i = xor i64 %xor50.i.i, %cond53.i.i
  store i64 %xor54.i.i, ptr %arrayidx41.i.i, align 8
  br label %_ZNSt23mersenne_twister_engineImLm32ELm624ELm397ELm31ELm2567483615ELm11ELm4294967295ELm7ELm2636928640ELm15ELm4022730752ELm18ELm1812433253EEclEv.exit

_ZNSt23mersenne_twister_engineImLm32ELm624ELm397ELm31ELm2567483615ELm11ELm4294967295ELm7ELm2636928640ELm15ELm4022730752ELm18ELm1812433253EEclEv.exit: ; preds = %for.body.i.i.i.i.i, %_ZNSt23mersenne_twister_engineImLm32ELm624ELm397ELm31ELm2567483615ELm11ELm4294967295ELm7ELm2636928640ELm15ELm4022730752ELm18ELm1812433253EE11_M_gen_randEv.exit.i
  %22 = phi i64 [ 0, %_ZNSt23mersenne_twister_engineImLm32ELm624ELm397ELm31ELm2567483615ELm11ELm4294967295ELm7ELm2636928640ELm15ELm4022730752ELm18ELm1812433253EE11_M_gen_randEv.exit.i ], [ %12, %for.body.i.i.i.i.i ]
  %inc.i = add nuw nsw i64 %22, 1
  store i64 %inc.i, ptr %_M_p.i, align 8
  %arrayidx.i = getelementptr inbounds [624 x i64], ptr %rnd, i64 0, i64 %22
  %23 = load i64, ptr %arrayidx.i, align 8
  %shr.i = lshr i64 %23, 11
  %and.i = and i64 %shr.i, 4294967295
  %xor.i = xor i64 %and.i, %23
  %shl.i = shl i64 %xor.i, 7
  %and3.i = and i64 %shl.i, 2636928640
  %xor4.i = xor i64 %and3.i, %xor.i
  %shl5.i = shl i64 %xor4.i, 15
  %and6.i = and i64 %shl5.i, 4022730752
  %xor7.i = xor i64 %and6.i, %xor4.i
  %shr8.i = lshr i64 %xor7.i, 18
  %xor9.i = xor i64 %shr8.i, %xor7.i
  %conv17.i.i.i.i.i = uitofp i64 %xor9.i to float
  %24 = tail call float @llvm.fmuladd.f32(float %conv17.i.i.i.i.i, float %__tmp.018.i.i.i.i.i, float %__sum.017.i.i.i.i.i)
  %conv19.i.i.i.i.i = fmul float %__tmp.018.i.i.i.i.i, 0x41F0000000000000
  %dec.i.i.i.i.i = add i64 %__k.019.i.i.i.i.i, -1
  %cmp.not.i.i.i.i.i = icmp eq i64 %dec.i.i.i.i.i, 0
  br i1 %cmp.not.i.i.i.i.i, label %for.end.i.i.i.i.i, label %for.body.i.i.i.i.i, !llvm.loop !19

for.end.i.i.i.i.i:                                ; preds = %_ZNSt23mersenne_twister_engineImLm32ELm624ELm397ELm31ELm2567483615ELm11ELm4294967295ELm7ELm2636928640ELm15ELm4022730752ELm18ELm1812433253EEclEv.exit
  %add.ptr = getelementptr inbounds i8, ptr %10, i64 %mul
  %div20.i.i.i.i.i = fdiv float %24, %conv19.i.i.i.i.i
  %cmp21.i.i.i.i.i = fcmp ult float %div20.i.i.i.i.i, 1.000000e+00
  br i1 %cmp21.i.i.i.i.i, label %_Z13frand_uniformP27random_uniform_distribution.exit, label %if.then.i.i.i.i.i

if.then.i.i.i.i.i:                                ; preds = %for.end.i.i.i.i.i
  %call.i11.i.i.i.i.i = tail call noundef float @nextafterf(float noundef 1.000000e+00, float noundef 0.000000e+00) #34
  br label %_Z13frand_uniformP27random_uniform_distribution.exit

_Z13frand_uniformP27random_uniform_distribution.exit: ; preds = %for.end.i.i.i.i.i, %if.then.i.i.i.i.i
  %__ret.0.i.i.i.i.i = phi float [ %call.i11.i.i.i.i.i, %if.then.i.i.i.i.i ], [ %div20.i.i.i.i.i, %for.end.i.i.i.i.i ]
  %25 = load float, ptr %_M_b.i.i.i.i, align 4
  %26 = load float, ptr %rd.i, align 4
  %sub.i.i.i = fsub float %25, %26
  %27 = tail call noundef float @llvm.fmuladd.f32(float %__ret.0.i.i.i.i.i, float %sub.i.i.i, float %26)
  store float %27, ptr %add.ptr, align 4
  %indvars.iv.next414 = add nuw nsw i64 %indvars.iv413, 1
  %28 = load i64, ptr %ne, align 8
  %cmp = icmp sgt i64 %28, %indvars.iv.next414
  br i1 %cmp, label %for.body, label %sw.epilog, !llvm.loop !20

for.cond12.preheader:                             ; preds = %for.cond12.preheader.lr.ph, %for.inc34
  %29 = phi i64 [ %51, %for.inc34 ], [ %6, %for.cond12.preheader.lr.ph ]
  %30 = phi i64 [ %52, %for.inc34 ], [ %7, %for.cond12.preheader.lr.ph ]
  %indvars.iv410 = phi i64 [ %indvars.iv.next411, %for.inc34 ], [ 0, %for.cond12.preheader.lr.ph ]
  %cmp16355 = icmp sgt i64 %30, 0
  br i1 %cmp16355, label %for.body17, label %for.inc34

for.body17:                                       ; preds = %for.cond12.preheader, %_Z13frand_uniformP27random_uniform_distribution.exit74
  %indvars.iv407 = phi i64 [ %indvars.iv.next408, %_Z13frand_uniformP27random_uniform_distribution.exit74 ], [ 0, %for.cond12.preheader ]
  %31 = load ptr, ptr %data19, align 8
  %32 = load i64, ptr %nb21, align 8
  %mul23 = mul i64 %32, %indvars.iv407
  %33 = load i64, ptr %arrayidx27, align 8
  %mul28 = mul i64 %33, %indvars.iv410
  %call.i.i.i.i.i.i49 = tail call noundef x86_fp80 @logl(x86_fp80 noundef 0xK401F8000000000000000) #34
  %call.i8.i.i.i.i.i50 = tail call noundef x86_fp80 @logl(x86_fp80 noundef 0xK40008000000000000000) #34
  %div.i.i.i.i.i51 = fdiv x86_fp80 %call.i.i.i.i.i.i49, %call.i8.i.i.i.i.i50
  %conv7.i.i.i.i.i52 = fptoui x86_fp80 %div.i.i.i.i.i51 to i64
  %sub11.i.i.i.i.i53 = add i64 %conv7.i.i.i.i.i52, 23
  %div12.i.i.i.i.i54 = udiv i64 %sub11.i.i.i.i.i53, %conv7.i.i.i.i.i52
  %spec.select.i.i.i.i.i55 = tail call i64 @llvm.umax.i64(i64 %div12.i.i.i.i.i54, i64 1)
  %.pre422 = load i64, ptr %_M_p.i127, align 8
  br label %for.body.i.i.i.i.i56

for.body.i.i.i.i.i56:                             ; preds = %_ZNSt23mersenne_twister_engineImLm32ELm624ELm397ELm31ELm2567483615ELm11ELm4294967295ELm7ELm2636928640ELm15ELm4022730752ELm18ELm1812433253EEclEv.exit193, %for.body17
  %34 = phi i64 [ %.pre422, %for.body17 ], [ %inc.i129, %_ZNSt23mersenne_twister_engineImLm32ELm624ELm397ELm31ELm2567483615ELm11ELm4294967295ELm7ELm2636928640ELm15ELm4022730752ELm18ELm1812433253EEclEv.exit193 ]
  %__k.019.i.i.i.i.i57 = phi i64 [ %spec.select.i.i.i.i.i55, %for.body17 ], [ %dec.i.i.i.i.i63, %_ZNSt23mersenne_twister_engineImLm32ELm624ELm397ELm31ELm2567483615ELm11ELm4294967295ELm7ELm2636928640ELm15ELm4022730752ELm18ELm1812433253EEclEv.exit193 ]
  %__tmp.018.i.i.i.i.i58 = phi float [ 1.000000e+00, %for.body17 ], [ %conv19.i.i.i.i.i62, %_ZNSt23mersenne_twister_engineImLm32ELm624ELm397ELm31ELm2567483615ELm11ELm4294967295ELm7ELm2636928640ELm15ELm4022730752ELm18ELm1812433253EEclEv.exit193 ]
  %__sum.017.i.i.i.i.i59 = phi float [ 0.000000e+00, %for.body17 ], [ %46, %_ZNSt23mersenne_twister_engineImLm32ELm624ELm397ELm31ELm2567483615ELm11ELm4294967295ELm7ELm2636928640ELm15ELm4022730752ELm18ELm1812433253EEclEv.exit193 ]
  %cmp.i128 = icmp ugt i64 %34, 623
  br i1 %cmp.i128, label %if.then.i142, label %_ZNSt23mersenne_twister_engineImLm32ELm624ELm397ELm31ELm2567483615ELm11ELm4294967295ELm7ELm2636928640ELm15ELm4022730752ELm18ELm1812433253EEclEv.exit193

if.then.i142:                                     ; preds = %for.body.i.i.i.i.i56
  %.pre.i.i143 = load i64, ptr %rnd, align 8
  br label %for.body.i.i144

for.body.i.i144:                                  ; preds = %for.body.i.i144, %if.then.i142
  %35 = phi i64 [ %.pre.i.i143, %if.then.i142 ], [ %36, %for.body.i.i144 ]
  %__k.014.i.i145 = phi i64 [ 0, %if.then.i142 ], [ %add.i.i148, %for.body.i.i144 ]
  %arrayidx.i.i146 = getelementptr inbounds [624 x i64], ptr %rnd, i64 0, i64 %__k.014.i.i145
  %and.i.i147 = and i64 %35, -2147483648
  %add.i.i148 = add nuw nsw i64 %__k.014.i.i145, 1
  %arrayidx3.i.i149 = getelementptr inbounds [624 x i64], ptr %rnd, i64 0, i64 %add.i.i148
  %36 = load i64, ptr %arrayidx3.i.i149, align 8
  %and4.i.i150 = and i64 %36, 2147483646
  %or.i.i151 = or disjoint i64 %and4.i.i150, %and.i.i147
  %add6.i.i152 = add nuw nsw i64 %__k.014.i.i145, 397
  %arrayidx7.i.i153 = getelementptr inbounds [624 x i64], ptr %rnd, i64 0, i64 %add6.i.i152
  %37 = load i64, ptr %arrayidx7.i.i153, align 8
  %shr.i.i154 = lshr exact i64 %or.i.i151, 1
  %xor.i.i155 = xor i64 %shr.i.i154, %37
  %and8.i.i156 = and i64 %36, 1
  %tobool.not.i.i157 = icmp eq i64 %and8.i.i156, 0
  %cond.i.i158 = select i1 %tobool.not.i.i157, i64 0, i64 2567483615
  %xor9.i.i159 = xor i64 %xor.i.i155, %cond.i.i158
  store i64 %xor9.i.i159, ptr %arrayidx.i.i146, align 8
  %exitcond.not.i.i160 = icmp eq i64 %add.i.i148, 227
  br i1 %exitcond.not.i.i160, label %for.body15.preheader.i.i161, label %for.body.i.i144, !llvm.loop !17

for.body15.preheader.i.i161:                      ; preds = %for.body.i.i144
  %.pre17.i.i163 = load i64, ptr %arrayidx18.phi.trans.insert.i.i162, align 8
  br label %for.body15.i.i164

for.body15.i.i164:                                ; preds = %for.body15.i.i164, %for.body15.preheader.i.i161
  %38 = phi i64 [ %39, %for.body15.i.i164 ], [ %.pre17.i.i163, %for.body15.preheader.i.i161 ]
  %__k12.015.i.i165 = phi i64 [ %add21.i.i168, %for.body15.i.i164 ], [ 227, %for.body15.preheader.i.i161 ]
  %arrayidx18.i.i166 = getelementptr inbounds [624 x i64], ptr %rnd, i64 0, i64 %__k12.015.i.i165
  %and19.i.i167 = and i64 %38, -2147483648
  %add21.i.i168 = add nuw nsw i64 %__k12.015.i.i165, 1
  %arrayidx22.i.i169 = getelementptr inbounds [624 x i64], ptr %rnd, i64 0, i64 %add21.i.i168
  %39 = load i64, ptr %arrayidx22.i.i169, align 8
  %and23.i.i170 = and i64 %39, 2147483646
  %or24.i.i171 = or disjoint i64 %and23.i.i170, %and19.i.i167
  %add26.i.i172 = add nsw i64 %__k12.015.i.i165, -227
  %arrayidx27.i.i173 = getelementptr inbounds [624 x i64], ptr %rnd, i64 0, i64 %add26.i.i172
  %40 = load i64, ptr %arrayidx27.i.i173, align 8
  %shr28.i.i174 = lshr exact i64 %or24.i.i171, 1
  %xor29.i.i175 = xor i64 %shr28.i.i174, %40
  %and30.i.i176 = and i64 %39, 1
  %tobool31.not.i.i177 = icmp eq i64 %and30.i.i176, 0
  %cond32.i.i178 = select i1 %tobool31.not.i.i177, i64 0, i64 2567483615
  %xor33.i.i179 = xor i64 %xor29.i.i175, %cond32.i.i178
  store i64 %xor33.i.i179, ptr %arrayidx18.i.i166, align 8
  %exitcond16.not.i.i180 = icmp eq i64 %add21.i.i168, 623
  br i1 %exitcond16.not.i.i180, label %_ZNSt23mersenne_twister_engineImLm32ELm624ELm397ELm31ELm2567483615ELm11ELm4294967295ELm7ELm2636928640ELm15ELm4022730752ELm18ELm1812433253EE11_M_gen_randEv.exit.i181, label %for.body15.i.i164, !llvm.loop !18

_ZNSt23mersenne_twister_engineImLm32ELm624ELm397ELm31ELm2567483615ELm11ELm4294967295ELm7ELm2636928640ELm15ELm4022730752ELm18ELm1812433253EE11_M_gen_randEv.exit.i181: ; preds = %for.body15.i.i164
  %41 = load i64, ptr %arrayidx41.i.i182, align 8
  %and42.i.i183 = and i64 %41, -2147483648
  %42 = load i64, ptr %rnd, align 8
  %and45.i.i184 = and i64 %42, 2147483646
  %or46.i.i185 = or disjoint i64 %and45.i.i184, %and42.i.i183
  %43 = load i64, ptr %arrayidx48.i.i186, align 8
  %shr49.i.i187 = lshr exact i64 %or46.i.i185, 1
  %xor50.i.i188 = xor i64 %shr49.i.i187, %43
  %and51.i.i189 = and i64 %42, 1
  %tobool52.not.i.i190 = icmp eq i64 %and51.i.i189, 0
  %cond53.i.i191 = select i1 %tobool52.not.i.i190, i64 0, i64 2567483615
  %xor54.i.i192 = xor i64 %xor50.i.i188, %cond53.i.i191
  store i64 %xor54.i.i192, ptr %arrayidx41.i.i182, align 8
  br label %_ZNSt23mersenne_twister_engineImLm32ELm624ELm397ELm31ELm2567483615ELm11ELm4294967295ELm7ELm2636928640ELm15ELm4022730752ELm18ELm1812433253EEclEv.exit193

_ZNSt23mersenne_twister_engineImLm32ELm624ELm397ELm31ELm2567483615ELm11ELm4294967295ELm7ELm2636928640ELm15ELm4022730752ELm18ELm1812433253EEclEv.exit193: ; preds = %for.body.i.i.i.i.i56, %_ZNSt23mersenne_twister_engineImLm32ELm624ELm397ELm31ELm2567483615ELm11ELm4294967295ELm7ELm2636928640ELm15ELm4022730752ELm18ELm1812433253EE11_M_gen_randEv.exit.i181
  %44 = phi i64 [ 0, %_ZNSt23mersenne_twister_engineImLm32ELm624ELm397ELm31ELm2567483615ELm11ELm4294967295ELm7ELm2636928640ELm15ELm4022730752ELm18ELm1812433253EE11_M_gen_randEv.exit.i181 ], [ %34, %for.body.i.i.i.i.i56 ]
  %inc.i129 = add nuw nsw i64 %44, 1
  store i64 %inc.i129, ptr %_M_p.i127, align 8
  %arrayidx.i130 = getelementptr inbounds [624 x i64], ptr %rnd, i64 0, i64 %44
  %45 = load i64, ptr %arrayidx.i130, align 8
  %shr.i131 = lshr i64 %45, 11
  %and.i132 = and i64 %shr.i131, 4294967295
  %xor.i133 = xor i64 %and.i132, %45
  %shl.i134 = shl i64 %xor.i133, 7
  %and3.i135 = and i64 %shl.i134, 2636928640
  %xor4.i136 = xor i64 %and3.i135, %xor.i133
  %shl5.i137 = shl i64 %xor4.i136, 15
  %and6.i138 = and i64 %shl5.i137, 4022730752
  %xor7.i139 = xor i64 %and6.i138, %xor4.i136
  %shr8.i140 = lshr i64 %xor7.i139, 18
  %xor9.i141 = xor i64 %shr8.i140, %xor7.i139
  %conv17.i.i.i.i.i61 = uitofp i64 %xor9.i141 to float
  %46 = tail call float @llvm.fmuladd.f32(float %conv17.i.i.i.i.i61, float %__tmp.018.i.i.i.i.i58, float %__sum.017.i.i.i.i.i59)
  %conv19.i.i.i.i.i62 = fmul float %__tmp.018.i.i.i.i.i58, 0x41F0000000000000
  %dec.i.i.i.i.i63 = add i64 %__k.019.i.i.i.i.i57, -1
  %cmp.not.i.i.i.i.i64 = icmp eq i64 %dec.i.i.i.i.i63, 0
  br i1 %cmp.not.i.i.i.i.i64, label %for.end.i.i.i.i.i65, label %for.body.i.i.i.i.i56, !llvm.loop !19

for.end.i.i.i.i.i65:                              ; preds = %_ZNSt23mersenne_twister_engineImLm32ELm624ELm397ELm31ELm2567483615ELm11ELm4294967295ELm7ELm2636928640ELm15ELm4022730752ELm18ELm1812433253EEclEv.exit193
  %add.ptr24 = getelementptr inbounds i8, ptr %31, i64 %mul23
  %add.ptr29 = getelementptr inbounds i8, ptr %add.ptr24, i64 %mul28
  %div20.i.i.i.i.i66 = fdiv float %46, %conv19.i.i.i.i.i62
  %cmp21.i.i.i.i.i67 = fcmp ult float %div20.i.i.i.i.i66, 1.000000e+00
  br i1 %cmp21.i.i.i.i.i67, label %_Z13frand_uniformP27random_uniform_distribution.exit74, label %if.then.i.i.i.i.i68

if.then.i.i.i.i.i68:                              ; preds = %for.end.i.i.i.i.i65
  %call.i11.i.i.i.i.i69 = tail call noundef float @nextafterf(float noundef 1.000000e+00, float noundef 0.000000e+00) #34
  br label %_Z13frand_uniformP27random_uniform_distribution.exit74

_Z13frand_uniformP27random_uniform_distribution.exit74: ; preds = %for.end.i.i.i.i.i65, %if.then.i.i.i.i.i68
  %__ret.0.i.i.i.i.i70 = phi float [ %call.i11.i.i.i.i.i69, %if.then.i.i.i.i.i68 ], [ %div20.i.i.i.i.i66, %for.end.i.i.i.i.i65 ]
  %47 = load float, ptr %_M_b.i.i.i.i72, align 4
  %48 = load float, ptr %rd.i71, align 4
  %sub.i.i.i73 = fsub float %47, %48
  %49 = tail call noundef float @llvm.fmuladd.f32(float %__ret.0.i.i.i.i.i70, float %sub.i.i.i73, float %48)
  store float %49, ptr %add.ptr29, align 4
  %indvars.iv.next408 = add nuw nsw i64 %indvars.iv407, 1
  %50 = load i64, ptr %ne7, align 8
  %cmp16 = icmp sgt i64 %50, %indvars.iv.next408
  br i1 %cmp16, label %for.body17, label %for.inc34.loopexit, !llvm.loop !21

for.inc34.loopexit:                               ; preds = %_Z13frand_uniformP27random_uniform_distribution.exit74
  %.pre423 = load i64, ptr %arrayidx8, align 8
  br label %for.inc34

for.inc34:                                        ; preds = %for.inc34.loopexit, %for.cond12.preheader
  %51 = phi i64 [ %.pre423, %for.inc34.loopexit ], [ %29, %for.cond12.preheader ]
  %52 = phi i64 [ %50, %for.inc34.loopexit ], [ %30, %for.cond12.preheader ]
  %indvars.iv.next411 = add nuw nsw i64 %indvars.iv410, 1
  %cmp9 = icmp sgt i64 %51, %indvars.iv.next411
  br i1 %cmp9, label %for.cond12.preheader, label %sw.epilog, !llvm.loop !22

for.cond45.preheader:                             ; preds = %for.cond45.preheader.lr.ph, %for.inc82
  %53 = phi i64 [ %83, %for.inc82 ], [ %3, %for.cond45.preheader.lr.ph ]
  %54 = phi i64 [ %84, %for.inc82 ], [ %4, %for.cond45.preheader.lr.ph ]
  %55 = phi i64 [ %85, %for.inc82 ], [ %4, %for.cond45.preheader.lr.ph ]
  %indvars.iv401 = phi i64 [ %indvars.iv.next402, %for.inc82 ], [ 0, %for.cond45.preheader.lr.ph ]
  %cmp49349 = icmp sgt i64 %55, 0
  br i1 %cmp49349, label %for.cond52.preheader.lr.ph, label %for.inc82

for.cond52.preheader.lr.ph:                       ; preds = %for.cond45.preheader
  %56 = load i64, ptr %ne40, align 8
  %57 = icmp sgt i64 %56, 0
  br i1 %57, label %for.cond52.preheader, label %for.inc82

for.cond52.preheader:                             ; preds = %for.cond52.preheader.lr.ph, %for.inc79
  %58 = phi i64 [ %81, %for.inc79 ], [ %54, %for.cond52.preheader.lr.ph ]
  %59 = phi i64 [ %82, %for.inc79 ], [ %56, %for.cond52.preheader.lr.ph ]
  %indvars.iv398 = phi i64 [ %indvars.iv.next399, %for.inc79 ], [ 0, %for.cond52.preheader.lr.ph ]
  %cmp56346 = icmp sgt i64 %59, 0
  br i1 %cmp56346, label %for.body57, label %for.inc79

for.body57:                                       ; preds = %for.cond52.preheader, %_Z13frand_uniformP27random_uniform_distribution.exit100
  %indvars.iv395 = phi i64 [ %indvars.iv.next396, %_Z13frand_uniformP27random_uniform_distribution.exit100 ], [ 0, %for.cond52.preheader ]
  %60 = load ptr, ptr %data59, align 8
  %61 = load i64, ptr %nb61, align 8
  %mul63 = mul i64 %61, %indvars.iv395
  %62 = load i64, ptr %arrayidx67, align 8
  %mul68 = mul i64 %62, %indvars.iv398
  %63 = load i64, ptr %arrayidx72, align 8
  %mul73 = mul i64 %63, %indvars.iv401
  %call.i.i.i.i.i.i75 = tail call noundef x86_fp80 @logl(x86_fp80 noundef 0xK401F8000000000000000) #34
  %call.i8.i.i.i.i.i76 = tail call noundef x86_fp80 @logl(x86_fp80 noundef 0xK40008000000000000000) #34
  %div.i.i.i.i.i77 = fdiv x86_fp80 %call.i.i.i.i.i.i75, %call.i8.i.i.i.i.i76
  %conv7.i.i.i.i.i78 = fptoui x86_fp80 %div.i.i.i.i.i77 to i64
  %sub11.i.i.i.i.i79 = add i64 %conv7.i.i.i.i.i78, 23
  %div12.i.i.i.i.i80 = udiv i64 %sub11.i.i.i.i.i79, %conv7.i.i.i.i.i78
  %spec.select.i.i.i.i.i81 = tail call i64 @llvm.umax.i64(i64 %div12.i.i.i.i.i80, i64 1)
  %.pre419 = load i64, ptr %_M_p.i194, align 8
  br label %for.body.i.i.i.i.i82

for.body.i.i.i.i.i82:                             ; preds = %_ZNSt23mersenne_twister_engineImLm32ELm624ELm397ELm31ELm2567483615ELm11ELm4294967295ELm7ELm2636928640ELm15ELm4022730752ELm18ELm1812433253EEclEv.exit260, %for.body57
  %64 = phi i64 [ %.pre419, %for.body57 ], [ %inc.i196, %_ZNSt23mersenne_twister_engineImLm32ELm624ELm397ELm31ELm2567483615ELm11ELm4294967295ELm7ELm2636928640ELm15ELm4022730752ELm18ELm1812433253EEclEv.exit260 ]
  %__k.019.i.i.i.i.i83 = phi i64 [ %spec.select.i.i.i.i.i81, %for.body57 ], [ %dec.i.i.i.i.i89, %_ZNSt23mersenne_twister_engineImLm32ELm624ELm397ELm31ELm2567483615ELm11ELm4294967295ELm7ELm2636928640ELm15ELm4022730752ELm18ELm1812433253EEclEv.exit260 ]
  %__tmp.018.i.i.i.i.i84 = phi float [ 1.000000e+00, %for.body57 ], [ %conv19.i.i.i.i.i88, %_ZNSt23mersenne_twister_engineImLm32ELm624ELm397ELm31ELm2567483615ELm11ELm4294967295ELm7ELm2636928640ELm15ELm4022730752ELm18ELm1812433253EEclEv.exit260 ]
  %__sum.017.i.i.i.i.i85 = phi float [ 0.000000e+00, %for.body57 ], [ %76, %_ZNSt23mersenne_twister_engineImLm32ELm624ELm397ELm31ELm2567483615ELm11ELm4294967295ELm7ELm2636928640ELm15ELm4022730752ELm18ELm1812433253EEclEv.exit260 ]
  %cmp.i195 = icmp ugt i64 %64, 623
  br i1 %cmp.i195, label %if.then.i209, label %_ZNSt23mersenne_twister_engineImLm32ELm624ELm397ELm31ELm2567483615ELm11ELm4294967295ELm7ELm2636928640ELm15ELm4022730752ELm18ELm1812433253EEclEv.exit260

if.then.i209:                                     ; preds = %for.body.i.i.i.i.i82
  %.pre.i.i210 = load i64, ptr %rnd, align 8
  br label %for.body.i.i211

for.body.i.i211:                                  ; preds = %for.body.i.i211, %if.then.i209
  %65 = phi i64 [ %.pre.i.i210, %if.then.i209 ], [ %66, %for.body.i.i211 ]
  %__k.014.i.i212 = phi i64 [ 0, %if.then.i209 ], [ %add.i.i215, %for.body.i.i211 ]
  %arrayidx.i.i213 = getelementptr inbounds [624 x i64], ptr %rnd, i64 0, i64 %__k.014.i.i212
  %and.i.i214 = and i64 %65, -2147483648
  %add.i.i215 = add nuw nsw i64 %__k.014.i.i212, 1
  %arrayidx3.i.i216 = getelementptr inbounds [624 x i64], ptr %rnd, i64 0, i64 %add.i.i215
  %66 = load i64, ptr %arrayidx3.i.i216, align 8
  %and4.i.i217 = and i64 %66, 2147483646
  %or.i.i218 = or disjoint i64 %and4.i.i217, %and.i.i214
  %add6.i.i219 = add nuw nsw i64 %__k.014.i.i212, 397
  %arrayidx7.i.i220 = getelementptr inbounds [624 x i64], ptr %rnd, i64 0, i64 %add6.i.i219
  %67 = load i64, ptr %arrayidx7.i.i220, align 8
  %shr.i.i221 = lshr exact i64 %or.i.i218, 1
  %xor.i.i222 = xor i64 %shr.i.i221, %67
  %and8.i.i223 = and i64 %66, 1
  %tobool.not.i.i224 = icmp eq i64 %and8.i.i223, 0
  %cond.i.i225 = select i1 %tobool.not.i.i224, i64 0, i64 2567483615
  %xor9.i.i226 = xor i64 %xor.i.i222, %cond.i.i225
  store i64 %xor9.i.i226, ptr %arrayidx.i.i213, align 8
  %exitcond.not.i.i227 = icmp eq i64 %add.i.i215, 227
  br i1 %exitcond.not.i.i227, label %for.body15.preheader.i.i228, label %for.body.i.i211, !llvm.loop !17

for.body15.preheader.i.i228:                      ; preds = %for.body.i.i211
  %.pre17.i.i230 = load i64, ptr %arrayidx18.phi.trans.insert.i.i229, align 8
  br label %for.body15.i.i231

for.body15.i.i231:                                ; preds = %for.body15.i.i231, %for.body15.preheader.i.i228
  %68 = phi i64 [ %69, %for.body15.i.i231 ], [ %.pre17.i.i230, %for.body15.preheader.i.i228 ]
  %__k12.015.i.i232 = phi i64 [ %add21.i.i235, %for.body15.i.i231 ], [ 227, %for.body15.preheader.i.i228 ]
  %arrayidx18.i.i233 = getelementptr inbounds [624 x i64], ptr %rnd, i64 0, i64 %__k12.015.i.i232
  %and19.i.i234 = and i64 %68, -2147483648
  %add21.i.i235 = add nuw nsw i64 %__k12.015.i.i232, 1
  %arrayidx22.i.i236 = getelementptr inbounds [624 x i64], ptr %rnd, i64 0, i64 %add21.i.i235
  %69 = load i64, ptr %arrayidx22.i.i236, align 8
  %and23.i.i237 = and i64 %69, 2147483646
  %or24.i.i238 = or disjoint i64 %and23.i.i237, %and19.i.i234
  %add26.i.i239 = add nsw i64 %__k12.015.i.i232, -227
  %arrayidx27.i.i240 = getelementptr inbounds [624 x i64], ptr %rnd, i64 0, i64 %add26.i.i239
  %70 = load i64, ptr %arrayidx27.i.i240, align 8
  %shr28.i.i241 = lshr exact i64 %or24.i.i238, 1
  %xor29.i.i242 = xor i64 %shr28.i.i241, %70
  %and30.i.i243 = and i64 %69, 1
  %tobool31.not.i.i244 = icmp eq i64 %and30.i.i243, 0
  %cond32.i.i245 = select i1 %tobool31.not.i.i244, i64 0, i64 2567483615
  %xor33.i.i246 = xor i64 %xor29.i.i242, %cond32.i.i245
  store i64 %xor33.i.i246, ptr %arrayidx18.i.i233, align 8
  %exitcond16.not.i.i247 = icmp eq i64 %add21.i.i235, 623
  br i1 %exitcond16.not.i.i247, label %_ZNSt23mersenne_twister_engineImLm32ELm624ELm397ELm31ELm2567483615ELm11ELm4294967295ELm7ELm2636928640ELm15ELm4022730752ELm18ELm1812433253EE11_M_gen_randEv.exit.i248, label %for.body15.i.i231, !llvm.loop !18

_ZNSt23mersenne_twister_engineImLm32ELm624ELm397ELm31ELm2567483615ELm11ELm4294967295ELm7ELm2636928640ELm15ELm4022730752ELm18ELm1812433253EE11_M_gen_randEv.exit.i248: ; preds = %for.body15.i.i231
  %71 = load i64, ptr %arrayidx41.i.i249, align 8
  %and42.i.i250 = and i64 %71, -2147483648
  %72 = load i64, ptr %rnd, align 8
  %and45.i.i251 = and i64 %72, 2147483646
  %or46.i.i252 = or disjoint i64 %and45.i.i251, %and42.i.i250
  %73 = load i64, ptr %arrayidx48.i.i253, align 8
  %shr49.i.i254 = lshr exact i64 %or46.i.i252, 1
  %xor50.i.i255 = xor i64 %shr49.i.i254, %73
  %and51.i.i256 = and i64 %72, 1
  %tobool52.not.i.i257 = icmp eq i64 %and51.i.i256, 0
  %cond53.i.i258 = select i1 %tobool52.not.i.i257, i64 0, i64 2567483615
  %xor54.i.i259 = xor i64 %xor50.i.i255, %cond53.i.i258
  store i64 %xor54.i.i259, ptr %arrayidx41.i.i249, align 8
  br label %_ZNSt23mersenne_twister_engineImLm32ELm624ELm397ELm31ELm2567483615ELm11ELm4294967295ELm7ELm2636928640ELm15ELm4022730752ELm18ELm1812433253EEclEv.exit260

_ZNSt23mersenne_twister_engineImLm32ELm624ELm397ELm31ELm2567483615ELm11ELm4294967295ELm7ELm2636928640ELm15ELm4022730752ELm18ELm1812433253EEclEv.exit260: ; preds = %for.body.i.i.i.i.i82, %_ZNSt23mersenne_twister_engineImLm32ELm624ELm397ELm31ELm2567483615ELm11ELm4294967295ELm7ELm2636928640ELm15ELm4022730752ELm18ELm1812433253EE11_M_gen_randEv.exit.i248
  %74 = phi i64 [ 0, %_ZNSt23mersenne_twister_engineImLm32ELm624ELm397ELm31ELm2567483615ELm11ELm4294967295ELm7ELm2636928640ELm15ELm4022730752ELm18ELm1812433253EE11_M_gen_randEv.exit.i248 ], [ %64, %for.body.i.i.i.i.i82 ]
  %inc.i196 = add nuw nsw i64 %74, 1
  store i64 %inc.i196, ptr %_M_p.i194, align 8
  %arrayidx.i197 = getelementptr inbounds [624 x i64], ptr %rnd, i64 0, i64 %74
  %75 = load i64, ptr %arrayidx.i197, align 8
  %shr.i198 = lshr i64 %75, 11
  %and.i199 = and i64 %shr.i198, 4294967295
  %xor.i200 = xor i64 %and.i199, %75
  %shl.i201 = shl i64 %xor.i200, 7
  %and3.i202 = and i64 %shl.i201, 2636928640
  %xor4.i203 = xor i64 %and3.i202, %xor.i200
  %shl5.i204 = shl i64 %xor4.i203, 15
  %and6.i205 = and i64 %shl5.i204, 4022730752
  %xor7.i206 = xor i64 %and6.i205, %xor4.i203
  %shr8.i207 = lshr i64 %xor7.i206, 18
  %xor9.i208 = xor i64 %shr8.i207, %xor7.i206
  %conv17.i.i.i.i.i87 = uitofp i64 %xor9.i208 to float
  %76 = tail call float @llvm.fmuladd.f32(float %conv17.i.i.i.i.i87, float %__tmp.018.i.i.i.i.i84, float %__sum.017.i.i.i.i.i85)
  %conv19.i.i.i.i.i88 = fmul float %__tmp.018.i.i.i.i.i84, 0x41F0000000000000
  %dec.i.i.i.i.i89 = add i64 %__k.019.i.i.i.i.i83, -1
  %cmp.not.i.i.i.i.i90 = icmp eq i64 %dec.i.i.i.i.i89, 0
  br i1 %cmp.not.i.i.i.i.i90, label %for.end.i.i.i.i.i91, label %for.body.i.i.i.i.i82, !llvm.loop !19

for.end.i.i.i.i.i91:                              ; preds = %_ZNSt23mersenne_twister_engineImLm32ELm624ELm397ELm31ELm2567483615ELm11ELm4294967295ELm7ELm2636928640ELm15ELm4022730752ELm18ELm1812433253EEclEv.exit260
  %add.ptr64 = getelementptr inbounds i8, ptr %60, i64 %mul63
  %add.ptr69 = getelementptr inbounds i8, ptr %add.ptr64, i64 %mul68
  %add.ptr74 = getelementptr inbounds i8, ptr %add.ptr69, i64 %mul73
  %div20.i.i.i.i.i92 = fdiv float %76, %conv19.i.i.i.i.i88
  %cmp21.i.i.i.i.i93 = fcmp ult float %div20.i.i.i.i.i92, 1.000000e+00
  br i1 %cmp21.i.i.i.i.i93, label %_Z13frand_uniformP27random_uniform_distribution.exit100, label %if.then.i.i.i.i.i94

if.then.i.i.i.i.i94:                              ; preds = %for.end.i.i.i.i.i91
  %call.i11.i.i.i.i.i95 = tail call noundef float @nextafterf(float noundef 1.000000e+00, float noundef 0.000000e+00) #34
  br label %_Z13frand_uniformP27random_uniform_distribution.exit100

_Z13frand_uniformP27random_uniform_distribution.exit100: ; preds = %for.end.i.i.i.i.i91, %if.then.i.i.i.i.i94
  %__ret.0.i.i.i.i.i96 = phi float [ %call.i11.i.i.i.i.i95, %if.then.i.i.i.i.i94 ], [ %div20.i.i.i.i.i92, %for.end.i.i.i.i.i91 ]
  %77 = load float, ptr %_M_b.i.i.i.i98, align 4
  %78 = load float, ptr %rd.i97, align 4
  %sub.i.i.i99 = fsub float %77, %78
  %79 = tail call noundef float @llvm.fmuladd.f32(float %__ret.0.i.i.i.i.i96, float %sub.i.i.i99, float %78)
  store float %79, ptr %add.ptr74, align 4
  %indvars.iv.next396 = add nuw nsw i64 %indvars.iv395, 1
  %80 = load i64, ptr %ne40, align 8
  %cmp56 = icmp sgt i64 %80, %indvars.iv.next396
  br i1 %cmp56, label %for.body57, label %for.inc79.loopexit, !llvm.loop !23

for.inc79.loopexit:                               ; preds = %_Z13frand_uniformP27random_uniform_distribution.exit100
  %.pre420 = load i64, ptr %arrayidx48, align 8
  br label %for.inc79

for.inc79:                                        ; preds = %for.inc79.loopexit, %for.cond52.preheader
  %81 = phi i64 [ %.pre420, %for.inc79.loopexit ], [ %58, %for.cond52.preheader ]
  %82 = phi i64 [ %80, %for.inc79.loopexit ], [ %59, %for.cond52.preheader ]
  %indvars.iv.next399 = add nuw nsw i64 %indvars.iv398, 1
  %cmp49 = icmp sgt i64 %81, %indvars.iv.next399
  br i1 %cmp49, label %for.cond52.preheader, label %for.inc82.loopexit, !llvm.loop !24

for.inc82.loopexit:                               ; preds = %for.inc79
  %.pre421 = load i64, ptr %arrayidx41, align 8
  br label %for.inc82

for.inc82:                                        ; preds = %for.cond52.preheader.lr.ph, %for.inc82.loopexit, %for.cond45.preheader
  %83 = phi i64 [ %.pre421, %for.inc82.loopexit ], [ %53, %for.cond45.preheader ], [ %53, %for.cond52.preheader.lr.ph ]
  %84 = phi i64 [ %81, %for.inc82.loopexit ], [ %54, %for.cond45.preheader ], [ %54, %for.cond52.preheader.lr.ph ]
  %85 = phi i64 [ %81, %for.inc82.loopexit ], [ %55, %for.cond45.preheader ], [ %55, %for.cond52.preheader.lr.ph ]
  %indvars.iv.next402 = add nuw nsw i64 %indvars.iv401, 1
  %cmp42 = icmp sgt i64 %83, %indvars.iv.next402
  br i1 %cmp42, label %for.cond45.preheader, label %sw.epilog, !llvm.loop !25

for.cond93.preheader:                             ; preds = %for.cond93.preheader.lr.ph, %for.inc145
  %86 = phi i64 [ %125, %for.inc145 ], [ %0, %for.cond93.preheader.lr.ph ]
  %87 = phi i64 [ %126, %for.inc145 ], [ %1, %for.cond93.preheader.lr.ph ]
  %88 = phi i64 [ %127, %for.inc145 ], [ %1, %for.cond93.preheader.lr.ph ]
  %indvars.iv386 = phi i64 [ %indvars.iv.next387, %for.inc145 ], [ 0, %for.cond93.preheader.lr.ph ]
  %cmp97340 = icmp sgt i64 %88, 0
  br i1 %cmp97340, label %for.cond100.preheader.lr.ph, label %for.inc145

for.cond100.preheader.lr.ph:                      ; preds = %for.cond93.preheader
  %89 = load i64, ptr %arrayidx103, align 8
  %90 = icmp sgt i64 %89, 0
  br i1 %90, label %for.cond100.preheader, label %for.inc145

for.cond100.preheader:                            ; preds = %for.cond100.preheader.lr.ph, %for.inc142
  %91 = phi i64 [ %122, %for.inc142 ], [ %87, %for.cond100.preheader.lr.ph ]
  %92 = phi i64 [ %123, %for.inc142 ], [ %89, %for.cond100.preheader.lr.ph ]
  %93 = phi i64 [ %124, %for.inc142 ], [ %89, %for.cond100.preheader.lr.ph ]
  %indvars.iv383 = phi i64 [ %indvars.iv.next384, %for.inc142 ], [ 0, %for.cond100.preheader.lr.ph ]
  %cmp104337 = icmp sgt i64 %93, 0
  br i1 %cmp104337, label %for.cond107.preheader.lr.ph, label %for.inc142

for.cond107.preheader.lr.ph:                      ; preds = %for.cond100.preheader
  %94 = load i64, ptr %ne88, align 8
  %95 = icmp sgt i64 %94, 0
  br i1 %95, label %for.cond107.preheader, label %for.inc142

for.cond107.preheader:                            ; preds = %for.cond107.preheader.lr.ph, %for.inc139
  %96 = phi i64 [ %120, %for.inc139 ], [ %92, %for.cond107.preheader.lr.ph ]
  %97 = phi i64 [ %121, %for.inc139 ], [ %94, %for.cond107.preheader.lr.ph ]
  %indvars.iv380 = phi i64 [ %indvars.iv.next381, %for.inc139 ], [ 0, %for.cond107.preheader.lr.ph ]
  %cmp111334 = icmp sgt i64 %97, 0
  br i1 %cmp111334, label %for.body112, label %for.inc139

for.body112:                                      ; preds = %for.cond107.preheader, %_Z13frand_uniformP27random_uniform_distribution.exit126
  %indvars.iv = phi i64 [ %indvars.iv.next, %_Z13frand_uniformP27random_uniform_distribution.exit126 ], [ 0, %for.cond107.preheader ]
  %98 = load ptr, ptr %data114, align 8
  %99 = load i64, ptr %nb116, align 8
  %mul118 = mul i64 %99, %indvars.iv
  %100 = load i64, ptr %arrayidx122, align 8
  %mul123 = mul i64 %100, %indvars.iv380
  %101 = load i64, ptr %arrayidx127, align 8
  %mul128 = mul i64 %101, %indvars.iv383
  %102 = load i64, ptr %arrayidx132, align 8
  %mul133 = mul i64 %102, %indvars.iv386
  %call.i.i.i.i.i.i101 = tail call noundef x86_fp80 @logl(x86_fp80 noundef 0xK401F8000000000000000) #34
  %call.i8.i.i.i.i.i102 = tail call noundef x86_fp80 @logl(x86_fp80 noundef 0xK40008000000000000000) #34
  %div.i.i.i.i.i103 = fdiv x86_fp80 %call.i.i.i.i.i.i101, %call.i8.i.i.i.i.i102
  %conv7.i.i.i.i.i104 = fptoui x86_fp80 %div.i.i.i.i.i103 to i64
  %sub11.i.i.i.i.i105 = add i64 %conv7.i.i.i.i.i104, 23
  %div12.i.i.i.i.i106 = udiv i64 %sub11.i.i.i.i.i105, %conv7.i.i.i.i.i104
  %spec.select.i.i.i.i.i107 = tail call i64 @llvm.umax.i64(i64 %div12.i.i.i.i.i106, i64 1)
  %.pre = load i64, ptr %_M_p.i261, align 8
  br label %for.body.i.i.i.i.i108

for.body.i.i.i.i.i108:                            ; preds = %_ZNSt23mersenne_twister_engineImLm32ELm624ELm397ELm31ELm2567483615ELm11ELm4294967295ELm7ELm2636928640ELm15ELm4022730752ELm18ELm1812433253EEclEv.exit327, %for.body112
  %103 = phi i64 [ %.pre, %for.body112 ], [ %inc.i263, %_ZNSt23mersenne_twister_engineImLm32ELm624ELm397ELm31ELm2567483615ELm11ELm4294967295ELm7ELm2636928640ELm15ELm4022730752ELm18ELm1812433253EEclEv.exit327 ]
  %__k.019.i.i.i.i.i109 = phi i64 [ %spec.select.i.i.i.i.i107, %for.body112 ], [ %dec.i.i.i.i.i115, %_ZNSt23mersenne_twister_engineImLm32ELm624ELm397ELm31ELm2567483615ELm11ELm4294967295ELm7ELm2636928640ELm15ELm4022730752ELm18ELm1812433253EEclEv.exit327 ]
  %__tmp.018.i.i.i.i.i110 = phi float [ 1.000000e+00, %for.body112 ], [ %conv19.i.i.i.i.i114, %_ZNSt23mersenne_twister_engineImLm32ELm624ELm397ELm31ELm2567483615ELm11ELm4294967295ELm7ELm2636928640ELm15ELm4022730752ELm18ELm1812433253EEclEv.exit327 ]
  %__sum.017.i.i.i.i.i111 = phi float [ 0.000000e+00, %for.body112 ], [ %115, %_ZNSt23mersenne_twister_engineImLm32ELm624ELm397ELm31ELm2567483615ELm11ELm4294967295ELm7ELm2636928640ELm15ELm4022730752ELm18ELm1812433253EEclEv.exit327 ]
  %cmp.i262 = icmp ugt i64 %103, 623
  br i1 %cmp.i262, label %if.then.i276, label %_ZNSt23mersenne_twister_engineImLm32ELm624ELm397ELm31ELm2567483615ELm11ELm4294967295ELm7ELm2636928640ELm15ELm4022730752ELm18ELm1812433253EEclEv.exit327

if.then.i276:                                     ; preds = %for.body.i.i.i.i.i108
  %.pre.i.i277 = load i64, ptr %rnd, align 8
  br label %for.body.i.i278

for.body.i.i278:                                  ; preds = %for.body.i.i278, %if.then.i276
  %104 = phi i64 [ %.pre.i.i277, %if.then.i276 ], [ %105, %for.body.i.i278 ]
  %__k.014.i.i279 = phi i64 [ 0, %if.then.i276 ], [ %add.i.i282, %for.body.i.i278 ]
  %arrayidx.i.i280 = getelementptr inbounds [624 x i64], ptr %rnd, i64 0, i64 %__k.014.i.i279
  %and.i.i281 = and i64 %104, -2147483648
  %add.i.i282 = add nuw nsw i64 %__k.014.i.i279, 1
  %arrayidx3.i.i283 = getelementptr inbounds [624 x i64], ptr %rnd, i64 0, i64 %add.i.i282
  %105 = load i64, ptr %arrayidx3.i.i283, align 8
  %and4.i.i284 = and i64 %105, 2147483646
  %or.i.i285 = or disjoint i64 %and4.i.i284, %and.i.i281
  %add6.i.i286 = add nuw nsw i64 %__k.014.i.i279, 397
  %arrayidx7.i.i287 = getelementptr inbounds [624 x i64], ptr %rnd, i64 0, i64 %add6.i.i286
  %106 = load i64, ptr %arrayidx7.i.i287, align 8
  %shr.i.i288 = lshr exact i64 %or.i.i285, 1
  %xor.i.i289 = xor i64 %shr.i.i288, %106
  %and8.i.i290 = and i64 %105, 1
  %tobool.not.i.i291 = icmp eq i64 %and8.i.i290, 0
  %cond.i.i292 = select i1 %tobool.not.i.i291, i64 0, i64 2567483615
  %xor9.i.i293 = xor i64 %xor.i.i289, %cond.i.i292
  store i64 %xor9.i.i293, ptr %arrayidx.i.i280, align 8
  %exitcond.not.i.i294 = icmp eq i64 %add.i.i282, 227
  br i1 %exitcond.not.i.i294, label %for.body15.preheader.i.i295, label %for.body.i.i278, !llvm.loop !17

for.body15.preheader.i.i295:                      ; preds = %for.body.i.i278
  %.pre17.i.i297 = load i64, ptr %arrayidx18.phi.trans.insert.i.i296, align 8
  br label %for.body15.i.i298

for.body15.i.i298:                                ; preds = %for.body15.i.i298, %for.body15.preheader.i.i295
  %107 = phi i64 [ %108, %for.body15.i.i298 ], [ %.pre17.i.i297, %for.body15.preheader.i.i295 ]
  %__k12.015.i.i299 = phi i64 [ %add21.i.i302, %for.body15.i.i298 ], [ 227, %for.body15.preheader.i.i295 ]
  %arrayidx18.i.i300 = getelementptr inbounds [624 x i64], ptr %rnd, i64 0, i64 %__k12.015.i.i299
  %and19.i.i301 = and i64 %107, -2147483648
  %add21.i.i302 = add nuw nsw i64 %__k12.015.i.i299, 1
  %arrayidx22.i.i303 = getelementptr inbounds [624 x i64], ptr %rnd, i64 0, i64 %add21.i.i302
  %108 = load i64, ptr %arrayidx22.i.i303, align 8
  %and23.i.i304 = and i64 %108, 2147483646
  %or24.i.i305 = or disjoint i64 %and23.i.i304, %and19.i.i301
  %add26.i.i306 = add nsw i64 %__k12.015.i.i299, -227
  %arrayidx27.i.i307 = getelementptr inbounds [624 x i64], ptr %rnd, i64 0, i64 %add26.i.i306
  %109 = load i64, ptr %arrayidx27.i.i307, align 8
  %shr28.i.i308 = lshr exact i64 %or24.i.i305, 1
  %xor29.i.i309 = xor i64 %shr28.i.i308, %109
  %and30.i.i310 = and i64 %108, 1
  %tobool31.not.i.i311 = icmp eq i64 %and30.i.i310, 0
  %cond32.i.i312 = select i1 %tobool31.not.i.i311, i64 0, i64 2567483615
  %xor33.i.i313 = xor i64 %xor29.i.i309, %cond32.i.i312
  store i64 %xor33.i.i313, ptr %arrayidx18.i.i300, align 8
  %exitcond16.not.i.i314 = icmp eq i64 %add21.i.i302, 623
  br i1 %exitcond16.not.i.i314, label %_ZNSt23mersenne_twister_engineImLm32ELm624ELm397ELm31ELm2567483615ELm11ELm4294967295ELm7ELm2636928640ELm15ELm4022730752ELm18ELm1812433253EE11_M_gen_randEv.exit.i315, label %for.body15.i.i298, !llvm.loop !18

_ZNSt23mersenne_twister_engineImLm32ELm624ELm397ELm31ELm2567483615ELm11ELm4294967295ELm7ELm2636928640ELm15ELm4022730752ELm18ELm1812433253EE11_M_gen_randEv.exit.i315: ; preds = %for.body15.i.i298
  %110 = load i64, ptr %arrayidx41.i.i316, align 8
  %and42.i.i317 = and i64 %110, -2147483648
  %111 = load i64, ptr %rnd, align 8
  %and45.i.i318 = and i64 %111, 2147483646
  %or46.i.i319 = or disjoint i64 %and45.i.i318, %and42.i.i317
  %112 = load i64, ptr %arrayidx48.i.i320, align 8
  %shr49.i.i321 = lshr exact i64 %or46.i.i319, 1
  %xor50.i.i322 = xor i64 %shr49.i.i321, %112
  %and51.i.i323 = and i64 %111, 1
  %tobool52.not.i.i324 = icmp eq i64 %and51.i.i323, 0
  %cond53.i.i325 = select i1 %tobool52.not.i.i324, i64 0, i64 2567483615
  %xor54.i.i326 = xor i64 %xor50.i.i322, %cond53.i.i325
  store i64 %xor54.i.i326, ptr %arrayidx41.i.i316, align 8
  br label %_ZNSt23mersenne_twister_engineImLm32ELm624ELm397ELm31ELm2567483615ELm11ELm4294967295ELm7ELm2636928640ELm15ELm4022730752ELm18ELm1812433253EEclEv.exit327

_ZNSt23mersenne_twister_engineImLm32ELm624ELm397ELm31ELm2567483615ELm11ELm4294967295ELm7ELm2636928640ELm15ELm4022730752ELm18ELm1812433253EEclEv.exit327: ; preds = %for.body.i.i.i.i.i108, %_ZNSt23mersenne_twister_engineImLm32ELm624ELm397ELm31ELm2567483615ELm11ELm4294967295ELm7ELm2636928640ELm15ELm4022730752ELm18ELm1812433253EE11_M_gen_randEv.exit.i315
  %113 = phi i64 [ 0, %_ZNSt23mersenne_twister_engineImLm32ELm624ELm397ELm31ELm2567483615ELm11ELm4294967295ELm7ELm2636928640ELm15ELm4022730752ELm18ELm1812433253EE11_M_gen_randEv.exit.i315 ], [ %103, %for.body.i.i.i.i.i108 ]
  %inc.i263 = add nuw nsw i64 %113, 1
  store i64 %inc.i263, ptr %_M_p.i261, align 8
  %arrayidx.i264 = getelementptr inbounds [624 x i64], ptr %rnd, i64 0, i64 %113
  %114 = load i64, ptr %arrayidx.i264, align 8
  %shr.i265 = lshr i64 %114, 11
  %and.i266 = and i64 %shr.i265, 4294967295
  %xor.i267 = xor i64 %and.i266, %114
  %shl.i268 = shl i64 %xor.i267, 7
  %and3.i269 = and i64 %shl.i268, 2636928640
  %xor4.i270 = xor i64 %and3.i269, %xor.i267
  %shl5.i271 = shl i64 %xor4.i270, 15
  %and6.i272 = and i64 %shl5.i271, 4022730752
  %xor7.i273 = xor i64 %and6.i272, %xor4.i270
  %shr8.i274 = lshr i64 %xor7.i273, 18
  %xor9.i275 = xor i64 %shr8.i274, %xor7.i273
  %conv17.i.i.i.i.i113 = uitofp i64 %xor9.i275 to float
  %115 = tail call float @llvm.fmuladd.f32(float %conv17.i.i.i.i.i113, float %__tmp.018.i.i.i.i.i110, float %__sum.017.i.i.i.i.i111)
  %conv19.i.i.i.i.i114 = fmul float %__tmp.018.i.i.i.i.i110, 0x41F0000000000000
  %dec.i.i.i.i.i115 = add i64 %__k.019.i.i.i.i.i109, -1
  %cmp.not.i.i.i.i.i116 = icmp eq i64 %dec.i.i.i.i.i115, 0
  br i1 %cmp.not.i.i.i.i.i116, label %for.end.i.i.i.i.i117, label %for.body.i.i.i.i.i108, !llvm.loop !19

for.end.i.i.i.i.i117:                             ; preds = %_ZNSt23mersenne_twister_engineImLm32ELm624ELm397ELm31ELm2567483615ELm11ELm4294967295ELm7ELm2636928640ELm15ELm4022730752ELm18ELm1812433253EEclEv.exit327
  %add.ptr119 = getelementptr inbounds i8, ptr %98, i64 %mul118
  %add.ptr124 = getelementptr inbounds i8, ptr %add.ptr119, i64 %mul123
  %add.ptr129 = getelementptr inbounds i8, ptr %add.ptr124, i64 %mul128
  %add.ptr134 = getelementptr inbounds i8, ptr %add.ptr129, i64 %mul133
  %div20.i.i.i.i.i118 = fdiv float %115, %conv19.i.i.i.i.i114
  %cmp21.i.i.i.i.i119 = fcmp ult float %div20.i.i.i.i.i118, 1.000000e+00
  br i1 %cmp21.i.i.i.i.i119, label %_Z13frand_uniformP27random_uniform_distribution.exit126, label %if.then.i.i.i.i.i120

if.then.i.i.i.i.i120:                             ; preds = %for.end.i.i.i.i.i117
  %call.i11.i.i.i.i.i121 = tail call noundef float @nextafterf(float noundef 1.000000e+00, float noundef 0.000000e+00) #34
  br label %_Z13frand_uniformP27random_uniform_distribution.exit126

_Z13frand_uniformP27random_uniform_distribution.exit126: ; preds = %for.end.i.i.i.i.i117, %if.then.i.i.i.i.i120
  %__ret.0.i.i.i.i.i122 = phi float [ %call.i11.i.i.i.i.i121, %if.then.i.i.i.i.i120 ], [ %div20.i.i.i.i.i118, %for.end.i.i.i.i.i117 ]
  %116 = load float, ptr %_M_b.i.i.i.i124, align 4
  %117 = load float, ptr %rd.i123, align 4
  %sub.i.i.i125 = fsub float %116, %117
  %118 = tail call noundef float @llvm.fmuladd.f32(float %__ret.0.i.i.i.i.i122, float %sub.i.i.i125, float %117)
  store float %118, ptr %add.ptr134, align 4
  %indvars.iv.next = add nuw nsw i64 %indvars.iv, 1
  %119 = load i64, ptr %ne88, align 8
  %cmp111 = icmp sgt i64 %119, %indvars.iv.next
  br i1 %cmp111, label %for.body112, label %for.inc139.loopexit, !llvm.loop !26

for.inc139.loopexit:                              ; preds = %_Z13frand_uniformP27random_uniform_distribution.exit126
  %.pre416 = load i64, ptr %arrayidx103, align 8
  br label %for.inc139

for.inc139:                                       ; preds = %for.inc139.loopexit, %for.cond107.preheader
  %120 = phi i64 [ %.pre416, %for.inc139.loopexit ], [ %96, %for.cond107.preheader ]
  %121 = phi i64 [ %119, %for.inc139.loopexit ], [ %97, %for.cond107.preheader ]
  %indvars.iv.next381 = add nuw nsw i64 %indvars.iv380, 1
  %cmp104 = icmp sgt i64 %120, %indvars.iv.next381
  br i1 %cmp104, label %for.cond107.preheader, label %for.inc142.loopexit, !llvm.loop !27

for.inc142.loopexit:                              ; preds = %for.inc139
  %.pre417 = load i64, ptr %arrayidx96, align 8
  br label %for.inc142

for.inc142:                                       ; preds = %for.cond107.preheader.lr.ph, %for.inc142.loopexit, %for.cond100.preheader
  %122 = phi i64 [ %.pre417, %for.inc142.loopexit ], [ %91, %for.cond100.preheader ], [ %91, %for.cond107.preheader.lr.ph ]
  %123 = phi i64 [ %120, %for.inc142.loopexit ], [ %92, %for.cond100.preheader ], [ %92, %for.cond107.preheader.lr.ph ]
  %124 = phi i64 [ %120, %for.inc142.loopexit ], [ %93, %for.cond100.preheader ], [ %93, %for.cond107.preheader.lr.ph ]
  %indvars.iv.next384 = add nuw nsw i64 %indvars.iv383, 1
  %cmp97 = icmp sgt i64 %122, %indvars.iv.next384
  br i1 %cmp97, label %for.cond100.preheader, label %for.inc145.loopexit, !llvm.loop !28

for.inc145.loopexit:                              ; preds = %for.inc142
  %.pre418 = load i64, ptr %arrayidx89, align 8
  br label %for.inc145

for.inc145:                                       ; preds = %for.cond100.preheader.lr.ph, %for.inc145.loopexit, %for.cond93.preheader
  %125 = phi i64 [ %.pre418, %for.inc145.loopexit ], [ %86, %for.cond93.preheader ], [ %86, %for.cond100.preheader.lr.ph ]
  %126 = phi i64 [ %122, %for.inc145.loopexit ], [ %87, %for.cond93.preheader ], [ %87, %for.cond100.preheader.lr.ph ]
  %127 = phi i64 [ %122, %for.inc145.loopexit ], [ %88, %for.cond93.preheader ], [ %88, %for.cond100.preheader.lr.ph ]
  %indvars.iv.next387 = add nuw nsw i64 %indvars.iv386, 1
  %cmp90 = icmp sgt i64 %125, %indvars.iv.next387
  br i1 %cmp90, label %for.cond93.preheader, label %sw.epilog, !llvm.loop !29

do.body:                                          ; preds = %entry
  %128 = load ptr, ptr @stderr, align 8
  %129 = tail call i64 @fwrite(ptr nonnull @.str.1, i64 34, i64 1, ptr %128) #37
  tail call void @exit(i32 noundef 1) #38
  unreachable

sw.epilog:                                        ; preds = %for.inc145, %for.inc82, %for.inc34, %_Z13frand_uniformP27random_uniform_distribution.exit, %for.cond12.preheader.lr.ph, %for.cond45.preheader.lr.ph, %for.cond93.preheader.lr.ph, %for.cond86.preheader, %for.cond38.preheader, %for.cond5.preheader, %for.cond.preheader
  ret ptr %tensor
}

; Function Attrs: mustprogress uwtable
define noundef float @_Z13frand_uniformP27random_uniform_distribution(ptr noundef %rnd) local_unnamed_addr #3 {
entry:
  %call.i.i.i.i.i = tail call noundef x86_fp80 @logl(x86_fp80 noundef 0xK401F8000000000000000) #34
  %call.i8.i.i.i.i = tail call noundef x86_fp80 @logl(x86_fp80 noundef 0xK40008000000000000000) #34
  %div.i.i.i.i = fdiv x86_fp80 %call.i.i.i.i.i, %call.i8.i.i.i.i
  %conv7.i.i.i.i = fptoui x86_fp80 %div.i.i.i.i to i64
  %sub11.i.i.i.i = add i64 %conv7.i.i.i.i, 23
  %div12.i.i.i.i = udiv i64 %sub11.i.i.i.i, %conv7.i.i.i.i
  %spec.select.i.i.i.i = tail call i64 @llvm.umax.i64(i64 %div12.i.i.i.i, i64 1)
  br label %for.body.i.i.i.i

for.body.i.i.i.i:                                 ; preds = %for.body.i.i.i.i, %entry
  %__k.019.i.i.i.i = phi i64 [ %spec.select.i.i.i.i, %entry ], [ %dec.i.i.i.i, %for.body.i.i.i.i ]
  %__tmp.018.i.i.i.i = phi float [ 1.000000e+00, %entry ], [ %conv19.i.i.i.i, %for.body.i.i.i.i ]
  %__sum.017.i.i.i.i = phi float [ 0.000000e+00, %entry ], [ %0, %for.body.i.i.i.i ]
  %call14.i.i.i.i = tail call noundef i64 @_ZNSt23mersenne_twister_engineImLm32ELm624ELm397ELm31ELm2567483615ELm11ELm4294967295ELm7ELm2636928640ELm15ELm4022730752ELm18ELm1812433253EEclEv(ptr noundef nonnull align 8 dereferenceable(5000) %rnd)
  %conv17.i.i.i.i = uitofp i64 %call14.i.i.i.i to float
  %0 = tail call float @llvm.fmuladd.f32(float %conv17.i.i.i.i, float %__tmp.018.i.i.i.i, float %__sum.017.i.i.i.i)
  %conv19.i.i.i.i = fmul float %__tmp.018.i.i.i.i, 0x41F0000000000000
  %dec.i.i.i.i = add i64 %__k.019.i.i.i.i, -1
  %cmp.not.i.i.i.i = icmp eq i64 %dec.i.i.i.i, 0
  br i1 %cmp.not.i.i.i.i, label %for.end.i.i.i.i, label %for.body.i.i.i.i, !llvm.loop !19

for.end.i.i.i.i:                                  ; preds = %for.body.i.i.i.i
  %div20.i.i.i.i = fdiv float %0, %conv19.i.i.i.i
  %cmp21.i.i.i.i = fcmp ult float %div20.i.i.i.i, 1.000000e+00
  br i1 %cmp21.i.i.i.i, label %_ZNSt25uniform_real_distributionIfEclISt23mersenne_twister_engineImLm32ELm624ELm397ELm31ELm2567483615ELm11ELm4294967295ELm7ELm2636928640ELm15ELm4022730752ELm18ELm1812433253EEEEfRT_.exit, label %if.then.i.i.i.i

if.then.i.i.i.i:                                  ; preds = %for.end.i.i.i.i
  %call.i11.i.i.i.i = tail call noundef float @nextafterf(float noundef 1.000000e+00, float noundef 0.000000e+00) #34
  br label %_ZNSt25uniform_real_distributionIfEclISt23mersenne_twister_engineImLm32ELm624ELm397ELm31ELm2567483615ELm11ELm4294967295ELm7ELm2636928640ELm15ELm4022730752ELm18ELm1812433253EEEEfRT_.exit

_ZNSt25uniform_real_distributionIfEclISt23mersenne_twister_engineImLm32ELm624ELm397ELm31ELm2567483615ELm11ELm4294967295ELm7ELm2636928640ELm15ELm4022730752ELm18ELm1812433253EEEEfRT_.exit: ; preds = %for.end.i.i.i.i, %if.then.i.i.i.i
  %__ret.0.i.i.i.i = phi float [ %call.i11.i.i.i.i, %if.then.i.i.i.i ], [ %div20.i.i.i.i, %for.end.i.i.i.i ]
  %rd = getelementptr inbounds i8, ptr %rnd, i64 5000
  %_M_b.i.i.i = getelementptr inbounds i8, ptr %rnd, i64 5004
  %1 = load float, ptr %_M_b.i.i.i, align 4
  %2 = load float, ptr %rd, align 4
  %sub.i.i = fsub float %1, %2
  %3 = tail call noundef float @llvm.fmuladd.f32(float %__ret.0.i.i.i.i, float %sub.i.i, float %2)
  ret float %3
}

; Function Attrs: mustprogress nounwind uwtable
define noundef float @_Z5frandv() local_unnamed_addr #6 {
entry:
  %call = tail call i32 @rand() #34
  %conv = sitofp i32 %call to float
  %div = fmul float %conv, 0x3E00000000000000
  ret float %div
}

; Function Attrs: nounwind
declare i32 @rand() local_unnamed_addr #1

; Function Attrs: mustprogress nofree norecurse nosync nounwind willreturn memory(none) uwtable
define noundef float @_Z6fclampfff(float noundef %v, float noundef %min, float noundef %max) local_unnamed_addr #14 {
entry:
  %cmp = fcmp olt float %v, %min
  %cmp1 = fcmp ogt float %v, %max
  %cond = select i1 %cmp1, float %max, float %v
  %cond5 = select i1 %cmp, float %min, float %cond
  ret float %cond5
}

; Function Attrs: mustprogress nofree nosync nounwind willreturn memory(none) uwtable
define noundef i32 @_Z5clampiii(i32 noundef %v, i32 noundef %min, i32 noundef %max) local_unnamed_addr #15 {
entry:
  %cmp = icmp slt i32 %v, %min
  %cond = tail call i32 @llvm.smin.i32(i32 %v, i32 %max)
  %cond5 = select i1 %cmp, i32 %min, i32 %cond
  ret i32 %cond5
}

; Function Attrs: mustprogress uwtable
define void @_Z15assert_shape_1dP11ggml_tensorl(ptr nocapture noundef readonly %tensor, i64 noundef %ne0) local_unnamed_addr #3 {
entry:
  %ne = getelementptr inbounds i8, ptr %tensor, i64 16
  %0 = load i64, ptr %ne, align 8
  %cmp = icmp eq i64 %0, %ne0
  br i1 %cmp, label %do.body2, label %if.then

if.then:                                          ; preds = %entry
  %1 = load ptr, ptr @stdout, align 8
  %call = tail call i32 @fflush(ptr noundef %1)
  %2 = load ptr, ptr @stderr, align 8
  %call1 = tail call i32 (ptr, ptr, ...) @fprintf(ptr noundef %2, ptr noundef nonnull @.str.2, ptr noundef nonnull @.str.3, i32 noundef 186, ptr noundef nonnull @.str.4) #37
  tail call void @ggml_print_backtrace()
  tail call void @abort() #38
  unreachable

do.body2:                                         ; preds = %entry
  %arrayidx4 = getelementptr inbounds i8, ptr %tensor, i64 24
  %3 = load i64, ptr %arrayidx4, align 8
  %cmp5 = icmp eq i64 %3, 1
  br i1 %cmp5, label %do.body11, label %if.then6

if.then6:                                         ; preds = %do.body2
  %4 = load ptr, ptr @stdout, align 8
  %call7 = tail call i32 @fflush(ptr noundef %4)
  %5 = load ptr, ptr @stderr, align 8
  %call8 = tail call i32 (ptr, ptr, ...) @fprintf(ptr noundef %5, ptr noundef nonnull @.str.2, ptr noundef nonnull @.str.3, i32 noundef 187, ptr noundef nonnull @.str.5) #37
  tail call void @ggml_print_backtrace()
  tail call void @abort() #38
  unreachable

do.body11:                                        ; preds = %do.body2
  %arrayidx13 = getelementptr inbounds i8, ptr %tensor, i64 32
  %6 = load i64, ptr %arrayidx13, align 8
  %cmp14 = icmp eq i64 %6, 1
  br i1 %cmp14, label %do.body20, label %if.then15

if.then15:                                        ; preds = %do.body11
  %7 = load ptr, ptr @stdout, align 8
  %call16 = tail call i32 @fflush(ptr noundef %7)
  %8 = load ptr, ptr @stderr, align 8
  %call17 = tail call i32 (ptr, ptr, ...) @fprintf(ptr noundef %8, ptr noundef nonnull @.str.2, ptr noundef nonnull @.str.3, i32 noundef 188, ptr noundef nonnull @.str.6) #37
  tail call void @ggml_print_backtrace()
  tail call void @abort() #38
  unreachable

do.body20:                                        ; preds = %do.body11
  %arrayidx22 = getelementptr inbounds i8, ptr %tensor, i64 40
  %9 = load i64, ptr %arrayidx22, align 8
  %cmp23 = icmp eq i64 %9, 1
  br i1 %cmp23, label %do.end28, label %if.then24

if.then24:                                        ; preds = %do.body20
  %10 = load ptr, ptr @stdout, align 8
  %call25 = tail call i32 @fflush(ptr noundef %10)
  %11 = load ptr, ptr @stderr, align 8
  %call26 = tail call i32 (ptr, ptr, ...) @fprintf(ptr noundef %11, ptr noundef nonnull @.str.2, ptr noundef nonnull @.str.3, i32 noundef 189, ptr noundef nonnull @.str.7) #37
  tail call void @ggml_print_backtrace()
  tail call void @abort() #38
  unreachable

do.end28:                                         ; preds = %do.body20
  ret void
}

; Function Attrs: nofree nounwind
declare noundef i32 @fflush(ptr nocapture noundef) local_unnamed_addr #16

; Function Attrs: nofree nounwind
declare noundef i32 @fprintf(ptr nocapture noundef, ptr nocapture noundef readonly, ...) local_unnamed_addr #16

declare void @ggml_print_backtrace() local_unnamed_addr #0

; Function Attrs: noreturn nounwind
declare void @abort() local_unnamed_addr #13

; Function Attrs: mustprogress uwtable
define void @_Z15assert_shape_2dP11ggml_tensorll(ptr nocapture noundef readonly %tensor, i64 noundef %ne0, i64 noundef %ne1) local_unnamed_addr #3 {
entry:
  %ne = getelementptr inbounds i8, ptr %tensor, i64 16
  %0 = load i64, ptr %ne, align 8
  %cmp = icmp eq i64 %0, %ne0
  br i1 %cmp, label %do.body2, label %if.then

if.then:                                          ; preds = %entry
  %1 = load ptr, ptr @stdout, align 8
  %call = tail call i32 @fflush(ptr noundef %1)
  %2 = load ptr, ptr @stderr, align 8
  %call1 = tail call i32 (ptr, ptr, ...) @fprintf(ptr noundef %2, ptr noundef nonnull @.str.2, ptr noundef nonnull @.str.3, i32 noundef 193, ptr noundef nonnull @.str.4) #37
  tail call void @ggml_print_backtrace()
  tail call void @abort() #38
  unreachable

do.body2:                                         ; preds = %entry
  %arrayidx4 = getelementptr inbounds i8, ptr %tensor, i64 24
  %3 = load i64, ptr %arrayidx4, align 8
  %cmp5 = icmp eq i64 %3, %ne1
  br i1 %cmp5, label %do.body11, label %if.then6

if.then6:                                         ; preds = %do.body2
  %4 = load ptr, ptr @stdout, align 8
  %call7 = tail call i32 @fflush(ptr noundef %4)
  %5 = load ptr, ptr @stderr, align 8
  %call8 = tail call i32 (ptr, ptr, ...) @fprintf(ptr noundef %5, ptr noundef nonnull @.str.2, ptr noundef nonnull @.str.3, i32 noundef 194, ptr noundef nonnull @.str.8) #37
  tail call void @ggml_print_backtrace()
  tail call void @abort() #38
  unreachable

do.body11:                                        ; preds = %do.body2
  %arrayidx13 = getelementptr inbounds i8, ptr %tensor, i64 32
  %6 = load i64, ptr %arrayidx13, align 8
  %cmp14 = icmp eq i64 %6, 1
  br i1 %cmp14, label %do.body20, label %if.then15

if.then15:                                        ; preds = %do.body11
  %7 = load ptr, ptr @stdout, align 8
  %call16 = tail call i32 @fflush(ptr noundef %7)
  %8 = load ptr, ptr @stderr, align 8
  %call17 = tail call i32 (ptr, ptr, ...) @fprintf(ptr noundef %8, ptr noundef nonnull @.str.2, ptr noundef nonnull @.str.3, i32 noundef 195, ptr noundef nonnull @.str.6) #37
  tail call void @ggml_print_backtrace()
  tail call void @abort() #38
  unreachable

do.body20:                                        ; preds = %do.body11
  %arrayidx22 = getelementptr inbounds i8, ptr %tensor, i64 40
  %9 = load i64, ptr %arrayidx22, align 8
  %cmp23 = icmp eq i64 %9, 1
  br i1 %cmp23, label %do.end28, label %if.then24

if.then24:                                        ; preds = %do.body20
  %10 = load ptr, ptr @stdout, align 8
  %call25 = tail call i32 @fflush(ptr noundef %10)
  %11 = load ptr, ptr @stderr, align 8
  %call26 = tail call i32 (ptr, ptr, ...) @fprintf(ptr noundef %11, ptr noundef nonnull @.str.2, ptr noundef nonnull @.str.3, i32 noundef 196, ptr noundef nonnull @.str.7) #37
  tail call void @ggml_print_backtrace()
  tail call void @abort() #38
  unreachable

do.end28:                                         ; preds = %do.body20
  ret void
}

; Function Attrs: mustprogress uwtable
define void @_Z15assert_shape_3dP11ggml_tensorlll(ptr nocapture noundef readonly %tensor, i64 noundef %ne0, i64 noundef %ne1, i64 noundef %ne2) local_unnamed_addr #3 {
entry:
  %ne = getelementptr inbounds i8, ptr %tensor, i64 16
  %0 = load i64, ptr %ne, align 8
  %cmp = icmp eq i64 %0, %ne0
  br i1 %cmp, label %do.body2, label %if.then

if.then:                                          ; preds = %entry
  %1 = load ptr, ptr @stdout, align 8
  %call = tail call i32 @fflush(ptr noundef %1)
  %2 = load ptr, ptr @stderr, align 8
  %call1 = tail call i32 (ptr, ptr, ...) @fprintf(ptr noundef %2, ptr noundef nonnull @.str.2, ptr noundef nonnull @.str.3, i32 noundef 200, ptr noundef nonnull @.str.4) #37
  tail call void @ggml_print_backtrace()
  tail call void @abort() #38
  unreachable

do.body2:                                         ; preds = %entry
  %arrayidx4 = getelementptr inbounds i8, ptr %tensor, i64 24
  %3 = load i64, ptr %arrayidx4, align 8
  %cmp5 = icmp eq i64 %3, %ne1
  br i1 %cmp5, label %do.body11, label %if.then6

if.then6:                                         ; preds = %do.body2
  %4 = load ptr, ptr @stdout, align 8
  %call7 = tail call i32 @fflush(ptr noundef %4)
  %5 = load ptr, ptr @stderr, align 8
  %call8 = tail call i32 (ptr, ptr, ...) @fprintf(ptr noundef %5, ptr noundef nonnull @.str.2, ptr noundef nonnull @.str.3, i32 noundef 201, ptr noundef nonnull @.str.8) #37
  tail call void @ggml_print_backtrace()
  tail call void @abort() #38
  unreachable

do.body11:                                        ; preds = %do.body2
  %arrayidx13 = getelementptr inbounds i8, ptr %tensor, i64 32
  %6 = load i64, ptr %arrayidx13, align 8
  %cmp14 = icmp eq i64 %6, %ne2
  br i1 %cmp14, label %do.body20, label %if.then15

if.then15:                                        ; preds = %do.body11
  %7 = load ptr, ptr @stdout, align 8
  %call16 = tail call i32 @fflush(ptr noundef %7)
  %8 = load ptr, ptr @stderr, align 8
  %call17 = tail call i32 (ptr, ptr, ...) @fprintf(ptr noundef %8, ptr noundef nonnull @.str.2, ptr noundef nonnull @.str.3, i32 noundef 202, ptr noundef nonnull @.str.9) #37
  tail call void @ggml_print_backtrace()
  tail call void @abort() #38
  unreachable

do.body20:                                        ; preds = %do.body11
  %arrayidx22 = getelementptr inbounds i8, ptr %tensor, i64 40
  %9 = load i64, ptr %arrayidx22, align 8
  %cmp23 = icmp eq i64 %9, 1
  br i1 %cmp23, label %do.end28, label %if.then24

if.then24:                                        ; preds = %do.body20
  %10 = load ptr, ptr @stdout, align 8
  %call25 = tail call i32 @fflush(ptr noundef %10)
  %11 = load ptr, ptr @stderr, align 8
  %call26 = tail call i32 (ptr, ptr, ...) @fprintf(ptr noundef %11, ptr noundef nonnull @.str.2, ptr noundef nonnull @.str.3, i32 noundef 203, ptr noundef nonnull @.str.7) #37
  tail call void @ggml_print_backtrace()
  tail call void @abort() #38
  unreachable

do.end28:                                         ; preds = %do.body20
  ret void
}

; Function Attrs: mustprogress uwtable
define void @_Z15assert_shape_4dP11ggml_tensorllll(ptr nocapture noundef readonly %tensor, i64 noundef %ne0, i64 noundef %ne1, i64 noundef %ne2, i64 noundef %ne3) local_unnamed_addr #3 {
entry:
  %ne = getelementptr inbounds i8, ptr %tensor, i64 16
  %0 = load i64, ptr %ne, align 8
  %cmp = icmp eq i64 %0, %ne0
  br i1 %cmp, label %do.body2, label %if.then

if.then:                                          ; preds = %entry
  %1 = load ptr, ptr @stdout, align 8
  %call = tail call i32 @fflush(ptr noundef %1)
  %2 = load ptr, ptr @stderr, align 8
  %call1 = tail call i32 (ptr, ptr, ...) @fprintf(ptr noundef %2, ptr noundef nonnull @.str.2, ptr noundef nonnull @.str.3, i32 noundef 207, ptr noundef nonnull @.str.4) #37
  tail call void @ggml_print_backtrace()
  tail call void @abort() #38
  unreachable

do.body2:                                         ; preds = %entry
  %arrayidx5 = getelementptr inbounds i8, ptr %tensor, i64 24
  %3 = load i64, ptr %arrayidx5, align 8
  %cmp6 = icmp eq i64 %3, %ne1
  br i1 %cmp6, label %do.body12, label %if.then7

if.then7:                                         ; preds = %do.body2
  %4 = load ptr, ptr @stdout, align 8
  %call8 = tail call i32 @fflush(ptr noundef %4)
  %5 = load ptr, ptr @stderr, align 8
  %call9 = tail call i32 (ptr, ptr, ...) @fprintf(ptr noundef %5, ptr noundef nonnull @.str.2, ptr noundef nonnull @.str.3, i32 noundef 208, ptr noundef nonnull @.str.8) #37
  tail call void @ggml_print_backtrace()
  tail call void @abort() #38
  unreachable

do.body12:                                        ; preds = %do.body2
  %arrayidx14 = getelementptr inbounds i8, ptr %tensor, i64 32
  %6 = load i64, ptr %arrayidx14, align 8
  %cmp15 = icmp eq i64 %6, %ne2
  br i1 %cmp15, label %do.body21, label %if.then16

if.then16:                                        ; preds = %do.body12
  %7 = load ptr, ptr @stdout, align 8
  %call17 = tail call i32 @fflush(ptr noundef %7)
  %8 = load ptr, ptr @stderr, align 8
  %call18 = tail call i32 (ptr, ptr, ...) @fprintf(ptr noundef %8, ptr noundef nonnull @.str.2, ptr noundef nonnull @.str.3, i32 noundef 209, ptr noundef nonnull @.str.9) #37
  tail call void @ggml_print_backtrace()
  tail call void @abort() #38
  unreachable

do.body21:                                        ; preds = %do.body12
  %arrayidx23 = getelementptr inbounds i8, ptr %tensor, i64 40
  %9 = load i64, ptr %arrayidx23, align 8
  %cmp24 = icmp eq i64 %9, %ne3
  br i1 %cmp24, label %do.end29, label %if.then25

if.then25:                                        ; preds = %do.body21
  %10 = load ptr, ptr @stdout, align 8
  %call26 = tail call i32 @fflush(ptr noundef %10)
  %11 = load ptr, ptr @stderr, align 8
  %call27 = tail call i32 (ptr, ptr, ...) @fprintf(ptr noundef %11, ptr noundef nonnull @.str.2, ptr noundef nonnull @.str.3, i32 noundef 210, ptr noundef nonnull @.str.10) #37
  tail call void @ggml_print_backtrace()
  tail call void @abort() #38
  unreachable

do.end29:                                         ; preds = %do.body21
  ret void
}

; Function Attrs: mustprogress uwtable
define noundef i64 @_Z25get_example_targets_batchP13llama_contextP11ggml_tensorS2_lPKmS4_S4_mPKimbbbb(ptr noundef %lctx, ptr noundef %tokens_input, ptr noundef %target_probs, i64 noundef %example_id, ptr nocapture noundef readonly %samples_offs, ptr nocapture noundef readonly %samples_begin, ptr nocapture noundef readonly %samples_size, i64 noundef %samples_count, ptr nocapture noundef readonly %train_data, i64 noundef %n_train_data, i1 noundef zeroext %separate_with_eos, i1 noundef zeroext %separate_with_bos, i1 noundef zeroext %fill_with_next_samples, i1 noundef zeroext %sample_random_offsets) local_unnamed_addr #3 {
entry:
  %cmp.not = icmp eq i64 %samples_count, 0
  br i1 %cmp.not, label %if.then, label %do.body5

if.then:                                          ; preds = %entry
  %0 = load ptr, ptr @stdout, align 8
  %call = tail call i32 @fflush(ptr noundef %0)
  %1 = load ptr, ptr @stderr, align 8
  %call4 = tail call i32 (ptr, ptr, ...) @fprintf(ptr noundef %1, ptr noundef nonnull @.str.2, ptr noundef nonnull @.str.3, i32 noundef 229, ptr noundef nonnull @.str.11) #37
  tail call void @ggml_print_backtrace()
  tail call void @abort() #38
  unreachable

do.body5:                                         ; preds = %entry
  %call6 = tail call zeroext i1 @ggml_is_matrix(ptr noundef %tokens_input)
  br i1 %call6, label %do.body12, label %if.then7

if.then7:                                         ; preds = %do.body5
  %2 = load ptr, ptr @stdout, align 8
  %call8 = tail call i32 @fflush(ptr noundef %2)
  %3 = load ptr, ptr @stderr, align 8
  %call9 = tail call i32 (ptr, ptr, ...) @fprintf(ptr noundef %3, ptr noundef nonnull @.str.2, ptr noundef nonnull @.str.3, i32 noundef 230, ptr noundef nonnull @.str.12) #37
  tail call void @ggml_print_backtrace()
  tail call void @abort() #38
  unreachable

do.body12:                                        ; preds = %do.body5
  %call13 = tail call zeroext i1 @ggml_is_3d(ptr noundef %target_probs)
  br i1 %call13, label %do.end18, label %if.then14

if.then14:                                        ; preds = %do.body12
  %4 = load ptr, ptr @stdout, align 8
  %call15 = tail call i32 @fflush(ptr noundef %4)
  %5 = load ptr, ptr @stderr, align 8
  %call16 = tail call i32 (ptr, ptr, ...) @fprintf(ptr noundef %5, ptr noundef nonnull @.str.2, ptr noundef nonnull @.str.3, i32 noundef 231, ptr noundef nonnull @.str.13) #37
  tail call void @ggml_print_backtrace()
  tail call void @abort() #38
  unreachable

do.end18:                                         ; preds = %do.body12
  %ne = getelementptr inbounds i8, ptr %target_probs, i64 16
  %6 = load i64, ptr %ne, align 8
  %ne19 = getelementptr inbounds i8, ptr %tokens_input, i64 16
  %7 = load i64, ptr %ne19, align 8
  %.fr = freeze i64 %7
  %arrayidx22 = getelementptr inbounds i8, ptr %tokens_input, i64 24
  %8 = load i64, ptr %arrayidx22, align 8
  %arrayidx34 = getelementptr inbounds i8, ptr %target_probs, i64 24
  %9 = load i64, ptr %arrayidx34, align 8
  %cmp35 = icmp eq i64 %.fr, %9
  br i1 %cmp35, label %do.body41, label %if.then36

if.then36:                                        ; preds = %do.end18
  %10 = load ptr, ptr @stdout, align 8
  %call37 = tail call i32 @fflush(ptr noundef %10)
  %11 = load ptr, ptr @stderr, align 8
  %call38 = tail call i32 (ptr, ptr, ...) @fprintf(ptr noundef %11, ptr noundef nonnull @.str.2, ptr noundef nonnull @.str.3, i32 noundef 236, ptr noundef nonnull @.str.15) #37
  tail call void @ggml_print_backtrace()
  tail call void @abort() #38
  unreachable

do.body41:                                        ; preds = %do.end18
  %arrayidx43 = getelementptr inbounds i8, ptr %target_probs, i64 32
  %12 = load i64, ptr %arrayidx43, align 8
  %cmp44 = icmp eq i64 %8, %12
  br i1 %cmp44, label %do.end49, label %if.then45

if.then45:                                        ; preds = %do.body41
  %13 = load ptr, ptr @stdout, align 8
  %call46 = tail call i32 @fflush(ptr noundef %13)
  %14 = load ptr, ptr @stderr, align 8
  %call47 = tail call i32 (ptr, ptr, ...) @fprintf(ptr noundef %14, ptr noundef nonnull @.str.2, ptr noundef nonnull @.str.3, i32 noundef 237, ptr noundef nonnull @.str.16) #37
  tail call void @ggml_print_backtrace()
  tail call void @abort() #38
  unreachable

do.end49:                                         ; preds = %do.body41
  %call50 = tail call ptr @ggml_set_f32(ptr noundef nonnull %target_probs, float noundef 0.000000e+00)
  %call51 = tail call ptr @llama_get_model(ptr noundef %lctx)
  %call52 = tail call i32 @llama_token_bos(ptr noundef %call51)
  %call53 = tail call ptr @llama_get_model(ptr noundef %lctx)
  %call54 = tail call i32 @llama_token_eos(ptr noundef %call53)
  %cmp5557 = icmp sgt i64 %8, 0
  br i1 %cmp5557, label %for.body.lr.ph, label %for.end116

for.body.lr.ph:                                   ; preds = %do.end49
  %lnot = xor i1 %separate_with_eos, true
  %frombool68 = zext i1 %lnot to i8
  %lnot70 = xor i1 %separate_with_bos, true
  %frombool71 = zext i1 %lnot70 to i8
  %cmp7349 = icmp sgt i64 %.fr, 0
  %15 = trunc i64 %6 to i32
  %conv102 = add i32 %15, -1
  br i1 %cmp7349, label %for.body.lr.ph.split.us, label %for.body.lr.ph.split

for.body.lr.ph.split.us:                          ; preds = %for.body.lr.ph
  br i1 %fill_with_next_samples, label %for.body.us.us, label %for.body.us

for.body.us.us:                                   ; preds = %for.body.lr.ph.split.us, %for.cond72.for.inc114_crit_edge.split.us.us.us
  %indvars.iv = phi i64 [ %indvars.iv.next, %for.cond72.for.inc114_crit_edge.split.us.us.us ], [ 0, %for.body.lr.ph.split.us ]
  %used_samples.058.us.us = phi i64 [ %used_samples.2.us.us.us, %for.cond72.for.inc114_crit_edge.split.us.us.us ], [ 0, %for.body.lr.ph.split.us ]
  %add.us.us = add nsw i64 %used_samples.058.us.us, %example_id
  %rem.us.us = urem i64 %add.us.us, %samples_count
  br i1 %sample_random_offsets, label %cond.true.us.us, label %cond.end.us.us

cond.true.us.us:                                  ; preds = %for.body.us.us
  %arrayidx56.us.us = getelementptr inbounds i64, ptr %samples_offs, i64 %rem.us.us
  %16 = load i64, ptr %arrayidx56.us.us, align 8
  br label %cond.end.us.us

cond.end.us.us:                                   ; preds = %cond.true.us.us, %for.body.us.us
  %cond.us.us = phi i64 [ %16, %cond.true.us.us ], [ 0, %for.body.us.us ]
  %arrayidx57.us.us = getelementptr inbounds i64, ptr %samples_begin, i64 %rem.us.us
  %17 = load i64, ptr %arrayidx57.us.us, align 8
  %arrayidx58.us.us = getelementptr inbounds i64, ptr %samples_size, i64 %rem.us.us
  %18 = load i64, ptr %arrayidx58.us.us, align 8
  %add60.us.us = add i64 %17, -1
  %sub.us.us = add i64 %add60.us.us, %18
  %cmp61.us.us = icmp ult i64 %sub.us.us, %n_train_data
  br i1 %cmp61.us.us, label %do.end66.us.us, label %if.then62

do.end66.us.us:                                   ; preds = %cond.end.us.us
  %inc.us.us = add nsw i64 %used_samples.058.us.us, 1
  %19 = trunc i64 %indvars.iv to i32
  tail call void @ggml_set_i32_nd(ptr noundef %tokens_input, i32 noundef 0, i32 noundef %19, i32 noundef 0, i32 noundef 0, i32 noundef %call52)
  br label %for.body74.us.us.us

for.body74.us.us.us:                              ; preds = %for.inc.us.us.us, %do.end66.us.us
  %i.056.us.us.us = phi i64 [ 0, %do.end66.us.us ], [ %add107.us.us.us, %for.inc.us.us.us ]
  %sample_separation_bos.055.us.us.us = phi i8 [ %frombool71, %do.end66.us.us ], [ %sample_separation_bos.1.us.us.us, %for.inc.us.us.us ]
  %sample_separation_eos.054.us.us.us = phi i8 [ %frombool68, %do.end66.us.us ], [ %sample_separation_eos.1.us.us.us, %for.inc.us.us.us ]
  %sample_size.053.us.us.us = phi i64 [ %18, %do.end66.us.us ], [ %sample_size.1.us.us.us, %for.inc.us.us.us ]
  %sample_begin.052.us.us.us = phi i64 [ %17, %do.end66.us.us ], [ %sample_begin.1.us.us.us, %for.inc.us.us.us ]
  %sample_offs.051.us.us.us = phi i64 [ %cond.us.us, %do.end66.us.us ], [ %sample_offs.2.us.us.us, %for.inc.us.us.us ]
  %used_samples.150.us.us.us = phi i64 [ %inc.us.us, %do.end66.us.us ], [ %used_samples.2.us.us.us, %for.inc.us.us.us ]
  %cmp75.not.us.us.us = icmp ult i64 %sample_offs.051.us.us.us, %sample_size.053.us.us.us
  br i1 %cmp75.not.us.us.us, label %if.end96.us.us.us, label %land.lhs.true.us.us.us

land.lhs.true.us.us.us:                           ; preds = %for.body74.us.us.us
  %20 = and i8 %sample_separation_eos.054.us.us.us, 1
  %tobool78.not.us.us.us = icmp eq i8 %20, 0
  br i1 %tobool78.not.us.us.us, label %if.end96.us.us.us, label %if.else.us.us.us

if.else.us.us.us:                                 ; preds = %land.lhs.true.us.us.us
  %21 = and i8 %sample_separation_bos.055.us.us.us, 1
  %tobool80.not.us.us.us = icmp eq i8 %21, 0
  br i1 %tobool80.not.us.us.us, label %if.end96.us.us.us, label %if.else82.us.us.us

if.else82.us.us.us:                               ; preds = %if.else.us.us.us
  %add89.us.us.us = add nsw i64 %used_samples.150.us.us.us, %example_id
  %rem90.us.us.us = urem i64 %add89.us.us.us, %samples_count
  %arrayidx91.us.us.us = getelementptr inbounds i64, ptr %samples_begin, i64 %rem90.us.us.us
  %22 = load i64, ptr %arrayidx91.us.us.us, align 8
  %arrayidx92.us.us.us = getelementptr inbounds i64, ptr %samples_size, i64 %rem90.us.us.us
  %23 = load i64, ptr %arrayidx92.us.us.us, align 8
  %inc93.us.us.us = add nsw i64 %used_samples.150.us.us.us, 1
  br label %if.end96.us.us.us

if.end96.us.us.us:                                ; preds = %if.else82.us.us.us, %if.else.us.us.us, %land.lhs.true.us.us.us, %for.body74.us.us.us
  %used_samples.2.us.us.us = phi i64 [ %inc93.us.us.us, %if.else82.us.us.us ], [ %used_samples.150.us.us.us, %for.body74.us.us.us ], [ %used_samples.150.us.us.us, %land.lhs.true.us.us.us ], [ %used_samples.150.us.us.us, %if.else.us.us.us ]
  %sample_offs.1.us.us.us = phi i64 [ 0, %if.else82.us.us.us ], [ %sample_offs.051.us.us.us, %for.body74.us.us.us ], [ %sample_offs.051.us.us.us, %land.lhs.true.us.us.us ], [ %sample_offs.051.us.us.us, %if.else.us.us.us ]
  %sample_begin.1.us.us.us = phi i64 [ %22, %if.else82.us.us.us ], [ %sample_begin.052.us.us.us, %for.body74.us.us.us ], [ %sample_begin.052.us.us.us, %land.lhs.true.us.us.us ], [ %sample_begin.052.us.us.us, %if.else.us.us.us ]
  %sample_size.1.us.us.us = phi i64 [ %23, %if.else82.us.us.us ], [ %sample_size.053.us.us.us, %for.body74.us.us.us ], [ %sample_size.053.us.us.us, %land.lhs.true.us.us.us ], [ %sample_size.053.us.us.us, %if.else.us.us.us ]
  %sample_separation_eos.1.us.us.us = phi i8 [ %frombool68, %if.else82.us.us.us ], [ %sample_separation_eos.054.us.us.us, %for.body74.us.us.us ], [ 1, %land.lhs.true.us.us.us ], [ %sample_separation_eos.054.us.us.us, %if.else.us.us.us ]
  %sample_separation_bos.1.us.us.us = phi i8 [ %frombool71, %if.else82.us.us.us ], [ %sample_separation_bos.055.us.us.us, %for.body74.us.us.us ], [ %sample_separation_bos.055.us.us.us, %land.lhs.true.us.us.us ], [ 1, %if.else.us.us.us ]
  %token.0.us.us.us = phi i32 [ %call54, %if.else82.us.us.us ], [ %call54, %for.body74.us.us.us ], [ %call54, %land.lhs.true.us.us.us ], [ %call52, %if.else.us.us.us ]
  %cmp97.us.us.us = icmp ult i64 %sample_offs.1.us.us.us, %sample_size.1.us.us.us
  br i1 %cmp97.us.us.us, label %if.then98.us.us.us, label %if.end105.us.us.us

if.then98.us.us.us:                               ; preds = %if.end96.us.us.us
  %24 = getelementptr i32, ptr %train_data, i64 %sample_begin.1.us.us.us
  %arrayidx100.us.us.us = getelementptr i32, ptr %24, i64 %sample_offs.1.us.us.us
  %25 = load i32, ptr %arrayidx100.us.us.us, align 4
  %cmp.i.us.us.us = icmp slt i32 %25, 0
  %cond.i.us.us.us = tail call i32 @llvm.smin.i32(i32 %25, i32 %conv102)
  %cond5.i.us.us.us = select i1 %cmp.i.us.us.us, i32 0, i32 %cond.i.us.us.us
  %inc104.us.us.us = add nuw i64 %sample_offs.1.us.us.us, 1
  br label %if.end105.us.us.us

if.end105.us.us.us:                               ; preds = %if.then98.us.us.us, %if.end96.us.us.us
  %sample_offs.2.us.us.us = phi i64 [ %inc104.us.us.us, %if.then98.us.us.us ], [ %sample_offs.1.us.us.us, %if.end96.us.us.us ]
  %token.1.us.us.us = phi i32 [ %cond5.i.us.us.us, %if.then98.us.us.us ], [ %token.0.us.us.us, %if.end96.us.us.us ]
  %conv106.us.us.us = trunc i64 %i.056.us.us.us to i32
  tail call void @ggml_set_f32_nd(ptr noundef %target_probs, i32 noundef %token.1.us.us.us, i32 noundef %conv106.us.us.us, i32 noundef %19, i32 noundef 0, float noundef 1.000000e+00)
  %add107.us.us.us = add nuw nsw i64 %i.056.us.us.us, 1
  %cmp108.us.us.us = icmp slt i64 %add107.us.us.us, %.fr
  br i1 %cmp108.us.us.us, label %if.then109.us.us.us, label %for.inc.us.us.us

if.then109.us.us.us:                              ; preds = %if.end105.us.us.us
  %conv111.us.us.us = trunc i64 %add107.us.us.us to i32
  tail call void @ggml_set_i32_nd(ptr noundef %tokens_input, i32 noundef %conv111.us.us.us, i32 noundef %19, i32 noundef 0, i32 noundef 0, i32 noundef %token.1.us.us.us)
  br label %for.inc.us.us.us

for.inc.us.us.us:                                 ; preds = %if.then109.us.us.us, %if.end105.us.us.us
  %exitcond118.not = icmp eq i64 %add107.us.us.us, %.fr
  br i1 %exitcond118.not, label %for.cond72.for.inc114_crit_edge.split.us.us.us, label %for.body74.us.us.us, !llvm.loop !30

for.cond72.for.inc114_crit_edge.split.us.us.us:   ; preds = %for.inc.us.us.us
  %indvars.iv.next = add nuw nsw i64 %indvars.iv, 1
  %exitcond120.not = icmp eq i64 %indvars.iv.next, %8
  br i1 %exitcond120.not, label %for.end116, label %for.body.us.us, !llvm.loop !31

for.body.us:                                      ; preds = %for.body.lr.ph.split.us, %for.cond72.for.inc114_crit_edge.split.us84
  %used_samples.058.us = phi i64 [ %inc.us, %for.cond72.for.inc114_crit_edge.split.us84 ], [ 0, %for.body.lr.ph.split.us ]
  %add.us = add nsw i64 %used_samples.058.us, %example_id
  %rem.us = urem i64 %add.us, %samples_count
  br i1 %sample_random_offsets, label %cond.true.us, label %cond.end.us

cond.true.us:                                     ; preds = %for.body.us
  %arrayidx56.us = getelementptr inbounds i64, ptr %samples_offs, i64 %rem.us
  %26 = load i64, ptr %arrayidx56.us, align 8
  br label %cond.end.us

cond.end.us:                                      ; preds = %cond.true.us, %for.body.us
  %cond.us = phi i64 [ %26, %cond.true.us ], [ 0, %for.body.us ]
  %arrayidx57.us = getelementptr inbounds i64, ptr %samples_begin, i64 %rem.us
  %27 = load i64, ptr %arrayidx57.us, align 8
  %arrayidx58.us = getelementptr inbounds i64, ptr %samples_size, i64 %rem.us
  %28 = load i64, ptr %arrayidx58.us, align 8
  %add60.us = add i64 %27, -1
  %sub.us = add i64 %add60.us, %28
  %cmp61.us = icmp ult i64 %sub.us, %n_train_data
  br i1 %cmp61.us, label %do.end66.us, label %if.then62

do.end66.us:                                      ; preds = %cond.end.us
  %29 = trunc i64 %used_samples.058.us to i32
  tail call void @ggml_set_i32_nd(ptr noundef %tokens_input, i32 noundef 0, i32 noundef %29, i32 noundef 0, i32 noundef 0, i32 noundef %call52)
  %30 = getelementptr i32, ptr %train_data, i64 %27
  br label %for.body74.us61

for.body74.us61:                                  ; preds = %do.end66.us, %for.inc.us82
  %i.056.us62 = phi i64 [ 0, %do.end66.us ], [ %add107.us78, %for.inc.us82 ]
  %sample_offs.051.us63 = phi i64 [ %cond.us, %do.end66.us ], [ %sample_offs.2.us75, %for.inc.us82 ]
  %cmp97.us67 = icmp ult i64 %sample_offs.051.us63, %28
  br i1 %cmp97.us67, label %if.then98.us68, label %if.end105.us74

if.then98.us68:                                   ; preds = %for.body74.us61
  %arrayidx100.us69 = getelementptr i32, ptr %30, i64 %sample_offs.051.us63
  %31 = load i32, ptr %arrayidx100.us69, align 4
  %cmp.i.us70 = icmp slt i32 %31, 0
  %cond.i.us71 = tail call i32 @llvm.smin.i32(i32 %31, i32 %conv102)
  %cond5.i.us72 = select i1 %cmp.i.us70, i32 0, i32 %cond.i.us71
  %inc104.us73 = add nuw i64 %sample_offs.051.us63, 1
  br label %if.end105.us74

if.end105.us74:                                   ; preds = %if.then98.us68, %for.body74.us61
  %sample_offs.2.us75 = phi i64 [ %inc104.us73, %if.then98.us68 ], [ %sample_offs.051.us63, %for.body74.us61 ]
  %token.1.us76 = phi i32 [ %cond5.i.us72, %if.then98.us68 ], [ %call54, %for.body74.us61 ]
  %conv106.us77 = trunc i64 %i.056.us62 to i32
  tail call void @ggml_set_f32_nd(ptr noundef %target_probs, i32 noundef %token.1.us76, i32 noundef %conv106.us77, i32 noundef %29, i32 noundef 0, float noundef 1.000000e+00)
  %add107.us78 = add nuw nsw i64 %i.056.us62, 1
  %cmp108.us79 = icmp slt i64 %add107.us78, %.fr
  br i1 %cmp108.us79, label %if.then109.us80, label %for.inc.us82

if.then109.us80:                                  ; preds = %if.end105.us74
  %conv111.us81 = trunc i64 %add107.us78 to i32
  tail call void @ggml_set_i32_nd(ptr noundef %tokens_input, i32 noundef %conv111.us81, i32 noundef %29, i32 noundef 0, i32 noundef 0, i32 noundef %token.1.us76)
  br label %for.inc.us82

for.inc.us82:                                     ; preds = %if.then109.us80, %if.end105.us74
  %exitcond115.not = icmp eq i64 %add107.us78, %.fr
  br i1 %exitcond115.not, label %for.cond72.for.inc114_crit_edge.split.us84, label %for.body74.us61, !llvm.loop !30

for.cond72.for.inc114_crit_edge.split.us84:       ; preds = %for.inc.us82
  %inc.us = add nuw nsw i64 %used_samples.058.us, 1
  %exitcond117.not = icmp eq i64 %inc.us, %8
  br i1 %exitcond117.not, label %for.end116, label %for.body.us, !llvm.loop !31

for.body.lr.ph.split:                             ; preds = %for.body.lr.ph
  br i1 %sample_random_offsets, label %for.body.us88, label %for.body

for.body.us88:                                    ; preds = %for.body.lr.ph.split, %do.end66.us100
  %used_samples.058.us90 = phi i64 [ %inc.us101, %do.end66.us100 ], [ 0, %for.body.lr.ph.split ]
  %add.us91 = add nsw i64 %used_samples.058.us90, %example_id
  %rem.us92 = urem i64 %add.us91, %samples_count
  %arrayidx57.us95 = getelementptr inbounds i64, ptr %samples_begin, i64 %rem.us92
  %32 = load i64, ptr %arrayidx57.us95, align 8
  %arrayidx58.us96 = getelementptr inbounds i64, ptr %samples_size, i64 %rem.us92
  %33 = load i64, ptr %arrayidx58.us96, align 8
  %add60.us97 = add i64 %32, -1
  %sub.us98 = add i64 %add60.us97, %33
  %cmp61.us99 = icmp ult i64 %sub.us98, %n_train_data
  br i1 %cmp61.us99, label %do.end66.us100, label %if.then62

do.end66.us100:                                   ; preds = %for.body.us88
  %inc.us101 = add nuw nsw i64 %used_samples.058.us90, 1
  %34 = trunc i64 %used_samples.058.us90 to i32
  tail call void @ggml_set_i32_nd(ptr noundef %tokens_input, i32 noundef 0, i32 noundef %34, i32 noundef 0, i32 noundef 0, i32 noundef %call52)
  %exitcond114.not = icmp eq i64 %inc.us101, %8
  br i1 %exitcond114.not, label %for.end116, label %for.body.us88, !llvm.loop !31

for.body:                                         ; preds = %for.body.lr.ph.split, %do.end66
  %used_samples.058 = phi i64 [ %inc, %do.end66 ], [ 0, %for.body.lr.ph.split ]
  %add = add nsw i64 %used_samples.058, %example_id
  %rem = urem i64 %add, %samples_count
  %arrayidx57 = getelementptr inbounds i64, ptr %samples_begin, i64 %rem
  %35 = load i64, ptr %arrayidx57, align 8
  %arrayidx58 = getelementptr inbounds i64, ptr %samples_size, i64 %rem
  %36 = load i64, ptr %arrayidx58, align 8
  %add60 = add i64 %35, -1
  %sub = add i64 %add60, %36
  %cmp61 = icmp ult i64 %sub, %n_train_data
  br i1 %cmp61, label %do.end66, label %if.then62

if.then62:                                        ; preds = %for.body, %for.body.us88, %cond.end.us, %cond.end.us.us
  %37 = load ptr, ptr @stdout, align 8
  %call63 = tail call i32 @fflush(ptr noundef %37)
  %38 = load ptr, ptr @stderr, align 8
  %call64 = tail call i32 (ptr, ptr, ...) @fprintf(ptr noundef %38, ptr noundef nonnull @.str.2, ptr noundef nonnull @.str.3, i32 noundef 254, ptr noundef nonnull @.str.17) #37
  tail call void @ggml_print_backtrace()
  tail call void @abort() #38
  unreachable

do.end66:                                         ; preds = %for.body
  %inc = add nuw nsw i64 %used_samples.058, 1
  %39 = trunc i64 %used_samples.058 to i32
  tail call void @ggml_set_i32_nd(ptr noundef %tokens_input, i32 noundef 0, i32 noundef %39, i32 noundef 0, i32 noundef 0, i32 noundef %call52)
  %exitcond.not = icmp eq i64 %inc, %8
  br i1 %exitcond.not, label %for.end116, label %for.body, !llvm.loop !31

for.end116:                                       ; preds = %do.end66, %do.end66.us100, %for.cond72.for.inc114_crit_edge.split.us84, %for.cond72.for.inc114_crit_edge.split.us.us.us, %do.end49
  %used_samples.0.lcssa = phi i64 [ 0, %do.end49 ], [ %used_samples.2.us.us.us, %for.cond72.for.inc114_crit_edge.split.us.us.us ], [ %8, %for.cond72.for.inc114_crit_edge.split.us84 ], [ %8, %do.end66.us100 ], [ %8, %do.end66 ]
  ret i64 %used_samples.0.lcssa
}

declare zeroext i1 @ggml_is_matrix(ptr noundef) local_unnamed_addr #0

declare zeroext i1 @ggml_is_3d(ptr noundef) local_unnamed_addr #0

declare ptr @ggml_set_f32(ptr noundef, float noundef) local_unnamed_addr #0

declare i32 @llama_token_bos(ptr noundef) local_unnamed_addr #0

declare ptr @llama_get_model(ptr noundef) local_unnamed_addr #0

declare i32 @llama_token_eos(ptr noundef) local_unnamed_addr #0

declare void @ggml_set_i32_nd(ptr noundef, i32 noundef, i32 noundef, i32 noundef, i32 noundef, i32 noundef) local_unnamed_addr #0

declare void @ggml_set_f32_nd(ptr noundef, i32 noundef, i32 noundef, i32 noundef, i32 noundef, float noundef) local_unnamed_addr #0

; Function Attrs: mustprogress uwtable
define void @_Z17mt19937_set_stateRSt23mersenne_twister_engineImLm32ELm624ELm397ELm31ELm2567483615ELm11ELm4294967295ELm7ELm2636928640ELm15ELm4022730752ELm18ELm1812433253EERKNSt7__cxx1112basic_stringIcSt11char_traitsIcESaIcEEE(ptr noundef nonnull align 8 dereferenceable(5000) %rng, ptr noundef nonnull align 8 dereferenceable(32) %rng_state) local_unnamed_addr #3 personality ptr @__gxx_personality_v0 {
entry:
  %s_rng_state = alloca %"class.std::__cxx11::basic_stringstream", align 8
  %agg.tmp.ensured = alloca %"class.std::locale", align 8
  call void @_ZNSt7__cxx1118basic_stringstreamIcSt11char_traitsIcESaIcEEC1Ev(ptr noundef nonnull align 8 dereferenceable(128) %s_rng_state)
  %vtable = load ptr, ptr %s_rng_state, align 8
  %vbase.offset.ptr = getelementptr i8, ptr %vtable, i64 -24
  %vbase.offset = load i64, ptr %vbase.offset.ptr, align 8
  %call = invoke noundef nonnull align 8 dereferenceable(8) ptr @_ZNSt6locale7classicEv()
          to label %invoke.cont unwind label %lpad.loopexit.split-lp

invoke.cont:                                      ; preds = %entry
  %add.ptr = getelementptr inbounds i8, ptr %s_rng_state, i64 %vbase.offset
  invoke void @_ZNSt9basic_iosIcSt11char_traitsIcEE5imbueERKSt6locale(ptr nonnull sret(%"class.std::locale") align 8 %agg.tmp.ensured, ptr noundef nonnull align 8 dereferenceable(264) %add.ptr, ptr noundef nonnull align 8 dereferenceable(8) %call)
          to label %invoke.cont1 unwind label %lpad.loopexit.split-lp

invoke.cont1:                                     ; preds = %invoke.cont
  call void @_ZNSt6localeD1Ev(ptr noundef nonnull align 8 dereferenceable(8) %agg.tmp.ensured) #34
  %vtable2 = load ptr, ptr %s_rng_state, align 8
  %vbase.offset.ptr3 = getelementptr i8, ptr %vtable2, i64 -24
  %vbase.offset4 = load i64, ptr %vbase.offset.ptr3, align 8
  %add.ptr5 = getelementptr inbounds i8, ptr %s_rng_state, i64 %vbase.offset4
  invoke void @_ZNSt9basic_iosIcSt11char_traitsIcEE10exceptionsESt12_Ios_Iostate(ptr noundef nonnull align 8 dereferenceable(264) %add.ptr5, i32 noundef 4)
          to label %invoke.cont6 unwind label %lpad.loopexit.split-lp

invoke.cont6:                                     ; preds = %invoke.cont1
  invoke void @_ZNSt7__cxx1118basic_stringstreamIcSt11char_traitsIcESaIcEE3strERKNS_12basic_stringIcS2_S3_EE(ptr noundef nonnull align 8 dereferenceable(128) %s_rng_state, ptr noundef nonnull align 8 dereferenceable(32) %rng_state)
          to label %invoke.cont7 unwind label %lpad.loopexit.split-lp

invoke.cont7:                                     ; preds = %invoke.cont6
  %vtable.i = load ptr, ptr %s_rng_state, align 8
  %vbase.offset.ptr.i = getelementptr i8, ptr %vtable.i, i64 -24
  %vbase.offset.i = load i64, ptr %vbase.offset.ptr.i, align 8
  %add.ptr.i = getelementptr inbounds i8, ptr %s_rng_state, i64 %vbase.offset.i
  %_M_flags.i.i = getelementptr inbounds i8, ptr %add.ptr.i, i64 24
  %0 = load i32, ptr %_M_flags.i.i, align 8
  store i32 4098, ptr %_M_flags.i.i, align 8
  br label %for.body.i

for.body.i:                                       ; preds = %call7.i.noexc, %invoke.cont7
  %__i.011.i = phi i64 [ 0, %invoke.cont7 ], [ %inc.i, %call7.i.noexc ]
  %arrayidx.i = getelementptr inbounds [624 x i64], ptr %rng, i64 0, i64 %__i.011.i
  %call7.i1 = invoke noundef nonnull align 8 dereferenceable(16) ptr @_ZNSirsERm(ptr noundef nonnull align 8 dereferenceable(16) %s_rng_state, ptr noundef nonnull align 8 dereferenceable(8) %arrayidx.i)
          to label %call7.i.noexc unwind label %lpad.loopexit

call7.i.noexc:                                    ; preds = %for.body.i
  %inc.i = add nuw nsw i64 %__i.011.i, 1
  %exitcond.not.i = icmp eq i64 %inc.i, 624
  br i1 %exitcond.not.i, label %for.end.i, label %for.body.i, !llvm.loop !32

for.end.i:                                        ; preds = %call7.i.noexc
  %_M_p.i = getelementptr inbounds i8, ptr %rng, i64 4992
  %call8.i2 = invoke noundef nonnull align 8 dereferenceable(16) ptr @_ZNSirsERm(ptr noundef nonnull align 8 dereferenceable(16) %s_rng_state, ptr noundef nonnull align 8 dereferenceable(8) %_M_p.i)
          to label %invoke.cont8 unwind label %lpad.loopexit.split-lp

invoke.cont8:                                     ; preds = %for.end.i
  %vtable9.i = load ptr, ptr %s_rng_state, align 8
  %vbase.offset.ptr10.i = getelementptr i8, ptr %vtable9.i, i64 -24
  %vbase.offset11.i = load i64, ptr %vbase.offset.ptr10.i, align 8
  %add.ptr12.i = getelementptr inbounds i8, ptr %s_rng_state, i64 %vbase.offset11.i
  %_M_flags.i10.i = getelementptr inbounds i8, ptr %add.ptr12.i, i64 24
  store i32 %0, ptr %_M_flags.i10.i, align 8
  call void @_ZNSt7__cxx1118basic_stringstreamIcSt11char_traitsIcESaIcEED1Ev(ptr noundef nonnull align 8 dereferenceable(128) %s_rng_state) #34
  ret void

lpad.loopexit:                                    ; preds = %for.body.i
  %lpad.loopexit3 = landingpad { ptr, i32 }
          cleanup
  br label %lpad

lpad.loopexit.split-lp:                           ; preds = %entry, %invoke.cont, %invoke.cont1, %invoke.cont6, %for.end.i
  %lpad.loopexit.split-lp4 = landingpad { ptr, i32 }
          cleanup
  br label %lpad

lpad:                                             ; preds = %lpad.loopexit.split-lp, %lpad.loopexit
  %lpad.phi = phi { ptr, i32 } [ %lpad.loopexit3, %lpad.loopexit ], [ %lpad.loopexit.split-lp4, %lpad.loopexit.split-lp ]
  call void @_ZNSt7__cxx1118basic_stringstreamIcSt11char_traitsIcESaIcEED1Ev(ptr noundef nonnull align 8 dereferenceable(128) %s_rng_state) #34
  resume { ptr, i32 } %lpad.phi
}

declare void @_ZNSt7__cxx1118basic_stringstreamIcSt11char_traitsIcESaIcEEC1Ev(ptr noundef nonnull align 8 dereferenceable(128)) unnamed_addr #0

declare void @_ZNSt9basic_iosIcSt11char_traitsIcEE5imbueERKSt6locale(ptr sret(%"class.std::locale") align 8, ptr noundef nonnull align 8 dereferenceable(264), ptr noundef nonnull align 8 dereferenceable(8)) local_unnamed_addr #0

declare noundef nonnull align 8 dereferenceable(8) ptr @_ZNSt6locale7classicEv() local_unnamed_addr #0

declare i32 @__gxx_personality_v0(...)

; Function Attrs: nounwind
declare void @_ZNSt6localeD1Ev(ptr noundef nonnull align 8 dereferenceable(8)) unnamed_addr #1

declare void @_ZNSt9basic_iosIcSt11char_traitsIcEE10exceptionsESt12_Ios_Iostate(ptr noundef nonnull align 8 dereferenceable(264), i32 noundef) local_unnamed_addr #0

declare void @_ZNSt7__cxx1118basic_stringstreamIcSt11char_traitsIcESaIcEE3strERKNS_12basic_stringIcS2_S3_EE(ptr noundef nonnull align 8 dereferenceable(128), ptr noundef nonnull align 8 dereferenceable(32)) local_unnamed_addr #0

; Function Attrs: nounwind
declare void @_ZNSt7__cxx1118basic_stringstreamIcSt11char_traitsIcESaIcEED1Ev(ptr noundef nonnull align 8 dereferenceable(128)) unnamed_addr #1

; Function Attrs: mustprogress uwtable
define void @_Z17mt19937_get_stateB5cxx11RKSt23mersenne_twister_engineImLm32ELm624ELm397ELm31ELm2567483615ELm11ELm4294967295ELm7ELm2636928640ELm15ELm4022730752ELm18ELm1812433253EE(ptr noalias sret(%"class.std::__cxx11::basic_string") align 8 %agg.result, ptr noundef nonnull align 8 dereferenceable(5000) %rng) local_unnamed_addr #3 personality ptr @__gxx_personality_v0 {
entry:
  %s_rng_state = alloca %"class.std::__cxx11::basic_stringstream", align 8
  %agg.tmp.ensured = alloca %"class.std::locale", align 8
  call void @_ZNSt7__cxx1118basic_stringstreamIcSt11char_traitsIcESaIcEEC1Ev(ptr noundef nonnull align 8 dereferenceable(128) %s_rng_state)
  %vtable = load ptr, ptr %s_rng_state, align 8
  %vbase.offset.ptr = getelementptr i8, ptr %vtable, i64 -24
  %vbase.offset = load i64, ptr %vbase.offset.ptr, align 8
  %call = invoke noundef nonnull align 8 dereferenceable(8) ptr @_ZNSt6locale7classicEv()
          to label %invoke.cont unwind label %lpad

invoke.cont:                                      ; preds = %entry
  %add.ptr = getelementptr inbounds i8, ptr %s_rng_state, i64 %vbase.offset
  invoke void @_ZNSt9basic_iosIcSt11char_traitsIcEE5imbueERKSt6locale(ptr nonnull sret(%"class.std::locale") align 8 %agg.tmp.ensured, ptr noundef nonnull align 8 dereferenceable(264) %add.ptr, ptr noundef nonnull align 8 dereferenceable(8) %call)
          to label %invoke.cont1 unwind label %lpad

invoke.cont1:                                     ; preds = %invoke.cont
  call void @_ZNSt6localeD1Ev(ptr noundef nonnull align 8 dereferenceable(8) %agg.tmp.ensured) #34
  %add.ptr2 = getelementptr inbounds i8, ptr %s_rng_state, i64 16
  %call4 = invoke noundef nonnull align 8 dereferenceable(8) ptr @_ZStlsImLm32ELm624ELm397ELm31ETnT_Lm2567483615ELm11ETnS0_Lm4294967295ELm7ETnS0_Lm2636928640ELm15ETnS0_Lm4022730752ELm18ETnS0_Lm1812433253EcSt11char_traitsIcEERSt13basic_ostreamIT13_T14_ES7_RKSt23mersenne_twister_engineIS0_XT0_EXT1_EXT2_EXT3_EXT4_EXT5_EXT6_EXT7_EXT8_EXT9_EXT10_EXT11_EXT12_EE(ptr noundef nonnull align 8 dereferenceable(8) %add.ptr2, ptr noundef nonnull align 8 dereferenceable(5000) %rng)
          to label %invoke.cont3 unwind label %lpad

invoke.cont3:                                     ; preds = %invoke.cont1
  invoke void @_ZNKSt7__cxx1118basic_stringstreamIcSt11char_traitsIcESaIcEE3strEv(ptr sret(%"class.std::__cxx11::basic_string") align 8 %agg.result, ptr noundef nonnull align 8 dereferenceable(128) %s_rng_state)
          to label %invoke.cont5 unwind label %lpad

invoke.cont5:                                     ; preds = %invoke.cont3
  call void @_ZNSt7__cxx1118basic_stringstreamIcSt11char_traitsIcESaIcEED1Ev(ptr noundef nonnull align 8 dereferenceable(128) %s_rng_state) #34
  ret void

lpad:                                             ; preds = %invoke.cont3, %invoke.cont1, %invoke.cont, %entry
  %0 = landingpad { ptr, i32 }
          cleanup
  call void @_ZNSt7__cxx1118basic_stringstreamIcSt11char_traitsIcESaIcEED1Ev(ptr noundef nonnull align 8 dereferenceable(128) %s_rng_state) #34
  resume { ptr, i32 } %0
}

; Function Attrs: mustprogress uwtable
define linkonce_odr noundef nonnull align 8 dereferenceable(8) ptr @_ZStlsImLm32ELm624ELm397ELm31ETnT_Lm2567483615ELm11ETnS0_Lm4294967295ELm7ETnS0_Lm2636928640ELm15ETnS0_Lm4022730752ELm18ETnS0_Lm1812433253EcSt11char_traitsIcEERSt13basic_ostreamIT13_T14_ES7_RKSt23mersenne_twister_engineIS0_XT0_EXT1_EXT2_EXT3_EXT4_EXT5_EXT6_EXT7_EXT8_EXT9_EXT10_EXT11_EXT12_EE(ptr noundef nonnull align 8 dereferenceable(8) %__os, ptr noundef nonnull align 8 dereferenceable(5000) %__x) local_unnamed_addr #3 comdat {
entry:
  %vtable = load ptr, ptr %__os, align 8
  %vbase.offset.ptr = getelementptr i8, ptr %vtable, i64 -24
  %vbase.offset = load i64, ptr %vbase.offset.ptr, align 8
  %add.ptr = getelementptr inbounds i8, ptr %__os, i64 %vbase.offset
  %_M_flags.i = getelementptr inbounds i8, ptr %add.ptr, i64 24
  %0 = load i32, ptr %_M_flags.i, align 8
  %call5 = tail call noundef signext i8 @_ZNKSt9basic_iosIcSt11char_traitsIcEE4fillEv(ptr noundef nonnull align 8 dereferenceable(264) %add.ptr)
  %vtable6 = load ptr, ptr %__os, align 8
  %vbase.offset.ptr7 = getelementptr i8, ptr %vtable6, i64 -24
  %vbase.offset8 = load i64, ptr %vbase.offset.ptr7, align 8
  %add.ptr9 = getelementptr inbounds i8, ptr %__os, i64 %vbase.offset8
  %call10 = tail call noundef signext i8 @_ZNKSt9basic_iosIcSt11char_traitsIcEE5widenEc(ptr noundef nonnull align 8 dereferenceable(264) %add.ptr9, i8 noundef signext 32)
  %vtable11 = load ptr, ptr %__os, align 8
  %vbase.offset.ptr12 = getelementptr i8, ptr %vtable11, i64 -24
  %vbase.offset13 = load i64, ptr %vbase.offset.ptr12, align 8
  %add.ptr14 = getelementptr inbounds i8, ptr %__os, i64 %vbase.offset13
  %_M_flags.i14 = getelementptr inbounds i8, ptr %add.ptr14, i64 24
  store i32 38, ptr %_M_flags.i14, align 8
  %vtable18 = load ptr, ptr %__os, align 8
  %vbase.offset.ptr19 = getelementptr i8, ptr %vtable18, i64 -24
  %vbase.offset20 = load i64, ptr %vbase.offset.ptr19, align 8
  %add.ptr21 = getelementptr inbounds i8, ptr %__os, i64 %vbase.offset20
  %call22 = tail call noundef signext i8 @_ZNSt9basic_iosIcSt11char_traitsIcEE4fillEc(ptr noundef nonnull align 8 dereferenceable(264) %add.ptr21, i8 noundef signext %call10)
  br label %for.body

for.body:                                         ; preds = %entry, %for.body
  %__i.016 = phi i64 [ 0, %entry ], [ %inc, %for.body ]
  %arrayidx = getelementptr inbounds [624 x i64], ptr %__x, i64 0, i64 %__i.016
  %1 = load i64, ptr %arrayidx, align 8
  %call23 = tail call noundef nonnull align 8 dereferenceable(8) ptr @_ZNSolsEm(ptr noundef nonnull align 8 dereferenceable(8) %__os, i64 noundef %1)
  %call24 = tail call noundef nonnull align 8 dereferenceable(8) ptr @_ZStlsISt11char_traitsIcEERSt13basic_ostreamIcT_ES5_c(ptr noundef nonnull align 8 dereferenceable(8) %call23, i8 noundef signext %call10)
  %inc = add nuw nsw i64 %__i.016, 1
  %exitcond.not = icmp eq i64 %inc, 624
  br i1 %exitcond.not, label %for.end, label %for.body, !llvm.loop !33

for.end:                                          ; preds = %for.body
  %_M_p = getelementptr inbounds i8, ptr %__x, i64 4992
  %2 = load i64, ptr %_M_p, align 8
  %call25 = tail call noundef nonnull align 8 dereferenceable(8) ptr @_ZNSolsEm(ptr noundef nonnull align 8 dereferenceable(8) %__os, i64 noundef %2)
  %vtable26 = load ptr, ptr %__os, align 8
  %vbase.offset.ptr27 = getelementptr i8, ptr %vtable26, i64 -24
  %vbase.offset28 = load i64, ptr %vbase.offset.ptr27, align 8
  %add.ptr29 = getelementptr inbounds i8, ptr %__os, i64 %vbase.offset28
  %_M_flags.i15 = getelementptr inbounds i8, ptr %add.ptr29, i64 24
  store i32 %0, ptr %_M_flags.i15, align 8
  %vtable31 = load ptr, ptr %__os, align 8
  %vbase.offset.ptr32 = getelementptr i8, ptr %vtable31, i64 -24
  %vbase.offset33 = load i64, ptr %vbase.offset.ptr32, align 8
  %add.ptr34 = getelementptr inbounds i8, ptr %__os, i64 %vbase.offset33
  %call35 = tail call noundef signext i8 @_ZNSt9basic_iosIcSt11char_traitsIcEE4fillEc(ptr noundef nonnull align 8 dereferenceable(264) %add.ptr34, i8 noundef signext %call5)
  ret ptr %__os
}

declare void @_ZNKSt7__cxx1118basic_stringstreamIcSt11char_traitsIcESaIcEE3strEv(ptr sret(%"class.std::__cxx11::basic_string") align 8, ptr noundef nonnull align 8 dereferenceable(128)) local_unnamed_addr #0

; Function Attrs: mustprogress uwtable
define void @_Z21mt19937_seed_to_stateB5cxx11j(ptr noalias sret(%"class.std::__cxx11::basic_string") align 8 %agg.result, i32 noundef %seed) local_unnamed_addr #3 {
entry:
  %rng = alloca %"class.std::mersenne_twister_engine", align 8
  %conv = zext i32 %seed to i64
  store i64 %conv, ptr %rng, align 8
  br label %for.body.i.i

for.body.i.i:                                     ; preds = %for.body.i.i, %entry
  %0 = phi i64 [ %conv, %entry ], [ %rem.i.i10.i.i, %for.body.i.i ]
  %__i.011.i.i = phi i64 [ 1, %entry ], [ %inc.i.i, %for.body.i.i ]
  %shr.i.i = lshr i64 %0, 30
  %xor.i.i = xor i64 %shr.i.i, %0
  %mul.i.i = mul nuw nsw i64 %xor.i.i, 1812433253
  %add.i.i = add nuw i64 %mul.i.i, %__i.011.i.i
  %rem.i.i10.i.i = and i64 %add.i.i, 4294967295
  %arrayidx7.i.i = getelementptr inbounds [624 x i64], ptr %rng, i64 0, i64 %__i.011.i.i
  store i64 %rem.i.i10.i.i, ptr %arrayidx7.i.i, align 8
  %inc.i.i = add nuw nsw i64 %__i.011.i.i, 1
  %exitcond.not.i.i = icmp eq i64 %inc.i.i, 624
  br i1 %exitcond.not.i.i, label %_ZNSt23mersenne_twister_engineImLm32ELm624ELm397ELm31ELm2567483615ELm11ELm4294967295ELm7ELm2636928640ELm15ELm4022730752ELm18ELm1812433253EEC2Em.exit, label %for.body.i.i, !llvm.loop !4

_ZNSt23mersenne_twister_engineImLm32ELm624ELm397ELm31ELm2567483615ELm11ELm4294967295ELm7ELm2636928640ELm15ELm4022730752ELm18ELm1812433253EEC2Em.exit: ; preds = %for.body.i.i
  %_M_p.i.i = getelementptr inbounds i8, ptr %rng, i64 4992
  store i64 624, ptr %_M_p.i.i, align 8
  call void @_Z17mt19937_get_stateB5cxx11RKSt23mersenne_twister_engineImLm32ELm624ELm397ELm31ELm2567483615ELm11ELm4294967295ELm7ELm2636928640ELm15ELm4022730752ELm18ELm1812433253EE(ptr sret(%"class.std::__cxx11::basic_string") align 8 %agg.result, ptr noundef nonnull align 8 dereferenceable(5000) %rng)
  ret void
}

; Function Attrs: mustprogress uwtable
define void @_Z15shuffle_samplesRKNSt7__cxx1112basic_stringIcSt11char_traitsIcESaIcEEEPmS7_S7_PKmS9_m(ptr noalias sret(%"class.std::__cxx11::basic_string") align 8 %agg.result, ptr noundef nonnull align 8 dereferenceable(32) %rng_state, ptr nocapture noundef writeonly %shuffled_offs, ptr nocapture noundef writeonly %shuffled_begins, ptr nocapture noundef writeonly %shuffled_sizes, ptr nocapture noundef readonly %begins, ptr nocapture noundef readonly %sizes, i64 noundef %count) local_unnamed_addr #3 personality ptr @__gxx_personality_v0 {
entry:
  %rng = alloca %"class.std::mersenne_twister_engine", align 8
  %idcs = alloca %"class.std::vector", align 8
  %rnd = alloca %"class.std::vector.6", align 8
  %cmp = icmp eq i64 %count, 0
  br i1 %cmp, label %if.then, label %if.end

if.then:                                          ; preds = %entry
  tail call void @_ZNSt7__cxx1112basic_stringIcSt11char_traitsIcESaIcEEC1ERKS4_(ptr noundef nonnull align 8 dereferenceable(32) %agg.result, ptr noundef nonnull align 8 dereferenceable(32) %rng_state)
  br label %return

if.end:                                           ; preds = %entry
  store i64 5489, ptr %rng, align 8
  br label %for.body.i.i.i

for.body.i.i.i:                                   ; preds = %for.body.i.i.i, %if.end
  %0 = phi i64 [ 5489, %if.end ], [ %rem.i.i10.i.i.i, %for.body.i.i.i ]
  %__i.011.i.i.i = phi i64 [ 1, %if.end ], [ %inc.i.i.i, %for.body.i.i.i ]
  %shr.i.i.i = lshr i64 %0, 30
  %xor.i.i.i = xor i64 %shr.i.i.i, %0
  %mul.i.i.i = mul nuw nsw i64 %xor.i.i.i, 1812433253
  %add.i.i.i = add nuw i64 %mul.i.i.i, %__i.011.i.i.i
  %rem.i.i10.i.i.i = and i64 %add.i.i.i, 4294967295
  %arrayidx7.i.i.i = getelementptr inbounds [624 x i64], ptr %rng, i64 0, i64 %__i.011.i.i.i
  store i64 %rem.i.i10.i.i.i, ptr %arrayidx7.i.i.i, align 8
  %inc.i.i.i = add nuw nsw i64 %__i.011.i.i.i, 1
  %exitcond.not.i.i.i = icmp eq i64 %inc.i.i.i, 624
  br i1 %exitcond.not.i.i.i, label %if.then.i, label %for.body.i.i.i, !llvm.loop !4

if.then.i:                                        ; preds = %for.body.i.i.i
  %_M_p.i.i.i = getelementptr inbounds i8, ptr %rng, i64 4992
  store i64 624, ptr %_M_p.i.i.i, align 8
  call void @_Z17mt19937_set_stateRSt23mersenne_twister_engineImLm32ELm624ELm397ELm31ELm2567483615ELm11ELm4294967295ELm7ELm2636928640ELm15ELm4022730752ELm18ELm1812433253EERKNSt7__cxx1112basic_stringIcSt11char_traitsIcESaIcEEE(ptr noundef nonnull align 8 dereferenceable(5000) %rng, ptr noundef nonnull align 8 dereferenceable(32) %rng_state)
  call void @llvm.memset.p0.i64(ptr noundef nonnull align 8 dereferenceable(24) %idcs, i8 0, i64 24, i1 false)
  call void @llvm.memset.p0.i64(ptr noundef nonnull align 8 dereferenceable(24) %rnd, i8 0, i64 24, i1 false)
  %_M_finish.i.i = getelementptr inbounds i8, ptr %idcs, i64 8
  invoke void @_ZNSt6vectorImSaImEE17_M_default_appendEm(ptr noundef nonnull align 8 dereferenceable(24) %idcs, i64 noundef %count)
          to label %invoke.cont unwind label %lpad.loopexit.split-lp53

invoke.cont:                                      ; preds = %if.then.i
  %_M_finish.i.i23.phi.trans.insert = getelementptr inbounds i8, ptr %rnd, i64 8
  %.pre = load ptr, ptr %_M_finish.i.i23.phi.trans.insert, align 8
  %.pre71 = load ptr, ptr %rnd, align 8
  %_M_finish.i.i23 = getelementptr inbounds i8, ptr %rnd, i64 8
  %sub.ptr.lhs.cast.i.i24 = ptrtoint ptr %.pre to i64
  %sub.ptr.rhs.cast.i.i25 = ptrtoint ptr %.pre71 to i64
  %sub.ptr.sub.i.i26 = sub i64 %sub.ptr.lhs.cast.i.i24, %sub.ptr.rhs.cast.i.i25
  %sub.ptr.div.i.i27 = ashr exact i64 %sub.ptr.sub.i.i26, 2
  %cmp.i28 = icmp ult i64 %sub.ptr.div.i.i27, %count
  br i1 %cmp.i28, label %if.then.i35, label %if.else.i29

if.then.i35:                                      ; preds = %invoke.cont
  %sub.i36 = sub i64 %count, %sub.ptr.div.i.i27
  invoke void @_ZNSt6vectorIjSaIjEE17_M_default_appendEm(ptr noundef nonnull align 8 dereferenceable(24) %rnd, i64 noundef %sub.i36)
          to label %for.body.preheader unwind label %lpad.loopexit.split-lp53

if.else.i29:                                      ; preds = %invoke.cont
  %cmp4.i30 = icmp ugt i64 %sub.ptr.div.i.i27, %count
  br i1 %cmp4.i30, label %if.then5.i31, label %for.body.preheader

if.then5.i31:                                     ; preds = %if.else.i29
  %add.ptr.i32 = getelementptr inbounds i32, ptr %.pre71, i64 %count
  %tobool.not.i.i33 = icmp eq ptr %.pre, %add.ptr.i32
  br i1 %tobool.not.i.i33, label %for.body.preheader, label %invoke.cont.i.i34

invoke.cont.i.i34:                                ; preds = %if.then5.i31
  store ptr %add.ptr.i32, ptr %_M_finish.i.i23, align 8
  br label %for.body.preheader

for.body.preheader:                               ; preds = %if.then.i35, %if.else.i29, %if.then5.i31, %invoke.cont.i.i34
  br label %for.body

for.body:                                         ; preds = %for.body.preheader, %invoke.cont5
  %conv58 = phi i64 [ %conv, %invoke.cont5 ], [ 0, %for.body.preheader ]
  %i.057 = phi i32 [ %inc, %invoke.cont5 ], [ 0, %for.body.preheader ]
  %1 = load ptr, ptr %idcs, align 8
  %add.ptr.i38 = getelementptr inbounds i64, ptr %1, i64 %conv58
  store i64 %conv58, ptr %add.ptr.i38, align 8
  %call6 = invoke noundef i64 @_ZNSt23mersenne_twister_engineImLm32ELm624ELm397ELm31ELm2567483615ELm11ELm4294967295ELm7ELm2636928640ELm15ELm4022730752ELm18ELm1812433253EEclEv(ptr noundef nonnull align 8 dereferenceable(5000) %rng)
          to label %invoke.cont5 unwind label %lpad.loopexit52

invoke.cont5:                                     ; preds = %for.body
  %conv7 = trunc i64 %call6 to i32
  %2 = load ptr, ptr %rnd, align 8
  %add.ptr.i39 = getelementptr inbounds i32, ptr %2, i64 %conv58
  store i32 %conv7, ptr %add.ptr.i39, align 4
  %inc = add i32 %i.057, 1
  %conv = zext i32 %inc to i64
  %cmp2 = icmp ult i64 %conv, %count
  br i1 %cmp2, label %for.body, label %for.end, !llvm.loop !34

lpad.loopexit52:                                  ; preds = %for.body
  %lpad.loopexit54 = landingpad { ptr, i32 }
          cleanup
  br label %lpad

lpad.loopexit.split-lp53:                         ; preds = %if.then.i, %if.then.i35
  %lpad.loopexit.split-lp55 = landingpad { ptr, i32 }
          cleanup
  br label %lpad

lpad:                                             ; preds = %lpad.loopexit.split-lp53, %lpad.loopexit52
  %lpad.phi56 = phi { ptr, i32 } [ %lpad.loopexit54, %lpad.loopexit52 ], [ %lpad.loopexit.split-lp55, %lpad.loopexit.split-lp53 ]
  %3 = load ptr, ptr %rnd, align 8
  %tobool.not.i.i.i = icmp eq ptr %3, null
  br i1 %tobool.not.i.i.i, label %ehcleanup, label %if.then.i.i.i

if.then.i.i.i:                                    ; preds = %lpad
  call void @_ZdlPv(ptr noundef nonnull %3) #35
  br label %ehcleanup

for.end:                                          ; preds = %invoke.cont5
  %4 = load ptr, ptr %idcs, align 8
  %5 = load ptr, ptr %_M_finish.i.i, align 8
  %cmp.i.not.i.i = icmp eq ptr %4, %5
  br i1 %cmp.i.not.i.i, label %invoke.cont18, label %if.then.i.i

if.then.i.i:                                      ; preds = %for.end
  %sub.ptr.lhs.cast.i.i.i = ptrtoint ptr %5 to i64
  %sub.ptr.rhs.cast.i.i.i = ptrtoint ptr %4 to i64
  %sub.ptr.sub.i.i.i = sub i64 %sub.ptr.lhs.cast.i.i.i, %sub.ptr.rhs.cast.i.i.i
  %sub.ptr.div.i.i.i = ashr exact i64 %sub.ptr.sub.i.i.i, 3
  %6 = call i64 @llvm.ctlz.i64(i64 %sub.ptr.div.i.i.i, i1 true), !range !35
  %sub.i.i.i = shl nuw nsw i64 %6, 1
  %mul.i.i = xor i64 %sub.i.i.i, 126
  call fastcc void @"_ZSt16__introsort_loopIN9__gnu_cxx17__normal_iteratorIPmSt6vectorImSaImEEEElNS0_5__ops15_Iter_comp_iterIZ15shuffle_samplesRKNSt7__cxx1112basic_stringIcSt11char_traitsIcESaIcEEES2_S2_S2_PKmSI_mE3$_0EEEvT_SL_T0_T1_"(ptr %4, ptr %5, i64 noundef %mul.i.i, ptr nonnull %rnd)
  %cmp.i1.i.i = icmp sgt i64 %sub.ptr.sub.i.i.i, 128
  %scevgep.i.i.i = getelementptr i8, ptr %4, i64 8
  br i1 %cmp.i1.i.i, label %for.body.i.i.i.i, label %if.else.i.i.i

for.body.i.i.i.i:                                 ; preds = %if.then.i.i, %for.inc.i.i.i.i
  %__i.sroa.0.012.i.idx.i.i.i = phi i64 [ %__i.sroa.0.012.i.add.i.i.i, %for.inc.i.i.i.i ], [ 8, %if.then.i.i ]
  %__first.coerce.pn11.i.i.i.i = phi ptr [ %__i.sroa.0.012.i.ptr.i.i.i, %for.inc.i.i.i.i ], [ %4, %if.then.i.i ]
  %__i.sroa.0.012.i.ptr.i.i.i = getelementptr inbounds i8, ptr %4, i64 %__i.sroa.0.012.i.idx.i.i.i
  %__comp.val.val.i.i.i.i = load ptr, ptr %rnd, align 8
  %7 = load i64, ptr %__i.sroa.0.012.i.ptr.i.i.i, align 8
  %8 = load i64, ptr %4, align 8
  %add.ptr.i.i.i.i.i.i.i = getelementptr inbounds i32, ptr %__comp.val.val.i.i.i.i, i64 %7
  %9 = load i32, ptr %add.ptr.i.i.i.i.i.i.i, align 4
  %add.ptr.i5.i.i.i.i.i.i = getelementptr inbounds i32, ptr %__comp.val.val.i.i.i.i, i64 %8
  %10 = load i32, ptr %add.ptr.i5.i.i.i.i.i.i, align 4
  %cmp.i.i.i.i.i.i = icmp eq i32 %9, %10
  %cmp3.i.i.i.i.i.i = icmp ult i64 %7, %8
  %cmp6.i.i.i.i.i.i = icmp ult i32 %9, %10
  %cond.i.i.i.i.i.i = select i1 %cmp.i.i.i.i.i.i, i1 %cmp3.i.i.i.i.i.i, i1 %cmp6.i.i.i.i.i.i
  br i1 %cond.i.i.i.i.i.i, label %_ZSt13move_backwardIN9__gnu_cxx17__normal_iteratorIPmSt6vectorImSaImEEEES6_ET0_T_S8_S7_.exit.i.i.i.i, label %if.else.i.i.i.i

_ZSt13move_backwardIN9__gnu_cxx17__normal_iteratorIPmSt6vectorImSaImEEEES6_ET0_T_S8_S7_.exit.i.i.i.i: ; preds = %for.body.i.i.i.i
  call void @llvm.memmove.p0.p0.i64(ptr noundef nonnull align 8 dereferenceable(1) %scevgep.i.i.i, ptr noundef nonnull align 8 dereferenceable(1) %4, i64 %__i.sroa.0.012.i.idx.i.i.i, i1 false)
  br label %for.inc.i.i.i.i

if.else.i.i.i.i:                                  ; preds = %for.body.i.i.i.i
  %11 = load i64, ptr %__first.coerce.pn11.i.i.i.i, align 8
  %add.ptr.i5.i.i10.i.i.i.i.i = getelementptr inbounds i32, ptr %__comp.val.val.i.i.i.i, i64 %11
  %12 = load i32, ptr %add.ptr.i5.i.i10.i.i.i.i.i, align 4
  %cmp.i.i11.i.i.i.i.i = icmp eq i32 %9, %12
  %cmp3.i.i12.i.i.i.i.i = icmp ugt i64 %11, %7
  %cmp6.i.i13.i.i.i.i.i = icmp ult i32 %9, %12
  %cond.i.i14.i.i.i.i.i = select i1 %cmp.i.i11.i.i.i.i.i, i1 %cmp3.i.i12.i.i.i.i.i, i1 %cmp6.i.i13.i.i.i.i.i
  br i1 %cond.i.i14.i.i.i.i.i, label %while.body.i.i.i.i.i, label %for.inc.i.i.i.i

while.body.i.i.i.i.i:                             ; preds = %if.else.i.i.i.i, %while.body.i.i.i.i.i
  %13 = phi i64 [ %14, %while.body.i.i.i.i.i ], [ %11, %if.else.i.i.i.i ]
  %__next.sroa.0.016.i.i.i.i.i = phi ptr [ %__next.sroa.0.0.i.i.i.i.i, %while.body.i.i.i.i.i ], [ %__first.coerce.pn11.i.i.i.i, %if.else.i.i.i.i ]
  %__last.sroa.0.015.i.i.i.i.i = phi ptr [ %__next.sroa.0.016.i.i.i.i.i, %while.body.i.i.i.i.i ], [ %__i.sroa.0.012.i.ptr.i.i.i, %if.else.i.i.i.i ]
  store i64 %13, ptr %__last.sroa.0.015.i.i.i.i.i, align 8
  %__next.sroa.0.0.i.i.i.i.i = getelementptr inbounds i8, ptr %__next.sroa.0.016.i.i.i.i.i, i64 -8
  %__comp.val.val.i.i.i.i.i = load ptr, ptr %rnd, align 8
  %14 = load i64, ptr %__next.sroa.0.0.i.i.i.i.i, align 8
  %add.ptr.i.i.i.i.i.i.i.i = getelementptr inbounds i32, ptr %__comp.val.val.i.i.i.i.i, i64 %7
  %15 = load i32, ptr %add.ptr.i.i.i.i.i.i.i.i, align 4
  %add.ptr.i5.i.i.i.i.i.i.i = getelementptr inbounds i32, ptr %__comp.val.val.i.i.i.i.i, i64 %14
  %16 = load i32, ptr %add.ptr.i5.i.i.i.i.i.i.i, align 4
  %cmp.i.i.i.i.i.i.i = icmp eq i32 %15, %16
  %cmp3.i.i.i.i.i.i.i = icmp ugt i64 %14, %7
  %cmp6.i.i.i.i.i.i.i = icmp ult i32 %15, %16
  %cond.i.i.i.i.i.i.i = select i1 %cmp.i.i.i.i.i.i.i, i1 %cmp3.i.i.i.i.i.i.i, i1 %cmp6.i.i.i.i.i.i.i
  br i1 %cond.i.i.i.i.i.i.i, label %while.body.i.i.i.i.i, label %for.inc.i.i.i.i, !llvm.loop !36

for.inc.i.i.i.i:                                  ; preds = %while.body.i.i.i.i.i, %if.else.i.i.i.i, %_ZSt13move_backwardIN9__gnu_cxx17__normal_iteratorIPmSt6vectorImSaImEEEES6_ET0_T_S8_S7_.exit.i.i.i.i
  %__first.coerce.sink.i.i.i.i = phi ptr [ %4, %_ZSt13move_backwardIN9__gnu_cxx17__normal_iteratorIPmSt6vectorImSaImEEEES6_ET0_T_S8_S7_.exit.i.i.i.i ], [ %__i.sroa.0.012.i.ptr.i.i.i, %if.else.i.i.i.i ], [ %__next.sroa.0.016.i.i.i.i.i, %while.body.i.i.i.i.i ]
  store i64 %7, ptr %__first.coerce.sink.i.i.i.i, align 8
  %__i.sroa.0.012.i.add.i.i.i = add nuw nsw i64 %__i.sroa.0.012.i.idx.i.i.i, 8
  %cmp.i1.not.i.i.i.i = icmp eq i64 %__i.sroa.0.012.i.add.i.i.i, 128
  br i1 %cmp.i1.not.i.i.i.i, label %"_ZSt16__insertion_sortIN9__gnu_cxx17__normal_iteratorIPmSt6vectorImSaImEEEENS0_5__ops15_Iter_comp_iterIZ15shuffle_samplesRKNSt7__cxx1112basic_stringIcSt11char_traitsIcESaIcEEES2_S2_S2_PKmSI_mE3$_0EEEvT_SL_T0_.exit.i.i.i", label %for.body.i.i.i.i, !llvm.loop !37

"_ZSt16__insertion_sortIN9__gnu_cxx17__normal_iteratorIPmSt6vectorImSaImEEEENS0_5__ops15_Iter_comp_iterIZ15shuffle_samplesRKNSt7__cxx1112basic_stringIcSt11char_traitsIcESaIcEEES2_S2_S2_PKmSI_mE3$_0EEEvT_SL_T0_.exit.i.i.i": ; preds = %for.inc.i.i.i.i
  %add.ptr.i.i.i.i = getelementptr inbounds i8, ptr %4, i64 128
  %cmp.i.not2.i.i.i.i = icmp eq ptr %add.ptr.i.i.i.i, %5
  br i1 %cmp.i.not2.i.i.i.i, label %invoke.cont18, label %for.body.i2.i.i.i

for.body.i2.i.i.i:                                ; preds = %"_ZSt16__insertion_sortIN9__gnu_cxx17__normal_iteratorIPmSt6vectorImSaImEEEENS0_5__ops15_Iter_comp_iterIZ15shuffle_samplesRKNSt7__cxx1112basic_stringIcSt11char_traitsIcESaIcEEES2_S2_S2_PKmSI_mE3$_0EEEvT_SL_T0_.exit.i.i.i", %"_ZSt25__unguarded_linear_insertIN9__gnu_cxx17__normal_iteratorIPmSt6vectorImSaImEEEENS0_5__ops14_Val_comp_iterIZ15shuffle_samplesRKNSt7__cxx1112basic_stringIcSt11char_traitsIcESaIcEEES2_S2_S2_PKmSI_mE3$_0EEEvT_T0_.exit.i.i.i.i"
  %__i.sroa.0.03.i.i.i.i = phi ptr [ %incdec.ptr.i.i.i.i.i, %"_ZSt25__unguarded_linear_insertIN9__gnu_cxx17__normal_iteratorIPmSt6vectorImSaImEEEENS0_5__ops14_Val_comp_iterIZ15shuffle_samplesRKNSt7__cxx1112basic_stringIcSt11char_traitsIcESaIcEEES2_S2_S2_PKmSI_mE3$_0EEEvT_T0_.exit.i.i.i.i" ], [ %add.ptr.i.i.i.i, %"_ZSt16__insertion_sortIN9__gnu_cxx17__normal_iteratorIPmSt6vectorImSaImEEEENS0_5__ops15_Iter_comp_iterIZ15shuffle_samplesRKNSt7__cxx1112basic_stringIcSt11char_traitsIcESaIcEEES2_S2_S2_PKmSI_mE3$_0EEEvT_SL_T0_.exit.i.i.i" ]
  %17 = load i64, ptr %__i.sroa.0.03.i.i.i.i, align 8
  %__next.sroa.0.07.i.i.i.i.i = getelementptr inbounds i8, ptr %__i.sroa.0.03.i.i.i.i, i64 -8
  %__comp.val.val8.i.i.i.i.i = load ptr, ptr %rnd, align 8
  %18 = load i64, ptr %__next.sroa.0.07.i.i.i.i.i, align 8
  %add.ptr.i.i.i9.i.i.i.i.i = getelementptr inbounds i32, ptr %__comp.val.val8.i.i.i.i.i, i64 %17
  %19 = load i32, ptr %add.ptr.i.i.i9.i.i.i.i.i, align 4
  %add.ptr.i5.i.i10.i.i3.i.i.i = getelementptr inbounds i32, ptr %__comp.val.val8.i.i.i.i.i, i64 %18
  %20 = load i32, ptr %add.ptr.i5.i.i10.i.i3.i.i.i, align 4
  %cmp.i.i11.i.i4.i.i.i = icmp eq i32 %19, %20
  %cmp3.i.i12.i.i5.i.i.i = icmp ugt i64 %18, %17
  %cmp6.i.i13.i.i6.i.i.i = icmp ult i32 %19, %20
  %cond.i.i14.i.i7.i.i.i = select i1 %cmp.i.i11.i.i4.i.i.i, i1 %cmp3.i.i12.i.i5.i.i.i, i1 %cmp6.i.i13.i.i6.i.i.i
  br i1 %cond.i.i14.i.i7.i.i.i, label %while.body.i.i8.i.i.i, label %"_ZSt25__unguarded_linear_insertIN9__gnu_cxx17__normal_iteratorIPmSt6vectorImSaImEEEENS0_5__ops14_Val_comp_iterIZ15shuffle_samplesRKNSt7__cxx1112basic_stringIcSt11char_traitsIcESaIcEEES2_S2_S2_PKmSI_mE3$_0EEEvT_T0_.exit.i.i.i.i"

while.body.i.i8.i.i.i:                            ; preds = %for.body.i2.i.i.i, %while.body.i.i8.i.i.i
  %21 = phi i64 [ %22, %while.body.i.i8.i.i.i ], [ %18, %for.body.i2.i.i.i ]
  %__next.sroa.0.016.i.i9.i.i.i = phi ptr [ %__next.sroa.0.0.i.i11.i.i.i, %while.body.i.i8.i.i.i ], [ %__next.sroa.0.07.i.i.i.i.i, %for.body.i2.i.i.i ]
  %__last.sroa.0.015.i.i10.i.i.i = phi ptr [ %__next.sroa.0.016.i.i9.i.i.i, %while.body.i.i8.i.i.i ], [ %__i.sroa.0.03.i.i.i.i, %for.body.i2.i.i.i ]
  store i64 %21, ptr %__last.sroa.0.015.i.i10.i.i.i, align 8
  %__next.sroa.0.0.i.i11.i.i.i = getelementptr inbounds i8, ptr %__next.sroa.0.016.i.i9.i.i.i, i64 -8
  %__comp.val.val.i.i12.i.i.i = load ptr, ptr %rnd, align 8
  %22 = load i64, ptr %__next.sroa.0.0.i.i11.i.i.i, align 8
  %add.ptr.i.i.i.i.i13.i.i.i = getelementptr inbounds i32, ptr %__comp.val.val.i.i12.i.i.i, i64 %17
  %23 = load i32, ptr %add.ptr.i.i.i.i.i13.i.i.i, align 4
  %add.ptr.i5.i.i.i.i14.i.i.i = getelementptr inbounds i32, ptr %__comp.val.val.i.i12.i.i.i, i64 %22
  %24 = load i32, ptr %add.ptr.i5.i.i.i.i14.i.i.i, align 4
  %cmp.i.i.i.i15.i.i.i = icmp eq i32 %23, %24
  %cmp3.i.i.i.i16.i.i.i = icmp ugt i64 %22, %17
  %cmp6.i.i.i.i17.i.i.i = icmp ult i32 %23, %24
  %cond.i.i.i.i18.i.i.i = select i1 %cmp.i.i.i.i15.i.i.i, i1 %cmp3.i.i.i.i16.i.i.i, i1 %cmp6.i.i.i.i17.i.i.i
  br i1 %cond.i.i.i.i18.i.i.i, label %while.body.i.i8.i.i.i, label %"_ZSt25__unguarded_linear_insertIN9__gnu_cxx17__normal_iteratorIPmSt6vectorImSaImEEEENS0_5__ops14_Val_comp_iterIZ15shuffle_samplesRKNSt7__cxx1112basic_stringIcSt11char_traitsIcESaIcEEES2_S2_S2_PKmSI_mE3$_0EEEvT_T0_.exit.i.i.i.i", !llvm.loop !36

"_ZSt25__unguarded_linear_insertIN9__gnu_cxx17__normal_iteratorIPmSt6vectorImSaImEEEENS0_5__ops14_Val_comp_iterIZ15shuffle_samplesRKNSt7__cxx1112basic_stringIcSt11char_traitsIcESaIcEEES2_S2_S2_PKmSI_mE3$_0EEEvT_T0_.exit.i.i.i.i": ; preds = %while.body.i.i8.i.i.i, %for.body.i2.i.i.i
  %__last.sroa.0.0.lcssa.i.i.i.i.i = phi ptr [ %__i.sroa.0.03.i.i.i.i, %for.body.i2.i.i.i ], [ %__next.sroa.0.016.i.i9.i.i.i, %while.body.i.i8.i.i.i ]
  store i64 %17, ptr %__last.sroa.0.0.lcssa.i.i.i.i.i, align 8
  %incdec.ptr.i.i.i.i.i = getelementptr inbounds i8, ptr %__i.sroa.0.03.i.i.i.i, i64 8
  %cmp.i.not.i.i.i.i = icmp eq ptr %incdec.ptr.i.i.i.i.i, %5
  br i1 %cmp.i.not.i.i.i.i, label %invoke.cont18, label %for.body.i2.i.i.i, !llvm.loop !38

if.else.i.i.i:                                    ; preds = %if.then.i.i
  %cmp.i1.not10.i22.i.i.i = icmp eq ptr %scevgep.i.i.i, %5
  br i1 %cmp.i1.not10.i22.i.i.i, label %invoke.cont18, label %for.body.i25.i.i.i

for.body.i25.i.i.i:                               ; preds = %if.else.i.i.i, %for.inc.i41.i.i.i
  %__i.sroa.0.012.i26.i.i.i = phi ptr [ %__i.sroa.0.0.i43.i.i.i, %for.inc.i41.i.i.i ], [ %scevgep.i.i.i, %if.else.i.i.i ]
  %__first.coerce.pn11.i27.i.i.i = phi ptr [ %__i.sroa.0.012.i26.i.i.i, %for.inc.i41.i.i.i ], [ %4, %if.else.i.i.i ]
  %__comp.val.val.i28.i.i.i = load ptr, ptr %rnd, align 8
  %25 = load i64, ptr %__i.sroa.0.012.i26.i.i.i, align 8
  %26 = load i64, ptr %4, align 8
  %add.ptr.i.i.i.i29.i.i.i = getelementptr inbounds i32, ptr %__comp.val.val.i28.i.i.i, i64 %25
  %27 = load i32, ptr %add.ptr.i.i.i.i29.i.i.i, align 4
  %add.ptr.i5.i.i.i30.i.i.i = getelementptr inbounds i32, ptr %__comp.val.val.i28.i.i.i, i64 %26
  %28 = load i32, ptr %add.ptr.i5.i.i.i30.i.i.i, align 4
  %cmp.i.i.i31.i.i.i = icmp eq i32 %27, %28
  %cmp3.i.i.i32.i.i.i = icmp ult i64 %25, %26
  %cmp6.i.i.i33.i.i.i = icmp ult i32 %27, %28
  %cond.i.i.i34.i.i.i = select i1 %cmp.i.i.i31.i.i.i, i1 %cmp3.i.i.i32.i.i.i, i1 %cmp6.i.i.i33.i.i.i
  br i1 %cond.i.i.i34.i.i.i, label %_ZSt13move_backwardIN9__gnu_cxx17__normal_iteratorIPmSt6vectorImSaImEEEES6_ET0_T_S8_S7_.exit.i56.i.i.i, label %if.else.i35.i.i.i

_ZSt13move_backwardIN9__gnu_cxx17__normal_iteratorIPmSt6vectorImSaImEEEES6_ET0_T_S8_S7_.exit.i56.i.i.i: ; preds = %for.body.i25.i.i.i
  %add.ptr.i2.i57.i.i.i = getelementptr inbounds i8, ptr %__first.coerce.pn11.i27.i.i.i, i64 16
  %sub.ptr.lhs.cast.i.i.i.i.i.i58.i.i.i = ptrtoint ptr %__i.sroa.0.012.i26.i.i.i to i64
  %sub.ptr.sub.i.i.i.i.i.i59.i.i.i = sub i64 %sub.ptr.lhs.cast.i.i.i.i.i.i58.i.i.i, %sub.ptr.rhs.cast.i.i.i
  %sub.ptr.div.i.i.i.i.i.i60.i.i.i = ashr exact i64 %sub.ptr.sub.i.i.i.i.i.i59.i.i.i, 3
  %.pre.i.i.i.i.i.i61.i.i.i = sub nsw i64 0, %sub.ptr.div.i.i.i.i.i.i60.i.i.i
  %add.ptr.i.i.i.i.i.i62.i.i.i = getelementptr inbounds i64, ptr %add.ptr.i2.i57.i.i.i, i64 %.pre.i.i.i.i.i.i61.i.i.i
  call void @llvm.memmove.p0.p0.i64(ptr noundef nonnull align 8 dereferenceable(1) %add.ptr.i.i.i.i.i.i62.i.i.i, ptr noundef nonnull align 8 dereferenceable(1) %4, i64 %sub.ptr.sub.i.i.i.i.i.i59.i.i.i, i1 false)
  br label %for.inc.i41.i.i.i

if.else.i35.i.i.i:                                ; preds = %for.body.i25.i.i.i
  %29 = load i64, ptr %__first.coerce.pn11.i27.i.i.i, align 8
  %add.ptr.i5.i.i10.i.i36.i.i.i = getelementptr inbounds i32, ptr %__comp.val.val.i28.i.i.i, i64 %29
  %30 = load i32, ptr %add.ptr.i5.i.i10.i.i36.i.i.i, align 4
  %cmp.i.i11.i.i37.i.i.i = icmp eq i32 %27, %30
  %cmp3.i.i12.i.i38.i.i.i = icmp ugt i64 %29, %25
  %cmp6.i.i13.i.i39.i.i.i = icmp ult i32 %27, %30
  %cond.i.i14.i.i40.i.i.i = select i1 %cmp.i.i11.i.i37.i.i.i, i1 %cmp3.i.i12.i.i38.i.i.i, i1 %cmp6.i.i13.i.i39.i.i.i
  br i1 %cond.i.i14.i.i40.i.i.i, label %while.body.i.i45.i.i.i, label %for.inc.i41.i.i.i

while.body.i.i45.i.i.i:                           ; preds = %if.else.i35.i.i.i, %while.body.i.i45.i.i.i
  %31 = phi i64 [ %32, %while.body.i.i45.i.i.i ], [ %29, %if.else.i35.i.i.i ]
  %__next.sroa.0.016.i.i46.i.i.i = phi ptr [ %__next.sroa.0.0.i.i48.i.i.i, %while.body.i.i45.i.i.i ], [ %__first.coerce.pn11.i27.i.i.i, %if.else.i35.i.i.i ]
  %__last.sroa.0.015.i.i47.i.i.i = phi ptr [ %__next.sroa.0.016.i.i46.i.i.i, %while.body.i.i45.i.i.i ], [ %__i.sroa.0.012.i26.i.i.i, %if.else.i35.i.i.i ]
  store i64 %31, ptr %__last.sroa.0.015.i.i47.i.i.i, align 8
  %__next.sroa.0.0.i.i48.i.i.i = getelementptr inbounds i8, ptr %__next.sroa.0.016.i.i46.i.i.i, i64 -8
  %__comp.val.val.i.i49.i.i.i = load ptr, ptr %rnd, align 8
  %32 = load i64, ptr %__next.sroa.0.0.i.i48.i.i.i, align 8
  %add.ptr.i.i.i.i.i50.i.i.i = getelementptr inbounds i32, ptr %__comp.val.val.i.i49.i.i.i, i64 %25
  %33 = load i32, ptr %add.ptr.i.i.i.i.i50.i.i.i, align 4
  %add.ptr.i5.i.i.i.i51.i.i.i = getelementptr inbounds i32, ptr %__comp.val.val.i.i49.i.i.i, i64 %32
  %34 = load i32, ptr %add.ptr.i5.i.i.i.i51.i.i.i, align 4
  %cmp.i.i.i.i52.i.i.i = icmp eq i32 %33, %34
  %cmp3.i.i.i.i53.i.i.i = icmp ugt i64 %32, %25
  %cmp6.i.i.i.i54.i.i.i = icmp ult i32 %33, %34
  %cond.i.i.i.i55.i.i.i = select i1 %cmp.i.i.i.i52.i.i.i, i1 %cmp3.i.i.i.i53.i.i.i, i1 %cmp6.i.i.i.i54.i.i.i
  br i1 %cond.i.i.i.i55.i.i.i, label %while.body.i.i45.i.i.i, label %for.inc.i41.i.i.i, !llvm.loop !36

for.inc.i41.i.i.i:                                ; preds = %while.body.i.i45.i.i.i, %if.else.i35.i.i.i, %_ZSt13move_backwardIN9__gnu_cxx17__normal_iteratorIPmSt6vectorImSaImEEEES6_ET0_T_S8_S7_.exit.i56.i.i.i
  %__first.coerce.sink.i42.i.i.i = phi ptr [ %4, %_ZSt13move_backwardIN9__gnu_cxx17__normal_iteratorIPmSt6vectorImSaImEEEES6_ET0_T_S8_S7_.exit.i56.i.i.i ], [ %__i.sroa.0.012.i26.i.i.i, %if.else.i35.i.i.i ], [ %__next.sroa.0.016.i.i46.i.i.i, %while.body.i.i45.i.i.i ]
  store i64 %25, ptr %__first.coerce.sink.i42.i.i.i, align 8
  %__i.sroa.0.0.i43.i.i.i = getelementptr inbounds i8, ptr %__i.sroa.0.012.i26.i.i.i, i64 8
  %cmp.i1.not.i44.i.i.i = icmp eq ptr %__i.sroa.0.0.i43.i.i.i, %5
  br i1 %cmp.i1.not.i44.i.i.i, label %invoke.cont18, label %for.body.i25.i.i.i, !llvm.loop !37

invoke.cont18:                                    ; preds = %for.inc.i41.i.i.i, %"_ZSt25__unguarded_linear_insertIN9__gnu_cxx17__normal_iteratorIPmSt6vectorImSaImEEEENS0_5__ops14_Val_comp_iterIZ15shuffle_samplesRKNSt7__cxx1112basic_stringIcSt11char_traitsIcESaIcEEES2_S2_S2_PKmSI_mE3$_0EEEvT_T0_.exit.i.i.i.i", %if.else.i.i.i, %"_ZSt16__insertion_sortIN9__gnu_cxx17__normal_iteratorIPmSt6vectorImSaImEEEENS0_5__ops15_Iter_comp_iterIZ15shuffle_samplesRKNSt7__cxx1112basic_stringIcSt11char_traitsIcESaIcEEES2_S2_S2_PKmSI_mE3$_0EEEvT_SL_T0_.exit.i.i.i", %for.end
  %35 = load ptr, ptr %rnd, align 8
  %tobool.not.i.i.i40 = icmp eq ptr %35, null
  br i1 %tobool.not.i.i.i40, label %for.body23.preheader, label %if.then.i.i.i41

if.then.i.i.i41:                                  ; preds = %invoke.cont18
  call void @_ZdlPv(ptr noundef nonnull %35) #35
  br label %for.body23.preheader

for.body23.preheader:                             ; preds = %invoke.cont18, %if.then.i.i.i41
  br label %for.body23

for.cond41.preheader:                             ; preds = %invoke.cont28
  %36 = load ptr, ptr %idcs, align 8
  %umax = call i64 @llvm.umax.i64(i64 %count, i64 1)
  br label %for.body44

for.body23:                                       ; preds = %for.body23.preheader, %invoke.cont28
  %conv2160 = phi i64 [ %conv21, %invoke.cont28 ], [ 0, %for.body23.preheader ]
  %i19.059 = phi i32 [ %inc38, %invoke.cont28 ], [ 0, %for.body23.preheader ]
  %37 = load ptr, ptr %idcs, align 8
  %add.ptr.i43 = getelementptr inbounds i64, ptr %37, i64 %conv2160
  %38 = load i64, ptr %add.ptr.i43, align 8
  %arrayidx = getelementptr inbounds i64, ptr %sizes, i64 %38
  %39 = load i64, ptr %arrayidx, align 8
  %call29 = invoke noundef i64 @_ZNSt23mersenne_twister_engineImLm32ELm624ELm397ELm31ELm2567483615ELm11ELm4294967295ELm7ELm2636928640ELm15ELm4022730752ELm18ELm1812433253EEclEv(ptr noundef nonnull align 8 dereferenceable(5000) %rng)
          to label %invoke.cont28 unwind label %lpad27.loopexit

invoke.cont28:                                    ; preds = %for.body23
  %sub = add i64 %39, -1
  %conv26 = uitofp i64 %sub to double
  %conv30 = uitofp i64 %call29 to double
  %div = fdiv double %conv30, 0x41EFFFFFFFC00000
  %mul = fmul double %div, %conv26
  %conv35 = fptoui double %mul to i64
  %arrayidx36 = getelementptr inbounds i64, ptr %shuffled_offs, i64 %conv2160
  store i64 %conv35, ptr %arrayidx36, align 8
  %inc38 = add i32 %i19.059, 1
  %conv21 = zext i32 %inc38 to i64
  %cmp22 = icmp ult i64 %conv21, %count
  br i1 %cmp22, label %for.body23, label %for.cond41.preheader, !llvm.loop !39

lpad27.loopexit:                                  ; preds = %for.body23
  %lpad.loopexit = landingpad { ptr, i32 }
          cleanup
  br label %ehcleanup

lpad27.loopexit.split-lp:                         ; preds = %for.end65
  %lpad.loopexit.split-lp = landingpad { ptr, i32 }
          cleanup
  br label %ehcleanup

for.body44:                                       ; preds = %for.cond41.preheader, %for.body44
  %indvars.iv = phi i64 [ 0, %for.cond41.preheader ], [ %indvars.iv.next, %for.body44 ]
  %add.ptr.i44 = getelementptr inbounds i64, ptr %36, i64 %indvars.iv
  %40 = load i64, ptr %add.ptr.i44, align 8
  %arrayidx47 = getelementptr inbounds i64, ptr %begins, i64 %40
  %41 = load i64, ptr %arrayidx47, align 8
  %arrayidx49 = getelementptr inbounds i64, ptr %shuffled_begins, i64 %indvars.iv
  store i64 %41, ptr %arrayidx49, align 8
  %indvars.iv.next = add nuw i64 %indvars.iv, 1
  %exitcond.not = icmp eq i64 %indvars.iv.next, %umax
  br i1 %exitcond.not, label %for.body57, label %for.body44, !llvm.loop !40

for.body57:                                       ; preds = %for.body44, %for.body57
  %indvars.iv67 = phi i64 [ %indvars.iv.next68, %for.body57 ], [ 0, %for.body44 ]
  %add.ptr.i45 = getelementptr inbounds i64, ptr %36, i64 %indvars.iv67
  %42 = load i64, ptr %add.ptr.i45, align 8
  %arrayidx60 = getelementptr inbounds i64, ptr %sizes, i64 %42
  %43 = load i64, ptr %arrayidx60, align 8
  %arrayidx62 = getelementptr inbounds i64, ptr %shuffled_sizes, i64 %indvars.iv67
  store i64 %43, ptr %arrayidx62, align 8
  %indvars.iv.next68 = add nuw i64 %indvars.iv67, 1
  %exitcond70.not = icmp eq i64 %indvars.iv.next68, %umax
  br i1 %exitcond70.not, label %for.end65, label %for.body57, !llvm.loop !41

for.end65:                                        ; preds = %for.body57
  invoke void @_Z17mt19937_get_stateB5cxx11RKSt23mersenne_twister_engineImLm32ELm624ELm397ELm31ELm2567483615ELm11ELm4294967295ELm7ELm2636928640ELm15ELm4022730752ELm18ELm1812433253EE(ptr sret(%"class.std::__cxx11::basic_string") align 8 %agg.result, ptr noundef nonnull align 8 dereferenceable(5000) %rng)
          to label %invoke.cont66 unwind label %lpad27.loopexit.split-lp

invoke.cont66:                                    ; preds = %for.end65
  %44 = load ptr, ptr %idcs, align 8
  %tobool.not.i.i.i46 = icmp eq ptr %44, null
  br i1 %tobool.not.i.i.i46, label %return, label %if.then.i.i.i47

if.then.i.i.i47:                                  ; preds = %invoke.cont66
  call void @_ZdlPv(ptr noundef nonnull %44) #35
  br label %return

ehcleanup:                                        ; preds = %lpad27.loopexit, %lpad27.loopexit.split-lp, %if.then.i.i.i, %lpad
  %.pn = phi { ptr, i32 } [ %lpad.phi56, %lpad ], [ %lpad.phi56, %if.then.i.i.i ], [ %lpad.loopexit, %lpad27.loopexit ], [ %lpad.loopexit.split-lp, %lpad27.loopexit.split-lp ]
  %45 = load ptr, ptr %idcs, align 8
  %tobool.not.i.i.i48 = icmp eq ptr %45, null
  br i1 %tobool.not.i.i.i48, label %_ZNSt6vectorImSaImEED2Ev.exit50, label %if.then.i.i.i49

if.then.i.i.i49:                                  ; preds = %ehcleanup
  call void @_ZdlPv(ptr noundef nonnull %45) #35
  br label %_ZNSt6vectorImSaImEED2Ev.exit50

_ZNSt6vectorImSaImEED2Ev.exit50:                  ; preds = %ehcleanup, %if.then.i.i.i49
  resume { ptr, i32 } %.pn

return:                                           ; preds = %if.then.i.i.i47, %invoke.cont66, %if.then
  ret void
}

declare void @_ZNSt7__cxx1112basic_stringIcSt11char_traitsIcESaIcEEC1ERKS4_(ptr noundef nonnull align 8 dereferenceable(32), ptr noundef nonnull align 8 dereferenceable(32)) unnamed_addr #0

; Function Attrs: mustprogress uwtable
define linkonce_odr noundef i64 @_ZNSt23mersenne_twister_engineImLm32ELm624ELm397ELm31ELm2567483615ELm11ELm4294967295ELm7ELm2636928640ELm15ELm4022730752ELm18ELm1812433253EEclEv(ptr noundef nonnull align 8 dereferenceable(5000) %this) local_unnamed_addr #3 comdat align 2 {
entry:
  %_M_p = getelementptr inbounds i8, ptr %this, i64 4992
  %0 = load i64, ptr %_M_p, align 8
  %cmp = icmp ugt i64 %0, 623
  br i1 %cmp, label %if.then, label %if.end

if.then:                                          ; preds = %entry
  %.pre.i = load i64, ptr %this, align 8
  br label %for.body.i

for.body.i:                                       ; preds = %for.body.i, %if.then
  %1 = phi i64 [ %.pre.i, %if.then ], [ %2, %for.body.i ]
  %__k.014.i = phi i64 [ 0, %if.then ], [ %add.i, %for.body.i ]
  %arrayidx.i = getelementptr inbounds [624 x i64], ptr %this, i64 0, i64 %__k.014.i
  %and.i = and i64 %1, -2147483648
  %add.i = add nuw nsw i64 %__k.014.i, 1
  %arrayidx3.i = getelementptr inbounds [624 x i64], ptr %this, i64 0, i64 %add.i
  %2 = load i64, ptr %arrayidx3.i, align 8
  %and4.i = and i64 %2, 2147483646
  %or.i = or disjoint i64 %and4.i, %and.i
  %add6.i = add nuw nsw i64 %__k.014.i, 397
  %arrayidx7.i = getelementptr inbounds [624 x i64], ptr %this, i64 0, i64 %add6.i
  %3 = load i64, ptr %arrayidx7.i, align 8
  %shr.i = lshr exact i64 %or.i, 1
  %xor.i = xor i64 %shr.i, %3
  %and8.i = and i64 %2, 1
  %tobool.not.i = icmp eq i64 %and8.i, 0
  %cond.i = select i1 %tobool.not.i, i64 0, i64 2567483615
  %xor9.i = xor i64 %xor.i, %cond.i
  store i64 %xor9.i, ptr %arrayidx.i, align 8
  %exitcond.not.i = icmp eq i64 %add.i, 227
  br i1 %exitcond.not.i, label %for.body15.preheader.i, label %for.body.i, !llvm.loop !17

for.body15.preheader.i:                           ; preds = %for.body.i
  %arrayidx18.phi.trans.insert.i = getelementptr inbounds i8, ptr %this, i64 1816
  %.pre17.i = load i64, ptr %arrayidx18.phi.trans.insert.i, align 8
  br label %for.body15.i

for.body15.i:                                     ; preds = %for.body15.i, %for.body15.preheader.i
  %4 = phi i64 [ %5, %for.body15.i ], [ %.pre17.i, %for.body15.preheader.i ]
  %__k12.015.i = phi i64 [ %add21.i, %for.body15.i ], [ 227, %for.body15.preheader.i ]
  %arrayidx18.i = getelementptr inbounds [624 x i64], ptr %this, i64 0, i64 %__k12.015.i
  %and19.i = and i64 %4, -2147483648
  %add21.i = add nuw nsw i64 %__k12.015.i, 1
  %arrayidx22.i = getelementptr inbounds [624 x i64], ptr %this, i64 0, i64 %add21.i
  %5 = load i64, ptr %arrayidx22.i, align 8
  %and23.i = and i64 %5, 2147483646
  %or24.i = or disjoint i64 %and23.i, %and19.i
  %add26.i = add nsw i64 %__k12.015.i, -227
  %arrayidx27.i = getelementptr inbounds [624 x i64], ptr %this, i64 0, i64 %add26.i
  %6 = load i64, ptr %arrayidx27.i, align 8
  %shr28.i = lshr exact i64 %or24.i, 1
  %xor29.i = xor i64 %shr28.i, %6
  %and30.i = and i64 %5, 1
  %tobool31.not.i = icmp eq i64 %and30.i, 0
  %cond32.i = select i1 %tobool31.not.i, i64 0, i64 2567483615
  %xor33.i = xor i64 %xor29.i, %cond32.i
  store i64 %xor33.i, ptr %arrayidx18.i, align 8
  %exitcond16.not.i = icmp eq i64 %add21.i, 623
  br i1 %exitcond16.not.i, label %_ZNSt23mersenne_twister_engineImLm32ELm624ELm397ELm31ELm2567483615ELm11ELm4294967295ELm7ELm2636928640ELm15ELm4022730752ELm18ELm1812433253EE11_M_gen_randEv.exit, label %for.body15.i, !llvm.loop !18

_ZNSt23mersenne_twister_engineImLm32ELm624ELm397ELm31ELm2567483615ELm11ELm4294967295ELm7ELm2636928640ELm15ELm4022730752ELm18ELm1812433253EE11_M_gen_randEv.exit: ; preds = %for.body15.i
  %arrayidx41.i = getelementptr inbounds i8, ptr %this, i64 4984
  %7 = load i64, ptr %arrayidx41.i, align 8
  %and42.i = and i64 %7, -2147483648
  %8 = load i64, ptr %this, align 8
  %and45.i = and i64 %8, 2147483646
  %or46.i = or disjoint i64 %and45.i, %and42.i
  %arrayidx48.i = getelementptr inbounds i8, ptr %this, i64 3168
  %9 = load i64, ptr %arrayidx48.i, align 8
  %shr49.i = lshr exact i64 %or46.i, 1
  %xor50.i = xor i64 %shr49.i, %9
  %and51.i = and i64 %8, 1
  %tobool52.not.i = icmp eq i64 %and51.i, 0
  %cond53.i = select i1 %tobool52.not.i, i64 0, i64 2567483615
  %xor54.i = xor i64 %xor50.i, %cond53.i
  store i64 %xor54.i, ptr %arrayidx41.i, align 8
  br label %if.end

if.end:                                           ; preds = %_ZNSt23mersenne_twister_engineImLm32ELm624ELm397ELm31ELm2567483615ELm11ELm4294967295ELm7ELm2636928640ELm15ELm4022730752ELm18ELm1812433253EE11_M_gen_randEv.exit, %entry
  %10 = phi i64 [ 0, %_ZNSt23mersenne_twister_engineImLm32ELm624ELm397ELm31ELm2567483615ELm11ELm4294967295ELm7ELm2636928640ELm15ELm4022730752ELm18ELm1812433253EE11_M_gen_randEv.exit ], [ %0, %entry ]
  %inc = add nuw nsw i64 %10, 1
  store i64 %inc, ptr %_M_p, align 8
  %arrayidx = getelementptr inbounds [624 x i64], ptr %this, i64 0, i64 %10
  %11 = load i64, ptr %arrayidx, align 8
  %shr = lshr i64 %11, 11
  %and = and i64 %shr, 4294967295
  %xor = xor i64 %and, %11
  %shl = shl i64 %xor, 7
  %and3 = and i64 %shl, 2636928640
  %xor4 = xor i64 %and3, %xor
  %shl5 = shl i64 %xor4, 15
  %and6 = and i64 %shl5, 4022730752
  %xor7 = xor i64 %and6, %xor4
  %shr8 = lshr i64 %xor7, 18
  %xor9 = xor i64 %shr8, %xor7
  ret i64 %xor9
}

; Function Attrs: mustprogress nofree norecurse nosync nounwind willreturn memory(none) uwtable
define noundef i64 @_Z12hash_combinemm(i64 noundef %h1, i64 noundef %h2) local_unnamed_addr #14 {
entry:
  %shl = shl i64 %h2, 1
  %xor = xor i64 %shl, %h1
  ret i64 %xor
}

; Function Attrs: mustprogress uwtable
define noundef i64 @_Z20compute_samples_hashPKcPKmS2_m(ptr noundef %fn, ptr nocapture noundef readonly %samples_begin, ptr nocapture noundef readonly %samples_size, i64 noundef %sample_count) local_unnamed_addr #3 personality ptr @__gxx_personality_v0 {
entry:
  %ref.tmp = alloca %"class.std::__cxx11::basic_string", align 8
  %ref.tmp1 = alloca %"class.std::allocator", align 1
  call void @_ZNSaIcEC1Ev(ptr noundef nonnull align 1 dereferenceable(1) %ref.tmp1) #34
  invoke void @_ZNSt7__cxx1112basic_stringIcSt11char_traitsIcESaIcEEC1EPKcRKS3_(ptr noundef nonnull align 8 dereferenceable(32) %ref.tmp, ptr noundef %fn, ptr noundef nonnull align 1 dereferenceable(1) %ref.tmp1)
          to label %invoke.cont unwind label %lpad

invoke.cont:                                      ; preds = %entry
  %call.i = call noundef ptr @_ZNKSt7__cxx1112basic_stringIcSt11char_traitsIcESaIcEE4dataEv(ptr noundef nonnull align 8 dereferenceable(32) %ref.tmp) #34
  %call2.i = call noundef i64 @_ZNKSt7__cxx1112basic_stringIcSt11char_traitsIcESaIcEE6lengthEv(ptr noundef nonnull align 8 dereferenceable(32) %ref.tmp) #34
  %call.i2.i = invoke noundef i64 @_ZSt11_Hash_bytesPKvmm(ptr noundef %call.i, i64 noundef %call2.i, i64 noundef 3339675911)
          to label %_ZNKSt4hashINSt7__cxx1112basic_stringIcSt11char_traitsIcESaIcEEEEclERKS5_.exit unwind label %terminate.lpad.i

terminate.lpad.i:                                 ; preds = %invoke.cont
  %0 = landingpad { ptr, i32 }
          catch ptr null
  %1 = extractvalue { ptr, i32 } %0, 0
  call void @__clang_call_terminate(ptr %1) #38
  unreachable

_ZNKSt4hashINSt7__cxx1112basic_stringIcSt11char_traitsIcESaIcEEEEclERKS5_.exit: ; preds = %invoke.cont
  call void @_ZNSt7__cxx1112basic_stringIcSt11char_traitsIcESaIcEED1Ev(ptr noundef nonnull align 8 dereferenceable(32) %ref.tmp) #34
  call void @_ZNSaIcED1Ev(ptr noundef nonnull align 1 dereferenceable(1) %ref.tmp1) #34
  %shl.i = shl i64 %sample_count, 1
  %xor.i = xor i64 %call.i2.i, %shl.i
  %cmp12.not = icmp eq i64 %sample_count, 0
  br i1 %cmp12.not, label %for.end, label %for.body

for.body:                                         ; preds = %_ZNKSt4hashINSt7__cxx1112basic_stringIcSt11char_traitsIcESaIcEEEEclERKS5_.exit, %for.body
  %i.014 = phi i64 [ %inc, %for.body ], [ 0, %_ZNKSt4hashINSt7__cxx1112basic_stringIcSt11char_traitsIcESaIcEEEEclERKS5_.exit ]
  %h.013 = phi i64 [ %xor.i11, %for.body ], [ %xor.i, %_ZNKSt4hashINSt7__cxx1112basic_stringIcSt11char_traitsIcESaIcEEEEclERKS5_.exit ]
  %arrayidx = getelementptr inbounds i64, ptr %samples_begin, i64 %i.014
  %2 = load i64, ptr %arrayidx, align 8
  %arrayidx6 = getelementptr inbounds i64, ptr %samples_size, i64 %i.014
  %3 = load i64, ptr %arrayidx6, align 8
  %4 = xor i64 %3, %2
  %5 = shl i64 %4, 1
  %xor.i11 = xor i64 %5, %h.013
  %inc = add nuw i64 %i.014, 1
  %exitcond.not = icmp eq i64 %inc, %sample_count
  br i1 %exitcond.not, label %for.end, label %for.body, !llvm.loop !42

lpad:                                             ; preds = %entry
  %6 = landingpad { ptr, i32 }
          cleanup
  call void @_ZNSaIcED1Ev(ptr noundef nonnull align 1 dereferenceable(1) %ref.tmp1) #34
  resume { ptr, i32 } %6

for.end:                                          ; preds = %for.body, %_ZNKSt4hashINSt7__cxx1112basic_stringIcSt11char_traitsIcESaIcEEEEclERKS5_.exit
  %h.0.lcssa = phi i64 [ %xor.i, %_ZNKSt4hashINSt7__cxx1112basic_stringIcSt11char_traitsIcESaIcEEEEclERKS5_.exit ], [ %xor.i11, %for.body ]
  ret i64 %h.0.lcssa
}

; Function Attrs: nounwind
declare void @_ZNSaIcEC1Ev(ptr noundef nonnull align 1 dereferenceable(1)) unnamed_addr #1

declare void @_ZNSt7__cxx1112basic_stringIcSt11char_traitsIcESaIcEEC1EPKcRKS3_(ptr noundef nonnull align 8 dereferenceable(32), ptr noundef, ptr noundef nonnull align 1 dereferenceable(1)) unnamed_addr #0

; Function Attrs: nounwind
declare void @_ZNSt7__cxx1112basic_stringIcSt11char_traitsIcESaIcEED1Ev(ptr noundef nonnull align 8 dereferenceable(32)) unnamed_addr #1

; Function Attrs: nounwind
declare void @_ZNSaIcED1Ev(ptr noundef nonnull align 1 dereferenceable(1)) unnamed_addr #1

; Function Attrs: mustprogress uwtable
define void @_Z11replace_strB5cxx11PKcS0_S0_(ptr noalias sret(%"class.std::__cxx11::basic_string") align 8 %agg.result, ptr noundef %s, ptr noundef %needle, ptr noundef %replacement) local_unnamed_addr #3 personality ptr @__gxx_personality_v0 {
entry:
  %ref.tmp = alloca %"class.std::allocator", align 1
  call void @_ZNSaIcEC1Ev(ptr noundef nonnull align 1 dereferenceable(1) %ref.tmp) #34
  invoke void @_ZNSt7__cxx1112basic_stringIcSt11char_traitsIcESaIcEEC1EPKcRKS3_(ptr noundef nonnull align 8 dereferenceable(32) %agg.result, ptr noundef %s, ptr noundef nonnull align 1 dereferenceable(1) %ref.tmp)
          to label %invoke.cont unwind label %lpad

invoke.cont:                                      ; preds = %entry
  call void @_ZNSaIcED1Ev(ptr noundef nonnull align 1 dereferenceable(1) %ref.tmp) #34
  %call = call noundef i64 @_ZNKSt7__cxx1112basic_stringIcSt11char_traitsIcESaIcEE4findEPKcm(ptr noundef nonnull align 8 dereferenceable(32) %agg.result, ptr noundef %needle, i64 noundef 0) #34
  %cmp.not = icmp eq i64 %call, -1
  br i1 %cmp.not, label %nrvo.skipdtor, label %if.then

if.then:                                          ; preds = %invoke.cont
  %call1 = call i64 @strlen(ptr noundef nonnull dereferenceable(1) %needle) #39
  %call4 = invoke noundef nonnull align 8 dereferenceable(32) ptr @_ZNSt7__cxx1112basic_stringIcSt11char_traitsIcESaIcEE7replaceEmmPKc(ptr noundef nonnull align 8 dereferenceable(32) %agg.result, i64 noundef %call, i64 noundef %call1, ptr noundef %replacement)
          to label %nrvo.skipdtor unwind label %lpad2

lpad:                                             ; preds = %entry
  %0 = landingpad { ptr, i32 }
          cleanup
  call void @_ZNSaIcED1Ev(ptr noundef nonnull align 1 dereferenceable(1) %ref.tmp) #34
  br label %eh.resume

lpad2:                                            ; preds = %if.then
  %1 = landingpad { ptr, i32 }
          cleanup
  call void @_ZNSt7__cxx1112basic_stringIcSt11char_traitsIcESaIcEED1Ev(ptr noundef nonnull align 8 dereferenceable(32) %agg.result) #34
  br label %eh.resume

nrvo.skipdtor:                                    ; preds = %invoke.cont, %if.then
  ret void

eh.resume:                                        ; preds = %lpad2, %lpad
  %.pn = phi { ptr, i32 } [ %1, %lpad2 ], [ %0, %lpad ]
  resume { ptr, i32 } %.pn
}

; Function Attrs: nounwind
declare noundef i64 @_ZNKSt7__cxx1112basic_stringIcSt11char_traitsIcESaIcEE4findEPKcm(ptr noundef nonnull align 8 dereferenceable(32), ptr noundef, i64 noundef) local_unnamed_addr #1

declare noundef nonnull align 8 dereferenceable(32) ptr @_ZNSt7__cxx1112basic_stringIcSt11char_traitsIcESaIcEE7replaceEmmPKc(ptr noundef nonnull align 8 dereferenceable(32), i64 noundef, i64 noundef, ptr noundef) local_unnamed_addr #0

; Function Attrs: mustprogress nofree nounwind willreturn memory(argmem: read)
declare i64 @strlen(ptr nocapture noundef) local_unnamed_addr #17

; Function Attrs: mustprogress nofree nounwind uwtable
define void @_Z14print_durationd(double noundef %fmillis) local_unnamed_addr #18 {
entry:
  %cmp = fcmp olt double %fmillis, 1.000000e+03
  br i1 %cmp, label %if.then, label %if.end

if.then:                                          ; preds = %entry
  %conv = fptrunc double %fmillis to float
  %conv1 = fpext float %conv to double
  %call = tail call i32 (ptr, ...) @printf(ptr noundef nonnull dereferenceable(1) @.str.18, double noundef %conv1)
  br label %return

if.end:                                           ; preds = %entry
  %conv2 = fptosi double %fmillis to i64
  %div = sdiv i64 %conv2, 86400000
  %mul.neg = mul nsw i64 %div, -86400000
  %sub = add i64 %mul.neg, %conv2
  %div3 = sdiv i64 %sub, 3600000
  %mul6.neg = mul nsw i64 %div3, -3600000
  %sub7 = add i64 %mul6.neg, %sub
  %div8 = sdiv i64 %sub7, 60000
  %mul13.neg = mul nsw i64 %div8, -60000
  %sub14 = add i64 %mul13.neg, %sub7
  %div15 = sdiv i64 %sub14, 1000
  %cmp16 = icmp sgt i64 %conv2, 86399999
  br i1 %cmp16, label %if.then17, label %if.end19

if.then17:                                        ; preds = %if.end
  %call18 = tail call i32 (ptr, ...) @printf(ptr noundef nonnull dereferenceable(1) @.str.19, i64 noundef %div)
  br label %if.end19

if.end19:                                         ; preds = %if.then17, %if.end
  %call20 = tail call i32 (ptr, ...) @printf(ptr noundef nonnull dereferenceable(1) @.str.20, i64 noundef %div3, i64 noundef %div8, i64 noundef %div15)
  br label %return

return:                                           ; preds = %if.end19, %if.then
  ret void
}

; Function Attrs: nofree nounwind
declare noundef i32 @printf(ptr nocapture noundef readonly, ...) local_unnamed_addr #16

; Function Attrs: mustprogress nofree nounwind willreturn memory(write) uwtable
define noundef float @_Z12cosine_decayllf(i64 noundef %step, i64 noundef %decay_steps, float noundef %minimum) local_unnamed_addr #19 {
entry:
  %spec.select = tail call i64 @llvm.smin.i64(i64 %step, i64 %decay_steps)
  %conv = sitofp i64 %spec.select to float
  %mul = fmul float %conv, 0x400921FB60000000
  %conv1 = sitofp i64 %decay_steps to float
  %div = fdiv float %mul, %conv1
  %call = tail call float @cosf(float noundef %div) #34
  %add = fadd float %call, 1.000000e+00
  %mul2 = fmul float %add, 5.000000e-01
  %sub = fsub float 1.000000e+00, %minimum
  %0 = tail call float @llvm.fmuladd.f32(float %sub, float %mul2, float %minimum)
  ret float %0
}

; Function Attrs: mustprogress nofree nounwind willreturn memory(write)
declare float @cosf(float noundef) local_unnamed_addr #12

; Function Attrs: mustprogress nocallback nofree nosync nounwind speculatable willreturn memory(none)
declare float @llvm.fmuladd.f32(float, float, float) #20

; Function Attrs: mustprogress nofree nounwind memory(write) uwtable
define noundef float @_Z20cosine_decay_restartllff(i64 noundef %step, i64 noundef %decay_steps, float noundef %minimum, float noundef %restart_step_mult) local_unnamed_addr #21 {
entry:
  %cmp6 = icmp sgt i64 %step, %decay_steps
  br i1 %cmp6, label %while.body, label %while.end

while.body:                                       ; preds = %entry, %while.body
  %step.addr.08 = phi i64 [ %sub, %while.body ], [ %step, %entry ]
  %decay_steps.addr.07 = phi i64 [ %conv1, %while.body ], [ %decay_steps, %entry ]
  %sub = sub nsw i64 %step.addr.08, %decay_steps.addr.07
  %conv = sitofp i64 %decay_steps.addr.07 to float
  %mul = fmul float %conv, %restart_step_mult
  %conv1 = fptosi float %mul to i64
  %cmp = icmp sgt i64 %sub, %conv1
  br i1 %cmp, label %while.body, label %while.end, !llvm.loop !43

while.end:                                        ; preds = %while.body, %entry
  %decay_steps.addr.0.lcssa = phi i64 [ %decay_steps, %entry ], [ %conv1, %while.body ]
  %step.addr.0.lcssa = phi i64 [ %step, %entry ], [ %sub, %while.body ]
  %conv.i = sitofp i64 %step.addr.0.lcssa to float
  %mul.i = fmul float %conv.i, 0x400921FB60000000
  %conv1.i = sitofp i64 %decay_steps.addr.0.lcssa to float
  %div.i = fdiv float %mul.i, %conv1.i
  %call.i = tail call float @cosf(float noundef %div.i) #34
  %add.i = fadd float %call.i, 1.000000e+00
  %mul2.i = fmul float %add.i, 5.000000e-01
  %sub.i = fsub float 1.000000e+00, %minimum
  %0 = tail call noundef float @llvm.fmuladd.f32(float %sub.i, float %mul2.i, float %minimum)
  ret float %0
}

; Function Attrs: mustprogress nofree nounwind memory(write) uwtable
define noundef float @_Z17learning_schedulelllffffb(i64 noundef %step, i64 noundef %warmup_steps, i64 noundef %cos_decay_steps, float noundef %learning_rate, float noundef %overall_minimum, float noundef %cos_decay_minimum, float noundef %cos_decay_restart_step_mult, i1 noundef zeroext %enable_restart) local_unnamed_addr #21 {
entry:
  %cmp = icmp slt i64 %step, %warmup_steps
  br i1 %cmp, label %cond.true, label %cond.false

cond.true:                                        ; preds = %entry
  %conv = sitofp i64 %step to float
  %conv1 = sitofp i64 %warmup_steps to float
  %div = fdiv float %conv, %conv1
  br label %cond.end5

cond.false:                                       ; preds = %entry
  br i1 %enable_restart, label %cond.true2, label %cond.false3

cond.true2:                                       ; preds = %cond.false
  %sub = sub nsw i64 %step, %warmup_steps
  %cmp6.i = icmp sgt i64 %sub, %cos_decay_steps
  br i1 %cmp6.i, label %while.body.i, label %_Z20cosine_decay_restartllff.exit

while.body.i:                                     ; preds = %cond.true2, %while.body.i
  %step.addr.08.i = phi i64 [ %sub.i, %while.body.i ], [ %sub, %cond.true2 ]
  %decay_steps.addr.07.i = phi i64 [ %conv1.i, %while.body.i ], [ %cos_decay_steps, %cond.true2 ]
  %sub.i = sub nsw i64 %step.addr.08.i, %decay_steps.addr.07.i
  %conv.i = sitofp i64 %decay_steps.addr.07.i to float
  %mul.i = fmul float %conv.i, %cos_decay_restart_step_mult
  %conv1.i = fptosi float %mul.i to i64
  %cmp.i = icmp sgt i64 %sub.i, %conv1.i
  br i1 %cmp.i, label %while.body.i, label %_Z20cosine_decay_restartllff.exit, !llvm.loop !43

_Z20cosine_decay_restartllff.exit:                ; preds = %while.body.i, %cond.true2
  %decay_steps.addr.0.lcssa.i = phi i64 [ %cos_decay_steps, %cond.true2 ], [ %conv1.i, %while.body.i ]
  %step.addr.0.lcssa.i = phi i64 [ %sub, %cond.true2 ], [ %sub.i, %while.body.i ]
  %conv.i.i = sitofp i64 %step.addr.0.lcssa.i to float
  %mul.i.i = fmul float %conv.i.i, 0x400921FB60000000
  %conv1.i.i = sitofp i64 %decay_steps.addr.0.lcssa.i to float
  %div.i.i = fdiv float %mul.i.i, %conv1.i.i
  %call.i.i = tail call float @cosf(float noundef %div.i.i) #34
  %add.i.i = fadd float %call.i.i, 1.000000e+00
  %mul2.i.i = fmul float %add.i.i, 5.000000e-01
  %sub.i.i = fsub float 1.000000e+00, %cos_decay_minimum
  %0 = tail call noundef float @llvm.fmuladd.f32(float %sub.i.i, float %mul2.i.i, float %cos_decay_minimum)
  br label %cond.end5

cond.false3:                                      ; preds = %cond.false
  %spec.select.i = tail call i64 @llvm.smin.i64(i64 %step, i64 %cos_decay_steps)
  %conv.i10 = sitofp i64 %spec.select.i to float
  %mul.i11 = fmul float %conv.i10, 0x400921FB60000000
  %conv1.i12 = sitofp i64 %cos_decay_steps to float
  %div.i = fdiv float %mul.i11, %conv1.i12
  %call.i = tail call float @cosf(float noundef %div.i) #34
  %add.i = fadd float %call.i, 1.000000e+00
  %mul2.i = fmul float %add.i, 5.000000e-01
  %sub.i13 = fsub float 1.000000e+00, %cos_decay_minimum
  %1 = tail call noundef float @llvm.fmuladd.f32(float %sub.i13, float %mul2.i, float %cos_decay_minimum)
  br label %cond.end5

cond.end5:                                        ; preds = %_Z20cosine_decay_restartllff.exit, %cond.false3, %cond.true
  %cond6 = phi float [ %div, %cond.true ], [ %0, %_Z20cosine_decay_restartllff.exit ], [ %1, %cond.false3 ]
  %div7 = fdiv float %overall_minimum, %learning_rate
  %sub8 = fsub float 1.000000e+00, %div7
  %2 = tail call float @llvm.fmuladd.f32(float %cond6, float %sub8, float %div7)
  ret float %2
}

; Function Attrs: mustprogress uwtable
define void @_Z19copy_tensor_by_nameP11ggml_tensorP12ggml_contextPKc(ptr noundef %dst, ptr noundef %ctx, ptr noundef %name) local_unnamed_addr #3 {
entry:
  %cmp = icmp eq ptr %dst, null
  br i1 %cmp, label %if.end13, label %if.end

if.end:                                           ; preds = %entry
  %call = tail call ptr @ggml_get_tensor(ptr noundef %ctx, ptr noundef %name)
  %cmp3.not.i = icmp eq ptr %call, null
  br i1 %cmp3.not.i, label %if.then4.i, label %do.body9.i

if.then4.i:                                       ; preds = %if.end
  %0 = load ptr, ptr @stdout, align 8
  %call5.i = tail call i32 @fflush(ptr noundef %0)
  %1 = load ptr, ptr @stderr, align 8
  %call6.i = tail call i32 (ptr, ptr, ...) @fprintf(ptr noundef %1, ptr noundef nonnull @.str.2, ptr noundef nonnull @.str.3, i32 noundef 458, ptr noundef nonnull @.str.155) #37
  tail call void @ggml_print_backtrace()
  tail call void @abort() #38
  unreachable

do.body9.i:                                       ; preds = %if.end
  %2 = load i32, ptr %dst, align 8
  %3 = load i32, ptr %call, align 8
  %cmp11.i = icmp eq i32 %2, %3
  br i1 %cmp11.i, label %do.body17.i, label %if.then12.i

if.then12.i:                                      ; preds = %do.body9.i
  %4 = load ptr, ptr @stdout, align 8
  %call13.i = tail call i32 @fflush(ptr noundef %4)
  %5 = load ptr, ptr @stderr, align 8
  %call14.i = tail call i32 (ptr, ptr, ...) @fprintf(ptr noundef %5, ptr noundef nonnull @.str.2, ptr noundef nonnull @.str.3, i32 noundef 459, ptr noundef nonnull @.str.156) #37
  tail call void @ggml_print_backtrace()
  tail call void @abort() #38
  unreachable

do.body17.i:                                      ; preds = %do.body9.i
  %call18.i = tail call zeroext i1 @ggml_are_same_shape(ptr noundef nonnull %dst, ptr noundef nonnull %call)
  br i1 %call18.i, label %do.body24.i, label %if.then19.i

if.then19.i:                                      ; preds = %do.body17.i
  %6 = load ptr, ptr @stdout, align 8
  %call20.i = tail call i32 @fflush(ptr noundef %6)
  %7 = load ptr, ptr @stderr, align 8
  %call21.i = tail call i32 (ptr, ptr, ...) @fprintf(ptr noundef %7, ptr noundef nonnull @.str.2, ptr noundef nonnull @.str.3, i32 noundef 460, ptr noundef nonnull @.str.157) #37
  tail call void @ggml_print_backtrace()
  tail call void @abort() #38
  unreachable

do.body24.i:                                      ; preds = %do.body17.i
  %call25.i = tail call zeroext i1 @ggml_is_contiguous(ptr noundef nonnull %dst)
  br i1 %call25.i, label %land.lhs.true.i, label %if.then27.i

land.lhs.true.i:                                  ; preds = %do.body24.i
  %call26.i = tail call zeroext i1 @ggml_is_contiguous(ptr noundef nonnull %call)
  br i1 %call26.i, label %_ZL15are_same_layoutP11ggml_tensorS0_.exit, label %if.then27.i

if.then27.i:                                      ; preds = %land.lhs.true.i, %do.body24.i
  %8 = load ptr, ptr @stdout, align 8
  %call28.i = tail call i32 @fflush(ptr noundef %8)
  %9 = load ptr, ptr @stderr, align 8
  %call29.i = tail call i32 (ptr, ptr, ...) @fprintf(ptr noundef %9, ptr noundef nonnull @.str.2, ptr noundef nonnull @.str.3, i32 noundef 461, ptr noundef nonnull @.str.158) #37
  tail call void @ggml_print_backtrace()
  tail call void @abort() #38
  unreachable

_ZL15are_same_layoutP11ggml_tensorS0_.exit:       ; preds = %land.lhs.true.i
  %data = getelementptr inbounds i8, ptr %dst, i64 280
  %10 = load ptr, ptr %data, align 8
  %data6 = getelementptr inbounds i8, ptr %call, i64 280
  %11 = load ptr, ptr %data6, align 8
  %call7 = tail call i64 @ggml_nbytes(ptr noundef nonnull %call)
  tail call void @llvm.memcpy.p0.p0.i64(ptr align 1 %10, ptr align 1 %11, i64 %call7, i1 false)
  %call8 = tail call ptr @ggml_get_name(ptr noundef nonnull %dst)
  %char0 = load i8, ptr %call8, align 1
  %cmp10 = icmp eq i8 %char0, 0
  br i1 %cmp10, label %if.then11, label %if.end13

if.then11:                                        ; preds = %_ZL15are_same_layoutP11ggml_tensorS0_.exit
  %call12 = tail call ptr @ggml_set_name(ptr noundef nonnull %dst, ptr noundef %name)
  br label %if.end13

if.end13:                                         ; preds = %entry, %if.then11, %_ZL15are_same_layoutP11ggml_tensorS0_.exit
  ret void
}

declare ptr @ggml_get_tensor(ptr noundef, ptr noundef) local_unnamed_addr #0

declare i64 @ggml_nbytes(ptr noundef) local_unnamed_addr #0

declare ptr @ggml_get_name(ptr noundef) local_unnamed_addr #0

declare ptr @ggml_set_name(ptr noundef, ptr noundef) local_unnamed_addr #0

; Function Attrs: mustprogress uwtable
define void @_Z21load_opt_context_ggufP12gguf_contextP12ggml_contextP16ggml_opt_context(ptr noundef %fctx, ptr noundef %f_ggml_ctx, ptr noundef %opt) local_unnamed_addr #3 personality ptr @__gxx_personality_v0 {
entry:
  %skey = alloca %"class.std::__cxx11::basic_string", align 8
  %ref.tmp = alloca %"class.std::allocator", align 1
  %skey30 = alloca %"class.std::__cxx11::basic_string", align 8
  %ref.tmp31 = alloca %"class.std::allocator", align 1
  %skey65 = alloca %"class.std::__cxx11::basic_string", align 8
  %ref.tmp66 = alloca %"class.std::allocator", align 1
  %skey100 = alloca %"class.std::__cxx11::basic_string", align 8
  %ref.tmp101 = alloca %"class.std::allocator", align 1
  %skey135 = alloca %"class.std::__cxx11::basic_string", align 8
  %ref.tmp136 = alloca %"class.std::allocator", align 1
  %opt_type = alloca %"class.std::__cxx11::basic_string", align 8
  %skey171 = alloca %"class.std::__cxx11::basic_string", align 8
  %ref.tmp172 = alloca %"class.std::allocator", align 1
  %skey213 = alloca %"class.std::__cxx11::basic_string", align 8
  %ref.tmp214 = alloca %"class.std::allocator", align 1
  %skey248 = alloca %"class.std::__cxx11::basic_string", align 8
  %ref.tmp249 = alloca %"class.std::allocator", align 1
  %skey284 = alloca %"class.std::__cxx11::basic_string", align 8
  %ref.tmp285 = alloca %"class.std::allocator", align 1
  %skey335 = alloca %"class.std::__cxx11::basic_string", align 8
  %ref.tmp336 = alloca %"class.std::allocator", align 1
  %skey372 = alloca %"class.std::__cxx11::basic_string", align 8
  %ref.tmp373 = alloca %"class.std::allocator", align 1
  %skey409 = alloca %"class.std::__cxx11::basic_string", align 8
  %ref.tmp410 = alloca %"class.std::allocator", align 1
  %skey445 = alloca %"class.std::__cxx11::basic_string", align 8
  %ref.tmp446 = alloca %"class.std::allocator", align 1
  %skey481 = alloca %"class.std::__cxx11::basic_string", align 8
  %ref.tmp482 = alloca %"class.std::allocator", align 1
  %skey517 = alloca %"class.std::__cxx11::basic_string", align 8
  %ref.tmp518 = alloca %"class.std::allocator", align 1
  %skey553 = alloca %"class.std::__cxx11::basic_string", align 8
  %ref.tmp554 = alloca %"class.std::allocator", align 1
  call void @_ZNSaIcEC1Ev(ptr noundef nonnull align 1 dereferenceable(1) %ref.tmp) #34
  invoke void @_ZNSt7__cxx1112basic_stringIcSt11char_traitsIcESaIcEEC1EPKcRKS3_(ptr noundef nonnull align 8 dereferenceable(32) %skey, ptr noundef nonnull @.str.159, ptr noundef nonnull align 1 dereferenceable(1) %ref.tmp)
          to label %invoke.cont unwind label %lpad

invoke.cont:                                      ; preds = %entry
  call void @_ZNSaIcED1Ev(ptr noundef nonnull align 1 dereferenceable(1) %ref.tmp) #34
  %call = call noundef ptr @_ZNKSt7__cxx1112basic_stringIcSt11char_traitsIcESaIcEE5c_strEv(ptr noundef nonnull align 8 dereferenceable(32) %skey) #34
  %call3 = invoke i32 @gguf_find_key(ptr noundef %fctx, ptr noundef %call)
          to label %invoke.cont2 unwind label %lpad1

invoke.cont2:                                     ; preds = %invoke.cont
  %cmp = icmp sgt i32 %call3, -1
  br i1 %cmp, label %if.then, label %do.body15

if.then:                                          ; preds = %invoke.cont2
  %call5 = invoke i32 @gguf_get_kv_type(ptr noundef %fctx, i32 noundef %call3)
          to label %invoke.cont4 unwind label %lpad1

invoke.cont4:                                     ; preds = %if.then
  %cmp6.not = icmp eq i32 %call5, 4
  br i1 %cmp6.not, label %if.end, label %do.body

do.body:                                          ; preds = %invoke.cont4
  %0 = load ptr, ptr @stderr, align 8
  %call8 = call noundef ptr @_ZNKSt7__cxx1112basic_stringIcSt11char_traitsIcESaIcEE5c_strEv(ptr noundef nonnull align 8 dereferenceable(32) %skey) #34
  %call10 = invoke ptr @gguf_type_name(i32 noundef %call5)
          to label %invoke.cont9 unwind label %lpad1

invoke.cont9:                                     ; preds = %do.body
  %call12 = call i32 (ptr, ptr, ...) @fprintf(ptr noundef %0, ptr noundef nonnull @.str.22, ptr noundef %call8, ptr noundef %call10) #37
  call void @exit(i32 noundef 1) #38
  unreachable

lpad:                                             ; preds = %entry
  %1 = landingpad { ptr, i32 }
          cleanup
  call void @_ZNSaIcED1Ev(ptr noundef nonnull align 1 dereferenceable(1) %ref.tmp) #34
  br label %eh.resume

lpad1:                                            ; preds = %if.end, %do.body, %if.then, %invoke.cont
  %2 = landingpad { ptr, i32 }
          cleanup
  call void @_ZNSt7__cxx1112basic_stringIcSt11char_traitsIcESaIcEED1Ev(ptr noundef nonnull align 8 dereferenceable(32) %skey) #34
  br label %eh.resume

if.end:                                           ; preds = %invoke.cont4
  %call14 = invoke i32 @gguf_get_val_u32(ptr noundef %fctx, i32 noundef %call3)
          to label %invoke.cont13 unwind label %lpad1

invoke.cont13:                                    ; preds = %if.end
  call void @_ZNSt7__cxx1112basic_stringIcSt11char_traitsIcESaIcEED1Ev(ptr noundef nonnull align 8 dereferenceable(32) %skey) #34
  %cmp23 = icmp eq i32 %call14, 0
  br i1 %cmp23, label %do.end29, label %if.then24

do.body15:                                        ; preds = %invoke.cont2
  %3 = load ptr, ptr @stderr, align 8
  %call16 = call noundef ptr @_ZNKSt7__cxx1112basic_stringIcSt11char_traitsIcESaIcEE5c_strEv(ptr noundef nonnull align 8 dereferenceable(32) %skey) #34
  %call18 = call i32 (ptr, ptr, ...) @fprintf(ptr noundef %3, ptr noundef nonnull @.str.23, ptr noundef %call16) #37
  call void @exit(i32 noundef 1) #38
  unreachable

if.then24:                                        ; preds = %invoke.cont13
  %4 = load ptr, ptr @stdout, align 8
  %call25 = call i32 @fflush(ptr noundef %4)
  %5 = load ptr, ptr @stderr, align 8
  %call26 = call i32 (ptr, ptr, ...) @fprintf(ptr noundef %5, ptr noundef nonnull @.str.2, ptr noundef nonnull @.str.3, i32 noundef 544, ptr noundef nonnull @.str.24) #37
  call void @ggml_print_backtrace()
  call void @abort() #38
  unreachable

do.end29:                                         ; preds = %invoke.cont13
  call void @_ZNSaIcEC1Ev(ptr noundef nonnull align 1 dereferenceable(1) %ref.tmp31) #34
  invoke void @_ZNSt7__cxx1112basic_stringIcSt11char_traitsIcESaIcEEC1EPKcRKS3_(ptr noundef nonnull align 8 dereferenceable(32) %skey30, ptr noundef nonnull @.str.160, ptr noundef nonnull align 1 dereferenceable(1) %ref.tmp31)
          to label %invoke.cont33 unwind label %lpad32

invoke.cont33:                                    ; preds = %do.end29
  call void @_ZNSaIcED1Ev(ptr noundef nonnull align 1 dereferenceable(1) %ref.tmp31) #34
  %call35 = call noundef ptr @_ZNKSt7__cxx1112basic_stringIcSt11char_traitsIcESaIcEE5c_strEv(ptr noundef nonnull align 8 dereferenceable(32) %skey30) #34
  %call38 = invoke i32 @gguf_find_key(ptr noundef %fctx, ptr noundef %call35)
          to label %invoke.cont37 unwind label %lpad36

invoke.cont37:                                    ; preds = %invoke.cont33
  %cmp39 = icmp sgt i32 %call38, -1
  br i1 %cmp39, label %if.then40, label %do.body58

if.then40:                                        ; preds = %invoke.cont37
  %call43 = invoke i32 @gguf_get_kv_type(ptr noundef %fctx, i32 noundef %call38)
          to label %invoke.cont42 unwind label %lpad36

invoke.cont42:                                    ; preds = %if.then40
  %cmp44.not = icmp eq i32 %call43, 4
  br i1 %cmp44.not, label %if.end54, label %do.body46

do.body46:                                        ; preds = %invoke.cont42
  %6 = load ptr, ptr @stderr, align 8
  %call47 = call noundef ptr @_ZNKSt7__cxx1112basic_stringIcSt11char_traitsIcESaIcEE5c_strEv(ptr noundef nonnull align 8 dereferenceable(32) %skey30) #34
  %call49 = invoke ptr @gguf_type_name(i32 noundef %call43)
          to label %invoke.cont48 unwind label %lpad36

invoke.cont48:                                    ; preds = %do.body46
  %call51 = call i32 (ptr, ptr, ...) @fprintf(ptr noundef %6, ptr noundef nonnull @.str.22, ptr noundef %call47, ptr noundef %call49) #37
  call void @exit(i32 noundef 1) #38
  unreachable

lpad32:                                           ; preds = %do.end29
  %7 = landingpad { ptr, i32 }
          cleanup
  call void @_ZNSaIcED1Ev(ptr noundef nonnull align 1 dereferenceable(1) %ref.tmp31) #34
  br label %eh.resume

lpad36:                                           ; preds = %if.end54, %do.body46, %if.then40, %invoke.cont33
  %8 = landingpad { ptr, i32 }
          cleanup
  call void @_ZNSt7__cxx1112basic_stringIcSt11char_traitsIcESaIcEED1Ev(ptr noundef nonnull align 8 dereferenceable(32) %skey30) #34
  br label %eh.resume

if.end54:                                         ; preds = %invoke.cont42
  %call56 = invoke i32 @gguf_get_val_u32(ptr noundef %fctx, i32 noundef %call38)
          to label %invoke.cont55 unwind label %lpad36

invoke.cont55:                                    ; preds = %if.end54
  %params = getelementptr inbounds i8, ptr %opt, i64 8
  %past = getelementptr inbounds i8, ptr %opt, i64 28
  store i32 %call56, ptr %past, align 4
  call void @_ZNSt7__cxx1112basic_stringIcSt11char_traitsIcESaIcEED1Ev(ptr noundef nonnull align 8 dereferenceable(32) %skey30) #34
  call void @_ZNSaIcEC1Ev(ptr noundef nonnull align 1 dereferenceable(1) %ref.tmp66) #34
  invoke void @_ZNSt7__cxx1112basic_stringIcSt11char_traitsIcESaIcEEC1EPKcRKS3_(ptr noundef nonnull align 8 dereferenceable(32) %skey65, ptr noundef nonnull @.str.161, ptr noundef nonnull align 1 dereferenceable(1) %ref.tmp66)
          to label %invoke.cont68 unwind label %lpad67

do.body58:                                        ; preds = %invoke.cont37
  %9 = load ptr, ptr @stderr, align 8
  %call59 = call noundef ptr @_ZNKSt7__cxx1112basic_stringIcSt11char_traitsIcESaIcEE5c_strEv(ptr noundef nonnull align 8 dereferenceable(32) %skey30) #34
  %call61 = call i32 (ptr, ptr, ...) @fprintf(ptr noundef %9, ptr noundef nonnull @.str.23, ptr noundef %call59) #37
  call void @exit(i32 noundef 1) #38
  unreachable

invoke.cont68:                                    ; preds = %invoke.cont55
  call void @_ZNSaIcED1Ev(ptr noundef nonnull align 1 dereferenceable(1) %ref.tmp66) #34
  %call70 = call noundef ptr @_ZNKSt7__cxx1112basic_stringIcSt11char_traitsIcESaIcEE5c_strEv(ptr noundef nonnull align 8 dereferenceable(32) %skey65) #34
  %call73 = invoke i32 @gguf_find_key(ptr noundef %fctx, ptr noundef %call70)
          to label %invoke.cont72 unwind label %lpad71

invoke.cont72:                                    ; preds = %invoke.cont68
  %cmp74 = icmp sgt i32 %call73, -1
  br i1 %cmp74, label %if.then75, label %do.body93

if.then75:                                        ; preds = %invoke.cont72
  %call78 = invoke i32 @gguf_get_kv_type(ptr noundef %fctx, i32 noundef %call73)
          to label %invoke.cont77 unwind label %lpad71

invoke.cont77:                                    ; preds = %if.then75
  %cmp79.not = icmp eq i32 %call78, 4
  br i1 %cmp79.not, label %if.end89, label %do.body81

do.body81:                                        ; preds = %invoke.cont77
  %10 = load ptr, ptr @stderr, align 8
  %call82 = call noundef ptr @_ZNKSt7__cxx1112basic_stringIcSt11char_traitsIcESaIcEE5c_strEv(ptr noundef nonnull align 8 dereferenceable(32) %skey65) #34
  %call84 = invoke ptr @gguf_type_name(i32 noundef %call78)
          to label %invoke.cont83 unwind label %lpad71

invoke.cont83:                                    ; preds = %do.body81
  %call86 = call i32 (ptr, ptr, ...) @fprintf(ptr noundef %10, ptr noundef nonnull @.str.22, ptr noundef %call82, ptr noundef %call84) #37
  call void @exit(i32 noundef 1) #38
  unreachable

lpad67:                                           ; preds = %invoke.cont55
  %11 = landingpad { ptr, i32 }
          cleanup
  call void @_ZNSaIcED1Ev(ptr noundef nonnull align 1 dereferenceable(1) %ref.tmp66) #34
  br label %eh.resume

lpad71:                                           ; preds = %if.end89, %do.body81, %if.then75, %invoke.cont68
  %12 = landingpad { ptr, i32 }
          cleanup
  call void @_ZNSt7__cxx1112basic_stringIcSt11char_traitsIcESaIcEED1Ev(ptr noundef nonnull align 8 dereferenceable(32) %skey65) #34
  br label %eh.resume

if.end89:                                         ; preds = %invoke.cont77
  %call91 = invoke i32 @gguf_get_val_u32(ptr noundef %fctx, i32 noundef %call73)
          to label %invoke.cont90 unwind label %lpad71

invoke.cont90:                                    ; preds = %if.end89
  %iter = getelementptr inbounds i8, ptr %opt, i64 128
  store i32 %call91, ptr %iter, align 8
  call void @_ZNSt7__cxx1112basic_stringIcSt11char_traitsIcESaIcEED1Ev(ptr noundef nonnull align 8 dereferenceable(32) %skey65) #34
  call void @_ZNSaIcEC1Ev(ptr noundef nonnull align 1 dereferenceable(1) %ref.tmp101) #34
  invoke void @_ZNSt7__cxx1112basic_stringIcSt11char_traitsIcESaIcEEC1EPKcRKS3_(ptr noundef nonnull align 8 dereferenceable(32) %skey100, ptr noundef nonnull @.str.162, ptr noundef nonnull align 1 dereferenceable(1) %ref.tmp101)
          to label %invoke.cont103 unwind label %lpad102

do.body93:                                        ; preds = %invoke.cont72
  %13 = load ptr, ptr @stderr, align 8
  %call94 = call noundef ptr @_ZNKSt7__cxx1112basic_stringIcSt11char_traitsIcESaIcEE5c_strEv(ptr noundef nonnull align 8 dereferenceable(32) %skey65) #34
  %call96 = call i32 (ptr, ptr, ...) @fprintf(ptr noundef %13, ptr noundef nonnull @.str.23, ptr noundef %call94) #37
  call void @exit(i32 noundef 1) #38
  unreachable

invoke.cont103:                                   ; preds = %invoke.cont90
  call void @_ZNSaIcED1Ev(ptr noundef nonnull align 1 dereferenceable(1) %ref.tmp101) #34
  %call105 = call noundef ptr @_ZNKSt7__cxx1112basic_stringIcSt11char_traitsIcESaIcEE5c_strEv(ptr noundef nonnull align 8 dereferenceable(32) %skey100) #34
  %call108 = invoke i32 @gguf_find_key(ptr noundef %fctx, ptr noundef %call105)
          to label %invoke.cont107 unwind label %lpad106

invoke.cont107:                                   ; preds = %invoke.cont103
  %cmp109 = icmp sgt i32 %call108, -1
  br i1 %cmp109, label %if.then110, label %do.body128

if.then110:                                       ; preds = %invoke.cont107
  %call113 = invoke i32 @gguf_get_kv_type(ptr noundef %fctx, i32 noundef %call108)
          to label %invoke.cont112 unwind label %lpad106

invoke.cont112:                                   ; preds = %if.then110
  %cmp114.not = icmp eq i32 %call113, 7
  br i1 %cmp114.not, label %if.end124, label %do.body116

do.body116:                                       ; preds = %invoke.cont112
  %14 = load ptr, ptr @stderr, align 8
  %call117 = call noundef ptr @_ZNKSt7__cxx1112basic_stringIcSt11char_traitsIcESaIcEE5c_strEv(ptr noundef nonnull align 8 dereferenceable(32) %skey100) #34
  %call119 = invoke ptr @gguf_type_name(i32 noundef %call113)
          to label %invoke.cont118 unwind label %lpad106

invoke.cont118:                                   ; preds = %do.body116
  %call121 = call i32 (ptr, ptr, ...) @fprintf(ptr noundef %14, ptr noundef nonnull @.str.22, ptr noundef %call117, ptr noundef %call119) #37
  call void @exit(i32 noundef 1) #38
  unreachable

lpad102:                                          ; preds = %invoke.cont90
  %15 = landingpad { ptr, i32 }
          cleanup
  call void @_ZNSaIcED1Ev(ptr noundef nonnull align 1 dereferenceable(1) %ref.tmp101) #34
  br label %eh.resume

lpad106:                                          ; preds = %if.end124, %do.body116, %if.then110, %invoke.cont103
  %16 = landingpad { ptr, i32 }
          cleanup
  call void @_ZNSt7__cxx1112basic_stringIcSt11char_traitsIcESaIcEED1Ev(ptr noundef nonnull align 8 dereferenceable(32) %skey100) #34
  br label %eh.resume

if.end124:                                        ; preds = %invoke.cont112
  %call126 = invoke zeroext i1 @gguf_get_val_bool(ptr noundef %fctx, i32 noundef %call108)
          to label %invoke.cont125 unwind label %lpad106

invoke.cont125:                                   ; preds = %if.end124
  %just_initialized = getelementptr inbounds i8, ptr %opt, i64 144
  %frombool = zext i1 %call126 to i8
  store i8 %frombool, ptr %just_initialized, align 8
  call void @_ZNSt7__cxx1112basic_stringIcSt11char_traitsIcESaIcEED1Ev(ptr noundef nonnull align 8 dereferenceable(32) %skey100) #34
  call void @_ZNSaIcEC1Ev(ptr noundef nonnull align 1 dereferenceable(1) %ref.tmp136) #34
  invoke void @_ZNSt7__cxx1112basic_stringIcSt11char_traitsIcESaIcEEC1EPKcRKS3_(ptr noundef nonnull align 8 dereferenceable(32) %skey135, ptr noundef nonnull @.str.163, ptr noundef nonnull align 1 dereferenceable(1) %ref.tmp136)
          to label %invoke.cont138 unwind label %lpad137

do.body128:                                       ; preds = %invoke.cont107
  %17 = load ptr, ptr @stderr, align 8
  %call129 = call noundef ptr @_ZNKSt7__cxx1112basic_stringIcSt11char_traitsIcESaIcEE5c_strEv(ptr noundef nonnull align 8 dereferenceable(32) %skey100) #34
  %call131 = call i32 (ptr, ptr, ...) @fprintf(ptr noundef %17, ptr noundef nonnull @.str.23, ptr noundef %call129) #37
  call void @exit(i32 noundef 1) #38
  unreachable

invoke.cont138:                                   ; preds = %invoke.cont125
  call void @_ZNSaIcED1Ev(ptr noundef nonnull align 1 dereferenceable(1) %ref.tmp136) #34
  %call140 = call noundef ptr @_ZNKSt7__cxx1112basic_stringIcSt11char_traitsIcESaIcEE5c_strEv(ptr noundef nonnull align 8 dereferenceable(32) %skey135) #34
  %call143 = invoke i32 @gguf_find_key(ptr noundef %fctx, ptr noundef %call140)
          to label %invoke.cont142 unwind label %lpad141

invoke.cont142:                                   ; preds = %invoke.cont138
  %cmp144 = icmp sgt i32 %call143, -1
  br i1 %cmp144, label %if.then145, label %do.body163

if.then145:                                       ; preds = %invoke.cont142
  %call148 = invoke i32 @gguf_get_kv_type(ptr noundef %fctx, i32 noundef %call143)
          to label %invoke.cont147 unwind label %lpad141

invoke.cont147:                                   ; preds = %if.then145
  %cmp149.not = icmp eq i32 %call148, 10
  br i1 %cmp149.not, label %if.end159, label %do.body151

do.body151:                                       ; preds = %invoke.cont147
  %18 = load ptr, ptr @stderr, align 8
  %call152 = call noundef ptr @_ZNKSt7__cxx1112basic_stringIcSt11char_traitsIcESaIcEE5c_strEv(ptr noundef nonnull align 8 dereferenceable(32) %skey135) #34
  %call154 = invoke ptr @gguf_type_name(i32 noundef %call148)
          to label %invoke.cont153 unwind label %lpad141

invoke.cont153:                                   ; preds = %do.body151
  %call156 = call i32 (ptr, ptr, ...) @fprintf(ptr noundef %18, ptr noundef nonnull @.str.22, ptr noundef %call152, ptr noundef %call154) #37
  call void @exit(i32 noundef 1) #38
  unreachable

lpad137:                                          ; preds = %invoke.cont125
  %19 = landingpad { ptr, i32 }
          cleanup
  call void @_ZNSaIcED1Ev(ptr noundef nonnull align 1 dereferenceable(1) %ref.tmp136) #34
  br label %eh.resume

lpad141:                                          ; preds = %if.end159, %do.body151, %if.then145, %invoke.cont138
  %20 = landingpad { ptr, i32 }
          cleanup
  call void @_ZNSt7__cxx1112basic_stringIcSt11char_traitsIcESaIcEED1Ev(ptr noundef nonnull align 8 dereferenceable(32) %skey135) #34
  br label %eh.resume

if.end159:                                        ; preds = %invoke.cont147
  %call161 = invoke i64 @gguf_get_val_u64(ptr noundef %fctx, i32 noundef %call143)
          to label %invoke.cont160 unwind label %lpad141

invoke.cont160:                                   ; preds = %if.end159
  call void @_ZNSt7__cxx1112basic_stringIcSt11char_traitsIcESaIcEED1Ev(ptr noundef nonnull align 8 dereferenceable(32) %skey135) #34
  %nx170 = getelementptr inbounds i8, ptr %opt, i64 136
  store i64 %call161, ptr %nx170, align 8
  call void @_ZNSt7__cxx1112basic_stringIcSt11char_traitsIcESaIcEEC1Ev(ptr noundef nonnull align 8 dereferenceable(32) %opt_type) #34
  call void @_ZNSaIcEC1Ev(ptr noundef nonnull align 1 dereferenceable(1) %ref.tmp172) #34
  invoke void @_ZNSt7__cxx1112basic_stringIcSt11char_traitsIcESaIcEEC1EPKcRKS3_(ptr noundef nonnull align 8 dereferenceable(32) %skey171, ptr noundef nonnull @.str.164, ptr noundef nonnull align 1 dereferenceable(1) %ref.tmp172)
          to label %invoke.cont174 unwind label %lpad173

do.body163:                                       ; preds = %invoke.cont142
  %21 = load ptr, ptr @stderr, align 8
  %call164 = call noundef ptr @_ZNKSt7__cxx1112basic_stringIcSt11char_traitsIcESaIcEE5c_strEv(ptr noundef nonnull align 8 dereferenceable(32) %skey135) #34
  %call166 = call i32 (ptr, ptr, ...) @fprintf(ptr noundef %21, ptr noundef nonnull @.str.23, ptr noundef %call164) #37
  call void @exit(i32 noundef 1) #38
  unreachable

invoke.cont174:                                   ; preds = %invoke.cont160
  call void @_ZNSaIcED1Ev(ptr noundef nonnull align 1 dereferenceable(1) %ref.tmp172) #34
  %call176 = call noundef ptr @_ZNKSt7__cxx1112basic_stringIcSt11char_traitsIcESaIcEE5c_strEv(ptr noundef nonnull align 8 dereferenceable(32) %skey171) #34
  %call179 = invoke i32 @gguf_find_key(ptr noundef %fctx, ptr noundef %call176)
          to label %invoke.cont178 unwind label %lpad177

invoke.cont178:                                   ; preds = %invoke.cont174
  %cmp180 = icmp sgt i32 %call179, -1
  br i1 %cmp180, label %if.then181, label %do.body201

if.then181:                                       ; preds = %invoke.cont178
  %call184 = invoke i32 @gguf_get_kv_type(ptr noundef %fctx, i32 noundef %call179)
          to label %invoke.cont183 unwind label %lpad177

invoke.cont183:                                   ; preds = %if.then181
  %cmp185.not = icmp eq i32 %call184, 8
  br i1 %cmp185.not, label %if.end195, label %do.body187

do.body187:                                       ; preds = %invoke.cont183
  %22 = load ptr, ptr @stderr, align 8
  %call188 = call noundef ptr @_ZNKSt7__cxx1112basic_stringIcSt11char_traitsIcESaIcEE5c_strEv(ptr noundef nonnull align 8 dereferenceable(32) %skey171) #34
  %call190 = invoke ptr @gguf_type_name(i32 noundef %call184)
          to label %invoke.cont189 unwind label %lpad177

invoke.cont189:                                   ; preds = %do.body187
  %call192 = call i32 (ptr, ptr, ...) @fprintf(ptr noundef %22, ptr noundef nonnull @.str.22, ptr noundef %call188, ptr noundef %call190) #37
  call void @exit(i32 noundef 1) #38
  unreachable

lpad173:                                          ; preds = %invoke.cont160
  %23 = landingpad { ptr, i32 }
          cleanup
  call void @_ZNSaIcED1Ev(ptr noundef nonnull align 1 dereferenceable(1) %ref.tmp172) #34
  br label %ehcleanup

lpad177:                                          ; preds = %invoke.cont196, %if.end195, %do.body187, %if.then181, %invoke.cont174
  %24 = landingpad { ptr, i32 }
          cleanup
  call void @_ZNSt7__cxx1112basic_stringIcSt11char_traitsIcESaIcEED1Ev(ptr noundef nonnull align 8 dereferenceable(32) %skey171) #34
  br label %ehcleanup

if.end195:                                        ; preds = %invoke.cont183
  %call197 = invoke ptr @gguf_get_val_str(ptr noundef %fctx, i32 noundef %call179)
          to label %invoke.cont196 unwind label %lpad177

invoke.cont196:                                   ; preds = %if.end195
  %call199 = invoke noundef nonnull align 8 dereferenceable(32) ptr @_ZNSt7__cxx1112basic_stringIcSt11char_traitsIcESaIcEEaSEPKc(ptr noundef nonnull align 8 dereferenceable(32) %opt_type, ptr noundef %call197)
          to label %if.end207 unwind label %lpad177

do.body201:                                       ; preds = %invoke.cont178
  %25 = load ptr, ptr @stderr, align 8
  %call202 = call noundef ptr @_ZNKSt7__cxx1112basic_stringIcSt11char_traitsIcESaIcEE5c_strEv(ptr noundef nonnull align 8 dereferenceable(32) %skey171) #34
  %call204 = call i32 (ptr, ptr, ...) @fprintf(ptr noundef %25, ptr noundef nonnull @.str.23, ptr noundef %call202) #37
  call void @exit(i32 noundef 1) #38
  unreachable

if.end207:                                        ; preds = %invoke.cont196
  call void @_ZNSt7__cxx1112basic_stringIcSt11char_traitsIcESaIcEED1Ev(ptr noundef nonnull align 8 dereferenceable(32) %skey171) #34
  %call.i = call noundef i32 @_ZNKSt7__cxx1112basic_stringIcSt11char_traitsIcESaIcEE7compareEPKc(ptr noundef nonnull align 8 dereferenceable(32) %opt_type, ptr noundef nonnull @.str.165) #34
  %cmp.i = icmp eq i32 %call.i, 0
  br i1 %cmp.i, label %if.then211, label %if.else329

if.then211:                                       ; preds = %if.end207
  store i32 0, ptr %params, align 8
  call void @_ZNSaIcEC1Ev(ptr noundef nonnull align 1 dereferenceable(1) %ref.tmp214) #34
  invoke void @_ZNSt7__cxx1112basic_stringIcSt11char_traitsIcESaIcEEC1EPKcRKS3_(ptr noundef nonnull align 8 dereferenceable(32) %skey213, ptr noundef nonnull @.str.166, ptr noundef nonnull align 1 dereferenceable(1) %ref.tmp214)
          to label %invoke.cont216 unwind label %lpad215

invoke.cont216:                                   ; preds = %if.then211
  call void @_ZNSaIcED1Ev(ptr noundef nonnull align 1 dereferenceable(1) %ref.tmp214) #34
  %call218 = call noundef ptr @_ZNKSt7__cxx1112basic_stringIcSt11char_traitsIcESaIcEE5c_strEv(ptr noundef nonnull align 8 dereferenceable(32) %skey213) #34
  %call221 = invoke i32 @gguf_find_key(ptr noundef %fctx, ptr noundef %call218)
          to label %invoke.cont220 unwind label %lpad219

invoke.cont220:                                   ; preds = %invoke.cont216
  %cmp222 = icmp sgt i32 %call221, -1
  br i1 %cmp222, label %if.then223, label %do.body241

if.then223:                                       ; preds = %invoke.cont220
  %call226 = invoke i32 @gguf_get_kv_type(ptr noundef %fctx, i32 noundef %call221)
          to label %invoke.cont225 unwind label %lpad219

invoke.cont225:                                   ; preds = %if.then223
  %cmp227.not = icmp eq i32 %call226, 6
  br i1 %cmp227.not, label %if.end237, label %do.body229

do.body229:                                       ; preds = %invoke.cont225
  %26 = load ptr, ptr @stderr, align 8
  %call230 = call noundef ptr @_ZNKSt7__cxx1112basic_stringIcSt11char_traitsIcESaIcEE5c_strEv(ptr noundef nonnull align 8 dereferenceable(32) %skey213) #34
  %call232 = invoke ptr @gguf_type_name(i32 noundef %call226)
          to label %invoke.cont231 unwind label %lpad219

invoke.cont231:                                   ; preds = %do.body229
  %call234 = call i32 (ptr, ptr, ...) @fprintf(ptr noundef %26, ptr noundef nonnull @.str.22, ptr noundef %call230, ptr noundef %call232) #37
